ARM GAS  /var/folders/2p/02m_5p7958535cp2tpgps0400000gn/T//ccbXQTM6.s 			page 1


   1              		.cpu cortex-m7
   2              		.arch armv7e-m
   3              		.fpu fpv5-d16
   4              		.eabi_attribute 28, 1
   5              		.eabi_attribute 20, 1
   6              		.eabi_attribute 21, 1
   7              		.eabi_attribute 23, 3
   8              		.eabi_attribute 24, 1
   9              		.eabi_attribute 25, 1
  10              		.eabi_attribute 26, 1
  11              		.eabi_attribute 30, 4
  12              		.eabi_attribute 34, 1
  13              		.eabi_attribute 18, 4
  14              		.file	"AudioFileManager.cpp"
  15              		.text
  16              	.Ltext0:
  17              		.cfi_sections	.debug_frame
  18              		.section	.rodata._ZN16AudioFileManager4InitEv.str1.1,"aMS",%progbits,1
  19              	.LC0:
  20 0000 676F7420 		.ascii	"got to here\000"
  20      746F2068 
  20      65726500 
  21              	.LC1:
  22 000c 73642069 		.ascii	"sd init ok\000"
  22      6E697420 
  22      6F6B00
  23              	.LC2:
  24 0017 696E6974 		.ascii	"init fsi okay\000"
  24      20667369 
  24      206F6B61 
  24      7900
  25              	.LC3:
  26 0025 2F00     		.ascii	"/\000"
  27              	.LC4:
  28 0027 63616E27 		.ascii	"can't mount fsi\000"
  28      74206D6F 
  28      756E7420 
  28      66736900 
  29              	.LC5:
  30 0037 72657475 		.ascii	"returning true\000"
  30      726E696E 
  30      67207472 
  30      756500
  31              		.section	.text._ZN16AudioFileManager4InitEv,"ax",%progbits
  32              		.align	1
  33              		.global	_ZN16AudioFileManager4InitEv
  34              		.syntax unified
  35              		.thumb
  36              		.thumb_func
  38              	_ZN16AudioFileManager4InitEv:
  39              	.LVL0:
  40              	.LFB2583:
  41              		.file 1 "AudioFileManager.cpp"
   1:AudioFileManager.cpp **** #include "AudioFileManager.h"
   2:AudioFileManager.cpp **** 
   3:AudioFileManager.cpp **** using namespace daisy;
   4:AudioFileManager.cpp **** 
ARM GAS  /var/folders/2p/02m_5p7958535cp2tpgps0400000gn/T//ccbXQTM6.s 			page 2


   5:AudioFileManager.cpp **** /// @brief Initialises sd card and file system interfaces
   6:AudioFileManager.cpp **** /// @return True if initialisation succeeds, else false
   7:AudioFileManager.cpp **** bool AudioFileManager::Init(){
  42              		.loc 1 7 30 view -0
  43              		.cfi_startproc
  44              		@ args = 0, pretend = 0, frame = 16
  45              		@ frame_needed = 0, uses_anonymous_args = 0
   8:AudioFileManager.cpp ****   pod_.seed.PrintLine("got to here");
  46              		.loc 1 8 3 view .LVU1
  47              	.LBB36:
  48              	.LBI36:
  49              		.file 2 "../libDaisy/src/daisy_seed.h"
   1:../libDaisy/src/daisy_seed.h **** #pragma once
   2:../libDaisy/src/daisy_seed.h **** #ifndef DSY_SEED_H
   3:../libDaisy/src/daisy_seed.h **** #define DSY_SEED_H
   4:../libDaisy/src/daisy_seed.h **** 
   5:../libDaisy/src/daisy_seed.h **** #include "daisy.h"
   6:../libDaisy/src/daisy_seed.h **** 
   7:../libDaisy/src/daisy_seed.h **** //Uncomment this out if you're still using the rev2 hardware
   8:../libDaisy/src/daisy_seed.h **** //#define SEED_REV2
   9:../libDaisy/src/daisy_seed.h **** 
  10:../libDaisy/src/daisy_seed.h **** namespace daisy
  11:../libDaisy/src/daisy_seed.h **** {
  12:../libDaisy/src/daisy_seed.h **** /**
  13:../libDaisy/src/daisy_seed.h ****    @brief This is the higher-level interface for the Daisy board. \n 
  14:../libDaisy/src/daisy_seed.h ****     All basic peripheral configuration/initialization is setup here. \n
  15:../libDaisy/src/daisy_seed.h **** 
  16:../libDaisy/src/daisy_seed.h ****    @ingroup boards
  17:../libDaisy/src/daisy_seed.h **** */
  18:../libDaisy/src/daisy_seed.h **** class DaisySeed
  19:../libDaisy/src/daisy_seed.h **** {
  20:../libDaisy/src/daisy_seed.h ****   public:
  21:../libDaisy/src/daisy_seed.h ****     DaisySeed() {}
  22:../libDaisy/src/daisy_seed.h ****     ~DaisySeed() {}
  23:../libDaisy/src/daisy_seed.h **** 
  24:../libDaisy/src/daisy_seed.h ****     /** This function used to provide a pre-initialization configuraiton 
  25:../libDaisy/src/daisy_seed.h ****      *  it has since been deprecated, and does nothing.
  26:../libDaisy/src/daisy_seed.h ****      */
  27:../libDaisy/src/daisy_seed.h ****     void Configure();
  28:../libDaisy/src/daisy_seed.h **** 
  29:../libDaisy/src/daisy_seed.h ****     /** 
  30:../libDaisy/src/daisy_seed.h ****     Initializes the Daisy Seed and the following peripherals:
  31:../libDaisy/src/daisy_seed.h ****     SDRAM, QSPI, 24-bit 48kHz Audio via AK4556, Internal USB,
  32:../libDaisy/src/daisy_seed.h ****     as well as the built-in LED and Testpoint.
  33:../libDaisy/src/daisy_seed.h **** 
  34:../libDaisy/src/daisy_seed.h ****     ADCs, DACs, and other special peripherals (such as I2C, SPI, etc.)
  35:../libDaisy/src/daisy_seed.h ****     can be initialized using their specific initializers within libdaisy
  36:../libDaisy/src/daisy_seed.h ****     for a specific application.
  37:../libDaisy/src/daisy_seed.h ****     */
  38:../libDaisy/src/daisy_seed.h ****     void Init(bool boost = false);
  39:../libDaisy/src/daisy_seed.h **** 
  40:../libDaisy/src/daisy_seed.h ****     /** 
  41:../libDaisy/src/daisy_seed.h ****     Deinitializes all peripherals automatically handled by `Init`.
  42:../libDaisy/src/daisy_seed.h ****     */
  43:../libDaisy/src/daisy_seed.h ****     void DeInit();
  44:../libDaisy/src/daisy_seed.h **** 
  45:../libDaisy/src/daisy_seed.h ****     /** 
ARM GAS  /var/folders/2p/02m_5p7958535cp2tpgps0400000gn/T//ccbXQTM6.s 			page 3


  46:../libDaisy/src/daisy_seed.h ****     Wait some ms before going on.
  47:../libDaisy/src/daisy_seed.h ****     \param del Delay time in ms.
  48:../libDaisy/src/daisy_seed.h ****     */
  49:../libDaisy/src/daisy_seed.h ****     void DelayMs(size_t del);
  50:../libDaisy/src/daisy_seed.h **** 
  51:../libDaisy/src/daisy_seed.h ****     /** 
  52:../libDaisy/src/daisy_seed.h ****     Returns the gpio_pin corresponding to the index 0-31.
  53:../libDaisy/src/daisy_seed.h ****     For the given GPIO on the Daisy Seed (labeled 1-32 in docs).
  54:../libDaisy/src/daisy_seed.h ****     */
  55:../libDaisy/src/daisy_seed.h ****     static dsy_gpio_pin GetPin(uint8_t pin_idx);
  56:../libDaisy/src/daisy_seed.h **** 
  57:../libDaisy/src/daisy_seed.h ****     /** Begins the audio for the seeds builtin audio.
  58:../libDaisy/src/daisy_seed.h ****     the specified callback will get called whenever
  59:../libDaisy/src/daisy_seed.h ****     new data is ready to be prepared.
  60:../libDaisy/src/daisy_seed.h ****     */
  61:../libDaisy/src/daisy_seed.h ****     void StartAudio(AudioHandle::InterleavingAudioCallback cb);
  62:../libDaisy/src/daisy_seed.h **** 
  63:../libDaisy/src/daisy_seed.h ****     /** Begins the audio for the seeds builtin audio.
  64:../libDaisy/src/daisy_seed.h ****     the specified callback will get called whenever
  65:../libDaisy/src/daisy_seed.h ****     new data is ready to be prepared.
  66:../libDaisy/src/daisy_seed.h ****     This will use the newer non-interleaved callback.
  67:../libDaisy/src/daisy_seed.h ****     */
  68:../libDaisy/src/daisy_seed.h ****     void StartAudio(AudioHandle::AudioCallback cb);
  69:../libDaisy/src/daisy_seed.h **** 
  70:../libDaisy/src/daisy_seed.h ****     /** Changes to a new interleaved callback
  71:../libDaisy/src/daisy_seed.h ****      */
  72:../libDaisy/src/daisy_seed.h ****     void ChangeAudioCallback(AudioHandle::InterleavingAudioCallback cb);
  73:../libDaisy/src/daisy_seed.h **** 
  74:../libDaisy/src/daisy_seed.h ****     /** Changes to a new multichannel callback
  75:../libDaisy/src/daisy_seed.h ****      */
  76:../libDaisy/src/daisy_seed.h ****     void ChangeAudioCallback(AudioHandle::AudioCallback cb);
  77:../libDaisy/src/daisy_seed.h **** 
  78:../libDaisy/src/daisy_seed.h ****     /** Stops the audio if it is running. */
  79:../libDaisy/src/daisy_seed.h ****     void StopAudio();
  80:../libDaisy/src/daisy_seed.h **** 
  81:../libDaisy/src/daisy_seed.h ****     /** Updates the Audio Sample Rate, and reinitializes.
  82:../libDaisy/src/daisy_seed.h ****      ** Audio must be stopped for this to work.
  83:../libDaisy/src/daisy_seed.h ****      */
  84:../libDaisy/src/daisy_seed.h ****     void SetAudioSampleRate(SaiHandle::Config::SampleRate samplerate);
  85:../libDaisy/src/daisy_seed.h **** 
  86:../libDaisy/src/daisy_seed.h ****     /** Returns the audio sample rate in Hz as a floating point number.
  87:../libDaisy/src/daisy_seed.h ****      */
  88:../libDaisy/src/daisy_seed.h ****     float AudioSampleRate();
  89:../libDaisy/src/daisy_seed.h **** 
  90:../libDaisy/src/daisy_seed.h ****     /** Sets the number of samples processed per channel by the audio callback.
  91:../libDaisy/src/daisy_seed.h ****      */
  92:../libDaisy/src/daisy_seed.h ****     void SetAudioBlockSize(size_t blocksize);
  93:../libDaisy/src/daisy_seed.h **** 
  94:../libDaisy/src/daisy_seed.h ****     /** Returns the number of samples per channel in a block of audio. */
  95:../libDaisy/src/daisy_seed.h ****     size_t AudioBlockSize();
  96:../libDaisy/src/daisy_seed.h **** 
  97:../libDaisy/src/daisy_seed.h ****     /** Returns the rate in Hz that the Audio callback is called */
  98:../libDaisy/src/daisy_seed.h ****     float AudioCallbackRate() const;
  99:../libDaisy/src/daisy_seed.h **** 
 100:../libDaisy/src/daisy_seed.h ****     /** Returns the SAI Handle for the Daisy Seed 
 101:../libDaisy/src/daisy_seed.h ****      *  This can be useful when adding a secondary codec,
 102:../libDaisy/src/daisy_seed.h ****      *  the result of this function can be passed to the audio reinit 
ARM GAS  /var/folders/2p/02m_5p7958535cp2tpgps0400000gn/T//ccbXQTM6.s 			page 4


 103:../libDaisy/src/daisy_seed.h ****      *  with an SAI2 configuration
 104:../libDaisy/src/daisy_seed.h ****      */
 105:../libDaisy/src/daisy_seed.h ****     const SaiHandle& AudioSaiHandle() const;
 106:../libDaisy/src/daisy_seed.h **** 
 107:../libDaisy/src/daisy_seed.h ****     /** Sets the state of the built in LED
 108:../libDaisy/src/daisy_seed.h ****      */
 109:../libDaisy/src/daisy_seed.h ****     void SetLed(bool state);
 110:../libDaisy/src/daisy_seed.h **** 
 111:../libDaisy/src/daisy_seed.h ****     /** Sets the state of the test point near pin 10
 112:../libDaisy/src/daisy_seed.h ****      */
 113:../libDaisy/src/daisy_seed.h ****     void SetTestPoint(bool state);
 114:../libDaisy/src/daisy_seed.h **** 
 115:../libDaisy/src/daisy_seed.h ****     /** Print formatted debug log message
 116:../libDaisy/src/daisy_seed.h ****      */
 117:../libDaisy/src/daisy_seed.h ****     template <typename... VA>
 118:../libDaisy/src/daisy_seed.h ****     static void Print(const char* format, VA... va)
 119:../libDaisy/src/daisy_seed.h ****     {
 120:../libDaisy/src/daisy_seed.h ****         Log::Print(format, va...);
 121:../libDaisy/src/daisy_seed.h ****     }
 122:../libDaisy/src/daisy_seed.h **** 
 123:../libDaisy/src/daisy_seed.h ****     /** Print formatted debug log message with automatic line termination
 124:../libDaisy/src/daisy_seed.h ****     */
 125:../libDaisy/src/daisy_seed.h ****     template <typename... VA>
 126:../libDaisy/src/daisy_seed.h ****     static void PrintLine(const char* format, VA... va)
  50              		.loc 2 126 17 view .LVU2
  51              	.LBE36:
   7:AudioFileManager.cpp ****   pod_.seed.PrintLine("got to here");
  52              		.loc 1 7 30 is_stmt 0 view .LVU3
  53 0000 F0B5     		push	{r4, r5, r6, r7, lr}
  54              		.cfi_def_cfa_offset 20
  55              		.cfi_offset 4, -20
  56              		.cfi_offset 5, -16
  57              		.cfi_offset 6, -12
  58              		.cfi_offset 7, -8
  59              		.cfi_offset 14, -4
  60 0002 0546     		mov	r5, r0
  61 0004 85B0     		sub	sp, sp, #20
  62              		.cfi_def_cfa_offset 40
  63              	.LBB39:
  64              	.LBB37:
 127:../libDaisy/src/daisy_seed.h ****     {
 128:../libDaisy/src/daisy_seed.h ****         Log::PrintLine(format, va...);
  65              		.loc 2 128 23 view .LVU4
  66 0006 1748     		ldr	r0, .L5
  67              	.LVL1:
  68              		.loc 2 128 23 view .LVU5
  69              	.LBE37:
  70              	.LBE39:
  71              	.LBB40:
  72              	.LBB41:
  73              		.file 3 "../libDaisy/src/per/sdmmc.h"
   1:../libDaisy/src/per/sdmmc.h **** /*
   2:../libDaisy/src/per/sdmmc.h **** TODO: 
   3:../libDaisy/src/per/sdmmc.h **** - Implement configuration (currently all settings are fixed).
   4:../libDaisy/src/per/sdmmc.h **** */
   5:../libDaisy/src/per/sdmmc.h **** #pragma once
   6:../libDaisy/src/per/sdmmc.h **** #ifndef DSY_SDMMC_H
ARM GAS  /var/folders/2p/02m_5p7958535cp2tpgps0400000gn/T//ccbXQTM6.s 			page 5


   7:../libDaisy/src/per/sdmmc.h **** #define DSY_SDMMC_H /**< macro */
   8:../libDaisy/src/per/sdmmc.h **** 
   9:../libDaisy/src/per/sdmmc.h **** #include <stdint.h>
  10:../libDaisy/src/per/sdmmc.h **** 
  11:../libDaisy/src/per/sdmmc.h **** 
  12:../libDaisy/src/per/sdmmc.h **** namespace daisy
  13:../libDaisy/src/per/sdmmc.h **** {
  14:../libDaisy/src/per/sdmmc.h **** /** @ingroup peripheral
  15:../libDaisy/src/per/sdmmc.h ****     @{
  16:../libDaisy/src/per/sdmmc.h ****     */
  17:../libDaisy/src/per/sdmmc.h **** 
  18:../libDaisy/src/per/sdmmc.h **** /** Configuration for interfacing with SD cards.
  19:../libDaisy/src/per/sdmmc.h ****  *  Currently only supports operation using FatFS filesystem
  20:../libDaisy/src/per/sdmmc.h ****  * 
  21:../libDaisy/src/per/sdmmc.h ****  *  Only SDMMC1 is supported at this time.
  22:../libDaisy/src/per/sdmmc.h ****  *
  23:../libDaisy/src/per/sdmmc.h ****  *  Pins are fixed to the following:
  24:../libDaisy/src/per/sdmmc.h ****  *  PC12 - SDMMC1 CK
  25:../libDaisy/src/per/sdmmc.h ****  *  PD2  - SDMMC1 CMD
  26:../libDaisy/src/per/sdmmc.h ****  *  PC8  - SDMMC1 D0
  27:../libDaisy/src/per/sdmmc.h ****  *  PC9  - SDMMC1 D1 (optional)
  28:../libDaisy/src/per/sdmmc.h ****  *  PC10 - SDMMC1 D2 (optional)
  29:../libDaisy/src/per/sdmmc.h ****  *  PC11 - SDMMC1 D3 (optional)
  30:../libDaisy/src/per/sdmmc.h **** */
  31:../libDaisy/src/per/sdmmc.h **** class SdmmcHandler
  32:../libDaisy/src/per/sdmmc.h **** {
  33:../libDaisy/src/per/sdmmc.h ****   public:
  34:../libDaisy/src/per/sdmmc.h ****     /** Return values for the SdmmcHandler class */
  35:../libDaisy/src/per/sdmmc.h ****     enum class Result
  36:../libDaisy/src/per/sdmmc.h ****     {
  37:../libDaisy/src/per/sdmmc.h ****         OK,
  38:../libDaisy/src/per/sdmmc.h ****         ERROR,
  39:../libDaisy/src/per/sdmmc.h ****     };
  40:../libDaisy/src/per/sdmmc.h **** 
  41:../libDaisy/src/per/sdmmc.h ****     /** Sets whether 4-bit mode or 1-bit mode is used for the SDMMC */
  42:../libDaisy/src/per/sdmmc.h ****     enum class BusWidth
  43:../libDaisy/src/per/sdmmc.h ****     {
  44:../libDaisy/src/per/sdmmc.h ****         BITS_1, /**< Only 1 bit of data per clock is transferred */
  45:../libDaisy/src/per/sdmmc.h ****         BITS_4, /**< 4-bits of parallel data for each clock pulse */
  46:../libDaisy/src/per/sdmmc.h ****     };
  47:../libDaisy/src/per/sdmmc.h **** 
  48:../libDaisy/src/per/sdmmc.h ****     /** 
  49:../libDaisy/src/per/sdmmc.h ****     Sets the desired clock speed of the SD card bus. \n 
  50:../libDaisy/src/per/sdmmc.h ****     Initialization is always done at or below 400kHz, and then the user speed is set.
  51:../libDaisy/src/per/sdmmc.h ****     */
  52:../libDaisy/src/per/sdmmc.h ****     enum class Speed
  53:../libDaisy/src/per/sdmmc.h ****     {
  54:../libDaisy/src/per/sdmmc.h ****         SLOW, /**< 400kHz, initialization  performed at this rate, before moving to user value */
  55:../libDaisy/src/per/sdmmc.h ****         MEDIUM_SLOW, /**< 12.5MHz - half of standard rate */
  56:../libDaisy/src/per/sdmmc.h ****         STANDARD,    /**< 25MHz - DS (Default Speed for SDMMC) */
  57:../libDaisy/src/per/sdmmc.h ****         FAST,        /**< 50MHz - HS (High Speed signaling) */
  58:../libDaisy/src/per/sdmmc.h ****         VERY_FAST, /**< 100MHz - SDR50 Overclocked rate for maximum transfer rates */
  59:../libDaisy/src/per/sdmmc.h ****     };
  60:../libDaisy/src/per/sdmmc.h **** 
  61:../libDaisy/src/per/sdmmc.h ****     struct Config
  62:../libDaisy/src/per/sdmmc.h ****     {
  63:../libDaisy/src/per/sdmmc.h ****         Speed    speed;
ARM GAS  /var/folders/2p/02m_5p7958535cp2tpgps0400000gn/T//ccbXQTM6.s 			page 6


  64:../libDaisy/src/per/sdmmc.h ****         BusWidth width;
  65:../libDaisy/src/per/sdmmc.h ****         bool
  66:../libDaisy/src/per/sdmmc.h ****             clock_powersave; /**< When true, the clock will stop between transfers to save power. *
  67:../libDaisy/src/per/sdmmc.h **** 
  68:../libDaisy/src/per/sdmmc.h ****         /** Configures settings to their default settings */
  69:../libDaisy/src/per/sdmmc.h ****         void Defaults()
  70:../libDaisy/src/per/sdmmc.h ****         {
  71:../libDaisy/src/per/sdmmc.h ****             speed           = Speed::FAST;
  72:../libDaisy/src/per/sdmmc.h ****             width           = BusWidth::BITS_4;
  74              		.loc 3 72 29 view .LVU6
  75 0008 0126     		movs	r6, #1
  76              	.LBE41:
  77              	.LBE40:
  78              	.LBB44:
  79              	.LBB38:
  80              		.loc 2 128 23 view .LVU7
  81 000a FFF7FEFF 		bl	_ZN5daisy6LoggerILNS_17LoggerDestinationE1EE9PrintLineEPKcz
  82              	.LVL2:
  83              		.loc 2 128 23 view .LVU8
  84              	.LBE38:
  85              	.LBE44:
   9:AudioFileManager.cpp ****   SdmmcHandler::Config sd_cfg;
  86              		.loc 1 9 3 is_stmt 1 view .LVU9
  10:AudioFileManager.cpp ****   sd_cfg.Defaults();
  87              		.loc 1 10 3 view .LVU10
  88              	.LBB45:
  89              	.LBI40:
  69:../libDaisy/src/per/sdmmc.h ****         {
  90              		.loc 3 69 14 view .LVU11
  91              	.LBB42:
  71:../libDaisy/src/per/sdmmc.h ****             width           = BusWidth::BITS_4;
  92              		.loc 3 71 13 view .LVU12
  73:../libDaisy/src/per/sdmmc.h ****             clock_powersave = false;
  93              		.loc 3 73 29 is_stmt 0 view .LVU13
  94 000e 0024     		movs	r4, #0
  72:../libDaisy/src/per/sdmmc.h ****             clock_powersave = false;
  95              		.loc 3 72 29 view .LVU14
  96 0010 0323     		movs	r3, #3
  97              	.LBE42:
  98              	.LBE45:
  11:AudioFileManager.cpp ****   if (sd_.Init(sd_cfg) != SdmmcHandler::Result::OK) {
  99              		.loc 1 11 15 view .LVU15
 100 0012 01A9     		add	r1, sp, #4
 101              	.LVL3:
 102              		.loc 1 11 15 view .LVU16
 103 0014 2868     		ldr	r0, [r5]
 104              	.LBB46:
 105              	.LBB43:
 106              		.loc 3 73 29 view .LVU17
 107 0016 8DF80C40 		strb	r4, [sp, #12]
  72:../libDaisy/src/per/sdmmc.h ****             clock_powersave = false;
 108              		.loc 3 72 29 view .LVU18
 109 001a CDE90136 		strd	r3, r6, [sp, #4]
 110              		.loc 3 73 13 is_stmt 1 view .LVU19
 111              	.LVL4:
 112              		.loc 3 73 13 is_stmt 0 view .LVU20
 113              	.LBE43:
ARM GAS  /var/folders/2p/02m_5p7958535cp2tpgps0400000gn/T//ccbXQTM6.s 			page 7


 114              	.LBE46:
 115              		.loc 1 11 3 is_stmt 1 view .LVU21
 116              		.loc 1 11 15 is_stmt 0 view .LVU22
 117 001e FFF7FEFF 		bl	_ZN5daisy12SdmmcHandler4InitERKNS0_6ConfigE
 118              	.LVL5:
 119              		.loc 1 11 3 view .LVU23
 120 0022 0746     		mov	r7, r0
 121 0024 D8B9     		cbnz	r0, .L4
  12:AudioFileManager.cpp ****     return false;
  13:AudioFileManager.cpp ****   }
  14:AudioFileManager.cpp ****   else pod_.seed.PrintLine("sd init ok");
 122              		.loc 1 14 8 is_stmt 1 view .LVU24
 123              	.LVL6:
 124              	.LBB47:
 125              	.LBI47:
 126:../libDaisy/src/daisy_seed.h ****     {
 126              		.loc 2 126 17 view .LVU25
 127              	.LBB48:
 128              		.loc 2 128 23 is_stmt 0 view .LVU26
 129 0026 1048     		ldr	r0, .L5+4
 130 0028 FFF7FEFF 		bl	_ZN5daisy6LoggerILNS_17LoggerDestinationE1EE9PrintLineEPKcz
 131              	.LVL7:
 132              		.loc 2 128 23 view .LVU27
 133              	.LBE48:
 134              	.LBE47:
  15:AudioFileManager.cpp **** 
  16:AudioFileManager.cpp ****   fsi_.Init(FatFSInterface::Config::MEDIA_SD);
 135              		.loc 1 16 3 is_stmt 1 view .LVU28
 136              		.loc 1 16 12 is_stmt 0 view .LVU29
 137 002c 3146     		mov	r1, r6
 138 002e 6868     		ldr	r0, [r5, #4]
 139 0030 FFF7FEFF 		bl	_ZN5daisy14FatFSInterface4InitEh
 140              	.LVL8:
  17:AudioFileManager.cpp ****   pod_.seed.PrintLine("init fsi okay");
 141              		.loc 1 17 3 is_stmt 1 view .LVU30
 142              	.LBB49:
 143              	.LBI49:
 126:../libDaisy/src/daisy_seed.h ****     {
 144              		.loc 2 126 17 view .LVU31
 145              	.LBB50:
 146              		.loc 2 128 23 is_stmt 0 view .LVU32
 147 0034 0D48     		ldr	r0, .L5+8
 148 0036 FFF7FEFF 		bl	_ZN5daisy6LoggerILNS_17LoggerDestinationE1EE9PrintLineEPKcz
 149              	.LVL9:
 150              		.loc 2 128 23 view .LVU33
 151              	.LBE50:
 152              	.LBE49:
  18:AudioFileManager.cpp ****   // return (f_mount(&fsi_.GetSDFileSystem(),"/",1) != FR_OK);
  19:AudioFileManager.cpp ****   if (f_mount(&fsi_.GetSDFileSystem(),"/",1) != FR_OK){
 153              		.loc 1 19 3 is_stmt 1 view .LVU34
 154              	.LBB51:
 155              	.LBI51:
 156              		.file 4 "../libDaisy/src/sys/fatfs.h"
   1:../libDaisy/src/sys/fatfs.h **** #ifndef __fatfs_H
   2:../libDaisy/src/sys/fatfs.h **** #define __fatfs_H /**< & */
   3:../libDaisy/src/sys/fatfs.h **** 
   4:../libDaisy/src/sys/fatfs.h **** #include "ff.h"
ARM GAS  /var/folders/2p/02m_5p7958535cp2tpgps0400000gn/T//ccbXQTM6.s 			page 8


   5:../libDaisy/src/sys/fatfs.h **** 
   6:../libDaisy/src/sys/fatfs.h **** namespace daisy
   7:../libDaisy/src/sys/fatfs.h **** {
   8:../libDaisy/src/sys/fatfs.h **** /** @brief Daisy FatFS Driver Interface
   9:../libDaisy/src/sys/fatfs.h ****  *  @details Specifies the desired media (SD Card, USB, etc.) to be mountable with FatFS
  10:../libDaisy/src/sys/fatfs.h ****  *           within a given application. Once initialization is called, the standard
  11:../libDaisy/src/sys/fatfs.h ****  *           FatFS API will be usable with the media mounted in the order 
  12:../libDaisy/src/sys/fatfs.h ****  *           they are listed in the Media config struct. 
  13:../libDaisy/src/sys/fatfs.h ****  *           For example, when only using an SD Card, it will mount at "0:/",
  14:../libDaisy/src/sys/fatfs.h ****  *           when only using USB, it will mount at "0:/". However, when mounting 
  15:../libDaisy/src/sys/fatfs.h ****  *           with SD card and USB, the SD card will mount at "0:/", and the USB 
  16:../libDaisy/src/sys/fatfs.h ****  *           will mount at "1:/".
  17:../libDaisy/src/sys/fatfs.h ****  *           The relevant hardware peripheral (SDMMC, or MSD) needs to be initialized
  18:../libDaisy/src/sys/fatfs.h ****  *           separately by the application before using FatFS.
  19:../libDaisy/src/sys/fatfs.h ****  *          
  20:../libDaisy/src/sys/fatfs.h ****  *           This object has some memory limitations due to the media connected to it.
  21:../libDaisy/src/sys/fatfs.h ****  *           The SDMMC1 peripheral can only communicate with the AXI SRAM, and the DTCMRAM 
  22:../libDaisy/src/sys/fatfs.h ****  *           cannot communicate with the DMA. So the FatFSInterface object should always be
  23:../libDaisy/src/sys/fatfs.h ****  *           located in the AXI SRAM. This is the default location for all data/bss memory
  24:../libDaisy/src/sys/fatfs.h ****  *           using the standard build. However, applciations using the electrosmith bootloader
  25:../libDaisy/src/sys/fatfs.h ****  *           will need special consideration when using this object AND an SD Card. 
  26:../libDaisy/src/sys/fatfs.h ****  */
  27:../libDaisy/src/sys/fatfs.h **** class FatFSInterface
  28:../libDaisy/src/sys/fatfs.h **** {
  29:../libDaisy/src/sys/fatfs.h ****   public:
  30:../libDaisy/src/sys/fatfs.h ****     /** Return values specifying specific errors for linking Daisy to FatFS */
  31:../libDaisy/src/sys/fatfs.h ****     enum Result
  32:../libDaisy/src/sys/fatfs.h ****     {
  33:../libDaisy/src/sys/fatfs.h ****         OK,
  34:../libDaisy/src/sys/fatfs.h ****         ERR_TOO_MANY_VOLUMES,
  35:../libDaisy/src/sys/fatfs.h ****         ERR_NO_MEDIA_SELECTED,
  36:../libDaisy/src/sys/fatfs.h ****         ERR_GENERIC,
  37:../libDaisy/src/sys/fatfs.h ****     };
  38:../libDaisy/src/sys/fatfs.h **** 
  39:../libDaisy/src/sys/fatfs.h ****     /** Config structure for configuring Daisy to FatFS */
  40:../libDaisy/src/sys/fatfs.h ****     struct Config
  41:../libDaisy/src/sys/fatfs.h ****     {
  42:../libDaisy/src/sys/fatfs.h ****         /** Selected Media that will be linked to FatFS 
  43:../libDaisy/src/sys/fatfs.h ****          *  These values can be OR'd together when multiple
  44:../libDaisy/src/sys/fatfs.h ****          *  volumes are desired 
  45:../libDaisy/src/sys/fatfs.h ****          *  i.e. config.media = Media::SD | Media::USBH;
  46:../libDaisy/src/sys/fatfs.h ****          * 
  47:../libDaisy/src/sys/fatfs.h ****          *  When mounting multiple volumes, ffconf.h must have 
  48:../libDaisy/src/sys/fatfs.h ****          *  _VOLUMES set to an appropriate value.
  49:../libDaisy/src/sys/fatfs.h ****          * 
  50:../libDaisy/src/sys/fatfs.h ****          *  FatFS will register multiple volumes in the order of the enum,
  51:../libDaisy/src/sys/fatfs.h ****          *   the first registered class will mount at "0:/",
  52:../libDaisy/src/sys/fatfs.h ****          *   the second registered class will mount at "1:/", and so on
  53:../libDaisy/src/sys/fatfs.h ****          */
  54:../libDaisy/src/sys/fatfs.h ****         enum Media : uint8_t
  55:../libDaisy/src/sys/fatfs.h ****         {
  56:../libDaisy/src/sys/fatfs.h ****             MEDIA_SD  = 0x01,
  57:../libDaisy/src/sys/fatfs.h ****             MEDIA_USB = 0x02,
  58:../libDaisy/src/sys/fatfs.h ****             // MEDIA_QSPI = 0x04,
  59:../libDaisy/src/sys/fatfs.h ****         };
  60:../libDaisy/src/sys/fatfs.h **** 
  61:../libDaisy/src/sys/fatfs.h ****         uint8_t media;
ARM GAS  /var/folders/2p/02m_5p7958535cp2tpgps0400000gn/T//ccbXQTM6.s 			page 9


  62:../libDaisy/src/sys/fatfs.h ****     };
  63:../libDaisy/src/sys/fatfs.h **** 
  64:../libDaisy/src/sys/fatfs.h ****     FatFSInterface() {}
  65:../libDaisy/src/sys/fatfs.h **** 
  66:../libDaisy/src/sys/fatfs.h ****     /** Link the desired hardware specified via Config::Media */
  67:../libDaisy/src/sys/fatfs.h ****     Result Init(const Config& cfg);
  68:../libDaisy/src/sys/fatfs.h **** 
  69:../libDaisy/src/sys/fatfs.h ****     /** Link the desired hardware specified via Config::Media 
  70:../libDaisy/src/sys/fatfs.h ****      * 
  71:../libDaisy/src/sys/fatfs.h ****      *  Alternate, explicit initialization provided for simplified syntax.
  72:../libDaisy/src/sys/fatfs.h ****      */
  73:../libDaisy/src/sys/fatfs.h ****     Result Init(const uint8_t media);
  74:../libDaisy/src/sys/fatfs.h **** 
  75:../libDaisy/src/sys/fatfs.h ****     /** Unlinks FatFS from the configured media */
  76:../libDaisy/src/sys/fatfs.h ****     Result DeInit();
  77:../libDaisy/src/sys/fatfs.h **** 
  78:../libDaisy/src/sys/fatfs.h ****     bool Initialized() const { return initialized_; }
  79:../libDaisy/src/sys/fatfs.h **** 
  80:../libDaisy/src/sys/fatfs.h ****     /** Return the current configuration */
  81:../libDaisy/src/sys/fatfs.h ****     const Config& GetConfig() const { return cfg_; }
  82:../libDaisy/src/sys/fatfs.h **** 
  83:../libDaisy/src/sys/fatfs.h ****     /** Return a mutable reference to the Configuration */
  84:../libDaisy/src/sys/fatfs.h ****     Config& GetMutableConfig() { return cfg_; }
  85:../libDaisy/src/sys/fatfs.h **** 
  86:../libDaisy/src/sys/fatfs.h ****     /** Returns the path to an SD Card volume to use with f_mount */
  87:../libDaisy/src/sys/fatfs.h ****     const char* GetSDPath() const { return path_[0]; }
  88:../libDaisy/src/sys/fatfs.h **** 
  89:../libDaisy/src/sys/fatfs.h ****     /** Returns the path to a USB Device volume to use with f_mount */
  90:../libDaisy/src/sys/fatfs.h ****     const char* GetUSBPath() const { return path_[1]; }
  91:../libDaisy/src/sys/fatfs.h **** 
  92:../libDaisy/src/sys/fatfs.h ****     /** Returns reference to filesystem object for the SD volume. */
  93:../libDaisy/src/sys/fatfs.h ****     FATFS& GetSDFileSystem() { return fs_[0]; }
 157              		.loc 4 93 12 view .LVU35
 158              	.LBB52:
 159              		.loc 4 93 32 view .LVU36
 160              		.loc 4 93 44 is_stmt 0 view .LVU37
 161 003a 6868     		ldr	r0, [r5, #4]
 162              	.LBE52:
 163              	.LBE51:
 164              		.loc 1 19 14 view .LVU38
 165 003c 3246     		mov	r2, r6
 166 003e 0C49     		ldr	r1, .L5+12
 167 0040 0430     		adds	r0, r0, #4
 168 0042 FFF7FEFF 		bl	f_mount
 169              	.LVL10:
 170              		.loc 1 19 3 view .LVU39
 171 0046 28B1     		cbz	r0, .L3
  20:AudioFileManager.cpp ****     pod_.seed.PrintLine("can't mount fsi");
 172              		.loc 1 20 5 is_stmt 1 view .LVU40
 173              	.LVL11:
 174              	.LBB53:
 175              	.LBI53:
 126:../libDaisy/src/daisy_seed.h ****     {
 176              		.loc 2 126 17 view .LVU41
 177              	.LBB54:
 178              		.loc 2 128 23 is_stmt 0 view .LVU42
 179 0048 0A48     		ldr	r0, .L5+16
ARM GAS  /var/folders/2p/02m_5p7958535cp2tpgps0400000gn/T//ccbXQTM6.s 			page 10


 180 004a FFF7FEFF 		bl	_ZN5daisy6LoggerILNS_17LoggerDestinationE1EE9PrintLineEPKcz
 181              	.LVL12:
 182              		.loc 2 128 23 view .LVU43
 183              	.LBE54:
 184              	.LBE53:
  21:AudioFileManager.cpp ****     return false;
 185              		.loc 1 21 5 is_stmt 1 view .LVU44
 186              		.loc 1 21 12 is_stmt 0 view .LVU45
 187 004e 3846     		mov	r0, r7
 188              	.L2:
  22:AudioFileManager.cpp ****   }
  23:AudioFileManager.cpp ****   else {
  24:AudioFileManager.cpp ****     pod_.seed.PrintLine("returning true");
  25:AudioFileManager.cpp ****     return true;
  26:AudioFileManager.cpp ****   }
  27:AudioFileManager.cpp **** }
 189              		.loc 1 27 1 view .LVU46
 190 0050 05B0     		add	sp, sp, #20
 191              		.cfi_remember_state
 192              		.cfi_def_cfa_offset 20
 193              		@ sp needed
 194 0052 F0BD     		pop	{r4, r5, r6, r7, pc}
 195              	.LVL13:
 196              	.L3:
 197              		.cfi_restore_state
  24:AudioFileManager.cpp ****     return true;
 198              		.loc 1 24 5 is_stmt 1 view .LVU47
 199              	.LBB55:
 200              	.LBI55:
 126:../libDaisy/src/daisy_seed.h ****     {
 201              		.loc 2 126 17 view .LVU48
 202              	.LBB56:
 203              		.loc 2 128 23 is_stmt 0 view .LVU49
 204 0054 0848     		ldr	r0, .L5+20
 205 0056 FFF7FEFF 		bl	_ZN5daisy6LoggerILNS_17LoggerDestinationE1EE9PrintLineEPKcz
 206              	.LVL14:
 207              		.loc 2 128 23 view .LVU50
 208              	.LBE56:
 209              	.LBE55:
  25:AudioFileManager.cpp ****   }
 210              		.loc 1 25 5 is_stmt 1 view .LVU51
  25:AudioFileManager.cpp ****   }
 211              		.loc 1 25 12 is_stmt 0 view .LVU52
 212 005a 3046     		mov	r0, r6
 213 005c F8E7     		b	.L2
 214              	.L4:
  12:AudioFileManager.cpp ****   }
 215              		.loc 1 12 12 view .LVU53
 216 005e 2046     		mov	r0, r4
 217 0060 F6E7     		b	.L2
 218              	.L6:
 219 0062 00BF     		.align	2
 220              	.L5:
 221 0064 00000000 		.word	.LC0
 222 0068 0C000000 		.word	.LC1
 223 006c 17000000 		.word	.LC2
 224 0070 25000000 		.word	.LC3
ARM GAS  /var/folders/2p/02m_5p7958535cp2tpgps0400000gn/T//ccbXQTM6.s 			page 11


 225 0074 27000000 		.word	.LC4
 226 0078 37000000 		.word	.LC5
 227              		.cfi_endproc
 228              	.LFE2583:
 230              		.section	.rodata._ZN16AudioFileManager12ScanWavFilesEv.str1.1,"aMS",%progbits,1
 231              	.LC6:
 232 0000 6661696C 		.ascii	"failed to open SD card directory\000"
 232      65642074 
 232      6F206F70 
 232      656E2053 
 232      44206361 
 233              	.LC7:
 234 0021 66696C65 		.ascii	"file count is %d\000"
 234      20636F75 
 234      6E742069 
 234      73202564 
 234      00
 235              	.LC8:
 236 0032 2E5F00   		.ascii	"._\000"
 237              	.LC9:
 238 0035 2E776176 		.ascii	".wav\000"
 238      00
 239              	.LC10:
 240 003a 2E574156 		.ascii	".WAV\000"
 240      00
 241              		.section	.text._ZN16AudioFileManager12ScanWavFilesEv,"ax",%progbits
 242              		.align	1
 243              		.global	_ZN16AudioFileManager12ScanWavFilesEv
 244              		.syntax unified
 245              		.thumb
 246              		.thumb_func
 248              	_ZN16AudioFileManager12ScanWavFilesEv:
 249              	.LVL15:
 250              	.LFB2584:
  28:AudioFileManager.cpp **** 
  29:AudioFileManager.cpp **** /// @brief Scans for list of WAVs on SD card and stores filenames
  30:AudioFileManager.cpp **** /// @return False if directory fails to open or there are no valid files, else true
  31:AudioFileManager.cpp **** bool AudioFileManager::ScanWavFiles(){
 251              		.loc 1 31 38 is_stmt 1 view -0
 252              		.cfi_startproc
 253              		@ args = 0, pretend = 0, frame = 328
 254              		@ frame_needed = 0, uses_anonymous_args = 0
  32:AudioFileManager.cpp ****   DIR dir;
 255              		.loc 1 32 3 view .LVU55
  33:AudioFileManager.cpp ****   FILINFO fno;
 256              		.loc 1 33 3 view .LVU56
  34:AudioFileManager.cpp ****   // memset(names_, '\0', sizeof(names_));
  35:AudioFileManager.cpp ****   file_count_=0;
 257              		.loc 1 35 3 view .LVU57
  31:AudioFileManager.cpp ****   DIR dir;
 258              		.loc 1 31 38 is_stmt 0 view .LVU58
 259 0000 F0B5     		push	{r4, r5, r6, r7, lr}
 260              		.cfi_def_cfa_offset 20
 261              		.cfi_offset 4, -20
 262              		.cfi_offset 5, -16
 263              		.cfi_offset 6, -12
 264              		.cfi_offset 7, -8
ARM GAS  /var/folders/2p/02m_5p7958535cp2tpgps0400000gn/T//ccbXQTM6.s 			page 12


 265              		.cfi_offset 14, -4
 266              	.LBB57:
 267              	.LBB58:
  87:../libDaisy/src/sys/fatfs.h **** 
 268              		.loc 4 87 51 view .LVU59
 269 0002 4168     		ldr	r1, [r0, #4]
 270              	.LBE58:
 271              	.LBE57:
  31:AudioFileManager.cpp ****   DIR dir;
 272              		.loc 1 31 38 view .LVU60
 273 0004 D3B0     		sub	sp, sp, #332
 274              		.cfi_def_cfa_offset 352
 275              		.loc 1 35 14 view .LVU61
 276 0006 0026     		movs	r6, #0
  31:AudioFileManager.cpp ****   DIR dir;
 277              		.loc 1 31 38 view .LVU62
 278 0008 0446     		mov	r4, r0
  36:AudioFileManager.cpp **** 
  37:AudioFileManager.cpp ****   const char* path = fsi_.GetSDPath();
  38:AudioFileManager.cpp ****   if (f_opendir(&dir,path) != FR_OK){
 279              		.loc 1 38 16 view .LVU63
 280 000a 01F27441 		addw	r1, r1, #1140
  35:AudioFileManager.cpp **** 
 281              		.loc 1 35 14 view .LVU64
 282 000e A0F85A68 		strh	r6, [r0, #2138]	@ movhi
  37:AudioFileManager.cpp ****   if (f_opendir(&dir,path) != FR_OK){
 283              		.loc 1 37 3 is_stmt 1 view .LVU65
 284              	.LVL16:
 285              	.LBB60:
 286              	.LBI57:
  87:../libDaisy/src/sys/fatfs.h **** 
 287              		.loc 4 87 17 view .LVU66
 288              	.LBB59:
  87:../libDaisy/src/sys/fatfs.h **** 
 289              		.loc 4 87 37 view .LVU67
  87:../libDaisy/src/sys/fatfs.h **** 
 290              		.loc 4 87 37 is_stmt 0 view .LVU68
 291              	.LBE59:
 292              	.LBE60:
 293              		.loc 1 38 3 is_stmt 1 view .LVU69
 294              		.loc 1 38 16 is_stmt 0 view .LVU70
 295 0012 6846     		mov	r0, sp
 296              	.LVL17:
 297              		.loc 1 38 16 view .LVU71
 298 0014 FFF7FEFF 		bl	f_opendir
 299              	.LVL18:
 300              		.loc 1 38 3 view .LVU72
 301 0018 28B1     		cbz	r0, .L14
  39:AudioFileManager.cpp ****     DebugPrint(pod_, "failed to open SD card directory");
 302              		.loc 1 39 5 is_stmt 1 view .LVU73
 303              		.loc 1 39 5 view .LVU74
 304              	.LVL19:
 305              	.LBB61:
 306              	.LBI61:
 126:../libDaisy/src/daisy_seed.h ****     {
 307              		.loc 2 126 17 view .LVU75
 308              	.LBB62:
ARM GAS  /var/folders/2p/02m_5p7958535cp2tpgps0400000gn/T//ccbXQTM6.s 			page 13


 309              		.loc 2 128 23 is_stmt 0 view .LVU76
 310 001a 2348     		ldr	r0, .L24
 311 001c FFF7FEFF 		bl	_ZN5daisy6LoggerILNS_17LoggerDestinationE1EE9PrintLineEPKcz
 312              	.LVL20:
 313              		.loc 2 128 23 view .LVU77
 314              	.LBE62:
 315              	.LBE61:
  40:AudioFileManager.cpp ****     // TODO log error? 
  41:AudioFileManager.cpp ****     return false;
 316              		.loc 1 41 5 is_stmt 1 view .LVU78
 317              		.loc 1 41 12 is_stmt 0 view .LVU79
 318 0020 3046     		mov	r0, r6
 319              	.L9:
  42:AudioFileManager.cpp ****   }
  43:AudioFileManager.cpp ****   int16_t curr_dir_idx = 0;
  44:AudioFileManager.cpp ****   /* loop over files in SD card root directory */
  45:AudioFileManager.cpp ****   while (f_readdir(&dir, &fno) == FR_OK && fno.fname[0]!=0 && file_count_<MAX_FILES){
  46:AudioFileManager.cpp ****     /* skip hidden files / directories */
  47:AudioFileManager.cpp ****     if (!(fno.fattrib & (AM_HID|AM_DIR)) &&
  48:AudioFileManager.cpp ****       strncmp(fno.fname,"._",2)!= 0 && /* ignore metadata files starting with '._' */
  49:AudioFileManager.cpp ****       (strstr(fno.fname,".wav") || strstr(fno.fname,".WAV"))){
  50:AudioFileManager.cpp ****           // strncpy(names_[file_count_++],fno.fname, MAX_FNAME_LEN-1);
  51:AudioFileManager.cpp ****         file_indices[file_count_] = curr_dir_idx;
  52:AudioFileManager.cpp ****         file_count_++;
  53:AudioFileManager.cpp ****     }
  54:AudioFileManager.cpp ****     curr_dir_idx++;
  55:AudioFileManager.cpp ****   }
  56:AudioFileManager.cpp ****   f_closedir(&dir);
  57:AudioFileManager.cpp ****   DebugPrint(pod_, "file count is %d",file_count_);
  58:AudioFileManager.cpp ****   return file_count_ >0;
  59:AudioFileManager.cpp **** }
 320              		.loc 1 59 1 view .LVU80
 321 0022 53B0     		add	sp, sp, #332
 322              		.cfi_remember_state
 323              		.cfi_def_cfa_offset 20
 324              		@ sp needed
 325 0024 F0BD     		pop	{r4, r5, r6, r7, pc}
 326              	.LVL21:
 327              	.L14:
 328              		.cfi_restore_state
 329              		.loc 1 59 1 view .LVU81
 330 0026 0546     		mov	r5, r0
 331              	.L8:
  45:AudioFileManager.cpp ****     /* skip hidden files / directories */
 332              		.loc 1 45 19 view .LVU82
 333 0028 0CA9     		add	r1, sp, #48
 334 002a 6846     		mov	r0, sp
 335 002c 2FB2     		sxth	r7, r5
 336              	.LVL22:
  45:AudioFileManager.cpp ****     /* skip hidden files / directories */
 337              		.loc 1 45 3 is_stmt 1 view .LVU83
  45:AudioFileManager.cpp ****     /* skip hidden files / directories */
 338              		.loc 1 45 60 view .LVU84
  45:AudioFileManager.cpp ****     /* skip hidden files / directories */
 339              		.loc 1 45 19 is_stmt 0 view .LVU85
 340 002e FFF7FEFF 		bl	f_readdir
 341              	.LVL23:
ARM GAS  /var/folders/2p/02m_5p7958535cp2tpgps0400000gn/T//ccbXQTM6.s 			page 14


  45:AudioFileManager.cpp ****     /* skip hidden files / directories */
 342              		.loc 1 45 60 view .LVU86
 343 0032 68B9     		cbnz	r0, .L10
  45:AudioFileManager.cpp ****     /* skip hidden files / directories */
 344              		.loc 1 45 41 discriminator 1 view .LVU87
 345 0034 9DF84630 		ldrb	r3, [sp, #70]	@ zero_extendqisi2
 346 0038 53B1     		cbz	r3, .L10
  45:AudioFileManager.cpp ****     /* skip hidden files / directories */
 347              		.loc 1 45 63 discriminator 3 view .LVU88
 348 003a B4F85A68 		ldrh	r6, [r4, #2138]
  45:AudioFileManager.cpp ****     /* skip hidden files / directories */
 349              		.loc 1 45 60 discriminator 3 view .LVU89
 350 003e 1F2E     		cmp	r6, #31
 351 0040 06D8     		bhi	.L10
  47:AudioFileManager.cpp ****       strncmp(fno.fname,"._",2)!= 0 && /* ignore metadata files starting with '._' */
 352              		.loc 1 47 5 is_stmt 1 view .LVU90
 353 0042 9DF83830 		ldrb	r3, [sp, #56]	@ zero_extendqisi2
 354 0046 13F0120F 		tst	r3, #18
 355 004a 0FD0     		beq	.L11
 356              	.L12:
  54:AudioFileManager.cpp ****   }
 357              		.loc 1 54 5 view .LVU91
 358              	.LVL24:
  54:AudioFileManager.cpp ****   }
 359              		.loc 1 54 5 is_stmt 0 view .LVU92
 360 004c 0135     		adds	r5, r5, #1
 361              	.LVL25:
  45:AudioFileManager.cpp ****     /* skip hidden files / directories */
 362              		.loc 1 45 3 view .LVU93
 363 004e EBE7     		b	.L8
 364              	.LVL26:
 365              	.L10:
  56:AudioFileManager.cpp ****   DebugPrint(pod_, "file count is %d",file_count_);
 366              		.loc 1 56 3 is_stmt 1 view .LVU94
  56:AudioFileManager.cpp ****   DebugPrint(pod_, "file count is %d",file_count_);
 367              		.loc 1 56 13 is_stmt 0 view .LVU95
 368 0050 6846     		mov	r0, sp
 369 0052 FFF7FEFF 		bl	f_closedir
 370              	.LVL27:
  57:AudioFileManager.cpp ****   return file_count_ >0;
 371              		.loc 1 57 3 is_stmt 1 view .LVU96
  57:AudioFileManager.cpp ****   return file_count_ >0;
 372              		.loc 1 57 3 view .LVU97
 373              	.LBB63:
 374              	.LBI63:
 126:../libDaisy/src/daisy_seed.h ****     {
 375              		.loc 2 126 17 view .LVU98
 376              	.LBB64:
 377              		.loc 2 128 23 is_stmt 0 view .LVU99
 378 0056 1548     		ldr	r0, .L24+4
 379 0058 B4F85A18 		ldrh	r1, [r4, #2138]
 380 005c FFF7FEFF 		bl	_ZN5daisy6LoggerILNS_17LoggerDestinationE1EE9PrintLineEPKcz
 381              	.LVL28:
 382              		.loc 2 128 23 view .LVU100
 383              	.LBE64:
 384              	.LBE63:
  58:AudioFileManager.cpp **** }
ARM GAS  /var/folders/2p/02m_5p7958535cp2tpgps0400000gn/T//ccbXQTM6.s 			page 15


 385              		.loc 1 58 3 is_stmt 1 view .LVU101
  58:AudioFileManager.cpp **** }
 386              		.loc 1 58 23 is_stmt 0 view .LVU102
 387 0060 B4F85A08 		ldrh	r0, [r4, #2138]
 388 0064 0038     		subs	r0, r0, #0
 389 0066 18BF     		it	ne
 390 0068 0120     		movne	r0, #1
 391 006a DAE7     		b	.L9
 392              	.L11:
  48:AudioFileManager.cpp ****       (strstr(fno.fname,".wav") || strstr(fno.fname,".WAV"))){
 393              		.loc 1 48 14 discriminator 1 view .LVU103
 394 006c 0222     		movs	r2, #2
 395 006e 1049     		ldr	r1, .L24+8
 396 0070 0DF14600 		add	r0, sp, #70
 397 0074 FFF7FEFF 		bl	strncmp
 398              	.LVL29:
  47:AudioFileManager.cpp ****       strncmp(fno.fname,"._",2)!= 0 && /* ignore metadata files starting with '._' */
 399              		.loc 1 47 42 discriminator 1 view .LVU104
 400 0078 0028     		cmp	r0, #0
 401 007a E7D0     		beq	.L12
  49:AudioFileManager.cpp ****           // strncpy(names_[file_count_++],fno.fname, MAX_FNAME_LEN-1);
 402              		.loc 1 49 14 view .LVU105
 403 007c 0D49     		ldr	r1, .L24+12
 404 007e 0DF14600 		add	r0, sp, #70
 405 0082 FFF7FEFF 		bl	strstr
 406              	.LVL30:
  48:AudioFileManager.cpp ****       (strstr(fno.fname,".wav") || strstr(fno.fname,".WAV"))){
 407              		.loc 1 48 37 view .LVU106
 408 0086 30B9     		cbnz	r0, .L13
  49:AudioFileManager.cpp ****           // strncpy(names_[file_count_++],fno.fname, MAX_FNAME_LEN-1);
 409              		.loc 1 49 42 view .LVU107
 410 0088 0B49     		ldr	r1, .L24+16
 411 008a 0DF14600 		add	r0, sp, #70
 412 008e FFF7FEFF 		bl	strstr
 413              	.LVL31:
  49:AudioFileManager.cpp ****           // strncpy(names_[file_count_++],fno.fname, MAX_FNAME_LEN-1);
 414              		.loc 1 49 33 view .LVU108
 415 0092 0028     		cmp	r0, #0
 416 0094 DAD0     		beq	.L12
 417              	.L13:
  51:AudioFileManager.cpp ****         file_count_++;
 418              		.loc 1 51 9 is_stmt 1 view .LVU109
  51:AudioFileManager.cpp ****         file_count_++;
 419              		.loc 1 51 35 is_stmt 0 view .LVU110
 420 0096 06F10C03 		add	r3, r6, #12
  52:AudioFileManager.cpp ****     }
 421              		.loc 1 52 20 view .LVU111
 422 009a 0136     		adds	r6, r6, #1
  51:AudioFileManager.cpp ****         file_count_++;
 423              		.loc 1 51 35 view .LVU112
 424 009c 24F81370 		strh	r7, [r4, r3, lsl #1]	@ movhi
  52:AudioFileManager.cpp ****     }
 425              		.loc 1 52 9 is_stmt 1 view .LVU113
  52:AudioFileManager.cpp ****     }
 426              		.loc 1 52 20 is_stmt 0 view .LVU114
 427 00a0 A4F85A68 		strh	r6, [r4, #2138]	@ movhi
 428 00a4 D2E7     		b	.L12
ARM GAS  /var/folders/2p/02m_5p7958535cp2tpgps0400000gn/T//ccbXQTM6.s 			page 16


 429              	.L25:
 430 00a6 00BF     		.align	2
 431              	.L24:
 432 00a8 00000000 		.word	.LC6
 433 00ac 21000000 		.word	.LC7
 434 00b0 32000000 		.word	.LC8
 435 00b4 35000000 		.word	.LC9
 436 00b8 3A000000 		.word	.LC10
 437              		.cfi_endproc
 438              	.LFE2584:
 440              		.section	.text._ZN16AudioFileManager12GetWavHeaderEP3FIL,"ax",%progbits
 441              		.align	1
 442              		.global	_ZN16AudioFileManager12GetWavHeaderEP3FIL
 443              		.syntax unified
 444              		.thumb
 445              		.thumb_func
 447              	_ZN16AudioFileManager12GetWavHeaderEP3FIL:
 448              	.LVL32:
 449              	.LFB2586:
  60:AudioFileManager.cpp **** 
  61:AudioFileManager.cpp **** 
  62:AudioFileManager.cpp **** // bool AudioFileManger::OpenFileByIndex(uint16_t sel_idx){
  63:AudioFileManager.cpp **** 
  64:AudioFileManager.cpp **** // }
  65:AudioFileManager.cpp **** 
  66:AudioFileManager.cpp **** /// @brief Opens a WAV file, gets its header data and loads the audio data
  67:AudioFileManager.cpp **** /// @param sel_idx The index of the selected file in the list of files on the SD card
  68:AudioFileManager.cpp **** /// @return True if file audio data is loaded succesfully
  69:AudioFileManager.cpp **** /// @return False if file fails to load - this could be because:
  70:AudioFileManager.cpp **** ///         - File index is invalid
  71:AudioFileManager.cpp **** ///         - File can't be opened from SD card
  72:AudioFileManager.cpp **** ///         - Bit depth or sample rate values are not supported 
  73:AudioFileManager.cpp **** ///         - Audio data fails to load 
  74:AudioFileManager.cpp **** bool AudioFileManager::LoadFile(uint16_t sel_idx) {
  75:AudioFileManager.cpp ****   if (sel_idx > file_count_) return false;
  76:AudioFileManager.cpp ****   if (sel_idx != curr_idx_) f_close(curr_file_);
  77:AudioFileManager.cpp **** 
  78:AudioFileManager.cpp **** 
  79:AudioFileManager.cpp ****   if (f_open(curr_file_, names_[sel_idx], (FA_OPEN_EXISTING | FA_READ))!=FR_OK) return false;
  80:AudioFileManager.cpp **** 
  81:AudioFileManager.cpp ****   if (!GetWavHeader(curr_file_)||header_.bit_depth!=16||header_.sample_rate!=48000){
  82:AudioFileManager.cpp ****     DebugPrint(pod_, "wav header parse failed");
  83:AudioFileManager.cpp ****     f_close(curr_file_);
  84:AudioFileManager.cpp ****     return false;
  85:AudioFileManager.cpp ****   }
  86:AudioFileManager.cpp **** 
  87:AudioFileManager.cpp ****   DebugPrint(pod_, "loading audio data now");
  88:AudioFileManager.cpp ****   return LoadAudioData();
  89:AudioFileManager.cpp **** }
  90:AudioFileManager.cpp **** 
  91:AudioFileManager.cpp **** /// @brief Parses audio format data from a WAV file header
  92:AudioFileManager.cpp **** /// @param file The WAV file to be parsed
  93:AudioFileManager.cpp **** /// @return True if all data is successfully parsed
  94:AudioFileManager.cpp **** /// @return False if file can't be read or data is missing
  95:AudioFileManager.cpp **** bool AudioFileManager::GetWavHeader(FIL* file){
 450              		.loc 1 95 47 is_stmt 1 view -0
 451              		.cfi_startproc
ARM GAS  /var/folders/2p/02m_5p7958535cp2tpgps0400000gn/T//ccbXQTM6.s 			page 17


 452              		@ args = 0, pretend = 0, frame = 48
 453              		@ frame_needed = 0, uses_anonymous_args = 0
  96:AudioFileManager.cpp ****   WAV_FormatTypeDef header;
 454              		.loc 1 96 3 view .LVU116
  97:AudioFileManager.cpp ****   UINT bytes_read;
 455              		.loc 1 97 3 view .LVU117
  98:AudioFileManager.cpp ****   FRESULT res = f_read(file, &header, sizeof(WAV_FormatTypeDef),&bytes_read);
 456              		.loc 1 98 3 view .LVU118
  95:AudioFileManager.cpp ****   WAV_FormatTypeDef header;
 457              		.loc 1 95 47 is_stmt 0 view .LVU119
 458 0000 10B5     		push	{r4, lr}
 459              		.cfi_def_cfa_offset 8
 460              		.cfi_offset 4, -8
 461              		.cfi_offset 14, -4
 462 0002 8CB0     		sub	sp, sp, #48
 463              		.cfi_def_cfa_offset 56
  95:AudioFileManager.cpp ****   WAV_FormatTypeDef header;
 464              		.loc 1 95 47 view .LVU120
 465 0004 0446     		mov	r4, r0
 466              		.loc 1 98 23 view .LVU121
 467 0006 2C22     		movs	r2, #44
  95:AudioFileManager.cpp ****   WAV_FormatTypeDef header;
 468              		.loc 1 95 47 view .LVU122
 469 0008 0846     		mov	r0, r1
 470              	.LVL33:
 471              		.loc 1 98 23 view .LVU123
 472 000a 6B46     		mov	r3, sp
 473 000c 01A9     		add	r1, sp, #4
 474              	.LVL34:
 475              		.loc 1 98 23 view .LVU124
 476 000e FFF7FEFF 		bl	f_read
 477              	.LVL35:
  99:AudioFileManager.cpp ****   if (res != FR_OK || bytes_read != sizeof(WAV_FormatTypeDef)){
 478              		.loc 1 99 3 is_stmt 1 view .LVU125
 479 0012 0028     		cmp	r0, #0
 480 0014 3DD1     		bne	.L29
 481              		.loc 1 99 20 is_stmt 0 discriminator 1 view .LVU126
 482 0016 009B     		ldr	r3, [sp]
 483 0018 2C2B     		cmp	r3, #44
 484 001a 38D1     		bne	.L27
 100:AudioFileManager.cpp ****     return false;
 101:AudioFileManager.cpp ****   }
 102:AudioFileManager.cpp ****   /* here we check each subchunk of the wav file is in the correct location and
 103:AudioFileManager.cpp ****     has the correct identifier - had some problems with weirdly formatted wav files
 104:AudioFileManager.cpp ****     NB: id values here/below are in little endian (usually big endian) */
 105:AudioFileManager.cpp ****   bool checkRIFF = (header.ChunkId == 0x46464952);
 485              		.loc 1 105 3 is_stmt 1 view .LVU127
 486              	.LVL36:
 106:AudioFileManager.cpp ****   bool checkWAV = (header.FileFormat == 0x45564157);
 487              		.loc 1 106 3 view .LVU128
 107:AudioFileManager.cpp ****   bool checkFmt = (header.SubChunk1ID == 0x20746D66);
 488              		.loc 1 107 3 view .LVU129
 108:AudioFileManager.cpp ****   bool checkData = (header.SubChunk2ID == 0x61746164);
 489              		.loc 1 108 3 view .LVU130
 109:AudioFileManager.cpp **** 
 110:AudioFileManager.cpp ****   /* ignore files with invalid riff/fmt header info - not compliant with WAV spec */
 111:AudioFileManager.cpp ****   if (!checkRIFF || !checkWAV) return false;
ARM GAS  /var/folders/2p/02m_5p7958535cp2tpgps0400000gn/T//ccbXQTM6.s 			page 18


 490              		.loc 1 111 3 view .LVU131
 491 001c 1E4B     		ldr	r3, .L35
 492 001e 019A     		ldr	r2, [sp, #4]
 493 0020 9A42     		cmp	r2, r3
 494 0022 34D1     		bne	.L27
 495              		.loc 1 111 18 is_stmt 0 discriminator 2 view .LVU132
 496 0024 A3F57003 		sub	r3, r3, #15728640
 497 0028 039A     		ldr	r2, [sp, #12]
 498 002a A3F2FB73 		subw	r3, r3, #2043
 499 002e 9A42     		cmp	r2, r3
 500 0030 2DD1     		bne	.L27
 112:AudioFileManager.cpp ****   if (checkFmt && checkData){
 501              		.loc 1 112 3 is_stmt 1 view .LVU133
 502 0032 03F15B43 		add	r3, r3, #-620756992
 503 0036 049A     		ldr	r2, [sp, #16]
 504 0038 03F5F113 		add	r3, r3, #1974272
 505 003c 03F60F43 		addw	r3, r3, #3087
 506 0040 9A42     		cmp	r2, r3
 507 0042 24D1     		bne	.L27
 508              		.loc 1 112 16 is_stmt 0 discriminator 1 view .LVU134
 509 0044 03F18243 		add	r3, r3, #1090519040
 510 0048 0A9A     		ldr	r2, [sp, #40]
 511 004a A3F60243 		subw	r3, r3, #3074
 512 004e 9A42     		cmp	r2, r3
 513 0050 1DD1     		bne	.L27
 113:AudioFileManager.cpp ****     header_.sample_rate = header.SampleRate;
 514              		.loc 1 113 5 is_stmt 1 view .LVU135
 515              		.loc 1 113 25 is_stmt 0 view .LVU136
 516 0052 079B     		ldr	r3, [sp, #28]
 114:AudioFileManager.cpp ****     header_.channels = header.NbrChannels;
 115:AudioFileManager.cpp ****     header_.bit_depth = header.BitPerSample;
 116:AudioFileManager.cpp ****     header_.file_size = header.SubCHunk2Size;
 517              		.loc 1 116 32 view .LVU137
 518 0054 0B9A     		ldr	r2, [sp, #44]
 113:AudioFileManager.cpp ****     header_.sample_rate = header.SampleRate;
 519              		.loc 1 113 25 view .LVU138
 520 0056 C4F85C38 		str	r3, [r4, #2140]
 114:AudioFileManager.cpp ****     header_.channels = header.NbrChannels;
 521              		.loc 1 114 5 is_stmt 1 view .LVU139
 114:AudioFileManager.cpp ****     header_.channels = header.NbrChannels;
 522              		.loc 1 114 22 is_stmt 0 view .LVU140
 523 005a BDF81A30 		ldrh	r3, [sp, #26]
 117:AudioFileManager.cpp ****     header_.total_samples = header_.file_size / (header_.bit_depth/8);
 118:AudioFileManager.cpp ****     return f_lseek(curr_file_,audio_data_start_) == FR_OK;
 524              		.loc 1 118 19 view .LVU141
 525 005e D4F86C18 		ldr	r1, [r4, #2156]
 114:AudioFileManager.cpp ****     header_.channels = header.NbrChannels;
 526              		.loc 1 114 22 view .LVU142
 527 0062 A4F86438 		strh	r3, [r4, #2148]	@ movhi
 115:AudioFileManager.cpp ****     header_.file_size = header.SubCHunk2Size;
 528              		.loc 1 115 5 is_stmt 1 view .LVU143
 115:AudioFileManager.cpp ****     header_.file_size = header.SubCHunk2Size;
 529              		.loc 1 115 32 is_stmt 0 view .LVU144
 530 0066 BDF92630 		ldrsh	r3, [sp, #38]
 531              		.loc 1 118 19 view .LVU145
 532 006a E068     		ldr	r0, [r4, #12]
 533              	.LVL37:
ARM GAS  /var/folders/2p/02m_5p7958535cp2tpgps0400000gn/T//ccbXQTM6.s 			page 19


 115:AudioFileManager.cpp ****     header_.file_size = header.SubCHunk2Size;
 534              		.loc 1 115 23 view .LVU146
 535 006c A4F86638 		strh	r3, [r4, #2150]	@ movhi
 116:AudioFileManager.cpp ****     header_.total_samples = header_.file_size / (header_.bit_depth/8);
 536              		.loc 1 116 5 is_stmt 1 view .LVU147
 117:AudioFileManager.cpp ****     header_.total_samples = header_.file_size / (header_.bit_depth/8);
 537              		.loc 1 117 67 is_stmt 0 view .LVU148
 538 0070 002B     		cmp	r3, #0
 116:AudioFileManager.cpp ****     header_.total_samples = header_.file_size / (header_.bit_depth/8);
 539              		.loc 1 116 23 view .LVU149
 540 0072 C4F86028 		str	r2, [r4, #2144]
 117:AudioFileManager.cpp ****     header_.total_samples = header_.file_size / (header_.bit_depth/8);
 541              		.loc 1 117 5 is_stmt 1 view .LVU150
 117:AudioFileManager.cpp ****     header_.total_samples = header_.file_size / (header_.bit_depth/8);
 542              		.loc 1 117 67 is_stmt 0 view .LVU151
 543 0076 B8BF     		it	lt
 544 0078 0733     		addlt	r3, r3, #7
 545 007a DB10     		asrs	r3, r3, #3
 117:AudioFileManager.cpp ****     header_.total_samples = header_.file_size / (header_.bit_depth/8);
 546              		.loc 1 117 47 view .LVU152
 547 007c B2FBF3F3 		udiv	r3, r2, r3
 117:AudioFileManager.cpp ****     header_.total_samples = header_.file_size / (header_.bit_depth/8);
 548              		.loc 1 117 27 view .LVU153
 549 0080 C4F86838 		str	r3, [r4, #2152]
 550              		.loc 1 118 5 is_stmt 1 view .LVU154
 551              		.loc 1 118 19 is_stmt 0 view .LVU155
 552 0084 FFF7FEFF 		bl	f_lseek
 553              	.LVL38:
 554              		.loc 1 118 53 view .LVU156
 555 0088 B0FA80F0 		clz	r0, r0
 556 008c 4009     		lsrs	r0, r0, #5
 557              	.L27:
 119:AudioFileManager.cpp ****   }
 120:AudioFileManager.cpp ****   else return false;
 121:AudioFileManager.cpp ****   // if (checkFmt){
 122:AudioFileManager.cpp ****   //   header_.sample_rate = header.SampleRate;
 123:AudioFileManager.cpp ****   //   header_.channels = header.NbrChannels;
 124:AudioFileManager.cpp ****   //   header_.bit_depth = header.BitPerSample;
 125:AudioFileManager.cpp ****   // }
 126:AudioFileManager.cpp ****   // if (checkData){
 127:AudioFileManager.cpp ****   //   header_.file_size = header.SubCHunk2Size;
 128:AudioFileManager.cpp ****   // /* find audio len in samples: http://tiny.systems/software/soundProgrammer/WavFormatDocs.pdf *
 129:AudioFileManager.cpp ****   //   header_.total_samples = header_.file_size / (header_.bit_depth/8);
 130:AudioFileManager.cpp ****   // }
 131:AudioFileManager.cpp ****   // /* otherwise: data chunk may be misplaced, so search within file for it */
 132:AudioFileManager.cpp ****   // if (!checkFmt || !checkData){
 133:AudioFileManager.cpp ****   //   uint32_t chunk_id, chunk_size;
 134:AudioFileManager.cpp ****   //   f_lseek(file, 12); /* skip to usual start of fmt chunk (byte 12) to start looking */
 135:AudioFileManager.cpp ****   //   while (f_read(file, &chunk_id, 4, &bytes_read) == FR_OK && bytes_read == 4) {
 136:AudioFileManager.cpp ****   //     f_read(file, &chunk_size, 4, &bytes_read);
 137:AudioFileManager.cpp ****       
 138:AudioFileManager.cpp ****   //     if (chunk_id==0x20746D66) { /* this is 'fmt' in little endian */
 139:AudioFileManager.cpp ****         
 140:AudioFileManager.cpp ****   //       f_lseek(file, f_tell(file)+6); /* skip chunk size and audio format - 6 bytes */
 141:AudioFileManager.cpp ****   //       /* now get num of channels - 2 bytes*/
 142:AudioFileManager.cpp ****   //       if (f_read(file, &header_.channels, 2, &bytes_read)!=FR_OK || bytes_read!=2){
 143:AudioFileManager.cpp ****   //         return false;
ARM GAS  /var/folders/2p/02m_5p7958535cp2tpgps0400000gn/T//ccbXQTM6.s 			page 20


 144:AudioFileManager.cpp ****   //       }
 145:AudioFileManager.cpp ****   //       /* get sample rate - 4 bytes */
 146:AudioFileManager.cpp ****   //       if (f_read(file, &header_.sample_rate, 4, &bytes_read)!=FR_OK || bytes_read!=4){
 147:AudioFileManager.cpp ****   //         return false;
 148:AudioFileManager.cpp ****   //       }
 149:AudioFileManager.cpp ****   //       f_lseek(file, f_tell(file)+6); /* skip byte rate and block align - 6 bytes */
 150:AudioFileManager.cpp ****   //       /* finally get bit depth - 2 bytes */
 151:AudioFileManager.cpp ****   //       if (f_read(file, &header_.bit_depth, 2, &bytes_read)!=FR_OK || bytes_read!=2){
 152:AudioFileManager.cpp ****   //         return false;
 153:AudioFileManager.cpp ****   //       }
 154:AudioFileManager.cpp ****   //       checkFmt = true;
 155:AudioFileManager.cpp ****   //     }
 156:AudioFileManager.cpp ****   //     else if (chunk_id==0x61746164){ /* this is 'data' in little endian */
 157:AudioFileManager.cpp ****   //       header_.file_size = chunk_size;
 158:AudioFileManager.cpp ****   //       checkData = true;
 159:AudioFileManager.cpp ****   //       break;
 160:AudioFileManager.cpp ****   //     } 
 161:AudioFileManager.cpp ****   //     else {
 162:AudioFileManager.cpp ****   //       f_lseek(file, f_tell(file)+chunk_size);
 163:AudioFileManager.cpp ****   //     }
 164:AudioFileManager.cpp ****   //     if (checkFmt && checkData) break;
 165:AudioFileManager.cpp ****   //   }
 166:AudioFileManager.cpp ****   // }
 167:AudioFileManager.cpp ****   // if (!checkFmt || !checkData) return false;
 168:AudioFileManager.cpp ****   // header_.total_samples = header_.file_size / (header_.bit_depth / 8);
 169:AudioFileManager.cpp ****   // audio_data_start_ = f_tell(file); 
 170:AudioFileManager.cpp ****   // FRESULT seek_res = f_lseek(curr_file_, audio_data_start_);
 171:AudioFileManager.cpp ****   // return seek_res == FR_OK;
 172:AudioFileManager.cpp **** }
 558              		.loc 1 172 1 view .LVU157
 559 008e 0CB0     		add	sp, sp, #48
 560              		.cfi_remember_state
 561              		.cfi_def_cfa_offset 8
 562              		@ sp needed
 563 0090 10BD     		pop	{r4, pc}
 564              	.LVL39:
 565              	.L29:
 566              		.cfi_restore_state
 100:AudioFileManager.cpp ****   }
 567              		.loc 1 100 12 view .LVU158
 568 0092 0020     		movs	r0, #0
 569              	.LVL40:
 100:AudioFileManager.cpp ****   }
 570              		.loc 1 100 12 view .LVU159
 571 0094 FBE7     		b	.L27
 572              	.L36:
 573 0096 00BF     		.align	2
 574              	.L35:
 575 0098 52494646 		.word	1179011410
 576              		.cfi_endproc
 577              	.LFE2586:
 579              		.section	.rodata._ZN16AudioFileManager14Load16BitAudioEj.str1.1,"aMS",%progbits,1
 580              	.LC11:
 581 0000 6265666F 		.ascii	"before buf\000"
 581      72652062 
 581      756600
 582              	.LC12:
ARM GAS  /var/folders/2p/02m_5p7958535cp2tpgps0400000gn/T//ccbXQTM6.s 			page 21


 583 000b 66697273 		.ascii	"first bit of loading loop\000"
 583      74206269 
 583      74206F66 
 583      206C6F61 
 583      64696E67 
 584              		.section	.text._ZN16AudioFileManager14Load16BitAudioEj,"ax",%progbits
 585              		.align	1
 586              		.global	_ZN16AudioFileManager14Load16BitAudioEj
 587              		.syntax unified
 588              		.thumb
 589              		.thumb_func
 591              	_ZN16AudioFileManager14Load16BitAudioEj:
 592              	.LVL41:
 593              	.LFB2588:
 173:AudioFileManager.cpp **** 
 174:AudioFileManager.cpp **** /// @brief Clear data buffers, check file length is within bounds, call audio loader
 175:AudioFileManager.cpp **** /// @return True if audio is loaded, false if file is too long or incorrect bit depth
 176:AudioFileManager.cpp **** bool AudioFileManager::LoadAudioData() {
 177:AudioFileManager.cpp ****   memset(left_buf_, 0.0f, CHNL_BUF_SIZE_ABS);
 178:AudioFileManager.cpp ****   memset(right_buf_, 0.0f, CHNL_BUF_SIZE_ABS);
 179:AudioFileManager.cpp ****   size_t samples_per_channel = GetSamplesPerChannel();
 180:AudioFileManager.cpp **** 
 181:AudioFileManager.cpp ****   if (samples_per_channel > CHNL_BUF_SIZE_SAMPS) return false;
 182:AudioFileManager.cpp **** 
 183:AudioFileManager.cpp ****   return Load16BitAudio(samples_per_channel);
 184:AudioFileManager.cpp **** }
 185:AudioFileManager.cpp **** 
 186:AudioFileManager.cpp **** /// @brief Reads chunks of bytes from audio file into temporary buffer, then into SDRAM
 187:AudioFileManager.cpp **** /// @param samples_per_channel Length of audio in samples, per channel 
 188:AudioFileManager.cpp **** /// @return True if audio is loaded. False if file fails to read
 189:AudioFileManager.cpp **** bool AudioFileManager::Load16BitAudio(size_t samples_per_channel){
 594              		.loc 1 189 66 is_stmt 1 view -0
 595              		.cfi_startproc
 596              		@ args = 0, pretend = 0, frame = 8
 597              		@ frame_needed = 0, uses_anonymous_args = 0
 190:AudioFileManager.cpp ****   DebugPrint(pod_,"before buf");
 598              		.loc 1 190 3 view .LVU161
 599              		.loc 1 190 3 view .LVU162
 600              	.LBB65:
 601              	.LBI65:
 126:../libDaisy/src/daisy_seed.h ****     {
 602              		.loc 2 126 17 view .LVU163
 603              	.LBE65:
 189:AudioFileManager.cpp ****   DebugPrint(pod_,"before buf");
 604              		.loc 1 189 66 is_stmt 0 view .LVU164
 605 0000 F7B5     		push	{r0, r1, r2, r4, r5, r6, r7, lr}
 606              		.cfi_def_cfa_offset 32
 607              		.cfi_offset 4, -20
 608              		.cfi_offset 5, -16
 609              		.cfi_offset 6, -12
 610              		.cfi_offset 7, -8
 611              		.cfi_offset 14, -4
 189:AudioFileManager.cpp ****   DebugPrint(pod_,"before buf");
 612              		.loc 1 189 66 view .LVU165
 613 0002 0446     		mov	r4, r0
 614              	.LBB68:
 615              	.LBB66:
ARM GAS  /var/folders/2p/02m_5p7958535cp2tpgps0400000gn/T//ccbXQTM6.s 			page 22


 616              		.loc 2 128 23 view .LVU166
 617 0004 2B48     		ldr	r0, .L48
 618              	.LVL42:
 619              		.loc 2 128 23 view .LVU167
 620              	.LBE66:
 621              	.LBE68:
 189:AudioFileManager.cpp ****   DebugPrint(pod_,"before buf");
 622              		.loc 1 189 66 view .LVU168
 623 0006 0F46     		mov	r7, r1
 624              	.LBB69:
 625              	.LBB67:
 626              		.loc 2 128 23 view .LVU169
 627 0008 FFF7FEFF 		bl	_ZN5daisy6LoggerILNS_17LoggerDestinationE1EE9PrintLineEPKcz
 628              	.LVL43:
 629              		.loc 2 128 23 view .LVU170
 630              	.LBE67:
 631              	.LBE69:
 191:AudioFileManager.cpp ****   // alignas(32) std::vector<int16_t> temp_buf(BUF_CHUNK_SZ*header_.channels);
 192:AudioFileManager.cpp ****   // std::vector<int16_t> temp_buf(BUF_CHUNK_SZ*header_.channels);
 193:AudioFileManager.cpp ****   // int16_t temp_buf[16384]; // stack buffer
 194:AudioFileManager.cpp ****   int16_t* temp_buf = new int16_t[16384]; // heap buffer? try it 
 632              		.loc 1 194 3 is_stmt 1 view .LVU171
 633              		.loc 1 194 40 is_stmt 0 view .LVU172
 634 000c 4FF40040 		mov	r0, #32768
 195:AudioFileManager.cpp ****   // DebugPrint(pod_,"after buf");
 196:AudioFileManager.cpp ****   size_t samples_read = 0;
 635              		.loc 1 196 10 view .LVU173
 636 0010 0026     		movs	r6, #0
 194:AudioFileManager.cpp ****   // DebugPrint(pod_,"after buf");
 637              		.loc 1 194 40 view .LVU174
 638 0012 FFF7FEFF 		bl	_Znaj
 639              	.LVL44:
 640 0016 0546     		mov	r5, r0
 641              	.LVL45:
 642              		.loc 1 196 3 is_stmt 1 view .LVU175
 643              	.L46:
 197:AudioFileManager.cpp ****   UINT bytes_read;
 644              		.loc 1 197 3 view .LVU176
 198:AudioFileManager.cpp ****   // DebugPrint(pod_,"starting loading loop");
 199:AudioFileManager.cpp ****   while (!f_eof(curr_file_) && samples_read<samples_per_channel){
 645              		.loc 1 199 3 view .LVU177
 646              		.loc 1 199 29 view .LVU178
 647              		.loc 1 199 11 is_stmt 0 view .LVU179
 648 0018 E368     		ldr	r3, [r4, #12]
 649              		.loc 1 199 29 view .LVU180
 650 001a 5A69     		ldr	r2, [r3, #20]
 651 001c DB68     		ldr	r3, [r3, #12]
 652 001e 9A42     		cmp	r2, r3
 653 0020 43D0     		beq	.L38
 654              		.loc 1 199 29 discriminator 1 view .LVU181
 655 0022 BE42     		cmp	r6, r7
 656 0024 41D2     		bcs	.L38
 657              	.LBB70:
 200:AudioFileManager.cpp ****     DebugPrint(pod_,"first bit of loading loop");
 658              		.loc 1 200 5 is_stmt 1 view .LVU182
 659              		.loc 1 200 5 view .LVU183
 660              	.LVL46:
ARM GAS  /var/folders/2p/02m_5p7958535cp2tpgps0400000gn/T//ccbXQTM6.s 			page 23


 661              	.LBB71:
 662              	.LBI71:
 126:../libDaisy/src/daisy_seed.h ****     {
 663              		.loc 2 126 17 view .LVU184
 664              	.LBB72:
 665              		.loc 2 128 23 is_stmt 0 view .LVU185
 666 0026 2448     		ldr	r0, .L48+4
 667 0028 FFF7FEFF 		bl	_ZN5daisy6LoggerILNS_17LoggerDestinationE1EE9PrintLineEPKcz
 668              	.LVL47:
 669              		.loc 2 128 23 view .LVU186
 670              	.LBE72:
 671              	.LBE71:
 201:AudioFileManager.cpp ****     size_t samples_to_read = std::min(static_cast<size_t>(16384), (samples_per_channel-samples_read
 672              		.loc 1 201 5 is_stmt 1 view .LVU187
 673              		.loc 1 201 87 is_stmt 0 view .LVU188
 674 002c BB1B     		subs	r3, r7, r6
 675              	.LVL48:
 676              	.LBB73:
 677              	.LBI73:
 678              		.file 5 "/Library/DaisyToolchain/0.2.0/arm/arm-none-eabi/include/c++/10.3.1/bits/stl_algobase.h"
   1:/Library/DaisyToolchain/0.2.0/arm/arm-none-eabi/include/c++/10.3.1/bits/stl_algobase.h **** // Core algorithmic facilities -*- C++ -*-
   2:/Library/DaisyToolchain/0.2.0/arm/arm-none-eabi/include/c++/10.3.1/bits/stl_algobase.h **** 
   3:/Library/DaisyToolchain/0.2.0/arm/arm-none-eabi/include/c++/10.3.1/bits/stl_algobase.h **** // Copyright (C) 2001-2020 Free Software Foundation, Inc.
   4:/Library/DaisyToolchain/0.2.0/arm/arm-none-eabi/include/c++/10.3.1/bits/stl_algobase.h **** //
   5:/Library/DaisyToolchain/0.2.0/arm/arm-none-eabi/include/c++/10.3.1/bits/stl_algobase.h **** // This file is part of the GNU ISO C++ Library.  This library is free
   6:/Library/DaisyToolchain/0.2.0/arm/arm-none-eabi/include/c++/10.3.1/bits/stl_algobase.h **** // software; you can redistribute it and/or modify it under the
   7:/Library/DaisyToolchain/0.2.0/arm/arm-none-eabi/include/c++/10.3.1/bits/stl_algobase.h **** // terms of the GNU General Public License as published by the
   8:/Library/DaisyToolchain/0.2.0/arm/arm-none-eabi/include/c++/10.3.1/bits/stl_algobase.h **** // Free Software Foundation; either version 3, or (at your option)
   9:/Library/DaisyToolchain/0.2.0/arm/arm-none-eabi/include/c++/10.3.1/bits/stl_algobase.h **** // any later version.
  10:/Library/DaisyToolchain/0.2.0/arm/arm-none-eabi/include/c++/10.3.1/bits/stl_algobase.h **** 
  11:/Library/DaisyToolchain/0.2.0/arm/arm-none-eabi/include/c++/10.3.1/bits/stl_algobase.h **** // This library is distributed in the hope that it will be useful,
  12:/Library/DaisyToolchain/0.2.0/arm/arm-none-eabi/include/c++/10.3.1/bits/stl_algobase.h **** // but WITHOUT ANY WARRANTY; without even the implied warranty of
  13:/Library/DaisyToolchain/0.2.0/arm/arm-none-eabi/include/c++/10.3.1/bits/stl_algobase.h **** // MERCHANTABILITY or FITNESS FOR A PARTICULAR PURPOSE.  See the
  14:/Library/DaisyToolchain/0.2.0/arm/arm-none-eabi/include/c++/10.3.1/bits/stl_algobase.h **** // GNU General Public License for more details.
  15:/Library/DaisyToolchain/0.2.0/arm/arm-none-eabi/include/c++/10.3.1/bits/stl_algobase.h **** 
  16:/Library/DaisyToolchain/0.2.0/arm/arm-none-eabi/include/c++/10.3.1/bits/stl_algobase.h **** // Under Section 7 of GPL version 3, you are granted additional
  17:/Library/DaisyToolchain/0.2.0/arm/arm-none-eabi/include/c++/10.3.1/bits/stl_algobase.h **** // permissions described in the GCC Runtime Library Exception, version
  18:/Library/DaisyToolchain/0.2.0/arm/arm-none-eabi/include/c++/10.3.1/bits/stl_algobase.h **** // 3.1, as published by the Free Software Foundation.
  19:/Library/DaisyToolchain/0.2.0/arm/arm-none-eabi/include/c++/10.3.1/bits/stl_algobase.h **** 
  20:/Library/DaisyToolchain/0.2.0/arm/arm-none-eabi/include/c++/10.3.1/bits/stl_algobase.h **** // You should have received a copy of the GNU General Public License and
  21:/Library/DaisyToolchain/0.2.0/arm/arm-none-eabi/include/c++/10.3.1/bits/stl_algobase.h **** // a copy of the GCC Runtime Library Exception along with this program;
  22:/Library/DaisyToolchain/0.2.0/arm/arm-none-eabi/include/c++/10.3.1/bits/stl_algobase.h **** // see the files COPYING3 and COPYING.RUNTIME respectively.  If not, see
  23:/Library/DaisyToolchain/0.2.0/arm/arm-none-eabi/include/c++/10.3.1/bits/stl_algobase.h **** // <http://www.gnu.org/licenses/>.
  24:/Library/DaisyToolchain/0.2.0/arm/arm-none-eabi/include/c++/10.3.1/bits/stl_algobase.h **** 
  25:/Library/DaisyToolchain/0.2.0/arm/arm-none-eabi/include/c++/10.3.1/bits/stl_algobase.h **** /*
  26:/Library/DaisyToolchain/0.2.0/arm/arm-none-eabi/include/c++/10.3.1/bits/stl_algobase.h ****  *
  27:/Library/DaisyToolchain/0.2.0/arm/arm-none-eabi/include/c++/10.3.1/bits/stl_algobase.h ****  * Copyright (c) 1994
  28:/Library/DaisyToolchain/0.2.0/arm/arm-none-eabi/include/c++/10.3.1/bits/stl_algobase.h ****  * Hewlett-Packard Company
  29:/Library/DaisyToolchain/0.2.0/arm/arm-none-eabi/include/c++/10.3.1/bits/stl_algobase.h ****  *
  30:/Library/DaisyToolchain/0.2.0/arm/arm-none-eabi/include/c++/10.3.1/bits/stl_algobase.h ****  * Permission to use, copy, modify, distribute and sell this software
  31:/Library/DaisyToolchain/0.2.0/arm/arm-none-eabi/include/c++/10.3.1/bits/stl_algobase.h ****  * and its documentation for any purpose is hereby granted without fee,
  32:/Library/DaisyToolchain/0.2.0/arm/arm-none-eabi/include/c++/10.3.1/bits/stl_algobase.h ****  * provided that the above copyright notice appear in all copies and
  33:/Library/DaisyToolchain/0.2.0/arm/arm-none-eabi/include/c++/10.3.1/bits/stl_algobase.h ****  * that both that copyright notice and this permission notice appear
  34:/Library/DaisyToolchain/0.2.0/arm/arm-none-eabi/include/c++/10.3.1/bits/stl_algobase.h ****  * in supporting documentation.  Hewlett-Packard Company makes no
  35:/Library/DaisyToolchain/0.2.0/arm/arm-none-eabi/include/c++/10.3.1/bits/stl_algobase.h ****  * representations about the suitability of this software for any
  36:/Library/DaisyToolchain/0.2.0/arm/arm-none-eabi/include/c++/10.3.1/bits/stl_algobase.h ****  * purpose.  It is provided "as is" without express or implied warranty.
  37:/Library/DaisyToolchain/0.2.0/arm/arm-none-eabi/include/c++/10.3.1/bits/stl_algobase.h ****  *
ARM GAS  /var/folders/2p/02m_5p7958535cp2tpgps0400000gn/T//ccbXQTM6.s 			page 24


  38:/Library/DaisyToolchain/0.2.0/arm/arm-none-eabi/include/c++/10.3.1/bits/stl_algobase.h ****  *
  39:/Library/DaisyToolchain/0.2.0/arm/arm-none-eabi/include/c++/10.3.1/bits/stl_algobase.h ****  * Copyright (c) 1996-1998
  40:/Library/DaisyToolchain/0.2.0/arm/arm-none-eabi/include/c++/10.3.1/bits/stl_algobase.h ****  * Silicon Graphics Computer Systems, Inc.
  41:/Library/DaisyToolchain/0.2.0/arm/arm-none-eabi/include/c++/10.3.1/bits/stl_algobase.h ****  *
  42:/Library/DaisyToolchain/0.2.0/arm/arm-none-eabi/include/c++/10.3.1/bits/stl_algobase.h ****  * Permission to use, copy, modify, distribute and sell this software
  43:/Library/DaisyToolchain/0.2.0/arm/arm-none-eabi/include/c++/10.3.1/bits/stl_algobase.h ****  * and its documentation for any purpose is hereby granted without fee,
  44:/Library/DaisyToolchain/0.2.0/arm/arm-none-eabi/include/c++/10.3.1/bits/stl_algobase.h ****  * provided that the above copyright notice appear in all copies and
  45:/Library/DaisyToolchain/0.2.0/arm/arm-none-eabi/include/c++/10.3.1/bits/stl_algobase.h ****  * that both that copyright notice and this permission notice appear
  46:/Library/DaisyToolchain/0.2.0/arm/arm-none-eabi/include/c++/10.3.1/bits/stl_algobase.h ****  * in supporting documentation.  Silicon Graphics makes no
  47:/Library/DaisyToolchain/0.2.0/arm/arm-none-eabi/include/c++/10.3.1/bits/stl_algobase.h ****  * representations about the suitability of this software for any
  48:/Library/DaisyToolchain/0.2.0/arm/arm-none-eabi/include/c++/10.3.1/bits/stl_algobase.h ****  * purpose.  It is provided "as is" without express or implied warranty.
  49:/Library/DaisyToolchain/0.2.0/arm/arm-none-eabi/include/c++/10.3.1/bits/stl_algobase.h ****  */
  50:/Library/DaisyToolchain/0.2.0/arm/arm-none-eabi/include/c++/10.3.1/bits/stl_algobase.h **** 
  51:/Library/DaisyToolchain/0.2.0/arm/arm-none-eabi/include/c++/10.3.1/bits/stl_algobase.h **** /** @file bits/stl_algobase.h
  52:/Library/DaisyToolchain/0.2.0/arm/arm-none-eabi/include/c++/10.3.1/bits/stl_algobase.h ****  *  This is an internal header file, included by other library headers.
  53:/Library/DaisyToolchain/0.2.0/arm/arm-none-eabi/include/c++/10.3.1/bits/stl_algobase.h ****  *  Do not attempt to use it directly. @headername{algorithm}
  54:/Library/DaisyToolchain/0.2.0/arm/arm-none-eabi/include/c++/10.3.1/bits/stl_algobase.h ****  */
  55:/Library/DaisyToolchain/0.2.0/arm/arm-none-eabi/include/c++/10.3.1/bits/stl_algobase.h **** 
  56:/Library/DaisyToolchain/0.2.0/arm/arm-none-eabi/include/c++/10.3.1/bits/stl_algobase.h **** #ifndef _STL_ALGOBASE_H
  57:/Library/DaisyToolchain/0.2.0/arm/arm-none-eabi/include/c++/10.3.1/bits/stl_algobase.h **** #define _STL_ALGOBASE_H 1
  58:/Library/DaisyToolchain/0.2.0/arm/arm-none-eabi/include/c++/10.3.1/bits/stl_algobase.h **** 
  59:/Library/DaisyToolchain/0.2.0/arm/arm-none-eabi/include/c++/10.3.1/bits/stl_algobase.h **** #include <bits/c++config.h>
  60:/Library/DaisyToolchain/0.2.0/arm/arm-none-eabi/include/c++/10.3.1/bits/stl_algobase.h **** #include <bits/functexcept.h>
  61:/Library/DaisyToolchain/0.2.0/arm/arm-none-eabi/include/c++/10.3.1/bits/stl_algobase.h **** #include <bits/cpp_type_traits.h>
  62:/Library/DaisyToolchain/0.2.0/arm/arm-none-eabi/include/c++/10.3.1/bits/stl_algobase.h **** #include <ext/type_traits.h>
  63:/Library/DaisyToolchain/0.2.0/arm/arm-none-eabi/include/c++/10.3.1/bits/stl_algobase.h **** #include <ext/numeric_traits.h>
  64:/Library/DaisyToolchain/0.2.0/arm/arm-none-eabi/include/c++/10.3.1/bits/stl_algobase.h **** #include <bits/stl_pair.h>
  65:/Library/DaisyToolchain/0.2.0/arm/arm-none-eabi/include/c++/10.3.1/bits/stl_algobase.h **** #include <bits/stl_iterator_base_types.h>
  66:/Library/DaisyToolchain/0.2.0/arm/arm-none-eabi/include/c++/10.3.1/bits/stl_algobase.h **** #include <bits/stl_iterator_base_funcs.h>
  67:/Library/DaisyToolchain/0.2.0/arm/arm-none-eabi/include/c++/10.3.1/bits/stl_algobase.h **** #include <bits/stl_iterator.h>
  68:/Library/DaisyToolchain/0.2.0/arm/arm-none-eabi/include/c++/10.3.1/bits/stl_algobase.h **** #include <bits/concept_check.h>
  69:/Library/DaisyToolchain/0.2.0/arm/arm-none-eabi/include/c++/10.3.1/bits/stl_algobase.h **** #include <debug/debug.h>
  70:/Library/DaisyToolchain/0.2.0/arm/arm-none-eabi/include/c++/10.3.1/bits/stl_algobase.h **** #include <bits/move.h> // For std::swap
  71:/Library/DaisyToolchain/0.2.0/arm/arm-none-eabi/include/c++/10.3.1/bits/stl_algobase.h **** #include <bits/predefined_ops.h>
  72:/Library/DaisyToolchain/0.2.0/arm/arm-none-eabi/include/c++/10.3.1/bits/stl_algobase.h **** #if __cplusplus >= 201103L
  73:/Library/DaisyToolchain/0.2.0/arm/arm-none-eabi/include/c++/10.3.1/bits/stl_algobase.h **** # include <type_traits>
  74:/Library/DaisyToolchain/0.2.0/arm/arm-none-eabi/include/c++/10.3.1/bits/stl_algobase.h **** #endif
  75:/Library/DaisyToolchain/0.2.0/arm/arm-none-eabi/include/c++/10.3.1/bits/stl_algobase.h **** #if __cplusplus > 201703L
  76:/Library/DaisyToolchain/0.2.0/arm/arm-none-eabi/include/c++/10.3.1/bits/stl_algobase.h **** # include <compare>
  77:/Library/DaisyToolchain/0.2.0/arm/arm-none-eabi/include/c++/10.3.1/bits/stl_algobase.h **** #endif
  78:/Library/DaisyToolchain/0.2.0/arm/arm-none-eabi/include/c++/10.3.1/bits/stl_algobase.h **** 
  79:/Library/DaisyToolchain/0.2.0/arm/arm-none-eabi/include/c++/10.3.1/bits/stl_algobase.h **** namespace std _GLIBCXX_VISIBILITY(default)
  80:/Library/DaisyToolchain/0.2.0/arm/arm-none-eabi/include/c++/10.3.1/bits/stl_algobase.h **** {
  81:/Library/DaisyToolchain/0.2.0/arm/arm-none-eabi/include/c++/10.3.1/bits/stl_algobase.h **** _GLIBCXX_BEGIN_NAMESPACE_VERSION
  82:/Library/DaisyToolchain/0.2.0/arm/arm-none-eabi/include/c++/10.3.1/bits/stl_algobase.h **** 
  83:/Library/DaisyToolchain/0.2.0/arm/arm-none-eabi/include/c++/10.3.1/bits/stl_algobase.h ****   /*
  84:/Library/DaisyToolchain/0.2.0/arm/arm-none-eabi/include/c++/10.3.1/bits/stl_algobase.h ****    * A constexpr wrapper for __builtin_memcmp.
  85:/Library/DaisyToolchain/0.2.0/arm/arm-none-eabi/include/c++/10.3.1/bits/stl_algobase.h ****    * @param __num The number of elements of type _Tp (not bytes).
  86:/Library/DaisyToolchain/0.2.0/arm/arm-none-eabi/include/c++/10.3.1/bits/stl_algobase.h ****    */
  87:/Library/DaisyToolchain/0.2.0/arm/arm-none-eabi/include/c++/10.3.1/bits/stl_algobase.h ****   template<typename _Tp, typename _Up>
  88:/Library/DaisyToolchain/0.2.0/arm/arm-none-eabi/include/c++/10.3.1/bits/stl_algobase.h ****     _GLIBCXX14_CONSTEXPR
  89:/Library/DaisyToolchain/0.2.0/arm/arm-none-eabi/include/c++/10.3.1/bits/stl_algobase.h ****     inline int
  90:/Library/DaisyToolchain/0.2.0/arm/arm-none-eabi/include/c++/10.3.1/bits/stl_algobase.h ****     __memcmp(const _Tp* __first1, const _Up* __first2, size_t __num)
  91:/Library/DaisyToolchain/0.2.0/arm/arm-none-eabi/include/c++/10.3.1/bits/stl_algobase.h ****     {
  92:/Library/DaisyToolchain/0.2.0/arm/arm-none-eabi/include/c++/10.3.1/bits/stl_algobase.h **** #if __cplusplus >= 201103L
  93:/Library/DaisyToolchain/0.2.0/arm/arm-none-eabi/include/c++/10.3.1/bits/stl_algobase.h ****       static_assert(sizeof(_Tp) == sizeof(_Up), "can be compared with memcmp");
  94:/Library/DaisyToolchain/0.2.0/arm/arm-none-eabi/include/c++/10.3.1/bits/stl_algobase.h **** #endif
ARM GAS  /var/folders/2p/02m_5p7958535cp2tpgps0400000gn/T//ccbXQTM6.s 			page 25


  95:/Library/DaisyToolchain/0.2.0/arm/arm-none-eabi/include/c++/10.3.1/bits/stl_algobase.h **** #ifdef __cpp_lib_is_constant_evaluated
  96:/Library/DaisyToolchain/0.2.0/arm/arm-none-eabi/include/c++/10.3.1/bits/stl_algobase.h ****       if (std::is_constant_evaluated())
  97:/Library/DaisyToolchain/0.2.0/arm/arm-none-eabi/include/c++/10.3.1/bits/stl_algobase.h **** 	{
  98:/Library/DaisyToolchain/0.2.0/arm/arm-none-eabi/include/c++/10.3.1/bits/stl_algobase.h **** 	  for(; __num > 0; ++__first1, ++__first2, --__num)
  99:/Library/DaisyToolchain/0.2.0/arm/arm-none-eabi/include/c++/10.3.1/bits/stl_algobase.h **** 	    if (*__first1 != *__first2)
 100:/Library/DaisyToolchain/0.2.0/arm/arm-none-eabi/include/c++/10.3.1/bits/stl_algobase.h **** 	      return *__first1 < *__first2 ? -1 : 1;
 101:/Library/DaisyToolchain/0.2.0/arm/arm-none-eabi/include/c++/10.3.1/bits/stl_algobase.h **** 	  return 0;
 102:/Library/DaisyToolchain/0.2.0/arm/arm-none-eabi/include/c++/10.3.1/bits/stl_algobase.h **** 	}
 103:/Library/DaisyToolchain/0.2.0/arm/arm-none-eabi/include/c++/10.3.1/bits/stl_algobase.h ****       else
 104:/Library/DaisyToolchain/0.2.0/arm/arm-none-eabi/include/c++/10.3.1/bits/stl_algobase.h **** #endif
 105:/Library/DaisyToolchain/0.2.0/arm/arm-none-eabi/include/c++/10.3.1/bits/stl_algobase.h **** 	return __builtin_memcmp(__first1, __first2, sizeof(_Tp) * __num);
 106:/Library/DaisyToolchain/0.2.0/arm/arm-none-eabi/include/c++/10.3.1/bits/stl_algobase.h ****     }
 107:/Library/DaisyToolchain/0.2.0/arm/arm-none-eabi/include/c++/10.3.1/bits/stl_algobase.h **** 
 108:/Library/DaisyToolchain/0.2.0/arm/arm-none-eabi/include/c++/10.3.1/bits/stl_algobase.h **** #if __cplusplus < 201103L
 109:/Library/DaisyToolchain/0.2.0/arm/arm-none-eabi/include/c++/10.3.1/bits/stl_algobase.h ****   // See http://gcc.gnu.org/ml/libstdc++/2004-08/msg00167.html: in a
 110:/Library/DaisyToolchain/0.2.0/arm/arm-none-eabi/include/c++/10.3.1/bits/stl_algobase.h ****   // nutshell, we are partially implementing the resolution of DR 187,
 111:/Library/DaisyToolchain/0.2.0/arm/arm-none-eabi/include/c++/10.3.1/bits/stl_algobase.h ****   // when it's safe, i.e., the value_types are equal.
 112:/Library/DaisyToolchain/0.2.0/arm/arm-none-eabi/include/c++/10.3.1/bits/stl_algobase.h ****   template<bool _BoolType>
 113:/Library/DaisyToolchain/0.2.0/arm/arm-none-eabi/include/c++/10.3.1/bits/stl_algobase.h ****     struct __iter_swap
 114:/Library/DaisyToolchain/0.2.0/arm/arm-none-eabi/include/c++/10.3.1/bits/stl_algobase.h ****     {
 115:/Library/DaisyToolchain/0.2.0/arm/arm-none-eabi/include/c++/10.3.1/bits/stl_algobase.h ****       template<typename _ForwardIterator1, typename _ForwardIterator2>
 116:/Library/DaisyToolchain/0.2.0/arm/arm-none-eabi/include/c++/10.3.1/bits/stl_algobase.h **** 	static void
 117:/Library/DaisyToolchain/0.2.0/arm/arm-none-eabi/include/c++/10.3.1/bits/stl_algobase.h **** 	iter_swap(_ForwardIterator1 __a, _ForwardIterator2 __b)
 118:/Library/DaisyToolchain/0.2.0/arm/arm-none-eabi/include/c++/10.3.1/bits/stl_algobase.h **** 	{
 119:/Library/DaisyToolchain/0.2.0/arm/arm-none-eabi/include/c++/10.3.1/bits/stl_algobase.h **** 	  typedef typename iterator_traits<_ForwardIterator1>::value_type
 120:/Library/DaisyToolchain/0.2.0/arm/arm-none-eabi/include/c++/10.3.1/bits/stl_algobase.h **** 	    _ValueType1;
 121:/Library/DaisyToolchain/0.2.0/arm/arm-none-eabi/include/c++/10.3.1/bits/stl_algobase.h **** 	  _ValueType1 __tmp = *__a;
 122:/Library/DaisyToolchain/0.2.0/arm/arm-none-eabi/include/c++/10.3.1/bits/stl_algobase.h **** 	  *__a = *__b;
 123:/Library/DaisyToolchain/0.2.0/arm/arm-none-eabi/include/c++/10.3.1/bits/stl_algobase.h **** 	  *__b = __tmp;
 124:/Library/DaisyToolchain/0.2.0/arm/arm-none-eabi/include/c++/10.3.1/bits/stl_algobase.h **** 	}
 125:/Library/DaisyToolchain/0.2.0/arm/arm-none-eabi/include/c++/10.3.1/bits/stl_algobase.h ****     };
 126:/Library/DaisyToolchain/0.2.0/arm/arm-none-eabi/include/c++/10.3.1/bits/stl_algobase.h **** 
 127:/Library/DaisyToolchain/0.2.0/arm/arm-none-eabi/include/c++/10.3.1/bits/stl_algobase.h ****   template<>
 128:/Library/DaisyToolchain/0.2.0/arm/arm-none-eabi/include/c++/10.3.1/bits/stl_algobase.h ****     struct __iter_swap<true>
 129:/Library/DaisyToolchain/0.2.0/arm/arm-none-eabi/include/c++/10.3.1/bits/stl_algobase.h ****     {
 130:/Library/DaisyToolchain/0.2.0/arm/arm-none-eabi/include/c++/10.3.1/bits/stl_algobase.h ****       template<typename _ForwardIterator1, typename _ForwardIterator2>
 131:/Library/DaisyToolchain/0.2.0/arm/arm-none-eabi/include/c++/10.3.1/bits/stl_algobase.h **** 	static void
 132:/Library/DaisyToolchain/0.2.0/arm/arm-none-eabi/include/c++/10.3.1/bits/stl_algobase.h **** 	iter_swap(_ForwardIterator1 __a, _ForwardIterator2 __b)
 133:/Library/DaisyToolchain/0.2.0/arm/arm-none-eabi/include/c++/10.3.1/bits/stl_algobase.h **** 	{
 134:/Library/DaisyToolchain/0.2.0/arm/arm-none-eabi/include/c++/10.3.1/bits/stl_algobase.h **** 	  swap(*__a, *__b);
 135:/Library/DaisyToolchain/0.2.0/arm/arm-none-eabi/include/c++/10.3.1/bits/stl_algobase.h **** 	}
 136:/Library/DaisyToolchain/0.2.0/arm/arm-none-eabi/include/c++/10.3.1/bits/stl_algobase.h ****     };
 137:/Library/DaisyToolchain/0.2.0/arm/arm-none-eabi/include/c++/10.3.1/bits/stl_algobase.h **** #endif // C++03
 138:/Library/DaisyToolchain/0.2.0/arm/arm-none-eabi/include/c++/10.3.1/bits/stl_algobase.h **** 
 139:/Library/DaisyToolchain/0.2.0/arm/arm-none-eabi/include/c++/10.3.1/bits/stl_algobase.h ****   /**
 140:/Library/DaisyToolchain/0.2.0/arm/arm-none-eabi/include/c++/10.3.1/bits/stl_algobase.h ****    *  @brief Swaps the contents of two iterators.
 141:/Library/DaisyToolchain/0.2.0/arm/arm-none-eabi/include/c++/10.3.1/bits/stl_algobase.h ****    *  @ingroup mutating_algorithms
 142:/Library/DaisyToolchain/0.2.0/arm/arm-none-eabi/include/c++/10.3.1/bits/stl_algobase.h ****    *  @param  __a  An iterator.
 143:/Library/DaisyToolchain/0.2.0/arm/arm-none-eabi/include/c++/10.3.1/bits/stl_algobase.h ****    *  @param  __b  Another iterator.
 144:/Library/DaisyToolchain/0.2.0/arm/arm-none-eabi/include/c++/10.3.1/bits/stl_algobase.h ****    *  @return   Nothing.
 145:/Library/DaisyToolchain/0.2.0/arm/arm-none-eabi/include/c++/10.3.1/bits/stl_algobase.h ****    *
 146:/Library/DaisyToolchain/0.2.0/arm/arm-none-eabi/include/c++/10.3.1/bits/stl_algobase.h ****    *  This function swaps the values pointed to by two iterators, not the
 147:/Library/DaisyToolchain/0.2.0/arm/arm-none-eabi/include/c++/10.3.1/bits/stl_algobase.h ****    *  iterators themselves.
 148:/Library/DaisyToolchain/0.2.0/arm/arm-none-eabi/include/c++/10.3.1/bits/stl_algobase.h ****   */
 149:/Library/DaisyToolchain/0.2.0/arm/arm-none-eabi/include/c++/10.3.1/bits/stl_algobase.h ****   template<typename _ForwardIterator1, typename _ForwardIterator2>
 150:/Library/DaisyToolchain/0.2.0/arm/arm-none-eabi/include/c++/10.3.1/bits/stl_algobase.h ****     _GLIBCXX20_CONSTEXPR
 151:/Library/DaisyToolchain/0.2.0/arm/arm-none-eabi/include/c++/10.3.1/bits/stl_algobase.h ****     inline void
ARM GAS  /var/folders/2p/02m_5p7958535cp2tpgps0400000gn/T//ccbXQTM6.s 			page 26


 152:/Library/DaisyToolchain/0.2.0/arm/arm-none-eabi/include/c++/10.3.1/bits/stl_algobase.h ****     iter_swap(_ForwardIterator1 __a, _ForwardIterator2 __b)
 153:/Library/DaisyToolchain/0.2.0/arm/arm-none-eabi/include/c++/10.3.1/bits/stl_algobase.h ****     {
 154:/Library/DaisyToolchain/0.2.0/arm/arm-none-eabi/include/c++/10.3.1/bits/stl_algobase.h ****       // concept requirements
 155:/Library/DaisyToolchain/0.2.0/arm/arm-none-eabi/include/c++/10.3.1/bits/stl_algobase.h ****       __glibcxx_function_requires(_Mutable_ForwardIteratorConcept<
 156:/Library/DaisyToolchain/0.2.0/arm/arm-none-eabi/include/c++/10.3.1/bits/stl_algobase.h **** 				  _ForwardIterator1>)
 157:/Library/DaisyToolchain/0.2.0/arm/arm-none-eabi/include/c++/10.3.1/bits/stl_algobase.h ****       __glibcxx_function_requires(_Mutable_ForwardIteratorConcept<
 158:/Library/DaisyToolchain/0.2.0/arm/arm-none-eabi/include/c++/10.3.1/bits/stl_algobase.h **** 				  _ForwardIterator2>)
 159:/Library/DaisyToolchain/0.2.0/arm/arm-none-eabi/include/c++/10.3.1/bits/stl_algobase.h **** 
 160:/Library/DaisyToolchain/0.2.0/arm/arm-none-eabi/include/c++/10.3.1/bits/stl_algobase.h **** #if __cplusplus < 201103L
 161:/Library/DaisyToolchain/0.2.0/arm/arm-none-eabi/include/c++/10.3.1/bits/stl_algobase.h ****       typedef typename iterator_traits<_ForwardIterator1>::value_type
 162:/Library/DaisyToolchain/0.2.0/arm/arm-none-eabi/include/c++/10.3.1/bits/stl_algobase.h **** 	_ValueType1;
 163:/Library/DaisyToolchain/0.2.0/arm/arm-none-eabi/include/c++/10.3.1/bits/stl_algobase.h ****       typedef typename iterator_traits<_ForwardIterator2>::value_type
 164:/Library/DaisyToolchain/0.2.0/arm/arm-none-eabi/include/c++/10.3.1/bits/stl_algobase.h **** 	_ValueType2;
 165:/Library/DaisyToolchain/0.2.0/arm/arm-none-eabi/include/c++/10.3.1/bits/stl_algobase.h **** 
 166:/Library/DaisyToolchain/0.2.0/arm/arm-none-eabi/include/c++/10.3.1/bits/stl_algobase.h ****       __glibcxx_function_requires(_ConvertibleConcept<_ValueType1,
 167:/Library/DaisyToolchain/0.2.0/arm/arm-none-eabi/include/c++/10.3.1/bits/stl_algobase.h **** 				  _ValueType2>)
 168:/Library/DaisyToolchain/0.2.0/arm/arm-none-eabi/include/c++/10.3.1/bits/stl_algobase.h ****       __glibcxx_function_requires(_ConvertibleConcept<_ValueType2,
 169:/Library/DaisyToolchain/0.2.0/arm/arm-none-eabi/include/c++/10.3.1/bits/stl_algobase.h **** 				  _ValueType1>)
 170:/Library/DaisyToolchain/0.2.0/arm/arm-none-eabi/include/c++/10.3.1/bits/stl_algobase.h **** 
 171:/Library/DaisyToolchain/0.2.0/arm/arm-none-eabi/include/c++/10.3.1/bits/stl_algobase.h ****       typedef typename iterator_traits<_ForwardIterator1>::reference
 172:/Library/DaisyToolchain/0.2.0/arm/arm-none-eabi/include/c++/10.3.1/bits/stl_algobase.h **** 	_ReferenceType1;
 173:/Library/DaisyToolchain/0.2.0/arm/arm-none-eabi/include/c++/10.3.1/bits/stl_algobase.h ****       typedef typename iterator_traits<_ForwardIterator2>::reference
 174:/Library/DaisyToolchain/0.2.0/arm/arm-none-eabi/include/c++/10.3.1/bits/stl_algobase.h **** 	_ReferenceType2;
 175:/Library/DaisyToolchain/0.2.0/arm/arm-none-eabi/include/c++/10.3.1/bits/stl_algobase.h ****       std::__iter_swap<__are_same<_ValueType1, _ValueType2>::__value
 176:/Library/DaisyToolchain/0.2.0/arm/arm-none-eabi/include/c++/10.3.1/bits/stl_algobase.h **** 	&& __are_same<_ValueType1&, _ReferenceType1>::__value
 177:/Library/DaisyToolchain/0.2.0/arm/arm-none-eabi/include/c++/10.3.1/bits/stl_algobase.h **** 	&& __are_same<_ValueType2&, _ReferenceType2>::__value>::
 178:/Library/DaisyToolchain/0.2.0/arm/arm-none-eabi/include/c++/10.3.1/bits/stl_algobase.h **** 	iter_swap(__a, __b);
 179:/Library/DaisyToolchain/0.2.0/arm/arm-none-eabi/include/c++/10.3.1/bits/stl_algobase.h **** #else
 180:/Library/DaisyToolchain/0.2.0/arm/arm-none-eabi/include/c++/10.3.1/bits/stl_algobase.h ****       // _GLIBCXX_RESOLVE_LIB_DEFECTS
 181:/Library/DaisyToolchain/0.2.0/arm/arm-none-eabi/include/c++/10.3.1/bits/stl_algobase.h ****       // 187. iter_swap underspecified
 182:/Library/DaisyToolchain/0.2.0/arm/arm-none-eabi/include/c++/10.3.1/bits/stl_algobase.h ****       swap(*__a, *__b);
 183:/Library/DaisyToolchain/0.2.0/arm/arm-none-eabi/include/c++/10.3.1/bits/stl_algobase.h **** #endif
 184:/Library/DaisyToolchain/0.2.0/arm/arm-none-eabi/include/c++/10.3.1/bits/stl_algobase.h ****     }
 185:/Library/DaisyToolchain/0.2.0/arm/arm-none-eabi/include/c++/10.3.1/bits/stl_algobase.h **** 
 186:/Library/DaisyToolchain/0.2.0/arm/arm-none-eabi/include/c++/10.3.1/bits/stl_algobase.h ****   /**
 187:/Library/DaisyToolchain/0.2.0/arm/arm-none-eabi/include/c++/10.3.1/bits/stl_algobase.h ****    *  @brief Swap the elements of two sequences.
 188:/Library/DaisyToolchain/0.2.0/arm/arm-none-eabi/include/c++/10.3.1/bits/stl_algobase.h ****    *  @ingroup mutating_algorithms
 189:/Library/DaisyToolchain/0.2.0/arm/arm-none-eabi/include/c++/10.3.1/bits/stl_algobase.h ****    *  @param  __first1  A forward iterator.
 190:/Library/DaisyToolchain/0.2.0/arm/arm-none-eabi/include/c++/10.3.1/bits/stl_algobase.h ****    *  @param  __last1   A forward iterator.
 191:/Library/DaisyToolchain/0.2.0/arm/arm-none-eabi/include/c++/10.3.1/bits/stl_algobase.h ****    *  @param  __first2  A forward iterator.
 192:/Library/DaisyToolchain/0.2.0/arm/arm-none-eabi/include/c++/10.3.1/bits/stl_algobase.h ****    *  @return   An iterator equal to @p first2+(last1-first1).
 193:/Library/DaisyToolchain/0.2.0/arm/arm-none-eabi/include/c++/10.3.1/bits/stl_algobase.h ****    *
 194:/Library/DaisyToolchain/0.2.0/arm/arm-none-eabi/include/c++/10.3.1/bits/stl_algobase.h ****    *  Swaps each element in the range @p [first1,last1) with the
 195:/Library/DaisyToolchain/0.2.0/arm/arm-none-eabi/include/c++/10.3.1/bits/stl_algobase.h ****    *  corresponding element in the range @p [first2,(last1-first1)).
 196:/Library/DaisyToolchain/0.2.0/arm/arm-none-eabi/include/c++/10.3.1/bits/stl_algobase.h ****    *  The ranges must not overlap.
 197:/Library/DaisyToolchain/0.2.0/arm/arm-none-eabi/include/c++/10.3.1/bits/stl_algobase.h ****   */
 198:/Library/DaisyToolchain/0.2.0/arm/arm-none-eabi/include/c++/10.3.1/bits/stl_algobase.h ****   template<typename _ForwardIterator1, typename _ForwardIterator2>
 199:/Library/DaisyToolchain/0.2.0/arm/arm-none-eabi/include/c++/10.3.1/bits/stl_algobase.h ****     _GLIBCXX20_CONSTEXPR
 200:/Library/DaisyToolchain/0.2.0/arm/arm-none-eabi/include/c++/10.3.1/bits/stl_algobase.h ****     _ForwardIterator2
 201:/Library/DaisyToolchain/0.2.0/arm/arm-none-eabi/include/c++/10.3.1/bits/stl_algobase.h ****     swap_ranges(_ForwardIterator1 __first1, _ForwardIterator1 __last1,
 202:/Library/DaisyToolchain/0.2.0/arm/arm-none-eabi/include/c++/10.3.1/bits/stl_algobase.h **** 		_ForwardIterator2 __first2)
 203:/Library/DaisyToolchain/0.2.0/arm/arm-none-eabi/include/c++/10.3.1/bits/stl_algobase.h ****     {
 204:/Library/DaisyToolchain/0.2.0/arm/arm-none-eabi/include/c++/10.3.1/bits/stl_algobase.h ****       // concept requirements
 205:/Library/DaisyToolchain/0.2.0/arm/arm-none-eabi/include/c++/10.3.1/bits/stl_algobase.h ****       __glibcxx_function_requires(_Mutable_ForwardIteratorConcept<
 206:/Library/DaisyToolchain/0.2.0/arm/arm-none-eabi/include/c++/10.3.1/bits/stl_algobase.h **** 				  _ForwardIterator1>)
 207:/Library/DaisyToolchain/0.2.0/arm/arm-none-eabi/include/c++/10.3.1/bits/stl_algobase.h ****       __glibcxx_function_requires(_Mutable_ForwardIteratorConcept<
 208:/Library/DaisyToolchain/0.2.0/arm/arm-none-eabi/include/c++/10.3.1/bits/stl_algobase.h **** 				  _ForwardIterator2>)
ARM GAS  /var/folders/2p/02m_5p7958535cp2tpgps0400000gn/T//ccbXQTM6.s 			page 27


 209:/Library/DaisyToolchain/0.2.0/arm/arm-none-eabi/include/c++/10.3.1/bits/stl_algobase.h ****       __glibcxx_requires_valid_range(__first1, __last1);
 210:/Library/DaisyToolchain/0.2.0/arm/arm-none-eabi/include/c++/10.3.1/bits/stl_algobase.h **** 
 211:/Library/DaisyToolchain/0.2.0/arm/arm-none-eabi/include/c++/10.3.1/bits/stl_algobase.h ****       for (; __first1 != __last1; ++__first1, (void)++__first2)
 212:/Library/DaisyToolchain/0.2.0/arm/arm-none-eabi/include/c++/10.3.1/bits/stl_algobase.h **** 	std::iter_swap(__first1, __first2);
 213:/Library/DaisyToolchain/0.2.0/arm/arm-none-eabi/include/c++/10.3.1/bits/stl_algobase.h ****       return __first2;
 214:/Library/DaisyToolchain/0.2.0/arm/arm-none-eabi/include/c++/10.3.1/bits/stl_algobase.h ****     }
 215:/Library/DaisyToolchain/0.2.0/arm/arm-none-eabi/include/c++/10.3.1/bits/stl_algobase.h **** 
 216:/Library/DaisyToolchain/0.2.0/arm/arm-none-eabi/include/c++/10.3.1/bits/stl_algobase.h ****   /**
 217:/Library/DaisyToolchain/0.2.0/arm/arm-none-eabi/include/c++/10.3.1/bits/stl_algobase.h ****    *  @brief This does what you think it does.
 218:/Library/DaisyToolchain/0.2.0/arm/arm-none-eabi/include/c++/10.3.1/bits/stl_algobase.h ****    *  @ingroup sorting_algorithms
 219:/Library/DaisyToolchain/0.2.0/arm/arm-none-eabi/include/c++/10.3.1/bits/stl_algobase.h ****    *  @param  __a  A thing of arbitrary type.
 220:/Library/DaisyToolchain/0.2.0/arm/arm-none-eabi/include/c++/10.3.1/bits/stl_algobase.h ****    *  @param  __b  Another thing of arbitrary type.
 221:/Library/DaisyToolchain/0.2.0/arm/arm-none-eabi/include/c++/10.3.1/bits/stl_algobase.h ****    *  @return   The lesser of the parameters.
 222:/Library/DaisyToolchain/0.2.0/arm/arm-none-eabi/include/c++/10.3.1/bits/stl_algobase.h ****    *
 223:/Library/DaisyToolchain/0.2.0/arm/arm-none-eabi/include/c++/10.3.1/bits/stl_algobase.h ****    *  This is the simple classic generic implementation.  It will work on
 224:/Library/DaisyToolchain/0.2.0/arm/arm-none-eabi/include/c++/10.3.1/bits/stl_algobase.h ****    *  temporary expressions, since they are only evaluated once, unlike a
 225:/Library/DaisyToolchain/0.2.0/arm/arm-none-eabi/include/c++/10.3.1/bits/stl_algobase.h ****    *  preprocessor macro.
 226:/Library/DaisyToolchain/0.2.0/arm/arm-none-eabi/include/c++/10.3.1/bits/stl_algobase.h ****   */
 227:/Library/DaisyToolchain/0.2.0/arm/arm-none-eabi/include/c++/10.3.1/bits/stl_algobase.h ****   template<typename _Tp>
 228:/Library/DaisyToolchain/0.2.0/arm/arm-none-eabi/include/c++/10.3.1/bits/stl_algobase.h ****     _GLIBCXX14_CONSTEXPR
 229:/Library/DaisyToolchain/0.2.0/arm/arm-none-eabi/include/c++/10.3.1/bits/stl_algobase.h ****     inline const _Tp&
 230:/Library/DaisyToolchain/0.2.0/arm/arm-none-eabi/include/c++/10.3.1/bits/stl_algobase.h ****     min(const _Tp& __a, const _Tp& __b)
 679              		.loc 5 230 5 is_stmt 1 view .LVU189
 680              	.LBE73:
 202:AudioFileManager.cpp ****     // size_t bytes_to_read = samples_to_read * header_.channels * sizeof(int16_t);
 203:AudioFileManager.cpp ****     
 204:AudioFileManager.cpp ****     // DebugPrint(pod_,"about to fread in loop");
 205:AudioFileManager.cpp ****     if (f_read(curr_file_, temp_buf, samples_to_read*header_.channels * sizeof(int16_t), &bytes_rea
 681              		.loc 1 205 62 is_stmt 0 view .LVU190
 682 002e B4F96428 		ldrsh	r2, [r4, #2148]
 683              		.loc 1 205 15 view .LVU191
 684 0032 2946     		mov	r1, r5
 685              	.LBB76:
 686              	.LBB74:
 231:/Library/DaisyToolchain/0.2.0/arm/arm-none-eabi/include/c++/10.3.1/bits/stl_algobase.h ****     {
 232:/Library/DaisyToolchain/0.2.0/arm/arm-none-eabi/include/c++/10.3.1/bits/stl_algobase.h ****       // concept requirements
 233:/Library/DaisyToolchain/0.2.0/arm/arm-none-eabi/include/c++/10.3.1/bits/stl_algobase.h ****       __glibcxx_function_requires(_LessThanComparableConcept<_Tp>)
 234:/Library/DaisyToolchain/0.2.0/arm/arm-none-eabi/include/c++/10.3.1/bits/stl_algobase.h ****       //return __b < __a ? __b : __a;
 235:/Library/DaisyToolchain/0.2.0/arm/arm-none-eabi/include/c++/10.3.1/bits/stl_algobase.h ****       if (__b < __a)
 236:/Library/DaisyToolchain/0.2.0/arm/arm-none-eabi/include/c++/10.3.1/bits/stl_algobase.h **** 	return __b;
 237:/Library/DaisyToolchain/0.2.0/arm/arm-none-eabi/include/c++/10.3.1/bits/stl_algobase.h ****       return __a;
 687              		.loc 5 237 14 view .LVU192
 688 0034 B3F5804F 		cmp	r3, #16384
 689              	.LBE74:
 690              	.LBE76:
 691              		.loc 1 205 15 view .LVU193
 692 0038 E068     		ldr	r0, [r4, #12]
 693              	.LBB77:
 694              	.LBB75:
 695              		.loc 5 237 14 view .LVU194
 696 003a 28BF     		it	cs
 697 003c 4FF48043 		movcs	r3, #16384
 698              	.LVL49:
 699              		.loc 5 237 14 view .LVU195
 700              	.LBE75:
 701              	.LBE77:
 702              		.loc 1 205 5 is_stmt 1 view .LVU196
ARM GAS  /var/folders/2p/02m_5p7958535cp2tpgps0400000gn/T//ccbXQTM6.s 			page 28


 703              		.loc 1 205 15 is_stmt 0 view .LVU197
 704 0040 5A43     		muls	r2, r3, r2
 705 0042 01AB     		add	r3, sp, #4
 706 0044 5200     		lsls	r2, r2, #1
 707 0046 FFF7FEFF 		bl	f_read
 708              	.LVL50:
 709              		.loc 1 205 5 view .LVU198
 710 004a 0346     		mov	r3, r0
 711 004c 28B1     		cbz	r0, .L40
 206:AudioFileManager.cpp ****       delete[] temp_buf;
 712              		.loc 1 206 7 is_stmt 1 discriminator 1 view .LVU199
 713              		.loc 1 206 16 is_stmt 0 discriminator 1 view .LVU200
 714 004e 2846     		mov	r0, r5
 715 0050 FFF7FEFF 		bl	_ZdaPv
 716              	.LVL51:
 207:AudioFileManager.cpp ****       return false;
 717              		.loc 1 207 7 is_stmt 1 discriminator 1 view .LVU201
 718              		.loc 1 207 14 is_stmt 0 discriminator 1 view .LVU202
 719 0054 0020     		movs	r0, #0
 720              	.L41:
 721              		.loc 1 207 14 discriminator 1 view .LVU203
 722              	.LBE70:
 208:AudioFileManager.cpp ****     }
 209:AudioFileManager.cpp **** 
 210:AudioFileManager.cpp ****     // DebugPrint(pod_,"about to copy to bufs in loop");
 211:AudioFileManager.cpp ****     size_t samples_in_chunk = bytes_read / (header_.channels * sizeof(int16_t));
 212:AudioFileManager.cpp ****     for (size_t i=0; i<samples_in_chunk; i++){
 213:AudioFileManager.cpp ****       if (header_.channels == 1){
 214:AudioFileManager.cpp ****         left_buf_[i+samples_read] = right_buf_[i+samples_read] = temp_buf[i];
 215:AudioFileManager.cpp ****       }
 216:AudioFileManager.cpp ****       else {
 217:AudioFileManager.cpp ****         left_buf_[i+samples_read] = temp_buf[i * 2];
 218:AudioFileManager.cpp ****         right_buf_[i+samples_read] = temp_buf[i * 2 + 1];
 219:AudioFileManager.cpp ****       }
 220:AudioFileManager.cpp ****     }
 221:AudioFileManager.cpp ****     samples_read += samples_in_chunk;
 222:AudioFileManager.cpp ****   }
 223:AudioFileManager.cpp ****   // DebugPrint(pod_,"end of loading loop");
 224:AudioFileManager.cpp ****   delete[] temp_buf;
 225:AudioFileManager.cpp ****   return true;
 226:AudioFileManager.cpp **** }
 723              		.loc 1 226 1 view .LVU204
 724 0056 03B0     		add	sp, sp, #12
 725              		.cfi_remember_state
 726              		.cfi_def_cfa_offset 20
 727              		@ sp needed
 728 0058 F0BD     		pop	{r4, r5, r6, r7, pc}
 729              	.LVL52:
 730              	.L40:
 731              		.cfi_restore_state
 732              	.LBB79:
 211:AudioFileManager.cpp ****     for (size_t i=0; i<samples_in_chunk; i++){
 733              		.loc 1 211 5 is_stmt 1 view .LVU205
 211:AudioFileManager.cpp ****     for (size_t i=0; i<samples_in_chunk; i++){
 734              		.loc 1 211 62 is_stmt 0 view .LVU206
 735 005a B4F96418 		ldrsh	r1, [r4, #2148]
 736 005e 4A00     		lsls	r2, r1, #1
ARM GAS  /var/folders/2p/02m_5p7958535cp2tpgps0400000gn/T//ccbXQTM6.s 			page 29


 211:AudioFileManager.cpp ****     for (size_t i=0; i<samples_in_chunk; i++){
 737              		.loc 1 211 12 view .LVU207
 738 0060 0199     		ldr	r1, [sp, #4]
 739 0062 B1FBF2F1 		udiv	r1, r1, r2
 740              	.LVL53:
 212:AudioFileManager.cpp ****       if (header_.channels == 1){
 741              		.loc 1 212 5 is_stmt 1 view .LVU208
 212:AudioFileManager.cpp ****       if (header_.channels == 1){
 742              		.loc 1 212 5 is_stmt 0 view .LVU209
 743 0066 7200     		lsls	r2, r6, #1
 744              	.LVL54:
 745              	.L45:
 746              	.LBB78:
 212:AudioFileManager.cpp ****       if (header_.channels == 1){
 747              		.loc 1 212 23 is_stmt 1 discriminator 1 view .LVU210
 748 0068 8B42     		cmp	r3, r1
 749 006a 1CD0     		beq	.L42
 213:AudioFileManager.cpp ****         left_buf_[i+samples_read] = right_buf_[i+samples_read] = temp_buf[i];
 750              		.loc 1 213 7 view .LVU211
 751 006c B4F964E8 		ldrsh	lr, [r4, #2148]
 752 0070 BEF1010F 		cmp	lr, #1
 214:AudioFileManager.cpp ****       }
 753              		.loc 1 214 9 view .LVU212
 214:AudioFileManager.cpp ****       }
 754              		.loc 1 214 62 is_stmt 0 view .LVU213
 755 0074 D4E904C0 		ldrd	ip, r0, [r4, #16]
 217:AudioFileManager.cpp ****         right_buf_[i+samples_read] = temp_buf[i * 2 + 1];
 756              		.loc 1 217 51 view .LVU214
 757 0078 17BF     		itett	ne
 758 007a 35F923E0 		ldrshne	lr, [r5, r3, lsl #2]
 214:AudioFileManager.cpp ****       }
 759              		.loc 1 214 76 view .LVU215
 760 007e 35F913E0 		ldrsheq	lr, [r5, r3, lsl #1]
 217:AudioFileManager.cpp ****         right_buf_[i+samples_read] = temp_buf[i * 2 + 1];
 761              		.loc 1 217 35 view .LVU216
 762 0082 2CF802E0 		strhne	lr, [ip, r2]	@ movhi
 218:AudioFileManager.cpp ****       }
 763              		.loc 1 218 56 view .LVU217
 764 0086 05F1020C 		addne	ip, r5, #2
 214:AudioFileManager.cpp ****       }
 765              		.loc 1 214 64 view .LVU218
 766 008a 0CBF     		ite	eq
 767 008c 20F802E0 		strheq	lr, [r0, r2]	@ movhi
 218:AudioFileManager.cpp ****       }
 768              		.loc 1 218 56 view .LVU219
 769 0090 3CF923C0 		ldrshne	ip, [ip, r3, lsl #2]
 212:AudioFileManager.cpp ****       if (header_.channels == 1){
 770              		.loc 1 212 5 view .LVU220
 771 0094 03F10103 		add	r3, r3, #1
 772              	.LVL55:
 214:AudioFileManager.cpp ****       }
 773              		.loc 1 214 35 view .LVU221
 774 0098 0CBF     		ite	eq
 775 009a 2CF802E0 		strheq	lr, [ip, r2]	@ movhi
 217:AudioFileManager.cpp ****         right_buf_[i+samples_read] = temp_buf[i * 2 + 1];
 776              		.loc 1 217 9 is_stmt 1 view .LVU222
 218:AudioFileManager.cpp ****       }
ARM GAS  /var/folders/2p/02m_5p7958535cp2tpgps0400000gn/T//ccbXQTM6.s 			page 30


 777              		.loc 1 218 9 view .LVU223
 218:AudioFileManager.cpp ****       }
 778              		.loc 1 218 36 is_stmt 0 view .LVU224
 779 009e 20F802C0 		strhne	ip, [r0, r2]	@ movhi
 212:AudioFileManager.cpp ****       if (header_.channels == 1){
 780              		.loc 1 212 5 is_stmt 1 view .LVU225
 781              	.LVL56:
 212:AudioFileManager.cpp ****       if (header_.channels == 1){
 782              		.loc 1 212 5 is_stmt 0 view .LVU226
 783 00a2 0232     		adds	r2, r2, #2
 784 00a4 E0E7     		b	.L45
 785              	.L42:
 212:AudioFileManager.cpp ****       if (header_.channels == 1){
 786              		.loc 1 212 5 view .LVU227
 787              	.LBE78:
 221:AudioFileManager.cpp ****   }
 788              		.loc 1 221 5 is_stmt 1 view .LVU228
 221:AudioFileManager.cpp ****   }
 789              		.loc 1 221 18 is_stmt 0 view .LVU229
 790 00a6 1E44     		add	r6, r6, r3
 791              	.LVL57:
 221:AudioFileManager.cpp ****   }
 792              		.loc 1 221 18 view .LVU230
 793              	.LBE79:
 199:AudioFileManager.cpp ****     DebugPrint(pod_,"first bit of loading loop");
 794              		.loc 1 199 3 view .LVU231
 795 00a8 B6E7     		b	.L46
 796              	.LVL58:
 797              	.L38:
 224:AudioFileManager.cpp ****   return true;
 798              		.loc 1 224 3 is_stmt 1 discriminator 1 view .LVU232
 224:AudioFileManager.cpp ****   return true;
 799              		.loc 1 224 12 is_stmt 0 discriminator 1 view .LVU233
 800 00aa 2846     		mov	r0, r5
 801 00ac FFF7FEFF 		bl	_ZdaPv
 802              	.LVL59:
 225:AudioFileManager.cpp **** }
 803              		.loc 1 225 3 is_stmt 1 discriminator 1 view .LVU234
 225:AudioFileManager.cpp **** }
 804              		.loc 1 225 10 is_stmt 0 discriminator 1 view .LVU235
 805 00b0 0120     		movs	r0, #1
 806 00b2 D0E7     		b	.L41
 807              	.L49:
 808              		.align	2
 809              	.L48:
 810 00b4 00000000 		.word	.LC11
 811 00b8 0B000000 		.word	.LC12
 812              		.cfi_endproc
 813              	.LFE2588:
 815              		.section	.text._ZN16AudioFileManager13LoadAudioDataEv,"ax",%progbits
 816              		.align	1
 817              		.global	_ZN16AudioFileManager13LoadAudioDataEv
 818              		.syntax unified
 819              		.thumb
 820              		.thumb_func
 822              	_ZN16AudioFileManager13LoadAudioDataEv:
 823              	.LVL60:
ARM GAS  /var/folders/2p/02m_5p7958535cp2tpgps0400000gn/T//ccbXQTM6.s 			page 31


 824              	.LFB2587:
 176:AudioFileManager.cpp ****   memset(left_buf_, 0.0f, CHNL_BUF_SIZE_ABS);
 825              		.loc 1 176 40 is_stmt 1 view -0
 826              		.cfi_startproc
 827              		@ args = 0, pretend = 0, frame = 0
 828              		@ frame_needed = 0, uses_anonymous_args = 0
 177:AudioFileManager.cpp ****   memset(right_buf_, 0.0f, CHNL_BUF_SIZE_ABS);
 829              		.loc 1 177 3 view .LVU237
 176:AudioFileManager.cpp ****   memset(left_buf_, 0.0f, CHNL_BUF_SIZE_ABS);
 830              		.loc 1 176 40 is_stmt 0 view .LVU238
 831 0000 10B5     		push	{r4, lr}
 832              		.cfi_def_cfa_offset 8
 833              		.cfi_offset 4, -8
 834              		.cfi_offset 14, -4
 176:AudioFileManager.cpp ****   memset(left_buf_, 0.0f, CHNL_BUF_SIZE_ABS);
 835              		.loc 1 176 40 view .LVU239
 836 0002 0446     		mov	r4, r0
 177:AudioFileManager.cpp ****   memset(right_buf_, 0.0f, CHNL_BUF_SIZE_ABS);
 837              		.loc 1 177 9 view .LVU240
 838 0004 4FF08072 		mov	r2, #16777216
 839 0008 0021     		movs	r1, #0
 840 000a 0069     		ldr	r0, [r0, #16]
 841              	.LVL61:
 177:AudioFileManager.cpp ****   memset(right_buf_, 0.0f, CHNL_BUF_SIZE_ABS);
 842              		.loc 1 177 9 view .LVU241
 843 000c FFF7FEFF 		bl	memset
 844              	.LVL62:
 178:AudioFileManager.cpp ****   size_t samples_per_channel = GetSamplesPerChannel();
 845              		.loc 1 178 3 is_stmt 1 view .LVU242
 178:AudioFileManager.cpp ****   size_t samples_per_channel = GetSamplesPerChannel();
 846              		.loc 1 178 9 is_stmt 0 view .LVU243
 847 0010 0021     		movs	r1, #0
 848 0012 4FF08072 		mov	r2, #16777216
 849 0016 6069     		ldr	r0, [r4, #20]
 850 0018 FFF7FEFF 		bl	memset
 851              	.LVL63:
 179:AudioFileManager.cpp **** 
 852              		.loc 1 179 3 is_stmt 1 view .LVU244
 853              	.LBB80:
 854              	.LBI80:
 855              		.file 6 "AudioFileManager.h"
   1:AudioFileManager.h **** #pragma once
   2:AudioFileManager.h **** #include <stdio.h>
   3:AudioFileManager.h **** #include <stdint.h>
   4:AudioFileManager.h **** // #include <vector>
   5:AudioFileManager.h **** #include "daisy_pod.h"
   6:AudioFileManager.h **** #include "constants_utils.h"
   7:AudioFileManager.h **** #include "debug_print.h"
   8:AudioFileManager.h **** 
   9:AudioFileManager.h **** using namespace daisy; 
  10:AudioFileManager.h **** 
  11:AudioFileManager.h **** class AudioFileManager {
  12:AudioFileManager.h ****   public:
  13:AudioFileManager.h ****     AudioFileManager(SdmmcHandler &sd, FatFSInterface &fsi, DaisyPod &pod, FIL *file)
  14:AudioFileManager.h ****       : sd_(sd), fsi_(fsi), pod_(pod), curr_file_(file), 
  15:AudioFileManager.h ****         left_buf_(nullptr), right_buf_(nullptr) {};
  16:AudioFileManager.h ****     
ARM GAS  /var/folders/2p/02m_5p7958535cp2tpgps0400000gn/T//ccbXQTM6.s 			page 32


  17:AudioFileManager.h ****     bool Init();
  18:AudioFileManager.h ****     bool ScanWavFiles();
  19:AudioFileManager.h ****     void SetBuffers(int16_t *left, int16_t *right);
  20:AudioFileManager.h ****     bool LoadFile(uint16_t file_idx);
  21:AudioFileManager.h ****     
  22:AudioFileManager.h ****     bool CloseFile();
  23:AudioFileManager.h ****     bool GetWavHeader(FIL *file);
  24:AudioFileManager.h **** 
  25:AudioFileManager.h ****     int16_t* GetLeftBuffer() const { return left_buf_; }
  26:AudioFileManager.h ****     int16_t* GetRightBuffer() const { return right_buf_; }
  27:AudioFileManager.h ****     size_t GetSamplesPerChannel() const { return header_.total_samples / header_.channels; }
 856              		.loc 6 27 12 view .LVU245
 857              	.LBB81:
 858              		.loc 6 27 43 view .LVU246
 859              		.loc 6 27 82 is_stmt 0 view .LVU247
 860 001c B4F96438 		ldrsh	r3, [r4, #2148]
 861 0020 D4F86818 		ldr	r1, [r4, #2152]
 862 0024 B1FBF3F1 		udiv	r1, r1, r3
 863              	.LVL64:
 864              		.loc 6 27 82 view .LVU248
 865              	.LBE81:
 866              	.LBE80:
 181:AudioFileManager.cpp **** 
 867              		.loc 1 181 3 is_stmt 1 view .LVU249
 868 0028 B1F5000F 		cmp	r1, #8388608
 869 002c 04D8     		bhi	.L51
 183:AudioFileManager.cpp **** }
 870              		.loc 1 183 3 view .LVU250
 183:AudioFileManager.cpp **** }
 871              		.loc 1 183 24 is_stmt 0 view .LVU251
 872 002e 2046     		mov	r0, r4
 184:AudioFileManager.cpp **** 
 873              		.loc 1 184 1 view .LVU252
 874 0030 BDE81040 		pop	{r4, lr}
 875              		.cfi_remember_state
 876              		.cfi_restore 14
 877              		.cfi_restore 4
 878              		.cfi_def_cfa_offset 0
 879              	.LVL65:
 183:AudioFileManager.cpp **** }
 880              		.loc 1 183 24 view .LVU253
 881 0034 FFF7FEBF 		b	_ZN16AudioFileManager14Load16BitAudioEj
 882              	.LVL66:
 883              	.L51:
 884              		.cfi_restore_state
 184:AudioFileManager.cpp **** 
 885              		.loc 1 184 1 view .LVU254
 886 0038 0020     		movs	r0, #0
 887 003a 10BD     		pop	{r4, pc}
 184:AudioFileManager.cpp **** 
 888              		.loc 1 184 1 view .LVU255
 889              		.cfi_endproc
 890              	.LFE2587:
 892              		.section	.rodata._ZN16AudioFileManager8LoadFileEt.str1.1,"aMS",%progbits,1
 893              	.LC13:
 894 0000 6C6F6164 		.ascii	"loading audio data now\000"
 894      696E6720 
ARM GAS  /var/folders/2p/02m_5p7958535cp2tpgps0400000gn/T//ccbXQTM6.s 			page 33


 894      61756469 
 894      6F206461 
 894      7461206E 
 895              	.LC14:
 896 0017 77617620 		.ascii	"wav header parse failed\000"
 896      68656164 
 896      65722070 
 896      61727365 
 896      20666169 
 897              		.section	.text._ZN16AudioFileManager8LoadFileEt,"ax",%progbits
 898              		.align	1
 899              		.global	_ZN16AudioFileManager8LoadFileEt
 900              		.syntax unified
 901              		.thumb
 902              		.thumb_func
 904              	_ZN16AudioFileManager8LoadFileEt:
 905              	.LVL67:
 906              	.LFB2585:
  74:AudioFileManager.cpp ****   if (sel_idx > file_count_) return false;
 907              		.loc 1 74 51 is_stmt 1 view -0
 908              		.cfi_startproc
 909              		@ args = 0, pretend = 0, frame = 0
 910              		@ frame_needed = 0, uses_anonymous_args = 0
  75:AudioFileManager.cpp ****   if (sel_idx != curr_idx_) f_close(curr_file_);
 911              		.loc 1 75 3 view .LVU257
  74:AudioFileManager.cpp ****   if (sel_idx > file_count_) return false;
 912              		.loc 1 74 51 is_stmt 0 view .LVU258
 913 0000 38B5     		push	{r3, r4, r5, lr}
 914              		.cfi_def_cfa_offset 16
 915              		.cfi_offset 3, -16
 916              		.cfi_offset 4, -12
 917              		.cfi_offset 5, -8
 918              		.cfi_offset 14, -4
  75:AudioFileManager.cpp ****   if (sel_idx != curr_idx_) f_close(curr_file_);
 919              		.loc 1 75 3 view .LVU259
 920 0002 B0F85A38 		ldrh	r3, [r0, #2138]
  74:AudioFileManager.cpp ****   if (sel_idx > file_count_) return false;
 921              		.loc 1 74 51 view .LVU260
 922 0006 0446     		mov	r4, r0
 923 0008 0D46     		mov	r5, r1
  75:AudioFileManager.cpp ****   if (sel_idx != curr_idx_) f_close(curr_file_);
 924              		.loc 1 75 3 view .LVU261
 925 000a 8B42     		cmp	r3, r1
 926 000c 2BD3     		bcc	.L54
  76:AudioFileManager.cpp **** 
 927              		.loc 1 76 3 is_stmt 1 view .LVU262
 928 000e B0F85838 		ldrh	r3, [r0, #2136]
 929 0012 8B42     		cmp	r3, r1
 930 0014 02D0     		beq	.L55
  76:AudioFileManager.cpp **** 
 931              		.loc 1 76 29 discriminator 1 view .LVU263
  76:AudioFileManager.cpp **** 
 932              		.loc 1 76 36 is_stmt 0 discriminator 1 view .LVU264
 933 0016 C068     		ldr	r0, [r0, #12]
 934              	.LVL68:
  76:AudioFileManager.cpp **** 
 935              		.loc 1 76 36 discriminator 1 view .LVU265
ARM GAS  /var/folders/2p/02m_5p7958535cp2tpgps0400000gn/T//ccbXQTM6.s 			page 34


 936 0018 FFF7FEFF 		bl	f_close
 937              	.LVL69:
 938              	.L55:
  79:AudioFileManager.cpp **** 
 939              		.loc 1 79 3 is_stmt 1 view .LVU266
  79:AudioFileManager.cpp **** 
 940              		.loc 1 79 40 is_stmt 0 view .LVU267
 941 001c 04EB8511 		add	r1, r4, r5, lsl #6
  79:AudioFileManager.cpp **** 
 942              		.loc 1 79 13 view .LVU268
 943 0020 0122     		movs	r2, #1
 944 0022 E068     		ldr	r0, [r4, #12]
 945 0024 5831     		adds	r1, r1, #88
 946 0026 FFF7FEFF 		bl	f_open
 947              	.LVL70:
  79:AudioFileManager.cpp **** 
 948              		.loc 1 79 3 view .LVU269
 949 002a E0B9     		cbnz	r0, .L54
  81:AudioFileManager.cpp ****     DebugPrint(pod_, "wav header parse failed");
 950              		.loc 1 81 3 is_stmt 1 view .LVU270
  81:AudioFileManager.cpp ****     DebugPrint(pod_, "wav header parse failed");
 951              		.loc 1 81 20 is_stmt 0 view .LVU271
 952 002c E168     		ldr	r1, [r4, #12]
 953 002e 2046     		mov	r0, r4
 954 0030 FFF7FEFF 		bl	_ZN16AudioFileManager12GetWavHeaderEP3FIL
 955              	.LVL71:
  81:AudioFileManager.cpp ****     DebugPrint(pod_, "wav header parse failed");
 956              		.loc 1 81 55 view .LVU272
 957 0034 88B1     		cbz	r0, .L57
  81:AudioFileManager.cpp ****     DebugPrint(pod_, "wav header parse failed");
 958              		.loc 1 81 32 discriminator 2 view .LVU273
 959 0036 B4F96638 		ldrsh	r3, [r4, #2150]
 960 003a 102B     		cmp	r3, #16
 961 003c 0DD1     		bne	.L57
  81:AudioFileManager.cpp ****     DebugPrint(pod_, "wav header parse failed");
 962              		.loc 1 81 55 discriminator 4 view .LVU274
 963 003e D4F85C28 		ldr	r2, [r4, #2140]
 964 0042 4BF68033 		movw	r3, #48000
 965 0046 9A42     		cmp	r2, r3
 966 0048 07D1     		bne	.L57
  87:AudioFileManager.cpp ****   return LoadAudioData();
 967              		.loc 1 87 3 is_stmt 1 view .LVU275
  87:AudioFileManager.cpp ****   return LoadAudioData();
 968              		.loc 1 87 3 view .LVU276
 969              	.LVL72:
 970              	.LBB82:
 971              	.LBI82:
 126:../libDaisy/src/daisy_seed.h ****     {
 972              		.loc 2 126 17 view .LVU277
 973              	.LBB83:
 974              		.loc 2 128 23 is_stmt 0 view .LVU278
 975 004a 0848     		ldr	r0, .L61
 976 004c FFF7FEFF 		bl	_ZN5daisy6LoggerILNS_17LoggerDestinationE1EE9PrintLineEPKcz
 977              	.LVL73:
 978              		.loc 2 128 23 view .LVU279
 979              	.LBE83:
 980              	.LBE82:
ARM GAS  /var/folders/2p/02m_5p7958535cp2tpgps0400000gn/T//ccbXQTM6.s 			page 35


  88:AudioFileManager.cpp **** }
 981              		.loc 1 88 3 is_stmt 1 view .LVU280
  88:AudioFileManager.cpp **** }
 982              		.loc 1 88 23 is_stmt 0 view .LVU281
 983 0050 2046     		mov	r0, r4
  89:AudioFileManager.cpp **** 
 984              		.loc 1 89 1 view .LVU282
 985 0052 BDE83840 		pop	{r3, r4, r5, lr}
 986              		.cfi_remember_state
 987              		.cfi_restore 14
 988              		.cfi_restore 5
 989              		.cfi_restore 4
 990              		.cfi_restore 3
 991              		.cfi_def_cfa_offset 0
 992              	.LVL74:
  88:AudioFileManager.cpp **** }
 993              		.loc 1 88 23 view .LVU283
 994 0056 FFF7FEBF 		b	_ZN16AudioFileManager13LoadAudioDataEv
 995              	.LVL75:
 996              	.L57:
 997              		.cfi_restore_state
  82:AudioFileManager.cpp ****     f_close(curr_file_);
 998              		.loc 1 82 5 is_stmt 1 view .LVU284
  82:AudioFileManager.cpp ****     f_close(curr_file_);
 999              		.loc 1 82 5 view .LVU285
 1000              	.LBB84:
 1001              	.LBI84:
 126:../libDaisy/src/daisy_seed.h ****     {
 1002              		.loc 2 126 17 view .LVU286
 1003              	.LBB85:
 1004              		.loc 2 128 23 is_stmt 0 view .LVU287
 1005 005a 0548     		ldr	r0, .L61+4
 1006 005c FFF7FEFF 		bl	_ZN5daisy6LoggerILNS_17LoggerDestinationE1EE9PrintLineEPKcz
 1007              	.LVL76:
 1008              		.loc 2 128 23 view .LVU288
 1009              	.LBE85:
 1010              	.LBE84:
  83:AudioFileManager.cpp ****     return false;
 1011              		.loc 1 83 5 is_stmt 1 view .LVU289
  83:AudioFileManager.cpp ****     return false;
 1012              		.loc 1 83 12 is_stmt 0 view .LVU290
 1013 0060 E068     		ldr	r0, [r4, #12]
 1014 0062 FFF7FEFF 		bl	f_close
 1015              	.LVL77:
  84:AudioFileManager.cpp ****   }
 1016              		.loc 1 84 5 is_stmt 1 view .LVU291
 1017              	.L54:
  89:AudioFileManager.cpp **** 
 1018              		.loc 1 89 1 is_stmt 0 view .LVU292
 1019 0066 0020     		movs	r0, #0
 1020 0068 38BD     		pop	{r3, r4, r5, pc}
 1021              	.LVL78:
 1022              	.L62:
  89:AudioFileManager.cpp **** 
 1023              		.loc 1 89 1 view .LVU293
 1024 006a 00BF     		.align	2
 1025              	.L61:
ARM GAS  /var/folders/2p/02m_5p7958535cp2tpgps0400000gn/T//ccbXQTM6.s 			page 36


 1026 006c 00000000 		.word	.LC13
 1027 0070 17000000 		.word	.LC14
 1028              		.cfi_endproc
 1029              	.LFE2585:
 1031              		.section	.text._ZN16AudioFileManager9CloseFileEv,"ax",%progbits
 1032              		.align	1
 1033              		.global	_ZN16AudioFileManager9CloseFileEv
 1034              		.syntax unified
 1035              		.thumb
 1036              		.thumb_func
 1038              	_ZN16AudioFileManager9CloseFileEv:
 1039              	.LVL79:
 1040              	.LFB2589:
 227:AudioFileManager.cpp **** 
 228:AudioFileManager.cpp **** /// @brief Closes currently open file
 229:AudioFileManager.cpp **** /// @return True if file was successfully closed, else false
 230:AudioFileManager.cpp **** bool AudioFileManager::CloseFile(){
 1041              		.loc 1 230 35 is_stmt 1 view -0
 1042              		.cfi_startproc
 1043              		@ args = 0, pretend = 0, frame = 0
 1044              		@ frame_needed = 0, uses_anonymous_args = 0
 231:AudioFileManager.cpp ****   return f_close(curr_file_) == FR_OK;
 1045              		.loc 1 231 3 view .LVU295
 230:AudioFileManager.cpp ****   return f_close(curr_file_) == FR_OK;
 1046              		.loc 1 230 35 is_stmt 0 view .LVU296
 1047 0000 08B5     		push	{r3, lr}
 1048              		.cfi_def_cfa_offset 8
 1049              		.cfi_offset 3, -8
 1050              		.cfi_offset 14, -4
 1051              		.loc 1 231 17 view .LVU297
 1052 0002 C068     		ldr	r0, [r0, #12]
 1053              	.LVL80:
 1054              		.loc 1 231 17 view .LVU298
 1055 0004 FFF7FEFF 		bl	f_close
 1056              	.LVL81:
 232:AudioFileManager.cpp **** }
 1057              		.loc 1 232 1 view .LVU299
 1058 0008 B0FA80F0 		clz	r0, r0
 1059 000c 4009     		lsrs	r0, r0, #5
 1060 000e 08BD     		pop	{r3, pc}
 1061              		.cfi_endproc
 1062              	.LFE2589:
 1064              		.section	.text._ZN16AudioFileManager10SetBuffersEPsS0_,"ax",%progbits
 1065              		.align	1
 1066              		.global	_ZN16AudioFileManager10SetBuffersEPsS0_
 1067              		.syntax unified
 1068              		.thumb
 1069              		.thumb_func
 1071              	_ZN16AudioFileManager10SetBuffersEPsS0_:
 1072              	.LVL82:
 1073              	.LFB2590:
 233:AudioFileManager.cpp **** 
 234:AudioFileManager.cpp **** /// @brief Assign the locations of the audio data buffers
 235:AudioFileManager.cpp **** /// @param left Pointer to the left channel buffer
 236:AudioFileManager.cpp **** /// @param right Pointer to the right channel buffer
 237:AudioFileManager.cpp **** void AudioFileManager::SetBuffers(int16_t *left, int16_t *right){
 1074              		.loc 1 237 65 is_stmt 1 view -0
ARM GAS  /var/folders/2p/02m_5p7958535cp2tpgps0400000gn/T//ccbXQTM6.s 			page 37


 1075              		.cfi_startproc
 1076              		@ args = 0, pretend = 0, frame = 0
 1077              		@ frame_needed = 0, uses_anonymous_args = 0
 1078              		@ link register save eliminated.
 238:AudioFileManager.cpp ****   left_buf_ = left;
 1079              		.loc 1 238 3 view .LVU301
 239:AudioFileManager.cpp ****   right_buf_ = right;
 1080              		.loc 1 239 14 is_stmt 0 view .LVU302
 1081 0000 C0E90412 		strd	r1, r2, [r0, #16]
 240:AudioFileManager.cpp **** }
 1082              		.loc 1 240 1 view .LVU303
 1083 0004 7047     		bx	lr
 1084              		.cfi_endproc
 1085              	.LFE2590:
 1087              		.text
 1088              	.Letext0:
 1089              		.file 7 "/Library/DaisyToolchain/0.2.0/arm/arm-none-eabi/include/machine/_default_types.h"
 1090              		.file 8 "/Library/DaisyToolchain/0.2.0/arm/arm-none-eabi/include/sys/_stdint.h"
 1091              		.file 9 "/Library/DaisyToolchain/0.2.0/arm/arm-none-eabi/include/stdint.h"
 1092              		.file 10 "/Library/DaisyToolchain/0.2.0/arm/lib/gcc/arm-none-eabi/10.3.1/include/stddef.h"
 1093              		.file 11 "/Library/DaisyToolchain/0.2.0/arm/arm-none-eabi/include/c++/10.3.1/cmath"
 1094              		.file 12 "/Library/DaisyToolchain/0.2.0/arm/arm-none-eabi/include/c++/10.3.1/bits/std_abs.h"
 1095              		.file 13 "/Library/DaisyToolchain/0.2.0/arm/arm-none-eabi/include/c++/10.3.1/cstdlib"
 1096              		.file 14 "/Library/DaisyToolchain/0.2.0/arm/arm-none-eabi/include/c++/10.3.1/cstdint"
 1097              		.file 15 "/Library/DaisyToolchain/0.2.0/arm/arm-none-eabi/include/c++/10.3.1/arm-none-eabi/thumb/v
 1098              		.file 16 "/Library/DaisyToolchain/0.2.0/arm/arm-none-eabi/include/c++/10.3.1/type_traits"
 1099              		.file 17 "/Library/DaisyToolchain/0.2.0/arm/arm-none-eabi/include/c++/10.3.1/debug/debug.h"
 1100              		.file 18 "/Library/DaisyToolchain/0.2.0/arm/arm-none-eabi/include/c++/10.3.1/bits/algorithmfwd.h"
 1101              		.file 19 "/Library/DaisyToolchain/0.2.0/arm/arm-none-eabi/include/c++/10.3.1/bits/stl_pair.h"
 1102              		.file 20 "/Library/DaisyToolchain/0.2.0/arm/arm-none-eabi/include/c++/10.3.1/bits/exception_ptr.h"
 1103              		.file 21 "/Library/DaisyToolchain/0.2.0/arm/arm-none-eabi/include/c++/10.3.1/initializer_list"
 1104              		.file 22 "/Library/DaisyToolchain/0.2.0/arm/arm-none-eabi/include/c++/10.3.1/cstdarg"
 1105              		.file 23 "/Library/DaisyToolchain/0.2.0/arm/arm-none-eabi/include/c++/10.3.1/cstdio"
 1106              		.file 24 "/Library/DaisyToolchain/0.2.0/arm/arm-none-eabi/include/c++/10.3.1/cstring"
 1107              		.file 25 "/Library/DaisyToolchain/0.2.0/arm/arm-none-eabi/include/c++/10.3.1/bits/predefined_ops.h
 1108              		.file 26 "/Library/DaisyToolchain/0.2.0/arm/arm-none-eabi/include/sys/_types.h"
 1109              		.file 27 "/Library/DaisyToolchain/0.2.0/arm/arm-none-eabi/include/sys/reent.h"
 1110              		.file 28 "/Library/DaisyToolchain/0.2.0/arm/arm-none-eabi/include/sys/lock.h"
 1111              		.file 29 "/Library/DaisyToolchain/0.2.0/arm/arm-none-eabi/include/math.h"
 1112              		.file 30 "/Library/DaisyToolchain/0.2.0/arm/arm-none-eabi/include/stdlib.h"
 1113              		.file 31 "/Library/DaisyToolchain/0.2.0/arm/arm-none-eabi/include/c++/10.3.1/math.h"
 1114              		.file 32 "/Library/DaisyToolchain/0.2.0/arm/lib/gcc/arm-none-eabi/10.3.1/include/stdarg.h"
 1115              		.file 33 "/Library/DaisyToolchain/0.2.0/arm/arm-none-eabi/include/stdio.h"
 1116              		.file 34 "/Library/DaisyToolchain/0.2.0/arm/arm-none-eabi/include/c++/10.3.1/stdlib.h"
 1117              		.file 35 "../libDaisy/src/daisy_core.h"
 1118              		.file 36 "../libDaisy/src/per/tim.h"
 1119              		.file 37 "../libDaisy/src/sys/system.h"
 1120              		.file 38 "../libDaisy/src/per/qspi.h"
 1121              		.file 39 "../libDaisy/src/per/dac.h"
 1122              		.file 40 "../libDaisy/src/per/sai.h"
 1123              		.file 41 "../libDaisy/src/hid/audio.h"
 1124              		.file 42 "../libDaisy/src/per/adc.h"
 1125              		.file 43 "../libDaisy/src/per/uart.h"
 1126              		.file 44 "../libDaisy/src/hid/MidiEvent.h"
 1127              		.file 45 "../libDaisy/src/hid/midi_parser.h"
 1128              		.file 46 "../libDaisy/src/hid/usb.h"
 1129              		.file 47 "../libDaisy/src/hid/midi.h"
ARM GAS  /var/folders/2p/02m_5p7958535cp2tpgps0400000gn/T//ccbXQTM6.s 			page 38


 1130              		.file 48 "../libDaisy/src/util/FIFO.h"
 1131              		.file 49 "../libDaisy/src/hid/switch.h"
 1132              		.file 50 "../libDaisy/src/hid/encoder.h"
 1133              		.file 51 "../libDaisy/src/hid/ctrl.h"
 1134              		.file 52 "../libDaisy/src/hid/logger_impl.h"
 1135              		.file 53 "../libDaisy/src/util/wav_format.h"
 1136              		.file 54 "../libDaisy/src/hid/led.h"
 1137              		.file 55 "../libDaisy/src/util/color.h"
 1138              		.file 56 "../libDaisy/src/hid/rgb_led.h"
 1139              		.file 57 "../libDaisy/src/dev/max11300.h"
 1140              		.file 58 "../libDaisy/src/hid/logger.h"
 1141              		.file 59 "../libDaisy/src/daisy_pod.h"
 1142              		.file 60 "../libDaisy/src/per/gpio.h"
 1143              		.file 61 "../libDaisy/src/dev/sdram.h"
 1144              		.file 62 "../libDaisy/Middlewares/Third_Party/FatFs/src/integer.h"
 1145              		.file 63 "../libDaisy/Middlewares/Third_Party/FatFs/src/ff.h"
 1146              		.file 64 "/Library/DaisyToolchain/0.2.0/arm/arm-none-eabi/include/string.h"
 1147              		.file 65 "constants_utils.h"
 1148              		.file 66 "../libDaisy/src/dev/sr_595.h"
 1149              		.file 67 "/Library/DaisyToolchain/0.2.0/arm/arm-none-eabi/include/c++/10.3.1/new"
 1150              		.file 68 "<built-in>"
ARM GAS  /var/folders/2p/02m_5p7958535cp2tpgps0400000gn/T//ccbXQTM6.s 			page 39


DEFINED SYMBOLS
                            *ABS*:0000000000000000 AudioFileManager.cpp
/var/folders/2p/02m_5p7958535cp2tpgps0400000gn/T//ccbXQTM6.s:32     .text._ZN16AudioFileManager4InitEv:0000000000000000 $t
/var/folders/2p/02m_5p7958535cp2tpgps0400000gn/T//ccbXQTM6.s:38     .text._ZN16AudioFileManager4InitEv:0000000000000000 _ZN16AudioFileManager4InitEv
/var/folders/2p/02m_5p7958535cp2tpgps0400000gn/T//ccbXQTM6.s:221    .text._ZN16AudioFileManager4InitEv:0000000000000064 $d
/var/folders/2p/02m_5p7958535cp2tpgps0400000gn/T//ccbXQTM6.s:242    .text._ZN16AudioFileManager12ScanWavFilesEv:0000000000000000 $t
/var/folders/2p/02m_5p7958535cp2tpgps0400000gn/T//ccbXQTM6.s:248    .text._ZN16AudioFileManager12ScanWavFilesEv:0000000000000000 _ZN16AudioFileManager12ScanWavFilesEv
/var/folders/2p/02m_5p7958535cp2tpgps0400000gn/T//ccbXQTM6.s:432    .text._ZN16AudioFileManager12ScanWavFilesEv:00000000000000a8 $d
/var/folders/2p/02m_5p7958535cp2tpgps0400000gn/T//ccbXQTM6.s:441    .text._ZN16AudioFileManager12GetWavHeaderEP3FIL:0000000000000000 $t
/var/folders/2p/02m_5p7958535cp2tpgps0400000gn/T//ccbXQTM6.s:447    .text._ZN16AudioFileManager12GetWavHeaderEP3FIL:0000000000000000 _ZN16AudioFileManager12GetWavHeaderEP3FIL
/var/folders/2p/02m_5p7958535cp2tpgps0400000gn/T//ccbXQTM6.s:575    .text._ZN16AudioFileManager12GetWavHeaderEP3FIL:0000000000000098 $d
/var/folders/2p/02m_5p7958535cp2tpgps0400000gn/T//ccbXQTM6.s:585    .text._ZN16AudioFileManager14Load16BitAudioEj:0000000000000000 $t
/var/folders/2p/02m_5p7958535cp2tpgps0400000gn/T//ccbXQTM6.s:591    .text._ZN16AudioFileManager14Load16BitAudioEj:0000000000000000 _ZN16AudioFileManager14Load16BitAudioEj
/var/folders/2p/02m_5p7958535cp2tpgps0400000gn/T//ccbXQTM6.s:810    .text._ZN16AudioFileManager14Load16BitAudioEj:00000000000000b4 $d
/var/folders/2p/02m_5p7958535cp2tpgps0400000gn/T//ccbXQTM6.s:816    .text._ZN16AudioFileManager13LoadAudioDataEv:0000000000000000 $t
/var/folders/2p/02m_5p7958535cp2tpgps0400000gn/T//ccbXQTM6.s:822    .text._ZN16AudioFileManager13LoadAudioDataEv:0000000000000000 _ZN16AudioFileManager13LoadAudioDataEv
/var/folders/2p/02m_5p7958535cp2tpgps0400000gn/T//ccbXQTM6.s:898    .text._ZN16AudioFileManager8LoadFileEt:0000000000000000 $t
/var/folders/2p/02m_5p7958535cp2tpgps0400000gn/T//ccbXQTM6.s:904    .text._ZN16AudioFileManager8LoadFileEt:0000000000000000 _ZN16AudioFileManager8LoadFileEt
/var/folders/2p/02m_5p7958535cp2tpgps0400000gn/T//ccbXQTM6.s:1026   .text._ZN16AudioFileManager8LoadFileEt:000000000000006c $d
/var/folders/2p/02m_5p7958535cp2tpgps0400000gn/T//ccbXQTM6.s:1032   .text._ZN16AudioFileManager9CloseFileEv:0000000000000000 $t
/var/folders/2p/02m_5p7958535cp2tpgps0400000gn/T//ccbXQTM6.s:1038   .text._ZN16AudioFileManager9CloseFileEv:0000000000000000 _ZN16AudioFileManager9CloseFileEv
/var/folders/2p/02m_5p7958535cp2tpgps0400000gn/T//ccbXQTM6.s:1065   .text._ZN16AudioFileManager10SetBuffersEPsS0_:0000000000000000 $t
/var/folders/2p/02m_5p7958535cp2tpgps0400000gn/T//ccbXQTM6.s:1071   .text._ZN16AudioFileManager10SetBuffersEPsS0_:0000000000000000 _ZN16AudioFileManager10SetBuffersEPsS0_

UNDEFINED SYMBOLS
_ZN5daisy6LoggerILNS_17LoggerDestinationE1EE9PrintLineEPKcz
_ZN5daisy12SdmmcHandler4InitERKNS0_6ConfigE
_ZN5daisy14FatFSInterface4InitEh
f_mount
f_opendir
f_readdir
f_closedir
strncmp
strstr
f_read
f_lseek
_Znaj
_ZdaPv
memset
f_close
f_open
