ARM GAS  /var/folders/2p/02m_5p7958535cp2tpgps0400000gn/T//ccr2nz7n.s 			page 1


   1              		.cpu cortex-m7
   2              		.arch armv7e-m
   3              		.fpu fpv5-d16
   4              		.eabi_attribute 28, 1
   5              		.eabi_attribute 20, 1
   6              		.eabi_attribute 21, 1
   7              		.eabi_attribute 23, 3
   8              		.eabi_attribute 24, 1
   9              		.eabi_attribute 25, 1
  10              		.eabi_attribute 26, 1
  11              		.eabi_attribute 30, 2
  12              		.eabi_attribute 34, 1
  13              		.eabi_attribute 18, 4
  14              		.file	"AudioFileManager.cpp"
  15              		.text
  16              	.Ltext0:
  17              		.cfi_sections	.debug_frame
  18              		.section	.rodata._ZN16AudioFileManager12ScanWavFilesEv.str1.4,"aMS",%progbits,1
  19              		.align	2
  20              	.LC0:
  21 0000 2E5F00   		.ascii	"._\000"
  22 0003 00       		.align	2
  23              	.LC1:
  24 0004 2E776176 		.ascii	".wav\000"
  24      00
  25 0009 000000   		.align	2
  26              	.LC2:
  27 000c 2E574156 		.ascii	".WAV\000"
  27      00
  28 0011 000000   		.align	2
  29              	.LC3:
  30 0014 666F756E 		.ascii	"found dir: %s\000"
  30      64206469 
  30      723A2025 
  30      7300
  31 0022 0000     		.align	2
  32              	.LC4:
  33 0024 666F756E 		.ascii	"found hidden file: %s\000"
  33      64206869 
  33      6464656E 
  33      2066696C 
  33      653A2025 
  34 003a 0000     		.align	2
  35              	.LC5:
  36 003c 66696E61 		.ascii	"final count %d files\000"
  36      6C20636F 
  36      756E7420 
  36      25642066 
  36      696C6573 
  37              		.section	.text._ZN16AudioFileManager12ScanWavFilesEv,"ax",%progbits
  38              		.align	1
  39              		.p2align 2,,3
  40              		.global	_ZN16AudioFileManager12ScanWavFilesEv
  41              		.syntax unified
  42              		.thumb
  43              		.thumb_func
  45              	_ZN16AudioFileManager12ScanWavFilesEv:
ARM GAS  /var/folders/2p/02m_5p7958535cp2tpgps0400000gn/T//ccr2nz7n.s 			page 2


  46              	.LVL0:
  47              	.LFB2572:
  48              		.file 1 "AudioFileManager.cpp"
   1:AudioFileManager.cpp **** #include <stdio.h>
   2:AudioFileManager.cpp **** #include "daisy_pod.h"
   3:AudioFileManager.cpp **** #include "AudioFileManager.h"
   4:AudioFileManager.cpp **** #include "ff.h"
   5:AudioFileManager.cpp **** 
   6:AudioFileManager.cpp **** using namespace daisy;
   7:AudioFileManager.cpp **** 
   8:AudioFileManager.cpp **** // should i init these here or in main class? 
   9:AudioFileManager.cpp **** // here for now, move to main if i need to use them in other classes
  10:AudioFileManager.cpp **** // FatFSInterface fsi;
  11:AudioFileManager.cpp **** // SdmmcHandler sd;
  12:AudioFileManager.cpp **** 
  13:AudioFileManager.cpp **** // init function that takes sd card path, mounts  returns bool for successs?
  14:AudioFileManager.cpp **** 
  15:AudioFileManager.cpp **** bool AudioFileManager::Init(){
  16:AudioFileManager.cpp ****   SdmmcHandler::Config sd_cfg;
  17:AudioFileManager.cpp ****   sd_cfg.Defaults();
  18:AudioFileManager.cpp ****   if (sd_->Init(sd_cfg) != SdmmcHandler::Result::OK) {
  19:AudioFileManager.cpp ****     BlinkOnSDError('d');
  20:AudioFileManager.cpp ****     return false;
  21:AudioFileManager.cpp ****   }
  22:AudioFileManager.cpp ****   pod_->seed.PrintLine("daisy sd init ok");
  23:AudioFileManager.cpp **** 
  24:AudioFileManager.cpp ****   fsi_->Init(FatFSInterface::Config::MEDIA_SD);
  25:AudioFileManager.cpp ****   if (f_mount(&fsi_->GetSDFileSystem(),"/",1) != FR_OK){
  26:AudioFileManager.cpp ****     BlinkOnSDError('f');
  27:AudioFileManager.cpp ****     // TODO: change to enums here + above
  28:AudioFileManager.cpp ****     // for sd error blink function
  29:AudioFileManager.cpp ****     return false;
  30:AudioFileManager.cpp ****   }
  31:AudioFileManager.cpp ****   pod_->seed.PrintLine("fatfs init ok");
  32:AudioFileManager.cpp ****   
  33:AudioFileManager.cpp ****   return true;
  34:AudioFileManager.cpp **** }
  35:AudioFileManager.cpp **** 
  36:AudioFileManager.cpp **** /* Scan SD card for wavs and save filenames */
  37:AudioFileManager.cpp **** bool AudioFileManager::ScanWavFiles(){
  49              		.loc 1 37 38 view -0
  50              		.cfi_startproc
  51              		@ args = 0, pretend = 0, frame = 456
  52              		@ frame_needed = 0, uses_anonymous_args = 0
  38:AudioFileManager.cpp ****   DIR dir;
  53              		.loc 1 38 3 view .LVU1
  39:AudioFileManager.cpp ****   FILINFO fno;
  54              		.loc 1 39 3 view .LVU2
  40:AudioFileManager.cpp ****   /* NOTE: all file names must be less than 128 chars 
  41:AudioFileManager.cpp ****     TODO: ask if this is fine or if i should actually
  42:AudioFileManager.cpp ****           implement length checks + adding null terminator
  43:AudioFileManager.cpp ****           (atm check is much easier but not as safe)
  44:AudioFileManager.cpp ****   */
  45:AudioFileManager.cpp ****   char name[MAX_FNAME_LEN];
  55              		.loc 1 45 3 view .LVU3
  46:AudioFileManager.cpp **** 
  47:AudioFileManager.cpp ****   /* clear names array before use */
ARM GAS  /var/folders/2p/02m_5p7958535cp2tpgps0400000gn/T//ccr2nz7n.s 			page 3


  48:AudioFileManager.cpp ****   memset(names_, '\0', sizeof(names_));
  56              		.loc 1 48 3 view .LVU4
  37:AudioFileManager.cpp ****   DIR dir;
  57              		.loc 1 37 38 is_stmt 0 view .LVU5
  58 0000 2DE9F041 		push	{r4, r5, r6, r7, r8, lr}
  59              		.cfi_def_cfa_offset 24
  60              		.cfi_offset 4, -24
  61              		.cfi_offset 5, -20
  62              		.cfi_offset 6, -16
  63              		.cfi_offset 7, -12
  64              		.cfi_offset 8, -8
  65              		.cfi_offset 14, -4
  66              		.loc 1 48 9 view .LVU6
  67 0004 00F10C04 		add	r4, r0, #12
  37:AudioFileManager.cpp ****   DIR dir;
  68              		.loc 1 37 38 view .LVU7
  69 0008 0746     		mov	r7, r0
  70 000a F2B0     		sub	sp, sp, #456
  71              		.cfi_def_cfa_offset 480
  72              		.loc 1 48 9 view .LVU8
  73 000c 0021     		movs	r1, #0
  74 000e 4FF48052 		mov	r2, #4096
  75 0012 2046     		mov	r0, r4
  76              	.LVL1:
  77              		.loc 1 48 9 view .LVU9
  78 0014 FFF7FEFF 		bl	memset
  79              	.LVL2:
  49:AudioFileManager.cpp **** 
  50:AudioFileManager.cpp ****   // do i need this? if just using "/"
  51:AudioFileManager.cpp ****   const char* path = fsi_->GetSDPath();
  80              		.loc 1 51 3 is_stmt 1 view .LVU10
  81              	.LBB42:
  82              	.LBI42:
  83              		.file 2 "../libDaisy/src/sys/fatfs.h"
   1:../libDaisy/src/sys/fatfs.h **** #ifndef __fatfs_H
   2:../libDaisy/src/sys/fatfs.h **** #define __fatfs_H /**< & */
   3:../libDaisy/src/sys/fatfs.h **** 
   4:../libDaisy/src/sys/fatfs.h **** #include "ff.h"
   5:../libDaisy/src/sys/fatfs.h **** 
   6:../libDaisy/src/sys/fatfs.h **** namespace daisy
   7:../libDaisy/src/sys/fatfs.h **** {
   8:../libDaisy/src/sys/fatfs.h **** /** @brief Daisy FatFS Driver Interface
   9:../libDaisy/src/sys/fatfs.h ****  *  @details Specifies the desired media (SD Card, USB, etc.) to be mountable with FatFS
  10:../libDaisy/src/sys/fatfs.h ****  *           within a given application. Once initialization is called, the standard
  11:../libDaisy/src/sys/fatfs.h ****  *           FatFS API will be usable with the media mounted in the order 
  12:../libDaisy/src/sys/fatfs.h ****  *           they are listed in the Media config struct. 
  13:../libDaisy/src/sys/fatfs.h ****  *           For example, when only using an SD Card, it will mount at "0:/",
  14:../libDaisy/src/sys/fatfs.h ****  *           when only using USB, it will mount at "0:/". However, when mounting 
  15:../libDaisy/src/sys/fatfs.h ****  *           with SD card and USB, the SD card will mount at "0:/", and the USB 
  16:../libDaisy/src/sys/fatfs.h ****  *           will mount at "1:/".
  17:../libDaisy/src/sys/fatfs.h ****  *           The relevant hardware peripheral (SDMMC, or MSD) needs to be initialized
  18:../libDaisy/src/sys/fatfs.h ****  *           separately by the application before using FatFS.
  19:../libDaisy/src/sys/fatfs.h ****  *          
  20:../libDaisy/src/sys/fatfs.h ****  *           This object has some memory limitations due to the media connected to it.
  21:../libDaisy/src/sys/fatfs.h ****  *           The SDMMC1 peripheral can only communicate with the AXI SRAM, and the DTCMRAM 
  22:../libDaisy/src/sys/fatfs.h ****  *           cannot communicate with the DMA. So the FatFSInterface object should always be
  23:../libDaisy/src/sys/fatfs.h ****  *           located in the AXI SRAM. This is the default location for all data/bss memory
ARM GAS  /var/folders/2p/02m_5p7958535cp2tpgps0400000gn/T//ccr2nz7n.s 			page 4


  24:../libDaisy/src/sys/fatfs.h ****  *           using the standard build. However, applciations using the electrosmith bootloader
  25:../libDaisy/src/sys/fatfs.h ****  *           will need special consideration when using this object AND an SD Card. 
  26:../libDaisy/src/sys/fatfs.h ****  */
  27:../libDaisy/src/sys/fatfs.h **** class FatFSInterface
  28:../libDaisy/src/sys/fatfs.h **** {
  29:../libDaisy/src/sys/fatfs.h ****   public:
  30:../libDaisy/src/sys/fatfs.h ****     /** Return values specifying specific errors for linking Daisy to FatFS */
  31:../libDaisy/src/sys/fatfs.h ****     enum Result
  32:../libDaisy/src/sys/fatfs.h ****     {
  33:../libDaisy/src/sys/fatfs.h ****         OK,
  34:../libDaisy/src/sys/fatfs.h ****         ERR_TOO_MANY_VOLUMES,
  35:../libDaisy/src/sys/fatfs.h ****         ERR_NO_MEDIA_SELECTED,
  36:../libDaisy/src/sys/fatfs.h ****         ERR_GENERIC,
  37:../libDaisy/src/sys/fatfs.h ****     };
  38:../libDaisy/src/sys/fatfs.h **** 
  39:../libDaisy/src/sys/fatfs.h ****     /** Config structure for configuring Daisy to FatFS */
  40:../libDaisy/src/sys/fatfs.h ****     struct Config
  41:../libDaisy/src/sys/fatfs.h ****     {
  42:../libDaisy/src/sys/fatfs.h ****         /** Selected Media that will be linked to FatFS 
  43:../libDaisy/src/sys/fatfs.h ****          *  These values can be OR'd together when multiple
  44:../libDaisy/src/sys/fatfs.h ****          *  volumes are desired 
  45:../libDaisy/src/sys/fatfs.h ****          *  i.e. config.media = Media::SD | Media::USBH;
  46:../libDaisy/src/sys/fatfs.h ****          * 
  47:../libDaisy/src/sys/fatfs.h ****          *  When mounting multiple volumes, ffconf.h must have 
  48:../libDaisy/src/sys/fatfs.h ****          *  _VOLUMES set to an appropriate value.
  49:../libDaisy/src/sys/fatfs.h ****          * 
  50:../libDaisy/src/sys/fatfs.h ****          *  FatFS will register multiple volumes in the order of the enum,
  51:../libDaisy/src/sys/fatfs.h ****          *   the first registered class will mount at "0:/",
  52:../libDaisy/src/sys/fatfs.h ****          *   the second registered class will mount at "1:/", and so on
  53:../libDaisy/src/sys/fatfs.h ****          */
  54:../libDaisy/src/sys/fatfs.h ****         enum Media : uint8_t
  55:../libDaisy/src/sys/fatfs.h ****         {
  56:../libDaisy/src/sys/fatfs.h ****             MEDIA_SD  = 0x01,
  57:../libDaisy/src/sys/fatfs.h ****             MEDIA_USB = 0x02,
  58:../libDaisy/src/sys/fatfs.h ****             // MEDIA_QSPI = 0x04,
  59:../libDaisy/src/sys/fatfs.h ****         };
  60:../libDaisy/src/sys/fatfs.h **** 
  61:../libDaisy/src/sys/fatfs.h ****         uint8_t media;
  62:../libDaisy/src/sys/fatfs.h ****     };
  63:../libDaisy/src/sys/fatfs.h **** 
  64:../libDaisy/src/sys/fatfs.h ****     FatFSInterface() {}
  65:../libDaisy/src/sys/fatfs.h **** 
  66:../libDaisy/src/sys/fatfs.h ****     /** Link the desired hardware specified via Config::Media */
  67:../libDaisy/src/sys/fatfs.h ****     Result Init(const Config& cfg);
  68:../libDaisy/src/sys/fatfs.h **** 
  69:../libDaisy/src/sys/fatfs.h ****     /** Link the desired hardware specified via Config::Media 
  70:../libDaisy/src/sys/fatfs.h ****      * 
  71:../libDaisy/src/sys/fatfs.h ****      *  Alternate, explicit initialization provided for simplified syntax.
  72:../libDaisy/src/sys/fatfs.h ****      */
  73:../libDaisy/src/sys/fatfs.h ****     Result Init(const uint8_t media);
  74:../libDaisy/src/sys/fatfs.h **** 
  75:../libDaisy/src/sys/fatfs.h ****     /** Unlinks FatFS from the configured media */
  76:../libDaisy/src/sys/fatfs.h ****     Result DeInit();
  77:../libDaisy/src/sys/fatfs.h **** 
  78:../libDaisy/src/sys/fatfs.h ****     bool Initialized() const { return initialized_; }
  79:../libDaisy/src/sys/fatfs.h **** 
  80:../libDaisy/src/sys/fatfs.h ****     /** Return the current configuration */
ARM GAS  /var/folders/2p/02m_5p7958535cp2tpgps0400000gn/T//ccr2nz7n.s 			page 5


  81:../libDaisy/src/sys/fatfs.h ****     const Config& GetConfig() const { return cfg_; }
  82:../libDaisy/src/sys/fatfs.h **** 
  83:../libDaisy/src/sys/fatfs.h ****     /** Return a mutable reference to the Configuration */
  84:../libDaisy/src/sys/fatfs.h ****     Config& GetMutableConfig() { return cfg_; }
  85:../libDaisy/src/sys/fatfs.h **** 
  86:../libDaisy/src/sys/fatfs.h ****     /** Returns the path to an SD Card volume to use with f_mount */
  87:../libDaisy/src/sys/fatfs.h ****     const char* GetSDPath() const { return path_[0]; }
  84              		.loc 2 87 17 view .LVU11
  85              	.LBB43:
  86              		.loc 2 87 37 view .LVU12
  87              		.loc 2 87 37 is_stmt 0 view .LVU13
  88              	.LBE43:
  89              	.LBE42:
  52:AudioFileManager.cpp **** 
  53:AudioFileManager.cpp ****   if (f_opendir(&dir,path) != FR_OK){
  90              		.loc 1 53 3 is_stmt 1 view .LVU14
  91              	.LBB45:
  92              	.LBB44:
  93              		.loc 2 87 51 is_stmt 0 view .LVU15
  94 0018 7968     		ldr	r1, [r7, #4]
  95              	.LBE44:
  96              	.LBE45:
  97              		.loc 1 53 16 view .LVU16
  98 001a 6846     		mov	r0, sp
  99 001c 01F27441 		addw	r1, r1, #1140
 100              	.LVL3:
 101              		.loc 1 53 16 view .LVU17
 102 0020 FFF7FEFF 		bl	f_opendir
 103              	.LVL4:
 104              		.loc 1 53 3 view .LVU18
 105 0024 0028     		cmp	r0, #0
 106 0026 68D1     		bne	.L15
  54:AudioFileManager.cpp ****     // log error message here
  55:AudioFileManager.cpp ****     return false;
  56:AudioFileManager.cpp ****   }
  57:AudioFileManager.cpp **** 
  58:AudioFileManager.cpp ****   int count=0;
 107              		.loc 1 58 7 view .LVU19
 108 0028 0546     		mov	r5, r0
 109              	.L3:
 110              	.LVL5:
  59:AudioFileManager.cpp ****   while (f_readdir(&dir, &fno) == FR_OK && fno.fname[0]!=0){
 111              		.loc 1 59 3 is_stmt 1 view .LVU20
 112              		.loc 1 59 41 view .LVU21
 113              		.loc 1 59 19 is_stmt 0 view .LVU22
 114 002a 2CA9     		add	r1, sp, #176
 115 002c 6846     		mov	r0, sp
 116 002e FFF7FEFF 		bl	f_readdir
 117              	.LVL6:
 118              		.loc 1 59 41 view .LVU23
 119 0032 58BB     		cbnz	r0, .L4
 120              	.L31:
 121              		.loc 1 59 41 discriminator 1 view .LVU24
 122 0034 9DF8C630 		ldrb	r3, [sp, #198]	@ zero_extendqisi2
 123 0038 43B3     		cbz	r3, .L4
  60:AudioFileManager.cpp ****     if (!(fno.fattrib & (AM_HID|AM_DIR))){
 124              		.loc 1 60 5 is_stmt 1 view .LVU25
ARM GAS  /var/folders/2p/02m_5p7958535cp2tpgps0400000gn/T//ccr2nz7n.s 			page 6


 125              		.loc 1 60 15 is_stmt 0 view .LVU26
 126 003a 9DF8B830 		ldrb	r3, [sp, #184]	@ zero_extendqisi2
 127              		.loc 1 60 5 view .LVU27
 128 003e 13F0120F 		tst	r3, #18
 129 0042 43D1     		bne	.L29
  61:AudioFileManager.cpp ****       /* NOTE: below, we ignore AppleDouble metadata files starting with '._'
  62:AudioFileManager.cpp ****       so if a legit file starts with this prefix, it will be wrongly skipped
  63:AudioFileManager.cpp ****       TODO: fix how this is handled (or just stipulate filenames must be correctly formatted) */
  64:AudioFileManager.cpp ****       if (strncmp(fno.fname, "._",2)==0) continue;
 130              		.loc 1 64 7 is_stmt 1 view .LVU28
 131              		.loc 1 64 18 is_stmt 0 view .LVU29
 132 0044 45F62E73 		movw	r3, #24366
 133 0048 BDF8C620 		ldrh	r2, [sp, #198]
 134 004c 9A42     		cmp	r2, r3
 135 004e ECD0     		beq	.L3
  65:AudioFileManager.cpp **** 
  66:AudioFileManager.cpp ****       strcpy(name, fno.fname);      
 136              		.loc 1 66 7 is_stmt 1 view .LVU30
 137              		.loc 1 66 13 is_stmt 0 view .LVU31
 138 0050 0DF13008 		add	r8, sp, #48
 139 0054 0DF1C601 		add	r1, sp, #198
 140 0058 4046     		mov	r0, r8
 141 005a FFF7FEFF 		bl	stpcpy
 142              	.LVL7:
  67:AudioFileManager.cpp ****       if (strstr(name, ".wav") || strstr(name, ".WAV")){
 143              		.loc 1 67 17 view .LVU32
 144 005e 2949     		ldr	r1, .L33
  66:AudioFileManager.cpp ****       if (strstr(name, ".wav") || strstr(name, ".WAV")){
 145              		.loc 1 66 13 view .LVU33
 146 0060 0646     		mov	r6, r0
 147              		.loc 1 67 17 view .LVU34
 148 0062 4046     		mov	r0, r8
 149              		.loc 1 67 7 is_stmt 1 view .LVU35
 150              		.loc 1 67 17 is_stmt 0 view .LVU36
 151 0064 FFF7FEFF 		bl	strstr
 152              	.LVL8:
 153              		.loc 1 67 7 view .LVU37
 154 0068 0028     		cmp	r0, #0
 155 006a 39D0     		beq	.L30
 156              	.L11:
  68:AudioFileManager.cpp ****         strcpy(names_[count],name);
 157              		.loc 1 68 9 is_stmt 1 view .LVU38
 158              		.loc 1 68 28 is_stmt 0 view .LVU39
 159 006c 07EBC510 		add	r0, r7, r5, lsl #7
  66:AudioFileManager.cpp ****       if (strstr(name, ".wav") || strstr(name, ".WAV")){
 160              		.loc 1 66 13 view .LVU40
 161 0070 A6EB0802 		sub	r2, r6, r8
 162              		.loc 1 68 15 view .LVU41
 163 0074 4146     		mov	r1, r8
 164 0076 0135     		adds	r5, r5, #1
 165              	.LVL9:
 166              		.loc 1 68 15 view .LVU42
 167 0078 0132     		adds	r2, r2, #1
 168 007a 0C30     		adds	r0, r0, #12
 169 007c FFF7FEFF 		bl	memcpy
 170              	.LVL10:
  69:AudioFileManager.cpp ****         // strncpy(names_[count],name, MAX_FNAME_LEN-1);
ARM GAS  /var/folders/2p/02m_5p7958535cp2tpgps0400000gn/T//ccr2nz7n.s 			page 7


  70:AudioFileManager.cpp ****         count++;
 171              		.loc 1 70 9 is_stmt 1 view .LVU43
  59:AudioFileManager.cpp ****     if (!(fno.fattrib & (AM_HID|AM_DIR))){
 172              		.loc 1 59 3 view .LVU44
  59:AudioFileManager.cpp ****     if (!(fno.fattrib & (AM_HID|AM_DIR))){
 173              		.loc 1 59 41 view .LVU45
  59:AudioFileManager.cpp ****     if (!(fno.fattrib & (AM_HID|AM_DIR))){
 174              		.loc 1 59 19 is_stmt 0 view .LVU46
 175 0080 2CA9     		add	r1, sp, #176
 176 0082 6846     		mov	r0, sp
 177 0084 FFF7FEFF 		bl	f_readdir
 178              	.LVL11:
  59:AudioFileManager.cpp ****     if (!(fno.fattrib & (AM_HID|AM_DIR))){
 179              		.loc 1 59 41 view .LVU47
 180 0088 0028     		cmp	r0, #0
 181 008a D3D0     		beq	.L31
 182              	.L4:
  71:AudioFileManager.cpp ****       }
  72:AudioFileManager.cpp ****     } else {
  73:AudioFileManager.cpp ****       // handle directories/hidden files
  74:AudioFileManager.cpp ****       if (fno.fattrib & AM_DIR){
  75:AudioFileManager.cpp ****         pod_->seed.PrintLine("found dir: %s", fno.fname);
  76:AudioFileManager.cpp ****         continue;
  77:AudioFileManager.cpp ****       } else if (fno.fattrib & AM_HID){
  78:AudioFileManager.cpp ****         pod_->seed.PrintLine("found hidden file: %s", fno.fname);
  79:AudioFileManager.cpp ****         continue;
  80:AudioFileManager.cpp ****       }
  81:AudioFileManager.cpp ****     }
  82:AudioFileManager.cpp ****   }
  83:AudioFileManager.cpp ****   f_closedir(&dir);
 183              		.loc 1 83 3 is_stmt 1 view .LVU48
 184              		.loc 1 83 13 is_stmt 0 view .LVU49
 185 008c 6846     		mov	r0, sp
 186 008e 41F20C06 		movw	r6, #4108
 187 0092 FFF7FEFF 		bl	f_closedir
 188              	.LVL12:
  84:AudioFileManager.cpp **** 
  85:AudioFileManager.cpp ****   // NOTE: converted to 1 index rather than 0 index
  86:AudioFileManager.cpp ****   file_count_ = count+1;
 189              		.loc 1 86 3 is_stmt 1 view .LVU50
 190              		.loc 1 86 15 is_stmt 0 view .LVU51
 191 0096 07F58053 		add	r3, r7, #4096
 192              		.loc 1 86 22 view .LVU52
 193 009a 6A1C     		adds	r2, r5, #1
 194 009c 3E44     		add	r6, r6, r7
 195              		.loc 1 86 15 view .LVU53
 196 009e C3F83C22 		str	r2, [r3, #572]
  87:AudioFileManager.cpp ****   // set curr idx to first file in list
  88:AudioFileManager.cpp ****   curr_idx_ = 0;
 197              		.loc 1 88 3 is_stmt 1 view .LVU54
 198              		.loc 1 88 13 is_stmt 0 view .LVU55
 199 00a2 0022     		movs	r2, #0
 200 00a4 DA60     		str	r2, [r3, #12]
  89:AudioFileManager.cpp **** 
  90:AudioFileManager.cpp ****   for (int i=0; i<MAX_FILES; i++){
 201              		.loc 1 90 3 is_stmt 1 view .LVU56
 202              	.LVL13:
ARM GAS  /var/folders/2p/02m_5p7958535cp2tpgps0400000gn/T//ccr2nz7n.s 			page 8


 203              	.LBB46:
 204              		.loc 1 90 18 view .LVU57
 205 00a6 03E0     		b	.L7
 206              	.LVL14:
 207              	.L13:
 208              	.LBB47:
 209              	.LBB48:
 210              		.file 3 "../libDaisy/src/daisy_seed.h"
   1:../libDaisy/src/daisy_seed.h **** #pragma once
   2:../libDaisy/src/daisy_seed.h **** #ifndef DSY_SEED_H
   3:../libDaisy/src/daisy_seed.h **** #define DSY_SEED_H
   4:../libDaisy/src/daisy_seed.h **** 
   5:../libDaisy/src/daisy_seed.h **** #include "daisy.h"
   6:../libDaisy/src/daisy_seed.h **** 
   7:../libDaisy/src/daisy_seed.h **** //Uncomment this out if you're still using the rev2 hardware
   8:../libDaisy/src/daisy_seed.h **** //#define SEED_REV2
   9:../libDaisy/src/daisy_seed.h **** 
  10:../libDaisy/src/daisy_seed.h **** namespace daisy
  11:../libDaisy/src/daisy_seed.h **** {
  12:../libDaisy/src/daisy_seed.h **** /**
  13:../libDaisy/src/daisy_seed.h ****    @brief This is the higher-level interface for the Daisy board. \n 
  14:../libDaisy/src/daisy_seed.h ****     All basic peripheral configuration/initialization is setup here. \n
  15:../libDaisy/src/daisy_seed.h **** 
  16:../libDaisy/src/daisy_seed.h ****    @ingroup boards
  17:../libDaisy/src/daisy_seed.h **** */
  18:../libDaisy/src/daisy_seed.h **** class DaisySeed
  19:../libDaisy/src/daisy_seed.h **** {
  20:../libDaisy/src/daisy_seed.h ****   public:
  21:../libDaisy/src/daisy_seed.h ****     DaisySeed() {}
  22:../libDaisy/src/daisy_seed.h ****     ~DaisySeed() {}
  23:../libDaisy/src/daisy_seed.h **** 
  24:../libDaisy/src/daisy_seed.h ****     /** This function used to provide a pre-initialization configuraiton 
  25:../libDaisy/src/daisy_seed.h ****      *  it has since been deprecated, and does nothing.
  26:../libDaisy/src/daisy_seed.h ****      */
  27:../libDaisy/src/daisy_seed.h ****     void Configure();
  28:../libDaisy/src/daisy_seed.h **** 
  29:../libDaisy/src/daisy_seed.h ****     /** 
  30:../libDaisy/src/daisy_seed.h ****     Initializes the Daisy Seed and the following peripherals:
  31:../libDaisy/src/daisy_seed.h ****     SDRAM, QSPI, 24-bit 48kHz Audio via AK4556, Internal USB,
  32:../libDaisy/src/daisy_seed.h ****     as well as the built-in LED and Testpoint.
  33:../libDaisy/src/daisy_seed.h **** 
  34:../libDaisy/src/daisy_seed.h ****     ADCs, DACs, and other special peripherals (such as I2C, SPI, etc.)
  35:../libDaisy/src/daisy_seed.h ****     can be initialized using their specific initializers within libdaisy
  36:../libDaisy/src/daisy_seed.h ****     for a specific application.
  37:../libDaisy/src/daisy_seed.h ****     */
  38:../libDaisy/src/daisy_seed.h ****     void Init(bool boost = false);
  39:../libDaisy/src/daisy_seed.h **** 
  40:../libDaisy/src/daisy_seed.h ****     /** 
  41:../libDaisy/src/daisy_seed.h ****     Deinitializes all peripherals automatically handled by `Init`.
  42:../libDaisy/src/daisy_seed.h ****     */
  43:../libDaisy/src/daisy_seed.h ****     void DeInit();
  44:../libDaisy/src/daisy_seed.h **** 
  45:../libDaisy/src/daisy_seed.h ****     /** 
  46:../libDaisy/src/daisy_seed.h ****     Wait some ms before going on.
  47:../libDaisy/src/daisy_seed.h ****     \param del Delay time in ms.
  48:../libDaisy/src/daisy_seed.h ****     */
  49:../libDaisy/src/daisy_seed.h ****     void DelayMs(size_t del);
ARM GAS  /var/folders/2p/02m_5p7958535cp2tpgps0400000gn/T//ccr2nz7n.s 			page 9


  50:../libDaisy/src/daisy_seed.h **** 
  51:../libDaisy/src/daisy_seed.h ****     /** 
  52:../libDaisy/src/daisy_seed.h ****     Returns the gpio_pin corresponding to the index 0-31.
  53:../libDaisy/src/daisy_seed.h ****     For the given GPIO on the Daisy Seed (labeled 1-32 in docs).
  54:../libDaisy/src/daisy_seed.h ****     */
  55:../libDaisy/src/daisy_seed.h ****     static dsy_gpio_pin GetPin(uint8_t pin_idx);
  56:../libDaisy/src/daisy_seed.h **** 
  57:../libDaisy/src/daisy_seed.h ****     /** Begins the audio for the seeds builtin audio.
  58:../libDaisy/src/daisy_seed.h ****     the specified callback will get called whenever
  59:../libDaisy/src/daisy_seed.h ****     new data is ready to be prepared.
  60:../libDaisy/src/daisy_seed.h ****     */
  61:../libDaisy/src/daisy_seed.h ****     void StartAudio(AudioHandle::InterleavingAudioCallback cb);
  62:../libDaisy/src/daisy_seed.h **** 
  63:../libDaisy/src/daisy_seed.h ****     /** Begins the audio for the seeds builtin audio.
  64:../libDaisy/src/daisy_seed.h ****     the specified callback will get called whenever
  65:../libDaisy/src/daisy_seed.h ****     new data is ready to be prepared.
  66:../libDaisy/src/daisy_seed.h ****     This will use the newer non-interleaved callback.
  67:../libDaisy/src/daisy_seed.h ****     */
  68:../libDaisy/src/daisy_seed.h ****     void StartAudio(AudioHandle::AudioCallback cb);
  69:../libDaisy/src/daisy_seed.h **** 
  70:../libDaisy/src/daisy_seed.h ****     /** Changes to a new interleaved callback
  71:../libDaisy/src/daisy_seed.h ****      */
  72:../libDaisy/src/daisy_seed.h ****     void ChangeAudioCallback(AudioHandle::InterleavingAudioCallback cb);
  73:../libDaisy/src/daisy_seed.h **** 
  74:../libDaisy/src/daisy_seed.h ****     /** Changes to a new multichannel callback
  75:../libDaisy/src/daisy_seed.h ****      */
  76:../libDaisy/src/daisy_seed.h ****     void ChangeAudioCallback(AudioHandle::AudioCallback cb);
  77:../libDaisy/src/daisy_seed.h **** 
  78:../libDaisy/src/daisy_seed.h ****     /** Stops the audio if it is running. */
  79:../libDaisy/src/daisy_seed.h ****     void StopAudio();
  80:../libDaisy/src/daisy_seed.h **** 
  81:../libDaisy/src/daisy_seed.h ****     /** Updates the Audio Sample Rate, and reinitializes.
  82:../libDaisy/src/daisy_seed.h ****      ** Audio must be stopped for this to work.
  83:../libDaisy/src/daisy_seed.h ****      */
  84:../libDaisy/src/daisy_seed.h ****     void SetAudioSampleRate(SaiHandle::Config::SampleRate samplerate);
  85:../libDaisy/src/daisy_seed.h **** 
  86:../libDaisy/src/daisy_seed.h ****     /** Returns the audio sample rate in Hz as a floating point number.
  87:../libDaisy/src/daisy_seed.h ****      */
  88:../libDaisy/src/daisy_seed.h ****     float AudioSampleRate();
  89:../libDaisy/src/daisy_seed.h **** 
  90:../libDaisy/src/daisy_seed.h ****     /** Sets the number of samples processed per channel by the audio callback.
  91:../libDaisy/src/daisy_seed.h ****      */
  92:../libDaisy/src/daisy_seed.h ****     void SetAudioBlockSize(size_t blocksize);
  93:../libDaisy/src/daisy_seed.h **** 
  94:../libDaisy/src/daisy_seed.h ****     /** Returns the number of samples per channel in a block of audio. */
  95:../libDaisy/src/daisy_seed.h ****     size_t AudioBlockSize();
  96:../libDaisy/src/daisy_seed.h **** 
  97:../libDaisy/src/daisy_seed.h ****     /** Returns the rate in Hz that the Audio callback is called */
  98:../libDaisy/src/daisy_seed.h ****     float AudioCallbackRate() const;
  99:../libDaisy/src/daisy_seed.h **** 
 100:../libDaisy/src/daisy_seed.h ****     /** Returns the SAI Handle for the Daisy Seed 
 101:../libDaisy/src/daisy_seed.h ****      *  This can be useful when adding a secondary codec,
 102:../libDaisy/src/daisy_seed.h ****      *  the result of this function can be passed to the audio reinit 
 103:../libDaisy/src/daisy_seed.h ****      *  with an SAI2 configuration
 104:../libDaisy/src/daisy_seed.h ****      */
 105:../libDaisy/src/daisy_seed.h ****     const SaiHandle& AudioSaiHandle() const;
 106:../libDaisy/src/daisy_seed.h **** 
ARM GAS  /var/folders/2p/02m_5p7958535cp2tpgps0400000gn/T//ccr2nz7n.s 			page 10


 107:../libDaisy/src/daisy_seed.h ****     /** Sets the state of the built in LED
 108:../libDaisy/src/daisy_seed.h ****      */
 109:../libDaisy/src/daisy_seed.h ****     void SetLed(bool state);
 110:../libDaisy/src/daisy_seed.h **** 
 111:../libDaisy/src/daisy_seed.h ****     /** Sets the state of the test point near pin 10
 112:../libDaisy/src/daisy_seed.h ****      */
 113:../libDaisy/src/daisy_seed.h ****     void SetTestPoint(bool state);
 114:../libDaisy/src/daisy_seed.h **** 
 115:../libDaisy/src/daisy_seed.h ****     /** Print formatted debug log message
 116:../libDaisy/src/daisy_seed.h ****      */
 117:../libDaisy/src/daisy_seed.h ****     template <typename... VA>
 118:../libDaisy/src/daisy_seed.h ****     static void Print(const char* format, VA... va)
 119:../libDaisy/src/daisy_seed.h ****     {
 120:../libDaisy/src/daisy_seed.h ****         Log::Print(format, va...);
 121:../libDaisy/src/daisy_seed.h ****     }
 122:../libDaisy/src/daisy_seed.h **** 
 123:../libDaisy/src/daisy_seed.h ****     /** Print formatted debug log message with automatic line termination
 124:../libDaisy/src/daisy_seed.h ****     */
 125:../libDaisy/src/daisy_seed.h ****     template <typename... VA>
 126:../libDaisy/src/daisy_seed.h ****     static void PrintLine(const char* format, VA... va)
 127:../libDaisy/src/daisy_seed.h ****     {
 128:../libDaisy/src/daisy_seed.h ****         Log::PrintLine(format, va...);
 211              		.loc 3 128 23 is_stmt 0 discriminator 2 view .LVU58
 212 00a8 FFF7FEFF 		bl	_ZN5daisy6LoggerILNS_17LoggerDestinationE1EE9PrintLineEPKcz
 213              	.LVL15:
 214              		.loc 3 128 23 discriminator 2 view .LVU59
 215              	.LBE48:
 216              	.LBE47:
 217              		.loc 1 90 3 is_stmt 1 discriminator 2 view .LVU60
 218              		.loc 1 90 18 discriminator 2 view .LVU61
 219 00ac B442     		cmp	r4, r6
 220 00ae 05D0     		beq	.L14
 221              	.L7:
  91:AudioFileManager.cpp ****     /* stop if filename empty ie no more files */
  92:AudioFileManager.cpp ****     /* NOTE: this could poss break sth so double check it works */
  93:AudioFileManager.cpp ****     if (names_[i][0]=='\0'){
 222              		.loc 1 93 5 view .LVU62
  94:AudioFileManager.cpp ****       break;
  95:AudioFileManager.cpp ****     }
  96:AudioFileManager.cpp ****     pod_->seed.PrintLine(names_[i]);
 223              		.loc 1 96 5 view .LVU63
 224              	.LVL16:
 225              	.LBB50:
 226              	.LBI47:
 126:../libDaisy/src/daisy_seed.h ****     {
 227              		.loc 3 126 17 view .LVU64
 228              	.LBB49:
 229              		.loc 3 128 23 is_stmt 0 view .LVU65
 230 00b0 2046     		mov	r0, r4
 231              	.LBE49:
 232              	.LBE50:
  90:AudioFileManager.cpp ****     /* stop if filename empty ie no more files */
 233              		.loc 1 90 18 view .LVU66
 234 00b2 8034     		adds	r4, r4, #128
 235              	.LVL17:
  93:AudioFileManager.cpp ****       break;
 236              		.loc 1 93 5 view .LVU67
ARM GAS  /var/folders/2p/02m_5p7958535cp2tpgps0400000gn/T//ccr2nz7n.s 			page 11


 237 00b4 14F8803C 		ldrb	r3, [r4, #-128]	@ zero_extendqisi2
 238 00b8 002B     		cmp	r3, #0
 239 00ba F5D1     		bne	.L13
 240              	.LVL18:
 241              	.L14:
  93:AudioFileManager.cpp ****       break;
 242              		.loc 1 93 5 view .LVU68
 243              	.LBE46:
  97:AudioFileManager.cpp ****   }
  98:AudioFileManager.cpp **** 
  99:AudioFileManager.cpp ****   pod_->seed.PrintLine("final count %d files", count);
 244              		.loc 1 99 3 is_stmt 1 view .LVU69
 245              	.LBB51:
 246              	.LBI51:
 126:../libDaisy/src/daisy_seed.h ****     {
 247              		.loc 3 126 17 view .LVU70
 248              	.LBB52:
 249              		.loc 3 128 23 is_stmt 0 view .LVU71
 250 00bc 2946     		mov	r1, r5
 251 00be 1248     		ldr	r0, .L33+4
 252 00c0 FFF7FEFF 		bl	_ZN5daisy6LoggerILNS_17LoggerDestinationE1EE9PrintLineEPKcz
 253              	.LVL19:
 254              		.loc 3 128 23 view .LVU72
 255              	.LBE52:
 256              	.LBE51:
 100:AudioFileManager.cpp ****   return true;
 257              		.loc 1 100 3 is_stmt 1 view .LVU73
 258              		.loc 1 100 10 is_stmt 0 view .LVU74
 259 00c4 0120     		movs	r0, #1
 101:AudioFileManager.cpp **** }
 260              		.loc 1 101 1 view .LVU75
 261 00c6 72B0     		add	sp, sp, #456
 262              		.cfi_remember_state
 263              		.cfi_def_cfa_offset 24
 264              		@ sp needed
 265 00c8 BDE8F081 		pop	{r4, r5, r6, r7, r8, pc}
 266              	.LVL20:
 267              	.L29:
 268              		.cfi_restore_state
  74:AudioFileManager.cpp ****         pod_->seed.PrintLine("found dir: %s", fno.fname);
 269              		.loc 1 74 7 is_stmt 1 view .LVU76
 270 00cc DA06     		lsls	r2, r3, #27
 271 00ce 0ED4     		bmi	.L32
  77:AudioFileManager.cpp ****         pod_->seed.PrintLine("found hidden file: %s", fno.fname);
 272              		.loc 1 77 14 view .LVU77
 273 00d0 9B07     		lsls	r3, r3, #30
 274 00d2 AAD5     		bpl	.L3
  78:AudioFileManager.cpp ****         continue;
 275              		.loc 1 78 9 view .LVU78
 276              	.LVL21:
 277              	.LBB53:
 278              	.LBI53:
 126:../libDaisy/src/daisy_seed.h ****     {
 279              		.loc 3 126 17 view .LVU79
 280              	.LBB54:
 281              		.loc 3 128 23 is_stmt 0 view .LVU80
 282 00d4 0DF1C601 		add	r1, sp, #198
ARM GAS  /var/folders/2p/02m_5p7958535cp2tpgps0400000gn/T//ccr2nz7n.s 			page 12


 283              	.LVL22:
 284              		.loc 3 128 23 view .LVU81
 285 00d8 0C48     		ldr	r0, .L33+8
 286 00da FFF7FEFF 		bl	_ZN5daisy6LoggerILNS_17LoggerDestinationE1EE9PrintLineEPKcz
 287              	.LVL23:
 288              		.loc 3 128 23 view .LVU82
 289              	.LBE54:
 290              	.LBE53:
  79:AudioFileManager.cpp ****       }
 291              		.loc 1 79 9 is_stmt 1 view .LVU83
 292 00de A4E7     		b	.L3
 293              	.L30:
  67:AudioFileManager.cpp ****         strcpy(names_[count],name);
 294              		.loc 1 67 41 is_stmt 0 discriminator 1 view .LVU84
 295 00e0 0B49     		ldr	r1, .L33+12
 296 00e2 4046     		mov	r0, r8
 297 00e4 FFF7FEFF 		bl	strstr
 298              	.LVL24:
  67:AudioFileManager.cpp ****         strcpy(names_[count],name);
 299              		.loc 1 67 32 discriminator 1 view .LVU85
 300 00e8 0028     		cmp	r0, #0
 301 00ea BFD1     		bne	.L11
 302 00ec 9DE7     		b	.L3
 303              	.L32:
  75:AudioFileManager.cpp ****         continue;
 304              		.loc 1 75 9 is_stmt 1 view .LVU86
 305              	.LVL25:
 306              	.LBB55:
 307              	.LBI55:
 126:../libDaisy/src/daisy_seed.h ****     {
 308              		.loc 3 126 17 view .LVU87
 309              	.LBB56:
 310              		.loc 3 128 23 is_stmt 0 view .LVU88
 311 00ee 0DF1C601 		add	r1, sp, #198
 312              	.LVL26:
 313              		.loc 3 128 23 view .LVU89
 314 00f2 0848     		ldr	r0, .L33+16
 315 00f4 FFF7FEFF 		bl	_ZN5daisy6LoggerILNS_17LoggerDestinationE1EE9PrintLineEPKcz
 316              	.LVL27:
 317              		.loc 3 128 23 view .LVU90
 318              	.LBE56:
 319              	.LBE55:
  76:AudioFileManager.cpp ****       } else if (fno.fattrib & AM_HID){
 320              		.loc 1 76 9 is_stmt 1 view .LVU91
 321 00f8 97E7     		b	.L3
 322              	.LVL28:
 323              	.L15:
  55:AudioFileManager.cpp ****   }
 324              		.loc 1 55 12 is_stmt 0 view .LVU92
 325 00fa 0020     		movs	r0, #0
 326              		.loc 1 101 1 view .LVU93
 327 00fc 72B0     		add	sp, sp, #456
 328              		.cfi_def_cfa_offset 24
 329              		@ sp needed
 330 00fe BDE8F081 		pop	{r4, r5, r6, r7, r8, pc}
 331              	.LVL29:
 332              	.L34:
ARM GAS  /var/folders/2p/02m_5p7958535cp2tpgps0400000gn/T//ccr2nz7n.s 			page 13


 333              		.loc 1 101 1 view .LVU94
 334 0102 00BF     		.align	2
 335              	.L33:
 336 0104 04000000 		.word	.LC1
 337 0108 3C000000 		.word	.LC5
 338 010c 24000000 		.word	.LC4
 339 0110 0C000000 		.word	.LC2
 340 0114 14000000 		.word	.LC3
 341              		.cfi_endproc
 342              	.LFE2572:
 344              		.section	.rodata._ZN16AudioFileManager8LoadFileEi.str1.4,"aMS",%progbits,1
 345              		.align	2
 346              	.LC6:
 347 0000 6C6F6164 		.ascii	"loading file: \000"
 347      696E6720 
 347      66696C65 
 347      3A2000
 348 000f 00       		.align	2
 349              	.LC7:
 350 0010 636C6F73 		.ascii	"closing file in function\000"
 350      696E6720 
 350      66696C65 
 350      20696E20 
 350      66756E63 
 351 0029 000000   		.align	2
 352              	.LC8:
 353 002c 73656C63 		.ascii	"selc: %d  curr: %d\000"
 353      3A202564 
 353      20206375 
 353      72723A20 
 353      256400
 354 003f 00       		.align	2
 355              	.LC9:
 356 0040 6F6B2063 		.ascii	"ok closed file in function\000"
 356      6C6F7365 
 356      64206669 
 356      6C652069 
 356      6E206675 
 357              		.section	.text._ZN16AudioFileManager8LoadFileEi,"ax",%progbits
 358              		.align	1
 359              		.p2align 2,,3
 360              		.global	_ZN16AudioFileManager8LoadFileEi
 361              		.syntax unified
 362              		.thumb
 363              		.thumb_func
 365              	_ZN16AudioFileManager8LoadFileEi:
 366              	.LVL30:
 367              	.LFB2573:
 102:AudioFileManager.cpp **** 
 103:AudioFileManager.cpp **** 
 104:AudioFileManager.cpp **** /* TODO: atm i'm loading by index as this is easier than using the names.
 105:AudioFileManager.cpp ****         however i'm still saving names for (if/)when i get a screen ?
 106:AudioFileManager.cpp **** */
 107:AudioFileManager.cpp **** bool AudioFileManager::LoadFile(int sel_idx) {
 368              		.loc 1 107 46 is_stmt 1 view -0
 369              		.cfi_startproc
 370              		@ args = 0, pretend = 0, frame = 0
ARM GAS  /var/folders/2p/02m_5p7958535cp2tpgps0400000gn/T//ccr2nz7n.s 			page 14


 371              		@ frame_needed = 0, uses_anonymous_args = 0
 108:AudioFileManager.cpp ****   if (sel_idx >= file_count_) return false;
 372              		.loc 1 108 3 view .LVU96
 107:AudioFileManager.cpp ****   if (sel_idx >= file_count_) return false;
 373              		.loc 1 107 46 is_stmt 0 view .LVU97
 374 0000 F8B5     		push	{r3, r4, r5, r6, r7, lr}
 375              		.cfi_def_cfa_offset 24
 376              		.cfi_offset 3, -24
 377              		.cfi_offset 4, -20
 378              		.cfi_offset 5, -16
 379              		.cfi_offset 6, -12
 380              		.cfi_offset 7, -8
 381              		.cfi_offset 14, -4
 382              		.loc 1 108 18 view .LVU98
 383 0002 00F58056 		add	r6, r0, #4096
 384              		.loc 1 108 3 view .LVU99
 385 0006 D6F83C32 		ldr	r3, [r6, #572]
 386 000a 8B42     		cmp	r3, r1
 387 000c 01DC     		bgt	.L41
 388              		.loc 1 108 38 view .LVU100
 389 000e 0020     		movs	r0, #0
 390              	.LVL31:
 109:AudioFileManager.cpp **** 
 110:AudioFileManager.cpp ****   pod_->seed.Print("loading file: ");
 111:AudioFileManager.cpp ****   pod_->seed.PrintLine(names_[sel_idx]);
 112:AudioFileManager.cpp **** 
 113:AudioFileManager.cpp ****   if (sel_idx != curr_idx_) {
 114:AudioFileManager.cpp ****     pod_->seed.PrintLine("closing file in function");
 115:AudioFileManager.cpp ****     pod_->seed.PrintLine("selc: %d  curr: %d",sel_idx, curr_idx_);
 116:AudioFileManager.cpp ****     f_close(&curr_file_);
 117:AudioFileManager.cpp ****   }
 118:AudioFileManager.cpp **** 
 119:AudioFileManager.cpp ****   pod_->seed.PrintLine("ok closed file in function");
 120:AudioFileManager.cpp **** 
 121:AudioFileManager.cpp ****   // NOTE: double check this
 122:AudioFileManager.cpp ****   return f_open(&curr_file_, names_[sel_idx], (FA_OPEN_EXISTING | FA_READ)) == FR_OK;
 123:AudioFileManager.cpp **** }
 391              		.loc 1 123 1 view .LVU101
 392 0010 F8BD     		pop	{r3, r4, r5, r6, r7, pc}
 393              	.LVL32:
 394              	.L41:
 110:AudioFileManager.cpp ****   pod_->seed.PrintLine(names_[sel_idx]);
 395              		.loc 1 110 3 is_stmt 1 view .LVU102
 396              	.LBB57:
 397              	.LBI57:
 118:../libDaisy/src/daisy_seed.h ****     {
 398              		.loc 3 118 17 view .LVU103
 399 0012 0C46     		mov	r4, r1
 400 0014 0546     		mov	r5, r0
 401              	.LBB58:
 120:../libDaisy/src/daisy_seed.h ****     }
 402              		.loc 3 120 19 is_stmt 0 view .LVU104
 403 0016 1548     		ldr	r0, .L42
 404              	.LVL33:
 120:../libDaisy/src/daisy_seed.h ****     }
 405              		.loc 3 120 19 view .LVU105
 406              	.LBE58:
ARM GAS  /var/folders/2p/02m_5p7958535cp2tpgps0400000gn/T//ccr2nz7n.s 			page 15


 407              	.LBE57:
 111:AudioFileManager.cpp **** 
 408              		.loc 1 111 38 view .LVU106
 409 0018 05EBC417 		add	r7, r5, r4, lsl #7
 410              	.LBB60:
 411              	.LBB59:
 120:../libDaisy/src/daisy_seed.h ****     }
 412              		.loc 3 120 19 view .LVU107
 413 001c FFF7FEFF 		bl	_ZN5daisy6LoggerILNS_17LoggerDestinationE1EE5PrintEPKcz
 414              	.LVL34:
 120:../libDaisy/src/daisy_seed.h ****     }
 415              		.loc 3 120 19 view .LVU108
 416              	.LBE59:
 417              	.LBE60:
 111:AudioFileManager.cpp **** 
 418              		.loc 1 111 3 is_stmt 1 view .LVU109
 111:AudioFileManager.cpp **** 
 419              		.loc 1 111 38 is_stmt 0 view .LVU110
 420 0020 0C37     		adds	r7, r7, #12
 421              	.LVL35:
 422              	.LBB61:
 423              	.LBI61:
 126:../libDaisy/src/daisy_seed.h ****     {
 424              		.loc 3 126 17 is_stmt 1 view .LVU111
 425              	.LBB62:
 426              		.loc 3 128 23 is_stmt 0 view .LVU112
 427 0022 3846     		mov	r0, r7
 428 0024 FFF7FEFF 		bl	_ZN5daisy6LoggerILNS_17LoggerDestinationE1EE9PrintLineEPKcz
 429              	.LVL36:
 430              		.loc 3 128 23 view .LVU113
 431              	.LBE62:
 432              	.LBE61:
 113:AudioFileManager.cpp ****     pod_->seed.PrintLine("closing file in function");
 433              		.loc 1 113 3 is_stmt 1 view .LVU114
 434 0028 F368     		ldr	r3, [r6, #12]
 435 002a A342     		cmp	r3, r4
 436 002c 0ED1     		bne	.L37
 116:AudioFileManager.cpp ****   }
 437              		.loc 1 116 12 is_stmt 0 view .LVU115
 438 002e 41F21004 		movw	r4, #4112
 439              	.LVL37:
 116:AudioFileManager.cpp ****   }
 440              		.loc 1 116 12 view .LVU116
 441 0032 2C44     		add	r4, r4, r5
 442              	.L38:
 119:AudioFileManager.cpp **** 
 443              		.loc 1 119 3 is_stmt 1 view .LVU117
 444              	.LVL38:
 445              	.LBB63:
 446              	.LBI63:
 126:../libDaisy/src/daisy_seed.h ****     {
 447              		.loc 3 126 17 view .LVU118
 448              	.LBB64:
 449              		.loc 3 128 23 is_stmt 0 view .LVU119
 450 0034 0E48     		ldr	r0, .L42+4
 451 0036 FFF7FEFF 		bl	_ZN5daisy6LoggerILNS_17LoggerDestinationE1EE9PrintLineEPKcz
 452              	.LVL39:
ARM GAS  /var/folders/2p/02m_5p7958535cp2tpgps0400000gn/T//ccr2nz7n.s 			page 16


 453              		.loc 3 128 23 view .LVU120
 454              	.LBE64:
 455              	.LBE63:
 122:AudioFileManager.cpp **** }
 456              		.loc 1 122 3 is_stmt 1 view .LVU121
 122:AudioFileManager.cpp **** }
 457              		.loc 1 122 16 is_stmt 0 view .LVU122
 458 003a 0122     		movs	r2, #1
 459 003c 3946     		mov	r1, r7
 460 003e 2046     		mov	r0, r4
 461 0040 FFF7FEFF 		bl	f_open
 462              	.LVL40:
 122:AudioFileManager.cpp **** }
 463              		.loc 1 122 80 view .LVU123
 464 0044 B0FA80F0 		clz	r0, r0
 465 0048 4009     		lsrs	r0, r0, #5
 466              		.loc 1 123 1 view .LVU124
 467 004a F8BD     		pop	{r3, r4, r5, r6, r7, pc}
 468              	.LVL41:
 469              	.L37:
 114:AudioFileManager.cpp ****     pod_->seed.PrintLine("selc: %d  curr: %d",sel_idx, curr_idx_);
 470              		.loc 1 114 5 is_stmt 1 view .LVU125
 471              	.LBB65:
 472              	.LBI65:
 126:../libDaisy/src/daisy_seed.h ****     {
 473              		.loc 3 126 17 view .LVU126
 474              	.LBB66:
 475              		.loc 3 128 23 is_stmt 0 view .LVU127
 476 004c 0948     		ldr	r0, .L42+8
 477 004e FFF7FEFF 		bl	_ZN5daisy6LoggerILNS_17LoggerDestinationE1EE9PrintLineEPKcz
 478              	.LVL42:
 479              		.loc 3 128 23 view .LVU128
 480              	.LBE66:
 481              	.LBE65:
 115:AudioFileManager.cpp ****     f_close(&curr_file_);
 482              		.loc 1 115 5 is_stmt 1 view .LVU129
 483              	.LBB67:
 484              	.LBI67:
 126:../libDaisy/src/daisy_seed.h ****     {
 485              		.loc 3 126 17 view .LVU130
 486              	.LBB68:
 487              		.loc 3 128 23 is_stmt 0 view .LVU131
 488 0052 2146     		mov	r1, r4
 489              	.LBE68:
 490              	.LBE67:
 116:AudioFileManager.cpp ****   }
 491              		.loc 1 116 12 view .LVU132
 492 0054 41F21004 		movw	r4, #4112
 493              	.LVL43:
 494              	.LBB71:
 495              	.LBB69:
 496              		.loc 3 128 23 view .LVU133
 497 0058 0748     		ldr	r0, .L42+12
 498 005a F268     		ldr	r2, [r6, #12]
 499              	.LBE69:
 500              	.LBE71:
 116:AudioFileManager.cpp ****   }
ARM GAS  /var/folders/2p/02m_5p7958535cp2tpgps0400000gn/T//ccr2nz7n.s 			page 17


 501              		.loc 1 116 12 view .LVU134
 502 005c 2C44     		add	r4, r4, r5
 503              	.LBB72:
 504              	.LBB70:
 505              		.loc 3 128 23 view .LVU135
 506 005e FFF7FEFF 		bl	_ZN5daisy6LoggerILNS_17LoggerDestinationE1EE9PrintLineEPKcz
 507              	.LVL44:
 508              		.loc 3 128 23 view .LVU136
 509              	.LBE70:
 510              	.LBE72:
 116:AudioFileManager.cpp ****   }
 511              		.loc 1 116 5 is_stmt 1 view .LVU137
 116:AudioFileManager.cpp ****   }
 512              		.loc 1 116 12 is_stmt 0 view .LVU138
 513 0062 2046     		mov	r0, r4
 514 0064 FFF7FEFF 		bl	f_close
 515              	.LVL45:
 516 0068 E4E7     		b	.L38
 517              	.L43:
 518 006a 00BF     		.align	2
 519              	.L42:
 520 006c 00000000 		.word	.LC6
 521 0070 40000000 		.word	.LC9
 522 0074 10000000 		.word	.LC7
 523 0078 2C000000 		.word	.LC8
 524              		.cfi_endproc
 525              	.LFE2573:
 527              		.section	.rodata._ZN16AudioFileManager9CloseFileEv.str1.4,"aMS",%progbits,1
 528              		.align	2
 529              	.LC10:
 530 0000 636C6F73 		.ascii	"closing file: \000"
 530      696E6720 
 530      66696C65 
 530      3A2000
 531 000f 00       		.align	2
 532              	.LC11:
 533 0010 20696478 		.ascii	" idx: %d \000"
 533      3A202564 
 533      2000
 534              		.section	.text._ZN16AudioFileManager9CloseFileEv,"ax",%progbits
 535              		.align	1
 536              		.p2align 2,,3
 537              		.global	_ZN16AudioFileManager9CloseFileEv
 538              		.syntax unified
 539              		.thumb
 540              		.thumb_func
 542              	_ZN16AudioFileManager9CloseFileEv:
 543              	.LVL46:
 544              	.LFB2574:
 124:AudioFileManager.cpp **** 
 125:AudioFileManager.cpp **** bool AudioFileManager::CloseFile(){
 545              		.loc 1 125 35 is_stmt 1 view -0
 546              		.cfi_startproc
 547              		@ args = 0, pretend = 0, frame = 0
 548              		@ frame_needed = 0, uses_anonymous_args = 0
 126:AudioFileManager.cpp ****   pod_->seed.Print("closing file: ");
 549              		.loc 1 126 3 view .LVU140
ARM GAS  /var/folders/2p/02m_5p7958535cp2tpgps0400000gn/T//ccr2nz7n.s 			page 18


 550              	.LBB73:
 551              	.LBI73:
 118:../libDaisy/src/daisy_seed.h ****     {
 552              		.loc 3 118 17 view .LVU141
 553              	.LBE73:
 125:AudioFileManager.cpp ****   pod_->seed.Print("closing file: ");
 554              		.loc 1 125 35 is_stmt 0 view .LVU142
 555 0000 38B5     		push	{r3, r4, r5, lr}
 556              		.cfi_def_cfa_offset 16
 557              		.cfi_offset 3, -16
 558              		.cfi_offset 4, -12
 559              		.cfi_offset 5, -8
 560              		.cfi_offset 14, -4
 125:AudioFileManager.cpp ****   pod_->seed.Print("closing file: ");
 561              		.loc 1 125 35 view .LVU143
 562 0002 0446     		mov	r4, r0
 563              	.LBB75:
 564              	.LBB74:
 120:../libDaisy/src/daisy_seed.h ****     }
 565              		.loc 3 120 19 view .LVU144
 566 0004 0C48     		ldr	r0, .L46
 567              	.LVL47:
 120:../libDaisy/src/daisy_seed.h ****     }
 568              		.loc 3 120 19 view .LVU145
 569 0006 FFF7FEFF 		bl	_ZN5daisy6LoggerILNS_17LoggerDestinationE1EE5PrintEPKcz
 570              	.LVL48:
 120:../libDaisy/src/daisy_seed.h ****     }
 571              		.loc 3 120 19 view .LVU146
 572              	.LBE74:
 573              	.LBE75:
 127:AudioFileManager.cpp ****   // curr_idx == index of current file
 128:AudioFileManager.cpp ****   pod_->seed.Print(names_[curr_idx_]);
 574              		.loc 1 128 3 is_stmt 1 view .LVU147
 575              	.LBB76:
 576              	.LBI76:
 118:../libDaisy/src/daisy_seed.h ****     {
 577              		.loc 3 118 17 view .LVU148
 578              	.LBE76:
 579              		.loc 1 128 27 is_stmt 0 view .LVU149
 580 000a 04F58055 		add	r5, r4, #4096
 581              		.loc 1 128 36 view .LVU150
 582 000e E868     		ldr	r0, [r5, #12]
 583 0010 04EBC010 		add	r0, r4, r0, lsl #7
 584              	.LBB78:
 585              	.LBB77:
 120:../libDaisy/src/daisy_seed.h ****     }
 586              		.loc 3 120 19 view .LVU151
 587 0014 0C30     		adds	r0, r0, #12
 588 0016 FFF7FEFF 		bl	_ZN5daisy6LoggerILNS_17LoggerDestinationE1EE5PrintEPKcz
 589              	.LVL49:
 120:../libDaisy/src/daisy_seed.h ****     }
 590              		.loc 3 120 19 view .LVU152
 591              	.LBE77:
 592              	.LBE78:
 129:AudioFileManager.cpp ****   pod_->seed.PrintLine(" idx: %d "+ curr_idx_);
 593              		.loc 1 129 3 is_stmt 1 view .LVU153
 594              	.LBB79:
ARM GAS  /var/folders/2p/02m_5p7958535cp2tpgps0400000gn/T//ccr2nz7n.s 			page 19


 595              	.LBI79:
 126:../libDaisy/src/daisy_seed.h ****     {
 596              		.loc 3 126 17 view .LVU154
 597              	.LBE79:
 598              		.loc 1 129 23 is_stmt 0 view .LVU155
 599 001a EB68     		ldr	r3, [r5, #12]
 600 001c 0748     		ldr	r0, .L46+4
 601              	.LBB81:
 602              	.LBB80:
 603              		.loc 3 128 23 view .LVU156
 604 001e 1844     		add	r0, r0, r3
 605 0020 FFF7FEFF 		bl	_ZN5daisy6LoggerILNS_17LoggerDestinationE1EE9PrintLineEPKcz
 606              	.LVL50:
 607              		.loc 3 128 23 view .LVU157
 608              	.LBE80:
 609              	.LBE81:
 130:AudioFileManager.cpp ****   return f_close(&curr_file_) == FR_OK;
 610              		.loc 1 130 3 is_stmt 1 view .LVU158
 611              		.loc 1 130 17 is_stmt 0 view .LVU159
 612 0024 41F21000 		movw	r0, #4112
 613 0028 2044     		add	r0, r0, r4
 614 002a FFF7FEFF 		bl	f_close
 615              	.LVL51:
 131:AudioFileManager.cpp **** }
 616              		.loc 1 131 1 view .LVU160
 617 002e B0FA80F0 		clz	r0, r0
 618 0032 4009     		lsrs	r0, r0, #5
 619 0034 38BD     		pop	{r3, r4, r5, pc}
 620              	.LVL52:
 621              	.L47:
 622              		.loc 1 131 1 view .LVU161
 623 0036 00BF     		.align	2
 624              	.L46:
 625 0038 00000000 		.word	.LC10
 626 003c 10000000 		.word	.LC11
 627              		.cfi_endproc
 628              	.LFE2574:
 630              		.section	.rodata._ZN16AudioFileManager14BlinkOnSDErrorEc.str1.4,"aMS",%progbits,1
 631              		.align	2
 632              	.LC12:
 633 0000 44616973 		.ascii	"Daisy SD init error\000"
 633      79205344 
 633      20696E69 
 633      74206572 
 633      726F7200 
 634              		.align	2
 635              	.LC13:
 636 0014 46617446 		.ascii	"FatFS SD error\000"
 636      53205344 
 636      20657272 
 636      6F7200
 637              		.section	.text._ZN16AudioFileManager14BlinkOnSDErrorEc,"ax",%progbits
 638              		.align	1
 639              		.p2align 2,,3
 640              		.global	_ZN16AudioFileManager14BlinkOnSDErrorEc
 641              		.syntax unified
 642              		.thumb
ARM GAS  /var/folders/2p/02m_5p7958535cp2tpgps0400000gn/T//ccr2nz7n.s 			page 20


 643              		.thumb_func
 645              	_ZN16AudioFileManager14BlinkOnSDErrorEc:
 646              	.LVL53:
 647              	.LFB2575:
 132:AudioFileManager.cpp **** 
 133:AudioFileManager.cpp **** // getters for wav file info
 134:AudioFileManager.cpp **** 
 135:AudioFileManager.cpp **** // getter for pointer to audio buffer that file is loaded into
 136:AudioFileManager.cpp **** // getter for buffer size?
 137:AudioFileManager.cpp **** 
 138:AudioFileManager.cpp **** // SD card init error! 
 139:AudioFileManager.cpp **** void AudioFileManager::BlinkOnSDError (char type){
 648              		.loc 1 139 50 is_stmt 1 view -0
 649              		.cfi_startproc
 650              		@ args = 0, pretend = 0, frame = 0
 651              		@ frame_needed = 0, uses_anonymous_args = 0
 140:AudioFileManager.cpp ****   switch(type) {
 652              		.loc 1 140 3 view .LVU163
 653 0000 6429     		cmp	r1, #100
 139:AudioFileManager.cpp ****   switch(type) {
 654              		.loc 1 139 50 is_stmt 0 view .LVU164
 655 0002 38B5     		push	{r3, r4, r5, lr}
 656              		.cfi_def_cfa_offset 16
 657              		.cfi_offset 3, -16
 658              		.cfi_offset 4, -12
 659              		.cfi_offset 5, -8
 660              		.cfi_offset 14, -4
 139:AudioFileManager.cpp ****   switch(type) {
 661              		.loc 1 139 50 view .LVU165
 662 0004 0446     		mov	r4, r0
 663              		.loc 1 140 3 view .LVU166
 664 0006 27D0     		beq	.L49
 665 0008 6629     		cmp	r1, #102
 666 000a 02D1     		bne	.L51
 141:AudioFileManager.cpp ****     case 'd': 
 142:AudioFileManager.cpp ****       pod_->seed.PrintLine("Daisy SD init error");
 143:AudioFileManager.cpp ****       break;
 144:AudioFileManager.cpp ****     case 'f':
 667              		.loc 1 144 5 is_stmt 1 view .LVU167
 145:AudioFileManager.cpp ****       pod_->seed.PrintLine("FatFS SD error");
 668              		.loc 1 145 7 view .LVU168
 669              	.LVL54:
 670              	.LBB82:
 671              	.LBI82:
 126:../libDaisy/src/daisy_seed.h ****     {
 672              		.loc 3 126 17 view .LVU169
 673              	.LBB83:
 674              		.loc 3 128 23 is_stmt 0 view .LVU170
 675 000c 1448     		ldr	r0, .L55
 676              	.LVL55:
 677              		.loc 3 128 23 view .LVU171
 678 000e FFF7FEFF 		bl	_ZN5daisy6LoggerILNS_17LoggerDestinationE1EE9PrintLineEPKcz
 679              	.LVL56:
 680              	.L51:
 681              		.loc 3 128 23 view .LVU172
 682              	.LBE83:
 683              	.LBE82:
ARM GAS  /var/folders/2p/02m_5p7958535cp2tpgps0400000gn/T//ccr2nz7n.s 			page 21


 139:AudioFileManager.cpp ****   switch(type) {
 684              		.loc 1 139 50 discriminator 2 view .LVU173
 685 0012 1425     		movs	r5, #20
 686              	.L52:
 687              	.LVL57:
 688              	.LBB84:
 146:AudioFileManager.cpp ****       break;
 147:AudioFileManager.cpp ****   }
 148:AudioFileManager.cpp ****   for (int x=0;x<20;x++){
 149:AudioFileManager.cpp ****       System::Delay(500);
 689              		.loc 1 149 7 is_stmt 1 discriminator 2 view .LVU174
 690              		.loc 1 149 20 is_stmt 0 discriminator 2 view .LVU175
 691 0014 4FF4FA70 		mov	r0, #500
 692 0018 FFF7FEFF 		bl	_ZN5daisy6System5DelayEm
 693              	.LVL58:
 150:AudioFileManager.cpp ****       pod_->led1.Set(255,0,0);
 694              		.loc 1 150 7 is_stmt 1 discriminator 2 view .LVU176
 695              		.loc 1 150 21 is_stmt 0 discriminator 2 view .LVU177
 696 001c 9FED111A 		vldr.32	s2, .L55+4
 697 0020 A068     		ldr	r0, [r4, #8]
 698 0022 F0EE410A 		vmov.f32	s1, s2
 699 0026 9FED100A 		vldr.32	s0, .L55+8
 700 002a D830     		adds	r0, r0, #216
 701 002c FFF7FEFF 		bl	_ZN5daisy6RgbLed3SetEfff
 702              	.LVL59:
 151:AudioFileManager.cpp ****       pod_->UpdateLeds();
 703              		.loc 1 151 7 is_stmt 1 discriminator 2 view .LVU178
 704              		.loc 1 151 23 is_stmt 0 discriminator 2 view .LVU179
 705 0030 A068     		ldr	r0, [r4, #8]
 706 0032 FFF7FEFF 		bl	_ZN5daisy8DaisyPod10UpdateLedsEv
 707              	.LVL60:
 152:AudioFileManager.cpp ****       System::Delay(500);
 708              		.loc 1 152 7 is_stmt 1 discriminator 2 view .LVU180
 709              		.loc 1 152 20 is_stmt 0 discriminator 2 view .LVU181
 710 0036 4FF4FA70 		mov	r0, #500
 711 003a FFF7FEFF 		bl	_ZN5daisy6System5DelayEm
 712              	.LVL61:
 153:AudioFileManager.cpp ****       pod_->led1.Set(255,255,255);
 713              		.loc 1 153 7 is_stmt 1 discriminator 2 view .LVU182
 714              		.loc 1 153 21 is_stmt 0 discriminator 2 view .LVU183
 715 003e 9FED0A1A 		vldr.32	s2, .L55+8
 716 0042 A068     		ldr	r0, [r4, #8]
 717 0044 F0EE410A 		vmov.f32	s1, s2
 718 0048 B0EE410A 		vmov.f32	s0, s2
 719 004c D830     		adds	r0, r0, #216
 720 004e FFF7FEFF 		bl	_ZN5daisy6RgbLed3SetEfff
 721              	.LVL62:
 148:AudioFileManager.cpp ****       System::Delay(500);
 722              		.loc 1 148 3 is_stmt 1 discriminator 2 view .LVU184
 148:AudioFileManager.cpp ****       System::Delay(500);
 723              		.loc 1 148 17 discriminator 2 view .LVU185
 724 0052 013D     		subs	r5, r5, #1
 725              	.LVL63:
 148:AudioFileManager.cpp ****       System::Delay(500);
 726              		.loc 1 148 17 is_stmt 0 discriminator 2 view .LVU186
 727 0054 DED1     		bne	.L52
 728              	.LBE84:
ARM GAS  /var/folders/2p/02m_5p7958535cp2tpgps0400000gn/T//ccr2nz7n.s 			page 22


 154:AudioFileManager.cpp ****     }
 155:AudioFileManager.cpp **** }...
 729              		.loc 1 155 1 view .LVU187
 730 0056 38BD     		pop	{r3, r4, r5, pc}
 731              	.LVL64:
 732              	.L49:
 141:AudioFileManager.cpp ****     case 'd': 
 733              		.loc 1 141 5 is_stmt 1 view .LVU188
 142:AudioFileManager.cpp ****       pod_->seed.PrintLine("Daisy SD init error");
 734              		.loc 1 142 7 view .LVU189
 735              	.LBB85:
 736              	.LBI85:
 126:../libDaisy/src/daisy_seed.h ****     {
 737              		.loc 3 126 17 view .LVU190
 738              	.LBB86:
 739              		.loc 3 128 23 is_stmt 0 view .LVU191
 740 0058 0448     		ldr	r0, .L55+12
 741              	.LVL65:
 742              		.loc 3 128 23 view .LVU192
 743 005a FFF7FEFF 		bl	_ZN5daisy6LoggerILNS_17LoggerDestinationE1EE9PrintLineEPKcz
 744              	.LVL66:
 129:../libDaisy/src/daisy_seed.h ****     }
 745              		.loc 3 129 5 view .LVU193
 746 005e D8E7     		b	.L51
 747              	.L56:
 748              		.align	2
 749              	.L55:
 750 0060 14000000 		.word	.LC13
 751 0064 00000000 		.word	0
 752 0068 00007F43 		.word	1132396544
 753 006c 00000000 		.word	.LC12
 754              	.LBE86:
 755              	.LBE85:
 756              		.cfi_endproc
 757              	.LFE2575:
 759              		.section	.rodata._ZN16AudioFileManager4InitEv.str1.4,"aMS",%progbits,1
 760              		.align	2
 761              	.LC14:
 762 0000 64616973 		.ascii	"daisy sd init ok\000"
 762      79207364 
 762      20696E69 
 762      74206F6B 
 762      00
 763 0011 000000   		.align	2
 764              	.LC15:
 765 0014 2F00     		.ascii	"/\000"
 766 0016 0000     		.align	2
 767              	.LC16:
 768 0018 66617466 		.ascii	"fatfs init ok\000"
 768      7320696E 
 768      6974206F 
 768      6B00
 769              		.section	.text._ZN16AudioFileManager4InitEv,"ax",%progbits
 770              		.align	1
 771              		.p2align 2,,3
 772              		.global	_ZN16AudioFileManager4InitEv
 773              		.syntax unified
ARM GAS  /var/folders/2p/02m_5p7958535cp2tpgps0400000gn/T//ccr2nz7n.s 			page 23


 774              		.thumb
 775              		.thumb_func
 777              	_ZN16AudioFileManager4InitEv:
 778              	.LVL67:
 779              	.LFB2571:
  15:AudioFileManager.cpp **** bool AudioFileManager::Init(){
 780              		.loc 1 15 30 is_stmt 1 view -0
 781              		.cfi_startproc
 782              		@ args = 0, pretend = 0, frame = 16
 783              		@ frame_needed = 0, uses_anonymous_args = 0
  16:AudioFileManager.cpp ****   SdmmcHandler::Config sd_cfg;
 784              		.loc 1 16 3 view .LVU195
  17:AudioFileManager.cpp ****   sd_cfg.Defaults();
 785              		.loc 1 17 3 view .LVU196
  15:AudioFileManager.cpp **** bool AudioFileManager::Init(){
 786              		.loc 1 15 30 is_stmt 0 view .LVU197
 787 0000 F0B5     		push	{r4, r5, r6, r7, lr}
 788              		.cfi_def_cfa_offset 20
 789              		.cfi_offset 4, -20
 790              		.cfi_offset 5, -16
 791              		.cfi_offset 6, -12
 792              		.cfi_offset 7, -8
 793              		.cfi_offset 14, -4
 794 0002 85B0     		sub	sp, sp, #20
 795              		.cfi_def_cfa_offset 40
 796              	.LVL68:
 797              	.LBB87:
 798              	.LBI87:
 799              		.file 4 "../libDaisy/src/per/sdmmc.h"
   1:../libDaisy/src/per/sdmmc.h **** /*
   2:../libDaisy/src/per/sdmmc.h **** TODO: 
   3:../libDaisy/src/per/sdmmc.h **** - Implement configuration (currently all settings are fixed).
   4:../libDaisy/src/per/sdmmc.h **** */
   5:../libDaisy/src/per/sdmmc.h **** #pragma once
   6:../libDaisy/src/per/sdmmc.h **** #ifndef DSY_SDMMC_H
   7:../libDaisy/src/per/sdmmc.h **** #define DSY_SDMMC_H /**< macro */
   8:../libDaisy/src/per/sdmmc.h **** 
   9:../libDaisy/src/per/sdmmc.h **** #include <stdint.h>
  10:../libDaisy/src/per/sdmmc.h **** 
  11:../libDaisy/src/per/sdmmc.h **** 
  12:../libDaisy/src/per/sdmmc.h **** namespace daisy
  13:../libDaisy/src/per/sdmmc.h **** {
  14:../libDaisy/src/per/sdmmc.h **** /** @ingroup peripheral
  15:../libDaisy/src/per/sdmmc.h ****     @{
  16:../libDaisy/src/per/sdmmc.h ****     */
  17:../libDaisy/src/per/sdmmc.h **** 
  18:../libDaisy/src/per/sdmmc.h **** /** Configuration for interfacing with SD cards.
  19:../libDaisy/src/per/sdmmc.h ****  *  Currently only supports operation using FatFS filesystem
  20:../libDaisy/src/per/sdmmc.h ****  * 
  21:../libDaisy/src/per/sdmmc.h ****  *  Only SDMMC1 is supported at this time.
  22:../libDaisy/src/per/sdmmc.h ****  *
  23:../libDaisy/src/per/sdmmc.h ****  *  Pins are fixed to the following:
  24:../libDaisy/src/per/sdmmc.h ****  *  PC12 - SDMMC1 CK
  25:../libDaisy/src/per/sdmmc.h ****  *  PD2  - SDMMC1 CMD
  26:../libDaisy/src/per/sdmmc.h ****  *  PC8  - SDMMC1 D0
  27:../libDaisy/src/per/sdmmc.h ****  *  PC9  - SDMMC1 D1 (optional)
  28:../libDaisy/src/per/sdmmc.h ****  *  PC10 - SDMMC1 D2 (optional)
ARM GAS  /var/folders/2p/02m_5p7958535cp2tpgps0400000gn/T//ccr2nz7n.s 			page 24


  29:../libDaisy/src/per/sdmmc.h ****  *  PC11 - SDMMC1 D3 (optional)
  30:../libDaisy/src/per/sdmmc.h **** */
  31:../libDaisy/src/per/sdmmc.h **** class SdmmcHandler
  32:../libDaisy/src/per/sdmmc.h **** {
  33:../libDaisy/src/per/sdmmc.h ****   public:
  34:../libDaisy/src/per/sdmmc.h ****     /** Return values for the SdmmcHandler class */
  35:../libDaisy/src/per/sdmmc.h ****     enum class Result
  36:../libDaisy/src/per/sdmmc.h ****     {
  37:../libDaisy/src/per/sdmmc.h ****         OK,
  38:../libDaisy/src/per/sdmmc.h ****         ERROR,
  39:../libDaisy/src/per/sdmmc.h ****     };
  40:../libDaisy/src/per/sdmmc.h **** 
  41:../libDaisy/src/per/sdmmc.h ****     /** Sets whether 4-bit mode or 1-bit mode is used for the SDMMC */
  42:../libDaisy/src/per/sdmmc.h ****     enum class BusWidth
  43:../libDaisy/src/per/sdmmc.h ****     {
  44:../libDaisy/src/per/sdmmc.h ****         BITS_1, /**< Only 1 bit of data per clock is transferred */
  45:../libDaisy/src/per/sdmmc.h ****         BITS_4, /**< 4-bits of parallel data for each clock pulse */
  46:../libDaisy/src/per/sdmmc.h ****     };
  47:../libDaisy/src/per/sdmmc.h **** 
  48:../libDaisy/src/per/sdmmc.h ****     /** 
  49:../libDaisy/src/per/sdmmc.h ****     Sets the desired clock speed of the SD card bus. \n 
  50:../libDaisy/src/per/sdmmc.h ****     Initialization is always done at or below 400kHz, and then the user speed is set.
  51:../libDaisy/src/per/sdmmc.h ****     */
  52:../libDaisy/src/per/sdmmc.h ****     enum class Speed
  53:../libDaisy/src/per/sdmmc.h ****     {
  54:../libDaisy/src/per/sdmmc.h ****         SLOW, /**< 400kHz, initialization  performed at this rate, before moving to user value */
  55:../libDaisy/src/per/sdmmc.h ****         MEDIUM_SLOW, /**< 12.5MHz - half of standard rate */
  56:../libDaisy/src/per/sdmmc.h ****         STANDARD,    /**< 25MHz - DS (Default Speed for SDMMC) */
  57:../libDaisy/src/per/sdmmc.h ****         FAST,        /**< 50MHz - HS (High Speed signaling) */
  58:../libDaisy/src/per/sdmmc.h ****         VERY_FAST, /**< 100MHz - SDR50 Overclocked rate for maximum transfer rates */
  59:../libDaisy/src/per/sdmmc.h ****     };
  60:../libDaisy/src/per/sdmmc.h **** 
  61:../libDaisy/src/per/sdmmc.h ****     struct Config
  62:../libDaisy/src/per/sdmmc.h ****     {
  63:../libDaisy/src/per/sdmmc.h ****         Speed    speed;
  64:../libDaisy/src/per/sdmmc.h ****         BusWidth width;
  65:../libDaisy/src/per/sdmmc.h ****         bool
  66:../libDaisy/src/per/sdmmc.h ****             clock_powersave; /**< When true, the clock will stop between transfers to save power. *
  67:../libDaisy/src/per/sdmmc.h **** 
  68:../libDaisy/src/per/sdmmc.h ****         /** Configures settings to their default settings */
  69:../libDaisy/src/per/sdmmc.h ****         void Defaults()
 800              		.loc 4 69 14 is_stmt 1 view .LVU198
 801              	.LBB88:
  70:../libDaisy/src/per/sdmmc.h ****         {
  71:../libDaisy/src/per/sdmmc.h ****             speed           = Speed::FAST;
 802              		.loc 4 71 13 view .LVU199
 803              		.loc 4 71 29 is_stmt 0 view .LVU200
 804 0004 0323     		movs	r3, #3
  72:../libDaisy/src/per/sdmmc.h ****             width           = BusWidth::BITS_4;
 805              		.loc 4 72 29 view .LVU201
 806 0006 0125     		movs	r5, #1
  73:../libDaisy/src/per/sdmmc.h ****             clock_powersave = false;
 807              		.loc 4 73 29 view .LVU202
 808 0008 0027     		movs	r7, #0
 809              	.LBE88:
 810              	.LBE87:
  15:AudioFileManager.cpp **** bool AudioFileManager::Init(){
ARM GAS  /var/folders/2p/02m_5p7958535cp2tpgps0400000gn/T//ccr2nz7n.s 			page 25


 811              		.loc 1 15 30 view .LVU203
 812 000a 0446     		mov	r4, r0
  18:AudioFileManager.cpp ****   if (sd_->Init(sd_cfg) != SdmmcHandler::Result::OK) {
 813              		.loc 1 18 16 view .LVU204
 814 000c 01A9     		add	r1, sp, #4
 815              	.LVL69:
  18:AudioFileManager.cpp ****   if (sd_->Init(sd_cfg) != SdmmcHandler::Result::OK) {
 816              		.loc 1 18 16 view .LVU205
 817 000e 0068     		ldr	r0, [r0]
 818              	.LVL70:
 819              	.LBB90:
 820              	.LBB89:
 821              		.loc 4 73 29 view .LVU206
 822 0010 8DF80C70 		strb	r7, [sp, #12]
  72:../libDaisy/src/per/sdmmc.h ****             clock_powersave = false;
 823              		.loc 4 72 29 view .LVU207
 824 0014 CDE90135 		strd	r3, r5, [sp, #4]
 825              		.loc 4 73 13 is_stmt 1 view .LVU208
 826              	.LVL71:
 827              		.loc 4 73 13 is_stmt 0 view .LVU209
 828              	.LBE89:
 829              	.LBE90:
  18:AudioFileManager.cpp ****   if (sd_->Init(sd_cfg) != SdmmcHandler::Result::OK) {
 830              		.loc 1 18 3 is_stmt 1 view .LVU210
  18:AudioFileManager.cpp ****   if (sd_->Init(sd_cfg) != SdmmcHandler::Result::OK) {
 831              		.loc 1 18 16 is_stmt 0 view .LVU211
 832 0018 FFF7FEFF 		bl	_ZN5daisy12SdmmcHandler4InitERKNS0_6ConfigE
 833              	.LVL72:
  18:AudioFileManager.cpp ****   if (sd_->Init(sd_cfg) != SdmmcHandler::Result::OK) {
 834              		.loc 1 18 3 view .LVU212
 835 001c D8B9     		cbnz	r0, .L62
  22:AudioFileManager.cpp ****   pod_->seed.PrintLine("daisy sd init ok");
 836              		.loc 1 22 3 is_stmt 1 view .LVU213
 837              	.LVL73:
 838              	.LBB91:
 839              	.LBI91:
 126:../libDaisy/src/daisy_seed.h ****     {
 840              		.loc 3 126 17 view .LVU214
 841 001e 0646     		mov	r6, r0
 842              	.LBB92:
 128:../libDaisy/src/daisy_seed.h ****     }
 843              		.loc 3 128 23 is_stmt 0 view .LVU215
 844 0020 1048     		ldr	r0, .L64
 845 0022 FFF7FEFF 		bl	_ZN5daisy6LoggerILNS_17LoggerDestinationE1EE9PrintLineEPKcz
 846              	.LVL74:
 128:../libDaisy/src/daisy_seed.h ****     }
 847              		.loc 3 128 23 view .LVU216
 848              	.LBE92:
 849              	.LBE91:
  24:AudioFileManager.cpp ****   fsi_->Init(FatFSInterface::Config::MEDIA_SD);
 850              		.loc 1 24 3 is_stmt 1 view .LVU217
  24:AudioFileManager.cpp ****   fsi_->Init(FatFSInterface::Config::MEDIA_SD);
 851              		.loc 1 24 13 is_stmt 0 view .LVU218
 852 0026 2946     		mov	r1, r5
 853 0028 6068     		ldr	r0, [r4, #4]
 854 002a FFF7FEFF 		bl	_ZN5daisy14FatFSInterface4InitEh
 855              	.LVL75:
ARM GAS  /var/folders/2p/02m_5p7958535cp2tpgps0400000gn/T//ccr2nz7n.s 			page 26


  25:AudioFileManager.cpp ****   if (f_mount(&fsi_->GetSDFileSystem(),"/",1) != FR_OK){
 856              		.loc 1 25 3 is_stmt 1 view .LVU219
 857              	.LBB93:
 858              	.LBI93:
  88:../libDaisy/src/sys/fatfs.h **** 
  89:../libDaisy/src/sys/fatfs.h ****     /** Returns the path to a USB Device volume to use with f_mount */
  90:../libDaisy/src/sys/fatfs.h ****     const char* GetUSBPath() const { return path_[1]; }
  91:../libDaisy/src/sys/fatfs.h **** 
  92:../libDaisy/src/sys/fatfs.h ****     /** Returns reference to filesystem object for the SD volume. */
  93:../libDaisy/src/sys/fatfs.h ****     FATFS& GetSDFileSystem() { return fs_[0]; }
 859              		.loc 2 93 12 view .LVU220
 860              	.LBB94:
 861              		.loc 2 93 32 view .LVU221
 862              		.loc 2 93 44 is_stmt 0 view .LVU222
 863 002e 6068     		ldr	r0, [r4, #4]
 864              	.LBE94:
 865              	.LBE93:
  25:AudioFileManager.cpp ****   if (f_mount(&fsi_->GetSDFileSystem(),"/",1) != FR_OK){
 866              		.loc 1 25 14 view .LVU223
 867 0030 2A46     		mov	r2, r5
 868 0032 0D49     		ldr	r1, .L64+4
 869 0034 0430     		adds	r0, r0, #4
 870 0036 FFF7FEFF 		bl	f_mount
 871              	.LVL76:
  25:AudioFileManager.cpp ****   if (f_mount(&fsi_->GetSDFileSystem(),"/",1) != FR_OK){
 872              		.loc 1 25 3 view .LVU224
 873 003a 28B9     		cbnz	r0, .L63
  31:AudioFileManager.cpp ****   pod_->seed.PrintLine("fatfs init ok");
 874              		.loc 1 31 3 is_stmt 1 view .LVU225
 875              	.LVL77:
 876              	.LBB95:
 877              	.LBI95:
 126:../libDaisy/src/daisy_seed.h ****     {
 878              		.loc 3 126 17 view .LVU226
 879              	.LBB96:
 128:../libDaisy/src/daisy_seed.h ****     }
 880              		.loc 3 128 23 is_stmt 0 view .LVU227
 881 003c 0B48     		ldr	r0, .L64+8
 882 003e FFF7FEFF 		bl	_ZN5daisy6LoggerILNS_17LoggerDestinationE1EE9PrintLineEPKcz
 883              	.LVL78:
 128:../libDaisy/src/daisy_seed.h ****     }
 884              		.loc 3 128 23 view .LVU228
 885              	.LBE96:
 886              	.LBE95:
  33:AudioFileManager.cpp ****   return true;
 887              		.loc 1 33 3 is_stmt 1 view .LVU229
  33:AudioFileManager.cpp ****   return true;
 888              		.loc 1 33 10 is_stmt 0 view .LVU230
 889 0042 2846     		mov	r0, r5
  34:AudioFileManager.cpp **** }
 890              		.loc 1 34 1 view .LVU231
 891 0044 05B0     		add	sp, sp, #20
 892              		.cfi_remember_state
 893              		.cfi_def_cfa_offset 20
 894              		@ sp needed
 895 0046 F0BD     		pop	{r4, r5, r6, r7, pc}
 896              	.LVL79:
ARM GAS  /var/folders/2p/02m_5p7958535cp2tpgps0400000gn/T//ccr2nz7n.s 			page 27


 897              	.L63:
 898              		.cfi_restore_state
  26:AudioFileManager.cpp ****     BlinkOnSDError('f');
 899              		.loc 1 26 5 is_stmt 1 view .LVU232
  26:AudioFileManager.cpp ****     BlinkOnSDError('f');
 900              		.loc 1 26 19 is_stmt 0 view .LVU233
 901 0048 2046     		mov	r0, r4
 902 004a 6621     		movs	r1, #102
 903 004c FFF7FEFF 		bl	_ZN16AudioFileManager14BlinkOnSDErrorEc
 904              	.LVL80:
  29:AudioFileManager.cpp ****     return false;
 905              		.loc 1 29 5 is_stmt 1 view .LVU234
  29:AudioFileManager.cpp ****     return false;
 906              		.loc 1 29 12 is_stmt 0 view .LVU235
 907 0050 3046     		mov	r0, r6
  34:AudioFileManager.cpp **** }
 908              		.loc 1 34 1 view .LVU236
 909 0052 05B0     		add	sp, sp, #20
 910              		.cfi_remember_state
 911              		.cfi_def_cfa_offset 20
 912              		@ sp needed
 913 0054 F0BD     		pop	{r4, r5, r6, r7, pc}
 914              	.LVL81:
 915              	.L62:
 916              		.cfi_restore_state
  19:AudioFileManager.cpp ****     BlinkOnSDError('d');
 917              		.loc 1 19 5 is_stmt 1 view .LVU237
  19:AudioFileManager.cpp ****     BlinkOnSDError('d');
 918              		.loc 1 19 19 is_stmt 0 view .LVU238
 919 0056 2046     		mov	r0, r4
 920 0058 6421     		movs	r1, #100
 921 005a FFF7FEFF 		bl	_ZN16AudioFileManager14BlinkOnSDErrorEc
 922              	.LVL82:
  20:AudioFileManager.cpp ****     return false;
 923              		.loc 1 20 5 is_stmt 1 view .LVU239
  20:AudioFileManager.cpp ****     return false;
 924              		.loc 1 20 12 is_stmt 0 view .LVU240
 925 005e 3846     		mov	r0, r7
  34:AudioFileManager.cpp **** }
 926              		.loc 1 34 1 view .LVU241
 927 0060 05B0     		add	sp, sp, #20
 928              		.cfi_def_cfa_offset 20
 929              		@ sp needed
 930 0062 F0BD     		pop	{r4, r5, r6, r7, pc}
 931              	.LVL83:
 932              	.L65:
  34:AudioFileManager.cpp **** }
 933              		.loc 1 34 1 view .LVU242
 934              		.align	2
 935              	.L64:
 936 0064 00000000 		.word	.LC14
 937 0068 14000000 		.word	.LC15
 938 006c 18000000 		.word	.LC16
 939              		.cfi_endproc
 940              	.LFE2571:
 942              		.text
 943              	.Letext0:
ARM GAS  /var/folders/2p/02m_5p7958535cp2tpgps0400000gn/T//ccr2nz7n.s 			page 28


 944              		.file 5 "/Library/DaisyToolchain/0.2.0/arm/arm-none-eabi/include/machine/_default_types.h"
 945              		.file 6 "/Library/DaisyToolchain/0.2.0/arm/arm-none-eabi/include/sys/_stdint.h"
 946              		.file 7 "/Library/DaisyToolchain/0.2.0/arm/arm-none-eabi/include/stdint.h"
 947              		.file 8 "/Library/DaisyToolchain/0.2.0/arm/lib/gcc/arm-none-eabi/10.3.1/include/stddef.h"
 948              		.file 9 "/Library/DaisyToolchain/0.2.0/arm/arm-none-eabi/include/c++/10.3.1/cmath"
 949              		.file 10 "/Library/DaisyToolchain/0.2.0/arm/arm-none-eabi/include/c++/10.3.1/bits/std_abs.h"
 950              		.file 11 "/Library/DaisyToolchain/0.2.0/arm/arm-none-eabi/include/c++/10.3.1/cstdlib"
 951              		.file 12 "/Library/DaisyToolchain/0.2.0/arm/arm-none-eabi/include/c++/10.3.1/cstdint"
 952              		.file 13 "/Library/DaisyToolchain/0.2.0/arm/arm-none-eabi/include/c++/10.3.1/arm-none-eabi/thumb/v
 953              		.file 14 "/Library/DaisyToolchain/0.2.0/arm/arm-none-eabi/include/c++/10.3.1/type_traits"
 954              		.file 15 "/Library/DaisyToolchain/0.2.0/arm/arm-none-eabi/include/c++/10.3.1/debug/debug.h"
 955              		.file 16 "/Library/DaisyToolchain/0.2.0/arm/arm-none-eabi/include/c++/10.3.1/bits/algorithmfwd.h"
 956              		.file 17 "/Library/DaisyToolchain/0.2.0/arm/arm-none-eabi/include/c++/10.3.1/bits/stl_pair.h"
 957              		.file 18 "/Library/DaisyToolchain/0.2.0/arm/arm-none-eabi/include/c++/10.3.1/bits/exception_ptr.h"
 958              		.file 19 "/Library/DaisyToolchain/0.2.0/arm/arm-none-eabi/include/c++/10.3.1/initializer_list"
 959              		.file 20 "/Library/DaisyToolchain/0.2.0/arm/arm-none-eabi/include/c++/10.3.1/cstdarg"
 960              		.file 21 "/Library/DaisyToolchain/0.2.0/arm/arm-none-eabi/include/c++/10.3.1/cstdio"
 961              		.file 22 "/Library/DaisyToolchain/0.2.0/arm/arm-none-eabi/include/c++/10.3.1/cstring"
 962              		.file 23 "/Library/DaisyToolchain/0.2.0/arm/arm-none-eabi/include/c++/10.3.1/bits/predefined_ops.h
 963              		.file 24 "/Library/DaisyToolchain/0.2.0/arm/arm-none-eabi/include/sys/_types.h"
 964              		.file 25 "/Library/DaisyToolchain/0.2.0/arm/arm-none-eabi/include/sys/reent.h"
 965              		.file 26 "/Library/DaisyToolchain/0.2.0/arm/arm-none-eabi/include/sys/lock.h"
 966              		.file 27 "/Library/DaisyToolchain/0.2.0/arm/arm-none-eabi/include/math.h"
 967              		.file 28 "/Library/DaisyToolchain/0.2.0/arm/arm-none-eabi/include/stdlib.h"
 968              		.file 29 "/Library/DaisyToolchain/0.2.0/arm/arm-none-eabi/include/c++/10.3.1/math.h"
 969              		.file 30 "/Library/DaisyToolchain/0.2.0/arm/lib/gcc/arm-none-eabi/10.3.1/include/stdarg.h"
 970              		.file 31 "/Library/DaisyToolchain/0.2.0/arm/arm-none-eabi/include/stdio.h"
 971              		.file 32 "/Library/DaisyToolchain/0.2.0/arm/arm-none-eabi/include/c++/10.3.1/stdlib.h"
 972              		.file 33 "../libDaisy/src/daisy_core.h"
 973              		.file 34 "../libDaisy/src/per/tim.h"
 974              		.file 35 "../libDaisy/src/sys/system.h"
 975              		.file 36 "../libDaisy/src/per/qspi.h"
 976              		.file 37 "../libDaisy/src/per/dac.h"
 977              		.file 38 "../libDaisy/src/per/sai.h"
 978              		.file 39 "../libDaisy/src/hid/audio.h"
 979              		.file 40 "../libDaisy/src/per/adc.h"
 980              		.file 41 "../libDaisy/src/per/uart.h"
 981              		.file 42 "../libDaisy/src/hid/MidiEvent.h"
 982              		.file 43 "../libDaisy/src/hid/midi_parser.h"
 983              		.file 44 "../libDaisy/src/hid/usb.h"
 984              		.file 45 "../libDaisy/src/hid/midi.h"
 985              		.file 46 "../libDaisy/src/util/FIFO.h"
 986              		.file 47 "../libDaisy/src/hid/switch.h"
 987              		.file 48 "../libDaisy/src/hid/encoder.h"
 988              		.file 49 "../libDaisy/src/hid/ctrl.h"
 989              		.file 50 "../libDaisy/src/hid/logger_impl.h"
 990              		.file 51 "../libDaisy/src/util/wav_format.h"
 991              		.file 52 "../libDaisy/src/hid/led.h"
 992              		.file 53 "../libDaisy/src/util/color.h"
 993              		.file 54 "../libDaisy/src/hid/rgb_led.h"
 994              		.file 55 "../libDaisy/src/dev/max11300.h"
 995              		.file 56 "../libDaisy/src/hid/logger.h"
 996              		.file 57 "../libDaisy/src/daisy_pod.h"
 997              		.file 58 "../libDaisy/src/per/gpio.h"
 998              		.file 59 "../libDaisy/src/dev/sdram.h"
 999              		.file 60 "../libDaisy/Middlewares/Third_Party/FatFs/src/integer.h"
 1000              		.file 61 "../libDaisy/Middlewares/Third_Party/FatFs/src/ff.h"
ARM GAS  /var/folders/2p/02m_5p7958535cp2tpgps0400000gn/T//ccr2nz7n.s 			page 29


 1001              		.file 62 "/Library/DaisyToolchain/0.2.0/arm/arm-none-eabi/include/string.h"
 1002              		.file 63 "AudioFileManager.h"
 1003              		.file 64 "../libDaisy/src/dev/sr_595.h"
 1004              		.file 65 "<built-in>"
ARM GAS  /var/folders/2p/02m_5p7958535cp2tpgps0400000gn/T//ccr2nz7n.s 			page 30

