ARM GAS  /var/folders/2p/02m_5p7958535cp2tpgps0400000gn/T//ccLxL0oo.s 			page 1


   1              		.cpu cortex-m7
   2              		.arch armv7e-m
   3              		.fpu fpv5-d16
   4              		.eabi_attribute 28, 1
   5              		.eabi_attribute 20, 1
   6              		.eabi_attribute 21, 1
   7              		.eabi_attribute 23, 3
   8              		.eabi_attribute 24, 1
   9              		.eabi_attribute 25, 1
  10              		.eabi_attribute 26, 1
  11              		.eabi_attribute 30, 2
  12              		.eabi_attribute 34, 1
  13              		.eabi_attribute 18, 4
  14              		.file	"AudioFileManager.cpp"
  15              		.text
  16              	.Ltext0:
  17              		.cfi_sections	.debug_frame
  18              		.section	.text._ZN16AudioFileManager4InitERN5daisy12SdmmcHandlerERNS0_14FatFSInterfaceERNS0_8Daisy
  19              		.align	1
  20              		.p2align 2,,3
  21              		.global	_ZN16AudioFileManager4InitERN5daisy12SdmmcHandlerERNS0_14FatFSInterfaceERNS0_8DaisyPodEP3F
  22              		.syntax unified
  23              		.thumb
  24              		.thumb_func
  26              	_ZN16AudioFileManager4InitERN5daisy12SdmmcHandlerERNS0_14FatFSInterfaceERNS0_8DaisyPodEP3FIL:
  27              	.LVL0:
  28              	.LFB2583:
  29              		.file 1 "AudioFileManager.cpp"
   1:AudioFileManager.cpp **** #include "AudioFileManager.h"
   2:AudioFileManager.cpp **** 
   3:AudioFileManager.cpp **** using namespace daisy;
   4:AudioFileManager.cpp **** 
   5:AudioFileManager.cpp **** /* declare / initialise static members */
   6:AudioFileManager.cpp **** DTCMRAM_BSS char AudioFileManager::names_[MAX_FILES][MAX_FNAME_LEN];
   7:AudioFileManager.cpp **** DTCMRAM_BSS uint16_t AudioFileManager::curr_idx_ = 0;
   8:AudioFileManager.cpp **** DTCMRAM_BSS uint16_t AudioFileManager::file_count_ = 0;
   9:AudioFileManager.cpp **** DTCMRAM_BSS WavHeader AudioFileManager::header_;
  10:AudioFileManager.cpp **** DTCMRAM_BSS uint8_t AudioFileManager::audio_data_start_ = 0;
  11:AudioFileManager.cpp **** int16_t* AudioFileManager::left_buf_ = nullptr;
  12:AudioFileManager.cpp **** int16_t* AudioFileManager::right_buf_ = nullptr;
  13:AudioFileManager.cpp **** 
  14:AudioFileManager.cpp **** /// @brief Initialises sd card and file system interfaces
  15:AudioFileManager.cpp **** /// @return True if initialisation succeeds, else false
  16:AudioFileManager.cpp **** void AudioFileManager::Init(SdmmcHandler& sd, FatFSInterface& fsi, DaisyPod& pod, FIL* file){
  30              		.loc 1 16 93 view -0
  31              		.cfi_startproc
  32              		@ args = 4, pretend = 0, frame = 0
  33              		@ frame_needed = 0, uses_anonymous_args = 0
  34              		@ link register save eliminated.
  17:AudioFileManager.cpp ****   pod_ = &pod;
  35              		.loc 1 17 3 view .LVU1
  18:AudioFileManager.cpp ****   sd_ = &sd;
  19:AudioFileManager.cpp ****   fsi_ = &fsi;
  36              		.loc 1 19 8 is_stmt 0 view .LVU2
  37 0000 80E80E00 		stm	r0, {r1, r2, r3}
  20:AudioFileManager.cpp ****   curr_file_ = file;
  38              		.loc 1 20 3 is_stmt 1 view .LVU3
ARM GAS  /var/folders/2p/02m_5p7958535cp2tpgps0400000gn/T//ccLxL0oo.s 			page 2


  39              		.loc 1 20 14 is_stmt 0 view .LVU4
  40 0004 009B     		ldr	r3, [sp]
  41              	.LVL1:
  42              		.loc 1 20 14 view .LVU5
  43 0006 C360     		str	r3, [r0, #12]
  21:AudioFileManager.cpp **** }
  44              		.loc 1 21 1 view .LVU6
  45 0008 7047     		bx	lr
  46              		.cfi_endproc
  47              	.LFE2583:
  49 000a 00BF     		.section	.rodata._ZN16AudioFileManager12ScanWavFilesEv.str1.4,"aMS",%progbits,1
  50              		.align	2
  51              	.LC0:
  52 0000 2E5F00   		.ascii	"._\000"
  53 0003 00       		.align	2
  54              	.LC1:
  55 0004 2E776176 		.ascii	".wav\000"
  55      00
  56 0009 000000   		.align	2
  57              	.LC2:
  58 000c 2E574156 		.ascii	".WAV\000"
  58      00
  59              		.section	.text._ZN16AudioFileManager12ScanWavFilesEv,"ax",%progbits
  60              		.align	1
  61              		.p2align 2,,3
  62              		.global	_ZN16AudioFileManager12ScanWavFilesEv
  63              		.syntax unified
  64              		.thumb
  65              		.thumb_func
  67              	_ZN16AudioFileManager12ScanWavFilesEv:
  68              	.LVL2:
  69              	.LFB2584:
  22:AudioFileManager.cpp **** 
  23:AudioFileManager.cpp **** /// @brief Scans for list of WAVs on SD card and stores filenames
  24:AudioFileManager.cpp **** /// @return False if directory fails to open or there are no valid files, else true
  25:AudioFileManager.cpp **** bool AudioFileManager::ScanWavFiles(){
  70              		.loc 1 25 38 is_stmt 1 view -0
  71              		.cfi_startproc
  72              		@ args = 0, pretend = 0, frame = 328
  73              		@ frame_needed = 0, uses_anonymous_args = 0
  26:AudioFileManager.cpp ****   DIR dir;
  74              		.loc 1 26 3 view .LVU8
  27:AudioFileManager.cpp ****   FILINFO fno;
  75              		.loc 1 27 3 view .LVU9
  28:AudioFileManager.cpp ****   file_count_=0;
  76              		.loc 1 28 3 view .LVU10
  25:AudioFileManager.cpp ****   DIR dir;
  77              		.loc 1 25 38 is_stmt 0 view .LVU11
  78 0000 70B5     		push	{r4, r5, r6, lr}
  79              		.cfi_def_cfa_offset 16
  80              		.cfi_offset 4, -16
  81              		.cfi_offset 5, -12
  82              		.cfi_offset 6, -8
  83              		.cfi_offset 14, -4
  84              	.LBB10:
  85              	.LBB11:
  86              		.file 2 "../libDaisy/src/sys/fatfs.h"
ARM GAS  /var/folders/2p/02m_5p7958535cp2tpgps0400000gn/T//ccLxL0oo.s 			page 3


   1:../libDaisy/src/sys/fatfs.h **** #ifndef __fatfs_H
   2:../libDaisy/src/sys/fatfs.h **** #define __fatfs_H /**< & */
   3:../libDaisy/src/sys/fatfs.h **** 
   4:../libDaisy/src/sys/fatfs.h **** #include "ff.h"
   5:../libDaisy/src/sys/fatfs.h **** 
   6:../libDaisy/src/sys/fatfs.h **** namespace daisy
   7:../libDaisy/src/sys/fatfs.h **** {
   8:../libDaisy/src/sys/fatfs.h **** /** @brief Daisy FatFS Driver Interface
   9:../libDaisy/src/sys/fatfs.h ****  *  @details Specifies the desired media (SD Card, USB, etc.) to be mountable with FatFS
  10:../libDaisy/src/sys/fatfs.h ****  *           within a given application. Once initialization is called, the standard
  11:../libDaisy/src/sys/fatfs.h ****  *           FatFS API will be usable with the media mounted in the order 
  12:../libDaisy/src/sys/fatfs.h ****  *           they are listed in the Media config struct. 
  13:../libDaisy/src/sys/fatfs.h ****  *           For example, when only using an SD Card, it will mount at "0:/",
  14:../libDaisy/src/sys/fatfs.h ****  *           when only using USB, it will mount at "0:/". However, when mounting 
  15:../libDaisy/src/sys/fatfs.h ****  *           with SD card and USB, the SD card will mount at "0:/", and the USB 
  16:../libDaisy/src/sys/fatfs.h ****  *           will mount at "1:/".
  17:../libDaisy/src/sys/fatfs.h ****  *           The relevant hardware peripheral (SDMMC, or MSD) needs to be initialized
  18:../libDaisy/src/sys/fatfs.h ****  *           separately by the application before using FatFS.
  19:../libDaisy/src/sys/fatfs.h ****  *          
  20:../libDaisy/src/sys/fatfs.h ****  *           This object has some memory limitations due to the media connected to it.
  21:../libDaisy/src/sys/fatfs.h ****  *           The SDMMC1 peripheral can only communicate with the AXI SRAM, and the DTCMRAM 
  22:../libDaisy/src/sys/fatfs.h ****  *           cannot communicate with the DMA. So the FatFSInterface object should always be
  23:../libDaisy/src/sys/fatfs.h ****  *           located in the AXI SRAM. This is the default location for all data/bss memory
  24:../libDaisy/src/sys/fatfs.h ****  *           using the standard build. However, applciations using the electrosmith bootloader
  25:../libDaisy/src/sys/fatfs.h ****  *           will need special consideration when using this object AND an SD Card. 
  26:../libDaisy/src/sys/fatfs.h ****  */
  27:../libDaisy/src/sys/fatfs.h **** class FatFSInterface
  28:../libDaisy/src/sys/fatfs.h **** {
  29:../libDaisy/src/sys/fatfs.h ****   public:
  30:../libDaisy/src/sys/fatfs.h ****     /** Return values specifying specific errors for linking Daisy to FatFS */
  31:../libDaisy/src/sys/fatfs.h ****     enum Result
  32:../libDaisy/src/sys/fatfs.h ****     {
  33:../libDaisy/src/sys/fatfs.h ****         OK,
  34:../libDaisy/src/sys/fatfs.h ****         ERR_TOO_MANY_VOLUMES,
  35:../libDaisy/src/sys/fatfs.h ****         ERR_NO_MEDIA_SELECTED,
  36:../libDaisy/src/sys/fatfs.h ****         ERR_GENERIC,
  37:../libDaisy/src/sys/fatfs.h ****     };
  38:../libDaisy/src/sys/fatfs.h **** 
  39:../libDaisy/src/sys/fatfs.h ****     /** Config structure for configuring Daisy to FatFS */
  40:../libDaisy/src/sys/fatfs.h ****     struct Config
  41:../libDaisy/src/sys/fatfs.h ****     {
  42:../libDaisy/src/sys/fatfs.h ****         /** Selected Media that will be linked to FatFS 
  43:../libDaisy/src/sys/fatfs.h ****          *  These values can be OR'd together when multiple
  44:../libDaisy/src/sys/fatfs.h ****          *  volumes are desired 
  45:../libDaisy/src/sys/fatfs.h ****          *  i.e. config.media = Media::SD | Media::USBH;
  46:../libDaisy/src/sys/fatfs.h ****          * 
  47:../libDaisy/src/sys/fatfs.h ****          *  When mounting multiple volumes, ffconf.h must have 
  48:../libDaisy/src/sys/fatfs.h ****          *  _VOLUMES set to an appropriate value.
  49:../libDaisy/src/sys/fatfs.h ****          * 
  50:../libDaisy/src/sys/fatfs.h ****          *  FatFS will register multiple volumes in the order of the enum,
  51:../libDaisy/src/sys/fatfs.h ****          *   the first registered class will mount at "0:/",
  52:../libDaisy/src/sys/fatfs.h ****          *   the second registered class will mount at "1:/", and so on
  53:../libDaisy/src/sys/fatfs.h ****          */
  54:../libDaisy/src/sys/fatfs.h ****         enum Media : uint8_t
  55:../libDaisy/src/sys/fatfs.h ****         {
  56:../libDaisy/src/sys/fatfs.h ****             MEDIA_SD  = 0x01,
  57:../libDaisy/src/sys/fatfs.h ****             MEDIA_USB = 0x02,
ARM GAS  /var/folders/2p/02m_5p7958535cp2tpgps0400000gn/T//ccLxL0oo.s 			page 4


  58:../libDaisy/src/sys/fatfs.h ****             // MEDIA_QSPI = 0x04,
  59:../libDaisy/src/sys/fatfs.h ****         };
  60:../libDaisy/src/sys/fatfs.h **** 
  61:../libDaisy/src/sys/fatfs.h ****         uint8_t media;
  62:../libDaisy/src/sys/fatfs.h ****     };
  63:../libDaisy/src/sys/fatfs.h **** 
  64:../libDaisy/src/sys/fatfs.h ****     FatFSInterface() {}
  65:../libDaisy/src/sys/fatfs.h **** 
  66:../libDaisy/src/sys/fatfs.h ****     /** Link the desired hardware specified via Config::Media */
  67:../libDaisy/src/sys/fatfs.h ****     Result Init(const Config& cfg);
  68:../libDaisy/src/sys/fatfs.h **** 
  69:../libDaisy/src/sys/fatfs.h ****     /** Link the desired hardware specified via Config::Media 
  70:../libDaisy/src/sys/fatfs.h ****      * 
  71:../libDaisy/src/sys/fatfs.h ****      *  Alternate, explicit initialization provided for simplified syntax.
  72:../libDaisy/src/sys/fatfs.h ****      */
  73:../libDaisy/src/sys/fatfs.h ****     Result Init(const uint8_t media);
  74:../libDaisy/src/sys/fatfs.h **** 
  75:../libDaisy/src/sys/fatfs.h ****     /** Unlinks FatFS from the configured media */
  76:../libDaisy/src/sys/fatfs.h ****     Result DeInit();
  77:../libDaisy/src/sys/fatfs.h **** 
  78:../libDaisy/src/sys/fatfs.h ****     bool Initialized() const { return initialized_; }
  79:../libDaisy/src/sys/fatfs.h **** 
  80:../libDaisy/src/sys/fatfs.h ****     /** Return the current configuration */
  81:../libDaisy/src/sys/fatfs.h ****     const Config& GetConfig() const { return cfg_; }
  82:../libDaisy/src/sys/fatfs.h **** 
  83:../libDaisy/src/sys/fatfs.h ****     /** Return a mutable reference to the Configuration */
  84:../libDaisy/src/sys/fatfs.h ****     Config& GetMutableConfig() { return cfg_; }
  85:../libDaisy/src/sys/fatfs.h **** 
  86:../libDaisy/src/sys/fatfs.h ****     /** Returns the path to an SD Card volume to use with f_mount */
  87:../libDaisy/src/sys/fatfs.h ****     const char* GetSDPath() const { return path_[0]; }
  87              		.loc 2 87 51 view .LVU12
  88 0002 4168     		ldr	r1, [r0, #4]
  89              	.LBE11:
  90              	.LBE10:
  25:AudioFileManager.cpp ****   DIR dir;
  91              		.loc 1 25 38 view .LVU13
  92 0004 D2B0     		sub	sp, sp, #328
  93              		.cfi_def_cfa_offset 344
  94              		.loc 1 28 14 view .LVU14
  95 0006 294D     		ldr	r5, .L23
  96 0008 0024     		movs	r4, #0
  29:AudioFileManager.cpp **** 
  30:AudioFileManager.cpp ****   if (f_opendir(&dir,fsi_->GetSDPath()) != FR_OK){
  97              		.loc 1 30 16 view .LVU15
  98 000a 6846     		mov	r0, sp
  99              	.LVL3:
 100              		.loc 1 30 16 view .LVU16
 101 000c 01F27441 		addw	r1, r1, #1140
  28:AudioFileManager.cpp **** 
 102              		.loc 1 28 14 view .LVU17
 103 0010 2C80     		strh	r4, [r5]	@ movhi
 104              		.loc 1 30 3 is_stmt 1 view .LVU18
 105              	.LVL4:
 106              	.LBB13:
 107              	.LBI10:
 108              		.loc 2 87 17 view .LVU19
 109              	.LBB12:
ARM GAS  /var/folders/2p/02m_5p7958535cp2tpgps0400000gn/T//ccLxL0oo.s 			page 5


 110              		.loc 2 87 37 view .LVU20
 111              		.loc 2 87 37 is_stmt 0 view .LVU21
 112              	.LBE12:
 113              	.LBE13:
 114              		.loc 1 30 16 view .LVU22
 115 0012 FFF7FEFF 		bl	f_opendir
 116              	.LVL5:
 117              		.loc 1 30 3 view .LVU23
 118 0016 0028     		cmp	r0, #0
 119 0018 44D1     		bne	.L12
 120              	.L5:
  31:AudioFileManager.cpp ****     // DebugPrint(pod_, "failed to open SD card directory");
  32:AudioFileManager.cpp ****     // TODO log error? 
  33:AudioFileManager.cpp ****     return false;
  34:AudioFileManager.cpp ****   }
  35:AudioFileManager.cpp ****   /* loop over files in SD card root directory */
  36:AudioFileManager.cpp ****   while (f_readdir(&dir, &fno) == FR_OK && fno.fname[0]!=0 && file_count_<MAX_FILES){
 121              		.loc 1 36 3 is_stmt 1 view .LVU24
 122              		.loc 1 36 60 view .LVU25
 123              		.loc 1 36 19 is_stmt 0 view .LVU26
 124 001a 0CA9     		add	r1, sp, #48
 125 001c 6846     		mov	r0, sp
 126 001e FFF7FEFF 		bl	f_readdir
 127              	.LVL6:
  37:AudioFileManager.cpp ****     /* skip hidden files / directories */
  38:AudioFileManager.cpp ****     if (!(fno.fattrib & (AM_HID|AM_DIR)) &&
 128              		.loc 1 38 5 is_stmt 1 view .LVU27
  39:AudioFileManager.cpp ****       /* ignore metadata files starting with '._' */
  40:AudioFileManager.cpp ****       strncmp(fno.fname,"._",2)!= 0 && 
 129              		.loc 1 40 14 is_stmt 0 view .LVU28
 130 0022 45F62E72 		movw	r2, #24366
  36:AudioFileManager.cpp ****     /* skip hidden files / directories */
 131              		.loc 1 36 60 view .LVU29
 132 0026 78BB     		cbnz	r0, .L6
 133              	.L22:
  36:AudioFileManager.cpp ****     /* skip hidden files / directories */
 134              		.loc 1 36 41 discriminator 1 view .LVU30
 135 0028 9DF84630 		ldrb	r3, [sp, #70]	@ zero_extendqisi2
 136 002c 63B3     		cbz	r3, .L6
  36:AudioFileManager.cpp ****     /* skip hidden files / directories */
 137              		.loc 1 36 74 discriminator 3 view .LVU31
 138 002e 2C88     		ldrh	r4, [r5]
  36:AudioFileManager.cpp ****     /* skip hidden files / directories */
 139              		.loc 1 36 60 discriminator 3 view .LVU32
 140 0030 1F2C     		cmp	r4, #31
 141 0032 29D8     		bhi	.L6
  38:AudioFileManager.cpp ****       /* ignore metadata files starting with '._' */
 142              		.loc 1 38 5 view .LVU33
 143 0034 9DF83830 		ldrb	r3, [sp, #56]	@ zero_extendqisi2
 144 0038 13F0120F 		tst	r3, #18
 145 003c EDD1     		bne	.L5
 146              		.loc 1 40 14 discriminator 1 view .LVU34
 147 003e BDF84630 		ldrh	r3, [sp, #70]
  41:AudioFileManager.cpp ****       (strstr(fno.fname,".wav") || strstr(fno.fname,".WAV"))){
  42:AudioFileManager.cpp ****           strncpy(names_[file_count_],fno.fname, MAX_FNAME_LEN-1);
 148              		.loc 1 42 37 discriminator 1 view .LVU35
 149 0042 A601     		lsls	r6, r4, #6
ARM GAS  /var/folders/2p/02m_5p7958535cp2tpgps0400000gn/T//ccLxL0oo.s 			page 6


  41:AudioFileManager.cpp ****       (strstr(fno.fname,".wav") || strstr(fno.fname,".WAV"))){
 150              		.loc 1 41 14 discriminator 1 view .LVU36
 151 0044 1A49     		ldr	r1, .L23+4
 152 0046 0DF14600 		add	r0, sp, #70
  40:AudioFileManager.cpp ****       (strstr(fno.fname,".wav") || strstr(fno.fname,".WAV"))){
 153              		.loc 1 40 14 discriminator 1 view .LVU37
 154 004a 9342     		cmp	r3, r2
 155 004c E5D0     		beq	.L5
  41:AudioFileManager.cpp ****       (strstr(fno.fname,".wav") || strstr(fno.fname,".WAV"))){
 156              		.loc 1 41 14 discriminator 1 view .LVU38
 157 004e FFF7FEFF 		bl	strstr
 158              	.LVL7:
 159 0052 0346     		mov	r3, r0
  41:AudioFileManager.cpp ****       (strstr(fno.fname,".wav") || strstr(fno.fname,".WAV"))){
 160              		.loc 1 41 42 discriminator 1 view .LVU39
 161 0054 1749     		ldr	r1, .L23+8
 162 0056 0DF14600 		add	r0, sp, #70
  40:AudioFileManager.cpp ****       (strstr(fno.fname,".wav") || strstr(fno.fname,".WAV"))){
 163              		.loc 1 40 37 discriminator 1 view .LVU40
 164 005a F3B1     		cbz	r3, .L21
 165              	.L11:
 166              		.loc 1 42 11 is_stmt 1 view .LVU41
 167              		.loc 1 42 37 is_stmt 0 view .LVU42
 168 005c 1648     		ldr	r0, .L23+12
 169              		.loc 1 42 18 view .LVU43
 170 005e 3F22     		movs	r2, #63
 171 0060 0DF14601 		add	r1, sp, #70
  43:AudioFileManager.cpp ****           names_[file_count_++][MAX_FNAME_LEN-1]='\0';
 172              		.loc 1 43 49 view .LVU44
 173 0064 2E44     		add	r6, r6, r5
  42:AudioFileManager.cpp ****           names_[file_count_++][MAX_FNAME_LEN-1]='\0';
 174              		.loc 1 42 18 view .LVU45
 175 0066 00EB8410 		add	r0, r0, r4, lsl #6
 176              		.loc 1 43 29 view .LVU46
 177 006a 0134     		adds	r4, r4, #1
  42:AudioFileManager.cpp ****           names_[file_count_++][MAX_FNAME_LEN-1]='\0';
 178              		.loc 1 42 18 view .LVU47
 179 006c FFF7FEFF 		bl	strncpy
 180              	.LVL8:
 181              		.loc 1 43 11 is_stmt 1 view .LVU48
 182              		.loc 1 43 49 is_stmt 0 view .LVU49
 183 0070 0023     		movs	r3, #0
  36:AudioFileManager.cpp ****     /* skip hidden files / directories */
 184              		.loc 1 36 19 view .LVU50
 185 0072 0CA9     		add	r1, sp, #48
 186 0074 6846     		mov	r0, sp
 187              		.loc 1 43 49 view .LVU51
 188 0076 86F84330 		strb	r3, [r6, #67]
  36:AudioFileManager.cpp ****     /* skip hidden files / directories */
 189              		.loc 1 36 3 is_stmt 1 view .LVU52
  36:AudioFileManager.cpp ****     /* skip hidden files / directories */
 190              		.loc 1 36 60 view .LVU53
 191              		.loc 1 43 29 is_stmt 0 view .LVU54
 192 007a 2C80     		strh	r4, [r5]	@ movhi
  36:AudioFileManager.cpp ****     /* skip hidden files / directories */
 193              		.loc 1 36 19 view .LVU55
 194 007c FFF7FEFF 		bl	f_readdir
ARM GAS  /var/folders/2p/02m_5p7958535cp2tpgps0400000gn/T//ccLxL0oo.s 			page 7


 195              	.LVL9:
  38:AudioFileManager.cpp ****       /* ignore metadata files starting with '._' */
 196              		.loc 1 38 5 is_stmt 1 view .LVU56
  40:AudioFileManager.cpp ****       (strstr(fno.fname,".wav") || strstr(fno.fname,".WAV"))){
 197              		.loc 1 40 14 is_stmt 0 view .LVU57
 198 0080 45F62E72 		movw	r2, #24366
  36:AudioFileManager.cpp ****     /* skip hidden files / directories */
 199              		.loc 1 36 60 view .LVU58
 200 0084 0028     		cmp	r0, #0
 201 0086 CFD0     		beq	.L22
 202              	.L6:
  44:AudioFileManager.cpp ****     }
  45:AudioFileManager.cpp ****   }
  46:AudioFileManager.cpp ****   f_closedir(&dir);
 203              		.loc 1 46 3 is_stmt 1 view .LVU59
 204              		.loc 1 46 13 is_stmt 0 view .LVU60
 205 0088 6846     		mov	r0, sp
 206 008a FFF7FEFF 		bl	f_closedir
 207              	.LVL10:
  47:AudioFileManager.cpp ****   // DebugPrint(pod_, "file count is %d",file_count_);
  48:AudioFileManager.cpp ****   return file_count_ >0;
 208              		.loc 1 48 3 is_stmt 1 view .LVU61
 209              		.loc 1 48 23 is_stmt 0 view .LVU62
 210 008e 2888     		ldrh	r0, [r5]
 211 0090 0038     		subs	r0, r0, #0
 212 0092 18BF     		it	ne
 213 0094 0120     		movne	r0, #1
  49:AudioFileManager.cpp **** }
 214              		.loc 1 49 1 view .LVU63
 215 0096 52B0     		add	sp, sp, #328
 216              		.cfi_remember_state
 217              		.cfi_def_cfa_offset 16
 218              		@ sp needed
 219 0098 70BD     		pop	{r4, r5, r6, pc}
 220              	.L21:
 221              		.cfi_restore_state
  41:AudioFileManager.cpp ****           strncpy(names_[file_count_],fno.fname, MAX_FNAME_LEN-1);
 222              		.loc 1 41 42 view .LVU64
 223 009a FFF7FEFF 		bl	strstr
 224              	.LVL11:
  41:AudioFileManager.cpp ****           strncpy(names_[file_count_],fno.fname, MAX_FNAME_LEN-1);
 225              		.loc 1 41 33 view .LVU65
 226 009e 0028     		cmp	r0, #0
 227 00a0 DCD1     		bne	.L11
 228 00a2 BAE7     		b	.L5
 229              	.L12:
  33:AudioFileManager.cpp ****   }
 230              		.loc 1 33 12 view .LVU66
 231 00a4 2046     		mov	r0, r4
 232              		.loc 1 49 1 view .LVU67
 233 00a6 52B0     		add	sp, sp, #328
 234              		.cfi_def_cfa_offset 16
 235              		@ sp needed
 236 00a8 70BD     		pop	{r4, r5, r6, pc}
 237              	.L24:
 238 00aa 00BF     		.align	2
 239              	.L23:
ARM GAS  /var/folders/2p/02m_5p7958535cp2tpgps0400000gn/T//ccLxL0oo.s 			page 8


 240 00ac 00000000 		.word	.LANCHOR0
 241 00b0 04000000 		.word	.LC1
 242 00b4 0C000000 		.word	.LC2
 243 00b8 04000000 		.word	.LANCHOR0+4
 244              		.cfi_endproc
 245              	.LFE2584:
 247              		.section	.text._ZN16AudioFileManager12GetWavHeaderEP3FIL,"ax",%progbits
 248              		.align	1
 249              		.p2align 2,,3
 250              		.global	_ZN16AudioFileManager12GetWavHeaderEP3FIL
 251              		.syntax unified
 252              		.thumb
 253              		.thumb_func
 255              	_ZN16AudioFileManager12GetWavHeaderEP3FIL:
 256              	.LVL12:
 257              	.LFB2586:
  50:AudioFileManager.cpp **** 
  51:AudioFileManager.cpp **** /// @brief Opens a WAV file, gets its header data and loads the audio data
  52:AudioFileManager.cpp **** /// @param sel_idx The index of the selected file in the list of files on the SD card
  53:AudioFileManager.cpp **** /// @return True if file audio data is loaded succesfully
  54:AudioFileManager.cpp **** /// @return False if file fails to load - this could be because:
  55:AudioFileManager.cpp **** ///         - File index is invalid
  56:AudioFileManager.cpp **** ///         - File can't be opened from SD card
  57:AudioFileManager.cpp **** ///         - Bit depth or sample rate values are not supported 
  58:AudioFileManager.cpp **** ///         - Audio data fails to load 
  59:AudioFileManager.cpp **** bool AudioFileManager::LoadFile(uint16_t sel_idx) {
  60:AudioFileManager.cpp ****   if (sel_idx > file_count_) return false;
  61:AudioFileManager.cpp ****   if (sel_idx != curr_idx_) f_close(curr_file_);
  62:AudioFileManager.cpp **** 
  63:AudioFileManager.cpp ****   if (f_open(curr_file_, names_[sel_idx], (FA_OPEN_EXISTING | FA_READ))!=FR_OK) return false;
  64:AudioFileManager.cpp ****   if (!GetWavHeader(curr_file_)||header_.bit_depth!=16||header_.sample_rate!=48000){
  65:AudioFileManager.cpp ****     // DebugPrint(pod_, "wav header parse failed");
  66:AudioFileManager.cpp ****     f_close(curr_file_);
  67:AudioFileManager.cpp ****     return false;
  68:AudioFileManager.cpp ****   }
  69:AudioFileManager.cpp ****   // DebugPrint(pod_, "loading audio data now");
  70:AudioFileManager.cpp ****   return LoadAudioData();
  71:AudioFileManager.cpp **** }
  72:AudioFileManager.cpp **** 
  73:AudioFileManager.cpp **** /// @brief Parses audio format data from a WAV file header
  74:AudioFileManager.cpp **** /// @param file The WAV file to be parsed
  75:AudioFileManager.cpp **** /// @return True if all data is successfully parsed
  76:AudioFileManager.cpp **** /// @return False if file can't be read or data is missing
  77:AudioFileManager.cpp **** bool AudioFileManager::GetWavHeader(FIL* file){
 258              		.loc 1 77 47 is_stmt 1 view -0
 259              		.cfi_startproc
 260              		@ args = 0, pretend = 0, frame = 48
 261              		@ frame_needed = 0, uses_anonymous_args = 0
  78:AudioFileManager.cpp ****   WAV_FormatTypeDef header;
 262              		.loc 1 78 3 view .LVU69
  79:AudioFileManager.cpp ****   UINT bytes_read;
 263              		.loc 1 79 3 view .LVU70
  80:AudioFileManager.cpp ****   FRESULT res = f_read(file, &header, sizeof(WAV_FormatTypeDef),&bytes_read);
 264              		.loc 1 80 3 view .LVU71
  77:AudioFileManager.cpp ****   WAV_FormatTypeDef header;
 265              		.loc 1 77 47 is_stmt 0 view .LVU72
 266 0000 30B5     		push	{r4, r5, lr}
ARM GAS  /var/folders/2p/02m_5p7958535cp2tpgps0400000gn/T//ccLxL0oo.s 			page 9


 267              		.cfi_def_cfa_offset 12
 268              		.cfi_offset 4, -12
 269              		.cfi_offset 5, -8
 270              		.cfi_offset 14, -4
 271 0002 0C46     		mov	r4, r1
 272 0004 8DB0     		sub	sp, sp, #52
 273              		.cfi_def_cfa_offset 64
  77:AudioFileManager.cpp ****   WAV_FormatTypeDef header;
 274              		.loc 1 77 47 view .LVU73
 275 0006 8446     		mov	ip, r0
 276              		.loc 1 80 23 view .LVU74
 277 0008 2C22     		movs	r2, #44
 278 000a 2046     		mov	r0, r4
 279              	.LVL13:
 280              		.loc 1 80 23 view .LVU75
 281 000c 6B46     		mov	r3, sp
 282 000e 01A9     		add	r1, sp, #4
 283              	.LVL14:
  77:AudioFileManager.cpp ****   WAV_FormatTypeDef header;
 284              		.loc 1 77 47 view .LVU76
 285 0010 6446     		mov	r4, ip
 286              		.loc 1 80 23 view .LVU77
 287 0012 FFF7FEFF 		bl	f_read
 288              	.LVL15:
  81:AudioFileManager.cpp ****   if (res != FR_OK || bytes_read != sizeof(WAV_FormatTypeDef)){
 289              		.loc 1 81 3 is_stmt 1 view .LVU78
 290 0016 D0B9     		cbnz	r0, .L30
 291              		.loc 1 81 20 is_stmt 0 discriminator 1 view .LVU79
 292 0018 009B     		ldr	r3, [sp]
 293 001a 2C2B     		cmp	r3, #44
 294 001c 15D1     		bne	.L26
  82:AudioFileManager.cpp ****     return false;
  83:AudioFileManager.cpp ****   }
  84:AudioFileManager.cpp ****   /* here we check each subchunk of the wav file is in the correct location and
  85:AudioFileManager.cpp ****     has the correct identifier - had some problems with weirdly formatted wav files
  86:AudioFileManager.cpp ****     NB: id values here/below are in little endian (usually big endian) */
  87:AudioFileManager.cpp ****   bool checkRIFF = (header.ChunkId == 0x46464952);
 295              		.loc 1 87 3 is_stmt 1 view .LVU80
 296              	.LVL16:
  88:AudioFileManager.cpp ****   bool checkWAV = (header.FileFormat == 0x45564157);
 297              		.loc 1 88 3 view .LVU81
  89:AudioFileManager.cpp ****   bool checkFmt = (header.SubChunk1ID == 0x20746D66);
 298              		.loc 1 89 3 view .LVU82
  90:AudioFileManager.cpp ****   bool checkData = (header.SubChunk2ID == 0x61746164);
 299              		.loc 1 90 3 view .LVU83
  91:AudioFileManager.cpp **** 
  92:AudioFileManager.cpp ****   /* ignore files with invalid riff/fmt header info - not compliant with WAV spec */
  93:AudioFileManager.cpp ****   if (!checkRIFF || !checkWAV) return false;
 300              		.loc 1 93 3 view .LVU84
 301              		.loc 1 93 7 is_stmt 0 view .LVU85
 302 001e 019A     		ldr	r2, [sp, #4]
 303 0020 1D4B     		ldr	r3, .L36
 304              		.loc 1 93 3 view .LVU86
 305 0022 9A42     		cmp	r2, r3
 306 0024 13D1     		bne	.L30
 307              		.loc 1 93 21 view .LVU87
 308 0026 A3F57003 		sub	r3, r3, #15728640
ARM GAS  /var/folders/2p/02m_5p7958535cp2tpgps0400000gn/T//ccLxL0oo.s 			page 10


 309 002a 039A     		ldr	r2, [sp, #12]
 310 002c A3F2FB73 		subw	r3, r3, #2043
 311              		.loc 1 93 3 view .LVU88
 312 0030 9A42     		cmp	r2, r3
 313 0032 0CD1     		bne	.L30
  94:AudioFileManager.cpp ****   if (checkFmt && checkData){
 314              		.loc 1 94 3 is_stmt 1 view .LVU89
  90:AudioFileManager.cpp ****   bool checkData = (header.SubChunk2ID == 0x61746164);
 315              		.loc 1 90 8 is_stmt 0 view .LVU90
 316 0034 1948     		ldr	r0, .L36+4
 317              	.LVL17:
  89:AudioFileManager.cpp ****   bool checkData = (header.SubChunk2ID == 0x61746164);
 318              		.loc 1 89 8 view .LVU91
 319 0036 049B     		ldr	r3, [sp, #16]
 320 0038 1949     		ldr	r1, .L36+8
  90:AudioFileManager.cpp **** 
 321              		.loc 1 90 8 view .LVU92
 322 003a 0A9A     		ldr	r2, [sp, #40]
 323              		.loc 1 94 3 view .LVU93
 324 003c 8B42     		cmp	r3, r1
 325 003e 08BF     		it	eq
 326 0040 8242     		cmpeq	r2, r0
 327 0042 0CBF     		ite	eq
 328 0044 0120     		moveq	r0, #1
 329 0046 0020     		movne	r0, #0
 330 0048 04D0     		beq	.L35
 331              	.LVL18:
 332              	.L26:
  95:AudioFileManager.cpp ****     header_.sample_rate = header.SampleRate;
  96:AudioFileManager.cpp ****     header_.channels = header.NbrChannels;
  97:AudioFileManager.cpp ****     header_.bit_depth = header.BitPerSample;
  98:AudioFileManager.cpp ****     header_.file_size = header.SubCHunk2Size;
  99:AudioFileManager.cpp ****     header_.total_samples = header_.file_size / (header_.bit_depth/8);
 100:AudioFileManager.cpp ****     return f_lseek(curr_file_,audio_data_start_) == FR_OK;
 101:AudioFileManager.cpp ****   }
 102:AudioFileManager.cpp ****   else return false;
 103:AudioFileManager.cpp ****   // if (checkFmt){
 104:AudioFileManager.cpp ****   //   header_.sample_rate = header.SampleRate;
 105:AudioFileManager.cpp ****   //   header_.channels = header.NbrChannels;
 106:AudioFileManager.cpp ****   //   header_.bit_depth = header.BitPerSample;
 107:AudioFileManager.cpp ****   // }
 108:AudioFileManager.cpp ****   // if (checkData){
 109:AudioFileManager.cpp ****   //   header_.file_size = header.SubCHunk2Size;
 110:AudioFileManager.cpp ****   // /* find audio len in samples: http://tiny.systems/software/soundProgrammer/WavFormatDocs.pdf *
 111:AudioFileManager.cpp ****   //   header_.total_samples = header_.file_size / (header_.bit_depth/8);
 112:AudioFileManager.cpp ****   // }
 113:AudioFileManager.cpp ****   // /* otherwise: data chunk may be misplaced, so search within file for it */
 114:AudioFileManager.cpp ****   // if (!checkFmt || !checkData){
 115:AudioFileManager.cpp ****   //   uint32_t chunk_id, chunk_size;
 116:AudioFileManager.cpp ****   //   f_lseek(file, 12); /* skip to usual start of fmt chunk (byte 12) to start looking */
 117:AudioFileManager.cpp ****   //   while (f_read(file, &chunk_id, 4, &bytes_read) == FR_OK && bytes_read == 4) {
 118:AudioFileManager.cpp ****   //     f_read(file, &chunk_size, 4, &bytes_read);
 119:AudioFileManager.cpp ****       
 120:AudioFileManager.cpp ****   //     if (chunk_id==0x20746D66) { /* this is 'fmt' in little endian */
 121:AudioFileManager.cpp ****         
 122:AudioFileManager.cpp ****   //       f_lseek(file, f_tell(file)+6); /* skip chunk size and audio format - 6 bytes */
 123:AudioFileManager.cpp ****   //       /* now get num of channels - 2 bytes*/
ARM GAS  /var/folders/2p/02m_5p7958535cp2tpgps0400000gn/T//ccLxL0oo.s 			page 11


 124:AudioFileManager.cpp ****   //       if (f_read(file, &header_.channels, 2, &bytes_read)!=FR_OK || bytes_read!=2){
 125:AudioFileManager.cpp ****   //         return false;
 126:AudioFileManager.cpp ****   //       }
 127:AudioFileManager.cpp ****   //       /* get sample rate - 4 bytes */
 128:AudioFileManager.cpp ****   //       if (f_read(file, &header_.sample_rate, 4, &bytes_read)!=FR_OK || bytes_read!=4){
 129:AudioFileManager.cpp ****   //         return false;
 130:AudioFileManager.cpp ****   //       }
 131:AudioFileManager.cpp ****   //       f_lseek(file, f_tell(file)+6); /* skip byte rate and block align - 6 bytes */
 132:AudioFileManager.cpp ****   //       /* finally get bit depth - 2 bytes */
 133:AudioFileManager.cpp ****   //       if (f_read(file, &header_.bit_depth, 2, &bytes_read)!=FR_OK || bytes_read!=2){
 134:AudioFileManager.cpp ****   //         return false;
 135:AudioFileManager.cpp ****   //       }
 136:AudioFileManager.cpp ****   //       checkFmt = true;
 137:AudioFileManager.cpp ****   //     }
 138:AudioFileManager.cpp ****   //     else if (chunk_id==0x61746164){ /* this is 'data' in little endian */
 139:AudioFileManager.cpp ****   //       header_.file_size = chunk_size;
 140:AudioFileManager.cpp ****   //       checkData = true;
 141:AudioFileManager.cpp ****   //       break;
 142:AudioFileManager.cpp ****   //     } 
 143:AudioFileManager.cpp ****   //     else {
 144:AudioFileManager.cpp ****   //       f_lseek(file, f_tell(file)+chunk_size);
 145:AudioFileManager.cpp ****   //     }
 146:AudioFileManager.cpp ****   //     if (checkFmt && checkData) break;
 147:AudioFileManager.cpp ****   //   }
 148:AudioFileManager.cpp ****   // }
 149:AudioFileManager.cpp ****   // if (!checkFmt || !checkData) return false;
 150:AudioFileManager.cpp ****   // header_.total_samples = header_.file_size / (header_.bit_depth / 8);
 151:AudioFileManager.cpp ****   // audio_data_start_ = f_tell(file); 
 152:AudioFileManager.cpp ****   // FRESULT seek_res = f_lseek(curr_file_, audio_data_start_);
 153:AudioFileManager.cpp ****   // return seek_res == FR_OK;
 154:AudioFileManager.cpp **** }
 333              		.loc 1 154 1 view .LVU94
 334 004a 0DB0     		add	sp, sp, #52
 335              		.cfi_remember_state
 336              		.cfi_def_cfa_offset 12
 337              		@ sp needed
 338 004c 30BD     		pop	{r4, r5, pc}
 339              	.LVL19:
 340              	.L30:
 341              		.cfi_restore_state
  82:AudioFileManager.cpp ****   }
 342              		.loc 1 82 12 view .LVU95
 343 004e 0020     		movs	r0, #0
 344              	.LVL20:
 345              		.loc 1 154 1 view .LVU96
 346 0050 0DB0     		add	sp, sp, #52
 347              		.cfi_remember_state
 348              		.cfi_def_cfa_offset 12
 349              		@ sp needed
 350 0052 30BD     		pop	{r4, r5, pc}
 351              	.LVL21:
 352              	.L35:
 353              		.cfi_restore_state
  95:AudioFileManager.cpp ****     header_.sample_rate = header.SampleRate;
 354              		.loc 1 95 5 is_stmt 1 view .LVU97
  95:AudioFileManager.cpp ****     header_.sample_rate = header.SampleRate;
 355              		.loc 1 95 25 is_stmt 0 view .LVU98
ARM GAS  /var/folders/2p/02m_5p7958535cp2tpgps0400000gn/T//ccLxL0oo.s 			page 12


 356 0054 134A     		ldr	r2, .L36+12
 357              	.LVL22:
  97:AudioFileManager.cpp ****     header_.file_size = header.SubCHunk2Size;
 358              		.loc 1 97 32 view .LVU99
 359 0056 BDF92630 		ldrsh	r3, [sp, #38]
 360              	.LVL23:
  98:AudioFileManager.cpp ****     header_.total_samples = header_.file_size / (header_.bit_depth/8);
 361              		.loc 1 98 32 view .LVU100
 362 005a 0B9D     		ldr	r5, [sp, #44]
  97:AudioFileManager.cpp ****     header_.file_size = header.SubCHunk2Size;
 363              		.loc 1 97 23 view .LVU101
 364 005c A2F80E38 		strh	r3, [r2, #2062]	@ movhi
  99:AudioFileManager.cpp ****     return f_lseek(curr_file_,audio_data_start_) == FR_OK;
 365              		.loc 1 99 67 view .LVU102
 366 0060 002B     		cmp	r3, #0
  95:AudioFileManager.cpp ****     header_.channels = header.NbrChannels;
 367              		.loc 1 95 25 view .LVU103
 368 0062 0798     		ldr	r0, [sp, #28]
  99:AudioFileManager.cpp ****     return f_lseek(curr_file_,audio_data_start_) == FR_OK;
 369              		.loc 1 99 67 view .LVU104
 370 0064 B8BF     		it	lt
 371 0066 0733     		addlt	r3, r3, #7
  96:AudioFileManager.cpp ****     header_.bit_depth = header.BitPerSample;
 372              		.loc 1 96 22 view .LVU105
 373 0068 BDF81A10 		ldrh	r1, [sp, #26]
  95:AudioFileManager.cpp ****     header_.channels = header.NbrChannels;
 374              		.loc 1 95 25 view .LVU106
 375 006c C2F80408 		str	r0, [r2, #2052]
  96:AudioFileManager.cpp ****     header_.bit_depth = header.BitPerSample;
 376              		.loc 1 96 5 is_stmt 1 view .LVU107
  99:AudioFileManager.cpp ****     return f_lseek(curr_file_,audio_data_start_) == FR_OK;
 377              		.loc 1 99 67 is_stmt 0 view .LVU108
 378 0070 DB10     		asrs	r3, r3, #3
 100:AudioFileManager.cpp ****   }
 379              		.loc 1 100 19 view .LVU109
 380 0072 E068     		ldr	r0, [r4, #12]
  96:AudioFileManager.cpp ****     header_.bit_depth = header.BitPerSample;
 381              		.loc 1 96 22 view .LVU110
 382 0074 A2F80C18 		strh	r1, [r2, #2060]	@ movhi
  97:AudioFileManager.cpp ****     header_.file_size = header.SubCHunk2Size;
 383              		.loc 1 97 5 is_stmt 1 view .LVU111
  98:AudioFileManager.cpp ****     header_.total_samples = header_.file_size / (header_.bit_depth/8);
 384              		.loc 1 98 5 view .LVU112
 100:AudioFileManager.cpp ****   }
 385              		.loc 1 100 19 is_stmt 0 view .LVU113
 386 0078 92F81418 		ldrb	r1, [r2, #2068]	@ zero_extendqisi2
  98:AudioFileManager.cpp ****     header_.total_samples = header_.file_size / (header_.bit_depth/8);
 387              		.loc 1 98 23 view .LVU114
 388 007c C2F80858 		str	r5, [r2, #2056]
  99:AudioFileManager.cpp ****     return f_lseek(curr_file_,audio_data_start_) == FR_OK;
 389              		.loc 1 99 5 is_stmt 1 view .LVU115
  99:AudioFileManager.cpp ****     return f_lseek(curr_file_,audio_data_start_) == FR_OK;
 390              		.loc 1 99 47 is_stmt 0 view .LVU116
 391 0080 B5FBF3F3 		udiv	r3, r5, r3
  99:AudioFileManager.cpp ****     return f_lseek(curr_file_,audio_data_start_) == FR_OK;
 392              		.loc 1 99 27 view .LVU117
 393 0084 C2F81038 		str	r3, [r2, #2064]
ARM GAS  /var/folders/2p/02m_5p7958535cp2tpgps0400000gn/T//ccLxL0oo.s 			page 13


 100:AudioFileManager.cpp ****   }
 394              		.loc 1 100 5 is_stmt 1 view .LVU118
 100:AudioFileManager.cpp ****   }
 395              		.loc 1 100 19 is_stmt 0 view .LVU119
 396 0088 FFF7FEFF 		bl	f_lseek
 397              	.LVL24:
 100:AudioFileManager.cpp ****   }
 398              		.loc 1 100 53 view .LVU120
 399 008c B0FA80F0 		clz	r0, r0
 400 0090 4009     		lsrs	r0, r0, #5
 401              		.loc 1 154 1 view .LVU121
 402 0092 0DB0     		add	sp, sp, #52
 403              		.cfi_def_cfa_offset 12
 404              		@ sp needed
 405 0094 30BD     		pop	{r4, r5, pc}
 406              	.LVL25:
 407              	.L37:
 408              		.loc 1 154 1 view .LVU122
 409 0096 00BF     		.align	2
 410              	.L36:
 411 0098 52494646 		.word	1179011410
 412 009c 64617461 		.word	1635017060
 413 00a0 666D7420 		.word	544501094
 414 00a4 00000000 		.word	.LANCHOR0
 415              		.cfi_endproc
 416              	.LFE2586:
 418              		.section	.text._ZN16AudioFileManager14Load16BitAudioEj,"ax",%progbits
 419              		.align	1
 420              		.p2align 2,,3
 421              		.global	_ZN16AudioFileManager14Load16BitAudioEj
 422              		.syntax unified
 423              		.thumb
 424              		.thumb_func
 426              	_ZN16AudioFileManager14Load16BitAudioEj:
 427              	.LVL26:
 428              	.LFB2588:
 155:AudioFileManager.cpp **** 
 156:AudioFileManager.cpp **** /// @brief Clear data buffers, check file length is within bounds, call audio loader
 157:AudioFileManager.cpp **** /// @return True if audio is loaded, false if file is too long or incorrect bit depth
 158:AudioFileManager.cpp **** bool AudioFileManager::LoadAudioData() {
 159:AudioFileManager.cpp ****   memset(left_buf_, 0.0f, CHNL_BUF_SIZE_ABS);
 160:AudioFileManager.cpp ****   memset(right_buf_, 0.0f, CHNL_BUF_SIZE_ABS);
 161:AudioFileManager.cpp ****   size_t samples_per_channel = GetSamplesPerChannel();
 162:AudioFileManager.cpp **** 
 163:AudioFileManager.cpp ****   if (samples_per_channel > CHNL_BUF_SIZE_SAMPS) return false;
 164:AudioFileManager.cpp **** 
 165:AudioFileManager.cpp ****   return Load16BitAudio(samples_per_channel);
 166:AudioFileManager.cpp **** }
 167:AudioFileManager.cpp **** 
 168:AudioFileManager.cpp **** /// @brief Reads chunks of bytes from audio file into temporary buffer, then into SDRAM
 169:AudioFileManager.cpp **** /// @param samples_per_channel Length of audio in samples, per channel 
 170:AudioFileManager.cpp **** /// @return True if audio is loaded. False if file fails to read
 171:AudioFileManager.cpp **** bool AudioFileManager::Load16BitAudio(size_t samples_per_channel){
 429              		.loc 1 171 66 is_stmt 1 view -0
 430              		.cfi_startproc
 431              		@ args = 0, pretend = 0, frame = 8
 432              		@ frame_needed = 0, uses_anonymous_args = 0
ARM GAS  /var/folders/2p/02m_5p7958535cp2tpgps0400000gn/T//ccLxL0oo.s 			page 14


 172:AudioFileManager.cpp ****   // DebugPrint(pod_,"before buf");
 173:AudioFileManager.cpp ****   // alignas(32) std::vector<int16_t> temp_buf(BUF_CHUNK_SZ*header_.channels);
 174:AudioFileManager.cpp ****   // std::vector<int16_t> temp_buf(BUF_CHUNK_SZ*header_.channels);
 175:AudioFileManager.cpp ****   // int16_t temp_buf[16384]; // stack buffer
 176:AudioFileManager.cpp ****   int16_t* temp_buf = new int16_t[16384]; // heap buffer? try it 
 433              		.loc 1 176 3 view .LVU124
 171:AudioFileManager.cpp ****   // DebugPrint(pod_,"before buf");
 434              		.loc 1 171 66 is_stmt 0 view .LVU125
 435 0000 2DE9F043 		push	{r4, r5, r6, r7, r8, r9, lr}
 436              		.cfi_def_cfa_offset 28
 437              		.cfi_offset 4, -28
 438              		.cfi_offset 5, -24
 439              		.cfi_offset 6, -20
 440              		.cfi_offset 7, -16
 441              		.cfi_offset 8, -12
 442              		.cfi_offset 9, -8
 443              		.cfi_offset 14, -4
 444 0004 0746     		mov	r7, r0
 445 0006 83B0     		sub	sp, sp, #12
 446              		.cfi_def_cfa_offset 40
 447              		.loc 1 176 40 view .LVU126
 448 0008 4FF40040 		mov	r0, #32768
 449              	.LVL27:
 171:AudioFileManager.cpp ****   // DebugPrint(pod_,"before buf");
 450              		.loc 1 171 66 view .LVU127
 451 000c 0E46     		mov	r6, r1
 452              		.loc 1 176 40 view .LVU128
 453 000e FFF7FEFF 		bl	_Znaj
 454              	.LVL28:
 455              		.loc 1 176 40 view .LVU129
 456 0012 8146     		mov	r9, r0
 177:AudioFileManager.cpp ****   size_t samples_read = 0;
 178:AudioFileManager.cpp ****   UINT bytes_read;
 179:AudioFileManager.cpp ****   // DebugPrint(pod_,"starting loading loop");
 180:AudioFileManager.cpp ****   while (!f_eof(curr_file_) && samples_read<samples_per_channel){
 457              		.loc 1 180 11 view .LVU130
 458 0014 F868     		ldr	r0, [r7, #12]
 459              	.LVL29:
 177:AudioFileManager.cpp ****   size_t samples_read = 0;
 460              		.loc 1 177 3 is_stmt 1 view .LVU131
 178:AudioFileManager.cpp ****   // DebugPrint(pod_,"starting loading loop");
 461              		.loc 1 178 3 view .LVU132
 462              		.loc 1 180 3 view .LVU133
 463              		.loc 1 180 29 view .LVU134
 464 0016 C268     		ldr	r2, [r0, #12]
 465 0018 4369     		ldr	r3, [r0, #20]
 466 001a 002E     		cmp	r6, #0
 467 001c 18BF     		it	ne
 468 001e 9A42     		cmpne	r2, r3
 469 0020 0CBF     		ite	eq
 470 0022 4FF00108 		moveq	r8, #1
 471 0026 4FF00008 		movne	r8, #0
 472 002a 4FD0     		beq	.L47
 177:AudioFileManager.cpp ****   size_t samples_read = 0;
 473              		.loc 1 177 10 is_stmt 0 view .LVU135
 474 002c 4546     		mov	r5, r8
 475 002e 2F4C     		ldr	r4, .L53
ARM GAS  /var/folders/2p/02m_5p7958535cp2tpgps0400000gn/T//ccLxL0oo.s 			page 15


 476              	.LVL30:
 477              	.L39:
 478              	.LBB14:
 181:AudioFileManager.cpp ****     // DebugPrint(pod_,"first bit of loading loop");
 182:AudioFileManager.cpp ****     size_t samples_to_read = std::min(static_cast<size_t>(16384), (samples_per_channel-samples_read
 479              		.loc 1 182 5 is_stmt 1 view .LVU136
 480              		.loc 1 182 87 is_stmt 0 view .LVU137
 481 0030 A6EB050C 		sub	ip, r6, r5
 482              	.LVL31:
 483              	.LBB15:
 484              	.LBI15:
 485              		.file 3 "/Library/DaisyToolchain/0.2.0/arm/arm-none-eabi/include/c++/10.3.1/bits/stl_algobase.h"
   1:/Library/DaisyToolchain/0.2.0/arm/arm-none-eabi/include/c++/10.3.1/bits/stl_algobase.h **** // Core algorithmic facilities -*- C++ -*-
   2:/Library/DaisyToolchain/0.2.0/arm/arm-none-eabi/include/c++/10.3.1/bits/stl_algobase.h **** 
   3:/Library/DaisyToolchain/0.2.0/arm/arm-none-eabi/include/c++/10.3.1/bits/stl_algobase.h **** // Copyright (C) 2001-2020 Free Software Foundation, Inc.
   4:/Library/DaisyToolchain/0.2.0/arm/arm-none-eabi/include/c++/10.3.1/bits/stl_algobase.h **** //
   5:/Library/DaisyToolchain/0.2.0/arm/arm-none-eabi/include/c++/10.3.1/bits/stl_algobase.h **** // This file is part of the GNU ISO C++ Library.  This library is free
   6:/Library/DaisyToolchain/0.2.0/arm/arm-none-eabi/include/c++/10.3.1/bits/stl_algobase.h **** // software; you can redistribute it and/or modify it under the
   7:/Library/DaisyToolchain/0.2.0/arm/arm-none-eabi/include/c++/10.3.1/bits/stl_algobase.h **** // terms of the GNU General Public License as published by the
   8:/Library/DaisyToolchain/0.2.0/arm/arm-none-eabi/include/c++/10.3.1/bits/stl_algobase.h **** // Free Software Foundation; either version 3, or (at your option)
   9:/Library/DaisyToolchain/0.2.0/arm/arm-none-eabi/include/c++/10.3.1/bits/stl_algobase.h **** // any later version.
  10:/Library/DaisyToolchain/0.2.0/arm/arm-none-eabi/include/c++/10.3.1/bits/stl_algobase.h **** 
  11:/Library/DaisyToolchain/0.2.0/arm/arm-none-eabi/include/c++/10.3.1/bits/stl_algobase.h **** // This library is distributed in the hope that it will be useful,
  12:/Library/DaisyToolchain/0.2.0/arm/arm-none-eabi/include/c++/10.3.1/bits/stl_algobase.h **** // but WITHOUT ANY WARRANTY; without even the implied warranty of
  13:/Library/DaisyToolchain/0.2.0/arm/arm-none-eabi/include/c++/10.3.1/bits/stl_algobase.h **** // MERCHANTABILITY or FITNESS FOR A PARTICULAR PURPOSE.  See the
  14:/Library/DaisyToolchain/0.2.0/arm/arm-none-eabi/include/c++/10.3.1/bits/stl_algobase.h **** // GNU General Public License for more details.
  15:/Library/DaisyToolchain/0.2.0/arm/arm-none-eabi/include/c++/10.3.1/bits/stl_algobase.h **** 
  16:/Library/DaisyToolchain/0.2.0/arm/arm-none-eabi/include/c++/10.3.1/bits/stl_algobase.h **** // Under Section 7 of GPL version 3, you are granted additional
  17:/Library/DaisyToolchain/0.2.0/arm/arm-none-eabi/include/c++/10.3.1/bits/stl_algobase.h **** // permissions described in the GCC Runtime Library Exception, version
  18:/Library/DaisyToolchain/0.2.0/arm/arm-none-eabi/include/c++/10.3.1/bits/stl_algobase.h **** // 3.1, as published by the Free Software Foundation.
  19:/Library/DaisyToolchain/0.2.0/arm/arm-none-eabi/include/c++/10.3.1/bits/stl_algobase.h **** 
  20:/Library/DaisyToolchain/0.2.0/arm/arm-none-eabi/include/c++/10.3.1/bits/stl_algobase.h **** // You should have received a copy of the GNU General Public License and
  21:/Library/DaisyToolchain/0.2.0/arm/arm-none-eabi/include/c++/10.3.1/bits/stl_algobase.h **** // a copy of the GCC Runtime Library Exception along with this program;
  22:/Library/DaisyToolchain/0.2.0/arm/arm-none-eabi/include/c++/10.3.1/bits/stl_algobase.h **** // see the files COPYING3 and COPYING.RUNTIME respectively.  If not, see
  23:/Library/DaisyToolchain/0.2.0/arm/arm-none-eabi/include/c++/10.3.1/bits/stl_algobase.h **** // <http://www.gnu.org/licenses/>.
  24:/Library/DaisyToolchain/0.2.0/arm/arm-none-eabi/include/c++/10.3.1/bits/stl_algobase.h **** 
  25:/Library/DaisyToolchain/0.2.0/arm/arm-none-eabi/include/c++/10.3.1/bits/stl_algobase.h **** /*
  26:/Library/DaisyToolchain/0.2.0/arm/arm-none-eabi/include/c++/10.3.1/bits/stl_algobase.h ****  *
  27:/Library/DaisyToolchain/0.2.0/arm/arm-none-eabi/include/c++/10.3.1/bits/stl_algobase.h ****  * Copyright (c) 1994
  28:/Library/DaisyToolchain/0.2.0/arm/arm-none-eabi/include/c++/10.3.1/bits/stl_algobase.h ****  * Hewlett-Packard Company
  29:/Library/DaisyToolchain/0.2.0/arm/arm-none-eabi/include/c++/10.3.1/bits/stl_algobase.h ****  *
  30:/Library/DaisyToolchain/0.2.0/arm/arm-none-eabi/include/c++/10.3.1/bits/stl_algobase.h ****  * Permission to use, copy, modify, distribute and sell this software
  31:/Library/DaisyToolchain/0.2.0/arm/arm-none-eabi/include/c++/10.3.1/bits/stl_algobase.h ****  * and its documentation for any purpose is hereby granted without fee,
  32:/Library/DaisyToolchain/0.2.0/arm/arm-none-eabi/include/c++/10.3.1/bits/stl_algobase.h ****  * provided that the above copyright notice appear in all copies and
  33:/Library/DaisyToolchain/0.2.0/arm/arm-none-eabi/include/c++/10.3.1/bits/stl_algobase.h ****  * that both that copyright notice and this permission notice appear
  34:/Library/DaisyToolchain/0.2.0/arm/arm-none-eabi/include/c++/10.3.1/bits/stl_algobase.h ****  * in supporting documentation.  Hewlett-Packard Company makes no
  35:/Library/DaisyToolchain/0.2.0/arm/arm-none-eabi/include/c++/10.3.1/bits/stl_algobase.h ****  * representations about the suitability of this software for any
  36:/Library/DaisyToolchain/0.2.0/arm/arm-none-eabi/include/c++/10.3.1/bits/stl_algobase.h ****  * purpose.  It is provided "as is" without express or implied warranty.
  37:/Library/DaisyToolchain/0.2.0/arm/arm-none-eabi/include/c++/10.3.1/bits/stl_algobase.h ****  *
  38:/Library/DaisyToolchain/0.2.0/arm/arm-none-eabi/include/c++/10.3.1/bits/stl_algobase.h ****  *
  39:/Library/DaisyToolchain/0.2.0/arm/arm-none-eabi/include/c++/10.3.1/bits/stl_algobase.h ****  * Copyright (c) 1996-1998
  40:/Library/DaisyToolchain/0.2.0/arm/arm-none-eabi/include/c++/10.3.1/bits/stl_algobase.h ****  * Silicon Graphics Computer Systems, Inc.
  41:/Library/DaisyToolchain/0.2.0/arm/arm-none-eabi/include/c++/10.3.1/bits/stl_algobase.h ****  *
  42:/Library/DaisyToolchain/0.2.0/arm/arm-none-eabi/include/c++/10.3.1/bits/stl_algobase.h ****  * Permission to use, copy, modify, distribute and sell this software
  43:/Library/DaisyToolchain/0.2.0/arm/arm-none-eabi/include/c++/10.3.1/bits/stl_algobase.h ****  * and its documentation for any purpose is hereby granted without fee,
  44:/Library/DaisyToolchain/0.2.0/arm/arm-none-eabi/include/c++/10.3.1/bits/stl_algobase.h ****  * provided that the above copyright notice appear in all copies and
  45:/Library/DaisyToolchain/0.2.0/arm/arm-none-eabi/include/c++/10.3.1/bits/stl_algobase.h ****  * that both that copyright notice and this permission notice appear
ARM GAS  /var/folders/2p/02m_5p7958535cp2tpgps0400000gn/T//ccLxL0oo.s 			page 16


  46:/Library/DaisyToolchain/0.2.0/arm/arm-none-eabi/include/c++/10.3.1/bits/stl_algobase.h ****  * in supporting documentation.  Silicon Graphics makes no
  47:/Library/DaisyToolchain/0.2.0/arm/arm-none-eabi/include/c++/10.3.1/bits/stl_algobase.h ****  * representations about the suitability of this software for any
  48:/Library/DaisyToolchain/0.2.0/arm/arm-none-eabi/include/c++/10.3.1/bits/stl_algobase.h ****  * purpose.  It is provided "as is" without express or implied warranty.
  49:/Library/DaisyToolchain/0.2.0/arm/arm-none-eabi/include/c++/10.3.1/bits/stl_algobase.h ****  */
  50:/Library/DaisyToolchain/0.2.0/arm/arm-none-eabi/include/c++/10.3.1/bits/stl_algobase.h **** 
  51:/Library/DaisyToolchain/0.2.0/arm/arm-none-eabi/include/c++/10.3.1/bits/stl_algobase.h **** /** @file bits/stl_algobase.h
  52:/Library/DaisyToolchain/0.2.0/arm/arm-none-eabi/include/c++/10.3.1/bits/stl_algobase.h ****  *  This is an internal header file, included by other library headers.
  53:/Library/DaisyToolchain/0.2.0/arm/arm-none-eabi/include/c++/10.3.1/bits/stl_algobase.h ****  *  Do not attempt to use it directly. @headername{algorithm}
  54:/Library/DaisyToolchain/0.2.0/arm/arm-none-eabi/include/c++/10.3.1/bits/stl_algobase.h ****  */
  55:/Library/DaisyToolchain/0.2.0/arm/arm-none-eabi/include/c++/10.3.1/bits/stl_algobase.h **** 
  56:/Library/DaisyToolchain/0.2.0/arm/arm-none-eabi/include/c++/10.3.1/bits/stl_algobase.h **** #ifndef _STL_ALGOBASE_H
  57:/Library/DaisyToolchain/0.2.0/arm/arm-none-eabi/include/c++/10.3.1/bits/stl_algobase.h **** #define _STL_ALGOBASE_H 1
  58:/Library/DaisyToolchain/0.2.0/arm/arm-none-eabi/include/c++/10.3.1/bits/stl_algobase.h **** 
  59:/Library/DaisyToolchain/0.2.0/arm/arm-none-eabi/include/c++/10.3.1/bits/stl_algobase.h **** #include <bits/c++config.h>
  60:/Library/DaisyToolchain/0.2.0/arm/arm-none-eabi/include/c++/10.3.1/bits/stl_algobase.h **** #include <bits/functexcept.h>
  61:/Library/DaisyToolchain/0.2.0/arm/arm-none-eabi/include/c++/10.3.1/bits/stl_algobase.h **** #include <bits/cpp_type_traits.h>
  62:/Library/DaisyToolchain/0.2.0/arm/arm-none-eabi/include/c++/10.3.1/bits/stl_algobase.h **** #include <ext/type_traits.h>
  63:/Library/DaisyToolchain/0.2.0/arm/arm-none-eabi/include/c++/10.3.1/bits/stl_algobase.h **** #include <ext/numeric_traits.h>
  64:/Library/DaisyToolchain/0.2.0/arm/arm-none-eabi/include/c++/10.3.1/bits/stl_algobase.h **** #include <bits/stl_pair.h>
  65:/Library/DaisyToolchain/0.2.0/arm/arm-none-eabi/include/c++/10.3.1/bits/stl_algobase.h **** #include <bits/stl_iterator_base_types.h>
  66:/Library/DaisyToolchain/0.2.0/arm/arm-none-eabi/include/c++/10.3.1/bits/stl_algobase.h **** #include <bits/stl_iterator_base_funcs.h>
  67:/Library/DaisyToolchain/0.2.0/arm/arm-none-eabi/include/c++/10.3.1/bits/stl_algobase.h **** #include <bits/stl_iterator.h>
  68:/Library/DaisyToolchain/0.2.0/arm/arm-none-eabi/include/c++/10.3.1/bits/stl_algobase.h **** #include <bits/concept_check.h>
  69:/Library/DaisyToolchain/0.2.0/arm/arm-none-eabi/include/c++/10.3.1/bits/stl_algobase.h **** #include <debug/debug.h>
  70:/Library/DaisyToolchain/0.2.0/arm/arm-none-eabi/include/c++/10.3.1/bits/stl_algobase.h **** #include <bits/move.h> // For std::swap
  71:/Library/DaisyToolchain/0.2.0/arm/arm-none-eabi/include/c++/10.3.1/bits/stl_algobase.h **** #include <bits/predefined_ops.h>
  72:/Library/DaisyToolchain/0.2.0/arm/arm-none-eabi/include/c++/10.3.1/bits/stl_algobase.h **** #if __cplusplus >= 201103L
  73:/Library/DaisyToolchain/0.2.0/arm/arm-none-eabi/include/c++/10.3.1/bits/stl_algobase.h **** # include <type_traits>
  74:/Library/DaisyToolchain/0.2.0/arm/arm-none-eabi/include/c++/10.3.1/bits/stl_algobase.h **** #endif
  75:/Library/DaisyToolchain/0.2.0/arm/arm-none-eabi/include/c++/10.3.1/bits/stl_algobase.h **** #if __cplusplus > 201703L
  76:/Library/DaisyToolchain/0.2.0/arm/arm-none-eabi/include/c++/10.3.1/bits/stl_algobase.h **** # include <compare>
  77:/Library/DaisyToolchain/0.2.0/arm/arm-none-eabi/include/c++/10.3.1/bits/stl_algobase.h **** #endif
  78:/Library/DaisyToolchain/0.2.0/arm/arm-none-eabi/include/c++/10.3.1/bits/stl_algobase.h **** 
  79:/Library/DaisyToolchain/0.2.0/arm/arm-none-eabi/include/c++/10.3.1/bits/stl_algobase.h **** namespace std _GLIBCXX_VISIBILITY(default)
  80:/Library/DaisyToolchain/0.2.0/arm/arm-none-eabi/include/c++/10.3.1/bits/stl_algobase.h **** {
  81:/Library/DaisyToolchain/0.2.0/arm/arm-none-eabi/include/c++/10.3.1/bits/stl_algobase.h **** _GLIBCXX_BEGIN_NAMESPACE_VERSION
  82:/Library/DaisyToolchain/0.2.0/arm/arm-none-eabi/include/c++/10.3.1/bits/stl_algobase.h **** 
  83:/Library/DaisyToolchain/0.2.0/arm/arm-none-eabi/include/c++/10.3.1/bits/stl_algobase.h ****   /*
  84:/Library/DaisyToolchain/0.2.0/arm/arm-none-eabi/include/c++/10.3.1/bits/stl_algobase.h ****    * A constexpr wrapper for __builtin_memcmp.
  85:/Library/DaisyToolchain/0.2.0/arm/arm-none-eabi/include/c++/10.3.1/bits/stl_algobase.h ****    * @param __num The number of elements of type _Tp (not bytes).
  86:/Library/DaisyToolchain/0.2.0/arm/arm-none-eabi/include/c++/10.3.1/bits/stl_algobase.h ****    */
  87:/Library/DaisyToolchain/0.2.0/arm/arm-none-eabi/include/c++/10.3.1/bits/stl_algobase.h ****   template<typename _Tp, typename _Up>
  88:/Library/DaisyToolchain/0.2.0/arm/arm-none-eabi/include/c++/10.3.1/bits/stl_algobase.h ****     _GLIBCXX14_CONSTEXPR
  89:/Library/DaisyToolchain/0.2.0/arm/arm-none-eabi/include/c++/10.3.1/bits/stl_algobase.h ****     inline int
  90:/Library/DaisyToolchain/0.2.0/arm/arm-none-eabi/include/c++/10.3.1/bits/stl_algobase.h ****     __memcmp(const _Tp* __first1, const _Up* __first2, size_t __num)
  91:/Library/DaisyToolchain/0.2.0/arm/arm-none-eabi/include/c++/10.3.1/bits/stl_algobase.h ****     {
  92:/Library/DaisyToolchain/0.2.0/arm/arm-none-eabi/include/c++/10.3.1/bits/stl_algobase.h **** #if __cplusplus >= 201103L
  93:/Library/DaisyToolchain/0.2.0/arm/arm-none-eabi/include/c++/10.3.1/bits/stl_algobase.h ****       static_assert(sizeof(_Tp) == sizeof(_Up), "can be compared with memcmp");
  94:/Library/DaisyToolchain/0.2.0/arm/arm-none-eabi/include/c++/10.3.1/bits/stl_algobase.h **** #endif
  95:/Library/DaisyToolchain/0.2.0/arm/arm-none-eabi/include/c++/10.3.1/bits/stl_algobase.h **** #ifdef __cpp_lib_is_constant_evaluated
  96:/Library/DaisyToolchain/0.2.0/arm/arm-none-eabi/include/c++/10.3.1/bits/stl_algobase.h ****       if (std::is_constant_evaluated())
  97:/Library/DaisyToolchain/0.2.0/arm/arm-none-eabi/include/c++/10.3.1/bits/stl_algobase.h **** 	{
  98:/Library/DaisyToolchain/0.2.0/arm/arm-none-eabi/include/c++/10.3.1/bits/stl_algobase.h **** 	  for(; __num > 0; ++__first1, ++__first2, --__num)
  99:/Library/DaisyToolchain/0.2.0/arm/arm-none-eabi/include/c++/10.3.1/bits/stl_algobase.h **** 	    if (*__first1 != *__first2)
 100:/Library/DaisyToolchain/0.2.0/arm/arm-none-eabi/include/c++/10.3.1/bits/stl_algobase.h **** 	      return *__first1 < *__first2 ? -1 : 1;
 101:/Library/DaisyToolchain/0.2.0/arm/arm-none-eabi/include/c++/10.3.1/bits/stl_algobase.h **** 	  return 0;
 102:/Library/DaisyToolchain/0.2.0/arm/arm-none-eabi/include/c++/10.3.1/bits/stl_algobase.h **** 	}
ARM GAS  /var/folders/2p/02m_5p7958535cp2tpgps0400000gn/T//ccLxL0oo.s 			page 17


 103:/Library/DaisyToolchain/0.2.0/arm/arm-none-eabi/include/c++/10.3.1/bits/stl_algobase.h ****       else
 104:/Library/DaisyToolchain/0.2.0/arm/arm-none-eabi/include/c++/10.3.1/bits/stl_algobase.h **** #endif
 105:/Library/DaisyToolchain/0.2.0/arm/arm-none-eabi/include/c++/10.3.1/bits/stl_algobase.h **** 	return __builtin_memcmp(__first1, __first2, sizeof(_Tp) * __num);
 106:/Library/DaisyToolchain/0.2.0/arm/arm-none-eabi/include/c++/10.3.1/bits/stl_algobase.h ****     }
 107:/Library/DaisyToolchain/0.2.0/arm/arm-none-eabi/include/c++/10.3.1/bits/stl_algobase.h **** 
 108:/Library/DaisyToolchain/0.2.0/arm/arm-none-eabi/include/c++/10.3.1/bits/stl_algobase.h **** #if __cplusplus < 201103L
 109:/Library/DaisyToolchain/0.2.0/arm/arm-none-eabi/include/c++/10.3.1/bits/stl_algobase.h ****   // See http://gcc.gnu.org/ml/libstdc++/2004-08/msg00167.html: in a
 110:/Library/DaisyToolchain/0.2.0/arm/arm-none-eabi/include/c++/10.3.1/bits/stl_algobase.h ****   // nutshell, we are partially implementing the resolution of DR 187,
 111:/Library/DaisyToolchain/0.2.0/arm/arm-none-eabi/include/c++/10.3.1/bits/stl_algobase.h ****   // when it's safe, i.e., the value_types are equal.
 112:/Library/DaisyToolchain/0.2.0/arm/arm-none-eabi/include/c++/10.3.1/bits/stl_algobase.h ****   template<bool _BoolType>
 113:/Library/DaisyToolchain/0.2.0/arm/arm-none-eabi/include/c++/10.3.1/bits/stl_algobase.h ****     struct __iter_swap
 114:/Library/DaisyToolchain/0.2.0/arm/arm-none-eabi/include/c++/10.3.1/bits/stl_algobase.h ****     {
 115:/Library/DaisyToolchain/0.2.0/arm/arm-none-eabi/include/c++/10.3.1/bits/stl_algobase.h ****       template<typename _ForwardIterator1, typename _ForwardIterator2>
 116:/Library/DaisyToolchain/0.2.0/arm/arm-none-eabi/include/c++/10.3.1/bits/stl_algobase.h **** 	static void
 117:/Library/DaisyToolchain/0.2.0/arm/arm-none-eabi/include/c++/10.3.1/bits/stl_algobase.h **** 	iter_swap(_ForwardIterator1 __a, _ForwardIterator2 __b)
 118:/Library/DaisyToolchain/0.2.0/arm/arm-none-eabi/include/c++/10.3.1/bits/stl_algobase.h **** 	{
 119:/Library/DaisyToolchain/0.2.0/arm/arm-none-eabi/include/c++/10.3.1/bits/stl_algobase.h **** 	  typedef typename iterator_traits<_ForwardIterator1>::value_type
 120:/Library/DaisyToolchain/0.2.0/arm/arm-none-eabi/include/c++/10.3.1/bits/stl_algobase.h **** 	    _ValueType1;
 121:/Library/DaisyToolchain/0.2.0/arm/arm-none-eabi/include/c++/10.3.1/bits/stl_algobase.h **** 	  _ValueType1 __tmp = *__a;
 122:/Library/DaisyToolchain/0.2.0/arm/arm-none-eabi/include/c++/10.3.1/bits/stl_algobase.h **** 	  *__a = *__b;
 123:/Library/DaisyToolchain/0.2.0/arm/arm-none-eabi/include/c++/10.3.1/bits/stl_algobase.h **** 	  *__b = __tmp;
 124:/Library/DaisyToolchain/0.2.0/arm/arm-none-eabi/include/c++/10.3.1/bits/stl_algobase.h **** 	}
 125:/Library/DaisyToolchain/0.2.0/arm/arm-none-eabi/include/c++/10.3.1/bits/stl_algobase.h ****     };
 126:/Library/DaisyToolchain/0.2.0/arm/arm-none-eabi/include/c++/10.3.1/bits/stl_algobase.h **** 
 127:/Library/DaisyToolchain/0.2.0/arm/arm-none-eabi/include/c++/10.3.1/bits/stl_algobase.h ****   template<>
 128:/Library/DaisyToolchain/0.2.0/arm/arm-none-eabi/include/c++/10.3.1/bits/stl_algobase.h ****     struct __iter_swap<true>
 129:/Library/DaisyToolchain/0.2.0/arm/arm-none-eabi/include/c++/10.3.1/bits/stl_algobase.h ****     {
 130:/Library/DaisyToolchain/0.2.0/arm/arm-none-eabi/include/c++/10.3.1/bits/stl_algobase.h ****       template<typename _ForwardIterator1, typename _ForwardIterator2>
 131:/Library/DaisyToolchain/0.2.0/arm/arm-none-eabi/include/c++/10.3.1/bits/stl_algobase.h **** 	static void
 132:/Library/DaisyToolchain/0.2.0/arm/arm-none-eabi/include/c++/10.3.1/bits/stl_algobase.h **** 	iter_swap(_ForwardIterator1 __a, _ForwardIterator2 __b)
 133:/Library/DaisyToolchain/0.2.0/arm/arm-none-eabi/include/c++/10.3.1/bits/stl_algobase.h **** 	{
 134:/Library/DaisyToolchain/0.2.0/arm/arm-none-eabi/include/c++/10.3.1/bits/stl_algobase.h **** 	  swap(*__a, *__b);
 135:/Library/DaisyToolchain/0.2.0/arm/arm-none-eabi/include/c++/10.3.1/bits/stl_algobase.h **** 	}
 136:/Library/DaisyToolchain/0.2.0/arm/arm-none-eabi/include/c++/10.3.1/bits/stl_algobase.h ****     };
 137:/Library/DaisyToolchain/0.2.0/arm/arm-none-eabi/include/c++/10.3.1/bits/stl_algobase.h **** #endif // C++03
 138:/Library/DaisyToolchain/0.2.0/arm/arm-none-eabi/include/c++/10.3.1/bits/stl_algobase.h **** 
 139:/Library/DaisyToolchain/0.2.0/arm/arm-none-eabi/include/c++/10.3.1/bits/stl_algobase.h ****   /**
 140:/Library/DaisyToolchain/0.2.0/arm/arm-none-eabi/include/c++/10.3.1/bits/stl_algobase.h ****    *  @brief Swaps the contents of two iterators.
 141:/Library/DaisyToolchain/0.2.0/arm/arm-none-eabi/include/c++/10.3.1/bits/stl_algobase.h ****    *  @ingroup mutating_algorithms
 142:/Library/DaisyToolchain/0.2.0/arm/arm-none-eabi/include/c++/10.3.1/bits/stl_algobase.h ****    *  @param  __a  An iterator.
 143:/Library/DaisyToolchain/0.2.0/arm/arm-none-eabi/include/c++/10.3.1/bits/stl_algobase.h ****    *  @param  __b  Another iterator.
 144:/Library/DaisyToolchain/0.2.0/arm/arm-none-eabi/include/c++/10.3.1/bits/stl_algobase.h ****    *  @return   Nothing.
 145:/Library/DaisyToolchain/0.2.0/arm/arm-none-eabi/include/c++/10.3.1/bits/stl_algobase.h ****    *
 146:/Library/DaisyToolchain/0.2.0/arm/arm-none-eabi/include/c++/10.3.1/bits/stl_algobase.h ****    *  This function swaps the values pointed to by two iterators, not the
 147:/Library/DaisyToolchain/0.2.0/arm/arm-none-eabi/include/c++/10.3.1/bits/stl_algobase.h ****    *  iterators themselves.
 148:/Library/DaisyToolchain/0.2.0/arm/arm-none-eabi/include/c++/10.3.1/bits/stl_algobase.h ****   */
 149:/Library/DaisyToolchain/0.2.0/arm/arm-none-eabi/include/c++/10.3.1/bits/stl_algobase.h ****   template<typename _ForwardIterator1, typename _ForwardIterator2>
 150:/Library/DaisyToolchain/0.2.0/arm/arm-none-eabi/include/c++/10.3.1/bits/stl_algobase.h ****     _GLIBCXX20_CONSTEXPR
 151:/Library/DaisyToolchain/0.2.0/arm/arm-none-eabi/include/c++/10.3.1/bits/stl_algobase.h ****     inline void
 152:/Library/DaisyToolchain/0.2.0/arm/arm-none-eabi/include/c++/10.3.1/bits/stl_algobase.h ****     iter_swap(_ForwardIterator1 __a, _ForwardIterator2 __b)
 153:/Library/DaisyToolchain/0.2.0/arm/arm-none-eabi/include/c++/10.3.1/bits/stl_algobase.h ****     {
 154:/Library/DaisyToolchain/0.2.0/arm/arm-none-eabi/include/c++/10.3.1/bits/stl_algobase.h ****       // concept requirements
 155:/Library/DaisyToolchain/0.2.0/arm/arm-none-eabi/include/c++/10.3.1/bits/stl_algobase.h ****       __glibcxx_function_requires(_Mutable_ForwardIteratorConcept<
 156:/Library/DaisyToolchain/0.2.0/arm/arm-none-eabi/include/c++/10.3.1/bits/stl_algobase.h **** 				  _ForwardIterator1>)
 157:/Library/DaisyToolchain/0.2.0/arm/arm-none-eabi/include/c++/10.3.1/bits/stl_algobase.h ****       __glibcxx_function_requires(_Mutable_ForwardIteratorConcept<
 158:/Library/DaisyToolchain/0.2.0/arm/arm-none-eabi/include/c++/10.3.1/bits/stl_algobase.h **** 				  _ForwardIterator2>)
 159:/Library/DaisyToolchain/0.2.0/arm/arm-none-eabi/include/c++/10.3.1/bits/stl_algobase.h **** 
ARM GAS  /var/folders/2p/02m_5p7958535cp2tpgps0400000gn/T//ccLxL0oo.s 			page 18


 160:/Library/DaisyToolchain/0.2.0/arm/arm-none-eabi/include/c++/10.3.1/bits/stl_algobase.h **** #if __cplusplus < 201103L
 161:/Library/DaisyToolchain/0.2.0/arm/arm-none-eabi/include/c++/10.3.1/bits/stl_algobase.h ****       typedef typename iterator_traits<_ForwardIterator1>::value_type
 162:/Library/DaisyToolchain/0.2.0/arm/arm-none-eabi/include/c++/10.3.1/bits/stl_algobase.h **** 	_ValueType1;
 163:/Library/DaisyToolchain/0.2.0/arm/arm-none-eabi/include/c++/10.3.1/bits/stl_algobase.h ****       typedef typename iterator_traits<_ForwardIterator2>::value_type
 164:/Library/DaisyToolchain/0.2.0/arm/arm-none-eabi/include/c++/10.3.1/bits/stl_algobase.h **** 	_ValueType2;
 165:/Library/DaisyToolchain/0.2.0/arm/arm-none-eabi/include/c++/10.3.1/bits/stl_algobase.h **** 
 166:/Library/DaisyToolchain/0.2.0/arm/arm-none-eabi/include/c++/10.3.1/bits/stl_algobase.h ****       __glibcxx_function_requires(_ConvertibleConcept<_ValueType1,
 167:/Library/DaisyToolchain/0.2.0/arm/arm-none-eabi/include/c++/10.3.1/bits/stl_algobase.h **** 				  _ValueType2>)
 168:/Library/DaisyToolchain/0.2.0/arm/arm-none-eabi/include/c++/10.3.1/bits/stl_algobase.h ****       __glibcxx_function_requires(_ConvertibleConcept<_ValueType2,
 169:/Library/DaisyToolchain/0.2.0/arm/arm-none-eabi/include/c++/10.3.1/bits/stl_algobase.h **** 				  _ValueType1>)
 170:/Library/DaisyToolchain/0.2.0/arm/arm-none-eabi/include/c++/10.3.1/bits/stl_algobase.h **** 
 171:/Library/DaisyToolchain/0.2.0/arm/arm-none-eabi/include/c++/10.3.1/bits/stl_algobase.h ****       typedef typename iterator_traits<_ForwardIterator1>::reference
 172:/Library/DaisyToolchain/0.2.0/arm/arm-none-eabi/include/c++/10.3.1/bits/stl_algobase.h **** 	_ReferenceType1;
 173:/Library/DaisyToolchain/0.2.0/arm/arm-none-eabi/include/c++/10.3.1/bits/stl_algobase.h ****       typedef typename iterator_traits<_ForwardIterator2>::reference
 174:/Library/DaisyToolchain/0.2.0/arm/arm-none-eabi/include/c++/10.3.1/bits/stl_algobase.h **** 	_ReferenceType2;
 175:/Library/DaisyToolchain/0.2.0/arm/arm-none-eabi/include/c++/10.3.1/bits/stl_algobase.h ****       std::__iter_swap<__are_same<_ValueType1, _ValueType2>::__value
 176:/Library/DaisyToolchain/0.2.0/arm/arm-none-eabi/include/c++/10.3.1/bits/stl_algobase.h **** 	&& __are_same<_ValueType1&, _ReferenceType1>::__value
 177:/Library/DaisyToolchain/0.2.0/arm/arm-none-eabi/include/c++/10.3.1/bits/stl_algobase.h **** 	&& __are_same<_ValueType2&, _ReferenceType2>::__value>::
 178:/Library/DaisyToolchain/0.2.0/arm/arm-none-eabi/include/c++/10.3.1/bits/stl_algobase.h **** 	iter_swap(__a, __b);
 179:/Library/DaisyToolchain/0.2.0/arm/arm-none-eabi/include/c++/10.3.1/bits/stl_algobase.h **** #else
 180:/Library/DaisyToolchain/0.2.0/arm/arm-none-eabi/include/c++/10.3.1/bits/stl_algobase.h ****       // _GLIBCXX_RESOLVE_LIB_DEFECTS
 181:/Library/DaisyToolchain/0.2.0/arm/arm-none-eabi/include/c++/10.3.1/bits/stl_algobase.h ****       // 187. iter_swap underspecified
 182:/Library/DaisyToolchain/0.2.0/arm/arm-none-eabi/include/c++/10.3.1/bits/stl_algobase.h ****       swap(*__a, *__b);
 183:/Library/DaisyToolchain/0.2.0/arm/arm-none-eabi/include/c++/10.3.1/bits/stl_algobase.h **** #endif
 184:/Library/DaisyToolchain/0.2.0/arm/arm-none-eabi/include/c++/10.3.1/bits/stl_algobase.h ****     }
 185:/Library/DaisyToolchain/0.2.0/arm/arm-none-eabi/include/c++/10.3.1/bits/stl_algobase.h **** 
 186:/Library/DaisyToolchain/0.2.0/arm/arm-none-eabi/include/c++/10.3.1/bits/stl_algobase.h ****   /**
 187:/Library/DaisyToolchain/0.2.0/arm/arm-none-eabi/include/c++/10.3.1/bits/stl_algobase.h ****    *  @brief Swap the elements of two sequences.
 188:/Library/DaisyToolchain/0.2.0/arm/arm-none-eabi/include/c++/10.3.1/bits/stl_algobase.h ****    *  @ingroup mutating_algorithms
 189:/Library/DaisyToolchain/0.2.0/arm/arm-none-eabi/include/c++/10.3.1/bits/stl_algobase.h ****    *  @param  __first1  A forward iterator.
 190:/Library/DaisyToolchain/0.2.0/arm/arm-none-eabi/include/c++/10.3.1/bits/stl_algobase.h ****    *  @param  __last1   A forward iterator.
 191:/Library/DaisyToolchain/0.2.0/arm/arm-none-eabi/include/c++/10.3.1/bits/stl_algobase.h ****    *  @param  __first2  A forward iterator.
 192:/Library/DaisyToolchain/0.2.0/arm/arm-none-eabi/include/c++/10.3.1/bits/stl_algobase.h ****    *  @return   An iterator equal to @p first2+(last1-first1).
 193:/Library/DaisyToolchain/0.2.0/arm/arm-none-eabi/include/c++/10.3.1/bits/stl_algobase.h ****    *
 194:/Library/DaisyToolchain/0.2.0/arm/arm-none-eabi/include/c++/10.3.1/bits/stl_algobase.h ****    *  Swaps each element in the range @p [first1,last1) with the
 195:/Library/DaisyToolchain/0.2.0/arm/arm-none-eabi/include/c++/10.3.1/bits/stl_algobase.h ****    *  corresponding element in the range @p [first2,(last1-first1)).
 196:/Library/DaisyToolchain/0.2.0/arm/arm-none-eabi/include/c++/10.3.1/bits/stl_algobase.h ****    *  The ranges must not overlap.
 197:/Library/DaisyToolchain/0.2.0/arm/arm-none-eabi/include/c++/10.3.1/bits/stl_algobase.h ****   */
 198:/Library/DaisyToolchain/0.2.0/arm/arm-none-eabi/include/c++/10.3.1/bits/stl_algobase.h ****   template<typename _ForwardIterator1, typename _ForwardIterator2>
 199:/Library/DaisyToolchain/0.2.0/arm/arm-none-eabi/include/c++/10.3.1/bits/stl_algobase.h ****     _GLIBCXX20_CONSTEXPR
 200:/Library/DaisyToolchain/0.2.0/arm/arm-none-eabi/include/c++/10.3.1/bits/stl_algobase.h ****     _ForwardIterator2
 201:/Library/DaisyToolchain/0.2.0/arm/arm-none-eabi/include/c++/10.3.1/bits/stl_algobase.h ****     swap_ranges(_ForwardIterator1 __first1, _ForwardIterator1 __last1,
 202:/Library/DaisyToolchain/0.2.0/arm/arm-none-eabi/include/c++/10.3.1/bits/stl_algobase.h **** 		_ForwardIterator2 __first2)
 203:/Library/DaisyToolchain/0.2.0/arm/arm-none-eabi/include/c++/10.3.1/bits/stl_algobase.h ****     {
 204:/Library/DaisyToolchain/0.2.0/arm/arm-none-eabi/include/c++/10.3.1/bits/stl_algobase.h ****       // concept requirements
 205:/Library/DaisyToolchain/0.2.0/arm/arm-none-eabi/include/c++/10.3.1/bits/stl_algobase.h ****       __glibcxx_function_requires(_Mutable_ForwardIteratorConcept<
 206:/Library/DaisyToolchain/0.2.0/arm/arm-none-eabi/include/c++/10.3.1/bits/stl_algobase.h **** 				  _ForwardIterator1>)
 207:/Library/DaisyToolchain/0.2.0/arm/arm-none-eabi/include/c++/10.3.1/bits/stl_algobase.h ****       __glibcxx_function_requires(_Mutable_ForwardIteratorConcept<
 208:/Library/DaisyToolchain/0.2.0/arm/arm-none-eabi/include/c++/10.3.1/bits/stl_algobase.h **** 				  _ForwardIterator2>)
 209:/Library/DaisyToolchain/0.2.0/arm/arm-none-eabi/include/c++/10.3.1/bits/stl_algobase.h ****       __glibcxx_requires_valid_range(__first1, __last1);
 210:/Library/DaisyToolchain/0.2.0/arm/arm-none-eabi/include/c++/10.3.1/bits/stl_algobase.h **** 
 211:/Library/DaisyToolchain/0.2.0/arm/arm-none-eabi/include/c++/10.3.1/bits/stl_algobase.h ****       for (; __first1 != __last1; ++__first1, (void)++__first2)
 212:/Library/DaisyToolchain/0.2.0/arm/arm-none-eabi/include/c++/10.3.1/bits/stl_algobase.h **** 	std::iter_swap(__first1, __first2);
 213:/Library/DaisyToolchain/0.2.0/arm/arm-none-eabi/include/c++/10.3.1/bits/stl_algobase.h ****       return __first2;
 214:/Library/DaisyToolchain/0.2.0/arm/arm-none-eabi/include/c++/10.3.1/bits/stl_algobase.h ****     }
 215:/Library/DaisyToolchain/0.2.0/arm/arm-none-eabi/include/c++/10.3.1/bits/stl_algobase.h **** 
 216:/Library/DaisyToolchain/0.2.0/arm/arm-none-eabi/include/c++/10.3.1/bits/stl_algobase.h ****   /**
ARM GAS  /var/folders/2p/02m_5p7958535cp2tpgps0400000gn/T//ccLxL0oo.s 			page 19


 217:/Library/DaisyToolchain/0.2.0/arm/arm-none-eabi/include/c++/10.3.1/bits/stl_algobase.h ****    *  @brief This does what you think it does.
 218:/Library/DaisyToolchain/0.2.0/arm/arm-none-eabi/include/c++/10.3.1/bits/stl_algobase.h ****    *  @ingroup sorting_algorithms
 219:/Library/DaisyToolchain/0.2.0/arm/arm-none-eabi/include/c++/10.3.1/bits/stl_algobase.h ****    *  @param  __a  A thing of arbitrary type.
 220:/Library/DaisyToolchain/0.2.0/arm/arm-none-eabi/include/c++/10.3.1/bits/stl_algobase.h ****    *  @param  __b  Another thing of arbitrary type.
 221:/Library/DaisyToolchain/0.2.0/arm/arm-none-eabi/include/c++/10.3.1/bits/stl_algobase.h ****    *  @return   The lesser of the parameters.
 222:/Library/DaisyToolchain/0.2.0/arm/arm-none-eabi/include/c++/10.3.1/bits/stl_algobase.h ****    *
 223:/Library/DaisyToolchain/0.2.0/arm/arm-none-eabi/include/c++/10.3.1/bits/stl_algobase.h ****    *  This is the simple classic generic implementation.  It will work on
 224:/Library/DaisyToolchain/0.2.0/arm/arm-none-eabi/include/c++/10.3.1/bits/stl_algobase.h ****    *  temporary expressions, since they are only evaluated once, unlike a
 225:/Library/DaisyToolchain/0.2.0/arm/arm-none-eabi/include/c++/10.3.1/bits/stl_algobase.h ****    *  preprocessor macro.
 226:/Library/DaisyToolchain/0.2.0/arm/arm-none-eabi/include/c++/10.3.1/bits/stl_algobase.h ****   */
 227:/Library/DaisyToolchain/0.2.0/arm/arm-none-eabi/include/c++/10.3.1/bits/stl_algobase.h ****   template<typename _Tp>
 228:/Library/DaisyToolchain/0.2.0/arm/arm-none-eabi/include/c++/10.3.1/bits/stl_algobase.h ****     _GLIBCXX14_CONSTEXPR
 229:/Library/DaisyToolchain/0.2.0/arm/arm-none-eabi/include/c++/10.3.1/bits/stl_algobase.h ****     inline const _Tp&
 230:/Library/DaisyToolchain/0.2.0/arm/arm-none-eabi/include/c++/10.3.1/bits/stl_algobase.h ****     min(const _Tp& __a, const _Tp& __b)
 486              		.loc 3 230 5 is_stmt 1 view .LVU138
 487              	.LBE15:
 183:AudioFileManager.cpp ****     // size_t bytes_to_read = samples_to_read * header_.channels * sizeof(int16_t);
 184:AudioFileManager.cpp ****     
 185:AudioFileManager.cpp ****     if (f_read(curr_file_, temp_buf, samples_to_read*header_.channels * sizeof(int16_t), &bytes_rea
 488              		.loc 1 185 62 is_stmt 0 view .LVU139
 489 0034 B4F90C28 		ldrsh	r2, [r4, #2060]
 490              		.loc 1 185 15 view .LVU140
 491 0038 01AB     		add	r3, sp, #4
 492 003a 4946     		mov	r1, r9
 493              	.LBB17:
 494              	.LBB16:
 231:/Library/DaisyToolchain/0.2.0/arm/arm-none-eabi/include/c++/10.3.1/bits/stl_algobase.h ****     {
 232:/Library/DaisyToolchain/0.2.0/arm/arm-none-eabi/include/c++/10.3.1/bits/stl_algobase.h ****       // concept requirements
 233:/Library/DaisyToolchain/0.2.0/arm/arm-none-eabi/include/c++/10.3.1/bits/stl_algobase.h ****       __glibcxx_function_requires(_LessThanComparableConcept<_Tp>)
 234:/Library/DaisyToolchain/0.2.0/arm/arm-none-eabi/include/c++/10.3.1/bits/stl_algobase.h ****       //return __b < __a ? __b : __a;
 235:/Library/DaisyToolchain/0.2.0/arm/arm-none-eabi/include/c++/10.3.1/bits/stl_algobase.h ****       if (__b < __a)
 236:/Library/DaisyToolchain/0.2.0/arm/arm-none-eabi/include/c++/10.3.1/bits/stl_algobase.h **** 	return __b;
 237:/Library/DaisyToolchain/0.2.0/arm/arm-none-eabi/include/c++/10.3.1/bits/stl_algobase.h ****       return __a;
 495              		.loc 3 237 14 view .LVU141
 496 003c BCF5804F 		cmp	ip, #16384
 497 0040 28BF     		it	cs
 498 0042 4FF4804C 		movcs	ip, #16384
 499              	.LVL32:
 500              		.loc 3 237 14 view .LVU142
 501              	.LBE16:
 502              	.LBE17:
 503              		.loc 1 185 5 is_stmt 1 view .LVU143
 504              		.loc 1 185 15 is_stmt 0 view .LVU144
 505 0046 0CFB02F2 		mul	r2, ip, r2
 506 004a 5200     		lsls	r2, r2, #1
 507 004c FFF7FEFF 		bl	f_read
 508              	.LVL33:
 509              		.loc 1 185 5 view .LVU145
 510 0050 0028     		cmp	r0, #0
 511 0052 44D1     		bne	.L51
 186:AudioFileManager.cpp ****       delete[] temp_buf;
 187:AudioFileManager.cpp ****       // DebugPrint(pod_, "failed to fread");
 188:AudioFileManager.cpp ****       return false;
 189:AudioFileManager.cpp ****     }
 190:AudioFileManager.cpp **** 
 191:AudioFileManager.cpp ****     size_t samples_in_chunk = bytes_read / (header_.channels * sizeof(int16_t));
 512              		.loc 1 191 5 is_stmt 1 view .LVU146
ARM GAS  /var/folders/2p/02m_5p7958535cp2tpgps0400000gn/T//ccLxL0oo.s 			page 20


 513              		.loc 1 191 53 is_stmt 0 view .LVU147
 514 0054 B4F90C18 		ldrsh	r1, [r4, #2060]
 515              		.loc 1 191 42 view .LVU148
 516 0058 019A     		ldr	r2, [sp, #4]
 517              		.loc 1 191 62 view .LVU149
 518 005a 4B00     		lsls	r3, r1, #1
 519              	.LBB18:
 192:AudioFileManager.cpp ****     for (size_t i=0; i<samples_in_chunk; i++){
 520              		.loc 1 192 23 view .LVU150
 521 005c 9A42     		cmp	r2, r3
 522              	.LBE18:
 191:AudioFileManager.cpp ****     for (size_t i=0; i<samples_in_chunk; i++){
 523              		.loc 1 191 12 view .LVU151
 524 005e B2FBF3FE 		udiv	lr, r2, r3
 525              	.LVL34:
 526              		.loc 1 192 5 is_stmt 1 view .LVU152
 527              	.LBB19:
 528              		.loc 1 192 23 view .LVU153
 529 0062 2BD3     		bcc	.L43
 193:AudioFileManager.cpp ****       if (header_.channels == 1){
 194:AudioFileManager.cpp ****         left_buf_[i+samples_read] = right_buf_[i+samples_read] = temp_buf[i];
 195:AudioFileManager.cpp ****       }
 196:AudioFileManager.cpp ****       else {
 197:AudioFileManager.cpp ****         left_buf_[i+samples_read] = temp_buf[i * 2];
 198:AudioFileManager.cpp ****         right_buf_[i+samples_read] = temp_buf[i * 2 + 1];
 530              		.loc 1 198 34 is_stmt 0 view .LVU154
 531 0064 DFF88CC0 		ldr	ip, .L53+8
 192:AudioFileManager.cpp ****       if (header_.channels == 1){
 532              		.loc 1 192 17 view .LVU155
 533 0068 0346     		mov	r3, r0
 197:AudioFileManager.cpp ****         right_buf_[i+samples_read] = temp_buf[i * 2 + 1];
 534              		.loc 1 197 33 view .LVU156
 535 006a 214A     		ldr	r2, .L53+4
 536 006c DCF80000 		ldr	r0, [ip]
 537 0070 1268     		ldr	r2, [r2]
 538 0072 00EB450C 		add	ip, r0, r5, lsl #1
 539 0076 02EB4502 		add	r2, r2, r5, lsl #1
 540 007a 0FE0     		b	.L46
 541              	.LVL35:
 542              	.L44:
 197:AudioFileManager.cpp ****         right_buf_[i+samples_read] = temp_buf[i * 2 + 1];
 543              		.loc 1 197 51 view .LVU157
 544 007c 39F92310 		ldrsh	r1, [r9, r3, lsl #2]
 192:AudioFileManager.cpp ****       if (header_.channels == 1){
 545              		.loc 1 192 23 view .LVU158
 546 0080 0CF1020C 		add	ip, ip, #2
 547 0084 0232     		adds	r2, r2, #2
 197:AudioFileManager.cpp ****         right_buf_[i+samples_read] = temp_buf[i * 2 + 1];
 548              		.loc 1 197 35 view .LVU159
 549 0086 22F8021C 		strh	r1, [r2, #-2]	@ movhi
 550              		.loc 1 198 9 is_stmt 1 view .LVU160
 551              		.loc 1 198 56 is_stmt 0 view .LVU161
 552 008a 30F92310 		ldrsh	r1, [r0, r3, lsl #2]
 192:AudioFileManager.cpp ****       if (header_.channels == 1){
 553              		.loc 1 192 5 view .LVU162
 554 008e 0133     		adds	r3, r3, #1
 555              	.LVL36:
ARM GAS  /var/folders/2p/02m_5p7958535cp2tpgps0400000gn/T//ccLxL0oo.s 			page 21


 192:AudioFileManager.cpp ****       if (header_.channels == 1){
 556              		.loc 1 192 23 view .LVU163
 557 0090 9E45     		cmp	lr, r3
 558              		.loc 1 198 36 view .LVU164
 559 0092 2CF8021C 		strh	r1, [ip, #-2]	@ movhi
 192:AudioFileManager.cpp ****       if (header_.channels == 1){
 560              		.loc 1 192 5 is_stmt 1 view .LVU165
 561              	.LVL37:
 192:AudioFileManager.cpp ****       if (header_.channels == 1){
 562              		.loc 1 192 23 view .LVU166
 563 0096 11D9     		bls	.L43
 564              	.L52:
 193:AudioFileManager.cpp ****       if (header_.channels == 1){
 565              		.loc 1 193 19 is_stmt 0 view .LVU167
 566 0098 B4F90C18 		ldrsh	r1, [r4, #2060]
 567              	.LVL38:
 568              	.L46:
 193:AudioFileManager.cpp ****       if (header_.channels == 1){
 569              		.loc 1 193 7 is_stmt 1 view .LVU168
 197:AudioFileManager.cpp ****         right_buf_[i+samples_read] = temp_buf[i * 2 + 1];
 570              		.loc 1 197 9 view .LVU169
 193:AudioFileManager.cpp ****       if (header_.channels == 1){
 571              		.loc 1 193 7 is_stmt 0 view .LVU170
 572 009c 0129     		cmp	r1, #1
 573              		.loc 1 198 56 view .LVU171
 574 009e 09F10200 		add	r0, r9, #2
 193:AudioFileManager.cpp ****       if (header_.channels == 1){
 575              		.loc 1 193 7 view .LVU172
 576 00a2 EBD1     		bne	.L44
 194:AudioFileManager.cpp ****       }
 577              		.loc 1 194 9 is_stmt 1 view .LVU173
 194:AudioFileManager.cpp ****       }
 578              		.loc 1 194 76 is_stmt 0 view .LVU174
 579 00a4 39F91310 		ldrsh	r1, [r9, r3, lsl #1]
 192:AudioFileManager.cpp ****       if (header_.channels == 1){
 580              		.loc 1 192 5 view .LVU175
 581 00a8 0133     		adds	r3, r3, #1
 582              	.LVL39:
 192:AudioFileManager.cpp ****       if (header_.channels == 1){
 583              		.loc 1 192 23 view .LVU176
 584 00aa 0CF1020C 		add	ip, ip, #2
 585 00ae 0232     		adds	r2, r2, #2
 586 00b0 9E45     		cmp	lr, r3
 194:AudioFileManager.cpp ****       }
 587              		.loc 1 194 64 view .LVU177
 588 00b2 2CF8021C 		strh	r1, [ip, #-2]	@ movhi
 194:AudioFileManager.cpp ****       }
 589              		.loc 1 194 35 view .LVU178
 590 00b6 22F8021C 		strh	r1, [r2, #-2]	@ movhi
 192:AudioFileManager.cpp ****       if (header_.channels == 1){
 591              		.loc 1 192 5 is_stmt 1 view .LVU179
 592              	.LVL40:
 192:AudioFileManager.cpp ****       if (header_.channels == 1){
 593              		.loc 1 192 23 view .LVU180
 594 00ba EDD8     		bhi	.L52
 595              	.LVL41:
 596              	.L43:
ARM GAS  /var/folders/2p/02m_5p7958535cp2tpgps0400000gn/T//ccLxL0oo.s 			page 22


 192:AudioFileManager.cpp ****       if (header_.channels == 1){
 597              		.loc 1 192 23 is_stmt 0 view .LVU181
 598              	.LBE19:
 199:AudioFileManager.cpp ****       }
 200:AudioFileManager.cpp ****     }
 201:AudioFileManager.cpp ****     samples_read += samples_in_chunk;
 599              		.loc 1 201 5 is_stmt 1 view .LVU182
 600              	.LBE14:
 180:AudioFileManager.cpp ****     // DebugPrint(pod_,"first bit of loading loop");
 601              		.loc 1 180 11 is_stmt 0 view .LVU183
 602 00bc F868     		ldr	r0, [r7, #12]
 603              	.LBB20:
 604              		.loc 1 201 18 view .LVU184
 605 00be 7544     		add	r5, r5, lr
 606              	.LVL42:
 607              		.loc 1 201 18 view .LVU185
 608              	.LBE20:
 178:AudioFileManager.cpp ****   // DebugPrint(pod_,"starting loading loop");
 609              		.loc 1 178 3 is_stmt 1 view .LVU186
 180:AudioFileManager.cpp ****     // DebugPrint(pod_,"first bit of loading loop");
 610              		.loc 1 180 3 view .LVU187
 180:AudioFileManager.cpp ****     // DebugPrint(pod_,"first bit of loading loop");
 611              		.loc 1 180 29 view .LVU188
 612 00c0 4269     		ldr	r2, [r0, #20]
 613 00c2 C368     		ldr	r3, [r0, #12]
 614 00c4 9A42     		cmp	r2, r3
 615 00c6 01D0     		beq	.L47
 616 00c8 AE42     		cmp	r6, r5
 617 00ca B1D8     		bhi	.L39
 618              	.LVL43:
 619              	.L47:
 202:AudioFileManager.cpp ****   }
 203:AudioFileManager.cpp ****   // DebugPrint(pod_,"end of loading loop - loaded ok");
 204:AudioFileManager.cpp ****   delete[] temp_buf;
 620              		.loc 1 204 3 view .LVU189
 205:AudioFileManager.cpp ****   return true;
 621              		.loc 1 205 10 is_stmt 0 view .LVU190
 622 00cc 4FF00108 		mov	r8, #1
 204:AudioFileManager.cpp ****   return true;
 623              		.loc 1 204 12 view .LVU191
 624 00d0 4846     		mov	r0, r9
 625 00d2 FFF7FEFF 		bl	_ZdaPv
 626              	.LVL44:
 627              		.loc 1 205 3 is_stmt 1 view .LVU192
 206:AudioFileManager.cpp **** }
 628              		.loc 1 206 1 is_stmt 0 view .LVU193
 629 00d6 4046     		mov	r0, r8
 630 00d8 03B0     		add	sp, sp, #12
 631              		.cfi_remember_state
 632              		.cfi_def_cfa_offset 28
 633              		@ sp needed
 634 00da BDE8F083 		pop	{r4, r5, r6, r7, r8, r9, pc}
 635              	.LVL45:
 636              	.L51:
 637              		.cfi_restore_state
 638              	.LBB21:
 186:AudioFileManager.cpp ****       // DebugPrint(pod_, "failed to fread");
ARM GAS  /var/folders/2p/02m_5p7958535cp2tpgps0400000gn/T//ccLxL0oo.s 			page 23


 639              		.loc 1 186 7 is_stmt 1 discriminator 1 view .LVU194
 186:AudioFileManager.cpp ****       // DebugPrint(pod_, "failed to fread");
 640              		.loc 1 186 16 is_stmt 0 discriminator 1 view .LVU195
 641 00de 4846     		mov	r0, r9
 642 00e0 FFF7FEFF 		bl	_ZdaPv
 643              	.LVL46:
 188:AudioFileManager.cpp ****     }
 644              		.loc 1 188 7 is_stmt 1 discriminator 1 view .LVU196
 645              	.LBE21:
 646              		.loc 1 206 1 is_stmt 0 discriminator 1 view .LVU197
 647 00e4 4046     		mov	r0, r8
 648 00e6 03B0     		add	sp, sp, #12
 649              		.cfi_def_cfa_offset 28
 650              		@ sp needed
 651 00e8 BDE8F083 		pop	{r4, r5, r6, r7, r8, r9, pc}
 652              	.LVL47:
 653              	.L54:
 654              		.loc 1 206 1 discriminator 1 view .LVU198
 655              		.align	2
 656              	.L53:
 657 00ec 00000000 		.word	.LANCHOR0
 658 00f0 00000000 		.word	.LANCHOR2
 659 00f4 00000000 		.word	.LANCHOR1
 660              		.cfi_endproc
 661              	.LFE2588:
 663              		.section	.text._ZN16AudioFileManager13LoadAudioDataEv,"ax",%progbits
 664              		.align	1
 665              		.p2align 2,,3
 666              		.global	_ZN16AudioFileManager13LoadAudioDataEv
 667              		.syntax unified
 668              		.thumb
 669              		.thumb_func
 671              	_ZN16AudioFileManager13LoadAudioDataEv:
 672              	.LVL48:
 673              	.LFB2587:
 158:AudioFileManager.cpp ****   memset(left_buf_, 0.0f, CHNL_BUF_SIZE_ABS);
 674              		.loc 1 158 40 is_stmt 1 view -0
 675              		.cfi_startproc
 676              		@ args = 0, pretend = 0, frame = 0
 677              		@ frame_needed = 0, uses_anonymous_args = 0
 159:AudioFileManager.cpp ****   memset(right_buf_, 0.0f, CHNL_BUF_SIZE_ABS);
 678              		.loc 1 159 3 view .LVU200
 158:AudioFileManager.cpp ****   memset(left_buf_, 0.0f, CHNL_BUF_SIZE_ABS);
 679              		.loc 1 158 40 is_stmt 0 view .LVU201
 680 0000 10B5     		push	{r4, lr}
 681              		.cfi_def_cfa_offset 8
 682              		.cfi_offset 4, -8
 683              		.cfi_offset 14, -4
 159:AudioFileManager.cpp ****   memset(right_buf_, 0.0f, CHNL_BUF_SIZE_ABS);
 684              		.loc 1 159 9 view .LVU202
 685 0002 104C     		ldr	r4, .L59
 158:AudioFileManager.cpp ****   memset(left_buf_, 0.0f, CHNL_BUF_SIZE_ABS);
 686              		.loc 1 158 40 view .LVU203
 687 0004 0346     		mov	r3, r0
 159:AudioFileManager.cpp ****   memset(right_buf_, 0.0f, CHNL_BUF_SIZE_ABS);
 688              		.loc 1 159 9 view .LVU204
 689 0006 4FF08072 		mov	r2, #16777216
ARM GAS  /var/folders/2p/02m_5p7958535cp2tpgps0400000gn/T//ccLxL0oo.s 			page 24


 690 000a 0021     		movs	r1, #0
 691 000c 2068     		ldr	r0, [r4]
 692              	.LVL49:
 158:AudioFileManager.cpp ****   memset(left_buf_, 0.0f, CHNL_BUF_SIZE_ABS);
 693              		.loc 1 158 40 view .LVU205
 694 000e 1C46     		mov	r4, r3
 159:AudioFileManager.cpp ****   memset(right_buf_, 0.0f, CHNL_BUF_SIZE_ABS);
 695              		.loc 1 159 9 view .LVU206
 696 0010 FFF7FEFF 		bl	memset
 697              	.LVL50:
 160:AudioFileManager.cpp ****   size_t samples_per_channel = GetSamplesPerChannel();
 698              		.loc 1 160 3 is_stmt 1 view .LVU207
 160:AudioFileManager.cpp ****   size_t samples_per_channel = GetSamplesPerChannel();
 699              		.loc 1 160 9 is_stmt 0 view .LVU208
 700 0014 0C4B     		ldr	r3, .L59+4
 701 0016 4FF08072 		mov	r2, #16777216
 702 001a 0021     		movs	r1, #0
 703 001c 1868     		ldr	r0, [r3]
 704 001e FFF7FEFF 		bl	memset
 705              	.LVL51:
 161:AudioFileManager.cpp **** 
 706              		.loc 1 161 3 is_stmt 1 view .LVU209
 707              	.LBB24:
 708              	.LBI24:
 709              		.file 4 "AudioFileManager.h"
   1:AudioFileManager.h **** #pragma once
   2:AudioFileManager.h **** #include <stdio.h>
   3:AudioFileManager.h **** #include <stdint.h>
   4:AudioFileManager.h **** #include "daisy_pod.h"
   5:AudioFileManager.h **** #include "constants_utils.h"
   6:AudioFileManager.h **** #include "debug_print.h"
   7:AudioFileManager.h **** #include "wavheader.h"
   8:AudioFileManager.h **** 
   9:AudioFileManager.h **** using namespace daisy; 
  10:AudioFileManager.h **** 
  11:AudioFileManager.h **** class AudioFileManager {
  12:AudioFileManager.h ****   public:
  13:AudioFileManager.h ****     // AudioFileManager(SdmmcHandler &sd, FatFSInterface &fsi, DaisyPod &pod, FIL *file)
  14:AudioFileManager.h ****     //   : sd_(sd), fsi_(fsi), pod_(pod), curr_file_(file){};
  15:AudioFileManager.h ****     AudioFileManager(): pod_(nullptr) {};
  16:AudioFileManager.h ****     
  17:AudioFileManager.h ****     void Init(SdmmcHandler& sd, FatFSInterface& fsi, DaisyPod& pod, FIL* file);
  18:AudioFileManager.h ****     bool ScanWavFiles();
  19:AudioFileManager.h ****     void SetBuffers(int16_t *left, int16_t *right);
  20:AudioFileManager.h ****     bool LoadFile(uint16_t file_idx);
  21:AudioFileManager.h ****     bool CloseFile();
  22:AudioFileManager.h ****     bool GetWavHeader(FIL *file);
  23:AudioFileManager.h **** 
  24:AudioFileManager.h ****     int16_t* GetLeftBuffer() const { return left_buf_; }
  25:AudioFileManager.h ****     int16_t* GetRightBuffer() const { return right_buf_; }
  26:AudioFileManager.h ****     std::size_t GetSamplesPerChannel() const { return header_.total_samples / header_.channels; }
 710              		.loc 4 26 17 view .LVU210
 711              	.LBB25:
 712              		.loc 4 26 48 view .LVU211
 713              		.loc 4 26 63 is_stmt 0 view .LVU212
 714 0022 0A4B     		ldr	r3, .L59+8
 715              		.loc 4 26 87 view .LVU213
ARM GAS  /var/folders/2p/02m_5p7958535cp2tpgps0400000gn/T//ccLxL0oo.s 			page 25


 716 0024 B3F90C28 		ldrsh	r2, [r3, #2060]
 717 0028 D3F81018 		ldr	r1, [r3, #2064]
 718 002c B1FBF2F1 		udiv	r1, r1, r2
 719              	.LVL52:
 720              		.loc 4 26 87 view .LVU214
 721              	.LBE25:
 722              	.LBE24:
 163:AudioFileManager.cpp **** 
 723              		.loc 1 163 3 is_stmt 1 view .LVU215
 724 0030 B1F5000F 		cmp	r1, #8388608
 725 0034 01D9     		bls	.L58
 166:AudioFileManager.cpp **** 
 726              		.loc 1 166 1 is_stmt 0 view .LVU216
 727 0036 0020     		movs	r0, #0
 728 0038 10BD     		pop	{r4, pc}
 729              	.LVL53:
 730              	.L58:
 165:AudioFileManager.cpp **** }
 731              		.loc 1 165 3 is_stmt 1 view .LVU217
 165:AudioFileManager.cpp **** }
 732              		.loc 1 165 24 is_stmt 0 view .LVU218
 733 003a 2046     		mov	r0, r4
 166:AudioFileManager.cpp **** 
 734              		.loc 1 166 1 view .LVU219
 735 003c BDE81040 		pop	{r4, lr}
 736              		.cfi_restore 14
 737              		.cfi_restore 4
 738              		.cfi_def_cfa_offset 0
 739              	.LVL54:
 165:AudioFileManager.cpp **** }
 740              		.loc 1 165 24 view .LVU220
 741 0040 FFF7FEBF 		b	_ZN16AudioFileManager14Load16BitAudioEj
 742              	.LVL55:
 743              	.L60:
 165:AudioFileManager.cpp **** }
 744              		.loc 1 165 24 view .LVU221
 745              		.align	2
 746              	.L59:
 747 0044 00000000 		.word	.LANCHOR2
 748 0048 00000000 		.word	.LANCHOR1
 749 004c 00000000 		.word	.LANCHOR0
 750              		.cfi_endproc
 751              	.LFE2587:
 753              		.section	.text._ZN16AudioFileManager8LoadFileEt,"ax",%progbits
 754              		.align	1
 755              		.p2align 2,,3
 756              		.global	_ZN16AudioFileManager8LoadFileEt
 757              		.syntax unified
 758              		.thumb
 759              		.thumb_func
 761              	_ZN16AudioFileManager8LoadFileEt:
 762              	.LVL56:
 763              	.LFB2585:
  59:AudioFileManager.cpp ****   if (sel_idx > file_count_) return false;
 764              		.loc 1 59 51 is_stmt 1 view -0
 765              		.cfi_startproc
 766              		@ args = 0, pretend = 0, frame = 0
ARM GAS  /var/folders/2p/02m_5p7958535cp2tpgps0400000gn/T//ccLxL0oo.s 			page 26


 767              		@ frame_needed = 0, uses_anonymous_args = 0
  60:AudioFileManager.cpp ****   if (sel_idx != curr_idx_) f_close(curr_file_);
 768              		.loc 1 60 3 view .LVU223
  59:AudioFileManager.cpp ****   if (sel_idx > file_count_) return false;
 769              		.loc 1 59 51 is_stmt 0 view .LVU224
 770 0000 70B5     		push	{r4, r5, r6, lr}
 771              		.cfi_def_cfa_offset 16
 772              		.cfi_offset 4, -16
 773              		.cfi_offset 5, -12
 774              		.cfi_offset 6, -8
 775              		.cfi_offset 14, -4
  60:AudioFileManager.cpp ****   if (sel_idx != curr_idx_) f_close(curr_file_);
 776              		.loc 1 60 15 view .LVU225
 777 0002 244E     		ldr	r6, .L74
  60:AudioFileManager.cpp ****   if (sel_idx != curr_idx_) f_close(curr_file_);
 778              		.loc 1 60 3 view .LVU226
 779 0004 3388     		ldrh	r3, [r6]
 780 0006 8B42     		cmp	r3, r1
 781 0008 0ED3     		bcc	.L63
  61:AudioFileManager.cpp **** 
 782              		.loc 1 61 3 view .LVU227
 783 000a B6F81638 		ldrh	r3, [r6, #2070]
 784 000e 0C46     		mov	r4, r1
 785 0010 0546     		mov	r5, r0
  61:AudioFileManager.cpp **** 
 786              		.loc 1 61 3 is_stmt 1 view .LVU228
 787 0012 8B42     		cmp	r3, r1
 788 0014 18D1     		bne	.L71
 789              	.LVL57:
 790              	.L64:
  63:AudioFileManager.cpp ****   if (!GetWavHeader(curr_file_)||header_.bit_depth!=16||header_.sample_rate!=48000){
 791              		.loc 1 63 3 view .LVU229
  63:AudioFileManager.cpp ****   if (!GetWavHeader(curr_file_)||header_.bit_depth!=16||header_.sample_rate!=48000){
 792              		.loc 1 63 40 is_stmt 0 view .LVU230
 793 0016 2049     		ldr	r1, .L74+4
  63:AudioFileManager.cpp ****   if (!GetWavHeader(curr_file_)||header_.bit_depth!=16||header_.sample_rate!=48000){
 794              		.loc 1 63 13 view .LVU231
 795 0018 0122     		movs	r2, #1
 796 001a E868     		ldr	r0, [r5, #12]
 797 001c 01EB8411 		add	r1, r1, r4, lsl #6
 798 0020 FFF7FEFF 		bl	f_open
 799              	.LVL58:
  63:AudioFileManager.cpp ****   if (!GetWavHeader(curr_file_)||header_.bit_depth!=16||header_.sample_rate!=48000){
 800              		.loc 1 63 3 view .LVU232
 801 0024 0446     		mov	r4, r0
 802 0026 08B1     		cbz	r0, .L72
 803              	.LVL59:
 804              	.L63:
  71:AudioFileManager.cpp **** 
 805              		.loc 1 71 1 view .LVU233
 806 0028 0020     		movs	r0, #0
 807 002a 70BD     		pop	{r4, r5, r6, pc}
 808              	.LVL60:
 809              	.L72:
  64:AudioFileManager.cpp ****     // DebugPrint(pod_, "wav header parse failed");
 810              		.loc 1 64 3 is_stmt 1 view .LVU234
  64:AudioFileManager.cpp ****     // DebugPrint(pod_, "wav header parse failed");
ARM GAS  /var/folders/2p/02m_5p7958535cp2tpgps0400000gn/T//ccLxL0oo.s 			page 27


 811              		.loc 1 64 20 is_stmt 0 view .LVU235
 812 002c E968     		ldr	r1, [r5, #12]
 813 002e 2846     		mov	r0, r5
 814 0030 FFF7FEFF 		bl	_ZN16AudioFileManager12GetWavHeaderEP3FIL
 815              	.LVL61:
  64:AudioFileManager.cpp ****     // DebugPrint(pod_, "wav header parse failed");
 816              		.loc 1 64 55 view .LVU236
 817 0034 18B1     		cbz	r0, .L66
  64:AudioFileManager.cpp ****     // DebugPrint(pod_, "wav header parse failed");
 818              		.loc 1 64 32 discriminator 2 view .LVU237
 819 0036 B6F90E38 		ldrsh	r3, [r6, #2062]
 820 003a 102B     		cmp	r3, #16
 821 003c 08D0     		beq	.L73
 822              	.L66:
  66:AudioFileManager.cpp ****     return false;
 823              		.loc 1 66 5 is_stmt 1 view .LVU238
  66:AudioFileManager.cpp ****     return false;
 824              		.loc 1 66 12 is_stmt 0 view .LVU239
 825 003e E868     		ldr	r0, [r5, #12]
 826 0040 FFF7FEFF 		bl	f_close
 827              	.LVL62:
  67:AudioFileManager.cpp ****   }
 828              		.loc 1 67 5 is_stmt 1 view .LVU240
  71:AudioFileManager.cpp **** 
 829              		.loc 1 71 1 is_stmt 0 view .LVU241
 830 0044 0020     		movs	r0, #0
 831 0046 70BD     		pop	{r4, r5, r6, pc}
 832              	.LVL63:
 833              	.L71:
  61:AudioFileManager.cpp **** 
 834              		.loc 1 61 29 is_stmt 1 discriminator 1 view .LVU242
  61:AudioFileManager.cpp **** 
 835              		.loc 1 61 36 is_stmt 0 discriminator 1 view .LVU243
 836 0048 C068     		ldr	r0, [r0, #12]
 837              	.LVL64:
  61:AudioFileManager.cpp **** 
 838              		.loc 1 61 36 discriminator 1 view .LVU244
 839 004a FFF7FEFF 		bl	f_close
 840              	.LVL65:
  61:AudioFileManager.cpp **** 
 841              		.loc 1 61 36 discriminator 1 view .LVU245
 842 004e E2E7     		b	.L64
 843              	.L73:
  64:AudioFileManager.cpp ****     // DebugPrint(pod_, "wav header parse failed");
 844              		.loc 1 64 55 discriminator 4 view .LVU246
 845 0050 D6F80428 		ldr	r2, [r6, #2052]
 846 0054 4BF68033 		movw	r3, #48000
 847 0058 9A42     		cmp	r2, r3
 848 005a F0D1     		bne	.L66
  70:AudioFileManager.cpp **** }
 849              		.loc 1 70 3 is_stmt 1 view .LVU247
 850              	.LVL66:
 851              	.LBB30:
 852              	.LBI30:
 158:AudioFileManager.cpp ****   memset(left_buf_, 0.0f, CHNL_BUF_SIZE_ABS);
 853              		.loc 1 158 6 view .LVU248
 854              	.LBB31:
ARM GAS  /var/folders/2p/02m_5p7958535cp2tpgps0400000gn/T//ccLxL0oo.s 			page 28


 159:AudioFileManager.cpp ****   memset(right_buf_, 0.0f, CHNL_BUF_SIZE_ABS);
 855              		.loc 1 159 3 view .LVU249
 159:AudioFileManager.cpp ****   memset(right_buf_, 0.0f, CHNL_BUF_SIZE_ABS);
 856              		.loc 1 159 9 is_stmt 0 view .LVU250
 857 005c 0F4B     		ldr	r3, .L74+8
 858 005e 4FF08072 		mov	r2, #16777216
 859 0062 2146     		mov	r1, r4
 860 0064 1868     		ldr	r0, [r3]
 861 0066 FFF7FEFF 		bl	memset
 862              	.LVL67:
 160:AudioFileManager.cpp ****   size_t samples_per_channel = GetSamplesPerChannel();
 863              		.loc 1 160 3 is_stmt 1 view .LVU251
 160:AudioFileManager.cpp ****   size_t samples_per_channel = GetSamplesPerChannel();
 864              		.loc 1 160 9 is_stmt 0 view .LVU252
 865 006a 0D4B     		ldr	r3, .L74+12
 866 006c 2146     		mov	r1, r4
 867 006e 4FF08072 		mov	r2, #16777216
 868 0072 1868     		ldr	r0, [r3]
 869 0074 FFF7FEFF 		bl	memset
 870              	.LVL68:
 161:AudioFileManager.cpp **** 
 871              		.loc 1 161 3 is_stmt 1 view .LVU253
 872              	.LBB32:
 873              	.LBI32:
 874              		.loc 4 26 17 view .LVU254
 875              	.LBB33:
 876              		.loc 4 26 48 view .LVU255
 877              		.loc 4 26 87 is_stmt 0 view .LVU256
 878 0078 B6F90C38 		ldrsh	r3, [r6, #2060]
 879 007c D6F81018 		ldr	r1, [r6, #2064]
 880 0080 B1FBF3F1 		udiv	r1, r1, r3
 881              	.LVL69:
 882              		.loc 4 26 87 view .LVU257
 883              	.LBE33:
 884              	.LBE32:
 163:AudioFileManager.cpp **** 
 885              		.loc 1 163 3 is_stmt 1 view .LVU258
 886 0084 B1F5000F 		cmp	r1, #8388608
 887 0088 CED8     		bhi	.L63
 165:AudioFileManager.cpp **** }
 888              		.loc 1 165 3 view .LVU259
 165:AudioFileManager.cpp **** }
 889              		.loc 1 165 24 is_stmt 0 view .LVU260
 890 008a 2846     		mov	r0, r5
 891              	.LBE31:
 892              	.LBE30:
  71:AudioFileManager.cpp **** 
 893              		.loc 1 71 1 view .LVU261
 894 008c BDE87040 		pop	{r4, r5, r6, lr}
 895              		.cfi_restore 14
 896              		.cfi_restore 6
 897              		.cfi_restore 5
 898              		.cfi_restore 4
 899              		.cfi_def_cfa_offset 0
 900              	.LVL70:
 901              	.LBB35:
 902              	.LBB34:
ARM GAS  /var/folders/2p/02m_5p7958535cp2tpgps0400000gn/T//ccLxL0oo.s 			page 29


 165:AudioFileManager.cpp **** }
 903              		.loc 1 165 24 view .LVU262
 904 0090 FFF7FEBF 		b	_ZN16AudioFileManager14Load16BitAudioEj
 905              	.LVL71:
 906              	.L75:
 165:AudioFileManager.cpp **** }
 907              		.loc 1 165 24 view .LVU263
 908              		.align	2
 909              	.L74:
 910 0094 00000000 		.word	.LANCHOR0
 911 0098 04000000 		.word	.LANCHOR0+4
 912 009c 00000000 		.word	.LANCHOR2
 913 00a0 00000000 		.word	.LANCHOR1
 914              	.LBE34:
 915              	.LBE35:
 916              		.cfi_endproc
 917              	.LFE2585:
 919              		.section	.text._ZN16AudioFileManager9CloseFileEv,"ax",%progbits
 920              		.align	1
 921              		.p2align 2,,3
 922              		.global	_ZN16AudioFileManager9CloseFileEv
 923              		.syntax unified
 924              		.thumb
 925              		.thumb_func
 927              	_ZN16AudioFileManager9CloseFileEv:
 928              	.LVL72:
 929              	.LFB2589:
 207:AudioFileManager.cpp **** 
 208:AudioFileManager.cpp **** /// @brief Closes currently open file
 209:AudioFileManager.cpp **** /// @return True if file was successfully closed, else false
 210:AudioFileManager.cpp **** bool AudioFileManager::CloseFile(){
 930              		.loc 1 210 35 is_stmt 1 view -0
 931              		.cfi_startproc
 932              		@ args = 0, pretend = 0, frame = 0
 933              		@ frame_needed = 0, uses_anonymous_args = 0
 211:AudioFileManager.cpp ****   return f_close(curr_file_) == FR_OK;
 934              		.loc 1 211 3 view .LVU265
 210:AudioFileManager.cpp ****   return f_close(curr_file_) == FR_OK;
 935              		.loc 1 210 35 is_stmt 0 view .LVU266
 936 0000 08B5     		push	{r3, lr}
 937              		.cfi_def_cfa_offset 8
 938              		.cfi_offset 3, -8
 939              		.cfi_offset 14, -4
 940              		.loc 1 211 17 view .LVU267
 941 0002 C068     		ldr	r0, [r0, #12]
 942              	.LVL73:
 943              		.loc 1 211 17 view .LVU268
 944 0004 FFF7FEFF 		bl	f_close
 945              	.LVL74:
 212:AudioFileManager.cpp **** }
 946              		.loc 1 212 1 view .LVU269
 947 0008 B0FA80F0 		clz	r0, r0
 948 000c 4009     		lsrs	r0, r0, #5
 949 000e 08BD     		pop	{r3, pc}
 950              		.cfi_endproc
 951              	.LFE2589:
 953              		.section	.text._ZN16AudioFileManager10SetBuffersEPsS0_,"ax",%progbits
ARM GAS  /var/folders/2p/02m_5p7958535cp2tpgps0400000gn/T//ccLxL0oo.s 			page 30


 954              		.align	1
 955              		.p2align 2,,3
 956              		.global	_ZN16AudioFileManager10SetBuffersEPsS0_
 957              		.syntax unified
 958              		.thumb
 959              		.thumb_func
 961              	_ZN16AudioFileManager10SetBuffersEPsS0_:
 962              	.LVL75:
 963              	.LFB2590:
 213:AudioFileManager.cpp **** 
 214:AudioFileManager.cpp **** /// @brief Assign the locations of the audio data buffers
 215:AudioFileManager.cpp **** /// @param left Pointer to the left channel buffer
 216:AudioFileManager.cpp **** /// @param right Pointer to the right channel buffer
 217:AudioFileManager.cpp **** void AudioFileManager::SetBuffers(int16_t *left, int16_t *right){
 964              		.loc 1 217 65 is_stmt 1 view -0
 965              		.cfi_startproc
 966              		@ args = 0, pretend = 0, frame = 0
 967              		@ frame_needed = 0, uses_anonymous_args = 0
 968              		@ link register save eliminated.
 218:AudioFileManager.cpp ****   left_buf_ = left;
 969              		.loc 1 218 3 view .LVU271
 970              		.loc 1 218 13 is_stmt 0 view .LVU272
 971 0000 0248     		ldr	r0, .L79
 972              	.LVL76:
 219:AudioFileManager.cpp ****   right_buf_ = right;
 973              		.loc 1 219 14 view .LVU273
 974 0002 034B     		ldr	r3, .L79+4
 218:AudioFileManager.cpp ****   left_buf_ = left;
 975              		.loc 1 218 13 view .LVU274
 976 0004 0160     		str	r1, [r0]
 977              		.loc 1 219 3 is_stmt 1 view .LVU275
 978              		.loc 1 219 14 is_stmt 0 view .LVU276
 979 0006 1A60     		str	r2, [r3]
 220:AudioFileManager.cpp **** }
 980              		.loc 1 220 1 view .LVU277
 981 0008 7047     		bx	lr
 982              	.L80:
 983 000a 00BF     		.align	2
 984              	.L79:
 985 000c 00000000 		.word	.LANCHOR2
 986 0010 00000000 		.word	.LANCHOR1
 987              		.cfi_endproc
 988              	.LFE2590:
 990              		.global	_ZN16AudioFileManager10right_buf_E
 991              		.global	_ZN16AudioFileManager9left_buf_E
 992              		.global	_ZN16AudioFileManager17audio_data_start_E
 993              		.global	_ZN16AudioFileManager7header_E
 994              		.global	_ZN16AudioFileManager11file_count_E
 995              		.global	_ZN16AudioFileManager9curr_idx_E
 996              		.global	_ZN16AudioFileManager6names_E
 997              		.section	.bss._ZN16AudioFileManager10right_buf_E,"aw",%nobits
 998              		.align	2
 999              		.set	.LANCHOR1,. + 0
 1002              	_ZN16AudioFileManager10right_buf_E:
 1003 0000 00000000 		.space	4
 1004              		.section	.bss._ZN16AudioFileManager9left_buf_E,"aw",%nobits
 1005              		.align	2
ARM GAS  /var/folders/2p/02m_5p7958535cp2tpgps0400000gn/T//ccLxL0oo.s 			page 31


 1006              		.set	.LANCHOR2,. + 0
 1009              	_ZN16AudioFileManager9left_buf_E:
 1010 0000 00000000 		.space	4
 1011              		.section	.dtcmram_bss,"aw"
 1012              		.align	2
 1013              		.set	.LANCHOR0,. + 0
 1016              	_ZN16AudioFileManager11file_count_E:
 1017 0000 0000     		.space	2
 1018 0002 0000     		.space	2
 1021              	_ZN16AudioFileManager6names_E:
 1022 0004 00000000 		.space	2048
 1022      00000000 
 1022      00000000 
 1022      00000000 
 1022      00000000 
 1025              	_ZN16AudioFileManager7header_E:
 1026 0804 00000000 		.space	16
 1026      00000000 
 1026      00000000 
 1026      00000000 
 1029              	_ZN16AudioFileManager17audio_data_start_E:
 1030 0814 00       		.space	1
 1031 0815 00       		.space	1
 1034              	_ZN16AudioFileManager9curr_idx_E:
 1035 0816 0000     		.space	2
 1036              		.text
 1037              	.Letext0:
 1038              		.file 5 "/Library/DaisyToolchain/0.2.0/arm/arm-none-eabi/include/machine/_default_types.h"
 1039              		.file 6 "/Library/DaisyToolchain/0.2.0/arm/arm-none-eabi/include/sys/_stdint.h"
 1040              		.file 7 "/Library/DaisyToolchain/0.2.0/arm/arm-none-eabi/include/stdint.h"
 1041              		.file 8 "/Library/DaisyToolchain/0.2.0/arm/lib/gcc/arm-none-eabi/10.3.1/include/stddef.h"
 1042              		.file 9 "/Library/DaisyToolchain/0.2.0/arm/arm-none-eabi/include/c++/10.3.1/cmath"
 1043              		.file 10 "/Library/DaisyToolchain/0.2.0/arm/arm-none-eabi/include/c++/10.3.1/bits/std_abs.h"
 1044              		.file 11 "/Library/DaisyToolchain/0.2.0/arm/arm-none-eabi/include/c++/10.3.1/cstdlib"
 1045              		.file 12 "/Library/DaisyToolchain/0.2.0/arm/arm-none-eabi/include/c++/10.3.1/cstdint"
 1046              		.file 13 "/Library/DaisyToolchain/0.2.0/arm/arm-none-eabi/include/c++/10.3.1/arm-none-eabi/thumb/v
 1047              		.file 14 "/Library/DaisyToolchain/0.2.0/arm/arm-none-eabi/include/c++/10.3.1/type_traits"
 1048              		.file 15 "/Library/DaisyToolchain/0.2.0/arm/arm-none-eabi/include/c++/10.3.1/debug/debug.h"
 1049              		.file 16 "/Library/DaisyToolchain/0.2.0/arm/arm-none-eabi/include/c++/10.3.1/bits/algorithmfwd.h"
 1050              		.file 17 "/Library/DaisyToolchain/0.2.0/arm/arm-none-eabi/include/c++/10.3.1/bits/stl_pair.h"
 1051              		.file 18 "/Library/DaisyToolchain/0.2.0/arm/arm-none-eabi/include/c++/10.3.1/bits/exception_ptr.h"
 1052              		.file 19 "/Library/DaisyToolchain/0.2.0/arm/arm-none-eabi/include/c++/10.3.1/initializer_list"
 1053              		.file 20 "/Library/DaisyToolchain/0.2.0/arm/arm-none-eabi/include/c++/10.3.1/cstdarg"
 1054              		.file 21 "/Library/DaisyToolchain/0.2.0/arm/arm-none-eabi/include/c++/10.3.1/cstdio"
 1055              		.file 22 "/Library/DaisyToolchain/0.2.0/arm/arm-none-eabi/include/c++/10.3.1/cstring"
 1056              		.file 23 "/Library/DaisyToolchain/0.2.0/arm/arm-none-eabi/include/c++/10.3.1/bits/predefined_ops.h
 1057              		.file 24 "/Library/DaisyToolchain/0.2.0/arm/arm-none-eabi/include/sys/_types.h"
 1058              		.file 25 "/Library/DaisyToolchain/0.2.0/arm/arm-none-eabi/include/sys/reent.h"
 1059              		.file 26 "/Library/DaisyToolchain/0.2.0/arm/arm-none-eabi/include/sys/lock.h"
 1060              		.file 27 "/Library/DaisyToolchain/0.2.0/arm/arm-none-eabi/include/math.h"
 1061              		.file 28 "/Library/DaisyToolchain/0.2.0/arm/arm-none-eabi/include/stdlib.h"
 1062              		.file 29 "/Library/DaisyToolchain/0.2.0/arm/arm-none-eabi/include/c++/10.3.1/math.h"
 1063              		.file 30 "/Library/DaisyToolchain/0.2.0/arm/lib/gcc/arm-none-eabi/10.3.1/include/stdarg.h"
 1064              		.file 31 "/Library/DaisyToolchain/0.2.0/arm/arm-none-eabi/include/stdio.h"
 1065              		.file 32 "/Library/DaisyToolchain/0.2.0/arm/arm-none-eabi/include/c++/10.3.1/stdlib.h"
 1066              		.file 33 "../libDaisy/src/daisy_core.h"
 1067              		.file 34 "../libDaisy/src/per/tim.h"
ARM GAS  /var/folders/2p/02m_5p7958535cp2tpgps0400000gn/T//ccLxL0oo.s 			page 32


 1068              		.file 35 "../libDaisy/src/sys/system.h"
 1069              		.file 36 "../libDaisy/src/per/qspi.h"
 1070              		.file 37 "../libDaisy/src/per/dac.h"
 1071              		.file 38 "../libDaisy/src/per/sai.h"
 1072              		.file 39 "../libDaisy/src/hid/audio.h"
 1073              		.file 40 "../libDaisy/src/per/adc.h"
 1074              		.file 41 "../libDaisy/src/per/uart.h"
 1075              		.file 42 "../libDaisy/src/hid/MidiEvent.h"
 1076              		.file 43 "../libDaisy/src/hid/midi_parser.h"
 1077              		.file 44 "../libDaisy/src/hid/usb.h"
 1078              		.file 45 "../libDaisy/src/hid/midi.h"
 1079              		.file 46 "../libDaisy/src/util/FIFO.h"
 1080              		.file 47 "../libDaisy/src/hid/switch.h"
 1081              		.file 48 "../libDaisy/src/hid/encoder.h"
 1082              		.file 49 "../libDaisy/src/hid/ctrl.h"
 1083              		.file 50 "../libDaisy/src/per/sdmmc.h"
 1084              		.file 51 "../libDaisy/src/util/wav_format.h"
 1085              		.file 52 "../libDaisy/src/hid/led.h"
 1086              		.file 53 "../libDaisy/src/util/color.h"
 1087              		.file 54 "../libDaisy/src/hid/rgb_led.h"
 1088              		.file 55 "../libDaisy/src/dev/max11300.h"
 1089              		.file 56 "../libDaisy/src/daisy_seed.h"
 1090              		.file 57 "../libDaisy/src/daisy_pod.h"
 1091              		.file 58 "../libDaisy/src/per/gpio.h"
 1092              		.file 59 "../libDaisy/src/dev/sdram.h"
 1093              		.file 60 "../libDaisy/Middlewares/Third_Party/FatFs/src/integer.h"
 1094              		.file 61 "../libDaisy/Middlewares/Third_Party/FatFs/src/ff.h"
 1095              		.file 62 "/Library/DaisyToolchain/0.2.0/arm/arm-none-eabi/include/string.h"
 1096              		.file 63 "constants_utils.h"
 1097              		.file 64 "wavheader.h"
 1098              		.file 65 "../libDaisy/src/dev/sr_595.h"
 1099              		.file 66 "/Library/DaisyToolchain/0.2.0/arm/arm-none-eabi/include/c++/10.3.1/new"
 1100              		.file 67 "<built-in>"
ARM GAS  /var/folders/2p/02m_5p7958535cp2tpgps0400000gn/T//ccLxL0oo.s 			page 33


DEFINED SYMBOLS
                            *ABS*:0000000000000000 AudioFileManager.cpp
/var/folders/2p/02m_5p7958535cp2tpgps0400000gn/T//ccLxL0oo.s:19     .text._ZN16AudioFileManager4InitERN5daisy12SdmmcHandlerERNS0_14FatFSInterfaceERNS0_8DaisyPodEP3FIL:0000000000000000 $t
/var/folders/2p/02m_5p7958535cp2tpgps0400000gn/T//ccLxL0oo.s:26     .text._ZN16AudioFileManager4InitERN5daisy12SdmmcHandlerERNS0_14FatFSInterfaceERNS0_8DaisyPodEP3FIL:0000000000000000 _ZN16AudioFileManager4InitERN5daisy12SdmmcHandlerERNS0_14FatFSInterfaceERNS0_8DaisyPodEP3FIL
/var/folders/2p/02m_5p7958535cp2tpgps0400000gn/T//ccLxL0oo.s:50     .rodata._ZN16AudioFileManager12ScanWavFilesEv.str1.4:0000000000000000 $d
/var/folders/2p/02m_5p7958535cp2tpgps0400000gn/T//ccLxL0oo.s:60     .text._ZN16AudioFileManager12ScanWavFilesEv:0000000000000000 $t
/var/folders/2p/02m_5p7958535cp2tpgps0400000gn/T//ccLxL0oo.s:67     .text._ZN16AudioFileManager12ScanWavFilesEv:0000000000000000 _ZN16AudioFileManager12ScanWavFilesEv
/var/folders/2p/02m_5p7958535cp2tpgps0400000gn/T//ccLxL0oo.s:240    .text._ZN16AudioFileManager12ScanWavFilesEv:00000000000000ac $d
/var/folders/2p/02m_5p7958535cp2tpgps0400000gn/T//ccLxL0oo.s:248    .text._ZN16AudioFileManager12GetWavHeaderEP3FIL:0000000000000000 $t
/var/folders/2p/02m_5p7958535cp2tpgps0400000gn/T//ccLxL0oo.s:255    .text._ZN16AudioFileManager12GetWavHeaderEP3FIL:0000000000000000 _ZN16AudioFileManager12GetWavHeaderEP3FIL
/var/folders/2p/02m_5p7958535cp2tpgps0400000gn/T//ccLxL0oo.s:411    .text._ZN16AudioFileManager12GetWavHeaderEP3FIL:0000000000000098 $d
/var/folders/2p/02m_5p7958535cp2tpgps0400000gn/T//ccLxL0oo.s:419    .text._ZN16AudioFileManager14Load16BitAudioEj:0000000000000000 $t
/var/folders/2p/02m_5p7958535cp2tpgps0400000gn/T//ccLxL0oo.s:426    .text._ZN16AudioFileManager14Load16BitAudioEj:0000000000000000 _ZN16AudioFileManager14Load16BitAudioEj
/var/folders/2p/02m_5p7958535cp2tpgps0400000gn/T//ccLxL0oo.s:657    .text._ZN16AudioFileManager14Load16BitAudioEj:00000000000000ec $d
/var/folders/2p/02m_5p7958535cp2tpgps0400000gn/T//ccLxL0oo.s:664    .text._ZN16AudioFileManager13LoadAudioDataEv:0000000000000000 $t
/var/folders/2p/02m_5p7958535cp2tpgps0400000gn/T//ccLxL0oo.s:671    .text._ZN16AudioFileManager13LoadAudioDataEv:0000000000000000 _ZN16AudioFileManager13LoadAudioDataEv
/var/folders/2p/02m_5p7958535cp2tpgps0400000gn/T//ccLxL0oo.s:747    .text._ZN16AudioFileManager13LoadAudioDataEv:0000000000000044 $d
/var/folders/2p/02m_5p7958535cp2tpgps0400000gn/T//ccLxL0oo.s:754    .text._ZN16AudioFileManager8LoadFileEt:0000000000000000 $t
/var/folders/2p/02m_5p7958535cp2tpgps0400000gn/T//ccLxL0oo.s:761    .text._ZN16AudioFileManager8LoadFileEt:0000000000000000 _ZN16AudioFileManager8LoadFileEt
/var/folders/2p/02m_5p7958535cp2tpgps0400000gn/T//ccLxL0oo.s:910    .text._ZN16AudioFileManager8LoadFileEt:0000000000000094 $d
/var/folders/2p/02m_5p7958535cp2tpgps0400000gn/T//ccLxL0oo.s:920    .text._ZN16AudioFileManager9CloseFileEv:0000000000000000 $t
/var/folders/2p/02m_5p7958535cp2tpgps0400000gn/T//ccLxL0oo.s:927    .text._ZN16AudioFileManager9CloseFileEv:0000000000000000 _ZN16AudioFileManager9CloseFileEv
/var/folders/2p/02m_5p7958535cp2tpgps0400000gn/T//ccLxL0oo.s:954    .text._ZN16AudioFileManager10SetBuffersEPsS0_:0000000000000000 $t
/var/folders/2p/02m_5p7958535cp2tpgps0400000gn/T//ccLxL0oo.s:961    .text._ZN16AudioFileManager10SetBuffersEPsS0_:0000000000000000 _ZN16AudioFileManager10SetBuffersEPsS0_
/var/folders/2p/02m_5p7958535cp2tpgps0400000gn/T//ccLxL0oo.s:985    .text._ZN16AudioFileManager10SetBuffersEPsS0_:000000000000000c $d
/var/folders/2p/02m_5p7958535cp2tpgps0400000gn/T//ccLxL0oo.s:1002   .bss._ZN16AudioFileManager10right_buf_E:0000000000000000 _ZN16AudioFileManager10right_buf_E
/var/folders/2p/02m_5p7958535cp2tpgps0400000gn/T//ccLxL0oo.s:1009   .bss._ZN16AudioFileManager9left_buf_E:0000000000000000 _ZN16AudioFileManager9left_buf_E
/var/folders/2p/02m_5p7958535cp2tpgps0400000gn/T//ccLxL0oo.s:1029   .dtcmram_bss:0000000000000814 _ZN16AudioFileManager17audio_data_start_E
/var/folders/2p/02m_5p7958535cp2tpgps0400000gn/T//ccLxL0oo.s:1025   .dtcmram_bss:0000000000000804 _ZN16AudioFileManager7header_E
/var/folders/2p/02m_5p7958535cp2tpgps0400000gn/T//ccLxL0oo.s:1016   .dtcmram_bss:0000000000000000 _ZN16AudioFileManager11file_count_E
/var/folders/2p/02m_5p7958535cp2tpgps0400000gn/T//ccLxL0oo.s:1034   .dtcmram_bss:0000000000000816 _ZN16AudioFileManager9curr_idx_E
/var/folders/2p/02m_5p7958535cp2tpgps0400000gn/T//ccLxL0oo.s:1021   .dtcmram_bss:0000000000000004 _ZN16AudioFileManager6names_E
/var/folders/2p/02m_5p7958535cp2tpgps0400000gn/T//ccLxL0oo.s:998    .bss._ZN16AudioFileManager10right_buf_E:0000000000000000 $d
/var/folders/2p/02m_5p7958535cp2tpgps0400000gn/T//ccLxL0oo.s:1005   .bss._ZN16AudioFileManager9left_buf_E:0000000000000000 $d
/var/folders/2p/02m_5p7958535cp2tpgps0400000gn/T//ccLxL0oo.s:1012   .dtcmram_bss:0000000000000000 $d

UNDEFINED SYMBOLS
f_opendir
f_readdir
strstr
strncpy
f_closedir
f_read
f_lseek
_Znaj
_ZdaPv
memset
f_open
f_close
