ARM GAS  /var/folders/2p/02m_5p7958535cp2tpgps0400000gn/T//ccJ1AJ8p.s 			page 1


   1              		.cpu cortex-m7
   2              		.arch armv7e-m
   3              		.fpu fpv5-d16
   4              		.eabi_attribute 28, 1
   5              		.eabi_attribute 20, 1
   6              		.eabi_attribute 21, 1
   7              		.eabi_attribute 23, 3
   8              		.eabi_attribute 24, 1
   9              		.eabi_attribute 25, 1
  10              		.eabi_attribute 26, 1
  11              		.eabi_attribute 30, 4
  12              		.eabi_attribute 34, 1
  13              		.eabi_attribute 18, 4
  14              		.file	"AudioFileManager.cpp"
  15              		.text
  16              	.Ltext0:
  17              		.cfi_sections	.debug_frame
  18              		.section	.rodata._ZN16AudioFileManager4InitEv.str1.1,"aMS",%progbits,1
  19              	.LC0:
  20 0000 2F00     		.ascii	"/\000"
  21              		.section	.text._ZN16AudioFileManager4InitEv,"ax",%progbits
  22              		.align	1
  23              		.global	_ZN16AudioFileManager4InitEv
  24              		.syntax unified
  25              		.thumb
  26              		.thumb_func
  28              	_ZN16AudioFileManager4InitEv:
  29              	.LVL0:
  30              	.LFB2583:
  31              		.file 1 "AudioFileManager.cpp"
   1:AudioFileManager.cpp **** #include "AudioFileManager.h"
   2:AudioFileManager.cpp **** 
   3:AudioFileManager.cpp **** using namespace daisy;
   4:AudioFileManager.cpp **** 
   5:AudioFileManager.cpp **** /* declare / initialise static members */
   6:AudioFileManager.cpp **** DTCMRAM_BSS char AudioFileManager::names_[MAX_FILES][MAX_FNAME_LEN];
   7:AudioFileManager.cpp **** DTCMRAM_BSS uint16_t AudioFileManager::curr_idx_ = 0;
   8:AudioFileManager.cpp **** DTCMRAM_BSS uint16_t AudioFileManager::file_count_ = 0;
   9:AudioFileManager.cpp **** DTCMRAM_BSS WavHeader AudioFileManager::header_;
  10:AudioFileManager.cpp **** DTCMRAM_BSS uint8_t AudioFileManager::audio_data_start_ = 0;
  11:AudioFileManager.cpp **** int16_t* AudioFileManager::left_buf_ = nullptr;
  12:AudioFileManager.cpp **** int16_t* AudioFileManager::right_buf_ = nullptr;
  13:AudioFileManager.cpp **** 
  14:AudioFileManager.cpp **** /// @brief Initialises sd card and file system interfaces
  15:AudioFileManager.cpp **** /// @return True if initialisation succeeds, else false
  16:AudioFileManager.cpp **** bool AudioFileManager::Init(){
  32              		.loc 1 16 30 view -0
  33              		.cfi_startproc
  34              		@ args = 0, pretend = 0, frame = 16
  35              		@ frame_needed = 0, uses_anonymous_args = 0
  17:AudioFileManager.cpp ****   SdmmcHandler::Config sd_cfg;
  36              		.loc 1 17 3 view .LVU1
  18:AudioFileManager.cpp ****   sd_cfg.Defaults();
  37              		.loc 1 18 3 view .LVU2
  16:AudioFileManager.cpp ****   SdmmcHandler::Config sd_cfg;
  38              		.loc 1 16 30 is_stmt 0 view .LVU3
  39 0000 7FB5     		push	{r0, r1, r2, r3, r4, r5, r6, lr}
ARM GAS  /var/folders/2p/02m_5p7958535cp2tpgps0400000gn/T//ccJ1AJ8p.s 			page 2


  40              		.cfi_def_cfa_offset 32
  41              		.cfi_offset 4, -16
  42              		.cfi_offset 5, -12
  43              		.cfi_offset 6, -8
  44              		.cfi_offset 14, -4
  45              	.LVL1:
  46              	.LBB14:
  47              	.LBI14:
  48              		.file 2 "../libDaisy/src/per/sdmmc.h"
   1:../libDaisy/src/per/sdmmc.h **** /*
   2:../libDaisy/src/per/sdmmc.h **** TODO: 
   3:../libDaisy/src/per/sdmmc.h **** - Implement configuration (currently all settings are fixed).
   4:../libDaisy/src/per/sdmmc.h **** */
   5:../libDaisy/src/per/sdmmc.h **** #pragma once
   6:../libDaisy/src/per/sdmmc.h **** #ifndef DSY_SDMMC_H
   7:../libDaisy/src/per/sdmmc.h **** #define DSY_SDMMC_H /**< macro */
   8:../libDaisy/src/per/sdmmc.h **** 
   9:../libDaisy/src/per/sdmmc.h **** #include <stdint.h>
  10:../libDaisy/src/per/sdmmc.h **** 
  11:../libDaisy/src/per/sdmmc.h **** 
  12:../libDaisy/src/per/sdmmc.h **** namespace daisy
  13:../libDaisy/src/per/sdmmc.h **** {
  14:../libDaisy/src/per/sdmmc.h **** /** @ingroup peripheral
  15:../libDaisy/src/per/sdmmc.h ****     @{
  16:../libDaisy/src/per/sdmmc.h ****     */
  17:../libDaisy/src/per/sdmmc.h **** 
  18:../libDaisy/src/per/sdmmc.h **** /** Configuration for interfacing with SD cards.
  19:../libDaisy/src/per/sdmmc.h ****  *  Currently only supports operation using FatFS filesystem
  20:../libDaisy/src/per/sdmmc.h ****  * 
  21:../libDaisy/src/per/sdmmc.h ****  *  Only SDMMC1 is supported at this time.
  22:../libDaisy/src/per/sdmmc.h ****  *
  23:../libDaisy/src/per/sdmmc.h ****  *  Pins are fixed to the following:
  24:../libDaisy/src/per/sdmmc.h ****  *  PC12 - SDMMC1 CK
  25:../libDaisy/src/per/sdmmc.h ****  *  PD2  - SDMMC1 CMD
  26:../libDaisy/src/per/sdmmc.h ****  *  PC8  - SDMMC1 D0
  27:../libDaisy/src/per/sdmmc.h ****  *  PC9  - SDMMC1 D1 (optional)
  28:../libDaisy/src/per/sdmmc.h ****  *  PC10 - SDMMC1 D2 (optional)
  29:../libDaisy/src/per/sdmmc.h ****  *  PC11 - SDMMC1 D3 (optional)
  30:../libDaisy/src/per/sdmmc.h **** */
  31:../libDaisy/src/per/sdmmc.h **** class SdmmcHandler
  32:../libDaisy/src/per/sdmmc.h **** {
  33:../libDaisy/src/per/sdmmc.h ****   public:
  34:../libDaisy/src/per/sdmmc.h ****     /** Return values for the SdmmcHandler class */
  35:../libDaisy/src/per/sdmmc.h ****     enum class Result
  36:../libDaisy/src/per/sdmmc.h ****     {
  37:../libDaisy/src/per/sdmmc.h ****         OK,
  38:../libDaisy/src/per/sdmmc.h ****         ERROR,
  39:../libDaisy/src/per/sdmmc.h ****     };
  40:../libDaisy/src/per/sdmmc.h **** 
  41:../libDaisy/src/per/sdmmc.h ****     /** Sets whether 4-bit mode or 1-bit mode is used for the SDMMC */
  42:../libDaisy/src/per/sdmmc.h ****     enum class BusWidth
  43:../libDaisy/src/per/sdmmc.h ****     {
  44:../libDaisy/src/per/sdmmc.h ****         BITS_1, /**< Only 1 bit of data per clock is transferred */
  45:../libDaisy/src/per/sdmmc.h ****         BITS_4, /**< 4-bits of parallel data for each clock pulse */
  46:../libDaisy/src/per/sdmmc.h ****     };
  47:../libDaisy/src/per/sdmmc.h **** 
  48:../libDaisy/src/per/sdmmc.h ****     /** 
ARM GAS  /var/folders/2p/02m_5p7958535cp2tpgps0400000gn/T//ccJ1AJ8p.s 			page 3


  49:../libDaisy/src/per/sdmmc.h ****     Sets the desired clock speed of the SD card bus. \n 
  50:../libDaisy/src/per/sdmmc.h ****     Initialization is always done at or below 400kHz, and then the user speed is set.
  51:../libDaisy/src/per/sdmmc.h ****     */
  52:../libDaisy/src/per/sdmmc.h ****     enum class Speed
  53:../libDaisy/src/per/sdmmc.h ****     {
  54:../libDaisy/src/per/sdmmc.h ****         SLOW, /**< 400kHz, initialization  performed at this rate, before moving to user value */
  55:../libDaisy/src/per/sdmmc.h ****         MEDIUM_SLOW, /**< 12.5MHz - half of standard rate */
  56:../libDaisy/src/per/sdmmc.h ****         STANDARD,    /**< 25MHz - DS (Default Speed for SDMMC) */
  57:../libDaisy/src/per/sdmmc.h ****         FAST,        /**< 50MHz - HS (High Speed signaling) */
  58:../libDaisy/src/per/sdmmc.h ****         VERY_FAST, /**< 100MHz - SDR50 Overclocked rate for maximum transfer rates */
  59:../libDaisy/src/per/sdmmc.h ****     };
  60:../libDaisy/src/per/sdmmc.h **** 
  61:../libDaisy/src/per/sdmmc.h ****     struct Config
  62:../libDaisy/src/per/sdmmc.h ****     {
  63:../libDaisy/src/per/sdmmc.h ****         Speed    speed;
  64:../libDaisy/src/per/sdmmc.h ****         BusWidth width;
  65:../libDaisy/src/per/sdmmc.h ****         bool
  66:../libDaisy/src/per/sdmmc.h ****             clock_powersave; /**< When true, the clock will stop between transfers to save power. *
  67:../libDaisy/src/per/sdmmc.h **** 
  68:../libDaisy/src/per/sdmmc.h ****         /** Configures settings to their default settings */
  69:../libDaisy/src/per/sdmmc.h ****         void Defaults()
  49              		.loc 2 69 14 is_stmt 1 view .LVU4
  50              	.LBB15:
  70:../libDaisy/src/per/sdmmc.h ****         {
  71:../libDaisy/src/per/sdmmc.h ****             speed           = Speed::FAST;
  51              		.loc 2 71 13 view .LVU5
  72:../libDaisy/src/per/sdmmc.h ****             width           = BusWidth::BITS_4;
  52              		.loc 2 72 29 is_stmt 0 view .LVU6
  53 0002 0323     		movs	r3, #3
  54 0004 0126     		movs	r6, #1
  73:../libDaisy/src/per/sdmmc.h ****             clock_powersave = false;
  55              		.loc 2 73 29 view .LVU7
  56 0006 0024     		movs	r4, #0
  57              	.LBE15:
  58              	.LBE14:
  16:AudioFileManager.cpp ****   SdmmcHandler::Config sd_cfg;
  59              		.loc 1 16 30 view .LVU8
  60 0008 0546     		mov	r5, r0
  19:AudioFileManager.cpp ****   if (sd_.Init(sd_cfg) != SdmmcHandler::Result::OK) {
  61              		.loc 1 19 15 view .LVU9
  62 000a 01A9     		add	r1, sp, #4
  63              	.LVL2:
  64              		.loc 1 19 15 view .LVU10
  65 000c 0068     		ldr	r0, [r0]
  66              	.LVL3:
  67              	.LBB17:
  68              	.LBB16:
  69              		.loc 2 73 29 view .LVU11
  70 000e 8DF80C40 		strb	r4, [sp, #12]
  72:../libDaisy/src/per/sdmmc.h ****             clock_powersave = false;
  71              		.loc 2 72 29 view .LVU12
  72 0012 CDE90136 		strd	r3, r6, [sp, #4]
  73              		.loc 2 73 13 is_stmt 1 view .LVU13
  74              	.LVL4:
  75              		.loc 2 73 13 is_stmt 0 view .LVU14
  76              	.LBE16:
  77              	.LBE17:
ARM GAS  /var/folders/2p/02m_5p7958535cp2tpgps0400000gn/T//ccJ1AJ8p.s 			page 4


  78              		.loc 1 19 3 is_stmt 1 view .LVU15
  79              		.loc 1 19 15 is_stmt 0 view .LVU16
  80 0016 FFF7FEFF 		bl	_ZN5daisy12SdmmcHandler4InitERKNS0_6ConfigE
  81              	.LVL5:
  82              		.loc 1 19 3 view .LVU17
  83 001a 70B9     		cbnz	r0, .L3
  20:AudioFileManager.cpp ****     return false;
  21:AudioFileManager.cpp ****   }
  22:AudioFileManager.cpp ****   fsi_.Init(FatFSInterface::Config::MEDIA_SD);
  84              		.loc 1 22 3 is_stmt 1 view .LVU18
  85              		.loc 1 22 12 is_stmt 0 view .LVU19
  86 001c 3146     		mov	r1, r6
  87 001e 6868     		ldr	r0, [r5, #4]
  88 0020 FFF7FEFF 		bl	_ZN5daisy14FatFSInterface4InitEh
  89              	.LVL6:
  23:AudioFileManager.cpp ****   return (f_mount(&fsi_.GetSDFileSystem(),"/",1) == FR_OK);
  90              		.loc 1 23 3 is_stmt 1 view .LVU20
  91              	.LBB18:
  92              	.LBI18:
  93              		.file 3 "../libDaisy/src/sys/fatfs.h"
   1:../libDaisy/src/sys/fatfs.h **** #ifndef __fatfs_H
   2:../libDaisy/src/sys/fatfs.h **** #define __fatfs_H /**< & */
   3:../libDaisy/src/sys/fatfs.h **** 
   4:../libDaisy/src/sys/fatfs.h **** #include "ff.h"
   5:../libDaisy/src/sys/fatfs.h **** 
   6:../libDaisy/src/sys/fatfs.h **** namespace daisy
   7:../libDaisy/src/sys/fatfs.h **** {
   8:../libDaisy/src/sys/fatfs.h **** /** @brief Daisy FatFS Driver Interface
   9:../libDaisy/src/sys/fatfs.h ****  *  @details Specifies the desired media (SD Card, USB, etc.) to be mountable with FatFS
  10:../libDaisy/src/sys/fatfs.h ****  *           within a given application. Once initialization is called, the standard
  11:../libDaisy/src/sys/fatfs.h ****  *           FatFS API will be usable with the media mounted in the order 
  12:../libDaisy/src/sys/fatfs.h ****  *           they are listed in the Media config struct. 
  13:../libDaisy/src/sys/fatfs.h ****  *           For example, when only using an SD Card, it will mount at "0:/",
  14:../libDaisy/src/sys/fatfs.h ****  *           when only using USB, it will mount at "0:/". However, when mounting 
  15:../libDaisy/src/sys/fatfs.h ****  *           with SD card and USB, the SD card will mount at "0:/", and the USB 
  16:../libDaisy/src/sys/fatfs.h ****  *           will mount at "1:/".
  17:../libDaisy/src/sys/fatfs.h ****  *           The relevant hardware peripheral (SDMMC, or MSD) needs to be initialized
  18:../libDaisy/src/sys/fatfs.h ****  *           separately by the application before using FatFS.
  19:../libDaisy/src/sys/fatfs.h ****  *          
  20:../libDaisy/src/sys/fatfs.h ****  *           This object has some memory limitations due to the media connected to it.
  21:../libDaisy/src/sys/fatfs.h ****  *           The SDMMC1 peripheral can only communicate with the AXI SRAM, and the DTCMRAM 
  22:../libDaisy/src/sys/fatfs.h ****  *           cannot communicate with the DMA. So the FatFSInterface object should always be
  23:../libDaisy/src/sys/fatfs.h ****  *           located in the AXI SRAM. This is the default location for all data/bss memory
  24:../libDaisy/src/sys/fatfs.h ****  *           using the standard build. However, applciations using the electrosmith bootloader
  25:../libDaisy/src/sys/fatfs.h ****  *           will need special consideration when using this object AND an SD Card. 
  26:../libDaisy/src/sys/fatfs.h ****  */
  27:../libDaisy/src/sys/fatfs.h **** class FatFSInterface
  28:../libDaisy/src/sys/fatfs.h **** {
  29:../libDaisy/src/sys/fatfs.h ****   public:
  30:../libDaisy/src/sys/fatfs.h ****     /** Return values specifying specific errors for linking Daisy to FatFS */
  31:../libDaisy/src/sys/fatfs.h ****     enum Result
  32:../libDaisy/src/sys/fatfs.h ****     {
  33:../libDaisy/src/sys/fatfs.h ****         OK,
  34:../libDaisy/src/sys/fatfs.h ****         ERR_TOO_MANY_VOLUMES,
  35:../libDaisy/src/sys/fatfs.h ****         ERR_NO_MEDIA_SELECTED,
  36:../libDaisy/src/sys/fatfs.h ****         ERR_GENERIC,
  37:../libDaisy/src/sys/fatfs.h ****     };
ARM GAS  /var/folders/2p/02m_5p7958535cp2tpgps0400000gn/T//ccJ1AJ8p.s 			page 5


  38:../libDaisy/src/sys/fatfs.h **** 
  39:../libDaisy/src/sys/fatfs.h ****     /** Config structure for configuring Daisy to FatFS */
  40:../libDaisy/src/sys/fatfs.h ****     struct Config
  41:../libDaisy/src/sys/fatfs.h ****     {
  42:../libDaisy/src/sys/fatfs.h ****         /** Selected Media that will be linked to FatFS 
  43:../libDaisy/src/sys/fatfs.h ****          *  These values can be OR'd together when multiple
  44:../libDaisy/src/sys/fatfs.h ****          *  volumes are desired 
  45:../libDaisy/src/sys/fatfs.h ****          *  i.e. config.media = Media::SD | Media::USBH;
  46:../libDaisy/src/sys/fatfs.h ****          * 
  47:../libDaisy/src/sys/fatfs.h ****          *  When mounting multiple volumes, ffconf.h must have 
  48:../libDaisy/src/sys/fatfs.h ****          *  _VOLUMES set to an appropriate value.
  49:../libDaisy/src/sys/fatfs.h ****          * 
  50:../libDaisy/src/sys/fatfs.h ****          *  FatFS will register multiple volumes in the order of the enum,
  51:../libDaisy/src/sys/fatfs.h ****          *   the first registered class will mount at "0:/",
  52:../libDaisy/src/sys/fatfs.h ****          *   the second registered class will mount at "1:/", and so on
  53:../libDaisy/src/sys/fatfs.h ****          */
  54:../libDaisy/src/sys/fatfs.h ****         enum Media : uint8_t
  55:../libDaisy/src/sys/fatfs.h ****         {
  56:../libDaisy/src/sys/fatfs.h ****             MEDIA_SD  = 0x01,
  57:../libDaisy/src/sys/fatfs.h ****             MEDIA_USB = 0x02,
  58:../libDaisy/src/sys/fatfs.h ****             // MEDIA_QSPI = 0x04,
  59:../libDaisy/src/sys/fatfs.h ****         };
  60:../libDaisy/src/sys/fatfs.h **** 
  61:../libDaisy/src/sys/fatfs.h ****         uint8_t media;
  62:../libDaisy/src/sys/fatfs.h ****     };
  63:../libDaisy/src/sys/fatfs.h **** 
  64:../libDaisy/src/sys/fatfs.h ****     FatFSInterface() {}
  65:../libDaisy/src/sys/fatfs.h **** 
  66:../libDaisy/src/sys/fatfs.h ****     /** Link the desired hardware specified via Config::Media */
  67:../libDaisy/src/sys/fatfs.h ****     Result Init(const Config& cfg);
  68:../libDaisy/src/sys/fatfs.h **** 
  69:../libDaisy/src/sys/fatfs.h ****     /** Link the desired hardware specified via Config::Media 
  70:../libDaisy/src/sys/fatfs.h ****      * 
  71:../libDaisy/src/sys/fatfs.h ****      *  Alternate, explicit initialization provided for simplified syntax.
  72:../libDaisy/src/sys/fatfs.h ****      */
  73:../libDaisy/src/sys/fatfs.h ****     Result Init(const uint8_t media);
  74:../libDaisy/src/sys/fatfs.h **** 
  75:../libDaisy/src/sys/fatfs.h ****     /** Unlinks FatFS from the configured media */
  76:../libDaisy/src/sys/fatfs.h ****     Result DeInit();
  77:../libDaisy/src/sys/fatfs.h **** 
  78:../libDaisy/src/sys/fatfs.h ****     bool Initialized() const { return initialized_; }
  79:../libDaisy/src/sys/fatfs.h **** 
  80:../libDaisy/src/sys/fatfs.h ****     /** Return the current configuration */
  81:../libDaisy/src/sys/fatfs.h ****     const Config& GetConfig() const { return cfg_; }
  82:../libDaisy/src/sys/fatfs.h **** 
  83:../libDaisy/src/sys/fatfs.h ****     /** Return a mutable reference to the Configuration */
  84:../libDaisy/src/sys/fatfs.h ****     Config& GetMutableConfig() { return cfg_; }
  85:../libDaisy/src/sys/fatfs.h **** 
  86:../libDaisy/src/sys/fatfs.h ****     /** Returns the path to an SD Card volume to use with f_mount */
  87:../libDaisy/src/sys/fatfs.h ****     const char* GetSDPath() const { return path_[0]; }
  88:../libDaisy/src/sys/fatfs.h **** 
  89:../libDaisy/src/sys/fatfs.h ****     /** Returns the path to a USB Device volume to use with f_mount */
  90:../libDaisy/src/sys/fatfs.h ****     const char* GetUSBPath() const { return path_[1]; }
  91:../libDaisy/src/sys/fatfs.h **** 
  92:../libDaisy/src/sys/fatfs.h ****     /** Returns reference to filesystem object for the SD volume. */
  93:../libDaisy/src/sys/fatfs.h ****     FATFS& GetSDFileSystem() { return fs_[0]; }
  94              		.loc 3 93 12 view .LVU21
ARM GAS  /var/folders/2p/02m_5p7958535cp2tpgps0400000gn/T//ccJ1AJ8p.s 			page 6


  95              	.LBB19:
  96              		.loc 3 93 32 view .LVU22
  97              		.loc 3 93 44 is_stmt 0 view .LVU23
  98 0024 6868     		ldr	r0, [r5, #4]
  99              	.LBE19:
 100              	.LBE18:
 101              		.loc 1 23 18 view .LVU24
 102 0026 3246     		mov	r2, r6
 103 0028 0549     		ldr	r1, .L4
 104 002a 0430     		adds	r0, r0, #4
 105 002c FFF7FEFF 		bl	f_mount
 106              	.LVL7:
 107              		.loc 1 23 58 view .LVU25
 108 0030 B0FA80F0 		clz	r0, r0
 109 0034 4009     		lsrs	r0, r0, #5
 110              	.L2:
  24:AudioFileManager.cpp **** }
 111              		.loc 1 24 1 view .LVU26
 112 0036 04B0     		add	sp, sp, #16
 113              		.cfi_remember_state
 114              		.cfi_def_cfa_offset 16
 115              		@ sp needed
 116 0038 70BD     		pop	{r4, r5, r6, pc}
 117              	.LVL8:
 118              	.L3:
 119              		.cfi_restore_state
  20:AudioFileManager.cpp ****   }
 120              		.loc 1 20 12 view .LVU27
 121 003a 2046     		mov	r0, r4
 122 003c FBE7     		b	.L2
 123              	.L5:
 124 003e 00BF     		.align	2
 125              	.L4:
 126 0040 00000000 		.word	.LC0
 127              		.cfi_endproc
 128              	.LFE2583:
 130              		.section	.rodata._ZN16AudioFileManager12ScanWavFilesEv.str1.1,"aMS",%progbits,1
 131              	.LC1:
 132 0000 2E5F00   		.ascii	"._\000"
 133              	.LC2:
 134 0003 2E776176 		.ascii	".wav\000"
 134      00
 135              	.LC3:
 136 0008 2E574156 		.ascii	".WAV\000"
 136      00
 137              		.section	.text._ZN16AudioFileManager12ScanWavFilesEv,"ax",%progbits
 138              		.align	1
 139              		.global	_ZN16AudioFileManager12ScanWavFilesEv
 140              		.syntax unified
 141              		.thumb
 142              		.thumb_func
 144              	_ZN16AudioFileManager12ScanWavFilesEv:
 145              	.LVL9:
 146              	.LFB2584:
  25:AudioFileManager.cpp **** 
  26:AudioFileManager.cpp **** /// @brief Scans for list of WAVs on SD card and stores filenames
  27:AudioFileManager.cpp **** /// @return False if directory fails to open or there are no valid files, else true
ARM GAS  /var/folders/2p/02m_5p7958535cp2tpgps0400000gn/T//ccJ1AJ8p.s 			page 7


  28:AudioFileManager.cpp **** bool AudioFileManager::ScanWavFiles(){
 147              		.loc 1 28 38 is_stmt 1 view -0
 148              		.cfi_startproc
 149              		@ args = 0, pretend = 0, frame = 328
 150              		@ frame_needed = 0, uses_anonymous_args = 0
  29:AudioFileManager.cpp ****   DIR dir;
 151              		.loc 1 29 3 view .LVU29
  30:AudioFileManager.cpp ****   FILINFO fno;
 152              		.loc 1 30 3 view .LVU30
  31:AudioFileManager.cpp ****   file_count_=0;
 153              		.loc 1 31 3 view .LVU31
  28:AudioFileManager.cpp ****   DIR dir;
 154              		.loc 1 28 38 is_stmt 0 view .LVU32
 155 0000 70B5     		push	{r4, r5, r6, lr}
 156              		.cfi_def_cfa_offset 16
 157              		.cfi_offset 4, -16
 158              		.cfi_offset 5, -12
 159              		.cfi_offset 6, -8
 160              		.cfi_offset 14, -4
 161              	.LBB20:
 162              	.LBB21:
  87:../libDaisy/src/sys/fatfs.h **** 
 163              		.loc 3 87 51 view .LVU33
 164 0002 4168     		ldr	r1, [r0, #4]
 165              	.LBE21:
 166              	.LBE20:
  28:AudioFileManager.cpp ****   DIR dir;
 167              		.loc 1 28 38 view .LVU34
 168 0004 D2B0     		sub	sp, sp, #328
 169              		.cfi_def_cfa_offset 344
 170              		.loc 1 31 14 view .LVU35
 171 0006 254D     		ldr	r5, .L23
 172 0008 0024     		movs	r4, #0
  32:AudioFileManager.cpp **** 
  33:AudioFileManager.cpp ****   if (f_opendir(&dir,fsi_.GetSDPath()) != FR_OK){
 173              		.loc 1 33 16 view .LVU36
 174 000a 01F27441 		addw	r1, r1, #1140
 175 000e 6846     		mov	r0, sp
 176              	.LVL10:
  31:AudioFileManager.cpp **** 
 177              		.loc 1 31 14 view .LVU37
 178 0010 2C80     		strh	r4, [r5]	@ movhi
 179              		.loc 1 33 3 is_stmt 1 view .LVU38
 180              	.LBB23:
 181              	.LBI20:
  87:../libDaisy/src/sys/fatfs.h **** 
 182              		.loc 3 87 17 view .LVU39
 183              	.LBB22:
  87:../libDaisy/src/sys/fatfs.h **** 
 184              		.loc 3 87 37 view .LVU40
 185              	.LBE22:
 186              	.LBE23:
 187              		.loc 1 33 16 is_stmt 0 view .LVU41
 188 0012 FFF7FEFF 		bl	f_opendir
 189              	.LVL11:
 190              		.loc 1 33 3 view .LVU42
 191 0016 0028     		cmp	r0, #0
ARM GAS  /var/folders/2p/02m_5p7958535cp2tpgps0400000gn/T//ccJ1AJ8p.s 			page 8


 192 0018 3DD1     		bne	.L13
 193              	.L8:
  34:AudioFileManager.cpp ****     // DebugPrint(pod_, "failed to open SD card directory");
  35:AudioFileManager.cpp ****     // TODO log error? 
  36:AudioFileManager.cpp ****     return false;
  37:AudioFileManager.cpp ****   }
  38:AudioFileManager.cpp ****   /* loop over files in SD card root directory */
  39:AudioFileManager.cpp ****   while (f_readdir(&dir, &fno) == FR_OK && fno.fname[0]!=0 && file_count_<MAX_FILES){
 194              		.loc 1 39 3 is_stmt 1 view .LVU43
 195              		.loc 1 39 60 view .LVU44
 196              		.loc 1 39 19 is_stmt 0 view .LVU45
 197 001a 0CA9     		add	r1, sp, #48
 198 001c 6846     		mov	r0, sp
 199 001e FFF7FEFF 		bl	f_readdir
 200              	.LVL12:
 201              		.loc 1 39 60 view .LVU46
 202 0022 78BB     		cbnz	r0, .L9
 203              		.loc 1 39 41 discriminator 1 view .LVU47
 204 0024 9DF84630 		ldrb	r3, [sp, #70]	@ zero_extendqisi2
 205 0028 63B3     		cbz	r3, .L9
 206              		.loc 1 39 74 discriminator 3 view .LVU48
 207 002a 2C88     		ldrh	r4, [r5]
 208              		.loc 1 39 60 discriminator 3 view .LVU49
 209 002c 1F2C     		cmp	r4, #31
 210 002e 29D8     		bhi	.L9
  40:AudioFileManager.cpp ****     /* skip hidden files / directories */
  41:AudioFileManager.cpp ****     if (!(fno.fattrib & (AM_HID|AM_DIR)) &&
 211              		.loc 1 41 5 is_stmt 1 view .LVU50
 212 0030 9DF83830 		ldrb	r3, [sp, #56]	@ zero_extendqisi2
 213 0034 13F0120F 		tst	r3, #18
 214 0038 EFD1     		bne	.L8
  42:AudioFileManager.cpp ****       /* ignore metadata files starting with '._' */
  43:AudioFileManager.cpp ****       strncmp(fno.fname,"._",2)!= 0 && 
 215              		.loc 1 43 14 is_stmt 0 discriminator 1 view .LVU51
 216 003a 0222     		movs	r2, #2
 217 003c 1849     		ldr	r1, .L23+4
 218 003e 0DF14600 		add	r0, sp, #70
 219 0042 FFF7FEFF 		bl	strncmp
 220              	.LVL13:
  41:AudioFileManager.cpp ****       /* ignore metadata files starting with '._' */
 221              		.loc 1 41 42 discriminator 1 view .LVU52
 222 0046 0028     		cmp	r0, #0
 223 0048 E7D0     		beq	.L8
  44:AudioFileManager.cpp ****       (strstr(fno.fname,".wav") || strstr(fno.fname,".WAV"))){
 224              		.loc 1 44 14 view .LVU53
 225 004a 1649     		ldr	r1, .L23+8
 226 004c 0DF14600 		add	r0, sp, #70
 227 0050 FFF7FEFF 		bl	strstr
 228              	.LVL14:
  43:AudioFileManager.cpp ****       (strstr(fno.fname,".wav") || strstr(fno.fname,".WAV"))){
 229              		.loc 1 43 37 view .LVU54
 230 0054 30B9     		cbnz	r0, .L12
 231              		.loc 1 44 42 view .LVU55
 232 0056 1449     		ldr	r1, .L23+12
 233 0058 0DF14600 		add	r0, sp, #70
 234 005c FFF7FEFF 		bl	strstr
 235              	.LVL15:
ARM GAS  /var/folders/2p/02m_5p7958535cp2tpgps0400000gn/T//ccJ1AJ8p.s 			page 9


 236              		.loc 1 44 33 view .LVU56
 237 0060 0028     		cmp	r0, #0
 238 0062 DAD0     		beq	.L8
 239              	.L12:
  45:AudioFileManager.cpp ****           strncpy(names_[file_count_],fno.fname, MAX_FNAME_LEN-1);
 240              		.loc 1 45 11 is_stmt 1 view .LVU57
 241              		.loc 1 45 18 is_stmt 0 view .LVU58
 242 0064 1148     		ldr	r0, .L23+16
 243              		.loc 1 45 37 view .LVU59
 244 0066 A601     		lsls	r6, r4, #6
 245              		.loc 1 45 18 view .LVU60
 246 0068 3F22     		movs	r2, #63
 247 006a 0DF14601 		add	r1, sp, #70
 248 006e 00EB8410 		add	r0, r0, r4, lsl #6
  46:AudioFileManager.cpp ****           names_[file_count_++][MAX_FNAME_LEN-1]='\0';
 249              		.loc 1 46 49 view .LVU61
 250 0072 2E44     		add	r6, r6, r5
  45:AudioFileManager.cpp ****           strncpy(names_[file_count_],fno.fname, MAX_FNAME_LEN-1);
 251              		.loc 1 45 18 view .LVU62
 252 0074 FFF7FEFF 		bl	strncpy
 253              	.LVL16:
 254              		.loc 1 46 11 is_stmt 1 view .LVU63
 255              		.loc 1 46 29 is_stmt 0 view .LVU64
 256 0078 0134     		adds	r4, r4, #1
 257              		.loc 1 46 49 view .LVU65
 258 007a 0023     		movs	r3, #0
 259              		.loc 1 46 29 view .LVU66
 260 007c 2C80     		strh	r4, [r5]	@ movhi
 261              		.loc 1 46 49 view .LVU67
 262 007e 86F84130 		strb	r3, [r6, #65]
 263 0082 CAE7     		b	.L8
 264              	.L9:
  47:AudioFileManager.cpp ****     }
  48:AudioFileManager.cpp ****   }
  49:AudioFileManager.cpp ****   f_closedir(&dir);
 265              		.loc 1 49 3 is_stmt 1 view .LVU68
 266              		.loc 1 49 13 is_stmt 0 view .LVU69
 267 0084 6846     		mov	r0, sp
 268 0086 FFF7FEFF 		bl	f_closedir
 269              	.LVL17:
  50:AudioFileManager.cpp ****   // DebugPrint(pod_, "file count is %d",file_count_);
  51:AudioFileManager.cpp ****   return file_count_ >0;
 270              		.loc 1 51 3 is_stmt 1 view .LVU70
 271              		.loc 1 51 23 is_stmt 0 view .LVU71
 272 008a 2888     		ldrh	r0, [r5]
 273 008c 0038     		subs	r0, r0, #0
 274 008e 18BF     		it	ne
 275 0090 0120     		movne	r0, #1
 276              	.L7:
  52:AudioFileManager.cpp **** }
 277              		.loc 1 52 1 view .LVU72
 278 0092 52B0     		add	sp, sp, #328
 279              		.cfi_remember_state
 280              		.cfi_def_cfa_offset 16
 281              		@ sp needed
 282 0094 70BD     		pop	{r4, r5, r6, pc}
 283              	.L13:
ARM GAS  /var/folders/2p/02m_5p7958535cp2tpgps0400000gn/T//ccJ1AJ8p.s 			page 10


 284              		.cfi_restore_state
  36:AudioFileManager.cpp ****   }
 285              		.loc 1 36 12 view .LVU73
 286 0096 2046     		mov	r0, r4
 287 0098 FBE7     		b	.L7
 288              	.L24:
 289 009a 00BF     		.align	2
 290              	.L23:
 291 009c 00000000 		.word	.LANCHOR0
 292 00a0 00000000 		.word	.LC1
 293 00a4 03000000 		.word	.LC2
 294 00a8 08000000 		.word	.LC3
 295 00ac 02000000 		.word	.LANCHOR0+2
 296              		.cfi_endproc
 297              	.LFE2584:
 299              		.section	.text._ZN16AudioFileManager12GetWavHeaderEP3FIL,"ax",%progbits
 300              		.align	1
 301              		.global	_ZN16AudioFileManager12GetWavHeaderEP3FIL
 302              		.syntax unified
 303              		.thumb
 304              		.thumb_func
 306              	_ZN16AudioFileManager12GetWavHeaderEP3FIL:
 307              	.LVL18:
 308              	.LFB2586:
  53:AudioFileManager.cpp **** 
  54:AudioFileManager.cpp **** /// @brief Opens a WAV file, gets its header data and loads the audio data
  55:AudioFileManager.cpp **** /// @param sel_idx The index of the selected file in the list of files on the SD card
  56:AudioFileManager.cpp **** /// @return True if file audio data is loaded succesfully
  57:AudioFileManager.cpp **** /// @return False if file fails to load - this could be because:
  58:AudioFileManager.cpp **** ///         - File index is invalid
  59:AudioFileManager.cpp **** ///         - File can't be opened from SD card
  60:AudioFileManager.cpp **** ///         - Bit depth or sample rate values are not supported 
  61:AudioFileManager.cpp **** ///         - Audio data fails to load 
  62:AudioFileManager.cpp **** bool AudioFileManager::LoadFile(uint16_t sel_idx) {
  63:AudioFileManager.cpp ****   if (sel_idx > file_count_) return false;
  64:AudioFileManager.cpp ****   if (sel_idx != curr_idx_) f_close(curr_file_);
  65:AudioFileManager.cpp **** 
  66:AudioFileManager.cpp ****   if (f_open(curr_file_, names_[sel_idx], (FA_OPEN_EXISTING | FA_READ))!=FR_OK) return false;
  67:AudioFileManager.cpp ****   if (!GetWavHeader(curr_file_)||header_.bit_depth!=16||header_.sample_rate!=48000){
  68:AudioFileManager.cpp ****     // DebugPrint(pod_, "wav header parse failed");
  69:AudioFileManager.cpp ****     f_close(curr_file_);
  70:AudioFileManager.cpp ****     return false;
  71:AudioFileManager.cpp ****   }
  72:AudioFileManager.cpp ****   // DebugPrint(pod_, "loading audio data now");
  73:AudioFileManager.cpp ****   return LoadAudioData();
  74:AudioFileManager.cpp **** }
  75:AudioFileManager.cpp **** 
  76:AudioFileManager.cpp **** /// @brief Parses audio format data from a WAV file header
  77:AudioFileManager.cpp **** /// @param file The WAV file to be parsed
  78:AudioFileManager.cpp **** /// @return True if all data is successfully parsed
  79:AudioFileManager.cpp **** /// @return False if file can't be read or data is missing
  80:AudioFileManager.cpp **** bool AudioFileManager::GetWavHeader(FIL* file){
 309              		.loc 1 80 47 is_stmt 1 view -0
 310              		.cfi_startproc
 311              		@ args = 0, pretend = 0, frame = 48
 312              		@ frame_needed = 0, uses_anonymous_args = 0
  81:AudioFileManager.cpp ****   WAV_FormatTypeDef header;
ARM GAS  /var/folders/2p/02m_5p7958535cp2tpgps0400000gn/T//ccJ1AJ8p.s 			page 11


 313              		.loc 1 81 3 view .LVU75
  82:AudioFileManager.cpp ****   UINT bytes_read;
 314              		.loc 1 82 3 view .LVU76
  83:AudioFileManager.cpp ****   FRESULT res = f_read(file, &header, sizeof(WAV_FormatTypeDef),&bytes_read);
 315              		.loc 1 83 3 view .LVU77
  80:AudioFileManager.cpp ****   WAV_FormatTypeDef header;
 316              		.loc 1 80 47 is_stmt 0 view .LVU78
 317 0000 10B5     		push	{r4, lr}
 318              		.cfi_def_cfa_offset 8
 319              		.cfi_offset 4, -8
 320              		.cfi_offset 14, -4
 321 0002 8CB0     		sub	sp, sp, #48
 322              		.cfi_def_cfa_offset 56
  80:AudioFileManager.cpp ****   WAV_FormatTypeDef header;
 323              		.loc 1 80 47 view .LVU79
 324 0004 0446     		mov	r4, r0
 325              		.loc 1 83 23 view .LVU80
 326 0006 2C22     		movs	r2, #44
  80:AudioFileManager.cpp ****   WAV_FormatTypeDef header;
 327              		.loc 1 80 47 view .LVU81
 328 0008 0846     		mov	r0, r1
 329              	.LVL19:
 330              		.loc 1 83 23 view .LVU82
 331 000a 6B46     		mov	r3, sp
 332 000c 01A9     		add	r1, sp, #4
 333              	.LVL20:
 334              		.loc 1 83 23 view .LVU83
 335 000e FFF7FEFF 		bl	f_read
 336              	.LVL21:
  84:AudioFileManager.cpp ****   if (res != FR_OK || bytes_read != sizeof(WAV_FormatTypeDef)){
 337              		.loc 1 84 3 is_stmt 1 view .LVU84
 338 0012 0028     		cmp	r0, #0
 339 0014 3ED1     		bne	.L28
 340              		.loc 1 84 20 is_stmt 0 discriminator 1 view .LVU85
 341 0016 009B     		ldr	r3, [sp]
 342 0018 2C2B     		cmp	r3, #44
 343 001a 39D1     		bne	.L26
  85:AudioFileManager.cpp ****     return false;
  86:AudioFileManager.cpp ****   }
  87:AudioFileManager.cpp ****   /* here we check each subchunk of the wav file is in the correct location and
  88:AudioFileManager.cpp ****     has the correct identifier - had some problems with weirdly formatted wav files
  89:AudioFileManager.cpp ****     NB: id values here/below are in little endian (usually big endian) */
  90:AudioFileManager.cpp ****   bool checkRIFF = (header.ChunkId == 0x46464952);
 344              		.loc 1 90 3 is_stmt 1 view .LVU86
 345              	.LVL22:
  91:AudioFileManager.cpp ****   bool checkWAV = (header.FileFormat == 0x45564157);
 346              		.loc 1 91 3 view .LVU87
  92:AudioFileManager.cpp ****   bool checkFmt = (header.SubChunk1ID == 0x20746D66);
 347              		.loc 1 92 3 view .LVU88
  93:AudioFileManager.cpp ****   bool checkData = (header.SubChunk2ID == 0x61746164);
 348              		.loc 1 93 3 view .LVU89
  94:AudioFileManager.cpp **** 
  95:AudioFileManager.cpp ****   /* ignore files with invalid riff/fmt header info - not compliant with WAV spec */
  96:AudioFileManager.cpp ****   if (!checkRIFF || !checkWAV) return false;
 349              		.loc 1 96 3 view .LVU90
 350 001c 1E4B     		ldr	r3, .L34
 351 001e 019A     		ldr	r2, [sp, #4]
ARM GAS  /var/folders/2p/02m_5p7958535cp2tpgps0400000gn/T//ccJ1AJ8p.s 			page 12


 352 0020 9A42     		cmp	r2, r3
 353 0022 35D1     		bne	.L26
 354              		.loc 1 96 18 is_stmt 0 discriminator 2 view .LVU91
 355 0024 A3F57003 		sub	r3, r3, #15728640
 356 0028 039A     		ldr	r2, [sp, #12]
 357 002a A3F2FB73 		subw	r3, r3, #2043
 358 002e 9A42     		cmp	r2, r3
 359 0030 2ED1     		bne	.L26
  97:AudioFileManager.cpp ****   if (checkFmt && checkData){
 360              		.loc 1 97 3 is_stmt 1 view .LVU92
 361 0032 03F15B43 		add	r3, r3, #-620756992
 362 0036 049A     		ldr	r2, [sp, #16]
 363 0038 03F5F113 		add	r3, r3, #1974272
 364 003c 03F60F43 		addw	r3, r3, #3087
 365 0040 9A42     		cmp	r2, r3
 366 0042 25D1     		bne	.L26
 367              		.loc 1 97 16 is_stmt 0 discriminator 1 view .LVU93
 368 0044 03F18243 		add	r3, r3, #1090519040
 369 0048 0A9A     		ldr	r2, [sp, #40]
 370 004a A3F60243 		subw	r3, r3, #3074
 371 004e 9A42     		cmp	r2, r3
 372 0050 1ED1     		bne	.L26
  98:AudioFileManager.cpp ****     header_.sample_rate = header.SampleRate;
 373              		.loc 1 98 5 is_stmt 1 view .LVU94
 374              		.loc 1 98 25 is_stmt 0 view .LVU95
 375 0052 124A     		ldr	r2, .L34+4
 376 0054 079B     		ldr	r3, [sp, #28]
  99:AudioFileManager.cpp ****     header_.channels = header.NbrChannels;
 100:AudioFileManager.cpp ****     header_.bit_depth = header.BitPerSample;
 101:AudioFileManager.cpp ****     header_.file_size = header.SubCHunk2Size;
 377              		.loc 1 101 32 view .LVU96
 378 0056 0B99     		ldr	r1, [sp, #44]
  98:AudioFileManager.cpp ****     header_.sample_rate = header.SampleRate;
 379              		.loc 1 98 25 view .LVU97
 380 0058 C2F80438 		str	r3, [r2, #2052]
  99:AudioFileManager.cpp ****     header_.channels = header.NbrChannels;
 381              		.loc 1 99 5 is_stmt 1 view .LVU98
  99:AudioFileManager.cpp ****     header_.channels = header.NbrChannels;
 382              		.loc 1 99 22 is_stmt 0 view .LVU99
 383 005c BDF81A30 		ldrh	r3, [sp, #26]
 384              		.loc 1 101 23 view .LVU100
 385 0060 C2F80818 		str	r1, [r2, #2056]
  99:AudioFileManager.cpp ****     header_.channels = header.NbrChannels;
 386              		.loc 1 99 22 view .LVU101
 387 0064 A2F80C38 		strh	r3, [r2, #2060]	@ movhi
 100:AudioFileManager.cpp ****     header_.file_size = header.SubCHunk2Size;
 388              		.loc 1 100 5 is_stmt 1 view .LVU102
 100:AudioFileManager.cpp ****     header_.file_size = header.SubCHunk2Size;
 389              		.loc 1 100 32 is_stmt 0 view .LVU103
 390 0068 BDF92630 		ldrsh	r3, [sp, #38]
 102:AudioFileManager.cpp ****     header_.total_samples = header_.file_size / (header_.bit_depth/8);
 103:AudioFileManager.cpp ****     return f_lseek(curr_file_,audio_data_start_) == FR_OK;
 391              		.loc 1 103 19 view .LVU104
 392 006c E068     		ldr	r0, [r4, #12]
 393              	.LVL23:
 100:AudioFileManager.cpp ****     header_.file_size = header.SubCHunk2Size;
 394              		.loc 1 100 23 view .LVU105
ARM GAS  /var/folders/2p/02m_5p7958535cp2tpgps0400000gn/T//ccJ1AJ8p.s 			page 13


 395 006e A2F80E38 		strh	r3, [r2, #2062]	@ movhi
 101:AudioFileManager.cpp ****     header_.total_samples = header_.file_size / (header_.bit_depth/8);
 396              		.loc 1 101 5 is_stmt 1 view .LVU106
 102:AudioFileManager.cpp ****     header_.total_samples = header_.file_size / (header_.bit_depth/8);
 397              		.loc 1 102 5 view .LVU107
 102:AudioFileManager.cpp ****     header_.total_samples = header_.file_size / (header_.bit_depth/8);
 398              		.loc 1 102 67 is_stmt 0 view .LVU108
 399 0072 002B     		cmp	r3, #0
 400 0074 B8BF     		it	lt
 401 0076 0733     		addlt	r3, r3, #7
 402 0078 DB10     		asrs	r3, r3, #3
 102:AudioFileManager.cpp ****     header_.total_samples = header_.file_size / (header_.bit_depth/8);
 403              		.loc 1 102 47 view .LVU109
 404 007a B1FBF3F3 		udiv	r3, r1, r3
 405              		.loc 1 103 19 view .LVU110
 406 007e 92F81418 		ldrb	r1, [r2, #2068]	@ zero_extendqisi2
 102:AudioFileManager.cpp ****     header_.total_samples = header_.file_size / (header_.bit_depth/8);
 407              		.loc 1 102 27 view .LVU111
 408 0082 C2F81038 		str	r3, [r2, #2064]
 409              		.loc 1 103 5 is_stmt 1 view .LVU112
 410              		.loc 1 103 19 is_stmt 0 view .LVU113
 411 0086 FFF7FEFF 		bl	f_lseek
 412              	.LVL24:
 413              		.loc 1 103 53 view .LVU114
 414 008a B0FA80F0 		clz	r0, r0
 415 008e 4009     		lsrs	r0, r0, #5
 416              	.L26:
 104:AudioFileManager.cpp ****   }
 105:AudioFileManager.cpp ****   else return false;
 106:AudioFileManager.cpp ****   // if (checkFmt){
 107:AudioFileManager.cpp ****   //   header_.sample_rate = header.SampleRate;
 108:AudioFileManager.cpp ****   //   header_.channels = header.NbrChannels;
 109:AudioFileManager.cpp ****   //   header_.bit_depth = header.BitPerSample;
 110:AudioFileManager.cpp ****   // }
 111:AudioFileManager.cpp ****   // if (checkData){
 112:AudioFileManager.cpp ****   //   header_.file_size = header.SubCHunk2Size;
 113:AudioFileManager.cpp ****   // /* find audio len in samples: http://tiny.systems/software/soundProgrammer/WavFormatDocs.pdf *
 114:AudioFileManager.cpp ****   //   header_.total_samples = header_.file_size / (header_.bit_depth/8);
 115:AudioFileManager.cpp ****   // }
 116:AudioFileManager.cpp ****   // /* otherwise: data chunk may be misplaced, so search within file for it */
 117:AudioFileManager.cpp ****   // if (!checkFmt || !checkData){
 118:AudioFileManager.cpp ****   //   uint32_t chunk_id, chunk_size;
 119:AudioFileManager.cpp ****   //   f_lseek(file, 12); /* skip to usual start of fmt chunk (byte 12) to start looking */
 120:AudioFileManager.cpp ****   //   while (f_read(file, &chunk_id, 4, &bytes_read) == FR_OK && bytes_read == 4) {
 121:AudioFileManager.cpp ****   //     f_read(file, &chunk_size, 4, &bytes_read);
 122:AudioFileManager.cpp ****       
 123:AudioFileManager.cpp ****   //     if (chunk_id==0x20746D66) { /* this is 'fmt' in little endian */
 124:AudioFileManager.cpp ****         
 125:AudioFileManager.cpp ****   //       f_lseek(file, f_tell(file)+6); /* skip chunk size and audio format - 6 bytes */
 126:AudioFileManager.cpp ****   //       /* now get num of channels - 2 bytes*/
 127:AudioFileManager.cpp ****   //       if (f_read(file, &header_.channels, 2, &bytes_read)!=FR_OK || bytes_read!=2){
 128:AudioFileManager.cpp ****   //         return false;
 129:AudioFileManager.cpp ****   //       }
 130:AudioFileManager.cpp ****   //       /* get sample rate - 4 bytes */
 131:AudioFileManager.cpp ****   //       if (f_read(file, &header_.sample_rate, 4, &bytes_read)!=FR_OK || bytes_read!=4){
 132:AudioFileManager.cpp ****   //         return false;
 133:AudioFileManager.cpp ****   //       }
ARM GAS  /var/folders/2p/02m_5p7958535cp2tpgps0400000gn/T//ccJ1AJ8p.s 			page 14


 134:AudioFileManager.cpp ****   //       f_lseek(file, f_tell(file)+6); /* skip byte rate and block align - 6 bytes */
 135:AudioFileManager.cpp ****   //       /* finally get bit depth - 2 bytes */
 136:AudioFileManager.cpp ****   //       if (f_read(file, &header_.bit_depth, 2, &bytes_read)!=FR_OK || bytes_read!=2){
 137:AudioFileManager.cpp ****   //         return false;
 138:AudioFileManager.cpp ****   //       }
 139:AudioFileManager.cpp ****   //       checkFmt = true;
 140:AudioFileManager.cpp ****   //     }
 141:AudioFileManager.cpp ****   //     else if (chunk_id==0x61746164){ /* this is 'data' in little endian */
 142:AudioFileManager.cpp ****   //       header_.file_size = chunk_size;
 143:AudioFileManager.cpp ****   //       checkData = true;
 144:AudioFileManager.cpp ****   //       break;
 145:AudioFileManager.cpp ****   //     } 
 146:AudioFileManager.cpp ****   //     else {
 147:AudioFileManager.cpp ****   //       f_lseek(file, f_tell(file)+chunk_size);
 148:AudioFileManager.cpp ****   //     }
 149:AudioFileManager.cpp ****   //     if (checkFmt && checkData) break;
 150:AudioFileManager.cpp ****   //   }
 151:AudioFileManager.cpp ****   // }
 152:AudioFileManager.cpp ****   // if (!checkFmt || !checkData) return false;
 153:AudioFileManager.cpp ****   // header_.total_samples = header_.file_size / (header_.bit_depth / 8);
 154:AudioFileManager.cpp ****   // audio_data_start_ = f_tell(file); 
 155:AudioFileManager.cpp ****   // FRESULT seek_res = f_lseek(curr_file_, audio_data_start_);
 156:AudioFileManager.cpp ****   // return seek_res == FR_OK;
 157:AudioFileManager.cpp **** }
 417              		.loc 1 157 1 view .LVU115
 418 0090 0CB0     		add	sp, sp, #48
 419              		.cfi_remember_state
 420              		.cfi_def_cfa_offset 8
 421              		@ sp needed
 422 0092 10BD     		pop	{r4, pc}
 423              	.LVL25:
 424              	.L28:
 425              		.cfi_restore_state
  85:AudioFileManager.cpp ****   }
 426              		.loc 1 85 12 view .LVU116
 427 0094 0020     		movs	r0, #0
 428              	.LVL26:
  85:AudioFileManager.cpp ****   }
 429              		.loc 1 85 12 view .LVU117
 430 0096 FBE7     		b	.L26
 431              	.L35:
 432              		.align	2
 433              	.L34:
 434 0098 52494646 		.word	1179011410
 435 009c 00000000 		.word	.LANCHOR0
 436              		.cfi_endproc
 437              	.LFE2586:
 439              		.section	.text._ZN16AudioFileManager14Load16BitAudioEj,"ax",%progbits
 440              		.align	1
 441              		.global	_ZN16AudioFileManager14Load16BitAudioEj
 442              		.syntax unified
 443              		.thumb
 444              		.thumb_func
 446              	_ZN16AudioFileManager14Load16BitAudioEj:
 447              	.LVL27:
 448              	.LFB2588:
 158:AudioFileManager.cpp **** 
ARM GAS  /var/folders/2p/02m_5p7958535cp2tpgps0400000gn/T//ccJ1AJ8p.s 			page 15


 159:AudioFileManager.cpp **** /// @brief Clear data buffers, check file length is within bounds, call audio loader
 160:AudioFileManager.cpp **** /// @return True if audio is loaded, false if file is too long or incorrect bit depth
 161:AudioFileManager.cpp **** bool AudioFileManager::LoadAudioData() {
 162:AudioFileManager.cpp ****   memset(left_buf_, 0.0f, CHNL_BUF_SIZE_ABS);
 163:AudioFileManager.cpp ****   memset(right_buf_, 0.0f, CHNL_BUF_SIZE_ABS);
 164:AudioFileManager.cpp ****   size_t samples_per_channel = GetSamplesPerChannel();
 165:AudioFileManager.cpp **** 
 166:AudioFileManager.cpp ****   if (samples_per_channel > CHNL_BUF_SIZE_SAMPS) return false;
 167:AudioFileManager.cpp **** 
 168:AudioFileManager.cpp ****   return Load16BitAudio(samples_per_channel);
 169:AudioFileManager.cpp **** }
 170:AudioFileManager.cpp **** 
 171:AudioFileManager.cpp **** /// @brief Reads chunks of bytes from audio file into temporary buffer, then into SDRAM
 172:AudioFileManager.cpp **** /// @param samples_per_channel Length of audio in samples, per channel 
 173:AudioFileManager.cpp **** /// @return True if audio is loaded. False if file fails to read
 174:AudioFileManager.cpp **** bool AudioFileManager::Load16BitAudio(size_t samples_per_channel){
 449              		.loc 1 174 66 is_stmt 1 view -0
 450              		.cfi_startproc
 451              		@ args = 0, pretend = 0, frame = 8
 452              		@ frame_needed = 0, uses_anonymous_args = 0
 175:AudioFileManager.cpp ****   // DebugPrint(pod_,"before buf");
 176:AudioFileManager.cpp ****   // alignas(32) std::vector<int16_t> temp_buf(BUF_CHUNK_SZ*header_.channels);
 177:AudioFileManager.cpp ****   // std::vector<int16_t> temp_buf(BUF_CHUNK_SZ*header_.channels);
 178:AudioFileManager.cpp ****   // int16_t temp_buf[16384]; // stack buffer
 179:AudioFileManager.cpp ****   int16_t* temp_buf = new int16_t[16384]; // heap buffer? try it 
 453              		.loc 1 179 3 view .LVU119
 174:AudioFileManager.cpp ****   // DebugPrint(pod_,"before buf");
 454              		.loc 1 174 66 is_stmt 0 view .LVU120
 455 0000 2DE9F341 		push	{r0, r1, r4, r5, r6, r7, r8, lr}
 456              		.cfi_def_cfa_offset 32
 457              		.cfi_offset 4, -24
 458              		.cfi_offset 5, -20
 459              		.cfi_offset 6, -16
 460              		.cfi_offset 7, -12
 461              		.cfi_offset 8, -8
 462              		.cfi_offset 14, -4
 174:AudioFileManager.cpp ****   // DebugPrint(pod_,"before buf");
 463              		.loc 1 174 66 view .LVU121
 464 0004 0746     		mov	r7, r0
 465              		.loc 1 179 40 view .LVU122
 466 0006 4FF40040 		mov	r0, #32768
 467              	.LVL28:
 174:AudioFileManager.cpp ****   // DebugPrint(pod_,"before buf");
 468              		.loc 1 174 66 view .LVU123
 469 000a 0E46     		mov	r6, r1
 180:AudioFileManager.cpp ****   size_t samples_read = 0;
 470              		.loc 1 180 10 view .LVU124
 471 000c 0025     		movs	r5, #0
 179:AudioFileManager.cpp ****   size_t samples_read = 0;
 472              		.loc 1 179 40 view .LVU125
 473 000e FFF7FEFF 		bl	_Znaj
 474              	.LVL29:
 179:AudioFileManager.cpp ****   size_t samples_read = 0;
 475              		.loc 1 179 40 view .LVU126
 476 0012 0446     		mov	r4, r0
 477              	.LVL30:
 478              		.loc 1 180 3 is_stmt 1 view .LVU127
ARM GAS  /var/folders/2p/02m_5p7958535cp2tpgps0400000gn/T//ccJ1AJ8p.s 			page 16


 479              	.L45:
 181:AudioFileManager.cpp ****   UINT bytes_read;
 480              		.loc 1 181 3 view .LVU128
 182:AudioFileManager.cpp ****   // DebugPrint(pod_,"starting loading loop");
 183:AudioFileManager.cpp ****   while (!f_eof(curr_file_) && samples_read<samples_per_channel){
 481              		.loc 1 183 3 view .LVU129
 482              		.loc 1 183 29 view .LVU130
 483              		.loc 1 183 11 is_stmt 0 view .LVU131
 484 0014 F868     		ldr	r0, [r7, #12]
 485              		.loc 1 183 29 view .LVU132
 486 0016 4269     		ldr	r2, [r0, #20]
 487 0018 C368     		ldr	r3, [r0, #12]
 488 001a 9A42     		cmp	r2, r3
 489 001c 48D0     		beq	.L37
 490              		.loc 1 183 29 discriminator 1 view .LVU133
 491 001e B542     		cmp	r5, r6
 492 0020 46D2     		bcs	.L37
 493              	.LBB24:
 184:AudioFileManager.cpp ****     // DebugPrint(pod_,"first bit of loading loop");
 185:AudioFileManager.cpp ****     size_t samples_to_read = std::min(static_cast<size_t>(16384), (samples_per_channel-samples_read
 494              		.loc 1 185 5 is_stmt 1 view .LVU134
 495              		.loc 1 185 87 is_stmt 0 view .LVU135
 496 0022 731B     		subs	r3, r6, r5
 497              	.LVL31:
 498              	.LBB25:
 499              	.LBI25:
 500              		.file 4 "/Library/DaisyToolchain/0.2.0/arm/arm-none-eabi/include/c++/10.3.1/bits/stl_algobase.h"
   1:/Library/DaisyToolchain/0.2.0/arm/arm-none-eabi/include/c++/10.3.1/bits/stl_algobase.h **** // Core algorithmic facilities -*- C++ -*-
   2:/Library/DaisyToolchain/0.2.0/arm/arm-none-eabi/include/c++/10.3.1/bits/stl_algobase.h **** 
   3:/Library/DaisyToolchain/0.2.0/arm/arm-none-eabi/include/c++/10.3.1/bits/stl_algobase.h **** // Copyright (C) 2001-2020 Free Software Foundation, Inc.
   4:/Library/DaisyToolchain/0.2.0/arm/arm-none-eabi/include/c++/10.3.1/bits/stl_algobase.h **** //
   5:/Library/DaisyToolchain/0.2.0/arm/arm-none-eabi/include/c++/10.3.1/bits/stl_algobase.h **** // This file is part of the GNU ISO C++ Library.  This library is free
   6:/Library/DaisyToolchain/0.2.0/arm/arm-none-eabi/include/c++/10.3.1/bits/stl_algobase.h **** // software; you can redistribute it and/or modify it under the
   7:/Library/DaisyToolchain/0.2.0/arm/arm-none-eabi/include/c++/10.3.1/bits/stl_algobase.h **** // terms of the GNU General Public License as published by the
   8:/Library/DaisyToolchain/0.2.0/arm/arm-none-eabi/include/c++/10.3.1/bits/stl_algobase.h **** // Free Software Foundation; either version 3, or (at your option)
   9:/Library/DaisyToolchain/0.2.0/arm/arm-none-eabi/include/c++/10.3.1/bits/stl_algobase.h **** // any later version.
  10:/Library/DaisyToolchain/0.2.0/arm/arm-none-eabi/include/c++/10.3.1/bits/stl_algobase.h **** 
  11:/Library/DaisyToolchain/0.2.0/arm/arm-none-eabi/include/c++/10.3.1/bits/stl_algobase.h **** // This library is distributed in the hope that it will be useful,
  12:/Library/DaisyToolchain/0.2.0/arm/arm-none-eabi/include/c++/10.3.1/bits/stl_algobase.h **** // but WITHOUT ANY WARRANTY; without even the implied warranty of
  13:/Library/DaisyToolchain/0.2.0/arm/arm-none-eabi/include/c++/10.3.1/bits/stl_algobase.h **** // MERCHANTABILITY or FITNESS FOR A PARTICULAR PURPOSE.  See the
  14:/Library/DaisyToolchain/0.2.0/arm/arm-none-eabi/include/c++/10.3.1/bits/stl_algobase.h **** // GNU General Public License for more details.
  15:/Library/DaisyToolchain/0.2.0/arm/arm-none-eabi/include/c++/10.3.1/bits/stl_algobase.h **** 
  16:/Library/DaisyToolchain/0.2.0/arm/arm-none-eabi/include/c++/10.3.1/bits/stl_algobase.h **** // Under Section 7 of GPL version 3, you are granted additional
  17:/Library/DaisyToolchain/0.2.0/arm/arm-none-eabi/include/c++/10.3.1/bits/stl_algobase.h **** // permissions described in the GCC Runtime Library Exception, version
  18:/Library/DaisyToolchain/0.2.0/arm/arm-none-eabi/include/c++/10.3.1/bits/stl_algobase.h **** // 3.1, as published by the Free Software Foundation.
  19:/Library/DaisyToolchain/0.2.0/arm/arm-none-eabi/include/c++/10.3.1/bits/stl_algobase.h **** 
  20:/Library/DaisyToolchain/0.2.0/arm/arm-none-eabi/include/c++/10.3.1/bits/stl_algobase.h **** // You should have received a copy of the GNU General Public License and
  21:/Library/DaisyToolchain/0.2.0/arm/arm-none-eabi/include/c++/10.3.1/bits/stl_algobase.h **** // a copy of the GCC Runtime Library Exception along with this program;
  22:/Library/DaisyToolchain/0.2.0/arm/arm-none-eabi/include/c++/10.3.1/bits/stl_algobase.h **** // see the files COPYING3 and COPYING.RUNTIME respectively.  If not, see
  23:/Library/DaisyToolchain/0.2.0/arm/arm-none-eabi/include/c++/10.3.1/bits/stl_algobase.h **** // <http://www.gnu.org/licenses/>.
  24:/Library/DaisyToolchain/0.2.0/arm/arm-none-eabi/include/c++/10.3.1/bits/stl_algobase.h **** 
  25:/Library/DaisyToolchain/0.2.0/arm/arm-none-eabi/include/c++/10.3.1/bits/stl_algobase.h **** /*
  26:/Library/DaisyToolchain/0.2.0/arm/arm-none-eabi/include/c++/10.3.1/bits/stl_algobase.h ****  *
  27:/Library/DaisyToolchain/0.2.0/arm/arm-none-eabi/include/c++/10.3.1/bits/stl_algobase.h ****  * Copyright (c) 1994
  28:/Library/DaisyToolchain/0.2.0/arm/arm-none-eabi/include/c++/10.3.1/bits/stl_algobase.h ****  * Hewlett-Packard Company
  29:/Library/DaisyToolchain/0.2.0/arm/arm-none-eabi/include/c++/10.3.1/bits/stl_algobase.h ****  *
  30:/Library/DaisyToolchain/0.2.0/arm/arm-none-eabi/include/c++/10.3.1/bits/stl_algobase.h ****  * Permission to use, copy, modify, distribute and sell this software
ARM GAS  /var/folders/2p/02m_5p7958535cp2tpgps0400000gn/T//ccJ1AJ8p.s 			page 17


  31:/Library/DaisyToolchain/0.2.0/arm/arm-none-eabi/include/c++/10.3.1/bits/stl_algobase.h ****  * and its documentation for any purpose is hereby granted without fee,
  32:/Library/DaisyToolchain/0.2.0/arm/arm-none-eabi/include/c++/10.3.1/bits/stl_algobase.h ****  * provided that the above copyright notice appear in all copies and
  33:/Library/DaisyToolchain/0.2.0/arm/arm-none-eabi/include/c++/10.3.1/bits/stl_algobase.h ****  * that both that copyright notice and this permission notice appear
  34:/Library/DaisyToolchain/0.2.0/arm/arm-none-eabi/include/c++/10.3.1/bits/stl_algobase.h ****  * in supporting documentation.  Hewlett-Packard Company makes no
  35:/Library/DaisyToolchain/0.2.0/arm/arm-none-eabi/include/c++/10.3.1/bits/stl_algobase.h ****  * representations about the suitability of this software for any
  36:/Library/DaisyToolchain/0.2.0/arm/arm-none-eabi/include/c++/10.3.1/bits/stl_algobase.h ****  * purpose.  It is provided "as is" without express or implied warranty.
  37:/Library/DaisyToolchain/0.2.0/arm/arm-none-eabi/include/c++/10.3.1/bits/stl_algobase.h ****  *
  38:/Library/DaisyToolchain/0.2.0/arm/arm-none-eabi/include/c++/10.3.1/bits/stl_algobase.h ****  *
  39:/Library/DaisyToolchain/0.2.0/arm/arm-none-eabi/include/c++/10.3.1/bits/stl_algobase.h ****  * Copyright (c) 1996-1998
  40:/Library/DaisyToolchain/0.2.0/arm/arm-none-eabi/include/c++/10.3.1/bits/stl_algobase.h ****  * Silicon Graphics Computer Systems, Inc.
  41:/Library/DaisyToolchain/0.2.0/arm/arm-none-eabi/include/c++/10.3.1/bits/stl_algobase.h ****  *
  42:/Library/DaisyToolchain/0.2.0/arm/arm-none-eabi/include/c++/10.3.1/bits/stl_algobase.h ****  * Permission to use, copy, modify, distribute and sell this software
  43:/Library/DaisyToolchain/0.2.0/arm/arm-none-eabi/include/c++/10.3.1/bits/stl_algobase.h ****  * and its documentation for any purpose is hereby granted without fee,
  44:/Library/DaisyToolchain/0.2.0/arm/arm-none-eabi/include/c++/10.3.1/bits/stl_algobase.h ****  * provided that the above copyright notice appear in all copies and
  45:/Library/DaisyToolchain/0.2.0/arm/arm-none-eabi/include/c++/10.3.1/bits/stl_algobase.h ****  * that both that copyright notice and this permission notice appear
  46:/Library/DaisyToolchain/0.2.0/arm/arm-none-eabi/include/c++/10.3.1/bits/stl_algobase.h ****  * in supporting documentation.  Silicon Graphics makes no
  47:/Library/DaisyToolchain/0.2.0/arm/arm-none-eabi/include/c++/10.3.1/bits/stl_algobase.h ****  * representations about the suitability of this software for any
  48:/Library/DaisyToolchain/0.2.0/arm/arm-none-eabi/include/c++/10.3.1/bits/stl_algobase.h ****  * purpose.  It is provided "as is" without express or implied warranty.
  49:/Library/DaisyToolchain/0.2.0/arm/arm-none-eabi/include/c++/10.3.1/bits/stl_algobase.h ****  */
  50:/Library/DaisyToolchain/0.2.0/arm/arm-none-eabi/include/c++/10.3.1/bits/stl_algobase.h **** 
  51:/Library/DaisyToolchain/0.2.0/arm/arm-none-eabi/include/c++/10.3.1/bits/stl_algobase.h **** /** @file bits/stl_algobase.h
  52:/Library/DaisyToolchain/0.2.0/arm/arm-none-eabi/include/c++/10.3.1/bits/stl_algobase.h ****  *  This is an internal header file, included by other library headers.
  53:/Library/DaisyToolchain/0.2.0/arm/arm-none-eabi/include/c++/10.3.1/bits/stl_algobase.h ****  *  Do not attempt to use it directly. @headername{algorithm}
  54:/Library/DaisyToolchain/0.2.0/arm/arm-none-eabi/include/c++/10.3.1/bits/stl_algobase.h ****  */
  55:/Library/DaisyToolchain/0.2.0/arm/arm-none-eabi/include/c++/10.3.1/bits/stl_algobase.h **** 
  56:/Library/DaisyToolchain/0.2.0/arm/arm-none-eabi/include/c++/10.3.1/bits/stl_algobase.h **** #ifndef _STL_ALGOBASE_H
  57:/Library/DaisyToolchain/0.2.0/arm/arm-none-eabi/include/c++/10.3.1/bits/stl_algobase.h **** #define _STL_ALGOBASE_H 1
  58:/Library/DaisyToolchain/0.2.0/arm/arm-none-eabi/include/c++/10.3.1/bits/stl_algobase.h **** 
  59:/Library/DaisyToolchain/0.2.0/arm/arm-none-eabi/include/c++/10.3.1/bits/stl_algobase.h **** #include <bits/c++config.h>
  60:/Library/DaisyToolchain/0.2.0/arm/arm-none-eabi/include/c++/10.3.1/bits/stl_algobase.h **** #include <bits/functexcept.h>
  61:/Library/DaisyToolchain/0.2.0/arm/arm-none-eabi/include/c++/10.3.1/bits/stl_algobase.h **** #include <bits/cpp_type_traits.h>
  62:/Library/DaisyToolchain/0.2.0/arm/arm-none-eabi/include/c++/10.3.1/bits/stl_algobase.h **** #include <ext/type_traits.h>
  63:/Library/DaisyToolchain/0.2.0/arm/arm-none-eabi/include/c++/10.3.1/bits/stl_algobase.h **** #include <ext/numeric_traits.h>
  64:/Library/DaisyToolchain/0.2.0/arm/arm-none-eabi/include/c++/10.3.1/bits/stl_algobase.h **** #include <bits/stl_pair.h>
  65:/Library/DaisyToolchain/0.2.0/arm/arm-none-eabi/include/c++/10.3.1/bits/stl_algobase.h **** #include <bits/stl_iterator_base_types.h>
  66:/Library/DaisyToolchain/0.2.0/arm/arm-none-eabi/include/c++/10.3.1/bits/stl_algobase.h **** #include <bits/stl_iterator_base_funcs.h>
  67:/Library/DaisyToolchain/0.2.0/arm/arm-none-eabi/include/c++/10.3.1/bits/stl_algobase.h **** #include <bits/stl_iterator.h>
  68:/Library/DaisyToolchain/0.2.0/arm/arm-none-eabi/include/c++/10.3.1/bits/stl_algobase.h **** #include <bits/concept_check.h>
  69:/Library/DaisyToolchain/0.2.0/arm/arm-none-eabi/include/c++/10.3.1/bits/stl_algobase.h **** #include <debug/debug.h>
  70:/Library/DaisyToolchain/0.2.0/arm/arm-none-eabi/include/c++/10.3.1/bits/stl_algobase.h **** #include <bits/move.h> // For std::swap
  71:/Library/DaisyToolchain/0.2.0/arm/arm-none-eabi/include/c++/10.3.1/bits/stl_algobase.h **** #include <bits/predefined_ops.h>
  72:/Library/DaisyToolchain/0.2.0/arm/arm-none-eabi/include/c++/10.3.1/bits/stl_algobase.h **** #if __cplusplus >= 201103L
  73:/Library/DaisyToolchain/0.2.0/arm/arm-none-eabi/include/c++/10.3.1/bits/stl_algobase.h **** # include <type_traits>
  74:/Library/DaisyToolchain/0.2.0/arm/arm-none-eabi/include/c++/10.3.1/bits/stl_algobase.h **** #endif
  75:/Library/DaisyToolchain/0.2.0/arm/arm-none-eabi/include/c++/10.3.1/bits/stl_algobase.h **** #if __cplusplus > 201703L
  76:/Library/DaisyToolchain/0.2.0/arm/arm-none-eabi/include/c++/10.3.1/bits/stl_algobase.h **** # include <compare>
  77:/Library/DaisyToolchain/0.2.0/arm/arm-none-eabi/include/c++/10.3.1/bits/stl_algobase.h **** #endif
  78:/Library/DaisyToolchain/0.2.0/arm/arm-none-eabi/include/c++/10.3.1/bits/stl_algobase.h **** 
  79:/Library/DaisyToolchain/0.2.0/arm/arm-none-eabi/include/c++/10.3.1/bits/stl_algobase.h **** namespace std _GLIBCXX_VISIBILITY(default)
  80:/Library/DaisyToolchain/0.2.0/arm/arm-none-eabi/include/c++/10.3.1/bits/stl_algobase.h **** {
  81:/Library/DaisyToolchain/0.2.0/arm/arm-none-eabi/include/c++/10.3.1/bits/stl_algobase.h **** _GLIBCXX_BEGIN_NAMESPACE_VERSION
  82:/Library/DaisyToolchain/0.2.0/arm/arm-none-eabi/include/c++/10.3.1/bits/stl_algobase.h **** 
  83:/Library/DaisyToolchain/0.2.0/arm/arm-none-eabi/include/c++/10.3.1/bits/stl_algobase.h ****   /*
  84:/Library/DaisyToolchain/0.2.0/arm/arm-none-eabi/include/c++/10.3.1/bits/stl_algobase.h ****    * A constexpr wrapper for __builtin_memcmp.
  85:/Library/DaisyToolchain/0.2.0/arm/arm-none-eabi/include/c++/10.3.1/bits/stl_algobase.h ****    * @param __num The number of elements of type _Tp (not bytes).
  86:/Library/DaisyToolchain/0.2.0/arm/arm-none-eabi/include/c++/10.3.1/bits/stl_algobase.h ****    */
  87:/Library/DaisyToolchain/0.2.0/arm/arm-none-eabi/include/c++/10.3.1/bits/stl_algobase.h ****   template<typename _Tp, typename _Up>
ARM GAS  /var/folders/2p/02m_5p7958535cp2tpgps0400000gn/T//ccJ1AJ8p.s 			page 18


  88:/Library/DaisyToolchain/0.2.0/arm/arm-none-eabi/include/c++/10.3.1/bits/stl_algobase.h ****     _GLIBCXX14_CONSTEXPR
  89:/Library/DaisyToolchain/0.2.0/arm/arm-none-eabi/include/c++/10.3.1/bits/stl_algobase.h ****     inline int
  90:/Library/DaisyToolchain/0.2.0/arm/arm-none-eabi/include/c++/10.3.1/bits/stl_algobase.h ****     __memcmp(const _Tp* __first1, const _Up* __first2, size_t __num)
  91:/Library/DaisyToolchain/0.2.0/arm/arm-none-eabi/include/c++/10.3.1/bits/stl_algobase.h ****     {
  92:/Library/DaisyToolchain/0.2.0/arm/arm-none-eabi/include/c++/10.3.1/bits/stl_algobase.h **** #if __cplusplus >= 201103L
  93:/Library/DaisyToolchain/0.2.0/arm/arm-none-eabi/include/c++/10.3.1/bits/stl_algobase.h ****       static_assert(sizeof(_Tp) == sizeof(_Up), "can be compared with memcmp");
  94:/Library/DaisyToolchain/0.2.0/arm/arm-none-eabi/include/c++/10.3.1/bits/stl_algobase.h **** #endif
  95:/Library/DaisyToolchain/0.2.0/arm/arm-none-eabi/include/c++/10.3.1/bits/stl_algobase.h **** #ifdef __cpp_lib_is_constant_evaluated
  96:/Library/DaisyToolchain/0.2.0/arm/arm-none-eabi/include/c++/10.3.1/bits/stl_algobase.h ****       if (std::is_constant_evaluated())
  97:/Library/DaisyToolchain/0.2.0/arm/arm-none-eabi/include/c++/10.3.1/bits/stl_algobase.h **** 	{
  98:/Library/DaisyToolchain/0.2.0/arm/arm-none-eabi/include/c++/10.3.1/bits/stl_algobase.h **** 	  for(; __num > 0; ++__first1, ++__first2, --__num)
  99:/Library/DaisyToolchain/0.2.0/arm/arm-none-eabi/include/c++/10.3.1/bits/stl_algobase.h **** 	    if (*__first1 != *__first2)
 100:/Library/DaisyToolchain/0.2.0/arm/arm-none-eabi/include/c++/10.3.1/bits/stl_algobase.h **** 	      return *__first1 < *__first2 ? -1 : 1;
 101:/Library/DaisyToolchain/0.2.0/arm/arm-none-eabi/include/c++/10.3.1/bits/stl_algobase.h **** 	  return 0;
 102:/Library/DaisyToolchain/0.2.0/arm/arm-none-eabi/include/c++/10.3.1/bits/stl_algobase.h **** 	}
 103:/Library/DaisyToolchain/0.2.0/arm/arm-none-eabi/include/c++/10.3.1/bits/stl_algobase.h ****       else
 104:/Library/DaisyToolchain/0.2.0/arm/arm-none-eabi/include/c++/10.3.1/bits/stl_algobase.h **** #endif
 105:/Library/DaisyToolchain/0.2.0/arm/arm-none-eabi/include/c++/10.3.1/bits/stl_algobase.h **** 	return __builtin_memcmp(__first1, __first2, sizeof(_Tp) * __num);
 106:/Library/DaisyToolchain/0.2.0/arm/arm-none-eabi/include/c++/10.3.1/bits/stl_algobase.h ****     }
 107:/Library/DaisyToolchain/0.2.0/arm/arm-none-eabi/include/c++/10.3.1/bits/stl_algobase.h **** 
 108:/Library/DaisyToolchain/0.2.0/arm/arm-none-eabi/include/c++/10.3.1/bits/stl_algobase.h **** #if __cplusplus < 201103L
 109:/Library/DaisyToolchain/0.2.0/arm/arm-none-eabi/include/c++/10.3.1/bits/stl_algobase.h ****   // See http://gcc.gnu.org/ml/libstdc++/2004-08/msg00167.html: in a
 110:/Library/DaisyToolchain/0.2.0/arm/arm-none-eabi/include/c++/10.3.1/bits/stl_algobase.h ****   // nutshell, we are partially implementing the resolution of DR 187,
 111:/Library/DaisyToolchain/0.2.0/arm/arm-none-eabi/include/c++/10.3.1/bits/stl_algobase.h ****   // when it's safe, i.e., the value_types are equal.
 112:/Library/DaisyToolchain/0.2.0/arm/arm-none-eabi/include/c++/10.3.1/bits/stl_algobase.h ****   template<bool _BoolType>
 113:/Library/DaisyToolchain/0.2.0/arm/arm-none-eabi/include/c++/10.3.1/bits/stl_algobase.h ****     struct __iter_swap
 114:/Library/DaisyToolchain/0.2.0/arm/arm-none-eabi/include/c++/10.3.1/bits/stl_algobase.h ****     {
 115:/Library/DaisyToolchain/0.2.0/arm/arm-none-eabi/include/c++/10.3.1/bits/stl_algobase.h ****       template<typename _ForwardIterator1, typename _ForwardIterator2>
 116:/Library/DaisyToolchain/0.2.0/arm/arm-none-eabi/include/c++/10.3.1/bits/stl_algobase.h **** 	static void
 117:/Library/DaisyToolchain/0.2.0/arm/arm-none-eabi/include/c++/10.3.1/bits/stl_algobase.h **** 	iter_swap(_ForwardIterator1 __a, _ForwardIterator2 __b)
 118:/Library/DaisyToolchain/0.2.0/arm/arm-none-eabi/include/c++/10.3.1/bits/stl_algobase.h **** 	{
 119:/Library/DaisyToolchain/0.2.0/arm/arm-none-eabi/include/c++/10.3.1/bits/stl_algobase.h **** 	  typedef typename iterator_traits<_ForwardIterator1>::value_type
 120:/Library/DaisyToolchain/0.2.0/arm/arm-none-eabi/include/c++/10.3.1/bits/stl_algobase.h **** 	    _ValueType1;
 121:/Library/DaisyToolchain/0.2.0/arm/arm-none-eabi/include/c++/10.3.1/bits/stl_algobase.h **** 	  _ValueType1 __tmp = *__a;
 122:/Library/DaisyToolchain/0.2.0/arm/arm-none-eabi/include/c++/10.3.1/bits/stl_algobase.h **** 	  *__a = *__b;
 123:/Library/DaisyToolchain/0.2.0/arm/arm-none-eabi/include/c++/10.3.1/bits/stl_algobase.h **** 	  *__b = __tmp;
 124:/Library/DaisyToolchain/0.2.0/arm/arm-none-eabi/include/c++/10.3.1/bits/stl_algobase.h **** 	}
 125:/Library/DaisyToolchain/0.2.0/arm/arm-none-eabi/include/c++/10.3.1/bits/stl_algobase.h ****     };
 126:/Library/DaisyToolchain/0.2.0/arm/arm-none-eabi/include/c++/10.3.1/bits/stl_algobase.h **** 
 127:/Library/DaisyToolchain/0.2.0/arm/arm-none-eabi/include/c++/10.3.1/bits/stl_algobase.h ****   template<>
 128:/Library/DaisyToolchain/0.2.0/arm/arm-none-eabi/include/c++/10.3.1/bits/stl_algobase.h ****     struct __iter_swap<true>
 129:/Library/DaisyToolchain/0.2.0/arm/arm-none-eabi/include/c++/10.3.1/bits/stl_algobase.h ****     {
 130:/Library/DaisyToolchain/0.2.0/arm/arm-none-eabi/include/c++/10.3.1/bits/stl_algobase.h ****       template<typename _ForwardIterator1, typename _ForwardIterator2>
 131:/Library/DaisyToolchain/0.2.0/arm/arm-none-eabi/include/c++/10.3.1/bits/stl_algobase.h **** 	static void
 132:/Library/DaisyToolchain/0.2.0/arm/arm-none-eabi/include/c++/10.3.1/bits/stl_algobase.h **** 	iter_swap(_ForwardIterator1 __a, _ForwardIterator2 __b)
 133:/Library/DaisyToolchain/0.2.0/arm/arm-none-eabi/include/c++/10.3.1/bits/stl_algobase.h **** 	{
 134:/Library/DaisyToolchain/0.2.0/arm/arm-none-eabi/include/c++/10.3.1/bits/stl_algobase.h **** 	  swap(*__a, *__b);
 135:/Library/DaisyToolchain/0.2.0/arm/arm-none-eabi/include/c++/10.3.1/bits/stl_algobase.h **** 	}
 136:/Library/DaisyToolchain/0.2.0/arm/arm-none-eabi/include/c++/10.3.1/bits/stl_algobase.h ****     };
 137:/Library/DaisyToolchain/0.2.0/arm/arm-none-eabi/include/c++/10.3.1/bits/stl_algobase.h **** #endif // C++03
 138:/Library/DaisyToolchain/0.2.0/arm/arm-none-eabi/include/c++/10.3.1/bits/stl_algobase.h **** 
 139:/Library/DaisyToolchain/0.2.0/arm/arm-none-eabi/include/c++/10.3.1/bits/stl_algobase.h ****   /**
 140:/Library/DaisyToolchain/0.2.0/arm/arm-none-eabi/include/c++/10.3.1/bits/stl_algobase.h ****    *  @brief Swaps the contents of two iterators.
 141:/Library/DaisyToolchain/0.2.0/arm/arm-none-eabi/include/c++/10.3.1/bits/stl_algobase.h ****    *  @ingroup mutating_algorithms
 142:/Library/DaisyToolchain/0.2.0/arm/arm-none-eabi/include/c++/10.3.1/bits/stl_algobase.h ****    *  @param  __a  An iterator.
 143:/Library/DaisyToolchain/0.2.0/arm/arm-none-eabi/include/c++/10.3.1/bits/stl_algobase.h ****    *  @param  __b  Another iterator.
 144:/Library/DaisyToolchain/0.2.0/arm/arm-none-eabi/include/c++/10.3.1/bits/stl_algobase.h ****    *  @return   Nothing.
ARM GAS  /var/folders/2p/02m_5p7958535cp2tpgps0400000gn/T//ccJ1AJ8p.s 			page 19


 145:/Library/DaisyToolchain/0.2.0/arm/arm-none-eabi/include/c++/10.3.1/bits/stl_algobase.h ****    *
 146:/Library/DaisyToolchain/0.2.0/arm/arm-none-eabi/include/c++/10.3.1/bits/stl_algobase.h ****    *  This function swaps the values pointed to by two iterators, not the
 147:/Library/DaisyToolchain/0.2.0/arm/arm-none-eabi/include/c++/10.3.1/bits/stl_algobase.h ****    *  iterators themselves.
 148:/Library/DaisyToolchain/0.2.0/arm/arm-none-eabi/include/c++/10.3.1/bits/stl_algobase.h ****   */
 149:/Library/DaisyToolchain/0.2.0/arm/arm-none-eabi/include/c++/10.3.1/bits/stl_algobase.h ****   template<typename _ForwardIterator1, typename _ForwardIterator2>
 150:/Library/DaisyToolchain/0.2.0/arm/arm-none-eabi/include/c++/10.3.1/bits/stl_algobase.h ****     _GLIBCXX20_CONSTEXPR
 151:/Library/DaisyToolchain/0.2.0/arm/arm-none-eabi/include/c++/10.3.1/bits/stl_algobase.h ****     inline void
 152:/Library/DaisyToolchain/0.2.0/arm/arm-none-eabi/include/c++/10.3.1/bits/stl_algobase.h ****     iter_swap(_ForwardIterator1 __a, _ForwardIterator2 __b)
 153:/Library/DaisyToolchain/0.2.0/arm/arm-none-eabi/include/c++/10.3.1/bits/stl_algobase.h ****     {
 154:/Library/DaisyToolchain/0.2.0/arm/arm-none-eabi/include/c++/10.3.1/bits/stl_algobase.h ****       // concept requirements
 155:/Library/DaisyToolchain/0.2.0/arm/arm-none-eabi/include/c++/10.3.1/bits/stl_algobase.h ****       __glibcxx_function_requires(_Mutable_ForwardIteratorConcept<
 156:/Library/DaisyToolchain/0.2.0/arm/arm-none-eabi/include/c++/10.3.1/bits/stl_algobase.h **** 				  _ForwardIterator1>)
 157:/Library/DaisyToolchain/0.2.0/arm/arm-none-eabi/include/c++/10.3.1/bits/stl_algobase.h ****       __glibcxx_function_requires(_Mutable_ForwardIteratorConcept<
 158:/Library/DaisyToolchain/0.2.0/arm/arm-none-eabi/include/c++/10.3.1/bits/stl_algobase.h **** 				  _ForwardIterator2>)
 159:/Library/DaisyToolchain/0.2.0/arm/arm-none-eabi/include/c++/10.3.1/bits/stl_algobase.h **** 
 160:/Library/DaisyToolchain/0.2.0/arm/arm-none-eabi/include/c++/10.3.1/bits/stl_algobase.h **** #if __cplusplus < 201103L
 161:/Library/DaisyToolchain/0.2.0/arm/arm-none-eabi/include/c++/10.3.1/bits/stl_algobase.h ****       typedef typename iterator_traits<_ForwardIterator1>::value_type
 162:/Library/DaisyToolchain/0.2.0/arm/arm-none-eabi/include/c++/10.3.1/bits/stl_algobase.h **** 	_ValueType1;
 163:/Library/DaisyToolchain/0.2.0/arm/arm-none-eabi/include/c++/10.3.1/bits/stl_algobase.h ****       typedef typename iterator_traits<_ForwardIterator2>::value_type
 164:/Library/DaisyToolchain/0.2.0/arm/arm-none-eabi/include/c++/10.3.1/bits/stl_algobase.h **** 	_ValueType2;
 165:/Library/DaisyToolchain/0.2.0/arm/arm-none-eabi/include/c++/10.3.1/bits/stl_algobase.h **** 
 166:/Library/DaisyToolchain/0.2.0/arm/arm-none-eabi/include/c++/10.3.1/bits/stl_algobase.h ****       __glibcxx_function_requires(_ConvertibleConcept<_ValueType1,
 167:/Library/DaisyToolchain/0.2.0/arm/arm-none-eabi/include/c++/10.3.1/bits/stl_algobase.h **** 				  _ValueType2>)
 168:/Library/DaisyToolchain/0.2.0/arm/arm-none-eabi/include/c++/10.3.1/bits/stl_algobase.h ****       __glibcxx_function_requires(_ConvertibleConcept<_ValueType2,
 169:/Library/DaisyToolchain/0.2.0/arm/arm-none-eabi/include/c++/10.3.1/bits/stl_algobase.h **** 				  _ValueType1>)
 170:/Library/DaisyToolchain/0.2.0/arm/arm-none-eabi/include/c++/10.3.1/bits/stl_algobase.h **** 
 171:/Library/DaisyToolchain/0.2.0/arm/arm-none-eabi/include/c++/10.3.1/bits/stl_algobase.h ****       typedef typename iterator_traits<_ForwardIterator1>::reference
 172:/Library/DaisyToolchain/0.2.0/arm/arm-none-eabi/include/c++/10.3.1/bits/stl_algobase.h **** 	_ReferenceType1;
 173:/Library/DaisyToolchain/0.2.0/arm/arm-none-eabi/include/c++/10.3.1/bits/stl_algobase.h ****       typedef typename iterator_traits<_ForwardIterator2>::reference
 174:/Library/DaisyToolchain/0.2.0/arm/arm-none-eabi/include/c++/10.3.1/bits/stl_algobase.h **** 	_ReferenceType2;
 175:/Library/DaisyToolchain/0.2.0/arm/arm-none-eabi/include/c++/10.3.1/bits/stl_algobase.h ****       std::__iter_swap<__are_same<_ValueType1, _ValueType2>::__value
 176:/Library/DaisyToolchain/0.2.0/arm/arm-none-eabi/include/c++/10.3.1/bits/stl_algobase.h **** 	&& __are_same<_ValueType1&, _ReferenceType1>::__value
 177:/Library/DaisyToolchain/0.2.0/arm/arm-none-eabi/include/c++/10.3.1/bits/stl_algobase.h **** 	&& __are_same<_ValueType2&, _ReferenceType2>::__value>::
 178:/Library/DaisyToolchain/0.2.0/arm/arm-none-eabi/include/c++/10.3.1/bits/stl_algobase.h **** 	iter_swap(__a, __b);
 179:/Library/DaisyToolchain/0.2.0/arm/arm-none-eabi/include/c++/10.3.1/bits/stl_algobase.h **** #else
 180:/Library/DaisyToolchain/0.2.0/arm/arm-none-eabi/include/c++/10.3.1/bits/stl_algobase.h ****       // _GLIBCXX_RESOLVE_LIB_DEFECTS
 181:/Library/DaisyToolchain/0.2.0/arm/arm-none-eabi/include/c++/10.3.1/bits/stl_algobase.h ****       // 187. iter_swap underspecified
 182:/Library/DaisyToolchain/0.2.0/arm/arm-none-eabi/include/c++/10.3.1/bits/stl_algobase.h ****       swap(*__a, *__b);
 183:/Library/DaisyToolchain/0.2.0/arm/arm-none-eabi/include/c++/10.3.1/bits/stl_algobase.h **** #endif
 184:/Library/DaisyToolchain/0.2.0/arm/arm-none-eabi/include/c++/10.3.1/bits/stl_algobase.h ****     }
 185:/Library/DaisyToolchain/0.2.0/arm/arm-none-eabi/include/c++/10.3.1/bits/stl_algobase.h **** 
 186:/Library/DaisyToolchain/0.2.0/arm/arm-none-eabi/include/c++/10.3.1/bits/stl_algobase.h ****   /**
 187:/Library/DaisyToolchain/0.2.0/arm/arm-none-eabi/include/c++/10.3.1/bits/stl_algobase.h ****    *  @brief Swap the elements of two sequences.
 188:/Library/DaisyToolchain/0.2.0/arm/arm-none-eabi/include/c++/10.3.1/bits/stl_algobase.h ****    *  @ingroup mutating_algorithms
 189:/Library/DaisyToolchain/0.2.0/arm/arm-none-eabi/include/c++/10.3.1/bits/stl_algobase.h ****    *  @param  __first1  A forward iterator.
 190:/Library/DaisyToolchain/0.2.0/arm/arm-none-eabi/include/c++/10.3.1/bits/stl_algobase.h ****    *  @param  __last1   A forward iterator.
 191:/Library/DaisyToolchain/0.2.0/arm/arm-none-eabi/include/c++/10.3.1/bits/stl_algobase.h ****    *  @param  __first2  A forward iterator.
 192:/Library/DaisyToolchain/0.2.0/arm/arm-none-eabi/include/c++/10.3.1/bits/stl_algobase.h ****    *  @return   An iterator equal to @p first2+(last1-first1).
 193:/Library/DaisyToolchain/0.2.0/arm/arm-none-eabi/include/c++/10.3.1/bits/stl_algobase.h ****    *
 194:/Library/DaisyToolchain/0.2.0/arm/arm-none-eabi/include/c++/10.3.1/bits/stl_algobase.h ****    *  Swaps each element in the range @p [first1,last1) with the
 195:/Library/DaisyToolchain/0.2.0/arm/arm-none-eabi/include/c++/10.3.1/bits/stl_algobase.h ****    *  corresponding element in the range @p [first2,(last1-first1)).
 196:/Library/DaisyToolchain/0.2.0/arm/arm-none-eabi/include/c++/10.3.1/bits/stl_algobase.h ****    *  The ranges must not overlap.
 197:/Library/DaisyToolchain/0.2.0/arm/arm-none-eabi/include/c++/10.3.1/bits/stl_algobase.h ****   */
 198:/Library/DaisyToolchain/0.2.0/arm/arm-none-eabi/include/c++/10.3.1/bits/stl_algobase.h ****   template<typename _ForwardIterator1, typename _ForwardIterator2>
 199:/Library/DaisyToolchain/0.2.0/arm/arm-none-eabi/include/c++/10.3.1/bits/stl_algobase.h ****     _GLIBCXX20_CONSTEXPR
 200:/Library/DaisyToolchain/0.2.0/arm/arm-none-eabi/include/c++/10.3.1/bits/stl_algobase.h ****     _ForwardIterator2
 201:/Library/DaisyToolchain/0.2.0/arm/arm-none-eabi/include/c++/10.3.1/bits/stl_algobase.h ****     swap_ranges(_ForwardIterator1 __first1, _ForwardIterator1 __last1,
ARM GAS  /var/folders/2p/02m_5p7958535cp2tpgps0400000gn/T//ccJ1AJ8p.s 			page 20


 202:/Library/DaisyToolchain/0.2.0/arm/arm-none-eabi/include/c++/10.3.1/bits/stl_algobase.h **** 		_ForwardIterator2 __first2)
 203:/Library/DaisyToolchain/0.2.0/arm/arm-none-eabi/include/c++/10.3.1/bits/stl_algobase.h ****     {
 204:/Library/DaisyToolchain/0.2.0/arm/arm-none-eabi/include/c++/10.3.1/bits/stl_algobase.h ****       // concept requirements
 205:/Library/DaisyToolchain/0.2.0/arm/arm-none-eabi/include/c++/10.3.1/bits/stl_algobase.h ****       __glibcxx_function_requires(_Mutable_ForwardIteratorConcept<
 206:/Library/DaisyToolchain/0.2.0/arm/arm-none-eabi/include/c++/10.3.1/bits/stl_algobase.h **** 				  _ForwardIterator1>)
 207:/Library/DaisyToolchain/0.2.0/arm/arm-none-eabi/include/c++/10.3.1/bits/stl_algobase.h ****       __glibcxx_function_requires(_Mutable_ForwardIteratorConcept<
 208:/Library/DaisyToolchain/0.2.0/arm/arm-none-eabi/include/c++/10.3.1/bits/stl_algobase.h **** 				  _ForwardIterator2>)
 209:/Library/DaisyToolchain/0.2.0/arm/arm-none-eabi/include/c++/10.3.1/bits/stl_algobase.h ****       __glibcxx_requires_valid_range(__first1, __last1);
 210:/Library/DaisyToolchain/0.2.0/arm/arm-none-eabi/include/c++/10.3.1/bits/stl_algobase.h **** 
 211:/Library/DaisyToolchain/0.2.0/arm/arm-none-eabi/include/c++/10.3.1/bits/stl_algobase.h ****       for (; __first1 != __last1; ++__first1, (void)++__first2)
 212:/Library/DaisyToolchain/0.2.0/arm/arm-none-eabi/include/c++/10.3.1/bits/stl_algobase.h **** 	std::iter_swap(__first1, __first2);
 213:/Library/DaisyToolchain/0.2.0/arm/arm-none-eabi/include/c++/10.3.1/bits/stl_algobase.h ****       return __first2;
 214:/Library/DaisyToolchain/0.2.0/arm/arm-none-eabi/include/c++/10.3.1/bits/stl_algobase.h ****     }
 215:/Library/DaisyToolchain/0.2.0/arm/arm-none-eabi/include/c++/10.3.1/bits/stl_algobase.h **** 
 216:/Library/DaisyToolchain/0.2.0/arm/arm-none-eabi/include/c++/10.3.1/bits/stl_algobase.h ****   /**
 217:/Library/DaisyToolchain/0.2.0/arm/arm-none-eabi/include/c++/10.3.1/bits/stl_algobase.h ****    *  @brief This does what you think it does.
 218:/Library/DaisyToolchain/0.2.0/arm/arm-none-eabi/include/c++/10.3.1/bits/stl_algobase.h ****    *  @ingroup sorting_algorithms
 219:/Library/DaisyToolchain/0.2.0/arm/arm-none-eabi/include/c++/10.3.1/bits/stl_algobase.h ****    *  @param  __a  A thing of arbitrary type.
 220:/Library/DaisyToolchain/0.2.0/arm/arm-none-eabi/include/c++/10.3.1/bits/stl_algobase.h ****    *  @param  __b  Another thing of arbitrary type.
 221:/Library/DaisyToolchain/0.2.0/arm/arm-none-eabi/include/c++/10.3.1/bits/stl_algobase.h ****    *  @return   The lesser of the parameters.
 222:/Library/DaisyToolchain/0.2.0/arm/arm-none-eabi/include/c++/10.3.1/bits/stl_algobase.h ****    *
 223:/Library/DaisyToolchain/0.2.0/arm/arm-none-eabi/include/c++/10.3.1/bits/stl_algobase.h ****    *  This is the simple classic generic implementation.  It will work on
 224:/Library/DaisyToolchain/0.2.0/arm/arm-none-eabi/include/c++/10.3.1/bits/stl_algobase.h ****    *  temporary expressions, since they are only evaluated once, unlike a
 225:/Library/DaisyToolchain/0.2.0/arm/arm-none-eabi/include/c++/10.3.1/bits/stl_algobase.h ****    *  preprocessor macro.
 226:/Library/DaisyToolchain/0.2.0/arm/arm-none-eabi/include/c++/10.3.1/bits/stl_algobase.h ****   */
 227:/Library/DaisyToolchain/0.2.0/arm/arm-none-eabi/include/c++/10.3.1/bits/stl_algobase.h ****   template<typename _Tp>
 228:/Library/DaisyToolchain/0.2.0/arm/arm-none-eabi/include/c++/10.3.1/bits/stl_algobase.h ****     _GLIBCXX14_CONSTEXPR
 229:/Library/DaisyToolchain/0.2.0/arm/arm-none-eabi/include/c++/10.3.1/bits/stl_algobase.h ****     inline const _Tp&
 230:/Library/DaisyToolchain/0.2.0/arm/arm-none-eabi/include/c++/10.3.1/bits/stl_algobase.h ****     min(const _Tp& __a, const _Tp& __b)
 501              		.loc 4 230 5 is_stmt 1 view .LVU136
 502              	.LBE25:
 186:AudioFileManager.cpp ****     // size_t bytes_to_read = samples_to_read * header_.channels * sizeof(int16_t);
 187:AudioFileManager.cpp ****     
 188:AudioFileManager.cpp ****     if (f_read(curr_file_, temp_buf, samples_to_read*header_.channels * sizeof(int16_t), &bytes_rea
 503              		.loc 1 188 62 is_stmt 0 view .LVU137
 504 0024 DFF89C80 		ldr	r8, .L47+8
 505              		.loc 1 188 15 view .LVU138
 506 0028 2146     		mov	r1, r4
 507              	.LBB28:
 508              	.LBB26:
 231:/Library/DaisyToolchain/0.2.0/arm/arm-none-eabi/include/c++/10.3.1/bits/stl_algobase.h ****     {
 232:/Library/DaisyToolchain/0.2.0/arm/arm-none-eabi/include/c++/10.3.1/bits/stl_algobase.h ****       // concept requirements
 233:/Library/DaisyToolchain/0.2.0/arm/arm-none-eabi/include/c++/10.3.1/bits/stl_algobase.h ****       __glibcxx_function_requires(_LessThanComparableConcept<_Tp>)
 234:/Library/DaisyToolchain/0.2.0/arm/arm-none-eabi/include/c++/10.3.1/bits/stl_algobase.h ****       //return __b < __a ? __b : __a;
 235:/Library/DaisyToolchain/0.2.0/arm/arm-none-eabi/include/c++/10.3.1/bits/stl_algobase.h ****       if (__b < __a)
 236:/Library/DaisyToolchain/0.2.0/arm/arm-none-eabi/include/c++/10.3.1/bits/stl_algobase.h **** 	return __b;
 237:/Library/DaisyToolchain/0.2.0/arm/arm-none-eabi/include/c++/10.3.1/bits/stl_algobase.h ****       return __a;
 509              		.loc 4 237 14 view .LVU139
 510 002a B3F5804F 		cmp	r3, #16384
 511              	.LBE26:
 512              	.LBE28:
 513              		.loc 1 188 62 view .LVU140
 514 002e B8F90C28 		ldrsh	r2, [r8, #2060]
 515              	.LBB29:
 516              	.LBB27:
 517              		.loc 4 237 14 view .LVU141
 518 0032 28BF     		it	cs
ARM GAS  /var/folders/2p/02m_5p7958535cp2tpgps0400000gn/T//ccJ1AJ8p.s 			page 21


 519 0034 4FF48043 		movcs	r3, #16384
 520              	.LVL32:
 521              		.loc 4 237 14 view .LVU142
 522              	.LBE27:
 523              	.LBE29:
 524              		.loc 1 188 5 is_stmt 1 view .LVU143
 525              		.loc 1 188 15 is_stmt 0 view .LVU144
 526 0038 5A43     		muls	r2, r3, r2
 527 003a 01AB     		add	r3, sp, #4
 528 003c 5200     		lsls	r2, r2, #1
 529 003e FFF7FEFF 		bl	f_read
 530              	.LVL33:
 531              		.loc 1 188 5 view .LVU145
 532 0042 0346     		mov	r3, r0
 533 0044 30B1     		cbz	r0, .L39
 189:AudioFileManager.cpp ****       delete[] temp_buf;
 534              		.loc 1 189 7 is_stmt 1 discriminator 1 view .LVU146
 535              		.loc 1 189 16 is_stmt 0 discriminator 1 view .LVU147
 536 0046 2046     		mov	r0, r4
 537 0048 FFF7FEFF 		bl	_ZdaPv
 538              	.LVL34:
 190:AudioFileManager.cpp ****       // DebugPrint(pod_, "failed to fread");
 191:AudioFileManager.cpp ****       return false;
 539              		.loc 1 191 7 is_stmt 1 discriminator 1 view .LVU148
 540              		.loc 1 191 14 is_stmt 0 discriminator 1 view .LVU149
 541 004c 0020     		movs	r0, #0
 542              	.L40:
 543              		.loc 1 191 14 discriminator 1 view .LVU150
 544              	.LBE24:
 192:AudioFileManager.cpp ****     }
 193:AudioFileManager.cpp **** 
 194:AudioFileManager.cpp ****     size_t samples_in_chunk = bytes_read / (header_.channels * sizeof(int16_t));
 195:AudioFileManager.cpp ****     for (size_t i=0; i<samples_in_chunk; i++){
 196:AudioFileManager.cpp ****       if (header_.channels == 1){
 197:AudioFileManager.cpp ****         left_buf_[i+samples_read] = right_buf_[i+samples_read] = temp_buf[i];
 198:AudioFileManager.cpp ****       }
 199:AudioFileManager.cpp ****       else {
 200:AudioFileManager.cpp ****         left_buf_[i+samples_read] = temp_buf[i * 2];
 201:AudioFileManager.cpp ****         right_buf_[i+samples_read] = temp_buf[i * 2 + 1];
 202:AudioFileManager.cpp ****       }
 203:AudioFileManager.cpp ****     }
 204:AudioFileManager.cpp ****     samples_read += samples_in_chunk;
 205:AudioFileManager.cpp ****   }
 206:AudioFileManager.cpp ****   // DebugPrint(pod_,"end of loading loop - loaded ok");
 207:AudioFileManager.cpp ****   delete[] temp_buf;
 208:AudioFileManager.cpp ****   return true;
 209:AudioFileManager.cpp **** }
 545              		.loc 1 209 1 view .LVU151
 546 004e 02B0     		add	sp, sp, #8
 547              		.cfi_remember_state
 548              		.cfi_def_cfa_offset 24
 549              		@ sp needed
 550 0050 BDE8F081 		pop	{r4, r5, r6, r7, r8, pc}
 551              	.LVL35:
 552              	.L39:
 553              		.cfi_restore_state
 554              	.LBB31:
ARM GAS  /var/folders/2p/02m_5p7958535cp2tpgps0400000gn/T//ccJ1AJ8p.s 			page 22


 194:AudioFileManager.cpp ****     for (size_t i=0; i<samples_in_chunk; i++){
 555              		.loc 1 194 5 is_stmt 1 view .LVU152
 194:AudioFileManager.cpp ****     for (size_t i=0; i<samples_in_chunk; i++){
 556              		.loc 1 194 62 is_stmt 0 view .LVU153
 557 0054 B8F90C08 		ldrsh	r0, [r8, #2060]
 558 0058 4200     		lsls	r2, r0, #1
 194:AudioFileManager.cpp ****     for (size_t i=0; i<samples_in_chunk; i++){
 559              		.loc 1 194 12 view .LVU154
 560 005a 0198     		ldr	r0, [sp, #4]
 561 005c B0FBF2F0 		udiv	r0, r0, r2
 562              	.LVL36:
 195:AudioFileManager.cpp ****       if (header_.channels == 1){
 563              		.loc 1 195 5 is_stmt 1 view .LVU155
 564              	.LBB30:
 201:AudioFileManager.cpp ****       }
 565              		.loc 1 201 34 is_stmt 0 view .LVU156
 566 0060 164A     		ldr	r2, .L47
 567 0062 1168     		ldr	r1, [r2]
 200:AudioFileManager.cpp ****         right_buf_[i+samples_read] = temp_buf[i * 2 + 1];
 568              		.loc 1 200 33 view .LVU157
 569 0064 164A     		ldr	r2, .L47+4
 570 0066 01EB4501 		add	r1, r1, r5, lsl #1
 571 006a 1268     		ldr	r2, [r2]
 572 006c 02EB4502 		add	r2, r2, r5, lsl #1
 573              	.LVL37:
 574              	.L44:
 195:AudioFileManager.cpp ****       if (header_.channels == 1){
 575              		.loc 1 195 23 is_stmt 1 discriminator 1 view .LVU158
 576 0070 8342     		cmp	r3, r0
 577 0072 1BD0     		beq	.L41
 196:AudioFileManager.cpp ****         left_buf_[i+samples_read] = right_buf_[i+samples_read] = temp_buf[i];
 578              		.loc 1 196 7 view .LVU159
 579 0074 B8F90CC8 		ldrsh	ip, [r8, #2060]
 580 0078 0231     		adds	r1, r1, #2
 581 007a 0232     		adds	r2, r2, #2
 582 007c BCF1010F 		cmp	ip, #1
 197:AudioFileManager.cpp ****       }
 583              		.loc 1 197 9 view .LVU160
 200:AudioFileManager.cpp ****         right_buf_[i+samples_read] = temp_buf[i * 2 + 1];
 584              		.loc 1 200 51 is_stmt 0 view .LVU161
 585 0080 17BF     		itett	ne
 586 0082 34F923C0 		ldrshne	ip, [r4, r3, lsl #2]
 197:AudioFileManager.cpp ****       }
 587              		.loc 1 197 76 view .LVU162
 588 0086 34F913C0 		ldrsheq	ip, [r4, r3, lsl #1]
 200:AudioFileManager.cpp ****         right_buf_[i+samples_read] = temp_buf[i * 2 + 1];
 589              		.loc 1 200 35 view .LVU163
 590 008a 22F802CC 		strhne	ip, [r2, #-2]	@ movhi
 201:AudioFileManager.cpp ****       }
 591              		.loc 1 201 56 view .LVU164
 592 008e 04F1020C 		addne	ip, r4, #2
 197:AudioFileManager.cpp ****       }
 593              		.loc 1 197 64 view .LVU165
 594 0092 0CBF     		ite	eq
 595 0094 21F802CC 		strheq	ip, [r1, #-2]	@ movhi
 201:AudioFileManager.cpp ****       }
 596              		.loc 1 201 56 view .LVU166
ARM GAS  /var/folders/2p/02m_5p7958535cp2tpgps0400000gn/T//ccJ1AJ8p.s 			page 23


 597 0098 3CF923C0 		ldrshne	ip, [ip, r3, lsl #2]
 195:AudioFileManager.cpp ****       if (header_.channels == 1){
 598              		.loc 1 195 5 view .LVU167
 599 009c 03F10103 		add	r3, r3, #1
 600              	.LVL38:
 197:AudioFileManager.cpp ****       }
 601              		.loc 1 197 35 view .LVU168
 602 00a0 0CBF     		ite	eq
 603 00a2 22F802CC 		strheq	ip, [r2, #-2]	@ movhi
 200:AudioFileManager.cpp ****         right_buf_[i+samples_read] = temp_buf[i * 2 + 1];
 604              		.loc 1 200 9 is_stmt 1 view .LVU169
 201:AudioFileManager.cpp ****       }
 605              		.loc 1 201 9 view .LVU170
 201:AudioFileManager.cpp ****       }
 606              		.loc 1 201 36 is_stmt 0 view .LVU171
 607 00a6 21F802CC 		strhne	ip, [r1, #-2]	@ movhi
 195:AudioFileManager.cpp ****       if (header_.channels == 1){
 608              		.loc 1 195 5 is_stmt 1 view .LVU172
 609              	.LVL39:
 195:AudioFileManager.cpp ****       if (header_.channels == 1){
 610              		.loc 1 195 5 is_stmt 0 view .LVU173
 611 00aa E1E7     		b	.L44
 612              	.L41:
 195:AudioFileManager.cpp ****       if (header_.channels == 1){
 613              		.loc 1 195 5 view .LVU174
 614              	.LBE30:
 204:AudioFileManager.cpp ****   }
 615              		.loc 1 204 5 is_stmt 1 view .LVU175
 204:AudioFileManager.cpp ****   }
 616              		.loc 1 204 18 is_stmt 0 view .LVU176
 617 00ac 1D44     		add	r5, r5, r3
 618              	.LVL40:
 204:AudioFileManager.cpp ****   }
 619              		.loc 1 204 18 view .LVU177
 620              	.LBE31:
 183:AudioFileManager.cpp ****     // DebugPrint(pod_,"first bit of loading loop");
 621              		.loc 1 183 3 view .LVU178
 622 00ae B1E7     		b	.L45
 623              	.LVL41:
 624              	.L37:
 207:AudioFileManager.cpp ****   return true;
 625              		.loc 1 207 3 is_stmt 1 discriminator 1 view .LVU179
 207:AudioFileManager.cpp ****   return true;
 626              		.loc 1 207 12 is_stmt 0 discriminator 1 view .LVU180
 627 00b0 2046     		mov	r0, r4
 628 00b2 FFF7FEFF 		bl	_ZdaPv
 629              	.LVL42:
 208:AudioFileManager.cpp **** }
 630              		.loc 1 208 3 is_stmt 1 discriminator 1 view .LVU181
 208:AudioFileManager.cpp **** }
 631              		.loc 1 208 10 is_stmt 0 discriminator 1 view .LVU182
 632 00b6 0120     		movs	r0, #1
 633 00b8 C9E7     		b	.L40
 634              	.L48:
 635 00ba 00BF     		.align	2
 636              	.L47:
 637 00bc 00000000 		.word	.LANCHOR1
ARM GAS  /var/folders/2p/02m_5p7958535cp2tpgps0400000gn/T//ccJ1AJ8p.s 			page 24


 638 00c0 00000000 		.word	.LANCHOR2
 639 00c4 00000000 		.word	.LANCHOR0
 640              		.cfi_endproc
 641              	.LFE2588:
 643              		.section	.text._ZN16AudioFileManager13LoadAudioDataEv,"ax",%progbits
 644              		.align	1
 645              		.global	_ZN16AudioFileManager13LoadAudioDataEv
 646              		.syntax unified
 647              		.thumb
 648              		.thumb_func
 650              	_ZN16AudioFileManager13LoadAudioDataEv:
 651              	.LVL43:
 652              	.LFB2587:
 161:AudioFileManager.cpp ****   memset(left_buf_, 0.0f, CHNL_BUF_SIZE_ABS);
 653              		.loc 1 161 40 is_stmt 1 view -0
 654              		.cfi_startproc
 655              		@ args = 0, pretend = 0, frame = 0
 656              		@ frame_needed = 0, uses_anonymous_args = 0
 162:AudioFileManager.cpp ****   memset(right_buf_, 0.0f, CHNL_BUF_SIZE_ABS);
 657              		.loc 1 162 3 view .LVU184
 162:AudioFileManager.cpp ****   memset(right_buf_, 0.0f, CHNL_BUF_SIZE_ABS);
 658              		.loc 1 162 9 is_stmt 0 view .LVU185
 659 0000 104B     		ldr	r3, .L51
 660 0002 4FF08072 		mov	r2, #16777216
 661 0006 0021     		movs	r1, #0
 161:AudioFileManager.cpp ****   memset(left_buf_, 0.0f, CHNL_BUF_SIZE_ABS);
 662              		.loc 1 161 40 view .LVU186
 663 0008 10B5     		push	{r4, lr}
 664              		.cfi_def_cfa_offset 8
 665              		.cfi_offset 4, -8
 666              		.cfi_offset 14, -4
 161:AudioFileManager.cpp ****   memset(left_buf_, 0.0f, CHNL_BUF_SIZE_ABS);
 667              		.loc 1 161 40 view .LVU187
 668 000a 0446     		mov	r4, r0
 162:AudioFileManager.cpp ****   memset(right_buf_, 0.0f, CHNL_BUF_SIZE_ABS);
 669              		.loc 1 162 9 view .LVU188
 670 000c 1868     		ldr	r0, [r3]
 671              	.LVL44:
 162:AudioFileManager.cpp ****   memset(right_buf_, 0.0f, CHNL_BUF_SIZE_ABS);
 672              		.loc 1 162 9 view .LVU189
 673 000e FFF7FEFF 		bl	memset
 674              	.LVL45:
 163:AudioFileManager.cpp ****   size_t samples_per_channel = GetSamplesPerChannel();
 675              		.loc 1 163 3 is_stmt 1 view .LVU190
 163:AudioFileManager.cpp ****   size_t samples_per_channel = GetSamplesPerChannel();
 676              		.loc 1 163 9 is_stmt 0 view .LVU191
 677 0012 0D4B     		ldr	r3, .L51+4
 678 0014 4FF08072 		mov	r2, #16777216
 679 0018 0021     		movs	r1, #0
 680 001a 1868     		ldr	r0, [r3]
 681 001c FFF7FEFF 		bl	memset
 682              	.LVL46:
 164:AudioFileManager.cpp **** 
 683              		.loc 1 164 3 is_stmt 1 view .LVU192
 684              	.LBB32:
 685              	.LBI32:
 686              		.file 5 "AudioFileManager.h"
ARM GAS  /var/folders/2p/02m_5p7958535cp2tpgps0400000gn/T//ccJ1AJ8p.s 			page 25


   1:AudioFileManager.h **** #pragma once
   2:AudioFileManager.h **** #include <stdio.h>
   3:AudioFileManager.h **** #include <stdint.h>
   4:AudioFileManager.h **** #include "daisy_pod.h"
   5:AudioFileManager.h **** #include "constants_utils.h"
   6:AudioFileManager.h **** #include "debug_print.h"
   7:AudioFileManager.h **** #include "wavheader.h"
   8:AudioFileManager.h **** 
   9:AudioFileManager.h **** using namespace daisy; 
  10:AudioFileManager.h **** 
  11:AudioFileManager.h **** class AudioFileManager {
  12:AudioFileManager.h ****   public:
  13:AudioFileManager.h ****     AudioFileManager(SdmmcHandler &sd, FatFSInterface &fsi, DaisyPod &pod, FIL *file)
  14:AudioFileManager.h ****       : sd_(sd), fsi_(fsi), pod_(pod), curr_file_(file){};
  15:AudioFileManager.h ****     
  16:AudioFileManager.h ****     bool Init();
  17:AudioFileManager.h ****     bool ScanWavFiles();
  18:AudioFileManager.h ****     void SetBuffers(int16_t *left, int16_t *right);
  19:AudioFileManager.h ****     bool LoadFile(uint16_t file_idx);
  20:AudioFileManager.h ****     bool CloseFile();
  21:AudioFileManager.h ****     bool GetWavHeader(FIL *file);
  22:AudioFileManager.h **** 
  23:AudioFileManager.h ****     int16_t* GetLeftBuffer() const { return left_buf_; }
  24:AudioFileManager.h ****     int16_t* GetRightBuffer() const { return right_buf_; }
  25:AudioFileManager.h ****     size_t GetSamplesPerChannel() const { return header_.total_samples / header_.channels; }
 687              		.loc 5 25 12 view .LVU193
 688              	.LBB33:
 689              		.loc 5 25 43 view .LVU194
 690              		.loc 5 25 58 is_stmt 0 view .LVU195
 691 0020 0A4B     		ldr	r3, .L51+8
 692              		.loc 5 25 82 view .LVU196
 693 0022 B3F90C28 		ldrsh	r2, [r3, #2060]
 694 0026 D3F81018 		ldr	r1, [r3, #2064]
 695 002a B1FBF2F1 		udiv	r1, r1, r2
 696              	.LVL47:
 697              		.loc 5 25 82 view .LVU197
 698              	.LBE33:
 699              	.LBE32:
 166:AudioFileManager.cpp **** 
 700              		.loc 1 166 3 is_stmt 1 view .LVU198
 701 002e B1F5000F 		cmp	r1, #8388608
 702 0032 04D8     		bhi	.L50
 168:AudioFileManager.cpp **** }
 703              		.loc 1 168 3 view .LVU199
 168:AudioFileManager.cpp **** }
 704              		.loc 1 168 24 is_stmt 0 view .LVU200
 705 0034 2046     		mov	r0, r4
 169:AudioFileManager.cpp **** 
 706              		.loc 1 169 1 view .LVU201
 707 0036 BDE81040 		pop	{r4, lr}
 708              		.cfi_remember_state
 709              		.cfi_restore 14
 710              		.cfi_restore 4
 711              		.cfi_def_cfa_offset 0
 712              	.LVL48:
 168:AudioFileManager.cpp **** }
 713              		.loc 1 168 24 view .LVU202
ARM GAS  /var/folders/2p/02m_5p7958535cp2tpgps0400000gn/T//ccJ1AJ8p.s 			page 26


 714 003a FFF7FEBF 		b	_ZN16AudioFileManager14Load16BitAudioEj
 715              	.LVL49:
 716              	.L50:
 717              		.cfi_restore_state
 169:AudioFileManager.cpp **** 
 718              		.loc 1 169 1 view .LVU203
 719 003e 0020     		movs	r0, #0
 720 0040 10BD     		pop	{r4, pc}
 721              	.LVL50:
 722              	.L52:
 169:AudioFileManager.cpp **** 
 723              		.loc 1 169 1 view .LVU204
 724 0042 00BF     		.align	2
 725              	.L51:
 726 0044 00000000 		.word	.LANCHOR2
 727 0048 00000000 		.word	.LANCHOR1
 728 004c 00000000 		.word	.LANCHOR0
 729              		.cfi_endproc
 730              	.LFE2587:
 732              		.section	.text._ZN16AudioFileManager8LoadFileEt,"ax",%progbits
 733              		.align	1
 734              		.global	_ZN16AudioFileManager8LoadFileEt
 735              		.syntax unified
 736              		.thumb
 737              		.thumb_func
 739              	_ZN16AudioFileManager8LoadFileEt:
 740              	.LVL51:
 741              	.LFB2585:
  62:AudioFileManager.cpp ****   if (sel_idx > file_count_) return false;
 742              		.loc 1 62 51 is_stmt 1 view -0
 743              		.cfi_startproc
 744              		@ args = 0, pretend = 0, frame = 0
 745              		@ frame_needed = 0, uses_anonymous_args = 0
  63:AudioFileManager.cpp ****   if (sel_idx != curr_idx_) f_close(curr_file_);
 746              		.loc 1 63 3 view .LVU206
  62:AudioFileManager.cpp ****   if (sel_idx > file_count_) return false;
 747              		.loc 1 62 51 is_stmt 0 view .LVU207
 748 0000 70B5     		push	{r4, r5, r6, lr}
 749              		.cfi_def_cfa_offset 16
 750              		.cfi_offset 4, -16
 751              		.cfi_offset 5, -12
 752              		.cfi_offset 6, -8
 753              		.cfi_offset 14, -4
  63:AudioFileManager.cpp ****   if (sel_idx != curr_idx_) f_close(curr_file_);
 754              		.loc 1 63 15 view .LVU208
 755 0002 174E     		ldr	r6, .L62
  62:AudioFileManager.cpp ****   if (sel_idx > file_count_) return false;
 756              		.loc 1 62 51 view .LVU209
 757 0004 0446     		mov	r4, r0
 758 0006 0D46     		mov	r5, r1
  63:AudioFileManager.cpp ****   if (sel_idx != curr_idx_) f_close(curr_file_);
 759              		.loc 1 63 3 view .LVU210
 760 0008 3388     		ldrh	r3, [r6]
 761 000a 8B42     		cmp	r3, r1
 762 000c 25D3     		bcc	.L55
  64:AudioFileManager.cpp **** 
 763              		.loc 1 64 3 is_stmt 1 view .LVU211
ARM GAS  /var/folders/2p/02m_5p7958535cp2tpgps0400000gn/T//ccJ1AJ8p.s 			page 27


 764 000e B6F81638 		ldrh	r3, [r6, #2070]
 765 0012 8B42     		cmp	r3, r1
 766 0014 02D0     		beq	.L56
  64:AudioFileManager.cpp **** 
 767              		.loc 1 64 29 discriminator 1 view .LVU212
  64:AudioFileManager.cpp **** 
 768              		.loc 1 64 36 is_stmt 0 discriminator 1 view .LVU213
 769 0016 C068     		ldr	r0, [r0, #12]
 770              	.LVL52:
  64:AudioFileManager.cpp **** 
 771              		.loc 1 64 36 discriminator 1 view .LVU214
 772 0018 FFF7FEFF 		bl	f_close
 773              	.LVL53:
 774              	.L56:
  66:AudioFileManager.cpp ****   if (!GetWavHeader(curr_file_)||header_.bit_depth!=16||header_.sample_rate!=48000){
 775              		.loc 1 66 3 is_stmt 1 view .LVU215
  66:AudioFileManager.cpp ****   if (!GetWavHeader(curr_file_)||header_.bit_depth!=16||header_.sample_rate!=48000){
 776              		.loc 1 66 13 is_stmt 0 view .LVU216
 777 001c 1149     		ldr	r1, .L62+4
 778 001e 0122     		movs	r2, #1
 779 0020 E068     		ldr	r0, [r4, #12]
 780 0022 01EB8511 		add	r1, r1, r5, lsl #6
 781 0026 FFF7FEFF 		bl	f_open
 782              	.LVL54:
  66:AudioFileManager.cpp ****   if (!GetWavHeader(curr_file_)||header_.bit_depth!=16||header_.sample_rate!=48000){
 783              		.loc 1 66 3 view .LVU217
 784 002a B0B9     		cbnz	r0, .L55
  67:AudioFileManager.cpp ****     // DebugPrint(pod_, "wav header parse failed");
 785              		.loc 1 67 3 is_stmt 1 view .LVU218
  67:AudioFileManager.cpp ****     // DebugPrint(pod_, "wav header parse failed");
 786              		.loc 1 67 20 is_stmt 0 view .LVU219
 787 002c E168     		ldr	r1, [r4, #12]
 788 002e 2046     		mov	r0, r4
 789 0030 FFF7FEFF 		bl	_ZN16AudioFileManager12GetWavHeaderEP3FIL
 790              	.LVL55:
  67:AudioFileManager.cpp ****     // DebugPrint(pod_, "wav header parse failed");
 791              		.loc 1 67 55 view .LVU220
 792 0034 70B1     		cbz	r0, .L58
  67:AudioFileManager.cpp ****     // DebugPrint(pod_, "wav header parse failed");
 793              		.loc 1 67 32 discriminator 2 view .LVU221
 794 0036 B6F90E38 		ldrsh	r3, [r6, #2062]
 795 003a 102B     		cmp	r3, #16
 796 003c 0AD1     		bne	.L58
  67:AudioFileManager.cpp ****     // DebugPrint(pod_, "wav header parse failed");
 797              		.loc 1 67 55 discriminator 4 view .LVU222
 798 003e D6F80428 		ldr	r2, [r6, #2052]
 799 0042 4BF68033 		movw	r3, #48000
 800 0046 9A42     		cmp	r2, r3
 801 0048 04D1     		bne	.L58
  73:AudioFileManager.cpp **** }
 802              		.loc 1 73 3 is_stmt 1 view .LVU223
  73:AudioFileManager.cpp **** }
 803              		.loc 1 73 23 is_stmt 0 view .LVU224
 804 004a 2046     		mov	r0, r4
  74:AudioFileManager.cpp **** 
 805              		.loc 1 74 1 view .LVU225
 806 004c BDE87040 		pop	{r4, r5, r6, lr}
ARM GAS  /var/folders/2p/02m_5p7958535cp2tpgps0400000gn/T//ccJ1AJ8p.s 			page 28


 807              		.cfi_remember_state
 808              		.cfi_restore 14
 809              		.cfi_restore 6
 810              		.cfi_restore 5
 811              		.cfi_restore 4
 812              		.cfi_def_cfa_offset 0
 813              	.LVL56:
  73:AudioFileManager.cpp **** }
 814              		.loc 1 73 23 view .LVU226
 815 0050 FFF7FEBF 		b	_ZN16AudioFileManager13LoadAudioDataEv
 816              	.LVL57:
 817              	.L58:
 818              		.cfi_restore_state
  69:AudioFileManager.cpp ****     return false;
 819              		.loc 1 69 5 is_stmt 1 view .LVU227
  69:AudioFileManager.cpp ****     return false;
 820              		.loc 1 69 12 is_stmt 0 view .LVU228
 821 0054 E068     		ldr	r0, [r4, #12]
 822 0056 FFF7FEFF 		bl	f_close
 823              	.LVL58:
  70:AudioFileManager.cpp ****   }
 824              		.loc 1 70 5 is_stmt 1 view .LVU229
 825              	.L55:
  74:AudioFileManager.cpp **** 
 826              		.loc 1 74 1 is_stmt 0 view .LVU230
 827 005a 0020     		movs	r0, #0
 828 005c 70BD     		pop	{r4, r5, r6, pc}
 829              	.LVL59:
 830              	.L63:
  74:AudioFileManager.cpp **** 
 831              		.loc 1 74 1 view .LVU231
 832 005e 00BF     		.align	2
 833              	.L62:
 834 0060 00000000 		.word	.LANCHOR0
 835 0064 02000000 		.word	.LANCHOR0+2
 836              		.cfi_endproc
 837              	.LFE2585:
 839              		.section	.text._ZN16AudioFileManager9CloseFileEv,"ax",%progbits
 840              		.align	1
 841              		.global	_ZN16AudioFileManager9CloseFileEv
 842              		.syntax unified
 843              		.thumb
 844              		.thumb_func
 846              	_ZN16AudioFileManager9CloseFileEv:
 847              	.LVL60:
 848              	.LFB2589:
 210:AudioFileManager.cpp **** 
 211:AudioFileManager.cpp **** /// @brief Closes currently open file
 212:AudioFileManager.cpp **** /// @return True if file was successfully closed, else false
 213:AudioFileManager.cpp **** bool AudioFileManager::CloseFile(){
 849              		.loc 1 213 35 is_stmt 1 view -0
 850              		.cfi_startproc
 851              		@ args = 0, pretend = 0, frame = 0
 852              		@ frame_needed = 0, uses_anonymous_args = 0
 214:AudioFileManager.cpp ****   return f_close(curr_file_) == FR_OK;
 853              		.loc 1 214 3 view .LVU233
 213:AudioFileManager.cpp ****   return f_close(curr_file_) == FR_OK;
ARM GAS  /var/folders/2p/02m_5p7958535cp2tpgps0400000gn/T//ccJ1AJ8p.s 			page 29


 854              		.loc 1 213 35 is_stmt 0 view .LVU234
 855 0000 08B5     		push	{r3, lr}
 856              		.cfi_def_cfa_offset 8
 857              		.cfi_offset 3, -8
 858              		.cfi_offset 14, -4
 859              		.loc 1 214 17 view .LVU235
 860 0002 C068     		ldr	r0, [r0, #12]
 861              	.LVL61:
 862              		.loc 1 214 17 view .LVU236
 863 0004 FFF7FEFF 		bl	f_close
 864              	.LVL62:
 215:AudioFileManager.cpp **** }
 865              		.loc 1 215 1 view .LVU237
 866 0008 B0FA80F0 		clz	r0, r0
 867 000c 4009     		lsrs	r0, r0, #5
 868 000e 08BD     		pop	{r3, pc}
 869              		.cfi_endproc
 870              	.LFE2589:
 872              		.section	.text._ZN16AudioFileManager10SetBuffersEPsS0_,"ax",%progbits
 873              		.align	1
 874              		.global	_ZN16AudioFileManager10SetBuffersEPsS0_
 875              		.syntax unified
 876              		.thumb
 877              		.thumb_func
 879              	_ZN16AudioFileManager10SetBuffersEPsS0_:
 880              	.LVL63:
 881              	.LFB2590:
 216:AudioFileManager.cpp **** 
 217:AudioFileManager.cpp **** /// @brief Assign the locations of the audio data buffers
 218:AudioFileManager.cpp **** /// @param left Pointer to the left channel buffer
 219:AudioFileManager.cpp **** /// @param right Pointer to the right channel buffer
 220:AudioFileManager.cpp **** void AudioFileManager::SetBuffers(int16_t *left, int16_t *right){
 882              		.loc 1 220 65 is_stmt 1 view -0
 883              		.cfi_startproc
 884              		@ args = 0, pretend = 0, frame = 0
 885              		@ frame_needed = 0, uses_anonymous_args = 0
 886              		@ link register save eliminated.
 221:AudioFileManager.cpp ****   left_buf_ = left;
 887              		.loc 1 221 3 view .LVU239
 888              		.loc 1 221 13 is_stmt 0 view .LVU240
 889 0000 024B     		ldr	r3, .L66
 890 0002 1960     		str	r1, [r3]
 222:AudioFileManager.cpp ****   right_buf_ = right;
 891              		.loc 1 222 3 is_stmt 1 view .LVU241
 892              		.loc 1 222 14 is_stmt 0 view .LVU242
 893 0004 024B     		ldr	r3, .L66+4
 894 0006 1A60     		str	r2, [r3]
 223:AudioFileManager.cpp **** }
 895              		.loc 1 223 1 view .LVU243
 896 0008 7047     		bx	lr
 897              	.L67:
 898 000a 00BF     		.align	2
 899              	.L66:
 900 000c 00000000 		.word	.LANCHOR2
 901 0010 00000000 		.word	.LANCHOR1
 902              		.cfi_endproc
 903              	.LFE2590:
ARM GAS  /var/folders/2p/02m_5p7958535cp2tpgps0400000gn/T//ccJ1AJ8p.s 			page 30


 905              		.global	_ZN16AudioFileManager10right_buf_E
 906              		.global	_ZN16AudioFileManager9left_buf_E
 907              		.global	_ZN16AudioFileManager17audio_data_start_E
 908              		.global	_ZN16AudioFileManager7header_E
 909              		.global	_ZN16AudioFileManager11file_count_E
 910              		.global	_ZN16AudioFileManager9curr_idx_E
 911              		.global	_ZN16AudioFileManager6names_E
 912              		.section	.bss._ZN16AudioFileManager10right_buf_E,"aw",%nobits
 913              		.align	2
 914              		.set	.LANCHOR1,. + 0
 917              	_ZN16AudioFileManager10right_buf_E:
 918 0000 00000000 		.space	4
 919              		.section	.bss._ZN16AudioFileManager9left_buf_E,"aw",%nobits
 920              		.align	2
 921              		.set	.LANCHOR2,. + 0
 924              	_ZN16AudioFileManager9left_buf_E:
 925 0000 00000000 		.space	4
 926              		.section	.dtcmram_bss,"aw"
 927              		.align	2
 928              		.set	.LANCHOR0,. + 0
 931              	_ZN16AudioFileManager11file_count_E:
 932 0000 0000     		.space	2
 935              	_ZN16AudioFileManager6names_E:
 936 0002 00000000 		.space	2048
 936      00000000 
 936      00000000 
 936      00000000 
 936      00000000 
 937 0802 0000     		.space	2
 940              	_ZN16AudioFileManager7header_E:
 941 0804 00000000 		.space	16
 941      00000000 
 941      00000000 
 941      00000000 
 944              	_ZN16AudioFileManager17audio_data_start_E:
 945 0814 00       		.space	1
 946 0815 00       		.space	1
 949              	_ZN16AudioFileManager9curr_idx_E:
 950 0816 0000     		.space	2
 951              		.text
 952              	.Letext0:
 953              		.file 6 "/Library/DaisyToolchain/0.2.0/arm/arm-none-eabi/include/machine/_default_types.h"
 954              		.file 7 "/Library/DaisyToolchain/0.2.0/arm/arm-none-eabi/include/sys/_stdint.h"
 955              		.file 8 "/Library/DaisyToolchain/0.2.0/arm/arm-none-eabi/include/stdint.h"
 956              		.file 9 "/Library/DaisyToolchain/0.2.0/arm/lib/gcc/arm-none-eabi/10.3.1/include/stddef.h"
 957              		.file 10 "/Library/DaisyToolchain/0.2.0/arm/arm-none-eabi/include/c++/10.3.1/cmath"
 958              		.file 11 "/Library/DaisyToolchain/0.2.0/arm/arm-none-eabi/include/c++/10.3.1/bits/std_abs.h"
 959              		.file 12 "/Library/DaisyToolchain/0.2.0/arm/arm-none-eabi/include/c++/10.3.1/cstdlib"
 960              		.file 13 "/Library/DaisyToolchain/0.2.0/arm/arm-none-eabi/include/c++/10.3.1/cstdint"
 961              		.file 14 "/Library/DaisyToolchain/0.2.0/arm/arm-none-eabi/include/c++/10.3.1/arm-none-eabi/thumb/v
 962              		.file 15 "/Library/DaisyToolchain/0.2.0/arm/arm-none-eabi/include/c++/10.3.1/type_traits"
 963              		.file 16 "/Library/DaisyToolchain/0.2.0/arm/arm-none-eabi/include/c++/10.3.1/debug/debug.h"
 964              		.file 17 "/Library/DaisyToolchain/0.2.0/arm/arm-none-eabi/include/c++/10.3.1/bits/algorithmfwd.h"
 965              		.file 18 "/Library/DaisyToolchain/0.2.0/arm/arm-none-eabi/include/c++/10.3.1/bits/stl_pair.h"
 966              		.file 19 "/Library/DaisyToolchain/0.2.0/arm/arm-none-eabi/include/c++/10.3.1/bits/exception_ptr.h"
 967              		.file 20 "/Library/DaisyToolchain/0.2.0/arm/arm-none-eabi/include/c++/10.3.1/initializer_list"
 968              		.file 21 "/Library/DaisyToolchain/0.2.0/arm/arm-none-eabi/include/c++/10.3.1/cstdarg"
ARM GAS  /var/folders/2p/02m_5p7958535cp2tpgps0400000gn/T//ccJ1AJ8p.s 			page 31


 969              		.file 22 "/Library/DaisyToolchain/0.2.0/arm/arm-none-eabi/include/c++/10.3.1/cstdio"
 970              		.file 23 "/Library/DaisyToolchain/0.2.0/arm/arm-none-eabi/include/c++/10.3.1/cstring"
 971              		.file 24 "/Library/DaisyToolchain/0.2.0/arm/arm-none-eabi/include/c++/10.3.1/bits/predefined_ops.h
 972              		.file 25 "/Library/DaisyToolchain/0.2.0/arm/arm-none-eabi/include/sys/_types.h"
 973              		.file 26 "/Library/DaisyToolchain/0.2.0/arm/arm-none-eabi/include/sys/reent.h"
 974              		.file 27 "/Library/DaisyToolchain/0.2.0/arm/arm-none-eabi/include/sys/lock.h"
 975              		.file 28 "/Library/DaisyToolchain/0.2.0/arm/arm-none-eabi/include/math.h"
 976              		.file 29 "/Library/DaisyToolchain/0.2.0/arm/arm-none-eabi/include/stdlib.h"
 977              		.file 30 "/Library/DaisyToolchain/0.2.0/arm/arm-none-eabi/include/c++/10.3.1/math.h"
 978              		.file 31 "/Library/DaisyToolchain/0.2.0/arm/lib/gcc/arm-none-eabi/10.3.1/include/stdarg.h"
 979              		.file 32 "/Library/DaisyToolchain/0.2.0/arm/arm-none-eabi/include/stdio.h"
 980              		.file 33 "/Library/DaisyToolchain/0.2.0/arm/arm-none-eabi/include/c++/10.3.1/stdlib.h"
 981              		.file 34 "../libDaisy/src/daisy_core.h"
 982              		.file 35 "../libDaisy/src/per/tim.h"
 983              		.file 36 "../libDaisy/src/sys/system.h"
 984              		.file 37 "../libDaisy/src/per/qspi.h"
 985              		.file 38 "../libDaisy/src/per/dac.h"
 986              		.file 39 "../libDaisy/src/per/sai.h"
 987              		.file 40 "../libDaisy/src/hid/audio.h"
 988              		.file 41 "../libDaisy/src/per/adc.h"
 989              		.file 42 "../libDaisy/src/per/uart.h"
 990              		.file 43 "../libDaisy/src/hid/MidiEvent.h"
 991              		.file 44 "../libDaisy/src/hid/midi_parser.h"
 992              		.file 45 "../libDaisy/src/hid/usb.h"
 993              		.file 46 "../libDaisy/src/hid/midi.h"
 994              		.file 47 "../libDaisy/src/util/FIFO.h"
 995              		.file 48 "../libDaisy/src/hid/switch.h"
 996              		.file 49 "../libDaisy/src/hid/encoder.h"
 997              		.file 50 "../libDaisy/src/hid/ctrl.h"
 998              		.file 51 "../libDaisy/src/util/wav_format.h"
 999              		.file 52 "../libDaisy/src/hid/led.h"
 1000              		.file 53 "../libDaisy/src/util/color.h"
 1001              		.file 54 "../libDaisy/src/hid/rgb_led.h"
 1002              		.file 55 "../libDaisy/src/dev/max11300.h"
 1003              		.file 56 "../libDaisy/src/daisy_seed.h"
 1004              		.file 57 "../libDaisy/src/daisy_pod.h"
 1005              		.file 58 "../libDaisy/src/per/gpio.h"
 1006              		.file 59 "../libDaisy/src/dev/sdram.h"
 1007              		.file 60 "../libDaisy/Middlewares/Third_Party/FatFs/src/integer.h"
 1008              		.file 61 "../libDaisy/Middlewares/Third_Party/FatFs/src/ff.h"
 1009              		.file 62 "/Library/DaisyToolchain/0.2.0/arm/arm-none-eabi/include/string.h"
 1010              		.file 63 "constants_utils.h"
 1011              		.file 64 "wavheader.h"
 1012              		.file 65 "../libDaisy/src/dev/sr_595.h"
 1013              		.file 66 "/Library/DaisyToolchain/0.2.0/arm/arm-none-eabi/include/c++/10.3.1/new"
 1014              		.file 67 "<built-in>"
ARM GAS  /var/folders/2p/02m_5p7958535cp2tpgps0400000gn/T//ccJ1AJ8p.s 			page 32


DEFINED SYMBOLS
                            *ABS*:0000000000000000 AudioFileManager.cpp
/var/folders/2p/02m_5p7958535cp2tpgps0400000gn/T//ccJ1AJ8p.s:22     .text._ZN16AudioFileManager4InitEv:0000000000000000 $t
/var/folders/2p/02m_5p7958535cp2tpgps0400000gn/T//ccJ1AJ8p.s:28     .text._ZN16AudioFileManager4InitEv:0000000000000000 _ZN16AudioFileManager4InitEv
/var/folders/2p/02m_5p7958535cp2tpgps0400000gn/T//ccJ1AJ8p.s:126    .text._ZN16AudioFileManager4InitEv:0000000000000040 $d
/var/folders/2p/02m_5p7958535cp2tpgps0400000gn/T//ccJ1AJ8p.s:138    .text._ZN16AudioFileManager12ScanWavFilesEv:0000000000000000 $t
/var/folders/2p/02m_5p7958535cp2tpgps0400000gn/T//ccJ1AJ8p.s:144    .text._ZN16AudioFileManager12ScanWavFilesEv:0000000000000000 _ZN16AudioFileManager12ScanWavFilesEv
/var/folders/2p/02m_5p7958535cp2tpgps0400000gn/T//ccJ1AJ8p.s:291    .text._ZN16AudioFileManager12ScanWavFilesEv:000000000000009c $d
/var/folders/2p/02m_5p7958535cp2tpgps0400000gn/T//ccJ1AJ8p.s:300    .text._ZN16AudioFileManager12GetWavHeaderEP3FIL:0000000000000000 $t
/var/folders/2p/02m_5p7958535cp2tpgps0400000gn/T//ccJ1AJ8p.s:306    .text._ZN16AudioFileManager12GetWavHeaderEP3FIL:0000000000000000 _ZN16AudioFileManager12GetWavHeaderEP3FIL
/var/folders/2p/02m_5p7958535cp2tpgps0400000gn/T//ccJ1AJ8p.s:434    .text._ZN16AudioFileManager12GetWavHeaderEP3FIL:0000000000000098 $d
/var/folders/2p/02m_5p7958535cp2tpgps0400000gn/T//ccJ1AJ8p.s:440    .text._ZN16AudioFileManager14Load16BitAudioEj:0000000000000000 $t
/var/folders/2p/02m_5p7958535cp2tpgps0400000gn/T//ccJ1AJ8p.s:446    .text._ZN16AudioFileManager14Load16BitAudioEj:0000000000000000 _ZN16AudioFileManager14Load16BitAudioEj
/var/folders/2p/02m_5p7958535cp2tpgps0400000gn/T//ccJ1AJ8p.s:637    .text._ZN16AudioFileManager14Load16BitAudioEj:00000000000000bc $d
/var/folders/2p/02m_5p7958535cp2tpgps0400000gn/T//ccJ1AJ8p.s:644    .text._ZN16AudioFileManager13LoadAudioDataEv:0000000000000000 $t
/var/folders/2p/02m_5p7958535cp2tpgps0400000gn/T//ccJ1AJ8p.s:650    .text._ZN16AudioFileManager13LoadAudioDataEv:0000000000000000 _ZN16AudioFileManager13LoadAudioDataEv
/var/folders/2p/02m_5p7958535cp2tpgps0400000gn/T//ccJ1AJ8p.s:726    .text._ZN16AudioFileManager13LoadAudioDataEv:0000000000000044 $d
/var/folders/2p/02m_5p7958535cp2tpgps0400000gn/T//ccJ1AJ8p.s:733    .text._ZN16AudioFileManager8LoadFileEt:0000000000000000 $t
/var/folders/2p/02m_5p7958535cp2tpgps0400000gn/T//ccJ1AJ8p.s:739    .text._ZN16AudioFileManager8LoadFileEt:0000000000000000 _ZN16AudioFileManager8LoadFileEt
/var/folders/2p/02m_5p7958535cp2tpgps0400000gn/T//ccJ1AJ8p.s:834    .text._ZN16AudioFileManager8LoadFileEt:0000000000000060 $d
/var/folders/2p/02m_5p7958535cp2tpgps0400000gn/T//ccJ1AJ8p.s:840    .text._ZN16AudioFileManager9CloseFileEv:0000000000000000 $t
/var/folders/2p/02m_5p7958535cp2tpgps0400000gn/T//ccJ1AJ8p.s:846    .text._ZN16AudioFileManager9CloseFileEv:0000000000000000 _ZN16AudioFileManager9CloseFileEv
/var/folders/2p/02m_5p7958535cp2tpgps0400000gn/T//ccJ1AJ8p.s:873    .text._ZN16AudioFileManager10SetBuffersEPsS0_:0000000000000000 $t
/var/folders/2p/02m_5p7958535cp2tpgps0400000gn/T//ccJ1AJ8p.s:879    .text._ZN16AudioFileManager10SetBuffersEPsS0_:0000000000000000 _ZN16AudioFileManager10SetBuffersEPsS0_
/var/folders/2p/02m_5p7958535cp2tpgps0400000gn/T//ccJ1AJ8p.s:900    .text._ZN16AudioFileManager10SetBuffersEPsS0_:000000000000000c $d
/var/folders/2p/02m_5p7958535cp2tpgps0400000gn/T//ccJ1AJ8p.s:917    .bss._ZN16AudioFileManager10right_buf_E:0000000000000000 _ZN16AudioFileManager10right_buf_E
/var/folders/2p/02m_5p7958535cp2tpgps0400000gn/T//ccJ1AJ8p.s:924    .bss._ZN16AudioFileManager9left_buf_E:0000000000000000 _ZN16AudioFileManager9left_buf_E
/var/folders/2p/02m_5p7958535cp2tpgps0400000gn/T//ccJ1AJ8p.s:944    .dtcmram_bss:0000000000000814 _ZN16AudioFileManager17audio_data_start_E
/var/folders/2p/02m_5p7958535cp2tpgps0400000gn/T//ccJ1AJ8p.s:940    .dtcmram_bss:0000000000000804 _ZN16AudioFileManager7header_E
/var/folders/2p/02m_5p7958535cp2tpgps0400000gn/T//ccJ1AJ8p.s:931    .dtcmram_bss:0000000000000000 _ZN16AudioFileManager11file_count_E
/var/folders/2p/02m_5p7958535cp2tpgps0400000gn/T//ccJ1AJ8p.s:949    .dtcmram_bss:0000000000000816 _ZN16AudioFileManager9curr_idx_E
/var/folders/2p/02m_5p7958535cp2tpgps0400000gn/T//ccJ1AJ8p.s:935    .dtcmram_bss:0000000000000002 _ZN16AudioFileManager6names_E
/var/folders/2p/02m_5p7958535cp2tpgps0400000gn/T//ccJ1AJ8p.s:913    .bss._ZN16AudioFileManager10right_buf_E:0000000000000000 $d
/var/folders/2p/02m_5p7958535cp2tpgps0400000gn/T//ccJ1AJ8p.s:920    .bss._ZN16AudioFileManager9left_buf_E:0000000000000000 $d
/var/folders/2p/02m_5p7958535cp2tpgps0400000gn/T//ccJ1AJ8p.s:927    .dtcmram_bss:0000000000000000 $d

UNDEFINED SYMBOLS
_ZN5daisy12SdmmcHandler4InitERKNS0_6ConfigE
_ZN5daisy14FatFSInterface4InitEh
f_mount
f_opendir
f_readdir
strncmp
strstr
strncpy
f_closedir
f_read
f_lseek
_Znaj
_ZdaPv
memset
f_close
f_open
