ARM GAS  /var/folders/2p/02m_5p7958535cp2tpgps0400000gn/T//cczoUaMV.s 			page 1


   1              		.cpu cortex-m7
   2              		.arch armv7e-m
   3              		.fpu fpv5-d16
   4              		.eabi_attribute 28, 1
   5              		.eabi_attribute 20, 1
   6              		.eabi_attribute 21, 1
   7              		.eabi_attribute 23, 3
   8              		.eabi_attribute 24, 1
   9              		.eabi_attribute 25, 1
  10              		.eabi_attribute 26, 1
  11              		.eabi_attribute 30, 2
  12              		.eabi_attribute 34, 1
  13              		.eabi_attribute 18, 4
  14              		.file	"compressor.cpp"
  15              		.text
  16              	.Ltext0:
  17              		.cfi_sections	.debug_frame
  18              		.section	.text._ZN7daisysp10Compressor4InitEf,"ax",%progbits
  19              		.align	1
  20              		.p2align 2,,3
  21              		.global	_ZN7daisysp10Compressor4InitEf
  22              		.syntax unified
  23              		.thumb
  24              		.thumb_func
  26              	_ZN7daisysp10Compressor4InitEf:
  27              	.LVL0:
  28              	.LFB2814:
  29              		.file 1 "DaisySP-LGPL-FX/compressor.cpp"
   1:DaisySP-LGPL-FX/compressor.cpp **** // # compressor
   2:DaisySP-LGPL-FX/compressor.cpp **** //
   3:DaisySP-LGPL-FX/compressor.cpp **** // Author: shensley, AvAars
   4:DaisySP-LGPL-FX/compressor.cpp **** //
   5:DaisySP-LGPL-FX/compressor.cpp **** 
   6:DaisySP-LGPL-FX/compressor.cpp **** #include <cmath>
   7:DaisySP-LGPL-FX/compressor.cpp **** #include <stdlib.h>
   8:DaisySP-LGPL-FX/compressor.cpp **** #include <stdint.h>
   9:DaisySP-LGPL-FX/compressor.cpp **** #include "compressor.h"
  10:DaisySP-LGPL-FX/compressor.cpp **** 
  11:DaisySP-LGPL-FX/compressor.cpp **** using namespace daisysp; 
  12:DaisySP-LGPL-FX/compressor.cpp **** 
  13:DaisySP-LGPL-FX/compressor.cpp **** #ifndef max
  14:DaisySP-LGPL-FX/compressor.cpp **** #define max(a, b) ((a < b) ? b : a)
  15:DaisySP-LGPL-FX/compressor.cpp **** #endif
  16:DaisySP-LGPL-FX/compressor.cpp **** 
  17:DaisySP-LGPL-FX/compressor.cpp **** #ifndef min
  18:DaisySP-LGPL-FX/compressor.cpp **** #define min(a, b) ((a < b) ? a : b)
  19:DaisySP-LGPL-FX/compressor.cpp **** #endif
  20:DaisySP-LGPL-FX/compressor.cpp **** 
  21:DaisySP-LGPL-FX/compressor.cpp **** void Compressor::Init(float sample_rate)
  22:DaisySP-LGPL-FX/compressor.cpp **** {
  30              		.loc 1 22 1 view -0
  31              		.cfi_startproc
  32              		@ args = 0, pretend = 0, frame = 0
  33              		@ frame_needed = 0, uses_anonymous_args = 0
  23:DaisySP-LGPL-FX/compressor.cpp ****     sample_rate_      = min(192000, max(1, sample_rate));
  34              		.loc 1 23 5 view .LVU1
  35              		.loc 1 23 25 is_stmt 0 view .LVU2
ARM GAS  /var/folders/2p/02m_5p7958535cp2tpgps0400000gn/T//cczoUaMV.s 			page 2


  36 0000 F7EE007A 		vmov.f32	s15, #1.0e+0
  22:DaisySP-LGPL-FX/compressor.cpp ****     sample_rate_      = min(192000, max(1, sample_rate));
  37              		.loc 1 22 1 view .LVU3
  38 0004 10B5     		push	{r4, lr}
  39              		.cfi_def_cfa_offset 8
  40              		.cfi_offset 4, -8
  41              		.cfi_offset 14, -4
  42              		.loc 1 23 25 view .LVU4
  43 0006 B4EEE70A 		vcmpe.f32	s0, s15
  22:DaisySP-LGPL-FX/compressor.cpp ****     sample_rate_      = min(192000, max(1, sample_rate));
  44              		.loc 1 22 1 view .LVU5
  45 000a 0446     		mov	r4, r0
  46 000c 2DED028B 		vpush.64	{d8}
  47              		.cfi_def_cfa_offset 16
  48              		.cfi_offset 80, -16
  49              		.cfi_offset 81, -12
  50              		.loc 1 23 25 view .LVU6
  51 0010 F1EE10FA 		vmrs	APSR_nzcv, FPSCR
  52 0014 69DD     		ble	.L7
  53              		.loc 1 23 23 discriminator 4 view .LVU7
  54 0016 9FED427A 		vldr.32	s14, .L11
  55 001a B4EEC70A 		vcmpe.f32	s0, s14
  56 001e F1EE10FA 		vmrs	APSR_nzcv, FPSCR
  57 0022 6ADD     		ble	.L10
  58 0024 9FED3F0A 		vldr.32	s0, .L11+4
  59              	.LVL1:
  60              		.loc 1 23 23 discriminator 4 view .LVU8
  61 0028 9FED3F6A 		vldr.32	s12, .L11+8
  62 002c DFED3F6A 		vldr.32	s13, .L11+12
  63              		.loc 1 23 23 view .LVU9
  64 0030 3F4B     		ldr	r3, .L11+16
  65              	.L2:
  66              	.LBB64:
  67              	.LBB65:
  68              	.LBB66:
  69              	.LBB67:
  70              		.file 2 "DaisySP-LGPL-FX/compressor.h"
   1:DaisySP-LGPL-FX/compressor.h **** /*
   2:DaisySP-LGPL-FX/compressor.h **** Copyright (c) 2023 Electrosmith, Corp, GRAME, Centre National de Creation Musicale.
   3:DaisySP-LGPL-FX/compressor.h **** 
   4:DaisySP-LGPL-FX/compressor.h **** Use of this source code is governed by the LGPL V2.1
   5:DaisySP-LGPL-FX/compressor.h **** license that can be found in the LICENSE file or at
   6:DaisySP-LGPL-FX/compressor.h **** https://opensource.org/license/lgpl-2-1/
   7:DaisySP-LGPL-FX/compressor.h **** */
   8:DaisySP-LGPL-FX/compressor.h **** 
   9:DaisySP-LGPL-FX/compressor.h **** #pragma once
  10:DaisySP-LGPL-FX/compressor.h **** #ifndef DSY_COMPRESSOR_H
  11:DaisySP-LGPL-FX/compressor.h **** #define DSY_COMPRESSOR_H
  12:DaisySP-LGPL-FX/compressor.h **** 
  13:DaisySP-LGPL-FX/compressor.h **** #include "Utility/dsp.h"
  14:DaisySP-LGPL-FX/compressor.h **** 
  15:DaisySP-LGPL-FX/compressor.h **** namespace daisysp
  16:DaisySP-LGPL-FX/compressor.h **** {
  17:DaisySP-LGPL-FX/compressor.h **** /** dynamics compressor
  18:DaisySP-LGPL-FX/compressor.h **** 
  19:DaisySP-LGPL-FX/compressor.h **** influenced by compressor in soundpipe (from faust).
  20:DaisySP-LGPL-FX/compressor.h **** 
ARM GAS  /var/folders/2p/02m_5p7958535cp2tpgps0400000gn/T//cczoUaMV.s 			page 3


  21:DaisySP-LGPL-FX/compressor.h **** Modifications made to do:
  22:DaisySP-LGPL-FX/compressor.h **** - Less calculations during each process loop (coefficients recalculated on parameter change).
  23:DaisySP-LGPL-FX/compressor.h **** - C++-ified
  24:DaisySP-LGPL-FX/compressor.h **** - added sidechain support
  25:DaisySP-LGPL-FX/compressor.h **** - pulled gain apart for monitoring and multichannel support
  26:DaisySP-LGPL-FX/compressor.h **** - improved readability
  27:DaisySP-LGPL-FX/compressor.h **** - improved makeup-gain calculations
  28:DaisySP-LGPL-FX/compressor.h **** - changing controls now costs a lot less
  29:DaisySP-LGPL-FX/compressor.h **** - a lot less expensive
  30:DaisySP-LGPL-FX/compressor.h **** 
  31:DaisySP-LGPL-FX/compressor.h **** by: shensley, improved upon by AvAars
  32:DaisySP-LGPL-FX/compressor.h **** \todo Add soft/hard knee settings
  33:DaisySP-LGPL-FX/compressor.h **** */
  34:DaisySP-LGPL-FX/compressor.h **** class Compressor
  35:DaisySP-LGPL-FX/compressor.h **** {
  36:DaisySP-LGPL-FX/compressor.h ****   public:
  37:DaisySP-LGPL-FX/compressor.h ****     Compressor() {}
  38:DaisySP-LGPL-FX/compressor.h ****     ~Compressor() {}
  39:DaisySP-LGPL-FX/compressor.h ****     /** Initializes compressor
  40:DaisySP-LGPL-FX/compressor.h ****         \param sample_rate rate at which samples will be produced by the audio engine.
  41:DaisySP-LGPL-FX/compressor.h ****     */
  42:DaisySP-LGPL-FX/compressor.h ****     void Init(float sample_rate);
  43:DaisySP-LGPL-FX/compressor.h **** 
  44:DaisySP-LGPL-FX/compressor.h ****     /** Compress the audio input signal, saves the calculated gain
  45:DaisySP-LGPL-FX/compressor.h ****         \param in audio input signal
  46:DaisySP-LGPL-FX/compressor.h ****     */
  47:DaisySP-LGPL-FX/compressor.h ****     float Process(float in);
  48:DaisySP-LGPL-FX/compressor.h **** 
  49:DaisySP-LGPL-FX/compressor.h ****     /** Compresses the audio input signal, keyed by a secondary input.
  50:DaisySP-LGPL-FX/compressor.h ****         \param in audio input signal (to be compressed)
  51:DaisySP-LGPL-FX/compressor.h ****         \param key audio input that will be used to side-chain the compressor
  52:DaisySP-LGPL-FX/compressor.h ****     */
  53:DaisySP-LGPL-FX/compressor.h ****     float Process(float in, float key)
  54:DaisySP-LGPL-FX/compressor.h ****     {
  55:DaisySP-LGPL-FX/compressor.h ****         Process(key);
  56:DaisySP-LGPL-FX/compressor.h ****         return Apply(in);
  57:DaisySP-LGPL-FX/compressor.h ****     }
  58:DaisySP-LGPL-FX/compressor.h **** 
  59:DaisySP-LGPL-FX/compressor.h ****     /** Apply compression to the audio signal, based on the previously calculated gain
  60:DaisySP-LGPL-FX/compressor.h ****         \param in audio input signal
  61:DaisySP-LGPL-FX/compressor.h ****     */
  62:DaisySP-LGPL-FX/compressor.h ****     float Apply(float in) { return gain_ * in; }
  63:DaisySP-LGPL-FX/compressor.h **** 
  64:DaisySP-LGPL-FX/compressor.h ****     /** Compresses a block of audio
  65:DaisySP-LGPL-FX/compressor.h ****         \param in audio input signal
  66:DaisySP-LGPL-FX/compressor.h ****         \param out audio output signal
  67:DaisySP-LGPL-FX/compressor.h ****         \param size the size of the block
  68:DaisySP-LGPL-FX/compressor.h ****     */
  69:DaisySP-LGPL-FX/compressor.h ****     void ProcessBlock(float *in, float *out, size_t size)
  70:DaisySP-LGPL-FX/compressor.h ****     {
  71:DaisySP-LGPL-FX/compressor.h ****         ProcessBlock(in, out, in, size);
  72:DaisySP-LGPL-FX/compressor.h ****     }
  73:DaisySP-LGPL-FX/compressor.h **** 
  74:DaisySP-LGPL-FX/compressor.h ****     /** Compresses a block of audio, keyed by a secondary input
  75:DaisySP-LGPL-FX/compressor.h ****         \param in audio input signal (to be compressed)
  76:DaisySP-LGPL-FX/compressor.h ****         \param out audio output signal
  77:DaisySP-LGPL-FX/compressor.h ****         \param key audio input that will be used to side-chain the compressor
ARM GAS  /var/folders/2p/02m_5p7958535cp2tpgps0400000gn/T//cczoUaMV.s 			page 4


  78:DaisySP-LGPL-FX/compressor.h ****         \param size the size of the block
  79:DaisySP-LGPL-FX/compressor.h ****     */
  80:DaisySP-LGPL-FX/compressor.h ****     void ProcessBlock(float *in, float *out, float *key, size_t size);
  81:DaisySP-LGPL-FX/compressor.h **** 
  82:DaisySP-LGPL-FX/compressor.h ****     /** Compresses a block of multiple channels of audio, keyed by a secondary input
  83:DaisySP-LGPL-FX/compressor.h ****         \param in audio input signals (to be compressed)
  84:DaisySP-LGPL-FX/compressor.h ****         \param out audio output signals
  85:DaisySP-LGPL-FX/compressor.h ****         \param key audio input that will be used to side-chain the compressor
  86:DaisySP-LGPL-FX/compressor.h ****         \param channels the number of audio channels
  87:DaisySP-LGPL-FX/compressor.h ****         \param size the size of the block
  88:DaisySP-LGPL-FX/compressor.h ****     */
  89:DaisySP-LGPL-FX/compressor.h ****     void ProcessBlock(float **in,
  90:DaisySP-LGPL-FX/compressor.h ****                       float **out,
  91:DaisySP-LGPL-FX/compressor.h ****                       float * key,
  92:DaisySP-LGPL-FX/compressor.h ****                       size_t  channels,
  93:DaisySP-LGPL-FX/compressor.h ****                       size_t  size);
  94:DaisySP-LGPL-FX/compressor.h **** 
  95:DaisySP-LGPL-FX/compressor.h ****     /** Gets the amount of gain reduction */
  96:DaisySP-LGPL-FX/compressor.h ****     float GetRatio() { return ratio_; }
  97:DaisySP-LGPL-FX/compressor.h **** 
  98:DaisySP-LGPL-FX/compressor.h ****     /** Sets the amount of gain reduction applied to compressed signals
  99:DaisySP-LGPL-FX/compressor.h ****      \param ratio Expects 1.0 -> 40. (untested with values < 1.0)
 100:DaisySP-LGPL-FX/compressor.h ****     */
 101:DaisySP-LGPL-FX/compressor.h ****     void SetRatio(float ratio)
 102:DaisySP-LGPL-FX/compressor.h ****     {
 103:DaisySP-LGPL-FX/compressor.h ****         ratio_ = ratio;
 104:DaisySP-LGPL-FX/compressor.h ****         RecalculateRatio();
 105:DaisySP-LGPL-FX/compressor.h ****     }
 106:DaisySP-LGPL-FX/compressor.h **** 
 107:DaisySP-LGPL-FX/compressor.h ****     /** Gets the threshold in dB */
 108:DaisySP-LGPL-FX/compressor.h ****     float GetThreshold() { return thresh_; }
 109:DaisySP-LGPL-FX/compressor.h **** 
 110:DaisySP-LGPL-FX/compressor.h ****     /** Sets the threshold in dB at which compression will be applied
 111:DaisySP-LGPL-FX/compressor.h ****      \param threshold Expects 0.0 -> -80.
 112:DaisySP-LGPL-FX/compressor.h ****     */
 113:DaisySP-LGPL-FX/compressor.h ****     void SetThreshold(float threshold)
 114:DaisySP-LGPL-FX/compressor.h ****     {
 115:DaisySP-LGPL-FX/compressor.h ****         thresh_ = threshold;
 116:DaisySP-LGPL-FX/compressor.h ****         RecalculateMakeup();
 117:DaisySP-LGPL-FX/compressor.h ****     }
 118:DaisySP-LGPL-FX/compressor.h **** 
 119:DaisySP-LGPL-FX/compressor.h ****     /** Gets the envelope time for onset of compression */
 120:DaisySP-LGPL-FX/compressor.h ****     float GetAttack() { return atk_; }
 121:DaisySP-LGPL-FX/compressor.h **** 
 122:DaisySP-LGPL-FX/compressor.h ****     /** Sets the envelope time for onset of compression for signals above the threshold.
 123:DaisySP-LGPL-FX/compressor.h ****         \param attack Expects 0.001 -> 10
 124:DaisySP-LGPL-FX/compressor.h ****     */
 125:DaisySP-LGPL-FX/compressor.h ****     void SetAttack(float attack)
 126:DaisySP-LGPL-FX/compressor.h ****     {
 127:DaisySP-LGPL-FX/compressor.h ****         atk_ = attack;
 128:DaisySP-LGPL-FX/compressor.h ****         RecalculateAttack();
 129:DaisySP-LGPL-FX/compressor.h ****     }
 130:DaisySP-LGPL-FX/compressor.h **** 
 131:DaisySP-LGPL-FX/compressor.h ****     /** Gets the envelope time for release of compression */
 132:DaisySP-LGPL-FX/compressor.h ****     float GetRelease() { return rel_; }
 133:DaisySP-LGPL-FX/compressor.h **** 
 134:DaisySP-LGPL-FX/compressor.h ****     /** Sets the envelope time for release of compression as input signal falls below threshold.
ARM GAS  /var/folders/2p/02m_5p7958535cp2tpgps0400000gn/T//cczoUaMV.s 			page 5


 135:DaisySP-LGPL-FX/compressor.h ****         \param release Expects 0.001 -> 10
 136:DaisySP-LGPL-FX/compressor.h ****     */
 137:DaisySP-LGPL-FX/compressor.h ****     void SetRelease(float release)
 138:DaisySP-LGPL-FX/compressor.h ****     {
 139:DaisySP-LGPL-FX/compressor.h ****         rel_ = release;
 140:DaisySP-LGPL-FX/compressor.h ****         RecalculateRelease();
 141:DaisySP-LGPL-FX/compressor.h ****     }
 142:DaisySP-LGPL-FX/compressor.h **** 
 143:DaisySP-LGPL-FX/compressor.h ****     /** Gets the additional gain to make up for the compression */
 144:DaisySP-LGPL-FX/compressor.h ****     float GetMakeup() { return makeup_gain_; }
 145:DaisySP-LGPL-FX/compressor.h **** 
 146:DaisySP-LGPL-FX/compressor.h ****     /** Manually sets the additional gain to make up for the compression
 147:DaisySP-LGPL-FX/compressor.h ****         \param gain Expects 0.0 -> 80
 148:DaisySP-LGPL-FX/compressor.h ****     */
 149:DaisySP-LGPL-FX/compressor.h ****     void SetMakeup(float gain) { makeup_gain_ = gain; }
 150:DaisySP-LGPL-FX/compressor.h **** 
 151:DaisySP-LGPL-FX/compressor.h ****     /** Enables or disables the automatic makeup gain. Disabling sets the makeup gain to 0.0
 152:DaisySP-LGPL-FX/compressor.h ****         \param enable true to enable, false to disable
 153:DaisySP-LGPL-FX/compressor.h ****     */
 154:DaisySP-LGPL-FX/compressor.h ****     void AutoMakeup(bool enable)
 155:DaisySP-LGPL-FX/compressor.h ****     {
 156:DaisySP-LGPL-FX/compressor.h ****         makeup_auto_ = enable;
 157:DaisySP-LGPL-FX/compressor.h ****         makeup_gain_ = 0.0f;
 158:DaisySP-LGPL-FX/compressor.h ****         RecalculateMakeup();
 159:DaisySP-LGPL-FX/compressor.h ****     }
 160:DaisySP-LGPL-FX/compressor.h **** 
 161:DaisySP-LGPL-FX/compressor.h ****     /** Gets the gain reduction in dB
 162:DaisySP-LGPL-FX/compressor.h ****     */
 163:DaisySP-LGPL-FX/compressor.h ****     float GetGain() { return fastlog10f(gain_) * 20.0f; }
 164:DaisySP-LGPL-FX/compressor.h **** 
 165:DaisySP-LGPL-FX/compressor.h ****   private:
 166:DaisySP-LGPL-FX/compressor.h ****     float ratio_, thresh_, atk_, rel_;
 167:DaisySP-LGPL-FX/compressor.h ****     float makeup_gain_;
 168:DaisySP-LGPL-FX/compressor.h ****     float gain_;
 169:DaisySP-LGPL-FX/compressor.h **** 
 170:DaisySP-LGPL-FX/compressor.h ****     // Recorded slope and gain, used in next sample
 171:DaisySP-LGPL-FX/compressor.h ****     float slope_rec_, gain_rec_;
 172:DaisySP-LGPL-FX/compressor.h **** 
 173:DaisySP-LGPL-FX/compressor.h ****     // Internals from faust
 174:DaisySP-LGPL-FX/compressor.h ****     float atk_slo2_, ratio_mul_, atk_slo_, rel_slo_;
 175:DaisySP-LGPL-FX/compressor.h **** 
 176:DaisySP-LGPL-FX/compressor.h ****     int   sample_rate_;
 177:DaisySP-LGPL-FX/compressor.h ****     float sample_rate_inv2_, sample_rate_inv_;
 178:DaisySP-LGPL-FX/compressor.h **** 
 179:DaisySP-LGPL-FX/compressor.h ****     // Auto makeup gain enable
 180:DaisySP-LGPL-FX/compressor.h ****     bool makeup_auto_;
 181:DaisySP-LGPL-FX/compressor.h **** 
 182:DaisySP-LGPL-FX/compressor.h ****     // Methods for recalculating internals
 183:DaisySP-LGPL-FX/compressor.h ****     void RecalculateRatio()
 184:DaisySP-LGPL-FX/compressor.h ****     {
 185:DaisySP-LGPL-FX/compressor.h ****         ratio_mul_ = ((1.0f - atk_slo2_) * ((1.0f / ratio_) - 1.0f));
  71              		.loc 2 185 29 discriminator 12 view .LVU10
  72 0032 F7EE008A 		vmov.f32	s17, #1.0e+0
  73 0036 94ED087A 		vldr.32	s14, [r4, #32]
  74              		.loc 2 185 42 discriminator 12 view .LVU11
  75 003a FEEE007A 		vmov.f32	s15, #-5.0e-1
  76              	.LBE67:
ARM GAS  /var/folders/2p/02m_5p7958535cp2tpgps0400000gn/T//cczoUaMV.s 			page 6


  77              	.LBE66:
  78              	.LBE65:
  79              	.LBE64:
  80              	.LBB78:
  81              	.LBB79:
 127:DaisySP-LGPL-FX/compressor.h ****         RecalculateAttack();
  82              		.loc 2 127 14 discriminator 12 view .LVU12
  83 003e 9FED3D8A 		vldr.32	s16, .L11+20
  84              	.LBE79:
  85              	.LBE78:
  86              	.LBB112:
  87              	.LBB74:
 103:DaisySP-LGPL-FX/compressor.h ****         RecalculateRatio();
  88              		.loc 2 103 16 discriminator 12 view .LVU13
  89 0042 4FF08042 		mov	r2, #1073741824
  90              	.LBE74:
  91              	.LBE112:
  92              		.loc 1 23 23 discriminator 12 view .LVU14
  93 0046 2363     		str	r3, [r4, #48]
  24:DaisySP-LGPL-FX/compressor.cpp ****     sample_rate_inv_  = 1.0f / (float)sample_rate_;
  94              		.loc 1 24 5 is_stmt 1 discriminator 12 view .LVU15
  95              	.LBB113:
  96              	.LBB75:
  97              	.LBB71:
  98              	.LBB68:
  99              		.loc 2 185 29 is_stmt 0 discriminator 12 view .LVU16
 100 0048 38EEC77A 		vsub.f32	s14, s17, s14
 101              	.LBE68:
 102              	.LBE71:
 103              	.LBE75:
 104              	.LBE113:
  25:DaisySP-LGPL-FX/compressor.cpp ****     sample_rate_inv2_ = 2.0f / (float)sample_rate_;
 105              		.loc 1 25 23 discriminator 12 view .LVU17
 106 004c 84ED0D6A 		vstr.32	s12, [r4, #52]
  24:DaisySP-LGPL-FX/compressor.cpp ****     sample_rate_inv_  = 1.0f / (float)sample_rate_;
 107              		.loc 1 24 23 discriminator 12 view .LVU18
 108 0050 C4ED0E6A 		vstr.32	s13, [r4, #56]
 109              		.loc 1 25 5 is_stmt 1 discriminator 12 view .LVU19
  26:DaisySP-LGPL-FX/compressor.cpp **** 
  27:DaisySP-LGPL-FX/compressor.cpp ****     // Initializing the params in this order to avoid dividing by zero
  28:DaisySP-LGPL-FX/compressor.cpp **** 
  29:DaisySP-LGPL-FX/compressor.cpp ****     SetRatio(2.0f);
 110              		.loc 1 29 5 discriminator 12 view .LVU20
 111              	.LVL2:
 112              	.LBB114:
 113              	.LBI64:
 101:DaisySP-LGPL-FX/compressor.h ****     {
 114              		.loc 2 101 10 discriminator 12 view .LVU21
 115              	.LBB76:
 103:DaisySP-LGPL-FX/compressor.h ****         RecalculateRatio();
 116              		.loc 2 103 9 discriminator 12 view .LVU22
 103:DaisySP-LGPL-FX/compressor.h ****         RecalculateRatio();
 117              		.loc 2 103 16 is_stmt 0 discriminator 12 view .LVU23
 118 0054 2260     		str	r2, [r4]	@ float
 104:DaisySP-LGPL-FX/compressor.h ****     }
 119              		.loc 2 104 9 is_stmt 1 discriminator 12 view .LVU24
 120              	.LVL3:
ARM GAS  /var/folders/2p/02m_5p7958535cp2tpgps0400000gn/T//cczoUaMV.s 			page 7


 121              	.LBB72:
 122              	.LBI66:
 183:DaisySP-LGPL-FX/compressor.h ****     {
 123              		.loc 2 183 10 discriminator 12 view .LVU25
 124              	.LBB69:
 125              		.loc 2 185 9 discriminator 12 view .LVU26
 126              		.loc 2 185 42 is_stmt 0 discriminator 12 view .LVU27
 127 0056 27EE277A 		vmul.f32	s14, s14, s15
 128              	.LBE69:
 129              	.LBE72:
 130              	.LBE76:
 131              	.LBE114:
 132              	.LBB115:
 133              	.LBB104:
 127:DaisySP-LGPL-FX/compressor.h ****         RecalculateAttack();
 134              		.loc 2 127 14 discriminator 12 view .LVU28
 135 005a 84ED028A 		vstr.32	s16, [r4, #8]
 136              	.LBE104:
 137              	.LBE115:
 138              	.LBB116:
 139              	.LBB77:
 140              	.LBB73:
 141              	.LBB70:
 142              		.loc 2 185 20 discriminator 12 view .LVU29
 143 005e 84ED097A 		vstr.32	s14, [r4, #36]
 144              	.LVL4:
 145              		.loc 2 185 20 discriminator 12 view .LVU30
 146              	.LBE70:
 147              	.LBE73:
 148              	.LBE77:
 149              	.LBE116:
  30:DaisySP-LGPL-FX/compressor.cpp ****     SetAttack(0.1f);
 150              		.loc 1 30 5 is_stmt 1 discriminator 12 view .LVU31
 151              	.LBB117:
 152              	.LBI78:
 125:DaisySP-LGPL-FX/compressor.h ****     {
 153              		.loc 2 125 10 discriminator 12 view .LVU32
 154              	.LBB105:
 127:DaisySP-LGPL-FX/compressor.h ****         RecalculateAttack();
 155              		.loc 2 127 9 discriminator 12 view .LVU33
 128:DaisySP-LGPL-FX/compressor.h ****     }
 156              		.loc 2 128 9 discriminator 12 view .LVU34
 157              	.LBB80:
 158              	.LBI80:
 186:DaisySP-LGPL-FX/compressor.h ****     }
 187:DaisySP-LGPL-FX/compressor.h **** 
 188:DaisySP-LGPL-FX/compressor.h ****     void RecalculateAttack()
 159              		.loc 2 188 10 discriminator 12 view .LVU35
 160              	.LBB81:
 189:DaisySP-LGPL-FX/compressor.h ****     {
 190:DaisySP-LGPL-FX/compressor.h ****         atk_slo_  = expf(-(sample_rate_inv_ / atk_));
 161              		.loc 2 190 9 discriminator 12 view .LVU36
 162              		.loc 2 190 25 is_stmt 0 discriminator 12 view .LVU37
 163 0062 FFF7FEFF 		bl	expf
 164              	.LVL5:
 191:DaisySP-LGPL-FX/compressor.h ****         atk_slo2_ = expf(-(sample_rate_inv2_ / atk_));
 165              		.loc 2 191 46 discriminator 12 view .LVU38
ARM GAS  /var/folders/2p/02m_5p7958535cp2tpgps0400000gn/T//cczoUaMV.s 			page 8


 166 0066 94ED0D7A 		vldr.32	s14, [r4, #52]
 167 006a D4ED027A 		vldr.32	s15, [r4, #8]
 190:DaisySP-LGPL-FX/compressor.h ****         atk_slo2_ = expf(-(sample_rate_inv2_ / atk_));
 168              		.loc 2 190 19 discriminator 12 view .LVU39
 169 006e 84ED0A0A 		vstr.32	s0, [r4, #40]
 170              		.loc 2 191 9 is_stmt 1 discriminator 12 view .LVU40
 171              		.loc 2 191 46 is_stmt 0 discriminator 12 view .LVU41
 172 0072 87EE270A 		vdiv.f32	s0, s14, s15
 173              		.loc 2 191 25 discriminator 12 view .LVU42
 174 0076 B1EE400A 		vneg.f32	s0, s0
 175 007a FFF7FEFF 		bl	expf
 176              	.LVL6:
 177              	.LBB82:
 178              	.LBB83:
 185:DaisySP-LGPL-FX/compressor.h ****     }
 179              		.loc 2 185 51 discriminator 12 view .LVU43
 180 007e D4ED006A 		vldr.32	s13, [r4]
 181              	.LBE83:
 182              	.LBE82:
 183              	.LBE81:
 184              	.LBE80:
 185              	.LBE105:
 186              	.LBE117:
 187              	.LBB118:
 188              	.LBB119:
 189              	.LBB120:
 190              	.LBB121:
 192:DaisySP-LGPL-FX/compressor.h **** 
 193:DaisySP-LGPL-FX/compressor.h ****         RecalculateRatio();
 194:DaisySP-LGPL-FX/compressor.h ****     }
 195:DaisySP-LGPL-FX/compressor.h **** 
 196:DaisySP-LGPL-FX/compressor.h ****     void RecalculateRelease() { rel_slo_ = expf((-(sample_rate_inv_ / rel_))); }
 191              		.loc 2 196 69 discriminator 12 view .LVU44
 192 0082 94ED0E7A 		vldr.32	s14, [r4, #56]
 193              	.LBE121:
 194              	.LBE120:
 195              	.LBE119:
 196              	.LBE118:
 197              	.LBB135:
 198              	.LBB106:
 199              	.LBB98:
 200              	.LBB92:
 201              	.LBB88:
 202              	.LBB84:
 185:DaisySP-LGPL-FX/compressor.h ****     }
 203              		.loc 2 185 51 discriminator 12 view .LVU45
 204 0086 C8EEA67A 		vdiv.f32	s15, s17, s13
 205              	.LBE84:
 206              	.LBE88:
 207              	.LBE92:
 208              	.LBE98:
 209              	.LBE106:
 210              	.LBE135:
 211              	.LBB136:
 212              	.LBB130:
 139:DaisySP-LGPL-FX/compressor.h ****         RecalculateRelease();
 213              		.loc 2 139 14 discriminator 12 view .LVU46
ARM GAS  /var/folders/2p/02m_5p7958535cp2tpgps0400000gn/T//cczoUaMV.s 			page 9


 214 008a 84ED038A 		vstr.32	s16, [r4, #12]
 215              	.LBE130:
 216              	.LBE136:
 217              	.LBB137:
 218              	.LBB107:
 219              	.LBB99:
 220              	.LBB93:
 191:DaisySP-LGPL-FX/compressor.h **** 
 221              		.loc 2 191 19 discriminator 12 view .LVU47
 222 008e 84ED080A 		vstr.32	s0, [r4, #32]
 193:DaisySP-LGPL-FX/compressor.h ****     }
 223              		.loc 2 193 9 is_stmt 1 discriminator 12 view .LVU48
 224              	.LVL7:
 225              	.LBB89:
 226              	.LBI82:
 183:DaisySP-LGPL-FX/compressor.h ****     {
 227              		.loc 2 183 10 discriminator 12 view .LVU49
 228              	.LBB85:
 185:DaisySP-LGPL-FX/compressor.h ****     }
 229              		.loc 2 185 9 discriminator 12 view .LVU50
 230              	.LBE85:
 231              	.LBE89:
 232              	.LBE93:
 233              	.LBE99:
 234              	.LBE107:
 235              	.LBE137:
 236              	.LBB138:
 237              	.LBB131:
 238              	.LBB126:
 239              	.LBB122:
 240              		.loc 2 196 69 is_stmt 0 discriminator 12 view .LVU51
 241 0092 C7EE086A 		vdiv.f32	s13, s14, s16
 242              	.LBE122:
 243              	.LBE126:
 244              	.LBE131:
 245              	.LBE138:
 246              	.LBB139:
 247              	.LBB108:
 248              	.LBB100:
 249              	.LBB94:
 250              	.LBB90:
 251              	.LBB86:
 185:DaisySP-LGPL-FX/compressor.h ****     }
 252              		.loc 2 185 29 discriminator 12 view .LVU52
 253 0096 38EEC07A 		vsub.f32	s14, s17, s0
 185:DaisySP-LGPL-FX/compressor.h ****     }
 254              		.loc 2 185 61 discriminator 12 view .LVU53
 255 009a 77EEE87A 		vsub.f32	s15, s15, s17
 185:DaisySP-LGPL-FX/compressor.h ****     }
 256              		.loc 2 185 42 discriminator 12 view .LVU54
 257 009e 67EE877A 		vmul.f32	s15, s15, s14
 258              	.LBE86:
 259              	.LBE90:
 260              	.LBE94:
 261              	.LBE100:
 262              	.LBE108:
 263              	.LBE139:
ARM GAS  /var/folders/2p/02m_5p7958535cp2tpgps0400000gn/T//cczoUaMV.s 			page 10


 264              	.LBB140:
 265              	.LBB132:
 266              	.LBB127:
 267              	.LBB123:
 268              		.loc 2 196 48 discriminator 12 view .LVU55
 269 00a2 B1EE660A 		vneg.f32	s0, s13
 270              	.LBE123:
 271              	.LBE127:
 272              	.LBE132:
 273              	.LBE140:
 274              	.LBB141:
 275              	.LBB109:
 276              	.LBB101:
 277              	.LBB95:
 278              	.LBB91:
 279              	.LBB87:
 185:DaisySP-LGPL-FX/compressor.h ****     }
 280              		.loc 2 185 20 discriminator 12 view .LVU56
 281 00a6 C4ED097A 		vstr.32	s15, [r4, #36]
 282              	.LVL8:
 185:DaisySP-LGPL-FX/compressor.h ****     }
 283              		.loc 2 185 20 discriminator 12 view .LVU57
 284              	.LBE87:
 285              	.LBE91:
 286              	.LBE95:
 287              	.LBE101:
 288              	.LBE109:
 289              	.LBE141:
  31:DaisySP-LGPL-FX/compressor.cpp ****     SetRelease(0.1f);
 290              		.loc 1 31 5 is_stmt 1 discriminator 12 view .LVU58
 291              	.LBB142:
 292              	.LBI118:
 137:DaisySP-LGPL-FX/compressor.h ****     {
 293              		.loc 2 137 10 discriminator 12 view .LVU59
 294              	.LBB133:
 139:DaisySP-LGPL-FX/compressor.h ****         RecalculateRelease();
 295              		.loc 2 139 9 discriminator 12 view .LVU60
 140:DaisySP-LGPL-FX/compressor.h ****     }
 296              		.loc 2 140 9 discriminator 12 view .LVU61
 297              	.LBB128:
 298              	.LBI120:
 299              		.loc 2 196 10 discriminator 12 view .LVU62
 300              	.LBB124:
 301              		.loc 2 196 33 discriminator 12 view .LVU63
 302              		.loc 2 196 48 is_stmt 0 discriminator 12 view .LVU64
 303 00aa FFF7FEFF 		bl	expf
 304              	.LVL9:
 305              	.LBE124:
 306              	.LBE128:
 307              	.LBE133:
 308              	.LBE142:
 309              	.LBB143:
 310              	.LBB144:
 115:DaisySP-LGPL-FX/compressor.h ****         RecalculateMakeup();
 311              		.loc 2 115 17 discriminator 12 view .LVU65
 312 00ae FAEE087A 		vmov.f32	s15, #-1.2e+1
 313              	.LBE144:
ARM GAS  /var/folders/2p/02m_5p7958535cp2tpgps0400000gn/T//cczoUaMV.s 			page 11


 314              	.LBE143:
 315              	.LBB147:
 316              	.LBB148:
 317              	.LBB149:
 318              	.LBB150:
 197:DaisySP-LGPL-FX/compressor.h **** 
 198:DaisySP-LGPL-FX/compressor.h ****     void RecalculateMakeup()
 199:DaisySP-LGPL-FX/compressor.h ****     {
 200:DaisySP-LGPL-FX/compressor.h ****         if(makeup_auto_)
 201:DaisySP-LGPL-FX/compressor.h ****             makeup_gain_ = fabsf(thresh_ - thresh_ / ratio_) * 0.5f;
 319              		.loc 2 201 52 discriminator 12 view .LVU66
 320 00b2 94ED006A 		vldr.32	s12, [r4]
 321              		.loc 2 201 62 discriminator 12 view .LVU67
 322 00b6 B6EE007A 		vmov.f32	s14, #5.0e-1
 323              	.LBE150:
 324              	.LBE149:
 156:DaisySP-LGPL-FX/compressor.h ****         makeup_gain_ = 0.0f;
 325              		.loc 2 156 22 discriminator 12 view .LVU68
 326 00ba 0123     		movs	r3, #1
 327              	.LBE148:
 328              	.LBE147:
  32:DaisySP-LGPL-FX/compressor.cpp ****     SetThreshold(-12.0f);
  33:DaisySP-LGPL-FX/compressor.cpp ****     AutoMakeup(true);
  34:DaisySP-LGPL-FX/compressor.cpp **** 
  35:DaisySP-LGPL-FX/compressor.cpp ****     gain_rec_  = 0.1f;
 329              		.loc 1 35 16 discriminator 12 view .LVU69
 330 00bc 84ED078A 		vstr.32	s16, [r4, #28]
 331              	.LBB160:
 332              	.LBB157:
 333              	.LBB154:
 334              	.LBB151:
 335              		.loc 2 201 52 discriminator 12 view .LVU70
 336 00c0 C7EE866A 		vdiv.f32	s13, s15, s12
 337              	.LBE151:
 338              	.LBE154:
 339              	.LBE157:
 340              	.LBE160:
 341              	.LBB161:
 342              	.LBB145:
 115:DaisySP-LGPL-FX/compressor.h ****         RecalculateMakeup();
 343              		.loc 2 115 17 discriminator 12 view .LVU71
 344 00c4 C4ED017A 		vstr.32	s15, [r4, #4]
 345              	.LBE145:
 346              	.LBE161:
  36:DaisySP-LGPL-FX/compressor.cpp ****     slope_rec_ = 0.1f;
 347              		.loc 1 36 16 discriminator 12 view .LVU72
 348 00c8 84ED068A 		vstr.32	s16, [r4, #24]
 349              	.LBB162:
 350              	.LBB134:
 351              	.LBB129:
 352              	.LBB125:
 196:DaisySP-LGPL-FX/compressor.h **** 
 353              		.loc 2 196 42 discriminator 12 view .LVU73
 354 00cc 84ED0B0A 		vstr.32	s0, [r4, #44]
 355              	.LVL10:
 196:DaisySP-LGPL-FX/compressor.h **** 
 356              		.loc 2 196 42 discriminator 12 view .LVU74
ARM GAS  /var/folders/2p/02m_5p7958535cp2tpgps0400000gn/T//cczoUaMV.s 			page 12


 357              	.LBE125:
 358              	.LBE129:
 359              	.LBE134:
 360              	.LBE162:
  32:DaisySP-LGPL-FX/compressor.cpp ****     AutoMakeup(true);
 361              		.loc 1 32 5 is_stmt 1 discriminator 12 view .LVU75
 362              	.LBB163:
 363              	.LBI143:
 113:DaisySP-LGPL-FX/compressor.h ****     {
 364              		.loc 2 113 10 discriminator 12 view .LVU76
 365              	.LBB146:
 115:DaisySP-LGPL-FX/compressor.h ****         RecalculateMakeup();
 366              		.loc 2 115 9 discriminator 12 view .LVU77
 116:DaisySP-LGPL-FX/compressor.h ****     }
 367              		.loc 2 116 9 discriminator 12 view .LVU78
 116:DaisySP-LGPL-FX/compressor.h ****     }
 368              		.loc 2 116 9 is_stmt 0 discriminator 12 view .LVU79
 369              	.LBE146:
 370              	.LBE163:
 200:DaisySP-LGPL-FX/compressor.h ****             makeup_gain_ = fabsf(thresh_ - thresh_ / ratio_) * 0.5f;
 371              		.loc 2 200 9 is_stmt 1 discriminator 12 view .LVU80
  33:DaisySP-LGPL-FX/compressor.cpp **** 
 372              		.loc 1 33 5 discriminator 12 view .LVU81
 373              	.LBB164:
 374              	.LBI147:
 154:DaisySP-LGPL-FX/compressor.h ****     {
 375              		.loc 2 154 10 discriminator 12 view .LVU82
 376              	.LBB158:
 156:DaisySP-LGPL-FX/compressor.h ****         makeup_gain_ = 0.0f;
 377              		.loc 2 156 9 discriminator 12 view .LVU83
 156:DaisySP-LGPL-FX/compressor.h ****         makeup_gain_ = 0.0f;
 378              		.loc 2 156 22 is_stmt 0 discriminator 12 view .LVU84
 379 00d0 84F83C30 		strb	r3, [r4, #60]
 157:DaisySP-LGPL-FX/compressor.h ****         RecalculateMakeup();
 380              		.loc 2 157 9 is_stmt 1 discriminator 12 view .LVU85
 158:DaisySP-LGPL-FX/compressor.h ****     }
 381              		.loc 2 158 9 discriminator 12 view .LVU86
 382              	.LVL11:
 383              	.LBB155:
 384              	.LBI149:
 198:DaisySP-LGPL-FX/compressor.h ****     {
 385              		.loc 2 198 10 discriminator 12 view .LVU87
 386              	.LBB152:
 200:DaisySP-LGPL-FX/compressor.h ****             makeup_gain_ = fabsf(thresh_ - thresh_ / ratio_) * 0.5f;
 387              		.loc 2 200 9 discriminator 12 view .LVU88
 388              		.loc 2 201 13 discriminator 12 view .LVU89
 389              	.LBE152:
 390              	.LBE155:
 391              	.LBE158:
 392              	.LBE164:
  37:DaisySP-LGPL-FX/compressor.cpp **** }
 393              		.loc 1 37 1 is_stmt 0 discriminator 12 view .LVU90
 394 00d4 BDEC028B 		vldm	sp!, {d8}
 395              		.cfi_remember_state
 396              		.cfi_restore 80
 397              		.cfi_restore 81
 398              		.cfi_def_cfa_offset 8
ARM GAS  /var/folders/2p/02m_5p7958535cp2tpgps0400000gn/T//cczoUaMV.s 			page 13


 399              	.LBB165:
 400              	.LBB159:
 401              	.LBB156:
 402              	.LBB153:
 403              		.loc 2 201 42 discriminator 12 view .LVU91
 404 00d8 77EEE67A 		vsub.f32	s15, s15, s13
 405              		.loc 2 201 33 discriminator 12 view .LVU92
 406 00dc F0EEE77A 		vabs.f32	s15, s15
 407              		.loc 2 201 62 discriminator 12 view .LVU93
 408 00e0 67EE877A 		vmul.f32	s15, s15, s14
 409              		.loc 2 201 26 discriminator 12 view .LVU94
 410 00e4 C4ED047A 		vstr.32	s15, [r4, #16]
 411              	.LVL12:
 412              		.loc 2 201 26 discriminator 12 view .LVU95
 413              	.LBE153:
 414              	.LBE156:
 415              	.LBE159:
 416              	.LBE165:
  35:DaisySP-LGPL-FX/compressor.cpp ****     slope_rec_ = 0.1f;
 417              		.loc 1 35 5 is_stmt 1 discriminator 12 view .LVU96
  36:DaisySP-LGPL-FX/compressor.cpp **** }
 418              		.loc 1 36 5 discriminator 12 view .LVU97
 419              		.loc 1 37 1 is_stmt 0 discriminator 12 view .LVU98
 420 00e8 10BD     		pop	{r4, pc}
 421              	.LVL13:
 422              	.L7:
 423              		.cfi_restore_state
 424              		.loc 1 37 1 discriminator 12 view .LVU99
 425 00ea BAEE040A 		vmov.f32	s0, #-1.0e+1
 426              	.LVL14:
  23:DaisySP-LGPL-FX/compressor.cpp ****     sample_rate_inv_  = 1.0f / (float)sample_rate_;
 427              		.loc 1 23 23 view .LVU100
 428 00ee 0123     		movs	r3, #1
 429 00f0 B0EE006A 		vmov.f32	s12, #2.0e+0
 430 00f4 F0EE676A 		vmov.f32	s13, s15
 431 00f8 9BE7     		b	.L2
 432              	.LVL15:
 433              	.L10:
  23:DaisySP-LGPL-FX/compressor.cpp ****     sample_rate_inv_  = 1.0f / (float)sample_rate_;
 434              		.loc 1 23 23 discriminator 8 view .LVU101
 435 00fa BDEEC07A 		vcvt.s32.f32	s14, s0
 436              	.LBB166:
 437              	.LBB110:
 438              	.LBB102:
 439              	.LBB96:
 190:DaisySP-LGPL-FX/compressor.h ****         atk_slo2_ = expf(-(sample_rate_inv2_ / atk_));
 440              		.loc 2 190 45 discriminator 8 view .LVU102
 441 00fe DFED0D5A 		vldr.32	s11, .L11+20
 442              	.LBE96:
 443              	.LBE102:
 444              	.LBE110:
 445              	.LBE166:
  25:DaisySP-LGPL-FX/compressor.cpp **** 
 446              		.loc 1 25 30 discriminator 8 view .LVU103
 447 0102 B0EE005A 		vmov.f32	s10, #2.0e+0
  23:DaisySP-LGPL-FX/compressor.cpp ****     sample_rate_inv_  = 1.0f / (float)sample_rate_;
 448              		.loc 1 23 23 discriminator 8 view .LVU104
ARM GAS  /var/folders/2p/02m_5p7958535cp2tpgps0400000gn/T//cczoUaMV.s 			page 14


 449 0106 17EE103A 		vmov	r3, s14	@ int
  24:DaisySP-LGPL-FX/compressor.cpp ****     sample_rate_inv2_ = 2.0f / (float)sample_rate_;
 450              		.loc 1 24 32 discriminator 8 view .LVU105
 451 010a B8EEC77A 		vcvt.f32.s32	s14, s14
  24:DaisySP-LGPL-FX/compressor.cpp ****     sample_rate_inv2_ = 2.0f / (float)sample_rate_;
 452              		.loc 1 24 30 discriminator 8 view .LVU106
 453 010e C7EE876A 		vdiv.f32	s13, s15, s14
  25:DaisySP-LGPL-FX/compressor.cpp **** 
 454              		.loc 1 25 30 discriminator 8 view .LVU107
 455 0112 85EE076A 		vdiv.f32	s12, s10, s14
 456              	.LBB167:
 457              	.LBB111:
 458              	.LBB103:
 459              	.LBB97:
 190:DaisySP-LGPL-FX/compressor.h ****         atk_slo2_ = expf(-(sample_rate_inv2_ / atk_));
 460              		.loc 2 190 45 discriminator 8 view .LVU108
 461 0116 86EEA50A 		vdiv.f32	s0, s13, s11
 462              	.LVL16:
 190:DaisySP-LGPL-FX/compressor.h ****         atk_slo2_ = expf(-(sample_rate_inv2_ / atk_));
 463              		.loc 2 190 25 discriminator 8 view .LVU109
 464 011a B1EE400A 		vneg.f32	s0, s0
 465              	.LBE97:
 466              	.LBE103:
 467              	.LBE111:
 468              	.LBE167:
 469 011e 88E7     		b	.L2
 470              	.L12:
 471              		.align	2
 472              	.L11:
 473 0120 00803B48 		.word	1211858944
 474 0124 0D745AB8 		.word	-1202031603
 475 0128 3EC32E37 		.word	925811518
 476 012c 3EC3AE36 		.word	917422910
 477 0130 00EE0200 		.word	192000
 478 0134 CDCCCC3D 		.word	1036831949
 479              		.cfi_endproc
 480              	.LFE2814:
 482              		.section	.text._ZN7daisysp10Compressor7ProcessEf,"ax",%progbits
 483              		.align	1
 484              		.p2align 2,,3
 485              		.global	_ZN7daisysp10Compressor7ProcessEf
 486              		.syntax unified
 487              		.thumb
 488              		.thumb_func
 490              	_ZN7daisysp10Compressor7ProcessEf:
 491              	.LVL17:
 492              	.LFB2815:
  38:DaisySP-LGPL-FX/compressor.cpp **** 
  39:DaisySP-LGPL-FX/compressor.cpp **** float Compressor::Process(float in)
  40:DaisySP-LGPL-FX/compressor.cpp **** {
 493              		.loc 1 40 1 is_stmt 1 view -0
 494              		.cfi_startproc
 495              		@ args = 0, pretend = 0, frame = 8
 496              		@ frame_needed = 0, uses_anonymous_args = 0
  41:DaisySP-LGPL-FX/compressor.cpp ****     float inAbs   = fabsf(in);
 497              		.loc 1 41 5 view .LVU111
 498              		.loc 1 41 11 is_stmt 0 view .LVU112
ARM GAS  /var/folders/2p/02m_5p7958535cp2tpgps0400000gn/T//cczoUaMV.s 			page 15


 499 0000 B0EEC06A 		vabs.f32	s12, s0
 500              	.LVL18:
  42:DaisySP-LGPL-FX/compressor.cpp ****     float cur_slo = ((slope_rec_ > inAbs) ? rel_slo_ : atk_slo_);
 501              		.loc 1 42 5 is_stmt 1 view .LVU113
 502              		.loc 1 42 23 is_stmt 0 view .LVU114
 503 0004 D0ED066A 		vldr.32	s13, [r0, #24]
  43:DaisySP-LGPL-FX/compressor.cpp ****     slope_rec_    = ((slope_rec_ * cur_slo) + ((1.0f - cur_slo) * inAbs));
 504              		.loc 1 43 54 view .LVU115
 505 0008 F7EE007A 		vmov.f32	s15, #1.0e+0
  42:DaisySP-LGPL-FX/compressor.cpp ****     float cur_slo = ((slope_rec_ > inAbs) ? rel_slo_ : atk_slo_);
 506              		.loc 1 42 43 view .LVU116
 507 000c F4EEC66A 		vcmpe.f32	s13, s12
  40:DaisySP-LGPL-FX/compressor.cpp ****     float inAbs   = fabsf(in);
 508              		.loc 1 40 1 view .LVU117
 509 0010 10B5     		push	{r4, lr}
 510              		.cfi_def_cfa_offset 8
 511              		.cfi_offset 4, -8
 512              		.cfi_offset 14, -4
  42:DaisySP-LGPL-FX/compressor.cpp ****     float cur_slo = ((slope_rec_ > inAbs) ? rel_slo_ : atk_slo_);
 513              		.loc 1 42 43 view .LVU118
 514 0012 F1EE10FA 		vmrs	APSR_nzcv, FPSCR
  40:DaisySP-LGPL-FX/compressor.cpp ****     float inAbs   = fabsf(in);
 515              		.loc 1 40 1 view .LVU119
 516 0016 0446     		mov	r4, r0
 517 0018 2DED048B 		vpush.64	{d8, d9}
 518              		.cfi_def_cfa_offset 24
 519              		.cfi_offset 80, -24
 520              		.cfi_offset 81, -20
 521              		.cfi_offset 82, -16
 522              		.cfi_offset 83, -12
  42:DaisySP-LGPL-FX/compressor.cpp ****     float cur_slo = ((slope_rec_ > inAbs) ? rel_slo_ : atk_slo_);
 523              		.loc 1 42 43 view .LVU120
 524 001c C8BF     		it	gt
 525 001e 90ED0B7A 		vldrgt.32	s14, [r0, #44]
  40:DaisySP-LGPL-FX/compressor.cpp ****     float inAbs   = fabsf(in);
 526              		.loc 1 40 1 view .LVU121
 527 0022 82B0     		sub	sp, sp, #8
 528              		.cfi_def_cfa_offset 32
  42:DaisySP-LGPL-FX/compressor.cpp ****     float cur_slo = ((slope_rec_ > inAbs) ? rel_slo_ : atk_slo_);
 529              		.loc 1 42 43 view .LVU122
 530 0024 D8BF     		it	le
 531 0026 90ED0A7A 		vldrle.32	s14, [r0, #40]
 532              	.LVL19:
 533              		.loc 1 43 5 is_stmt 1 view .LVU123
  40:DaisySP-LGPL-FX/compressor.cpp ****     float inAbs   = fabsf(in);
 534              		.loc 1 40 1 is_stmt 0 view .LVU124
 535 002a F0EE408A 		vmov.f32	s17, s0
 536              	.LBB182:
 537              	.LBB183:
 538              	.LBB184:
 539              	.LBB185:
 540              		.file 3 "../DaisySP/Source/Utility/dsp.h"
   1:../DaisySP/Source/Utility/dsp.h **** /*
   2:../DaisySP/Source/Utility/dsp.h **** Copyright (c) 2020 Electrosmith, Corp, Emilie Gillet
   3:../DaisySP/Source/Utility/dsp.h **** 
   4:../DaisySP/Source/Utility/dsp.h **** Use of this source code is governed by an MIT-style
   5:../DaisySP/Source/Utility/dsp.h **** license that can be found in the LICENSE file or at
ARM GAS  /var/folders/2p/02m_5p7958535cp2tpgps0400000gn/T//cczoUaMV.s 			page 16


   6:../DaisySP/Source/Utility/dsp.h **** https://opensource.org/licenses/MIT.
   7:../DaisySP/Source/Utility/dsp.h **** */
   8:../DaisySP/Source/Utility/dsp.h **** 
   9:../DaisySP/Source/Utility/dsp.h **** /** Helpful defines, functions, and other utilities for use in/with daisysp modules.
  10:../DaisySP/Source/Utility/dsp.h **** */
  11:../DaisySP/Source/Utility/dsp.h **** #pragma once
  12:../DaisySP/Source/Utility/dsp.h **** #ifndef DSY_CORE_DSP
  13:../DaisySP/Source/Utility/dsp.h **** #define DSY_CORE_DSP
  14:../DaisySP/Source/Utility/dsp.h **** #include <cassert>
  15:../DaisySP/Source/Utility/dsp.h **** #include <cstdint>
  16:../DaisySP/Source/Utility/dsp.h **** #include <random>
  17:../DaisySP/Source/Utility/dsp.h **** #include <cmath>
  18:../DaisySP/Source/Utility/dsp.h **** 
  19:../DaisySP/Source/Utility/dsp.h **** /** PIs
  20:../DaisySP/Source/Utility/dsp.h **** */
  21:../DaisySP/Source/Utility/dsp.h **** #define PI_F 3.1415927410125732421875f
  22:../DaisySP/Source/Utility/dsp.h **** #define TWOPI_F (2.0f * PI_F)
  23:../DaisySP/Source/Utility/dsp.h **** #define HALFPI_F (PI_F * 0.5f)
  24:../DaisySP/Source/Utility/dsp.h **** #define DSY_MIN(in, mn) (in < mn ? in : mn)
  25:../DaisySP/Source/Utility/dsp.h **** #define DSY_MAX(in, mx) (in > mx ? in : mx)
  26:../DaisySP/Source/Utility/dsp.h **** #define DSY_CLAMP(in, mn, mx) (DSY_MIN(DSY_MAX(in, mn), mx))
  27:../DaisySP/Source/Utility/dsp.h **** #define DSY_COUNTOF(_arr) (sizeof(_arr) / sizeof(_arr[0]))
  28:../DaisySP/Source/Utility/dsp.h **** 
  29:../DaisySP/Source/Utility/dsp.h **** namespace daisysp
  30:../DaisySP/Source/Utility/dsp.h **** {
  31:../DaisySP/Source/Utility/dsp.h **** //Avoids division for random floats. e.g. rand() * kRandFrac
  32:../DaisySP/Source/Utility/dsp.h **** static constexpr float kRandFrac = 1.f / (float)RAND_MAX;
  33:../DaisySP/Source/Utility/dsp.h **** 
  34:../DaisySP/Source/Utility/dsp.h **** //Convert from semitones to other units. e.g. 2 ^ (kOneTwelfth * x)
  35:../DaisySP/Source/Utility/dsp.h **** static constexpr float kOneTwelfth = 1.f / 12.f;
  36:../DaisySP/Source/Utility/dsp.h **** 
  37:../DaisySP/Source/Utility/dsp.h **** /** efficient floating point min/max
  38:../DaisySP/Source/Utility/dsp.h **** c/o stephen mccaul
  39:../DaisySP/Source/Utility/dsp.h **** */
  40:../DaisySP/Source/Utility/dsp.h **** inline float fmax(float a, float b)
  41:../DaisySP/Source/Utility/dsp.h **** {
  42:../DaisySP/Source/Utility/dsp.h ****     float r;
  43:../DaisySP/Source/Utility/dsp.h **** #ifdef __arm__
  44:../DaisySP/Source/Utility/dsp.h ****     asm("vmaxnm.f32 %[d], %[n], %[m]" : [d] "=t"(r) : [n] "t"(a), [m] "t"(b) :);
  45:../DaisySP/Source/Utility/dsp.h **** #else
  46:../DaisySP/Source/Utility/dsp.h ****     r = (a > b) ? a : b;
  47:../DaisySP/Source/Utility/dsp.h **** #endif // __arm__
  48:../DaisySP/Source/Utility/dsp.h ****     return r;
  49:../DaisySP/Source/Utility/dsp.h **** }
  50:../DaisySP/Source/Utility/dsp.h **** 
  51:../DaisySP/Source/Utility/dsp.h **** inline float fmin(float a, float b)
  52:../DaisySP/Source/Utility/dsp.h **** {
  53:../DaisySP/Source/Utility/dsp.h ****     float r;
  54:../DaisySP/Source/Utility/dsp.h **** #ifdef __arm__
  55:../DaisySP/Source/Utility/dsp.h ****     asm("vminnm.f32 %[d], %[n], %[m]" : [d] "=t"(r) : [n] "t"(a), [m] "t"(b) :);
  56:../DaisySP/Source/Utility/dsp.h **** #else
  57:../DaisySP/Source/Utility/dsp.h ****     r = (a < b) ? a : b;
  58:../DaisySP/Source/Utility/dsp.h **** #endif // __arm__
  59:../DaisySP/Source/Utility/dsp.h ****     return r;
  60:../DaisySP/Source/Utility/dsp.h **** }
  61:../DaisySP/Source/Utility/dsp.h **** 
  62:../DaisySP/Source/Utility/dsp.h **** /** quick fp clamp
ARM GAS  /var/folders/2p/02m_5p7958535cp2tpgps0400000gn/T//cczoUaMV.s 			page 17


  63:../DaisySP/Source/Utility/dsp.h **** */
  64:../DaisySP/Source/Utility/dsp.h **** inline float fclamp(float in, float min, float max)
  65:../DaisySP/Source/Utility/dsp.h **** {
  66:../DaisySP/Source/Utility/dsp.h ****     return fmin(fmax(in, min), max);
  67:../DaisySP/Source/Utility/dsp.h **** }
  68:../DaisySP/Source/Utility/dsp.h **** 
  69:../DaisySP/Source/Utility/dsp.h **** /** From Musicdsp.org "Fast power and root estimates for 32bit floats)
  70:../DaisySP/Source/Utility/dsp.h **** Original code by Stefan Stenzel
  71:../DaisySP/Source/Utility/dsp.h **** These are approximations
  72:../DaisySP/Source/Utility/dsp.h **** */
  73:../DaisySP/Source/Utility/dsp.h **** inline float fastpower(float f, int n)
  74:../DaisySP/Source/Utility/dsp.h **** {
  75:../DaisySP/Source/Utility/dsp.h ****     long *lp, l;
  76:../DaisySP/Source/Utility/dsp.h ****     lp = (long *)(&f);
  77:../DaisySP/Source/Utility/dsp.h ****     l  = *lp;
  78:../DaisySP/Source/Utility/dsp.h ****     l -= 0x3F800000;
  79:../DaisySP/Source/Utility/dsp.h ****     l <<= (n - 1);
  80:../DaisySP/Source/Utility/dsp.h ****     l += 0x3F800000;
  81:../DaisySP/Source/Utility/dsp.h ****     *lp = l;
  82:../DaisySP/Source/Utility/dsp.h ****     return f;
  83:../DaisySP/Source/Utility/dsp.h **** }
  84:../DaisySP/Source/Utility/dsp.h **** 
  85:../DaisySP/Source/Utility/dsp.h **** inline float fastroot(float f, int n)
  86:../DaisySP/Source/Utility/dsp.h **** {
  87:../DaisySP/Source/Utility/dsp.h ****     long *lp, l;
  88:../DaisySP/Source/Utility/dsp.h ****     lp = (long *)(&f);
  89:../DaisySP/Source/Utility/dsp.h ****     l  = *lp;
  90:../DaisySP/Source/Utility/dsp.h ****     l -= 0x3F800000;
  91:../DaisySP/Source/Utility/dsp.h ****     l >>= (n - 1);
  92:../DaisySP/Source/Utility/dsp.h ****     l += 0x3F800000;
  93:../DaisySP/Source/Utility/dsp.h ****     *lp = l;
  94:../DaisySP/Source/Utility/dsp.h ****     return f;
  95:../DaisySP/Source/Utility/dsp.h **** }
  96:../DaisySP/Source/Utility/dsp.h **** 
  97:../DaisySP/Source/Utility/dsp.h **** /** Significantly more efficient than fmodf(x, 1.0f) for calculating
  98:../DaisySP/Source/Utility/dsp.h ****  *  the decimal part of a floating point value.
  99:../DaisySP/Source/Utility/dsp.h ****  */
 100:../DaisySP/Source/Utility/dsp.h **** inline float fastmod1f(float x)
 101:../DaisySP/Source/Utility/dsp.h **** {
 102:../DaisySP/Source/Utility/dsp.h ****     return x - static_cast<int>(x);
 103:../DaisySP/Source/Utility/dsp.h **** }
 104:../DaisySP/Source/Utility/dsp.h **** 
 105:../DaisySP/Source/Utility/dsp.h **** /** From http://openaudio.blogspot.com/2017/02/faster-log10-and-pow.html
 106:../DaisySP/Source/Utility/dsp.h **** No approximation, pow10f(x) gives a 90% speed increase over powf(10.f, x)
 107:../DaisySP/Source/Utility/dsp.h **** */
 108:../DaisySP/Source/Utility/dsp.h **** inline float pow10f(float f)
 109:../DaisySP/Source/Utility/dsp.h **** {
 110:../DaisySP/Source/Utility/dsp.h ****     return expf(2.302585092994046f * f);
 111:../DaisySP/Source/Utility/dsp.h **** }
 112:../DaisySP/Source/Utility/dsp.h **** 
 113:../DaisySP/Source/Utility/dsp.h **** /* Original code for fastlog2f by Dr. Paul Beckmann from the ARM community forum, adapted from the 
 114:../DaisySP/Source/Utility/dsp.h **** About 25% performance increase over std::log10f
 115:../DaisySP/Source/Utility/dsp.h **** */
 116:../DaisySP/Source/Utility/dsp.h **** inline float fastlog2f(float f)
 117:../DaisySP/Source/Utility/dsp.h **** {
 118:../DaisySP/Source/Utility/dsp.h ****     float frac;
 119:../DaisySP/Source/Utility/dsp.h ****     int   exp;
ARM GAS  /var/folders/2p/02m_5p7958535cp2tpgps0400000gn/T//cczoUaMV.s 			page 18


 120:../DaisySP/Source/Utility/dsp.h ****     frac = frexpf(fabsf(f), &exp);
 541              		.loc 3 120 18 view .LVU125
 542 002e 01A8     		add	r0, sp, #4
 543              	.LVL20:
 544              		.loc 3 120 18 view .LVU126
 545              	.LBE185:
 546              	.LBE184:
 547              	.LBE183:
 548              	.LBE182:
  44:DaisySP-LGPL-FX/compressor.cpp ****     gain_rec_     = ((atk_slo2_ * gain_rec_)
 549              		.loc 1 44 23 view .LVU127
 550 0030 D4ED089A 		vldr.32	s19, [r4, #32]
  43:DaisySP-LGPL-FX/compressor.cpp ****     gain_rec_     = ((atk_slo2_ * gain_rec_)
 551              		.loc 1 43 54 view .LVU128
 552 0034 77EEC77A 		vsub.f32	s15, s15, s14
 553              		.loc 1 44 35 view .LVU129
 554 0038 94ED079A 		vldr.32	s18, [r4, #28]
  45:DaisySP-LGPL-FX/compressor.cpp ****                  + (ratio_mul_
 555              		.loc 1 45 21 view .LVU130
 556 003c 94ED098A 		vldr.32	s16, [r4, #36]
  43:DaisySP-LGPL-FX/compressor.cpp ****     gain_rec_     = ((atk_slo2_ * gain_rec_)
 557              		.loc 1 43 65 view .LVU131
 558 0040 67EE867A 		vmul.f32	s15, s15, s12
  43:DaisySP-LGPL-FX/compressor.cpp ****     gain_rec_     = ((atk_slo2_ * gain_rec_)
 559              		.loc 1 43 45 view .LVU132
 560 0044 E6EE877A 		vfma.f32	s15, s13, s14
  43:DaisySP-LGPL-FX/compressor.cpp ****     gain_rec_     = ((atk_slo2_ * gain_rec_)
 561              		.loc 1 43 19 view .LVU133
 562 0048 C4ED067A 		vstr.32	s15, [r4, #24]
 563              	.LBB202:
 564              	.LBB196:
 565              	.LBB191:
 566              	.LBB186:
 567              		.loc 3 120 18 view .LVU134
 568 004c B0EEE70A 		vabs.f32	s0, s15
 569              	.LVL21:
 570              		.loc 3 120 18 view .LVU135
 571              	.LBE186:
 572              	.LBE191:
 573              	.LBE196:
 574              	.LBE202:
  44:DaisySP-LGPL-FX/compressor.cpp ****     gain_rec_     = ((atk_slo2_ * gain_rec_)
 575              		.loc 1 44 5 is_stmt 1 view .LVU136
 576              	.LBB203:
 577              	.LBI182:
 121:../DaisySP/Source/Utility/dsp.h ****     f    = 1.23149591368684f;
 122:../DaisySP/Source/Utility/dsp.h ****     f *= frac;
 123:../DaisySP/Source/Utility/dsp.h ****     f += -4.11852516267426f;
 124:../DaisySP/Source/Utility/dsp.h ****     f *= frac;
 125:../DaisySP/Source/Utility/dsp.h ****     f += 6.02197014179219f;
 126:../DaisySP/Source/Utility/dsp.h ****     f *= frac;
 127:../DaisySP/Source/Utility/dsp.h ****     f += -3.13396450166353f;
 128:../DaisySP/Source/Utility/dsp.h ****     f += exp;
 129:../DaisySP/Source/Utility/dsp.h ****     return (f);
 130:../DaisySP/Source/Utility/dsp.h **** }
 131:../DaisySP/Source/Utility/dsp.h **** 
 132:../DaisySP/Source/Utility/dsp.h **** inline float fastlog10f(float f)
ARM GAS  /var/folders/2p/02m_5p7958535cp2tpgps0400000gn/T//cczoUaMV.s 			page 19


 578              		.loc 3 132 14 view .LVU137
 579              	.LBB197:
 133:../DaisySP/Source/Utility/dsp.h **** {
 134:../DaisySP/Source/Utility/dsp.h ****     return fastlog2f(f) * 0.3010299956639812f;
 580              		.loc 3 134 5 view .LVU138
 581              	.LBB192:
 582              	.LBI184:
 116:../DaisySP/Source/Utility/dsp.h **** {
 583              		.loc 3 116 14 view .LVU139
 584              	.LBB187:
 118:../DaisySP/Source/Utility/dsp.h ****     int   exp;
 585              		.loc 3 118 5 view .LVU140
 119:../DaisySP/Source/Utility/dsp.h ****     frac = frexpf(fabsf(f), &exp);
 586              		.loc 3 119 5 view .LVU141
 120:../DaisySP/Source/Utility/dsp.h ****     f    = 1.23149591368684f;
 587              		.loc 3 120 5 view .LVU142
 120:../DaisySP/Source/Utility/dsp.h ****     f    = 1.23149591368684f;
 588              		.loc 3 120 18 is_stmt 0 view .LVU143
 589 0050 FFF7FEFF 		bl	frexpf
 590              	.LVL22:
 123:../DaisySP/Source/Utility/dsp.h ****     f *= frac;
 591              		.loc 3 123 7 view .LVU144
 592 0054 DFED206A 		vldr.32	s13, .L20
 593 0058 9FED207A 		vldr.32	s14, .L20+4
 594              	.LVL23:
 121:../DaisySP/Source/Utility/dsp.h ****     f *= frac;
 595              		.loc 3 121 5 is_stmt 1 view .LVU145
 122:../DaisySP/Source/Utility/dsp.h ****     f += -4.11852516267426f;
 596              		.loc 3 122 5 view .LVU146
 123:../DaisySP/Source/Utility/dsp.h ****     f *= frac;
 597              		.loc 3 123 5 view .LVU147
 598              	.LBE187:
 599              	.LBE192:
 600              	.LBE197:
 601              	.LBE203:
  46:DaisySP-LGPL-FX/compressor.cpp ****                     * fmax(((20.f * fastlog10f(slope_rec_)) - thresh_), 0.f)));
 602              		.loc 1 46 27 is_stmt 0 view .LVU148
 603 005c B3EE043A 		vmov.f32	s6, #2.0e+1
 604              	.LBB204:
 605              	.LBB198:
 606              	.LBB193:
 607              	.LBB188:
 125:../DaisySP/Source/Utility/dsp.h ****     f *= frac;
 608              		.loc 3 125 7 view .LVU149
 609 0060 DFED1F5A 		vldr.32	s11, .L20+8
 123:../DaisySP/Source/Utility/dsp.h ****     f *= frac;
 610              		.loc 3 123 7 view .LVU150
 611 0064 A0EE267A 		vfma.f32	s14, s0, s13
 127:../DaisySP/Source/Utility/dsp.h ****     f += exp;
 612              		.loc 3 127 7 view .LVU151
 613 0068 DFED1E7A 		vldr.32	s15, .L20+12
 614              	.LBE188:
 615              	.LBE193:
 616              		.loc 3 134 27 view .LVU152
 617 006c DFED1E2A 		vldr.32	s5, .L20+16
 618              	.LBE198:
 619              	.LBE204:
ARM GAS  /var/folders/2p/02m_5p7958535cp2tpgps0400000gn/T//cczoUaMV.s 			page 20


 620              		.loc 1 46 27 view .LVU153
 621 0070 94ED016A 		vldr.32	s12, [r4, #4]
 622              	.LBB205:
 623              	.LBB206:
  44:../DaisySP/Source/Utility/dsp.h **** #else
 624              		.loc 3 44 5 view .LVU154
 625 0074 DFED1D3A 		vldr.32	s7, .L20+20
 626              	.LBE206:
 627              	.LBE205:
  47:DaisySP-LGPL-FX/compressor.cpp ****     gain_         = pow10f(0.05f * (gain_rec_ + makeup_gain_));
 628              		.loc 1 47 47 view .LVU155
 629 0078 D4ED046A 		vldr.32	s13, [r4, #16]
 630              		.loc 1 47 27 view .LVU156
 631 007c 9FED1C4A 		vldr.32	s8, .L20+24
 632              	.LBB208:
 633              	.LBB199:
 634              	.LBB194:
 635              	.LBB189:
 123:../DaisySP/Source/Utility/dsp.h ****     f *= frac;
 636              		.loc 3 123 7 view .LVU157
 637 0080 B0EE475A 		vmov.f32	s10, s14
 638              	.LVL24:
 124:../DaisySP/Source/Utility/dsp.h ****     f += 6.02197014179219f;
 639              		.loc 3 124 5 is_stmt 1 view .LVU158
 125:../DaisySP/Source/Utility/dsp.h ****     f *= frac;
 640              		.loc 3 125 5 view .LVU159
 128:../DaisySP/Source/Utility/dsp.h ****     return (f);
 641              		.loc 3 128 7 is_stmt 0 view .LVU160
 642 0084 9DED017A 		vldr.32	s14, [sp, #4]	@ int
 643              	.LBE189:
 644              	.LBE194:
 645              	.LBE199:
 646              	.LBE208:
 647              	.LBB209:
 648              	.LBB210:
 110:../DaisySP/Source/Utility/dsp.h **** }
 649              		.loc 3 110 16 view .LVU161
 650 0088 DFED1A4A 		vldr.32	s9, .L20+28
 651              	.LBE210:
 652              	.LBE209:
 653              	.LBB213:
 654              	.LBB200:
 655              	.LBB195:
 656              	.LBB190:
 128:../DaisySP/Source/Utility/dsp.h ****     return (f);
 657              		.loc 3 128 7 view .LVU162
 658 008c B8EEC77A 		vcvt.f32.s32	s14, s14
 125:../DaisySP/Source/Utility/dsp.h ****     f *= frac;
 659              		.loc 3 125 7 view .LVU163
 660 0090 E0EE055A 		vfma.f32	s11, s0, s10
 661              	.LVL25:
 126:../DaisySP/Source/Utility/dsp.h ****     f += -3.13396450166353f;
 662              		.loc 3 126 5 is_stmt 1 view .LVU164
 127:../DaisySP/Source/Utility/dsp.h ****     f += exp;
 663              		.loc 3 127 5 view .LVU165
 127:../DaisySP/Source/Utility/dsp.h ****     f += exp;
 664              		.loc 3 127 7 is_stmt 0 view .LVU166
ARM GAS  /var/folders/2p/02m_5p7958535cp2tpgps0400000gn/T//cczoUaMV.s 			page 21


 665 0094 E0EE257A 		vfma.f32	s15, s0, s11
 666              	.LVL26:
 128:../DaisySP/Source/Utility/dsp.h ****     return (f);
 667              		.loc 3 128 5 is_stmt 1 view .LVU167
 128:../DaisySP/Source/Utility/dsp.h ****     return (f);
 668              		.loc 3 128 7 is_stmt 0 view .LVU168
 669 0098 77EE277A 		vadd.f32	s15, s14, s15
 670              	.LVL27:
 129:../DaisySP/Source/Utility/dsp.h **** }
 671              		.loc 3 129 5 is_stmt 1 view .LVU169
 129:../DaisySP/Source/Utility/dsp.h **** }
 672              		.loc 3 129 5 is_stmt 0 view .LVU170
 673              	.LBE190:
 674              	.LBE195:
 675              	.LBE200:
 676              	.LBE213:
  46:DaisySP-LGPL-FX/compressor.cpp ****     gain_         = pow10f(0.05f * (gain_rec_ + makeup_gain_));
 677              		.loc 1 46 27 view .LVU171
 678 009c B0EE467A 		vmov.f32	s14, s12
 679              	.LBB214:
 680              	.LBB201:
 681              		.loc 3 134 27 view .LVU172
 682 00a0 67EEA27A 		vmul.f32	s15, s15, s5
 683              	.LBE201:
 684              	.LBE214:
  46:DaisySP-LGPL-FX/compressor.cpp ****     gain_         = pow10f(0.05f * (gain_rec_ + makeup_gain_));
 685              		.loc 1 46 27 view .LVU173
 686 00a4 97EE837A 		vfnms.f32	s14, s15, s6
 687              	.LVL28:
 688              	.LBB215:
 689              	.LBI205:
  40:../DaisySP/Source/Utility/dsp.h **** {
 690              		.loc 3 40 14 is_stmt 1 view .LVU174
 691              	.LBB207:
  42:../DaisySP/Source/Utility/dsp.h **** #ifdef __arm__
 692              		.loc 3 42 5 view .LVU175
  44:../DaisySP/Source/Utility/dsp.h **** #else
 693              		.loc 3 44 5 view .LVU176
 694              		.syntax unified
 695              	@ 44 "../DaisySP/Source/Utility/dsp.h" 1
 696 00a8 C7FE237A 		vmaxnm.f32 s15, s14, s7
 697              	@ 0 "" 2
 698              	.LVL29:
  48:../DaisySP/Source/Utility/dsp.h **** }
 699              		.loc 3 48 5 view .LVU177
  48:../DaisySP/Source/Utility/dsp.h **** }
 700              		.loc 3 48 5 is_stmt 0 view .LVU178
 701              		.thumb
 702              		.syntax unified
 703              	.LBE207:
 704              	.LBE215:
  46:DaisySP-LGPL-FX/compressor.cpp ****     gain_         = pow10f(0.05f * (gain_rec_ + makeup_gain_));
 705              		.loc 1 46 21 view .LVU179
 706 00ac 68EE277A 		vmul.f32	s15, s16, s15
  45:DaisySP-LGPL-FX/compressor.cpp ****                     * fmax(((20.f * fastlog10f(slope_rec_)) - thresh_), 0.f)));
 707              		.loc 1 45 18 view .LVU180
 708 00b0 E9EE897A 		vfma.f32	s15, s19, s18
ARM GAS  /var/folders/2p/02m_5p7958535cp2tpgps0400000gn/T//cczoUaMV.s 			page 22


 709              		.loc 1 47 47 view .LVU181
 710 00b4 37EEA67A 		vadd.f32	s14, s15, s13
  44:DaisySP-LGPL-FX/compressor.cpp ****                  + (ratio_mul_
 711              		.loc 1 44 19 view .LVU182
 712 00b8 C4ED077A 		vstr.32	s15, [r4, #28]
 713              		.loc 1 47 5 is_stmt 1 view .LVU183
 714              	.LVL30:
 715              	.LBB216:
 716              	.LBI209:
 108:../DaisySP/Source/Utility/dsp.h **** {
 717              		.loc 3 108 14 view .LVU184
 718              	.LBB211:
 110:../DaisySP/Source/Utility/dsp.h **** }
 719              		.loc 3 110 5 view .LVU185
 720              	.LBE211:
 721              	.LBE216:
 722              		.loc 1 47 27 is_stmt 0 view .LVU186
 723 00bc 27EE047A 		vmul.f32	s14, s14, s8
 724              	.LBB217:
 725              	.LBB212:
 110:../DaisySP/Source/Utility/dsp.h **** }
 726              		.loc 3 110 16 view .LVU187
 727 00c0 27EE240A 		vmul.f32	s0, s14, s9
 728 00c4 FFF7FEFF 		bl	expf
 729              	.LVL31:
 110:../DaisySP/Source/Utility/dsp.h **** }
 730              		.loc 3 110 16 view .LVU188
 731              	.LBE212:
 732              	.LBE217:
 733              		.loc 1 47 19 view .LVU189
 734 00c8 84ED050A 		vstr.32	s0, [r4, #20]
  48:DaisySP-LGPL-FX/compressor.cpp **** 
  49:DaisySP-LGPL-FX/compressor.cpp ****     return gain_ * in;
 735              		.loc 1 49 5 is_stmt 1 view .LVU190
  50:DaisySP-LGPL-FX/compressor.cpp **** }
 736              		.loc 1 50 1 is_stmt 0 view .LVU191
 737 00cc 28EE800A 		vmul.f32	s0, s17, s0
 738 00d0 02B0     		add	sp, sp, #8
 739              		.cfi_def_cfa_offset 24
 740              		@ sp needed
 741 00d2 BDEC048B 		vldm	sp!, {d8-d9}
 742              		.cfi_restore 82
 743              		.cfi_restore 83
 744              		.cfi_restore 80
 745              		.cfi_restore 81
 746              		.cfi_def_cfa_offset 8
 747 00d6 10BD     		pop	{r4, pc}
 748              	.LVL32:
 749              	.L21:
 750              		.loc 1 50 1 view .LVU192
 751              		.align	2
 752              	.L20:
 753 00d8 A8A19D3F 		.word	1067295144
 754 00dc F5CA83C0 		.word	-1065104651
 755 00e0 FBB3C040 		.word	1086370811
 756 00e4 E09248C0 		.word	-1068985632
 757 00e8 9B209A3E 		.word	1050288283
ARM GAS  /var/folders/2p/02m_5p7958535cp2tpgps0400000gn/T//cczoUaMV.s 			page 23


 758 00ec 00000000 		.word	0
 759 00f0 CDCC4C3D 		.word	1028443341
 760 00f4 8E5D1340 		.word	1075010958
 761              		.cfi_endproc
 762              	.LFE2815:
 764              		.section	.text._ZN7daisysp10Compressor12ProcessBlockEPfS1_S1_j,"ax",%progbits
 765              		.align	1
 766              		.p2align 2,,3
 767              		.global	_ZN7daisysp10Compressor12ProcessBlockEPfS1_S1_j
 768              		.syntax unified
 769              		.thumb
 770              		.thumb_func
 772              	_ZN7daisysp10Compressor12ProcessBlockEPfS1_S1_j:
 773              	.LVL33:
 774              	.LFB2816:
  51:DaisySP-LGPL-FX/compressor.cpp **** 
  52:DaisySP-LGPL-FX/compressor.cpp **** void Compressor::ProcessBlock(float *in, float *out, float *key, size_t size)
  53:DaisySP-LGPL-FX/compressor.cpp **** {
 775              		.loc 1 53 1 is_stmt 1 view -0
 776              		.cfi_startproc
 777              		@ args = 4, pretend = 0, frame = 8
 778              		@ frame_needed = 0, uses_anonymous_args = 0
  54:DaisySP-LGPL-FX/compressor.cpp ****     for(size_t i = 0; i < size; i++)
 779              		.loc 1 54 5 view .LVU194
 780              	.LBB231:
 781              		.loc 1 54 25 view .LVU195
 782              	.LBE231:
  53:DaisySP-LGPL-FX/compressor.cpp ****     for(size_t i = 0; i < size; i++)
 783              		.loc 1 53 1 is_stmt 0 view .LVU196
 784 0000 2DE9F041 		push	{r4, r5, r6, r7, r8, lr}
 785              		.cfi_def_cfa_offset 24
 786              		.cfi_offset 4, -24
 787              		.cfi_offset 5, -20
 788              		.cfi_offset 6, -16
 789              		.cfi_offset 7, -12
 790              		.cfi_offset 8, -8
 791              		.cfi_offset 14, -4
 792 0004 2DED048B 		vpush.64	{d8, d9}
 793              		.cfi_def_cfa_offset 40
 794              		.cfi_offset 80, -40
 795              		.cfi_offset 81, -36
 796              		.cfi_offset 82, -32
 797              		.cfi_offset 83, -28
 798 0008 82B0     		sub	sp, sp, #8
 799              		.cfi_def_cfa_offset 48
  53:DaisySP-LGPL-FX/compressor.cpp ****     for(size_t i = 0; i < size; i++)
 800              		.loc 1 53 1 view .LVU197
 801 000a DDF83080 		ldr	r8, [sp, #48]
 802              	.LBB274:
 803              		.loc 1 54 25 view .LVU198
 804 000e B8F1000F 		cmp	r8, #0
 805 0012 6DD0     		beq	.L22
 806 0014 0446     		mov	r4, r0
 807 0016 1D46     		mov	r5, r3
 808 0018 0F46     		mov	r7, r1
 809 001a 1646     		mov	r6, r2
 810 001c 03EB8808 		add	r8, r3, r8, lsl #2
ARM GAS  /var/folders/2p/02m_5p7958535cp2tpgps0400000gn/T//cczoUaMV.s 			page 24


 811              	.LVL34:
 812              	.L27:
  55:DaisySP-LGPL-FX/compressor.cpp ****     {
  56:DaisySP-LGPL-FX/compressor.cpp ****         Process(key[i]);
 813              		.loc 1 56 9 is_stmt 1 discriminator 2 view .LVU199
 814              		.loc 1 56 16 is_stmt 0 discriminator 2 view .LVU200
 815 0020 F5EC017A 		vldmia.32	r5!, {s15}
 816              	.LVL35:
 817              	.LBB232:
 818              	.LBI232:
  39:DaisySP-LGPL-FX/compressor.cpp **** {
 819              		.loc 1 39 7 is_stmt 1 discriminator 2 view .LVU201
 820              	.LBB233:
  41:DaisySP-LGPL-FX/compressor.cpp ****     float cur_slo = ((slope_rec_ > inAbs) ? rel_slo_ : atk_slo_);
 821              		.loc 1 41 5 discriminator 2 view .LVU202
 822              	.LBB234:
 823              	.LBB235:
 824              	.LBB236:
 825              	.LBB237:
 120:../DaisySP/Source/Utility/dsp.h ****     f    = 1.23149591368684f;
 826              		.loc 3 120 18 is_stmt 0 discriminator 2 view .LVU203
 827 0024 01A8     		add	r0, sp, #4
 828              	.LBE237:
 829              	.LBE236:
 830              	.LBE235:
 831              	.LBE234:
  42:DaisySP-LGPL-FX/compressor.cpp ****     slope_rec_    = ((slope_rec_ * cur_slo) + ((1.0f - cur_slo) * inAbs));
 832              		.loc 1 42 23 discriminator 2 view .LVU204
 833 0026 94ED066A 		vldr.32	s12, [r4, #24]
  41:DaisySP-LGPL-FX/compressor.cpp ****     float cur_slo = ((slope_rec_ > inAbs) ? rel_slo_ : atk_slo_);
 834              		.loc 1 41 11 discriminator 2 view .LVU205
 835 002a B0EEE77A 		vabs.f32	s14, s15
 836              	.LVL36:
  42:DaisySP-LGPL-FX/compressor.cpp ****     slope_rec_    = ((slope_rec_ * cur_slo) + ((1.0f - cur_slo) * inAbs));
 837              		.loc 1 42 5 is_stmt 1 discriminator 2 view .LVU206
  44:DaisySP-LGPL-FX/compressor.cpp ****                  + (ratio_mul_
 838              		.loc 1 44 23 is_stmt 0 discriminator 2 view .LVU207
 839 002e 94ED089A 		vldr.32	s18, [r4, #32]
  43:DaisySP-LGPL-FX/compressor.cpp ****     gain_rec_     = ((atk_slo2_ * gain_rec_)
 840              		.loc 1 43 54 discriminator 2 view .LVU208
 841 0032 F7EE007A 		vmov.f32	s15, #1.0e+0
 842              	.LVL37:
  44:DaisySP-LGPL-FX/compressor.cpp ****                  + (ratio_mul_
 843              		.loc 1 44 35 discriminator 2 view .LVU209
 844 0036 D4ED078A 		vldr.32	s17, [r4, #28]
  45:DaisySP-LGPL-FX/compressor.cpp ****                     * fmax(((20.f * fastlog10f(slope_rec_)) - thresh_), 0.f)));
 845              		.loc 1 45 21 discriminator 2 view .LVU210
 846 003a 94ED098A 		vldr.32	s16, [r4, #36]
  42:DaisySP-LGPL-FX/compressor.cpp ****     slope_rec_    = ((slope_rec_ * cur_slo) + ((1.0f - cur_slo) * inAbs));
 847              		.loc 1 42 43 discriminator 2 view .LVU211
 848 003e B4EEC67A 		vcmpe.f32	s14, s12
 849 0042 F1EE10FA 		vmrs	APSR_nzcv, FPSCR
 850 0046 4CBF     		ite	mi
 851 0048 D4ED0B6A 		vldrmi.32	s13, [r4, #44]
 852 004c D4ED0A6A 		vldrpl.32	s13, [r4, #40]
 853              	.LVL38:
  43:DaisySP-LGPL-FX/compressor.cpp ****     gain_rec_     = ((atk_slo2_ * gain_rec_)
ARM GAS  /var/folders/2p/02m_5p7958535cp2tpgps0400000gn/T//cczoUaMV.s 			page 25


 854              		.loc 1 43 5 is_stmt 1 discriminator 2 view .LVU212
  43:DaisySP-LGPL-FX/compressor.cpp ****     gain_rec_     = ((atk_slo2_ * gain_rec_)
 855              		.loc 1 43 54 is_stmt 0 discriminator 2 view .LVU213
 856 0050 77EEE67A 		vsub.f32	s15, s15, s13
  43:DaisySP-LGPL-FX/compressor.cpp ****     gain_rec_     = ((atk_slo2_ * gain_rec_)
 857              		.loc 1 43 65 discriminator 2 view .LVU214
 858 0054 67EE877A 		vmul.f32	s15, s15, s14
  43:DaisySP-LGPL-FX/compressor.cpp ****     gain_rec_     = ((atk_slo2_ * gain_rec_)
 859              		.loc 1 43 45 discriminator 2 view .LVU215
 860 0058 E6EE267A 		vfma.f32	s15, s12, s13
 861              	.LBB254:
 862              	.LBB248:
 863              	.LBB243:
 864              	.LBB238:
 120:../DaisySP/Source/Utility/dsp.h ****     f    = 1.23149591368684f;
 865              		.loc 3 120 18 discriminator 2 view .LVU216
 866 005c B0EEE70A 		vabs.f32	s0, s15
 867              	.LBE238:
 868              	.LBE243:
 869              	.LBE248:
 870              	.LBE254:
  43:DaisySP-LGPL-FX/compressor.cpp ****     gain_rec_     = ((atk_slo2_ * gain_rec_)
 871              		.loc 1 43 19 discriminator 2 view .LVU217
 872 0060 C4ED067A 		vstr.32	s15, [r4, #24]
 873              	.LVL39:
  44:DaisySP-LGPL-FX/compressor.cpp ****                  + (ratio_mul_
 874              		.loc 1 44 5 is_stmt 1 discriminator 2 view .LVU218
 875              	.LBB255:
 876              	.LBI234:
 132:../DaisySP/Source/Utility/dsp.h **** {
 877              		.loc 3 132 14 discriminator 2 view .LVU219
 878              	.LBB249:
 879              		.loc 3 134 5 discriminator 2 view .LVU220
 880              	.LBB244:
 881              	.LBI236:
 116:../DaisySP/Source/Utility/dsp.h **** {
 882              		.loc 3 116 14 discriminator 2 view .LVU221
 883              	.LBB239:
 118:../DaisySP/Source/Utility/dsp.h ****     int   exp;
 884              		.loc 3 118 5 discriminator 2 view .LVU222
 119:../DaisySP/Source/Utility/dsp.h ****     frac = frexpf(fabsf(f), &exp);
 885              		.loc 3 119 5 discriminator 2 view .LVU223
 120:../DaisySP/Source/Utility/dsp.h ****     f    = 1.23149591368684f;
 886              		.loc 3 120 5 discriminator 2 view .LVU224
 120:../DaisySP/Source/Utility/dsp.h ****     f    = 1.23149591368684f;
 887              		.loc 3 120 18 is_stmt 0 discriminator 2 view .LVU225
 888 0064 FFF7FEFF 		bl	frexpf
 889              	.LVL40:
 123:../DaisySP/Source/Utility/dsp.h ****     f *= frac;
 890              		.loc 3 123 7 discriminator 2 view .LVU226
 891 0068 DFED246A 		vldr.32	s13, .L35
 892 006c 9FED247A 		vldr.32	s14, .L35+4
 893              	.LVL41:
 121:../DaisySP/Source/Utility/dsp.h ****     f *= frac;
 894              		.loc 3 121 5 is_stmt 1 discriminator 2 view .LVU227
 122:../DaisySP/Source/Utility/dsp.h ****     f += -4.11852516267426f;
 895              		.loc 3 122 5 discriminator 2 view .LVU228
ARM GAS  /var/folders/2p/02m_5p7958535cp2tpgps0400000gn/T//cczoUaMV.s 			page 26


 123:../DaisySP/Source/Utility/dsp.h ****     f *= frac;
 896              		.loc 3 123 5 discriminator 2 view .LVU229
 897              	.LBE239:
 898              	.LBE244:
 899              	.LBE249:
 900              	.LBE255:
  46:DaisySP-LGPL-FX/compressor.cpp ****     gain_         = pow10f(0.05f * (gain_rec_ + makeup_gain_));
 901              		.loc 1 46 27 is_stmt 0 discriminator 2 view .LVU230
 902 0070 B3EE043A 		vmov.f32	s6, #2.0e+1
 903              	.LBB256:
 904              	.LBB250:
 905              	.LBB245:
 906              	.LBB240:
 125:../DaisySP/Source/Utility/dsp.h ****     f *= frac;
 907              		.loc 3 125 7 discriminator 2 view .LVU231
 908 0074 DFED235A 		vldr.32	s11, .L35+8
 123:../DaisySP/Source/Utility/dsp.h ****     f *= frac;
 909              		.loc 3 123 7 discriminator 2 view .LVU232
 910 0078 A0EE267A 		vfma.f32	s14, s0, s13
 127:../DaisySP/Source/Utility/dsp.h ****     f += exp;
 911              		.loc 3 127 7 discriminator 2 view .LVU233
 912 007c DFED227A 		vldr.32	s15, .L35+12
 913              	.LBE240:
 914              	.LBE245:
 915              		.loc 3 134 27 discriminator 2 view .LVU234
 916 0080 DFED222A 		vldr.32	s5, .L35+16
 917              	.LBE250:
 918              	.LBE256:
  46:DaisySP-LGPL-FX/compressor.cpp ****     gain_         = pow10f(0.05f * (gain_rec_ + makeup_gain_));
 919              		.loc 1 46 27 discriminator 2 view .LVU235
 920 0084 94ED016A 		vldr.32	s12, [r4, #4]
 921              	.LBB257:
 922              	.LBB258:
  44:../DaisySP/Source/Utility/dsp.h **** #else
 923              		.loc 3 44 5 discriminator 2 view .LVU236
 924 0088 DFED213A 		vldr.32	s7, .L35+20
 925              	.LBE258:
 926              	.LBE257:
  47:DaisySP-LGPL-FX/compressor.cpp **** 
 927              		.loc 1 47 47 discriminator 2 view .LVU237
 928 008c D4ED046A 		vldr.32	s13, [r4, #16]
  47:DaisySP-LGPL-FX/compressor.cpp **** 
 929              		.loc 1 47 27 discriminator 2 view .LVU238
 930 0090 9FED204A 		vldr.32	s8, .L35+24
 931              	.LBB260:
 932              	.LBB251:
 933              	.LBB246:
 934              	.LBB241:
 123:../DaisySP/Source/Utility/dsp.h ****     f *= frac;
 935              		.loc 3 123 7 discriminator 2 view .LVU239
 936 0094 B0EE475A 		vmov.f32	s10, s14
 937              	.LVL42:
 124:../DaisySP/Source/Utility/dsp.h ****     f += 6.02197014179219f;
 938              		.loc 3 124 5 is_stmt 1 discriminator 2 view .LVU240
 125:../DaisySP/Source/Utility/dsp.h ****     f *= frac;
 939              		.loc 3 125 5 discriminator 2 view .LVU241
 128:../DaisySP/Source/Utility/dsp.h ****     return (f);
ARM GAS  /var/folders/2p/02m_5p7958535cp2tpgps0400000gn/T//cczoUaMV.s 			page 27


 940              		.loc 3 128 7 is_stmt 0 discriminator 2 view .LVU242
 941 0098 9DED017A 		vldr.32	s14, [sp, #4]	@ int
 942              	.LBE241:
 943              	.LBE246:
 944              	.LBE251:
 945              	.LBE260:
 946              	.LBB261:
 947              	.LBB262:
 110:../DaisySP/Source/Utility/dsp.h **** }
 948              		.loc 3 110 16 discriminator 2 view .LVU243
 949 009c DFED1E4A 		vldr.32	s9, .L35+28
 950              	.LBE262:
 951              	.LBE261:
 952              	.LBB265:
 953              	.LBB252:
 954              	.LBB247:
 955              	.LBB242:
 128:../DaisySP/Source/Utility/dsp.h ****     return (f);
 956              		.loc 3 128 7 discriminator 2 view .LVU244
 957 00a0 B8EEC77A 		vcvt.f32.s32	s14, s14
 125:../DaisySP/Source/Utility/dsp.h ****     f *= frac;
 958              		.loc 3 125 7 discriminator 2 view .LVU245
 959 00a4 E0EE055A 		vfma.f32	s11, s0, s10
 960              	.LVL43:
 126:../DaisySP/Source/Utility/dsp.h ****     f += -3.13396450166353f;
 961              		.loc 3 126 5 is_stmt 1 discriminator 2 view .LVU246
 127:../DaisySP/Source/Utility/dsp.h ****     f += exp;
 962              		.loc 3 127 5 discriminator 2 view .LVU247
 127:../DaisySP/Source/Utility/dsp.h ****     f += exp;
 963              		.loc 3 127 7 is_stmt 0 discriminator 2 view .LVU248
 964 00a8 E0EE257A 		vfma.f32	s15, s0, s11
 965              	.LVL44:
 128:../DaisySP/Source/Utility/dsp.h ****     return (f);
 966              		.loc 3 128 5 is_stmt 1 discriminator 2 view .LVU249
 128:../DaisySP/Source/Utility/dsp.h ****     return (f);
 967              		.loc 3 128 7 is_stmt 0 discriminator 2 view .LVU250
 968 00ac 77EE277A 		vadd.f32	s15, s14, s15
 969              	.LVL45:
 129:../DaisySP/Source/Utility/dsp.h **** }
 970              		.loc 3 129 5 is_stmt 1 discriminator 2 view .LVU251
 129:../DaisySP/Source/Utility/dsp.h **** }
 971              		.loc 3 129 5 is_stmt 0 discriminator 2 view .LVU252
 972              	.LBE242:
 973              	.LBE247:
 974              	.LBE252:
 975              	.LBE265:
  46:DaisySP-LGPL-FX/compressor.cpp ****     gain_         = pow10f(0.05f * (gain_rec_ + makeup_gain_));
 976              		.loc 1 46 27 discriminator 2 view .LVU253
 977 00b0 B0EE467A 		vmov.f32	s14, s12
 978              	.LBB266:
 979              	.LBB253:
 980              		.loc 3 134 27 discriminator 2 view .LVU254
 981 00b4 67EEA27A 		vmul.f32	s15, s15, s5
 982              	.LBE253:
 983              	.LBE266:
  46:DaisySP-LGPL-FX/compressor.cpp ****     gain_         = pow10f(0.05f * (gain_rec_ + makeup_gain_));
 984              		.loc 1 46 27 discriminator 2 view .LVU255
ARM GAS  /var/folders/2p/02m_5p7958535cp2tpgps0400000gn/T//cczoUaMV.s 			page 28


 985 00b8 97EE837A 		vfnms.f32	s14, s15, s6
 986              	.LVL46:
 987              	.LBB267:
 988              	.LBI257:
  40:../DaisySP/Source/Utility/dsp.h **** {
 989              		.loc 3 40 14 is_stmt 1 discriminator 2 view .LVU256
 990              	.LBB259:
  42:../DaisySP/Source/Utility/dsp.h **** #ifdef __arm__
 991              		.loc 3 42 5 discriminator 2 view .LVU257
  44:../DaisySP/Source/Utility/dsp.h **** #else
 992              		.loc 3 44 5 discriminator 2 view .LVU258
 993              		.syntax unified
 994              	@ 44 "../DaisySP/Source/Utility/dsp.h" 1
 995 00bc C7FE237A 		vmaxnm.f32 s15, s14, s7
 996              	@ 0 "" 2
 997              	.LVL47:
  48:../DaisySP/Source/Utility/dsp.h **** }
 998              		.loc 3 48 5 discriminator 2 view .LVU259
  48:../DaisySP/Source/Utility/dsp.h **** }
 999              		.loc 3 48 5 is_stmt 0 discriminator 2 view .LVU260
 1000              		.thumb
 1001              		.syntax unified
 1002              	.LBE259:
 1003              	.LBE267:
  46:DaisySP-LGPL-FX/compressor.cpp ****     gain_         = pow10f(0.05f * (gain_rec_ + makeup_gain_));
 1004              		.loc 1 46 21 discriminator 2 view .LVU261
 1005 00c0 68EE277A 		vmul.f32	s15, s16, s15
  45:DaisySP-LGPL-FX/compressor.cpp ****                     * fmax(((20.f * fastlog10f(slope_rec_)) - thresh_), 0.f)));
 1006              		.loc 1 45 18 discriminator 2 view .LVU262
 1007 00c4 E9EE287A 		vfma.f32	s15, s18, s17
  47:DaisySP-LGPL-FX/compressor.cpp **** 
 1008              		.loc 1 47 47 discriminator 2 view .LVU263
 1009 00c8 37EEA67A 		vadd.f32	s14, s15, s13
  44:DaisySP-LGPL-FX/compressor.cpp ****                  + (ratio_mul_
 1010              		.loc 1 44 19 discriminator 2 view .LVU264
 1011 00cc C4ED077A 		vstr.32	s15, [r4, #28]
  47:DaisySP-LGPL-FX/compressor.cpp **** 
 1012              		.loc 1 47 5 is_stmt 1 discriminator 2 view .LVU265
 1013              	.LVL48:
 1014              	.LBB268:
 1015              	.LBI261:
 108:../DaisySP/Source/Utility/dsp.h **** {
 1016              		.loc 3 108 14 discriminator 2 view .LVU266
 1017              	.LBB263:
 110:../DaisySP/Source/Utility/dsp.h **** }
 1018              		.loc 3 110 5 discriminator 2 view .LVU267
 1019              	.LBE263:
 1020              	.LBE268:
  47:DaisySP-LGPL-FX/compressor.cpp **** 
 1021              		.loc 1 47 27 is_stmt 0 discriminator 2 view .LVU268
 1022 00d0 27EE047A 		vmul.f32	s14, s14, s8
 1023              	.LBB269:
 1024              	.LBB264:
 110:../DaisySP/Source/Utility/dsp.h **** }
 1025              		.loc 3 110 16 discriminator 2 view .LVU269
 1026 00d4 27EE240A 		vmul.f32	s0, s14, s9
 1027 00d8 FFF7FEFF 		bl	expf
ARM GAS  /var/folders/2p/02m_5p7958535cp2tpgps0400000gn/T//cczoUaMV.s 			page 29


 1028              	.LVL49:
 110:../DaisySP/Source/Utility/dsp.h **** }
 1029              		.loc 3 110 16 discriminator 2 view .LVU270
 1030              	.LBE264:
 1031              	.LBE269:
  47:DaisySP-LGPL-FX/compressor.cpp **** 
 1032              		.loc 1 47 19 discriminator 2 view .LVU271
 1033 00dc 84ED050A 		vstr.32	s0, [r4, #20]
  49:DaisySP-LGPL-FX/compressor.cpp **** }
 1034              		.loc 1 49 5 is_stmt 1 discriminator 2 view .LVU272
 1035              	.LVL50:
  49:DaisySP-LGPL-FX/compressor.cpp **** }
 1036              		.loc 1 49 5 is_stmt 0 discriminator 2 view .LVU273
 1037              	.LBE233:
 1038              	.LBE232:
  57:DaisySP-LGPL-FX/compressor.cpp ****         out[i] = Apply(in[i]);
 1039              		.loc 1 57 9 is_stmt 1 discriminator 2 view .LVU274
 1040              		.loc 1 57 23 is_stmt 0 discriminator 2 view .LVU275
 1041 00e0 F7EC017A 		vldmia.32	r7!, {s15}
 1042              	.LVL51:
 1043              	.LBB270:
 1044              	.LBI270:
  62:DaisySP-LGPL-FX/compressor.h **** 
 1045              		.loc 2 62 11 is_stmt 1 discriminator 2 view .LVU276
 1046              	.LBB271:
  62:DaisySP-LGPL-FX/compressor.h **** 
 1047              		.loc 2 62 29 discriminator 2 view .LVU277
  62:DaisySP-LGPL-FX/compressor.h **** 
 1048              		.loc 2 62 29 is_stmt 0 discriminator 2 view .LVU278
 1049              	.LBE271:
 1050              	.LBE270:
  54:DaisySP-LGPL-FX/compressor.cpp ****     {
 1051              		.loc 1 54 25 discriminator 2 view .LVU279
 1052 00e4 A845     		cmp	r8, r5
 1053              	.LBB273:
 1054              	.LBB272:
  62:DaisySP-LGPL-FX/compressor.h **** 
 1055              		.loc 2 62 44 discriminator 2 view .LVU280
 1056 00e6 27EE800A 		vmul.f32	s0, s15, s0
 1057              	.LBE272:
 1058              	.LBE273:
 1059              		.loc 1 57 16 discriminator 2 view .LVU281
 1060 00ea A6EC010A 		vstmia.32	r6!, {s0}
  54:DaisySP-LGPL-FX/compressor.cpp ****     {
 1061              		.loc 1 54 5 is_stmt 1 discriminator 2 view .LVU282
  54:DaisySP-LGPL-FX/compressor.cpp ****     {
 1062              		.loc 1 54 25 discriminator 2 view .LVU283
 1063 00ee 97D1     		bne	.L27
 1064              	.LVL52:
 1065              	.L22:
  54:DaisySP-LGPL-FX/compressor.cpp ****     {
 1066              		.loc 1 54 25 is_stmt 0 discriminator 2 view .LVU284
 1067              	.LBE274:
  58:DaisySP-LGPL-FX/compressor.cpp ****     }
  59:DaisySP-LGPL-FX/compressor.cpp **** }
 1068              		.loc 1 59 1 view .LVU285
 1069 00f0 02B0     		add	sp, sp, #8
ARM GAS  /var/folders/2p/02m_5p7958535cp2tpgps0400000gn/T//cczoUaMV.s 			page 30


 1070              		.cfi_def_cfa_offset 40
 1071              		@ sp needed
 1072 00f2 BDEC048B 		vldm	sp!, {d8-d9}
 1073              		.cfi_restore 82
 1074              		.cfi_restore 83
 1075              		.cfi_restore 80
 1076              		.cfi_restore 81
 1077              		.cfi_def_cfa_offset 24
 1078 00f6 BDE8F081 		pop	{r4, r5, r6, r7, r8, pc}
 1079              	.LVL53:
 1080              	.L36:
 1081              		.loc 1 59 1 view .LVU286
 1082 00fa 00BF     		.align	2
 1083              	.L35:
 1084 00fc A8A19D3F 		.word	1067295144
 1085 0100 F5CA83C0 		.word	-1065104651
 1086 0104 FBB3C040 		.word	1086370811
 1087 0108 E09248C0 		.word	-1068985632
 1088 010c 9B209A3E 		.word	1050288283
 1089 0110 00000000 		.word	0
 1090 0114 CDCC4C3D 		.word	1028443341
 1091 0118 8E5D1340 		.word	1075010958
 1092              		.cfi_endproc
 1093              	.LFE2816:
 1095              		.section	.text._ZN7daisysp10Compressor12ProcessBlockEPPfS2_S1_jj,"ax",%progbits
 1096              		.align	1
 1097              		.p2align 2,,3
 1098              		.global	_ZN7daisysp10Compressor12ProcessBlockEPPfS2_S1_jj
 1099              		.syntax unified
 1100              		.thumb
 1101              		.thumb_func
 1103              	_ZN7daisysp10Compressor12ProcessBlockEPPfS2_S1_jj:
 1104              	.LVL54:
 1105              	.LFB2817:
  60:DaisySP-LGPL-FX/compressor.cpp **** 
  61:DaisySP-LGPL-FX/compressor.cpp **** // Multi-channel block processing
  62:DaisySP-LGPL-FX/compressor.cpp **** void Compressor::ProcessBlock(float **in,
  63:DaisySP-LGPL-FX/compressor.cpp ****                               float **out,
  64:DaisySP-LGPL-FX/compressor.cpp ****                               float * key,
  65:DaisySP-LGPL-FX/compressor.cpp ****                               size_t  channels,
  66:DaisySP-LGPL-FX/compressor.cpp ****                               size_t  size)
  67:DaisySP-LGPL-FX/compressor.cpp **** {
 1106              		.loc 1 67 1 is_stmt 1 view -0
 1107              		.cfi_startproc
 1108              		@ args = 8, pretend = 0, frame = 0
 1109              		@ frame_needed = 0, uses_anonymous_args = 0
  68:DaisySP-LGPL-FX/compressor.cpp ****     for(size_t i = 0; i < size; i++)
 1110              		.loc 1 68 5 view .LVU288
 1111              	.LBB275:
 1112              		.loc 1 68 25 view .LVU289
 1113              	.LBE275:
  67:DaisySP-LGPL-FX/compressor.cpp ****     for(size_t i = 0; i < size; i++)
 1114              		.loc 1 67 1 is_stmt 0 view .LVU290
 1115 0000 2DE9F84F 		push	{r3, r4, r5, r6, r7, r8, r9, r10, fp, lr}
 1116              		.cfi_def_cfa_offset 40
 1117              		.cfi_offset 3, -40
 1118              		.cfi_offset 4, -36
ARM GAS  /var/folders/2p/02m_5p7958535cp2tpgps0400000gn/T//cczoUaMV.s 			page 31


 1119              		.cfi_offset 5, -32
 1120              		.cfi_offset 6, -28
 1121              		.cfi_offset 7, -24
 1122              		.cfi_offset 8, -20
 1123              		.cfi_offset 9, -16
 1124              		.cfi_offset 10, -12
 1125              		.cfi_offset 11, -8
 1126              		.cfi_offset 14, -4
  67:DaisySP-LGPL-FX/compressor.cpp ****     for(size_t i = 0; i < size; i++)
 1127              		.loc 1 67 1 view .LVU291
 1128 0004 0B9F     		ldr	r7, [sp, #44]
 1129              	.LBB286:
 1130              		.loc 1 68 25 view .LVU292
 1131 0006 47B3     		cbz	r7, .L37
 1132 0008 0D1F     		subs	r5, r1, #4
 1133 000a 9B46     		mov	fp, r3
 1134 000c 0A9B     		ldr	r3, [sp, #40]
 1135              	.LVL55:
 1136              		.loc 1 68 25 view .LVU293
 1137 000e 8046     		mov	r8, r0
 1138 0010 1646     		mov	r6, r2
 1139              		.loc 1 68 16 view .LVU294
 1140 0012 4FF0000A 		mov	r10, #0
 1141 0016 05EB8309 		add	r9, r5, r3, lsl #2
 1142              	.LVL56:
 1143              	.L41:
 1144              	.LBB276:
  69:DaisySP-LGPL-FX/compressor.cpp ****     {
  70:DaisySP-LGPL-FX/compressor.cpp ****         Process(key[i]);
 1145              		.loc 1 70 9 is_stmt 1 view .LVU295
 1146              		.loc 1 70 16 is_stmt 0 view .LVU296
 1147 001a BBEC010A 		vldmia.32	fp!, {s0}
 1148 001e 4046     		mov	r0, r8
 1149 0020 FFF7FEFF 		bl	_ZN7daisysp10Compressor7ProcessEf
 1150              	.LVL57:
  71:DaisySP-LGPL-FX/compressor.cpp ****         for(size_t c = 0; c < channels; c++)
 1151              		.loc 1 71 9 is_stmt 1 view .LVU297
 1152              	.LBB277:
 1153              		.loc 1 71 29 view .LVU298
 1154 0024 0A9B     		ldr	r3, [sp, #40]
 1155 0026 4FEA8A04 		lsl	r4, r10, #2
 1156 002a 93B1     		cbz	r3, .L39
 1157 002c 2A46     		mov	r2, r5
 1158 002e A6F1040C 		sub	ip, r6, #4
 1159              	.LVL58:
 1160              	.L40:
  72:DaisySP-LGPL-FX/compressor.cpp ****         {
  73:DaisySP-LGPL-FX/compressor.cpp ****             out[c][i] = Apply(in[c][i]);
 1161              		.loc 1 73 13 discriminator 2 view .LVU299
 1162              	.LBB278:
 1163              	.LBI278:
  62:DaisySP-LGPL-FX/compressor.h **** 
 1164              		.loc 2 62 11 discriminator 2 view .LVU300
 1165              	.LBB279:
  62:DaisySP-LGPL-FX/compressor.h **** 
 1166              		.loc 2 62 29 discriminator 2 view .LVU301
  62:DaisySP-LGPL-FX/compressor.h **** 
ARM GAS  /var/folders/2p/02m_5p7958535cp2tpgps0400000gn/T//cczoUaMV.s 			page 32


 1167              		.loc 2 62 29 is_stmt 0 discriminator 2 view .LVU302
 1168              	.LBE279:
 1169              	.LBE278:
 1170              		.loc 1 73 30 discriminator 2 view .LVU303
 1171 0032 52F8041F 		ldr	r1, [r2, #4]!
 1172              	.LBB283:
 1173              	.LBB280:
  62:DaisySP-LGPL-FX/compressor.h **** 
 1174              		.loc 2 62 44 discriminator 2 view .LVU304
 1175 0036 98ED057A 		vldr.32	s14, [r8, #20]
 1176              	.LBE280:
 1177              	.LBE283:
 1178              		.loc 1 73 30 discriminator 2 view .LVU305
 1179 003a 2144     		add	r1, r1, r4
 1180              		.loc 1 73 23 discriminator 2 view .LVU306
 1181 003c 5CF8043F 		ldr	r3, [ip, #4]!
  71:DaisySP-LGPL-FX/compressor.cpp ****         for(size_t c = 0; c < channels; c++)
 1182              		.loc 1 71 29 discriminator 2 view .LVU307
 1183 0040 9145     		cmp	r9, r2
 1184              	.LBB284:
 1185              	.LBB281:
  62:DaisySP-LGPL-FX/compressor.h **** 
 1186              		.loc 2 62 44 discriminator 2 view .LVU308
 1187 0042 D1ED007A 		vldr.32	s15, [r1]
 1188              	.LBE281:
 1189              	.LBE284:
 1190              		.loc 1 73 23 discriminator 2 view .LVU309
 1191 0046 2344     		add	r3, r3, r4
 1192              	.LBB285:
 1193              	.LBB282:
  62:DaisySP-LGPL-FX/compressor.h **** 
 1194              		.loc 2 62 44 discriminator 2 view .LVU310
 1195 0048 67EE877A 		vmul.f32	s15, s15, s14
 1196              	.LBE282:
 1197              	.LBE285:
 1198              		.loc 1 73 23 discriminator 2 view .LVU311
 1199 004c C3ED007A 		vstr.32	s15, [r3]
  71:DaisySP-LGPL-FX/compressor.cpp ****         for(size_t c = 0; c < channels; c++)
 1200              		.loc 1 71 9 is_stmt 1 discriminator 2 view .LVU312
  71:DaisySP-LGPL-FX/compressor.cpp ****         for(size_t c = 0; c < channels; c++)
 1201              		.loc 1 71 29 discriminator 2 view .LVU313
 1202 0050 EFD1     		bne	.L40
 1203              	.L39:
  71:DaisySP-LGPL-FX/compressor.cpp ****         for(size_t c = 0; c < channels; c++)
 1204              		.loc 1 71 29 is_stmt 0 discriminator 2 view .LVU314
 1205              	.LBE277:
 1206              	.LBE276:
  68:DaisySP-LGPL-FX/compressor.cpp ****     {
 1207              		.loc 1 68 5 is_stmt 1 view .LVU315
 1208 0052 0AF1010A 		add	r10, r10, #1
 1209              	.LVL59:
  68:DaisySP-LGPL-FX/compressor.cpp ****     {
 1210              		.loc 1 68 25 view .LVU316
 1211 0056 5745     		cmp	r7, r10
 1212 0058 DFD1     		bne	.L41
 1213              	.LVL60:
 1214              	.L37:
ARM GAS  /var/folders/2p/02m_5p7958535cp2tpgps0400000gn/T//cczoUaMV.s 			page 33


  68:DaisySP-LGPL-FX/compressor.cpp ****     {
 1215              		.loc 1 68 25 is_stmt 0 view .LVU317
 1216              	.LBE286:
  74:DaisySP-LGPL-FX/compressor.cpp ****         }
  75:DaisySP-LGPL-FX/compressor.cpp ****     }
  76:DaisySP-LGPL-FX/compressor.cpp **** }
 1217              		.loc 1 76 1 view .LVU318
 1218 005a BDE8F88F 		pop	{r3, r4, r5, r6, r7, r8, r9, r10, fp, pc}
 1219              		.loc 1 76 1 view .LVU319
 1220              		.cfi_endproc
 1221              	.LFE2817:
 1223 005e 00BF     		.text
 1224              	.Letext0:
 1225              		.file 4 "/Library/DaisyToolchain/0.2.0/arm/arm-none-eabi/include/machine/_default_types.h"
 1226              		.file 5 "/Library/DaisyToolchain/0.2.0/arm/arm-none-eabi/include/sys/_stdint.h"
 1227              		.file 6 "/Library/DaisyToolchain/0.2.0/arm/arm-none-eabi/include/stdint.h"
 1228              		.file 7 "/Library/DaisyToolchain/0.2.0/arm/lib/gcc/arm-none-eabi/10.3.1/include/stddef.h"
 1229              		.file 8 "/Library/DaisyToolchain/0.2.0/arm/arm-none-eabi/include/c++/10.3.1/cmath"
 1230              		.file 9 "/Library/DaisyToolchain/0.2.0/arm/arm-none-eabi/include/c++/10.3.1/bits/std_abs.h"
 1231              		.file 10 "/Library/DaisyToolchain/0.2.0/arm/arm-none-eabi/include/c++/10.3.1/cstdlib"
 1232              		.file 11 "/Library/DaisyToolchain/0.2.0/arm/arm-none-eabi/include/c++/10.3.1/cstdint"
 1233              		.file 12 "/Library/DaisyToolchain/0.2.0/arm/arm-none-eabi/include/c++/10.3.1/type_traits"
 1234              		.file 13 "/Library/DaisyToolchain/0.2.0/arm/arm-none-eabi/include/c++/10.3.1/debug/debug.h"
 1235              		.file 14 "/Library/DaisyToolchain/0.2.0/arm/arm-none-eabi/include/c++/10.3.1/cwchar"
 1236              		.file 15 "/Library/DaisyToolchain/0.2.0/arm/arm-none-eabi/include/c++/10.3.1/bits/stl_pair.h"
 1237              		.file 16 "/Library/DaisyToolchain/0.2.0/arm/arm-none-eabi/include/c++/10.3.1/bits/exception_ptr.h"
 1238              		.file 17 "/Library/DaisyToolchain/0.2.0/arm/arm-none-eabi/include/c++/10.3.1/arm-none-eabi/thumb/v
 1239              		.file 18 "/Library/DaisyToolchain/0.2.0/arm/arm-none-eabi/include/c++/10.3.1/clocale"
 1240              		.file 19 "/Library/DaisyToolchain/0.2.0/arm/arm-none-eabi/include/c++/10.3.1/cstdio"
 1241              		.file 20 "/Library/DaisyToolchain/0.2.0/arm/arm-none-eabi/include/c++/10.3.1/bits/basic_string.h"
 1242              		.file 21 "/Library/DaisyToolchain/0.2.0/arm/arm-none-eabi/include/c++/10.3.1/bits/stl_iterator.h"
 1243              		.file 22 "/Library/DaisyToolchain/0.2.0/arm/arm-none-eabi/include/c++/10.3.1/bits/predefined_ops.h
 1244              		.file 23 "/Library/DaisyToolchain/0.2.0/arm/arm-none-eabi/include/sys/_types.h"
 1245              		.file 24 "/Library/DaisyToolchain/0.2.0/arm/arm-none-eabi/include/sys/reent.h"
 1246              		.file 25 "/Library/DaisyToolchain/0.2.0/arm/arm-none-eabi/include/sys/lock.h"
 1247              		.file 26 "/Library/DaisyToolchain/0.2.0/arm/arm-none-eabi/include/math.h"
 1248              		.file 27 "/Library/DaisyToolchain/0.2.0/arm/arm-none-eabi/include/stdlib.h"
 1249              		.file 28 "/Library/DaisyToolchain/0.2.0/arm/arm-none-eabi/include/c++/10.3.1/math.h"
 1250              		.file 29 "/Library/DaisyToolchain/0.2.0/arm/arm-none-eabi/include/c++/10.3.1/stdlib.h"
 1251              		.file 30 "/Library/DaisyToolchain/0.2.0/arm/lib/gcc/arm-none-eabi/10.3.1/include/stdarg.h"
 1252              		.file 31 "/Library/DaisyToolchain/0.2.0/arm/arm-none-eabi/include/wchar.h"
 1253              		.file 32 "/Library/DaisyToolchain/0.2.0/arm/arm-none-eabi/include/locale.h"
 1254              		.file 33 "/Library/DaisyToolchain/0.2.0/arm/arm-none-eabi/include/stdio.h"
 1255              		.file 34 "<built-in>"
ARM GAS  /var/folders/2p/02m_5p7958535cp2tpgps0400000gn/T//cczoUaMV.s 			page 34

