ARM GAS  /var/folders/2p/02m_5p7958535cp2tpgps0400000gn/T//ccFG1CTd.s 			page 1


   1              		.cpu cortex-m7
   2              		.arch armv7e-m
   3              		.fpu fpv5-d16
   4              		.eabi_attribute 28, 1
   5              		.eabi_attribute 20, 1
   6              		.eabi_attribute 21, 1
   7              		.eabi_attribute 23, 3
   8              		.eabi_attribute 24, 1
   9              		.eabi_attribute 25, 1
  10              		.eabi_attribute 26, 1
  11              		.eabi_attribute 30, 6
  12              		.eabi_attribute 34, 1
  13              		.eabi_attribute 18, 4
  14              		.file	"Grain.cpp"
  15              		.text
  16              	.Ltext0:
  17              		.cfi_sections	.debug_frame
  18              		.section	.text._ZSt4sqrtf,"axG",%progbits,_ZSt4sqrtf,comdat
  19              		.align	1
  20              		.weak	_ZSt4sqrtf
  21              		.syntax unified
  22              		.thumb
  23              		.thumb_func
  25              	_ZSt4sqrtf:
  26              	.LFB199:
  27              		.file 1 "/Library/DaisyToolchain/0.2.0/arm/arm-none-eabi/include/c++/10.3.1/cmath"
   1:/Library/DaisyToolchain/0.2.0/arm/arm-none-eabi/include/c++/10.3.1/cmath **** // -*- C++ -*- C forwarding header.
   2:/Library/DaisyToolchain/0.2.0/arm/arm-none-eabi/include/c++/10.3.1/cmath **** 
   3:/Library/DaisyToolchain/0.2.0/arm/arm-none-eabi/include/c++/10.3.1/cmath **** // Copyright (C) 1997-2020 Free Software Foundation, Inc.
   4:/Library/DaisyToolchain/0.2.0/arm/arm-none-eabi/include/c++/10.3.1/cmath **** //
   5:/Library/DaisyToolchain/0.2.0/arm/arm-none-eabi/include/c++/10.3.1/cmath **** // This file is part of the GNU ISO C++ Library.  This library is free
   6:/Library/DaisyToolchain/0.2.0/arm/arm-none-eabi/include/c++/10.3.1/cmath **** // software; you can redistribute it and/or modify it under the
   7:/Library/DaisyToolchain/0.2.0/arm/arm-none-eabi/include/c++/10.3.1/cmath **** // terms of the GNU General Public License as published by the
   8:/Library/DaisyToolchain/0.2.0/arm/arm-none-eabi/include/c++/10.3.1/cmath **** // Free Software Foundation; either version 3, or (at your option)
   9:/Library/DaisyToolchain/0.2.0/arm/arm-none-eabi/include/c++/10.3.1/cmath **** // any later version.
  10:/Library/DaisyToolchain/0.2.0/arm/arm-none-eabi/include/c++/10.3.1/cmath **** 
  11:/Library/DaisyToolchain/0.2.0/arm/arm-none-eabi/include/c++/10.3.1/cmath **** // This library is distributed in the hope that it will be useful,
  12:/Library/DaisyToolchain/0.2.0/arm/arm-none-eabi/include/c++/10.3.1/cmath **** // but WITHOUT ANY WARRANTY; without even the implied warranty of
  13:/Library/DaisyToolchain/0.2.0/arm/arm-none-eabi/include/c++/10.3.1/cmath **** // MERCHANTABILITY or FITNESS FOR A PARTICULAR PURPOSE.  See the
  14:/Library/DaisyToolchain/0.2.0/arm/arm-none-eabi/include/c++/10.3.1/cmath **** // GNU General Public License for more details.
  15:/Library/DaisyToolchain/0.2.0/arm/arm-none-eabi/include/c++/10.3.1/cmath **** 
  16:/Library/DaisyToolchain/0.2.0/arm/arm-none-eabi/include/c++/10.3.1/cmath **** // Under Section 7 of GPL version 3, you are granted additional
  17:/Library/DaisyToolchain/0.2.0/arm/arm-none-eabi/include/c++/10.3.1/cmath **** // permissions described in the GCC Runtime Library Exception, version
  18:/Library/DaisyToolchain/0.2.0/arm/arm-none-eabi/include/c++/10.3.1/cmath **** // 3.1, as published by the Free Software Foundation.
  19:/Library/DaisyToolchain/0.2.0/arm/arm-none-eabi/include/c++/10.3.1/cmath **** 
  20:/Library/DaisyToolchain/0.2.0/arm/arm-none-eabi/include/c++/10.3.1/cmath **** // You should have received a copy of the GNU General Public License and
  21:/Library/DaisyToolchain/0.2.0/arm/arm-none-eabi/include/c++/10.3.1/cmath **** // a copy of the GCC Runtime Library Exception along with this program;
  22:/Library/DaisyToolchain/0.2.0/arm/arm-none-eabi/include/c++/10.3.1/cmath **** // see the files COPYING3 and COPYING.RUNTIME respectively.  If not, see
  23:/Library/DaisyToolchain/0.2.0/arm/arm-none-eabi/include/c++/10.3.1/cmath **** // <http://www.gnu.org/licenses/>.
  24:/Library/DaisyToolchain/0.2.0/arm/arm-none-eabi/include/c++/10.3.1/cmath **** 
  25:/Library/DaisyToolchain/0.2.0/arm/arm-none-eabi/include/c++/10.3.1/cmath **** /** @file include/cmath
  26:/Library/DaisyToolchain/0.2.0/arm/arm-none-eabi/include/c++/10.3.1/cmath ****  *  This is a Standard C++ Library file.  You should @c \#include this file
  27:/Library/DaisyToolchain/0.2.0/arm/arm-none-eabi/include/c++/10.3.1/cmath ****  *  in your programs, rather than any of the @a *.h implementation files.
  28:/Library/DaisyToolchain/0.2.0/arm/arm-none-eabi/include/c++/10.3.1/cmath ****  *
  29:/Library/DaisyToolchain/0.2.0/arm/arm-none-eabi/include/c++/10.3.1/cmath ****  *  This is the C++ version of the Standard C Library header @c math.h,
  30:/Library/DaisyToolchain/0.2.0/arm/arm-none-eabi/include/c++/10.3.1/cmath ****  *  and its contents are (mostly) the same as that header, but are all
  31:/Library/DaisyToolchain/0.2.0/arm/arm-none-eabi/include/c++/10.3.1/cmath ****  *  contained in the namespace @c std (except for names which are defined
ARM GAS  /var/folders/2p/02m_5p7958535cp2tpgps0400000gn/T//ccFG1CTd.s 			page 2


  32:/Library/DaisyToolchain/0.2.0/arm/arm-none-eabi/include/c++/10.3.1/cmath ****  *  as macros in C).
  33:/Library/DaisyToolchain/0.2.0/arm/arm-none-eabi/include/c++/10.3.1/cmath ****  */
  34:/Library/DaisyToolchain/0.2.0/arm/arm-none-eabi/include/c++/10.3.1/cmath **** 
  35:/Library/DaisyToolchain/0.2.0/arm/arm-none-eabi/include/c++/10.3.1/cmath **** //
  36:/Library/DaisyToolchain/0.2.0/arm/arm-none-eabi/include/c++/10.3.1/cmath **** // ISO C++ 14882: 26.5  C library
  37:/Library/DaisyToolchain/0.2.0/arm/arm-none-eabi/include/c++/10.3.1/cmath **** //
  38:/Library/DaisyToolchain/0.2.0/arm/arm-none-eabi/include/c++/10.3.1/cmath **** 
  39:/Library/DaisyToolchain/0.2.0/arm/arm-none-eabi/include/c++/10.3.1/cmath **** #pragma GCC system_header
  40:/Library/DaisyToolchain/0.2.0/arm/arm-none-eabi/include/c++/10.3.1/cmath **** 
  41:/Library/DaisyToolchain/0.2.0/arm/arm-none-eabi/include/c++/10.3.1/cmath **** #include <bits/c++config.h>
  42:/Library/DaisyToolchain/0.2.0/arm/arm-none-eabi/include/c++/10.3.1/cmath **** #include <bits/cpp_type_traits.h>
  43:/Library/DaisyToolchain/0.2.0/arm/arm-none-eabi/include/c++/10.3.1/cmath **** #include <ext/type_traits.h>
  44:/Library/DaisyToolchain/0.2.0/arm/arm-none-eabi/include/c++/10.3.1/cmath **** #define _GLIBCXX_INCLUDE_NEXT_C_HEADERS
  45:/Library/DaisyToolchain/0.2.0/arm/arm-none-eabi/include/c++/10.3.1/cmath **** #include_next <math.h>
  46:/Library/DaisyToolchain/0.2.0/arm/arm-none-eabi/include/c++/10.3.1/cmath **** #undef _GLIBCXX_INCLUDE_NEXT_C_HEADERS
  47:/Library/DaisyToolchain/0.2.0/arm/arm-none-eabi/include/c++/10.3.1/cmath **** #include <bits/std_abs.h>
  48:/Library/DaisyToolchain/0.2.0/arm/arm-none-eabi/include/c++/10.3.1/cmath **** 
  49:/Library/DaisyToolchain/0.2.0/arm/arm-none-eabi/include/c++/10.3.1/cmath **** #ifndef _GLIBCXX_CMATH
  50:/Library/DaisyToolchain/0.2.0/arm/arm-none-eabi/include/c++/10.3.1/cmath **** #define _GLIBCXX_CMATH 1
  51:/Library/DaisyToolchain/0.2.0/arm/arm-none-eabi/include/c++/10.3.1/cmath **** 
  52:/Library/DaisyToolchain/0.2.0/arm/arm-none-eabi/include/c++/10.3.1/cmath **** // Get rid of those macros defined in <math.h> in lieu of real functions.
  53:/Library/DaisyToolchain/0.2.0/arm/arm-none-eabi/include/c++/10.3.1/cmath **** #undef div
  54:/Library/DaisyToolchain/0.2.0/arm/arm-none-eabi/include/c++/10.3.1/cmath **** #undef acos
  55:/Library/DaisyToolchain/0.2.0/arm/arm-none-eabi/include/c++/10.3.1/cmath **** #undef asin
  56:/Library/DaisyToolchain/0.2.0/arm/arm-none-eabi/include/c++/10.3.1/cmath **** #undef atan
  57:/Library/DaisyToolchain/0.2.0/arm/arm-none-eabi/include/c++/10.3.1/cmath **** #undef atan2
  58:/Library/DaisyToolchain/0.2.0/arm/arm-none-eabi/include/c++/10.3.1/cmath **** #undef ceil
  59:/Library/DaisyToolchain/0.2.0/arm/arm-none-eabi/include/c++/10.3.1/cmath **** #undef cos
  60:/Library/DaisyToolchain/0.2.0/arm/arm-none-eabi/include/c++/10.3.1/cmath **** #undef cosh
  61:/Library/DaisyToolchain/0.2.0/arm/arm-none-eabi/include/c++/10.3.1/cmath **** #undef exp
  62:/Library/DaisyToolchain/0.2.0/arm/arm-none-eabi/include/c++/10.3.1/cmath **** #undef fabs
  63:/Library/DaisyToolchain/0.2.0/arm/arm-none-eabi/include/c++/10.3.1/cmath **** #undef floor
  64:/Library/DaisyToolchain/0.2.0/arm/arm-none-eabi/include/c++/10.3.1/cmath **** #undef fmod
  65:/Library/DaisyToolchain/0.2.0/arm/arm-none-eabi/include/c++/10.3.1/cmath **** #undef frexp
  66:/Library/DaisyToolchain/0.2.0/arm/arm-none-eabi/include/c++/10.3.1/cmath **** #undef ldexp
  67:/Library/DaisyToolchain/0.2.0/arm/arm-none-eabi/include/c++/10.3.1/cmath **** #undef log
  68:/Library/DaisyToolchain/0.2.0/arm/arm-none-eabi/include/c++/10.3.1/cmath **** #undef log10
  69:/Library/DaisyToolchain/0.2.0/arm/arm-none-eabi/include/c++/10.3.1/cmath **** #undef modf
  70:/Library/DaisyToolchain/0.2.0/arm/arm-none-eabi/include/c++/10.3.1/cmath **** #undef pow
  71:/Library/DaisyToolchain/0.2.0/arm/arm-none-eabi/include/c++/10.3.1/cmath **** #undef sin
  72:/Library/DaisyToolchain/0.2.0/arm/arm-none-eabi/include/c++/10.3.1/cmath **** #undef sinh
  73:/Library/DaisyToolchain/0.2.0/arm/arm-none-eabi/include/c++/10.3.1/cmath **** #undef sqrt
  74:/Library/DaisyToolchain/0.2.0/arm/arm-none-eabi/include/c++/10.3.1/cmath **** #undef tan
  75:/Library/DaisyToolchain/0.2.0/arm/arm-none-eabi/include/c++/10.3.1/cmath **** #undef tanh
  76:/Library/DaisyToolchain/0.2.0/arm/arm-none-eabi/include/c++/10.3.1/cmath **** 
  77:/Library/DaisyToolchain/0.2.0/arm/arm-none-eabi/include/c++/10.3.1/cmath **** extern "C++"
  78:/Library/DaisyToolchain/0.2.0/arm/arm-none-eabi/include/c++/10.3.1/cmath **** {
  79:/Library/DaisyToolchain/0.2.0/arm/arm-none-eabi/include/c++/10.3.1/cmath **** namespace std _GLIBCXX_VISIBILITY(default)
  80:/Library/DaisyToolchain/0.2.0/arm/arm-none-eabi/include/c++/10.3.1/cmath **** {
  81:/Library/DaisyToolchain/0.2.0/arm/arm-none-eabi/include/c++/10.3.1/cmath **** _GLIBCXX_BEGIN_NAMESPACE_VERSION
  82:/Library/DaisyToolchain/0.2.0/arm/arm-none-eabi/include/c++/10.3.1/cmath **** 
  83:/Library/DaisyToolchain/0.2.0/arm/arm-none-eabi/include/c++/10.3.1/cmath ****   using ::acos;
  84:/Library/DaisyToolchain/0.2.0/arm/arm-none-eabi/include/c++/10.3.1/cmath **** 
  85:/Library/DaisyToolchain/0.2.0/arm/arm-none-eabi/include/c++/10.3.1/cmath **** #ifndef __CORRECT_ISO_CPP_MATH_H_PROTO
  86:/Library/DaisyToolchain/0.2.0/arm/arm-none-eabi/include/c++/10.3.1/cmath ****   inline _GLIBCXX_CONSTEXPR float
  87:/Library/DaisyToolchain/0.2.0/arm/arm-none-eabi/include/c++/10.3.1/cmath ****   acos(float __x)
  88:/Library/DaisyToolchain/0.2.0/arm/arm-none-eabi/include/c++/10.3.1/cmath ****   { return __builtin_acosf(__x); }
ARM GAS  /var/folders/2p/02m_5p7958535cp2tpgps0400000gn/T//ccFG1CTd.s 			page 3


  89:/Library/DaisyToolchain/0.2.0/arm/arm-none-eabi/include/c++/10.3.1/cmath **** 
  90:/Library/DaisyToolchain/0.2.0/arm/arm-none-eabi/include/c++/10.3.1/cmath ****   inline _GLIBCXX_CONSTEXPR long double
  91:/Library/DaisyToolchain/0.2.0/arm/arm-none-eabi/include/c++/10.3.1/cmath ****   acos(long double __x)
  92:/Library/DaisyToolchain/0.2.0/arm/arm-none-eabi/include/c++/10.3.1/cmath ****   { return __builtin_acosl(__x); }
  93:/Library/DaisyToolchain/0.2.0/arm/arm-none-eabi/include/c++/10.3.1/cmath **** #endif
  94:/Library/DaisyToolchain/0.2.0/arm/arm-none-eabi/include/c++/10.3.1/cmath **** 
  95:/Library/DaisyToolchain/0.2.0/arm/arm-none-eabi/include/c++/10.3.1/cmath ****   template<typename _Tp>
  96:/Library/DaisyToolchain/0.2.0/arm/arm-none-eabi/include/c++/10.3.1/cmath ****     inline _GLIBCXX_CONSTEXPR
  97:/Library/DaisyToolchain/0.2.0/arm/arm-none-eabi/include/c++/10.3.1/cmath ****     typename __gnu_cxx::__enable_if<__is_integer<_Tp>::__value, 
  98:/Library/DaisyToolchain/0.2.0/arm/arm-none-eabi/include/c++/10.3.1/cmath ****                                     double>::__type
  99:/Library/DaisyToolchain/0.2.0/arm/arm-none-eabi/include/c++/10.3.1/cmath ****     acos(_Tp __x)
 100:/Library/DaisyToolchain/0.2.0/arm/arm-none-eabi/include/c++/10.3.1/cmath ****     { return __builtin_acos(__x); }
 101:/Library/DaisyToolchain/0.2.0/arm/arm-none-eabi/include/c++/10.3.1/cmath **** 
 102:/Library/DaisyToolchain/0.2.0/arm/arm-none-eabi/include/c++/10.3.1/cmath ****   using ::asin;
 103:/Library/DaisyToolchain/0.2.0/arm/arm-none-eabi/include/c++/10.3.1/cmath **** 
 104:/Library/DaisyToolchain/0.2.0/arm/arm-none-eabi/include/c++/10.3.1/cmath **** #ifndef __CORRECT_ISO_CPP_MATH_H_PROTO
 105:/Library/DaisyToolchain/0.2.0/arm/arm-none-eabi/include/c++/10.3.1/cmath ****   inline _GLIBCXX_CONSTEXPR float
 106:/Library/DaisyToolchain/0.2.0/arm/arm-none-eabi/include/c++/10.3.1/cmath ****   asin(float __x)
 107:/Library/DaisyToolchain/0.2.0/arm/arm-none-eabi/include/c++/10.3.1/cmath ****   { return __builtin_asinf(__x); }
 108:/Library/DaisyToolchain/0.2.0/arm/arm-none-eabi/include/c++/10.3.1/cmath **** 
 109:/Library/DaisyToolchain/0.2.0/arm/arm-none-eabi/include/c++/10.3.1/cmath ****   inline _GLIBCXX_CONSTEXPR long double
 110:/Library/DaisyToolchain/0.2.0/arm/arm-none-eabi/include/c++/10.3.1/cmath ****   asin(long double __x)
 111:/Library/DaisyToolchain/0.2.0/arm/arm-none-eabi/include/c++/10.3.1/cmath ****   { return __builtin_asinl(__x); }
 112:/Library/DaisyToolchain/0.2.0/arm/arm-none-eabi/include/c++/10.3.1/cmath **** #endif
 113:/Library/DaisyToolchain/0.2.0/arm/arm-none-eabi/include/c++/10.3.1/cmath **** 
 114:/Library/DaisyToolchain/0.2.0/arm/arm-none-eabi/include/c++/10.3.1/cmath ****   template<typename _Tp>
 115:/Library/DaisyToolchain/0.2.0/arm/arm-none-eabi/include/c++/10.3.1/cmath ****     inline _GLIBCXX_CONSTEXPR
 116:/Library/DaisyToolchain/0.2.0/arm/arm-none-eabi/include/c++/10.3.1/cmath ****     typename __gnu_cxx::__enable_if<__is_integer<_Tp>::__value,
 117:/Library/DaisyToolchain/0.2.0/arm/arm-none-eabi/include/c++/10.3.1/cmath ****                                     double>::__type
 118:/Library/DaisyToolchain/0.2.0/arm/arm-none-eabi/include/c++/10.3.1/cmath ****     asin(_Tp __x)
 119:/Library/DaisyToolchain/0.2.0/arm/arm-none-eabi/include/c++/10.3.1/cmath ****     { return __builtin_asin(__x); }
 120:/Library/DaisyToolchain/0.2.0/arm/arm-none-eabi/include/c++/10.3.1/cmath **** 
 121:/Library/DaisyToolchain/0.2.0/arm/arm-none-eabi/include/c++/10.3.1/cmath ****   using ::atan;
 122:/Library/DaisyToolchain/0.2.0/arm/arm-none-eabi/include/c++/10.3.1/cmath **** 
 123:/Library/DaisyToolchain/0.2.0/arm/arm-none-eabi/include/c++/10.3.1/cmath **** #ifndef __CORRECT_ISO_CPP_MATH_H_PROTO
 124:/Library/DaisyToolchain/0.2.0/arm/arm-none-eabi/include/c++/10.3.1/cmath ****   inline _GLIBCXX_CONSTEXPR float
 125:/Library/DaisyToolchain/0.2.0/arm/arm-none-eabi/include/c++/10.3.1/cmath ****   atan(float __x)
 126:/Library/DaisyToolchain/0.2.0/arm/arm-none-eabi/include/c++/10.3.1/cmath ****   { return __builtin_atanf(__x); }
 127:/Library/DaisyToolchain/0.2.0/arm/arm-none-eabi/include/c++/10.3.1/cmath **** 
 128:/Library/DaisyToolchain/0.2.0/arm/arm-none-eabi/include/c++/10.3.1/cmath ****   inline _GLIBCXX_CONSTEXPR long double
 129:/Library/DaisyToolchain/0.2.0/arm/arm-none-eabi/include/c++/10.3.1/cmath ****   atan(long double __x)
 130:/Library/DaisyToolchain/0.2.0/arm/arm-none-eabi/include/c++/10.3.1/cmath ****   { return __builtin_atanl(__x); }
 131:/Library/DaisyToolchain/0.2.0/arm/arm-none-eabi/include/c++/10.3.1/cmath **** #endif
 132:/Library/DaisyToolchain/0.2.0/arm/arm-none-eabi/include/c++/10.3.1/cmath **** 
 133:/Library/DaisyToolchain/0.2.0/arm/arm-none-eabi/include/c++/10.3.1/cmath ****   template<typename _Tp>
 134:/Library/DaisyToolchain/0.2.0/arm/arm-none-eabi/include/c++/10.3.1/cmath ****     inline _GLIBCXX_CONSTEXPR
 135:/Library/DaisyToolchain/0.2.0/arm/arm-none-eabi/include/c++/10.3.1/cmath ****     typename __gnu_cxx::__enable_if<__is_integer<_Tp>::__value,
 136:/Library/DaisyToolchain/0.2.0/arm/arm-none-eabi/include/c++/10.3.1/cmath ****                                     double>::__type
 137:/Library/DaisyToolchain/0.2.0/arm/arm-none-eabi/include/c++/10.3.1/cmath ****     atan(_Tp __x)
 138:/Library/DaisyToolchain/0.2.0/arm/arm-none-eabi/include/c++/10.3.1/cmath ****     { return __builtin_atan(__x); }
 139:/Library/DaisyToolchain/0.2.0/arm/arm-none-eabi/include/c++/10.3.1/cmath **** 
 140:/Library/DaisyToolchain/0.2.0/arm/arm-none-eabi/include/c++/10.3.1/cmath ****   using ::atan2;
 141:/Library/DaisyToolchain/0.2.0/arm/arm-none-eabi/include/c++/10.3.1/cmath **** 
 142:/Library/DaisyToolchain/0.2.0/arm/arm-none-eabi/include/c++/10.3.1/cmath **** #ifndef __CORRECT_ISO_CPP_MATH_H_PROTO
 143:/Library/DaisyToolchain/0.2.0/arm/arm-none-eabi/include/c++/10.3.1/cmath ****   inline _GLIBCXX_CONSTEXPR float
 144:/Library/DaisyToolchain/0.2.0/arm/arm-none-eabi/include/c++/10.3.1/cmath ****   atan2(float __y, float __x)
 145:/Library/DaisyToolchain/0.2.0/arm/arm-none-eabi/include/c++/10.3.1/cmath ****   { return __builtin_atan2f(__y, __x); }
ARM GAS  /var/folders/2p/02m_5p7958535cp2tpgps0400000gn/T//ccFG1CTd.s 			page 4


 146:/Library/DaisyToolchain/0.2.0/arm/arm-none-eabi/include/c++/10.3.1/cmath **** 
 147:/Library/DaisyToolchain/0.2.0/arm/arm-none-eabi/include/c++/10.3.1/cmath ****   inline _GLIBCXX_CONSTEXPR long double
 148:/Library/DaisyToolchain/0.2.0/arm/arm-none-eabi/include/c++/10.3.1/cmath ****   atan2(long double __y, long double __x)
 149:/Library/DaisyToolchain/0.2.0/arm/arm-none-eabi/include/c++/10.3.1/cmath ****   { return __builtin_atan2l(__y, __x); }
 150:/Library/DaisyToolchain/0.2.0/arm/arm-none-eabi/include/c++/10.3.1/cmath **** #endif
 151:/Library/DaisyToolchain/0.2.0/arm/arm-none-eabi/include/c++/10.3.1/cmath **** 
 152:/Library/DaisyToolchain/0.2.0/arm/arm-none-eabi/include/c++/10.3.1/cmath ****   template<typename _Tp, typename _Up>
 153:/Library/DaisyToolchain/0.2.0/arm/arm-none-eabi/include/c++/10.3.1/cmath ****     inline _GLIBCXX_CONSTEXPR
 154:/Library/DaisyToolchain/0.2.0/arm/arm-none-eabi/include/c++/10.3.1/cmath ****     typename __gnu_cxx::__promote_2<_Tp, _Up>::__type
 155:/Library/DaisyToolchain/0.2.0/arm/arm-none-eabi/include/c++/10.3.1/cmath ****     atan2(_Tp __y, _Up __x)
 156:/Library/DaisyToolchain/0.2.0/arm/arm-none-eabi/include/c++/10.3.1/cmath ****     {
 157:/Library/DaisyToolchain/0.2.0/arm/arm-none-eabi/include/c++/10.3.1/cmath ****       typedef typename __gnu_cxx::__promote_2<_Tp, _Up>::__type __type;
 158:/Library/DaisyToolchain/0.2.0/arm/arm-none-eabi/include/c++/10.3.1/cmath ****       return atan2(__type(__y), __type(__x));
 159:/Library/DaisyToolchain/0.2.0/arm/arm-none-eabi/include/c++/10.3.1/cmath ****     }
 160:/Library/DaisyToolchain/0.2.0/arm/arm-none-eabi/include/c++/10.3.1/cmath **** 
 161:/Library/DaisyToolchain/0.2.0/arm/arm-none-eabi/include/c++/10.3.1/cmath ****   using ::ceil;
 162:/Library/DaisyToolchain/0.2.0/arm/arm-none-eabi/include/c++/10.3.1/cmath **** 
 163:/Library/DaisyToolchain/0.2.0/arm/arm-none-eabi/include/c++/10.3.1/cmath **** #ifndef __CORRECT_ISO_CPP_MATH_H_PROTO
 164:/Library/DaisyToolchain/0.2.0/arm/arm-none-eabi/include/c++/10.3.1/cmath ****   inline _GLIBCXX_CONSTEXPR float
 165:/Library/DaisyToolchain/0.2.0/arm/arm-none-eabi/include/c++/10.3.1/cmath ****   ceil(float __x)
 166:/Library/DaisyToolchain/0.2.0/arm/arm-none-eabi/include/c++/10.3.1/cmath ****   { return __builtin_ceilf(__x); }
 167:/Library/DaisyToolchain/0.2.0/arm/arm-none-eabi/include/c++/10.3.1/cmath **** 
 168:/Library/DaisyToolchain/0.2.0/arm/arm-none-eabi/include/c++/10.3.1/cmath ****   inline _GLIBCXX_CONSTEXPR long double
 169:/Library/DaisyToolchain/0.2.0/arm/arm-none-eabi/include/c++/10.3.1/cmath ****   ceil(long double __x)
 170:/Library/DaisyToolchain/0.2.0/arm/arm-none-eabi/include/c++/10.3.1/cmath ****   { return __builtin_ceill(__x); }
 171:/Library/DaisyToolchain/0.2.0/arm/arm-none-eabi/include/c++/10.3.1/cmath **** #endif
 172:/Library/DaisyToolchain/0.2.0/arm/arm-none-eabi/include/c++/10.3.1/cmath **** 
 173:/Library/DaisyToolchain/0.2.0/arm/arm-none-eabi/include/c++/10.3.1/cmath ****   template<typename _Tp>
 174:/Library/DaisyToolchain/0.2.0/arm/arm-none-eabi/include/c++/10.3.1/cmath ****     inline _GLIBCXX_CONSTEXPR
 175:/Library/DaisyToolchain/0.2.0/arm/arm-none-eabi/include/c++/10.3.1/cmath ****     typename __gnu_cxx::__enable_if<__is_integer<_Tp>::__value, 
 176:/Library/DaisyToolchain/0.2.0/arm/arm-none-eabi/include/c++/10.3.1/cmath ****                                     double>::__type
 177:/Library/DaisyToolchain/0.2.0/arm/arm-none-eabi/include/c++/10.3.1/cmath ****     ceil(_Tp __x)
 178:/Library/DaisyToolchain/0.2.0/arm/arm-none-eabi/include/c++/10.3.1/cmath ****     { return __builtin_ceil(__x); }
 179:/Library/DaisyToolchain/0.2.0/arm/arm-none-eabi/include/c++/10.3.1/cmath **** 
 180:/Library/DaisyToolchain/0.2.0/arm/arm-none-eabi/include/c++/10.3.1/cmath ****   using ::cos;
 181:/Library/DaisyToolchain/0.2.0/arm/arm-none-eabi/include/c++/10.3.1/cmath **** 
 182:/Library/DaisyToolchain/0.2.0/arm/arm-none-eabi/include/c++/10.3.1/cmath **** #ifndef __CORRECT_ISO_CPP_MATH_H_PROTO
 183:/Library/DaisyToolchain/0.2.0/arm/arm-none-eabi/include/c++/10.3.1/cmath ****   inline _GLIBCXX_CONSTEXPR float
 184:/Library/DaisyToolchain/0.2.0/arm/arm-none-eabi/include/c++/10.3.1/cmath ****   cos(float __x)
 185:/Library/DaisyToolchain/0.2.0/arm/arm-none-eabi/include/c++/10.3.1/cmath ****   { return __builtin_cosf(__x); }
 186:/Library/DaisyToolchain/0.2.0/arm/arm-none-eabi/include/c++/10.3.1/cmath **** 
 187:/Library/DaisyToolchain/0.2.0/arm/arm-none-eabi/include/c++/10.3.1/cmath ****   inline _GLIBCXX_CONSTEXPR long double
 188:/Library/DaisyToolchain/0.2.0/arm/arm-none-eabi/include/c++/10.3.1/cmath ****   cos(long double __x)
 189:/Library/DaisyToolchain/0.2.0/arm/arm-none-eabi/include/c++/10.3.1/cmath ****   { return __builtin_cosl(__x); }
 190:/Library/DaisyToolchain/0.2.0/arm/arm-none-eabi/include/c++/10.3.1/cmath **** #endif
 191:/Library/DaisyToolchain/0.2.0/arm/arm-none-eabi/include/c++/10.3.1/cmath **** 
 192:/Library/DaisyToolchain/0.2.0/arm/arm-none-eabi/include/c++/10.3.1/cmath ****   template<typename _Tp>
 193:/Library/DaisyToolchain/0.2.0/arm/arm-none-eabi/include/c++/10.3.1/cmath ****     inline _GLIBCXX_CONSTEXPR
 194:/Library/DaisyToolchain/0.2.0/arm/arm-none-eabi/include/c++/10.3.1/cmath ****     typename __gnu_cxx::__enable_if<__is_integer<_Tp>::__value,
 195:/Library/DaisyToolchain/0.2.0/arm/arm-none-eabi/include/c++/10.3.1/cmath ****                                     double>::__type
 196:/Library/DaisyToolchain/0.2.0/arm/arm-none-eabi/include/c++/10.3.1/cmath ****     cos(_Tp __x)
 197:/Library/DaisyToolchain/0.2.0/arm/arm-none-eabi/include/c++/10.3.1/cmath ****     { return __builtin_cos(__x); }
 198:/Library/DaisyToolchain/0.2.0/arm/arm-none-eabi/include/c++/10.3.1/cmath **** 
 199:/Library/DaisyToolchain/0.2.0/arm/arm-none-eabi/include/c++/10.3.1/cmath ****   using ::cosh;
 200:/Library/DaisyToolchain/0.2.0/arm/arm-none-eabi/include/c++/10.3.1/cmath **** 
 201:/Library/DaisyToolchain/0.2.0/arm/arm-none-eabi/include/c++/10.3.1/cmath **** #ifndef __CORRECT_ISO_CPP_MATH_H_PROTO
 202:/Library/DaisyToolchain/0.2.0/arm/arm-none-eabi/include/c++/10.3.1/cmath ****   inline _GLIBCXX_CONSTEXPR float
ARM GAS  /var/folders/2p/02m_5p7958535cp2tpgps0400000gn/T//ccFG1CTd.s 			page 5


 203:/Library/DaisyToolchain/0.2.0/arm/arm-none-eabi/include/c++/10.3.1/cmath ****   cosh(float __x)
 204:/Library/DaisyToolchain/0.2.0/arm/arm-none-eabi/include/c++/10.3.1/cmath ****   { return __builtin_coshf(__x); }
 205:/Library/DaisyToolchain/0.2.0/arm/arm-none-eabi/include/c++/10.3.1/cmath **** 
 206:/Library/DaisyToolchain/0.2.0/arm/arm-none-eabi/include/c++/10.3.1/cmath ****   inline _GLIBCXX_CONSTEXPR long double
 207:/Library/DaisyToolchain/0.2.0/arm/arm-none-eabi/include/c++/10.3.1/cmath ****   cosh(long double __x)
 208:/Library/DaisyToolchain/0.2.0/arm/arm-none-eabi/include/c++/10.3.1/cmath ****   { return __builtin_coshl(__x); }
 209:/Library/DaisyToolchain/0.2.0/arm/arm-none-eabi/include/c++/10.3.1/cmath **** #endif
 210:/Library/DaisyToolchain/0.2.0/arm/arm-none-eabi/include/c++/10.3.1/cmath **** 
 211:/Library/DaisyToolchain/0.2.0/arm/arm-none-eabi/include/c++/10.3.1/cmath ****   template<typename _Tp>
 212:/Library/DaisyToolchain/0.2.0/arm/arm-none-eabi/include/c++/10.3.1/cmath ****     inline _GLIBCXX_CONSTEXPR
 213:/Library/DaisyToolchain/0.2.0/arm/arm-none-eabi/include/c++/10.3.1/cmath ****     typename __gnu_cxx::__enable_if<__is_integer<_Tp>::__value,
 214:/Library/DaisyToolchain/0.2.0/arm/arm-none-eabi/include/c++/10.3.1/cmath ****                                     double>::__type
 215:/Library/DaisyToolchain/0.2.0/arm/arm-none-eabi/include/c++/10.3.1/cmath ****     cosh(_Tp __x)
 216:/Library/DaisyToolchain/0.2.0/arm/arm-none-eabi/include/c++/10.3.1/cmath ****     { return __builtin_cosh(__x); }
 217:/Library/DaisyToolchain/0.2.0/arm/arm-none-eabi/include/c++/10.3.1/cmath **** 
 218:/Library/DaisyToolchain/0.2.0/arm/arm-none-eabi/include/c++/10.3.1/cmath ****   using ::exp;
 219:/Library/DaisyToolchain/0.2.0/arm/arm-none-eabi/include/c++/10.3.1/cmath **** 
 220:/Library/DaisyToolchain/0.2.0/arm/arm-none-eabi/include/c++/10.3.1/cmath **** #ifndef __CORRECT_ISO_CPP_MATH_H_PROTO
 221:/Library/DaisyToolchain/0.2.0/arm/arm-none-eabi/include/c++/10.3.1/cmath ****   inline _GLIBCXX_CONSTEXPR float
 222:/Library/DaisyToolchain/0.2.0/arm/arm-none-eabi/include/c++/10.3.1/cmath ****   exp(float __x)
 223:/Library/DaisyToolchain/0.2.0/arm/arm-none-eabi/include/c++/10.3.1/cmath ****   { return __builtin_expf(__x); }
 224:/Library/DaisyToolchain/0.2.0/arm/arm-none-eabi/include/c++/10.3.1/cmath **** 
 225:/Library/DaisyToolchain/0.2.0/arm/arm-none-eabi/include/c++/10.3.1/cmath ****   inline _GLIBCXX_CONSTEXPR long double
 226:/Library/DaisyToolchain/0.2.0/arm/arm-none-eabi/include/c++/10.3.1/cmath ****   exp(long double __x)
 227:/Library/DaisyToolchain/0.2.0/arm/arm-none-eabi/include/c++/10.3.1/cmath ****   { return __builtin_expl(__x); }
 228:/Library/DaisyToolchain/0.2.0/arm/arm-none-eabi/include/c++/10.3.1/cmath **** #endif
 229:/Library/DaisyToolchain/0.2.0/arm/arm-none-eabi/include/c++/10.3.1/cmath **** 
 230:/Library/DaisyToolchain/0.2.0/arm/arm-none-eabi/include/c++/10.3.1/cmath ****   template<typename _Tp>
 231:/Library/DaisyToolchain/0.2.0/arm/arm-none-eabi/include/c++/10.3.1/cmath ****     inline _GLIBCXX_CONSTEXPR
 232:/Library/DaisyToolchain/0.2.0/arm/arm-none-eabi/include/c++/10.3.1/cmath ****     typename __gnu_cxx::__enable_if<__is_integer<_Tp>::__value,
 233:/Library/DaisyToolchain/0.2.0/arm/arm-none-eabi/include/c++/10.3.1/cmath ****                                     double>::__type
 234:/Library/DaisyToolchain/0.2.0/arm/arm-none-eabi/include/c++/10.3.1/cmath ****     exp(_Tp __x)
 235:/Library/DaisyToolchain/0.2.0/arm/arm-none-eabi/include/c++/10.3.1/cmath ****     { return __builtin_exp(__x); }
 236:/Library/DaisyToolchain/0.2.0/arm/arm-none-eabi/include/c++/10.3.1/cmath **** 
 237:/Library/DaisyToolchain/0.2.0/arm/arm-none-eabi/include/c++/10.3.1/cmath ****   using ::fabs;
 238:/Library/DaisyToolchain/0.2.0/arm/arm-none-eabi/include/c++/10.3.1/cmath **** 
 239:/Library/DaisyToolchain/0.2.0/arm/arm-none-eabi/include/c++/10.3.1/cmath **** #ifndef __CORRECT_ISO_CPP_MATH_H_PROTO
 240:/Library/DaisyToolchain/0.2.0/arm/arm-none-eabi/include/c++/10.3.1/cmath ****   inline _GLIBCXX_CONSTEXPR float
 241:/Library/DaisyToolchain/0.2.0/arm/arm-none-eabi/include/c++/10.3.1/cmath ****   fabs(float __x)
 242:/Library/DaisyToolchain/0.2.0/arm/arm-none-eabi/include/c++/10.3.1/cmath ****   { return __builtin_fabsf(__x); }
 243:/Library/DaisyToolchain/0.2.0/arm/arm-none-eabi/include/c++/10.3.1/cmath **** 
 244:/Library/DaisyToolchain/0.2.0/arm/arm-none-eabi/include/c++/10.3.1/cmath ****   inline _GLIBCXX_CONSTEXPR long double
 245:/Library/DaisyToolchain/0.2.0/arm/arm-none-eabi/include/c++/10.3.1/cmath ****   fabs(long double __x)
 246:/Library/DaisyToolchain/0.2.0/arm/arm-none-eabi/include/c++/10.3.1/cmath ****   { return __builtin_fabsl(__x); }
 247:/Library/DaisyToolchain/0.2.0/arm/arm-none-eabi/include/c++/10.3.1/cmath **** #endif
 248:/Library/DaisyToolchain/0.2.0/arm/arm-none-eabi/include/c++/10.3.1/cmath **** 
 249:/Library/DaisyToolchain/0.2.0/arm/arm-none-eabi/include/c++/10.3.1/cmath ****   template<typename _Tp>
 250:/Library/DaisyToolchain/0.2.0/arm/arm-none-eabi/include/c++/10.3.1/cmath ****     inline _GLIBCXX_CONSTEXPR
 251:/Library/DaisyToolchain/0.2.0/arm/arm-none-eabi/include/c++/10.3.1/cmath ****     typename __gnu_cxx::__enable_if<__is_integer<_Tp>::__value,
 252:/Library/DaisyToolchain/0.2.0/arm/arm-none-eabi/include/c++/10.3.1/cmath ****                                     double>::__type
 253:/Library/DaisyToolchain/0.2.0/arm/arm-none-eabi/include/c++/10.3.1/cmath ****     fabs(_Tp __x)
 254:/Library/DaisyToolchain/0.2.0/arm/arm-none-eabi/include/c++/10.3.1/cmath ****     { return __builtin_fabs(__x); }
 255:/Library/DaisyToolchain/0.2.0/arm/arm-none-eabi/include/c++/10.3.1/cmath **** 
 256:/Library/DaisyToolchain/0.2.0/arm/arm-none-eabi/include/c++/10.3.1/cmath ****   using ::floor;
 257:/Library/DaisyToolchain/0.2.0/arm/arm-none-eabi/include/c++/10.3.1/cmath **** 
 258:/Library/DaisyToolchain/0.2.0/arm/arm-none-eabi/include/c++/10.3.1/cmath **** #ifndef __CORRECT_ISO_CPP_MATH_H_PROTO
 259:/Library/DaisyToolchain/0.2.0/arm/arm-none-eabi/include/c++/10.3.1/cmath ****   inline _GLIBCXX_CONSTEXPR float
ARM GAS  /var/folders/2p/02m_5p7958535cp2tpgps0400000gn/T//ccFG1CTd.s 			page 6


 260:/Library/DaisyToolchain/0.2.0/arm/arm-none-eabi/include/c++/10.3.1/cmath ****   floor(float __x)
 261:/Library/DaisyToolchain/0.2.0/arm/arm-none-eabi/include/c++/10.3.1/cmath ****   { return __builtin_floorf(__x); }
 262:/Library/DaisyToolchain/0.2.0/arm/arm-none-eabi/include/c++/10.3.1/cmath **** 
 263:/Library/DaisyToolchain/0.2.0/arm/arm-none-eabi/include/c++/10.3.1/cmath ****   inline _GLIBCXX_CONSTEXPR long double
 264:/Library/DaisyToolchain/0.2.0/arm/arm-none-eabi/include/c++/10.3.1/cmath ****   floor(long double __x)
 265:/Library/DaisyToolchain/0.2.0/arm/arm-none-eabi/include/c++/10.3.1/cmath ****   { return __builtin_floorl(__x); }
 266:/Library/DaisyToolchain/0.2.0/arm/arm-none-eabi/include/c++/10.3.1/cmath **** #endif
 267:/Library/DaisyToolchain/0.2.0/arm/arm-none-eabi/include/c++/10.3.1/cmath **** 
 268:/Library/DaisyToolchain/0.2.0/arm/arm-none-eabi/include/c++/10.3.1/cmath ****   template<typename _Tp>
 269:/Library/DaisyToolchain/0.2.0/arm/arm-none-eabi/include/c++/10.3.1/cmath ****     inline _GLIBCXX_CONSTEXPR
 270:/Library/DaisyToolchain/0.2.0/arm/arm-none-eabi/include/c++/10.3.1/cmath ****     typename __gnu_cxx::__enable_if<__is_integer<_Tp>::__value,
 271:/Library/DaisyToolchain/0.2.0/arm/arm-none-eabi/include/c++/10.3.1/cmath ****                                     double>::__type
 272:/Library/DaisyToolchain/0.2.0/arm/arm-none-eabi/include/c++/10.3.1/cmath ****     floor(_Tp __x)
 273:/Library/DaisyToolchain/0.2.0/arm/arm-none-eabi/include/c++/10.3.1/cmath ****     { return __builtin_floor(__x); }
 274:/Library/DaisyToolchain/0.2.0/arm/arm-none-eabi/include/c++/10.3.1/cmath **** 
 275:/Library/DaisyToolchain/0.2.0/arm/arm-none-eabi/include/c++/10.3.1/cmath ****   using ::fmod;
 276:/Library/DaisyToolchain/0.2.0/arm/arm-none-eabi/include/c++/10.3.1/cmath **** 
 277:/Library/DaisyToolchain/0.2.0/arm/arm-none-eabi/include/c++/10.3.1/cmath **** #ifndef __CORRECT_ISO_CPP_MATH_H_PROTO
 278:/Library/DaisyToolchain/0.2.0/arm/arm-none-eabi/include/c++/10.3.1/cmath ****   inline _GLIBCXX_CONSTEXPR float
 279:/Library/DaisyToolchain/0.2.0/arm/arm-none-eabi/include/c++/10.3.1/cmath ****   fmod(float __x, float __y)
 280:/Library/DaisyToolchain/0.2.0/arm/arm-none-eabi/include/c++/10.3.1/cmath ****   { return __builtin_fmodf(__x, __y); }
 281:/Library/DaisyToolchain/0.2.0/arm/arm-none-eabi/include/c++/10.3.1/cmath **** 
 282:/Library/DaisyToolchain/0.2.0/arm/arm-none-eabi/include/c++/10.3.1/cmath ****   inline _GLIBCXX_CONSTEXPR long double
 283:/Library/DaisyToolchain/0.2.0/arm/arm-none-eabi/include/c++/10.3.1/cmath ****   fmod(long double __x, long double __y)
 284:/Library/DaisyToolchain/0.2.0/arm/arm-none-eabi/include/c++/10.3.1/cmath ****   { return __builtin_fmodl(__x, __y); }
 285:/Library/DaisyToolchain/0.2.0/arm/arm-none-eabi/include/c++/10.3.1/cmath **** #endif
 286:/Library/DaisyToolchain/0.2.0/arm/arm-none-eabi/include/c++/10.3.1/cmath **** 
 287:/Library/DaisyToolchain/0.2.0/arm/arm-none-eabi/include/c++/10.3.1/cmath ****   template<typename _Tp, typename _Up>
 288:/Library/DaisyToolchain/0.2.0/arm/arm-none-eabi/include/c++/10.3.1/cmath ****     inline _GLIBCXX_CONSTEXPR
 289:/Library/DaisyToolchain/0.2.0/arm/arm-none-eabi/include/c++/10.3.1/cmath ****     typename __gnu_cxx::__promote_2<_Tp, _Up>::__type
 290:/Library/DaisyToolchain/0.2.0/arm/arm-none-eabi/include/c++/10.3.1/cmath ****     fmod(_Tp __x, _Up __y)
 291:/Library/DaisyToolchain/0.2.0/arm/arm-none-eabi/include/c++/10.3.1/cmath ****     {
 292:/Library/DaisyToolchain/0.2.0/arm/arm-none-eabi/include/c++/10.3.1/cmath ****       typedef typename __gnu_cxx::__promote_2<_Tp, _Up>::__type __type;
 293:/Library/DaisyToolchain/0.2.0/arm/arm-none-eabi/include/c++/10.3.1/cmath ****       return fmod(__type(__x), __type(__y));
 294:/Library/DaisyToolchain/0.2.0/arm/arm-none-eabi/include/c++/10.3.1/cmath ****     }
 295:/Library/DaisyToolchain/0.2.0/arm/arm-none-eabi/include/c++/10.3.1/cmath **** 
 296:/Library/DaisyToolchain/0.2.0/arm/arm-none-eabi/include/c++/10.3.1/cmath ****   using ::frexp;
 297:/Library/DaisyToolchain/0.2.0/arm/arm-none-eabi/include/c++/10.3.1/cmath **** 
 298:/Library/DaisyToolchain/0.2.0/arm/arm-none-eabi/include/c++/10.3.1/cmath **** #ifndef __CORRECT_ISO_CPP_MATH_H_PROTO
 299:/Library/DaisyToolchain/0.2.0/arm/arm-none-eabi/include/c++/10.3.1/cmath ****   inline float
 300:/Library/DaisyToolchain/0.2.0/arm/arm-none-eabi/include/c++/10.3.1/cmath ****   frexp(float __x, int* __exp)
 301:/Library/DaisyToolchain/0.2.0/arm/arm-none-eabi/include/c++/10.3.1/cmath ****   { return __builtin_frexpf(__x, __exp); }
 302:/Library/DaisyToolchain/0.2.0/arm/arm-none-eabi/include/c++/10.3.1/cmath **** 
 303:/Library/DaisyToolchain/0.2.0/arm/arm-none-eabi/include/c++/10.3.1/cmath ****   inline long double
 304:/Library/DaisyToolchain/0.2.0/arm/arm-none-eabi/include/c++/10.3.1/cmath ****   frexp(long double __x, int* __exp)
 305:/Library/DaisyToolchain/0.2.0/arm/arm-none-eabi/include/c++/10.3.1/cmath ****   { return __builtin_frexpl(__x, __exp); }
 306:/Library/DaisyToolchain/0.2.0/arm/arm-none-eabi/include/c++/10.3.1/cmath **** #endif
 307:/Library/DaisyToolchain/0.2.0/arm/arm-none-eabi/include/c++/10.3.1/cmath **** 
 308:/Library/DaisyToolchain/0.2.0/arm/arm-none-eabi/include/c++/10.3.1/cmath ****   template<typename _Tp>
 309:/Library/DaisyToolchain/0.2.0/arm/arm-none-eabi/include/c++/10.3.1/cmath ****     inline _GLIBCXX_CONSTEXPR
 310:/Library/DaisyToolchain/0.2.0/arm/arm-none-eabi/include/c++/10.3.1/cmath ****     typename __gnu_cxx::__enable_if<__is_integer<_Tp>::__value, 
 311:/Library/DaisyToolchain/0.2.0/arm/arm-none-eabi/include/c++/10.3.1/cmath ****                                     double>::__type
 312:/Library/DaisyToolchain/0.2.0/arm/arm-none-eabi/include/c++/10.3.1/cmath ****     frexp(_Tp __x, int* __exp)
 313:/Library/DaisyToolchain/0.2.0/arm/arm-none-eabi/include/c++/10.3.1/cmath ****     { return __builtin_frexp(__x, __exp); }
 314:/Library/DaisyToolchain/0.2.0/arm/arm-none-eabi/include/c++/10.3.1/cmath **** 
 315:/Library/DaisyToolchain/0.2.0/arm/arm-none-eabi/include/c++/10.3.1/cmath ****   using ::ldexp;
 316:/Library/DaisyToolchain/0.2.0/arm/arm-none-eabi/include/c++/10.3.1/cmath **** 
ARM GAS  /var/folders/2p/02m_5p7958535cp2tpgps0400000gn/T//ccFG1CTd.s 			page 7


 317:/Library/DaisyToolchain/0.2.0/arm/arm-none-eabi/include/c++/10.3.1/cmath **** #ifndef __CORRECT_ISO_CPP_MATH_H_PROTO
 318:/Library/DaisyToolchain/0.2.0/arm/arm-none-eabi/include/c++/10.3.1/cmath ****   inline _GLIBCXX_CONSTEXPR float
 319:/Library/DaisyToolchain/0.2.0/arm/arm-none-eabi/include/c++/10.3.1/cmath ****   ldexp(float __x, int __exp)
 320:/Library/DaisyToolchain/0.2.0/arm/arm-none-eabi/include/c++/10.3.1/cmath ****   { return __builtin_ldexpf(__x, __exp); }
 321:/Library/DaisyToolchain/0.2.0/arm/arm-none-eabi/include/c++/10.3.1/cmath **** 
 322:/Library/DaisyToolchain/0.2.0/arm/arm-none-eabi/include/c++/10.3.1/cmath ****   inline _GLIBCXX_CONSTEXPR long double
 323:/Library/DaisyToolchain/0.2.0/arm/arm-none-eabi/include/c++/10.3.1/cmath ****   ldexp(long double __x, int __exp)
 324:/Library/DaisyToolchain/0.2.0/arm/arm-none-eabi/include/c++/10.3.1/cmath ****   { return __builtin_ldexpl(__x, __exp); }
 325:/Library/DaisyToolchain/0.2.0/arm/arm-none-eabi/include/c++/10.3.1/cmath **** #endif
 326:/Library/DaisyToolchain/0.2.0/arm/arm-none-eabi/include/c++/10.3.1/cmath **** 
 327:/Library/DaisyToolchain/0.2.0/arm/arm-none-eabi/include/c++/10.3.1/cmath ****   template<typename _Tp>
 328:/Library/DaisyToolchain/0.2.0/arm/arm-none-eabi/include/c++/10.3.1/cmath ****     inline _GLIBCXX_CONSTEXPR
 329:/Library/DaisyToolchain/0.2.0/arm/arm-none-eabi/include/c++/10.3.1/cmath ****     typename __gnu_cxx::__enable_if<__is_integer<_Tp>::__value, 
 330:/Library/DaisyToolchain/0.2.0/arm/arm-none-eabi/include/c++/10.3.1/cmath ****                                     double>::__type
 331:/Library/DaisyToolchain/0.2.0/arm/arm-none-eabi/include/c++/10.3.1/cmath ****     ldexp(_Tp __x, int __exp)
 332:/Library/DaisyToolchain/0.2.0/arm/arm-none-eabi/include/c++/10.3.1/cmath ****     { return __builtin_ldexp(__x, __exp); }
 333:/Library/DaisyToolchain/0.2.0/arm/arm-none-eabi/include/c++/10.3.1/cmath **** 
 334:/Library/DaisyToolchain/0.2.0/arm/arm-none-eabi/include/c++/10.3.1/cmath ****   using ::log;
 335:/Library/DaisyToolchain/0.2.0/arm/arm-none-eabi/include/c++/10.3.1/cmath **** 
 336:/Library/DaisyToolchain/0.2.0/arm/arm-none-eabi/include/c++/10.3.1/cmath **** #ifndef __CORRECT_ISO_CPP_MATH_H_PROTO
 337:/Library/DaisyToolchain/0.2.0/arm/arm-none-eabi/include/c++/10.3.1/cmath ****   inline _GLIBCXX_CONSTEXPR float
 338:/Library/DaisyToolchain/0.2.0/arm/arm-none-eabi/include/c++/10.3.1/cmath ****   log(float __x)
 339:/Library/DaisyToolchain/0.2.0/arm/arm-none-eabi/include/c++/10.3.1/cmath ****   { return __builtin_logf(__x); }
 340:/Library/DaisyToolchain/0.2.0/arm/arm-none-eabi/include/c++/10.3.1/cmath **** 
 341:/Library/DaisyToolchain/0.2.0/arm/arm-none-eabi/include/c++/10.3.1/cmath ****   inline _GLIBCXX_CONSTEXPR long double
 342:/Library/DaisyToolchain/0.2.0/arm/arm-none-eabi/include/c++/10.3.1/cmath ****   log(long double __x)
 343:/Library/DaisyToolchain/0.2.0/arm/arm-none-eabi/include/c++/10.3.1/cmath ****   { return __builtin_logl(__x); }
 344:/Library/DaisyToolchain/0.2.0/arm/arm-none-eabi/include/c++/10.3.1/cmath **** #endif
 345:/Library/DaisyToolchain/0.2.0/arm/arm-none-eabi/include/c++/10.3.1/cmath **** 
 346:/Library/DaisyToolchain/0.2.0/arm/arm-none-eabi/include/c++/10.3.1/cmath ****   template<typename _Tp>
 347:/Library/DaisyToolchain/0.2.0/arm/arm-none-eabi/include/c++/10.3.1/cmath ****     inline _GLIBCXX_CONSTEXPR
 348:/Library/DaisyToolchain/0.2.0/arm/arm-none-eabi/include/c++/10.3.1/cmath ****     typename __gnu_cxx::__enable_if<__is_integer<_Tp>::__value, 
 349:/Library/DaisyToolchain/0.2.0/arm/arm-none-eabi/include/c++/10.3.1/cmath ****                                     double>::__type
 350:/Library/DaisyToolchain/0.2.0/arm/arm-none-eabi/include/c++/10.3.1/cmath ****     log(_Tp __x)
 351:/Library/DaisyToolchain/0.2.0/arm/arm-none-eabi/include/c++/10.3.1/cmath ****     { return __builtin_log(__x); }
 352:/Library/DaisyToolchain/0.2.0/arm/arm-none-eabi/include/c++/10.3.1/cmath **** 
 353:/Library/DaisyToolchain/0.2.0/arm/arm-none-eabi/include/c++/10.3.1/cmath ****   using ::log10;
 354:/Library/DaisyToolchain/0.2.0/arm/arm-none-eabi/include/c++/10.3.1/cmath **** 
 355:/Library/DaisyToolchain/0.2.0/arm/arm-none-eabi/include/c++/10.3.1/cmath **** #ifndef __CORRECT_ISO_CPP_MATH_H_PROTO
 356:/Library/DaisyToolchain/0.2.0/arm/arm-none-eabi/include/c++/10.3.1/cmath ****   inline _GLIBCXX_CONSTEXPR float
 357:/Library/DaisyToolchain/0.2.0/arm/arm-none-eabi/include/c++/10.3.1/cmath ****   log10(float __x)
 358:/Library/DaisyToolchain/0.2.0/arm/arm-none-eabi/include/c++/10.3.1/cmath ****   { return __builtin_log10f(__x); }
 359:/Library/DaisyToolchain/0.2.0/arm/arm-none-eabi/include/c++/10.3.1/cmath **** 
 360:/Library/DaisyToolchain/0.2.0/arm/arm-none-eabi/include/c++/10.3.1/cmath ****   inline _GLIBCXX_CONSTEXPR long double
 361:/Library/DaisyToolchain/0.2.0/arm/arm-none-eabi/include/c++/10.3.1/cmath ****   log10(long double __x)
 362:/Library/DaisyToolchain/0.2.0/arm/arm-none-eabi/include/c++/10.3.1/cmath ****   { return __builtin_log10l(__x); }
 363:/Library/DaisyToolchain/0.2.0/arm/arm-none-eabi/include/c++/10.3.1/cmath **** #endif
 364:/Library/DaisyToolchain/0.2.0/arm/arm-none-eabi/include/c++/10.3.1/cmath **** 
 365:/Library/DaisyToolchain/0.2.0/arm/arm-none-eabi/include/c++/10.3.1/cmath ****   template<typename _Tp>
 366:/Library/DaisyToolchain/0.2.0/arm/arm-none-eabi/include/c++/10.3.1/cmath ****     inline _GLIBCXX_CONSTEXPR
 367:/Library/DaisyToolchain/0.2.0/arm/arm-none-eabi/include/c++/10.3.1/cmath ****     typename __gnu_cxx::__enable_if<__is_integer<_Tp>::__value,
 368:/Library/DaisyToolchain/0.2.0/arm/arm-none-eabi/include/c++/10.3.1/cmath ****                                     double>::__type
 369:/Library/DaisyToolchain/0.2.0/arm/arm-none-eabi/include/c++/10.3.1/cmath ****     log10(_Tp __x)
 370:/Library/DaisyToolchain/0.2.0/arm/arm-none-eabi/include/c++/10.3.1/cmath ****     { return __builtin_log10(__x); }
 371:/Library/DaisyToolchain/0.2.0/arm/arm-none-eabi/include/c++/10.3.1/cmath **** 
 372:/Library/DaisyToolchain/0.2.0/arm/arm-none-eabi/include/c++/10.3.1/cmath ****   using ::modf;
 373:/Library/DaisyToolchain/0.2.0/arm/arm-none-eabi/include/c++/10.3.1/cmath **** 
ARM GAS  /var/folders/2p/02m_5p7958535cp2tpgps0400000gn/T//ccFG1CTd.s 			page 8


 374:/Library/DaisyToolchain/0.2.0/arm/arm-none-eabi/include/c++/10.3.1/cmath **** #ifndef __CORRECT_ISO_CPP_MATH_H_PROTO
 375:/Library/DaisyToolchain/0.2.0/arm/arm-none-eabi/include/c++/10.3.1/cmath ****   inline float
 376:/Library/DaisyToolchain/0.2.0/arm/arm-none-eabi/include/c++/10.3.1/cmath ****   modf(float __x, float* __iptr)
 377:/Library/DaisyToolchain/0.2.0/arm/arm-none-eabi/include/c++/10.3.1/cmath ****   { return __builtin_modff(__x, __iptr); }
 378:/Library/DaisyToolchain/0.2.0/arm/arm-none-eabi/include/c++/10.3.1/cmath **** 
 379:/Library/DaisyToolchain/0.2.0/arm/arm-none-eabi/include/c++/10.3.1/cmath ****   inline long double
 380:/Library/DaisyToolchain/0.2.0/arm/arm-none-eabi/include/c++/10.3.1/cmath ****   modf(long double __x, long double* __iptr)
 381:/Library/DaisyToolchain/0.2.0/arm/arm-none-eabi/include/c++/10.3.1/cmath ****   { return __builtin_modfl(__x, __iptr); }
 382:/Library/DaisyToolchain/0.2.0/arm/arm-none-eabi/include/c++/10.3.1/cmath **** #endif
 383:/Library/DaisyToolchain/0.2.0/arm/arm-none-eabi/include/c++/10.3.1/cmath **** 
 384:/Library/DaisyToolchain/0.2.0/arm/arm-none-eabi/include/c++/10.3.1/cmath ****   using ::pow;
 385:/Library/DaisyToolchain/0.2.0/arm/arm-none-eabi/include/c++/10.3.1/cmath **** 
 386:/Library/DaisyToolchain/0.2.0/arm/arm-none-eabi/include/c++/10.3.1/cmath **** #ifndef __CORRECT_ISO_CPP_MATH_H_PROTO
 387:/Library/DaisyToolchain/0.2.0/arm/arm-none-eabi/include/c++/10.3.1/cmath ****   inline _GLIBCXX_CONSTEXPR float
 388:/Library/DaisyToolchain/0.2.0/arm/arm-none-eabi/include/c++/10.3.1/cmath ****   pow(float __x, float __y)
 389:/Library/DaisyToolchain/0.2.0/arm/arm-none-eabi/include/c++/10.3.1/cmath ****   { return __builtin_powf(__x, __y); }
 390:/Library/DaisyToolchain/0.2.0/arm/arm-none-eabi/include/c++/10.3.1/cmath **** 
 391:/Library/DaisyToolchain/0.2.0/arm/arm-none-eabi/include/c++/10.3.1/cmath ****   inline _GLIBCXX_CONSTEXPR long double
 392:/Library/DaisyToolchain/0.2.0/arm/arm-none-eabi/include/c++/10.3.1/cmath ****   pow(long double __x, long double __y)
 393:/Library/DaisyToolchain/0.2.0/arm/arm-none-eabi/include/c++/10.3.1/cmath ****   { return __builtin_powl(__x, __y); }
 394:/Library/DaisyToolchain/0.2.0/arm/arm-none-eabi/include/c++/10.3.1/cmath **** 
 395:/Library/DaisyToolchain/0.2.0/arm/arm-none-eabi/include/c++/10.3.1/cmath **** #if __cplusplus < 201103L
 396:/Library/DaisyToolchain/0.2.0/arm/arm-none-eabi/include/c++/10.3.1/cmath ****   // _GLIBCXX_RESOLVE_LIB_DEFECTS
 397:/Library/DaisyToolchain/0.2.0/arm/arm-none-eabi/include/c++/10.3.1/cmath ****   // DR 550. What should the return type of pow(float,int) be?
 398:/Library/DaisyToolchain/0.2.0/arm/arm-none-eabi/include/c++/10.3.1/cmath ****   inline double
 399:/Library/DaisyToolchain/0.2.0/arm/arm-none-eabi/include/c++/10.3.1/cmath ****   pow(double __x, int __i)
 400:/Library/DaisyToolchain/0.2.0/arm/arm-none-eabi/include/c++/10.3.1/cmath ****   { return __builtin_powi(__x, __i); }
 401:/Library/DaisyToolchain/0.2.0/arm/arm-none-eabi/include/c++/10.3.1/cmath **** 
 402:/Library/DaisyToolchain/0.2.0/arm/arm-none-eabi/include/c++/10.3.1/cmath ****   inline float
 403:/Library/DaisyToolchain/0.2.0/arm/arm-none-eabi/include/c++/10.3.1/cmath ****   pow(float __x, int __n)
 404:/Library/DaisyToolchain/0.2.0/arm/arm-none-eabi/include/c++/10.3.1/cmath ****   { return __builtin_powif(__x, __n); }
 405:/Library/DaisyToolchain/0.2.0/arm/arm-none-eabi/include/c++/10.3.1/cmath **** 
 406:/Library/DaisyToolchain/0.2.0/arm/arm-none-eabi/include/c++/10.3.1/cmath ****   inline long double
 407:/Library/DaisyToolchain/0.2.0/arm/arm-none-eabi/include/c++/10.3.1/cmath ****   pow(long double __x, int __n)
 408:/Library/DaisyToolchain/0.2.0/arm/arm-none-eabi/include/c++/10.3.1/cmath ****   { return __builtin_powil(__x, __n); }
 409:/Library/DaisyToolchain/0.2.0/arm/arm-none-eabi/include/c++/10.3.1/cmath **** #endif
 410:/Library/DaisyToolchain/0.2.0/arm/arm-none-eabi/include/c++/10.3.1/cmath **** #endif
 411:/Library/DaisyToolchain/0.2.0/arm/arm-none-eabi/include/c++/10.3.1/cmath **** 
 412:/Library/DaisyToolchain/0.2.0/arm/arm-none-eabi/include/c++/10.3.1/cmath ****   template<typename _Tp, typename _Up>
 413:/Library/DaisyToolchain/0.2.0/arm/arm-none-eabi/include/c++/10.3.1/cmath ****     inline _GLIBCXX_CONSTEXPR
 414:/Library/DaisyToolchain/0.2.0/arm/arm-none-eabi/include/c++/10.3.1/cmath ****     typename __gnu_cxx::__promote_2<_Tp, _Up>::__type
 415:/Library/DaisyToolchain/0.2.0/arm/arm-none-eabi/include/c++/10.3.1/cmath ****     pow(_Tp __x, _Up __y)
 416:/Library/DaisyToolchain/0.2.0/arm/arm-none-eabi/include/c++/10.3.1/cmath ****     {
 417:/Library/DaisyToolchain/0.2.0/arm/arm-none-eabi/include/c++/10.3.1/cmath ****       typedef typename __gnu_cxx::__promote_2<_Tp, _Up>::__type __type;
 418:/Library/DaisyToolchain/0.2.0/arm/arm-none-eabi/include/c++/10.3.1/cmath ****       return pow(__type(__x), __type(__y));
 419:/Library/DaisyToolchain/0.2.0/arm/arm-none-eabi/include/c++/10.3.1/cmath ****     }
 420:/Library/DaisyToolchain/0.2.0/arm/arm-none-eabi/include/c++/10.3.1/cmath **** 
 421:/Library/DaisyToolchain/0.2.0/arm/arm-none-eabi/include/c++/10.3.1/cmath ****   using ::sin;
 422:/Library/DaisyToolchain/0.2.0/arm/arm-none-eabi/include/c++/10.3.1/cmath **** 
 423:/Library/DaisyToolchain/0.2.0/arm/arm-none-eabi/include/c++/10.3.1/cmath **** #ifndef __CORRECT_ISO_CPP_MATH_H_PROTO
 424:/Library/DaisyToolchain/0.2.0/arm/arm-none-eabi/include/c++/10.3.1/cmath ****   inline _GLIBCXX_CONSTEXPR float
 425:/Library/DaisyToolchain/0.2.0/arm/arm-none-eabi/include/c++/10.3.1/cmath ****   sin(float __x)
 426:/Library/DaisyToolchain/0.2.0/arm/arm-none-eabi/include/c++/10.3.1/cmath ****   { return __builtin_sinf(__x); }
 427:/Library/DaisyToolchain/0.2.0/arm/arm-none-eabi/include/c++/10.3.1/cmath **** 
 428:/Library/DaisyToolchain/0.2.0/arm/arm-none-eabi/include/c++/10.3.1/cmath ****   inline _GLIBCXX_CONSTEXPR long double
 429:/Library/DaisyToolchain/0.2.0/arm/arm-none-eabi/include/c++/10.3.1/cmath ****   sin(long double __x)
 430:/Library/DaisyToolchain/0.2.0/arm/arm-none-eabi/include/c++/10.3.1/cmath ****   { return __builtin_sinl(__x); }
ARM GAS  /var/folders/2p/02m_5p7958535cp2tpgps0400000gn/T//ccFG1CTd.s 			page 9


 431:/Library/DaisyToolchain/0.2.0/arm/arm-none-eabi/include/c++/10.3.1/cmath **** #endif
 432:/Library/DaisyToolchain/0.2.0/arm/arm-none-eabi/include/c++/10.3.1/cmath **** 
 433:/Library/DaisyToolchain/0.2.0/arm/arm-none-eabi/include/c++/10.3.1/cmath ****   template<typename _Tp>
 434:/Library/DaisyToolchain/0.2.0/arm/arm-none-eabi/include/c++/10.3.1/cmath ****     inline _GLIBCXX_CONSTEXPR
 435:/Library/DaisyToolchain/0.2.0/arm/arm-none-eabi/include/c++/10.3.1/cmath ****     typename __gnu_cxx::__enable_if<__is_integer<_Tp>::__value, 
 436:/Library/DaisyToolchain/0.2.0/arm/arm-none-eabi/include/c++/10.3.1/cmath ****                                     double>::__type
 437:/Library/DaisyToolchain/0.2.0/arm/arm-none-eabi/include/c++/10.3.1/cmath ****     sin(_Tp __x)
 438:/Library/DaisyToolchain/0.2.0/arm/arm-none-eabi/include/c++/10.3.1/cmath ****     { return __builtin_sin(__x); }
 439:/Library/DaisyToolchain/0.2.0/arm/arm-none-eabi/include/c++/10.3.1/cmath **** 
 440:/Library/DaisyToolchain/0.2.0/arm/arm-none-eabi/include/c++/10.3.1/cmath ****   using ::sinh;
 441:/Library/DaisyToolchain/0.2.0/arm/arm-none-eabi/include/c++/10.3.1/cmath **** 
 442:/Library/DaisyToolchain/0.2.0/arm/arm-none-eabi/include/c++/10.3.1/cmath **** #ifndef __CORRECT_ISO_CPP_MATH_H_PROTO
 443:/Library/DaisyToolchain/0.2.0/arm/arm-none-eabi/include/c++/10.3.1/cmath ****   inline _GLIBCXX_CONSTEXPR float
 444:/Library/DaisyToolchain/0.2.0/arm/arm-none-eabi/include/c++/10.3.1/cmath ****   sinh(float __x)
 445:/Library/DaisyToolchain/0.2.0/arm/arm-none-eabi/include/c++/10.3.1/cmath ****   { return __builtin_sinhf(__x); }
 446:/Library/DaisyToolchain/0.2.0/arm/arm-none-eabi/include/c++/10.3.1/cmath **** 
 447:/Library/DaisyToolchain/0.2.0/arm/arm-none-eabi/include/c++/10.3.1/cmath ****   inline _GLIBCXX_CONSTEXPR long double
 448:/Library/DaisyToolchain/0.2.0/arm/arm-none-eabi/include/c++/10.3.1/cmath ****   sinh(long double __x)
 449:/Library/DaisyToolchain/0.2.0/arm/arm-none-eabi/include/c++/10.3.1/cmath ****   { return __builtin_sinhl(__x); }
 450:/Library/DaisyToolchain/0.2.0/arm/arm-none-eabi/include/c++/10.3.1/cmath **** #endif
 451:/Library/DaisyToolchain/0.2.0/arm/arm-none-eabi/include/c++/10.3.1/cmath **** 
 452:/Library/DaisyToolchain/0.2.0/arm/arm-none-eabi/include/c++/10.3.1/cmath ****   template<typename _Tp>
 453:/Library/DaisyToolchain/0.2.0/arm/arm-none-eabi/include/c++/10.3.1/cmath ****     inline _GLIBCXX_CONSTEXPR
 454:/Library/DaisyToolchain/0.2.0/arm/arm-none-eabi/include/c++/10.3.1/cmath ****     typename __gnu_cxx::__enable_if<__is_integer<_Tp>::__value, 
 455:/Library/DaisyToolchain/0.2.0/arm/arm-none-eabi/include/c++/10.3.1/cmath ****                                     double>::__type
 456:/Library/DaisyToolchain/0.2.0/arm/arm-none-eabi/include/c++/10.3.1/cmath ****     sinh(_Tp __x)
 457:/Library/DaisyToolchain/0.2.0/arm/arm-none-eabi/include/c++/10.3.1/cmath ****     { return __builtin_sinh(__x); }
 458:/Library/DaisyToolchain/0.2.0/arm/arm-none-eabi/include/c++/10.3.1/cmath **** 
 459:/Library/DaisyToolchain/0.2.0/arm/arm-none-eabi/include/c++/10.3.1/cmath ****   using ::sqrt;
 460:/Library/DaisyToolchain/0.2.0/arm/arm-none-eabi/include/c++/10.3.1/cmath **** 
 461:/Library/DaisyToolchain/0.2.0/arm/arm-none-eabi/include/c++/10.3.1/cmath **** #ifndef __CORRECT_ISO_CPP_MATH_H_PROTO
 462:/Library/DaisyToolchain/0.2.0/arm/arm-none-eabi/include/c++/10.3.1/cmath ****   inline _GLIBCXX_CONSTEXPR float
 463:/Library/DaisyToolchain/0.2.0/arm/arm-none-eabi/include/c++/10.3.1/cmath ****   sqrt(float __x)
 464:/Library/DaisyToolchain/0.2.0/arm/arm-none-eabi/include/c++/10.3.1/cmath ****   { return __builtin_sqrtf(__x); }
  28              		.loc 1 464 3
  29              		.cfi_startproc
  30              		@ args = 0, pretend = 0, frame = 8
  31              		@ frame_needed = 1, uses_anonymous_args = 0
  32 0000 80B5     		push	{r7, lr}
  33              		.cfi_def_cfa_offset 8
  34              		.cfi_offset 7, -8
  35              		.cfi_offset 14, -4
  36 0002 82B0     		sub	sp, sp, #8
  37              		.cfi_def_cfa_offset 16
  38 0004 00AF     		add	r7, sp, #0
  39              		.cfi_def_cfa_register 7
  40 0006 87ED010A 		vstr.32	s0, [r7, #4]
  41              		.loc 1 464 27
  42 000a 97ED010A 		vldr.32	s0, [r7, #4]
  43 000e FFF7FEFF 		bl	sqrtf
  44 0012 F0EE407A 		vmov.f32	s15, s0
  45              		.loc 1 464 34
  46 0016 B0EE670A 		vmov.f32	s0, s15
  47 001a 0837     		adds	r7, r7, #8
  48              		.cfi_def_cfa_offset 8
  49 001c BD46     		mov	sp, r7
  50              		.cfi_def_cfa_register 13
ARM GAS  /var/folders/2p/02m_5p7958535cp2tpgps0400000gn/T//ccFG1CTd.s 			page 10


  51              		@ sp needed
  52 001e 80BD     		pop	{r7, pc}
  53              		.cfi_endproc
  54              	.LFE199:
  56              		.section	.rodata._ZStL19piecewise_construct,"a"
  57              		.align	2
  60              	_ZStL19piecewise_construct:
  61 0000 00       		.space	1
  62              		.section	.rodata._ZN5daisyL15kWavFileChunkIdE,"a"
  63              		.align	2
  66              	_ZN5daisyL15kWavFileChunkIdE:
  67 0000 52494646 		.word	1179011410
  68              		.section	.rodata._ZN5daisyL14kWavFileWaveIdE,"a"
  69              		.align	2
  72              	_ZN5daisyL14kWavFileWaveIdE:
  73 0000 57415645 		.word	1163280727
  74              		.section	.rodata._ZN5daisyL19kWavFileSubChunk1IdE,"a"
  75              		.align	2
  78              	_ZN5daisyL19kWavFileSubChunk1IdE:
  79 0000 666D7420 		.word	544501094
  80              		.section	.rodata._ZN5daisyL19kWavFileSubChunk2IdE,"a"
  81              		.align	2
  84              	_ZN5daisyL19kWavFileSubChunk2IdE:
  85 0000 64617461 		.word	1635017060
  86              		.section	.rodata._ZL19kMaxSr595DaisyChain,"a"
  87              		.align	2
  90              	_ZL19kMaxSr595DaisyChain:
  91 0000 10000000 		.word	16
  92              		.section	.rodata._ZN5daisy4seedL2D0E,"a"
  93              		.align	2
  96              	_ZN5daisy4seedL2D0E:
  97 0000 01       		.byte	1
  98 0001 0C       		.byte	12
  99              		.section	.rodata._ZN5daisy4seedL2D1E,"a"
 100              		.align	2
 103              	_ZN5daisy4seedL2D1E:
 104 0000 02       		.byte	2
 105 0001 0B       		.byte	11
 106              		.section	.rodata._ZN5daisy4seedL2D2E,"a"
 107              		.align	2
 110              	_ZN5daisy4seedL2D2E:
 111 0000 02       		.byte	2
 112 0001 0A       		.byte	10
 113              		.section	.rodata._ZN5daisy4seedL2D3E,"a"
 114              		.align	2
 117              	_ZN5daisy4seedL2D3E:
 118 0000 02       		.byte	2
 119 0001 09       		.byte	9
 120              		.section	.rodata._ZN5daisy4seedL2D4E,"a"
 121              		.align	2
 124              	_ZN5daisy4seedL2D4E:
 125 0000 02       		.byte	2
 126 0001 08       		.byte	8
 127              		.section	.rodata._ZN5daisy4seedL2D5E,"a"
 128              		.align	2
 131              	_ZN5daisy4seedL2D5E:
 132 0000 03       		.byte	3
ARM GAS  /var/folders/2p/02m_5p7958535cp2tpgps0400000gn/T//ccFG1CTd.s 			page 11


 133 0001 02       		.byte	2
 134              		.section	.rodata._ZN5daisy4seedL2D6E,"a"
 135              		.align	2
 138              	_ZN5daisy4seedL2D6E:
 139 0000 02       		.byte	2
 140 0001 0C       		.byte	12
 141              		.section	.rodata._ZN5daisy4seedL2D7E,"a"
 142              		.align	2
 145              	_ZN5daisy4seedL2D7E:
 146 0000 06       		.byte	6
 147 0001 0A       		.byte	10
 148              		.section	.rodata._ZN5daisy4seedL2D8E,"a"
 149              		.align	2
 152              	_ZN5daisy4seedL2D8E:
 153 0000 06       		.byte	6
 154 0001 0B       		.byte	11
 155              		.section	.rodata._ZN5daisy4seedL2D9E,"a"
 156              		.align	2
 159              	_ZN5daisy4seedL2D9E:
 160 0000 01       		.byte	1
 161 0001 04       		.byte	4
 162              		.section	.rodata._ZN5daisy4seedL3D10E,"a"
 163              		.align	2
 166              	_ZN5daisy4seedL3D10E:
 167 0000 01       		.byte	1
 168 0001 05       		.byte	5
 169              		.section	.rodata._ZN5daisy4seedL3D11E,"a"
 170              		.align	2
 173              	_ZN5daisy4seedL3D11E:
 174 0000 01       		.byte	1
 175 0001 08       		.byte	8
 176              		.section	.rodata._ZN5daisy4seedL3D12E,"a"
 177              		.align	2
 180              	_ZN5daisy4seedL3D12E:
 181 0000 01       		.byte	1
 182 0001 09       		.byte	9
 183              		.section	.rodata._ZN5daisy4seedL3D13E,"a"
 184              		.align	2
 187              	_ZN5daisy4seedL3D13E:
 188 0000 01       		.byte	1
 189 0001 06       		.byte	6
 190              		.section	.rodata._ZN5daisy4seedL3D14E,"a"
 191              		.align	2
 194              	_ZN5daisy4seedL3D14E:
 195 0000 01       		.byte	1
 196 0001 07       		.byte	7
 197              		.section	.rodata._ZN5daisy4seedL3D15E,"a"
 198              		.align	2
 201              	_ZN5daisy4seedL3D15E:
 202 0000 02       		.byte	2
 203 0001 00       		.byte	0
 204              		.section	.rodata._ZN5daisy4seedL3D16E,"a"
 205              		.align	2
 208              	_ZN5daisy4seedL3D16E:
 209 0000 00       		.byte	0
 210 0001 03       		.byte	3
 211              		.section	.rodata._ZN5daisy4seedL3D17E,"a"
ARM GAS  /var/folders/2p/02m_5p7958535cp2tpgps0400000gn/T//ccFG1CTd.s 			page 12


 212              		.align	2
 215              	_ZN5daisy4seedL3D17E:
 216 0000 01       		.byte	1
 217 0001 01       		.byte	1
 218              		.section	.rodata._ZN5daisy4seedL3D18E,"a"
 219              		.align	2
 222              	_ZN5daisy4seedL3D18E:
 223 0000 00       		.byte	0
 224 0001 07       		.byte	7
 225              		.section	.rodata._ZN5daisy4seedL3D19E,"a"
 226              		.align	2
 229              	_ZN5daisy4seedL3D19E:
 230 0000 00       		.byte	0
 231 0001 06       		.byte	6
 232              		.section	.rodata._ZN5daisy4seedL3D20E,"a"
 233              		.align	2
 236              	_ZN5daisy4seedL3D20E:
 237 0000 02       		.byte	2
 238 0001 01       		.byte	1
 239              		.section	.rodata._ZN5daisy4seedL3D21E,"a"
 240              		.align	2
 243              	_ZN5daisy4seedL3D21E:
 244 0000 02       		.byte	2
 245 0001 04       		.byte	4
 246              		.section	.rodata._ZN5daisy4seedL3D22E,"a"
 247              		.align	2
 250              	_ZN5daisy4seedL3D22E:
 251 0000 00       		.byte	0
 252 0001 05       		.byte	5
 253              		.section	.rodata._ZN5daisy4seedL3D23E,"a"
 254              		.align	2
 257              	_ZN5daisy4seedL3D23E:
 258 0000 00       		.byte	0
 259 0001 04       		.byte	4
 260              		.section	.rodata._ZN5daisy4seedL3D24E,"a"
 261              		.align	2
 264              	_ZN5daisy4seedL3D24E:
 265 0000 00       		.byte	0
 266 0001 01       		.byte	1
 267              		.section	.rodata._ZN5daisy4seedL3D25E,"a"
 268              		.align	2
 271              	_ZN5daisy4seedL3D25E:
 272 0000 0000     		.space	2
 273              		.section	.rodata._ZN5daisy4seedL3D26E,"a"
 274              		.align	2
 277              	_ZN5daisy4seedL3D26E:
 278 0000 03       		.byte	3
 279 0001 0B       		.byte	11
 280              		.section	.rodata._ZN5daisy4seedL3D27E,"a"
 281              		.align	2
 284              	_ZN5daisy4seedL3D27E:
 285 0000 06       		.byte	6
 286 0001 09       		.byte	9
 287              		.section	.rodata._ZN5daisy4seedL3D28E,"a"
 288              		.align	2
 291              	_ZN5daisy4seedL3D28E:
 292 0000 00       		.byte	0
ARM GAS  /var/folders/2p/02m_5p7958535cp2tpgps0400000gn/T//ccFG1CTd.s 			page 13


 293 0001 02       		.byte	2
 294              		.section	.rodata._ZN5daisy4seedL3D29E,"a"
 295              		.align	2
 298              	_ZN5daisy4seedL3D29E:
 299 0000 01       		.byte	1
 300 0001 0E       		.byte	14
 301              		.section	.rodata._ZN5daisy4seedL3D30E,"a"
 302              		.align	2
 305              	_ZN5daisy4seedL3D30E:
 306 0000 01       		.byte	1
 307 0001 0F       		.byte	15
 308              		.section	.rodata._ZN5daisy4seedL2A0E,"a"
 309              		.align	2
 312              	_ZN5daisy4seedL2A0E:
 313 0000 02       		.byte	2
 314 0001 00       		.byte	0
 315              		.section	.rodata._ZN5daisy4seedL2A1E,"a"
 316              		.align	2
 319              	_ZN5daisy4seedL2A1E:
 320 0000 00       		.byte	0
 321 0001 03       		.byte	3
 322              		.section	.rodata._ZN5daisy4seedL2A2E,"a"
 323              		.align	2
 326              	_ZN5daisy4seedL2A2E:
 327 0000 01       		.byte	1
 328 0001 01       		.byte	1
 329              		.section	.rodata._ZN5daisy4seedL2A3E,"a"
 330              		.align	2
 333              	_ZN5daisy4seedL2A3E:
 334 0000 00       		.byte	0
 335 0001 07       		.byte	7
 336              		.section	.rodata._ZN5daisy4seedL2A4E,"a"
 337              		.align	2
 340              	_ZN5daisy4seedL2A4E:
 341 0000 00       		.byte	0
 342 0001 06       		.byte	6
 343              		.section	.rodata._ZN5daisy4seedL2A5E,"a"
 344              		.align	2
 347              	_ZN5daisy4seedL2A5E:
 348 0000 02       		.byte	2
 349 0001 01       		.byte	1
 350              		.section	.rodata._ZN5daisy4seedL2A6E,"a"
 351              		.align	2
 354              	_ZN5daisy4seedL2A6E:
 355 0000 02       		.byte	2
 356 0001 04       		.byte	4
 357              		.section	.rodata._ZN5daisy4seedL2A7E,"a"
 358              		.align	2
 361              	_ZN5daisy4seedL2A7E:
 362 0000 00       		.byte	0
 363 0001 05       		.byte	5
 364              		.section	.rodata._ZN5daisy4seedL2A8E,"a"
 365              		.align	2
 368              	_ZN5daisy4seedL2A8E:
 369 0000 00       		.byte	0
 370 0001 04       		.byte	4
 371              		.section	.rodata._ZN5daisy4seedL2A9E,"a"
ARM GAS  /var/folders/2p/02m_5p7958535cp2tpgps0400000gn/T//ccFG1CTd.s 			page 14


 372              		.align	2
 375              	_ZN5daisy4seedL2A9E:
 376 0000 00       		.byte	0
 377 0001 01       		.byte	1
 378              		.section	.rodata._ZN5daisy4seedL3A10E,"a"
 379              		.align	2
 382              	_ZN5daisy4seedL3A10E:
 383 0000 0000     		.space	2
 384              		.section	.rodata._ZN5daisy4seedL3A11E,"a"
 385              		.align	2
 388              	_ZN5daisy4seedL3A11E:
 389 0000 00       		.byte	0
 390 0001 02       		.byte	2
 391              		.section	.rodata._ZN5daisy4seedL3D31E,"a"
 392              		.align	2
 395              	_ZN5daisy4seedL3D31E:
 396 0000 02       		.byte	2
 397 0001 02       		.byte	2
 398              		.section	.rodata._ZN5daisy4seedL3D32E,"a"
 399              		.align	2
 402              	_ZN5daisy4seedL3D32E:
 403 0000 02       		.byte	2
 404 0001 03       		.byte	3
 405              		.section	.rodata._ZN5daisy4seedL3A12E,"a"
 406              		.align	2
 409              	_ZN5daisy4seedL3A12E:
 410 0000 02       		.byte	2
 411 0001 02       		.byte	2
 412              		.section	.rodata._ZN5daisy4seedL3A13E,"a"
 413              		.align	2
 416              	_ZN5daisy4seedL3A13E:
 417 0000 02       		.byte	2
 418 0001 03       		.byte	3
 419              		.section	.text._ZL20__gthread_key_deletei,"ax",%progbits
 420              		.align	1
 421              		.syntax unified
 422              		.thumb
 423              		.thumb_func
 425              	_ZL20__gthread_key_deletei:
 426              	.LFB2854:
 427              		.file 2 "/Library/DaisyToolchain/0.2.0/arm/arm-none-eabi/include/c++/10.3.1/arm-none-eabi/thumb/v7
   1:/Library/DaisyToolchain/0.2.0/arm/arm-none-eabi/include/c++/10.3.1/arm-none-eabi/thumb/v7e-m+dp/hard/bits/gthr-default.h **** /* Threads compatibility routines for libgcc2 and libobjc.  */
   2:/Library/DaisyToolchain/0.2.0/arm/arm-none-eabi/include/c++/10.3.1/arm-none-eabi/thumb/v7e-m+dp/hard/bits/gthr-default.h **** /* Compile this one with gcc.  */
   3:/Library/DaisyToolchain/0.2.0/arm/arm-none-eabi/include/c++/10.3.1/arm-none-eabi/thumb/v7e-m+dp/hard/bits/gthr-default.h **** /* Copyright (C) 1997-2020 Free Software Foundation, Inc.
   4:/Library/DaisyToolchain/0.2.0/arm/arm-none-eabi/include/c++/10.3.1/arm-none-eabi/thumb/v7e-m+dp/hard/bits/gthr-default.h **** 
   5:/Library/DaisyToolchain/0.2.0/arm/arm-none-eabi/include/c++/10.3.1/arm-none-eabi/thumb/v7e-m+dp/hard/bits/gthr-default.h **** This file is part of GCC.
   6:/Library/DaisyToolchain/0.2.0/arm/arm-none-eabi/include/c++/10.3.1/arm-none-eabi/thumb/v7e-m+dp/hard/bits/gthr-default.h **** 
   7:/Library/DaisyToolchain/0.2.0/arm/arm-none-eabi/include/c++/10.3.1/arm-none-eabi/thumb/v7e-m+dp/hard/bits/gthr-default.h **** GCC is free software; you can redistribute it and/or modify it under
   8:/Library/DaisyToolchain/0.2.0/arm/arm-none-eabi/include/c++/10.3.1/arm-none-eabi/thumb/v7e-m+dp/hard/bits/gthr-default.h **** the terms of the GNU General Public License as published by the Free
   9:/Library/DaisyToolchain/0.2.0/arm/arm-none-eabi/include/c++/10.3.1/arm-none-eabi/thumb/v7e-m+dp/hard/bits/gthr-default.h **** Software Foundation; either version 3, or (at your option) any later
  10:/Library/DaisyToolchain/0.2.0/arm/arm-none-eabi/include/c++/10.3.1/arm-none-eabi/thumb/v7e-m+dp/hard/bits/gthr-default.h **** version.
  11:/Library/DaisyToolchain/0.2.0/arm/arm-none-eabi/include/c++/10.3.1/arm-none-eabi/thumb/v7e-m+dp/hard/bits/gthr-default.h **** 
  12:/Library/DaisyToolchain/0.2.0/arm/arm-none-eabi/include/c++/10.3.1/arm-none-eabi/thumb/v7e-m+dp/hard/bits/gthr-default.h **** GCC is distributed in the hope that it will be useful, but WITHOUT ANY
  13:/Library/DaisyToolchain/0.2.0/arm/arm-none-eabi/include/c++/10.3.1/arm-none-eabi/thumb/v7e-m+dp/hard/bits/gthr-default.h **** WARRANTY; without even the implied warranty of MERCHANTABILITY or
  14:/Library/DaisyToolchain/0.2.0/arm/arm-none-eabi/include/c++/10.3.1/arm-none-eabi/thumb/v7e-m+dp/hard/bits/gthr-default.h **** FITNESS FOR A PARTICULAR PURPOSE.  See the GNU General Public License
  15:/Library/DaisyToolchain/0.2.0/arm/arm-none-eabi/include/c++/10.3.1/arm-none-eabi/thumb/v7e-m+dp/hard/bits/gthr-default.h **** for more details.
  16:/Library/DaisyToolchain/0.2.0/arm/arm-none-eabi/include/c++/10.3.1/arm-none-eabi/thumb/v7e-m+dp/hard/bits/gthr-default.h **** 
ARM GAS  /var/folders/2p/02m_5p7958535cp2tpgps0400000gn/T//ccFG1CTd.s 			page 15


  17:/Library/DaisyToolchain/0.2.0/arm/arm-none-eabi/include/c++/10.3.1/arm-none-eabi/thumb/v7e-m+dp/hard/bits/gthr-default.h **** Under Section 7 of GPL version 3, you are granted additional
  18:/Library/DaisyToolchain/0.2.0/arm/arm-none-eabi/include/c++/10.3.1/arm-none-eabi/thumb/v7e-m+dp/hard/bits/gthr-default.h **** permissions described in the GCC Runtime Library Exception, version
  19:/Library/DaisyToolchain/0.2.0/arm/arm-none-eabi/include/c++/10.3.1/arm-none-eabi/thumb/v7e-m+dp/hard/bits/gthr-default.h **** 3.1, as published by the Free Software Foundation.
  20:/Library/DaisyToolchain/0.2.0/arm/arm-none-eabi/include/c++/10.3.1/arm-none-eabi/thumb/v7e-m+dp/hard/bits/gthr-default.h **** 
  21:/Library/DaisyToolchain/0.2.0/arm/arm-none-eabi/include/c++/10.3.1/arm-none-eabi/thumb/v7e-m+dp/hard/bits/gthr-default.h **** You should have received a copy of the GNU General Public License and
  22:/Library/DaisyToolchain/0.2.0/arm/arm-none-eabi/include/c++/10.3.1/arm-none-eabi/thumb/v7e-m+dp/hard/bits/gthr-default.h **** a copy of the GCC Runtime Library Exception along with this program;
  23:/Library/DaisyToolchain/0.2.0/arm/arm-none-eabi/include/c++/10.3.1/arm-none-eabi/thumb/v7e-m+dp/hard/bits/gthr-default.h **** see the files COPYING3 and COPYING.RUNTIME respectively.  If not, see
  24:/Library/DaisyToolchain/0.2.0/arm/arm-none-eabi/include/c++/10.3.1/arm-none-eabi/thumb/v7e-m+dp/hard/bits/gthr-default.h **** <http://www.gnu.org/licenses/>.  */
  25:/Library/DaisyToolchain/0.2.0/arm/arm-none-eabi/include/c++/10.3.1/arm-none-eabi/thumb/v7e-m+dp/hard/bits/gthr-default.h **** 
  26:/Library/DaisyToolchain/0.2.0/arm/arm-none-eabi/include/c++/10.3.1/arm-none-eabi/thumb/v7e-m+dp/hard/bits/gthr-default.h **** #ifndef _GLIBCXX_GCC_GTHR_SINGLE_H
  27:/Library/DaisyToolchain/0.2.0/arm/arm-none-eabi/include/c++/10.3.1/arm-none-eabi/thumb/v7e-m+dp/hard/bits/gthr-default.h **** #define _GLIBCXX_GCC_GTHR_SINGLE_H
  28:/Library/DaisyToolchain/0.2.0/arm/arm-none-eabi/include/c++/10.3.1/arm-none-eabi/thumb/v7e-m+dp/hard/bits/gthr-default.h **** 
  29:/Library/DaisyToolchain/0.2.0/arm/arm-none-eabi/include/c++/10.3.1/arm-none-eabi/thumb/v7e-m+dp/hard/bits/gthr-default.h **** /* Just provide compatibility for mutex handling.  */
  30:/Library/DaisyToolchain/0.2.0/arm/arm-none-eabi/include/c++/10.3.1/arm-none-eabi/thumb/v7e-m+dp/hard/bits/gthr-default.h **** 
  31:/Library/DaisyToolchain/0.2.0/arm/arm-none-eabi/include/c++/10.3.1/arm-none-eabi/thumb/v7e-m+dp/hard/bits/gthr-default.h **** typedef int __gthread_key_t;
  32:/Library/DaisyToolchain/0.2.0/arm/arm-none-eabi/include/c++/10.3.1/arm-none-eabi/thumb/v7e-m+dp/hard/bits/gthr-default.h **** typedef int __gthread_once_t;
  33:/Library/DaisyToolchain/0.2.0/arm/arm-none-eabi/include/c++/10.3.1/arm-none-eabi/thumb/v7e-m+dp/hard/bits/gthr-default.h **** typedef int __gthread_mutex_t;
  34:/Library/DaisyToolchain/0.2.0/arm/arm-none-eabi/include/c++/10.3.1/arm-none-eabi/thumb/v7e-m+dp/hard/bits/gthr-default.h **** typedef int __gthread_recursive_mutex_t;
  35:/Library/DaisyToolchain/0.2.0/arm/arm-none-eabi/include/c++/10.3.1/arm-none-eabi/thumb/v7e-m+dp/hard/bits/gthr-default.h **** 
  36:/Library/DaisyToolchain/0.2.0/arm/arm-none-eabi/include/c++/10.3.1/arm-none-eabi/thumb/v7e-m+dp/hard/bits/gthr-default.h **** #define __GTHREAD_ONCE_INIT 0
  37:/Library/DaisyToolchain/0.2.0/arm/arm-none-eabi/include/c++/10.3.1/arm-none-eabi/thumb/v7e-m+dp/hard/bits/gthr-default.h **** #define __GTHREAD_MUTEX_INIT 0
  38:/Library/DaisyToolchain/0.2.0/arm/arm-none-eabi/include/c++/10.3.1/arm-none-eabi/thumb/v7e-m+dp/hard/bits/gthr-default.h **** #define __GTHREAD_MUTEX_INIT_FUNCTION(mx) do {} while (0)
  39:/Library/DaisyToolchain/0.2.0/arm/arm-none-eabi/include/c++/10.3.1/arm-none-eabi/thumb/v7e-m+dp/hard/bits/gthr-default.h **** #define __GTHREAD_RECURSIVE_MUTEX_INIT 0
  40:/Library/DaisyToolchain/0.2.0/arm/arm-none-eabi/include/c++/10.3.1/arm-none-eabi/thumb/v7e-m+dp/hard/bits/gthr-default.h **** 
  41:/Library/DaisyToolchain/0.2.0/arm/arm-none-eabi/include/c++/10.3.1/arm-none-eabi/thumb/v7e-m+dp/hard/bits/gthr-default.h **** #define _GLIBCXX_UNUSED __attribute__((__unused__))
  42:/Library/DaisyToolchain/0.2.0/arm/arm-none-eabi/include/c++/10.3.1/arm-none-eabi/thumb/v7e-m+dp/hard/bits/gthr-default.h **** 
  43:/Library/DaisyToolchain/0.2.0/arm/arm-none-eabi/include/c++/10.3.1/arm-none-eabi/thumb/v7e-m+dp/hard/bits/gthr-default.h **** #ifdef _LIBOBJC
  44:/Library/DaisyToolchain/0.2.0/arm/arm-none-eabi/include/c++/10.3.1/arm-none-eabi/thumb/v7e-m+dp/hard/bits/gthr-default.h **** 
  45:/Library/DaisyToolchain/0.2.0/arm/arm-none-eabi/include/c++/10.3.1/arm-none-eabi/thumb/v7e-m+dp/hard/bits/gthr-default.h **** /* Thread local storage for a single thread */
  46:/Library/DaisyToolchain/0.2.0/arm/arm-none-eabi/include/c++/10.3.1/arm-none-eabi/thumb/v7e-m+dp/hard/bits/gthr-default.h **** static void *thread_local_storage = NULL;
  47:/Library/DaisyToolchain/0.2.0/arm/arm-none-eabi/include/c++/10.3.1/arm-none-eabi/thumb/v7e-m+dp/hard/bits/gthr-default.h **** 
  48:/Library/DaisyToolchain/0.2.0/arm/arm-none-eabi/include/c++/10.3.1/arm-none-eabi/thumb/v7e-m+dp/hard/bits/gthr-default.h **** /* Backend initialization functions */
  49:/Library/DaisyToolchain/0.2.0/arm/arm-none-eabi/include/c++/10.3.1/arm-none-eabi/thumb/v7e-m+dp/hard/bits/gthr-default.h **** 
  50:/Library/DaisyToolchain/0.2.0/arm/arm-none-eabi/include/c++/10.3.1/arm-none-eabi/thumb/v7e-m+dp/hard/bits/gthr-default.h **** /* Initialize the threads subsystem.  */
  51:/Library/DaisyToolchain/0.2.0/arm/arm-none-eabi/include/c++/10.3.1/arm-none-eabi/thumb/v7e-m+dp/hard/bits/gthr-default.h **** static inline int
  52:/Library/DaisyToolchain/0.2.0/arm/arm-none-eabi/include/c++/10.3.1/arm-none-eabi/thumb/v7e-m+dp/hard/bits/gthr-default.h **** __gthread_objc_init_thread_system (void)
  53:/Library/DaisyToolchain/0.2.0/arm/arm-none-eabi/include/c++/10.3.1/arm-none-eabi/thumb/v7e-m+dp/hard/bits/gthr-default.h **** {
  54:/Library/DaisyToolchain/0.2.0/arm/arm-none-eabi/include/c++/10.3.1/arm-none-eabi/thumb/v7e-m+dp/hard/bits/gthr-default.h ****   /* No thread support available */
  55:/Library/DaisyToolchain/0.2.0/arm/arm-none-eabi/include/c++/10.3.1/arm-none-eabi/thumb/v7e-m+dp/hard/bits/gthr-default.h ****   return -1;
  56:/Library/DaisyToolchain/0.2.0/arm/arm-none-eabi/include/c++/10.3.1/arm-none-eabi/thumb/v7e-m+dp/hard/bits/gthr-default.h **** }
  57:/Library/DaisyToolchain/0.2.0/arm/arm-none-eabi/include/c++/10.3.1/arm-none-eabi/thumb/v7e-m+dp/hard/bits/gthr-default.h **** 
  58:/Library/DaisyToolchain/0.2.0/arm/arm-none-eabi/include/c++/10.3.1/arm-none-eabi/thumb/v7e-m+dp/hard/bits/gthr-default.h **** /* Close the threads subsystem.  */
  59:/Library/DaisyToolchain/0.2.0/arm/arm-none-eabi/include/c++/10.3.1/arm-none-eabi/thumb/v7e-m+dp/hard/bits/gthr-default.h **** static inline int
  60:/Library/DaisyToolchain/0.2.0/arm/arm-none-eabi/include/c++/10.3.1/arm-none-eabi/thumb/v7e-m+dp/hard/bits/gthr-default.h **** __gthread_objc_close_thread_system (void)
  61:/Library/DaisyToolchain/0.2.0/arm/arm-none-eabi/include/c++/10.3.1/arm-none-eabi/thumb/v7e-m+dp/hard/bits/gthr-default.h **** {
  62:/Library/DaisyToolchain/0.2.0/arm/arm-none-eabi/include/c++/10.3.1/arm-none-eabi/thumb/v7e-m+dp/hard/bits/gthr-default.h ****   /* No thread support available */
  63:/Library/DaisyToolchain/0.2.0/arm/arm-none-eabi/include/c++/10.3.1/arm-none-eabi/thumb/v7e-m+dp/hard/bits/gthr-default.h ****   return -1;
  64:/Library/DaisyToolchain/0.2.0/arm/arm-none-eabi/include/c++/10.3.1/arm-none-eabi/thumb/v7e-m+dp/hard/bits/gthr-default.h **** }
  65:/Library/DaisyToolchain/0.2.0/arm/arm-none-eabi/include/c++/10.3.1/arm-none-eabi/thumb/v7e-m+dp/hard/bits/gthr-default.h **** 
  66:/Library/DaisyToolchain/0.2.0/arm/arm-none-eabi/include/c++/10.3.1/arm-none-eabi/thumb/v7e-m+dp/hard/bits/gthr-default.h **** /* Backend thread functions */
  67:/Library/DaisyToolchain/0.2.0/arm/arm-none-eabi/include/c++/10.3.1/arm-none-eabi/thumb/v7e-m+dp/hard/bits/gthr-default.h **** 
  68:/Library/DaisyToolchain/0.2.0/arm/arm-none-eabi/include/c++/10.3.1/arm-none-eabi/thumb/v7e-m+dp/hard/bits/gthr-default.h **** /* Create a new thread of execution.  */
  69:/Library/DaisyToolchain/0.2.0/arm/arm-none-eabi/include/c++/10.3.1/arm-none-eabi/thumb/v7e-m+dp/hard/bits/gthr-default.h **** static inline objc_thread_t
  70:/Library/DaisyToolchain/0.2.0/arm/arm-none-eabi/include/c++/10.3.1/arm-none-eabi/thumb/v7e-m+dp/hard/bits/gthr-default.h **** __gthread_objc_thread_detach (void (* func)(void *), void * arg _GLIBCXX_UNUSED)
  71:/Library/DaisyToolchain/0.2.0/arm/arm-none-eabi/include/c++/10.3.1/arm-none-eabi/thumb/v7e-m+dp/hard/bits/gthr-default.h **** {
  72:/Library/DaisyToolchain/0.2.0/arm/arm-none-eabi/include/c++/10.3.1/arm-none-eabi/thumb/v7e-m+dp/hard/bits/gthr-default.h ****   /* No thread support available */
  73:/Library/DaisyToolchain/0.2.0/arm/arm-none-eabi/include/c++/10.3.1/arm-none-eabi/thumb/v7e-m+dp/hard/bits/gthr-default.h ****   return NULL;
ARM GAS  /var/folders/2p/02m_5p7958535cp2tpgps0400000gn/T//ccFG1CTd.s 			page 16


  74:/Library/DaisyToolchain/0.2.0/arm/arm-none-eabi/include/c++/10.3.1/arm-none-eabi/thumb/v7e-m+dp/hard/bits/gthr-default.h **** }
  75:/Library/DaisyToolchain/0.2.0/arm/arm-none-eabi/include/c++/10.3.1/arm-none-eabi/thumb/v7e-m+dp/hard/bits/gthr-default.h **** 
  76:/Library/DaisyToolchain/0.2.0/arm/arm-none-eabi/include/c++/10.3.1/arm-none-eabi/thumb/v7e-m+dp/hard/bits/gthr-default.h **** /* Set the current thread's priority.  */
  77:/Library/DaisyToolchain/0.2.0/arm/arm-none-eabi/include/c++/10.3.1/arm-none-eabi/thumb/v7e-m+dp/hard/bits/gthr-default.h **** static inline int
  78:/Library/DaisyToolchain/0.2.0/arm/arm-none-eabi/include/c++/10.3.1/arm-none-eabi/thumb/v7e-m+dp/hard/bits/gthr-default.h **** __gthread_objc_thread_set_priority (int priority _GLIBCXX_UNUSED)
  79:/Library/DaisyToolchain/0.2.0/arm/arm-none-eabi/include/c++/10.3.1/arm-none-eabi/thumb/v7e-m+dp/hard/bits/gthr-default.h **** {
  80:/Library/DaisyToolchain/0.2.0/arm/arm-none-eabi/include/c++/10.3.1/arm-none-eabi/thumb/v7e-m+dp/hard/bits/gthr-default.h ****   /* No thread support available */
  81:/Library/DaisyToolchain/0.2.0/arm/arm-none-eabi/include/c++/10.3.1/arm-none-eabi/thumb/v7e-m+dp/hard/bits/gthr-default.h ****   return -1;
  82:/Library/DaisyToolchain/0.2.0/arm/arm-none-eabi/include/c++/10.3.1/arm-none-eabi/thumb/v7e-m+dp/hard/bits/gthr-default.h **** }
  83:/Library/DaisyToolchain/0.2.0/arm/arm-none-eabi/include/c++/10.3.1/arm-none-eabi/thumb/v7e-m+dp/hard/bits/gthr-default.h **** 
  84:/Library/DaisyToolchain/0.2.0/arm/arm-none-eabi/include/c++/10.3.1/arm-none-eabi/thumb/v7e-m+dp/hard/bits/gthr-default.h **** /* Return the current thread's priority.  */
  85:/Library/DaisyToolchain/0.2.0/arm/arm-none-eabi/include/c++/10.3.1/arm-none-eabi/thumb/v7e-m+dp/hard/bits/gthr-default.h **** static inline int
  86:/Library/DaisyToolchain/0.2.0/arm/arm-none-eabi/include/c++/10.3.1/arm-none-eabi/thumb/v7e-m+dp/hard/bits/gthr-default.h **** __gthread_objc_thread_get_priority (void)
  87:/Library/DaisyToolchain/0.2.0/arm/arm-none-eabi/include/c++/10.3.1/arm-none-eabi/thumb/v7e-m+dp/hard/bits/gthr-default.h **** {
  88:/Library/DaisyToolchain/0.2.0/arm/arm-none-eabi/include/c++/10.3.1/arm-none-eabi/thumb/v7e-m+dp/hard/bits/gthr-default.h ****   return OBJC_THREAD_INTERACTIVE_PRIORITY;
  89:/Library/DaisyToolchain/0.2.0/arm/arm-none-eabi/include/c++/10.3.1/arm-none-eabi/thumb/v7e-m+dp/hard/bits/gthr-default.h **** }
  90:/Library/DaisyToolchain/0.2.0/arm/arm-none-eabi/include/c++/10.3.1/arm-none-eabi/thumb/v7e-m+dp/hard/bits/gthr-default.h **** 
  91:/Library/DaisyToolchain/0.2.0/arm/arm-none-eabi/include/c++/10.3.1/arm-none-eabi/thumb/v7e-m+dp/hard/bits/gthr-default.h **** /* Yield our process time to another thread.  */
  92:/Library/DaisyToolchain/0.2.0/arm/arm-none-eabi/include/c++/10.3.1/arm-none-eabi/thumb/v7e-m+dp/hard/bits/gthr-default.h **** static inline void
  93:/Library/DaisyToolchain/0.2.0/arm/arm-none-eabi/include/c++/10.3.1/arm-none-eabi/thumb/v7e-m+dp/hard/bits/gthr-default.h **** __gthread_objc_thread_yield (void)
  94:/Library/DaisyToolchain/0.2.0/arm/arm-none-eabi/include/c++/10.3.1/arm-none-eabi/thumb/v7e-m+dp/hard/bits/gthr-default.h **** {
  95:/Library/DaisyToolchain/0.2.0/arm/arm-none-eabi/include/c++/10.3.1/arm-none-eabi/thumb/v7e-m+dp/hard/bits/gthr-default.h ****   return;
  96:/Library/DaisyToolchain/0.2.0/arm/arm-none-eabi/include/c++/10.3.1/arm-none-eabi/thumb/v7e-m+dp/hard/bits/gthr-default.h **** }
  97:/Library/DaisyToolchain/0.2.0/arm/arm-none-eabi/include/c++/10.3.1/arm-none-eabi/thumb/v7e-m+dp/hard/bits/gthr-default.h **** 
  98:/Library/DaisyToolchain/0.2.0/arm/arm-none-eabi/include/c++/10.3.1/arm-none-eabi/thumb/v7e-m+dp/hard/bits/gthr-default.h **** /* Terminate the current thread.  */
  99:/Library/DaisyToolchain/0.2.0/arm/arm-none-eabi/include/c++/10.3.1/arm-none-eabi/thumb/v7e-m+dp/hard/bits/gthr-default.h **** static inline int
 100:/Library/DaisyToolchain/0.2.0/arm/arm-none-eabi/include/c++/10.3.1/arm-none-eabi/thumb/v7e-m+dp/hard/bits/gthr-default.h **** __gthread_objc_thread_exit (void)
 101:/Library/DaisyToolchain/0.2.0/arm/arm-none-eabi/include/c++/10.3.1/arm-none-eabi/thumb/v7e-m+dp/hard/bits/gthr-default.h **** {
 102:/Library/DaisyToolchain/0.2.0/arm/arm-none-eabi/include/c++/10.3.1/arm-none-eabi/thumb/v7e-m+dp/hard/bits/gthr-default.h ****   /* No thread support available */
 103:/Library/DaisyToolchain/0.2.0/arm/arm-none-eabi/include/c++/10.3.1/arm-none-eabi/thumb/v7e-m+dp/hard/bits/gthr-default.h ****   /* Should we really exit the program */
 104:/Library/DaisyToolchain/0.2.0/arm/arm-none-eabi/include/c++/10.3.1/arm-none-eabi/thumb/v7e-m+dp/hard/bits/gthr-default.h ****   /* exit (&__objc_thread_exit_status); */
 105:/Library/DaisyToolchain/0.2.0/arm/arm-none-eabi/include/c++/10.3.1/arm-none-eabi/thumb/v7e-m+dp/hard/bits/gthr-default.h ****   return -1;
 106:/Library/DaisyToolchain/0.2.0/arm/arm-none-eabi/include/c++/10.3.1/arm-none-eabi/thumb/v7e-m+dp/hard/bits/gthr-default.h **** }
 107:/Library/DaisyToolchain/0.2.0/arm/arm-none-eabi/include/c++/10.3.1/arm-none-eabi/thumb/v7e-m+dp/hard/bits/gthr-default.h **** 
 108:/Library/DaisyToolchain/0.2.0/arm/arm-none-eabi/include/c++/10.3.1/arm-none-eabi/thumb/v7e-m+dp/hard/bits/gthr-default.h **** /* Returns an integer value which uniquely describes a thread.  */
 109:/Library/DaisyToolchain/0.2.0/arm/arm-none-eabi/include/c++/10.3.1/arm-none-eabi/thumb/v7e-m+dp/hard/bits/gthr-default.h **** static inline objc_thread_t
 110:/Library/DaisyToolchain/0.2.0/arm/arm-none-eabi/include/c++/10.3.1/arm-none-eabi/thumb/v7e-m+dp/hard/bits/gthr-default.h **** __gthread_objc_thread_id (void)
 111:/Library/DaisyToolchain/0.2.0/arm/arm-none-eabi/include/c++/10.3.1/arm-none-eabi/thumb/v7e-m+dp/hard/bits/gthr-default.h **** {
 112:/Library/DaisyToolchain/0.2.0/arm/arm-none-eabi/include/c++/10.3.1/arm-none-eabi/thumb/v7e-m+dp/hard/bits/gthr-default.h ****   /* No thread support, use 1.  */
 113:/Library/DaisyToolchain/0.2.0/arm/arm-none-eabi/include/c++/10.3.1/arm-none-eabi/thumb/v7e-m+dp/hard/bits/gthr-default.h ****   return (objc_thread_t) 1;
 114:/Library/DaisyToolchain/0.2.0/arm/arm-none-eabi/include/c++/10.3.1/arm-none-eabi/thumb/v7e-m+dp/hard/bits/gthr-default.h **** }
 115:/Library/DaisyToolchain/0.2.0/arm/arm-none-eabi/include/c++/10.3.1/arm-none-eabi/thumb/v7e-m+dp/hard/bits/gthr-default.h **** 
 116:/Library/DaisyToolchain/0.2.0/arm/arm-none-eabi/include/c++/10.3.1/arm-none-eabi/thumb/v7e-m+dp/hard/bits/gthr-default.h **** /* Sets the thread's local storage pointer.  */
 117:/Library/DaisyToolchain/0.2.0/arm/arm-none-eabi/include/c++/10.3.1/arm-none-eabi/thumb/v7e-m+dp/hard/bits/gthr-default.h **** static inline int
 118:/Library/DaisyToolchain/0.2.0/arm/arm-none-eabi/include/c++/10.3.1/arm-none-eabi/thumb/v7e-m+dp/hard/bits/gthr-default.h **** __gthread_objc_thread_set_data (void *value)
 119:/Library/DaisyToolchain/0.2.0/arm/arm-none-eabi/include/c++/10.3.1/arm-none-eabi/thumb/v7e-m+dp/hard/bits/gthr-default.h **** {
 120:/Library/DaisyToolchain/0.2.0/arm/arm-none-eabi/include/c++/10.3.1/arm-none-eabi/thumb/v7e-m+dp/hard/bits/gthr-default.h ****   thread_local_storage = value;
 121:/Library/DaisyToolchain/0.2.0/arm/arm-none-eabi/include/c++/10.3.1/arm-none-eabi/thumb/v7e-m+dp/hard/bits/gthr-default.h ****   return 0;
 122:/Library/DaisyToolchain/0.2.0/arm/arm-none-eabi/include/c++/10.3.1/arm-none-eabi/thumb/v7e-m+dp/hard/bits/gthr-default.h **** }
 123:/Library/DaisyToolchain/0.2.0/arm/arm-none-eabi/include/c++/10.3.1/arm-none-eabi/thumb/v7e-m+dp/hard/bits/gthr-default.h **** 
 124:/Library/DaisyToolchain/0.2.0/arm/arm-none-eabi/include/c++/10.3.1/arm-none-eabi/thumb/v7e-m+dp/hard/bits/gthr-default.h **** /* Returns the thread's local storage pointer.  */
 125:/Library/DaisyToolchain/0.2.0/arm/arm-none-eabi/include/c++/10.3.1/arm-none-eabi/thumb/v7e-m+dp/hard/bits/gthr-default.h **** static inline void *
 126:/Library/DaisyToolchain/0.2.0/arm/arm-none-eabi/include/c++/10.3.1/arm-none-eabi/thumb/v7e-m+dp/hard/bits/gthr-default.h **** __gthread_objc_thread_get_data (void)
 127:/Library/DaisyToolchain/0.2.0/arm/arm-none-eabi/include/c++/10.3.1/arm-none-eabi/thumb/v7e-m+dp/hard/bits/gthr-default.h **** {
 128:/Library/DaisyToolchain/0.2.0/arm/arm-none-eabi/include/c++/10.3.1/arm-none-eabi/thumb/v7e-m+dp/hard/bits/gthr-default.h ****   return thread_local_storage;
 129:/Library/DaisyToolchain/0.2.0/arm/arm-none-eabi/include/c++/10.3.1/arm-none-eabi/thumb/v7e-m+dp/hard/bits/gthr-default.h **** }
 130:/Library/DaisyToolchain/0.2.0/arm/arm-none-eabi/include/c++/10.3.1/arm-none-eabi/thumb/v7e-m+dp/hard/bits/gthr-default.h **** 
ARM GAS  /var/folders/2p/02m_5p7958535cp2tpgps0400000gn/T//ccFG1CTd.s 			page 17


 131:/Library/DaisyToolchain/0.2.0/arm/arm-none-eabi/include/c++/10.3.1/arm-none-eabi/thumb/v7e-m+dp/hard/bits/gthr-default.h **** /* Backend mutex functions */
 132:/Library/DaisyToolchain/0.2.0/arm/arm-none-eabi/include/c++/10.3.1/arm-none-eabi/thumb/v7e-m+dp/hard/bits/gthr-default.h **** 
 133:/Library/DaisyToolchain/0.2.0/arm/arm-none-eabi/include/c++/10.3.1/arm-none-eabi/thumb/v7e-m+dp/hard/bits/gthr-default.h **** /* Allocate a mutex.  */
 134:/Library/DaisyToolchain/0.2.0/arm/arm-none-eabi/include/c++/10.3.1/arm-none-eabi/thumb/v7e-m+dp/hard/bits/gthr-default.h **** static inline int
 135:/Library/DaisyToolchain/0.2.0/arm/arm-none-eabi/include/c++/10.3.1/arm-none-eabi/thumb/v7e-m+dp/hard/bits/gthr-default.h **** __gthread_objc_mutex_allocate (objc_mutex_t mutex _GLIBCXX_UNUSED)
 136:/Library/DaisyToolchain/0.2.0/arm/arm-none-eabi/include/c++/10.3.1/arm-none-eabi/thumb/v7e-m+dp/hard/bits/gthr-default.h **** {
 137:/Library/DaisyToolchain/0.2.0/arm/arm-none-eabi/include/c++/10.3.1/arm-none-eabi/thumb/v7e-m+dp/hard/bits/gthr-default.h ****   return 0;
 138:/Library/DaisyToolchain/0.2.0/arm/arm-none-eabi/include/c++/10.3.1/arm-none-eabi/thumb/v7e-m+dp/hard/bits/gthr-default.h **** }
 139:/Library/DaisyToolchain/0.2.0/arm/arm-none-eabi/include/c++/10.3.1/arm-none-eabi/thumb/v7e-m+dp/hard/bits/gthr-default.h **** 
 140:/Library/DaisyToolchain/0.2.0/arm/arm-none-eabi/include/c++/10.3.1/arm-none-eabi/thumb/v7e-m+dp/hard/bits/gthr-default.h **** /* Deallocate a mutex.  */
 141:/Library/DaisyToolchain/0.2.0/arm/arm-none-eabi/include/c++/10.3.1/arm-none-eabi/thumb/v7e-m+dp/hard/bits/gthr-default.h **** static inline int
 142:/Library/DaisyToolchain/0.2.0/arm/arm-none-eabi/include/c++/10.3.1/arm-none-eabi/thumb/v7e-m+dp/hard/bits/gthr-default.h **** __gthread_objc_mutex_deallocate (objc_mutex_t mutex _GLIBCXX_UNUSED)
 143:/Library/DaisyToolchain/0.2.0/arm/arm-none-eabi/include/c++/10.3.1/arm-none-eabi/thumb/v7e-m+dp/hard/bits/gthr-default.h **** {
 144:/Library/DaisyToolchain/0.2.0/arm/arm-none-eabi/include/c++/10.3.1/arm-none-eabi/thumb/v7e-m+dp/hard/bits/gthr-default.h ****   return 0;
 145:/Library/DaisyToolchain/0.2.0/arm/arm-none-eabi/include/c++/10.3.1/arm-none-eabi/thumb/v7e-m+dp/hard/bits/gthr-default.h **** }
 146:/Library/DaisyToolchain/0.2.0/arm/arm-none-eabi/include/c++/10.3.1/arm-none-eabi/thumb/v7e-m+dp/hard/bits/gthr-default.h **** 
 147:/Library/DaisyToolchain/0.2.0/arm/arm-none-eabi/include/c++/10.3.1/arm-none-eabi/thumb/v7e-m+dp/hard/bits/gthr-default.h **** /* Grab a lock on a mutex.  */
 148:/Library/DaisyToolchain/0.2.0/arm/arm-none-eabi/include/c++/10.3.1/arm-none-eabi/thumb/v7e-m+dp/hard/bits/gthr-default.h **** static inline int
 149:/Library/DaisyToolchain/0.2.0/arm/arm-none-eabi/include/c++/10.3.1/arm-none-eabi/thumb/v7e-m+dp/hard/bits/gthr-default.h **** __gthread_objc_mutex_lock (objc_mutex_t mutex _GLIBCXX_UNUSED)
 150:/Library/DaisyToolchain/0.2.0/arm/arm-none-eabi/include/c++/10.3.1/arm-none-eabi/thumb/v7e-m+dp/hard/bits/gthr-default.h **** {
 151:/Library/DaisyToolchain/0.2.0/arm/arm-none-eabi/include/c++/10.3.1/arm-none-eabi/thumb/v7e-m+dp/hard/bits/gthr-default.h ****   /* There can only be one thread, so we always get the lock */
 152:/Library/DaisyToolchain/0.2.0/arm/arm-none-eabi/include/c++/10.3.1/arm-none-eabi/thumb/v7e-m+dp/hard/bits/gthr-default.h ****   return 0;
 153:/Library/DaisyToolchain/0.2.0/arm/arm-none-eabi/include/c++/10.3.1/arm-none-eabi/thumb/v7e-m+dp/hard/bits/gthr-default.h **** }
 154:/Library/DaisyToolchain/0.2.0/arm/arm-none-eabi/include/c++/10.3.1/arm-none-eabi/thumb/v7e-m+dp/hard/bits/gthr-default.h **** 
 155:/Library/DaisyToolchain/0.2.0/arm/arm-none-eabi/include/c++/10.3.1/arm-none-eabi/thumb/v7e-m+dp/hard/bits/gthr-default.h **** /* Try to grab a lock on a mutex.  */
 156:/Library/DaisyToolchain/0.2.0/arm/arm-none-eabi/include/c++/10.3.1/arm-none-eabi/thumb/v7e-m+dp/hard/bits/gthr-default.h **** static inline int
 157:/Library/DaisyToolchain/0.2.0/arm/arm-none-eabi/include/c++/10.3.1/arm-none-eabi/thumb/v7e-m+dp/hard/bits/gthr-default.h **** __gthread_objc_mutex_trylock (objc_mutex_t mutex _GLIBCXX_UNUSED)
 158:/Library/DaisyToolchain/0.2.0/arm/arm-none-eabi/include/c++/10.3.1/arm-none-eabi/thumb/v7e-m+dp/hard/bits/gthr-default.h **** {
 159:/Library/DaisyToolchain/0.2.0/arm/arm-none-eabi/include/c++/10.3.1/arm-none-eabi/thumb/v7e-m+dp/hard/bits/gthr-default.h ****   /* There can only be one thread, so we always get the lock */
 160:/Library/DaisyToolchain/0.2.0/arm/arm-none-eabi/include/c++/10.3.1/arm-none-eabi/thumb/v7e-m+dp/hard/bits/gthr-default.h ****   return 0;
 161:/Library/DaisyToolchain/0.2.0/arm/arm-none-eabi/include/c++/10.3.1/arm-none-eabi/thumb/v7e-m+dp/hard/bits/gthr-default.h **** }
 162:/Library/DaisyToolchain/0.2.0/arm/arm-none-eabi/include/c++/10.3.1/arm-none-eabi/thumb/v7e-m+dp/hard/bits/gthr-default.h **** 
 163:/Library/DaisyToolchain/0.2.0/arm/arm-none-eabi/include/c++/10.3.1/arm-none-eabi/thumb/v7e-m+dp/hard/bits/gthr-default.h **** /* Unlock the mutex */
 164:/Library/DaisyToolchain/0.2.0/arm/arm-none-eabi/include/c++/10.3.1/arm-none-eabi/thumb/v7e-m+dp/hard/bits/gthr-default.h **** static inline int
 165:/Library/DaisyToolchain/0.2.0/arm/arm-none-eabi/include/c++/10.3.1/arm-none-eabi/thumb/v7e-m+dp/hard/bits/gthr-default.h **** __gthread_objc_mutex_unlock (objc_mutex_t mutex _GLIBCXX_UNUSED)
 166:/Library/DaisyToolchain/0.2.0/arm/arm-none-eabi/include/c++/10.3.1/arm-none-eabi/thumb/v7e-m+dp/hard/bits/gthr-default.h **** {
 167:/Library/DaisyToolchain/0.2.0/arm/arm-none-eabi/include/c++/10.3.1/arm-none-eabi/thumb/v7e-m+dp/hard/bits/gthr-default.h ****   return 0;
 168:/Library/DaisyToolchain/0.2.0/arm/arm-none-eabi/include/c++/10.3.1/arm-none-eabi/thumb/v7e-m+dp/hard/bits/gthr-default.h **** }
 169:/Library/DaisyToolchain/0.2.0/arm/arm-none-eabi/include/c++/10.3.1/arm-none-eabi/thumb/v7e-m+dp/hard/bits/gthr-default.h **** 
 170:/Library/DaisyToolchain/0.2.0/arm/arm-none-eabi/include/c++/10.3.1/arm-none-eabi/thumb/v7e-m+dp/hard/bits/gthr-default.h **** /* Backend condition mutex functions */
 171:/Library/DaisyToolchain/0.2.0/arm/arm-none-eabi/include/c++/10.3.1/arm-none-eabi/thumb/v7e-m+dp/hard/bits/gthr-default.h **** 
 172:/Library/DaisyToolchain/0.2.0/arm/arm-none-eabi/include/c++/10.3.1/arm-none-eabi/thumb/v7e-m+dp/hard/bits/gthr-default.h **** /* Allocate a condition.  */
 173:/Library/DaisyToolchain/0.2.0/arm/arm-none-eabi/include/c++/10.3.1/arm-none-eabi/thumb/v7e-m+dp/hard/bits/gthr-default.h **** static inline int
 174:/Library/DaisyToolchain/0.2.0/arm/arm-none-eabi/include/c++/10.3.1/arm-none-eabi/thumb/v7e-m+dp/hard/bits/gthr-default.h **** __gthread_objc_condition_allocate (objc_condition_t condition _GLIBCXX_UNUSED)
 175:/Library/DaisyToolchain/0.2.0/arm/arm-none-eabi/include/c++/10.3.1/arm-none-eabi/thumb/v7e-m+dp/hard/bits/gthr-default.h **** {
 176:/Library/DaisyToolchain/0.2.0/arm/arm-none-eabi/include/c++/10.3.1/arm-none-eabi/thumb/v7e-m+dp/hard/bits/gthr-default.h ****   return 0;
 177:/Library/DaisyToolchain/0.2.0/arm/arm-none-eabi/include/c++/10.3.1/arm-none-eabi/thumb/v7e-m+dp/hard/bits/gthr-default.h **** }
 178:/Library/DaisyToolchain/0.2.0/arm/arm-none-eabi/include/c++/10.3.1/arm-none-eabi/thumb/v7e-m+dp/hard/bits/gthr-default.h **** 
 179:/Library/DaisyToolchain/0.2.0/arm/arm-none-eabi/include/c++/10.3.1/arm-none-eabi/thumb/v7e-m+dp/hard/bits/gthr-default.h **** /* Deallocate a condition.  */
 180:/Library/DaisyToolchain/0.2.0/arm/arm-none-eabi/include/c++/10.3.1/arm-none-eabi/thumb/v7e-m+dp/hard/bits/gthr-default.h **** static inline int
 181:/Library/DaisyToolchain/0.2.0/arm/arm-none-eabi/include/c++/10.3.1/arm-none-eabi/thumb/v7e-m+dp/hard/bits/gthr-default.h **** __gthread_objc_condition_deallocate (objc_condition_t condition _GLIBCXX_UNUSED)
 182:/Library/DaisyToolchain/0.2.0/arm/arm-none-eabi/include/c++/10.3.1/arm-none-eabi/thumb/v7e-m+dp/hard/bits/gthr-default.h **** {
 183:/Library/DaisyToolchain/0.2.0/arm/arm-none-eabi/include/c++/10.3.1/arm-none-eabi/thumb/v7e-m+dp/hard/bits/gthr-default.h ****   return 0;
 184:/Library/DaisyToolchain/0.2.0/arm/arm-none-eabi/include/c++/10.3.1/arm-none-eabi/thumb/v7e-m+dp/hard/bits/gthr-default.h **** }
 185:/Library/DaisyToolchain/0.2.0/arm/arm-none-eabi/include/c++/10.3.1/arm-none-eabi/thumb/v7e-m+dp/hard/bits/gthr-default.h **** 
 186:/Library/DaisyToolchain/0.2.0/arm/arm-none-eabi/include/c++/10.3.1/arm-none-eabi/thumb/v7e-m+dp/hard/bits/gthr-default.h **** /* Wait on the condition */
 187:/Library/DaisyToolchain/0.2.0/arm/arm-none-eabi/include/c++/10.3.1/arm-none-eabi/thumb/v7e-m+dp/hard/bits/gthr-default.h **** static inline int
ARM GAS  /var/folders/2p/02m_5p7958535cp2tpgps0400000gn/T//ccFG1CTd.s 			page 18


 188:/Library/DaisyToolchain/0.2.0/arm/arm-none-eabi/include/c++/10.3.1/arm-none-eabi/thumb/v7e-m+dp/hard/bits/gthr-default.h **** __gthread_objc_condition_wait (objc_condition_t condition _GLIBCXX_UNUSED,
 189:/Library/DaisyToolchain/0.2.0/arm/arm-none-eabi/include/c++/10.3.1/arm-none-eabi/thumb/v7e-m+dp/hard/bits/gthr-default.h **** 			       objc_mutex_t mutex _GLIBCXX_UNUSED)
 190:/Library/DaisyToolchain/0.2.0/arm/arm-none-eabi/include/c++/10.3.1/arm-none-eabi/thumb/v7e-m+dp/hard/bits/gthr-default.h **** {
 191:/Library/DaisyToolchain/0.2.0/arm/arm-none-eabi/include/c++/10.3.1/arm-none-eabi/thumb/v7e-m+dp/hard/bits/gthr-default.h ****   return 0;
 192:/Library/DaisyToolchain/0.2.0/arm/arm-none-eabi/include/c++/10.3.1/arm-none-eabi/thumb/v7e-m+dp/hard/bits/gthr-default.h **** }
 193:/Library/DaisyToolchain/0.2.0/arm/arm-none-eabi/include/c++/10.3.1/arm-none-eabi/thumb/v7e-m+dp/hard/bits/gthr-default.h **** 
 194:/Library/DaisyToolchain/0.2.0/arm/arm-none-eabi/include/c++/10.3.1/arm-none-eabi/thumb/v7e-m+dp/hard/bits/gthr-default.h **** /* Wake up all threads waiting on this condition.  */
 195:/Library/DaisyToolchain/0.2.0/arm/arm-none-eabi/include/c++/10.3.1/arm-none-eabi/thumb/v7e-m+dp/hard/bits/gthr-default.h **** static inline int
 196:/Library/DaisyToolchain/0.2.0/arm/arm-none-eabi/include/c++/10.3.1/arm-none-eabi/thumb/v7e-m+dp/hard/bits/gthr-default.h **** __gthread_objc_condition_broadcast (objc_condition_t condition _GLIBCXX_UNUSED)
 197:/Library/DaisyToolchain/0.2.0/arm/arm-none-eabi/include/c++/10.3.1/arm-none-eabi/thumb/v7e-m+dp/hard/bits/gthr-default.h **** {
 198:/Library/DaisyToolchain/0.2.0/arm/arm-none-eabi/include/c++/10.3.1/arm-none-eabi/thumb/v7e-m+dp/hard/bits/gthr-default.h ****   return 0;
 199:/Library/DaisyToolchain/0.2.0/arm/arm-none-eabi/include/c++/10.3.1/arm-none-eabi/thumb/v7e-m+dp/hard/bits/gthr-default.h **** }
 200:/Library/DaisyToolchain/0.2.0/arm/arm-none-eabi/include/c++/10.3.1/arm-none-eabi/thumb/v7e-m+dp/hard/bits/gthr-default.h **** 
 201:/Library/DaisyToolchain/0.2.0/arm/arm-none-eabi/include/c++/10.3.1/arm-none-eabi/thumb/v7e-m+dp/hard/bits/gthr-default.h **** /* Wake up one thread waiting on this condition.  */
 202:/Library/DaisyToolchain/0.2.0/arm/arm-none-eabi/include/c++/10.3.1/arm-none-eabi/thumb/v7e-m+dp/hard/bits/gthr-default.h **** static inline int
 203:/Library/DaisyToolchain/0.2.0/arm/arm-none-eabi/include/c++/10.3.1/arm-none-eabi/thumb/v7e-m+dp/hard/bits/gthr-default.h **** __gthread_objc_condition_signal (objc_condition_t condition _GLIBCXX_UNUSED)
 204:/Library/DaisyToolchain/0.2.0/arm/arm-none-eabi/include/c++/10.3.1/arm-none-eabi/thumb/v7e-m+dp/hard/bits/gthr-default.h **** {
 205:/Library/DaisyToolchain/0.2.0/arm/arm-none-eabi/include/c++/10.3.1/arm-none-eabi/thumb/v7e-m+dp/hard/bits/gthr-default.h ****   return 0;
 206:/Library/DaisyToolchain/0.2.0/arm/arm-none-eabi/include/c++/10.3.1/arm-none-eabi/thumb/v7e-m+dp/hard/bits/gthr-default.h **** }
 207:/Library/DaisyToolchain/0.2.0/arm/arm-none-eabi/include/c++/10.3.1/arm-none-eabi/thumb/v7e-m+dp/hard/bits/gthr-default.h **** 
 208:/Library/DaisyToolchain/0.2.0/arm/arm-none-eabi/include/c++/10.3.1/arm-none-eabi/thumb/v7e-m+dp/hard/bits/gthr-default.h **** #else /* _LIBOBJC */
 209:/Library/DaisyToolchain/0.2.0/arm/arm-none-eabi/include/c++/10.3.1/arm-none-eabi/thumb/v7e-m+dp/hard/bits/gthr-default.h **** 
 210:/Library/DaisyToolchain/0.2.0/arm/arm-none-eabi/include/c++/10.3.1/arm-none-eabi/thumb/v7e-m+dp/hard/bits/gthr-default.h **** static inline int
 211:/Library/DaisyToolchain/0.2.0/arm/arm-none-eabi/include/c++/10.3.1/arm-none-eabi/thumb/v7e-m+dp/hard/bits/gthr-default.h **** __gthread_active_p (void)
 212:/Library/DaisyToolchain/0.2.0/arm/arm-none-eabi/include/c++/10.3.1/arm-none-eabi/thumb/v7e-m+dp/hard/bits/gthr-default.h **** {
 213:/Library/DaisyToolchain/0.2.0/arm/arm-none-eabi/include/c++/10.3.1/arm-none-eabi/thumb/v7e-m+dp/hard/bits/gthr-default.h ****   return 0;
 214:/Library/DaisyToolchain/0.2.0/arm/arm-none-eabi/include/c++/10.3.1/arm-none-eabi/thumb/v7e-m+dp/hard/bits/gthr-default.h **** }
 215:/Library/DaisyToolchain/0.2.0/arm/arm-none-eabi/include/c++/10.3.1/arm-none-eabi/thumb/v7e-m+dp/hard/bits/gthr-default.h **** 
 216:/Library/DaisyToolchain/0.2.0/arm/arm-none-eabi/include/c++/10.3.1/arm-none-eabi/thumb/v7e-m+dp/hard/bits/gthr-default.h **** static inline int
 217:/Library/DaisyToolchain/0.2.0/arm/arm-none-eabi/include/c++/10.3.1/arm-none-eabi/thumb/v7e-m+dp/hard/bits/gthr-default.h **** __gthread_once (__gthread_once_t *__once _GLIBCXX_UNUSED, void (*__func) (void) _GLIBCXX_UNUSED)
 218:/Library/DaisyToolchain/0.2.0/arm/arm-none-eabi/include/c++/10.3.1/arm-none-eabi/thumb/v7e-m+dp/hard/bits/gthr-default.h **** {
 219:/Library/DaisyToolchain/0.2.0/arm/arm-none-eabi/include/c++/10.3.1/arm-none-eabi/thumb/v7e-m+dp/hard/bits/gthr-default.h ****   return 0;
 220:/Library/DaisyToolchain/0.2.0/arm/arm-none-eabi/include/c++/10.3.1/arm-none-eabi/thumb/v7e-m+dp/hard/bits/gthr-default.h **** }
 221:/Library/DaisyToolchain/0.2.0/arm/arm-none-eabi/include/c++/10.3.1/arm-none-eabi/thumb/v7e-m+dp/hard/bits/gthr-default.h **** 
 222:/Library/DaisyToolchain/0.2.0/arm/arm-none-eabi/include/c++/10.3.1/arm-none-eabi/thumb/v7e-m+dp/hard/bits/gthr-default.h **** static inline int _GLIBCXX_UNUSED
 223:/Library/DaisyToolchain/0.2.0/arm/arm-none-eabi/include/c++/10.3.1/arm-none-eabi/thumb/v7e-m+dp/hard/bits/gthr-default.h **** __gthread_key_create (__gthread_key_t *__key _GLIBCXX_UNUSED, void (*__func) (void *) _GLIBCXX_UNUS
 224:/Library/DaisyToolchain/0.2.0/arm/arm-none-eabi/include/c++/10.3.1/arm-none-eabi/thumb/v7e-m+dp/hard/bits/gthr-default.h **** {
 225:/Library/DaisyToolchain/0.2.0/arm/arm-none-eabi/include/c++/10.3.1/arm-none-eabi/thumb/v7e-m+dp/hard/bits/gthr-default.h ****   return 0;
 226:/Library/DaisyToolchain/0.2.0/arm/arm-none-eabi/include/c++/10.3.1/arm-none-eabi/thumb/v7e-m+dp/hard/bits/gthr-default.h **** }
 227:/Library/DaisyToolchain/0.2.0/arm/arm-none-eabi/include/c++/10.3.1/arm-none-eabi/thumb/v7e-m+dp/hard/bits/gthr-default.h **** 
 228:/Library/DaisyToolchain/0.2.0/arm/arm-none-eabi/include/c++/10.3.1/arm-none-eabi/thumb/v7e-m+dp/hard/bits/gthr-default.h **** static int _GLIBCXX_UNUSED
 229:/Library/DaisyToolchain/0.2.0/arm/arm-none-eabi/include/c++/10.3.1/arm-none-eabi/thumb/v7e-m+dp/hard/bits/gthr-default.h **** __gthread_key_delete (__gthread_key_t __key _GLIBCXX_UNUSED)
 230:/Library/DaisyToolchain/0.2.0/arm/arm-none-eabi/include/c++/10.3.1/arm-none-eabi/thumb/v7e-m+dp/hard/bits/gthr-default.h **** {
 428              		.loc 2 230 1
 429              		.cfi_startproc
 430              		@ args = 0, pretend = 0, frame = 8
 431              		@ frame_needed = 1, uses_anonymous_args = 0
 432              		@ link register save eliminated.
 433 0000 80B4     		push	{r7}
 434              		.cfi_def_cfa_offset 4
 435              		.cfi_offset 7, -4
 436 0002 83B0     		sub	sp, sp, #12
 437              		.cfi_def_cfa_offset 16
 438 0004 00AF     		add	r7, sp, #0
 439              		.cfi_def_cfa_register 7
 440 0006 7860     		str	r0, [r7, #4]
 231:/Library/DaisyToolchain/0.2.0/arm/arm-none-eabi/include/c++/10.3.1/arm-none-eabi/thumb/v7e-m+dp/hard/bits/gthr-default.h ****   return 0;
ARM GAS  /var/folders/2p/02m_5p7958535cp2tpgps0400000gn/T//ccFG1CTd.s 			page 19


 441              		.loc 2 231 10
 442 0008 0023     		movs	r3, #0
 232:/Library/DaisyToolchain/0.2.0/arm/arm-none-eabi/include/c++/10.3.1/arm-none-eabi/thumb/v7e-m+dp/hard/bits/gthr-default.h **** }
 443              		.loc 2 232 1
 444 000a 1846     		mov	r0, r3
 445 000c 0C37     		adds	r7, r7, #12
 446              		.cfi_def_cfa_offset 4
 447 000e BD46     		mov	sp, r7
 448              		.cfi_def_cfa_register 13
 449              		@ sp needed
 450 0010 5DF8047B 		ldr	r7, [sp], #4
 451              		.cfi_restore 7
 452              		.cfi_def_cfa_offset 0
 453 0014 7047     		bx	lr
 454              		.cfi_endproc
 455              	.LFE2854:
 457              		.section	.rodata._ZN7daisyspL9kRandFracE,"a"
 458              		.align	2
 461              	_ZN7daisyspL9kRandFracE:
 462 0000 00000030 		.word	805306368
 463              		.section	.rodata._ZN7daisyspL11kOneTwelfthE,"a"
 464              		.align	2
 467              	_ZN7daisyspL11kOneTwelfthE:
 468 0000 ABAAAA3D 		.word	1034594987
 469              		.section	.rodata._ZL11SAMPLE_RATE,"a"
 470              		.align	2
 473              	_ZL11SAMPLE_RATE:
 474 0000 80BB0000 		.word	48000
 475              		.section	.rodata._ZL17SAMPLE_RATE_FLOAT,"a"
 476              		.align	2
 479              	_ZL17SAMPLE_RATE_FLOAT:
 480 0000 00803B47 		.word	1195081728
 481              		.section	.rodata._ZL9BIT_DEPTH,"a"
 482              		.align	2
 485              	_ZL9BIT_DEPTH:
 486 0000 10000000 		.word	16
 487              		.section	.rodata._ZL10DELAY_TIME,"a"
 488              		.align	2
 491              	_ZL10DELAY_TIME:
 492 0000 00770100 		.word	96000
 493              		.section	.rodata._ZL15MAX_REC_OUT_LEN,"a"
 494              		.align	2
 497              	_ZL15MAX_REC_OUT_LEN:
 498 0000 78000000 		.word	120
 499              		.section	.rodata._ZL17CHNL_BUF_SIZE_ABS,"a"
 500              		.align	2
 503              	_ZL17CHNL_BUF_SIZE_ABS:
 504 0000 00000001 		.word	16777216
 505              		.section	.rodata._ZL19CHNL_BUF_SIZE_SAMPS,"a"
 506              		.align	2
 509              	_ZL19CHNL_BUF_SIZE_SAMPS:
 510 0000 00008000 		.word	8388608
 511              		.section	.rodata._ZL12BUF_CHUNK_SZ,"a"
 512              		.align	2
 515              	_ZL12BUF_CHUNK_SZ:
 516 0000 00400000 		.word	16384
 517              		.section	.rodata._ZL9MAX_FILES,"a"
ARM GAS  /var/folders/2p/02m_5p7958535cp2tpgps0400000gn/T//ccFG1CTd.s 			page 20


 518              		.align	1
 521              	_ZL9MAX_FILES:
 522 0000 2000     		.short	32
 523              		.section	.rodata._ZL13MAX_FNAME_LEN,"a"
 524              		.align	1
 527              	_ZL13MAX_FNAME_LEN:
 528 0000 8000     		.short	128
 529              		.section	.rodata._ZL10MIN_GRAINS,"a"
 530              		.align	2
 533              	_ZL10MIN_GRAINS:
 534 0000 01000000 		.word	1
 535              		.section	.rodata._ZL10MAX_GRAINS,"a"
 536              		.align	2
 539              	_ZL10MAX_GRAINS:
 540 0000 0A000000 		.word	10
 541              		.section	.rodata._ZL25GRAIN_INCREASE_SMOOTHNESS,"a"
 542              		.align	2
 545              	_ZL25GRAIN_INCREASE_SMOOTHNESS:
 546 0000 A4707D3F 		.word	1065185444
 547              		.section	.rodata._ZL15NUM_SYNTH_MODES,"a"
 548              		.align	2
 551              	_ZL15NUM_SYNTH_MODES:
 552 0000 08000000 		.word	8
 553              		.section	.rodata._ZL22PARAM_CHANGE_THRESHOLD,"a"
 554              		.align	2
 557              	_ZL22PARAM_CHANGE_THRESHOLD:
 558 0000 0AD7233C 		.word	1008981770
 559              		.section	.rodata._ZL17MIN_GRAIN_SIZE_MS,"a"
 560              		.align	2
 563              	_ZL17MIN_GRAIN_SIZE_MS:
 564 0000 0000C842 		.word	1120403456
 565              		.section	.rodata._ZL17MAX_GRAIN_SIZE_MS,"a"
 566              		.align	2
 569              	_ZL17MAX_GRAIN_SIZE_MS:
 570 0000 00803B45 		.word	1161527296
 571              		.section	.rodata._ZL22MIN_GRAIN_SIZE_SAMPLES,"a"
 572              		.align	2
 575              	_ZL22MIN_GRAIN_SIZE_SAMPLES:
 576 0000 C0120000 		.word	4800
 577              		.section	.rodata._ZL22MAX_GRAIN_SIZE_SAMPLES,"a"
 578              		.align	2
 581              	_ZL22MAX_GRAIN_SIZE_SAMPLES:
 582 0000 80320200 		.word	144000
 583              		.section	.rodata._ZL9MIN_PITCH,"a"
 584              		.align	2
 587              	_ZL9MIN_PITCH:
 588 0000 0000003F 		.word	1056964608
 589              		.section	.rodata._ZL9MAX_PITCH,"a"
 590              		.align	2
 593              	_ZL9MAX_PITCH:
 594 0000 00004040 		.word	1077936128
 595              		.section	.rodata._ZL14DEBOUNCE_DELAY,"a"
 596              		.align	2
 599              	_ZL14DEBOUNCE_DELAY:
 600 0000 32000000 		.word	50
 601              		.section	.rodata._ZL15LONG_PRESS_TIME,"a"
 602              		.align	2
ARM GAS  /var/folders/2p/02m_5p7958535cp2tpgps0400000gn/T//ccFG1CTd.s 			page 21


 605              	_ZL15LONG_PRESS_TIME:
 606 0000 E8030000 		.word	1000
 607              		.section	.rodata._ZL18HIPASS_LOWER_BOUND,"a"
 608              		.align	2
 611              	_ZL18HIPASS_LOWER_BOUND:
 612 0000 17B7D139 		.word	970045207
 613              		.section	.rodata._ZL18HIPASS_UPPER_BOUND,"a"
 614              		.align	2
 617              	_ZL18HIPASS_UPPER_BOUND:
 618 0000 0AD7233C 		.word	1008981770
 619              		.section	.rodata._ZL18LOPASS_LOWER_BOUND,"a"
 620              		.align	2
 623              	_ZL18LOPASS_LOWER_BOUND:
 624 0000 0000A041 		.word	1101004800
 625              		.section	.rodata._ZL18LOPASS_UPPER_BOUND,"a"
 626              		.align	2
 629              	_ZL18LOPASS_UPPER_BOUND:
 630 0000 00A08C46 		.word	1183621120
 631              		.section	.rodata._ZL10HICUT_FREQ,"a"
 632              		.align	2
 635              	_ZL10HICUT_FREQ:
 636 0000 0000B03E 		.word	1051721728
 637              		.section	.rodata._ZL6halfpi,"a"
 638              		.align	2
 641              	_ZL6halfpi:
 642 0000 DB0FC93F 		.word	1070141403
 643              		.section	.text._ZN11GrainPhasor4InitEjf,"axG",%progbits,_ZN11GrainPhasor4InitEjf,comdat
 644              		.align	1
 645              		.weak	_ZN11GrainPhasor4InitEjf
 646              		.syntax unified
 647              		.thumb
 648              		.thumb_func
 650              	_ZN11GrainPhasor4InitEjf:
 651              	.LFB4864:
 652              		.file 3 "GrainPhasor.h"
   1:GrainPhasor.h **** #include "constants_utils.h"
   2:GrainPhasor.h **** class GrainPhasor {
   3:GrainPhasor.h ****   public:
   4:GrainPhasor.h **** 
   5:GrainPhasor.h ****     GrainPhasor(): 
   6:GrainPhasor.h ****       phase_(0.0f), increment_(0.0f), grain_finished_(false) {};
   7:GrainPhasor.h **** 
   8:GrainPhasor.h ****     ~GrainPhasor() {};
   9:GrainPhasor.h **** 
  10:GrainPhasor.h ****     void Init(size_t grain_size, float pitch_ratio){
 653              		.loc 3 10 10
 654              		.cfi_startproc
 655              		@ args = 0, pretend = 0, frame = 16
 656              		@ frame_needed = 1, uses_anonymous_args = 0
 657              		@ link register save eliminated.
 658 0000 80B4     		push	{r7}
 659              		.cfi_def_cfa_offset 4
 660              		.cfi_offset 7, -4
 661 0002 85B0     		sub	sp, sp, #20
 662              		.cfi_def_cfa_offset 24
 663 0004 00AF     		add	r7, sp, #0
 664              		.cfi_def_cfa_register 7
ARM GAS  /var/folders/2p/02m_5p7958535cp2tpgps0400000gn/T//ccFG1CTd.s 			page 22


 665 0006 F860     		str	r0, [r7, #12]
 666 0008 B960     		str	r1, [r7, #8]
 667 000a 87ED010A 		vstr.32	s0, [r7, #4]
  11:GrainPhasor.h ****       increment_ = pitch_ratio/static_cast<float>(grain_size);
 668              		.loc 3 11 32
 669 000e BB68     		ldr	r3, [r7, #8]
 670 0010 07EE903A 		vmov	s15, r3	@ int
 671 0014 B8EE677A 		vcvt.f32.u32	s14, s15
 672              		.loc 3 11 31
 673 0018 D7ED016A 		vldr.32	s13, [r7, #4]
 674 001c C6EE877A 		vdiv.f32	s15, s13, s14
 675              		.loc 3 11 18
 676 0020 FB68     		ldr	r3, [r7, #12]
 677 0022 C3ED017A 		vstr.32	s15, [r3, #4]
  12:GrainPhasor.h ****       phase_ = 0.0f;
 678              		.loc 3 12 14
 679 0026 FB68     		ldr	r3, [r7, #12]
 680 0028 4FF00002 		mov	r2, #0
 681 002c 1A60     		str	r2, [r3]	@ float
  13:GrainPhasor.h ****       grain_finished_ = false;
 682              		.loc 3 13 23
 683 002e FB68     		ldr	r3, [r7, #12]
 684 0030 0022     		movs	r2, #0
 685 0032 1A72     		strb	r2, [r3, #8]
  14:GrainPhasor.h ****     }
 686              		.loc 3 14 5
 687 0034 00BF     		nop
 688 0036 1437     		adds	r7, r7, #20
 689              		.cfi_def_cfa_offset 4
 690 0038 BD46     		mov	sp, r7
 691              		.cfi_def_cfa_register 13
 692              		@ sp needed
 693 003a 5DF8047B 		ldr	r7, [sp], #4
 694              		.cfi_restore 7
 695              		.cfi_def_cfa_offset 0
 696 003e 7047     		bx	lr
 697              		.cfi_endproc
 698              	.LFE4864:
 700              		.section	.text._ZN11GrainPhasor13GrainFinishedEv,"axG",%progbits,_ZN11GrainPhasor13GrainFinishedEv
 701              		.align	1
 702              		.weak	_ZN11GrainPhasor13GrainFinishedEv
 703              		.syntax unified
 704              		.thumb
 705              		.thumb_func
 707              	_ZN11GrainPhasor13GrainFinishedEv:
 708              	.LFB4866:
  15:GrainPhasor.h **** 
  16:GrainPhasor.h ****     void Reset(){
  17:GrainPhasor.h ****       phase_ = 0.0f;
  18:GrainPhasor.h ****     }
  19:GrainPhasor.h **** 
  20:GrainPhasor.h ****     bool GrainFinished(){
 709              		.loc 3 20 10
 710              		.cfi_startproc
 711              		@ args = 0, pretend = 0, frame = 8
 712              		@ frame_needed = 1, uses_anonymous_args = 0
 713              		@ link register save eliminated.
ARM GAS  /var/folders/2p/02m_5p7958535cp2tpgps0400000gn/T//ccFG1CTd.s 			page 23


 714 0000 80B4     		push	{r7}
 715              		.cfi_def_cfa_offset 4
 716              		.cfi_offset 7, -4
 717 0002 83B0     		sub	sp, sp, #12
 718              		.cfi_def_cfa_offset 16
 719 0004 00AF     		add	r7, sp, #0
 720              		.cfi_def_cfa_register 7
 721 0006 7860     		str	r0, [r7, #4]
  21:GrainPhasor.h ****       return grain_finished_;
 722              		.loc 3 21 14
 723 0008 7B68     		ldr	r3, [r7, #4]
 724 000a 1B7A     		ldrb	r3, [r3, #8]	@ zero_extendqisi2
  22:GrainPhasor.h ****     }
 725              		.loc 3 22 5
 726 000c 1846     		mov	r0, r3
 727 000e 0C37     		adds	r7, r7, #12
 728              		.cfi_def_cfa_offset 4
 729 0010 BD46     		mov	sp, r7
 730              		.cfi_def_cfa_register 13
 731              		@ sp needed
 732 0012 5DF8047B 		ldr	r7, [sp], #4
 733              		.cfi_restore 7
 734              		.cfi_def_cfa_offset 0
 735 0016 7047     		bx	lr
 736              		.cfi_endproc
 737              	.LFE4866:
 739              		.section	.text._ZN11GrainPhasor7ProcessEv,"axG",%progbits,_ZN11GrainPhasor7ProcessEv,comdat
 740              		.align	1
 741              		.weak	_ZN11GrainPhasor7ProcessEv
 742              		.syntax unified
 743              		.thumb
 744              		.thumb_func
 746              	_ZN11GrainPhasor7ProcessEv:
 747              	.LFB4867:
  23:GrainPhasor.h **** 
  24:GrainPhasor.h ****     float Process(){
 748              		.loc 3 24 11
 749              		.cfi_startproc
 750              		@ args = 0, pretend = 0, frame = 8
 751              		@ frame_needed = 1, uses_anonymous_args = 0
 752              		@ link register save eliminated.
 753 0000 80B4     		push	{r7}
 754              		.cfi_def_cfa_offset 4
 755              		.cfi_offset 7, -4
 756 0002 83B0     		sub	sp, sp, #12
 757              		.cfi_def_cfa_offset 16
 758 0004 00AF     		add	r7, sp, #0
 759              		.cfi_def_cfa_register 7
 760 0006 7860     		str	r0, [r7, #4]
  25:GrainPhasor.h ****       if (grain_finished_) { return 0.0f; }
 761              		.loc 3 25 11
 762 0008 7B68     		ldr	r3, [r7, #4]
 763 000a 1B7A     		ldrb	r3, [r3, #8]	@ zero_extendqisi2
 764              		.loc 3 25 7
 765 000c 002B     		cmp	r3, #0
 766 000e 02D0     		beq	.L9
 767              		.loc 3 25 37 discriminator 1
ARM GAS  /var/folders/2p/02m_5p7958535cp2tpgps0400000gn/T//ccFG1CTd.s 			page 24


 768 0010 4FF00003 		mov	r3, #0
 769 0014 1DE0     		b	.L10
 770              	.L9:
  26:GrainPhasor.h ****       phase_ = phase_ + increment_;
 771              		.loc 3 26 16
 772 0016 7B68     		ldr	r3, [r7, #4]
 773 0018 93ED007A 		vldr.32	s14, [r3]
 774              		.loc 3 26 25
 775 001c 7B68     		ldr	r3, [r7, #4]
 776 001e D3ED017A 		vldr.32	s15, [r3, #4]
 777              		.loc 3 26 23
 778 0022 77EE277A 		vadd.f32	s15, s14, s15
 779              		.loc 3 26 14
 780 0026 7B68     		ldr	r3, [r7, #4]
 781 0028 C3ED007A 		vstr.32	s15, [r3]
  27:GrainPhasor.h ****       if (phase_>1.0f){
 782              		.loc 3 27 11
 783 002c 7B68     		ldr	r3, [r7, #4]
 784 002e D3ED007A 		vldr.32	s15, [r3]
 785              		.loc 3 27 7
 786 0032 B7EE007A 		vmov.f32	s14, #1.0e+0
 787 0036 F4EEC77A 		vcmpe.f32	s15, s14
 788 003a F1EE10FA 		vmrs	APSR_nzcv, FPSCR
 789 003e 06DD     		ble	.L11
  28:GrainPhasor.h ****         grain_finished_ = true;
 790              		.loc 3 28 25
 791 0040 7B68     		ldr	r3, [r7, #4]
 792 0042 0122     		movs	r2, #1
 793 0044 1A72     		strb	r2, [r3, #8]
  29:GrainPhasor.h ****         phase_ =0.0f;
 794              		.loc 3 29 16
 795 0046 7B68     		ldr	r3, [r7, #4]
 796 0048 4FF00002 		mov	r2, #0
 797 004c 1A60     		str	r2, [r3]	@ float
 798              	.L11:
  30:GrainPhasor.h ****       }
  31:GrainPhasor.h ****       return phase_;
 799              		.loc 3 31 14
 800 004e 7B68     		ldr	r3, [r7, #4]
 801 0050 1B68     		ldr	r3, [r3]	@ float
 802              	.L10:
  32:GrainPhasor.h ****     }
 803              		.loc 3 32 5
 804 0052 07EE903A 		vmov	s15, r3
 805 0056 B0EE670A 		vmov.f32	s0, s15
 806 005a 0C37     		adds	r7, r7, #12
 807              		.cfi_def_cfa_offset 4
 808 005c BD46     		mov	sp, r7
 809              		.cfi_def_cfa_register 13
 810              		@ sp needed
 811 005e 5DF8047B 		ldr	r7, [sp], #4
 812              		.cfi_restore 7
 813              		.cfi_def_cfa_offset 0
 814 0062 7047     		bx	lr
 815              		.cfi_endproc
 816              	.LFE4867:
 818              		.global	_ZN5Grain10audio_len_E
ARM GAS  /var/folders/2p/02m_5p7958535cp2tpgps0400000gn/T//ccFG1CTd.s 			page 25


 819              		.section	.bss._ZN5Grain10audio_len_E,"aw",%nobits
 820              		.align	2
 823              	_ZN5Grain10audio_len_E:
 824 0000 00000000 		.space	4
 825              		.global	_ZN5Grain9left_buf_E
 826              		.section	.bss._ZN5Grain9left_buf_E,"aw",%nobits
 827              		.align	2
 830              	_ZN5Grain9left_buf_E:
 831 0000 00000000 		.space	4
 832              		.global	_ZN5Grain10right_buf_E
 833              		.section	.bss._ZN5Grain10right_buf_E,"aw",%nobits
 834              		.align	2
 837              	_ZN5Grain10right_buf_E:
 838 0000 00000000 		.space	4
 839              		.global	_ZN5Grain12start_decay_E
 840              		.section	.rodata._ZN5Grain12start_decay_E,"a"
 841              		.align	2
 844              	_ZN5Grain12start_decay_E:
 845 0000 CDCC4C3F 		.word	1061997773
 846              		.global	_ZN5Grain11decay_rate_E
 847              		.section	.rodata._ZN5Grain11decay_rate_E,"a"
 848              		.align	2
 851              	_ZN5Grain11decay_rate_E:
 852 0000 0000A040 		.word	1084227584
 853              		.section	.text._ZN5Grain4InitEv,"ax",%progbits
 854              		.align	1
 855              		.global	_ZN5Grain4InitEv
 856              		.syntax unified
 857              		.thumb
 858              		.thumb_func
 860              	_ZN5Grain4InitEv:
 861              	.LFB4871:
 862              		.file 4 "Grain.cpp"
   1:Grain.cpp     **** #include "Grain.h"
   2:Grain.cpp     **** 
   3:Grain.cpp     **** size_t Grain::audio_len_;
   4:Grain.cpp     **** int16_t* Grain::left_buf_;
   5:Grain.cpp     **** int16_t* Grain::right_buf_;
   6:Grain.cpp     **** 
   7:Grain.cpp     **** const float Grain::start_decay_ = 0.8f;
   8:Grain.cpp     **** const float Grain::decay_rate_ = 5.0f;
   9:Grain.cpp     **** 
  10:Grain.cpp     **** /// @brief Initialise the Grain instance and its Phasor object 
  11:Grain.cpp     **** /// @param len Length in samples of the audio file loaded in the buffers
  12:Grain.cpp     **** void Grain::Init(){
 863              		.loc 4 12 19
 864              		.cfi_startproc
 865              		@ args = 0, pretend = 0, frame = 8
 866              		@ frame_needed = 1, uses_anonymous_args = 0
 867 0000 80B5     		push	{r7, lr}
 868              		.cfi_def_cfa_offset 8
 869              		.cfi_offset 7, -8
 870              		.cfi_offset 14, -4
 871 0002 82B0     		sub	sp, sp, #8
 872              		.cfi_def_cfa_offset 16
 873 0004 00AF     		add	r7, sp, #0
 874              		.cfi_def_cfa_register 7
ARM GAS  /var/folders/2p/02m_5p7958535cp2tpgps0400000gn/T//ccFG1CTd.s 			page 26


 875 0006 7860     		str	r0, [r7, #4]
  13:Grain.cpp     ****   phasor_.Init(0.0f, 1.0f);
 876              		.loc 4 13 15
 877 0008 7B68     		ldr	r3, [r7, #4]
 878 000a 0433     		adds	r3, r3, #4
 879 000c B7EE000A 		vmov.f32	s0, #1.0e+0
 880 0010 0021     		movs	r1, #0
 881 0012 1846     		mov	r0, r3
 882 0014 FFF7FEFF 		bl	_ZN11GrainPhasor4InitEjf
  14:Grain.cpp     **** }
 883              		.loc 4 14 1
 884 0018 00BF     		nop
 885 001a 0837     		adds	r7, r7, #8
 886              		.cfi_def_cfa_offset 8
 887 001c BD46     		mov	sp, r7
 888              		.cfi_def_cfa_register 13
 889              		@ sp needed
 890 001e 80BD     		pop	{r7, pc}
 891              		.cfi_endproc
 892              	.LFE4871:
 894              		.section	.text._ZN5Grain7TriggerEjjff,"ax",%progbits
 895              		.align	1
 896              		.global	_ZN5Grain7TriggerEjjff
 897              		.syntax unified
 898              		.thumb
 899              		.thumb_func
 901              	_ZN5Grain7TriggerEjjff:
 902              	.LFB4872:
  15:Grain.cpp     **** 
  16:Grain.cpp     **** /// @brief Causes a grain to start playing and assigns its parameters
  17:Grain.cpp     **** /// @param pos Spawn position of the grain, within the audio buffer 
  18:Grain.cpp     **** /// @param grain_size Length of the grain in samples
  19:Grain.cpp     **** /// @param pitch_ratio Pitch of the grain - 1 plays the grain at its regular pitch
  20:Grain.cpp     **** /// @param pan Position of the grain's audio output in the stereo field
  21:Grain.cpp     **** void Grain::Trigger(size_t pos, size_t grain_size, float pitch_ratio, float pan) {
 903              		.loc 4 21 82
 904              		.cfi_startproc
 905              		@ args = 0, pretend = 0, frame = 24
 906              		@ frame_needed = 1, uses_anonymous_args = 0
 907 0000 80B5     		push	{r7, lr}
 908              		.cfi_def_cfa_offset 8
 909              		.cfi_offset 7, -8
 910              		.cfi_offset 14, -4
 911 0002 86B0     		sub	sp, sp, #24
 912              		.cfi_def_cfa_offset 32
 913 0004 00AF     		add	r7, sp, #0
 914              		.cfi_def_cfa_register 7
 915 0006 7861     		str	r0, [r7, #20]
 916 0008 3961     		str	r1, [r7, #16]
 917 000a FA60     		str	r2, [r7, #12]
 918 000c 87ED020A 		vstr.32	s0, [r7, #8]
 919 0010 C7ED010A 		vstr.32	s1, [r7, #4]
  22:Grain.cpp     ****   if (pos >= audio_len_) pos -= audio_len_;
 920              		.loc 4 22 11
 921 0014 164B     		ldr	r3, .L17
 922 0016 1B68     		ldr	r3, [r3]
 923              		.loc 4 22 3
ARM GAS  /var/folders/2p/02m_5p7958535cp2tpgps0400000gn/T//ccFG1CTd.s 			page 27


 924 0018 3A69     		ldr	r2, [r7, #16]
 925 001a 9A42     		cmp	r2, r3
 926 001c 04D3     		bcc	.L16
 927              		.loc 4 22 30 discriminator 1
 928 001e 144B     		ldr	r3, .L17
 929 0020 1B68     		ldr	r3, [r3]
 930 0022 3A69     		ldr	r2, [r7, #16]
 931 0024 D31A     		subs	r3, r2, r3
 932 0026 3B61     		str	r3, [r7, #16]
 933              	.L16:
  23:Grain.cpp     ****   // spawn_pos_ = pos;
  24:Grain.cpp     ****   SetSpawnPos(pos);
 934              		.loc 4 24 14
 935 0028 3969     		ldr	r1, [r7, #16]
 936 002a 7869     		ldr	r0, [r7, #20]
 937 002c FFF7FEFF 		bl	_ZN5Grain11SetSpawnPosEj
  25:Grain.cpp     ****   SetGrainSize(grain_size);
 938              		.loc 4 25 15
 939 0030 F968     		ldr	r1, [r7, #12]
 940 0032 7869     		ldr	r0, [r7, #20]
 941 0034 FFF7FEFF 		bl	_ZN5Grain12SetGrainSizeEj
  26:Grain.cpp     ****   SetPitchRatio(pitch_ratio);
 942              		.loc 4 26 16
 943 0038 97ED020A 		vldr.32	s0, [r7, #8]
 944 003c 7869     		ldr	r0, [r7, #20]
 945 003e FFF7FEFF 		bl	_ZN5Grain13SetPitchRatioEf
  27:Grain.cpp     ****   pan_=pan;
 946              		.loc 4 27 7
 947 0042 7B69     		ldr	r3, [r7, #20]
 948 0044 7A68     		ldr	r2, [r7, #4]	@ float
 949 0046 1A62     		str	r2, [r3, #32]	@ float
  28:Grain.cpp     ****   is_active_ = true;
 950              		.loc 4 28 14
 951 0048 7B69     		ldr	r3, [r7, #20]
 952 004a 0122     		movs	r2, #1
 953 004c 1A70     		strb	r2, [r3]
  29:Grain.cpp     ****   phasor_.Init(grain_size_, pitch_ratio_);
 954              		.loc 4 29 15
 955 004e 7B69     		ldr	r3, [r7, #20]
 956 0050 1A1D     		adds	r2, r3, #4
 957 0052 7B69     		ldr	r3, [r7, #20]
 958 0054 996A     		ldr	r1, [r3, #40]
 959 0056 7B69     		ldr	r3, [r7, #20]
 960 0058 D3ED0B7A 		vldr.32	s15, [r3, #44]
 961 005c B0EE670A 		vmov.f32	s0, s15
 962 0060 1046     		mov	r0, r2
 963 0062 FFF7FEFF 		bl	_ZN11GrainPhasor4InitEjf
  30:Grain.cpp     **** }
 964              		.loc 4 30 1
 965 0066 00BF     		nop
 966 0068 1837     		adds	r7, r7, #24
 967              		.cfi_def_cfa_offset 8
 968 006a BD46     		mov	sp, r7
 969              		.cfi_def_cfa_register 13
 970              		@ sp needed
 971 006c 80BD     		pop	{r7, pc}
 972              	.L18:
ARM GAS  /var/folders/2p/02m_5p7958535cp2tpgps0400000gn/T//ccFG1CTd.s 			page 28


 973 006e 00BF     		.align	2
 974              	.L17:
 975 0070 00000000 		.word	_ZN5Grain10audio_len_E
 976              		.cfi_endproc
 977              	.LFE4872:
 979              		.section	.text._ZN5Grain7ProcessE6Sample,"ax",%progbits
 980              		.align	1
 981              		.global	_ZN5Grain7ProcessE6Sample
 982              		.syntax unified
 983              		.thumb
 984              		.thumb_func
 986              	_ZN5Grain7ProcessE6Sample:
 987              	.LFB4873:
  31:Grain.cpp     **** 
  32:Grain.cpp     **** /// @brief Processes grain phase, applies envelope and panning and mixes into the output buffers
  33:Grain.cpp     **** /// @param sum_left Pointer to variable storing total left channel audio output of all grains
  34:Grain.cpp     **** /// @param sum_right Pointer to variable storing total right channel audio output of all grains
  35:Grain.cpp     **** Sample Grain::Process(Sample sample) {
 988              		.loc 4 35 38
 989              		.cfi_startproc
 990              		@ args = 0, pretend = 0, frame = 64
 991              		@ frame_needed = 1, uses_anonymous_args = 0
 992 0000 80B5     		push	{r7, lr}
 993              		.cfi_def_cfa_offset 8
 994              		.cfi_offset 7, -8
 995              		.cfi_offset 14, -4
 996 0002 90B0     		sub	sp, sp, #64
 997              		.cfi_def_cfa_offset 72
 998 0004 00AF     		add	r7, sp, #0
 999              		.cfi_def_cfa_register 7
 1000 0006 7861     		str	r0, [r7, #20]
 1001 0008 B0EE407A 		vmov.f32	s14, s0
 1002 000c F0EE607A 		vmov.f32	s15, s1
 1003 0010 87ED037A 		vstr.32	s14, [r7, #12]
 1004 0014 C7ED047A 		vstr.32	s15, [r7, #16]
  36:Grain.cpp     ****   count++;
 1005              		.loc 4 36 3
 1006 0018 7B69     		ldr	r3, [r7, #20]
 1007 001a DB69     		ldr	r3, [r3, #28]
 1008              		.loc 4 36 8
 1009 001c 5A1C     		adds	r2, r3, #1
 1010 001e 7B69     		ldr	r3, [r7, #20]
 1011 0020 DA61     		str	r2, [r3, #28]
  37:Grain.cpp     ****   if (!is_active_) {
 1012              		.loc 4 37 8
 1013 0022 7B69     		ldr	r3, [r7, #20]
 1014 0024 1B78     		ldrb	r3, [r3]	@ zero_extendqisi2
 1015              		.loc 4 37 7
 1016 0026 83F00103 		eor	r3, r3, #1
 1017 002a DBB2     		uxtb	r3, r3
 1018              		.loc 4 37 3
 1019 002c 002B     		cmp	r3, #0
 1020 002e 06D0     		beq	.L20
  38:Grain.cpp     ****       return {0.0f,0.0f};
 1021              		.loc 4 38 24
 1022 0030 4FF00003 		mov	r3, #0
 1023 0034 BB61     		str	r3, [r7, #24]	@ float
ARM GAS  /var/folders/2p/02m_5p7958535cp2tpgps0400000gn/T//ccFG1CTd.s 			page 29


 1024 0036 4FF00003 		mov	r3, #0
 1025 003a FB61     		str	r3, [r7, #28]	@ float
 1026 003c B1E0     		b	.L21
 1027              	.L20:
  39:Grain.cpp     ****   }
  40:Grain.cpp     ****   float phase = phasor_.Process();
 1028              		.loc 4 40 32
 1029 003e 7B69     		ldr	r3, [r7, #20]
 1030 0040 0433     		adds	r3, r3, #4
 1031 0042 1846     		mov	r0, r3
 1032 0044 FFF7FEFF 		bl	_ZN11GrainPhasor7ProcessEv
 1033 0048 87ED0E0A 		vstr.32	s0, [r7, #56]
  41:Grain.cpp     ****   if (phasor_.GrainFinished()){
 1034              		.loc 4 41 28
 1035 004c 7B69     		ldr	r3, [r7, #20]
 1036 004e 0433     		adds	r3, r3, #4
 1037 0050 1846     		mov	r0, r3
 1038 0052 FFF7FEFF 		bl	_ZN11GrainPhasor13GrainFinishedEv
 1039 0056 0346     		mov	r3, r0
 1040              		.loc 4 41 3
 1041 0058 002B     		cmp	r3, #0
 1042 005a 09D0     		beq	.L22
  42:Grain.cpp     ****     is_active_=false;
 1043              		.loc 4 42 15
 1044 005c 7B69     		ldr	r3, [r7, #20]
 1045 005e 0022     		movs	r2, #0
 1046 0060 1A70     		strb	r2, [r3]
  43:Grain.cpp     ****     return {0.0f,0.0f};
 1047              		.loc 4 43 22
 1048 0062 4FF00003 		mov	r3, #0
 1049 0066 BB61     		str	r3, [r7, #24]	@ float
 1050 0068 4FF00003 		mov	r3, #0
 1051 006c FB61     		str	r3, [r7, #28]	@ float
 1052 006e 98E0     		b	.L21
 1053              	.L22:
  44:Grain.cpp     ****   }
  45:Grain.cpp     ****   // size_t curr_idx = spawn_pos_ + static_cast<size_t>(phase*grain_size_*pitch_ratio_*direction_);
  46:Grain.cpp     ****   size_t curr_idx = spawn_pos_ + static_cast<size_t>(phase*grain_size_*pitch_ratio_);
 1054              		.loc 4 46 21
 1055 0070 7B69     		ldr	r3, [r7, #20]
 1056 0072 5B6A     		ldr	r3, [r3, #36]
 1057              		.loc 4 46 60
 1058 0074 7A69     		ldr	r2, [r7, #20]
 1059 0076 926A     		ldr	r2, [r2, #40]
 1060              		.loc 4 46 59
 1061 0078 07EE902A 		vmov	s15, r2	@ int
 1062 007c B8EE677A 		vcvt.f32.u32	s14, s15
 1063 0080 D7ED0E7A 		vldr.32	s15, [r7, #56]
 1064 0084 27EE277A 		vmul.f32	s14, s14, s15
 1065              		.loc 4 46 72
 1066 0088 7A69     		ldr	r2, [r7, #20]
 1067 008a D2ED0B7A 		vldr.32	s15, [r2, #44]
 1068              		.loc 4 46 71
 1069 008e 67EE277A 		vmul.f32	s15, s14, s15
 1070              		.loc 4 46 34
 1071 0092 FCEEE77A 		vcvt.u32.f32	s15, s15
 1072 0096 17EE902A 		vmov	r2, s15	@ int
ARM GAS  /var/folders/2p/02m_5p7958535cp2tpgps0400000gn/T//ccFG1CTd.s 			page 30


 1073              		.loc 4 46 10
 1074 009a 1344     		add	r3, r3, r2
 1075 009c FB63     		str	r3, [r7, #60]
  47:Grain.cpp     **** 
  48:Grain.cpp     **** 
  49:Grain.cpp     ****   if (curr_idx>=audio_len_-1){
 1076              		.loc 4 49 27
 1077 009e 474B     		ldr	r3, .L26
 1078 00a0 1B68     		ldr	r3, [r3]
 1079 00a2 013B     		subs	r3, r3, #1
 1080              		.loc 4 49 3
 1081 00a4 FA6B     		ldr	r2, [r7, #60]
 1082 00a6 9A42     		cmp	r2, r3
 1083 00a8 05D3     		bcc	.L23
  50:Grain.cpp     ****     curr_idx -= audio_len_+1;
 1084              		.loc 4 50 14
 1085 00aa 444B     		ldr	r3, .L26
 1086 00ac 1B68     		ldr	r3, [r3]
 1087 00ae FA6B     		ldr	r2, [r7, #60]
 1088 00b0 D31A     		subs	r3, r2, r3
 1089 00b2 013B     		subs	r3, r3, #1
 1090 00b4 FB63     		str	r3, [r7, #60]
 1091              	.L23:
  51:Grain.cpp     ****   }
  52:Grain.cpp     ****   else if (curr_idx<0){
  53:Grain.cpp     ****     curr_idx += audio_len_;
  54:Grain.cpp     ****   }
  55:Grain.cpp     **** 
  56:Grain.cpp     ****   float left = s162f(left_buf_[curr_idx]);
 1092              		.loc 4 56 40
 1093 00b6 424B     		ldr	r3, .L26+4
 1094 00b8 1A68     		ldr	r2, [r3]
 1095 00ba FB6B     		ldr	r3, [r7, #60]
 1096 00bc 5B00     		lsls	r3, r3, #1
 1097 00be 1344     		add	r3, r3, r2
 1098              		.loc 4 56 21
 1099 00c0 B3F90030 		ldrsh	r3, [r3]
 1100 00c4 3B84     		strh	r3, [r7, #32]	@ movhi
 1101              	.LBB6:
 1102              	.LBB7:
 1103              		.file 5 "../libDaisy/src/daisy_core.h"
   1:../libDaisy/src/daisy_core.h **** #pragma once
   2:../libDaisy/src/daisy_core.h **** #ifndef DSY_CORE_HW_H
   3:../libDaisy/src/daisy_core.h **** #define DSY_CORE_HW_H /**< & */
   4:../libDaisy/src/daisy_core.h **** #include <stdint.h>
   5:../libDaisy/src/daisy_core.h **** #include <stdlib.h>
   6:../libDaisy/src/daisy_core.h **** 
   7:../libDaisy/src/daisy_core.h **** #if defined(_MSC_VER)
   8:../libDaisy/src/daisy_core.h **** #define FORCE_INLINE __forceinline /**< & */
   9:../libDaisy/src/daisy_core.h **** #elif defined(__clang__)
  10:../libDaisy/src/daisy_core.h **** #define FORCE_INLINE inline __attribute__((always_inline)) /**< & */
  11:../libDaisy/src/daisy_core.h **** #pragma clang diagnostic ignored "-Wduplicate-decl-specifier"
  12:../libDaisy/src/daisy_core.h **** #elif defined(__GNUC__)
  13:../libDaisy/src/daisy_core.h **** #define FORCE_INLINE inline __attribute__((always_inline)) /**< & */
  14:../libDaisy/src/daisy_core.h **** #else
  15:../libDaisy/src/daisy_core.h **** #error unknown compiler
  16:../libDaisy/src/daisy_core.h **** #endif
ARM GAS  /var/folders/2p/02m_5p7958535cp2tpgps0400000gn/T//ccFG1CTd.s 			page 31


  17:../libDaisy/src/daisy_core.h **** 
  18:../libDaisy/src/daisy_core.h **** /** @addtogroup utility
  19:../libDaisy/src/daisy_core.h ****     @{
  20:../libDaisy/src/daisy_core.h **** */
  21:../libDaisy/src/daisy_core.h **** 
  22:../libDaisy/src/daisy_core.h **** /** Macro for area of memory that is configured as cacheless
  23:../libDaisy/src/daisy_core.h **** This should be used primarily for DMA buffers, and the like.
  24:../libDaisy/src/daisy_core.h **** */
  25:../libDaisy/src/daisy_core.h **** #define DMA_BUFFER_MEM_SECTION __attribute__((section(".sram1_bss")))
  26:../libDaisy/src/daisy_core.h **** /** 
  27:../libDaisy/src/daisy_core.h **** THE DTCM RAM section is also non-cached. However, is not suitable 
  28:../libDaisy/src/daisy_core.h **** for DMA transfers. Performance is on par with internal SRAM w/ 
  29:../libDaisy/src/daisy_core.h **** cache enabled.
  30:../libDaisy/src/daisy_core.h **** */
  31:../libDaisy/src/daisy_core.h **** #define DTCM_MEM_SECTION __attribute__((section(".dtcmram_bss")))
  32:../libDaisy/src/daisy_core.h **** 
  33:../libDaisy/src/daisy_core.h **** #define FBIPMAX 0.999985f             /**< close to 1.0f-LSB at 16 bit */
  34:../libDaisy/src/daisy_core.h **** #define FBIPMIN (-FBIPMAX)            /**< - (1 - LSB) */
  35:../libDaisy/src/daisy_core.h **** #define U82F_SCALE 0.0078740f         /**< 1 / 127 */
  36:../libDaisy/src/daisy_core.h **** #define F2U8_SCALE 127.0f             /**< 128 - 1 */
  37:../libDaisy/src/daisy_core.h **** #define S82F_SCALE 0.0078125f         /**< 1 / (2**7) */
  38:../libDaisy/src/daisy_core.h **** #define F2S8_SCALE 127.0f             /**< (2 ** 7) - 1 */
  39:../libDaisy/src/daisy_core.h **** #define S162F_SCALE 3.0517578125e-05f /**< 1 / (2** 15) */
  40:../libDaisy/src/daisy_core.h **** #define F2S16_SCALE 32767.0f          /**< (2 ** 15) - 1 */
  41:../libDaisy/src/daisy_core.h **** #define F2S24_SCALE 8388608.0f        /**< 2 ** 23 */
  42:../libDaisy/src/daisy_core.h **** #define S242F_SCALE 1.192092896e-07f  /**< 1 / (2 ** 23) */
  43:../libDaisy/src/daisy_core.h **** #define S24SIGN 0x800000              /**< 2 ** 23 */
  44:../libDaisy/src/daisy_core.h **** #define S322F_SCALE 4.6566129e-10f    /**< 1 / (2** 31) */
  45:../libDaisy/src/daisy_core.h **** #define F2S32_SCALE 2147483647.f      /**< (2 ** 31) - 1 */
  46:../libDaisy/src/daisy_core.h **** 
  47:../libDaisy/src/daisy_core.h **** 
  48:../libDaisy/src/daisy_core.h **** /** shorthand macro for simplifying the reading of the left 
  49:../libDaisy/src/daisy_core.h ****  *  channel of a non-interleaved output buffer named out */
  50:../libDaisy/src/daisy_core.h **** #define OUT_L out[0]
  51:../libDaisy/src/daisy_core.h **** 
  52:../libDaisy/src/daisy_core.h **** /** shorthand macro for simplifying the reading of the right 
  53:../libDaisy/src/daisy_core.h ****  *  channel of a non-interleaved output buffer named out */
  54:../libDaisy/src/daisy_core.h **** #define OUT_R out[1]
  55:../libDaisy/src/daisy_core.h **** 
  56:../libDaisy/src/daisy_core.h **** /** shorthand macro for simplifying the reading of the left 
  57:../libDaisy/src/daisy_core.h ****  *  channel of a non-interleaved input buffer named in */
  58:../libDaisy/src/daisy_core.h **** #define IN_L in[0]
  59:../libDaisy/src/daisy_core.h **** 
  60:../libDaisy/src/daisy_core.h **** /** shorthand macro for simplifying the reading of the right 
  61:../libDaisy/src/daisy_core.h ****  *  channel of a non-interleaved input buffer named in */
  62:../libDaisy/src/daisy_core.h **** #define IN_R in[1]
  63:../libDaisy/src/daisy_core.h **** 
  64:../libDaisy/src/daisy_core.h **** /** 
  65:../libDaisy/src/daisy_core.h ****     Computes cube.
  66:../libDaisy/src/daisy_core.h ****     \param x Number to be cubed
  67:../libDaisy/src/daisy_core.h ****     \return x ^ 3
  68:../libDaisy/src/daisy_core.h **** */
  69:../libDaisy/src/daisy_core.h **** FORCE_INLINE float cube(float x)
  70:../libDaisy/src/daisy_core.h **** {
  71:../libDaisy/src/daisy_core.h ****     return (x * x) * x;
  72:../libDaisy/src/daisy_core.h **** }
  73:../libDaisy/src/daisy_core.h **** 
ARM GAS  /var/folders/2p/02m_5p7958535cp2tpgps0400000gn/T//ccFG1CTd.s 			page 32


  74:../libDaisy/src/daisy_core.h **** /** 
  75:../libDaisy/src/daisy_core.h ****     Converts unsigned 8-bit to float
  76:../libDaisy/src/daisy_core.h ****     \param x Number to be scaled.
  77:../libDaisy/src/daisy_core.h ****     \return Scaled number.
  78:../libDaisy/src/daisy_core.h **** */
  79:../libDaisy/src/daisy_core.h **** FORCE_INLINE float u82f(uint8_t x)
  80:../libDaisy/src/daisy_core.h **** {
  81:../libDaisy/src/daisy_core.h ****     return ((float)x - 127.f) * U82F_SCALE;
  82:../libDaisy/src/daisy_core.h **** }
  83:../libDaisy/src/daisy_core.h **** 
  84:../libDaisy/src/daisy_core.h **** /**
  85:../libDaisy/src/daisy_core.h ****     Converts float to unsigned 8-bit
  86:../libDaisy/src/daisy_core.h **** */
  87:../libDaisy/src/daisy_core.h **** FORCE_INLINE uint8_t f2u8(float x)
  88:../libDaisy/src/daisy_core.h **** {
  89:../libDaisy/src/daisy_core.h ****     x = x <= FBIPMIN ? FBIPMIN : x;
  90:../libDaisy/src/daisy_core.h ****     x = x >= FBIPMAX ? FBIPMAX : x;
  91:../libDaisy/src/daisy_core.h ****     return (uint8_t)((x * F2U8_SCALE) + F2U8_SCALE);
  92:../libDaisy/src/daisy_core.h **** }
  93:../libDaisy/src/daisy_core.h **** 
  94:../libDaisy/src/daisy_core.h **** 
  95:../libDaisy/src/daisy_core.h **** /** 
  96:../libDaisy/src/daisy_core.h ****     Converts Signed 8-bit to float
  97:../libDaisy/src/daisy_core.h ****     \param x Number to be scaled.
  98:../libDaisy/src/daisy_core.h ****     \return Scaled number.
  99:../libDaisy/src/daisy_core.h **** */
 100:../libDaisy/src/daisy_core.h **** FORCE_INLINE float s82f(int8_t x)
 101:../libDaisy/src/daisy_core.h **** {
 102:../libDaisy/src/daisy_core.h ****     return (float)x * S82F_SCALE;
 103:../libDaisy/src/daisy_core.h **** }
 104:../libDaisy/src/daisy_core.h **** 
 105:../libDaisy/src/daisy_core.h **** /**
 106:../libDaisy/src/daisy_core.h ****     Converts float to Signed 8-bit
 107:../libDaisy/src/daisy_core.h **** */
 108:../libDaisy/src/daisy_core.h **** FORCE_INLINE int8_t f2s8(float x)
 109:../libDaisy/src/daisy_core.h **** {
 110:../libDaisy/src/daisy_core.h ****     x = x <= FBIPMIN ? FBIPMIN : x;
 111:../libDaisy/src/daisy_core.h ****     x = x >= FBIPMAX ? FBIPMAX : x;
 112:../libDaisy/src/daisy_core.h ****     return (int32_t)(x * F2S8_SCALE);
 113:../libDaisy/src/daisy_core.h **** }
 114:../libDaisy/src/daisy_core.h **** 
 115:../libDaisy/src/daisy_core.h **** /** 
 116:../libDaisy/src/daisy_core.h ****     Converts Signed 16-bit to float
 117:../libDaisy/src/daisy_core.h ****     \param x Number to be scaled.
 118:../libDaisy/src/daisy_core.h ****     \return Scaled number.
 119:../libDaisy/src/daisy_core.h **** */
 120:../libDaisy/src/daisy_core.h **** FORCE_INLINE float s162f(int16_t x)
 121:../libDaisy/src/daisy_core.h **** {
 122:../libDaisy/src/daisy_core.h ****     return (float)x * S162F_SCALE;
 1104              		.loc 5 122 12
 1105 00c6 B7F92030 		ldrsh	r3, [r7, #32]
 1106 00ca 07EE903A 		vmov	s15, r3	@ int
 1107 00ce F8EEE77A 		vcvt.f32.s32	s15, s15
 1108              		.loc 5 122 23
 1109 00d2 9FED3C7A 		vldr.32	s14, .L26+8
 1110 00d6 67EE877A 		vmul.f32	s15, s15, s14
 1111              	.LBE7:
ARM GAS  /var/folders/2p/02m_5p7958535cp2tpgps0400000gn/T//ccFG1CTd.s 			page 33


 1112              	.LBE6:
 1113              		.loc 4 56 21
 1114 00da C7ED0D7A 		vstr.32	s15, [r7, #52]
  57:Grain.cpp     ****   lbuf = left;
 1115              		.loc 4 57 8
 1116 00de 7B69     		ldr	r3, [r7, #20]
 1117 00e0 7A6B     		ldr	r2, [r7, #52]	@ float
 1118 00e2 1A61     		str	r2, [r3, #16]	@ float
  58:Grain.cpp     ****   float right = s162f(right_buf_[curr_idx]);
 1119              		.loc 4 58 42
 1120 00e4 384B     		ldr	r3, .L26+12
 1121 00e6 1A68     		ldr	r2, [r3]
 1122 00e8 FB6B     		ldr	r3, [r7, #60]
 1123 00ea 5B00     		lsls	r3, r3, #1
 1124 00ec 1344     		add	r3, r3, r2
 1125              		.loc 4 58 22
 1126 00ee B3F90030 		ldrsh	r3, [r3]
 1127 00f2 7B84     		strh	r3, [r7, #34]	@ movhi
 1128              	.LBB8:
 1129              	.LBB9:
 1130              		.loc 5 122 12
 1131 00f4 B7F92230 		ldrsh	r3, [r7, #34]
 1132 00f8 07EE903A 		vmov	s15, r3	@ int
 1133 00fc F8EEE77A 		vcvt.f32.s32	s15, s15
 1134              		.loc 5 122 23
 1135 0100 9FED307A 		vldr.32	s14, .L26+8
 1136 0104 67EE877A 		vmul.f32	s15, s15, s14
 1137              	.LBE9:
 1138              	.LBE8:
 1139              		.loc 4 58 22
 1140 0108 C7ED0C7A 		vstr.32	s15, [r7, #48]
  59:Grain.cpp     ****   rbuf = right;
 1141              		.loc 4 59 8
 1142 010c 7B69     		ldr	r3, [r7, #20]
 1143 010e 3A6B     		ldr	r2, [r7, #48]	@ float
 1144 0110 5A61     		str	r2, [r3, #20]	@ float
  60:Grain.cpp     ****   float env = ApplyEnvelope(phase);
 1145              		.loc 4 60 28
 1146 0112 97ED0E0A 		vldr.32	s0, [r7, #56]
 1147 0116 7869     		ldr	r0, [r7, #20]
 1148 0118 FFF7FEFF 		bl	_ZN5Grain13ApplyEnvelopeEf
 1149 011c 87ED0B0A 		vstr.32	s0, [r7, #44]
  61:Grain.cpp     ****   envv = env;
 1150              		.loc 4 61 8
 1151 0120 7B69     		ldr	r3, [r7, #20]
 1152 0122 FA6A     		ldr	r2, [r7, #44]	@ float
 1153 0124 9A61     		str	r2, [r3, #24]	@ float
  62:Grain.cpp     **** 
  63:Grain.cpp     ****   /* approximate constant power panning - cheaper than using sin/cos
  64:Grain.cpp     ****   this works since gain_l^2 + gain_r^2 = 1
  65:Grain.cpp     ****   source: cs.cmu.edu/~music/icm-online/readings/panlaws/panlaws.pdf */
  66:Grain.cpp     ****   float gain_left = std::sqrt(1.0f-pan_);
 1154              		.loc 4 66 36
 1155 0126 7B69     		ldr	r3, [r7, #20]
 1156 0128 D3ED087A 		vldr.32	s15, [r3, #32]
 1157              		.loc 4 66 30
 1158 012c B7EE007A 		vmov.f32	s14, #1.0e+0
ARM GAS  /var/folders/2p/02m_5p7958535cp2tpgps0400000gn/T//ccFG1CTd.s 			page 34


 1159 0130 77EE677A 		vsub.f32	s15, s14, s15
 1160 0134 B0EE670A 		vmov.f32	s0, s15
 1161 0138 FFF7FEFF 		bl	_ZSt4sqrtf
 1162 013c 87ED0A0A 		vstr.32	s0, [r7, #40]
  67:Grain.cpp     ****   float gain_right = std::sqrt(pan_);
 1163              		.loc 4 67 31
 1164 0140 7B69     		ldr	r3, [r7, #20]
 1165 0142 D3ED087A 		vldr.32	s15, [r3, #32]
 1166 0146 B0EE670A 		vmov.f32	s0, s15
 1167 014a FFF7FEFF 		bl	_ZSt4sqrtf
 1168 014e 87ED090A 		vstr.32	s0, [r7, #36]
  68:Grain.cpp     ****   sample.left += (left*env*gain_left);
 1169              		.loc 4 68 15
 1170 0152 97ED037A 		vldr.32	s14, [r7, #12]
 1171              		.loc 4 68 23
 1172 0156 D7ED0D6A 		vldr.32	s13, [r7, #52]
 1173 015a D7ED0B7A 		vldr.32	s15, [r7, #44]
 1174 015e 66EEA76A 		vmul.f32	s13, s13, s15
 1175              		.loc 4 68 27
 1176 0162 D7ED0A7A 		vldr.32	s15, [r7, #40]
 1177 0166 66EEA77A 		vmul.f32	s15, s13, s15
 1178              		.loc 4 68 15
 1179 016a 77EE277A 		vadd.f32	s15, s14, s15
 1180 016e C7ED037A 		vstr.32	s15, [r7, #12]
  69:Grain.cpp     ****   sample.right += (right*env*gain_right);
 1181              		.loc 4 69 16
 1182 0172 97ED047A 		vldr.32	s14, [r7, #16]
 1183              		.loc 4 69 25
 1184 0176 D7ED0C6A 		vldr.32	s13, [r7, #48]
 1185 017a D7ED0B7A 		vldr.32	s15, [r7, #44]
 1186 017e 66EEA76A 		vmul.f32	s13, s13, s15
 1187              		.loc 4 69 29
 1188 0182 D7ED097A 		vldr.32	s15, [r7, #36]
 1189 0186 66EEA77A 		vmul.f32	s15, s13, s15
 1190              		.loc 4 69 16
 1191 018a 77EE277A 		vadd.f32	s15, s14, s15
 1192 018e C7ED047A 		vstr.32	s15, [r7, #16]
  70:Grain.cpp     ****   return sample;
 1193              		.loc 4 70 10
 1194 0192 07F11803 		add	r3, r7, #24
 1195 0196 07F10C02 		add	r2, r7, #12
 1196 019a 92E80300 		ldm	r2, {r0, r1}
 1197 019e 83E80300 		stm	r3, {r0, r1}
 1198              	.L21:
  71:Grain.cpp     **** }
 1199              		.loc 4 71 1
 1200 01a2 BA69     		ldr	r2, [r7, #24]	@ float
 1201 01a4 FB69     		ldr	r3, [r7, #28]	@ float
 1202 01a6 07EE102A 		vmov	s14, r2
 1203 01aa 07EE903A 		vmov	s15, r3
 1204 01ae B0EE470A 		vmov.f32	s0, s14
 1205 01b2 F0EE670A 		vmov.f32	s1, s15
 1206 01b6 4037     		adds	r7, r7, #64
 1207              		.cfi_def_cfa_offset 8
 1208 01b8 BD46     		mov	sp, r7
 1209              		.cfi_def_cfa_register 13
 1210              		@ sp needed
ARM GAS  /var/folders/2p/02m_5p7958535cp2tpgps0400000gn/T//ccFG1CTd.s 			page 35


 1211 01ba 80BD     		pop	{r7, pc}
 1212              	.L27:
 1213              		.align	2
 1214              	.L26:
 1215 01bc 00000000 		.word	_ZN5Grain10audio_len_E
 1216 01c0 00000000 		.word	_ZN5Grain9left_buf_E
 1217 01c4 00000038 		.word	939524096
 1218 01c8 00000000 		.word	_ZN5Grain10right_buf_E
 1219              		.cfi_endproc
 1220              	.LFE4873:
 1222              		.section	.text._ZN5Grain13ApplyEnvelopeEf,"ax",%progbits
 1223              		.align	1
 1224              		.global	_ZN5Grain13ApplyEnvelopeEf
 1225              		.syntax unified
 1226              		.thumb
 1227              		.thumb_func
 1229              	_ZN5Grain13ApplyEnvelopeEf:
 1230              	.LFB4874:
  72:Grain.cpp     **** 
  73:Grain.cpp     **** /// @brief Applies amplitude envelope (Hann window) to grain based on its phase
  74:Grain.cpp     **** /// @param phase Current playback position of the grain within its lifetime (from 0 - 1)
  75:Grain.cpp     **** /// @return Amplitude of the grain after envelope has been applied
  76:Grain.cpp     **** float Grain::ApplyEnvelope(float phase){
 1231              		.loc 4 76 40
 1232              		.cfi_startproc
 1233              		@ args = 0, pretend = 0, frame = 8
 1234              		@ frame_needed = 1, uses_anonymous_args = 0
 1235 0000 80B5     		push	{r7, lr}
 1236              		.cfi_def_cfa_offset 8
 1237              		.cfi_offset 7, -8
 1238              		.cfi_offset 14, -4
 1239 0002 82B0     		sub	sp, sp, #8
 1240              		.cfi_def_cfa_offset 16
 1241 0004 00AF     		add	r7, sp, #0
 1242              		.cfi_def_cfa_register 7
 1243 0006 7860     		str	r0, [r7, #4]
 1244 0008 87ED000A 		vstr.32	s0, [r7]
  77:Grain.cpp     ****   /* Hann formula from https://uk.mathworks.com/help/signal/ref/hann.html */
  78:Grain.cpp     ****   return 0.5f * (1.0f - std::cos(2.0f * M_PI * phase));
 1245              		.loc 4 78 48
 1246 000c D7ED007A 		vldr.32	s15, [r7]
 1247 0010 B7EEE77A 		vcvt.f64.f32	d7, s15
 1248              		.loc 4 78 33
 1249 0014 9FED0C6B 		vldr.64	d6, .L30
 1250 0018 27EE067B 		vmul.f64	d7, d7, d6
 1251 001c B0EE470B 		vmov.f64	d0, d7
 1252 0020 FFF7FEFF 		bl	cos
 1253 0024 B0EE407B 		vmov.f64	d7, d0
 1254              		.loc 4 78 23
 1255 0028 B7EE006B 		vmov.f64	d6, #1.0e+0
 1256 002c 36EE477B 		vsub.f64	d7, d6, d7
 1257              		.loc 4 78 15
 1258 0030 B6EE006B 		vmov.f64	d6, #5.0e-1
 1259 0034 27EE067B 		vmul.f64	d7, d7, d6
 1260              		.loc 4 78 54
 1261 0038 F7EEC77B 		vcvt.f32.f64	s15, d7
  79:Grain.cpp     ****   // return 1.0f;
ARM GAS  /var/folders/2p/02m_5p7958535cp2tpgps0400000gn/T//ccFG1CTd.s 			page 36


  80:Grain.cpp     **** }
 1262              		.loc 4 80 1
 1263 003c B0EE670A 		vmov.f32	s0, s15
 1264 0040 0837     		adds	r7, r7, #8
 1265              		.cfi_def_cfa_offset 8
 1266 0042 BD46     		mov	sp, r7
 1267              		.cfi_def_cfa_register 13
 1268              		@ sp needed
 1269 0044 80BD     		pop	{r7, pc}
 1270              	.L31:
 1271 0046 00BF     		.align	3
 1272              	.L30:
 1273 0048 182D4454 		.word	1413754136
 1274 004c FB211940 		.word	1075388923
 1275              		.cfi_endproc
 1276              	.LFE4874:
 1278              		.section	.text._ZN5Grain11SetSpawnPosEj,"ax",%progbits
 1279              		.align	1
 1280              		.global	_ZN5Grain11SetSpawnPosEj
 1281              		.syntax unified
 1282              		.thumb
 1283              		.thumb_func
 1285              	_ZN5Grain11SetSpawnPosEj:
 1286              	.LFB4875:
  81:Grain.cpp     **** 
  82:Grain.cpp     **** 
  83:Grain.cpp     **** void Grain::SetSpawnPos(size_t spawn_pos){ spawn_pos_ = spawn_pos; }
 1287              		.loc 4 83 42
 1288              		.cfi_startproc
 1289              		@ args = 0, pretend = 0, frame = 8
 1290              		@ frame_needed = 1, uses_anonymous_args = 0
 1291              		@ link register save eliminated.
 1292 0000 80B4     		push	{r7}
 1293              		.cfi_def_cfa_offset 4
 1294              		.cfi_offset 7, -4
 1295 0002 83B0     		sub	sp, sp, #12
 1296              		.cfi_def_cfa_offset 16
 1297 0004 00AF     		add	r7, sp, #0
 1298              		.cfi_def_cfa_register 7
 1299 0006 7860     		str	r0, [r7, #4]
 1300 0008 3960     		str	r1, [r7]
 1301              		.loc 4 83 55
 1302 000a 7B68     		ldr	r3, [r7, #4]
 1303 000c 3A68     		ldr	r2, [r7]
 1304 000e 5A62     		str	r2, [r3, #36]
 1305              		.loc 4 83 68
 1306 0010 00BF     		nop
 1307 0012 0C37     		adds	r7, r7, #12
 1308              		.cfi_def_cfa_offset 4
 1309 0014 BD46     		mov	sp, r7
 1310              		.cfi_def_cfa_register 13
 1311              		@ sp needed
 1312 0016 5DF8047B 		ldr	r7, [sp], #4
 1313              		.cfi_restore 7
 1314              		.cfi_def_cfa_offset 0
 1315 001a 7047     		bx	lr
 1316              		.cfi_endproc
ARM GAS  /var/folders/2p/02m_5p7958535cp2tpgps0400000gn/T//ccFG1CTd.s 			page 37


 1317              	.LFE4875:
 1319              		.section	.text._ZN5Grain12SetGrainSizeEj,"ax",%progbits
 1320              		.align	1
 1321              		.global	_ZN5Grain12SetGrainSizeEj
 1322              		.syntax unified
 1323              		.thumb
 1324              		.thumb_func
 1326              	_ZN5Grain12SetGrainSizeEj:
 1327              	.LFB4876:
  84:Grain.cpp     **** void Grain::SetGrainSize(size_t grain_size) { grain_size_ = grain_size; }
 1328              		.loc 4 84 45
 1329              		.cfi_startproc
 1330              		@ args = 0, pretend = 0, frame = 8
 1331              		@ frame_needed = 1, uses_anonymous_args = 0
 1332              		@ link register save eliminated.
 1333 0000 80B4     		push	{r7}
 1334              		.cfi_def_cfa_offset 4
 1335              		.cfi_offset 7, -4
 1336 0002 83B0     		sub	sp, sp, #12
 1337              		.cfi_def_cfa_offset 16
 1338 0004 00AF     		add	r7, sp, #0
 1339              		.cfi_def_cfa_register 7
 1340 0006 7860     		str	r0, [r7, #4]
 1341 0008 3960     		str	r1, [r7]
 1342              		.loc 4 84 59
 1343 000a 7B68     		ldr	r3, [r7, #4]
 1344 000c 3A68     		ldr	r2, [r7]
 1345 000e 9A62     		str	r2, [r3, #40]
 1346              		.loc 4 84 73
 1347 0010 00BF     		nop
 1348 0012 0C37     		adds	r7, r7, #12
 1349              		.cfi_def_cfa_offset 4
 1350 0014 BD46     		mov	sp, r7
 1351              		.cfi_def_cfa_register 13
 1352              		@ sp needed
 1353 0016 5DF8047B 		ldr	r7, [sp], #4
 1354              		.cfi_restore 7
 1355              		.cfi_def_cfa_offset 0
 1356 001a 7047     		bx	lr
 1357              		.cfi_endproc
 1358              	.LFE4876:
 1360              		.section	.text._ZN5Grain13SetPitchRatioEf,"ax",%progbits
 1361              		.align	1
 1362              		.global	_ZN5Grain13SetPitchRatioEf
 1363              		.syntax unified
 1364              		.thumb
 1365              		.thumb_func
 1367              	_ZN5Grain13SetPitchRatioEf:
 1368              	.LFB4877:
  85:Grain.cpp     **** void Grain::SetPitchRatio(float pitch_ratio) { pitch_ratio_ = pitch_ratio; }
 1369              		.loc 4 85 46
 1370              		.cfi_startproc
 1371              		@ args = 0, pretend = 0, frame = 8
 1372              		@ frame_needed = 1, uses_anonymous_args = 0
 1373              		@ link register save eliminated.
 1374 0000 80B4     		push	{r7}
 1375              		.cfi_def_cfa_offset 4
ARM GAS  /var/folders/2p/02m_5p7958535cp2tpgps0400000gn/T//ccFG1CTd.s 			page 38


 1376              		.cfi_offset 7, -4
 1377 0002 83B0     		sub	sp, sp, #12
 1378              		.cfi_def_cfa_offset 16
 1379 0004 00AF     		add	r7, sp, #0
 1380              		.cfi_def_cfa_register 7
 1381 0006 7860     		str	r0, [r7, #4]
 1382 0008 87ED000A 		vstr.32	s0, [r7]
 1383              		.loc 4 85 61
 1384 000c 7B68     		ldr	r3, [r7, #4]
 1385 000e 3A68     		ldr	r2, [r7]	@ float
 1386 0010 DA62     		str	r2, [r3, #44]	@ float
 1387              		.loc 4 85 76
 1388 0012 00BF     		nop
 1389 0014 0C37     		adds	r7, r7, #12
 1390              		.cfi_def_cfa_offset 4
 1391 0016 BD46     		mov	sp, r7
 1392              		.cfi_def_cfa_register 13
 1393              		@ sp needed
 1394 0018 5DF8047B 		ldr	r7, [sp], #4
 1395              		.cfi_restore 7
 1396              		.cfi_def_cfa_offset 0
 1397 001c 7047     		bx	lr
 1398              		.cfi_endproc
 1399              	.LFE4877:
 1401              		.section	.text._ZN5Grain12SetDirectionEf,"ax",%progbits
 1402              		.align	1
 1403              		.global	_ZN5Grain12SetDirectionEf
 1404              		.syntax unified
 1405              		.thumb
 1406              		.thumb_func
 1408              	_ZN5Grain12SetDirectionEf:
 1409              	.LFB4878:
  86:Grain.cpp     **** void Grain::SetDirection(float direction) { direction_ = direction; }
 1410              		.loc 4 86 43
 1411              		.cfi_startproc
 1412              		@ args = 0, pretend = 0, frame = 8
 1413              		@ frame_needed = 1, uses_anonymous_args = 0
 1414              		@ link register save eliminated.
 1415 0000 80B4     		push	{r7}
 1416              		.cfi_def_cfa_offset 4
 1417              		.cfi_offset 7, -4
 1418 0002 83B0     		sub	sp, sp, #12
 1419              		.cfi_def_cfa_offset 16
 1420 0004 00AF     		add	r7, sp, #0
 1421              		.cfi_def_cfa_register 7
 1422 0006 7860     		str	r0, [r7, #4]
 1423 0008 87ED000A 		vstr.32	s0, [r7]
 1424              		.loc 4 86 56
 1425 000c 7B68     		ldr	r3, [r7, #4]
 1426 000e 3A68     		ldr	r2, [r7]	@ float
 1427 0010 1A63     		str	r2, [r3, #48]	@ float
 1428              		.loc 4 86 69
 1429 0012 00BF     		nop
 1430 0014 0C37     		adds	r7, r7, #12
 1431              		.cfi_def_cfa_offset 4
 1432 0016 BD46     		mov	sp, r7
 1433              		.cfi_def_cfa_register 13
ARM GAS  /var/folders/2p/02m_5p7958535cp2tpgps0400000gn/T//ccFG1CTd.s 			page 39


 1434              		@ sp needed
 1435 0018 5DF8047B 		ldr	r7, [sp], #4
 1436              		.cfi_restore 7
 1437              		.cfi_def_cfa_offset 0
 1438 001c 7047     		bx	lr
 1439              		.cfi_endproc
 1440              	.LFE4878:
 1442              		.text
 1443              	.Letext0:
 1444              		.file 6 "/Library/DaisyToolchain/0.2.0/arm/arm-none-eabi/include/machine/_default_types.h"
 1445              		.file 7 "/Library/DaisyToolchain/0.2.0/arm/arm-none-eabi/include/sys/_stdint.h"
 1446              		.file 8 "/Library/DaisyToolchain/0.2.0/arm/arm-none-eabi/include/stdint.h"
 1447              		.file 9 "/Library/DaisyToolchain/0.2.0/arm/lib/gcc/arm-none-eabi/10.3.1/include/stddef.h"
 1448              		.file 10 "/Library/DaisyToolchain/0.2.0/arm/arm-none-eabi/include/c++/10.3.1/bits/cpp_type_traits.
 1449              		.file 11 "/Library/DaisyToolchain/0.2.0/arm/arm-none-eabi/include/c++/10.3.1/bits/std_abs.h"
 1450              		.file 12 "/Library/DaisyToolchain/0.2.0/arm/arm-none-eabi/include/c++/10.3.1/cstdlib"
 1451              		.file 13 "/Library/DaisyToolchain/0.2.0/arm/arm-none-eabi/include/c++/10.3.1/cstdint"
 1452              		.file 14 "/Library/DaisyToolchain/0.2.0/arm/arm-none-eabi/include/c++/10.3.1/type_traits"
 1453              		.file 15 "/Library/DaisyToolchain/0.2.0/arm/arm-none-eabi/include/c++/10.3.1/bits/stl_pair.h"
 1454              		.file 16 "/Library/DaisyToolchain/0.2.0/arm/arm-none-eabi/include/c++/10.3.1/debug/debug.h"
 1455              		.file 17 "/Library/DaisyToolchain/0.2.0/arm/arm-none-eabi/include/c++/10.3.1/arm-none-eabi/thumb/v
 1456              		.file 18 "/Library/DaisyToolchain/0.2.0/arm/arm-none-eabi/include/c++/10.3.1/bits/algorithmfwd.h"
 1457              		.file 19 "/Library/DaisyToolchain/0.2.0/arm/arm-none-eabi/include/c++/10.3.1/bits/exception_ptr.h"
 1458              		.file 20 "/Library/DaisyToolchain/0.2.0/arm/arm-none-eabi/include/c++/10.3.1/cstdarg"
 1459              		.file 21 "/Library/DaisyToolchain/0.2.0/arm/arm-none-eabi/include/c++/10.3.1/cstdio"
 1460              		.file 22 "/Library/DaisyToolchain/0.2.0/arm/arm-none-eabi/include/c++/10.3.1/cstring"
 1461              		.file 23 "/Library/DaisyToolchain/0.2.0/arm/arm-none-eabi/include/c++/10.3.1/cwchar"
 1462              		.file 24 "/Library/DaisyToolchain/0.2.0/arm/arm-none-eabi/include/c++/10.3.1/clocale"
 1463              		.file 25 "/Library/DaisyToolchain/0.2.0/arm/arm-none-eabi/include/c++/10.3.1/bits/basic_string.h"
 1464              		.file 26 "/Library/DaisyToolchain/0.2.0/arm/arm-none-eabi/include/c++/10.3.1/bits/stl_iterator.h"
 1465              		.file 27 "/Library/DaisyToolchain/0.2.0/arm/arm-none-eabi/include/c++/10.3.1/bits/predefined_ops.h
 1466              		.file 28 "/Library/DaisyToolchain/0.2.0/arm/arm-none-eabi/include/sys/_types.h"
 1467              		.file 29 "/Library/DaisyToolchain/0.2.0/arm/arm-none-eabi/include/sys/reent.h"
 1468              		.file 30 "/Library/DaisyToolchain/0.2.0/arm/arm-none-eabi/include/sys/lock.h"
 1469              		.file 31 "/Library/DaisyToolchain/0.2.0/arm/arm-none-eabi/include/math.h"
 1470              		.file 32 "/Library/DaisyToolchain/0.2.0/arm/arm-none-eabi/include/stdlib.h"
 1471              		.file 33 "/Library/DaisyToolchain/0.2.0/arm/arm-none-eabi/include/c++/10.3.1/math.h"
 1472              		.file 34 "/Library/DaisyToolchain/0.2.0/arm/arm-none-eabi/include/c++/10.3.1/stdlib.h"
 1473              		.file 35 "../libDaisy/src/util/wav_format.h"
 1474              		.file 36 "../libDaisy/src/dev/max11300.h"
 1475              		.file 37 "../libDaisy/src/daisy_seed.h"
 1476              		.file 38 "/Library/DaisyToolchain/0.2.0/arm/lib/gcc/arm-none-eabi/10.3.1/include/stdarg.h"
 1477              		.file 39 "/Library/DaisyToolchain/0.2.0/arm/arm-none-eabi/include/stdio.h"
 1478              		.file 40 "/Library/DaisyToolchain/0.2.0/arm/arm-none-eabi/include/string.h"
 1479              		.file 41 "../DaisySP/Source/Control/adenv.h"
 1480              		.file 42 "../DaisySP/Source/Utility/dsp.h"
 1481              		.file 43 "/Library/DaisyToolchain/0.2.0/arm/arm-none-eabi/include/wchar.h"
 1482              		.file 44 "/Library/DaisyToolchain/0.2.0/arm/arm-none-eabi/include/time.h"
 1483              		.file 45 "/Library/DaisyToolchain/0.2.0/arm/arm-none-eabi/include/locale.h"
 1484              		.file 46 "../DaisySP/Source/Effects/../../../src/sample.h"
 1485              		.file 47 "constants_utils.h"
 1486              		.file 48 "../libDaisy/src/dev/sr_595.h"
 1487              		.file 49 "Grain.h"
 1488              		.file 50 "<built-in>"
ARM GAS  /var/folders/2p/02m_5p7958535cp2tpgps0400000gn/T//ccFG1CTd.s 			page 40


DEFINED SYMBOLS
                            *ABS*:0000000000000000 Grain.cpp
/var/folders/2p/02m_5p7958535cp2tpgps0400000gn/T//ccFG1CTd.s:19     .text._ZSt4sqrtf:0000000000000000 $t
/var/folders/2p/02m_5p7958535cp2tpgps0400000gn/T//ccFG1CTd.s:25     .text._ZSt4sqrtf:0000000000000000 _ZSt4sqrtf
/var/folders/2p/02m_5p7958535cp2tpgps0400000gn/T//ccFG1CTd.s:57     .rodata._ZStL19piecewise_construct:0000000000000000 $d
/var/folders/2p/02m_5p7958535cp2tpgps0400000gn/T//ccFG1CTd.s:60     .rodata._ZStL19piecewise_construct:0000000000000000 _ZStL19piecewise_construct
/var/folders/2p/02m_5p7958535cp2tpgps0400000gn/T//ccFG1CTd.s:63     .rodata._ZN5daisyL15kWavFileChunkIdE:0000000000000000 $d
/var/folders/2p/02m_5p7958535cp2tpgps0400000gn/T//ccFG1CTd.s:66     .rodata._ZN5daisyL15kWavFileChunkIdE:0000000000000000 _ZN5daisyL15kWavFileChunkIdE
/var/folders/2p/02m_5p7958535cp2tpgps0400000gn/T//ccFG1CTd.s:69     .rodata._ZN5daisyL14kWavFileWaveIdE:0000000000000000 $d
/var/folders/2p/02m_5p7958535cp2tpgps0400000gn/T//ccFG1CTd.s:72     .rodata._ZN5daisyL14kWavFileWaveIdE:0000000000000000 _ZN5daisyL14kWavFileWaveIdE
/var/folders/2p/02m_5p7958535cp2tpgps0400000gn/T//ccFG1CTd.s:75     .rodata._ZN5daisyL19kWavFileSubChunk1IdE:0000000000000000 $d
/var/folders/2p/02m_5p7958535cp2tpgps0400000gn/T//ccFG1CTd.s:78     .rodata._ZN5daisyL19kWavFileSubChunk1IdE:0000000000000000 _ZN5daisyL19kWavFileSubChunk1IdE
/var/folders/2p/02m_5p7958535cp2tpgps0400000gn/T//ccFG1CTd.s:81     .rodata._ZN5daisyL19kWavFileSubChunk2IdE:0000000000000000 $d
/var/folders/2p/02m_5p7958535cp2tpgps0400000gn/T//ccFG1CTd.s:84     .rodata._ZN5daisyL19kWavFileSubChunk2IdE:0000000000000000 _ZN5daisyL19kWavFileSubChunk2IdE
/var/folders/2p/02m_5p7958535cp2tpgps0400000gn/T//ccFG1CTd.s:87     .rodata._ZL19kMaxSr595DaisyChain:0000000000000000 $d
/var/folders/2p/02m_5p7958535cp2tpgps0400000gn/T//ccFG1CTd.s:90     .rodata._ZL19kMaxSr595DaisyChain:0000000000000000 _ZL19kMaxSr595DaisyChain
/var/folders/2p/02m_5p7958535cp2tpgps0400000gn/T//ccFG1CTd.s:93     .rodata._ZN5daisy4seedL2D0E:0000000000000000 $d
/var/folders/2p/02m_5p7958535cp2tpgps0400000gn/T//ccFG1CTd.s:96     .rodata._ZN5daisy4seedL2D0E:0000000000000000 _ZN5daisy4seedL2D0E
/var/folders/2p/02m_5p7958535cp2tpgps0400000gn/T//ccFG1CTd.s:100    .rodata._ZN5daisy4seedL2D1E:0000000000000000 $d
/var/folders/2p/02m_5p7958535cp2tpgps0400000gn/T//ccFG1CTd.s:103    .rodata._ZN5daisy4seedL2D1E:0000000000000000 _ZN5daisy4seedL2D1E
/var/folders/2p/02m_5p7958535cp2tpgps0400000gn/T//ccFG1CTd.s:107    .rodata._ZN5daisy4seedL2D2E:0000000000000000 $d
/var/folders/2p/02m_5p7958535cp2tpgps0400000gn/T//ccFG1CTd.s:110    .rodata._ZN5daisy4seedL2D2E:0000000000000000 _ZN5daisy4seedL2D2E
/var/folders/2p/02m_5p7958535cp2tpgps0400000gn/T//ccFG1CTd.s:114    .rodata._ZN5daisy4seedL2D3E:0000000000000000 $d
/var/folders/2p/02m_5p7958535cp2tpgps0400000gn/T//ccFG1CTd.s:117    .rodata._ZN5daisy4seedL2D3E:0000000000000000 _ZN5daisy4seedL2D3E
/var/folders/2p/02m_5p7958535cp2tpgps0400000gn/T//ccFG1CTd.s:121    .rodata._ZN5daisy4seedL2D4E:0000000000000000 $d
/var/folders/2p/02m_5p7958535cp2tpgps0400000gn/T//ccFG1CTd.s:124    .rodata._ZN5daisy4seedL2D4E:0000000000000000 _ZN5daisy4seedL2D4E
/var/folders/2p/02m_5p7958535cp2tpgps0400000gn/T//ccFG1CTd.s:128    .rodata._ZN5daisy4seedL2D5E:0000000000000000 $d
/var/folders/2p/02m_5p7958535cp2tpgps0400000gn/T//ccFG1CTd.s:131    .rodata._ZN5daisy4seedL2D5E:0000000000000000 _ZN5daisy4seedL2D5E
/var/folders/2p/02m_5p7958535cp2tpgps0400000gn/T//ccFG1CTd.s:135    .rodata._ZN5daisy4seedL2D6E:0000000000000000 $d
/var/folders/2p/02m_5p7958535cp2tpgps0400000gn/T//ccFG1CTd.s:138    .rodata._ZN5daisy4seedL2D6E:0000000000000000 _ZN5daisy4seedL2D6E
/var/folders/2p/02m_5p7958535cp2tpgps0400000gn/T//ccFG1CTd.s:142    .rodata._ZN5daisy4seedL2D7E:0000000000000000 $d
/var/folders/2p/02m_5p7958535cp2tpgps0400000gn/T//ccFG1CTd.s:145    .rodata._ZN5daisy4seedL2D7E:0000000000000000 _ZN5daisy4seedL2D7E
/var/folders/2p/02m_5p7958535cp2tpgps0400000gn/T//ccFG1CTd.s:149    .rodata._ZN5daisy4seedL2D8E:0000000000000000 $d
/var/folders/2p/02m_5p7958535cp2tpgps0400000gn/T//ccFG1CTd.s:152    .rodata._ZN5daisy4seedL2D8E:0000000000000000 _ZN5daisy4seedL2D8E
/var/folders/2p/02m_5p7958535cp2tpgps0400000gn/T//ccFG1CTd.s:156    .rodata._ZN5daisy4seedL2D9E:0000000000000000 $d
/var/folders/2p/02m_5p7958535cp2tpgps0400000gn/T//ccFG1CTd.s:159    .rodata._ZN5daisy4seedL2D9E:0000000000000000 _ZN5daisy4seedL2D9E
/var/folders/2p/02m_5p7958535cp2tpgps0400000gn/T//ccFG1CTd.s:163    .rodata._ZN5daisy4seedL3D10E:0000000000000000 $d
/var/folders/2p/02m_5p7958535cp2tpgps0400000gn/T//ccFG1CTd.s:166    .rodata._ZN5daisy4seedL3D10E:0000000000000000 _ZN5daisy4seedL3D10E
/var/folders/2p/02m_5p7958535cp2tpgps0400000gn/T//ccFG1CTd.s:170    .rodata._ZN5daisy4seedL3D11E:0000000000000000 $d
/var/folders/2p/02m_5p7958535cp2tpgps0400000gn/T//ccFG1CTd.s:173    .rodata._ZN5daisy4seedL3D11E:0000000000000000 _ZN5daisy4seedL3D11E
/var/folders/2p/02m_5p7958535cp2tpgps0400000gn/T//ccFG1CTd.s:177    .rodata._ZN5daisy4seedL3D12E:0000000000000000 $d
/var/folders/2p/02m_5p7958535cp2tpgps0400000gn/T//ccFG1CTd.s:180    .rodata._ZN5daisy4seedL3D12E:0000000000000000 _ZN5daisy4seedL3D12E
/var/folders/2p/02m_5p7958535cp2tpgps0400000gn/T//ccFG1CTd.s:184    .rodata._ZN5daisy4seedL3D13E:0000000000000000 $d
/var/folders/2p/02m_5p7958535cp2tpgps0400000gn/T//ccFG1CTd.s:187    .rodata._ZN5daisy4seedL3D13E:0000000000000000 _ZN5daisy4seedL3D13E
/var/folders/2p/02m_5p7958535cp2tpgps0400000gn/T//ccFG1CTd.s:191    .rodata._ZN5daisy4seedL3D14E:0000000000000000 $d
/var/folders/2p/02m_5p7958535cp2tpgps0400000gn/T//ccFG1CTd.s:194    .rodata._ZN5daisy4seedL3D14E:0000000000000000 _ZN5daisy4seedL3D14E
/var/folders/2p/02m_5p7958535cp2tpgps0400000gn/T//ccFG1CTd.s:198    .rodata._ZN5daisy4seedL3D15E:0000000000000000 $d
/var/folders/2p/02m_5p7958535cp2tpgps0400000gn/T//ccFG1CTd.s:201    .rodata._ZN5daisy4seedL3D15E:0000000000000000 _ZN5daisy4seedL3D15E
/var/folders/2p/02m_5p7958535cp2tpgps0400000gn/T//ccFG1CTd.s:205    .rodata._ZN5daisy4seedL3D16E:0000000000000000 $d
/var/folders/2p/02m_5p7958535cp2tpgps0400000gn/T//ccFG1CTd.s:208    .rodata._ZN5daisy4seedL3D16E:0000000000000000 _ZN5daisy4seedL3D16E
/var/folders/2p/02m_5p7958535cp2tpgps0400000gn/T//ccFG1CTd.s:212    .rodata._ZN5daisy4seedL3D17E:0000000000000000 $d
/var/folders/2p/02m_5p7958535cp2tpgps0400000gn/T//ccFG1CTd.s:215    .rodata._ZN5daisy4seedL3D17E:0000000000000000 _ZN5daisy4seedL3D17E
/var/folders/2p/02m_5p7958535cp2tpgps0400000gn/T//ccFG1CTd.s:219    .rodata._ZN5daisy4seedL3D18E:0000000000000000 $d
/var/folders/2p/02m_5p7958535cp2tpgps0400000gn/T//ccFG1CTd.s:222    .rodata._ZN5daisy4seedL3D18E:0000000000000000 _ZN5daisy4seedL3D18E
/var/folders/2p/02m_5p7958535cp2tpgps0400000gn/T//ccFG1CTd.s:226    .rodata._ZN5daisy4seedL3D19E:0000000000000000 $d
/var/folders/2p/02m_5p7958535cp2tpgps0400000gn/T//ccFG1CTd.s:229    .rodata._ZN5daisy4seedL3D19E:0000000000000000 _ZN5daisy4seedL3D19E
/var/folders/2p/02m_5p7958535cp2tpgps0400000gn/T//ccFG1CTd.s:233    .rodata._ZN5daisy4seedL3D20E:0000000000000000 $d
ARM GAS  /var/folders/2p/02m_5p7958535cp2tpgps0400000gn/T//ccFG1CTd.s 			page 41


/var/folders/2p/02m_5p7958535cp2tpgps0400000gn/T//ccFG1CTd.s:236    .rodata._ZN5daisy4seedL3D20E:0000000000000000 _ZN5daisy4seedL3D20E
/var/folders/2p/02m_5p7958535cp2tpgps0400000gn/T//ccFG1CTd.s:240    .rodata._ZN5daisy4seedL3D21E:0000000000000000 $d
/var/folders/2p/02m_5p7958535cp2tpgps0400000gn/T//ccFG1CTd.s:243    .rodata._ZN5daisy4seedL3D21E:0000000000000000 _ZN5daisy4seedL3D21E
/var/folders/2p/02m_5p7958535cp2tpgps0400000gn/T//ccFG1CTd.s:247    .rodata._ZN5daisy4seedL3D22E:0000000000000000 $d
/var/folders/2p/02m_5p7958535cp2tpgps0400000gn/T//ccFG1CTd.s:250    .rodata._ZN5daisy4seedL3D22E:0000000000000000 _ZN5daisy4seedL3D22E
/var/folders/2p/02m_5p7958535cp2tpgps0400000gn/T//ccFG1CTd.s:254    .rodata._ZN5daisy4seedL3D23E:0000000000000000 $d
/var/folders/2p/02m_5p7958535cp2tpgps0400000gn/T//ccFG1CTd.s:257    .rodata._ZN5daisy4seedL3D23E:0000000000000000 _ZN5daisy4seedL3D23E
/var/folders/2p/02m_5p7958535cp2tpgps0400000gn/T//ccFG1CTd.s:261    .rodata._ZN5daisy4seedL3D24E:0000000000000000 $d
/var/folders/2p/02m_5p7958535cp2tpgps0400000gn/T//ccFG1CTd.s:264    .rodata._ZN5daisy4seedL3D24E:0000000000000000 _ZN5daisy4seedL3D24E
/var/folders/2p/02m_5p7958535cp2tpgps0400000gn/T//ccFG1CTd.s:268    .rodata._ZN5daisy4seedL3D25E:0000000000000000 $d
/var/folders/2p/02m_5p7958535cp2tpgps0400000gn/T//ccFG1CTd.s:271    .rodata._ZN5daisy4seedL3D25E:0000000000000000 _ZN5daisy4seedL3D25E
/var/folders/2p/02m_5p7958535cp2tpgps0400000gn/T//ccFG1CTd.s:274    .rodata._ZN5daisy4seedL3D26E:0000000000000000 $d
/var/folders/2p/02m_5p7958535cp2tpgps0400000gn/T//ccFG1CTd.s:277    .rodata._ZN5daisy4seedL3D26E:0000000000000000 _ZN5daisy4seedL3D26E
/var/folders/2p/02m_5p7958535cp2tpgps0400000gn/T//ccFG1CTd.s:281    .rodata._ZN5daisy4seedL3D27E:0000000000000000 $d
/var/folders/2p/02m_5p7958535cp2tpgps0400000gn/T//ccFG1CTd.s:284    .rodata._ZN5daisy4seedL3D27E:0000000000000000 _ZN5daisy4seedL3D27E
/var/folders/2p/02m_5p7958535cp2tpgps0400000gn/T//ccFG1CTd.s:288    .rodata._ZN5daisy4seedL3D28E:0000000000000000 $d
/var/folders/2p/02m_5p7958535cp2tpgps0400000gn/T//ccFG1CTd.s:291    .rodata._ZN5daisy4seedL3D28E:0000000000000000 _ZN5daisy4seedL3D28E
/var/folders/2p/02m_5p7958535cp2tpgps0400000gn/T//ccFG1CTd.s:295    .rodata._ZN5daisy4seedL3D29E:0000000000000000 $d
/var/folders/2p/02m_5p7958535cp2tpgps0400000gn/T//ccFG1CTd.s:298    .rodata._ZN5daisy4seedL3D29E:0000000000000000 _ZN5daisy4seedL3D29E
/var/folders/2p/02m_5p7958535cp2tpgps0400000gn/T//ccFG1CTd.s:302    .rodata._ZN5daisy4seedL3D30E:0000000000000000 $d
/var/folders/2p/02m_5p7958535cp2tpgps0400000gn/T//ccFG1CTd.s:305    .rodata._ZN5daisy4seedL3D30E:0000000000000000 _ZN5daisy4seedL3D30E
/var/folders/2p/02m_5p7958535cp2tpgps0400000gn/T//ccFG1CTd.s:309    .rodata._ZN5daisy4seedL2A0E:0000000000000000 $d
/var/folders/2p/02m_5p7958535cp2tpgps0400000gn/T//ccFG1CTd.s:312    .rodata._ZN5daisy4seedL2A0E:0000000000000000 _ZN5daisy4seedL2A0E
/var/folders/2p/02m_5p7958535cp2tpgps0400000gn/T//ccFG1CTd.s:316    .rodata._ZN5daisy4seedL2A1E:0000000000000000 $d
/var/folders/2p/02m_5p7958535cp2tpgps0400000gn/T//ccFG1CTd.s:319    .rodata._ZN5daisy4seedL2A1E:0000000000000000 _ZN5daisy4seedL2A1E
/var/folders/2p/02m_5p7958535cp2tpgps0400000gn/T//ccFG1CTd.s:323    .rodata._ZN5daisy4seedL2A2E:0000000000000000 $d
/var/folders/2p/02m_5p7958535cp2tpgps0400000gn/T//ccFG1CTd.s:326    .rodata._ZN5daisy4seedL2A2E:0000000000000000 _ZN5daisy4seedL2A2E
/var/folders/2p/02m_5p7958535cp2tpgps0400000gn/T//ccFG1CTd.s:330    .rodata._ZN5daisy4seedL2A3E:0000000000000000 $d
/var/folders/2p/02m_5p7958535cp2tpgps0400000gn/T//ccFG1CTd.s:333    .rodata._ZN5daisy4seedL2A3E:0000000000000000 _ZN5daisy4seedL2A3E
/var/folders/2p/02m_5p7958535cp2tpgps0400000gn/T//ccFG1CTd.s:337    .rodata._ZN5daisy4seedL2A4E:0000000000000000 $d
/var/folders/2p/02m_5p7958535cp2tpgps0400000gn/T//ccFG1CTd.s:340    .rodata._ZN5daisy4seedL2A4E:0000000000000000 _ZN5daisy4seedL2A4E
/var/folders/2p/02m_5p7958535cp2tpgps0400000gn/T//ccFG1CTd.s:344    .rodata._ZN5daisy4seedL2A5E:0000000000000000 $d
/var/folders/2p/02m_5p7958535cp2tpgps0400000gn/T//ccFG1CTd.s:347    .rodata._ZN5daisy4seedL2A5E:0000000000000000 _ZN5daisy4seedL2A5E
/var/folders/2p/02m_5p7958535cp2tpgps0400000gn/T//ccFG1CTd.s:351    .rodata._ZN5daisy4seedL2A6E:0000000000000000 $d
/var/folders/2p/02m_5p7958535cp2tpgps0400000gn/T//ccFG1CTd.s:354    .rodata._ZN5daisy4seedL2A6E:0000000000000000 _ZN5daisy4seedL2A6E
/var/folders/2p/02m_5p7958535cp2tpgps0400000gn/T//ccFG1CTd.s:358    .rodata._ZN5daisy4seedL2A7E:0000000000000000 $d
/var/folders/2p/02m_5p7958535cp2tpgps0400000gn/T//ccFG1CTd.s:361    .rodata._ZN5daisy4seedL2A7E:0000000000000000 _ZN5daisy4seedL2A7E
/var/folders/2p/02m_5p7958535cp2tpgps0400000gn/T//ccFG1CTd.s:365    .rodata._ZN5daisy4seedL2A8E:0000000000000000 $d
/var/folders/2p/02m_5p7958535cp2tpgps0400000gn/T//ccFG1CTd.s:368    .rodata._ZN5daisy4seedL2A8E:0000000000000000 _ZN5daisy4seedL2A8E
/var/folders/2p/02m_5p7958535cp2tpgps0400000gn/T//ccFG1CTd.s:372    .rodata._ZN5daisy4seedL2A9E:0000000000000000 $d
/var/folders/2p/02m_5p7958535cp2tpgps0400000gn/T//ccFG1CTd.s:375    .rodata._ZN5daisy4seedL2A9E:0000000000000000 _ZN5daisy4seedL2A9E
/var/folders/2p/02m_5p7958535cp2tpgps0400000gn/T//ccFG1CTd.s:379    .rodata._ZN5daisy4seedL3A10E:0000000000000000 $d
/var/folders/2p/02m_5p7958535cp2tpgps0400000gn/T//ccFG1CTd.s:382    .rodata._ZN5daisy4seedL3A10E:0000000000000000 _ZN5daisy4seedL3A10E
/var/folders/2p/02m_5p7958535cp2tpgps0400000gn/T//ccFG1CTd.s:385    .rodata._ZN5daisy4seedL3A11E:0000000000000000 $d
/var/folders/2p/02m_5p7958535cp2tpgps0400000gn/T//ccFG1CTd.s:388    .rodata._ZN5daisy4seedL3A11E:0000000000000000 _ZN5daisy4seedL3A11E
/var/folders/2p/02m_5p7958535cp2tpgps0400000gn/T//ccFG1CTd.s:392    .rodata._ZN5daisy4seedL3D31E:0000000000000000 $d
/var/folders/2p/02m_5p7958535cp2tpgps0400000gn/T//ccFG1CTd.s:395    .rodata._ZN5daisy4seedL3D31E:0000000000000000 _ZN5daisy4seedL3D31E
/var/folders/2p/02m_5p7958535cp2tpgps0400000gn/T//ccFG1CTd.s:399    .rodata._ZN5daisy4seedL3D32E:0000000000000000 $d
/var/folders/2p/02m_5p7958535cp2tpgps0400000gn/T//ccFG1CTd.s:402    .rodata._ZN5daisy4seedL3D32E:0000000000000000 _ZN5daisy4seedL3D32E
/var/folders/2p/02m_5p7958535cp2tpgps0400000gn/T//ccFG1CTd.s:406    .rodata._ZN5daisy4seedL3A12E:0000000000000000 $d
/var/folders/2p/02m_5p7958535cp2tpgps0400000gn/T//ccFG1CTd.s:409    .rodata._ZN5daisy4seedL3A12E:0000000000000000 _ZN5daisy4seedL3A12E
/var/folders/2p/02m_5p7958535cp2tpgps0400000gn/T//ccFG1CTd.s:413    .rodata._ZN5daisy4seedL3A13E:0000000000000000 $d
/var/folders/2p/02m_5p7958535cp2tpgps0400000gn/T//ccFG1CTd.s:416    .rodata._ZN5daisy4seedL3A13E:0000000000000000 _ZN5daisy4seedL3A13E
/var/folders/2p/02m_5p7958535cp2tpgps0400000gn/T//ccFG1CTd.s:420    .text._ZL20__gthread_key_deletei:0000000000000000 $t
/var/folders/2p/02m_5p7958535cp2tpgps0400000gn/T//ccFG1CTd.s:425    .text._ZL20__gthread_key_deletei:0000000000000000 _ZL20__gthread_key_deletei
/var/folders/2p/02m_5p7958535cp2tpgps0400000gn/T//ccFG1CTd.s:458    .rodata._ZN7daisyspL9kRandFracE:0000000000000000 $d
/var/folders/2p/02m_5p7958535cp2tpgps0400000gn/T//ccFG1CTd.s:461    .rodata._ZN7daisyspL9kRandFracE:0000000000000000 _ZN7daisyspL9kRandFracE
ARM GAS  /var/folders/2p/02m_5p7958535cp2tpgps0400000gn/T//ccFG1CTd.s 			page 42


/var/folders/2p/02m_5p7958535cp2tpgps0400000gn/T//ccFG1CTd.s:464    .rodata._ZN7daisyspL11kOneTwelfthE:0000000000000000 $d
/var/folders/2p/02m_5p7958535cp2tpgps0400000gn/T//ccFG1CTd.s:467    .rodata._ZN7daisyspL11kOneTwelfthE:0000000000000000 _ZN7daisyspL11kOneTwelfthE
/var/folders/2p/02m_5p7958535cp2tpgps0400000gn/T//ccFG1CTd.s:470    .rodata._ZL11SAMPLE_RATE:0000000000000000 $d
/var/folders/2p/02m_5p7958535cp2tpgps0400000gn/T//ccFG1CTd.s:473    .rodata._ZL11SAMPLE_RATE:0000000000000000 _ZL11SAMPLE_RATE
/var/folders/2p/02m_5p7958535cp2tpgps0400000gn/T//ccFG1CTd.s:476    .rodata._ZL17SAMPLE_RATE_FLOAT:0000000000000000 $d
/var/folders/2p/02m_5p7958535cp2tpgps0400000gn/T//ccFG1CTd.s:479    .rodata._ZL17SAMPLE_RATE_FLOAT:0000000000000000 _ZL17SAMPLE_RATE_FLOAT
/var/folders/2p/02m_5p7958535cp2tpgps0400000gn/T//ccFG1CTd.s:482    .rodata._ZL9BIT_DEPTH:0000000000000000 $d
/var/folders/2p/02m_5p7958535cp2tpgps0400000gn/T//ccFG1CTd.s:485    .rodata._ZL9BIT_DEPTH:0000000000000000 _ZL9BIT_DEPTH
/var/folders/2p/02m_5p7958535cp2tpgps0400000gn/T//ccFG1CTd.s:488    .rodata._ZL10DELAY_TIME:0000000000000000 $d
/var/folders/2p/02m_5p7958535cp2tpgps0400000gn/T//ccFG1CTd.s:491    .rodata._ZL10DELAY_TIME:0000000000000000 _ZL10DELAY_TIME
/var/folders/2p/02m_5p7958535cp2tpgps0400000gn/T//ccFG1CTd.s:494    .rodata._ZL15MAX_REC_OUT_LEN:0000000000000000 $d
/var/folders/2p/02m_5p7958535cp2tpgps0400000gn/T//ccFG1CTd.s:497    .rodata._ZL15MAX_REC_OUT_LEN:0000000000000000 _ZL15MAX_REC_OUT_LEN
/var/folders/2p/02m_5p7958535cp2tpgps0400000gn/T//ccFG1CTd.s:500    .rodata._ZL17CHNL_BUF_SIZE_ABS:0000000000000000 $d
/var/folders/2p/02m_5p7958535cp2tpgps0400000gn/T//ccFG1CTd.s:503    .rodata._ZL17CHNL_BUF_SIZE_ABS:0000000000000000 _ZL17CHNL_BUF_SIZE_ABS
/var/folders/2p/02m_5p7958535cp2tpgps0400000gn/T//ccFG1CTd.s:506    .rodata._ZL19CHNL_BUF_SIZE_SAMPS:0000000000000000 $d
/var/folders/2p/02m_5p7958535cp2tpgps0400000gn/T//ccFG1CTd.s:509    .rodata._ZL19CHNL_BUF_SIZE_SAMPS:0000000000000000 _ZL19CHNL_BUF_SIZE_SAMPS
/var/folders/2p/02m_5p7958535cp2tpgps0400000gn/T//ccFG1CTd.s:512    .rodata._ZL12BUF_CHUNK_SZ:0000000000000000 $d
/var/folders/2p/02m_5p7958535cp2tpgps0400000gn/T//ccFG1CTd.s:515    .rodata._ZL12BUF_CHUNK_SZ:0000000000000000 _ZL12BUF_CHUNK_SZ
/var/folders/2p/02m_5p7958535cp2tpgps0400000gn/T//ccFG1CTd.s:518    .rodata._ZL9MAX_FILES:0000000000000000 $d
/var/folders/2p/02m_5p7958535cp2tpgps0400000gn/T//ccFG1CTd.s:521    .rodata._ZL9MAX_FILES:0000000000000000 _ZL9MAX_FILES
/var/folders/2p/02m_5p7958535cp2tpgps0400000gn/T//ccFG1CTd.s:524    .rodata._ZL13MAX_FNAME_LEN:0000000000000000 $d
/var/folders/2p/02m_5p7958535cp2tpgps0400000gn/T//ccFG1CTd.s:527    .rodata._ZL13MAX_FNAME_LEN:0000000000000000 _ZL13MAX_FNAME_LEN
/var/folders/2p/02m_5p7958535cp2tpgps0400000gn/T//ccFG1CTd.s:530    .rodata._ZL10MIN_GRAINS:0000000000000000 $d
/var/folders/2p/02m_5p7958535cp2tpgps0400000gn/T//ccFG1CTd.s:533    .rodata._ZL10MIN_GRAINS:0000000000000000 _ZL10MIN_GRAINS
/var/folders/2p/02m_5p7958535cp2tpgps0400000gn/T//ccFG1CTd.s:536    .rodata._ZL10MAX_GRAINS:0000000000000000 $d
/var/folders/2p/02m_5p7958535cp2tpgps0400000gn/T//ccFG1CTd.s:539    .rodata._ZL10MAX_GRAINS:0000000000000000 _ZL10MAX_GRAINS
/var/folders/2p/02m_5p7958535cp2tpgps0400000gn/T//ccFG1CTd.s:542    .rodata._ZL25GRAIN_INCREASE_SMOOTHNESS:0000000000000000 $d
/var/folders/2p/02m_5p7958535cp2tpgps0400000gn/T//ccFG1CTd.s:545    .rodata._ZL25GRAIN_INCREASE_SMOOTHNESS:0000000000000000 _ZL25GRAIN_INCREASE_SMOOTHNESS
/var/folders/2p/02m_5p7958535cp2tpgps0400000gn/T//ccFG1CTd.s:548    .rodata._ZL15NUM_SYNTH_MODES:0000000000000000 $d
/var/folders/2p/02m_5p7958535cp2tpgps0400000gn/T//ccFG1CTd.s:551    .rodata._ZL15NUM_SYNTH_MODES:0000000000000000 _ZL15NUM_SYNTH_MODES
/var/folders/2p/02m_5p7958535cp2tpgps0400000gn/T//ccFG1CTd.s:554    .rodata._ZL22PARAM_CHANGE_THRESHOLD:0000000000000000 $d
/var/folders/2p/02m_5p7958535cp2tpgps0400000gn/T//ccFG1CTd.s:557    .rodata._ZL22PARAM_CHANGE_THRESHOLD:0000000000000000 _ZL22PARAM_CHANGE_THRESHOLD
/var/folders/2p/02m_5p7958535cp2tpgps0400000gn/T//ccFG1CTd.s:560    .rodata._ZL17MIN_GRAIN_SIZE_MS:0000000000000000 $d
/var/folders/2p/02m_5p7958535cp2tpgps0400000gn/T//ccFG1CTd.s:563    .rodata._ZL17MIN_GRAIN_SIZE_MS:0000000000000000 _ZL17MIN_GRAIN_SIZE_MS
/var/folders/2p/02m_5p7958535cp2tpgps0400000gn/T//ccFG1CTd.s:566    .rodata._ZL17MAX_GRAIN_SIZE_MS:0000000000000000 $d
/var/folders/2p/02m_5p7958535cp2tpgps0400000gn/T//ccFG1CTd.s:569    .rodata._ZL17MAX_GRAIN_SIZE_MS:0000000000000000 _ZL17MAX_GRAIN_SIZE_MS
/var/folders/2p/02m_5p7958535cp2tpgps0400000gn/T//ccFG1CTd.s:572    .rodata._ZL22MIN_GRAIN_SIZE_SAMPLES:0000000000000000 $d
/var/folders/2p/02m_5p7958535cp2tpgps0400000gn/T//ccFG1CTd.s:575    .rodata._ZL22MIN_GRAIN_SIZE_SAMPLES:0000000000000000 _ZL22MIN_GRAIN_SIZE_SAMPLES
/var/folders/2p/02m_5p7958535cp2tpgps0400000gn/T//ccFG1CTd.s:578    .rodata._ZL22MAX_GRAIN_SIZE_SAMPLES:0000000000000000 $d
/var/folders/2p/02m_5p7958535cp2tpgps0400000gn/T//ccFG1CTd.s:581    .rodata._ZL22MAX_GRAIN_SIZE_SAMPLES:0000000000000000 _ZL22MAX_GRAIN_SIZE_SAMPLES
/var/folders/2p/02m_5p7958535cp2tpgps0400000gn/T//ccFG1CTd.s:584    .rodata._ZL9MIN_PITCH:0000000000000000 $d
/var/folders/2p/02m_5p7958535cp2tpgps0400000gn/T//ccFG1CTd.s:587    .rodata._ZL9MIN_PITCH:0000000000000000 _ZL9MIN_PITCH
/var/folders/2p/02m_5p7958535cp2tpgps0400000gn/T//ccFG1CTd.s:590    .rodata._ZL9MAX_PITCH:0000000000000000 $d
/var/folders/2p/02m_5p7958535cp2tpgps0400000gn/T//ccFG1CTd.s:593    .rodata._ZL9MAX_PITCH:0000000000000000 _ZL9MAX_PITCH
/var/folders/2p/02m_5p7958535cp2tpgps0400000gn/T//ccFG1CTd.s:596    .rodata._ZL14DEBOUNCE_DELAY:0000000000000000 $d
/var/folders/2p/02m_5p7958535cp2tpgps0400000gn/T//ccFG1CTd.s:599    .rodata._ZL14DEBOUNCE_DELAY:0000000000000000 _ZL14DEBOUNCE_DELAY
/var/folders/2p/02m_5p7958535cp2tpgps0400000gn/T//ccFG1CTd.s:602    .rodata._ZL15LONG_PRESS_TIME:0000000000000000 $d
/var/folders/2p/02m_5p7958535cp2tpgps0400000gn/T//ccFG1CTd.s:605    .rodata._ZL15LONG_PRESS_TIME:0000000000000000 _ZL15LONG_PRESS_TIME
/var/folders/2p/02m_5p7958535cp2tpgps0400000gn/T//ccFG1CTd.s:608    .rodata._ZL18HIPASS_LOWER_BOUND:0000000000000000 $d
/var/folders/2p/02m_5p7958535cp2tpgps0400000gn/T//ccFG1CTd.s:611    .rodata._ZL18HIPASS_LOWER_BOUND:0000000000000000 _ZL18HIPASS_LOWER_BOUND
/var/folders/2p/02m_5p7958535cp2tpgps0400000gn/T//ccFG1CTd.s:614    .rodata._ZL18HIPASS_UPPER_BOUND:0000000000000000 $d
/var/folders/2p/02m_5p7958535cp2tpgps0400000gn/T//ccFG1CTd.s:617    .rodata._ZL18HIPASS_UPPER_BOUND:0000000000000000 _ZL18HIPASS_UPPER_BOUND
/var/folders/2p/02m_5p7958535cp2tpgps0400000gn/T//ccFG1CTd.s:620    .rodata._ZL18LOPASS_LOWER_BOUND:0000000000000000 $d
/var/folders/2p/02m_5p7958535cp2tpgps0400000gn/T//ccFG1CTd.s:623    .rodata._ZL18LOPASS_LOWER_BOUND:0000000000000000 _ZL18LOPASS_LOWER_BOUND
/var/folders/2p/02m_5p7958535cp2tpgps0400000gn/T//ccFG1CTd.s:626    .rodata._ZL18LOPASS_UPPER_BOUND:0000000000000000 $d
/var/folders/2p/02m_5p7958535cp2tpgps0400000gn/T//ccFG1CTd.s:629    .rodata._ZL18LOPASS_UPPER_BOUND:0000000000000000 _ZL18LOPASS_UPPER_BOUND
/var/folders/2p/02m_5p7958535cp2tpgps0400000gn/T//ccFG1CTd.s:632    .rodata._ZL10HICUT_FREQ:0000000000000000 $d
ARM GAS  /var/folders/2p/02m_5p7958535cp2tpgps0400000gn/T//ccFG1CTd.s 			page 43


/var/folders/2p/02m_5p7958535cp2tpgps0400000gn/T//ccFG1CTd.s:635    .rodata._ZL10HICUT_FREQ:0000000000000000 _ZL10HICUT_FREQ
/var/folders/2p/02m_5p7958535cp2tpgps0400000gn/T//ccFG1CTd.s:638    .rodata._ZL6halfpi:0000000000000000 $d
/var/folders/2p/02m_5p7958535cp2tpgps0400000gn/T//ccFG1CTd.s:641    .rodata._ZL6halfpi:0000000000000000 _ZL6halfpi
/var/folders/2p/02m_5p7958535cp2tpgps0400000gn/T//ccFG1CTd.s:644    .text._ZN11GrainPhasor4InitEjf:0000000000000000 $t
/var/folders/2p/02m_5p7958535cp2tpgps0400000gn/T//ccFG1CTd.s:650    .text._ZN11GrainPhasor4InitEjf:0000000000000000 _ZN11GrainPhasor4InitEjf
/var/folders/2p/02m_5p7958535cp2tpgps0400000gn/T//ccFG1CTd.s:701    .text._ZN11GrainPhasor13GrainFinishedEv:0000000000000000 $t
/var/folders/2p/02m_5p7958535cp2tpgps0400000gn/T//ccFG1CTd.s:707    .text._ZN11GrainPhasor13GrainFinishedEv:0000000000000000 _ZN11GrainPhasor13GrainFinishedEv
/var/folders/2p/02m_5p7958535cp2tpgps0400000gn/T//ccFG1CTd.s:740    .text._ZN11GrainPhasor7ProcessEv:0000000000000000 $t
/var/folders/2p/02m_5p7958535cp2tpgps0400000gn/T//ccFG1CTd.s:746    .text._ZN11GrainPhasor7ProcessEv:0000000000000000 _ZN11GrainPhasor7ProcessEv
/var/folders/2p/02m_5p7958535cp2tpgps0400000gn/T//ccFG1CTd.s:823    .bss._ZN5Grain10audio_len_E:0000000000000000 _ZN5Grain10audio_len_E
/var/folders/2p/02m_5p7958535cp2tpgps0400000gn/T//ccFG1CTd.s:820    .bss._ZN5Grain10audio_len_E:0000000000000000 $d
/var/folders/2p/02m_5p7958535cp2tpgps0400000gn/T//ccFG1CTd.s:830    .bss._ZN5Grain9left_buf_E:0000000000000000 _ZN5Grain9left_buf_E
/var/folders/2p/02m_5p7958535cp2tpgps0400000gn/T//ccFG1CTd.s:827    .bss._ZN5Grain9left_buf_E:0000000000000000 $d
/var/folders/2p/02m_5p7958535cp2tpgps0400000gn/T//ccFG1CTd.s:837    .bss._ZN5Grain10right_buf_E:0000000000000000 _ZN5Grain10right_buf_E
/var/folders/2p/02m_5p7958535cp2tpgps0400000gn/T//ccFG1CTd.s:834    .bss._ZN5Grain10right_buf_E:0000000000000000 $d
/var/folders/2p/02m_5p7958535cp2tpgps0400000gn/T//ccFG1CTd.s:844    .rodata._ZN5Grain12start_decay_E:0000000000000000 _ZN5Grain12start_decay_E
/var/folders/2p/02m_5p7958535cp2tpgps0400000gn/T//ccFG1CTd.s:841    .rodata._ZN5Grain12start_decay_E:0000000000000000 $d
/var/folders/2p/02m_5p7958535cp2tpgps0400000gn/T//ccFG1CTd.s:851    .rodata._ZN5Grain11decay_rate_E:0000000000000000 _ZN5Grain11decay_rate_E
/var/folders/2p/02m_5p7958535cp2tpgps0400000gn/T//ccFG1CTd.s:848    .rodata._ZN5Grain11decay_rate_E:0000000000000000 $d
/var/folders/2p/02m_5p7958535cp2tpgps0400000gn/T//ccFG1CTd.s:854    .text._ZN5Grain4InitEv:0000000000000000 $t
/var/folders/2p/02m_5p7958535cp2tpgps0400000gn/T//ccFG1CTd.s:860    .text._ZN5Grain4InitEv:0000000000000000 _ZN5Grain4InitEv
/var/folders/2p/02m_5p7958535cp2tpgps0400000gn/T//ccFG1CTd.s:895    .text._ZN5Grain7TriggerEjjff:0000000000000000 $t
/var/folders/2p/02m_5p7958535cp2tpgps0400000gn/T//ccFG1CTd.s:901    .text._ZN5Grain7TriggerEjjff:0000000000000000 _ZN5Grain7TriggerEjjff
/var/folders/2p/02m_5p7958535cp2tpgps0400000gn/T//ccFG1CTd.s:1285   .text._ZN5Grain11SetSpawnPosEj:0000000000000000 _ZN5Grain11SetSpawnPosEj
/var/folders/2p/02m_5p7958535cp2tpgps0400000gn/T//ccFG1CTd.s:1326   .text._ZN5Grain12SetGrainSizeEj:0000000000000000 _ZN5Grain12SetGrainSizeEj
/var/folders/2p/02m_5p7958535cp2tpgps0400000gn/T//ccFG1CTd.s:1367   .text._ZN5Grain13SetPitchRatioEf:0000000000000000 _ZN5Grain13SetPitchRatioEf
/var/folders/2p/02m_5p7958535cp2tpgps0400000gn/T//ccFG1CTd.s:975    .text._ZN5Grain7TriggerEjjff:0000000000000070 $d
/var/folders/2p/02m_5p7958535cp2tpgps0400000gn/T//ccFG1CTd.s:980    .text._ZN5Grain7ProcessE6Sample:0000000000000000 $t
/var/folders/2p/02m_5p7958535cp2tpgps0400000gn/T//ccFG1CTd.s:986    .text._ZN5Grain7ProcessE6Sample:0000000000000000 _ZN5Grain7ProcessE6Sample
/var/folders/2p/02m_5p7958535cp2tpgps0400000gn/T//ccFG1CTd.s:1229   .text._ZN5Grain13ApplyEnvelopeEf:0000000000000000 _ZN5Grain13ApplyEnvelopeEf
/var/folders/2p/02m_5p7958535cp2tpgps0400000gn/T//ccFG1CTd.s:1215   .text._ZN5Grain7ProcessE6Sample:00000000000001bc $d
/var/folders/2p/02m_5p7958535cp2tpgps0400000gn/T//ccFG1CTd.s:1223   .text._ZN5Grain13ApplyEnvelopeEf:0000000000000000 $t
/var/folders/2p/02m_5p7958535cp2tpgps0400000gn/T//ccFG1CTd.s:1273   .text._ZN5Grain13ApplyEnvelopeEf:0000000000000048 $d
/var/folders/2p/02m_5p7958535cp2tpgps0400000gn/T//ccFG1CTd.s:1279   .text._ZN5Grain11SetSpawnPosEj:0000000000000000 $t
/var/folders/2p/02m_5p7958535cp2tpgps0400000gn/T//ccFG1CTd.s:1320   .text._ZN5Grain12SetGrainSizeEj:0000000000000000 $t
/var/folders/2p/02m_5p7958535cp2tpgps0400000gn/T//ccFG1CTd.s:1361   .text._ZN5Grain13SetPitchRatioEf:0000000000000000 $t
/var/folders/2p/02m_5p7958535cp2tpgps0400000gn/T//ccFG1CTd.s:1402   .text._ZN5Grain12SetDirectionEf:0000000000000000 $t
/var/folders/2p/02m_5p7958535cp2tpgps0400000gn/T//ccFG1CTd.s:1408   .text._ZN5Grain12SetDirectionEf:0000000000000000 _ZN5Grain12SetDirectionEf

UNDEFINED SYMBOLS
sqrtf
cos
