ARM GAS  /var/folders/2p/02m_5p7958535cp2tpgps0400000gn/T//ccf3x5ZF.s 			page 1


   1              		.cpu cortex-m7
   2              		.arch armv7e-m
   3              		.fpu fpv5-d16
   4              		.eabi_attribute 28, 1
   5              		.eabi_attribute 20, 1
   6              		.eabi_attribute 21, 1
   7              		.eabi_attribute 23, 3
   8              		.eabi_attribute 24, 1
   9              		.eabi_attribute 25, 1
  10              		.eabi_attribute 26, 1
  11              		.eabi_attribute 30, 2
  12              		.eabi_attribute 34, 1
  13              		.eabi_attribute 18, 4
  14              		.file	"Grain.cpp"
  15              		.text
  16              	.Ltext0:
  17              		.cfi_sections	.debug_frame
  18              		.section	.text._ZN5Grain4InitEv,"ax",%progbits
  19              		.align	1
  20              		.p2align 2,,3
  21              		.global	_ZN5Grain4InitEv
  22              		.syntax unified
  23              		.thumb
  24              		.thumb_func
  26              	_ZN5Grain4InitEv:
  27              	.LVL0:
  28              	.LFB4709:
  29              		.file 1 "Grain.cpp"
   1:Grain.cpp     **** #include "Grain.h"
   2:Grain.cpp     **** 
   3:Grain.cpp     **** 
   4:Grain.cpp     **** size_t Grain::audio_len_;
   5:Grain.cpp     **** const int16_t* Grain::left_buf_;
   6:Grain.cpp     **** const int16_t* Grain::right_buf_;
   7:Grain.cpp     **** const float Grain::start_decay_ = 0.8f;
   8:Grain.cpp     **** const float Grain::decay_rate_ = 5.0f;
   9:Grain.cpp     **** 
  10:Grain.cpp     **** /// @brief Initialise the Grain instance and its Phasor object 
  11:Grain.cpp     **** /// @param left Const pointer to the left audio data buffer
  12:Grain.cpp     **** /// @param right Const pointer to the right audio data buffer
  13:Grain.cpp     **** /// @param len Length in samples of the audio file loaded in the buffers
  14:Grain.cpp     **** void Grain::Init(){
  30              		.loc 1 14 19 view -0
  31              		.cfi_startproc
  32              		@ args = 0, pretend = 0, frame = 0
  33              		@ frame_needed = 0, uses_anonymous_args = 0
  34              		@ link register save eliminated.
  15:Grain.cpp     ****   SetPhasorMode(GrainPhasor::Mode::OneShot);
  35              		.loc 1 15 3 view .LVU1
  36              	.LBB38:
  37              	.LBB39:
  38              		.file 2 "GrainPhasor.h"
   1:GrainPhasor.h **** #include "constants_utils.h"
   2:GrainPhasor.h **** class GrainPhasor {
   3:GrainPhasor.h ****   public:
   4:GrainPhasor.h ****     enum class Mode {
   5:GrainPhasor.h ****       OneShot,
ARM GAS  /var/folders/2p/02m_5p7958535cp2tpgps0400000gn/T//ccf3x5ZF.s 			page 2


   6:GrainPhasor.h ****       OneShotReverse,
   7:GrainPhasor.h ****       Cycle,
   8:GrainPhasor.h ****       PingPong,
   9:GrainPhasor.h ****     };
  10:GrainPhasor.h **** 
  11:GrainPhasor.h ****     GrainPhasor(): 
  12:GrainPhasor.h ****       phase_(0), increment_(0), mode_(Mode::OneShot), 
  13:GrainPhasor.h ****       direction_(1), grain_finished_(false) {};
  14:GrainPhasor.h **** 
  15:GrainPhasor.h ****     ~GrainPhasor() {};
  16:GrainPhasor.h **** 
  17:GrainPhasor.h ****     void Init(size_t grain_size, float pitch_ratio, Mode play_mode){
  18:GrainPhasor.h ****       increment_ = pitch_ratio/static_cast<float>(grain_size);
  39              		.loc 2 18 31 is_stmt 0 view .LVU2
  40 0000 B7EE007A 		vmov.f32	s14, #1.0e+0
  41 0004 DFED0A7A 		vldr.32	s15, .L4
  19:GrainPhasor.h ****       mode_ = play_mode;
  20:GrainPhasor.h ****       phase_ = 0;
  21:GrainPhasor.h ****       direction_ = 1;
  42              		.loc 2 21 18 view .LVU3
  43 0008 0122     		movs	r2, #1
  44              	.LBE39:
  45              	.LBE38:
  16:Grain.cpp     ****   phasor_.Init(0.0f, 1.0f, phasor_mode_);
  46              		.loc 1 16 15 view .LVU4
  47 000a 8369     		ldr	r3, [r0, #24]
  48              	.LBB42:
  49              	.LBB40:
  20:GrainPhasor.h ****       direction_ = 1;
  50              		.loc 2 20 14 view .LVU5
  51 000c C0ED017A 		vstr.32	s15, [r0, #4]
  18:GrainPhasor.h ****       mode_ = play_mode;
  52              		.loc 2 18 31 view .LVU6
  53 0010 C7EE276A 		vdiv.f32	s13, s14, s15
  54              	.LVL1:
  18:GrainPhasor.h ****       mode_ = play_mode;
  55              		.loc 2 18 31 view .LVU7
  56              	.LBE40:
  57              	.LBE42:
  17:Grain.cpp     **** }
  18:Grain.cpp     **** 
  19:Grain.cpp     **** /// @brief Causes a grain to start playing and assigns its parameters
  20:Grain.cpp     **** /// @param pos Spawn position of the grain, within the audio buffer 
  21:Grain.cpp     **** /// @param grain_size Length of the grain in samples
  22:Grain.cpp     **** /// @param pitch_ratio Pitch of the grain - 1 plays the grain at its regular pitch
  23:Grain.cpp     **** /// @param pan Position of the grain's audio output in the stereo field
  24:Grain.cpp     **** void Grain::Trigger(size_t pos, size_t grain_size, float pitch_ratio, float pan) {
  25:Grain.cpp     ****   if (pos >= audio_len_) pos -= audio_len_;
  26:Grain.cpp     ****   spawn_pos_ = pos;
  27:Grain.cpp     ****   grain_size_ = grain_size;
  28:Grain.cpp     ****   is_active_ = true;
  29:Grain.cpp     ****   phasor_.Init(grain_size, pitch_ratio, phasor_mode_);
  30:Grain.cpp     ****   pitch_ratio_ = pitch_ratio;
  31:Grain.cpp     ****   pan_ = pan;
  32:Grain.cpp     **** }
  33:Grain.cpp     **** 
  34:Grain.cpp     **** /// @brief Processes grain phase, applies envelope and panning and mixes into the output buffers
ARM GAS  /var/folders/2p/02m_5p7958535cp2tpgps0400000gn/T//ccf3x5ZF.s 			page 3


  35:Grain.cpp     **** /// @param sum_left Pointer to variable storing total left channel audio output of all grains
  36:Grain.cpp     **** /// @param sum_right Pointer to variable storing total right channel audio output of all grains
  37:Grain.cpp     **** void Grain::Process(float *sum_left, float *sum_right) {
  38:Grain.cpp     ****   if (!is_active_) return;
  39:Grain.cpp     ****   float phase = phasor_.Process();
  40:Grain.cpp     ****   if (phasor_.GrainFinished()){
  41:Grain.cpp     ****     is_active_=false;
  42:Grain.cpp     ****     return;
  43:Grain.cpp     ****   }
  44:Grain.cpp     ****   size_t curr_idx = spawn_pos_ + static_cast<size_t>(phase*grain_size_*pitch_ratio_);
  45:Grain.cpp     ****   
  46:Grain.cpp     ****   // NOTE: CHANGED THIS TO WRAP AROUND SO CHANGE BACK IF NEEDED
  47:Grain.cpp     ****   if (curr_idx>=audio_len_-1){
  48:Grain.cpp     ****     curr_idx %= audio_len_;
  49:Grain.cpp     ****     // return;
  50:Grain.cpp     ****   }
  51:Grain.cpp     ****   else if (curr_idx<0){
  52:Grain.cpp     ****     curr_idx += audio_len_;
  53:Grain.cpp     ****     // return;
  54:Grain.cpp     ****   }
  55:Grain.cpp     **** 
  56:Grain.cpp     ****   float left = s162f(left_buf_[curr_idx]);
  57:Grain.cpp     ****   float right = s162f(right_buf_[curr_idx]);
  58:Grain.cpp     ****   float env = ApplyEnvelope(phase);
  59:Grain.cpp     **** 
  60:Grain.cpp     ****   /* approximate constant power panning - cheaper than using sin/cos
  61:Grain.cpp     ****   this works since gain_l^2 + gain_r^2 = 1
  62:Grain.cpp     ****   source: cs.cmu.edu/~music/icm-online/readings/panlaws/panlaws.pdf */
  63:Grain.cpp     ****   float gain_left = std::sqrt(1.0f-pan_);
  64:Grain.cpp     ****   float gain_right = std::sqrt(pan_);
  65:Grain.cpp     ****   *sum_left += (left*env*gain_left);
  66:Grain.cpp     ****   *sum_right += (right*env*gain_right);
  67:Grain.cpp     **** }
  68:Grain.cpp     **** 
  69:Grain.cpp     **** /// @brief Applies selected amplitude envelope to grain based on its phase
  70:Grain.cpp     **** /// @param phase Current playback position of the grain within its lifetime (from 0 - 1)
  71:Grain.cpp     **** /// @return Amplitude of the grain after envelope has been applied
  72:Grain.cpp     **** float Grain::ApplyEnvelope(float phase){
  73:Grain.cpp     ****   switch(envelope_type_){
  74:Grain.cpp     ****     case EnvelopeType::LinearDecay:
  75:Grain.cpp     ****       return 1.0f - phase;
  76:Grain.cpp     ****     case EnvelopeType::Rectangular:
  77:Grain.cpp     ****       return phase;
  78:Grain.cpp     ****     case EnvelopeType::Decay:
  79:Grain.cpp     ****     default:
  80:Grain.cpp     ****       if (phase<=start_decay_) { return 1.0f; }
  81:Grain.cpp     ****       else { return 1.0f - ((phase - start_decay_) * decay_rate_); }
  82:Grain.cpp     ****     case EnvelopeType::Triangular:
  83:Grain.cpp     ****       return 1.0f - std::abs(2.0f*phase - 1.0f);
  84:Grain.cpp     ****     /* formula from https://uk.mathworks.com/help/signal/ref/hann.html */
  85:Grain.cpp     ****     case EnvelopeType::Hann:
  86:Grain.cpp     ****       return 0.5f * (1.0f - std::cos(2.0f * M_PI * phase));
  87:Grain.cpp     ****   }
  88:Grain.cpp     **** }
  89:Grain.cpp     **** 
  90:Grain.cpp     **** void Grain::SetSpawnPos(size_t spawn_pos){ spawn_pos_ = spawn_pos; }
  91:Grain.cpp     **** void Grain::SetGrainSize(size_t grain_size) { grain_size_ = grain_size; }
ARM GAS  /var/folders/2p/02m_5p7958535cp2tpgps0400000gn/T//ccf3x5ZF.s 			page 4


  92:Grain.cpp     **** void Grain::SetPitchRatio(float pitch_ratio) { pitch_ratio_ = pitch_ratio; }
  93:Grain.cpp     **** void Grain::SetEnvelopeType(EnvelopeType type) { envelope_type_ = type; }
  94:Grain.cpp     **** 
  95:Grain.cpp     **** void Grain::SetPhasorPitchRatio(float pitch_ratio) { phasor_.SetPitchRatio(pitch_ratio, audio_len_)
  96:Grain.cpp     **** void Grain::SetPhasorMode(GrainPhasor::Mode mode) { phasor_.SetMode(mode); }
  58              		.loc 1 96 53 is_stmt 1 view .LVU8
  22:GrainPhasor.h ****       if (mode_==Mode::OneShotReverse){
  23:GrainPhasor.h ****         phase_ = 1;
  24:GrainPhasor.h ****         direction_ = -1;
  25:GrainPhasor.h ****       }
  26:GrainPhasor.h ****       grain_finished_ = false;
  27:GrainPhasor.h ****     }
  28:GrainPhasor.h **** 
  29:GrainPhasor.h ****     void Reset(){
  30:GrainPhasor.h ****       phase_ =0;
  31:GrainPhasor.h ****       direction_ = 1;
  32:GrainPhasor.h ****     }
  33:GrainPhasor.h **** 
  34:GrainPhasor.h ****     void SetPitchRatio(float pitch_ratio, float grain_size_samples){
  35:GrainPhasor.h ****       float size_ms = SamplesToMs(grain_size_samples); // NOTE: CHECK - THIS MIGHT NOT WORK PROPERL
  36:GrainPhasor.h ****       increment_ = pitch_ratio / size_ms;
  37:GrainPhasor.h ****     }
  38:GrainPhasor.h **** 
  39:GrainPhasor.h ****     void SetMode(Mode new_mode){
  40:GrainPhasor.h ****       mode_ = new_mode;
  59              		.loc 2 40 7 view .LVU9
  16:Grain.cpp     **** }
  60              		.loc 1 16 3 view .LVU10
  61              	.LBB43:
  62              	.LBI38:
  17:GrainPhasor.h ****       increment_ = pitch_ratio/static_cast<float>(grain_size);
  63              		.loc 2 17 10 view .LVU11
  64              	.LBB41:
  18:GrainPhasor.h ****       mode_ = play_mode;
  65              		.loc 2 18 7 view .LVU12
  22:GrainPhasor.h ****         phase_ = 1;
  66              		.loc 2 22 7 is_stmt 0 view .LVU13
  67 0014 9342     		cmp	r3, r2
  19:GrainPhasor.h ****       phase_ = 0;
  68              		.loc 2 19 13 view .LVU14
  69 0016 C0E90332 		strd	r3, r2, [r0, #12]
  18:GrainPhasor.h ****       mode_ = play_mode;
  70              		.loc 2 18 18 view .LVU15
  71 001a C0ED026A 		vstr.32	s13, [r0, #8]
  19:GrainPhasor.h ****       phase_ = 0;
  72              		.loc 2 19 7 is_stmt 1 view .LVU16
  20:GrainPhasor.h ****       direction_ = 1;
  73              		.loc 2 20 7 view .LVU17
  21:GrainPhasor.h ****       if (mode_==Mode::OneShotReverse){
  74              		.loc 2 21 7 view .LVU18
  22:GrainPhasor.h ****         phase_ = 1;
  75              		.loc 2 22 7 view .LVU19
  76 001e 04D1     		bne	.L2
  23:GrainPhasor.h ****         direction_ = -1;
  77              		.loc 2 23 9 view .LVU20
  24:GrainPhasor.h ****       }
  78              		.loc 2 24 20 is_stmt 0 view .LVU21
ARM GAS  /var/folders/2p/02m_5p7958535cp2tpgps0400000gn/T//ccf3x5ZF.s 			page 5


  79 0020 4FF0FF33 		mov	r3, #-1
  80              	.LVL2:
  23:GrainPhasor.h ****         direction_ = -1;
  81              		.loc 2 23 16 view .LVU22
  82 0024 80ED017A 		vstr.32	s14, [r0, #4]
  24:GrainPhasor.h ****       }
  83              		.loc 2 24 9 is_stmt 1 view .LVU23
  24:GrainPhasor.h ****       }
  84              		.loc 2 24 20 is_stmt 0 view .LVU24
  85 0028 0361     		str	r3, [r0, #16]
  86              	.L2:
  26:GrainPhasor.h ****     }
  87              		.loc 2 26 7 is_stmt 1 view .LVU25
  26:GrainPhasor.h ****     }
  88              		.loc 2 26 23 is_stmt 0 view .LVU26
  89 002a 0023     		movs	r3, #0
  90 002c 0375     		strb	r3, [r0, #20]
  91              	.LVL3:
  26:GrainPhasor.h ****     }
  92              		.loc 2 26 23 view .LVU27
  93              	.LBE41:
  94              	.LBE43:
  17:Grain.cpp     **** 
  95              		.loc 1 17 1 view .LVU28
  96 002e 7047     		bx	lr
  97              	.L5:
  98              		.align	2
  99              	.L4:
 100 0030 00000000 		.word	0
 101              		.cfi_endproc
 102              	.LFE4709:
 104              		.section	.text._ZN5Grain7TriggerEjjff,"ax",%progbits
 105              		.align	1
 106              		.p2align 2,,3
 107              		.global	_ZN5Grain7TriggerEjjff
 108              		.syntax unified
 109              		.thumb
 110              		.thumb_func
 112              	_ZN5Grain7TriggerEjjff:
 113              	.LVL4:
 114              	.LFB4710:
  24:Grain.cpp     ****   if (pos >= audio_len_) pos -= audio_len_;
 115              		.loc 1 24 82 is_stmt 1 view -0
 116              		.cfi_startproc
 117              		@ args = 0, pretend = 0, frame = 0
 118              		@ frame_needed = 0, uses_anonymous_args = 0
 119              		@ link register save eliminated.
  25:Grain.cpp     ****   spawn_pos_ = pos;
 120              		.loc 1 25 3 view .LVU30
 121              	.LBB44:
 122              	.LBB45:
  18:GrainPhasor.h ****       mode_ = play_mode;
 123              		.loc 2 18 32 is_stmt 0 view .LVU31
 124 0000 07EE902A 		vmov	s15, r2	@ int
 125              	.LBE45:
 126              	.LBE44:
  25:Grain.cpp     ****   spawn_pos_ = pos;
ARM GAS  /var/folders/2p/02m_5p7958535cp2tpgps0400000gn/T//ccf3x5ZF.s 			page 6


 127              		.loc 1 25 11 view .LVU32
 128 0004 134B     		ldr	r3, .L10
 129              	.LBB52:
 130              	.LBB46:
  18:GrainPhasor.h ****       mode_ = play_mode;
 131              		.loc 2 18 32 view .LVU33
 132 0006 B8EE677A 		vcvt.f32.u32	s14, s15
 133              	.LBE46:
 134              	.LBE52:
  25:Grain.cpp     ****   spawn_pos_ = pos;
 135              		.loc 1 25 11 view .LVU34
 136 000a 1B68     		ldr	r3, [r3]
  25:Grain.cpp     ****   spawn_pos_ = pos;
 137              		.loc 1 25 3 view .LVU35
 138 000c 8B42     		cmp	r3, r1
  25:Grain.cpp     ****   spawn_pos_ = pos;
 139              		.loc 1 25 26 is_stmt 1 view .LVU36
 140              	.LBB53:
 141              	.LBB47:
  18:GrainPhasor.h ****       mode_ = play_mode;
 142              		.loc 2 18 31 is_stmt 0 view .LVU37
 143 000e C0EE077A 		vdiv.f32	s15, s0, s14
 144              	.LBE47:
 145              	.LBE53:
  25:Grain.cpp     ****   spawn_pos_ = pos;
 146              		.loc 1 25 30 view .LVU38
 147 0012 98BF     		it	ls
 148 0014 C91A     		subls	r1, r1, r3
 149              	.LVL5:
  26:Grain.cpp     ****   grain_size_ = grain_size;
 150              		.loc 1 26 3 is_stmt 1 view .LVU39
  29:Grain.cpp     ****   pitch_ratio_ = pitch_ratio;
 151              		.loc 1 29 15 is_stmt 0 view .LVU40
 152 0016 8369     		ldr	r3, [r0, #24]
 153              	.LBB54:
 154              	.LBB48:
  19:GrainPhasor.h ****       phase_ = 0;
 155              		.loc 2 19 13 view .LVU41
 156 0018 C360     		str	r3, [r0, #12]
 157              	.LBE48:
 158              	.LBE54:
  24:Grain.cpp     ****   if (pos >= audio_len_) pos -= audio_len_;
 159              		.loc 1 24 82 view .LVU42
 160 001a 10B4     		push	{r4}
 161              		.cfi_def_cfa_offset 4
 162              		.cfi_offset 4, -4
  28:Grain.cpp     ****   phasor_.Init(grain_size, pitch_ratio, phasor_mode_);
 163              		.loc 1 28 14 view .LVU43
 164 001c 0124     		movs	r4, #1
  27:Grain.cpp     ****   is_active_ = true;
 165              		.loc 1 27 15 view .LVU44
 166 001e C0E90812 		strd	r1, r2, [r0, #32]
  28:Grain.cpp     ****   phasor_.Init(grain_size, pitch_ratio, phasor_mode_);
 167              		.loc 1 28 3 is_stmt 1 view .LVU45
 168              	.LBB55:
 169              	.LBB49:
  22:GrainPhasor.h ****         phase_ = 1;
ARM GAS  /var/folders/2p/02m_5p7958535cp2tpgps0400000gn/T//ccf3x5ZF.s 			page 7


 170              		.loc 2 22 7 is_stmt 0 view .LVU46
 171 0022 A342     		cmp	r3, r4
  20:GrainPhasor.h ****       direction_ = 1;
 172              		.loc 2 20 14 view .LVU47
 173 0024 4FF00002 		mov	r2, #0
 174              	.LVL6:
  20:GrainPhasor.h ****       direction_ = 1;
 175              		.loc 2 20 14 view .LVU48
 176              	.LBE49:
 177              	.LBE55:
  28:Grain.cpp     ****   phasor_.Init(grain_size, pitch_ratio, phasor_mode_);
 178              		.loc 1 28 14 view .LVU49
 179 0028 0470     		strb	r4, [r0]
  29:Grain.cpp     ****   pitch_ratio_ = pitch_ratio;
 180              		.loc 1 29 3 is_stmt 1 view .LVU50
 181              	.LVL7:
 182              	.LBB56:
 183              	.LBI44:
  17:GrainPhasor.h ****       increment_ = pitch_ratio/static_cast<float>(grain_size);
 184              		.loc 2 17 10 view .LVU51
 185              	.LBB50:
  18:GrainPhasor.h ****       mode_ = play_mode;
 186              		.loc 2 18 7 view .LVU52
  20:GrainPhasor.h ****       direction_ = 1;
 187              		.loc 2 20 14 is_stmt 0 view .LVU53
 188 002a 4260     		str	r2, [r0, #4]	@ float
  21:GrainPhasor.h ****       if (mode_==Mode::OneShotReverse){
 189              		.loc 2 21 18 view .LVU54
 190 002c 0461     		str	r4, [r0, #16]
  18:GrainPhasor.h ****       mode_ = play_mode;
 191              		.loc 2 18 18 view .LVU55
 192 002e C0ED027A 		vstr.32	s15, [r0, #8]
  19:GrainPhasor.h ****       phase_ = 0;
 193              		.loc 2 19 7 is_stmt 1 view .LVU56
  20:GrainPhasor.h ****       direction_ = 1;
 194              		.loc 2 20 7 view .LVU57
  21:GrainPhasor.h ****       if (mode_==Mode::OneShotReverse){
 195              		.loc 2 21 7 view .LVU58
  22:GrainPhasor.h ****         phase_ = 1;
 196              		.loc 2 22 7 view .LVU59
 197 0032 05D1     		bne	.L8
  23:GrainPhasor.h ****         direction_ = -1;
 198              		.loc 2 23 9 view .LVU60
  23:GrainPhasor.h ****         direction_ = -1;
 199              		.loc 2 23 16 is_stmt 0 view .LVU61
 200 0034 4FF07E53 		mov	r3, #1065353216
 201              	.LVL8:
  24:GrainPhasor.h ****       }
 202              		.loc 2 24 20 view .LVU62
 203 0038 4FF0FF32 		mov	r2, #-1
  23:GrainPhasor.h ****         direction_ = -1;
 204              		.loc 2 23 16 view .LVU63
 205 003c 4360     		str	r3, [r0, #4]	@ float
  24:GrainPhasor.h ****       }
 206              		.loc 2 24 9 is_stmt 1 view .LVU64
  24:GrainPhasor.h ****       }
 207              		.loc 2 24 20 is_stmt 0 view .LVU65
ARM GAS  /var/folders/2p/02m_5p7958535cp2tpgps0400000gn/T//ccf3x5ZF.s 			page 8


 208 003e 0261     		str	r2, [r0, #16]
 209              	.L8:
  26:GrainPhasor.h ****     }
 210              		.loc 2 26 7 is_stmt 1 view .LVU66
  26:GrainPhasor.h ****     }
 211              		.loc 2 26 23 is_stmt 0 view .LVU67
 212 0040 0023     		movs	r3, #0
 213              	.LBE50:
 214              	.LBE56:
  32:Grain.cpp     **** 
 215              		.loc 1 32 1 view .LVU68
 216 0042 5DF8044B 		ldr	r4, [sp], #4
 217              		.cfi_restore 4
 218              		.cfi_def_cfa_offset 0
  30:Grain.cpp     ****   pan_ = pan;
 219              		.loc 1 30 16 view .LVU69
 220 0046 80ED0A0A 		vstr.32	s0, [r0, #40]
  31:Grain.cpp     **** }
 221              		.loc 1 31 8 view .LVU70
 222 004a C0ED070A 		vstr.32	s1, [r0, #28]
 223              	.LBB57:
 224              	.LBB51:
  26:GrainPhasor.h ****     }
 225              		.loc 2 26 23 view .LVU71
 226 004e 0375     		strb	r3, [r0, #20]
 227              	.LVL9:
  26:GrainPhasor.h ****     }
 228              		.loc 2 26 23 view .LVU72
 229              	.LBE51:
 230              	.LBE57:
  30:Grain.cpp     ****   pan_ = pan;
 231              		.loc 1 30 3 is_stmt 1 view .LVU73
  31:Grain.cpp     **** }
 232              		.loc 1 31 3 view .LVU74
  32:Grain.cpp     **** 
 233              		.loc 1 32 1 is_stmt 0 view .LVU75
 234 0050 7047     		bx	lr
 235              	.L11:
 236 0052 00BF     		.align	2
 237              	.L10:
 238 0054 00000000 		.word	.LANCHOR0
 239              		.cfi_endproc
 240              	.LFE4710:
 242              		.section	.text._ZN5Grain7ProcessEPfS0_,"ax",%progbits
 243              		.align	1
 244              		.p2align 2,,3
 245              		.global	_ZN5Grain7ProcessEPfS0_
 246              		.syntax unified
 247              		.thumb
 248              		.thumb_func
 250              	_ZN5Grain7ProcessEPfS0_:
 251              	.LVL10:
 252              	.LFB4711:
  37:Grain.cpp     ****   if (!is_active_) return;
 253              		.loc 1 37 56 is_stmt 1 view -0
 254              		.cfi_startproc
 255              		@ args = 0, pretend = 0, frame = 16
ARM GAS  /var/folders/2p/02m_5p7958535cp2tpgps0400000gn/T//ccf3x5ZF.s 			page 9


 256              		@ frame_needed = 0, uses_anonymous_args = 0
  38:Grain.cpp     ****   float phase = phasor_.Process();
 257              		.loc 1 38 3 view .LVU77
 258 0000 0378     		ldrb	r3, [r0]	@ zero_extendqisi2
 259 0002 002B     		cmp	r3, #0
 260 0004 00F0AF80 		beq	.L57
  39:Grain.cpp     ****   if (phasor_.GrainFinished()){
 261              		.loc 1 39 3 view .LVU78
 262              	.LVL11:
 263              	.LBB80:
 264              	.LBI80:
  41:GrainPhasor.h ****     }
  42:GrainPhasor.h **** 
  43:GrainPhasor.h ****     bool GrainFinished(){
  44:GrainPhasor.h ****       return grain_finished_;
  45:GrainPhasor.h ****     }
  46:GrainPhasor.h ****     // bool ModeComplete() { 
  47:GrainPhasor.h ****     //   return (phase_>=1.0f) && (mode_==Mode::OneShot);
  48:GrainPhasor.h ****     // }
  49:GrainPhasor.h **** 
  50:GrainPhasor.h **** // TODO: do i need all these getters? 
  51:GrainPhasor.h ****     // float GetPhase() const { return phase_; }
  52:GrainPhasor.h ****     // float GetIncrement() const { return increment_; }
  53:GrainPhasor.h ****     // Mode GetMode() const { return mode_; }
  54:GrainPhasor.h ****     // int GetDirection() const { return direction_; }
  55:GrainPhasor.h **** 
  56:GrainPhasor.h ****     float Process(){
 265              		.loc 2 56 11 view .LVU79
 266              	.LBB81:
  57:GrainPhasor.h ****       if (grain_finished_) { return 0.0f; }
 267              		.loc 2 57 7 view .LVU80
 268 0008 037D     		ldrb	r3, [r0, #20]	@ zero_extendqisi2
 269 000a 002B     		cmp	r3, #0
 270 000c 40F0A980 		bne	.L60
 271              	.LVL12:
 272              	.LBB82:
 273              	.LBI82:
  56:GrainPhasor.h ****       if (grain_finished_) { return 0.0f; }
 274              		.loc 2 56 11 view .LVU81
 275              	.LBB83:
  58:GrainPhasor.h ****       float out = phase_;
 276              		.loc 2 58 7 view .LVU82
  59:GrainPhasor.h ****       out += increment_*direction_;
 277              		.loc 2 59 24 is_stmt 0 view .LVU83
 278 0010 D0ED047A 		vldr.32	s15, [r0, #16]	@ int
  58:GrainPhasor.h ****       float out = phase_;
 279              		.loc 2 58 13 view .LVU84
 280 0014 90ED017A 		vldr.32	s14, [r0, #4]
 281              	.LVL13:
 282              		.loc 2 59 7 is_stmt 1 view .LVU85
 283              		.loc 2 59 24 is_stmt 0 view .LVU86
 284 0018 F8EEE77A 		vcvt.f32.s32	s15, s15
 285              		.loc 2 59 11 view .LVU87
 286 001c D0ED026A 		vldr.32	s13, [r0, #8]
  60:GrainPhasor.h **** 
  61:GrainPhasor.h ****       switch(mode_){
 287              		.loc 2 61 14 view .LVU88
ARM GAS  /var/folders/2p/02m_5p7958535cp2tpgps0400000gn/T//ccf3x5ZF.s 			page 10


 288 0020 C368     		ldr	r3, [r0, #12]
  59:GrainPhasor.h ****       out += increment_*direction_;
 289              		.loc 2 59 11 view .LVU89
 290 0022 A6EEA77A 		vfma.f32	s14, s13, s15
 291              	.LVL14:
 292              		.loc 2 61 7 view .LVU90
 293 0026 022B     		cmp	r3, #2
 294              	.LBE83:
 295              	.LBE82:
 296              	.LBE81:
 297              	.LBE80:
  37:Grain.cpp     ****   if (!is_active_) return;
 298              		.loc 1 37 56 view .LVU91
 299 0028 10B5     		push	{r4, lr}
 300              		.cfi_def_cfa_offset 8
 301              		.cfi_offset 4, -8
 302              		.cfi_offset 14, -4
 303 002a 2DED048B 		vpush.64	{d8, d9}
 304              		.cfi_def_cfa_offset 24
 305              		.cfi_offset 80, -24
 306              		.cfi_offset 81, -20
 307              		.cfi_offset 82, -16
 308              		.cfi_offset 83, -12
 309 002e 84B0     		sub	sp, sp, #16
 310              		.cfi_def_cfa_offset 40
 311              	.LBB102:
 312              	.LBB96:
 313              	.LBB90:
 314              	.LBB84:
  59:GrainPhasor.h ****       out += increment_*direction_;
 315              		.loc 2 59 11 view .LVU92
 316 0030 F0EE479A 		vmov.f32	s19, s14
 317              	.LVL15:
 318              		.loc 2 61 7 is_stmt 1 view .LVU93
 319 0034 00F0CD80 		beq	.L15
 320 0038 032B     		cmp	r3, #3
 321 003a 13D0     		beq	.L16
 322 003c 012B     		cmp	r3, #1
 323 003e 00F0BB80 		beq	.L17
  62:GrainPhasor.h ****         /* phase increases 0 -> 1 then stops */
  63:GrainPhasor.h ****         case Mode::OneShot:
 324              		.loc 2 63 9 view .LVU94
  64:GrainPhasor.h ****         default:
 325              		.loc 2 64 9 view .LVU95
  65:GrainPhasor.h ****           if(out>1.0f) {
 326              		.loc 2 65 11 view .LVU96
 327 0042 F7EE007A 		vmov.f32	s15, #1.0e+0
 328 0046 B4EEE77A 		vcmpe.f32	s14, s15
 329 004a F1EE10FA 		vmrs	APSR_nzcv, FPSCR
 330 004e 18DD     		ble	.L18
  66:GrainPhasor.h ****             grain_finished_ = true;
 331              		.loc 2 66 13 view .LVU97
 332              		.loc 2 66 29 is_stmt 0 view .LVU98
 333 0050 0123     		movs	r3, #1
  67:GrainPhasor.h ****             out=1.0f;
  68:GrainPhasor.h ****           }
  69:GrainPhasor.h ****           break;
ARM GAS  /var/folders/2p/02m_5p7958535cp2tpgps0400000gn/T//ccf3x5ZF.s 			page 11


  70:GrainPhasor.h ****         /* phase goes 1 -> 0 then stops */
  71:GrainPhasor.h ****         case Mode::OneShotReverse:
  72:GrainPhasor.h ****           direction_ = -1;
  73:GrainPhasor.h ****           if(out<0.0f) {
  74:GrainPhasor.h ****             out=0.0f;
  75:GrainPhasor.h ****             grain_finished_ = true;
  76:GrainPhasor.h ****           } 
  77:GrainPhasor.h ****           break;
  78:GrainPhasor.h ****         /* loops from 0 -> 1 repeatedly */
  79:GrainPhasor.h ****         case Mode::Cycle:
  80:GrainPhasor.h ****           if(out>1.0f) out -=1.0f;
  81:GrainPhasor.h ****           if (out<0.0f) out +=1.0f;
  82:GrainPhasor.h ****           break;
  83:GrainPhasor.h ****         /* loops repeatedly forwards from 0 -> 1
  84:GrainPhasor.h ****           then backwards from 1 -> 0 ...*/
  85:GrainPhasor.h ****         case Mode::PingPong:
  86:GrainPhasor.h ****           if (out>1.0f){
  87:GrainPhasor.h ****             out = 2.0f-out;
  88:GrainPhasor.h ****             direction_ = -1;
  89:GrainPhasor.h ****           } else if (out<0.0f){
  90:GrainPhasor.h ****             out= -out;
  91:GrainPhasor.h ****             direction_ = 1;
  92:GrainPhasor.h ****           }
  93:GrainPhasor.h ****           break;
  94:GrainPhasor.h ****       }
  95:GrainPhasor.h ****       phase_ = out;
 334              		.loc 2 95 14 view .LVU99
 335 0052 C0ED017A 		vstr.32	s15, [r0, #4]
  66:GrainPhasor.h ****             grain_finished_ = true;
 336              		.loc 2 66 29 view .LVU100
 337 0056 0375     		strb	r3, [r0, #20]
  67:GrainPhasor.h ****             out=1.0f;
 338              		.loc 2 67 13 is_stmt 1 view .LVU101
 339              	.LVL16:
 340              		.loc 2 95 7 view .LVU102
  96:GrainPhasor.h ****       // phase_ += increment_*direction_;
  97:GrainPhasor.h ****       return out;
 341              		.loc 2 97 7 view .LVU103
 342              		.loc 2 97 7 is_stmt 0 view .LVU104
 343              	.LBE84:
 344              	.LBE90:
 345              	.LBE96:
 346              	.LBE102:
  40:Grain.cpp     ****     is_active_=false;
 347              		.loc 1 40 3 is_stmt 1 view .LVU105
  44:GrainPhasor.h ****     }
 348              		.loc 2 44 7 view .LVU106
 349              	.L20:
  41:Grain.cpp     ****     return;
 350              		.loc 1 41 5 view .LVU107
  41:Grain.cpp     ****     return;
 351              		.loc 1 41 15 is_stmt 0 view .LVU108
 352 0058 0023     		movs	r3, #0
 353 005a 0370     		strb	r3, [r0]
  42:Grain.cpp     ****   }
 354              		.loc 1 42 5 is_stmt 1 view .LVU109
  67:Grain.cpp     **** 
ARM GAS  /var/folders/2p/02m_5p7958535cp2tpgps0400000gn/T//ccf3x5ZF.s 			page 12


 355              		.loc 1 67 1 is_stmt 0 view .LVU110
 356 005c 04B0     		add	sp, sp, #16
 357              		.cfi_remember_state
 358              		.cfi_def_cfa_offset 24
 359              		@ sp needed
 360 005e BDEC048B 		vldm	sp!, {d8-d9}
 361              		.cfi_restore 82
 362              		.cfi_restore 83
 363              		.cfi_restore 80
 364              		.cfi_restore 81
 365              		.cfi_def_cfa_offset 8
 366 0062 10BD     		pop	{r4, pc}
 367              	.LVL17:
 368              	.L16:
 369              		.cfi_restore_state
 370              	.LBB103:
 371              	.LBB97:
 372              	.LBB91:
 373              	.LBB85:
  85:GrainPhasor.h ****           if (out>1.0f){
 374              		.loc 2 85 9 is_stmt 1 view .LVU111
  86:GrainPhasor.h ****             out = 2.0f-out;
 375              		.loc 2 86 11 view .LVU112
 376 0064 F7EE007A 		vmov.f32	s15, #1.0e+0
 377 0068 B4EEE77A 		vcmpe.f32	s14, s15
 378 006c F1EE10FA 		vmrs	APSR_nzcv, FPSCR
 379 0070 40F3CE80 		ble	.L53
  87:GrainPhasor.h ****             direction_ = -1;
 380              		.loc 2 87 13 view .LVU113
  87:GrainPhasor.h ****             direction_ = -1;
 381              		.loc 2 87 17 is_stmt 0 view .LVU114
 382 0074 F0EE007A 		vmov.f32	s15, #2.0e+0
  88:GrainPhasor.h ****           } else if (out<0.0f){
 383              		.loc 2 88 24 view .LVU115
 384 0078 4FF0FF33 		mov	r3, #-1
 385 007c 0361     		str	r3, [r0, #16]
  87:GrainPhasor.h ****             direction_ = -1;
 386              		.loc 2 87 17 view .LVU116
 387 007e 77EEC79A 		vsub.f32	s19, s15, s14
 388              	.LVL18:
  88:GrainPhasor.h ****           } else if (out<0.0f){
 389              		.loc 2 88 13 is_stmt 1 view .LVU117
 390              	.L18:
  95:GrainPhasor.h ****       // phase_ += increment_*direction_;
 391              		.loc 2 95 7 view .LVU118
 392              	.LBE85:
 393              	.LBE91:
 394              	.LBE97:
 395              	.LBE103:
  44:Grain.cpp     ****   
 396              		.loc 1 44 59 is_stmt 0 view .LVU119
 397 0082 D0ED097A 		vldr.32	s15, [r0, #36]	@ int
  44:Grain.cpp     ****   
 398              		.loc 1 44 71 view .LVU120
 399 0086 D0ED0A6A 		vldr.32	s13, [r0, #40]
  44:Grain.cpp     ****   
 400              		.loc 1 44 59 view .LVU121
ARM GAS  /var/folders/2p/02m_5p7958535cp2tpgps0400000gn/T//ccf3x5ZF.s 			page 13


 401 008a F8EE677A 		vcvt.f32.u32	s15, s15
  47:Grain.cpp     ****     curr_idx %= audio_len_;
 402              		.loc 1 47 27 view .LVU122
 403 008e 764C     		ldr	r4, .L62+8
  44:Grain.cpp     ****   
 404              		.loc 1 44 10 view .LVU123
 405 0090 036A     		ldr	r3, [r0, #32]
  47:Grain.cpp     ****     curr_idx %= audio_len_;
 406              		.loc 1 47 27 view .LVU124
 407 0092 2468     		ldr	r4, [r4]
  44:Grain.cpp     ****   
 408              		.loc 1 44 59 view .LVU125
 409 0094 67EEA97A 		vmul.f32	s15, s15, s19
 410              	.LBB104:
 411              	.LBB98:
 412              	.LBB92:
 413              	.LBB86:
  95:GrainPhasor.h ****       // phase_ += increment_*direction_;
 414              		.loc 2 95 14 view .LVU126
 415 0098 C0ED019A 		vstr.32	s19, [r0, #4]
 416              		.loc 2 97 7 is_stmt 1 view .LVU127
 417              	.LVL19:
 418              		.loc 2 97 7 is_stmt 0 view .LVU128
 419              	.LBE86:
 420              	.LBE92:
 421              	.LBE98:
 422              	.LBE104:
  40:Grain.cpp     ****     is_active_=false;
 423              		.loc 1 40 3 is_stmt 1 view .LVU129
  44:GrainPhasor.h ****     }
 424              		.loc 2 44 7 view .LVU130
  44:Grain.cpp     ****   
 425              		.loc 1 44 3 view .LVU131
  47:Grain.cpp     ****     curr_idx %= audio_len_;
 426              		.loc 1 47 27 is_stmt 0 view .LVU132
 427 009c 04F1FF3C 		add	ip, r4, #-1
  44:Grain.cpp     ****   
 428              		.loc 1 44 71 view .LVU133
 429 00a0 67EEA67A 		vmul.f32	s15, s15, s13
  44:Grain.cpp     ****   
 430              		.loc 1 44 34 view .LVU134
 431 00a4 FCEEE77A 		vcvt.u32.f32	s15, s15
  44:Grain.cpp     ****   
 432              		.loc 1 44 10 view .LVU135
 433 00a8 17EE90EA 		vmov	lr, s15	@ int
 434 00ac 9E44     		add	lr, lr, r3
  47:Grain.cpp     ****     curr_idx %= audio_len_;
 435              		.loc 1 47 3 view .LVU136
 436 00ae F445     		cmp	ip, lr
  44:Grain.cpp     ****   
 437              		.loc 1 44 10 view .LVU137
 438 00b0 7346     		mov	r3, lr
 439              	.LVL20:
  47:Grain.cpp     ****     curr_idx %= audio_len_;
 440              		.loc 1 47 3 is_stmt 1 view .LVU138
 441 00b2 03D8     		bhi	.L28
  48:Grain.cpp     ****     // return;
ARM GAS  /var/folders/2p/02m_5p7958535cp2tpgps0400000gn/T//ccf3x5ZF.s 			page 14


 442              		.loc 1 48 5 view .LVU139
  48:Grain.cpp     ****     // return;
 443              		.loc 1 48 14 is_stmt 0 view .LVU140
 444 00b4 BEFBF4FC 		udiv	ip, lr, r4
 445 00b8 04FB1CE3 		mls	r3, r4, ip, lr
 446              	.LVL21:
 447              	.L28:
  56:Grain.cpp     ****   float right = s162f(right_buf_[curr_idx]);
 448              		.loc 1 56 3 is_stmt 1 view .LVU141
 449              	.LBB105:
 450              	.LBI105:
 451              		.file 3 "../libDaisy/src/daisy_core.h"
   1:../libDaisy/src/daisy_core.h **** #pragma once
   2:../libDaisy/src/daisy_core.h **** #ifndef DSY_CORE_HW_H
   3:../libDaisy/src/daisy_core.h **** #define DSY_CORE_HW_H /**< & */
   4:../libDaisy/src/daisy_core.h **** #include <stdint.h>
   5:../libDaisy/src/daisy_core.h **** #include <stdlib.h>
   6:../libDaisy/src/daisy_core.h **** 
   7:../libDaisy/src/daisy_core.h **** #if defined(_MSC_VER)
   8:../libDaisy/src/daisy_core.h **** #define FORCE_INLINE __forceinline /**< & */
   9:../libDaisy/src/daisy_core.h **** #elif defined(__clang__)
  10:../libDaisy/src/daisy_core.h **** #define FORCE_INLINE inline __attribute__((always_inline)) /**< & */
  11:../libDaisy/src/daisy_core.h **** #pragma clang diagnostic ignored "-Wduplicate-decl-specifier"
  12:../libDaisy/src/daisy_core.h **** #elif defined(__GNUC__)
  13:../libDaisy/src/daisy_core.h **** #define FORCE_INLINE inline __attribute__((always_inline)) /**< & */
  14:../libDaisy/src/daisy_core.h **** #else
  15:../libDaisy/src/daisy_core.h **** #error unknown compiler
  16:../libDaisy/src/daisy_core.h **** #endif
  17:../libDaisy/src/daisy_core.h **** 
  18:../libDaisy/src/daisy_core.h **** /** @addtogroup utility
  19:../libDaisy/src/daisy_core.h ****     @{
  20:../libDaisy/src/daisy_core.h **** */
  21:../libDaisy/src/daisy_core.h **** 
  22:../libDaisy/src/daisy_core.h **** /** Macro for area of memory that is configured as cacheless
  23:../libDaisy/src/daisy_core.h **** This should be used primarily for DMA buffers, and the like.
  24:../libDaisy/src/daisy_core.h **** */
  25:../libDaisy/src/daisy_core.h **** #define DMA_BUFFER_MEM_SECTION __attribute__((section(".sram1_bss")))
  26:../libDaisy/src/daisy_core.h **** /** 
  27:../libDaisy/src/daisy_core.h **** THE DTCM RAM section is also non-cached. However, is not suitable 
  28:../libDaisy/src/daisy_core.h **** for DMA transfers. Performance is on par with internal SRAM w/ 
  29:../libDaisy/src/daisy_core.h **** cache enabled.
  30:../libDaisy/src/daisy_core.h **** */
  31:../libDaisy/src/daisy_core.h **** #define DTCM_MEM_SECTION __attribute__((section(".dtcmram_bss")))
  32:../libDaisy/src/daisy_core.h **** 
  33:../libDaisy/src/daisy_core.h **** #define FBIPMAX 0.999985f             /**< close to 1.0f-LSB at 16 bit */
  34:../libDaisy/src/daisy_core.h **** #define FBIPMIN (-FBIPMAX)            /**< - (1 - LSB) */
  35:../libDaisy/src/daisy_core.h **** #define U82F_SCALE 0.0078740f         /**< 1 / 127 */
  36:../libDaisy/src/daisy_core.h **** #define F2U8_SCALE 127.0f             /**< 128 - 1 */
  37:../libDaisy/src/daisy_core.h **** #define S82F_SCALE 0.0078125f         /**< 1 / (2**7) */
  38:../libDaisy/src/daisy_core.h **** #define F2S8_SCALE 127.0f             /**< (2 ** 7) - 1 */
  39:../libDaisy/src/daisy_core.h **** #define S162F_SCALE 3.0517578125e-05f /**< 1 / (2** 15) */
  40:../libDaisy/src/daisy_core.h **** #define F2S16_SCALE 32767.0f          /**< (2 ** 15) - 1 */
  41:../libDaisy/src/daisy_core.h **** #define F2S24_SCALE 8388608.0f        /**< 2 ** 23 */
  42:../libDaisy/src/daisy_core.h **** #define S242F_SCALE 1.192092896e-07f  /**< 1 / (2 ** 23) */
  43:../libDaisy/src/daisy_core.h **** #define S24SIGN 0x800000              /**< 2 ** 23 */
  44:../libDaisy/src/daisy_core.h **** #define S322F_SCALE 4.6566129e-10f    /**< 1 / (2** 31) */
  45:../libDaisy/src/daisy_core.h **** #define F2S32_SCALE 2147483647.f      /**< (2 ** 31) - 1 */
ARM GAS  /var/folders/2p/02m_5p7958535cp2tpgps0400000gn/T//ccf3x5ZF.s 			page 15


  46:../libDaisy/src/daisy_core.h **** 
  47:../libDaisy/src/daisy_core.h **** 
  48:../libDaisy/src/daisy_core.h **** /** shorthand macro for simplifying the reading of the left 
  49:../libDaisy/src/daisy_core.h ****  *  channel of a non-interleaved output buffer named out */
  50:../libDaisy/src/daisy_core.h **** #define OUT_L out[0]
  51:../libDaisy/src/daisy_core.h **** 
  52:../libDaisy/src/daisy_core.h **** /** shorthand macro for simplifying the reading of the right 
  53:../libDaisy/src/daisy_core.h ****  *  channel of a non-interleaved output buffer named out */
  54:../libDaisy/src/daisy_core.h **** #define OUT_R out[1]
  55:../libDaisy/src/daisy_core.h **** 
  56:../libDaisy/src/daisy_core.h **** /** shorthand macro for simplifying the reading of the left 
  57:../libDaisy/src/daisy_core.h ****  *  channel of a non-interleaved input buffer named in */
  58:../libDaisy/src/daisy_core.h **** #define IN_L in[0]
  59:../libDaisy/src/daisy_core.h **** 
  60:../libDaisy/src/daisy_core.h **** /** shorthand macro for simplifying the reading of the right 
  61:../libDaisy/src/daisy_core.h ****  *  channel of a non-interleaved input buffer named in */
  62:../libDaisy/src/daisy_core.h **** #define IN_R in[1]
  63:../libDaisy/src/daisy_core.h **** 
  64:../libDaisy/src/daisy_core.h **** /** 
  65:../libDaisy/src/daisy_core.h ****     Computes cube.
  66:../libDaisy/src/daisy_core.h ****     \param x Number to be cubed
  67:../libDaisy/src/daisy_core.h ****     \return x ^ 3
  68:../libDaisy/src/daisy_core.h **** */
  69:../libDaisy/src/daisy_core.h **** FORCE_INLINE float cube(float x)
  70:../libDaisy/src/daisy_core.h **** {
  71:../libDaisy/src/daisy_core.h ****     return (x * x) * x;
  72:../libDaisy/src/daisy_core.h **** }
  73:../libDaisy/src/daisy_core.h **** 
  74:../libDaisy/src/daisy_core.h **** /** 
  75:../libDaisy/src/daisy_core.h ****     Converts unsigned 8-bit to float
  76:../libDaisy/src/daisy_core.h ****     \param x Number to be scaled.
  77:../libDaisy/src/daisy_core.h ****     \return Scaled number.
  78:../libDaisy/src/daisy_core.h **** */
  79:../libDaisy/src/daisy_core.h **** FORCE_INLINE float u82f(uint8_t x)
  80:../libDaisy/src/daisy_core.h **** {
  81:../libDaisy/src/daisy_core.h ****     return ((float)x - 127.f) * U82F_SCALE;
  82:../libDaisy/src/daisy_core.h **** }
  83:../libDaisy/src/daisy_core.h **** 
  84:../libDaisy/src/daisy_core.h **** /**
  85:../libDaisy/src/daisy_core.h ****     Converts float to unsigned 8-bit
  86:../libDaisy/src/daisy_core.h **** */
  87:../libDaisy/src/daisy_core.h **** FORCE_INLINE uint8_t f2u8(float x)
  88:../libDaisy/src/daisy_core.h **** {
  89:../libDaisy/src/daisy_core.h ****     x = x <= FBIPMIN ? FBIPMIN : x;
  90:../libDaisy/src/daisy_core.h ****     x = x >= FBIPMAX ? FBIPMAX : x;
  91:../libDaisy/src/daisy_core.h ****     return (uint8_t)((x * F2U8_SCALE) + F2U8_SCALE);
  92:../libDaisy/src/daisy_core.h **** }
  93:../libDaisy/src/daisy_core.h **** 
  94:../libDaisy/src/daisy_core.h **** 
  95:../libDaisy/src/daisy_core.h **** /** 
  96:../libDaisy/src/daisy_core.h ****     Converts Signed 8-bit to float
  97:../libDaisy/src/daisy_core.h ****     \param x Number to be scaled.
  98:../libDaisy/src/daisy_core.h ****     \return Scaled number.
  99:../libDaisy/src/daisy_core.h **** */
 100:../libDaisy/src/daisy_core.h **** FORCE_INLINE float s82f(int8_t x)
 101:../libDaisy/src/daisy_core.h **** {
 102:../libDaisy/src/daisy_core.h ****     return (float)x * S82F_SCALE;
ARM GAS  /var/folders/2p/02m_5p7958535cp2tpgps0400000gn/T//ccf3x5ZF.s 			page 16


 103:../libDaisy/src/daisy_core.h **** }
 104:../libDaisy/src/daisy_core.h **** 
 105:../libDaisy/src/daisy_core.h **** /**
 106:../libDaisy/src/daisy_core.h ****     Converts float to Signed 8-bit
 107:../libDaisy/src/daisy_core.h **** */
 108:../libDaisy/src/daisy_core.h **** FORCE_INLINE int8_t f2s8(float x)
 109:../libDaisy/src/daisy_core.h **** {
 110:../libDaisy/src/daisy_core.h ****     x = x <= FBIPMIN ? FBIPMIN : x;
 111:../libDaisy/src/daisy_core.h ****     x = x >= FBIPMAX ? FBIPMAX : x;
 112:../libDaisy/src/daisy_core.h ****     return (int32_t)(x * F2S8_SCALE);
 113:../libDaisy/src/daisy_core.h **** }
 114:../libDaisy/src/daisy_core.h **** 
 115:../libDaisy/src/daisy_core.h **** /** 
 116:../libDaisy/src/daisy_core.h ****     Converts Signed 16-bit to float
 117:../libDaisy/src/daisy_core.h ****     \param x Number to be scaled.
 118:../libDaisy/src/daisy_core.h ****     \return Scaled number.
 119:../libDaisy/src/daisy_core.h **** */
 120:../libDaisy/src/daisy_core.h **** FORCE_INLINE float s162f(int16_t x)
 452              		.loc 3 120 20 view .LVU142
 453              	.LBB106:
 121:../libDaisy/src/daisy_core.h **** {
 122:../libDaisy/src/daisy_core.h ****     return (float)x * S162F_SCALE;
 454              		.loc 3 122 5 view .LVU143
 455              	.LBE106:
 456              	.LBE105:
  56:Grain.cpp     ****   float right = s162f(right_buf_[curr_idx]);
 457              		.loc 1 56 40 is_stmt 0 view .LVU144
 458 00bc 6B4C     		ldr	r4, .L62+12
 459              	.LBB111:
 460              	.LBB107:
 461              		.loc 3 122 23 view .LVU145
 462 00be 9FED6C6A 		vldr.32	s12, .L62+16
 463              	.LBE107:
 464              	.LBE111:
  56:Grain.cpp     ****   float right = s162f(right_buf_[curr_idx]);
 465              		.loc 1 56 21 view .LVU146
 466 00c2 2468     		ldr	r4, [r4]
 467              	.LBB112:
 468              	.LBB108:
 469              		.loc 3 122 12 view .LVU147
 470 00c4 34F91340 		ldrsh	r4, [r4, r3, lsl #1]
 471 00c8 06EE904A 		vmov	s13, r4	@ int
 472              	.LBE108:
 473              	.LBE112:
  57:Grain.cpp     ****   float env = ApplyEnvelope(phase);
 474              		.loc 1 57 42 view .LVU148
 475 00cc 694C     		ldr	r4, .L62+20
  57:Grain.cpp     ****   float env = ApplyEnvelope(phase);
 476              		.loc 1 57 22 view .LVU149
 477 00ce 2468     		ldr	r4, [r4]
 478              	.LBB113:
 479              	.LBB109:
 480              		.loc 3 122 12 view .LVU150
 481 00d0 F8EEE66A 		vcvt.f32.s32	s13, s13
 482              	.LBE109:
 483              	.LBE113:
 484              	.LBB114:
ARM GAS  /var/folders/2p/02m_5p7958535cp2tpgps0400000gn/T//ccf3x5ZF.s 			page 17


 485              	.LBB115:
 486 00d4 34F91330 		ldrsh	r3, [r4, r3, lsl #1]
 487              	.LVL22:
 488              		.loc 3 122 12 view .LVU151
 489              	.LBE115:
 490              	.LBE114:
 491              	.LBB118:
 492              	.LBB110:
 493              		.loc 3 122 23 view .LVU152
 494 00d8 66EE868A 		vmul.f32	s17, s13, s12
 495              	.LVL23:
 496              		.loc 3 122 23 view .LVU153
 497              	.LBE110:
 498              	.LBE118:
  57:Grain.cpp     ****   float env = ApplyEnvelope(phase);
 499              		.loc 1 57 3 is_stmt 1 view .LVU154
 500              	.LBB119:
 501              	.LBI114:
 120:../libDaisy/src/daisy_core.h **** {
 502              		.loc 3 120 20 view .LVU155
 503              	.LBB116:
 504              		.loc 3 122 5 view .LVU156
 505              		.loc 3 122 12 is_stmt 0 view .LVU157
 506 00dc 07EE903A 		vmov	s15, r3	@ int
 507              	.LBE116:
 508              	.LBE119:
 509              	.LBB120:
 510              	.LBB121:
  73:Grain.cpp     ****     case EnvelopeType::LinearDecay:
 511              		.loc 1 73 3 view .LVU158
 512 00e0 C36A     		ldr	r3, [r0, #44]
 513              	.LBE121:
 514              	.LBE120:
 515              	.LBB129:
 516              	.LBB117:
 517              		.loc 3 122 12 view .LVU159
 518 00e2 F8EEE77A 		vcvt.f32.s32	s15, s15
 519              		.loc 3 122 23 view .LVU160
 520 00e6 27EE869A 		vmul.f32	s18, s15, s12
 521              	.LVL24:
 522              		.loc 3 122 23 view .LVU161
 523              	.LBE117:
 524              	.LBE129:
  58:Grain.cpp     **** 
 525              		.loc 1 58 3 is_stmt 1 view .LVU162
 526              	.LBB130:
 527              	.LBI120:
  72:Grain.cpp     ****   switch(envelope_type_){
 528              		.loc 1 72 7 view .LVU163
 529              	.LBB126:
  73:Grain.cpp     ****     case EnvelopeType::LinearDecay:
 530              		.loc 1 73 3 view .LVU164
 531 00ea 042B     		cmp	r3, #4
 532 00ec 5AD8     		bhi	.L29
 533 00ee DFE803F0 		tbb	[pc, r3]
 534              	.L31:
 535 00f2 54       		.byte	(.L34-.L31)/2
ARM GAS  /var/folders/2p/02m_5p7958535cp2tpgps0400000gn/T//ccf3x5ZF.s 			page 18


 536 00f3 0F       		.byte	(.L33-.L31)/2
 537 00f4 59       		.byte	(.L29-.L31)/2
 538 00f5 03       		.byte	(.L32-.L31)/2
 539 00f6 3B       		.byte	(.L30-.L31)/2
 540 00f7 00       		.p2align 1
 541              	.L32:
  82:Grain.cpp     ****       return 1.0f - std::abs(2.0f*phase - 1.0f);
 542              		.loc 1 82 5 view .LVU165
  83:Grain.cpp     ****     /* formula from https://uk.mathworks.com/help/signal/ref/hann.html */
 543              		.loc 1 83 7 view .LVU166
  83:Grain.cpp     ****     /* formula from https://uk.mathworks.com/help/signal/ref/hann.html */
 544              		.loc 1 83 29 is_stmt 0 view .LVU167
 545 00f8 B0EE007A 		vmov.f32	s14, #2.0e+0
 546 00fc BFEE005A 		vmov.f32	s10, #-1.0e+0
  83:Grain.cpp     ****     /* formula from https://uk.mathworks.com/help/signal/ref/hann.html */
 547              		.loc 1 83 47 view .LVU168
 548 0100 F7EE007A 		vmov.f32	s15, #1.0e+0
  83:Grain.cpp     ****     /* formula from https://uk.mathworks.com/help/signal/ref/hann.html */
 549              		.loc 1 83 29 view .LVU169
 550 0104 A9EE875A 		vfma.f32	s10, s19, s14
 551              	.LVL25:
 552              	.LBB122:
 553              	.LBI122:
 554              		.file 4 "/Library/DaisyToolchain/0.2.0/arm/arm-none-eabi/include/c++/10.3.1/bits/std_abs.h"
   1:/Library/DaisyToolchain/0.2.0/arm/arm-none-eabi/include/c++/10.3.1/bits/std_abs.h **** // -*- C++ -*- C library enhancements header.
   2:/Library/DaisyToolchain/0.2.0/arm/arm-none-eabi/include/c++/10.3.1/bits/std_abs.h **** 
   3:/Library/DaisyToolchain/0.2.0/arm/arm-none-eabi/include/c++/10.3.1/bits/std_abs.h **** // Copyright (C) 2016-2020 Free Software Foundation, Inc.
   4:/Library/DaisyToolchain/0.2.0/arm/arm-none-eabi/include/c++/10.3.1/bits/std_abs.h **** //
   5:/Library/DaisyToolchain/0.2.0/arm/arm-none-eabi/include/c++/10.3.1/bits/std_abs.h **** // This file is part of the GNU ISO C++ Library.  This library is free
   6:/Library/DaisyToolchain/0.2.0/arm/arm-none-eabi/include/c++/10.3.1/bits/std_abs.h **** // software; you can redistribute it and/or modify it under the
   7:/Library/DaisyToolchain/0.2.0/arm/arm-none-eabi/include/c++/10.3.1/bits/std_abs.h **** // terms of the GNU General Public License as published by the
   8:/Library/DaisyToolchain/0.2.0/arm/arm-none-eabi/include/c++/10.3.1/bits/std_abs.h **** // Free Software Foundation; either version 3, or (at your option)
   9:/Library/DaisyToolchain/0.2.0/arm/arm-none-eabi/include/c++/10.3.1/bits/std_abs.h **** // any later version.
  10:/Library/DaisyToolchain/0.2.0/arm/arm-none-eabi/include/c++/10.3.1/bits/std_abs.h **** 
  11:/Library/DaisyToolchain/0.2.0/arm/arm-none-eabi/include/c++/10.3.1/bits/std_abs.h **** // This library is distributed in the hope that it will be useful,
  12:/Library/DaisyToolchain/0.2.0/arm/arm-none-eabi/include/c++/10.3.1/bits/std_abs.h **** // but WITHOUT ANY WARRANTY; without even the implied warranty of
  13:/Library/DaisyToolchain/0.2.0/arm/arm-none-eabi/include/c++/10.3.1/bits/std_abs.h **** // MERCHANTABILITY or FITNESS FOR A PARTICULAR PURPOSE.  See the
  14:/Library/DaisyToolchain/0.2.0/arm/arm-none-eabi/include/c++/10.3.1/bits/std_abs.h **** // GNU General Public License for more details.
  15:/Library/DaisyToolchain/0.2.0/arm/arm-none-eabi/include/c++/10.3.1/bits/std_abs.h **** 
  16:/Library/DaisyToolchain/0.2.0/arm/arm-none-eabi/include/c++/10.3.1/bits/std_abs.h **** // Under Section 7 of GPL version 3, you are granted additional
  17:/Library/DaisyToolchain/0.2.0/arm/arm-none-eabi/include/c++/10.3.1/bits/std_abs.h **** // permissions described in the GCC Runtime Library Exception, version
  18:/Library/DaisyToolchain/0.2.0/arm/arm-none-eabi/include/c++/10.3.1/bits/std_abs.h **** // 3.1, as published by the Free Software Foundation.
  19:/Library/DaisyToolchain/0.2.0/arm/arm-none-eabi/include/c++/10.3.1/bits/std_abs.h **** 
  20:/Library/DaisyToolchain/0.2.0/arm/arm-none-eabi/include/c++/10.3.1/bits/std_abs.h **** // You should have received a copy of the GNU General Public License and
  21:/Library/DaisyToolchain/0.2.0/arm/arm-none-eabi/include/c++/10.3.1/bits/std_abs.h **** // a copy of the GCC Runtime Library Exception along with this program;
  22:/Library/DaisyToolchain/0.2.0/arm/arm-none-eabi/include/c++/10.3.1/bits/std_abs.h **** // see the files COPYING3 and COPYING.RUNTIME respectively.  If not, see
  23:/Library/DaisyToolchain/0.2.0/arm/arm-none-eabi/include/c++/10.3.1/bits/std_abs.h **** // <http://www.gnu.org/licenses/>.
  24:/Library/DaisyToolchain/0.2.0/arm/arm-none-eabi/include/c++/10.3.1/bits/std_abs.h **** 
  25:/Library/DaisyToolchain/0.2.0/arm/arm-none-eabi/include/c++/10.3.1/bits/std_abs.h **** /** @file include/bits/std_abs.h
  26:/Library/DaisyToolchain/0.2.0/arm/arm-none-eabi/include/c++/10.3.1/bits/std_abs.h ****  *  This is an internal header file, included by other library headers.
  27:/Library/DaisyToolchain/0.2.0/arm/arm-none-eabi/include/c++/10.3.1/bits/std_abs.h ****  *  Do not attempt to use it directly. @headername{cmath, cstdlib}
  28:/Library/DaisyToolchain/0.2.0/arm/arm-none-eabi/include/c++/10.3.1/bits/std_abs.h ****  */
  29:/Library/DaisyToolchain/0.2.0/arm/arm-none-eabi/include/c++/10.3.1/bits/std_abs.h **** 
  30:/Library/DaisyToolchain/0.2.0/arm/arm-none-eabi/include/c++/10.3.1/bits/std_abs.h **** #ifndef _GLIBCXX_BITS_STD_ABS_H
  31:/Library/DaisyToolchain/0.2.0/arm/arm-none-eabi/include/c++/10.3.1/bits/std_abs.h **** #define _GLIBCXX_BITS_STD_ABS_H
  32:/Library/DaisyToolchain/0.2.0/arm/arm-none-eabi/include/c++/10.3.1/bits/std_abs.h **** 
  33:/Library/DaisyToolchain/0.2.0/arm/arm-none-eabi/include/c++/10.3.1/bits/std_abs.h **** #pragma GCC system_header
ARM GAS  /var/folders/2p/02m_5p7958535cp2tpgps0400000gn/T//ccf3x5ZF.s 			page 19


  34:/Library/DaisyToolchain/0.2.0/arm/arm-none-eabi/include/c++/10.3.1/bits/std_abs.h **** 
  35:/Library/DaisyToolchain/0.2.0/arm/arm-none-eabi/include/c++/10.3.1/bits/std_abs.h **** #include <bits/c++config.h>
  36:/Library/DaisyToolchain/0.2.0/arm/arm-none-eabi/include/c++/10.3.1/bits/std_abs.h **** 
  37:/Library/DaisyToolchain/0.2.0/arm/arm-none-eabi/include/c++/10.3.1/bits/std_abs.h **** #define _GLIBCXX_INCLUDE_NEXT_C_HEADERS
  38:/Library/DaisyToolchain/0.2.0/arm/arm-none-eabi/include/c++/10.3.1/bits/std_abs.h **** #include_next <stdlib.h>
  39:/Library/DaisyToolchain/0.2.0/arm/arm-none-eabi/include/c++/10.3.1/bits/std_abs.h **** #ifdef __CORRECT_ISO_CPP_MATH_H_PROTO
  40:/Library/DaisyToolchain/0.2.0/arm/arm-none-eabi/include/c++/10.3.1/bits/std_abs.h **** # include_next <math.h>
  41:/Library/DaisyToolchain/0.2.0/arm/arm-none-eabi/include/c++/10.3.1/bits/std_abs.h **** #endif
  42:/Library/DaisyToolchain/0.2.0/arm/arm-none-eabi/include/c++/10.3.1/bits/std_abs.h **** #undef _GLIBCXX_INCLUDE_NEXT_C_HEADERS
  43:/Library/DaisyToolchain/0.2.0/arm/arm-none-eabi/include/c++/10.3.1/bits/std_abs.h **** 
  44:/Library/DaisyToolchain/0.2.0/arm/arm-none-eabi/include/c++/10.3.1/bits/std_abs.h **** #undef abs
  45:/Library/DaisyToolchain/0.2.0/arm/arm-none-eabi/include/c++/10.3.1/bits/std_abs.h **** 
  46:/Library/DaisyToolchain/0.2.0/arm/arm-none-eabi/include/c++/10.3.1/bits/std_abs.h **** extern "C++"
  47:/Library/DaisyToolchain/0.2.0/arm/arm-none-eabi/include/c++/10.3.1/bits/std_abs.h **** {
  48:/Library/DaisyToolchain/0.2.0/arm/arm-none-eabi/include/c++/10.3.1/bits/std_abs.h **** namespace std _GLIBCXX_VISIBILITY(default)
  49:/Library/DaisyToolchain/0.2.0/arm/arm-none-eabi/include/c++/10.3.1/bits/std_abs.h **** {
  50:/Library/DaisyToolchain/0.2.0/arm/arm-none-eabi/include/c++/10.3.1/bits/std_abs.h **** _GLIBCXX_BEGIN_NAMESPACE_VERSION
  51:/Library/DaisyToolchain/0.2.0/arm/arm-none-eabi/include/c++/10.3.1/bits/std_abs.h **** 
  52:/Library/DaisyToolchain/0.2.0/arm/arm-none-eabi/include/c++/10.3.1/bits/std_abs.h ****   using ::abs;
  53:/Library/DaisyToolchain/0.2.0/arm/arm-none-eabi/include/c++/10.3.1/bits/std_abs.h **** 
  54:/Library/DaisyToolchain/0.2.0/arm/arm-none-eabi/include/c++/10.3.1/bits/std_abs.h **** #ifndef __CORRECT_ISO_CPP_STDLIB_H_PROTO
  55:/Library/DaisyToolchain/0.2.0/arm/arm-none-eabi/include/c++/10.3.1/bits/std_abs.h ****   inline long
  56:/Library/DaisyToolchain/0.2.0/arm/arm-none-eabi/include/c++/10.3.1/bits/std_abs.h ****   abs(long __i) { return __builtin_labs(__i); }
  57:/Library/DaisyToolchain/0.2.0/arm/arm-none-eabi/include/c++/10.3.1/bits/std_abs.h **** #endif
  58:/Library/DaisyToolchain/0.2.0/arm/arm-none-eabi/include/c++/10.3.1/bits/std_abs.h **** 
  59:/Library/DaisyToolchain/0.2.0/arm/arm-none-eabi/include/c++/10.3.1/bits/std_abs.h **** #ifdef _GLIBCXX_USE_LONG_LONG
  60:/Library/DaisyToolchain/0.2.0/arm/arm-none-eabi/include/c++/10.3.1/bits/std_abs.h ****   inline long long
  61:/Library/DaisyToolchain/0.2.0/arm/arm-none-eabi/include/c++/10.3.1/bits/std_abs.h ****   abs(long long __x) { return __builtin_llabs (__x); }
  62:/Library/DaisyToolchain/0.2.0/arm/arm-none-eabi/include/c++/10.3.1/bits/std_abs.h **** #endif
  63:/Library/DaisyToolchain/0.2.0/arm/arm-none-eabi/include/c++/10.3.1/bits/std_abs.h **** 
  64:/Library/DaisyToolchain/0.2.0/arm/arm-none-eabi/include/c++/10.3.1/bits/std_abs.h **** // _GLIBCXX_RESOLVE_LIB_DEFECTS
  65:/Library/DaisyToolchain/0.2.0/arm/arm-none-eabi/include/c++/10.3.1/bits/std_abs.h **** // 2192. Validity and return type of std::abs(0u) is unclear
  66:/Library/DaisyToolchain/0.2.0/arm/arm-none-eabi/include/c++/10.3.1/bits/std_abs.h **** // 2294. <cstdlib> should declare abs(double)
  67:/Library/DaisyToolchain/0.2.0/arm/arm-none-eabi/include/c++/10.3.1/bits/std_abs.h **** // 2735. std::abs(short), std::abs(signed char) and others should return int
  68:/Library/DaisyToolchain/0.2.0/arm/arm-none-eabi/include/c++/10.3.1/bits/std_abs.h **** 
  69:/Library/DaisyToolchain/0.2.0/arm/arm-none-eabi/include/c++/10.3.1/bits/std_abs.h **** #ifndef __CORRECT_ISO_CPP_MATH_H_PROTO
  70:/Library/DaisyToolchain/0.2.0/arm/arm-none-eabi/include/c++/10.3.1/bits/std_abs.h ****   inline _GLIBCXX_CONSTEXPR double
  71:/Library/DaisyToolchain/0.2.0/arm/arm-none-eabi/include/c++/10.3.1/bits/std_abs.h ****   abs(double __x)
  72:/Library/DaisyToolchain/0.2.0/arm/arm-none-eabi/include/c++/10.3.1/bits/std_abs.h ****   { return __builtin_fabs(__x); }
  73:/Library/DaisyToolchain/0.2.0/arm/arm-none-eabi/include/c++/10.3.1/bits/std_abs.h **** 
  74:/Library/DaisyToolchain/0.2.0/arm/arm-none-eabi/include/c++/10.3.1/bits/std_abs.h ****   inline _GLIBCXX_CONSTEXPR float
  75:/Library/DaisyToolchain/0.2.0/arm/arm-none-eabi/include/c++/10.3.1/bits/std_abs.h ****   abs(float __x)
 555              		.loc 4 75 3 is_stmt 1 view .LVU170
 556              	.LBB123:
  76:/Library/DaisyToolchain/0.2.0/arm/arm-none-eabi/include/c++/10.3.1/bits/std_abs.h ****   { return __builtin_fabsf(__x); }
 557              		.loc 4 76 5 view .LVU171
 558              		.loc 4 76 31 is_stmt 0 view .LVU172
 559 0108 B0EEC55A 		vabs.f32	s10, s10
 560              	.LBE123:
 561              	.LBE122:
  83:Grain.cpp     ****     /* formula from https://uk.mathworks.com/help/signal/ref/hann.html */
 562              		.loc 1 83 47 view .LVU173
 563 010c 77EEC59A 		vsub.f32	s19, s15, s10
 564              	.LVL26:
 565              	.L33:
  83:Grain.cpp     ****     /* formula from https://uk.mathworks.com/help/signal/ref/hann.html */
 566              		.loc 1 83 47 view .LVU174
ARM GAS  /var/folders/2p/02m_5p7958535cp2tpgps0400000gn/T//ccf3x5ZF.s 			page 20


 567              	.LBE126:
 568              	.LBE130:
  63:Grain.cpp     ****   float gain_right = std::sqrt(pan_);
 569              		.loc 1 63 3 is_stmt 1 view .LVU175
  63:Grain.cpp     ****   float gain_right = std::sqrt(pan_);
 570              		.loc 1 63 30 is_stmt 0 view .LVU176
 571 0110 F7EE007A 		vmov.f32	s15, #1.0e+0
  63:Grain.cpp     ****   float gain_right = std::sqrt(pan_);
 572              		.loc 1 63 36 view .LVU177
 573 0114 90ED077A 		vldr.32	s14, [r0, #28]
  63:Grain.cpp     ****   float gain_right = std::sqrt(pan_);
 574              		.loc 1 63 30 view .LVU178
 575 0118 77EEC77A 		vsub.f32	s15, s15, s14
 576              	.LVL27:
 577              	.LBB131:
 578              	.LBI131:
 579              		.file 5 "/Library/DaisyToolchain/0.2.0/arm/arm-none-eabi/include/c++/10.3.1/cmath"
   1:/Library/DaisyToolchain/0.2.0/arm/arm-none-eabi/include/c++/10.3.1/cmath **** // -*- C++ -*- C forwarding header.
   2:/Library/DaisyToolchain/0.2.0/arm/arm-none-eabi/include/c++/10.3.1/cmath **** 
   3:/Library/DaisyToolchain/0.2.0/arm/arm-none-eabi/include/c++/10.3.1/cmath **** // Copyright (C) 1997-2020 Free Software Foundation, Inc.
   4:/Library/DaisyToolchain/0.2.0/arm/arm-none-eabi/include/c++/10.3.1/cmath **** //
   5:/Library/DaisyToolchain/0.2.0/arm/arm-none-eabi/include/c++/10.3.1/cmath **** // This file is part of the GNU ISO C++ Library.  This library is free
   6:/Library/DaisyToolchain/0.2.0/arm/arm-none-eabi/include/c++/10.3.1/cmath **** // software; you can redistribute it and/or modify it under the
   7:/Library/DaisyToolchain/0.2.0/arm/arm-none-eabi/include/c++/10.3.1/cmath **** // terms of the GNU General Public License as published by the
   8:/Library/DaisyToolchain/0.2.0/arm/arm-none-eabi/include/c++/10.3.1/cmath **** // Free Software Foundation; either version 3, or (at your option)
   9:/Library/DaisyToolchain/0.2.0/arm/arm-none-eabi/include/c++/10.3.1/cmath **** // any later version.
  10:/Library/DaisyToolchain/0.2.0/arm/arm-none-eabi/include/c++/10.3.1/cmath **** 
  11:/Library/DaisyToolchain/0.2.0/arm/arm-none-eabi/include/c++/10.3.1/cmath **** // This library is distributed in the hope that it will be useful,
  12:/Library/DaisyToolchain/0.2.0/arm/arm-none-eabi/include/c++/10.3.1/cmath **** // but WITHOUT ANY WARRANTY; without even the implied warranty of
  13:/Library/DaisyToolchain/0.2.0/arm/arm-none-eabi/include/c++/10.3.1/cmath **** // MERCHANTABILITY or FITNESS FOR A PARTICULAR PURPOSE.  See the
  14:/Library/DaisyToolchain/0.2.0/arm/arm-none-eabi/include/c++/10.3.1/cmath **** // GNU General Public License for more details.
  15:/Library/DaisyToolchain/0.2.0/arm/arm-none-eabi/include/c++/10.3.1/cmath **** 
  16:/Library/DaisyToolchain/0.2.0/arm/arm-none-eabi/include/c++/10.3.1/cmath **** // Under Section 7 of GPL version 3, you are granted additional
  17:/Library/DaisyToolchain/0.2.0/arm/arm-none-eabi/include/c++/10.3.1/cmath **** // permissions described in the GCC Runtime Library Exception, version
  18:/Library/DaisyToolchain/0.2.0/arm/arm-none-eabi/include/c++/10.3.1/cmath **** // 3.1, as published by the Free Software Foundation.
  19:/Library/DaisyToolchain/0.2.0/arm/arm-none-eabi/include/c++/10.3.1/cmath **** 
  20:/Library/DaisyToolchain/0.2.0/arm/arm-none-eabi/include/c++/10.3.1/cmath **** // You should have received a copy of the GNU General Public License and
  21:/Library/DaisyToolchain/0.2.0/arm/arm-none-eabi/include/c++/10.3.1/cmath **** // a copy of the GCC Runtime Library Exception along with this program;
  22:/Library/DaisyToolchain/0.2.0/arm/arm-none-eabi/include/c++/10.3.1/cmath **** // see the files COPYING3 and COPYING.RUNTIME respectively.  If not, see
  23:/Library/DaisyToolchain/0.2.0/arm/arm-none-eabi/include/c++/10.3.1/cmath **** // <http://www.gnu.org/licenses/>.
  24:/Library/DaisyToolchain/0.2.0/arm/arm-none-eabi/include/c++/10.3.1/cmath **** 
  25:/Library/DaisyToolchain/0.2.0/arm/arm-none-eabi/include/c++/10.3.1/cmath **** /** @file include/cmath
  26:/Library/DaisyToolchain/0.2.0/arm/arm-none-eabi/include/c++/10.3.1/cmath ****  *  This is a Standard C++ Library file.  You should @c \#include this file
  27:/Library/DaisyToolchain/0.2.0/arm/arm-none-eabi/include/c++/10.3.1/cmath ****  *  in your programs, rather than any of the @a *.h implementation files.
  28:/Library/DaisyToolchain/0.2.0/arm/arm-none-eabi/include/c++/10.3.1/cmath ****  *
  29:/Library/DaisyToolchain/0.2.0/arm/arm-none-eabi/include/c++/10.3.1/cmath ****  *  This is the C++ version of the Standard C Library header @c math.h,
  30:/Library/DaisyToolchain/0.2.0/arm/arm-none-eabi/include/c++/10.3.1/cmath ****  *  and its contents are (mostly) the same as that header, but are all
  31:/Library/DaisyToolchain/0.2.0/arm/arm-none-eabi/include/c++/10.3.1/cmath ****  *  contained in the namespace @c std (except for names which are defined
  32:/Library/DaisyToolchain/0.2.0/arm/arm-none-eabi/include/c++/10.3.1/cmath ****  *  as macros in C).
  33:/Library/DaisyToolchain/0.2.0/arm/arm-none-eabi/include/c++/10.3.1/cmath ****  */
  34:/Library/DaisyToolchain/0.2.0/arm/arm-none-eabi/include/c++/10.3.1/cmath **** 
  35:/Library/DaisyToolchain/0.2.0/arm/arm-none-eabi/include/c++/10.3.1/cmath **** //
  36:/Library/DaisyToolchain/0.2.0/arm/arm-none-eabi/include/c++/10.3.1/cmath **** // ISO C++ 14882: 26.5  C library
  37:/Library/DaisyToolchain/0.2.0/arm/arm-none-eabi/include/c++/10.3.1/cmath **** //
  38:/Library/DaisyToolchain/0.2.0/arm/arm-none-eabi/include/c++/10.3.1/cmath **** 
  39:/Library/DaisyToolchain/0.2.0/arm/arm-none-eabi/include/c++/10.3.1/cmath **** #pragma GCC system_header
  40:/Library/DaisyToolchain/0.2.0/arm/arm-none-eabi/include/c++/10.3.1/cmath **** 
ARM GAS  /var/folders/2p/02m_5p7958535cp2tpgps0400000gn/T//ccf3x5ZF.s 			page 21


  41:/Library/DaisyToolchain/0.2.0/arm/arm-none-eabi/include/c++/10.3.1/cmath **** #include <bits/c++config.h>
  42:/Library/DaisyToolchain/0.2.0/arm/arm-none-eabi/include/c++/10.3.1/cmath **** #include <bits/cpp_type_traits.h>
  43:/Library/DaisyToolchain/0.2.0/arm/arm-none-eabi/include/c++/10.3.1/cmath **** #include <ext/type_traits.h>
  44:/Library/DaisyToolchain/0.2.0/arm/arm-none-eabi/include/c++/10.3.1/cmath **** #define _GLIBCXX_INCLUDE_NEXT_C_HEADERS
  45:/Library/DaisyToolchain/0.2.0/arm/arm-none-eabi/include/c++/10.3.1/cmath **** #include_next <math.h>
  46:/Library/DaisyToolchain/0.2.0/arm/arm-none-eabi/include/c++/10.3.1/cmath **** #undef _GLIBCXX_INCLUDE_NEXT_C_HEADERS
  47:/Library/DaisyToolchain/0.2.0/arm/arm-none-eabi/include/c++/10.3.1/cmath **** #include <bits/std_abs.h>
  48:/Library/DaisyToolchain/0.2.0/arm/arm-none-eabi/include/c++/10.3.1/cmath **** 
  49:/Library/DaisyToolchain/0.2.0/arm/arm-none-eabi/include/c++/10.3.1/cmath **** #ifndef _GLIBCXX_CMATH
  50:/Library/DaisyToolchain/0.2.0/arm/arm-none-eabi/include/c++/10.3.1/cmath **** #define _GLIBCXX_CMATH 1
  51:/Library/DaisyToolchain/0.2.0/arm/arm-none-eabi/include/c++/10.3.1/cmath **** 
  52:/Library/DaisyToolchain/0.2.0/arm/arm-none-eabi/include/c++/10.3.1/cmath **** // Get rid of those macros defined in <math.h> in lieu of real functions.
  53:/Library/DaisyToolchain/0.2.0/arm/arm-none-eabi/include/c++/10.3.1/cmath **** #undef div
  54:/Library/DaisyToolchain/0.2.0/arm/arm-none-eabi/include/c++/10.3.1/cmath **** #undef acos
  55:/Library/DaisyToolchain/0.2.0/arm/arm-none-eabi/include/c++/10.3.1/cmath **** #undef asin
  56:/Library/DaisyToolchain/0.2.0/arm/arm-none-eabi/include/c++/10.3.1/cmath **** #undef atan
  57:/Library/DaisyToolchain/0.2.0/arm/arm-none-eabi/include/c++/10.3.1/cmath **** #undef atan2
  58:/Library/DaisyToolchain/0.2.0/arm/arm-none-eabi/include/c++/10.3.1/cmath **** #undef ceil
  59:/Library/DaisyToolchain/0.2.0/arm/arm-none-eabi/include/c++/10.3.1/cmath **** #undef cos
  60:/Library/DaisyToolchain/0.2.0/arm/arm-none-eabi/include/c++/10.3.1/cmath **** #undef cosh
  61:/Library/DaisyToolchain/0.2.0/arm/arm-none-eabi/include/c++/10.3.1/cmath **** #undef exp
  62:/Library/DaisyToolchain/0.2.0/arm/arm-none-eabi/include/c++/10.3.1/cmath **** #undef fabs
  63:/Library/DaisyToolchain/0.2.0/arm/arm-none-eabi/include/c++/10.3.1/cmath **** #undef floor
  64:/Library/DaisyToolchain/0.2.0/arm/arm-none-eabi/include/c++/10.3.1/cmath **** #undef fmod
  65:/Library/DaisyToolchain/0.2.0/arm/arm-none-eabi/include/c++/10.3.1/cmath **** #undef frexp
  66:/Library/DaisyToolchain/0.2.0/arm/arm-none-eabi/include/c++/10.3.1/cmath **** #undef ldexp
  67:/Library/DaisyToolchain/0.2.0/arm/arm-none-eabi/include/c++/10.3.1/cmath **** #undef log
  68:/Library/DaisyToolchain/0.2.0/arm/arm-none-eabi/include/c++/10.3.1/cmath **** #undef log10
  69:/Library/DaisyToolchain/0.2.0/arm/arm-none-eabi/include/c++/10.3.1/cmath **** #undef modf
  70:/Library/DaisyToolchain/0.2.0/arm/arm-none-eabi/include/c++/10.3.1/cmath **** #undef pow
  71:/Library/DaisyToolchain/0.2.0/arm/arm-none-eabi/include/c++/10.3.1/cmath **** #undef sin
  72:/Library/DaisyToolchain/0.2.0/arm/arm-none-eabi/include/c++/10.3.1/cmath **** #undef sinh
  73:/Library/DaisyToolchain/0.2.0/arm/arm-none-eabi/include/c++/10.3.1/cmath **** #undef sqrt
  74:/Library/DaisyToolchain/0.2.0/arm/arm-none-eabi/include/c++/10.3.1/cmath **** #undef tan
  75:/Library/DaisyToolchain/0.2.0/arm/arm-none-eabi/include/c++/10.3.1/cmath **** #undef tanh
  76:/Library/DaisyToolchain/0.2.0/arm/arm-none-eabi/include/c++/10.3.1/cmath **** 
  77:/Library/DaisyToolchain/0.2.0/arm/arm-none-eabi/include/c++/10.3.1/cmath **** extern "C++"
  78:/Library/DaisyToolchain/0.2.0/arm/arm-none-eabi/include/c++/10.3.1/cmath **** {
  79:/Library/DaisyToolchain/0.2.0/arm/arm-none-eabi/include/c++/10.3.1/cmath **** namespace std _GLIBCXX_VISIBILITY(default)
  80:/Library/DaisyToolchain/0.2.0/arm/arm-none-eabi/include/c++/10.3.1/cmath **** {
  81:/Library/DaisyToolchain/0.2.0/arm/arm-none-eabi/include/c++/10.3.1/cmath **** _GLIBCXX_BEGIN_NAMESPACE_VERSION
  82:/Library/DaisyToolchain/0.2.0/arm/arm-none-eabi/include/c++/10.3.1/cmath **** 
  83:/Library/DaisyToolchain/0.2.0/arm/arm-none-eabi/include/c++/10.3.1/cmath ****   using ::acos;
  84:/Library/DaisyToolchain/0.2.0/arm/arm-none-eabi/include/c++/10.3.1/cmath **** 
  85:/Library/DaisyToolchain/0.2.0/arm/arm-none-eabi/include/c++/10.3.1/cmath **** #ifndef __CORRECT_ISO_CPP_MATH_H_PROTO
  86:/Library/DaisyToolchain/0.2.0/arm/arm-none-eabi/include/c++/10.3.1/cmath ****   inline _GLIBCXX_CONSTEXPR float
  87:/Library/DaisyToolchain/0.2.0/arm/arm-none-eabi/include/c++/10.3.1/cmath ****   acos(float __x)
  88:/Library/DaisyToolchain/0.2.0/arm/arm-none-eabi/include/c++/10.3.1/cmath ****   { return __builtin_acosf(__x); }
  89:/Library/DaisyToolchain/0.2.0/arm/arm-none-eabi/include/c++/10.3.1/cmath **** 
  90:/Library/DaisyToolchain/0.2.0/arm/arm-none-eabi/include/c++/10.3.1/cmath ****   inline _GLIBCXX_CONSTEXPR long double
  91:/Library/DaisyToolchain/0.2.0/arm/arm-none-eabi/include/c++/10.3.1/cmath ****   acos(long double __x)
  92:/Library/DaisyToolchain/0.2.0/arm/arm-none-eabi/include/c++/10.3.1/cmath ****   { return __builtin_acosl(__x); }
  93:/Library/DaisyToolchain/0.2.0/arm/arm-none-eabi/include/c++/10.3.1/cmath **** #endif
  94:/Library/DaisyToolchain/0.2.0/arm/arm-none-eabi/include/c++/10.3.1/cmath **** 
  95:/Library/DaisyToolchain/0.2.0/arm/arm-none-eabi/include/c++/10.3.1/cmath ****   template<typename _Tp>
  96:/Library/DaisyToolchain/0.2.0/arm/arm-none-eabi/include/c++/10.3.1/cmath ****     inline _GLIBCXX_CONSTEXPR
  97:/Library/DaisyToolchain/0.2.0/arm/arm-none-eabi/include/c++/10.3.1/cmath ****     typename __gnu_cxx::__enable_if<__is_integer<_Tp>::__value, 
ARM GAS  /var/folders/2p/02m_5p7958535cp2tpgps0400000gn/T//ccf3x5ZF.s 			page 22


  98:/Library/DaisyToolchain/0.2.0/arm/arm-none-eabi/include/c++/10.3.1/cmath ****                                     double>::__type
  99:/Library/DaisyToolchain/0.2.0/arm/arm-none-eabi/include/c++/10.3.1/cmath ****     acos(_Tp __x)
 100:/Library/DaisyToolchain/0.2.0/arm/arm-none-eabi/include/c++/10.3.1/cmath ****     { return __builtin_acos(__x); }
 101:/Library/DaisyToolchain/0.2.0/arm/arm-none-eabi/include/c++/10.3.1/cmath **** 
 102:/Library/DaisyToolchain/0.2.0/arm/arm-none-eabi/include/c++/10.3.1/cmath ****   using ::asin;
 103:/Library/DaisyToolchain/0.2.0/arm/arm-none-eabi/include/c++/10.3.1/cmath **** 
 104:/Library/DaisyToolchain/0.2.0/arm/arm-none-eabi/include/c++/10.3.1/cmath **** #ifndef __CORRECT_ISO_CPP_MATH_H_PROTO
 105:/Library/DaisyToolchain/0.2.0/arm/arm-none-eabi/include/c++/10.3.1/cmath ****   inline _GLIBCXX_CONSTEXPR float
 106:/Library/DaisyToolchain/0.2.0/arm/arm-none-eabi/include/c++/10.3.1/cmath ****   asin(float __x)
 107:/Library/DaisyToolchain/0.2.0/arm/arm-none-eabi/include/c++/10.3.1/cmath ****   { return __builtin_asinf(__x); }
 108:/Library/DaisyToolchain/0.2.0/arm/arm-none-eabi/include/c++/10.3.1/cmath **** 
 109:/Library/DaisyToolchain/0.2.0/arm/arm-none-eabi/include/c++/10.3.1/cmath ****   inline _GLIBCXX_CONSTEXPR long double
 110:/Library/DaisyToolchain/0.2.0/arm/arm-none-eabi/include/c++/10.3.1/cmath ****   asin(long double __x)
 111:/Library/DaisyToolchain/0.2.0/arm/arm-none-eabi/include/c++/10.3.1/cmath ****   { return __builtin_asinl(__x); }
 112:/Library/DaisyToolchain/0.2.0/arm/arm-none-eabi/include/c++/10.3.1/cmath **** #endif
 113:/Library/DaisyToolchain/0.2.0/arm/arm-none-eabi/include/c++/10.3.1/cmath **** 
 114:/Library/DaisyToolchain/0.2.0/arm/arm-none-eabi/include/c++/10.3.1/cmath ****   template<typename _Tp>
 115:/Library/DaisyToolchain/0.2.0/arm/arm-none-eabi/include/c++/10.3.1/cmath ****     inline _GLIBCXX_CONSTEXPR
 116:/Library/DaisyToolchain/0.2.0/arm/arm-none-eabi/include/c++/10.3.1/cmath ****     typename __gnu_cxx::__enable_if<__is_integer<_Tp>::__value,
 117:/Library/DaisyToolchain/0.2.0/arm/arm-none-eabi/include/c++/10.3.1/cmath ****                                     double>::__type
 118:/Library/DaisyToolchain/0.2.0/arm/arm-none-eabi/include/c++/10.3.1/cmath ****     asin(_Tp __x)
 119:/Library/DaisyToolchain/0.2.0/arm/arm-none-eabi/include/c++/10.3.1/cmath ****     { return __builtin_asin(__x); }
 120:/Library/DaisyToolchain/0.2.0/arm/arm-none-eabi/include/c++/10.3.1/cmath **** 
 121:/Library/DaisyToolchain/0.2.0/arm/arm-none-eabi/include/c++/10.3.1/cmath ****   using ::atan;
 122:/Library/DaisyToolchain/0.2.0/arm/arm-none-eabi/include/c++/10.3.1/cmath **** 
 123:/Library/DaisyToolchain/0.2.0/arm/arm-none-eabi/include/c++/10.3.1/cmath **** #ifndef __CORRECT_ISO_CPP_MATH_H_PROTO
 124:/Library/DaisyToolchain/0.2.0/arm/arm-none-eabi/include/c++/10.3.1/cmath ****   inline _GLIBCXX_CONSTEXPR float
 125:/Library/DaisyToolchain/0.2.0/arm/arm-none-eabi/include/c++/10.3.1/cmath ****   atan(float __x)
 126:/Library/DaisyToolchain/0.2.0/arm/arm-none-eabi/include/c++/10.3.1/cmath ****   { return __builtin_atanf(__x); }
 127:/Library/DaisyToolchain/0.2.0/arm/arm-none-eabi/include/c++/10.3.1/cmath **** 
 128:/Library/DaisyToolchain/0.2.0/arm/arm-none-eabi/include/c++/10.3.1/cmath ****   inline _GLIBCXX_CONSTEXPR long double
 129:/Library/DaisyToolchain/0.2.0/arm/arm-none-eabi/include/c++/10.3.1/cmath ****   atan(long double __x)
 130:/Library/DaisyToolchain/0.2.0/arm/arm-none-eabi/include/c++/10.3.1/cmath ****   { return __builtin_atanl(__x); }
 131:/Library/DaisyToolchain/0.2.0/arm/arm-none-eabi/include/c++/10.3.1/cmath **** #endif
 132:/Library/DaisyToolchain/0.2.0/arm/arm-none-eabi/include/c++/10.3.1/cmath **** 
 133:/Library/DaisyToolchain/0.2.0/arm/arm-none-eabi/include/c++/10.3.1/cmath ****   template<typename _Tp>
 134:/Library/DaisyToolchain/0.2.0/arm/arm-none-eabi/include/c++/10.3.1/cmath ****     inline _GLIBCXX_CONSTEXPR
 135:/Library/DaisyToolchain/0.2.0/arm/arm-none-eabi/include/c++/10.3.1/cmath ****     typename __gnu_cxx::__enable_if<__is_integer<_Tp>::__value,
 136:/Library/DaisyToolchain/0.2.0/arm/arm-none-eabi/include/c++/10.3.1/cmath ****                                     double>::__type
 137:/Library/DaisyToolchain/0.2.0/arm/arm-none-eabi/include/c++/10.3.1/cmath ****     atan(_Tp __x)
 138:/Library/DaisyToolchain/0.2.0/arm/arm-none-eabi/include/c++/10.3.1/cmath ****     { return __builtin_atan(__x); }
 139:/Library/DaisyToolchain/0.2.0/arm/arm-none-eabi/include/c++/10.3.1/cmath **** 
 140:/Library/DaisyToolchain/0.2.0/arm/arm-none-eabi/include/c++/10.3.1/cmath ****   using ::atan2;
 141:/Library/DaisyToolchain/0.2.0/arm/arm-none-eabi/include/c++/10.3.1/cmath **** 
 142:/Library/DaisyToolchain/0.2.0/arm/arm-none-eabi/include/c++/10.3.1/cmath **** #ifndef __CORRECT_ISO_CPP_MATH_H_PROTO
 143:/Library/DaisyToolchain/0.2.0/arm/arm-none-eabi/include/c++/10.3.1/cmath ****   inline _GLIBCXX_CONSTEXPR float
 144:/Library/DaisyToolchain/0.2.0/arm/arm-none-eabi/include/c++/10.3.1/cmath ****   atan2(float __y, float __x)
 145:/Library/DaisyToolchain/0.2.0/arm/arm-none-eabi/include/c++/10.3.1/cmath ****   { return __builtin_atan2f(__y, __x); }
 146:/Library/DaisyToolchain/0.2.0/arm/arm-none-eabi/include/c++/10.3.1/cmath **** 
 147:/Library/DaisyToolchain/0.2.0/arm/arm-none-eabi/include/c++/10.3.1/cmath ****   inline _GLIBCXX_CONSTEXPR long double
 148:/Library/DaisyToolchain/0.2.0/arm/arm-none-eabi/include/c++/10.3.1/cmath ****   atan2(long double __y, long double __x)
 149:/Library/DaisyToolchain/0.2.0/arm/arm-none-eabi/include/c++/10.3.1/cmath ****   { return __builtin_atan2l(__y, __x); }
 150:/Library/DaisyToolchain/0.2.0/arm/arm-none-eabi/include/c++/10.3.1/cmath **** #endif
 151:/Library/DaisyToolchain/0.2.0/arm/arm-none-eabi/include/c++/10.3.1/cmath **** 
 152:/Library/DaisyToolchain/0.2.0/arm/arm-none-eabi/include/c++/10.3.1/cmath ****   template<typename _Tp, typename _Up>
 153:/Library/DaisyToolchain/0.2.0/arm/arm-none-eabi/include/c++/10.3.1/cmath ****     inline _GLIBCXX_CONSTEXPR
 154:/Library/DaisyToolchain/0.2.0/arm/arm-none-eabi/include/c++/10.3.1/cmath ****     typename __gnu_cxx::__promote_2<_Tp, _Up>::__type
ARM GAS  /var/folders/2p/02m_5p7958535cp2tpgps0400000gn/T//ccf3x5ZF.s 			page 23


 155:/Library/DaisyToolchain/0.2.0/arm/arm-none-eabi/include/c++/10.3.1/cmath ****     atan2(_Tp __y, _Up __x)
 156:/Library/DaisyToolchain/0.2.0/arm/arm-none-eabi/include/c++/10.3.1/cmath ****     {
 157:/Library/DaisyToolchain/0.2.0/arm/arm-none-eabi/include/c++/10.3.1/cmath ****       typedef typename __gnu_cxx::__promote_2<_Tp, _Up>::__type __type;
 158:/Library/DaisyToolchain/0.2.0/arm/arm-none-eabi/include/c++/10.3.1/cmath ****       return atan2(__type(__y), __type(__x));
 159:/Library/DaisyToolchain/0.2.0/arm/arm-none-eabi/include/c++/10.3.1/cmath ****     }
 160:/Library/DaisyToolchain/0.2.0/arm/arm-none-eabi/include/c++/10.3.1/cmath **** 
 161:/Library/DaisyToolchain/0.2.0/arm/arm-none-eabi/include/c++/10.3.1/cmath ****   using ::ceil;
 162:/Library/DaisyToolchain/0.2.0/arm/arm-none-eabi/include/c++/10.3.1/cmath **** 
 163:/Library/DaisyToolchain/0.2.0/arm/arm-none-eabi/include/c++/10.3.1/cmath **** #ifndef __CORRECT_ISO_CPP_MATH_H_PROTO
 164:/Library/DaisyToolchain/0.2.0/arm/arm-none-eabi/include/c++/10.3.1/cmath ****   inline _GLIBCXX_CONSTEXPR float
 165:/Library/DaisyToolchain/0.2.0/arm/arm-none-eabi/include/c++/10.3.1/cmath ****   ceil(float __x)
 166:/Library/DaisyToolchain/0.2.0/arm/arm-none-eabi/include/c++/10.3.1/cmath ****   { return __builtin_ceilf(__x); }
 167:/Library/DaisyToolchain/0.2.0/arm/arm-none-eabi/include/c++/10.3.1/cmath **** 
 168:/Library/DaisyToolchain/0.2.0/arm/arm-none-eabi/include/c++/10.3.1/cmath ****   inline _GLIBCXX_CONSTEXPR long double
 169:/Library/DaisyToolchain/0.2.0/arm/arm-none-eabi/include/c++/10.3.1/cmath ****   ceil(long double __x)
 170:/Library/DaisyToolchain/0.2.0/arm/arm-none-eabi/include/c++/10.3.1/cmath ****   { return __builtin_ceill(__x); }
 171:/Library/DaisyToolchain/0.2.0/arm/arm-none-eabi/include/c++/10.3.1/cmath **** #endif
 172:/Library/DaisyToolchain/0.2.0/arm/arm-none-eabi/include/c++/10.3.1/cmath **** 
 173:/Library/DaisyToolchain/0.2.0/arm/arm-none-eabi/include/c++/10.3.1/cmath ****   template<typename _Tp>
 174:/Library/DaisyToolchain/0.2.0/arm/arm-none-eabi/include/c++/10.3.1/cmath ****     inline _GLIBCXX_CONSTEXPR
 175:/Library/DaisyToolchain/0.2.0/arm/arm-none-eabi/include/c++/10.3.1/cmath ****     typename __gnu_cxx::__enable_if<__is_integer<_Tp>::__value, 
 176:/Library/DaisyToolchain/0.2.0/arm/arm-none-eabi/include/c++/10.3.1/cmath ****                                     double>::__type
 177:/Library/DaisyToolchain/0.2.0/arm/arm-none-eabi/include/c++/10.3.1/cmath ****     ceil(_Tp __x)
 178:/Library/DaisyToolchain/0.2.0/arm/arm-none-eabi/include/c++/10.3.1/cmath ****     { return __builtin_ceil(__x); }
 179:/Library/DaisyToolchain/0.2.0/arm/arm-none-eabi/include/c++/10.3.1/cmath **** 
 180:/Library/DaisyToolchain/0.2.0/arm/arm-none-eabi/include/c++/10.3.1/cmath ****   using ::cos;
 181:/Library/DaisyToolchain/0.2.0/arm/arm-none-eabi/include/c++/10.3.1/cmath **** 
 182:/Library/DaisyToolchain/0.2.0/arm/arm-none-eabi/include/c++/10.3.1/cmath **** #ifndef __CORRECT_ISO_CPP_MATH_H_PROTO
 183:/Library/DaisyToolchain/0.2.0/arm/arm-none-eabi/include/c++/10.3.1/cmath ****   inline _GLIBCXX_CONSTEXPR float
 184:/Library/DaisyToolchain/0.2.0/arm/arm-none-eabi/include/c++/10.3.1/cmath ****   cos(float __x)
 185:/Library/DaisyToolchain/0.2.0/arm/arm-none-eabi/include/c++/10.3.1/cmath ****   { return __builtin_cosf(__x); }
 186:/Library/DaisyToolchain/0.2.0/arm/arm-none-eabi/include/c++/10.3.1/cmath **** 
 187:/Library/DaisyToolchain/0.2.0/arm/arm-none-eabi/include/c++/10.3.1/cmath ****   inline _GLIBCXX_CONSTEXPR long double
 188:/Library/DaisyToolchain/0.2.0/arm/arm-none-eabi/include/c++/10.3.1/cmath ****   cos(long double __x)
 189:/Library/DaisyToolchain/0.2.0/arm/arm-none-eabi/include/c++/10.3.1/cmath ****   { return __builtin_cosl(__x); }
 190:/Library/DaisyToolchain/0.2.0/arm/arm-none-eabi/include/c++/10.3.1/cmath **** #endif
 191:/Library/DaisyToolchain/0.2.0/arm/arm-none-eabi/include/c++/10.3.1/cmath **** 
 192:/Library/DaisyToolchain/0.2.0/arm/arm-none-eabi/include/c++/10.3.1/cmath ****   template<typename _Tp>
 193:/Library/DaisyToolchain/0.2.0/arm/arm-none-eabi/include/c++/10.3.1/cmath ****     inline _GLIBCXX_CONSTEXPR
 194:/Library/DaisyToolchain/0.2.0/arm/arm-none-eabi/include/c++/10.3.1/cmath ****     typename __gnu_cxx::__enable_if<__is_integer<_Tp>::__value,
 195:/Library/DaisyToolchain/0.2.0/arm/arm-none-eabi/include/c++/10.3.1/cmath ****                                     double>::__type
 196:/Library/DaisyToolchain/0.2.0/arm/arm-none-eabi/include/c++/10.3.1/cmath ****     cos(_Tp __x)
 197:/Library/DaisyToolchain/0.2.0/arm/arm-none-eabi/include/c++/10.3.1/cmath ****     { return __builtin_cos(__x); }
 198:/Library/DaisyToolchain/0.2.0/arm/arm-none-eabi/include/c++/10.3.1/cmath **** 
 199:/Library/DaisyToolchain/0.2.0/arm/arm-none-eabi/include/c++/10.3.1/cmath ****   using ::cosh;
 200:/Library/DaisyToolchain/0.2.0/arm/arm-none-eabi/include/c++/10.3.1/cmath **** 
 201:/Library/DaisyToolchain/0.2.0/arm/arm-none-eabi/include/c++/10.3.1/cmath **** #ifndef __CORRECT_ISO_CPP_MATH_H_PROTO
 202:/Library/DaisyToolchain/0.2.0/arm/arm-none-eabi/include/c++/10.3.1/cmath ****   inline _GLIBCXX_CONSTEXPR float
 203:/Library/DaisyToolchain/0.2.0/arm/arm-none-eabi/include/c++/10.3.1/cmath ****   cosh(float __x)
 204:/Library/DaisyToolchain/0.2.0/arm/arm-none-eabi/include/c++/10.3.1/cmath ****   { return __builtin_coshf(__x); }
 205:/Library/DaisyToolchain/0.2.0/arm/arm-none-eabi/include/c++/10.3.1/cmath **** 
 206:/Library/DaisyToolchain/0.2.0/arm/arm-none-eabi/include/c++/10.3.1/cmath ****   inline _GLIBCXX_CONSTEXPR long double
 207:/Library/DaisyToolchain/0.2.0/arm/arm-none-eabi/include/c++/10.3.1/cmath ****   cosh(long double __x)
 208:/Library/DaisyToolchain/0.2.0/arm/arm-none-eabi/include/c++/10.3.1/cmath ****   { return __builtin_coshl(__x); }
 209:/Library/DaisyToolchain/0.2.0/arm/arm-none-eabi/include/c++/10.3.1/cmath **** #endif
 210:/Library/DaisyToolchain/0.2.0/arm/arm-none-eabi/include/c++/10.3.1/cmath **** 
 211:/Library/DaisyToolchain/0.2.0/arm/arm-none-eabi/include/c++/10.3.1/cmath ****   template<typename _Tp>
ARM GAS  /var/folders/2p/02m_5p7958535cp2tpgps0400000gn/T//ccf3x5ZF.s 			page 24


 212:/Library/DaisyToolchain/0.2.0/arm/arm-none-eabi/include/c++/10.3.1/cmath ****     inline _GLIBCXX_CONSTEXPR
 213:/Library/DaisyToolchain/0.2.0/arm/arm-none-eabi/include/c++/10.3.1/cmath ****     typename __gnu_cxx::__enable_if<__is_integer<_Tp>::__value,
 214:/Library/DaisyToolchain/0.2.0/arm/arm-none-eabi/include/c++/10.3.1/cmath ****                                     double>::__type
 215:/Library/DaisyToolchain/0.2.0/arm/arm-none-eabi/include/c++/10.3.1/cmath ****     cosh(_Tp __x)
 216:/Library/DaisyToolchain/0.2.0/arm/arm-none-eabi/include/c++/10.3.1/cmath ****     { return __builtin_cosh(__x); }
 217:/Library/DaisyToolchain/0.2.0/arm/arm-none-eabi/include/c++/10.3.1/cmath **** 
 218:/Library/DaisyToolchain/0.2.0/arm/arm-none-eabi/include/c++/10.3.1/cmath ****   using ::exp;
 219:/Library/DaisyToolchain/0.2.0/arm/arm-none-eabi/include/c++/10.3.1/cmath **** 
 220:/Library/DaisyToolchain/0.2.0/arm/arm-none-eabi/include/c++/10.3.1/cmath **** #ifndef __CORRECT_ISO_CPP_MATH_H_PROTO
 221:/Library/DaisyToolchain/0.2.0/arm/arm-none-eabi/include/c++/10.3.1/cmath ****   inline _GLIBCXX_CONSTEXPR float
 222:/Library/DaisyToolchain/0.2.0/arm/arm-none-eabi/include/c++/10.3.1/cmath ****   exp(float __x)
 223:/Library/DaisyToolchain/0.2.0/arm/arm-none-eabi/include/c++/10.3.1/cmath ****   { return __builtin_expf(__x); }
 224:/Library/DaisyToolchain/0.2.0/arm/arm-none-eabi/include/c++/10.3.1/cmath **** 
 225:/Library/DaisyToolchain/0.2.0/arm/arm-none-eabi/include/c++/10.3.1/cmath ****   inline _GLIBCXX_CONSTEXPR long double
 226:/Library/DaisyToolchain/0.2.0/arm/arm-none-eabi/include/c++/10.3.1/cmath ****   exp(long double __x)
 227:/Library/DaisyToolchain/0.2.0/arm/arm-none-eabi/include/c++/10.3.1/cmath ****   { return __builtin_expl(__x); }
 228:/Library/DaisyToolchain/0.2.0/arm/arm-none-eabi/include/c++/10.3.1/cmath **** #endif
 229:/Library/DaisyToolchain/0.2.0/arm/arm-none-eabi/include/c++/10.3.1/cmath **** 
 230:/Library/DaisyToolchain/0.2.0/arm/arm-none-eabi/include/c++/10.3.1/cmath ****   template<typename _Tp>
 231:/Library/DaisyToolchain/0.2.0/arm/arm-none-eabi/include/c++/10.3.1/cmath ****     inline _GLIBCXX_CONSTEXPR
 232:/Library/DaisyToolchain/0.2.0/arm/arm-none-eabi/include/c++/10.3.1/cmath ****     typename __gnu_cxx::__enable_if<__is_integer<_Tp>::__value,
 233:/Library/DaisyToolchain/0.2.0/arm/arm-none-eabi/include/c++/10.3.1/cmath ****                                     double>::__type
 234:/Library/DaisyToolchain/0.2.0/arm/arm-none-eabi/include/c++/10.3.1/cmath ****     exp(_Tp __x)
 235:/Library/DaisyToolchain/0.2.0/arm/arm-none-eabi/include/c++/10.3.1/cmath ****     { return __builtin_exp(__x); }
 236:/Library/DaisyToolchain/0.2.0/arm/arm-none-eabi/include/c++/10.3.1/cmath **** 
 237:/Library/DaisyToolchain/0.2.0/arm/arm-none-eabi/include/c++/10.3.1/cmath ****   using ::fabs;
 238:/Library/DaisyToolchain/0.2.0/arm/arm-none-eabi/include/c++/10.3.1/cmath **** 
 239:/Library/DaisyToolchain/0.2.0/arm/arm-none-eabi/include/c++/10.3.1/cmath **** #ifndef __CORRECT_ISO_CPP_MATH_H_PROTO
 240:/Library/DaisyToolchain/0.2.0/arm/arm-none-eabi/include/c++/10.3.1/cmath ****   inline _GLIBCXX_CONSTEXPR float
 241:/Library/DaisyToolchain/0.2.0/arm/arm-none-eabi/include/c++/10.3.1/cmath ****   fabs(float __x)
 242:/Library/DaisyToolchain/0.2.0/arm/arm-none-eabi/include/c++/10.3.1/cmath ****   { return __builtin_fabsf(__x); }
 243:/Library/DaisyToolchain/0.2.0/arm/arm-none-eabi/include/c++/10.3.1/cmath **** 
 244:/Library/DaisyToolchain/0.2.0/arm/arm-none-eabi/include/c++/10.3.1/cmath ****   inline _GLIBCXX_CONSTEXPR long double
 245:/Library/DaisyToolchain/0.2.0/arm/arm-none-eabi/include/c++/10.3.1/cmath ****   fabs(long double __x)
 246:/Library/DaisyToolchain/0.2.0/arm/arm-none-eabi/include/c++/10.3.1/cmath ****   { return __builtin_fabsl(__x); }
 247:/Library/DaisyToolchain/0.2.0/arm/arm-none-eabi/include/c++/10.3.1/cmath **** #endif
 248:/Library/DaisyToolchain/0.2.0/arm/arm-none-eabi/include/c++/10.3.1/cmath **** 
 249:/Library/DaisyToolchain/0.2.0/arm/arm-none-eabi/include/c++/10.3.1/cmath ****   template<typename _Tp>
 250:/Library/DaisyToolchain/0.2.0/arm/arm-none-eabi/include/c++/10.3.1/cmath ****     inline _GLIBCXX_CONSTEXPR
 251:/Library/DaisyToolchain/0.2.0/arm/arm-none-eabi/include/c++/10.3.1/cmath ****     typename __gnu_cxx::__enable_if<__is_integer<_Tp>::__value,
 252:/Library/DaisyToolchain/0.2.0/arm/arm-none-eabi/include/c++/10.3.1/cmath ****                                     double>::__type
 253:/Library/DaisyToolchain/0.2.0/arm/arm-none-eabi/include/c++/10.3.1/cmath ****     fabs(_Tp __x)
 254:/Library/DaisyToolchain/0.2.0/arm/arm-none-eabi/include/c++/10.3.1/cmath ****     { return __builtin_fabs(__x); }
 255:/Library/DaisyToolchain/0.2.0/arm/arm-none-eabi/include/c++/10.3.1/cmath **** 
 256:/Library/DaisyToolchain/0.2.0/arm/arm-none-eabi/include/c++/10.3.1/cmath ****   using ::floor;
 257:/Library/DaisyToolchain/0.2.0/arm/arm-none-eabi/include/c++/10.3.1/cmath **** 
 258:/Library/DaisyToolchain/0.2.0/arm/arm-none-eabi/include/c++/10.3.1/cmath **** #ifndef __CORRECT_ISO_CPP_MATH_H_PROTO
 259:/Library/DaisyToolchain/0.2.0/arm/arm-none-eabi/include/c++/10.3.1/cmath ****   inline _GLIBCXX_CONSTEXPR float
 260:/Library/DaisyToolchain/0.2.0/arm/arm-none-eabi/include/c++/10.3.1/cmath ****   floor(float __x)
 261:/Library/DaisyToolchain/0.2.0/arm/arm-none-eabi/include/c++/10.3.1/cmath ****   { return __builtin_floorf(__x); }
 262:/Library/DaisyToolchain/0.2.0/arm/arm-none-eabi/include/c++/10.3.1/cmath **** 
 263:/Library/DaisyToolchain/0.2.0/arm/arm-none-eabi/include/c++/10.3.1/cmath ****   inline _GLIBCXX_CONSTEXPR long double
 264:/Library/DaisyToolchain/0.2.0/arm/arm-none-eabi/include/c++/10.3.1/cmath ****   floor(long double __x)
 265:/Library/DaisyToolchain/0.2.0/arm/arm-none-eabi/include/c++/10.3.1/cmath ****   { return __builtin_floorl(__x); }
 266:/Library/DaisyToolchain/0.2.0/arm/arm-none-eabi/include/c++/10.3.1/cmath **** #endif
 267:/Library/DaisyToolchain/0.2.0/arm/arm-none-eabi/include/c++/10.3.1/cmath **** 
 268:/Library/DaisyToolchain/0.2.0/arm/arm-none-eabi/include/c++/10.3.1/cmath ****   template<typename _Tp>
ARM GAS  /var/folders/2p/02m_5p7958535cp2tpgps0400000gn/T//ccf3x5ZF.s 			page 25


 269:/Library/DaisyToolchain/0.2.0/arm/arm-none-eabi/include/c++/10.3.1/cmath ****     inline _GLIBCXX_CONSTEXPR
 270:/Library/DaisyToolchain/0.2.0/arm/arm-none-eabi/include/c++/10.3.1/cmath ****     typename __gnu_cxx::__enable_if<__is_integer<_Tp>::__value,
 271:/Library/DaisyToolchain/0.2.0/arm/arm-none-eabi/include/c++/10.3.1/cmath ****                                     double>::__type
 272:/Library/DaisyToolchain/0.2.0/arm/arm-none-eabi/include/c++/10.3.1/cmath ****     floor(_Tp __x)
 273:/Library/DaisyToolchain/0.2.0/arm/arm-none-eabi/include/c++/10.3.1/cmath ****     { return __builtin_floor(__x); }
 274:/Library/DaisyToolchain/0.2.0/arm/arm-none-eabi/include/c++/10.3.1/cmath **** 
 275:/Library/DaisyToolchain/0.2.0/arm/arm-none-eabi/include/c++/10.3.1/cmath ****   using ::fmod;
 276:/Library/DaisyToolchain/0.2.0/arm/arm-none-eabi/include/c++/10.3.1/cmath **** 
 277:/Library/DaisyToolchain/0.2.0/arm/arm-none-eabi/include/c++/10.3.1/cmath **** #ifndef __CORRECT_ISO_CPP_MATH_H_PROTO
 278:/Library/DaisyToolchain/0.2.0/arm/arm-none-eabi/include/c++/10.3.1/cmath ****   inline _GLIBCXX_CONSTEXPR float
 279:/Library/DaisyToolchain/0.2.0/arm/arm-none-eabi/include/c++/10.3.1/cmath ****   fmod(float __x, float __y)
 280:/Library/DaisyToolchain/0.2.0/arm/arm-none-eabi/include/c++/10.3.1/cmath ****   { return __builtin_fmodf(__x, __y); }
 281:/Library/DaisyToolchain/0.2.0/arm/arm-none-eabi/include/c++/10.3.1/cmath **** 
 282:/Library/DaisyToolchain/0.2.0/arm/arm-none-eabi/include/c++/10.3.1/cmath ****   inline _GLIBCXX_CONSTEXPR long double
 283:/Library/DaisyToolchain/0.2.0/arm/arm-none-eabi/include/c++/10.3.1/cmath ****   fmod(long double __x, long double __y)
 284:/Library/DaisyToolchain/0.2.0/arm/arm-none-eabi/include/c++/10.3.1/cmath ****   { return __builtin_fmodl(__x, __y); }
 285:/Library/DaisyToolchain/0.2.0/arm/arm-none-eabi/include/c++/10.3.1/cmath **** #endif
 286:/Library/DaisyToolchain/0.2.0/arm/arm-none-eabi/include/c++/10.3.1/cmath **** 
 287:/Library/DaisyToolchain/0.2.0/arm/arm-none-eabi/include/c++/10.3.1/cmath ****   template<typename _Tp, typename _Up>
 288:/Library/DaisyToolchain/0.2.0/arm/arm-none-eabi/include/c++/10.3.1/cmath ****     inline _GLIBCXX_CONSTEXPR
 289:/Library/DaisyToolchain/0.2.0/arm/arm-none-eabi/include/c++/10.3.1/cmath ****     typename __gnu_cxx::__promote_2<_Tp, _Up>::__type
 290:/Library/DaisyToolchain/0.2.0/arm/arm-none-eabi/include/c++/10.3.1/cmath ****     fmod(_Tp __x, _Up __y)
 291:/Library/DaisyToolchain/0.2.0/arm/arm-none-eabi/include/c++/10.3.1/cmath ****     {
 292:/Library/DaisyToolchain/0.2.0/arm/arm-none-eabi/include/c++/10.3.1/cmath ****       typedef typename __gnu_cxx::__promote_2<_Tp, _Up>::__type __type;
 293:/Library/DaisyToolchain/0.2.0/arm/arm-none-eabi/include/c++/10.3.1/cmath ****       return fmod(__type(__x), __type(__y));
 294:/Library/DaisyToolchain/0.2.0/arm/arm-none-eabi/include/c++/10.3.1/cmath ****     }
 295:/Library/DaisyToolchain/0.2.0/arm/arm-none-eabi/include/c++/10.3.1/cmath **** 
 296:/Library/DaisyToolchain/0.2.0/arm/arm-none-eabi/include/c++/10.3.1/cmath ****   using ::frexp;
 297:/Library/DaisyToolchain/0.2.0/arm/arm-none-eabi/include/c++/10.3.1/cmath **** 
 298:/Library/DaisyToolchain/0.2.0/arm/arm-none-eabi/include/c++/10.3.1/cmath **** #ifndef __CORRECT_ISO_CPP_MATH_H_PROTO
 299:/Library/DaisyToolchain/0.2.0/arm/arm-none-eabi/include/c++/10.3.1/cmath ****   inline float
 300:/Library/DaisyToolchain/0.2.0/arm/arm-none-eabi/include/c++/10.3.1/cmath ****   frexp(float __x, int* __exp)
 301:/Library/DaisyToolchain/0.2.0/arm/arm-none-eabi/include/c++/10.3.1/cmath ****   { return __builtin_frexpf(__x, __exp); }
 302:/Library/DaisyToolchain/0.2.0/arm/arm-none-eabi/include/c++/10.3.1/cmath **** 
 303:/Library/DaisyToolchain/0.2.0/arm/arm-none-eabi/include/c++/10.3.1/cmath ****   inline long double
 304:/Library/DaisyToolchain/0.2.0/arm/arm-none-eabi/include/c++/10.3.1/cmath ****   frexp(long double __x, int* __exp)
 305:/Library/DaisyToolchain/0.2.0/arm/arm-none-eabi/include/c++/10.3.1/cmath ****   { return __builtin_frexpl(__x, __exp); }
 306:/Library/DaisyToolchain/0.2.0/arm/arm-none-eabi/include/c++/10.3.1/cmath **** #endif
 307:/Library/DaisyToolchain/0.2.0/arm/arm-none-eabi/include/c++/10.3.1/cmath **** 
 308:/Library/DaisyToolchain/0.2.0/arm/arm-none-eabi/include/c++/10.3.1/cmath ****   template<typename _Tp>
 309:/Library/DaisyToolchain/0.2.0/arm/arm-none-eabi/include/c++/10.3.1/cmath ****     inline _GLIBCXX_CONSTEXPR
 310:/Library/DaisyToolchain/0.2.0/arm/arm-none-eabi/include/c++/10.3.1/cmath ****     typename __gnu_cxx::__enable_if<__is_integer<_Tp>::__value, 
 311:/Library/DaisyToolchain/0.2.0/arm/arm-none-eabi/include/c++/10.3.1/cmath ****                                     double>::__type
 312:/Library/DaisyToolchain/0.2.0/arm/arm-none-eabi/include/c++/10.3.1/cmath ****     frexp(_Tp __x, int* __exp)
 313:/Library/DaisyToolchain/0.2.0/arm/arm-none-eabi/include/c++/10.3.1/cmath ****     { return __builtin_frexp(__x, __exp); }
 314:/Library/DaisyToolchain/0.2.0/arm/arm-none-eabi/include/c++/10.3.1/cmath **** 
 315:/Library/DaisyToolchain/0.2.0/arm/arm-none-eabi/include/c++/10.3.1/cmath ****   using ::ldexp;
 316:/Library/DaisyToolchain/0.2.0/arm/arm-none-eabi/include/c++/10.3.1/cmath **** 
 317:/Library/DaisyToolchain/0.2.0/arm/arm-none-eabi/include/c++/10.3.1/cmath **** #ifndef __CORRECT_ISO_CPP_MATH_H_PROTO
 318:/Library/DaisyToolchain/0.2.0/arm/arm-none-eabi/include/c++/10.3.1/cmath ****   inline _GLIBCXX_CONSTEXPR float
 319:/Library/DaisyToolchain/0.2.0/arm/arm-none-eabi/include/c++/10.3.1/cmath ****   ldexp(float __x, int __exp)
 320:/Library/DaisyToolchain/0.2.0/arm/arm-none-eabi/include/c++/10.3.1/cmath ****   { return __builtin_ldexpf(__x, __exp); }
 321:/Library/DaisyToolchain/0.2.0/arm/arm-none-eabi/include/c++/10.3.1/cmath **** 
 322:/Library/DaisyToolchain/0.2.0/arm/arm-none-eabi/include/c++/10.3.1/cmath ****   inline _GLIBCXX_CONSTEXPR long double
 323:/Library/DaisyToolchain/0.2.0/arm/arm-none-eabi/include/c++/10.3.1/cmath ****   ldexp(long double __x, int __exp)
 324:/Library/DaisyToolchain/0.2.0/arm/arm-none-eabi/include/c++/10.3.1/cmath ****   { return __builtin_ldexpl(__x, __exp); }
 325:/Library/DaisyToolchain/0.2.0/arm/arm-none-eabi/include/c++/10.3.1/cmath **** #endif
ARM GAS  /var/folders/2p/02m_5p7958535cp2tpgps0400000gn/T//ccf3x5ZF.s 			page 26


 326:/Library/DaisyToolchain/0.2.0/arm/arm-none-eabi/include/c++/10.3.1/cmath **** 
 327:/Library/DaisyToolchain/0.2.0/arm/arm-none-eabi/include/c++/10.3.1/cmath ****   template<typename _Tp>
 328:/Library/DaisyToolchain/0.2.0/arm/arm-none-eabi/include/c++/10.3.1/cmath ****     inline _GLIBCXX_CONSTEXPR
 329:/Library/DaisyToolchain/0.2.0/arm/arm-none-eabi/include/c++/10.3.1/cmath ****     typename __gnu_cxx::__enable_if<__is_integer<_Tp>::__value, 
 330:/Library/DaisyToolchain/0.2.0/arm/arm-none-eabi/include/c++/10.3.1/cmath ****                                     double>::__type
 331:/Library/DaisyToolchain/0.2.0/arm/arm-none-eabi/include/c++/10.3.1/cmath ****     ldexp(_Tp __x, int __exp)
 332:/Library/DaisyToolchain/0.2.0/arm/arm-none-eabi/include/c++/10.3.1/cmath ****     { return __builtin_ldexp(__x, __exp); }
 333:/Library/DaisyToolchain/0.2.0/arm/arm-none-eabi/include/c++/10.3.1/cmath **** 
 334:/Library/DaisyToolchain/0.2.0/arm/arm-none-eabi/include/c++/10.3.1/cmath ****   using ::log;
 335:/Library/DaisyToolchain/0.2.0/arm/arm-none-eabi/include/c++/10.3.1/cmath **** 
 336:/Library/DaisyToolchain/0.2.0/arm/arm-none-eabi/include/c++/10.3.1/cmath **** #ifndef __CORRECT_ISO_CPP_MATH_H_PROTO
 337:/Library/DaisyToolchain/0.2.0/arm/arm-none-eabi/include/c++/10.3.1/cmath ****   inline _GLIBCXX_CONSTEXPR float
 338:/Library/DaisyToolchain/0.2.0/arm/arm-none-eabi/include/c++/10.3.1/cmath ****   log(float __x)
 339:/Library/DaisyToolchain/0.2.0/arm/arm-none-eabi/include/c++/10.3.1/cmath ****   { return __builtin_logf(__x); }
 340:/Library/DaisyToolchain/0.2.0/arm/arm-none-eabi/include/c++/10.3.1/cmath **** 
 341:/Library/DaisyToolchain/0.2.0/arm/arm-none-eabi/include/c++/10.3.1/cmath ****   inline _GLIBCXX_CONSTEXPR long double
 342:/Library/DaisyToolchain/0.2.0/arm/arm-none-eabi/include/c++/10.3.1/cmath ****   log(long double __x)
 343:/Library/DaisyToolchain/0.2.0/arm/arm-none-eabi/include/c++/10.3.1/cmath ****   { return __builtin_logl(__x); }
 344:/Library/DaisyToolchain/0.2.0/arm/arm-none-eabi/include/c++/10.3.1/cmath **** #endif
 345:/Library/DaisyToolchain/0.2.0/arm/arm-none-eabi/include/c++/10.3.1/cmath **** 
 346:/Library/DaisyToolchain/0.2.0/arm/arm-none-eabi/include/c++/10.3.1/cmath ****   template<typename _Tp>
 347:/Library/DaisyToolchain/0.2.0/arm/arm-none-eabi/include/c++/10.3.1/cmath ****     inline _GLIBCXX_CONSTEXPR
 348:/Library/DaisyToolchain/0.2.0/arm/arm-none-eabi/include/c++/10.3.1/cmath ****     typename __gnu_cxx::__enable_if<__is_integer<_Tp>::__value, 
 349:/Library/DaisyToolchain/0.2.0/arm/arm-none-eabi/include/c++/10.3.1/cmath ****                                     double>::__type
 350:/Library/DaisyToolchain/0.2.0/arm/arm-none-eabi/include/c++/10.3.1/cmath ****     log(_Tp __x)
 351:/Library/DaisyToolchain/0.2.0/arm/arm-none-eabi/include/c++/10.3.1/cmath ****     { return __builtin_log(__x); }
 352:/Library/DaisyToolchain/0.2.0/arm/arm-none-eabi/include/c++/10.3.1/cmath **** 
 353:/Library/DaisyToolchain/0.2.0/arm/arm-none-eabi/include/c++/10.3.1/cmath ****   using ::log10;
 354:/Library/DaisyToolchain/0.2.0/arm/arm-none-eabi/include/c++/10.3.1/cmath **** 
 355:/Library/DaisyToolchain/0.2.0/arm/arm-none-eabi/include/c++/10.3.1/cmath **** #ifndef __CORRECT_ISO_CPP_MATH_H_PROTO
 356:/Library/DaisyToolchain/0.2.0/arm/arm-none-eabi/include/c++/10.3.1/cmath ****   inline _GLIBCXX_CONSTEXPR float
 357:/Library/DaisyToolchain/0.2.0/arm/arm-none-eabi/include/c++/10.3.1/cmath ****   log10(float __x)
 358:/Library/DaisyToolchain/0.2.0/arm/arm-none-eabi/include/c++/10.3.1/cmath ****   { return __builtin_log10f(__x); }
 359:/Library/DaisyToolchain/0.2.0/arm/arm-none-eabi/include/c++/10.3.1/cmath **** 
 360:/Library/DaisyToolchain/0.2.0/arm/arm-none-eabi/include/c++/10.3.1/cmath ****   inline _GLIBCXX_CONSTEXPR long double
 361:/Library/DaisyToolchain/0.2.0/arm/arm-none-eabi/include/c++/10.3.1/cmath ****   log10(long double __x)
 362:/Library/DaisyToolchain/0.2.0/arm/arm-none-eabi/include/c++/10.3.1/cmath ****   { return __builtin_log10l(__x); }
 363:/Library/DaisyToolchain/0.2.0/arm/arm-none-eabi/include/c++/10.3.1/cmath **** #endif
 364:/Library/DaisyToolchain/0.2.0/arm/arm-none-eabi/include/c++/10.3.1/cmath **** 
 365:/Library/DaisyToolchain/0.2.0/arm/arm-none-eabi/include/c++/10.3.1/cmath ****   template<typename _Tp>
 366:/Library/DaisyToolchain/0.2.0/arm/arm-none-eabi/include/c++/10.3.1/cmath ****     inline _GLIBCXX_CONSTEXPR
 367:/Library/DaisyToolchain/0.2.0/arm/arm-none-eabi/include/c++/10.3.1/cmath ****     typename __gnu_cxx::__enable_if<__is_integer<_Tp>::__value,
 368:/Library/DaisyToolchain/0.2.0/arm/arm-none-eabi/include/c++/10.3.1/cmath ****                                     double>::__type
 369:/Library/DaisyToolchain/0.2.0/arm/arm-none-eabi/include/c++/10.3.1/cmath ****     log10(_Tp __x)
 370:/Library/DaisyToolchain/0.2.0/arm/arm-none-eabi/include/c++/10.3.1/cmath ****     { return __builtin_log10(__x); }
 371:/Library/DaisyToolchain/0.2.0/arm/arm-none-eabi/include/c++/10.3.1/cmath **** 
 372:/Library/DaisyToolchain/0.2.0/arm/arm-none-eabi/include/c++/10.3.1/cmath ****   using ::modf;
 373:/Library/DaisyToolchain/0.2.0/arm/arm-none-eabi/include/c++/10.3.1/cmath **** 
 374:/Library/DaisyToolchain/0.2.0/arm/arm-none-eabi/include/c++/10.3.1/cmath **** #ifndef __CORRECT_ISO_CPP_MATH_H_PROTO
 375:/Library/DaisyToolchain/0.2.0/arm/arm-none-eabi/include/c++/10.3.1/cmath ****   inline float
 376:/Library/DaisyToolchain/0.2.0/arm/arm-none-eabi/include/c++/10.3.1/cmath ****   modf(float __x, float* __iptr)
 377:/Library/DaisyToolchain/0.2.0/arm/arm-none-eabi/include/c++/10.3.1/cmath ****   { return __builtin_modff(__x, __iptr); }
 378:/Library/DaisyToolchain/0.2.0/arm/arm-none-eabi/include/c++/10.3.1/cmath **** 
 379:/Library/DaisyToolchain/0.2.0/arm/arm-none-eabi/include/c++/10.3.1/cmath ****   inline long double
 380:/Library/DaisyToolchain/0.2.0/arm/arm-none-eabi/include/c++/10.3.1/cmath ****   modf(long double __x, long double* __iptr)
 381:/Library/DaisyToolchain/0.2.0/arm/arm-none-eabi/include/c++/10.3.1/cmath ****   { return __builtin_modfl(__x, __iptr); }
 382:/Library/DaisyToolchain/0.2.0/arm/arm-none-eabi/include/c++/10.3.1/cmath **** #endif
ARM GAS  /var/folders/2p/02m_5p7958535cp2tpgps0400000gn/T//ccf3x5ZF.s 			page 27


 383:/Library/DaisyToolchain/0.2.0/arm/arm-none-eabi/include/c++/10.3.1/cmath **** 
 384:/Library/DaisyToolchain/0.2.0/arm/arm-none-eabi/include/c++/10.3.1/cmath ****   using ::pow;
 385:/Library/DaisyToolchain/0.2.0/arm/arm-none-eabi/include/c++/10.3.1/cmath **** 
 386:/Library/DaisyToolchain/0.2.0/arm/arm-none-eabi/include/c++/10.3.1/cmath **** #ifndef __CORRECT_ISO_CPP_MATH_H_PROTO
 387:/Library/DaisyToolchain/0.2.0/arm/arm-none-eabi/include/c++/10.3.1/cmath ****   inline _GLIBCXX_CONSTEXPR float
 388:/Library/DaisyToolchain/0.2.0/arm/arm-none-eabi/include/c++/10.3.1/cmath ****   pow(float __x, float __y)
 389:/Library/DaisyToolchain/0.2.0/arm/arm-none-eabi/include/c++/10.3.1/cmath ****   { return __builtin_powf(__x, __y); }
 390:/Library/DaisyToolchain/0.2.0/arm/arm-none-eabi/include/c++/10.3.1/cmath **** 
 391:/Library/DaisyToolchain/0.2.0/arm/arm-none-eabi/include/c++/10.3.1/cmath ****   inline _GLIBCXX_CONSTEXPR long double
 392:/Library/DaisyToolchain/0.2.0/arm/arm-none-eabi/include/c++/10.3.1/cmath ****   pow(long double __x, long double __y)
 393:/Library/DaisyToolchain/0.2.0/arm/arm-none-eabi/include/c++/10.3.1/cmath ****   { return __builtin_powl(__x, __y); }
 394:/Library/DaisyToolchain/0.2.0/arm/arm-none-eabi/include/c++/10.3.1/cmath **** 
 395:/Library/DaisyToolchain/0.2.0/arm/arm-none-eabi/include/c++/10.3.1/cmath **** #if __cplusplus < 201103L
 396:/Library/DaisyToolchain/0.2.0/arm/arm-none-eabi/include/c++/10.3.1/cmath ****   // _GLIBCXX_RESOLVE_LIB_DEFECTS
 397:/Library/DaisyToolchain/0.2.0/arm/arm-none-eabi/include/c++/10.3.1/cmath ****   // DR 550. What should the return type of pow(float,int) be?
 398:/Library/DaisyToolchain/0.2.0/arm/arm-none-eabi/include/c++/10.3.1/cmath ****   inline double
 399:/Library/DaisyToolchain/0.2.0/arm/arm-none-eabi/include/c++/10.3.1/cmath ****   pow(double __x, int __i)
 400:/Library/DaisyToolchain/0.2.0/arm/arm-none-eabi/include/c++/10.3.1/cmath ****   { return __builtin_powi(__x, __i); }
 401:/Library/DaisyToolchain/0.2.0/arm/arm-none-eabi/include/c++/10.3.1/cmath **** 
 402:/Library/DaisyToolchain/0.2.0/arm/arm-none-eabi/include/c++/10.3.1/cmath ****   inline float
 403:/Library/DaisyToolchain/0.2.0/arm/arm-none-eabi/include/c++/10.3.1/cmath ****   pow(float __x, int __n)
 404:/Library/DaisyToolchain/0.2.0/arm/arm-none-eabi/include/c++/10.3.1/cmath ****   { return __builtin_powif(__x, __n); }
 405:/Library/DaisyToolchain/0.2.0/arm/arm-none-eabi/include/c++/10.3.1/cmath **** 
 406:/Library/DaisyToolchain/0.2.0/arm/arm-none-eabi/include/c++/10.3.1/cmath ****   inline long double
 407:/Library/DaisyToolchain/0.2.0/arm/arm-none-eabi/include/c++/10.3.1/cmath ****   pow(long double __x, int __n)
 408:/Library/DaisyToolchain/0.2.0/arm/arm-none-eabi/include/c++/10.3.1/cmath ****   { return __builtin_powil(__x, __n); }
 409:/Library/DaisyToolchain/0.2.0/arm/arm-none-eabi/include/c++/10.3.1/cmath **** #endif
 410:/Library/DaisyToolchain/0.2.0/arm/arm-none-eabi/include/c++/10.3.1/cmath **** #endif
 411:/Library/DaisyToolchain/0.2.0/arm/arm-none-eabi/include/c++/10.3.1/cmath **** 
 412:/Library/DaisyToolchain/0.2.0/arm/arm-none-eabi/include/c++/10.3.1/cmath ****   template<typename _Tp, typename _Up>
 413:/Library/DaisyToolchain/0.2.0/arm/arm-none-eabi/include/c++/10.3.1/cmath ****     inline _GLIBCXX_CONSTEXPR
 414:/Library/DaisyToolchain/0.2.0/arm/arm-none-eabi/include/c++/10.3.1/cmath ****     typename __gnu_cxx::__promote_2<_Tp, _Up>::__type
 415:/Library/DaisyToolchain/0.2.0/arm/arm-none-eabi/include/c++/10.3.1/cmath ****     pow(_Tp __x, _Up __y)
 416:/Library/DaisyToolchain/0.2.0/arm/arm-none-eabi/include/c++/10.3.1/cmath ****     {
 417:/Library/DaisyToolchain/0.2.0/arm/arm-none-eabi/include/c++/10.3.1/cmath ****       typedef typename __gnu_cxx::__promote_2<_Tp, _Up>::__type __type;
 418:/Library/DaisyToolchain/0.2.0/arm/arm-none-eabi/include/c++/10.3.1/cmath ****       return pow(__type(__x), __type(__y));
 419:/Library/DaisyToolchain/0.2.0/arm/arm-none-eabi/include/c++/10.3.1/cmath ****     }
 420:/Library/DaisyToolchain/0.2.0/arm/arm-none-eabi/include/c++/10.3.1/cmath **** 
 421:/Library/DaisyToolchain/0.2.0/arm/arm-none-eabi/include/c++/10.3.1/cmath ****   using ::sin;
 422:/Library/DaisyToolchain/0.2.0/arm/arm-none-eabi/include/c++/10.3.1/cmath **** 
 423:/Library/DaisyToolchain/0.2.0/arm/arm-none-eabi/include/c++/10.3.1/cmath **** #ifndef __CORRECT_ISO_CPP_MATH_H_PROTO
 424:/Library/DaisyToolchain/0.2.0/arm/arm-none-eabi/include/c++/10.3.1/cmath ****   inline _GLIBCXX_CONSTEXPR float
 425:/Library/DaisyToolchain/0.2.0/arm/arm-none-eabi/include/c++/10.3.1/cmath ****   sin(float __x)
 426:/Library/DaisyToolchain/0.2.0/arm/arm-none-eabi/include/c++/10.3.1/cmath ****   { return __builtin_sinf(__x); }
 427:/Library/DaisyToolchain/0.2.0/arm/arm-none-eabi/include/c++/10.3.1/cmath **** 
 428:/Library/DaisyToolchain/0.2.0/arm/arm-none-eabi/include/c++/10.3.1/cmath ****   inline _GLIBCXX_CONSTEXPR long double
 429:/Library/DaisyToolchain/0.2.0/arm/arm-none-eabi/include/c++/10.3.1/cmath ****   sin(long double __x)
 430:/Library/DaisyToolchain/0.2.0/arm/arm-none-eabi/include/c++/10.3.1/cmath ****   { return __builtin_sinl(__x); }
 431:/Library/DaisyToolchain/0.2.0/arm/arm-none-eabi/include/c++/10.3.1/cmath **** #endif
 432:/Library/DaisyToolchain/0.2.0/arm/arm-none-eabi/include/c++/10.3.1/cmath **** 
 433:/Library/DaisyToolchain/0.2.0/arm/arm-none-eabi/include/c++/10.3.1/cmath ****   template<typename _Tp>
 434:/Library/DaisyToolchain/0.2.0/arm/arm-none-eabi/include/c++/10.3.1/cmath ****     inline _GLIBCXX_CONSTEXPR
 435:/Library/DaisyToolchain/0.2.0/arm/arm-none-eabi/include/c++/10.3.1/cmath ****     typename __gnu_cxx::__enable_if<__is_integer<_Tp>::__value, 
 436:/Library/DaisyToolchain/0.2.0/arm/arm-none-eabi/include/c++/10.3.1/cmath ****                                     double>::__type
 437:/Library/DaisyToolchain/0.2.0/arm/arm-none-eabi/include/c++/10.3.1/cmath ****     sin(_Tp __x)
 438:/Library/DaisyToolchain/0.2.0/arm/arm-none-eabi/include/c++/10.3.1/cmath ****     { return __builtin_sin(__x); }
 439:/Library/DaisyToolchain/0.2.0/arm/arm-none-eabi/include/c++/10.3.1/cmath **** 
ARM GAS  /var/folders/2p/02m_5p7958535cp2tpgps0400000gn/T//ccf3x5ZF.s 			page 28


 440:/Library/DaisyToolchain/0.2.0/arm/arm-none-eabi/include/c++/10.3.1/cmath ****   using ::sinh;
 441:/Library/DaisyToolchain/0.2.0/arm/arm-none-eabi/include/c++/10.3.1/cmath **** 
 442:/Library/DaisyToolchain/0.2.0/arm/arm-none-eabi/include/c++/10.3.1/cmath **** #ifndef __CORRECT_ISO_CPP_MATH_H_PROTO
 443:/Library/DaisyToolchain/0.2.0/arm/arm-none-eabi/include/c++/10.3.1/cmath ****   inline _GLIBCXX_CONSTEXPR float
 444:/Library/DaisyToolchain/0.2.0/arm/arm-none-eabi/include/c++/10.3.1/cmath ****   sinh(float __x)
 445:/Library/DaisyToolchain/0.2.0/arm/arm-none-eabi/include/c++/10.3.1/cmath ****   { return __builtin_sinhf(__x); }
 446:/Library/DaisyToolchain/0.2.0/arm/arm-none-eabi/include/c++/10.3.1/cmath **** 
 447:/Library/DaisyToolchain/0.2.0/arm/arm-none-eabi/include/c++/10.3.1/cmath ****   inline _GLIBCXX_CONSTEXPR long double
 448:/Library/DaisyToolchain/0.2.0/arm/arm-none-eabi/include/c++/10.3.1/cmath ****   sinh(long double __x)
 449:/Library/DaisyToolchain/0.2.0/arm/arm-none-eabi/include/c++/10.3.1/cmath ****   { return __builtin_sinhl(__x); }
 450:/Library/DaisyToolchain/0.2.0/arm/arm-none-eabi/include/c++/10.3.1/cmath **** #endif
 451:/Library/DaisyToolchain/0.2.0/arm/arm-none-eabi/include/c++/10.3.1/cmath **** 
 452:/Library/DaisyToolchain/0.2.0/arm/arm-none-eabi/include/c++/10.3.1/cmath ****   template<typename _Tp>
 453:/Library/DaisyToolchain/0.2.0/arm/arm-none-eabi/include/c++/10.3.1/cmath ****     inline _GLIBCXX_CONSTEXPR
 454:/Library/DaisyToolchain/0.2.0/arm/arm-none-eabi/include/c++/10.3.1/cmath ****     typename __gnu_cxx::__enable_if<__is_integer<_Tp>::__value, 
 455:/Library/DaisyToolchain/0.2.0/arm/arm-none-eabi/include/c++/10.3.1/cmath ****                                     double>::__type
 456:/Library/DaisyToolchain/0.2.0/arm/arm-none-eabi/include/c++/10.3.1/cmath ****     sinh(_Tp __x)
 457:/Library/DaisyToolchain/0.2.0/arm/arm-none-eabi/include/c++/10.3.1/cmath ****     { return __builtin_sinh(__x); }
 458:/Library/DaisyToolchain/0.2.0/arm/arm-none-eabi/include/c++/10.3.1/cmath **** 
 459:/Library/DaisyToolchain/0.2.0/arm/arm-none-eabi/include/c++/10.3.1/cmath ****   using ::sqrt;
 460:/Library/DaisyToolchain/0.2.0/arm/arm-none-eabi/include/c++/10.3.1/cmath **** 
 461:/Library/DaisyToolchain/0.2.0/arm/arm-none-eabi/include/c++/10.3.1/cmath **** #ifndef __CORRECT_ISO_CPP_MATH_H_PROTO
 462:/Library/DaisyToolchain/0.2.0/arm/arm-none-eabi/include/c++/10.3.1/cmath ****   inline _GLIBCXX_CONSTEXPR float
 463:/Library/DaisyToolchain/0.2.0/arm/arm-none-eabi/include/c++/10.3.1/cmath ****   sqrt(float __x)
 580              		.loc 5 463 3 is_stmt 1 view .LVU179
 581              	.LBB132:
 464:/Library/DaisyToolchain/0.2.0/arm/arm-none-eabi/include/c++/10.3.1/cmath ****   { return __builtin_sqrtf(__x); }
 582              		.loc 5 464 5 view .LVU180
 583 011c F5EE407A 		vcmp.f32	s15, #0
 584 0120 F1EE10FA 		vmrs	APSR_nzcv, FPSCR
 585 0124 7FD4     		bmi	.L54
 586              		.loc 5 464 27 is_stmt 0 view .LVU181
 587 0126 B1EEE78A 		vsqrt.f32	s16, s15
 588              	.LVL28:
 589              	.L37:
 590              		.loc 5 464 27 view .LVU182
 591              	.LBE132:
 592              	.LBE131:
  64:Grain.cpp     ****   *sum_left += (left*env*gain_left);
 593              		.loc 1 64 3 is_stmt 1 view .LVU183
 594              	.LBB136:
 595              	.LBI136:
 463:/Library/DaisyToolchain/0.2.0/arm/arm-none-eabi/include/c++/10.3.1/cmath ****   { return __builtin_sqrtf(__x); }
 596              		.loc 5 463 3 view .LVU184
 597              	.LBB137:
 598              		.loc 5 464 5 view .LVU185
 599 012a B5EE407A 		vcmp.f32	s14, #0
 600 012e F1EE10FA 		vmrs	APSR_nzcv, FPSCR
 601 0132 00F18780 		bmi	.L55
 602              		.loc 5 464 27 is_stmt 0 view .LVU186
 603 0136 F1EEC75A 		vsqrt.f32	s11, s14
 604              	.LVL29:
 605              	.L40:
 606              		.loc 5 464 27 view .LVU187
 607              	.LBE137:
 608              	.LBE136:
  65:Grain.cpp     ****   *sum_right += (right*env*gain_right);
ARM GAS  /var/folders/2p/02m_5p7958535cp2tpgps0400000gn/T//ccf3x5ZF.s 			page 29


 609              		.loc 1 65 3 is_stmt 1 view .LVU188
  65:Grain.cpp     ****   *sum_right += (right*env*gain_right);
 610              		.loc 1 65 13 is_stmt 0 view .LVU189
 611 013a D1ED007A 		vldr.32	s15, [r1]
  65:Grain.cpp     ****   *sum_right += (right*env*gain_right);
 612              		.loc 1 65 21 view .LVU190
 613 013e 68EEA96A 		vmul.f32	s13, s17, s19
  66:Grain.cpp     **** }
 614              		.loc 1 66 23 view .LVU191
 615 0142 29EE297A 		vmul.f32	s14, s18, s19
  65:Grain.cpp     ****   *sum_right += (right*env*gain_right);
 616              		.loc 1 65 13 view .LVU192
 617 0146 E6EE887A 		vfma.f32	s15, s13, s16
 618 014a C1ED007A 		vstr.32	s15, [r1]
  66:Grain.cpp     **** }
 619              		.loc 1 66 3 is_stmt 1 view .LVU193
  66:Grain.cpp     **** }
 620              		.loc 1 66 14 is_stmt 0 view .LVU194
 621 014e D2ED007A 		vldr.32	s15, [r2]
 622 0152 E7EE257A 		vfma.f32	s15, s14, s11
 623 0156 C2ED007A 		vstr.32	s15, [r2]
  67:Grain.cpp     **** 
 624              		.loc 1 67 1 view .LVU195
 625 015a 04B0     		add	sp, sp, #16
 626              		.cfi_def_cfa_offset 24
 627              		@ sp needed
 628 015c BDEC048B 		vldm	sp!, {d8-d9}
 629              		.cfi_restore 82
 630              		.cfi_restore 83
 631              		.cfi_restore 80
 632              		.cfi_restore 81
 633              		.cfi_def_cfa_offset 8
 634              	.LVL30:
  67:Grain.cpp     **** 
 635              		.loc 1 67 1 view .LVU196
 636 0160 10BD     		pop	{r4, pc}
 637              	.LVL31:
 638              	.L60:
 639              		.cfi_def_cfa_offset 0
 640              		.cfi_restore 4
 641              		.cfi_restore 14
  41:Grain.cpp     ****     return;
 642              		.loc 1 41 5 is_stmt 1 view .LVU197
  41:Grain.cpp     ****     return;
 643              		.loc 1 41 15 is_stmt 0 view .LVU198
 644 0162 0023     		movs	r3, #0
 645 0164 0370     		strb	r3, [r0]
  42:Grain.cpp     ****   }
 646              		.loc 1 42 5 is_stmt 1 view .LVU199
 647              	.L57:
  42:Grain.cpp     ****   }
 648              		.loc 1 42 5 is_stmt 0 view .LVU200
 649 0166 7047     		bx	lr
 650              	.LVL32:
 651              	.L30:
 652              		.cfi_def_cfa_offset 40
 653              		.cfi_offset 4, -8
ARM GAS  /var/folders/2p/02m_5p7958535cp2tpgps0400000gn/T//ccf3x5ZF.s 			page 30


 654              		.cfi_offset 14, -4
 655              		.cfi_offset 80, -24
 656              		.cfi_offset 81, -20
 657              		.cfi_offset 82, -16
 658              		.cfi_offset 83, -12
 659              	.LBB139:
 660              	.LBB127:
 661              	.LBB124:
 662              	.LBI124:
  72:Grain.cpp     ****   switch(envelope_type_){
 663              		.loc 1 72 7 is_stmt 1 view .LVU201
 664              	.LBB125:
  85:Grain.cpp     ****       return 0.5f * (1.0f - std::cos(2.0f * M_PI * phase));
 665              		.loc 1 85 5 view .LVU202
  86:Grain.cpp     ****   }
 666              		.loc 1 86 7 view .LVU203
  86:Grain.cpp     ****   }
 667              		.loc 1 86 37 is_stmt 0 view .LVU204
 668 0168 9FED3D4B 		vldr.64	d4, .L62
  86:Grain.cpp     ****   }
 669              		.loc 1 86 52 view .LVU205
 670 016c B7EEE90A 		vcvt.f64.f32	d0, s19
 671 0170 0190     		str	r0, [sp, #4]
 672 0172 CDE90212 		strd	r1, r2, [sp, #8]
  86:Grain.cpp     ****   }
 673              		.loc 1 86 37 view .LVU206
 674 0176 20EE040B 		vmul.f64	d0, d0, d4
 675 017a FFF7FEFF 		bl	cos
 676              	.LVL33:
  86:Grain.cpp     ****   }
 677              		.loc 1 86 37 view .LVU207
 678 017e 039A     		ldr	r2, [sp, #12]
  86:Grain.cpp     ****   }
 679              		.loc 1 86 27 view .LVU208
 680 0180 B7EE005B 		vmov.f64	d5, #1.0e+0
  86:Grain.cpp     ****   }
 681              		.loc 1 86 19 view .LVU209
 682 0184 B6EE004B 		vmov.f64	d4, #5.0e-1
  86:Grain.cpp     ****   }
 683              		.loc 1 86 27 view .LVU210
 684 0188 35EE400B 		vsub.f64	d0, d5, d0
 685 018c DDE90101 		ldrd	r0, r1, [sp, #4]
  86:Grain.cpp     ****   }
 686              		.loc 1 86 19 view .LVU211
 687 0190 20EE044B 		vmul.f64	d4, d0, d4
  86:Grain.cpp     ****   }
 688              		.loc 1 86 58 view .LVU212
 689 0194 F7EEC49B 		vcvt.f32.f64	s19, d4
 690              	.LVL34:
  86:Grain.cpp     ****   }
 691              		.loc 1 86 58 view .LVU213
 692 0198 BAE7     		b	.L33
 693              	.LVL35:
 694              	.L34:
  86:Grain.cpp     ****   }
 695              		.loc 1 86 58 view .LVU214
 696              	.LBE125:
ARM GAS  /var/folders/2p/02m_5p7958535cp2tpgps0400000gn/T//ccf3x5ZF.s 			page 31


 697              	.LBE124:
  74:Grain.cpp     ****       return 1.0f - phase;
 698              		.loc 1 74 5 is_stmt 1 view .LVU215
  75:Grain.cpp     ****     case EnvelopeType::Rectangular:
 699              		.loc 1 75 7 view .LVU216
  75:Grain.cpp     ****     case EnvelopeType::Rectangular:
 700              		.loc 1 75 21 is_stmt 0 view .LVU217
 701 019a F7EE007A 		vmov.f32	s15, #1.0e+0
 702 019e 77EEE99A 		vsub.f32	s19, s15, s19
 703              	.LVL36:
  75:Grain.cpp     ****     case EnvelopeType::Rectangular:
 704              		.loc 1 75 21 view .LVU218
 705 01a2 B5E7     		b	.L33
 706              	.LVL37:
 707              	.L29:
  78:Grain.cpp     ****     default:
 708              		.loc 1 78 5 is_stmt 1 view .LVU219
  79:Grain.cpp     ****       if (phase<=start_decay_) { return 1.0f; }
 709              		.loc 1 79 5 view .LVU220
  80:Grain.cpp     ****       else { return 1.0f - ((phase - start_decay_) * decay_rate_); }
 710              		.loc 1 80 7 view .LVU221
 711 01a4 DFED345A 		vldr.32	s11, .L62+24
 712 01a8 F4EEE59A 		vcmpe.f32	s19, s11
 713 01ac F1EE10FA 		vmrs	APSR_nzcv, FPSCR
 714 01b0 23D8     		bhi	.L61
  80:Grain.cpp     ****       else { return 1.0f - ((phase - start_decay_) * decay_rate_); }
 715              		.loc 1 80 41 is_stmt 0 view .LVU222
 716 01b2 F7EE009A 		vmov.f32	s19, #1.0e+0
 717              	.LVL38:
  80:Grain.cpp     ****       else { return 1.0f - ((phase - start_decay_) * decay_rate_); }
 718              		.loc 1 80 41 view .LVU223
 719 01b6 ABE7     		b	.L33
 720              	.LVL39:
 721              	.L17:
  80:Grain.cpp     ****       else { return 1.0f - ((phase - start_decay_) * decay_rate_); }
 722              		.loc 1 80 41 view .LVU224
 723              	.LBE127:
 724              	.LBE139:
 725              	.LBB140:
 726              	.LBB99:
 727              	.LBB93:
 728              	.LBB87:
  71:GrainPhasor.h ****           direction_ = -1;
 729              		.loc 2 71 9 is_stmt 1 view .LVU225
  72:GrainPhasor.h ****           if(out<0.0f) {
 730              		.loc 2 72 11 view .LVU226
  73:GrainPhasor.h ****             out=0.0f;
 731              		.loc 2 73 11 is_stmt 0 view .LVU227
 732 01b8 B5EEC07A 		vcmpe.f32	s14, #0
  72:GrainPhasor.h ****           if(out<0.0f) {
 733              		.loc 2 72 22 view .LVU228
 734 01bc 4FF0FF34 		mov	r4, #-1
 735 01c0 0461     		str	r4, [r0, #16]
  73:GrainPhasor.h ****             out=0.0f;
 736              		.loc 2 73 11 is_stmt 1 view .LVU229
 737 01c2 0024     		movs	r4, #0
 738 01c4 F1EE10FA 		vmrs	APSR_nzcv, FPSCR
ARM GAS  /var/folders/2p/02m_5p7958535cp2tpgps0400000gn/T//ccf3x5ZF.s 			page 32


 739 01c8 7FF55BAF 		bpl	.L18
  74:GrainPhasor.h ****             grain_finished_ = true;
 740              		.loc 2 74 13 view .LVU230
 741              	.LVL40:
  75:GrainPhasor.h ****           } 
 742              		.loc 2 75 13 view .LVU231
  75:GrainPhasor.h ****           } 
 743              		.loc 2 75 29 is_stmt 0 view .LVU232
 744 01cc 0375     		strb	r3, [r0, #20]
  95:GrainPhasor.h ****       // phase_ += increment_*direction_;
 745              		.loc 2 95 7 is_stmt 1 view .LVU233
  95:GrainPhasor.h ****       // phase_ += increment_*direction_;
 746              		.loc 2 95 14 is_stmt 0 view .LVU234
 747 01ce 4460     		str	r4, [r0, #4]	@ float
 748              		.loc 2 97 7 is_stmt 1 view .LVU235
 749              	.LVL41:
 750              		.loc 2 97 7 is_stmt 0 view .LVU236
 751              	.LBE87:
 752              	.LBE93:
 753              	.LBE99:
 754              	.LBE140:
  40:Grain.cpp     ****     is_active_=false;
 755              		.loc 1 40 3 is_stmt 1 view .LVU237
  44:GrainPhasor.h ****     }
 756              		.loc 2 44 7 view .LVU238
  44:GrainPhasor.h ****     }
 757              		.loc 2 44 7 is_stmt 0 view .LVU239
 758 01d0 42E7     		b	.L20
 759              	.LVL42:
 760              	.L15:
 761              	.LBB141:
 762              	.LBB100:
 763              	.LBB94:
 764              	.LBB88:
  79:GrainPhasor.h ****           if(out>1.0f) out -=1.0f;
 765              		.loc 2 79 9 is_stmt 1 view .LVU240
  80:GrainPhasor.h ****           if (out<0.0f) out +=1.0f;
 766              		.loc 2 80 11 view .LVU241
 767 01d2 F7EE007A 		vmov.f32	s15, #1.0e+0
 768 01d6 B4EEE77A 		vcmpe.f32	s14, s15
 769 01da F1EE10FA 		vmrs	APSR_nzcv, FPSCR
  80:GrainPhasor.h ****           if (out<0.0f) out +=1.0f;
 770              		.loc 2 80 24 view .LVU242
  80:GrainPhasor.h ****           if (out<0.0f) out +=1.0f;
 771              		.loc 2 80 28 is_stmt 0 view .LVU243
 772 01de C8BF     		it	gt
 773 01e0 77EE679A 		vsubgt.f32	s19, s14, s15
 774              	.LVL43:
  81:GrainPhasor.h ****           break;
 775              		.loc 2 81 11 is_stmt 1 view .LVU244
 776 01e4 F5EEC09A 		vcmpe.f32	s19, #0
 777 01e8 F1EE10FA 		vmrs	APSR_nzcv, FPSCR
 778 01ec 7FF549AF 		bpl	.L18
  81:GrainPhasor.h ****           break;
 779              		.loc 2 81 25 view .LVU245
  81:GrainPhasor.h ****           break;
 780              		.loc 2 81 29 is_stmt 0 view .LVU246
ARM GAS  /var/folders/2p/02m_5p7958535cp2tpgps0400000gn/T//ccf3x5ZF.s 			page 33


 781 01f0 F7EE007A 		vmov.f32	s15, #1.0e+0
 782 01f4 79EEA79A 		vadd.f32	s19, s19, s15
 783              	.LVL44:
  81:GrainPhasor.h ****           break;
 784              		.loc 2 81 29 view .LVU247
 785 01f8 43E7     		b	.L18
 786              	.LVL45:
 787              	.L61:
  81:GrainPhasor.h ****           break;
 788              		.loc 2 81 29 view .LVU248
 789              	.LBE88:
 790              	.LBE94:
 791              	.LBE100:
 792              	.LBE141:
 793              	.LBB142:
 794              	.LBB128:
  81:Grain.cpp     ****     case EnvelopeType::Triangular:
 795              		.loc 1 81 14 is_stmt 1 view .LVU249
  81:Grain.cpp     ****     case EnvelopeType::Triangular:
 796              		.loc 1 81 36 is_stmt 0 view .LVU250
 797 01fa 79EEE55A 		vsub.f32	s11, s19, s11
  81:Grain.cpp     ****     case EnvelopeType::Triangular:
 798              		.loc 1 81 65 view .LVU251
 799 01fe F1EE047A 		vmov.f32	s15, #5.0e+0
 800 0202 B7EE005A 		vmov.f32	s10, #1.0e+0
 801 0206 A5EEE75A 		vfms.f32	s10, s11, s15
 802 020a F0EE459A 		vmov.f32	s19, s10
 803              	.LVL46:
  81:Grain.cpp     ****     case EnvelopeType::Triangular:
 804              		.loc 1 81 65 view .LVU252
 805 020e 7FE7     		b	.L33
 806              	.LVL47:
 807              	.L53:
  81:Grain.cpp     ****     case EnvelopeType::Triangular:
 808              		.loc 1 81 65 view .LVU253
 809              	.LBE128:
 810              	.LBE142:
 811              	.LBB143:
 812              	.LBB101:
 813              	.LBB95:
 814              	.LBB89:
  89:GrainPhasor.h ****             out= -out;
 815              		.loc 2 89 18 is_stmt 1 view .LVU254
 816 0210 B5EEC07A 		vcmpe.f32	s14, #0
 817 0214 F1EE10FA 		vmrs	APSR_nzcv, FPSCR
 818 0218 7FF533AF 		bpl	.L18
  90:GrainPhasor.h ****             direction_ = 1;
 819              		.loc 2 90 13 view .LVU255
  91:GrainPhasor.h ****           }
 820              		.loc 2 91 24 is_stmt 0 view .LVU256
 821 021c 0123     		movs	r3, #1
  90:GrainPhasor.h ****             direction_ = 1;
 822              		.loc 2 90 16 view .LVU257
 823 021e F1EE479A 		vneg.f32	s19, s14
 824              	.LVL48:
  91:GrainPhasor.h ****           }
 825              		.loc 2 91 13 is_stmt 1 view .LVU258
ARM GAS  /var/folders/2p/02m_5p7958535cp2tpgps0400000gn/T//ccf3x5ZF.s 			page 34


  91:GrainPhasor.h ****           }
 826              		.loc 2 91 24 is_stmt 0 view .LVU259
 827 0222 0361     		str	r3, [r0, #16]
 828 0224 2DE7     		b	.L18
 829              	.LVL49:
 830              	.L54:
  91:GrainPhasor.h ****           }
 831              		.loc 2 91 24 view .LVU260
 832              	.LBE89:
 833              	.LBE95:
 834              	.LBE101:
 835              	.LBE143:
 836              	.LBB144:
 837              	.LBB133:
 838              		.loc 5 464 27 view .LVU261
 839 0226 B0EE670A 		vmov.f32	s0, s15
 840 022a 0190     		str	r0, [sp, #4]
 841 022c CDE90212 		strd	r1, r2, [sp, #8]
 842 0230 FFF7FEFF 		bl	sqrtf
 843              	.LVL50:
 844              		.loc 5 464 27 view .LVU262
 845              	.LBE133:
 846              	.LBE144:
  64:Grain.cpp     ****   *sum_left += (left*env*gain_left);
 847              		.loc 1 64 31 view .LVU263
 848 0234 0198     		ldr	r0, [sp, #4]
 849              	.LBB145:
 850              	.LBB134:
 851              		.loc 5 464 27 view .LVU264
 852 0236 B0EE408A 		vmov.f32	s16, s0
 853              	.LBE134:
 854              	.LBE145:
  64:Grain.cpp     ****   *sum_left += (left*env*gain_left);
 855              		.loc 1 64 31 view .LVU265
 856 023a 90ED077A 		vldr.32	s14, [r0, #28]
 857              	.LBB146:
 858              	.LBB135:
 859              		.loc 5 464 27 view .LVU266
 860 023e DDE90212 		ldrd	r1, r2, [sp, #8]
 861 0242 72E7     		b	.L37
 862              	.LVL51:
 863              	.L55:
 864              		.loc 5 464 27 view .LVU267
 865              	.LBE135:
 866              	.LBE146:
 867              	.LBB147:
 868              	.LBB138:
 869 0244 B0EE470A 		vmov.f32	s0, s14
 870 0248 CDE90112 		strd	r1, r2, [sp, #4]
 871 024c FFF7FEFF 		bl	sqrtf
 872              	.LVL52:
 873              		.loc 5 464 27 view .LVU268
 874 0250 F0EE405A 		vmov.f32	s11, s0
 875 0254 DDE90112 		ldrd	r1, r2, [sp, #4]
 876 0258 6FE7     		b	.L40
 877              	.L63:
 878 025a 00BFAFF3 		.align	3
ARM GAS  /var/folders/2p/02m_5p7958535cp2tpgps0400000gn/T//ccf3x5ZF.s 			page 35


 878      0080
 879              	.L62:
 880 0260 182D4454 		.word	1413754136
 881 0264 FB211940 		.word	1075388923
 882 0268 00000000 		.word	.LANCHOR0
 883 026c 00000000 		.word	.LANCHOR1
 884 0270 00000038 		.word	939524096
 885 0274 00000000 		.word	.LANCHOR2
 886 0278 CDCC4C3F 		.word	1061997773
 887              	.LBE138:
 888              	.LBE147:
 889              		.cfi_endproc
 890              	.LFE4711:
 892              		.section	.text._ZN5Grain13ApplyEnvelopeEf,"ax",%progbits
 893              		.align	1
 894              		.p2align 2,,3
 895              		.global	_ZN5Grain13ApplyEnvelopeEf
 896              		.syntax unified
 897              		.thumb
 898              		.thumb_func
 900              	_ZN5Grain13ApplyEnvelopeEf:
 901              	.LVL53:
 902              	.LFB4712:
  72:Grain.cpp     ****   switch(envelope_type_){
 903              		.loc 1 72 40 is_stmt 1 view -0
 904              		.cfi_startproc
 905              		@ args = 0, pretend = 0, frame = 0
 906              		@ frame_needed = 0, uses_anonymous_args = 0
  73:Grain.cpp     ****     case EnvelopeType::LinearDecay:
 907              		.loc 1 73 3 view .LVU270
  72:Grain.cpp     ****   switch(envelope_type_){
 908              		.loc 1 72 40 is_stmt 0 view .LVU271
 909 0000 08B5     		push	{r3, lr}
 910              		.cfi_def_cfa_offset 8
 911              		.cfi_offset 3, -8
 912              		.cfi_offset 14, -4
  73:Grain.cpp     ****     case EnvelopeType::LinearDecay:
 913              		.loc 1 73 3 view .LVU272
 914 0002 C36A     		ldr	r3, [r0, #44]
 915 0004 042B     		cmp	r3, #4
 916 0006 29D8     		bhi	.L65
 917 0008 DFE803F0 		tbb	[pc, r3]
 918              	.L67:
 919 000c 23       		.byte	(.L70-.L67)/2
 920 000d 15       		.byte	(.L64-.L67)/2
 921 000e 28       		.byte	(.L65-.L67)/2
 922 000f 16       		.byte	(.L68-.L67)/2
 923 0010 03       		.byte	(.L66-.L67)/2
 924 0011 00       		.p2align 1
 925              	.L66:
 926              	.LVL54:
 927              	.LBB154:
 928              	.LBI154:
  72:Grain.cpp     ****   switch(envelope_type_){
 929              		.loc 1 72 7 is_stmt 1 view .LVU273
 930              	.LBB155:
  85:Grain.cpp     ****       return 0.5f * (1.0f - std::cos(2.0f * M_PI * phase));
ARM GAS  /var/folders/2p/02m_5p7958535cp2tpgps0400000gn/T//ccf3x5ZF.s 			page 36


 931              		.loc 1 85 5 view .LVU274
  86:Grain.cpp     ****   }
 932              		.loc 1 86 7 view .LVU275
  86:Grain.cpp     ****   }
 933              		.loc 1 86 37 is_stmt 0 view .LVU276
 934 0012 9FED1D7B 		vldr.64	d7, .L75
  86:Grain.cpp     ****   }
 935              		.loc 1 86 52 view .LVU277
 936 0016 B7EEC00A 		vcvt.f64.f32	d0, s0
 937              	.LVL55:
  86:Grain.cpp     ****   }
 938              		.loc 1 86 37 view .LVU278
 939 001a 20EE070B 		vmul.f64	d0, d0, d7
 940 001e FFF7FEFF 		bl	cos
 941              	.LVL56:
  86:Grain.cpp     ****   }
 942              		.loc 1 86 27 view .LVU279
 943 0022 B7EE007B 		vmov.f64	d7, #1.0e+0
  86:Grain.cpp     ****   }
 944              		.loc 1 86 19 view .LVU280
 945 0026 B6EE006B 		vmov.f64	d6, #5.0e-1
  86:Grain.cpp     ****   }
 946              		.loc 1 86 27 view .LVU281
 947 002a 37EE400B 		vsub.f64	d0, d7, d0
  86:Grain.cpp     ****   }
 948              		.loc 1 86 19 view .LVU282
 949 002e 20EE060B 		vmul.f64	d0, d0, d6
  86:Grain.cpp     ****   }
 950              		.loc 1 86 58 view .LVU283
 951 0032 B7EEC00B 		vcvt.f32.f64	s0, d0
 952              	.LVL57:
 953              	.L64:
  86:Grain.cpp     ****   }
 954              		.loc 1 86 58 view .LVU284
 955              	.LBE155:
 956              	.LBE154:
  88:Grain.cpp     **** 
 957              		.loc 1 88 1 view .LVU285
 958 0036 08BD     		pop	{r3, pc}
 959              	.LVL58:
 960              	.L68:
  82:Grain.cpp     ****       return 1.0f - std::abs(2.0f*phase - 1.0f);
 961              		.loc 1 82 5 is_stmt 1 view .LVU286
  83:Grain.cpp     ****     /* formula from https://uk.mathworks.com/help/signal/ref/hann.html */
 962              		.loc 1 83 7 view .LVU287
  83:Grain.cpp     ****     /* formula from https://uk.mathworks.com/help/signal/ref/hann.html */
 963              		.loc 1 83 29 is_stmt 0 view .LVU288
 964 0038 F0EE006A 		vmov.f32	s13, #2.0e+0
 965 003c FFEE007A 		vmov.f32	s15, #-1.0e+0
  83:Grain.cpp     ****     /* formula from https://uk.mathworks.com/help/signal/ref/hann.html */
 966              		.loc 1 83 47 view .LVU289
 967 0040 B7EE007A 		vmov.f32	s14, #1.0e+0
  83:Grain.cpp     ****     /* formula from https://uk.mathworks.com/help/signal/ref/hann.html */
 968              		.loc 1 83 29 view .LVU290
 969 0044 E0EE267A 		vfma.f32	s15, s0, s13
 970              	.LVL59:
 971              	.LBB156:
ARM GAS  /var/folders/2p/02m_5p7958535cp2tpgps0400000gn/T//ccf3x5ZF.s 			page 37


 972              	.LBI156:
  75:/Library/DaisyToolchain/0.2.0/arm/arm-none-eabi/include/c++/10.3.1/bits/std_abs.h ****   { return __builtin_fabsf(__x); }
 973              		.loc 4 75 3 is_stmt 1 view .LVU291
 974              	.LBB157:
 975              		.loc 4 76 5 view .LVU292
 976              		.loc 4 76 31 is_stmt 0 view .LVU293
 977 0048 B0EEE70A 		vabs.f32	s0, s15
 978              	.LVL60:
 979              		.loc 4 76 31 view .LVU294
 980              	.LBE157:
 981              	.LBE156:
  83:Grain.cpp     ****     /* formula from https://uk.mathworks.com/help/signal/ref/hann.html */
 982              		.loc 1 83 47 view .LVU295
 983 004c 37EE400A 		vsub.f32	s0, s14, s0
  88:Grain.cpp     **** 
 984              		.loc 1 88 1 view .LVU296
 985 0050 08BD     		pop	{r3, pc}
 986              	.LVL61:
 987              	.L70:
  74:Grain.cpp     ****       return 1.0f - phase;
 988              		.loc 1 74 5 is_stmt 1 view .LVU297
  75:Grain.cpp     ****     case EnvelopeType::Rectangular:
 989              		.loc 1 75 7 view .LVU298
  75:Grain.cpp     ****     case EnvelopeType::Rectangular:
 990              		.loc 1 75 21 is_stmt 0 view .LVU299
 991 0052 B7EE007A 		vmov.f32	s14, #1.0e+0
 992 0056 37EE400A 		vsub.f32	s0, s14, s0
 993              	.LVL62:
  88:Grain.cpp     **** 
 994              		.loc 1 88 1 view .LVU300
 995 005a 08BD     		pop	{r3, pc}
 996              	.LVL63:
 997              	.L65:
  78:Grain.cpp     ****     default:
 998              		.loc 1 78 5 is_stmt 1 view .LVU301
  79:Grain.cpp     ****       if (phase<=start_decay_) { return 1.0f; }
 999              		.loc 1 79 5 view .LVU302
  80:Grain.cpp     ****       else { return 1.0f - ((phase - start_decay_) * decay_rate_); }
 1000              		.loc 1 80 7 view .LVU303
 1001 005c DFED0C7A 		vldr.32	s15, .L75+8
 1002 0060 B4EEE70A 		vcmpe.f32	s0, s15
 1003 0064 F1EE10FA 		vmrs	APSR_nzcv, FPSCR
 1004 0068 02D8     		bhi	.L74
  80:Grain.cpp     ****       else { return 1.0f - ((phase - start_decay_) * decay_rate_); }
 1005              		.loc 1 80 41 is_stmt 0 view .LVU304
 1006 006a B7EE000A 		vmov.f32	s0, #1.0e+0
 1007              	.LVL64:
  88:Grain.cpp     **** 
 1008              		.loc 1 88 1 view .LVU305
 1009 006e 08BD     		pop	{r3, pc}
 1010              	.LVL65:
 1011              	.L74:
  81:Grain.cpp     ****     case EnvelopeType::Triangular:
 1012              		.loc 1 81 14 is_stmt 1 view .LVU306
  81:Grain.cpp     ****     case EnvelopeType::Triangular:
 1013              		.loc 1 81 36 is_stmt 0 view .LVU307
 1014 0070 70EE677A 		vsub.f32	s15, s0, s15
ARM GAS  /var/folders/2p/02m_5p7958535cp2tpgps0400000gn/T//ccf3x5ZF.s 			page 38


  81:Grain.cpp     ****     case EnvelopeType::Triangular:
 1015              		.loc 1 81 65 view .LVU308
 1016 0074 B1EE047A 		vmov.f32	s14, #5.0e+0
 1017 0078 B7EE000A 		vmov.f32	s0, #1.0e+0
 1018              	.LVL66:
  81:Grain.cpp     ****     case EnvelopeType::Triangular:
 1019              		.loc 1 81 65 view .LVU309
 1020 007c A7EEC70A 		vfms.f32	s0, s15, s14
  88:Grain.cpp     **** 
 1021              		.loc 1 88 1 view .LVU310
 1022 0080 08BD     		pop	{r3, pc}
 1023              	.L76:
 1024 0082 00BFAFF3 		.align	3
 1024      0080
 1025              	.L75:
 1026 0088 182D4454 		.word	1413754136
 1027 008c FB211940 		.word	1075388923
 1028 0090 CDCC4C3F 		.word	1061997773
 1029              		.cfi_endproc
 1030              	.LFE4712:
 1032              		.section	.text._ZN5Grain11SetSpawnPosEj,"ax",%progbits
 1033              		.align	1
 1034              		.p2align 2,,3
 1035              		.global	_ZN5Grain11SetSpawnPosEj
 1036              		.syntax unified
 1037              		.thumb
 1038              		.thumb_func
 1040              	_ZN5Grain11SetSpawnPosEj:
 1041              	.LVL67:
 1042              	.LFB4713:
  90:Grain.cpp     **** void Grain::SetGrainSize(size_t grain_size) { grain_size_ = grain_size; }
 1043              		.loc 1 90 42 is_stmt 1 view -0
 1044              		.cfi_startproc
 1045              		@ args = 0, pretend = 0, frame = 0
 1046              		@ frame_needed = 0, uses_anonymous_args = 0
 1047              		@ link register save eliminated.
  90:Grain.cpp     **** void Grain::SetGrainSize(size_t grain_size) { grain_size_ = grain_size; }
 1048              		.loc 1 90 44 view .LVU312
  90:Grain.cpp     **** void Grain::SetGrainSize(size_t grain_size) { grain_size_ = grain_size; }
 1049              		.loc 1 90 55 is_stmt 0 view .LVU313
 1050 0000 0162     		str	r1, [r0, #32]
  90:Grain.cpp     **** void Grain::SetGrainSize(size_t grain_size) { grain_size_ = grain_size; }
 1051              		.loc 1 90 68 view .LVU314
 1052 0002 7047     		bx	lr
 1053              		.cfi_endproc
 1054              	.LFE4713:
 1056              		.section	.text._ZN5Grain12SetGrainSizeEj,"ax",%progbits
 1057              		.align	1
 1058              		.p2align 2,,3
 1059              		.global	_ZN5Grain12SetGrainSizeEj
 1060              		.syntax unified
 1061              		.thumb
 1062              		.thumb_func
 1064              	_ZN5Grain12SetGrainSizeEj:
 1065              	.LVL68:
 1066              	.LFB4714:
  91:Grain.cpp     **** void Grain::SetPitchRatio(float pitch_ratio) { pitch_ratio_ = pitch_ratio; }
ARM GAS  /var/folders/2p/02m_5p7958535cp2tpgps0400000gn/T//ccf3x5ZF.s 			page 39


 1067              		.loc 1 91 45 is_stmt 1 view -0
 1068              		.cfi_startproc
 1069              		@ args = 0, pretend = 0, frame = 0
 1070              		@ frame_needed = 0, uses_anonymous_args = 0
 1071              		@ link register save eliminated.
  91:Grain.cpp     **** void Grain::SetPitchRatio(float pitch_ratio) { pitch_ratio_ = pitch_ratio; }
 1072              		.loc 1 91 47 view .LVU316
  91:Grain.cpp     **** void Grain::SetPitchRatio(float pitch_ratio) { pitch_ratio_ = pitch_ratio; }
 1073              		.loc 1 91 59 is_stmt 0 view .LVU317
 1074 0000 4162     		str	r1, [r0, #36]
  91:Grain.cpp     **** void Grain::SetPitchRatio(float pitch_ratio) { pitch_ratio_ = pitch_ratio; }
 1075              		.loc 1 91 73 view .LVU318
 1076 0002 7047     		bx	lr
 1077              		.cfi_endproc
 1078              	.LFE4714:
 1080              		.section	.text._ZN5Grain13SetPitchRatioEf,"ax",%progbits
 1081              		.align	1
 1082              		.p2align 2,,3
 1083              		.global	_ZN5Grain13SetPitchRatioEf
 1084              		.syntax unified
 1085              		.thumb
 1086              		.thumb_func
 1088              	_ZN5Grain13SetPitchRatioEf:
 1089              	.LVL69:
 1090              	.LFB4715:
  92:Grain.cpp     **** void Grain::SetEnvelopeType(EnvelopeType type) { envelope_type_ = type; }
 1091              		.loc 1 92 46 is_stmt 1 view -0
 1092              		.cfi_startproc
 1093              		@ args = 0, pretend = 0, frame = 0
 1094              		@ frame_needed = 0, uses_anonymous_args = 0
 1095              		@ link register save eliminated.
  92:Grain.cpp     **** void Grain::SetEnvelopeType(EnvelopeType type) { envelope_type_ = type; }
 1096              		.loc 1 92 48 view .LVU320
  92:Grain.cpp     **** void Grain::SetEnvelopeType(EnvelopeType type) { envelope_type_ = type; }
 1097              		.loc 1 92 61 is_stmt 0 view .LVU321
 1098 0000 80ED0A0A 		vstr.32	s0, [r0, #40]
  92:Grain.cpp     **** void Grain::SetEnvelopeType(EnvelopeType type) { envelope_type_ = type; }
 1099              		.loc 1 92 76 view .LVU322
 1100 0004 7047     		bx	lr
 1101              		.cfi_endproc
 1102              	.LFE4715:
 1104 0006 00BF     		.section	.text._ZN5Grain15SetEnvelopeTypeENS_12EnvelopeTypeE,"ax",%progbits
 1105              		.align	1
 1106              		.p2align 2,,3
 1107              		.global	_ZN5Grain15SetEnvelopeTypeENS_12EnvelopeTypeE
 1108              		.syntax unified
 1109              		.thumb
 1110              		.thumb_func
 1112              	_ZN5Grain15SetEnvelopeTypeENS_12EnvelopeTypeE:
 1113              	.LVL70:
 1114              	.LFB4716:
  93:Grain.cpp     **** 
 1115              		.loc 1 93 48 is_stmt 1 view -0
 1116              		.cfi_startproc
 1117              		@ args = 0, pretend = 0, frame = 0
 1118              		@ frame_needed = 0, uses_anonymous_args = 0
 1119              		@ link register save eliminated.
ARM GAS  /var/folders/2p/02m_5p7958535cp2tpgps0400000gn/T//ccf3x5ZF.s 			page 40


  93:Grain.cpp     **** 
 1120              		.loc 1 93 50 view .LVU324
  93:Grain.cpp     **** 
 1121              		.loc 1 93 65 is_stmt 0 view .LVU325
 1122 0000 C162     		str	r1, [r0, #44]
  93:Grain.cpp     **** 
 1123              		.loc 1 93 73 view .LVU326
 1124 0002 7047     		bx	lr
 1125              		.cfi_endproc
 1126              	.LFE4716:
 1128              		.section	.text._ZN5Grain19SetPhasorPitchRatioEf,"ax",%progbits
 1129              		.align	1
 1130              		.p2align 2,,3
 1131              		.global	_ZN5Grain19SetPhasorPitchRatioEf
 1132              		.syntax unified
 1133              		.thumb
 1134              		.thumb_func
 1136              	_ZN5Grain19SetPhasorPitchRatioEf:
 1137              	.LVL71:
 1138              	.LFB4717:
  95:Grain.cpp     **** void Grain::SetPhasorMode(GrainPhasor::Mode mode) { phasor_.SetMode(mode); }
 1139              		.loc 1 95 52 is_stmt 1 view -0
 1140              		.cfi_startproc
 1141              		@ args = 0, pretend = 0, frame = 0
 1142              		@ frame_needed = 0, uses_anonymous_args = 0
 1143              		@ link register save eliminated.
  95:Grain.cpp     **** void Grain::SetPhasorMode(GrainPhasor::Mode mode) { phasor_.SetMode(mode); }
 1144              		.loc 1 95 54 view .LVU328
  95:Grain.cpp     **** void Grain::SetPhasorMode(GrainPhasor::Mode mode) { phasor_.SetMode(mode); }
 1145              		.loc 1 95 75 is_stmt 0 view .LVU329
 1146 0000 0A4B     		ldr	r3, .L82
 1147              	.LBB158:
 1148              	.LBB159:
 1149              	.LBB160:
 1150              	.LBB161:
 1151              		.file 6 "constants_utils.h"
   1:constants_utils.h **** #pragma once
   2:constants_utils.h **** #include "stdlib.h"
   3:constants_utils.h **** #include <time.h>
   4:constants_utils.h **** 
   5:constants_utils.h **** /* macro to set frequently used variables to be stored in DTCMRAM */
   6:constants_utils.h **** #define DTCMRAM_BSS __attribute__((section(".dtcmram_bss")))
   7:constants_utils.h **** #define ITCMRAM_TEXT __attribute__((section(".itcmram_text")))
   8:constants_utils.h **** #define DATA_ __attribute__((section(".data")))
   9:constants_utils.h **** 
  10:constants_utils.h **** constexpr int MIN_GRAINS = 1;
  11:constants_utils.h **** constexpr int MAX_GRAINS = 20;
  12:constants_utils.h **** 
  13:constants_utils.h **** constexpr float MIN_GRAIN_SIZE_MS = 100.0f; /* 100ms */
  14:constants_utils.h **** constexpr float MAX_GRAIN_SIZE_MS = 3000.0f; /* 3s */
  15:constants_utils.h **** constexpr float MIN_PITCH = 0.5f;
  16:constants_utils.h **** constexpr float MAX_PITCH = 3.0f;
  17:constants_utils.h **** 
  18:constants_utils.h **** static constexpr int NUM_ENV_TYPES = 4; 
  19:constants_utils.h **** static constexpr int NUM_PHASOR_MODES = 4;
  20:constants_utils.h **** static constexpr int NUM_SYNTH_MODES = 9;
  21:constants_utils.h **** static constexpr float PARAM_CHANGE_THRESHOLD = 0.01f;
ARM GAS  /var/folders/2p/02m_5p7958535cp2tpgps0400000gn/T//ccf3x5ZF.s 			page 41


  22:constants_utils.h **** 
  23:constants_utils.h **** /* integer clamp as can't use std::clamp */
  24:constants_utils.h **** inline constexpr std::size_t intclamp(size_t val, size_t min, size_t max){
  25:constants_utils.h ****   if (val < min) val = min;
  26:constants_utils.h ****   else if (val > max) val = max;
  27:constants_utils.h ****   return val;
  28:constants_utils.h **** }
  29:constants_utils.h **** 
  30:constants_utils.h **** /* converts milliseconds to number of samples */
  31:constants_utils.h **** inline constexpr std::size_t MsToSamples(float ms){
  32:constants_utils.h ****   /* hardcoded sample rate here to help performance 
  33:constants_utils.h ****       since SAMPLE_RATE_FLOAT is stored in QSPI */
  34:constants_utils.h ****   return static_cast<std::size_t>(48000.0f * (ms*0.001f));
  35:constants_utils.h **** }
  36:constants_utils.h **** 
  37:constants_utils.h **** /* converts number of samples to milliseconds */
  38:constants_utils.h **** inline constexpr float SamplesToMs(std::size_t samples){
  39:constants_utils.h ****   /* hardcoded sample rate here to help performance 
  40:constants_utils.h ****       since SAMPLE_RATE_FLOAT is stored in QSPI */
  41:constants_utils.h ****   return (static_cast<float>(samples) * 1000.0f) / 48000.0f; 
 1152              		.loc 6 41 39 view .LVU330
 1153 0002 9FED0B7A 		vldr.32	s14, .L82+4
 1154              	.LBE161:
 1155              	.LBE160:
 1156              	.LBE159:
 1157              	.LBE158:
  95:Grain.cpp     **** void Grain::SetPhasorMode(GrainPhasor::Mode mode) { phasor_.SetMode(mode); }
 1158              		.loc 1 95 75 view .LVU331
 1159 0006 D3ED007A 		vldr.32	s15, [r3]	@ int
 1160              	.LVL72:
 1161              	.LBB170:
 1162              	.LBI158:
  34:GrainPhasor.h ****       float size_ms = SamplesToMs(grain_size_samples); // NOTE: CHECK - THIS MIGHT NOT WORK PROPERL
 1163              		.loc 2 34 10 is_stmt 1 view .LVU332
 1164              	.LBB168:
  35:GrainPhasor.h ****       increment_ = pitch_ratio / size_ms;
 1165              		.loc 2 35 7 view .LVU333
 1166              	.LBB165:
 1167              	.LBI160:
  38:constants_utils.h ****   /* hardcoded sample rate here to help performance 
 1168              		.loc 6 38 24 view .LVU334
 1169              	.LBB162:
 1170              		.loc 6 41 3 view .LVU335
 1171              		.loc 6 41 3 is_stmt 0 view .LVU336
 1172              	.LBE162:
 1173              	.LBE165:
  36:GrainPhasor.h ****     }
 1174              		.loc 2 36 7 is_stmt 1 view .LVU337
 1175              	.LBB166:
 1176              	.LBB163:
 1177              		.loc 6 41 52 is_stmt 0 view .LVU338
 1178 000a DFED0A6A 		vldr.32	s13, .L82+8
 1179              	.LBE163:
 1180              	.LBE166:
 1181              	.LBE168:
 1182              	.LBE170:
  95:Grain.cpp     **** void Grain::SetPhasorMode(GrainPhasor::Mode mode) { phasor_.SetMode(mode); }
ARM GAS  /var/folders/2p/02m_5p7958535cp2tpgps0400000gn/T//ccf3x5ZF.s 			page 42


 1183              		.loc 1 95 75 view .LVU339
 1184 000e F8EE677A 		vcvt.f32.u32	s15, s15
 1185              	.LVL73:
 1186              	.LBB171:
 1187              	.LBB169:
  35:GrainPhasor.h ****       increment_ = pitch_ratio / size_ms;
 1188              		.loc 2 35 34 view .LVU340
 1189 0012 FCEEE77A 		vcvt.u32.f32	s15, s15
 1190              	.LVL74:
 1191              	.LBB167:
 1192              	.LBB164:
 1193              		.loc 6 41 11 view .LVU341
 1194 0016 F8EE677A 		vcvt.f32.u32	s15, s15
 1195              		.loc 6 41 39 view .LVU342
 1196 001a 67EE877A 		vmul.f32	s15, s15, s14
 1197              		.loc 6 41 52 view .LVU343
 1198 001e 87EEA67A 		vdiv.f32	s14, s15, s13
 1199              	.LBE164:
 1200              	.LBE167:
  36:GrainPhasor.h ****     }
 1201              		.loc 2 36 32 view .LVU344
 1202 0022 C0EE077A 		vdiv.f32	s15, s0, s14
  36:GrainPhasor.h ****     }
 1203              		.loc 2 36 18 view .LVU345
 1204 0026 C0ED027A 		vstr.32	s15, [r0, #8]
 1205              	.LVL75:
  36:GrainPhasor.h ****     }
 1206              		.loc 2 36 18 view .LVU346
 1207              	.LBE169:
 1208              	.LBE171:
  95:Grain.cpp     **** void Grain::SetPhasorMode(GrainPhasor::Mode mode) { phasor_.SetMode(mode); }
 1209              		.loc 1 95 102 view .LVU347
 1210 002a 7047     		bx	lr
 1211              	.L83:
 1212              		.align	2
 1213              	.L82:
 1214 002c 00000000 		.word	.LANCHOR0
 1215 0030 00007A44 		.word	1148846080
 1216 0034 00803B47 		.word	1195081728
 1217              		.cfi_endproc
 1218              	.LFE4717:
 1220              		.section	.text._ZN5Grain13SetPhasorModeEN11GrainPhasor4ModeE,"ax",%progbits
 1221              		.align	1
 1222              		.p2align 2,,3
 1223              		.global	_ZN5Grain13SetPhasorModeEN11GrainPhasor4ModeE
 1224              		.syntax unified
 1225              		.thumb
 1226              		.thumb_func
 1228              	_ZN5Grain13SetPhasorModeEN11GrainPhasor4ModeE:
 1229              	.LVL76:
 1230              	.LFB4718:
 1231              		.loc 1 96 51 is_stmt 1 view -0
 1232              		.cfi_startproc
 1233              		@ args = 0, pretend = 0, frame = 0
 1234              		@ frame_needed = 0, uses_anonymous_args = 0
 1235              		@ link register save eliminated.
 1236              		.loc 1 96 53 view .LVU349
ARM GAS  /var/folders/2p/02m_5p7958535cp2tpgps0400000gn/T//ccf3x5ZF.s 			page 43


 1237              	.LBB172:
 1238              	.LBI172:
  39:GrainPhasor.h ****       mode_ = new_mode;
 1239              		.loc 2 39 10 view .LVU350
 1240              	.LBB173:
  40:GrainPhasor.h ****     }
 1241              		.loc 2 40 7 view .LVU351
  40:GrainPhasor.h ****     }
 1242              		.loc 2 40 13 is_stmt 0 view .LVU352
 1243 0000 C160     		str	r1, [r0, #12]
 1244              	.LVL77:
  40:GrainPhasor.h ****     }
 1245              		.loc 2 40 13 view .LVU353
 1246              	.LBE173:
 1247              	.LBE172:
 1248              		.loc 1 96 76 view .LVU354
 1249 0002 7047     		bx	lr
 1250              		.cfi_endproc
 1251              	.LFE4718:
 1253              		.global	_ZN5Grain11decay_rate_E
 1254              		.global	_ZN5Grain12start_decay_E
 1255              		.global	_ZN5Grain10right_buf_E
 1256              		.global	_ZN5Grain9left_buf_E
 1257              		.global	_ZN5Grain10audio_len_E
 1258              		.section	.bss._ZN5Grain10audio_len_E,"aw",%nobits
 1259              		.align	2
 1260              		.set	.LANCHOR0,. + 0
 1263              	_ZN5Grain10audio_len_E:
 1264 0000 00000000 		.space	4
 1265              		.section	.bss._ZN5Grain10right_buf_E,"aw",%nobits
 1266              		.align	2
 1267              		.set	.LANCHOR2,. + 0
 1270              	_ZN5Grain10right_buf_E:
 1271 0000 00000000 		.space	4
 1272              		.section	.bss._ZN5Grain9left_buf_E,"aw",%nobits
 1273              		.align	2
 1274              		.set	.LANCHOR1,. + 0
 1277              	_ZN5Grain9left_buf_E:
 1278 0000 00000000 		.space	4
 1279              		.section	.rodata._ZN5Grain11decay_rate_E,"a"
 1280              		.align	2
 1283              	_ZN5Grain11decay_rate_E:
 1284 0000 0000A040 		.word	1084227584
 1285              		.section	.rodata._ZN5Grain12start_decay_E,"a"
 1286              		.align	2
 1289              	_ZN5Grain12start_decay_E:
 1290 0000 CDCC4C3F 		.word	1061997773
 1291              		.text
 1292              	.Letext0:
 1293              		.file 7 "/Library/DaisyToolchain/0.2.0/arm/arm-none-eabi/include/machine/_default_types.h"
 1294              		.file 8 "/Library/DaisyToolchain/0.2.0/arm/arm-none-eabi/include/sys/_stdint.h"
 1295              		.file 9 "/Library/DaisyToolchain/0.2.0/arm/arm-none-eabi/include/stdint.h"
 1296              		.file 10 "/Library/DaisyToolchain/0.2.0/arm/lib/gcc/arm-none-eabi/10.3.1/include/stddef.h"
 1297              		.file 11 "/Library/DaisyToolchain/0.2.0/arm/arm-none-eabi/include/c++/10.3.1/cstdlib"
 1298              		.file 12 "/Library/DaisyToolchain/0.2.0/arm/arm-none-eabi/include/c++/10.3.1/cstdint"
 1299              		.file 13 "/Library/DaisyToolchain/0.2.0/arm/arm-none-eabi/include/c++/10.3.1/arm-none-eabi/thumb/v
 1300              		.file 14 "/Library/DaisyToolchain/0.2.0/arm/arm-none-eabi/include/c++/10.3.1/type_traits"
ARM GAS  /var/folders/2p/02m_5p7958535cp2tpgps0400000gn/T//ccf3x5ZF.s 			page 44


 1301              		.file 15 "/Library/DaisyToolchain/0.2.0/arm/arm-none-eabi/include/c++/10.3.1/debug/debug.h"
 1302              		.file 16 "/Library/DaisyToolchain/0.2.0/arm/arm-none-eabi/include/c++/10.3.1/bits/algorithmfwd.h"
 1303              		.file 17 "/Library/DaisyToolchain/0.2.0/arm/arm-none-eabi/include/c++/10.3.1/bits/stl_pair.h"
 1304              		.file 18 "/Library/DaisyToolchain/0.2.0/arm/arm-none-eabi/include/c++/10.3.1/bits/exception_ptr.h"
 1305              		.file 19 "/Library/DaisyToolchain/0.2.0/arm/arm-none-eabi/include/c++/10.3.1/cstdarg"
 1306              		.file 20 "/Library/DaisyToolchain/0.2.0/arm/arm-none-eabi/include/c++/10.3.1/cstdio"
 1307              		.file 21 "/Library/DaisyToolchain/0.2.0/arm/arm-none-eabi/include/c++/10.3.1/cstring"
 1308              		.file 22 "/Library/DaisyToolchain/0.2.0/arm/arm-none-eabi/include/c++/10.3.1/cwchar"
 1309              		.file 23 "/Library/DaisyToolchain/0.2.0/arm/arm-none-eabi/include/c++/10.3.1/clocale"
 1310              		.file 24 "/Library/DaisyToolchain/0.2.0/arm/arm-none-eabi/include/c++/10.3.1/bits/basic_string.h"
 1311              		.file 25 "/Library/DaisyToolchain/0.2.0/arm/arm-none-eabi/include/c++/10.3.1/bits/stl_iterator.h"
 1312              		.file 26 "/Library/DaisyToolchain/0.2.0/arm/arm-none-eabi/include/c++/10.3.1/bits/predefined_ops.h
 1313              		.file 27 "/Library/DaisyToolchain/0.2.0/arm/arm-none-eabi/include/sys/_types.h"
 1314              		.file 28 "/Library/DaisyToolchain/0.2.0/arm/arm-none-eabi/include/sys/reent.h"
 1315              		.file 29 "/Library/DaisyToolchain/0.2.0/arm/arm-none-eabi/include/sys/lock.h"
 1316              		.file 30 "/Library/DaisyToolchain/0.2.0/arm/arm-none-eabi/include/math.h"
 1317              		.file 31 "/Library/DaisyToolchain/0.2.0/arm/arm-none-eabi/include/stdlib.h"
 1318              		.file 32 "/Library/DaisyToolchain/0.2.0/arm/arm-none-eabi/include/c++/10.3.1/math.h"
 1319              		.file 33 "/Library/DaisyToolchain/0.2.0/arm/arm-none-eabi/include/c++/10.3.1/stdlib.h"
 1320              		.file 34 "../libDaisy/src/util/wav_format.h"
 1321              		.file 35 "../libDaisy/src/dev/max11300.h"
 1322              		.file 36 "../libDaisy/src/daisy_seed.h"
 1323              		.file 37 "/Library/DaisyToolchain/0.2.0/arm/lib/gcc/arm-none-eabi/10.3.1/include/stdarg.h"
 1324              		.file 38 "/Library/DaisyToolchain/0.2.0/arm/arm-none-eabi/include/stdio.h"
 1325              		.file 39 "/Library/DaisyToolchain/0.2.0/arm/arm-none-eabi/include/string.h"
 1326              		.file 40 "../DaisySP/Source/Control/adenv.h"
 1327              		.file 41 "../DaisySP/Source/Utility/dsp.h"
 1328              		.file 42 "/Library/DaisyToolchain/0.2.0/arm/arm-none-eabi/include/wchar.h"
 1329              		.file 43 "/Library/DaisyToolchain/0.2.0/arm/arm-none-eabi/include/time.h"
 1330              		.file 44 "/Library/DaisyToolchain/0.2.0/arm/arm-none-eabi/include/locale.h"
 1331              		.file 45 "Grain.h"
 1332              		.file 46 "<built-in>"
 1333              		.file 47 "../libDaisy/src/dev/sr_595.h"
ARM GAS  /var/folders/2p/02m_5p7958535cp2tpgps0400000gn/T//ccf3x5ZF.s 			page 45


DEFINED SYMBOLS
                            *ABS*:0000000000000000 Grain.cpp
/var/folders/2p/02m_5p7958535cp2tpgps0400000gn/T//ccf3x5ZF.s:19     .text._ZN5Grain4InitEv:0000000000000000 $t
/var/folders/2p/02m_5p7958535cp2tpgps0400000gn/T//ccf3x5ZF.s:26     .text._ZN5Grain4InitEv:0000000000000000 _ZN5Grain4InitEv
/var/folders/2p/02m_5p7958535cp2tpgps0400000gn/T//ccf3x5ZF.s:100    .text._ZN5Grain4InitEv:0000000000000030 $d
/var/folders/2p/02m_5p7958535cp2tpgps0400000gn/T//ccf3x5ZF.s:105    .text._ZN5Grain7TriggerEjjff:0000000000000000 $t
/var/folders/2p/02m_5p7958535cp2tpgps0400000gn/T//ccf3x5ZF.s:112    .text._ZN5Grain7TriggerEjjff:0000000000000000 _ZN5Grain7TriggerEjjff
/var/folders/2p/02m_5p7958535cp2tpgps0400000gn/T//ccf3x5ZF.s:238    .text._ZN5Grain7TriggerEjjff:0000000000000054 $d
/var/folders/2p/02m_5p7958535cp2tpgps0400000gn/T//ccf3x5ZF.s:243    .text._ZN5Grain7ProcessEPfS0_:0000000000000000 $t
/var/folders/2p/02m_5p7958535cp2tpgps0400000gn/T//ccf3x5ZF.s:250    .text._ZN5Grain7ProcessEPfS0_:0000000000000000 _ZN5Grain7ProcessEPfS0_
/var/folders/2p/02m_5p7958535cp2tpgps0400000gn/T//ccf3x5ZF.s:535    .text._ZN5Grain7ProcessEPfS0_:00000000000000f2 $d
/var/folders/2p/02m_5p7958535cp2tpgps0400000gn/T//ccf3x5ZF.s:880    .text._ZN5Grain7ProcessEPfS0_:0000000000000260 $d
/var/folders/2p/02m_5p7958535cp2tpgps0400000gn/T//ccf3x5ZF.s:893    .text._ZN5Grain13ApplyEnvelopeEf:0000000000000000 $t
/var/folders/2p/02m_5p7958535cp2tpgps0400000gn/T//ccf3x5ZF.s:900    .text._ZN5Grain13ApplyEnvelopeEf:0000000000000000 _ZN5Grain13ApplyEnvelopeEf
/var/folders/2p/02m_5p7958535cp2tpgps0400000gn/T//ccf3x5ZF.s:919    .text._ZN5Grain13ApplyEnvelopeEf:000000000000000c $d
/var/folders/2p/02m_5p7958535cp2tpgps0400000gn/T//ccf3x5ZF.s:1026   .text._ZN5Grain13ApplyEnvelopeEf:0000000000000088 $d
/var/folders/2p/02m_5p7958535cp2tpgps0400000gn/T//ccf3x5ZF.s:1033   .text._ZN5Grain11SetSpawnPosEj:0000000000000000 $t
/var/folders/2p/02m_5p7958535cp2tpgps0400000gn/T//ccf3x5ZF.s:1040   .text._ZN5Grain11SetSpawnPosEj:0000000000000000 _ZN5Grain11SetSpawnPosEj
/var/folders/2p/02m_5p7958535cp2tpgps0400000gn/T//ccf3x5ZF.s:1057   .text._ZN5Grain12SetGrainSizeEj:0000000000000000 $t
/var/folders/2p/02m_5p7958535cp2tpgps0400000gn/T//ccf3x5ZF.s:1064   .text._ZN5Grain12SetGrainSizeEj:0000000000000000 _ZN5Grain12SetGrainSizeEj
/var/folders/2p/02m_5p7958535cp2tpgps0400000gn/T//ccf3x5ZF.s:1081   .text._ZN5Grain13SetPitchRatioEf:0000000000000000 $t
/var/folders/2p/02m_5p7958535cp2tpgps0400000gn/T//ccf3x5ZF.s:1088   .text._ZN5Grain13SetPitchRatioEf:0000000000000000 _ZN5Grain13SetPitchRatioEf
/var/folders/2p/02m_5p7958535cp2tpgps0400000gn/T//ccf3x5ZF.s:1105   .text._ZN5Grain15SetEnvelopeTypeENS_12EnvelopeTypeE:0000000000000000 $t
/var/folders/2p/02m_5p7958535cp2tpgps0400000gn/T//ccf3x5ZF.s:1112   .text._ZN5Grain15SetEnvelopeTypeENS_12EnvelopeTypeE:0000000000000000 _ZN5Grain15SetEnvelopeTypeENS_12EnvelopeTypeE
/var/folders/2p/02m_5p7958535cp2tpgps0400000gn/T//ccf3x5ZF.s:1129   .text._ZN5Grain19SetPhasorPitchRatioEf:0000000000000000 $t
/var/folders/2p/02m_5p7958535cp2tpgps0400000gn/T//ccf3x5ZF.s:1136   .text._ZN5Grain19SetPhasorPitchRatioEf:0000000000000000 _ZN5Grain19SetPhasorPitchRatioEf
/var/folders/2p/02m_5p7958535cp2tpgps0400000gn/T//ccf3x5ZF.s:1214   .text._ZN5Grain19SetPhasorPitchRatioEf:000000000000002c $d
/var/folders/2p/02m_5p7958535cp2tpgps0400000gn/T//ccf3x5ZF.s:1221   .text._ZN5Grain13SetPhasorModeEN11GrainPhasor4ModeE:0000000000000000 $t
/var/folders/2p/02m_5p7958535cp2tpgps0400000gn/T//ccf3x5ZF.s:1228   .text._ZN5Grain13SetPhasorModeEN11GrainPhasor4ModeE:0000000000000000 _ZN5Grain13SetPhasorModeEN11GrainPhasor4ModeE
/var/folders/2p/02m_5p7958535cp2tpgps0400000gn/T//ccf3x5ZF.s:1283   .rodata._ZN5Grain11decay_rate_E:0000000000000000 _ZN5Grain11decay_rate_E
/var/folders/2p/02m_5p7958535cp2tpgps0400000gn/T//ccf3x5ZF.s:1289   .rodata._ZN5Grain12start_decay_E:0000000000000000 _ZN5Grain12start_decay_E
/var/folders/2p/02m_5p7958535cp2tpgps0400000gn/T//ccf3x5ZF.s:1270   .bss._ZN5Grain10right_buf_E:0000000000000000 _ZN5Grain10right_buf_E
/var/folders/2p/02m_5p7958535cp2tpgps0400000gn/T//ccf3x5ZF.s:1277   .bss._ZN5Grain9left_buf_E:0000000000000000 _ZN5Grain9left_buf_E
/var/folders/2p/02m_5p7958535cp2tpgps0400000gn/T//ccf3x5ZF.s:1263   .bss._ZN5Grain10audio_len_E:0000000000000000 _ZN5Grain10audio_len_E
/var/folders/2p/02m_5p7958535cp2tpgps0400000gn/T//ccf3x5ZF.s:1259   .bss._ZN5Grain10audio_len_E:0000000000000000 $d
/var/folders/2p/02m_5p7958535cp2tpgps0400000gn/T//ccf3x5ZF.s:1266   .bss._ZN5Grain10right_buf_E:0000000000000000 $d
/var/folders/2p/02m_5p7958535cp2tpgps0400000gn/T//ccf3x5ZF.s:1273   .bss._ZN5Grain9left_buf_E:0000000000000000 $d
/var/folders/2p/02m_5p7958535cp2tpgps0400000gn/T//ccf3x5ZF.s:1280   .rodata._ZN5Grain11decay_rate_E:0000000000000000 $d
/var/folders/2p/02m_5p7958535cp2tpgps0400000gn/T//ccf3x5ZF.s:1286   .rodata._ZN5Grain12start_decay_E:0000000000000000 $d
/var/folders/2p/02m_5p7958535cp2tpgps0400000gn/T//ccf3x5ZF.s:540    .text._ZN5Grain7ProcessEPfS0_:00000000000000f7 $d
/var/folders/2p/02m_5p7958535cp2tpgps0400000gn/T//ccf3x5ZF.s:540    .text._ZN5Grain7ProcessEPfS0_:00000000000000f8 $t
/var/folders/2p/02m_5p7958535cp2tpgps0400000gn/T//ccf3x5ZF.s:924    .text._ZN5Grain13ApplyEnvelopeEf:0000000000000011 $d
/var/folders/2p/02m_5p7958535cp2tpgps0400000gn/T//ccf3x5ZF.s:924    .text._ZN5Grain13ApplyEnvelopeEf:0000000000000012 $t

UNDEFINED SYMBOLS
cos
sqrtf
