ARM GAS  /var/folders/2p/02m_5p7958535cp2tpgps0400000gn/T//cclqaeHn.s 			page 1


   1              		.cpu cortex-m7
   2              		.arch armv7e-m
   3              		.fpu fpv5-d16
   4              		.eabi_attribute 28, 1
   5              		.eabi_attribute 20, 1
   6              		.eabi_attribute 21, 1
   7              		.eabi_attribute 23, 3
   8              		.eabi_attribute 24, 1
   9              		.eabi_attribute 25, 1
  10              		.eabi_attribute 26, 1
  11              		.eabi_attribute 30, 4
  12              		.eabi_attribute 34, 1
  13              		.eabi_attribute 18, 4
  14              		.file	"GrannyChordApp.cpp"
  15              		.text
  16              	.Ltext0:
  17              		.cfi_sections	.debug_frame
  18              		.section	.text._ZNK5daisy6Switch10TimeHeldMsEv,"axG",%progbits,_ZNK5daisy6Switch10TimeHeldMsEv,com
  19              		.align	1
  20              		.weak	_ZNK5daisy6Switch10TimeHeldMsEv
  21              		.syntax unified
  22              		.thumb
  23              		.thumb_func
  25              	_ZNK5daisy6Switch10TimeHeldMsEv:
  26              	.LVL0:
  27              	.LFB1646:
  28              		.file 1 "../libDaisy/src/hid/switch.h"
   1:../libDaisy/src/hid/switch.h **** #pragma once
   2:../libDaisy/src/hid/switch.h **** #ifndef DSY_SWITCH_H
   3:../libDaisy/src/hid/switch.h **** #define DSY_SWITCH_H
   4:../libDaisy/src/hid/switch.h **** #include "daisy_core.h"
   5:../libDaisy/src/hid/switch.h **** #include "per/gpio.h"
   6:../libDaisy/src/hid/switch.h **** #include "sys/system.h"
   7:../libDaisy/src/hid/switch.h **** 
   8:../libDaisy/src/hid/switch.h **** namespace daisy
   9:../libDaisy/src/hid/switch.h **** {
  10:../libDaisy/src/hid/switch.h **** /** 
  11:../libDaisy/src/hid/switch.h ****     Generic Class for handling momentary/latching switches \n 
  12:../libDaisy/src/hid/switch.h ****     Inspired/influenced by Mutable Instruments (pichenettes) Switch classes
  13:../libDaisy/src/hid/switch.h ****     @author Stephen Hensley
  14:../libDaisy/src/hid/switch.h ****     @date December 2019
  15:../libDaisy/src/hid/switch.h ****     @ingroup controls
  16:../libDaisy/src/hid/switch.h **** */
  17:../libDaisy/src/hid/switch.h **** class Switch
  18:../libDaisy/src/hid/switch.h **** {
  19:../libDaisy/src/hid/switch.h ****   public:
  20:../libDaisy/src/hid/switch.h ****     /** Specifies the expected behavior of the switch */
  21:../libDaisy/src/hid/switch.h ****     enum Type
  22:../libDaisy/src/hid/switch.h ****     {
  23:../libDaisy/src/hid/switch.h ****         TYPE_TOGGLE,    /**< & */
  24:../libDaisy/src/hid/switch.h ****         TYPE_MOMENTARY, /**< & */
  25:../libDaisy/src/hid/switch.h ****     };
  26:../libDaisy/src/hid/switch.h ****     /** Specifies whether the pressed is HIGH or LOW. */
  27:../libDaisy/src/hid/switch.h ****     enum Polarity
  28:../libDaisy/src/hid/switch.h ****     {
  29:../libDaisy/src/hid/switch.h ****         POLARITY_NORMAL,   /**< & */
  30:../libDaisy/src/hid/switch.h ****         POLARITY_INVERTED, /**< & */
ARM GAS  /var/folders/2p/02m_5p7958535cp2tpgps0400000gn/T//cclqaeHn.s 			page 2


  31:../libDaisy/src/hid/switch.h ****     };
  32:../libDaisy/src/hid/switch.h **** 
  33:../libDaisy/src/hid/switch.h ****     /** Specifies whether to use built-in Pull Up/Down resistors to hold button at a given state wh
  34:../libDaisy/src/hid/switch.h ****     enum Pull
  35:../libDaisy/src/hid/switch.h ****     {
  36:../libDaisy/src/hid/switch.h ****         PULL_UP,   /**< & */
  37:../libDaisy/src/hid/switch.h ****         PULL_DOWN, /**< & */
  38:../libDaisy/src/hid/switch.h ****         PULL_NONE, /**< & */
  39:../libDaisy/src/hid/switch.h ****     };
  40:../libDaisy/src/hid/switch.h **** 
  41:../libDaisy/src/hid/switch.h ****     Switch() {}
  42:../libDaisy/src/hid/switch.h ****     ~Switch() {}
  43:../libDaisy/src/hid/switch.h **** 
  44:../libDaisy/src/hid/switch.h ****     /** 
  45:../libDaisy/src/hid/switch.h ****     Initializes the switch object with a given port/pin combo.
  46:../libDaisy/src/hid/switch.h ****     \param pin port/pin object to tell the switch which hardware pin to use.
  47:../libDaisy/src/hid/switch.h ****     \param update_rate Does nothing. Backwards compatibility until next breaking update.
  48:../libDaisy/src/hid/switch.h ****     \param t switch type -- Default: TYPE_MOMENTARY
  49:../libDaisy/src/hid/switch.h ****     \param pol switch polarity -- Default: POLARITY_INVERTED
  50:../libDaisy/src/hid/switch.h ****     \param pu switch pull up/down -- Default: PULL_UP
  51:../libDaisy/src/hid/switch.h ****     */
  52:../libDaisy/src/hid/switch.h ****     void
  53:../libDaisy/src/hid/switch.h ****     Init(dsy_gpio_pin pin, float update_rate, Type t, Polarity pol, Pull pu);
  54:../libDaisy/src/hid/switch.h **** 
  55:../libDaisy/src/hid/switch.h ****     /**
  56:../libDaisy/src/hid/switch.h ****        Simplified Init.
  57:../libDaisy/src/hid/switch.h ****        \param pin port/pin object to tell the switch which hardware pin to use.
  58:../libDaisy/src/hid/switch.h ****        \param update_rate Left for backwards compatibility until next breaking change.
  59:../libDaisy/src/hid/switch.h ****     */
  60:../libDaisy/src/hid/switch.h ****     void Init(dsy_gpio_pin pin, float update_rate = 0.f);
  61:../libDaisy/src/hid/switch.h **** 
  62:../libDaisy/src/hid/switch.h ****     /** 
  63:../libDaisy/src/hid/switch.h ****     Called at update_rate to debounce and handle timing for the switch.
  64:../libDaisy/src/hid/switch.h ****     In order for events not to be missed, its important that the Edge/Pressed checks
  65:../libDaisy/src/hid/switch.h ****     be made at the same rate as the debounce function is being called.
  66:../libDaisy/src/hid/switch.h ****     */
  67:../libDaisy/src/hid/switch.h ****     void Debounce();
  68:../libDaisy/src/hid/switch.h **** 
  69:../libDaisy/src/hid/switch.h ****     /** \return true if a button was just pressed. */
  70:../libDaisy/src/hid/switch.h ****     inline bool RisingEdge() const { return updated_ ? state_ == 0x7f : false; }
  71:../libDaisy/src/hid/switch.h **** 
  72:../libDaisy/src/hid/switch.h ****     /** \return true if the button was just released */
  73:../libDaisy/src/hid/switch.h ****     inline bool FallingEdge() const
  74:../libDaisy/src/hid/switch.h ****     {
  75:../libDaisy/src/hid/switch.h ****         return updated_ ? state_ == 0x80 : false;
  76:../libDaisy/src/hid/switch.h ****     }
  77:../libDaisy/src/hid/switch.h **** 
  78:../libDaisy/src/hid/switch.h ****     /** \return true if the button is held down (or if the toggle is on) */
  79:../libDaisy/src/hid/switch.h ****     inline bool Pressed() const { return state_ == 0xff; }
  80:../libDaisy/src/hid/switch.h **** 
  81:../libDaisy/src/hid/switch.h ****     /** \return true if the button is held down, without debouncing */
  82:../libDaisy/src/hid/switch.h ****     inline bool RawState()
  83:../libDaisy/src/hid/switch.h ****     {
  84:../libDaisy/src/hid/switch.h ****         return flip_ ? !dsy_gpio_read(&hw_gpio_) : dsy_gpio_read(&hw_gpio_);
  85:../libDaisy/src/hid/switch.h ****     }
  86:../libDaisy/src/hid/switch.h **** 
  87:../libDaisy/src/hid/switch.h ****     /** \return the time in milliseconds that the button has been held (or toggle has been on) */
ARM GAS  /var/folders/2p/02m_5p7958535cp2tpgps0400000gn/T//cclqaeHn.s 			page 3


  88:../libDaisy/src/hid/switch.h ****     inline float TimeHeldMs() const
  29              		.loc 1 88 18 view -0
  30              		.cfi_startproc
  31              		@ args = 0, pretend = 0, frame = 0
  32              		@ frame_needed = 0, uses_anonymous_args = 0
  89:../libDaisy/src/hid/switch.h ****     {
  90:../libDaisy/src/hid/switch.h ****         return Pressed() ? System::GetNow() - rising_edge_time_ : 0;
  33              		.loc 1 90 9 view .LVU1
  34              	.LBB362:
  35              	.LBI362:
  79:../libDaisy/src/hid/switch.h **** 
  36              		.loc 1 79 17 view .LVU2
  37              	.LBB363:
  79:../libDaisy/src/hid/switch.h **** 
  38              		.loc 1 79 35 view .LVU3
  79:../libDaisy/src/hid/switch.h **** 
  39              		.loc 1 79 35 is_stmt 0 view .LVU4
  40              	.LBE363:
  41              	.LBE362:
  88:../libDaisy/src/hid/switch.h ****     {
  42              		.loc 1 88 18 view .LVU5
  43 0000 10B5     		push	{r4, lr}
  44              		.cfi_def_cfa_offset 8
  45              		.cfi_offset 4, -8
  46              		.cfi_offset 14, -4
  47              		.loc 1 90 26 view .LVU6
  48 0002 837A     		ldrb	r3, [r0, #10]	@ zero_extendqisi2
  88:../libDaisy/src/hid/switch.h ****     {
  49              		.loc 1 88 18 view .LVU7
  50 0004 0446     		mov	r4, r0
  51              		.loc 1 90 26 view .LVU8
  52 0006 FF2B     		cmp	r3, #255
  53 0008 0AD1     		bne	.L3
  54              	.LVL1:
  55              	.LBB364:
  56              	.LBI364:
  88:../libDaisy/src/hid/switch.h ****     {
  57              		.loc 1 88 18 is_stmt 1 view .LVU9
  58              	.LBB365:
  59              		.loc 1 90 42 is_stmt 0 view .LVU10
  60 000a FFF7FEFF 		bl	_ZN5daisy6System6GetNowEv
  61              	.LVL2:
  62              		.loc 1 90 45 view .LVU11
  63 000e 07EE900A 		vmov	s15, r0	@ int
  64 0012 B8EE670A 		vcvt.f32.u32	s0, s15
  65              		.loc 1 90 26 view .LVU12
  66 0016 D4ED037A 		vldr.32	s15, [r4, #12]
  67 001a 30EE670A 		vsub.f32	s0, s0, s15
  68              	.LVL3:
  69              	.L1:
  70              		.loc 1 90 26 view .LVU13
  71              	.LBE365:
  72              	.LBE364:
  91:../libDaisy/src/hid/switch.h ****     }
  73              		.loc 1 91 5 view .LVU14
  74 001e 10BD     		pop	{r4, pc}
  75              	.LVL4:
ARM GAS  /var/folders/2p/02m_5p7958535cp2tpgps0400000gn/T//cclqaeHn.s 			page 4


  76              	.L3:
  90:../libDaisy/src/hid/switch.h ****     }
  77              		.loc 1 90 26 view .LVU15
  78 0020 9FED010A 		vldr.32	s0, .L4
  90:../libDaisy/src/hid/switch.h ****     }
  79              		.loc 1 90 67 view .LVU16
  80 0024 FBE7     		b	.L1
  81              	.L5:
  82 0026 00BF     		.align	2
  83              	.L4:
  84 0028 00000000 		.word	0
  85              		.cfi_endproc
  86              	.LFE1646:
  88              		.section	.text._ZN7daisysp7OnePole12SetFrequencyEf,"axG",%progbits,_ZN7daisysp7OnePole12SetFrequen
  89              		.align	1
  90              		.weak	_ZN7daisysp7OnePole12SetFrequencyEf
  91              		.syntax unified
  92              		.thumb
  93              		.thumb_func
  95              	_ZN7daisysp7OnePole12SetFrequencyEf:
  96              	.LVL5:
  97              	.LFB4465:
  98              		.file 2 "../DaisySP/Source/Filters/onepole.h"
   1:../DaisySP/Source/Filters/onepole.h **** /*
   2:../DaisySP/Source/Filters/onepole.h **** Copyright (c) 2020 Electrosmith, Corp, Emilie Gillet
   3:../DaisySP/Source/Filters/onepole.h **** 
   4:../DaisySP/Source/Filters/onepole.h **** Use of this source code is governed by an MIT-style
   5:../DaisySP/Source/Filters/onepole.h **** license that can be found in the LICENSE file or at
   6:../DaisySP/Source/Filters/onepole.h **** https://opensource.org/licenses/MIT.
   7:../DaisySP/Source/Filters/onepole.h **** */
   8:../DaisySP/Source/Filters/onepole.h **** 
   9:../DaisySP/Source/Filters/onepole.h **** #ifndef DSY_ONEPOLE_H
  10:../DaisySP/Source/Filters/onepole.h **** #define DSY_ONEPOLE_H
  11:../DaisySP/Source/Filters/onepole.h **** 
  12:../DaisySP/Source/Filters/onepole.h **** #include "Utility/dsp.h"
  13:../DaisySP/Source/Filters/onepole.h **** #include <cmath>
  14:../DaisySP/Source/Filters/onepole.h **** #include <algorithm>
  15:../DaisySP/Source/Filters/onepole.h **** 
  16:../DaisySP/Source/Filters/onepole.h **** namespace daisysp
  17:../DaisySP/Source/Filters/onepole.h **** {
  18:../DaisySP/Source/Filters/onepole.h **** /**         
  19:../DaisySP/Source/Filters/onepole.h ****     @brief One Pole Lowpass / Highpass Filter
  20:../DaisySP/Source/Filters/onepole.h ****     @author beserge
  21:../DaisySP/Source/Filters/onepole.h ****     @date Dec 2023 
  22:../DaisySP/Source/Filters/onepole.h ****     Ported from pichenettes/stmlib/dsp/filter.h \n 
  23:../DaisySP/Source/Filters/onepole.h ****     \n to an independent module. \n
  24:../DaisySP/Source/Filters/onepole.h ****     Original code written by Emilie Gillet. \n
  25:../DaisySP/Source/Filters/onepole.h **** */
  26:../DaisySP/Source/Filters/onepole.h **** class OnePole
  27:../DaisySP/Source/Filters/onepole.h **** {
  28:../DaisySP/Source/Filters/onepole.h ****   public:
  29:../DaisySP/Source/Filters/onepole.h ****     OnePole() {}
  30:../DaisySP/Source/Filters/onepole.h ****     ~OnePole() {}
  31:../DaisySP/Source/Filters/onepole.h **** 
  32:../DaisySP/Source/Filters/onepole.h ****     /**
  33:../DaisySP/Source/Filters/onepole.h ****      * @brief Operational modes of the filter
  34:../DaisySP/Source/Filters/onepole.h ****      * - LOW_PASS = cuts out high frequency sound, lets low frequency sound pass through
ARM GAS  /var/folders/2p/02m_5p7958535cp2tpgps0400000gn/T//cclqaeHn.s 			page 5


  35:../DaisySP/Source/Filters/onepole.h ****      * - HIGH_PASS = cuts out low frequency sound, lets high frequency sound pass through
  36:../DaisySP/Source/Filters/onepole.h ****      */
  37:../DaisySP/Source/Filters/onepole.h ****     enum FilterMode
  38:../DaisySP/Source/Filters/onepole.h ****     {
  39:../DaisySP/Source/Filters/onepole.h ****         FILTER_MODE_LOW_PASS,
  40:../DaisySP/Source/Filters/onepole.h ****         FILTER_MODE_HIGH_PASS
  41:../DaisySP/Source/Filters/onepole.h ****     };
  42:../DaisySP/Source/Filters/onepole.h **** 
  43:../DaisySP/Source/Filters/onepole.h ****     /** Initializes the module */
  44:../DaisySP/Source/Filters/onepole.h ****     void Init()
  45:../DaisySP/Source/Filters/onepole.h ****     {
  46:../DaisySP/Source/Filters/onepole.h ****         Reset();
  47:../DaisySP/Source/Filters/onepole.h ****         mode_ = FILTER_MODE_LOW_PASS;
  48:../DaisySP/Source/Filters/onepole.h ****     }
  49:../DaisySP/Source/Filters/onepole.h **** 
  50:../DaisySP/Source/Filters/onepole.h ****     /** Reset the module to its default state */
  51:../DaisySP/Source/Filters/onepole.h ****     inline void Reset() { state_ = 0.0f; }
  52:../DaisySP/Source/Filters/onepole.h **** 
  53:../DaisySP/Source/Filters/onepole.h ****     /** Set the filter cutoff frequency
  54:../DaisySP/Source/Filters/onepole.h ****     *   \param freq Cutoff frequency. Valid range from 0 to .497f
  55:../DaisySP/Source/Filters/onepole.h ****     */
  56:../DaisySP/Source/Filters/onepole.h ****     inline void SetFrequency(float freq)
  99              		.loc 2 56 17 is_stmt 1 view -0
 100              		.cfi_startproc
 101              		@ args = 0, pretend = 0, frame = 0
 102              		@ frame_needed = 0, uses_anonymous_args = 0
  57:../DaisySP/Source/Filters/onepole.h ****     {
  58:../DaisySP/Source/Filters/onepole.h ****         // Clip coefficient to about 100.
  59:../DaisySP/Source/Filters/onepole.h ****         freq = freq < 0.497f ? freq : 0.497f;
 103              		.loc 2 59 9 view .LVU18
 104              		.loc 2 59 30 is_stmt 0 view .LVU19
 105 0000 DFED0D7A 		vldr.32	s15, .L8
 106 0004 B4EEE70A 		vcmpe.f32	s0, s15
  56:../DaisySP/Source/Filters/onepole.h ****     {
 107              		.loc 2 56 17 view .LVU20
 108 0008 10B5     		push	{r4, lr}
 109              		.cfi_def_cfa_offset 8
 110              		.cfi_offset 4, -8
 111              		.cfi_offset 14, -4
 112              		.loc 2 59 30 view .LVU21
 113 000a F1EE10FA 		vmrs	APSR_nzcv, FPSCR
  56:../DaisySP/Source/Filters/onepole.h ****     {
 114              		.loc 2 56 17 view .LVU22
 115 000e 0446     		mov	r4, r0
 116              		.loc 2 59 30 view .LVU23
 117 0010 58BF     		it	pl
 118 0012 B0EE670A 		vmovpl.f32	s0, s15
 119              	.LVL6:
  60:../DaisySP/Source/Filters/onepole.h **** 
  61:../DaisySP/Source/Filters/onepole.h ****         g_  = tanf(PI_F * freq);
 120              		.loc 2 61 9 is_stmt 1 view .LVU24
 121              		.loc 2 61 19 is_stmt 0 view .LVU25
 122 0016 DFED097A 		vldr.32	s15, .L8+4
 123 001a 20EE270A 		vmul.f32	s0, s0, s15
 124              	.LVL7:
 125              		.loc 2 61 19 view .LVU26
 126 001e FFF7FEFF 		bl	tanf
ARM GAS  /var/folders/2p/02m_5p7958535cp2tpgps0400000gn/T//cclqaeHn.s 			page 6


 127              	.LVL8:
  62:../DaisySP/Source/Filters/onepole.h ****         gi_ = 1.f / (1.f + g_);
 128              		.loc 2 62 26 view .LVU27
 129 0022 F7EE007A 		vmov.f32	s15, #1.0e+0
  61:../DaisySP/Source/Filters/onepole.h ****         gi_ = 1.f / (1.f + g_);
 130              		.loc 2 61 13 view .LVU28
 131 0026 84ED000A 		vstr.32	s0, [r4]
 132              		.loc 2 62 9 is_stmt 1 view .LVU29
 133              		.loc 2 62 26 is_stmt 0 view .LVU30
 134 002a 30EE270A 		vadd.f32	s0, s0, s15
 135              		.loc 2 62 19 view .LVU31
 136 002e 87EE807A 		vdiv.f32	s14, s15, s0
 137              		.loc 2 62 13 view .LVU32
 138 0032 84ED017A 		vstr.32	s14, [r4, #4]
  63:../DaisySP/Source/Filters/onepole.h ****     }
 139              		.loc 2 63 5 view .LVU33
 140 0036 10BD     		pop	{r4, pc}
 141              	.LVL9:
 142              	.L9:
 143              		.loc 2 63 5 view .LVU34
 144              		.align	2
 145              	.L8:
 146 0038 C976FE3E 		.word	1056863945
 147 003c DB0F4940 		.word	1078530011
 148              		.cfi_endproc
 149              	.LFE4465:
 151              		.section	.text._ZN7daisysp7OnePole7ProcessEf,"axG",%progbits,_ZN7daisysp7OnePole7ProcessEf,comdat
 152              		.align	1
 153              		.weak	_ZN7daisysp7OnePole7ProcessEf
 154              		.syntax unified
 155              		.thumb
 156              		.thumb_func
 158              	_ZN7daisysp7OnePole7ProcessEf:
 159              	.LVL10:
 160              	.LFB4467:
  64:../DaisySP/Source/Filters/onepole.h **** 
  65:../DaisySP/Source/Filters/onepole.h ****     /** Set the filter mode
  66:../DaisySP/Source/Filters/onepole.h ****     *   \param mode Filter mode. Can be lowpass or highpass
  67:../DaisySP/Source/Filters/onepole.h ****     */
  68:../DaisySP/Source/Filters/onepole.h ****     inline void SetFilterMode(FilterMode mode) { mode_ = mode; }
  69:../DaisySP/Source/Filters/onepole.h **** 
  70:../DaisySP/Source/Filters/onepole.h ****     /** Process audio through the filter
  71:../DaisySP/Source/Filters/onepole.h ****     *   \param in The next sample to be processed
  72:../DaisySP/Source/Filters/onepole.h ****     */
  73:../DaisySP/Source/Filters/onepole.h ****     inline float Process(float in)
 161              		.loc 2 73 18 is_stmt 1 view -0
 162              		.cfi_startproc
 163              		@ args = 0, pretend = 0, frame = 0
 164              		@ frame_needed = 0, uses_anonymous_args = 0
 165              		@ link register save eliminated.
  74:../DaisySP/Source/Filters/onepole.h ****     {
  75:../DaisySP/Source/Filters/onepole.h ****         float lp;
 166              		.loc 2 75 9 view .LVU36
  76:../DaisySP/Source/Filters/onepole.h ****         lp     = (g_ * in + state_) * gi_;
 167              		.loc 2 76 9 view .LVU37
 168              		.loc 2 76 19 is_stmt 0 view .LVU38
 169 0000 D0ED006A 		vldr.32	s13, [r0]
ARM GAS  /var/folders/2p/02m_5p7958535cp2tpgps0400000gn/T//cclqaeHn.s 			page 7


  73:../DaisySP/Source/Filters/onepole.h ****     {
 170              		.loc 2 73 18 view .LVU39
 171 0004 B0EE407A 		vmov.f32	s14, s0
 172              		.loc 2 76 27 view .LVU40
 173 0008 D0ED027A 		vldr.32	s15, [r0, #8]
  77:../DaisySP/Source/Filters/onepole.h ****         state_ = g_ * (in - lp) + lp;
  78:../DaisySP/Source/Filters/onepole.h **** 
  79:../DaisySP/Source/Filters/onepole.h ****         switch(mode_)
 174              		.loc 2 79 16 view .LVU41
 175 000c 037B     		ldrb	r3, [r0, #12]	@ zero_extendqisi2
  76:../DaisySP/Source/Filters/onepole.h ****         state_ = g_ * (in - lp) + lp;
 176              		.loc 2 76 27 view .LVU42
 177 000e E6EE807A 		vfma.f32	s15, s13, s0
  76:../DaisySP/Source/Filters/onepole.h ****         state_ = g_ * (in - lp) + lp;
 178              		.loc 2 76 16 view .LVU43
 179 0012 90ED010A 		vldr.32	s0, [r0, #4]
 180              	.LVL11:
  76:../DaisySP/Source/Filters/onepole.h ****         state_ = g_ * (in - lp) + lp;
 181              		.loc 2 76 16 view .LVU44
 182 0016 27EE800A 		vmul.f32	s0, s15, s0
 183              	.LVL12:
  77:../DaisySP/Source/Filters/onepole.h ****         state_ = g_ * (in - lp) + lp;
 184              		.loc 2 77 9 is_stmt 1 view .LVU45
  77:../DaisySP/Source/Filters/onepole.h ****         state_ = g_ * (in - lp) + lp;
 185              		.loc 2 77 27 is_stmt 0 view .LVU46
 186 001a 77EE407A 		vsub.f32	s15, s14, s0
  77:../DaisySP/Source/Filters/onepole.h ****         state_ = g_ * (in - lp) + lp;
 187              		.loc 2 77 33 view .LVU47
 188 001e B0EE407A 		vmov.f32	s14, s0
 189              	.LVL13:
  77:../DaisySP/Source/Filters/onepole.h ****         state_ = g_ * (in - lp) + lp;
 190              		.loc 2 77 33 view .LVU48
 191 0022 A6EEA77A 		vfma.f32	s14, s13, s15
  77:../DaisySP/Source/Filters/onepole.h ****         state_ = g_ * (in - lp) + lp;
 192              		.loc 2 77 16 view .LVU49
 193 0026 80ED027A 		vstr.32	s14, [r0, #8]
 194              		.loc 2 79 9 is_stmt 1 view .LVU50
 195 002a 23B1     		cbz	r3, .L10
 196 002c 012B     		cmp	r3, #1
 197 002e 9FED020A 		vldr.32	s0, .L16
 198              	.LVL14:
 199              		.loc 2 79 9 is_stmt 0 view .LVU51
 200 0032 07FE800A 		vseleq.f32	s0, s15, s0
 201              	.L10:
  80:../DaisySP/Source/Filters/onepole.h ****         {
  81:../DaisySP/Source/Filters/onepole.h ****             case FILTER_MODE_LOW_PASS: return lp;
  82:../DaisySP/Source/Filters/onepole.h ****             case FILTER_MODE_HIGH_PASS: return in - lp;
  83:../DaisySP/Source/Filters/onepole.h ****         }
  84:../DaisySP/Source/Filters/onepole.h **** 
  85:../DaisySP/Source/Filters/onepole.h ****         return 0.0f;
  86:../DaisySP/Source/Filters/onepole.h ****     }
 202              		.loc 2 86 5 view .LVU52
 203 0036 7047     		bx	lr
 204              	.L17:
 205              		.align	2
 206              	.L16:
 207 0038 00000000 		.word	0
ARM GAS  /var/folders/2p/02m_5p7958535cp2tpgps0400000gn/T//cclqaeHn.s 			page 8


 208              		.cfi_endproc
 209              	.LFE4467:
 211              		.section	.rodata._ZN14GrannyChordApp12PrintCPULoadEv.str1.1,"aMS",%progbits,1
 212              	.LC0:
 213 0000 50726F63 		.ascii	"Processing Load %:\000"
 213      65737369 
 213      6E67204C 
 213      6F616420 
 213      253A00
 214              	.LC1:
 215 0013 4D61783A 		.ascii	"Max: %c%d.%03d\000"
 215      20256325 
 215      642E2530 
 215      336400
 216              	.LC2:
 217 0022 4176673A 		.ascii	"Avg: %c%d.%03d\000"
 217      20256325 
 217      642E2530 
 217      336400
 218              	.LC3:
 219 0031 4D696E3A 		.ascii	"Min: %c%d.%03d\000"
 219      20256325 
 219      642E2530 
 219      336400
 220              		.section	.text._ZN14GrannyChordApp12PrintCPULoadEv,"ax",%progbits
 221              		.align	1
 222              		.global	_ZN14GrannyChordApp12PrintCPULoadEv
 223              		.syntax unified
 224              		.thumb
 225              		.thumb_func
 227              	_ZN14GrannyChordApp12PrintCPULoadEv:
 228              	.LVL15:
 229              	.LFB4914:
 230              		.file 3 "GrannyChordApp.cpp"
   1:GrannyChordApp.cpp **** #ifdef DEBUG_MODE // TODO: remove
   2:GrannyChordApp.cpp **** #pragma message("Debug mode is ON")
   3:GrannyChordApp.cpp **** #else
   4:GrannyChordApp.cpp **** #pragma message("Debug mode is OFF")
   5:GrannyChordApp.cpp **** #endif
   6:GrannyChordApp.cpp **** 
   7:GrannyChordApp.cpp **** #include "GrannyChordApp.h"
   8:GrannyChordApp.cpp **** 
   9:GrannyChordApp.cpp **** /* this is required for AudioCallback as it needs a static object */
  10:GrannyChordApp.cpp **** GrannyChordApp* GrannyChordApp::instance_ = nullptr;
  11:GrannyChordApp.cpp **** 
  12:GrannyChordApp.cpp **** /// @brief Initialises app state and members and goes through app startup process
  13:GrannyChordApp.cpp **** /// @param left Left channel audio data buffer
  14:GrannyChordApp.cpp **** /// @param right Right channel audio data buffer
  15:GrannyChordApp.cpp **** void GrannyChordApp::Init(int16_t *left, int16_t *right){
  16:GrannyChordApp.cpp ****   left_buf_ = left, right_buf_ = right;
  17:GrannyChordApp.cpp ****   pod_.SetAudioBlockSize(2);
  18:GrannyChordApp.cpp ****   pod_.SetAudioSampleRate(SaiHandle::Config::SampleRate::SAI_48KHZ);
  19:GrannyChordApp.cpp ****   curr_state_ = AppState::SelectFile;
  20:GrannyChordApp.cpp ****   // SetupTimer();
  21:GrannyChordApp.cpp ****   if (!InitFileMgr()){
  22:GrannyChordApp.cpp ****     DebugPrint(pod_,"File manager failed to init");
  23:GrannyChordApp.cpp ****     pod_.led1.SetRed(1);
ARM GAS  /var/folders/2p/02m_5p7958535cp2tpgps0400000gn/T//cclqaeHn.s 			page 9


  24:GrannyChordApp.cpp ****     pod_.led2.SetRed(1);
  25:GrannyChordApp.cpp ****     pod_.UpdateLeds();
  26:GrannyChordApp.cpp ****     return;
  27:GrannyChordApp.cpp ****   }
  28:GrannyChordApp.cpp ****   // loadmeter.Init(pod_.AudioSampleRate(), pod_.AudioBlockSize());
  29:GrannyChordApp.cpp ****   InitFX();
  30:GrannyChordApp.cpp ****   InitPrevParamVals();
  31:GrannyChordApp.cpp ****   InitColours();
  32:GrannyChordApp.cpp ****   SetLedAppState();
  33:GrannyChordApp.cpp ****   pod_.UpdateLeds();
  34:GrannyChordApp.cpp ****   SeedRng();
  35:GrannyChordApp.cpp ****   synth_.Init(left_buf_, right_buf_, 0);
  36:GrannyChordApp.cpp ****   pod_.StartAdc();
  37:GrannyChordApp.cpp **** }
  38:GrannyChordApp.cpp **** 
  39:GrannyChordApp.cpp **** #ifdef DEBUG_MODE
  40:GrannyChordApp.cpp **** void GrannyChordApp::PrintCPULoad(){
 231              		.loc 3 40 36 is_stmt 1 view -0
 232              		.cfi_startproc
 233              		@ args = 0, pretend = 0, frame = 0
 234              		@ frame_needed = 0, uses_anonymous_args = 0
  41:GrannyChordApp.cpp ****   const float avgLoad = loadmeter.GetAvgCpuLoad();
 235              		.loc 3 41 3 view .LVU54
 236              	.LBB366:
 237              	.LBI366:
 238              		.file 4 "../libDaisy/src/util/CpuLoadMeter.h"
   1:../libDaisy/src/util/CpuLoadMeter.h **** #pragma once
   2:../libDaisy/src/util/CpuLoadMeter.h **** 
   3:../libDaisy/src/util/CpuLoadMeter.h **** #include "sys/system.h"
   4:../libDaisy/src/util/CpuLoadMeter.h **** #include <cmath>
   5:../libDaisy/src/util/CpuLoadMeter.h **** 
   6:../libDaisy/src/util/CpuLoadMeter.h **** namespace daisy
   7:../libDaisy/src/util/CpuLoadMeter.h **** {
   8:../libDaisy/src/util/CpuLoadMeter.h **** /** @brief CPU load metering
   9:../libDaisy/src/util/CpuLoadMeter.h ****  *  @author jelliesen
  10:../libDaisy/src/util/CpuLoadMeter.h ****  *  @addtogroup utility
  11:../libDaisy/src/util/CpuLoadMeter.h ****  * 
  12:../libDaisy/src/util/CpuLoadMeter.h ****  *  To measure the CPU load of your audio processing, create a CpuLoadMeter
  13:../libDaisy/src/util/CpuLoadMeter.h ****  *  and initialize it with your block size and sample rate.
  14:../libDaisy/src/util/CpuLoadMeter.h ****  *  Then at the beginning of the audio callback, call `OnBlockStart()`, 
  15:../libDaisy/src/util/CpuLoadMeter.h ****  *  and at the end of the audio callback, call `OnBlockEnd()`.
  16:../libDaisy/src/util/CpuLoadMeter.h ****  *  You can then read out the minimum, maximum and average CPU load.
  17:../libDaisy/src/util/CpuLoadMeter.h ****  */
  18:../libDaisy/src/util/CpuLoadMeter.h **** class CpuLoadMeter
  19:../libDaisy/src/util/CpuLoadMeter.h **** {
  20:../libDaisy/src/util/CpuLoadMeter.h ****   public:
  21:../libDaisy/src/util/CpuLoadMeter.h ****     CpuLoadMeter(){};
  22:../libDaisy/src/util/CpuLoadMeter.h **** 
  23:../libDaisy/src/util/CpuLoadMeter.h ****     /** Initializes the CpuLoadMeter for a particular sample rate and block size.
  24:../libDaisy/src/util/CpuLoadMeter.h ****      *  @param sampleRateInHz           The sample rate in Hz
  25:../libDaisy/src/util/CpuLoadMeter.h ****      *  @param blockSizeInSamples       The block size in samples
  26:../libDaisy/src/util/CpuLoadMeter.h ****      *  @param smoothingFilterCutoffHz  The cutoff frequency of the smoothing filter that's used to
  27:../libDaisy/src/util/CpuLoadMeter.h ****      *                                  create the average CPU load reading.
  28:../libDaisy/src/util/CpuLoadMeter.h ****      */
  29:../libDaisy/src/util/CpuLoadMeter.h ****     void Init(float sampleRateInHz,
  30:../libDaisy/src/util/CpuLoadMeter.h ****               int   blockSizeInSamples,
  31:../libDaisy/src/util/CpuLoadMeter.h ****               float smoothingFilterCutoffHz = 1.0f)
ARM GAS  /var/folders/2p/02m_5p7958535cp2tpgps0400000gn/T//cclqaeHn.s 			page 10


  32:../libDaisy/src/util/CpuLoadMeter.h ****     {
  33:../libDaisy/src/util/CpuLoadMeter.h ****         const auto secPerBlock = float(blockSizeInSamples) / sampleRateInHz;
  34:../libDaisy/src/util/CpuLoadMeter.h ****         const auto ticksPerS   = float(System::GetTickFreq());
  35:../libDaisy/src/util/CpuLoadMeter.h ****         ticksPerBlockInv_      = 1.0f / (ticksPerS * secPerBlock);
  36:../libDaisy/src/util/CpuLoadMeter.h **** 
  37:../libDaisy/src/util/CpuLoadMeter.h ****         // update filter coefficient for smoothing filter (1pole lowpass)
  38:../libDaisy/src/util/CpuLoadMeter.h ****         const auto blockRateInHz = sampleRateInHz / float(blockSizeInSamples);
  39:../libDaisy/src/util/CpuLoadMeter.h ****         const auto cutoffNormalized
  40:../libDaisy/src/util/CpuLoadMeter.h ****             = smoothingFilterCutoffHz * 2.0f * 3.141592653f / blockRateInHz;
  41:../libDaisy/src/util/CpuLoadMeter.h ****         // according to
  42:../libDaisy/src/util/CpuLoadMeter.h ****         // https://en.wikipedia.org/wiki/Low-pass_filter#Simple_infinite_impulse_response_filter
  43:../libDaisy/src/util/CpuLoadMeter.h ****         smoothingConstant_ = cutoffNormalized / (cutoffNormalized + 1.0f);
  44:../libDaisy/src/util/CpuLoadMeter.h **** 
  45:../libDaisy/src/util/CpuLoadMeter.h ****         Reset();
  46:../libDaisy/src/util/CpuLoadMeter.h ****     }
  47:../libDaisy/src/util/CpuLoadMeter.h **** 
  48:../libDaisy/src/util/CpuLoadMeter.h ****     /** Call this at the beginning of your audio callback */
  49:../libDaisy/src/util/CpuLoadMeter.h ****     void OnBlockStart() { currentBlockStartTicks_ = System::GetTick(); }
  50:../libDaisy/src/util/CpuLoadMeter.h **** 
  51:../libDaisy/src/util/CpuLoadMeter.h ****     /** Call this at the end of your audio callback */
  52:../libDaisy/src/util/CpuLoadMeter.h ****     void OnBlockEnd()
  53:../libDaisy/src/util/CpuLoadMeter.h ****     {
  54:../libDaisy/src/util/CpuLoadMeter.h ****         const auto end         = System::GetTick();
  55:../libDaisy/src/util/CpuLoadMeter.h ****         const auto ticksPassed = end - currentBlockStartTicks_;
  56:../libDaisy/src/util/CpuLoadMeter.h ****         const auto currentBlockLoad
  57:../libDaisy/src/util/CpuLoadMeter.h ****             = float(ticksPassed) * ticksPerBlockInv_; // usPassed / usPerBlock
  58:../libDaisy/src/util/CpuLoadMeter.h **** 
  59:../libDaisy/src/util/CpuLoadMeter.h ****         if(firstCycle_)
  60:../libDaisy/src/util/CpuLoadMeter.h ****         {
  61:../libDaisy/src/util/CpuLoadMeter.h ****             max_ = min_ = avg_ = currentBlockLoad;
  62:../libDaisy/src/util/CpuLoadMeter.h ****             firstCycle_        = false;
  63:../libDaisy/src/util/CpuLoadMeter.h ****         }
  64:../libDaisy/src/util/CpuLoadMeter.h ****         else
  65:../libDaisy/src/util/CpuLoadMeter.h ****         {
  66:../libDaisy/src/util/CpuLoadMeter.h ****             if(currentBlockLoad > max_)
  67:../libDaisy/src/util/CpuLoadMeter.h ****                 max_ = currentBlockLoad;
  68:../libDaisy/src/util/CpuLoadMeter.h ****             if(currentBlockLoad < min_)
  69:../libDaisy/src/util/CpuLoadMeter.h ****                 min_ = currentBlockLoad;
  70:../libDaisy/src/util/CpuLoadMeter.h **** 
  71:../libDaisy/src/util/CpuLoadMeter.h ****             avg_ = smoothingConstant_ * currentBlockLoad
  72:../libDaisy/src/util/CpuLoadMeter.h ****                    + (1.0f - smoothingConstant_) * avg_;
  73:../libDaisy/src/util/CpuLoadMeter.h ****         }
  74:../libDaisy/src/util/CpuLoadMeter.h ****     }
  75:../libDaisy/src/util/CpuLoadMeter.h **** 
  76:../libDaisy/src/util/CpuLoadMeter.h ****     /** Returns the smoothed average CPU load in the range 0..1 */
  77:../libDaisy/src/util/CpuLoadMeter.h ****     float GetAvgCpuLoad() const { return avg_; }
 239              		.loc 4 77 11 view .LVU55
 240              	.LBB367:
 241              		.loc 4 77 35 view .LVU56
 242              	.LBE367:
 243              	.LBE366:
  40:GrannyChordApp.cpp ****   const float avgLoad = loadmeter.GetAvgCpuLoad();
 244              		.loc 3 40 36 is_stmt 0 view .LVU57
 245 0000 10B5     		push	{r4, lr}
 246              		.cfi_def_cfa_offset 8
 247              		.cfi_offset 4, -8
 248              		.cfi_offset 14, -4
ARM GAS  /var/folders/2p/02m_5p7958535cp2tpgps0400000gn/T//cclqaeHn.s 			page 11


 249 0002 2DED068B 		vpush.64	{d8, d9, d10}
 250              		.cfi_def_cfa_offset 32
 251              		.cfi_offset 80, -32
 252              		.cfi_offset 81, -28
 253              		.cfi_offset 82, -24
 254              		.cfi_offset 83, -20
 255              		.cfi_offset 84, -16
 256              		.cfi_offset 85, -12
 257              	.LBB369:
 258              	.LBB370:
  78:../libDaisy/src/util/CpuLoadMeter.h ****     /** Returns the minimun CPU load observed since the last call to Reset(). */
  79:../libDaisy/src/util/CpuLoadMeter.h ****     float GetMinCpuLoad() const { return min_; }
  80:../libDaisy/src/util/CpuLoadMeter.h ****     /** Returns the maximum CPU load observed since the last call to Reset(). */
  81:../libDaisy/src/util/CpuLoadMeter.h ****     float GetMaxCpuLoad() const { return max_; }
 259              		.loc 4 81 42 view .LVU58
 260 0006 90ED049A 		vldr.32	s18, [r0, #16]
 261              	.LBE370:
 262              	.LBE369:
  42:GrannyChordApp.cpp ****   const float maxLoad = loadmeter.GetMaxCpuLoad();
  43:GrannyChordApp.cpp ****   const float minLoad = loadmeter.GetMinCpuLoad();
  44:GrannyChordApp.cpp ****   pod_.seed.PrintLine("Processing Load %:");
  45:GrannyChordApp.cpp ****   pod_.seed.PrintLine("Max: " FLT_FMT3, FLT_VAR3(maxLoad * 100.0f));
 263              		.loc 3 45 41 view .LVU59
 264 000a DFED37AA 		vldr.32	s21, .L25+8
 265              	.LBB372:
 266              	.LBB368:
  77:../libDaisy/src/util/CpuLoadMeter.h ****     /** Returns the minimun CPU load observed since the last call to Reset(). */
 267              		.loc 4 77 42 view .LVU60
 268 000e D0ED058A 		vldr.32	s17, [r0, #20]
 269              	.LVL16:
  77:../libDaisy/src/util/CpuLoadMeter.h ****     /** Returns the minimun CPU load observed since the last call to Reset(). */
 270              		.loc 4 77 42 view .LVU61
 271              	.LBE368:
 272              	.LBE372:
  42:GrannyChordApp.cpp ****   const float maxLoad = loadmeter.GetMaxCpuLoad();
 273              		.loc 3 42 3 is_stmt 1 view .LVU62
 274              	.LBB373:
 275              	.LBI369:
 276              		.loc 4 81 11 view .LVU63
 277              	.LBB371:
 278              		.loc 4 81 35 view .LVU64
 279              		.loc 4 81 35 is_stmt 0 view .LVU65
 280              	.LBE371:
 281              	.LBE373:
  43:GrannyChordApp.cpp ****   pod_.seed.PrintLine("Processing Load %:");
 282              		.loc 3 43 3 is_stmt 1 view .LVU66
 283              	.LBB374:
 284              	.LBI374:
  79:../libDaisy/src/util/CpuLoadMeter.h ****     /** Returns the maximum CPU load observed since the last call to Reset(). */
 285              		.loc 4 79 11 view .LVU67
 286              	.LBB375:
  79:../libDaisy/src/util/CpuLoadMeter.h ****     /** Returns the maximum CPU load observed since the last call to Reset(). */
 287              		.loc 4 79 35 view .LVU68
  79:../libDaisy/src/util/CpuLoadMeter.h ****     /** Returns the maximum CPU load observed since the last call to Reset(). */
 288              		.loc 4 79 42 is_stmt 0 view .LVU69
 289 0012 90ED038A 		vldr.32	s16, [r0, #12]
 290              	.LVL17:
ARM GAS  /var/folders/2p/02m_5p7958535cp2tpgps0400000gn/T//cclqaeHn.s 			page 12


  79:../libDaisy/src/util/CpuLoadMeter.h ****     /** Returns the maximum CPU load observed since the last call to Reset(). */
 291              		.loc 4 79 42 view .LVU70
 292              	.LBE375:
 293              	.LBE374:
  44:GrannyChordApp.cpp ****   pod_.seed.PrintLine("Max: " FLT_FMT3, FLT_VAR3(maxLoad * 100.0f));
 294              		.loc 3 44 3 is_stmt 1 view .LVU71
 295              	.LBB376:
 296              	.LBI376:
 297              		.file 5 "../libDaisy/src/daisy_seed.h"
   1:../libDaisy/src/daisy_seed.h **** #pragma once
   2:../libDaisy/src/daisy_seed.h **** #ifndef DSY_SEED_H
   3:../libDaisy/src/daisy_seed.h **** #define DSY_SEED_H
   4:../libDaisy/src/daisy_seed.h **** 
   5:../libDaisy/src/daisy_seed.h **** #include "daisy.h"
   6:../libDaisy/src/daisy_seed.h **** 
   7:../libDaisy/src/daisy_seed.h **** //Uncomment this out if you're still using the rev2 hardware
   8:../libDaisy/src/daisy_seed.h **** //#define SEED_REV2
   9:../libDaisy/src/daisy_seed.h **** 
  10:../libDaisy/src/daisy_seed.h **** namespace daisy
  11:../libDaisy/src/daisy_seed.h **** {
  12:../libDaisy/src/daisy_seed.h **** /**
  13:../libDaisy/src/daisy_seed.h ****    @brief This is the higher-level interface for the Daisy board. \n 
  14:../libDaisy/src/daisy_seed.h ****     All basic peripheral configuration/initialization is setup here. \n
  15:../libDaisy/src/daisy_seed.h **** 
  16:../libDaisy/src/daisy_seed.h ****    @ingroup boards
  17:../libDaisy/src/daisy_seed.h **** */
  18:../libDaisy/src/daisy_seed.h **** class DaisySeed
  19:../libDaisy/src/daisy_seed.h **** {
  20:../libDaisy/src/daisy_seed.h ****   public:
  21:../libDaisy/src/daisy_seed.h ****     DaisySeed() {}
  22:../libDaisy/src/daisy_seed.h ****     ~DaisySeed() {}
  23:../libDaisy/src/daisy_seed.h **** 
  24:../libDaisy/src/daisy_seed.h ****     /** This function used to provide a pre-initialization configuraiton 
  25:../libDaisy/src/daisy_seed.h ****      *  it has since been deprecated, and does nothing.
  26:../libDaisy/src/daisy_seed.h ****      */
  27:../libDaisy/src/daisy_seed.h ****     void Configure();
  28:../libDaisy/src/daisy_seed.h **** 
  29:../libDaisy/src/daisy_seed.h ****     /** 
  30:../libDaisy/src/daisy_seed.h ****     Initializes the Daisy Seed and the following peripherals:
  31:../libDaisy/src/daisy_seed.h ****     SDRAM, QSPI, 24-bit 48kHz Audio via AK4556, Internal USB,
  32:../libDaisy/src/daisy_seed.h ****     as well as the built-in LED and Testpoint.
  33:../libDaisy/src/daisy_seed.h **** 
  34:../libDaisy/src/daisy_seed.h ****     ADCs, DACs, and other special peripherals (such as I2C, SPI, etc.)
  35:../libDaisy/src/daisy_seed.h ****     can be initialized using their specific initializers within libdaisy
  36:../libDaisy/src/daisy_seed.h ****     for a specific application.
  37:../libDaisy/src/daisy_seed.h ****     */
  38:../libDaisy/src/daisy_seed.h ****     void Init(bool boost = false);
  39:../libDaisy/src/daisy_seed.h **** 
  40:../libDaisy/src/daisy_seed.h ****     /** 
  41:../libDaisy/src/daisy_seed.h ****     Deinitializes all peripherals automatically handled by `Init`.
  42:../libDaisy/src/daisy_seed.h ****     */
  43:../libDaisy/src/daisy_seed.h ****     void DeInit();
  44:../libDaisy/src/daisy_seed.h **** 
  45:../libDaisy/src/daisy_seed.h ****     /** 
  46:../libDaisy/src/daisy_seed.h ****     Wait some ms before going on.
  47:../libDaisy/src/daisy_seed.h ****     \param del Delay time in ms.
  48:../libDaisy/src/daisy_seed.h ****     */
ARM GAS  /var/folders/2p/02m_5p7958535cp2tpgps0400000gn/T//cclqaeHn.s 			page 13


  49:../libDaisy/src/daisy_seed.h ****     void DelayMs(size_t del);
  50:../libDaisy/src/daisy_seed.h **** 
  51:../libDaisy/src/daisy_seed.h ****     /** 
  52:../libDaisy/src/daisy_seed.h ****     Returns the gpio_pin corresponding to the index 0-31.
  53:../libDaisy/src/daisy_seed.h ****     For the given GPIO on the Daisy Seed (labeled 1-32 in docs).
  54:../libDaisy/src/daisy_seed.h ****     */
  55:../libDaisy/src/daisy_seed.h ****     static dsy_gpio_pin GetPin(uint8_t pin_idx);
  56:../libDaisy/src/daisy_seed.h **** 
  57:../libDaisy/src/daisy_seed.h ****     /** Begins the audio for the seeds builtin audio.
  58:../libDaisy/src/daisy_seed.h ****     the specified callback will get called whenever
  59:../libDaisy/src/daisy_seed.h ****     new data is ready to be prepared.
  60:../libDaisy/src/daisy_seed.h ****     */
  61:../libDaisy/src/daisy_seed.h ****     void StartAudio(AudioHandle::InterleavingAudioCallback cb);
  62:../libDaisy/src/daisy_seed.h **** 
  63:../libDaisy/src/daisy_seed.h ****     /** Begins the audio for the seeds builtin audio.
  64:../libDaisy/src/daisy_seed.h ****     the specified callback will get called whenever
  65:../libDaisy/src/daisy_seed.h ****     new data is ready to be prepared.
  66:../libDaisy/src/daisy_seed.h ****     This will use the newer non-interleaved callback.
  67:../libDaisy/src/daisy_seed.h ****     */
  68:../libDaisy/src/daisy_seed.h ****     void StartAudio(AudioHandle::AudioCallback cb);
  69:../libDaisy/src/daisy_seed.h **** 
  70:../libDaisy/src/daisy_seed.h ****     /** Changes to a new interleaved callback
  71:../libDaisy/src/daisy_seed.h ****      */
  72:../libDaisy/src/daisy_seed.h ****     void ChangeAudioCallback(AudioHandle::InterleavingAudioCallback cb);
  73:../libDaisy/src/daisy_seed.h **** 
  74:../libDaisy/src/daisy_seed.h ****     /** Changes to a new multichannel callback
  75:../libDaisy/src/daisy_seed.h ****      */
  76:../libDaisy/src/daisy_seed.h ****     void ChangeAudioCallback(AudioHandle::AudioCallback cb);
  77:../libDaisy/src/daisy_seed.h **** 
  78:../libDaisy/src/daisy_seed.h ****     /** Stops the audio if it is running. */
  79:../libDaisy/src/daisy_seed.h ****     void StopAudio();
  80:../libDaisy/src/daisy_seed.h **** 
  81:../libDaisy/src/daisy_seed.h ****     /** Updates the Audio Sample Rate, and reinitializes.
  82:../libDaisy/src/daisy_seed.h ****      ** Audio must be stopped for this to work.
  83:../libDaisy/src/daisy_seed.h ****      */
  84:../libDaisy/src/daisy_seed.h ****     void SetAudioSampleRate(SaiHandle::Config::SampleRate samplerate);
  85:../libDaisy/src/daisy_seed.h **** 
  86:../libDaisy/src/daisy_seed.h ****     /** Returns the audio sample rate in Hz as a floating point number.
  87:../libDaisy/src/daisy_seed.h ****      */
  88:../libDaisy/src/daisy_seed.h ****     float AudioSampleRate();
  89:../libDaisy/src/daisy_seed.h **** 
  90:../libDaisy/src/daisy_seed.h ****     /** Sets the number of samples processed per channel by the audio callback.
  91:../libDaisy/src/daisy_seed.h ****      */
  92:../libDaisy/src/daisy_seed.h ****     void SetAudioBlockSize(size_t blocksize);
  93:../libDaisy/src/daisy_seed.h **** 
  94:../libDaisy/src/daisy_seed.h ****     /** Returns the number of samples per channel in a block of audio. */
  95:../libDaisy/src/daisy_seed.h ****     size_t AudioBlockSize();
  96:../libDaisy/src/daisy_seed.h **** 
  97:../libDaisy/src/daisy_seed.h ****     /** Returns the rate in Hz that the Audio callback is called */
  98:../libDaisy/src/daisy_seed.h ****     float AudioCallbackRate() const;
  99:../libDaisy/src/daisy_seed.h **** 
 100:../libDaisy/src/daisy_seed.h ****     /** Returns the SAI Handle for the Daisy Seed 
 101:../libDaisy/src/daisy_seed.h ****      *  This can be useful when adding a secondary codec,
 102:../libDaisy/src/daisy_seed.h ****      *  the result of this function can be passed to the audio reinit 
 103:../libDaisy/src/daisy_seed.h ****      *  with an SAI2 configuration
 104:../libDaisy/src/daisy_seed.h ****      */
 105:../libDaisy/src/daisy_seed.h ****     const SaiHandle& AudioSaiHandle() const;
ARM GAS  /var/folders/2p/02m_5p7958535cp2tpgps0400000gn/T//cclqaeHn.s 			page 14


 106:../libDaisy/src/daisy_seed.h **** 
 107:../libDaisy/src/daisy_seed.h ****     /** Sets the state of the built in LED
 108:../libDaisy/src/daisy_seed.h ****      */
 109:../libDaisy/src/daisy_seed.h ****     void SetLed(bool state);
 110:../libDaisy/src/daisy_seed.h **** 
 111:../libDaisy/src/daisy_seed.h ****     /** Sets the state of the test point near pin 10
 112:../libDaisy/src/daisy_seed.h ****      */
 113:../libDaisy/src/daisy_seed.h ****     void SetTestPoint(bool state);
 114:../libDaisy/src/daisy_seed.h **** 
 115:../libDaisy/src/daisy_seed.h ****     /** Print formatted debug log message
 116:../libDaisy/src/daisy_seed.h ****      */
 117:../libDaisy/src/daisy_seed.h ****     template <typename... VA>
 118:../libDaisy/src/daisy_seed.h ****     static void Print(const char* format, VA... va)
 119:../libDaisy/src/daisy_seed.h ****     {
 120:../libDaisy/src/daisy_seed.h ****         Log::Print(format, va...);
 121:../libDaisy/src/daisy_seed.h ****     }
 122:../libDaisy/src/daisy_seed.h **** 
 123:../libDaisy/src/daisy_seed.h ****     /** Print formatted debug log message with automatic line termination
 124:../libDaisy/src/daisy_seed.h ****     */
 125:../libDaisy/src/daisy_seed.h ****     template <typename... VA>
 126:../libDaisy/src/daisy_seed.h ****     static void PrintLine(const char* format, VA... va)
 298              		.loc 5 126 17 view .LVU72
 299              	.LBB377:
 127:../libDaisy/src/daisy_seed.h ****     {
 128:../libDaisy/src/daisy_seed.h ****         Log::PrintLine(format, va...);
 300              		.loc 5 128 23 is_stmt 0 view .LVU73
 301 0016 3548     		ldr	r0, .L25+12
 302              	.LVL18:
 303              		.loc 5 128 23 view .LVU74
 304 0018 FFF7FEFF 		bl	_ZN5daisy6LoggerILNS_17LoggerDestinationE1EE9PrintLineEPKcz
 305              	.LVL19:
 306              		.loc 5 128 23 view .LVU75
 307              	.LBE377:
 308              	.LBE376:
 309              		.loc 3 45 3 is_stmt 1 view .LVU76
 310              	.LBB378:
 311              	.LBI378:
 312              		.file 6 "/Library/DaisyToolchain/0.2.0/arm/arm-none-eabi/include/c++/10.3.1/bits/std_abs.h"
   1:/Library/DaisyToolchain/0.2.0/arm/arm-none-eabi/include/c++/10.3.1/bits/std_abs.h **** // -*- C++ -*- C library enhancements header.
   2:/Library/DaisyToolchain/0.2.0/arm/arm-none-eabi/include/c++/10.3.1/bits/std_abs.h **** 
   3:/Library/DaisyToolchain/0.2.0/arm/arm-none-eabi/include/c++/10.3.1/bits/std_abs.h **** // Copyright (C) 2016-2020 Free Software Foundation, Inc.
   4:/Library/DaisyToolchain/0.2.0/arm/arm-none-eabi/include/c++/10.3.1/bits/std_abs.h **** //
   5:/Library/DaisyToolchain/0.2.0/arm/arm-none-eabi/include/c++/10.3.1/bits/std_abs.h **** // This file is part of the GNU ISO C++ Library.  This library is free
   6:/Library/DaisyToolchain/0.2.0/arm/arm-none-eabi/include/c++/10.3.1/bits/std_abs.h **** // software; you can redistribute it and/or modify it under the
   7:/Library/DaisyToolchain/0.2.0/arm/arm-none-eabi/include/c++/10.3.1/bits/std_abs.h **** // terms of the GNU General Public License as published by the
   8:/Library/DaisyToolchain/0.2.0/arm/arm-none-eabi/include/c++/10.3.1/bits/std_abs.h **** // Free Software Foundation; either version 3, or (at your option)
   9:/Library/DaisyToolchain/0.2.0/arm/arm-none-eabi/include/c++/10.3.1/bits/std_abs.h **** // any later version.
  10:/Library/DaisyToolchain/0.2.0/arm/arm-none-eabi/include/c++/10.3.1/bits/std_abs.h **** 
  11:/Library/DaisyToolchain/0.2.0/arm/arm-none-eabi/include/c++/10.3.1/bits/std_abs.h **** // This library is distributed in the hope that it will be useful,
  12:/Library/DaisyToolchain/0.2.0/arm/arm-none-eabi/include/c++/10.3.1/bits/std_abs.h **** // but WITHOUT ANY WARRANTY; without even the implied warranty of
  13:/Library/DaisyToolchain/0.2.0/arm/arm-none-eabi/include/c++/10.3.1/bits/std_abs.h **** // MERCHANTABILITY or FITNESS FOR A PARTICULAR PURPOSE.  See the
  14:/Library/DaisyToolchain/0.2.0/arm/arm-none-eabi/include/c++/10.3.1/bits/std_abs.h **** // GNU General Public License for more details.
  15:/Library/DaisyToolchain/0.2.0/arm/arm-none-eabi/include/c++/10.3.1/bits/std_abs.h **** 
  16:/Library/DaisyToolchain/0.2.0/arm/arm-none-eabi/include/c++/10.3.1/bits/std_abs.h **** // Under Section 7 of GPL version 3, you are granted additional
  17:/Library/DaisyToolchain/0.2.0/arm/arm-none-eabi/include/c++/10.3.1/bits/std_abs.h **** // permissions described in the GCC Runtime Library Exception, version
  18:/Library/DaisyToolchain/0.2.0/arm/arm-none-eabi/include/c++/10.3.1/bits/std_abs.h **** // 3.1, as published by the Free Software Foundation.
  19:/Library/DaisyToolchain/0.2.0/arm/arm-none-eabi/include/c++/10.3.1/bits/std_abs.h **** 
ARM GAS  /var/folders/2p/02m_5p7958535cp2tpgps0400000gn/T//cclqaeHn.s 			page 15


  20:/Library/DaisyToolchain/0.2.0/arm/arm-none-eabi/include/c++/10.3.1/bits/std_abs.h **** // You should have received a copy of the GNU General Public License and
  21:/Library/DaisyToolchain/0.2.0/arm/arm-none-eabi/include/c++/10.3.1/bits/std_abs.h **** // a copy of the GCC Runtime Library Exception along with this program;
  22:/Library/DaisyToolchain/0.2.0/arm/arm-none-eabi/include/c++/10.3.1/bits/std_abs.h **** // see the files COPYING3 and COPYING.RUNTIME respectively.  If not, see
  23:/Library/DaisyToolchain/0.2.0/arm/arm-none-eabi/include/c++/10.3.1/bits/std_abs.h **** // <http://www.gnu.org/licenses/>.
  24:/Library/DaisyToolchain/0.2.0/arm/arm-none-eabi/include/c++/10.3.1/bits/std_abs.h **** 
  25:/Library/DaisyToolchain/0.2.0/arm/arm-none-eabi/include/c++/10.3.1/bits/std_abs.h **** /** @file include/bits/std_abs.h
  26:/Library/DaisyToolchain/0.2.0/arm/arm-none-eabi/include/c++/10.3.1/bits/std_abs.h ****  *  This is an internal header file, included by other library headers.
  27:/Library/DaisyToolchain/0.2.0/arm/arm-none-eabi/include/c++/10.3.1/bits/std_abs.h ****  *  Do not attempt to use it directly. @headername{cmath, cstdlib}
  28:/Library/DaisyToolchain/0.2.0/arm/arm-none-eabi/include/c++/10.3.1/bits/std_abs.h ****  */
  29:/Library/DaisyToolchain/0.2.0/arm/arm-none-eabi/include/c++/10.3.1/bits/std_abs.h **** 
  30:/Library/DaisyToolchain/0.2.0/arm/arm-none-eabi/include/c++/10.3.1/bits/std_abs.h **** #ifndef _GLIBCXX_BITS_STD_ABS_H
  31:/Library/DaisyToolchain/0.2.0/arm/arm-none-eabi/include/c++/10.3.1/bits/std_abs.h **** #define _GLIBCXX_BITS_STD_ABS_H
  32:/Library/DaisyToolchain/0.2.0/arm/arm-none-eabi/include/c++/10.3.1/bits/std_abs.h **** 
  33:/Library/DaisyToolchain/0.2.0/arm/arm-none-eabi/include/c++/10.3.1/bits/std_abs.h **** #pragma GCC system_header
  34:/Library/DaisyToolchain/0.2.0/arm/arm-none-eabi/include/c++/10.3.1/bits/std_abs.h **** 
  35:/Library/DaisyToolchain/0.2.0/arm/arm-none-eabi/include/c++/10.3.1/bits/std_abs.h **** #include <bits/c++config.h>
  36:/Library/DaisyToolchain/0.2.0/arm/arm-none-eabi/include/c++/10.3.1/bits/std_abs.h **** 
  37:/Library/DaisyToolchain/0.2.0/arm/arm-none-eabi/include/c++/10.3.1/bits/std_abs.h **** #define _GLIBCXX_INCLUDE_NEXT_C_HEADERS
  38:/Library/DaisyToolchain/0.2.0/arm/arm-none-eabi/include/c++/10.3.1/bits/std_abs.h **** #include_next <stdlib.h>
  39:/Library/DaisyToolchain/0.2.0/arm/arm-none-eabi/include/c++/10.3.1/bits/std_abs.h **** #ifdef __CORRECT_ISO_CPP_MATH_H_PROTO
  40:/Library/DaisyToolchain/0.2.0/arm/arm-none-eabi/include/c++/10.3.1/bits/std_abs.h **** # include_next <math.h>
  41:/Library/DaisyToolchain/0.2.0/arm/arm-none-eabi/include/c++/10.3.1/bits/std_abs.h **** #endif
  42:/Library/DaisyToolchain/0.2.0/arm/arm-none-eabi/include/c++/10.3.1/bits/std_abs.h **** #undef _GLIBCXX_INCLUDE_NEXT_C_HEADERS
  43:/Library/DaisyToolchain/0.2.0/arm/arm-none-eabi/include/c++/10.3.1/bits/std_abs.h **** 
  44:/Library/DaisyToolchain/0.2.0/arm/arm-none-eabi/include/c++/10.3.1/bits/std_abs.h **** #undef abs
  45:/Library/DaisyToolchain/0.2.0/arm/arm-none-eabi/include/c++/10.3.1/bits/std_abs.h **** 
  46:/Library/DaisyToolchain/0.2.0/arm/arm-none-eabi/include/c++/10.3.1/bits/std_abs.h **** extern "C++"
  47:/Library/DaisyToolchain/0.2.0/arm/arm-none-eabi/include/c++/10.3.1/bits/std_abs.h **** {
  48:/Library/DaisyToolchain/0.2.0/arm/arm-none-eabi/include/c++/10.3.1/bits/std_abs.h **** namespace std _GLIBCXX_VISIBILITY(default)
  49:/Library/DaisyToolchain/0.2.0/arm/arm-none-eabi/include/c++/10.3.1/bits/std_abs.h **** {
  50:/Library/DaisyToolchain/0.2.0/arm/arm-none-eabi/include/c++/10.3.1/bits/std_abs.h **** _GLIBCXX_BEGIN_NAMESPACE_VERSION
  51:/Library/DaisyToolchain/0.2.0/arm/arm-none-eabi/include/c++/10.3.1/bits/std_abs.h **** 
  52:/Library/DaisyToolchain/0.2.0/arm/arm-none-eabi/include/c++/10.3.1/bits/std_abs.h ****   using ::abs;
  53:/Library/DaisyToolchain/0.2.0/arm/arm-none-eabi/include/c++/10.3.1/bits/std_abs.h **** 
  54:/Library/DaisyToolchain/0.2.0/arm/arm-none-eabi/include/c++/10.3.1/bits/std_abs.h **** #ifndef __CORRECT_ISO_CPP_STDLIB_H_PROTO
  55:/Library/DaisyToolchain/0.2.0/arm/arm-none-eabi/include/c++/10.3.1/bits/std_abs.h ****   inline long
  56:/Library/DaisyToolchain/0.2.0/arm/arm-none-eabi/include/c++/10.3.1/bits/std_abs.h ****   abs(long __i) { return __builtin_labs(__i); }
  57:/Library/DaisyToolchain/0.2.0/arm/arm-none-eabi/include/c++/10.3.1/bits/std_abs.h **** #endif
  58:/Library/DaisyToolchain/0.2.0/arm/arm-none-eabi/include/c++/10.3.1/bits/std_abs.h **** 
  59:/Library/DaisyToolchain/0.2.0/arm/arm-none-eabi/include/c++/10.3.1/bits/std_abs.h **** #ifdef _GLIBCXX_USE_LONG_LONG
  60:/Library/DaisyToolchain/0.2.0/arm/arm-none-eabi/include/c++/10.3.1/bits/std_abs.h ****   inline long long
  61:/Library/DaisyToolchain/0.2.0/arm/arm-none-eabi/include/c++/10.3.1/bits/std_abs.h ****   abs(long long __x) { return __builtin_llabs (__x); }
  62:/Library/DaisyToolchain/0.2.0/arm/arm-none-eabi/include/c++/10.3.1/bits/std_abs.h **** #endif
  63:/Library/DaisyToolchain/0.2.0/arm/arm-none-eabi/include/c++/10.3.1/bits/std_abs.h **** 
  64:/Library/DaisyToolchain/0.2.0/arm/arm-none-eabi/include/c++/10.3.1/bits/std_abs.h **** // _GLIBCXX_RESOLVE_LIB_DEFECTS
  65:/Library/DaisyToolchain/0.2.0/arm/arm-none-eabi/include/c++/10.3.1/bits/std_abs.h **** // 2192. Validity and return type of std::abs(0u) is unclear
  66:/Library/DaisyToolchain/0.2.0/arm/arm-none-eabi/include/c++/10.3.1/bits/std_abs.h **** // 2294. <cstdlib> should declare abs(double)
  67:/Library/DaisyToolchain/0.2.0/arm/arm-none-eabi/include/c++/10.3.1/bits/std_abs.h **** // 2735. std::abs(short), std::abs(signed char) and others should return int
  68:/Library/DaisyToolchain/0.2.0/arm/arm-none-eabi/include/c++/10.3.1/bits/std_abs.h **** 
  69:/Library/DaisyToolchain/0.2.0/arm/arm-none-eabi/include/c++/10.3.1/bits/std_abs.h **** #ifndef __CORRECT_ISO_CPP_MATH_H_PROTO
  70:/Library/DaisyToolchain/0.2.0/arm/arm-none-eabi/include/c++/10.3.1/bits/std_abs.h ****   inline _GLIBCXX_CONSTEXPR double
  71:/Library/DaisyToolchain/0.2.0/arm/arm-none-eabi/include/c++/10.3.1/bits/std_abs.h ****   abs(double __x)
  72:/Library/DaisyToolchain/0.2.0/arm/arm-none-eabi/include/c++/10.3.1/bits/std_abs.h ****   { return __builtin_fabs(__x); }
  73:/Library/DaisyToolchain/0.2.0/arm/arm-none-eabi/include/c++/10.3.1/bits/std_abs.h **** 
  74:/Library/DaisyToolchain/0.2.0/arm/arm-none-eabi/include/c++/10.3.1/bits/std_abs.h ****   inline _GLIBCXX_CONSTEXPR float
  75:/Library/DaisyToolchain/0.2.0/arm/arm-none-eabi/include/c++/10.3.1/bits/std_abs.h ****   abs(float __x)
 313              		.loc 6 75 3 view .LVU77
ARM GAS  /var/folders/2p/02m_5p7958535cp2tpgps0400000gn/T//cclqaeHn.s 			page 16


 314              	.LBB379:
  76:/Library/DaisyToolchain/0.2.0/arm/arm-none-eabi/include/c++/10.3.1/bits/std_abs.h ****   { return __builtin_fabsf(__x); }
 315              		.loc 6 76 5 view .LVU78
 316              	.LBE379:
 317              	.LBE378:
 318              		.loc 3 45 41 is_stmt 0 view .LVU79
 319 001c 29EE2A6A 		vmul.f32	s12, s18, s21
 320              	.LVL20:
 321              		.loc 3 45 22 view .LVU80
 322 0020 9FED33AA 		vldr.32	s20, .L25+16
 323              	.LBB381:
 324              	.LBB382:
 325              		.loc 5 128 23 view .LVU81
 326 0024 3348     		ldr	r0, .L25+20
 327              	.LBE382:
 328              	.LBE381:
 329              		.loc 3 45 22 view .LVU82
 330 0026 B4EECA6A 		vcmpe.f32	s12, s20
 331              	.LBB385:
 332              	.LBB380:
 333              		.loc 6 76 31 view .LVU83
 334 002a B0EEC66A 		vabs.f32	s12, s12
 335              	.LVL21:
 336              		.loc 6 76 31 view .LVU84
 337              	.LBE380:
 338              	.LBE385:
 339              		.loc 3 45 41 view .LVU85
 340 002e 9FED2C9B 		vldr.64	d9, .L25
 341              	.LVL22:
 342              		.loc 3 45 22 view .LVU86
 343 0032 FDEEC67A 		vcvt.s32.f32	s15, s12
 344              	.LVL23:
 345              		.loc 6 76 5 is_stmt 1 view .LVU87
 346              		.loc 6 76 5 view .LVU88
 347              		.loc 3 45 22 is_stmt 0 view .LVU89
 348 0036 F1EE10FA 		vmrs	APSR_nzcv, FPSCR
 349              	.LVL24:
 350              	.LBB386:
 351              	.LBI381:
 126:../libDaisy/src/daisy_seed.h ****     {
 352              		.loc 5 126 17 is_stmt 1 view .LVU90
 353              	.LBE386:
 354              		.loc 3 45 41 is_stmt 0 view .LVU91
 355 003a B8EEE77A 		vcvt.f32.s32	s14, s15
 356              	.LVL25:
 357              	.LBB387:
 358              	.LBB383:
 359              		.loc 5 128 23 view .LVU92
 360 003e 17EE902A 		vmov	r2, s15	@ int
 361 0042 4CBF     		ite	mi
 362 0044 2D21     		movmi	r1, #45
 363 0046 2021     		movpl	r1, #32
 364              	.LBE383:
 365              	.LBE387:
 366              		.loc 3 45 41 view .LVU93
 367 0048 36EE476A 		vsub.f32	s12, s12, s14
 368              	.LVL26:
ARM GAS  /var/folders/2p/02m_5p7958535cp2tpgps0400000gn/T//cclqaeHn.s 			page 17


 369              		.loc 3 45 41 view .LVU94
 370 004c B7EEC66A 		vcvt.f64.f32	d6, s12
 371 0050 26EE096B 		vmul.f64	d6, d6, d9
 372              	.LBB388:
 373              	.LBB384:
 374              		.loc 5 128 23 view .LVU95
 375 0054 BDEEC67B 		vcvt.s32.f64	s14, d6
 376 0058 17EE103A 		vmov	r3, s14	@ int
 377 005c FFF7FEFF 		bl	_ZN5daisy6LoggerILNS_17LoggerDestinationE1EE9PrintLineEPKcz
 378              	.LVL27:
 379              		.loc 5 128 23 view .LVU96
 380              	.LBE384:
 381              	.LBE388:
  46:GrannyChordApp.cpp ****   pod_.seed.PrintLine("Avg: " FLT_FMT3, FLT_VAR3(avgLoad * 100.0f));
 382              		.loc 3 46 3 is_stmt 1 view .LVU97
 383              	.LBB389:
 384              	.LBI389:
  75:/Library/DaisyToolchain/0.2.0/arm/arm-none-eabi/include/c++/10.3.1/bits/std_abs.h ****   { return __builtin_fabsf(__x); }
 385              		.loc 6 75 3 view .LVU98
 386              	.LBB390:
 387              		.loc 6 76 5 view .LVU99
 388              	.LBE390:
 389              	.LBE389:
 390              		.loc 3 46 41 is_stmt 0 view .LVU100
 391 0060 28EEAA6A 		vmul.f32	s12, s17, s21
 392              	.LVL28:
 393              	.LBB392:
 394              	.LBB393:
 395              		.loc 5 128 23 view .LVU101
 396 0064 2448     		ldr	r0, .L25+24
 397              	.LBE393:
 398              	.LBE392:
 399              		.loc 3 46 22 view .LVU102
 400 0066 B4EECA6A 		vcmpe.f32	s12, s20
 401              	.LBB397:
 402              	.LBB391:
 403              		.loc 6 76 31 view .LVU103
 404 006a B0EEC66A 		vabs.f32	s12, s12
 405              	.LVL29:
 406              		.loc 6 76 31 view .LVU104
 407              	.LBE391:
 408              	.LBE397:
 409              		.loc 3 46 22 view .LVU105
 410 006e F1EE10FA 		vmrs	APSR_nzcv, FPSCR
 411 0072 FDEEC67A 		vcvt.s32.f32	s15, s12
 412              	.LVL30:
 413              		.loc 6 76 5 is_stmt 1 view .LVU106
 414              		.loc 6 76 5 view .LVU107
 415              	.LBB398:
 416              	.LBI392:
 126:../libDaisy/src/daisy_seed.h ****     {
 417              		.loc 5 126 17 view .LVU108
 418              	.LBB394:
 419              		.loc 5 128 23 is_stmt 0 view .LVU109
 420 0076 4CBF     		ite	mi
 421 0078 2D21     		movmi	r1, #45
 422 007a 2021     		movpl	r1, #32
ARM GAS  /var/folders/2p/02m_5p7958535cp2tpgps0400000gn/T//cclqaeHn.s 			page 18


 423              	.LBE394:
 424              	.LBE398:
 425              		.loc 3 46 41 view .LVU110
 426 007c B8EEE77A 		vcvt.f32.s32	s14, s15
 427              	.LVL31:
 428              	.LBB399:
 429              	.LBB395:
 430              		.loc 5 128 23 view .LVU111
 431 0080 17EE902A 		vmov	r2, s15	@ int
 432              	.LBE395:
 433              	.LBE399:
 434              		.loc 3 46 41 view .LVU112
 435 0084 36EE476A 		vsub.f32	s12, s12, s14
 436              	.LVL32:
 437              		.loc 3 46 41 view .LVU113
 438 0088 B7EEC66A 		vcvt.f64.f32	d6, s12
 439 008c 26EE096B 		vmul.f64	d6, d6, d9
 440              	.LBB400:
 441              	.LBB396:
 442              		.loc 5 128 23 view .LVU114
 443 0090 BDEEC67B 		vcvt.s32.f64	s14, d6
 444              	.LVL33:
 445              		.loc 5 128 23 view .LVU115
 446 0094 17EE103A 		vmov	r3, s14	@ int
 447 0098 FFF7FEFF 		bl	_ZN5daisy6LoggerILNS_17LoggerDestinationE1EE9PrintLineEPKcz
 448              	.LVL34:
 449              		.loc 5 128 23 view .LVU116
 450              	.LBE396:
 451              	.LBE400:
  47:GrannyChordApp.cpp ****   pod_.seed.PrintLine("Min: " FLT_FMT3, FLT_VAR3(minLoad * 100.0f));
 452              		.loc 3 47 3 is_stmt 1 view .LVU117
 453              	.LBB401:
 454              	.LBI401:
  75:/Library/DaisyToolchain/0.2.0/arm/arm-none-eabi/include/c++/10.3.1/bits/std_abs.h ****   { return __builtin_fabsf(__x); }
 455              		.loc 6 75 3 view .LVU118
 456              	.LBB402:
 457              		.loc 6 76 5 view .LVU119
 458              	.LBE402:
 459              	.LBE401:
 460              		.loc 3 47 41 is_stmt 0 view .LVU120
 461 009c 28EE2A7A 		vmul.f32	s14, s16, s21
 462              	.LVL35:
 463              	.LBB404:
 464              	.LBB405:
 465              		.loc 5 128 23 view .LVU121
 466 00a0 1648     		ldr	r0, .L25+28
 467              	.LBE405:
 468              	.LBE404:
 469              		.loc 3 47 22 view .LVU122
 470 00a2 B4EECA7A 		vcmpe.f32	s14, s20
 471              	.LBB410:
 472              	.LBB403:
 473              		.loc 6 76 31 view .LVU123
 474 00a6 B0EEC77A 		vabs.f32	s14, s14
 475              	.LVL36:
 476              		.loc 6 76 31 view .LVU124
 477              	.LBE403:
ARM GAS  /var/folders/2p/02m_5p7958535cp2tpgps0400000gn/T//cclqaeHn.s 			page 19


 478              	.LBE410:
 479              		.loc 3 47 22 view .LVU125
 480 00aa F1EE10FA 		vmrs	APSR_nzcv, FPSCR
 481 00ae FDEEC76A 		vcvt.s32.f32	s13, s14
 482              	.LVL37:
 483              		.loc 6 76 5 is_stmt 1 view .LVU126
 484              		.loc 6 76 5 view .LVU127
 485              	.LBB411:
 486              	.LBI404:
 126:../libDaisy/src/daisy_seed.h ****     {
 487              		.loc 5 126 17 view .LVU128
 488              	.LBB406:
 489              		.loc 5 128 23 is_stmt 0 view .LVU129
 490 00b2 4CBF     		ite	mi
 491 00b4 2D21     		movmi	r1, #45
 492 00b6 2021     		movpl	r1, #32
 493              	.LBE406:
 494              	.LBE411:
 495              		.loc 3 47 41 view .LVU130
 496 00b8 F8EEE67A 		vcvt.f32.s32	s15, s13
 497              	.LVL38:
 498              	.LBB412:
 499              	.LBB407:
 500              		.loc 5 128 23 view .LVU131
 501 00bc 16EE902A 		vmov	r2, s13	@ int
 502              	.LBE407:
 503              	.LBE412:
 504              		.loc 3 47 41 view .LVU132
 505 00c0 37EE677A 		vsub.f32	s14, s14, s15
 506              	.LVL39:
 507              		.loc 3 47 41 view .LVU133
 508 00c4 B7EEC77A 		vcvt.f64.f32	d7, s14
 509 00c8 27EE097B 		vmul.f64	d7, d7, d9
  48:GrannyChordApp.cpp **** }
 510              		.loc 3 48 1 view .LVU134
 511 00cc BDEC068B 		vldm	sp!, {d8-d10}
 512              		.cfi_restore 84
 513              		.cfi_restore 85
 514              		.cfi_restore 82
 515              		.cfi_restore 83
 516              		.cfi_restore 80
 517              		.cfi_restore 81
 518              		.cfi_def_cfa_offset 8
 519              	.LVL40:
 520              	.LBB413:
 521              	.LBB408:
 522              		.loc 5 128 23 view .LVU135
 523 00d0 FDEEC77B 		vcvt.s32.f64	s15, d7
 524              	.LBE408:
 525              	.LBE413:
 526              		.loc 3 48 1 view .LVU136
 527 00d4 BDE81040 		pop	{r4, lr}
 528              		.cfi_restore 14
 529              		.cfi_restore 4
 530              		.cfi_def_cfa_offset 0
 531              	.LBB414:
 532              	.LBB409:
ARM GAS  /var/folders/2p/02m_5p7958535cp2tpgps0400000gn/T//cclqaeHn.s 			page 20


 533              		.loc 5 128 23 view .LVU137
 534 00d8 17EE903A 		vmov	r3, s15	@ int
 535 00dc FFF7FEBF 		b	_ZN5daisy6LoggerILNS_17LoggerDestinationE1EE9PrintLineEPKcz
 536              	.LVL41:
 537              	.L26:
 538              		.loc 5 128 23 view .LVU138
 539              		.align	3
 540              	.L25:
 541 00e0 00000000 		.word	0
 542 00e4 00408F40 		.word	1083129856
 543 00e8 0000C842 		.word	1120403456
 544 00ec 00000000 		.word	.LC0
 545 00f0 00000000 		.word	0
 546 00f4 13000000 		.word	.LC1
 547 00f8 22000000 		.word	.LC2
 548 00fc 31000000 		.word	.LC3
 549              	.LBE409:
 550              	.LBE414:
 551              		.cfi_endproc
 552              	.LFE4914:
 554              		.section	.text._ZN14GrannyChordApp20HandleEncoderPressedEv,"ax",%progbits
 555              		.align	1
 556              		.global	_ZN14GrannyChordApp20HandleEncoderPressedEv
 557              		.syntax unified
 558              		.thumb
 559              		.thumb_func
 561              	_ZN14GrannyChordApp20HandleEncoderPressedEv:
 562              	.LVL42:
 563              	.LFB4920:
  49:GrannyChordApp.cpp **** #endif
  50:GrannyChordApp.cpp **** 
  51:GrannyChordApp.cpp **** /// @brief Loops whilst app is running, updating state and UI, handling 
  52:GrannyChordApp.cpp **** ///        state transitions, updating parameters and managing audio recordings
  53:GrannyChordApp.cpp **** void GrannyChordApp::Run(){
  54:GrannyChordApp.cpp ****   pod_.seed.PrintLine("app is running");
  55:GrannyChordApp.cpp ****   // timer_.Start();
  56:GrannyChordApp.cpp ****   while(true){
  57:GrannyChordApp.cpp ****     // #ifdef DEBUG_MODE
  58:GrannyChordApp.cpp ****     // loop_count++;
  59:GrannyChordApp.cpp ****     // if (loop_count%2000000==0){
  60:GrannyChordApp.cpp ****     //   PrintCPULoad();
  61:GrannyChordApp.cpp ****     //   loop_count=0;
  62:GrannyChordApp.cpp ****     //   // System::Delay(500);
  63:GrannyChordApp.cpp ****     // }
  64:GrannyChordApp.cpp ****     // #endif
  65:GrannyChordApp.cpp **** 
  66:GrannyChordApp.cpp ****     if (recording_out_) {
  67:GrannyChordApp.cpp ****       sd_writer_.Write();
  68:GrannyChordApp.cpp ****       if (sd_writer_.GetLengthSeconds()>120){
  69:GrannyChordApp.cpp ****         sd_writer_.SaveFile();
  70:GrannyChordApp.cpp ****         recording_out_ = false;
  71:GrannyChordApp.cpp ****       }
  72:GrannyChordApp.cpp ****     }
  73:GrannyChordApp.cpp ****     UpdateUI();
  74:GrannyChordApp.cpp ****     UpdateSynthParams();
  75:GrannyChordApp.cpp ****     // System::Delay(1);
  76:GrannyChordApp.cpp ****   }
ARM GAS  /var/folders/2p/02m_5p7958535cp2tpgps0400000gn/T//cclqaeHn.s 			page 21


  77:GrannyChordApp.cpp **** }
  78:GrannyChordApp.cpp **** 
  79:GrannyChordApp.cpp **** /// @brief Handles hardware control inputs and calls state change methods
  80:GrannyChordApp.cpp **** void GrannyChordApp::UpdateUI(){
  81:GrannyChordApp.cpp ****   pod_.ProcessDigitalControls();
  82:GrannyChordApp.cpp **** 
  83:GrannyChordApp.cpp ****   if (pod_.encoder.TimeHeldMs() > 1000.0f) HandleEncoderLongPress();
  84:GrannyChordApp.cpp ****   else if (pod_.encoder.FallingEdge()) HandleEncoderPressed();
  85:GrannyChordApp.cpp **** 
  86:GrannyChordApp.cpp ****   if (curr_state_==AppState::Synthesis){
  87:GrannyChordApp.cpp ****     ButtonHandler();
  88:GrannyChordApp.cpp ****   }
  89:GrannyChordApp.cpp **** 
  90:GrannyChordApp.cpp ****   int32_t encoder_inc = pod_.encoder.Increment();
  91:GrannyChordApp.cpp ****   if (encoder_inc!=0){
  92:GrannyChordApp.cpp ****     HandleEncoderIncrement(encoder_inc);
  93:GrannyChordApp.cpp ****   }
  94:GrannyChordApp.cpp ****   if (curr_state_ != next_state_){
  95:GrannyChordApp.cpp ****     #ifdef DEBUG_MODE
  96:GrannyChordApp.cpp ****     DebugPrintState(curr_state_);
  97:GrannyChordApp.cpp ****     DebugPrint(pod_, "switching states");
  98:GrannyChordApp.cpp ****     DebugPrintState(next_state_);
  99:GrannyChordApp.cpp ****     #endif
 100:GrannyChordApp.cpp ****     SetLedAppState();
 101:GrannyChordApp.cpp ****     HandleStateChange();
 102:GrannyChordApp.cpp ****     DebugPrint(pod_, "handled state change");
 103:GrannyChordApp.cpp ****   }
 104:GrannyChordApp.cpp **** }
 105:GrannyChordApp.cpp **** 
 106:GrannyChordApp.cpp **** /// @brief handles transitions between states and prepares for next state
 107:GrannyChordApp.cpp **** void GrannyChordApp::HandleStateChange(){
 108:GrannyChordApp.cpp ****   switch(next_state_){
 109:GrannyChordApp.cpp ****     case AppState::SelectFile:
 110:GrannyChordApp.cpp ****       pod_.StopAudio();
 111:GrannyChordApp.cpp ****       DebugPrint(pod_, "stopped audio for select file");
 112:GrannyChordApp.cpp ****       curr_state_ = AppState::SelectFile;
 113:GrannyChordApp.cpp ****       break; 
 114:GrannyChordApp.cpp ****     case AppState::RecordIn:
 115:GrannyChordApp.cpp ****       InitRecordIn();
 116:GrannyChordApp.cpp ****       DebugPrint(pod_, "Recording in");
 117:GrannyChordApp.cpp ****       curr_state_ = AppState::RecordIn;  
 118:GrannyChordApp.cpp ****       break;
 119:GrannyChordApp.cpp ****     case AppState::PlayWAV:
 120:GrannyChordApp.cpp ****       InitPlayback(); 
 121:GrannyChordApp.cpp ****       DebugPrint(pod_,"starting playback");
 122:GrannyChordApp.cpp ****       curr_state_ = AppState::PlayWAV;
 123:GrannyChordApp.cpp ****       break;
 124:GrannyChordApp.cpp ****     case AppState::Synthesis:
 125:GrannyChordApp.cpp ****       InitSynth();
 126:GrannyChordApp.cpp ****       curr_state_ = AppState::Synthesis;
 127:GrannyChordApp.cpp ****       SetLedSynthMode();
 128:GrannyChordApp.cpp ****       DebugPrint(pod_, "started audiocallback");
 129:GrannyChordApp.cpp ****       break;
 130:GrannyChordApp.cpp ****     case AppState::Error: 
 131:GrannyChordApp.cpp ****       curr_state_ = AppState::Error;
 132:GrannyChordApp.cpp ****       break;
 133:GrannyChordApp.cpp ****     default: 
ARM GAS  /var/folders/2p/02m_5p7958535cp2tpgps0400000gn/T//cclqaeHn.s 			page 22


 134:GrannyChordApp.cpp ****       break;
 135:GrannyChordApp.cpp ****   }
 136:GrannyChordApp.cpp **** }
 137:GrannyChordApp.cpp **** 
 138:GrannyChordApp.cpp **** /// @brief Handles when encoder is scrolled to select a file 
 139:GrannyChordApp.cpp **** /// @param encoder_inc amount the encoder has been scrolled/incremented
 140:GrannyChordApp.cpp **** void GrannyChordApp::HandleEncoderIncrement(int encoder_inc){
 141:GrannyChordApp.cpp ****   if (next_state_== AppState::SelectFile){
 142:GrannyChordApp.cpp ****     recorded_in_ = false;
 143:GrannyChordApp.cpp ****     HandleFileSelection(encoder_inc);
 144:GrannyChordApp.cpp ****   }
 145:GrannyChordApp.cpp ****   else if (curr_state_==AppState::PlayWAV){
 146:GrannyChordApp.cpp ****     recorded_in_ = false;
 147:GrannyChordApp.cpp ****     next_state_ = AppState::SelectFile;
 148:GrannyChordApp.cpp ****   }
 149:GrannyChordApp.cpp **** }
 150:GrannyChordApp.cpp **** 
 151:GrannyChordApp.cpp **** /// @brief handles when the encoder is pressed down (not held)
 152:GrannyChordApp.cpp **** void GrannyChordApp::HandleEncoderPressed(){
 564              		.loc 3 152 44 is_stmt 1 view -0
 565              		.cfi_startproc
 566              		@ args = 0, pretend = 0, frame = 0
 567              		@ frame_needed = 0, uses_anonymous_args = 0
 568              		@ link register save eliminated.
 153:GrannyChordApp.cpp ****   switch(curr_state_){
 569              		.loc 3 153 3 view .LVU140
 570              		.loc 3 153 10 is_stmt 0 view .LVU141
 571 0000 D0F89432 		ldr	r3, [r0, #660]
 572              		.loc 3 153 3 view .LVU142
 573 0004 012B     		cmp	r3, #1
 574 0006 0CD0     		beq	.L28
 575 0008 032B     		cmp	r3, #3
 576 000a 04D0     		beq	.L29
 577 000c 13B9     		cbnz	r3, .L27
 154:GrannyChordApp.cpp ****     case AppState::SelectFile:
 578              		.loc 3 154 5 is_stmt 1 view .LVU143
 155:GrannyChordApp.cpp ****       next_state_ = AppState::PlayWAV;
 579              		.loc 3 155 7 view .LVU144
 580              		.loc 3 155 19 is_stmt 0 view .LVU145
 581 000e 0123     		movs	r3, #1
 582              	.L31:
 156:GrannyChordApp.cpp ****       return;
 157:GrannyChordApp.cpp ****     case AppState::RecordIn: 
 158:GrannyChordApp.cpp ****       recorded_in_ = true;
 159:GrannyChordApp.cpp ****       next_state_ = AppState::PlayWAV; 
 160:GrannyChordApp.cpp ****       return;
 161:GrannyChordApp.cpp ****     case AppState::PlayWAV:
 162:GrannyChordApp.cpp ****       next_state_ = AppState::Synthesis;
 583              		.loc 3 162 19 view .LVU146
 584 0010 C0F89832 		str	r3, [r0, #664]
 163:GrannyChordApp.cpp ****       return;
 585              		.loc 3 163 7 is_stmt 1 view .LVU147
 586              	.L27:
 164:GrannyChordApp.cpp ****     default:
 165:GrannyChordApp.cpp ****       return;
 166:GrannyChordApp.cpp ****   }
 167:GrannyChordApp.cpp **** }
ARM GAS  /var/folders/2p/02m_5p7958535cp2tpgps0400000gn/T//cclqaeHn.s 			page 23


 587              		.loc 3 167 1 is_stmt 0 view .LVU148
 588 0014 7047     		bx	lr
 589              	.L29:
 157:GrannyChordApp.cpp ****       recorded_in_ = true;
 590              		.loc 3 157 5 is_stmt 1 view .LVU149
 158:GrannyChordApp.cpp ****       next_state_ = AppState::PlayWAV; 
 591              		.loc 3 158 7 view .LVU150
 158:GrannyChordApp.cpp ****       next_state_ = AppState::PlayWAV; 
 592              		.loc 3 158 20 is_stmt 0 view .LVU151
 593 0016 00F55042 		add	r2, r0, #53248
 594 001a 0123     		movs	r3, #1
 595 001c 82F80832 		strb	r3, [r2, #520]
 159:GrannyChordApp.cpp ****       return;
 596              		.loc 3 159 7 is_stmt 1 view .LVU152
 597 0020 F6E7     		b	.L31
 598              	.L28:
 161:GrannyChordApp.cpp ****       next_state_ = AppState::Synthesis;
 599              		.loc 3 161 5 view .LVU153
 162:GrannyChordApp.cpp ****       return;
 600              		.loc 3 162 7 view .LVU154
 162:GrannyChordApp.cpp ****       return;
 601              		.loc 3 162 19 is_stmt 0 view .LVU155
 602 0022 0223     		movs	r3, #2
 603 0024 F4E7     		b	.L31
 604              		.cfi_endproc
 605              	.LFE4920:
 607              		.section	.text._ZN14GrannyChordApp22HandleEncoderLongPressEv,"ax",%progbits
 608              		.align	1
 609              		.global	_ZN14GrannyChordApp22HandleEncoderLongPressEv
 610              		.syntax unified
 611              		.thumb
 612              		.thumb_func
 614              	_ZN14GrannyChordApp22HandleEncoderLongPressEv:
 615              	.LVL43:
 616              	.LFB4921:
 168:GrannyChordApp.cpp **** 
 169:GrannyChordApp.cpp **** /// @brief switch between states by long pressing encoder.
 170:GrannyChordApp.cpp **** ///        much simpler than below!
 171:GrannyChordApp.cpp **** void GrannyChordApp::HandleEncoderLongPress(){
 617              		.loc 3 171 46 is_stmt 1 view -0
 618              		.cfi_startproc
 619              		@ args = 0, pretend = 0, frame = 0
 620              		@ frame_needed = 0, uses_anonymous_args = 0
 621              		.loc 3 171 46 is_stmt 0 view .LVU157
 622 0000 10B5     		push	{r4, lr}
 623              		.cfi_def_cfa_offset 8
 624              		.cfi_offset 4, -8
 625              		.cfi_offset 14, -4
 626 0002 0446     		mov	r4, r0
 627              	.LVL44:
 628              	.L38:
 172:GrannyChordApp.cpp ****   do { pod_.encoder.Debounce();  }
 629              		.loc 3 172 3 is_stmt 1 view .LVU158
 630              		.loc 3 172 8 view .LVU159
 631              		.loc 3 172 29 is_stmt 0 view .LVU160
 632 0004 E069     		ldr	r0, [r4, #28]
 633 0006 4030     		adds	r0, r0, #64
ARM GAS  /var/folders/2p/02m_5p7958535cp2tpgps0400000gn/T//cclqaeHn.s 			page 24


 634 0008 FFF7FEFF 		bl	_ZN5daisy7Encoder8DebounceEv
 635              	.LVL45:
 173:GrannyChordApp.cpp ****   while(!pod_.encoder.FallingEdge());
 636              		.loc 3 173 9 is_stmt 1 view .LVU161
 637              		.loc 3 173 10 is_stmt 0 view .LVU162
 638 000c E369     		ldr	r3, [r4, #28]
 639              	.LVL46:
 640              	.LBB419:
 641              	.LBI419:
 642              		.file 7 "../libDaisy/src/hid/encoder.h"
   1:../libDaisy/src/hid/encoder.h **** #pragma once
   2:../libDaisy/src/hid/encoder.h **** #ifndef DSY_ENCODER_H
   3:../libDaisy/src/hid/encoder.h **** #define DSY_ENCODER_H
   4:../libDaisy/src/hid/encoder.h **** #include "daisy_core.h"
   5:../libDaisy/src/hid/encoder.h **** #include "per/gpio.h"
   6:../libDaisy/src/hid/encoder.h **** #include "hid/switch.h"
   7:../libDaisy/src/hid/encoder.h **** 
   8:../libDaisy/src/hid/encoder.h **** namespace daisy
   9:../libDaisy/src/hid/encoder.h **** {
  10:../libDaisy/src/hid/encoder.h **** /** 
  11:../libDaisy/src/hid/encoder.h ****     @brief Generic Class for handling Quadrature Encoders \n 
  12:../libDaisy/src/hid/encoder.h ****     Inspired/influenced by Mutable Instruments (pichenettes) Encoder classes
  13:../libDaisy/src/hid/encoder.h ****     @author Stephen Hensley
  14:../libDaisy/src/hid/encoder.h ****     @date December 2019
  15:../libDaisy/src/hid/encoder.h ****     @ingroup controls
  16:../libDaisy/src/hid/encoder.h **** */
  17:../libDaisy/src/hid/encoder.h **** class Encoder
  18:../libDaisy/src/hid/encoder.h **** {
  19:../libDaisy/src/hid/encoder.h ****   public:
  20:../libDaisy/src/hid/encoder.h ****     Encoder() {}
  21:../libDaisy/src/hid/encoder.h ****     ~Encoder() {}
  22:../libDaisy/src/hid/encoder.h **** 
  23:../libDaisy/src/hid/encoder.h ****     /** Initializes the encoder with the specified hardware pins.
  24:../libDaisy/src/hid/encoder.h ****      * Update rate is to be deprecated in a future release
  25:../libDaisy/src/hid/encoder.h ****      */
  26:../libDaisy/src/hid/encoder.h ****     void Init(dsy_gpio_pin a,
  27:../libDaisy/src/hid/encoder.h ****               dsy_gpio_pin b,
  28:../libDaisy/src/hid/encoder.h ****               dsy_gpio_pin click,
  29:../libDaisy/src/hid/encoder.h ****               float        update_rate = 0.f);
  30:../libDaisy/src/hid/encoder.h ****     /** Called at update_rate to debounce and handle timing for the switch.
  31:../libDaisy/src/hid/encoder.h ****      * In order for events not to be missed, its important that the Edge/Pressed checks be made at 
  32:../libDaisy/src/hid/encoder.h ****      */
  33:../libDaisy/src/hid/encoder.h ****     void Debounce();
  34:../libDaisy/src/hid/encoder.h **** 
  35:../libDaisy/src/hid/encoder.h ****     /** Returns +1 if the encoder was turned clockwise, -1 if it was turned counter-clockwise, or 0
  36:../libDaisy/src/hid/encoder.h ****     inline int32_t Increment() const { return updated_ ? inc_ : 0; }
  37:../libDaisy/src/hid/encoder.h **** 
  38:../libDaisy/src/hid/encoder.h ****     /** Returns true if the encoder was just pressed. */
  39:../libDaisy/src/hid/encoder.h ****     inline bool RisingEdge() const { return sw_.RisingEdge(); }
  40:../libDaisy/src/hid/encoder.h **** 
  41:../libDaisy/src/hid/encoder.h ****     /** Returns true if the encoder was just released. */
  42:../libDaisy/src/hid/encoder.h ****     inline bool FallingEdge() const { return sw_.FallingEdge(); }
 643              		.loc 7 42 17 is_stmt 1 view .LVU163
 644              	.LBE419:
 645              		.loc 7 42 39 view .LVU164
 646              	.LBB422:
 647              	.LBB420:
ARM GAS  /var/folders/2p/02m_5p7958535cp2tpgps0400000gn/T//cclqaeHn.s 			page 25


 648              	.LBI420:
  73:../libDaisy/src/hid/switch.h ****     {
 649              		.loc 1 73 17 view .LVU165
 650              	.LBB421:
  75:../libDaisy/src/hid/switch.h ****     }
 651              		.loc 1 75 9 view .LVU166
  75:../libDaisy/src/hid/switch.h ****     }
 652              		.loc 1 75 25 is_stmt 0 view .LVU167
 653 000e 93F84C20 		ldrb	r2, [r3, #76]	@ zero_extendqisi2
 654 0012 002A     		cmp	r2, #0
 655 0014 F6D0     		beq	.L38
 656              	.LVL47:
  75:../libDaisy/src/hid/switch.h ****     }
 657              		.loc 1 75 25 view .LVU168
 658              	.LBE421:
 659              	.LBE420:
 660              	.LBE422:
 661              		.loc 3 173 9 view .LVU169
 662 0016 93F85230 		ldrb	r3, [r3, #82]	@ zero_extendqisi2
 663 001a 802B     		cmp	r3, #128
 664 001c F2D1     		bne	.L38
 174:GrannyChordApp.cpp ****   switch(curr_state_){
 665              		.loc 3 174 3 is_stmt 1 view .LVU170
 666              		.loc 3 174 10 is_stmt 0 view .LVU171
 667 001e D4F89432 		ldr	r3, [r4, #660]
 668              		.loc 3 174 3 view .LVU172
 669 0022 012B     		cmp	r3, #1
 670 0024 08DC     		bgt	.L34
 671 0026 002B     		cmp	r3, #0
 672 0028 0CDB     		blt	.L32
 175:GrannyChordApp.cpp ****     case AppState::Synthesis:
 176:GrannyChordApp.cpp ****     case AppState::RecordIn:  
 177:GrannyChordApp.cpp ****       next_state_ = AppState::SelectFile;
 178:GrannyChordApp.cpp ****       return;
 179:GrannyChordApp.cpp ****     case AppState::SelectFile:
 673              		.loc 3 179 5 is_stmt 1 view .LVU173
 180:GrannyChordApp.cpp ****     case AppState::PlayWAV: 
 674              		.loc 3 180 5 view .LVU174
 181:GrannyChordApp.cpp ****       recorded_in_ = true;
 675              		.loc 3 181 7 view .LVU175
 676              		.loc 3 181 20 is_stmt 0 view .LVU176
 677 002a 04F55043 		add	r3, r4, #53248
 678 002e 0122     		movs	r2, #1
 679 0030 83F80822 		strb	r2, [r3, #520]
 182:GrannyChordApp.cpp ****       next_state_ = AppState::RecordIn;  
 680              		.loc 3 182 7 is_stmt 1 view .LVU177
 681              		.loc 3 182 19 is_stmt 0 view .LVU178
 682 0034 0323     		movs	r3, #3
 683 0036 03E0     		b	.L40
 684              	.L34:
 174:GrannyChordApp.cpp ****     case AppState::Synthesis:
 685              		.loc 3 174 3 view .LVU179
 686 0038 023B     		subs	r3, r3, #2
 687 003a 012B     		cmp	r3, #1
 688 003c 02D8     		bhi	.L32
 175:GrannyChordApp.cpp ****     case AppState::RecordIn:  
 689              		.loc 3 175 5 is_stmt 1 view .LVU180
ARM GAS  /var/folders/2p/02m_5p7958535cp2tpgps0400000gn/T//cclqaeHn.s 			page 26


 176:GrannyChordApp.cpp ****       next_state_ = AppState::SelectFile;
 690              		.loc 3 176 5 view .LVU181
 177:GrannyChordApp.cpp ****       return;
 691              		.loc 3 177 7 view .LVU182
 177:GrannyChordApp.cpp ****       return;
 692              		.loc 3 177 19 is_stmt 0 view .LVU183
 693 003e 0023     		movs	r3, #0
 694              	.L40:
 695              		.loc 3 182 19 view .LVU184
 696 0040 C4F89832 		str	r3, [r4, #664]
 183:GrannyChordApp.cpp ****       return;
 697              		.loc 3 183 7 is_stmt 1 view .LVU185
 698              	.L32:
 184:GrannyChordApp.cpp ****     default:
 185:GrannyChordApp.cpp ****       return;
 186:GrannyChordApp.cpp ****   }
 187:GrannyChordApp.cpp **** }
 699              		.loc 3 187 1 is_stmt 0 view .LVU186
 700 0044 10BD     		pop	{r4, pc}
 701              		.loc 3 187 1 view .LVU187
 702              		.cfi_endproc
 703              	.LFE4921:
 705              		.section	.text._ZN14GrannyChordApp22HandleButton2LongPressEv,"ax",%progbits
 706              		.align	1
 707              		.global	_ZN14GrannyChordApp22HandleButton2LongPressEv
 708              		.syntax unified
 709              		.thumb
 710              		.thumb_func
 712              	_ZN14GrannyChordApp22HandleButton2LongPressEv:
 713              	.LVL48:
 714              	.LFB4926:
 188:GrannyChordApp.cpp **** 
 189:GrannyChordApp.cpp **** /* this logic is required for button long presses:
 190:GrannyChordApp.cpp ****   the button update rate is extremely fast so without
 191:GrannyChordApp.cpp ****   a debounce delay, the method eg HandleButton1LongPress 
 192:GrannyChordApp.cpp ****   will be called many 1000s of times per second 
 193:GrannyChordApp.cpp ****   once time held > 1000ms, causing issues */
 194:GrannyChordApp.cpp **** void GrannyChordApp::ButtonHandler(){
 195:GrannyChordApp.cpp ****   unsigned long time_now = System::GetNow();
 196:GrannyChordApp.cpp ****   /* only check button events if there's been a gap between them */
 197:GrannyChordApp.cpp ****   if (time_now - last_action_time_ < DEBOUNCE_DELAY) {
 198:GrannyChordApp.cpp ****     return;
 199:GrannyChordApp.cpp ****   }
 200:GrannyChordApp.cpp **** 
 201:GrannyChordApp.cpp ****   /* store whether button 1 has been pressed down initiall*/
 202:GrannyChordApp.cpp ****   if (pod_.button1.RisingEdge()){
 203:GrannyChordApp.cpp ****     last_action_time_ = time_now;
 204:GrannyChordApp.cpp ****     btn1_long_press_fired_ = false;
 205:GrannyChordApp.cpp ****   }
 206:GrannyChordApp.cpp ****   
 207:GrannyChordApp.cpp ****   /* handle case when button 1 is held down */
 208:GrannyChordApp.cpp ****   if (pod_.button1.Pressed()){
 209:GrannyChordApp.cpp ****     float held_time = pod_.button1.TimeHeldMs();
 210:GrannyChordApp.cpp ****     if (held_time > LONG_PRESS_TIME && !btn1_long_press_fired_){
 211:GrannyChordApp.cpp ****       HandleButton1LongPress();
 212:GrannyChordApp.cpp ****       btn1_long_press_fired_ = true;
 213:GrannyChordApp.cpp ****       last_action_time_ = time_now;
ARM GAS  /var/folders/2p/02m_5p7958535cp2tpgps0400000gn/T//cclqaeHn.s 			page 27


 214:GrannyChordApp.cpp ****     }
 215:GrannyChordApp.cpp ****   }
 216:GrannyChordApp.cpp ****   
 217:GrannyChordApp.cpp ****   /* handle case when button 1 is released */
 218:GrannyChordApp.cpp ****   if (pod_.button1.FallingEdge()){
 219:GrannyChordApp.cpp ****     if (!btn1_long_press_fired_){
 220:GrannyChordApp.cpp ****       HandleButton1();
 221:GrannyChordApp.cpp ****     }
 222:GrannyChordApp.cpp ****     last_action_time_ = time_now;
 223:GrannyChordApp.cpp ****     btn1_long_press_fired_ = false;
 224:GrannyChordApp.cpp ****   }
 225:GrannyChordApp.cpp **** 
 226:GrannyChordApp.cpp ****   /* store whether button 2 has been pressed down initially */
 227:GrannyChordApp.cpp ****   if (pod_.button2.RisingEdge()){
 228:GrannyChordApp.cpp ****     last_action_time_ = time_now;
 229:GrannyChordApp.cpp ****     btn2_long_press_fired_ = false;
 230:GrannyChordApp.cpp ****   }
 231:GrannyChordApp.cpp ****   
 232:GrannyChordApp.cpp ****   /* handle case when button 2 is held */
 233:GrannyChordApp.cpp ****   if (pod_.button2.Pressed()){
 234:GrannyChordApp.cpp ****     float held_time = pod_.button2.TimeHeldMs();
 235:GrannyChordApp.cpp ****     if (held_time > LONG_PRESS_TIME && !btn2_long_press_fired_){
 236:GrannyChordApp.cpp ****       HandleButton2LongPress();
 237:GrannyChordApp.cpp ****       btn2_long_press_fired_ = true;
 238:GrannyChordApp.cpp ****       last_action_time_ = time_now;
 239:GrannyChordApp.cpp ****     }
 240:GrannyChordApp.cpp ****   }
 241:GrannyChordApp.cpp ****   
 242:GrannyChordApp.cpp ****   /* handle case when button2 is released */
 243:GrannyChordApp.cpp ****   if (pod_.button2.FallingEdge()){
 244:GrannyChordApp.cpp ****     if (!btn2_long_press_fired_){
 245:GrannyChordApp.cpp ****       HandleButton2();
 246:GrannyChordApp.cpp ****     }
 247:GrannyChordApp.cpp ****     last_action_time_ = time_now;
 248:GrannyChordApp.cpp ****     btn2_long_press_fired_ = false;
 249:GrannyChordApp.cpp ****   }
 250:GrannyChordApp.cpp **** 
 251:GrannyChordApp.cpp ****   /* handle case when both buttons are held down */
 252:GrannyChordApp.cpp ****   if (pod_.button1.Pressed() && pod_.button2.Pressed()){
 253:GrannyChordApp.cpp ****     float heldTime1 = pod_.button1.TimeHeldMs();
 254:GrannyChordApp.cpp ****     float heldTime2 = pod_.button2.TimeHeldMs();
 255:GrannyChordApp.cpp ****     if (heldTime1 > LONG_PRESS_TIME &&
 256:GrannyChordApp.cpp ****         heldTime2 > LONG_PRESS_TIME &&
 257:GrannyChordApp.cpp ****         !both_btns_long_press_fired_) 
 258:GrannyChordApp.cpp ****     {
 259:GrannyChordApp.cpp ****       if (!recording_out_){
 260:GrannyChordApp.cpp ****         pod_.seed.SetLed(1);
 261:GrannyChordApp.cpp ****         recording_out_ = true;
 262:GrannyChordApp.cpp ****         DebugPrint(pod_,"now recording out!");
 263:GrannyChordApp.cpp ****         RecordOutToSD();
 264:GrannyChordApp.cpp ****       } 
 265:GrannyChordApp.cpp ****       else{
 266:GrannyChordApp.cpp ****         pod_.seed.SetLed(0);
 267:GrannyChordApp.cpp ****         DebugPrint(pod_, "finished recording out: %.2fs",sd_writer_.GetLengthSeconds());
 268:GrannyChordApp.cpp ****         FinishRecording();
 269:GrannyChordApp.cpp ****       }
 270:GrannyChordApp.cpp ****       both_btns_long_press_fired_ = true;
ARM GAS  /var/folders/2p/02m_5p7958535cp2tpgps0400000gn/T//cclqaeHn.s 			page 28


 271:GrannyChordApp.cpp ****       last_action_time_ = time_now;
 272:GrannyChordApp.cpp ****     }
 273:GrannyChordApp.cpp ****   } 
 274:GrannyChordApp.cpp ****   else{
 275:GrannyChordApp.cpp ****     both_btns_long_press_fired_ = false;
 276:GrannyChordApp.cpp ****   }
 277:GrannyChordApp.cpp **** }
 278:GrannyChordApp.cpp **** 
 279:GrannyChordApp.cpp **** /// @brief Switch between synth parameter control modes
 280:GrannyChordApp.cpp **** void GrannyChordApp::HandleButton1(){
 281:GrannyChordApp.cpp ****   NextSynthMode();
 282:GrannyChordApp.cpp **** }
 283:GrannyChordApp.cpp **** 
 284:GrannyChordApp.cpp **** /// @brief Toggles on/off synth parameter randomness controls
 285:GrannyChordApp.cpp **** void GrannyChordApp::HandleButton2(){
 286:GrannyChordApp.cpp ****     PrevSynthMode();
 287:GrannyChordApp.cpp **** }
 288:GrannyChordApp.cpp **** 
 289:GrannyChordApp.cpp **** /// @brief Switches between controlling regular parameter modes and FX parameter modes
 290:GrannyChordApp.cpp **** void GrannyChordApp::HandleButton1LongPress(){
 291:GrannyChordApp.cpp ****   int mode_idx = static_cast<int>(curr_synth_mode_);
 292:GrannyChordApp.cpp ****   if (mode_idx<4) mode_idx = 4;
 293:GrannyChordApp.cpp ****   else mode_idx = 0;
 294:GrannyChordApp.cpp ****   curr_synth_mode_ = static_cast<SynthMode>(mode_idx);
 295:GrannyChordApp.cpp ****   SetLedSynthMode();
 296:GrannyChordApp.cpp **** }
 297:GrannyChordApp.cpp **** 
 298:GrannyChordApp.cpp **** /// @brief Switches to Chord Mode
 299:GrannyChordApp.cpp **** void GrannyChordApp::HandleButton2LongPress(){
 715              		.loc 3 299 46 is_stmt 1 view -0
 716              		.cfi_startproc
 717              		@ args = 0, pretend = 0, frame = 0
 718              		@ frame_needed = 0, uses_anonymous_args = 0
 719              		@ link register save eliminated.
 300:GrannyChordApp.cpp ****   // TODO: RECORD OUT? 
 301:GrannyChordApp.cpp **** }
 720              		.loc 3 301 1 is_stmt 0 view .LVU189
 721 0000 7047     		bx	lr
 722              		.cfi_endproc
 723              	.LFE4926:
 725              		.section	.rodata._ZN14GrannyChordApp19HandleFileSelectionEl.str1.1,"aMS",%progbits,1
 726              	.LC4:
 727 0000 73656C65 		.ascii	"selected file %d %s\000"
 727      63746564 
 727      2066696C 
 727      65202564 
 727      20257300 
 728              		.section	.text._ZN14GrannyChordApp19HandleFileSelectionEl,"ax",%progbits
 729              		.align	1
 730              		.global	_ZN14GrannyChordApp19HandleFileSelectionEl
 731              		.syntax unified
 732              		.thumb
 733              		.thumb_func
 735              	_ZN14GrannyChordApp19HandleFileSelectionEl:
 736              	.LVL49:
 737              	.LFB4927:
 302:GrannyChordApp.cpp **** 
ARM GAS  /var/folders/2p/02m_5p7958535cp2tpgps0400000gn/T//cclqaeHn.s 			page 29


 303:GrannyChordApp.cpp **** /// @brief Scrolls through list of files for user selection
 304:GrannyChordApp.cpp **** void GrannyChordApp::HandleFileSelection(int32_t encoder_inc){
 738              		.loc 3 304 62 is_stmt 1 view -0
 739              		.cfi_startproc
 740              		@ args = 0, pretend = 0, frame = 0
 741              		@ frame_needed = 0, uses_anonymous_args = 0
 305:GrannyChordApp.cpp ****   int file_count = filemgr_.GetFileCount();
 742              		.loc 3 305 3 view .LVU191
 304:GrannyChordApp.cpp ****   int file_count = filemgr_.GetFileCount();
 743              		.loc 3 304 62 is_stmt 0 view .LVU192
 744 0000 38B5     		push	{r3, r4, r5, lr}
 745              		.cfi_def_cfa_offset 16
 746              		.cfi_offset 3, -16
 747              		.cfi_offset 4, -12
 748              		.cfi_offset 5, -8
 749              		.cfi_offset 14, -4
 750              		.loc 3 305 20 view .LVU193
 751 0002 D0F88C32 		ldr	r3, [r0, #652]
 752              	.LVL50:
 753              	.LBB423:
 754              	.LBI423:
 755              		.file 8 "AudioFileManager.h"
   1:AudioFileManager.h **** #pragma once
   2:AudioFileManager.h **** #include <stdio.h>
   3:AudioFileManager.h **** #include <stdint.h>
   4:AudioFileManager.h **** #include <vector>
   5:AudioFileManager.h **** #include "daisy_pod.h"
   6:AudioFileManager.h **** #include "constants_utils.h"
   7:AudioFileManager.h **** #include "debug_print.h"
   8:AudioFileManager.h **** 
   9:AudioFileManager.h **** using namespace daisy; 
  10:AudioFileManager.h **** 
  11:AudioFileManager.h **** class AudioFileManager {
  12:AudioFileManager.h ****   public:
  13:AudioFileManager.h ****     AudioFileManager(SdmmcHandler &sd, FatFSInterface &fsi, DaisyPod &pod, FIL *file)
  14:AudioFileManager.h ****       : sd_(sd), fsi_(fsi), pod_(pod), curr_file_(file), 
  15:AudioFileManager.h ****         left_buf_(nullptr), right_buf_(nullptr) {};
  16:AudioFileManager.h ****     
  17:AudioFileManager.h ****     bool Init();
  18:AudioFileManager.h ****     bool ScanWavFiles();
  19:AudioFileManager.h ****     void SetBuffers(int16_t *left, int16_t *right);
  20:AudioFileManager.h ****     bool LoadFile(uint16_t file_idx);
  21:AudioFileManager.h ****     
  22:AudioFileManager.h ****     bool CloseFile();
  23:AudioFileManager.h ****     bool GetWavHeader(FIL *file);
  24:AudioFileManager.h **** 
  25:AudioFileManager.h ****     int16_t* GetLeftBuffer() const { return left_buf_; }
  26:AudioFileManager.h ****     int16_t* GetRightBuffer() const { return right_buf_; }
  27:AudioFileManager.h ****     size_t GetSamplesPerChannel() const { return header_.total_samples / header_.channels; }
  28:AudioFileManager.h ****     size_t GetTotalSamples() const { return header_.total_samples; }
  29:AudioFileManager.h ****     int16_t GetNumChannels() const { return header_.channels; }
  30:AudioFileManager.h ****     uint16_t GetFileCount() const { return file_count_; }
 756              		.loc 8 30 14 is_stmt 1 view .LVU194
 757              	.LBB424:
 758              		.loc 8 30 37 view .LVU195
 759              		.loc 8 30 37 is_stmt 0 view .LVU196
 760              	.LBE424:
ARM GAS  /var/folders/2p/02m_5p7958535cp2tpgps0400000gn/T//cclqaeHn.s 			page 30


 761              	.LBE423:
 306:GrannyChordApp.cpp ****   file_idx_ = (file_idx_ + encoder_inc + file_count) % file_count;
 762              		.loc 3 306 16 view .LVU197
 763 0006 00F58045 		add	r5, r0, #16384
 764              	.LBB426:
 765              	.LBB425:
 766              		.loc 8 30 44 view .LVU198
 767 000a 03F58052 		add	r2, r3, #4096
 768              	.LBE425:
 769              	.LBE426:
 770              		.loc 3 306 26 view .LVU199
 771 000e D5F8C84E 		ldr	r4, [r5, #3784]
 305:GrannyChordApp.cpp ****   file_idx_ = (file_idx_ + encoder_inc + file_count) % file_count;
 772              		.loc 3 305 42 view .LVU200
 773 0012 D28B     		ldrh	r2, [r2, #30]
 774              	.LVL51:
 775              		.loc 3 306 3 is_stmt 1 view .LVU201
 776              		.loc 3 306 26 is_stmt 0 view .LVU202
 777 0014 2144     		add	r1, r1, r4
 778              	.LVL52:
 779              		.loc 3 306 40 view .LVU203
 780 0016 8C18     		adds	r4, r1, r2
 781              		.loc 3 306 54 view .LVU204
 782 0018 94FBF2F1 		sdiv	r1, r4, r2
 783 001c 02FB1144 		mls	r4, r2, r1, r4
 307:GrannyChordApp.cpp ****   filemgr_.GetName(file_idx_,fname_);
 784              		.loc 3 307 30 view .LVU205
 785 0020 00F59D42 		add	r2, r0, #20096
 786              	.LVL53:
 787              	.LBB427:
 788              	.LBB428:
  31:AudioFileManager.h ****     void GetName(uint16_t idx, char* name) const { strcpy(name, names_[idx]); }
 789              		.loc 8 31 75 view .LVU206
 790 0024 A1B2     		uxth	r1, r4
 791              	.LBE428:
 792              	.LBE427:
 793              		.loc 3 307 30 view .LVU207
 794 0026 5432     		adds	r2, r2, #84
 306:GrannyChordApp.cpp ****   filemgr_.GetName(file_idx_,fname_);
 795              		.loc 3 306 13 view .LVU208
 796 0028 C5F8C84E 		str	r4, [r5, #3784]
 797              		.loc 3 307 3 is_stmt 1 view .LVU209
 798              	.LVL54:
 799              	.LBB431:
 800              	.LBI427:
 801              		.loc 8 31 10 view .LVU210
 802              	.LBB429:
 803              		.loc 8 31 52 view .LVU211
 804              		.loc 8 31 75 is_stmt 0 view .LVU212
 805 002c 03EBC111 		add	r1, r3, r1, lsl #7
 806              		.loc 8 31 58 view .LVU213
 807 0030 1046     		mov	r0, r2
 808              	.LVL55:
 809              		.loc 8 31 58 view .LVU214
 810 0032 1C31     		adds	r1, r1, #28
 811 0034 FFF7FEFF 		bl	strcpy
 812              	.LVL56:
ARM GAS  /var/folders/2p/02m_5p7958535cp2tpgps0400000gn/T//cclqaeHn.s 			page 31


 813              		.loc 8 31 58 view .LVU215
 814              	.LBE429:
 815              	.LBE431:
 816              	.LBB432:
 817              	.LBB433:
 818              		.loc 5 128 23 view .LVU216
 819 0038 2146     		mov	r1, r4
 820              	.LBE433:
 821              	.LBE432:
 822              	.LBB436:
 823              	.LBB430:
 824              		.loc 8 31 58 view .LVU217
 825 003a 0246     		mov	r2, r0
 826              	.LVL57:
 827              		.loc 8 31 58 view .LVU218
 828              	.LBE430:
 829              	.LBE436:
 308:GrannyChordApp.cpp ****   DebugPrint(pod_, "selected file %d %s",file_idx_,fname_);
 830              		.loc 3 308 3 is_stmt 1 view .LVU219
 831              		.loc 3 308 3 view .LVU220
 832              	.LBB437:
 833              	.LBI432:
 126:../libDaisy/src/daisy_seed.h ****     {
 834              		.loc 5 126 17 view .LVU221
 835              	.LBB434:
 836              		.loc 5 128 23 is_stmt 0 view .LVU222
 837 003c 0248     		ldr	r0, .L43
 838              	.LVL58:
 839              		.loc 5 128 23 view .LVU223
 840              	.LBE434:
 841              	.LBE437:
 309:GrannyChordApp.cpp **** }
 842              		.loc 3 309 1 view .LVU224
 843 003e BDE83840 		pop	{r3, r4, r5, lr}
 844              		.cfi_restore 14
 845              		.cfi_restore 5
 846              		.cfi_restore 4
 847              		.cfi_restore 3
 848              		.cfi_def_cfa_offset 0
 849              	.LVL59:
 850              	.LBB438:
 851              	.LBB435:
 852              		.loc 5 128 23 view .LVU225
 853 0042 FFF7FEBF 		b	_ZN5daisy6LoggerILNS_17LoggerDestinationE1EE9PrintLineEPKcz
 854              	.LVL60:
 855              	.L44:
 856              		.loc 5 128 23 view .LVU226
 857 0046 00BF     		.align	2
 858              	.L43:
 859 0048 00000000 		.word	.LC4
 860              	.LBE435:
 861              	.LBE438:
 862              		.cfi_endproc
 863              	.LFE4927:
 865              		.section	.text._ZN14GrannyChordApp22HandleEncoderIncrementEi,"ax",%progbits
 866              		.align	1
 867              		.global	_ZN14GrannyChordApp22HandleEncoderIncrementEi
ARM GAS  /var/folders/2p/02m_5p7958535cp2tpgps0400000gn/T//cclqaeHn.s 			page 32


 868              		.syntax unified
 869              		.thumb
 870              		.thumb_func
 872              	_ZN14GrannyChordApp22HandleEncoderIncrementEi:
 873              	.LVL61:
 874              	.LFB4919:
 140:GrannyChordApp.cpp ****   if (next_state_== AppState::SelectFile){
 875              		.loc 3 140 61 is_stmt 1 view -0
 876              		.cfi_startproc
 877              		@ args = 0, pretend = 0, frame = 0
 878              		@ frame_needed = 0, uses_anonymous_args = 0
 879              		@ link register save eliminated.
 141:GrannyChordApp.cpp ****     recorded_in_ = false;
 880              		.loc 3 141 3 view .LVU228
 881 0000 D0F89822 		ldr	r2, [r0, #664]
 882 0004 2AB9     		cbnz	r2, .L46
 142:GrannyChordApp.cpp ****     HandleFileSelection(encoder_inc);
 883              		.loc 3 142 5 view .LVU229
 142:GrannyChordApp.cpp ****     HandleFileSelection(encoder_inc);
 884              		.loc 3 142 18 is_stmt 0 view .LVU230
 885 0006 00F55043 		add	r3, r0, #53248
 886 000a 83F80822 		strb	r2, [r3, #520]
 143:GrannyChordApp.cpp ****   }
 887              		.loc 3 143 5 is_stmt 1 view .LVU231
 143:GrannyChordApp.cpp ****   }
 888              		.loc 3 143 24 is_stmt 0 view .LVU232
 889 000e FFF7FEBF 		b	_ZN14GrannyChordApp19HandleFileSelectionEl
 890              	.LVL62:
 891              	.L46:
 892              	.LBB441:
 893              	.LBI441:
 140:GrannyChordApp.cpp ****   if (next_state_== AppState::SelectFile){
 894              		.loc 3 140 6 is_stmt 1 view .LVU233
 895              	.LBB442:
 145:GrannyChordApp.cpp ****     recorded_in_ = false;
 896              		.loc 3 145 8 view .LVU234
 897 0012 D0F89422 		ldr	r2, [r0, #660]
 898 0016 012A     		cmp	r2, #1
 146:GrannyChordApp.cpp ****     next_state_ = AppState::SelectFile;
 899              		.loc 3 146 5 view .LVU235
 146:GrannyChordApp.cpp ****     next_state_ = AppState::SelectFile;
 900              		.loc 3 146 18 is_stmt 0 view .LVU236
 901 0018 01BF     		itttt	eq
 902 001a 0022     		moveq	r2, #0
 903 001c 00F55041 		addeq	r1, r0, #53248
 904              	.LVL63:
 146:GrannyChordApp.cpp ****     next_state_ = AppState::SelectFile;
 905              		.loc 3 146 18 view .LVU237
 906 0020 81F80822 		strbeq	r2, [r1, #520]
 147:GrannyChordApp.cpp ****   }
 907              		.loc 3 147 5 is_stmt 1 view .LVU238
 147:GrannyChordApp.cpp ****   }
 908              		.loc 3 147 17 is_stmt 0 view .LVU239
 909 0024 C0F89822 		streq	r2, [r0, #664]
 910              	.LVL64:
 147:GrannyChordApp.cpp ****   }
 911              		.loc 3 147 17 view .LVU240
ARM GAS  /var/folders/2p/02m_5p7958535cp2tpgps0400000gn/T//cclqaeHn.s 			page 33


 912              	.LBE442:
 913              	.LBE441:
 149:GrannyChordApp.cpp **** 
 914              		.loc 3 149 1 view .LVU241
 915 0028 7047     		bx	lr
 916              		.cfi_endproc
 917              	.LFE4919:
 919              		.section	.text._ZN14GrannyChordApp11InitFileMgrEv,"ax",%progbits
 920              		.align	1
 921              		.global	_ZN14GrannyChordApp11InitFileMgrEv
 922              		.syntax unified
 923              		.thumb
 924              		.thumb_func
 926              	_ZN14GrannyChordApp11InitFileMgrEv:
 927              	.LVL65:
 928              	.LFB4931:
 310:GrannyChordApp.cpp **** 
 311:GrannyChordApp.cpp **** /// @brief iterates to next synth mode within regular or FX group
 312:GrannyChordApp.cpp **** void GrannyChordApp::NextSynthMode(){
 313:GrannyChordApp.cpp ****   DebugPrint(pod_, "going to synth mode");
 314:GrannyChordApp.cpp ****   int mode_idx = static_cast<int>(curr_synth_mode_);
 315:GrannyChordApp.cpp ****   /* cycle to next regular mode, indices 0-3 */
 316:GrannyChordApp.cpp ****   if (mode_idx < 4){
 317:GrannyChordApp.cpp ****     mode_idx++;
 318:GrannyChordApp.cpp ****     if (mode_idx>=4) mode_idx =0;
 319:GrannyChordApp.cpp ****   }
 320:GrannyChordApp.cpp ****   /* cycle to next FX mode, indices 4-7 */
 321:GrannyChordApp.cpp ****   else {
 322:GrannyChordApp.cpp ****     mode_idx++;
 323:GrannyChordApp.cpp ****     if (mode_idx>7) mode_idx =4;
 324:GrannyChordApp.cpp ****   }
 325:GrannyChordApp.cpp ****   curr_synth_mode_ = static_cast<SynthMode>(mode_idx);
 326:GrannyChordApp.cpp ****   DebugPrintMode(curr_synth_mode_);
 327:GrannyChordApp.cpp ****   SetLedSynthMode();
 328:GrannyChordApp.cpp ****   knob1_latched = true;
 329:GrannyChordApp.cpp ****   knob2_latched = true;
 330:GrannyChordApp.cpp **** }
 331:GrannyChordApp.cpp **** 
 332:GrannyChordApp.cpp **** /// @brief iterates to previous synth mode within regular or FX group
 333:GrannyChordApp.cpp **** void GrannyChordApp::PrevSynthMode(){
 334:GrannyChordApp.cpp ****   DebugPrint(pod_, "going to prev synth mode");
 335:GrannyChordApp.cpp ****   int mode_idx = static_cast<int>(curr_synth_mode_);
 336:GrannyChordApp.cpp ****   /* cycle to prev regular mode indices 0-3 */
 337:GrannyChordApp.cpp ****   if (mode_idx < 4){
 338:GrannyChordApp.cpp ****     mode_idx--;
 339:GrannyChordApp.cpp ****     if (mode_idx<0) mode_idx = 3;
 340:GrannyChordApp.cpp ****   }
 341:GrannyChordApp.cpp ****   /* cycle to prev FX mode, indices 4-7 */
 342:GrannyChordApp.cpp ****   else {
 343:GrannyChordApp.cpp ****     mode_idx--;
 344:GrannyChordApp.cpp ****     if (mode_idx<4) mode_idx = 7;
 345:GrannyChordApp.cpp ****   }
 346:GrannyChordApp.cpp ****   curr_synth_mode_ = static_cast<SynthMode>(mode_idx);
 347:GrannyChordApp.cpp ****   DebugPrintMode(curr_synth_mode_);
 348:GrannyChordApp.cpp ****   SetLedSynthMode();
 349:GrannyChordApp.cpp ****   knob1_latched = true;
 350:GrannyChordApp.cpp ****   knob2_latched = true;
ARM GAS  /var/folders/2p/02m_5p7958535cp2tpgps0400000gn/T//cclqaeHn.s 			page 34


 351:GrannyChordApp.cpp **** }
 352:GrannyChordApp.cpp **** 
 353:GrannyChordApp.cpp **** /// @brief Updates synth parameters based on current synth mode and adjusts
 354:GrannyChordApp.cpp **** ///        knob input values to account for knob jitter and deadzones around 0/1
 355:GrannyChordApp.cpp **** void GrannyChordApp::UpdateSynthParams(){
 356:GrannyChordApp.cpp ****   if (curr_state_!=AppState::Synthesis) return;
 357:GrannyChordApp.cpp ****   int mode_idx = static_cast<int>(curr_synth_mode_);
 358:GrannyChordApp.cpp **** 
 359:GrannyChordApp.cpp ****   /* set to 0 or 1 if very close to these bounds */
 360:GrannyChordApp.cpp ****   float knob1_val = MapKnobDeadzone(pod_.knob1.Process());
 361:GrannyChordApp.cpp ****   float knob2_val = MapKnobDeadzone(pod_.knob2.Process());
 362:GrannyChordApp.cpp ****   
 363:GrannyChordApp.cpp ****   counter++;
 364:GrannyChordApp.cpp **** 
 365:GrannyChordApp.cpp ****   /* only update parameter if knob has passed through previous value in this mode */
 366:GrannyChordApp.cpp ****   if (UpdateKnobPassThru(&knob1_latched, knob1_val,prev_param_k1[mode_idx])){
 367:GrannyChordApp.cpp ****     UpdateKnob1Params(knob1_val,curr_synth_mode_);
 368:GrannyChordApp.cpp ****     prev_param_k1[mode_idx] = knob1_val;
 369:GrannyChordApp.cpp ****     if (counter%96000==0){
 370:GrannyChordApp.cpp ****       DebugPrint(pod_, "new k1v: %f",knob1_val);
 371:GrannyChordApp.cpp ****     }
 372:GrannyChordApp.cpp ****   }
 373:GrannyChordApp.cpp **** 
 374:GrannyChordApp.cpp ****   if (UpdateKnobPassThru(&knob2_latched, knob2_val,prev_param_k2[mode_idx])){
 375:GrannyChordApp.cpp ****     UpdateKnob2Params(knob2_val, curr_synth_mode_);
 376:GrannyChordApp.cpp ****     prev_param_k2[mode_idx] = knob2_val;
 377:GrannyChordApp.cpp ****     if (counter%96000==0){
 378:GrannyChordApp.cpp ****       DebugPrint(pod_, "new k2v: %f",knob2_val);
 379:GrannyChordApp.cpp ****     }
 380:GrannyChordApp.cpp ****   }
 381:GrannyChordApp.cpp **** }
 382:GrannyChordApp.cpp **** 
 383:GrannyChordApp.cpp **** /// @brief Initialises file manager, sets audio data buffers and scans SD card for WAV files
 384:GrannyChordApp.cpp **** /// @return True on successful initialisation, false if init fails or no WAV files found
 385:GrannyChordApp.cpp **** bool GrannyChordApp::InitFileMgr(){
 929              		.loc 3 385 35 is_stmt 1 view -0
 930              		.cfi_startproc
 931              		@ args = 0, pretend = 0, frame = 0
 932              		@ frame_needed = 0, uses_anonymous_args = 0
 386:GrannyChordApp.cpp ****   filemgr_.SetBuffers(left_buf_,right_buf_);
 933              		.loc 3 386 3 view .LVU243
 934              		.loc 3 386 22 is_stmt 0 view .LVU244
 935 0000 00F58043 		add	r3, r0, #16384
 385:GrannyChordApp.cpp ****   filemgr_.SetBuffers(left_buf_,right_buf_);
 936              		.loc 3 385 35 view .LVU245
 937 0004 10B5     		push	{r4, lr}
 938              		.cfi_def_cfa_offset 8
 939              		.cfi_offset 4, -8
 940              		.cfi_offset 14, -4
 385:GrannyChordApp.cpp ****   filemgr_.SetBuffers(left_buf_,right_buf_);
 941              		.loc 3 385 35 view .LVU246
 942 0006 0446     		mov	r4, r0
 943              		.loc 3 386 22 view .LVU247
 944 0008 D3F8C42E 		ldr	r2, [r3, #3780]
 945 000c D0F88C02 		ldr	r0, [r0, #652]
 946              	.LVL66:
 947              		.loc 3 386 22 view .LVU248
ARM GAS  /var/folders/2p/02m_5p7958535cp2tpgps0400000gn/T//cclqaeHn.s 			page 35


 948 0010 D3F8C01E 		ldr	r1, [r3, #3776]
 949 0014 FFF7FEFF 		bl	_ZN16AudioFileManager10SetBuffersEPsS0_
 950              	.LVL67:
 387:GrannyChordApp.cpp ****   if (!filemgr_.Init())return false;
 951              		.loc 3 387 3 is_stmt 1 view .LVU249
 952              		.loc 3 387 21 is_stmt 0 view .LVU250
 953 0018 D4F88C02 		ldr	r0, [r4, #652]
 954 001c FFF7FEFF 		bl	_ZN16AudioFileManager4InitEv
 955              	.LVL68:
 956              		.loc 3 387 3 view .LVU251
 957 0020 28B1     		cbz	r0, .L49
 958              	.LBB445:
 959              	.LBI445:
 385:GrannyChordApp.cpp ****   filemgr_.SetBuffers(left_buf_,right_buf_);
 960              		.loc 3 385 6 is_stmt 1 view .LVU252
 961              	.LVL69:
 962              	.LBB446:
 388:GrannyChordApp.cpp **** 
 389:GrannyChordApp.cpp ****   return filemgr_.ScanWavFiles();
 963              		.loc 3 389 3 view .LVU253
 964              		.loc 3 389 31 is_stmt 0 view .LVU254
 965 0022 D4F88C02 		ldr	r0, [r4, #652]
 966              	.LBE446:
 967              	.LBE445:
 390:GrannyChordApp.cpp **** }
 968              		.loc 3 390 1 view .LVU255
 969 0026 BDE81040 		pop	{r4, lr}
 970              		.cfi_remember_state
 971              		.cfi_restore 14
 972              		.cfi_restore 4
 973              		.cfi_def_cfa_offset 0
 974              	.LVL70:
 975              	.LBB448:
 976              	.LBB447:
 389:GrannyChordApp.cpp **** }
 977              		.loc 3 389 31 view .LVU256
 978 002a FFF7FEBF 		b	_ZN16AudioFileManager12ScanWavFilesEv
 979              	.LVL71:
 980              	.L49:
 981              		.cfi_restore_state
 389:GrannyChordApp.cpp **** }
 982              		.loc 3 389 31 view .LVU257
 983              	.LBE447:
 984              	.LBE448:
 985              		.loc 3 390 1 view .LVU258
 986 002e 10BD     		pop	{r4, pc}
 987              		.loc 3 390 1 view .LVU259
 988              		.cfi_endproc
 989              	.LFE4931:
 991              		.section	.rodata._ZN14GrannyChordApp12InitPlaybackEv.str1.1,"aMS",%progbits,1
 992              	.LC5:
 993 0000 6661696C 		.ascii	"failed to load file\000"
 993      65642074 
 993      6F206C6F 
 993      61642066 
 993      696C6500 
 994              	.LC6:
ARM GAS  /var/folders/2p/02m_5p7958535cp2tpgps0400000gn/T//cclqaeHn.s 			page 36


 995 0014 6C6F6164 		.ascii	"loaded file\000"
 995      65642066 
 995      696C6500 
 996              		.section	.text._ZN14GrannyChordApp12InitPlaybackEv,"ax",%progbits
 997              		.align	1
 998              		.global	_ZN14GrannyChordApp12InitPlaybackEv
 999              		.syntax unified
 1000              		.thumb
 1001              		.thumb_func
 1003              	_ZN14GrannyChordApp12InitPlaybackEv:
 1004              	.LVL72:
 1005              	.LFB4933:
 391:GrannyChordApp.cpp **** 
 392:GrannyChordApp.cpp **** /// @brief Calls synth initialisation function, passes audio data buffers and audio length
 393:GrannyChordApp.cpp **** void GrannyChordApp::InitSynth(){
 394:GrannyChordApp.cpp ****   synth_.Init(left_buf_, right_buf_, filemgr_.GetSamplesPerChannel());
 395:GrannyChordApp.cpp ****   InitPrevParamVals();
 396:GrannyChordApp.cpp ****   DebugPrint(pod_,"synth init ok - samples %u",filemgr_.GetSamplesPerChannel());
 397:GrannyChordApp.cpp **** }
 398:GrannyChordApp.cpp **** 
 399:GrannyChordApp.cpp **** /// @brief Initialises WAV playback state, resets playhead, sets current file audio length
 400:GrannyChordApp.cpp **** void GrannyChordApp::InitPlayback(){
 1006              		.loc 3 400 36 is_stmt 1 view -0
 1007              		.cfi_startproc
 1008              		@ args = 0, pretend = 0, frame = 0
 1009              		@ frame_needed = 0, uses_anonymous_args = 0
 401:GrannyChordApp.cpp ****   wav_playhead_ = 0;
 1010              		.loc 3 401 3 view .LVU261
 1011              		.loc 3 401 17 is_stmt 0 view .LVU262
 1012 0000 0021     		movs	r1, #0
 402:GrannyChordApp.cpp ****   record_in_pos_  = 0;
 1013              		.loc 3 402 19 view .LVU263
 1014 0002 00F55042 		add	r2, r0, #53248
 401:GrannyChordApp.cpp ****   wav_playhead_ = 0;
 1015              		.loc 3 401 17 view .LVU264
 1016 0006 00F58043 		add	r3, r0, #16384
 400:GrannyChordApp.cpp ****   wav_playhead_ = 0;
 1017              		.loc 3 400 36 view .LVU265
 1018 000a 10B5     		push	{r4, lr}
 1019              		.cfi_def_cfa_offset 8
 1020              		.cfi_offset 4, -8
 1021              		.cfi_offset 14, -4
 401:GrannyChordApp.cpp ****   wav_playhead_ = 0;
 1022              		.loc 3 401 17 view .LVU266
 1023 000c C3F8CC1E 		str	r1, [r3, #3788]
 1024              		.loc 3 402 3 is_stmt 1 view .LVU267
 400:GrannyChordApp.cpp ****   wav_playhead_ = 0;
 1025              		.loc 3 400 36 is_stmt 0 view .LVU268
 1026 0010 0446     		mov	r4, r0
 1027              		.loc 3 402 19 view .LVU269
 1028 0012 C2F80C12 		str	r1, [r2, #524]
 403:GrannyChordApp.cpp ****   if (!recorded_in_){
 1029              		.loc 3 403 3 is_stmt 1 view .LVU270
 1030 0016 92F80822 		ldrb	r2, [r2, #520]	@ zero_extendqisi2
 1031 001a 6AB9     		cbnz	r2, .L51
 404:GrannyChordApp.cpp ****     if (!filemgr_.LoadFile(file_idx_)) {
 1032              		.loc 3 404 5 view .LVU271
ARM GAS  /var/folders/2p/02m_5p7958535cp2tpgps0400000gn/T//cclqaeHn.s 			page 37


 1033              		.loc 3 404 27 is_stmt 0 view .LVU272
 1034 001c B3F8C81E 		ldrh	r1, [r3, #3784]
 1035 0020 D0F88C02 		ldr	r0, [r0, #652]
 1036              	.LVL73:
 1037              		.loc 3 404 27 view .LVU273
 1038 0024 FFF7FEFF 		bl	_ZN16AudioFileManager8LoadFileEt
 1039              	.LVL74:
 1040              		.loc 3 404 5 view .LVU274
 1041 0028 30B9     		cbnz	r0, .L51
 405:GrannyChordApp.cpp ****       DebugPrint(pod_,"failed to load file");
 1042              		.loc 3 405 7 is_stmt 1 view .LVU275
 1043              		.loc 3 405 7 view .LVU276
 1044              	.LVL75:
 1045              	.LBB449:
 1046              	.LBI449:
 126:../libDaisy/src/daisy_seed.h ****     {
 1047              		.loc 5 126 17 view .LVU277
 1048              	.LBB450:
 1049              		.loc 5 128 23 is_stmt 0 view .LVU278
 1050 002a 0848     		ldr	r0, .L54
 1051 002c FFF7FEFF 		bl	_ZN5daisy6LoggerILNS_17LoggerDestinationE1EE9PrintLineEPKcz
 1052              	.LVL76:
 1053              		.loc 5 128 23 view .LVU279
 1054              	.LBE450:
 1055              	.LBE449:
 406:GrannyChordApp.cpp ****       curr_state_=AppState::Error;
 1056              		.loc 3 406 7 is_stmt 1 view .LVU280
 1057              		.loc 3 406 18 is_stmt 0 view .LVU281
 1058 0030 0523     		movs	r3, #5
 1059 0032 C4F89432 		str	r3, [r4, #660]
 407:GrannyChordApp.cpp ****       return;
 1060              		.loc 3 407 7 is_stmt 1 view .LVU282
 408:GrannyChordApp.cpp ****     }
 409:GrannyChordApp.cpp ****   }
 410:GrannyChordApp.cpp ****   DebugPrint(pod_, "loaded file");
 411:GrannyChordApp.cpp ****   pod_.StartAudio(AudioCallback);
 412:GrannyChordApp.cpp **** }
 1061              		.loc 3 412 1 is_stmt 0 view .LVU283
 1062 0036 10BD     		pop	{r4, pc}
 1063              	.LVL77:
 1064              	.L51:
 410:GrannyChordApp.cpp ****   pod_.StartAudio(AudioCallback);
 1065              		.loc 3 410 3 is_stmt 1 view .LVU284
 410:GrannyChordApp.cpp ****   pod_.StartAudio(AudioCallback);
 1066              		.loc 3 410 3 view .LVU285
 1067              	.LBB451:
 1068              	.LBI451:
 126:../libDaisy/src/daisy_seed.h ****     {
 1069              		.loc 5 126 17 view .LVU286
 1070              	.LBB452:
 1071              		.loc 5 128 23 is_stmt 0 view .LVU287
 1072 0038 0548     		ldr	r0, .L54+4
 1073 003a FFF7FEFF 		bl	_ZN5daisy6LoggerILNS_17LoggerDestinationE1EE9PrintLineEPKcz
 1074              	.LVL78:
 1075              		.loc 5 128 23 view .LVU288
 1076              	.LBE452:
 1077              	.LBE451:
ARM GAS  /var/folders/2p/02m_5p7958535cp2tpgps0400000gn/T//cclqaeHn.s 			page 38


 411:GrannyChordApp.cpp **** }
 1078              		.loc 3 411 3 is_stmt 1 view .LVU289
 411:GrannyChordApp.cpp **** }
 1079              		.loc 3 411 18 is_stmt 0 view .LVU290
 1080 003e E069     		ldr	r0, [r4, #28]
 1081 0040 0449     		ldr	r1, .L54+8
 1082              		.loc 3 412 1 view .LVU291
 1083 0042 BDE81040 		pop	{r4, lr}
 1084              		.cfi_restore 14
 1085              		.cfi_restore 4
 1086              		.cfi_def_cfa_offset 0
 1087              	.LVL79:
 411:GrannyChordApp.cpp **** }
 1088              		.loc 3 411 18 view .LVU292
 1089 0046 FFF7FEBF 		b	_ZN5daisy8DaisyPod10StartAudioEPFvPKPKfPPfjE
 1090              	.LVL80:
 1091              	.L55:
 1092 004a 00BF     		.align	2
 1093              	.L54:
 1094 004c 00000000 		.word	.LC5
 1095 0050 14000000 		.word	.LC6
 1096 0054 00000000 		.word	_ZN14GrannyChordApp13AudioCallbackEPKPKfPPfj
 1097              		.cfi_endproc
 1098              	.LFE4933:
 1100              		.section	.text._ZN14GrannyChordApp12InitRecordInEv,"ax",%progbits
 1101              		.align	1
 1102              		.global	_ZN14GrannyChordApp12InitRecordInEv
 1103              		.syntax unified
 1104              		.thumb
 1105              		.thumb_func
 1107              	_ZN14GrannyChordApp12InitRecordInEv:
 1108              	.LVL81:
 1109              	.LFB4934:
 413:GrannyChordApp.cpp **** 
 414:GrannyChordApp.cpp **** /// @brief Initialises RecordIn state, clears audio buffers
 415:GrannyChordApp.cpp **** void GrannyChordApp::InitRecordIn(){
 1110              		.loc 3 415 36 is_stmt 1 view -0
 1111              		.cfi_startproc
 1112              		@ args = 0, pretend = 0, frame = 0
 1113              		@ frame_needed = 0, uses_anonymous_args = 0
 416:GrannyChordApp.cpp ****   memset(left_buf_, 0, CHNL_BUF_SIZE_ABS);
 1114              		.loc 3 416 3 view .LVU294
 415:GrannyChordApp.cpp ****   memset(left_buf_, 0, CHNL_BUF_SIZE_ABS);
 1115              		.loc 3 415 36 is_stmt 0 view .LVU295
 1116 0000 38B5     		push	{r3, r4, r5, lr}
 1117              		.cfi_def_cfa_offset 16
 1118              		.cfi_offset 3, -16
 1119              		.cfi_offset 4, -12
 1120              		.cfi_offset 5, -8
 1121              		.cfi_offset 14, -4
 1122              		.loc 3 416 10 view .LVU296
 1123 0002 00F58045 		add	r5, r0, #16384
 415:GrannyChordApp.cpp ****   memset(left_buf_, 0, CHNL_BUF_SIZE_ABS);
 1124              		.loc 3 415 36 view .LVU297
 1125 0006 0446     		mov	r4, r0
 1126              		.loc 3 416 9 view .LVU298
 1127 0008 4FF08072 		mov	r2, #16777216
ARM GAS  /var/folders/2p/02m_5p7958535cp2tpgps0400000gn/T//cclqaeHn.s 			page 39


 1128 000c 0021     		movs	r1, #0
 1129 000e D5F8C00E 		ldr	r0, [r5, #3776]
 1130              	.LVL82:
 417:GrannyChordApp.cpp ****   memset(right_buf_, 0, CHNL_BUF_SIZE_ABS);
 418:GrannyChordApp.cpp ****   record_in_pos_ = 0;
 1131              		.loc 3 418 18 view .LVU299
 1132 0012 04F55044 		add	r4, r4, #53248
 1133              	.LVL83:
 416:GrannyChordApp.cpp ****   memset(right_buf_, 0, CHNL_BUF_SIZE_ABS);
 1134              		.loc 3 416 9 view .LVU300
 1135 0016 FFF7FEFF 		bl	memset
 1136              	.LVL84:
 417:GrannyChordApp.cpp ****   memset(right_buf_, 0, CHNL_BUF_SIZE_ABS);
 1137              		.loc 3 417 3 is_stmt 1 view .LVU301
 417:GrannyChordApp.cpp ****   memset(right_buf_, 0, CHNL_BUF_SIZE_ABS);
 1138              		.loc 3 417 9 is_stmt 0 view .LVU302
 1139 001a 4FF08072 		mov	r2, #16777216
 1140 001e 0021     		movs	r1, #0
 1141 0020 D5F8C40E 		ldr	r0, [r5, #3780]
 1142 0024 FFF7FEFF 		bl	memset
 1143              	.LVL85:
 1144              		.loc 3 418 3 is_stmt 1 view .LVU303
 1145              		.loc 3 418 18 is_stmt 0 view .LVU304
 1146 0028 0023     		movs	r3, #0
 1147 002a C4F80C32 		str	r3, [r4, #524]
 419:GrannyChordApp.cpp **** }
 1148              		.loc 3 419 1 view .LVU305
 1149 002e 38BD     		pop	{r3, r4, r5, pc}
 1150              		.loc 3 419 1 view .LVU306
 1151              		.cfi_endproc
 1152              	.LFE4934:
 1154              		.section	.text._ZN14GrannyChordApp13InitWavWriterEv,"ax",%progbits
 1155              		.align	1
 1156              		.global	_ZN14GrannyChordApp13InitWavWriterEv
 1157              		.syntax unified
 1158              		.thumb
 1159              		.thumb_func
 1161              	_ZN14GrannyChordApp13InitWavWriterEv:
 1162              	.LVL86:
 1163              	.LFB4935:
 420:GrannyChordApp.cpp **** 
 421:GrannyChordApp.cpp **** // /// @brief Initialise object for recording out to SD card
 422:GrannyChordApp.cpp **** void GrannyChordApp::InitWavWriter(){
 1164              		.loc 3 422 37 is_stmt 1 view -0
 1165              		.cfi_startproc
 1166              		@ args = 0, pretend = 0, frame = 0
 1167              		@ frame_needed = 0, uses_anonymous_args = 0
 1168              		@ link register save eliminated.
 423:GrannyChordApp.cpp ****   WavWriter<16384>::Config cfg;
 1169              		.loc 3 423 3 view .LVU308
 424:GrannyChordApp.cpp ****   cfg.bitspersample = BIT_DEPTH;
 1170              		.loc 3 424 3 view .LVU309
 425:GrannyChordApp.cpp ****   cfg.channels = filemgr_.GetNumChannels();
 1171              		.loc 3 425 3 view .LVU310
 1172              	.LBB461:
 1173              	.LBI461:
  29:AudioFileManager.h ****     uint16_t GetFileCount() const { return file_count_; }
ARM GAS  /var/folders/2p/02m_5p7958535cp2tpgps0400000gn/T//cclqaeHn.s 			page 40


 1174              		.loc 8 29 13 view .LVU311
 1175              	.LBB462:
  29:AudioFileManager.h ****     uint16_t GetFileCount() const { return file_count_; }
 1176              		.loc 8 29 38 view .LVU312
  29:AudioFileManager.h ****     uint16_t GetFileCount() const { return file_count_; }
 1177              		.loc 8 29 53 is_stmt 0 view .LVU313
 1178 0000 D0F88C32 		ldr	r3, [r0, #652]
 1179              	.LBE462:
 1180              	.LBE461:
 1181              	.LBB465:
 1182              	.LBB466:
 1183              		.file 9 "../libDaisy/src/util/WavWriter.h"
   1:../libDaisy/src/util/WavWriter.h **** #pragma once
   2:../libDaisy/src/util/WavWriter.h **** #pragma once
   3:../libDaisy/src/util/WavWriter.h **** #include "fatfs.h"
   4:../libDaisy/src/util/WavWriter.h **** 
   5:../libDaisy/src/util/WavWriter.h **** namespace daisy
   6:../libDaisy/src/util/WavWriter.h **** {
   7:../libDaisy/src/util/WavWriter.h **** /** Audio Recording Module
   8:../libDaisy/src/util/WavWriter.h ****  ** 
   9:../libDaisy/src/util/WavWriter.h ****  ** Record audio into a working buffer that is gradually written to a WAV file on an SD Card. 
  10:../libDaisy/src/util/WavWriter.h ****  **
  11:../libDaisy/src/util/WavWriter.h ****  ** Recordings are made with floating point input, and will be converted to the 
  12:../libDaisy/src/util/WavWriter.h ****  ** specified bits per sample internally 
  13:../libDaisy/src/util/WavWriter.h ****  **
  14:../libDaisy/src/util/WavWriter.h ****  ** For now only 16-bit and 32-bit (signed int) formats are supported
  15:../libDaisy/src/util/WavWriter.h ****  ** f32 and s24 formats will be added next
  16:../libDaisy/src/util/WavWriter.h ****  **
  17:../libDaisy/src/util/WavWriter.h ****  ** The transfer size determines the amount of internal memory used, and can have an
  18:../libDaisy/src/util/WavWriter.h ****  ** effect on the performance of the streaming behavior of the WavWriter.
  19:../libDaisy/src/util/WavWriter.h ****  ** Memory use can be calculated as: (2 * transfer_size) bytes
  20:../libDaisy/src/util/WavWriter.h ****  ** Performance optimal with sizes: 16384, 32768
  21:../libDaisy/src/util/WavWriter.h ****  ** 
  22:../libDaisy/src/util/WavWriter.h ****  ** To use:
  23:../libDaisy/src/util/WavWriter.h ****  ** 1. Create a WavWriter<size> object (e.g. WavWriter<32768> writer)
  24:../libDaisy/src/util/WavWriter.h ****  ** 2. Configure the settings as desired by creating a WavWriter<32768>::Config struct and setting 
  25:../libDaisy/src/util/WavWriter.h ****  ** 3. Initialize the object with the configuration struct.
  26:../libDaisy/src/util/WavWriter.h ****  ** 4. Open a new file for writing with: writer.OpenFile("FileName.wav")
  27:../libDaisy/src/util/WavWriter.h ****  ** 5. Write to it within your audio callback using: writer.Sample(value)
  28:../libDaisy/src/util/WavWriter.h ****  ** 6. Fill the Wav File on the SD Card with data from your main loop by running: writer.Write()
  29:../libDaisy/src/util/WavWriter.h ****  ** 7. When finished with the recording finalize, and close the file with: writer.SaveFile();
  30:../libDaisy/src/util/WavWriter.h ****  ** 
  31:../libDaisy/src/util/WavWriter.h ****  ** */
  32:../libDaisy/src/util/WavWriter.h **** template <size_t transfer_size>
  33:../libDaisy/src/util/WavWriter.h **** class WavWriter
  34:../libDaisy/src/util/WavWriter.h **** {
  35:../libDaisy/src/util/WavWriter.h ****   public:
  36:../libDaisy/src/util/WavWriter.h ****     WavWriter() {}
  37:../libDaisy/src/util/WavWriter.h ****     ~WavWriter() {}
  38:../libDaisy/src/util/WavWriter.h **** 
  39:../libDaisy/src/util/WavWriter.h ****     /** Return values for write related functions */
  40:../libDaisy/src/util/WavWriter.h ****     enum class Result
  41:../libDaisy/src/util/WavWriter.h ****     {
  42:../libDaisy/src/util/WavWriter.h ****         OK,
  43:../libDaisy/src/util/WavWriter.h ****         ERROR,
  44:../libDaisy/src/util/WavWriter.h ****     };
  45:../libDaisy/src/util/WavWriter.h **** 
ARM GAS  /var/folders/2p/02m_5p7958535cp2tpgps0400000gn/T//cclqaeHn.s 			page 41


  46:../libDaisy/src/util/WavWriter.h ****     /** Configuration structure for the wave writer.
  47:../libDaisy/src/util/WavWriter.h **** 	 ** */
  48:../libDaisy/src/util/WavWriter.h ****     struct Config
  49:../libDaisy/src/util/WavWriter.h ****     {
  50:../libDaisy/src/util/WavWriter.h ****         float   samplerate;
  51:../libDaisy/src/util/WavWriter.h ****         int32_t channels;
  52:../libDaisy/src/util/WavWriter.h ****         int32_t bitspersample;
  53:../libDaisy/src/util/WavWriter.h ****     };
  54:../libDaisy/src/util/WavWriter.h **** 
  55:../libDaisy/src/util/WavWriter.h ****     /** State of the internal Writing mechanism. 
  56:../libDaisy/src/util/WavWriter.h **** 	 ** When the buffer is a certain amount full one section will write its contents
  57:../libDaisy/src/util/WavWriter.h **** 	 ** while the other is still being written to. This is performed circularly
  58:../libDaisy/src/util/WavWriter.h **** 	 ** so that audio will be uninterrupted during writing. */
  59:../libDaisy/src/util/WavWriter.h ****     enum class BufferState
  60:../libDaisy/src/util/WavWriter.h ****     {
  61:../libDaisy/src/util/WavWriter.h ****         IDLE,
  62:../libDaisy/src/util/WavWriter.h ****         FLUSH0,
  63:../libDaisy/src/util/WavWriter.h ****         FLUSH1,
  64:../libDaisy/src/util/WavWriter.h ****     };
  65:../libDaisy/src/util/WavWriter.h **** 
  66:../libDaisy/src/util/WavWriter.h ****     /**  Initializes the WavFile header, and prepares the object for recording. */
  67:../libDaisy/src/util/WavWriter.h ****     void Init(const Config &cfg)
  68:../libDaisy/src/util/WavWriter.h ****     {
  69:../libDaisy/src/util/WavWriter.h ****         cfg_       = cfg;
 1184              		.loc 9 69 9 view .LVU314
 1185 0004 00F58040 		add	r0, r0, #16384
 1186              	.LVL87:
 1187              		.loc 9 69 9 view .LVU315
 1188 0008 9FED2A7A 		vldr.32	s14, .L59
  70:../libDaisy/src/util/WavWriter.h ****         num_samps_ = 0;
 1189              		.loc 9 70 20 view .LVU316
 1190 000c 0021     		movs	r1, #0
 1191              	.LBE466:
 1192              	.LBE465:
 1193              	.LBB495:
 1194              	.LBB463:
  29:AudioFileManager.h ****     uint16_t GetFileCount() const { return file_count_; }
 1195              		.loc 8 29 53 view .LVU317
 1196 000e 03F58053 		add	r3, r3, #4096
 1197              	.LVL88:
  29:AudioFileManager.h ****     uint16_t GetFileCount() const { return file_count_; }
 1198              		.loc 8 29 53 view .LVU318
 1199              	.LBE463:
 1200              	.LBE495:
 1201              	.LBB496:
 1202              	.LBB492:
  69:../libDaisy/src/util/WavWriter.h ****         num_samps_ = 0;
 1203              		.loc 9 69 9 view .LVU319
 1204 0012 00F69472 		addw	r2, r0, #3988
 1205              	.LBE492:
 1206              	.LBE496:
 1207              	.LBB497:
 1208              	.LBB464:
  29:AudioFileManager.h ****     uint16_t GetFileCount() const { return file_count_; }
 1209              		.loc 8 29 53 view .LVU320
 1210 0016 B3F92830 		ldrsh	r3, [r3, #40]
 1211              	.LVL89:
ARM GAS  /var/folders/2p/02m_5p7958535cp2tpgps0400000gn/T//cclqaeHn.s 			page 42


  29:AudioFileManager.h ****     uint16_t GetFileCount() const { return file_count_; }
 1212              		.loc 8 29 53 view .LVU321
 1213              	.LBE464:
 1214              	.LBE497:
 426:GrannyChordApp.cpp ****   cfg.samplerate = SAMPLE_RATE;
 1215              		.loc 3 426 3 is_stmt 1 view .LVU322
 427:GrannyChordApp.cpp ****   sd_writer_.Init(cfg);
 1216              		.loc 3 427 3 view .LVU323
 1217              	.LBB498:
 1218              	.LBI465:
  67:../libDaisy/src/util/WavWriter.h ****     {
 1219              		.loc 9 67 10 view .LVU324
 1220              	.LBB493:
  69:../libDaisy/src/util/WavWriter.h ****         num_samps_ = 0;
 1221              		.loc 9 69 9 is_stmt 0 view .LVU325
 1222 001a 82ED0D7A 		vstr.32	s14, [r2, #52]
 1223 001e 1022     		movs	r2, #16
 1224              	.LBB467:
 1225              	.LBB468:
  71:../libDaisy/src/util/WavWriter.h ****         // Prep the wav header according to config.
  72:../libDaisy/src/util/WavWriter.h ****         // Certain things (i.e. Size, etc. will have to wait until the finalization of the file, or
  73:../libDaisy/src/util/WavWriter.h ****         wavheader_.ChunkId       = kWavFileChunkId;     /** "RIFF" */
  74:../libDaisy/src/util/WavWriter.h ****         wavheader_.FileFormat    = kWavFileWaveId;      /** "WAVE" */
  75:../libDaisy/src/util/WavWriter.h ****         wavheader_.SubChunk1ID   = kWavFileSubChunk1Id; /** "fmt " */
  76:../libDaisy/src/util/WavWriter.h ****         wavheader_.SubChunk1Size = 16;                  // for PCM
  77:../libDaisy/src/util/WavWriter.h ****         wavheader_.AudioFormat   = WAVE_FORMAT_PCM;
  78:../libDaisy/src/util/WavWriter.h ****         wavheader_.NbrChannels   = cfg.channels;
  79:../libDaisy/src/util/WavWriter.h ****         wavheader_.SampleRate    = static_cast<int>(cfg.samplerate);
  80:../libDaisy/src/util/WavWriter.h ****         wavheader_.ByteRate      = CalcByteRate();
  81:../libDaisy/src/util/WavWriter.h ****         wavheader_.BlockAlign    = cfg_.channels * cfg_.bitspersample / 8;
  82:../libDaisy/src/util/WavWriter.h ****         wavheader_.BitPerSample  = cfg_.bitspersample;
  83:../libDaisy/src/util/WavWriter.h ****         wavheader_.SubChunk2ID   = kWavFileSubChunk2Id; /** "data" */
  84:../libDaisy/src/util/WavWriter.h ****         /** Also calcs SubChunk2Size */
  85:../libDaisy/src/util/WavWriter.h ****         wavheader_.FileSize = CalcFileSize();
  86:../libDaisy/src/util/WavWriter.h ****         // This is calculated as part of the subchunk size
  87:../libDaisy/src/util/WavWriter.h ****     }
  88:../libDaisy/src/util/WavWriter.h **** 
  89:../libDaisy/src/util/WavWriter.h ****     /** Records the current sample into the working buffer,
  90:../libDaisy/src/util/WavWriter.h ****      ** queues writes to media when necessary. 
  91:../libDaisy/src/util/WavWriter.h ****      ** 
  92:../libDaisy/src/util/WavWriter.h ****      ** \param in should be a pointer to an array of samples */
  93:../libDaisy/src/util/WavWriter.h ****     void Sample(const float *in)
  94:../libDaisy/src/util/WavWriter.h ****     {
  95:../libDaisy/src/util/WavWriter.h ****         for(int32_t i = 0; i < cfg_.channels; i++)
  96:../libDaisy/src/util/WavWriter.h ****         {
  97:../libDaisy/src/util/WavWriter.h ****             switch(cfg_.bitspersample)
  98:../libDaisy/src/util/WavWriter.h ****             {
  99:../libDaisy/src/util/WavWriter.h ****                 case 16:
 100:../libDaisy/src/util/WavWriter.h ****                 {
 101:../libDaisy/src/util/WavWriter.h ****                     int16_t *tp;
 102:../libDaisy/src/util/WavWriter.h ****                     tp            = (int16_t *)transfer_buff;
 103:../libDaisy/src/util/WavWriter.h ****                     tp[wptr_ + i] = f2s16(in[i]);
 104:../libDaisy/src/util/WavWriter.h ****                 }
 105:../libDaisy/src/util/WavWriter.h ****                 break;
 106:../libDaisy/src/util/WavWriter.h ****                 case 32: transfer_buff[wptr_ + i] = f2s32(in[i]); break;
 107:../libDaisy/src/util/WavWriter.h ****                 default: break;
 108:../libDaisy/src/util/WavWriter.h ****             }
ARM GAS  /var/folders/2p/02m_5p7958535cp2tpgps0400000gn/T//cclqaeHn.s 			page 43


 109:../libDaisy/src/util/WavWriter.h ****         }
 110:../libDaisy/src/util/WavWriter.h ****         num_samps_++;
 111:../libDaisy/src/util/WavWriter.h ****         wptr_ += cfg_.channels;
 112:../libDaisy/src/util/WavWriter.h ****         size_t cap_point
 113:../libDaisy/src/util/WavWriter.h ****             = cfg_.bitspersample == 16 ? kTransferSamps * 2 : kTransferSamps;
 114:../libDaisy/src/util/WavWriter.h ****         if(wptr_ == cap_point)
 115:../libDaisy/src/util/WavWriter.h ****         {
 116:../libDaisy/src/util/WavWriter.h ****             bstate_ = BufferState::FLUSH0;
 117:../libDaisy/src/util/WavWriter.h ****         }
 118:../libDaisy/src/util/WavWriter.h ****         if(wptr_ >= cap_point * 2)
 119:../libDaisy/src/util/WavWriter.h ****         {
 120:../libDaisy/src/util/WavWriter.h ****             wptr_   = 0;
 121:../libDaisy/src/util/WavWriter.h ****             bstate_ = BufferState::FLUSH1;
 122:../libDaisy/src/util/WavWriter.h ****         }
 123:../libDaisy/src/util/WavWriter.h ****     }
 124:../libDaisy/src/util/WavWriter.h **** 
 125:../libDaisy/src/util/WavWriter.h ****     /** Check buffer state and write */
 126:../libDaisy/src/util/WavWriter.h ****     void Write()
 127:../libDaisy/src/util/WavWriter.h ****     {
 128:../libDaisy/src/util/WavWriter.h ****         if(bstate_ != BufferState::IDLE && IsRecording())
 129:../libDaisy/src/util/WavWriter.h ****         {
 130:../libDaisy/src/util/WavWriter.h ****             uint32_t     offset;
 131:../libDaisy/src/util/WavWriter.h ****             unsigned int bw = 0;
 132:../libDaisy/src/util/WavWriter.h ****             //offset          = bstate_ == BufferState::FLUSH0 ? 0 : transfer_size;
 133:../libDaisy/src/util/WavWriter.h ****             offset  = bstate_ == BufferState::FLUSH0 ? 0 : kTransferSamps;
 134:../libDaisy/src/util/WavWriter.h ****             bstate_ = BufferState::IDLE;
 135:../libDaisy/src/util/WavWriter.h ****             f_write(&fp_, &transfer_buff[offset], transfer_size, &bw);
 136:../libDaisy/src/util/WavWriter.h ****         }
 137:../libDaisy/src/util/WavWriter.h ****     }
 138:../libDaisy/src/util/WavWriter.h **** 
 139:../libDaisy/src/util/WavWriter.h ****     /** Finalizes the writing of the WAV file.
 140:../libDaisy/src/util/WavWriter.h **** 	 ** This overwrites the WAV Header with the correct
 141:../libDaisy/src/util/WavWriter.h **** 	 ** final size, and closes the fptr. */
 142:../libDaisy/src/util/WavWriter.h ****     void SaveFile()
 143:../libDaisy/src/util/WavWriter.h ****     {
 144:../libDaisy/src/util/WavWriter.h ****         unsigned int bw = 0;
 145:../libDaisy/src/util/WavWriter.h ****         recording_      = false;
 146:../libDaisy/src/util/WavWriter.h ****         // We _should_ flush whatever's left in the transfer buff
 147:../libDaisy/src/util/WavWriter.h ****         // TODO: that.
 148:../libDaisy/src/util/WavWriter.h ****         wavheader_.FileSize = CalcFileSize();
 149:../libDaisy/src/util/WavWriter.h ****         f_lseek(&fp_, 0);
 150:../libDaisy/src/util/WavWriter.h ****         f_write(&fp_, &wavheader_, sizeof(wavheader_), &bw);
 151:../libDaisy/src/util/WavWriter.h ****         f_close(&fp_);
 152:../libDaisy/src/util/WavWriter.h ****     }
 153:../libDaisy/src/util/WavWriter.h **** 
 154:../libDaisy/src/util/WavWriter.h ****     /** Opens a file for writing. Writes the initial WAV Header, and gets ready for stream-based re
 155:../libDaisy/src/util/WavWriter.h ****     void OpenFile(const char *name)
 156:../libDaisy/src/util/WavWriter.h ****     {
 157:../libDaisy/src/util/WavWriter.h ****         if(f_open(&fp_, name, FA_WRITE | FA_CREATE_ALWAYS) == FR_OK)
 158:../libDaisy/src/util/WavWriter.h ****         {
 159:../libDaisy/src/util/WavWriter.h ****             unsigned int bw = 0;
 160:../libDaisy/src/util/WavWriter.h ****             if(f_write(&fp_, &wavheader_, sizeof(wavheader_), &bw) == FR_OK)
 161:../libDaisy/src/util/WavWriter.h ****             {
 162:../libDaisy/src/util/WavWriter.h ****                 recording_ = true;
 163:../libDaisy/src/util/WavWriter.h ****                 num_samps_ = 0;
 164:../libDaisy/src/util/WavWriter.h ****             }
 165:../libDaisy/src/util/WavWriter.h ****         }
ARM GAS  /var/folders/2p/02m_5p7958535cp2tpgps0400000gn/T//cclqaeHn.s 			page 44


 166:../libDaisy/src/util/WavWriter.h ****     }
 167:../libDaisy/src/util/WavWriter.h **** 
 168:../libDaisy/src/util/WavWriter.h ****     /** Returns whether recording is currently active or not. */
 169:../libDaisy/src/util/WavWriter.h ****     inline bool IsRecording() const { return recording_; }
 170:../libDaisy/src/util/WavWriter.h **** 
 171:../libDaisy/src/util/WavWriter.h ****     /** Returns the current length in samples of the recording. */
 172:../libDaisy/src/util/WavWriter.h ****     inline uint32_t GetLengthSamps() { return num_samps_; }
 173:../libDaisy/src/util/WavWriter.h **** 
 174:../libDaisy/src/util/WavWriter.h ****     /** Returns the current length of the recording in seconds. */
 175:../libDaisy/src/util/WavWriter.h ****     inline float GetLengthSeconds()
 176:../libDaisy/src/util/WavWriter.h ****     {
 177:../libDaisy/src/util/WavWriter.h ****         return (float)num_samps_ / (float)cfg_.samplerate;
 178:../libDaisy/src/util/WavWriter.h ****     }
 179:../libDaisy/src/util/WavWriter.h **** 
 180:../libDaisy/src/util/WavWriter.h ****   private:
 181:../libDaisy/src/util/WavWriter.h ****     /** Calculate the file size based on current recording */
 182:../libDaisy/src/util/WavWriter.h ****     inline uint32_t CalcFileSize()
 183:../libDaisy/src/util/WavWriter.h ****     {
 184:../libDaisy/src/util/WavWriter.h ****         wavheader_.SubCHunk2Size
 185:../libDaisy/src/util/WavWriter.h ****             = num_samps_ * cfg_.channels * cfg_.bitspersample / 8;
 186:../libDaisy/src/util/WavWriter.h ****         return 36 + wavheader_.SubCHunk2Size;
 187:../libDaisy/src/util/WavWriter.h ****     }
 188:../libDaisy/src/util/WavWriter.h **** 
 189:../libDaisy/src/util/WavWriter.h ****     /** Compute the byte rate given the user settings. */
 190:../libDaisy/src/util/WavWriter.h ****     inline uint32_t CalcByteRate()
 191:../libDaisy/src/util/WavWriter.h ****     {
 192:../libDaisy/src/util/WavWriter.h ****         return cfg_.samplerate * cfg_.channels * cfg_.bitspersample / 8;
 1226              		.loc 9 192 32 view .LVU326
 1227 0020 07EE903A 		vmov	s15, r3	@ int
 1228              	.LBE468:
 1229              	.LBE467:
 1230              	.LBE493:
 1231              	.LBE498:
 425:GrannyChordApp.cpp ****   cfg.samplerate = SAMPLE_RATE;
 1232              		.loc 3 425 41 view .LVU327
 1233 0024 C0F8CC3F 		str	r3, [r0, #4044]
 1234              	.LBB499:
 1235              	.LBB494:
  78:../libDaisy/src/util/WavWriter.h ****         wavheader_.SampleRate    = static_cast<int>(cfg.samplerate);
 1236              		.loc 9 78 34 view .LVU328
 1237 0028 A0F8AA3F 		strh	r3, [r0, #4010]	@ movhi
  81:../libDaisy/src/util/WavWriter.h ****         wavheader_.BitPerSample  = cfg_.bitspersample;
 1238              		.loc 9 81 71 view .LVU329
 1239 002c 1B01     		lsls	r3, r3, #4
 1240              	.LVL90:
 1241              	.LBB478:
 1242              	.LBB469:
 1243              		.loc 9 192 32 view .LVU330
 1244 002e F8EEE77A 		vcvt.f32.s32	s15, s15
 1245              	.LBE469:
 1246              	.LBE478:
  70:../libDaisy/src/util/WavWriter.h ****         // Prep the wav header according to config.
 1247              		.loc 9 70 20 view .LVU331
 1248 0032 C0F8C01F 		str	r1, [r0, #4032]
  81:../libDaisy/src/util/WavWriter.h ****         wavheader_.BitPerSample  = cfg_.bitspersample;
 1249              		.loc 9 81 71 view .LVU332
 1250 0036 48BF     		it	mi
ARM GAS  /var/folders/2p/02m_5p7958535cp2tpgps0400000gn/T//cclqaeHn.s 			page 45


 1251 0038 0733     		addmi	r3, r3, #7
  73:../libDaisy/src/util/WavWriter.h ****         wavheader_.FileFormat    = kWavFileWaveId;      /** "WAVE" */
 1252              		.loc 9 73 34 view .LVU333
 1253 003a 1F49     		ldr	r1, .L59+4
  69:../libDaisy/src/util/WavWriter.h ****         num_samps_ = 0;
 1254              		.loc 9 69 9 view .LVU334
 1255 003c C0F8D02F 		str	r2, [r0, #4048]
 1256              	.LBB479:
 1257              	.LBB470:
 1258              		.loc 9 192 32 view .LVU335
 1259 0040 67EE877A 		vmul.f32	s15, s15, s14
 1260              	.LBE470:
 1261              	.LBE479:
  81:../libDaisy/src/util/WavWriter.h ****         wavheader_.BitPerSample  = cfg_.bitspersample;
 1262              		.loc 9 81 71 view .LVU336
 1263 0044 DB10     		asrs	r3, r3, #3
 1264              	.LBB480:
 1265              	.LBB471:
 1266              		.loc 9 192 48 view .LVU337
 1267 0046 B3EE007A 		vmov.f32	s14, #1.6e+1
 1268              	.LBE471:
 1269              	.LBE480:
  73:../libDaisy/src/util/WavWriter.h ****         wavheader_.FileFormat    = kWavFileWaveId;      /** "WAVE" */
 1270              		.loc 9 73 34 view .LVU338
 1271 004a C0F8941F 		str	r1, [r0, #3988]
  74:../libDaisy/src/util/WavWriter.h ****         wavheader_.SubChunk1ID   = kWavFileSubChunk1Id; /** "fmt " */
 1272              		.loc 9 74 34 view .LVU339
 1273 004e A1F57001 		sub	r1, r1, #15728640
  81:../libDaisy/src/util/WavWriter.h ****         wavheader_.BitPerSample  = cfg_.bitspersample;
 1274              		.loc 9 81 34 view .LVU340
 1275 0052 A0F8B43F 		strh	r3, [r0, #4020]	@ movhi
  82:../libDaisy/src/util/WavWriter.h ****         wavheader_.SubChunk2ID   = kWavFileSubChunk2Id; /** "data" */
 1276              		.loc 9 82 34 view .LVU341
 1277 0056 1023     		movs	r3, #16
  76:../libDaisy/src/util/WavWriter.h ****         wavheader_.AudioFormat   = WAVE_FORMAT_PCM;
 1278              		.loc 9 76 34 view .LVU342
 1279 0058 C0F8A42F 		str	r2, [r0, #4004]
 1280              	.LBB481:
 1281              	.LBB472:
 1282              		.loc 9 192 48 view .LVU343
 1283 005c 67EE877A 		vmul.f32	s15, s15, s14
 1284              	.LBE472:
 1285              	.LBE481:
  74:../libDaisy/src/util/WavWriter.h ****         wavheader_.SubChunk1ID   = kWavFileSubChunk1Id; /** "fmt " */
 1286              		.loc 9 74 34 view .LVU344
 1287 0060 A1F2FB71 		subw	r1, r1, #2043
 1288              	.LBB482:
 1289              	.LBB473:
 1290              		.loc 9 192 69 view .LVU345
 1291 0064 B4EE007A 		vmov.f32	s14, #1.25e-1
 1292              	.LBE473:
 1293              	.LBE482:
  77:../libDaisy/src/util/WavWriter.h ****         wavheader_.NbrChannels   = cfg.channels;
 1294              		.loc 9 77 34 view .LVU346
 1295 0068 0122     		movs	r2, #1
  74:../libDaisy/src/util/WavWriter.h ****         wavheader_.SubChunk1ID   = kWavFileSubChunk1Id; /** "fmt " */
 1296              		.loc 9 74 34 view .LVU347
ARM GAS  /var/folders/2p/02m_5p7958535cp2tpgps0400000gn/T//cclqaeHn.s 			page 46


 1297 006a C0F89C1F 		str	r1, [r0, #3996]
  75:../libDaisy/src/util/WavWriter.h ****         wavheader_.SubChunk1Size = 16;                  // for PCM
 1298              		.loc 9 75 34 view .LVU348
 1299 006e 01F15B41 		add	r1, r1, #-620756992
  82:../libDaisy/src/util/WavWriter.h ****         wavheader_.SubChunk2ID   = kWavFileSubChunk2Id; /** "data" */
 1300              		.loc 9 82 34 view .LVU349
 1301 0072 A0F8B63F 		strh	r3, [r0, #4022]	@ movhi
 1302              	.LBB483:
 1303              	.LBB474:
 1304              		.loc 9 192 69 view .LVU350
 1305 0076 67EE877A 		vmul.f32	s15, s15, s14
 1306              	.LBE474:
 1307              	.LBE483:
  83:../libDaisy/src/util/WavWriter.h ****         /** Also calcs SubChunk2Size */
 1308              		.loc 9 83 34 view .LVU351
 1309 007a 104B     		ldr	r3, .L59+8
  75:../libDaisy/src/util/WavWriter.h ****         wavheader_.SubChunk1Size = 16;                  // for PCM
 1310              		.loc 9 75 34 view .LVU352
 1311 007c 01F5F111 		add	r1, r1, #1974272
  77:../libDaisy/src/util/WavWriter.h ****         wavheader_.NbrChannels   = cfg.channels;
 1312              		.loc 9 77 34 view .LVU353
 1313 0080 A0F8A82F 		strh	r2, [r0, #4008]	@ movhi
  83:../libDaisy/src/util/WavWriter.h ****         /** Also calcs SubChunk2Size */
 1314              		.loc 9 83 34 view .LVU354
 1315 0084 C0F8B83F 		str	r3, [r0, #4024]
  79:../libDaisy/src/util/WavWriter.h ****         wavheader_.ByteRate      = CalcByteRate();
 1316              		.loc 9 79 34 view .LVU355
 1317 0088 4BF68032 		movw	r2, #48000
 1318              	.LBB484:
 1319              	.LBB475:
 1320              		.loc 9 192 71 view .LVU356
 1321 008c FCEEE77A 		vcvt.u32.f32	s15, s15
 1322              	.LBE475:
 1323              	.LBE484:
 1324              	.LBB485:
 1325              	.LBB486:
 185:../libDaisy/src/util/WavWriter.h ****         return 36 + wavheader_.SubCHunk2Size;
 1326              		.loc 9 185 13 view .LVU357
 1327 0090 0023     		movs	r3, #0
 1328              	.LBE486:
 1329              	.LBE485:
  75:../libDaisy/src/util/WavWriter.h ****         wavheader_.SubChunk1Size = 16;                  // for PCM
 1330              		.loc 9 75 34 view .LVU358
 1331 0092 01F60F41 		addw	r1, r1, #3087
  79:../libDaisy/src/util/WavWriter.h ****         wavheader_.ByteRate      = CalcByteRate();
 1332              		.loc 9 79 34 view .LVU359
 1333 0096 C0F8AC2F 		str	r2, [r0, #4012]
 1334              	.LVL91:
 1335              	.LBB488:
 1336              	.LBI467:
 190:../libDaisy/src/util/WavWriter.h ****     {
 1337              		.loc 9 190 21 is_stmt 1 view .LVU360
 190:../libDaisy/src/util/WavWriter.h ****     {
 1338              		.loc 9 190 21 is_stmt 0 view .LVU361
 1339              	.LBE488:
 1340              	.LBB489:
 1341              	.LBI485:
ARM GAS  /var/folders/2p/02m_5p7958535cp2tpgps0400000gn/T//cclqaeHn.s 			page 47


 182:../libDaisy/src/util/WavWriter.h ****     {
 1342              		.loc 9 182 21 is_stmt 1 view .LVU362
 1343              	.LBB487:
 185:../libDaisy/src/util/WavWriter.h ****         return 36 + wavheader_.SubCHunk2Size;
 1344              		.loc 9 185 13 is_stmt 0 view .LVU363
 1345 009a C0F8BC3F 		str	r3, [r0, #4028]
 185:../libDaisy/src/util/WavWriter.h ****         return 36 + wavheader_.SubCHunk2Size;
 1346              		.loc 9 185 13 view .LVU364
 1347              	.LBE487:
 1348              	.LBE489:
  85:../libDaisy/src/util/WavWriter.h ****         // This is calculated as part of the subchunk size
 1349              		.loc 9 85 29 view .LVU365
 1350 009e 2423     		movs	r3, #36
 1351              	.LBB490:
 1352              	.LBB476:
 1353              		.loc 9 192 71 view .LVU366
 1354 00a0 17EE902A 		vmov	r2, s15	@ int
 1355              	.LBE476:
 1356              	.LBE490:
  75:../libDaisy/src/util/WavWriter.h ****         wavheader_.SubChunk1Size = 16;                  // for PCM
 1357              		.loc 9 75 34 view .LVU367
 1358 00a4 C0F8A01F 		str	r1, [r0, #4000]
  85:../libDaisy/src/util/WavWriter.h ****         // This is calculated as part of the subchunk size
 1359              		.loc 9 85 29 view .LVU368
 1360 00a8 C0F8983F 		str	r3, [r0, #3992]
 1361              	.LVL92:
 1362              	.LBB491:
 1363              	.LBB477:
 1364              		.loc 9 192 71 view .LVU369
 1365 00ac C0F8B02F 		str	r2, [r0, #4016]
 1366              	.LBE477:
 1367              	.LBE491:
 1368              	.LBE494:
 1369              	.LBE499:
 428:GrannyChordApp.cpp **** }
 1370              		.loc 3 428 1 view .LVU370
 1371 00b0 7047     		bx	lr
 1372              	.L60:
 1373 00b2 00BF     		.align	2
 1374              	.L59:
 1375 00b4 00803B47 		.word	1195081728
 1376 00b8 52494646 		.word	1179011410
 1377 00bc 64617461 		.word	1635017060
 1378              		.cfi_endproc
 1379              	.LFE4935:
 1381              		.section	.text._ZN14GrannyChordApp6InitFXEv,"ax",%progbits
 1382              		.align	1
 1383              		.global	_ZN14GrannyChordApp6InitFXEv
 1384              		.syntax unified
 1385              		.thumb
 1386              		.thumb_func
 1388              	_ZN14GrannyChordApp6InitFXEv:
 1389              	.LVL93:
 1390              	.LFB4936:
 429:GrannyChordApp.cpp **** 
 430:GrannyChordApp.cpp **** /// @brief initialise reverb, compressor, filter configs for FX section 
 431:GrannyChordApp.cpp **** void GrannyChordApp::InitFX(){
ARM GAS  /var/folders/2p/02m_5p7958535cp2tpgps0400000gn/T//cclqaeHn.s 			page 48


 1391              		.loc 3 431 30 is_stmt 1 view -0
 1392              		.cfi_startproc
 1393              		@ args = 0, pretend = 0, frame = 8
 1394              		@ frame_needed = 0, uses_anonymous_args = 0
 432:GrannyChordApp.cpp ****   comp_.Init(SAMPLE_RATE_FLOAT);
 1395              		.loc 3 432 3 view .LVU372
 431:GrannyChordApp.cpp ****   comp_.Init(SAMPLE_RATE_FLOAT);
 1396              		.loc 3 431 30 is_stmt 0 view .LVU373
 1397 0000 37B5     		push	{r0, r1, r2, r4, r5, lr}
 1398              		.cfi_def_cfa_offset 24
 1399              		.cfi_offset 4, -12
 1400              		.cfi_offset 5, -8
 1401              		.cfi_offset 14, -4
 1402              		.loc 3 432 13 view .LVU374
 1403 0002 9FED210A 		vldr.32	s0, .L62
 431:GrannyChordApp.cpp ****   comp_.Init(SAMPLE_RATE_FLOAT);
 1404              		.loc 3 431 30 view .LVU375
 1405 0006 0446     		mov	r4, r0
 1406              		.loc 3 432 13 view .LVU376
 1407 0008 00F52A70 		add	r0, r0, #680
 1408              	.LVL94:
 1409              		.loc 3 432 13 view .LVU377
 1410 000c 8DED010A 		vstr.32	s0, [sp, #4]	@ int
 1411 0010 FFF7FEFF 		bl	_ZN7daisysp10Compressor4InitEf
 1412              	.LVL95:
 433:GrannyChordApp.cpp ****   limiter_.Init();
 1413              		.loc 3 433 3 is_stmt 1 view .LVU378
 1414              		.loc 3 433 16 is_stmt 0 view .LVU379
 1415 0014 04F53A70 		add	r0, r4, #744
 1416              	.LBB500:
 1417              	.LBB501:
 1418              		.file 10 "../DaisySP/Source/../DaisySP-LGPL/Source/Filters/moogladder.h"
   1:../DaisySP/Source/../DaisySP-LGPL/Source/Filters/moogladder.h **** /*
   2:../DaisySP/Source/../DaisySP-LGPL/Source/Filters/moogladder.h **** Copyright (c) 2023 Electrosmith, Corp, Victor Lazzarini, John ffitch (fast tanh), Bob Moog
   3:../DaisySP/Source/../DaisySP-LGPL/Source/Filters/moogladder.h **** 
   4:../DaisySP/Source/../DaisySP-LGPL/Source/Filters/moogladder.h **** Use of this source code is governed by the LGPL V2.1
   5:../DaisySP/Source/../DaisySP-LGPL/Source/Filters/moogladder.h **** license that can be found in the LICENSE file or at
   6:../DaisySP/Source/../DaisySP-LGPL/Source/Filters/moogladder.h **** https://opensource.org/license/lgpl-2-1/
   7:../DaisySP/Source/../DaisySP-LGPL/Source/Filters/moogladder.h **** */
   8:../DaisySP/Source/../DaisySP-LGPL/Source/Filters/moogladder.h **** 
   9:../DaisySP/Source/../DaisySP-LGPL/Source/Filters/moogladder.h **** #pragma once
  10:../DaisySP/Source/../DaisySP-LGPL/Source/Filters/moogladder.h **** #ifndef DSY_MOOGLADDER_H
  11:../DaisySP/Source/../DaisySP-LGPL/Source/Filters/moogladder.h **** #define DSY_MOOGLADDER_H
  12:../DaisySP/Source/../DaisySP-LGPL/Source/Filters/moogladder.h **** 
  13:../DaisySP/Source/../DaisySP-LGPL/Source/Filters/moogladder.h **** #include <stdint.h>
  14:../DaisySP/Source/../DaisySP-LGPL/Source/Filters/moogladder.h **** #ifdef __cplusplus
  15:../DaisySP/Source/../DaisySP-LGPL/Source/Filters/moogladder.h **** 
  16:../DaisySP/Source/../DaisySP-LGPL/Source/Filters/moogladder.h **** namespace daisysp
  17:../DaisySP/Source/../DaisySP-LGPL/Source/Filters/moogladder.h **** {
  18:../DaisySP/Source/../DaisySP-LGPL/Source/Filters/moogladder.h **** /** Moog ladder filter module*/
  19:../DaisySP/Source/../DaisySP-LGPL/Source/Filters/moogladder.h **** class MoogLadder
  20:../DaisySP/Source/../DaisySP-LGPL/Source/Filters/moogladder.h **** {
  21:../DaisySP/Source/../DaisySP-LGPL/Source/Filters/moogladder.h ****   public:
  22:../DaisySP/Source/../DaisySP-LGPL/Source/Filters/moogladder.h ****     MoogLadder() {}
  23:../DaisySP/Source/../DaisySP-LGPL/Source/Filters/moogladder.h ****     ~MoogLadder() {}
  24:../DaisySP/Source/../DaisySP-LGPL/Source/Filters/moogladder.h ****     /** Initializes the MoogLadder module.
  25:../DaisySP/Source/../DaisySP-LGPL/Source/Filters/moogladder.h ****         sample_rate - The sample rate of the audio engine being run. 
ARM GAS  /var/folders/2p/02m_5p7958535cp2tpgps0400000gn/T//cclqaeHn.s 			page 49


  26:../DaisySP/Source/../DaisySP-LGPL/Source/Filters/moogladder.h ****     */
  27:../DaisySP/Source/../DaisySP-LGPL/Source/Filters/moogladder.h ****     void Init(float sample_rate);
  28:../DaisySP/Source/../DaisySP-LGPL/Source/Filters/moogladder.h **** 
  29:../DaisySP/Source/../DaisySP-LGPL/Source/Filters/moogladder.h **** 
  30:../DaisySP/Source/../DaisySP-LGPL/Source/Filters/moogladder.h ****     /** Processes the lowpass filter
  31:../DaisySP/Source/../DaisySP-LGPL/Source/Filters/moogladder.h ****     */
  32:../DaisySP/Source/../DaisySP-LGPL/Source/Filters/moogladder.h ****     float Process(float in);
  33:../DaisySP/Source/../DaisySP-LGPL/Source/Filters/moogladder.h **** 
  34:../DaisySP/Source/../DaisySP-LGPL/Source/Filters/moogladder.h ****     /** 
  35:../DaisySP/Source/../DaisySP-LGPL/Source/Filters/moogladder.h ****         Sets the cutoff frequency or half-way point of the filter.
  36:../DaisySP/Source/../DaisySP-LGPL/Source/Filters/moogladder.h ****         Arguments
  37:../DaisySP/Source/../DaisySP-LGPL/Source/Filters/moogladder.h ****         - freq - frequency value in Hz. Range: Any positive value.
  38:../DaisySP/Source/../DaisySP-LGPL/Source/Filters/moogladder.h ****     */
  39:../DaisySP/Source/../DaisySP-LGPL/Source/Filters/moogladder.h ****     inline void SetFreq(float freq) { freq_ = freq; }
 1419              		.loc 10 39 45 view .LVU380
 1420 0018 04F58045 		add	r5, r4, #16384
 1421              	.LBE501:
 1422              	.LBE500:
 1423              		.loc 3 433 16 view .LVU381
 1424 001c FFF7FEFF 		bl	_ZN7daisysp7Limiter4InitEv
 1425              	.LVL96:
 434:GrannyChordApp.cpp ****   
 435:GrannyChordApp.cpp ****   chorus_.Init(SAMPLE_RATE_FLOAT);
 1426              		.loc 3 435 3 is_stmt 1 view .LVU382
 1427              		.loc 3 435 15 is_stmt 0 view .LVU383
 1428 0020 9DED010A 		vldr.32	s0, [sp, #4]	@ int
 1429 0024 04F53C70 		add	r0, r4, #752
 1430 0028 FFF7FEFF 		bl	_ZN7daisysp6Chorus4InitEf
 1431              	.LVL97:
 436:GrannyChordApp.cpp ****   reverb_.Init(SAMPLE_RATE_FLOAT);
 1432              		.loc 3 436 3 is_stmt 1 view .LVU384
 1433              		.loc 3 436 15 is_stmt 0 view .LVU385
 1434 002c 9DED010A 		vldr.32	s0, [sp, #4]	@ int
 1435 0030 D4F8EC02 		ldr	r0, [r4, #748]
 1436 0034 FFF7FEFF 		bl	_ZN7daisysp8ReverbSc4InitEf
 1437              	.LVL98:
 437:GrannyChordApp.cpp ****   
 438:GrannyChordApp.cpp ****   lowpass_moog_.Init(SAMPLE_RATE_FLOAT);
 1438              		.loc 3 438 3 is_stmt 1 view .LVU386
 1439              		.loc 3 438 21 is_stmt 0 view .LVU387
 1440 0038 04F59C40 		add	r0, r4, #19968
 1441 003c 9DED010A 		vldr.32	s0, [sp, #4]	@ int
 1442 0040 5030     		adds	r0, r0, #80
 1443 0042 FFF7FEFF 		bl	_ZN7daisysp10MoogLadder4InitEf
 1444              	.LVL99:
 439:GrannyChordApp.cpp ****   lowpass_moog_.SetFreq(LOPASS_UPPER_BOUND);
 1445              		.loc 3 439 3 is_stmt 1 view .LVU388
 1446              	.LBB504:
 1447              	.LBI500:
 1448              		.loc 10 39 17 view .LVU389
 1449              	.LBB502:
 1450              		.loc 10 39 39 view .LVU390
 1451              		.loc 10 39 45 is_stmt 0 view .LVU391
 1452 0046 05F56563 		add	r3, r5, #3664
 1453 004a 104A     		ldr	r2, .L62+4
 1454              	.LBE502:
 1455              	.LBE504:
ARM GAS  /var/folders/2p/02m_5p7958535cp2tpgps0400000gn/T//cclqaeHn.s 			page 50


 440:GrannyChordApp.cpp ****   lowpass_moog_.SetRes(0.7f);
 441:GrannyChordApp.cpp ****   
 442:GrannyChordApp.cpp ****   hipass_.Init();
 443:GrannyChordApp.cpp ****   hipass_.SetFilterMode(daisysp::OnePole::FilterMode::FILTER_MODE_HIGH_PASS);
 444:GrannyChordApp.cpp ****   hipass_.SetFrequency(HIPASS_LOWER_BOUND);
 1456              		.loc 3 444 23 view .LVU392
 1457 004c 04F59D40 		add	r0, r4, #20096
 1458 0050 9FED0F0A 		vldr.32	s0, .L62+8
 1459              	.LBB505:
 1460              	.LBB503:
 1461              		.loc 10 39 45 view .LVU393
 1462 0054 9A60     		str	r2, [r3, #8]	@ float
 1463              	.LVL100:
 1464              		.loc 10 39 45 view .LVU394
 1465              	.LBE503:
 1466              	.LBE505:
 440:GrannyChordApp.cpp ****   lowpass_moog_.SetRes(0.7f);
 1467              		.loc 3 440 3 is_stmt 1 view .LVU395
 1468              	.LBB506:
 1469              	.LBI506:
  40:../DaisySP/Source/../DaisySP-LGPL/Source/Filters/moogladder.h ****     /** 
  41:../DaisySP/Source/../DaisySP-LGPL/Source/Filters/moogladder.h ****         Sets the resonance of the filter.
  42:../DaisySP/Source/../DaisySP-LGPL/Source/Filters/moogladder.h ****     */
  43:../DaisySP/Source/../DaisySP-LGPL/Source/Filters/moogladder.h ****     inline void SetRes(float res) { res_ = res; }
 1470              		.loc 10 43 17 view .LVU396
 1471              	.LBB507:
 1472              		.loc 10 43 37 view .LVU397
 1473              	.LBE507:
 1474              	.LBE506:
 1475              		.loc 3 444 23 is_stmt 0 view .LVU398
 1476 0056 1430     		adds	r0, r0, #20
 1477              	.LBB509:
 1478              	.LBB508:
 1479              		.loc 10 43 42 view .LVU399
 1480 0058 0E4A     		ldr	r2, .L62+12
 1481 005a 5A60     		str	r2, [r3, #4]	@ float
 1482              	.LVL101:
 1483              		.loc 10 43 42 view .LVU400
 1484              	.LBE508:
 1485              	.LBE509:
 442:GrannyChordApp.cpp ****   hipass_.SetFilterMode(daisysp::OnePole::FilterMode::FILTER_MODE_HIGH_PASS);
 1486              		.loc 3 442 3 is_stmt 1 view .LVU401
 1487              	.LBB510:
 1488              	.LBI510:
  44:../DaisySP/Source/Filters/onepole.h ****     {
 1489              		.loc 2 44 10 view .LVU402
 1490              	.LBE510:
  46:../DaisySP/Source/Filters/onepole.h ****         mode_ = FILTER_MODE_LOW_PASS;
 1491              		.loc 2 46 9 view .LVU403
 1492              	.LBB513:
 1493              	.LBB511:
 1494              	.LBI511:
  51:../DaisySP/Source/Filters/onepole.h **** 
 1495              		.loc 2 51 17 view .LVU404
 1496              	.LBB512:
  51:../DaisySP/Source/Filters/onepole.h **** 
 1497              		.loc 2 51 27 view .LVU405
ARM GAS  /var/folders/2p/02m_5p7958535cp2tpgps0400000gn/T//cclqaeHn.s 			page 51


  51:../DaisySP/Source/Filters/onepole.h **** 
 1498              		.loc 2 51 34 is_stmt 0 view .LVU406
 1499 005c 0022     		movs	r2, #0
 1500 005e 05F69463 		addw	r3, r5, #3732
 1501 0062 9A60     		str	r2, [r3, #8]	@ float
 1502              	.LVL102:
  51:../DaisySP/Source/Filters/onepole.h **** 
 1503              		.loc 2 51 34 view .LVU407
 1504              	.LBE512:
 1505              	.LBE511:
 1506              	.LBE513:
  47:../DaisySP/Source/Filters/onepole.h ****     }
 1507              		.loc 2 47 9 is_stmt 1 view .LVU408
 443:GrannyChordApp.cpp ****   hipass_.SetFrequency(HIPASS_LOWER_BOUND);
 1508              		.loc 3 443 3 view .LVU409
 1509              	.LBB514:
 1510              	.LBI514:
  68:../DaisySP/Source/Filters/onepole.h **** 
 1511              		.loc 2 68 17 view .LVU410
 1512              	.LBB515:
  68:../DaisySP/Source/Filters/onepole.h **** 
 1513              		.loc 2 68 50 view .LVU411
  68:../DaisySP/Source/Filters/onepole.h **** 
 1514              		.loc 2 68 56 is_stmt 0 view .LVU412
 1515 0064 0123     		movs	r3, #1
 1516 0066 85F8A03E 		strb	r3, [r5, #3744]
 1517              	.LVL103:
  68:../DaisySP/Source/Filters/onepole.h **** 
 1518              		.loc 2 68 56 view .LVU413
 1519              	.LBE515:
 1520              	.LBE514:
 1521              		.loc 3 444 3 is_stmt 1 view .LVU414
 1522              		.loc 3 444 23 is_stmt 0 view .LVU415
 1523 006a FFF7FEFF 		bl	_ZN7daisysp7OnePole12SetFrequencyEf
 1524              	.LVL104:
 445:GrannyChordApp.cpp **** 
 446:GrannyChordApp.cpp ****   hicut_.SetFilterMode(daisysp::OnePole::FilterMode::FILTER_MODE_LOW_PASS);
 1525              		.loc 3 446 3 is_stmt 1 view .LVU416
 1526              	.LBB516:
 1527              	.LBI516:
  68:../DaisySP/Source/Filters/onepole.h **** 
 1528              		.loc 2 68 17 view .LVU417
 1529              	.LBB517:
  68:../DaisySP/Source/Filters/onepole.h **** 
 1530              		.loc 2 68 50 view .LVU418
 1531              	.LBE517:
 1532              	.LBE516:
 447:GrannyChordApp.cpp ****   hicut_.SetFrequency(HICUT_FREQ);
 1533              		.loc 3 447 22 is_stmt 0 view .LVU419
 1534 006e 04F59D40 		add	r0, r4, #20096
 1535              	.LBB520:
 1536              	.LBB518:
  68:../DaisySP/Source/Filters/onepole.h **** 
 1537              		.loc 2 68 56 view .LVU420
 1538 0072 0023     		movs	r3, #0
 1539              	.LBE518:
 1540              	.LBE520:
ARM GAS  /var/folders/2p/02m_5p7958535cp2tpgps0400000gn/T//cclqaeHn.s 			page 52


 1541              		.loc 3 447 22 view .LVU421
 1542 0074 B5EE060A 		vmov.f32	s0, #3.4375e-1
 1543 0078 3030     		adds	r0, r0, #48
 1544              	.LBB521:
 1545              	.LBB519:
  68:../DaisySP/Source/Filters/onepole.h **** 
 1546              		.loc 2 68 56 view .LVU422
 1547 007a 85F8BC3E 		strb	r3, [r5, #3772]
 1548              	.LVL105:
  68:../DaisySP/Source/Filters/onepole.h **** 
 1549              		.loc 2 68 56 view .LVU423
 1550              	.LBE519:
 1551              	.LBE521:
 1552              		.loc 3 447 3 is_stmt 1 view .LVU424
 1553              		.loc 3 447 22 is_stmt 0 view .LVU425
 1554 007e FFF7FEFF 		bl	_ZN7daisysp7OnePole12SetFrequencyEf
 1555              	.LVL106:
 448:GrannyChordApp.cpp **** }
 1556              		.loc 3 448 1 view .LVU426
 1557 0082 03B0     		add	sp, sp, #12
 1558              		.cfi_def_cfa_offset 12
 1559              		@ sp needed
 1560 0084 30BD     		pop	{r4, r5, pc}
 1561              	.LVL107:
 1562              	.L63:
 1563              		.loc 3 448 1 view .LVU427
 1564 0086 00BF     		.align	2
 1565              	.L62:
 1566 0088 00803B47 		.word	1195081728
 1567 008c 00A08C46 		.word	1183621120
 1568 0090 17B7D139 		.word	970045207
 1569 0094 3333333F 		.word	1060320051
 1570              		.cfi_endproc
 1571              	.LFE4936:
 1573              		.section	.text._ZN14GrannyChordApp17InitPrevParamValsEv,"ax",%progbits
 1574              		.align	1
 1575              		.global	_ZN14GrannyChordApp17InitPrevParamValsEv
 1576              		.syntax unified
 1577              		.thumb
 1578              		.thumb_func
 1580              	_ZN14GrannyChordApp17InitPrevParamValsEv:
 1581              	.LVL108:
 1582              	.LFB4937:
 449:GrannyChordApp.cpp **** 
 450:GrannyChordApp.cpp **** /// @brief Initialise previous parameter value arrays to defaults
 451:GrannyChordApp.cpp **** void GrannyChordApp::InitPrevParamVals(){
 1583              		.loc 3 451 41 is_stmt 1 view -0
 1584              		.cfi_startproc
 1585              		@ args = 0, pretend = 0, frame = 0
 1586              		@ frame_needed = 0, uses_anonymous_args = 0
 1587              		@ link register save eliminated.
 452:GrannyChordApp.cpp ****   /* set regular synth parameters */
 453:GrannyChordApp.cpp ****   for (int i=0; i < NUM_SYNTH_MODES;i++){
 1588              		.loc 3 453 3 view .LVU429
 1589              	.LBB522:
 1590              		.loc 3 453 19 view .LVU430
 1591 0000 00F59E40 		add	r0, r0, #20224
ARM GAS  /var/folders/2p/02m_5p7958535cp2tpgps0400000gn/T//cclqaeHn.s 			page 53


 1592              	.LVL109:
 1593              		.loc 3 453 12 is_stmt 0 view .LVU431
 1594 0004 0023     		movs	r3, #0
 1595 0006 5430     		adds	r0, r0, #84
 1596              	.LVL110:
 1597              	.L67:
 454:GrannyChordApp.cpp ****     if (i<3){
 1598              		.loc 3 454 5 is_stmt 1 view .LVU432
 1599 0008 022B     		cmp	r3, #2
 455:GrannyChordApp.cpp ****       prev_param_k1[i] = 0.5f;
 1600              		.loc 3 455 7 view .LVU433
 453:GrannyChordApp.cpp ****     if (i<3){
 1601              		.loc 3 453 3 is_stmt 0 view .LVU434
 1602 000a 03F10103 		add	r3, r3, #1
 1603              	.LVL111:
 453:GrannyChordApp.cpp ****     if (i<3){
 1604              		.loc 3 453 19 view .LVU435
 1605 000e 00F10400 		add	r0, r0, #4
 1606              		.loc 3 455 24 view .LVU436
 1607 0012 D4BF     		ite	le
 1608 0014 4FF07C52 		movle	r2, #1056964608
 456:GrannyChordApp.cpp ****       prev_param_k2[i] = 0.5f;
 457:GrannyChordApp.cpp ****     }
 458:GrannyChordApp.cpp ****     /* set randomness and FX values to 0 initially */
 459:GrannyChordApp.cpp ****     else {
 460:GrannyChordApp.cpp ****       prev_param_k1[i]=0.0f;
 1609              		.loc 3 460 7 is_stmt 1 view .LVU437
 1610              		.loc 3 460 23 is_stmt 0 view .LVU438
 1611 0018 0022     		movgt	r2, #0
 453:GrannyChordApp.cpp ****     if (i<3){
 1612              		.loc 3 453 19 view .LVU439
 1613 001a 082B     		cmp	r3, #8
 1614              		.loc 3 460 23 view .LVU440
 1615 001c 40F8042C 		str	r2, [r0, #-4]	@ float
 461:GrannyChordApp.cpp ****       prev_param_k2[i]=0.0f;
 1616              		.loc 3 461 7 is_stmt 1 view .LVU441
 1617              		.loc 3 461 23 is_stmt 0 view .LVU442
 1618 0020 C261     		str	r2, [r0, #28]	@ float
 453:GrannyChordApp.cpp ****     if (i<3){
 1619              		.loc 3 453 3 is_stmt 1 view .LVU443
 1620              	.LVL112:
 453:GrannyChordApp.cpp ****     if (i<3){
 1621              		.loc 3 453 19 view .LVU444
 1622 0022 F1D1     		bne	.L67
 1623              	.LBE522:
 462:GrannyChordApp.cpp ****     }
 463:GrannyChordApp.cpp ****   }
 464:GrannyChordApp.cpp **** }
 1624              		.loc 3 464 1 is_stmt 0 view .LVU445
 1625 0024 7047     		bx	lr
 1626              		.cfi_endproc
 1627              	.LFE4937:
 1629              		.section	.rodata._ZN14GrannyChordApp9InitSynthEv.str1.1,"aMS",%progbits,1
 1630              	.LC7:
 1631 0000 73796E74 		.ascii	"synth init ok - samples %u\000"
 1631      6820696E 
 1631      6974206F 
ARM GAS  /var/folders/2p/02m_5p7958535cp2tpgps0400000gn/T//cclqaeHn.s 			page 54


 1631      6B202D20 
 1631      73616D70 
 1632              		.section	.text._ZN14GrannyChordApp9InitSynthEv,"ax",%progbits
 1633              		.align	1
 1634              		.global	_ZN14GrannyChordApp9InitSynthEv
 1635              		.syntax unified
 1636              		.thumb
 1637              		.thumb_func
 1639              	_ZN14GrannyChordApp9InitSynthEv:
 1640              	.LVL113:
 1641              	.LFB4932:
 393:GrannyChordApp.cpp ****   synth_.Init(left_buf_, right_buf_, filemgr_.GetSamplesPerChannel());
 1642              		.loc 3 393 33 is_stmt 1 view -0
 1643              		.cfi_startproc
 1644              		@ args = 0, pretend = 0, frame = 0
 1645              		@ frame_needed = 0, uses_anonymous_args = 0
 394:GrannyChordApp.cpp ****   InitPrevParamVals();
 1646              		.loc 3 394 3 view .LVU447
 394:GrannyChordApp.cpp ****   InitPrevParamVals();
 1647              		.loc 3 394 38 is_stmt 0 view .LVU448
 1648 0000 D0F88C22 		ldr	r2, [r0, #652]
 1649              	.LVL114:
 1650              	.LBB523:
 1651              	.LBI523:
  27:AudioFileManager.h ****     size_t GetTotalSamples() const { return header_.total_samples; }
 1652              		.loc 8 27 12 is_stmt 1 view .LVU449
 1653              	.LBB524:
  27:AudioFileManager.h ****     size_t GetTotalSamples() const { return header_.total_samples; }
 1654              		.loc 8 27 43 view .LVU450
  27:AudioFileManager.h ****     size_t GetTotalSamples() const { return header_.total_samples; }
 1655              		.loc 8 27 43 is_stmt 0 view .LVU451
 1656              	.LBE524:
 1657              	.LBE523:
 394:GrannyChordApp.cpp ****   InitPrevParamVals();
 1658              		.loc 3 394 14 view .LVU452
 1659 0004 00F58041 		add	r1, r0, #16384
 1660              	.LBB526:
 1661              	.LBB525:
  27:AudioFileManager.h ****     size_t GetTotalSamples() const { return header_.total_samples; }
 1662              		.loc 8 27 58 view .LVU453
 1663 0008 02F58052 		add	r2, r2, #4096
  27:AudioFileManager.h ****     size_t GetTotalSamples() const { return header_.total_samples; }
 1664              		.loc 8 27 82 view .LVU454
 1665 000c B2F92830 		ldrsh	r3, [r2, #40]
 1666 0010 D26A     		ldr	r2, [r2, #44]
 1667              	.LBE525:
 1668              	.LBE526:
 393:GrannyChordApp.cpp ****   synth_.Init(left_buf_, right_buf_, filemgr_.GetSamplesPerChannel());
 1669              		.loc 3 393 33 view .LVU455
 1670 0012 10B5     		push	{r4, lr}
 1671              		.cfi_def_cfa_offset 8
 1672              		.cfi_offset 4, -8
 1673              		.cfi_offset 14, -4
 393:GrannyChordApp.cpp ****   synth_.Init(left_buf_, right_buf_, filemgr_.GetSamplesPerChannel());
 1674              		.loc 3 393 33 view .LVU456
 1675 0014 0446     		mov	r4, r0
 394:GrannyChordApp.cpp ****   InitPrevParamVals();
ARM GAS  /var/folders/2p/02m_5p7958535cp2tpgps0400000gn/T//cclqaeHn.s 			page 55


 1676              		.loc 3 394 14 view .LVU457
 1677 0016 2030     		adds	r0, r0, #32
 1678              	.LVL115:
 394:GrannyChordApp.cpp ****   InitPrevParamVals();
 1679              		.loc 3 394 14 view .LVU458
 1680 0018 B2FBF3F3 		udiv	r3, r2, r3
 1681 001c D1F8C42E 		ldr	r2, [r1, #3780]
 1682 0020 D1F8C01E 		ldr	r1, [r1, #3776]
 1683 0024 FFF7FEFF 		bl	_ZN13GranularSynth4InitEPsS0_j
 1684              	.LVL116:
 395:GrannyChordApp.cpp ****   DebugPrint(pod_,"synth init ok - samples %u",filemgr_.GetSamplesPerChannel());
 1685              		.loc 3 395 3 is_stmt 1 view .LVU459
 395:GrannyChordApp.cpp ****   DebugPrint(pod_,"synth init ok - samples %u",filemgr_.GetSamplesPerChannel());
 1686              		.loc 3 395 20 is_stmt 0 view .LVU460
 1687 0028 2046     		mov	r0, r4
 1688 002a FFF7FEFF 		bl	_ZN14GrannyChordApp17InitPrevParamValsEv
 1689              	.LVL117:
 396:GrannyChordApp.cpp **** }
 1690              		.loc 3 396 3 is_stmt 1 view .LVU461
 396:GrannyChordApp.cpp **** }
 1691              		.loc 3 396 3 view .LVU462
 1692 002e D4F88C32 		ldr	r3, [r4, #652]
 1693              	.LVL118:
 1694              	.LBB527:
 1695              	.LBI527:
  27:AudioFileManager.h ****     size_t GetTotalSamples() const { return header_.total_samples; }
 1696              		.loc 8 27 12 view .LVU463
 1697              	.LBB528:
  27:AudioFileManager.h ****     size_t GetTotalSamples() const { return header_.total_samples; }
 1698              		.loc 8 27 43 view .LVU464
  27:AudioFileManager.h ****     size_t GetTotalSamples() const { return header_.total_samples; }
 1699              		.loc 8 27 43 is_stmt 0 view .LVU465
 1700              	.LBE528:
 1701              	.LBE527:
 1702              	.LBB530:
 1703              	.LBI530:
 126:../libDaisy/src/daisy_seed.h ****     {
 1704              		.loc 5 126 17 is_stmt 1 view .LVU466
 1705              	.LBB531:
 1706              		.loc 5 128 23 is_stmt 0 view .LVU467
 1707 0032 0648     		ldr	r0, .L71
 1708              	.LBE531:
 1709              	.LBE530:
 1710              	.LBB533:
 1711              	.LBB529:
  27:AudioFileManager.h ****     size_t GetTotalSamples() const { return header_.total_samples; }
 1712              		.loc 8 27 58 view .LVU468
 1713 0034 03F58053 		add	r3, r3, #4096
 1714              	.LVL119:
  27:AudioFileManager.h ****     size_t GetTotalSamples() const { return header_.total_samples; }
 1715              		.loc 8 27 82 view .LVU469
 1716 0038 B3F92820 		ldrsh	r2, [r3, #40]
 1717 003c D96A     		ldr	r1, [r3, #44]
 1718              	.LBE529:
 1719              	.LBE533:
 397:GrannyChordApp.cpp **** 
 1720              		.loc 3 397 1 view .LVU470
ARM GAS  /var/folders/2p/02m_5p7958535cp2tpgps0400000gn/T//cclqaeHn.s 			page 56


 1721 003e BDE81040 		pop	{r4, lr}
 1722              		.cfi_restore 14
 1723              		.cfi_restore 4
 1724              		.cfi_def_cfa_offset 0
 1725              	.LVL120:
 1726              	.LBB534:
 1727              	.LBB532:
 1728              		.loc 5 128 23 view .LVU471
 1729 0042 B1FBF2F1 		udiv	r1, r1, r2
 1730 0046 FFF7FEBF 		b	_ZN5daisy6LoggerILNS_17LoggerDestinationE1EE9PrintLineEPKcz
 1731              	.LVL121:
 1732              	.L72:
 1733              		.loc 5 128 23 view .LVU472
 1734 004a 00BF     		.align	2
 1735              	.L71:
 1736 004c 00000000 		.word	.LC7
 1737              	.LBE532:
 1738              	.LBE534:
 1739              		.cfi_endproc
 1740              	.LFE4932:
 1742              		.section	.text._ZN14GrannyChordApp18ProcessWAVPlaybackEPPfj,"ax",%progbits
 1743              		.align	1
 1744              		.global	_ZN14GrannyChordApp18ProcessWAVPlaybackEPPfj
 1745              		.syntax unified
 1746              		.thumb
 1747              		.thumb_func
 1749              	_ZN14GrannyChordApp18ProcessWAVPlaybackEPPfj:
 1750              	.LVL122:
 1751              	.LFB4940:
 465:GrannyChordApp.cpp **** 
 466:GrannyChordApp.cpp **** /// @brief Master audio callback, called at audio rate, calls all audio processing methods
 467:GrannyChordApp.cpp **** /// @param in Audio input buffer
 468:GrannyChordApp.cpp **** /// @param out Audio output buffer
 469:GrannyChordApp.cpp **** /// @param size Number of samples to process in this call
 470:GrannyChordApp.cpp **** void GrannyChordApp::AudioCallback(AudioHandle::InputBuffer in, AudioHandle::OutputBuffer out, size
 471:GrannyChordApp.cpp ****   instance_->ProcessAudio(in,out,size);
 472:GrannyChordApp.cpp **** }
 473:GrannyChordApp.cpp **** 
 474:GrannyChordApp.cpp **** void GrannyChordApp::ProcessAudio(AudioHandle::InputBuffer in, AudioHandle::OutputBuffer out, size_
 475:GrannyChordApp.cpp ****   switch(curr_state_){
 476:GrannyChordApp.cpp ****     case AppState::PlayWAV:
 477:GrannyChordApp.cpp ****       if (wav_playhead_>= filemgr_.GetSamplesPerChannel() -1){
 478:GrannyChordApp.cpp ****         instance_->pod_.StopAudio();
 479:GrannyChordApp.cpp ****         DebugPrint(pod_, "stopped audio > len"); 
 480:GrannyChordApp.cpp ****         return;
 481:GrannyChordApp.cpp ****       }
 482:GrannyChordApp.cpp ****       ProcessWAVPlayback(out,size);
 483:GrannyChordApp.cpp ****       return;  
 484:GrannyChordApp.cpp ****     case AppState::RecordIn:
 485:GrannyChordApp.cpp ****       ProcessRecordIn(in, out, size);
 486:GrannyChordApp.cpp ****       return;
 487:GrannyChordApp.cpp ****     case AppState::Synthesis:
 488:GrannyChordApp.cpp ****       ProcessSynthesis(out,size);
 489:GrannyChordApp.cpp ****       return;
 490:GrannyChordApp.cpp ****     // case AppState::ChordMode:
 491:GrannyChordApp.cpp ****     // return;
 492:GrannyChordApp.cpp ****     default:
ARM GAS  /var/folders/2p/02m_5p7958535cp2tpgps0400000gn/T//cclqaeHn.s 			page 57


 493:GrannyChordApp.cpp ****       return;
 494:GrannyChordApp.cpp ****   }
 495:GrannyChordApp.cpp **** }
 496:GrannyChordApp.cpp **** 
 497:GrannyChordApp.cpp **** /// @brief Process audio for WAV playback mode and increment playback position
 498:GrannyChordApp.cpp **** /// @param out Output audio buffer
 499:GrannyChordApp.cpp **** /// @param size Number of samples to process in this call
 500:GrannyChordApp.cpp **** void GrannyChordApp::ProcessWAVPlayback(AudioHandle::OutputBuffer out, size_t size){
 1752              		.loc 3 500 84 is_stmt 1 view -0
 1753              		.cfi_startproc
 1754              		@ args = 0, pretend = 0, frame = 0
 1755              		@ frame_needed = 0, uses_anonymous_args = 0
 501:GrannyChordApp.cpp ****   for (size_t i=0; i<size; i++){
 1756              		.loc 3 501 3 view .LVU474
 500:GrannyChordApp.cpp ****   for (size_t i=0; i<size; i++){
 1757              		.loc 3 500 84 is_stmt 0 view .LVU475
 1758 0000 F0B5     		push	{r4, r5, r6, r7, lr}
 1759              		.cfi_def_cfa_offset 20
 1760              		.cfi_offset 4, -20
 1761              		.cfi_offset 5, -16
 1762              		.cfi_offset 6, -12
 1763              		.cfi_offset 7, -8
 1764              		.cfi_offset 14, -4
 1765              	.LBB535:
 1766              		.loc 3 501 15 view .LVU476
 1767 0002 0024     		movs	r4, #0
 1768              	.LVL123:
 1769              	.L76:
 1770              		.loc 3 501 21 is_stmt 1 discriminator 1 view .LVU477
 1771 0004 9442     		cmp	r4, r2
 1772 0006 39D0     		beq	.L73
 502:GrannyChordApp.cpp ****     if (wav_playhead_ < filemgr_.GetSamplesPerChannel()){
 1773              		.loc 3 502 5 view .LVU478
 1774              		.loc 3 502 25 is_stmt 0 view .LVU479
 1775 0008 D0F88C62 		ldr	r6, [r0, #652]
 1776              	.LVL124:
 1777              	.LBB536:
 1778              	.LBI536:
  27:AudioFileManager.h ****     size_t GetTotalSamples() const { return header_.total_samples; }
 1779              		.loc 8 27 12 is_stmt 1 view .LVU480
 1780              	.LBB537:
  27:AudioFileManager.h ****     size_t GetTotalSamples() const { return header_.total_samples; }
 1781              		.loc 8 27 43 view .LVU481
  27:AudioFileManager.h ****     size_t GetTotalSamples() const { return header_.total_samples; }
 1782              		.loc 8 27 43 is_stmt 0 view .LVU482
 1783              	.LBE537:
 1784              	.LBE536:
 1785              		.loc 3 502 9 view .LVU483
 1786 000c 00F58045 		add	r5, r0, #16384
 1787              	.LBB540:
 1788              	.LBB538:
  27:AudioFileManager.h ****     size_t GetTotalSamples() const { return header_.total_samples; }
 1789              		.loc 8 27 58 view .LVU484
 1790 0010 06F58056 		add	r6, r6, #4096
 1791              	.LBE538:
 1792              	.LBE540:
 1793              		.loc 3 502 9 view .LVU485
ARM GAS  /var/folders/2p/02m_5p7958535cp2tpgps0400000gn/T//cclqaeHn.s 			page 58


 1794 0014 D5F8CC3E 		ldr	r3, [r5, #3788]
 1795              	.LBB541:
 1796              	.LBB539:
  27:AudioFileManager.h ****     size_t GetTotalSamples() const { return header_.total_samples; }
 1797              		.loc 8 27 82 view .LVU486
 1798 0018 B6F92870 		ldrsh	r7, [r6, #40]
 1799 001c F66A     		ldr	r6, [r6, #44]
 1800 001e B6FBF7F6 		udiv	r6, r6, r7
 1801              	.LBE539:
 1802              	.LBE541:
 1803              		.loc 3 502 5 view .LVU487
 1804 0022 B342     		cmp	r3, r6
 1805 0024 28D2     		bcs	.L75
 503:GrannyChordApp.cpp ****       out[0][i] = s162f(left_buf_[wav_playhead_]) * 0.5f;
 1806              		.loc 3 503 7 is_stmt 1 view .LVU488
 1807              	.LBB542:
 1808              	.LBI542:
 1809              		.file 11 "../libDaisy/src/daisy_core.h"
   1:../libDaisy/src/daisy_core.h **** #pragma once
   2:../libDaisy/src/daisy_core.h **** #ifndef DSY_CORE_HW_H
   3:../libDaisy/src/daisy_core.h **** #define DSY_CORE_HW_H /**< & */
   4:../libDaisy/src/daisy_core.h **** #include <stdint.h>
   5:../libDaisy/src/daisy_core.h **** #include <stdlib.h>
   6:../libDaisy/src/daisy_core.h **** 
   7:../libDaisy/src/daisy_core.h **** #if defined(_MSC_VER)
   8:../libDaisy/src/daisy_core.h **** #define FORCE_INLINE __forceinline /**< & */
   9:../libDaisy/src/daisy_core.h **** #elif defined(__clang__)
  10:../libDaisy/src/daisy_core.h **** #define FORCE_INLINE inline __attribute__((always_inline)) /**< & */
  11:../libDaisy/src/daisy_core.h **** #pragma clang diagnostic ignored "-Wduplicate-decl-specifier"
  12:../libDaisy/src/daisy_core.h **** #elif defined(__GNUC__)
  13:../libDaisy/src/daisy_core.h **** #define FORCE_INLINE inline __attribute__((always_inline)) /**< & */
  14:../libDaisy/src/daisy_core.h **** #else
  15:../libDaisy/src/daisy_core.h **** #error unknown compiler
  16:../libDaisy/src/daisy_core.h **** #endif
  17:../libDaisy/src/daisy_core.h **** 
  18:../libDaisy/src/daisy_core.h **** /** @addtogroup utility
  19:../libDaisy/src/daisy_core.h ****     @{
  20:../libDaisy/src/daisy_core.h **** */
  21:../libDaisy/src/daisy_core.h **** 
  22:../libDaisy/src/daisy_core.h **** /** Macro for area of memory that is configured as cacheless
  23:../libDaisy/src/daisy_core.h **** This should be used primarily for DMA buffers, and the like.
  24:../libDaisy/src/daisy_core.h **** */
  25:../libDaisy/src/daisy_core.h **** #define DMA_BUFFER_MEM_SECTION __attribute__((section(".sram1_bss")))
  26:../libDaisy/src/daisy_core.h **** /** 
  27:../libDaisy/src/daisy_core.h **** THE DTCM RAM section is also non-cached. However, is not suitable 
  28:../libDaisy/src/daisy_core.h **** for DMA transfers. Performance is on par with internal SRAM w/ 
  29:../libDaisy/src/daisy_core.h **** cache enabled.
  30:../libDaisy/src/daisy_core.h **** */
  31:../libDaisy/src/daisy_core.h **** #define DTCM_MEM_SECTION __attribute__((section(".dtcmram_bss")))
  32:../libDaisy/src/daisy_core.h **** 
  33:../libDaisy/src/daisy_core.h **** #define FBIPMAX 0.999985f             /**< close to 1.0f-LSB at 16 bit */
  34:../libDaisy/src/daisy_core.h **** #define FBIPMIN (-FBIPMAX)            /**< - (1 - LSB) */
  35:../libDaisy/src/daisy_core.h **** #define U82F_SCALE 0.0078740f         /**< 1 / 127 */
  36:../libDaisy/src/daisy_core.h **** #define F2U8_SCALE 127.0f             /**< 128 - 1 */
  37:../libDaisy/src/daisy_core.h **** #define S82F_SCALE 0.0078125f         /**< 1 / (2**7) */
  38:../libDaisy/src/daisy_core.h **** #define F2S8_SCALE 127.0f             /**< (2 ** 7) - 1 */
  39:../libDaisy/src/daisy_core.h **** #define S162F_SCALE 3.0517578125e-05f /**< 1 / (2** 15) */
ARM GAS  /var/folders/2p/02m_5p7958535cp2tpgps0400000gn/T//cclqaeHn.s 			page 59


  40:../libDaisy/src/daisy_core.h **** #define F2S16_SCALE 32767.0f          /**< (2 ** 15) - 1 */
  41:../libDaisy/src/daisy_core.h **** #define F2S24_SCALE 8388608.0f        /**< 2 ** 23 */
  42:../libDaisy/src/daisy_core.h **** #define S242F_SCALE 1.192092896e-07f  /**< 1 / (2 ** 23) */
  43:../libDaisy/src/daisy_core.h **** #define S24SIGN 0x800000              /**< 2 ** 23 */
  44:../libDaisy/src/daisy_core.h **** #define S322F_SCALE 4.6566129e-10f    /**< 1 / (2** 31) */
  45:../libDaisy/src/daisy_core.h **** #define F2S32_SCALE 2147483647.f      /**< (2 ** 31) - 1 */
  46:../libDaisy/src/daisy_core.h **** 
  47:../libDaisy/src/daisy_core.h **** 
  48:../libDaisy/src/daisy_core.h **** /** shorthand macro for simplifying the reading of the left 
  49:../libDaisy/src/daisy_core.h ****  *  channel of a non-interleaved output buffer named out */
  50:../libDaisy/src/daisy_core.h **** #define OUT_L out[0]
  51:../libDaisy/src/daisy_core.h **** 
  52:../libDaisy/src/daisy_core.h **** /** shorthand macro for simplifying the reading of the right 
  53:../libDaisy/src/daisy_core.h ****  *  channel of a non-interleaved output buffer named out */
  54:../libDaisy/src/daisy_core.h **** #define OUT_R out[1]
  55:../libDaisy/src/daisy_core.h **** 
  56:../libDaisy/src/daisy_core.h **** /** shorthand macro for simplifying the reading of the left 
  57:../libDaisy/src/daisy_core.h ****  *  channel of a non-interleaved input buffer named in */
  58:../libDaisy/src/daisy_core.h **** #define IN_L in[0]
  59:../libDaisy/src/daisy_core.h **** 
  60:../libDaisy/src/daisy_core.h **** /** shorthand macro for simplifying the reading of the right 
  61:../libDaisy/src/daisy_core.h ****  *  channel of a non-interleaved input buffer named in */
  62:../libDaisy/src/daisy_core.h **** #define IN_R in[1]
  63:../libDaisy/src/daisy_core.h **** 
  64:../libDaisy/src/daisy_core.h **** /** 
  65:../libDaisy/src/daisy_core.h ****     Computes cube.
  66:../libDaisy/src/daisy_core.h ****     \param x Number to be cubed
  67:../libDaisy/src/daisy_core.h ****     \return x ^ 3
  68:../libDaisy/src/daisy_core.h **** */
  69:../libDaisy/src/daisy_core.h **** FORCE_INLINE float cube(float x)
  70:../libDaisy/src/daisy_core.h **** {
  71:../libDaisy/src/daisy_core.h ****     return (x * x) * x;
  72:../libDaisy/src/daisy_core.h **** }
  73:../libDaisy/src/daisy_core.h **** 
  74:../libDaisy/src/daisy_core.h **** /** 
  75:../libDaisy/src/daisy_core.h ****     Converts unsigned 8-bit to float
  76:../libDaisy/src/daisy_core.h ****     \param x Number to be scaled.
  77:../libDaisy/src/daisy_core.h ****     \return Scaled number.
  78:../libDaisy/src/daisy_core.h **** */
  79:../libDaisy/src/daisy_core.h **** FORCE_INLINE float u82f(uint8_t x)
  80:../libDaisy/src/daisy_core.h **** {
  81:../libDaisy/src/daisy_core.h ****     return ((float)x - 127.f) * U82F_SCALE;
  82:../libDaisy/src/daisy_core.h **** }
  83:../libDaisy/src/daisy_core.h **** 
  84:../libDaisy/src/daisy_core.h **** /**
  85:../libDaisy/src/daisy_core.h ****     Converts float to unsigned 8-bit
  86:../libDaisy/src/daisy_core.h **** */
  87:../libDaisy/src/daisy_core.h **** FORCE_INLINE uint8_t f2u8(float x)
  88:../libDaisy/src/daisy_core.h **** {
  89:../libDaisy/src/daisy_core.h ****     x = x <= FBIPMIN ? FBIPMIN : x;
  90:../libDaisy/src/daisy_core.h ****     x = x >= FBIPMAX ? FBIPMAX : x;
  91:../libDaisy/src/daisy_core.h ****     return (uint8_t)((x * F2U8_SCALE) + F2U8_SCALE);
  92:../libDaisy/src/daisy_core.h **** }
  93:../libDaisy/src/daisy_core.h **** 
  94:../libDaisy/src/daisy_core.h **** 
  95:../libDaisy/src/daisy_core.h **** /** 
  96:../libDaisy/src/daisy_core.h ****     Converts Signed 8-bit to float
ARM GAS  /var/folders/2p/02m_5p7958535cp2tpgps0400000gn/T//cclqaeHn.s 			page 60


  97:../libDaisy/src/daisy_core.h ****     \param x Number to be scaled.
  98:../libDaisy/src/daisy_core.h ****     \return Scaled number.
  99:../libDaisy/src/daisy_core.h **** */
 100:../libDaisy/src/daisy_core.h **** FORCE_INLINE float s82f(int8_t x)
 101:../libDaisy/src/daisy_core.h **** {
 102:../libDaisy/src/daisy_core.h ****     return (float)x * S82F_SCALE;
 103:../libDaisy/src/daisy_core.h **** }
 104:../libDaisy/src/daisy_core.h **** 
 105:../libDaisy/src/daisy_core.h **** /**
 106:../libDaisy/src/daisy_core.h ****     Converts float to Signed 8-bit
 107:../libDaisy/src/daisy_core.h **** */
 108:../libDaisy/src/daisy_core.h **** FORCE_INLINE int8_t f2s8(float x)
 109:../libDaisy/src/daisy_core.h **** {
 110:../libDaisy/src/daisy_core.h ****     x = x <= FBIPMIN ? FBIPMIN : x;
 111:../libDaisy/src/daisy_core.h ****     x = x >= FBIPMAX ? FBIPMAX : x;
 112:../libDaisy/src/daisy_core.h ****     return (int32_t)(x * F2S8_SCALE);
 113:../libDaisy/src/daisy_core.h **** }
 114:../libDaisy/src/daisy_core.h **** 
 115:../libDaisy/src/daisy_core.h **** /** 
 116:../libDaisy/src/daisy_core.h ****     Converts Signed 16-bit to float
 117:../libDaisy/src/daisy_core.h ****     \param x Number to be scaled.
 118:../libDaisy/src/daisy_core.h ****     \return Scaled number.
 119:../libDaisy/src/daisy_core.h **** */
 120:../libDaisy/src/daisy_core.h **** FORCE_INLINE float s162f(int16_t x)
 1810              		.loc 11 120 20 view .LVU489
 1811              	.LBB543:
 121:../libDaisy/src/daisy_core.h **** {
 122:../libDaisy/src/daisy_core.h ****     return (float)x * S162F_SCALE;
 1812              		.loc 11 122 5 view .LVU490
 1813              	.LBE543:
 1814              	.LBE542:
 1815              		.loc 3 503 24 is_stmt 0 view .LVU491
 1816 0026 D5F8C07E 		ldr	r7, [r5, #3776]
 1817              		.loc 3 503 51 view .LVU492
 1818 002a F6EE006A 		vmov.f32	s13, #5.0e-1
 1819              	.LBB548:
 1820              	.LBB544:
 1821              		.loc 11 122 23 view .LVU493
 1822 002e 9FED146A 		vldr.32	s12, .L78
 1823              		.loc 11 122 12 view .LVU494
 1824 0032 37F91370 		ldrsh	r7, [r7, r3, lsl #1]
 1825              	.LBE544:
 1826              	.LBE548:
 1827              		.loc 3 503 17 view .LVU495
 1828 0036 0E68     		ldr	r6, [r1]
 1829              	.LBB549:
 1830              	.LBB545:
 1831              		.loc 11 122 12 view .LVU496
 1832 0038 07EE107A 		vmov	s14, r7	@ int
 1833              	.LBE545:
 1834              	.LBE549:
 504:GrannyChordApp.cpp ****       out[1][i] = s162f(right_buf_[wav_playhead_]) * 0.5f;
 1835              		.loc 3 504 24 view .LVU497
 1836 003c D5F8C47E 		ldr	r7, [r5, #3780]
 503:GrannyChordApp.cpp ****       out[1][i] = s162f(right_buf_[wav_playhead_]) * 0.5f;
 1837              		.loc 3 503 17 view .LVU498
 1838 0040 06EB8406 		add	r6, r6, r4, lsl #2
ARM GAS  /var/folders/2p/02m_5p7958535cp2tpgps0400000gn/T//cclqaeHn.s 			page 61


 1839              	.LBB550:
 1840              	.LBB551:
 1841              		.loc 11 122 12 view .LVU499
 1842 0044 37F91370 		ldrsh	r7, [r7, r3, lsl #1]
 1843              	.LBE551:
 1844              	.LBE550:
 1845              	.LBB556:
 1846              	.LBB546:
 1847 0048 B8EEC77A 		vcvt.f32.s32	s14, s14
 1848              	.LBE546:
 1849              	.LBE556:
 505:GrannyChordApp.cpp ****       wav_playhead_++;
 1850              		.loc 3 505 20 view .LVU500
 1851 004c 0133     		adds	r3, r3, #1
 1852              	.LBB557:
 1853              	.LBB552:
 1854              		.loc 11 122 12 view .LVU501
 1855 004e 07EE907A 		vmov	s15, r7	@ int
 1856              	.LBE552:
 1857              	.LBE557:
 1858              	.LBB558:
 1859              	.LBB547:
 1860              		.loc 11 122 23 view .LVU502
 1861 0052 27EE067A 		vmul.f32	s14, s14, s12
 1862              	.LBE547:
 1863              	.LBE558:
 1864              	.LBB559:
 1865              	.LBB553:
 1866              		.loc 11 122 12 view .LVU503
 1867 0056 F8EEE77A 		vcvt.f32.s32	s15, s15
 1868              	.LBE553:
 1869              	.LBE559:
 503:GrannyChordApp.cpp ****       out[1][i] = s162f(right_buf_[wav_playhead_]) * 0.5f;
 1870              		.loc 3 503 51 view .LVU504
 1871 005a 27EE267A 		vmul.f32	s14, s14, s13
 1872              	.LBB560:
 1873              	.LBB554:
 1874              		.loc 11 122 23 view .LVU505
 1875 005e 67EE867A 		vmul.f32	s15, s15, s12
 1876              	.LBE554:
 1877              	.LBE560:
 503:GrannyChordApp.cpp ****       out[1][i] = s162f(right_buf_[wav_playhead_]) * 0.5f;
 1878              		.loc 3 503 17 view .LVU506
 1879 0062 86ED007A 		vstr.32	s14, [r6]
 504:GrannyChordApp.cpp ****       out[1][i] = s162f(right_buf_[wav_playhead_]) * 0.5f;
 1880              		.loc 3 504 7 is_stmt 1 view .LVU507
 1881              	.LBB561:
 1882              	.LBI550:
 120:../libDaisy/src/daisy_core.h **** {
 1883              		.loc 11 120 20 view .LVU508
 1884              	.LBB555:
 1885              		.loc 11 122 5 view .LVU509
 1886              	.LBE555:
 1887              	.LBE561:
 504:GrannyChordApp.cpp ****       wav_playhead_++;
 1888              		.loc 3 504 17 is_stmt 0 view .LVU510
 1889 0066 4E68     		ldr	r6, [r1, #4]
ARM GAS  /var/folders/2p/02m_5p7958535cp2tpgps0400000gn/T//cclqaeHn.s 			page 62


 504:GrannyChordApp.cpp ****       wav_playhead_++;
 1890              		.loc 3 504 52 view .LVU511
 1891 0068 67EEA67A 		vmul.f32	s15, s15, s13
 504:GrannyChordApp.cpp ****       wav_playhead_++;
 1892              		.loc 3 504 17 view .LVU512
 1893 006c 06EB8406 		add	r6, r6, r4, lsl #2
 1894 0070 C6ED007A 		vstr.32	s15, [r6]
 1895              		.loc 3 505 7 is_stmt 1 view .LVU513
 1896              		.loc 3 505 20 is_stmt 0 view .LVU514
 1897 0074 C5F8CC3E 		str	r3, [r5, #3788]
 1898              	.L75:
 501:GrannyChordApp.cpp ****     if (wav_playhead_ < filemgr_.GetSamplesPerChannel()){
 1899              		.loc 3 501 3 is_stmt 1 discriminator 2 view .LVU515
 1900 0078 0134     		adds	r4, r4, #1
 1901              	.LVL125:
 501:GrannyChordApp.cpp ****     if (wav_playhead_ < filemgr_.GetSamplesPerChannel()){
 1902              		.loc 3 501 3 is_stmt 0 discriminator 2 view .LVU516
 1903 007a C3E7     		b	.L76
 1904              	.L73:
 501:GrannyChordApp.cpp ****     if (wav_playhead_ < filemgr_.GetSamplesPerChannel()){
 1905              		.loc 3 501 3 discriminator 2 view .LVU517
 1906              	.LBE535:
 506:GrannyChordApp.cpp ****     }
 507:GrannyChordApp.cpp ****   }
 508:GrannyChordApp.cpp **** }
 1907              		.loc 3 508 1 view .LVU518
 1908 007c F0BD     		pop	{r4, r5, r6, r7, pc}
 1909              	.LVL126:
 1910              	.L79:
 1911              		.loc 3 508 1 view .LVU519
 1912 007e 00BF     		.align	2
 1913              	.L78:
 1914 0080 00000038 		.word	939524096
 1915              		.cfi_endproc
 1916              	.LFE4940:
 1918              		.section	.text._ZN14GrannyChordApp15ProcessRecordInEPKPKfPPfj,"ax",%progbits
 1919              		.align	1
 1920              		.global	_ZN14GrannyChordApp15ProcessRecordInEPKPKfPPfj
 1921              		.syntax unified
 1922              		.thumb
 1923              		.thumb_func
 1925              	_ZN14GrannyChordApp15ProcessRecordInEPKPKfPPfj:
 1926              	.LVL127:
 1927              	.LFB4941:
 509:GrannyChordApp.cpp **** 
 510:GrannyChordApp.cpp **** /// @brief Process input audio when app is in RecordIn state
 511:GrannyChordApp.cpp **** /// @param in Input audio buffer
 512:GrannyChordApp.cpp **** /// @param out Output audio buffer
 513:GrannyChordApp.cpp **** /// @param size Number of samples to process in this call
 514:GrannyChordApp.cpp **** void GrannyChordApp::ProcessRecordIn(AudioHandle::InputBuffer in, AudioHandle::OutputBuffer out, si
 1928              		.loc 3 514 110 is_stmt 1 view -0
 1929              		.cfi_startproc
 1930              		@ args = 0, pretend = 0, frame = 0
 1931              		@ frame_needed = 0, uses_anonymous_args = 0
 515:GrannyChordApp.cpp ****   const size_t MAX_RECORDING_LEN = 120*48000; /* 120s @ 48kHZ */
 1932              		.loc 3 515 3 view .LVU521
 516:GrannyChordApp.cpp ****   for (size_t i=0; i<size;i++){
ARM GAS  /var/folders/2p/02m_5p7958535cp2tpgps0400000gn/T//cclqaeHn.s 			page 63


 1933              		.loc 3 516 3 view .LVU522
 514:GrannyChordApp.cpp ****   const size_t MAX_RECORDING_LEN = 120*48000; /* 120s @ 48kHZ */
 1934              		.loc 3 514 110 is_stmt 0 view .LVU523
 1935 0000 F0B5     		push	{r4, r5, r6, r7, lr}
 1936              		.cfi_def_cfa_offset 20
 1937              		.cfi_offset 4, -20
 1938              		.cfi_offset 5, -16
 1939              		.cfi_offset 6, -12
 1940              		.cfi_offset 7, -8
 1941              		.cfi_offset 14, -4
 1942              	.LBB562:
 1943              		.loc 3 516 15 view .LVU524
 1944 0002 0025     		movs	r5, #0
 1945              	.LVL128:
 1946              	.L82:
 1947              		.loc 3 516 21 is_stmt 1 discriminator 3 view .LVU525
 1948 0004 9D42     		cmp	r5, r3
 1949 0006 33D0     		beq	.L80
 517:GrannyChordApp.cpp ****     /* send audio in straight to output for monitoring */
 518:GrannyChordApp.cpp ****     out[0][i]=in[0][i];
 1950              		.loc 3 518 5 discriminator 2 view .LVU526
 1951              		.loc 3 518 22 is_stmt 0 discriminator 2 view .LVU527
 1952 0008 0E68     		ldr	r6, [r1]
 519:GrannyChordApp.cpp ****     out[1][i]=in[1][i];
 520:GrannyChordApp.cpp ****     /* record audio in to SDRAM buffers */
 521:GrannyChordApp.cpp ****     left_buf_[record_in_pos_] = in[0][i];
 1953              		.loc 3 521 15 discriminator 2 view .LVU528
 1954 000a 00F5504C 		add	ip, r0, #53248
 518:GrannyChordApp.cpp ****     out[1][i]=in[1][i];
 1955              		.loc 3 518 14 discriminator 2 view .LVU529
 1956 000e 1468     		ldr	r4, [r2]
 1957              		.loc 3 521 31 discriminator 2 view .LVU530
 1958 0010 00F5804E 		add	lr, r0, #16384
 518:GrannyChordApp.cpp ****     out[1][i]=in[1][i];
 1959              		.loc 3 518 22 discriminator 2 view .LVU531
 1960 0014 06EB8506 		add	r6, r6, r5, lsl #2
 518:GrannyChordApp.cpp ****     out[1][i]=in[1][i];
 1961              		.loc 3 518 14 discriminator 2 view .LVU532
 1962 0018 04EB8504 		add	r4, r4, r5, lsl #2
 518:GrannyChordApp.cpp ****     out[1][i]=in[1][i];
 1963              		.loc 3 518 22 discriminator 2 view .LVU533
 1964 001c 3768     		ldr	r7, [r6]	@ float
 518:GrannyChordApp.cpp ****     out[1][i]=in[1][i];
 1965              		.loc 3 518 14 discriminator 2 view .LVU534
 1966 001e 2760     		str	r7, [r4]	@ float
 519:GrannyChordApp.cpp ****     out[1][i]=in[1][i];
 1967              		.loc 3 519 5 is_stmt 1 discriminator 2 view .LVU535
 519:GrannyChordApp.cpp ****     out[1][i]=in[1][i];
 1968              		.loc 3 519 22 is_stmt 0 discriminator 2 view .LVU536
 1969 0020 4C68     		ldr	r4, [r1, #4]
 1970              		.loc 3 521 31 discriminator 2 view .LVU537
 1971 0022 DEF8C07E 		ldr	r7, [lr, #3776]
 519:GrannyChordApp.cpp ****     out[1][i]=in[1][i];
 1972              		.loc 3 519 22 discriminator 2 view .LVU538
 1973 0026 04EB8504 		add	r4, r4, r5, lsl #2
 1974 002a D4ED007A 		vldr.32	s15, [r4]
 519:GrannyChordApp.cpp ****     out[1][i]=in[1][i];
ARM GAS  /var/folders/2p/02m_5p7958535cp2tpgps0400000gn/T//cclqaeHn.s 			page 64


 1975              		.loc 3 519 14 discriminator 2 view .LVU539
 1976 002e 5468     		ldr	r4, [r2, #4]
 1977 0030 04EB8504 		add	r4, r4, r5, lsl #2
 516:GrannyChordApp.cpp ****     /* send audio in straight to output for monitoring */
 1978              		.loc 3 516 3 discriminator 2 view .LVU540
 1979 0034 0135     		adds	r5, r5, #1
 1980              	.LVL129:
 519:GrannyChordApp.cpp ****     out[1][i]=in[1][i];
 1981              		.loc 3 519 14 discriminator 2 view .LVU541
 1982 0036 C4ED007A 		vstr.32	s15, [r4]
 1983              		.loc 3 521 5 is_stmt 1 discriminator 2 view .LVU542
 522:GrannyChordApp.cpp ****     right_buf_[record_in_pos_] = in[1][i];
 1984              		.loc 3 522 32 is_stmt 0 discriminator 2 view .LVU543
 1985 003a FDEEE77A 		vcvt.s32.f32	s15, s15
 521:GrannyChordApp.cpp ****     right_buf_[record_in_pos_] = in[1][i];
 1986              		.loc 3 521 31 discriminator 2 view .LVU544
 1987 003e 96ED007A 		vldr.32	s14, [r6]
 521:GrannyChordApp.cpp ****     right_buf_[record_in_pos_] = in[1][i];
 1988              		.loc 3 521 15 discriminator 2 view .LVU545
 1989 0042 DCF80C42 		ldr	r4, [ip, #524]
 521:GrannyChordApp.cpp ****     right_buf_[record_in_pos_] = in[1][i];
 1990              		.loc 3 521 31 discriminator 2 view .LVU546
 1991 0046 BDEEC77A 		vcvt.s32.f32	s14, s14
 1992 004a 17EE106A 		vmov	r6, s14	@ int
 1993 004e 27F81460 		strh	r6, [r7, r4, lsl #1]	@ movhi
 1994              		.loc 3 522 5 is_stmt 1 discriminator 2 view .LVU547
 1995              		.loc 3 522 32 is_stmt 0 discriminator 2 view .LVU548
 1996 0052 17EE907A 		vmov	r7, s15	@ int
 1997 0056 DEF8C46E 		ldr	r6, [lr, #3780]
 1998 005a 26F81470 		strh	r7, [r6, r4, lsl #1]	@ movhi
 523:GrannyChordApp.cpp ****     /* wrap around recording length - if it exceeds 120s,
 524:GrannyChordApp.cpp ****       the start of the recording will be overwritten */
 525:GrannyChordApp.cpp ****     record_in_pos_ = (record_in_pos_+1)%MAX_RECORDING_LEN;
 1999              		.loc 3 525 5 is_stmt 1 discriminator 2 view .LVU549
 2000              		.loc 3 525 37 is_stmt 0 discriminator 2 view .LVU550
 2001 005e 0134     		adds	r4, r4, #1
 2002              		.loc 3 525 40 discriminator 2 view .LVU551
 2003 0060 044E     		ldr	r6, .L84
 2004 0062 B4FBF6F7 		udiv	r7, r4, r6
 2005 0066 06FB1744 		mls	r4, r6, r7, r4
 2006              		.loc 3 525 20 discriminator 2 view .LVU552
 2007 006a CCF80C42 		str	r4, [ip, #524]
 516:GrannyChordApp.cpp ****     /* send audio in straight to output for monitoring */
 2008              		.loc 3 516 3 is_stmt 1 discriminator 2 view .LVU553
 2009              	.LVL130:
 516:GrannyChordApp.cpp ****     /* send audio in straight to output for monitoring */
 2010              		.loc 3 516 3 is_stmt 0 discriminator 2 view .LVU554
 2011 006e C9E7     		b	.L82
 2012              	.L80:
 516:GrannyChordApp.cpp ****     /* send audio in straight to output for monitoring */
 2013              		.loc 3 516 3 discriminator 2 view .LVU555
 2014              	.LBE562:
 526:GrannyChordApp.cpp ****   }
 527:GrannyChordApp.cpp **** }
 2015              		.loc 3 527 1 view .LVU556
 2016 0070 F0BD     		pop	{r4, r5, r6, r7, pc}
 2017              	.LVL131:
ARM GAS  /var/folders/2p/02m_5p7958535cp2tpgps0400000gn/T//cclqaeHn.s 			page 65


 2018              	.L85:
 2019              		.loc 3 527 1 view .LVU557
 2020 0072 00BF     		.align	2
 2021              	.L84:
 2022 0074 00E45700 		.word	5760000
 2023              		.cfi_endproc
 2024              	.LFE4941:
 2026              		.section	.text._ZN14GrannyChordApp9ProcessFXE6Sample,"ax",%progbits
 2027              		.align	1
 2028              		.global	_ZN14GrannyChordApp9ProcessFXE6Sample
 2029              		.syntax unified
 2030              		.thumb
 2031              		.thumb_func
 2033              	_ZN14GrannyChordApp9ProcessFXE6Sample:
 2034              	.LVL132:
 2035              	.LFB4943:
 528:GrannyChordApp.cpp **** 
 529:GrannyChordApp.cpp **** /// @brief Process audio through granular synth and mix to output buffer
 530:GrannyChordApp.cpp **** /// @param out Output audio buffer
 531:GrannyChordApp.cpp **** /// @param size Number of samples to process in this call
 532:GrannyChordApp.cpp **** void GrannyChordApp::ProcessSynthesis(AudioHandle::OutputBuffer out, size_t size){
 533:GrannyChordApp.cpp ****   // Sample samp;
 534:GrannyChordApp.cpp ****   for (size_t i=0; i<size; i++){ 
 535:GrannyChordApp.cpp ****     Sample samp = synth_.ProcessGrains();
 536:GrannyChordApp.cpp ****     counter++;
 537:GrannyChordApp.cpp **** 
 538:GrannyChordApp.cpp ****     samp = ProcessFX(samp);
 539:GrannyChordApp.cpp ****     // out[0][i] = samp.left;
 540:GrannyChordApp.cpp ****     // out[1][i] = samp.right;
 541:GrannyChordApp.cpp ****     limiter_.ProcessBlock(&samp.left, 1, 1.0f);
 542:GrannyChordApp.cpp ****     limiter_.ProcessBlock(&samp.right, 1, 1.0f);
 543:GrannyChordApp.cpp ****     // if (counter%128000==0){
 544:GrannyChordApp.cpp ****     //   counter=0;
 545:GrannyChordApp.cpp ****     //   DebugPrint(pod_, "l: %f, r: %f", samp.left, samp.right);
 546:GrannyChordApp.cpp ****     // }
 547:GrannyChordApp.cpp ****     out[0][i] = samp.left;
 548:GrannyChordApp.cpp ****     out[1][i] = samp.right;
 549:GrannyChordApp.cpp **** 
 550:GrannyChordApp.cpp ****     if (recording_out_ && sd_writer_.GetLengthSeconds()<MAX_REC_OUT_LEN){
 551:GrannyChordApp.cpp ****       temp_interleaved_buf_[0]=out[0][i];
 552:GrannyChordApp.cpp ****       temp_interleaved_buf_[1]=out[1][i];
 553:GrannyChordApp.cpp ****       sd_writer_.Sample(temp_interleaved_buf_);
 554:GrannyChordApp.cpp ****     }
 555:GrannyChordApp.cpp ****   } 
 556:GrannyChordApp.cpp **** }
 557:GrannyChordApp.cpp **** 
 558:GrannyChordApp.cpp **** Sample GrannyChordApp::ProcessFX(Sample in){
 2036              		.loc 3 558 44 is_stmt 1 view -0
 2037              		.cfi_startproc
 2038              		@ args = 0, pretend = 0, frame = 32
 2039              		@ frame_needed = 0, uses_anonymous_args = 0
 559:GrannyChordApp.cpp ****   Sample out;
 2040              		.loc 3 559 3 view .LVU559
 560:GrannyChordApp.cpp ****   /* hipass: remove rumble */
 561:GrannyChordApp.cpp ****   out.left = hipass_.Process(in.left);
 2041              		.loc 3 561 3 view .LVU560
 558:GrannyChordApp.cpp ****   Sample out;
ARM GAS  /var/folders/2p/02m_5p7958535cp2tpgps0400000gn/T//cclqaeHn.s 			page 66


 2042              		.loc 3 558 44 is_stmt 0 view .LVU561
 2043 0000 30B5     		push	{r4, r5, lr}
 2044              		.cfi_def_cfa_offset 12
 2045              		.cfi_offset 4, -12
 2046              		.cfi_offset 5, -8
 2047              		.cfi_offset 14, -4
 2048              		.loc 3 561 29 view .LVU562
 2049 0002 00F59D45 		add	r5, r0, #20096
 558:GrannyChordApp.cpp ****   Sample out;
 2050              		.loc 3 558 44 view .LVU563
 2051 0006 0446     		mov	r4, r0
 2052              		.loc 3 561 29 view .LVU564
 2053 0008 1435     		adds	r5, r5, #20
 558:GrannyChordApp.cpp ****   Sample out;
 2054              		.loc 3 558 44 view .LVU565
 2055 000a 2DED048B 		vpush.64	{d8, d9}
 2056              		.cfi_def_cfa_offset 28
 2057              		.cfi_offset 80, -28
 2058              		.cfi_offset 81, -24
 2059              		.cfi_offset 82, -20
 2060              		.cfi_offset 83, -16
 2061 000e 8BB0     		sub	sp, sp, #44
 2062              		.cfi_def_cfa_offset 72
 2063              		.loc 3 561 29 view .LVU566
 2064 0010 2846     		mov	r0, r5
 2065              	.LVL133:
 558:GrannyChordApp.cpp ****   Sample out;
 2066              		.loc 3 558 44 view .LVU567
 2067 0012 CDED050A 		vstr.32	s1, [sp, #20]
 2068              		.loc 3 561 29 view .LVU568
 2069 0016 FFF7FEFF 		bl	_ZN7daisysp7OnePole7ProcessEf
 2070              	.LVL134:
 562:GrannyChordApp.cpp ****   out.right = hipass_.Process(in.right);
 2071              		.loc 3 562 30 view .LVU569
 2072 001a 2846     		mov	r0, r5
 563:GrannyChordApp.cpp **** 
 564:GrannyChordApp.cpp ****   // /* apply compression to reduce gain changes */
 565:GrannyChordApp.cpp ****   // out.left = comp_.Process(out.left);
 566:GrannyChordApp.cpp ****   // out.right = comp_.Process(out.right);
 567:GrannyChordApp.cpp **** 
 568:GrannyChordApp.cpp ****   /* apply lowpass filter */
 569:GrannyChordApp.cpp ****   out.left = lowpass_moog_.Process(out.left);
 2073              		.loc 3 569 35 view .LVU570
 2074 001c 04F59C45 		add	r5, r4, #19968
 561:GrannyChordApp.cpp ****   out.right = hipass_.Process(in.right);
 2075              		.loc 3 561 12 view .LVU571
 2076 0020 8DED060A 		vstr.32	s0, [sp, #24]
 562:GrannyChordApp.cpp ****   out.right = hipass_.Process(in.right);
 2077              		.loc 3 562 3 is_stmt 1 view .LVU572
 2078              		.loc 3 569 35 is_stmt 0 view .LVU573
 2079 0024 5035     		adds	r5, r5, #80
 562:GrannyChordApp.cpp ****   out.right = hipass_.Process(in.right);
 2080              		.loc 3 562 30 view .LVU574
 2081 0026 9DED050A 		vldr.32	s0, [sp, #20]
 2082 002a FFF7FEFF 		bl	_ZN7daisysp7OnePole7ProcessEf
 2083              	.LVL135:
 562:GrannyChordApp.cpp ****   out.right = hipass_.Process(in.right);
ARM GAS  /var/folders/2p/02m_5p7958535cp2tpgps0400000gn/T//cclqaeHn.s 			page 67


 2084              		.loc 3 562 13 view .LVU575
 2085 002e 8DED070A 		vstr.32	s0, [sp, #28]
 2086              		.loc 3 569 3 is_stmt 1 view .LVU576
 2087              		.loc 3 569 35 is_stmt 0 view .LVU577
 2088 0032 2846     		mov	r0, r5
 2089 0034 9DED060A 		vldr.32	s0, [sp, #24]
 2090 0038 FFF7FEFF 		bl	_ZN7daisysp10MoogLadder7ProcessEf
 2091              	.LVL136:
 570:GrannyChordApp.cpp ****   out.right = lowpass_moog_.Process(out.right);
 2092              		.loc 3 570 36 view .LVU578
 2093 003c 2846     		mov	r0, r5
 2094              	.LBB571:
 2095              	.LBB572:
 2096              	.LBB573:
 2097              	.LBB574:
 2098              		.file 12 "StereoRotator.h"
   1:StereoRotator.h **** #include <cmath>
   2:StereoRotator.h **** 
   3:StereoRotator.h **** class StereoRotator{
   4:StereoRotator.h ****   public:
   5:StereoRotator.h ****     StereoRotator(){}
   6:StereoRotator.h **** 
   7:StereoRotator.h ****     void SetFreq(float freq){
   8:StereoRotator.h ****       freq_ = freq;
   9:StereoRotator.h ****     }
  10:StereoRotator.h **** 
  11:StereoRotator.h ****     Sample Process(Sample in){
  12:StereoRotator.h ****       rotation_  += (2*M_PI*freq_)/SAMPLE_RATE_FLOAT;
 2099              		.loc 12 12 29 view .LVU579
 2100 003e 04F58045 		add	r5, r4, #16384
 2101              	.LBE574:
 2102              	.LBE573:
 2103              	.LBE572:
 2104              	.LBE571:
 569:GrannyChordApp.cpp ****   out.right = lowpass_moog_.Process(out.right);
 2105              		.loc 3 569 12 view .LVU580
 2106 0042 8DED060A 		vstr.32	s0, [sp, #24]
 2107              		.loc 3 570 3 is_stmt 1 view .LVU581
 2108              		.loc 3 570 36 is_stmt 0 view .LVU582
 2109 0046 9DED070A 		vldr.32	s0, [sp, #28]
 2110 004a FFF7FEFF 		bl	_ZN7daisysp10MoogLadder7ProcessEf
 2111              	.LVL137:
 2112              	.LBB596:
 2113              	.LBB591:
 2114              	.LBB585:
 2115              	.LBB579:
 2116              		.loc 12 12 29 view .LVU583
 2117 004e 05F6A463 		addw	r3, r5, #3748
  13:StereoRotator.h ****       if (rotation_ >2*M_PI){
  14:StereoRotator.h ****         rotation_  -= 2*M_PI;
  15:StereoRotator.h ****       }
  16:StereoRotator.h ****       Sample out;
  17:StereoRotator.h ****       out.left = (in.left*cos(rotation_)) - (in.right*sin(rotation_));
 2118              		.loc 12 17 30 view .LVU584
 2119 0052 05F6A465 		addw	r5, r5, #3748
 2120              	.LBE579:
 2121              	.LBE585:
ARM GAS  /var/folders/2p/02m_5p7958535cp2tpgps0400000gn/T//cclqaeHn.s 			page 68


 2122              	.LBE591:
 2123              	.LBE596:
 2124              		.loc 3 570 36 view .LVU585
 2125 0056 B0EE408A 		vmov.f32	s16, s0
 571:GrannyChordApp.cpp **** 
 572:GrannyChordApp.cpp ****   /* apply stereo rotation */
 573:GrannyChordApp.cpp ****   out = rotator_.ProcessMix(out);
 2126              		.loc 3 573 3 is_stmt 1 view .LVU586
 2127              	.LVL138:
 2128              	.LBB597:
 2129              	.LBB592:
 2130              	.LBB586:
 2131              	.LBB580:
  12:StereoRotator.h ****       if (rotation_ >2*M_PI){
 2132              		.loc 12 12 29 is_stmt 0 view .LVU587
 2133 005a 93ED015A 		vldr.32	s10, [r3, #4]
 2134 005e DDED068A 		vldr.32	s17, [sp, #24]
 2135              	.LVL139:
  12:StereoRotator.h ****       if (rotation_ >2*M_PI){
 2136              		.loc 12 12 29 view .LVU588
 2137              	.LBE580:
 2138              	.LBE586:
 2139              	.LBE592:
 2140              	.LBI571:
  18:StereoRotator.h ****       out.right =(in.left*sin(rotation_)) - (in.right*cos(rotation_));
  19:StereoRotator.h ****       return out;
  20:StereoRotator.h ****     }
  21:StereoRotator.h **** 
  22:StereoRotator.h ****     Sample ProcessMix(Sample in){
 2141              		.loc 12 22 12 is_stmt 1 view .LVU589
 2142              	.LBB593:
  23:StereoRotator.h ****       Sample out;
 2143              		.loc 12 23 7 view .LVU590
  24:StereoRotator.h ****       Sample processed = Process(in);
 2144              		.loc 12 24 7 view .LVU591
 2145              	.LBB587:
 2146              	.LBI573:
  11:StereoRotator.h ****       rotation_  += (2*M_PI*freq_)/SAMPLE_RATE_FLOAT;
 2147              		.loc 12 11 12 view .LVU592
 2148              	.LBB581:
  12:StereoRotator.h ****       if (rotation_ >2*M_PI){
 2149              		.loc 12 12 7 view .LVU593
  12:StereoRotator.h ****       if (rotation_ >2*M_PI){
 2150              		.loc 12 12 29 is_stmt 0 view .LVU594
 2151 0062 B7EEC55A 		vcvt.f64.f32	d5, s10
  12:StereoRotator.h ****       if (rotation_ >2*M_PI){
 2152              		.loc 12 12 28 view .LVU595
 2153 0066 9FED3A4B 		vldr.64	d4, .L89
  12:StereoRotator.h ****       if (rotation_ >2*M_PI){
 2154              		.loc 12 12 35 view .LVU596
 2155 006a 9FED3B7B 		vldr.64	d7, .L89+8
  12:StereoRotator.h ****       if (rotation_ >2*M_PI){
 2156              		.loc 12 12 28 view .LVU597
 2157 006e 25EE045B 		vmul.f64	d5, d5, d4
  12:StereoRotator.h ****       if (rotation_ >2*M_PI){
 2158              		.loc 12 12 35 view .LVU598
 2159 0072 85EE076B 		vdiv.f64	d6, d5, d7
ARM GAS  /var/folders/2p/02m_5p7958535cp2tpgps0400000gn/T//cclqaeHn.s 			page 69


  12:StereoRotator.h ****       if (rotation_ >2*M_PI){
 2160              		.loc 12 12 18 view .LVU599
 2161 0076 93ED007A 		vldr.32	s14, [r3]
 2162 007a B7EEC77A 		vcvt.f64.f32	d7, s14
 2163 007e 36EE076B 		vadd.f64	d6, d6, d7
 2164 0082 B7EEC66B 		vcvt.f32.f64	s12, d6
  13:StereoRotator.h ****         rotation_  -= 2*M_PI;
 2165              		.loc 12 13 7 is_stmt 1 view .LVU600
  13:StereoRotator.h ****         rotation_  -= 2*M_PI;
 2166              		.loc 12 13 11 is_stmt 0 view .LVU601
 2167 0086 B7EEC67A 		vcvt.f64.f32	d7, s12
  13:StereoRotator.h ****         rotation_  -= 2*M_PI;
 2168              		.loc 12 13 7 view .LVU602
 2169 008a B4EEC47B 		vcmpe.f64	d7, d4
 2170 008e F1EE10FA 		vmrs	APSR_nzcv, FPSCR
  14:StereoRotator.h ****       }
 2171              		.loc 12 14 20 view .LVU603
 2172 0092 C9BF     		itett	gt
 2173 0094 37EE447B 		vsubgt.f64	d7, d7, d4
  12:StereoRotator.h ****       if (rotation_ >2*M_PI){
 2174              		.loc 12 12 18 view .LVU604
 2175 0098 83ED006A 		vstrle.32	s12, [r3]
  14:StereoRotator.h ****       }
 2176              		.loc 12 14 9 is_stmt 1 view .LVU605
  14:StereoRotator.h ****       }
 2177              		.loc 12 14 20 is_stmt 0 view .LVU606
 2178 009c B7EEC77B 		vcvtgt.f32.f64	s14, d7
 2179 00a0 83ED007A 		vstrgt.32	s14, [r3]
  16:StereoRotator.h ****       out.left = (in.left*cos(rotation_)) - (in.right*sin(rotation_));
 2180              		.loc 12 16 7 is_stmt 1 view .LVU607
  17:StereoRotator.h ****       out.right =(in.left*sin(rotation_)) - (in.right*cos(rotation_));
 2181              		.loc 12 17 7 view .LVU608
  17:StereoRotator.h ****       out.right =(in.left*sin(rotation_)) - (in.right*cos(rotation_));
 2182              		.loc 12 17 30 is_stmt 0 view .LVU609
 2183 00a4 D5ED009A 		vldr.32	s19, [r5]
 2184              	.LVL140:
 2185              	.LBB575:
 2186              	.LBI575:
 2187              		.file 13 "/Library/DaisyToolchain/0.2.0/arm/arm-none-eabi/include/c++/10.3.1/cmath"
   1:/Library/DaisyToolchain/0.2.0/arm/arm-none-eabi/include/c++/10.3.1/cmath **** // -*- C++ -*- C forwarding header.
   2:/Library/DaisyToolchain/0.2.0/arm/arm-none-eabi/include/c++/10.3.1/cmath **** 
   3:/Library/DaisyToolchain/0.2.0/arm/arm-none-eabi/include/c++/10.3.1/cmath **** // Copyright (C) 1997-2020 Free Software Foundation, Inc.
   4:/Library/DaisyToolchain/0.2.0/arm/arm-none-eabi/include/c++/10.3.1/cmath **** //
   5:/Library/DaisyToolchain/0.2.0/arm/arm-none-eabi/include/c++/10.3.1/cmath **** // This file is part of the GNU ISO C++ Library.  This library is free
   6:/Library/DaisyToolchain/0.2.0/arm/arm-none-eabi/include/c++/10.3.1/cmath **** // software; you can redistribute it and/or modify it under the
   7:/Library/DaisyToolchain/0.2.0/arm/arm-none-eabi/include/c++/10.3.1/cmath **** // terms of the GNU General Public License as published by the
   8:/Library/DaisyToolchain/0.2.0/arm/arm-none-eabi/include/c++/10.3.1/cmath **** // Free Software Foundation; either version 3, or (at your option)
   9:/Library/DaisyToolchain/0.2.0/arm/arm-none-eabi/include/c++/10.3.1/cmath **** // any later version.
  10:/Library/DaisyToolchain/0.2.0/arm/arm-none-eabi/include/c++/10.3.1/cmath **** 
  11:/Library/DaisyToolchain/0.2.0/arm/arm-none-eabi/include/c++/10.3.1/cmath **** // This library is distributed in the hope that it will be useful,
  12:/Library/DaisyToolchain/0.2.0/arm/arm-none-eabi/include/c++/10.3.1/cmath **** // but WITHOUT ANY WARRANTY; without even the implied warranty of
  13:/Library/DaisyToolchain/0.2.0/arm/arm-none-eabi/include/c++/10.3.1/cmath **** // MERCHANTABILITY or FITNESS FOR A PARTICULAR PURPOSE.  See the
  14:/Library/DaisyToolchain/0.2.0/arm/arm-none-eabi/include/c++/10.3.1/cmath **** // GNU General Public License for more details.
  15:/Library/DaisyToolchain/0.2.0/arm/arm-none-eabi/include/c++/10.3.1/cmath **** 
  16:/Library/DaisyToolchain/0.2.0/arm/arm-none-eabi/include/c++/10.3.1/cmath **** // Under Section 7 of GPL version 3, you are granted additional
  17:/Library/DaisyToolchain/0.2.0/arm/arm-none-eabi/include/c++/10.3.1/cmath **** // permissions described in the GCC Runtime Library Exception, version
  18:/Library/DaisyToolchain/0.2.0/arm/arm-none-eabi/include/c++/10.3.1/cmath **** // 3.1, as published by the Free Software Foundation.
ARM GAS  /var/folders/2p/02m_5p7958535cp2tpgps0400000gn/T//cclqaeHn.s 			page 70


  19:/Library/DaisyToolchain/0.2.0/arm/arm-none-eabi/include/c++/10.3.1/cmath **** 
  20:/Library/DaisyToolchain/0.2.0/arm/arm-none-eabi/include/c++/10.3.1/cmath **** // You should have received a copy of the GNU General Public License and
  21:/Library/DaisyToolchain/0.2.0/arm/arm-none-eabi/include/c++/10.3.1/cmath **** // a copy of the GCC Runtime Library Exception along with this program;
  22:/Library/DaisyToolchain/0.2.0/arm/arm-none-eabi/include/c++/10.3.1/cmath **** // see the files COPYING3 and COPYING.RUNTIME respectively.  If not, see
  23:/Library/DaisyToolchain/0.2.0/arm/arm-none-eabi/include/c++/10.3.1/cmath **** // <http://www.gnu.org/licenses/>.
  24:/Library/DaisyToolchain/0.2.0/arm/arm-none-eabi/include/c++/10.3.1/cmath **** 
  25:/Library/DaisyToolchain/0.2.0/arm/arm-none-eabi/include/c++/10.3.1/cmath **** /** @file include/cmath
  26:/Library/DaisyToolchain/0.2.0/arm/arm-none-eabi/include/c++/10.3.1/cmath ****  *  This is a Standard C++ Library file.  You should @c \#include this file
  27:/Library/DaisyToolchain/0.2.0/arm/arm-none-eabi/include/c++/10.3.1/cmath ****  *  in your programs, rather than any of the @a *.h implementation files.
  28:/Library/DaisyToolchain/0.2.0/arm/arm-none-eabi/include/c++/10.3.1/cmath ****  *
  29:/Library/DaisyToolchain/0.2.0/arm/arm-none-eabi/include/c++/10.3.1/cmath ****  *  This is the C++ version of the Standard C Library header @c math.h,
  30:/Library/DaisyToolchain/0.2.0/arm/arm-none-eabi/include/c++/10.3.1/cmath ****  *  and its contents are (mostly) the same as that header, but are all
  31:/Library/DaisyToolchain/0.2.0/arm/arm-none-eabi/include/c++/10.3.1/cmath ****  *  contained in the namespace @c std (except for names which are defined
  32:/Library/DaisyToolchain/0.2.0/arm/arm-none-eabi/include/c++/10.3.1/cmath ****  *  as macros in C).
  33:/Library/DaisyToolchain/0.2.0/arm/arm-none-eabi/include/c++/10.3.1/cmath ****  */
  34:/Library/DaisyToolchain/0.2.0/arm/arm-none-eabi/include/c++/10.3.1/cmath **** 
  35:/Library/DaisyToolchain/0.2.0/arm/arm-none-eabi/include/c++/10.3.1/cmath **** //
  36:/Library/DaisyToolchain/0.2.0/arm/arm-none-eabi/include/c++/10.3.1/cmath **** // ISO C++ 14882: 26.5  C library
  37:/Library/DaisyToolchain/0.2.0/arm/arm-none-eabi/include/c++/10.3.1/cmath **** //
  38:/Library/DaisyToolchain/0.2.0/arm/arm-none-eabi/include/c++/10.3.1/cmath **** 
  39:/Library/DaisyToolchain/0.2.0/arm/arm-none-eabi/include/c++/10.3.1/cmath **** #pragma GCC system_header
  40:/Library/DaisyToolchain/0.2.0/arm/arm-none-eabi/include/c++/10.3.1/cmath **** 
  41:/Library/DaisyToolchain/0.2.0/arm/arm-none-eabi/include/c++/10.3.1/cmath **** #include <bits/c++config.h>
  42:/Library/DaisyToolchain/0.2.0/arm/arm-none-eabi/include/c++/10.3.1/cmath **** #include <bits/cpp_type_traits.h>
  43:/Library/DaisyToolchain/0.2.0/arm/arm-none-eabi/include/c++/10.3.1/cmath **** #include <ext/type_traits.h>
  44:/Library/DaisyToolchain/0.2.0/arm/arm-none-eabi/include/c++/10.3.1/cmath **** #define _GLIBCXX_INCLUDE_NEXT_C_HEADERS
  45:/Library/DaisyToolchain/0.2.0/arm/arm-none-eabi/include/c++/10.3.1/cmath **** #include_next <math.h>
  46:/Library/DaisyToolchain/0.2.0/arm/arm-none-eabi/include/c++/10.3.1/cmath **** #undef _GLIBCXX_INCLUDE_NEXT_C_HEADERS
  47:/Library/DaisyToolchain/0.2.0/arm/arm-none-eabi/include/c++/10.3.1/cmath **** #include <bits/std_abs.h>
  48:/Library/DaisyToolchain/0.2.0/arm/arm-none-eabi/include/c++/10.3.1/cmath **** 
  49:/Library/DaisyToolchain/0.2.0/arm/arm-none-eabi/include/c++/10.3.1/cmath **** #ifndef _GLIBCXX_CMATH
  50:/Library/DaisyToolchain/0.2.0/arm/arm-none-eabi/include/c++/10.3.1/cmath **** #define _GLIBCXX_CMATH 1
  51:/Library/DaisyToolchain/0.2.0/arm/arm-none-eabi/include/c++/10.3.1/cmath **** 
  52:/Library/DaisyToolchain/0.2.0/arm/arm-none-eabi/include/c++/10.3.1/cmath **** // Get rid of those macros defined in <math.h> in lieu of real functions.
  53:/Library/DaisyToolchain/0.2.0/arm/arm-none-eabi/include/c++/10.3.1/cmath **** #undef div
  54:/Library/DaisyToolchain/0.2.0/arm/arm-none-eabi/include/c++/10.3.1/cmath **** #undef acos
  55:/Library/DaisyToolchain/0.2.0/arm/arm-none-eabi/include/c++/10.3.1/cmath **** #undef asin
  56:/Library/DaisyToolchain/0.2.0/arm/arm-none-eabi/include/c++/10.3.1/cmath **** #undef atan
  57:/Library/DaisyToolchain/0.2.0/arm/arm-none-eabi/include/c++/10.3.1/cmath **** #undef atan2
  58:/Library/DaisyToolchain/0.2.0/arm/arm-none-eabi/include/c++/10.3.1/cmath **** #undef ceil
  59:/Library/DaisyToolchain/0.2.0/arm/arm-none-eabi/include/c++/10.3.1/cmath **** #undef cos
  60:/Library/DaisyToolchain/0.2.0/arm/arm-none-eabi/include/c++/10.3.1/cmath **** #undef cosh
  61:/Library/DaisyToolchain/0.2.0/arm/arm-none-eabi/include/c++/10.3.1/cmath **** #undef exp
  62:/Library/DaisyToolchain/0.2.0/arm/arm-none-eabi/include/c++/10.3.1/cmath **** #undef fabs
  63:/Library/DaisyToolchain/0.2.0/arm/arm-none-eabi/include/c++/10.3.1/cmath **** #undef floor
  64:/Library/DaisyToolchain/0.2.0/arm/arm-none-eabi/include/c++/10.3.1/cmath **** #undef fmod
  65:/Library/DaisyToolchain/0.2.0/arm/arm-none-eabi/include/c++/10.3.1/cmath **** #undef frexp
  66:/Library/DaisyToolchain/0.2.0/arm/arm-none-eabi/include/c++/10.3.1/cmath **** #undef ldexp
  67:/Library/DaisyToolchain/0.2.0/arm/arm-none-eabi/include/c++/10.3.1/cmath **** #undef log
  68:/Library/DaisyToolchain/0.2.0/arm/arm-none-eabi/include/c++/10.3.1/cmath **** #undef log10
  69:/Library/DaisyToolchain/0.2.0/arm/arm-none-eabi/include/c++/10.3.1/cmath **** #undef modf
  70:/Library/DaisyToolchain/0.2.0/arm/arm-none-eabi/include/c++/10.3.1/cmath **** #undef pow
  71:/Library/DaisyToolchain/0.2.0/arm/arm-none-eabi/include/c++/10.3.1/cmath **** #undef sin
  72:/Library/DaisyToolchain/0.2.0/arm/arm-none-eabi/include/c++/10.3.1/cmath **** #undef sinh
  73:/Library/DaisyToolchain/0.2.0/arm/arm-none-eabi/include/c++/10.3.1/cmath **** #undef sqrt
  74:/Library/DaisyToolchain/0.2.0/arm/arm-none-eabi/include/c++/10.3.1/cmath **** #undef tan
  75:/Library/DaisyToolchain/0.2.0/arm/arm-none-eabi/include/c++/10.3.1/cmath **** #undef tanh
ARM GAS  /var/folders/2p/02m_5p7958535cp2tpgps0400000gn/T//cclqaeHn.s 			page 71


  76:/Library/DaisyToolchain/0.2.0/arm/arm-none-eabi/include/c++/10.3.1/cmath **** 
  77:/Library/DaisyToolchain/0.2.0/arm/arm-none-eabi/include/c++/10.3.1/cmath **** extern "C++"
  78:/Library/DaisyToolchain/0.2.0/arm/arm-none-eabi/include/c++/10.3.1/cmath **** {
  79:/Library/DaisyToolchain/0.2.0/arm/arm-none-eabi/include/c++/10.3.1/cmath **** namespace std _GLIBCXX_VISIBILITY(default)
  80:/Library/DaisyToolchain/0.2.0/arm/arm-none-eabi/include/c++/10.3.1/cmath **** {
  81:/Library/DaisyToolchain/0.2.0/arm/arm-none-eabi/include/c++/10.3.1/cmath **** _GLIBCXX_BEGIN_NAMESPACE_VERSION
  82:/Library/DaisyToolchain/0.2.0/arm/arm-none-eabi/include/c++/10.3.1/cmath **** 
  83:/Library/DaisyToolchain/0.2.0/arm/arm-none-eabi/include/c++/10.3.1/cmath ****   using ::acos;
  84:/Library/DaisyToolchain/0.2.0/arm/arm-none-eabi/include/c++/10.3.1/cmath **** 
  85:/Library/DaisyToolchain/0.2.0/arm/arm-none-eabi/include/c++/10.3.1/cmath **** #ifndef __CORRECT_ISO_CPP_MATH_H_PROTO
  86:/Library/DaisyToolchain/0.2.0/arm/arm-none-eabi/include/c++/10.3.1/cmath ****   inline _GLIBCXX_CONSTEXPR float
  87:/Library/DaisyToolchain/0.2.0/arm/arm-none-eabi/include/c++/10.3.1/cmath ****   acos(float __x)
  88:/Library/DaisyToolchain/0.2.0/arm/arm-none-eabi/include/c++/10.3.1/cmath ****   { return __builtin_acosf(__x); }
  89:/Library/DaisyToolchain/0.2.0/arm/arm-none-eabi/include/c++/10.3.1/cmath **** 
  90:/Library/DaisyToolchain/0.2.0/arm/arm-none-eabi/include/c++/10.3.1/cmath ****   inline _GLIBCXX_CONSTEXPR long double
  91:/Library/DaisyToolchain/0.2.0/arm/arm-none-eabi/include/c++/10.3.1/cmath ****   acos(long double __x)
  92:/Library/DaisyToolchain/0.2.0/arm/arm-none-eabi/include/c++/10.3.1/cmath ****   { return __builtin_acosl(__x); }
  93:/Library/DaisyToolchain/0.2.0/arm/arm-none-eabi/include/c++/10.3.1/cmath **** #endif
  94:/Library/DaisyToolchain/0.2.0/arm/arm-none-eabi/include/c++/10.3.1/cmath **** 
  95:/Library/DaisyToolchain/0.2.0/arm/arm-none-eabi/include/c++/10.3.1/cmath ****   template<typename _Tp>
  96:/Library/DaisyToolchain/0.2.0/arm/arm-none-eabi/include/c++/10.3.1/cmath ****     inline _GLIBCXX_CONSTEXPR
  97:/Library/DaisyToolchain/0.2.0/arm/arm-none-eabi/include/c++/10.3.1/cmath ****     typename __gnu_cxx::__enable_if<__is_integer<_Tp>::__value, 
  98:/Library/DaisyToolchain/0.2.0/arm/arm-none-eabi/include/c++/10.3.1/cmath ****                                     double>::__type
  99:/Library/DaisyToolchain/0.2.0/arm/arm-none-eabi/include/c++/10.3.1/cmath ****     acos(_Tp __x)
 100:/Library/DaisyToolchain/0.2.0/arm/arm-none-eabi/include/c++/10.3.1/cmath ****     { return __builtin_acos(__x); }
 101:/Library/DaisyToolchain/0.2.0/arm/arm-none-eabi/include/c++/10.3.1/cmath **** 
 102:/Library/DaisyToolchain/0.2.0/arm/arm-none-eabi/include/c++/10.3.1/cmath ****   using ::asin;
 103:/Library/DaisyToolchain/0.2.0/arm/arm-none-eabi/include/c++/10.3.1/cmath **** 
 104:/Library/DaisyToolchain/0.2.0/arm/arm-none-eabi/include/c++/10.3.1/cmath **** #ifndef __CORRECT_ISO_CPP_MATH_H_PROTO
 105:/Library/DaisyToolchain/0.2.0/arm/arm-none-eabi/include/c++/10.3.1/cmath ****   inline _GLIBCXX_CONSTEXPR float
 106:/Library/DaisyToolchain/0.2.0/arm/arm-none-eabi/include/c++/10.3.1/cmath ****   asin(float __x)
 107:/Library/DaisyToolchain/0.2.0/arm/arm-none-eabi/include/c++/10.3.1/cmath ****   { return __builtin_asinf(__x); }
 108:/Library/DaisyToolchain/0.2.0/arm/arm-none-eabi/include/c++/10.3.1/cmath **** 
 109:/Library/DaisyToolchain/0.2.0/arm/arm-none-eabi/include/c++/10.3.1/cmath ****   inline _GLIBCXX_CONSTEXPR long double
 110:/Library/DaisyToolchain/0.2.0/arm/arm-none-eabi/include/c++/10.3.1/cmath ****   asin(long double __x)
 111:/Library/DaisyToolchain/0.2.0/arm/arm-none-eabi/include/c++/10.3.1/cmath ****   { return __builtin_asinl(__x); }
 112:/Library/DaisyToolchain/0.2.0/arm/arm-none-eabi/include/c++/10.3.1/cmath **** #endif
 113:/Library/DaisyToolchain/0.2.0/arm/arm-none-eabi/include/c++/10.3.1/cmath **** 
 114:/Library/DaisyToolchain/0.2.0/arm/arm-none-eabi/include/c++/10.3.1/cmath ****   template<typename _Tp>
 115:/Library/DaisyToolchain/0.2.0/arm/arm-none-eabi/include/c++/10.3.1/cmath ****     inline _GLIBCXX_CONSTEXPR
 116:/Library/DaisyToolchain/0.2.0/arm/arm-none-eabi/include/c++/10.3.1/cmath ****     typename __gnu_cxx::__enable_if<__is_integer<_Tp>::__value,
 117:/Library/DaisyToolchain/0.2.0/arm/arm-none-eabi/include/c++/10.3.1/cmath ****                                     double>::__type
 118:/Library/DaisyToolchain/0.2.0/arm/arm-none-eabi/include/c++/10.3.1/cmath ****     asin(_Tp __x)
 119:/Library/DaisyToolchain/0.2.0/arm/arm-none-eabi/include/c++/10.3.1/cmath ****     { return __builtin_asin(__x); }
 120:/Library/DaisyToolchain/0.2.0/arm/arm-none-eabi/include/c++/10.3.1/cmath **** 
 121:/Library/DaisyToolchain/0.2.0/arm/arm-none-eabi/include/c++/10.3.1/cmath ****   using ::atan;
 122:/Library/DaisyToolchain/0.2.0/arm/arm-none-eabi/include/c++/10.3.1/cmath **** 
 123:/Library/DaisyToolchain/0.2.0/arm/arm-none-eabi/include/c++/10.3.1/cmath **** #ifndef __CORRECT_ISO_CPP_MATH_H_PROTO
 124:/Library/DaisyToolchain/0.2.0/arm/arm-none-eabi/include/c++/10.3.1/cmath ****   inline _GLIBCXX_CONSTEXPR float
 125:/Library/DaisyToolchain/0.2.0/arm/arm-none-eabi/include/c++/10.3.1/cmath ****   atan(float __x)
 126:/Library/DaisyToolchain/0.2.0/arm/arm-none-eabi/include/c++/10.3.1/cmath ****   { return __builtin_atanf(__x); }
 127:/Library/DaisyToolchain/0.2.0/arm/arm-none-eabi/include/c++/10.3.1/cmath **** 
 128:/Library/DaisyToolchain/0.2.0/arm/arm-none-eabi/include/c++/10.3.1/cmath ****   inline _GLIBCXX_CONSTEXPR long double
 129:/Library/DaisyToolchain/0.2.0/arm/arm-none-eabi/include/c++/10.3.1/cmath ****   atan(long double __x)
 130:/Library/DaisyToolchain/0.2.0/arm/arm-none-eabi/include/c++/10.3.1/cmath ****   { return __builtin_atanl(__x); }
 131:/Library/DaisyToolchain/0.2.0/arm/arm-none-eabi/include/c++/10.3.1/cmath **** #endif
 132:/Library/DaisyToolchain/0.2.0/arm/arm-none-eabi/include/c++/10.3.1/cmath **** 
ARM GAS  /var/folders/2p/02m_5p7958535cp2tpgps0400000gn/T//cclqaeHn.s 			page 72


 133:/Library/DaisyToolchain/0.2.0/arm/arm-none-eabi/include/c++/10.3.1/cmath ****   template<typename _Tp>
 134:/Library/DaisyToolchain/0.2.0/arm/arm-none-eabi/include/c++/10.3.1/cmath ****     inline _GLIBCXX_CONSTEXPR
 135:/Library/DaisyToolchain/0.2.0/arm/arm-none-eabi/include/c++/10.3.1/cmath ****     typename __gnu_cxx::__enable_if<__is_integer<_Tp>::__value,
 136:/Library/DaisyToolchain/0.2.0/arm/arm-none-eabi/include/c++/10.3.1/cmath ****                                     double>::__type
 137:/Library/DaisyToolchain/0.2.0/arm/arm-none-eabi/include/c++/10.3.1/cmath ****     atan(_Tp __x)
 138:/Library/DaisyToolchain/0.2.0/arm/arm-none-eabi/include/c++/10.3.1/cmath ****     { return __builtin_atan(__x); }
 139:/Library/DaisyToolchain/0.2.0/arm/arm-none-eabi/include/c++/10.3.1/cmath **** 
 140:/Library/DaisyToolchain/0.2.0/arm/arm-none-eabi/include/c++/10.3.1/cmath ****   using ::atan2;
 141:/Library/DaisyToolchain/0.2.0/arm/arm-none-eabi/include/c++/10.3.1/cmath **** 
 142:/Library/DaisyToolchain/0.2.0/arm/arm-none-eabi/include/c++/10.3.1/cmath **** #ifndef __CORRECT_ISO_CPP_MATH_H_PROTO
 143:/Library/DaisyToolchain/0.2.0/arm/arm-none-eabi/include/c++/10.3.1/cmath ****   inline _GLIBCXX_CONSTEXPR float
 144:/Library/DaisyToolchain/0.2.0/arm/arm-none-eabi/include/c++/10.3.1/cmath ****   atan2(float __y, float __x)
 145:/Library/DaisyToolchain/0.2.0/arm/arm-none-eabi/include/c++/10.3.1/cmath ****   { return __builtin_atan2f(__y, __x); }
 146:/Library/DaisyToolchain/0.2.0/arm/arm-none-eabi/include/c++/10.3.1/cmath **** 
 147:/Library/DaisyToolchain/0.2.0/arm/arm-none-eabi/include/c++/10.3.1/cmath ****   inline _GLIBCXX_CONSTEXPR long double
 148:/Library/DaisyToolchain/0.2.0/arm/arm-none-eabi/include/c++/10.3.1/cmath ****   atan2(long double __y, long double __x)
 149:/Library/DaisyToolchain/0.2.0/arm/arm-none-eabi/include/c++/10.3.1/cmath ****   { return __builtin_atan2l(__y, __x); }
 150:/Library/DaisyToolchain/0.2.0/arm/arm-none-eabi/include/c++/10.3.1/cmath **** #endif
 151:/Library/DaisyToolchain/0.2.0/arm/arm-none-eabi/include/c++/10.3.1/cmath **** 
 152:/Library/DaisyToolchain/0.2.0/arm/arm-none-eabi/include/c++/10.3.1/cmath ****   template<typename _Tp, typename _Up>
 153:/Library/DaisyToolchain/0.2.0/arm/arm-none-eabi/include/c++/10.3.1/cmath ****     inline _GLIBCXX_CONSTEXPR
 154:/Library/DaisyToolchain/0.2.0/arm/arm-none-eabi/include/c++/10.3.1/cmath ****     typename __gnu_cxx::__promote_2<_Tp, _Up>::__type
 155:/Library/DaisyToolchain/0.2.0/arm/arm-none-eabi/include/c++/10.3.1/cmath ****     atan2(_Tp __y, _Up __x)
 156:/Library/DaisyToolchain/0.2.0/arm/arm-none-eabi/include/c++/10.3.1/cmath ****     {
 157:/Library/DaisyToolchain/0.2.0/arm/arm-none-eabi/include/c++/10.3.1/cmath ****       typedef typename __gnu_cxx::__promote_2<_Tp, _Up>::__type __type;
 158:/Library/DaisyToolchain/0.2.0/arm/arm-none-eabi/include/c++/10.3.1/cmath ****       return atan2(__type(__y), __type(__x));
 159:/Library/DaisyToolchain/0.2.0/arm/arm-none-eabi/include/c++/10.3.1/cmath ****     }
 160:/Library/DaisyToolchain/0.2.0/arm/arm-none-eabi/include/c++/10.3.1/cmath **** 
 161:/Library/DaisyToolchain/0.2.0/arm/arm-none-eabi/include/c++/10.3.1/cmath ****   using ::ceil;
 162:/Library/DaisyToolchain/0.2.0/arm/arm-none-eabi/include/c++/10.3.1/cmath **** 
 163:/Library/DaisyToolchain/0.2.0/arm/arm-none-eabi/include/c++/10.3.1/cmath **** #ifndef __CORRECT_ISO_CPP_MATH_H_PROTO
 164:/Library/DaisyToolchain/0.2.0/arm/arm-none-eabi/include/c++/10.3.1/cmath ****   inline _GLIBCXX_CONSTEXPR float
 165:/Library/DaisyToolchain/0.2.0/arm/arm-none-eabi/include/c++/10.3.1/cmath ****   ceil(float __x)
 166:/Library/DaisyToolchain/0.2.0/arm/arm-none-eabi/include/c++/10.3.1/cmath ****   { return __builtin_ceilf(__x); }
 167:/Library/DaisyToolchain/0.2.0/arm/arm-none-eabi/include/c++/10.3.1/cmath **** 
 168:/Library/DaisyToolchain/0.2.0/arm/arm-none-eabi/include/c++/10.3.1/cmath ****   inline _GLIBCXX_CONSTEXPR long double
 169:/Library/DaisyToolchain/0.2.0/arm/arm-none-eabi/include/c++/10.3.1/cmath ****   ceil(long double __x)
 170:/Library/DaisyToolchain/0.2.0/arm/arm-none-eabi/include/c++/10.3.1/cmath ****   { return __builtin_ceill(__x); }
 171:/Library/DaisyToolchain/0.2.0/arm/arm-none-eabi/include/c++/10.3.1/cmath **** #endif
 172:/Library/DaisyToolchain/0.2.0/arm/arm-none-eabi/include/c++/10.3.1/cmath **** 
 173:/Library/DaisyToolchain/0.2.0/arm/arm-none-eabi/include/c++/10.3.1/cmath ****   template<typename _Tp>
 174:/Library/DaisyToolchain/0.2.0/arm/arm-none-eabi/include/c++/10.3.1/cmath ****     inline _GLIBCXX_CONSTEXPR
 175:/Library/DaisyToolchain/0.2.0/arm/arm-none-eabi/include/c++/10.3.1/cmath ****     typename __gnu_cxx::__enable_if<__is_integer<_Tp>::__value, 
 176:/Library/DaisyToolchain/0.2.0/arm/arm-none-eabi/include/c++/10.3.1/cmath ****                                     double>::__type
 177:/Library/DaisyToolchain/0.2.0/arm/arm-none-eabi/include/c++/10.3.1/cmath ****     ceil(_Tp __x)
 178:/Library/DaisyToolchain/0.2.0/arm/arm-none-eabi/include/c++/10.3.1/cmath ****     { return __builtin_ceil(__x); }
 179:/Library/DaisyToolchain/0.2.0/arm/arm-none-eabi/include/c++/10.3.1/cmath **** 
 180:/Library/DaisyToolchain/0.2.0/arm/arm-none-eabi/include/c++/10.3.1/cmath ****   using ::cos;
 181:/Library/DaisyToolchain/0.2.0/arm/arm-none-eabi/include/c++/10.3.1/cmath **** 
 182:/Library/DaisyToolchain/0.2.0/arm/arm-none-eabi/include/c++/10.3.1/cmath **** #ifndef __CORRECT_ISO_CPP_MATH_H_PROTO
 183:/Library/DaisyToolchain/0.2.0/arm/arm-none-eabi/include/c++/10.3.1/cmath ****   inline _GLIBCXX_CONSTEXPR float
 184:/Library/DaisyToolchain/0.2.0/arm/arm-none-eabi/include/c++/10.3.1/cmath ****   cos(float __x)
 2188              		.loc 13 184 3 is_stmt 1 view .LVU610
 2189              	.LBB576:
 185:/Library/DaisyToolchain/0.2.0/arm/arm-none-eabi/include/c++/10.3.1/cmath ****   { return __builtin_cosf(__x); }
 2190              		.loc 13 185 5 view .LVU611
 2191              		.loc 13 185 26 is_stmt 0 view .LVU612
ARM GAS  /var/folders/2p/02m_5p7958535cp2tpgps0400000gn/T//cclqaeHn.s 			page 73


 2192 00a8 B0EE690A 		vmov.f32	s0, s19
 2193              	.LVL141:
 2194              		.loc 13 185 26 view .LVU613
 2195 00ac FFF7FEFF 		bl	cosf
 2196              	.LVL142:
 2197 00b0 B0EE409A 		vmov.f32	s18, s0
 2198              	.LVL143:
 2199              		.loc 13 185 26 view .LVU614
 2200              	.LBE576:
 2201              	.LBE575:
 2202              	.LBB577:
 2203              	.LBI577:
 186:/Library/DaisyToolchain/0.2.0/arm/arm-none-eabi/include/c++/10.3.1/cmath **** 
 187:/Library/DaisyToolchain/0.2.0/arm/arm-none-eabi/include/c++/10.3.1/cmath ****   inline _GLIBCXX_CONSTEXPR long double
 188:/Library/DaisyToolchain/0.2.0/arm/arm-none-eabi/include/c++/10.3.1/cmath ****   cos(long double __x)
 189:/Library/DaisyToolchain/0.2.0/arm/arm-none-eabi/include/c++/10.3.1/cmath ****   { return __builtin_cosl(__x); }
 190:/Library/DaisyToolchain/0.2.0/arm/arm-none-eabi/include/c++/10.3.1/cmath **** #endif
 191:/Library/DaisyToolchain/0.2.0/arm/arm-none-eabi/include/c++/10.3.1/cmath **** 
 192:/Library/DaisyToolchain/0.2.0/arm/arm-none-eabi/include/c++/10.3.1/cmath ****   template<typename _Tp>
 193:/Library/DaisyToolchain/0.2.0/arm/arm-none-eabi/include/c++/10.3.1/cmath ****     inline _GLIBCXX_CONSTEXPR
 194:/Library/DaisyToolchain/0.2.0/arm/arm-none-eabi/include/c++/10.3.1/cmath ****     typename __gnu_cxx::__enable_if<__is_integer<_Tp>::__value,
 195:/Library/DaisyToolchain/0.2.0/arm/arm-none-eabi/include/c++/10.3.1/cmath ****                                     double>::__type
 196:/Library/DaisyToolchain/0.2.0/arm/arm-none-eabi/include/c++/10.3.1/cmath ****     cos(_Tp __x)
 197:/Library/DaisyToolchain/0.2.0/arm/arm-none-eabi/include/c++/10.3.1/cmath ****     { return __builtin_cos(__x); }
 198:/Library/DaisyToolchain/0.2.0/arm/arm-none-eabi/include/c++/10.3.1/cmath **** 
 199:/Library/DaisyToolchain/0.2.0/arm/arm-none-eabi/include/c++/10.3.1/cmath ****   using ::cosh;
 200:/Library/DaisyToolchain/0.2.0/arm/arm-none-eabi/include/c++/10.3.1/cmath **** 
 201:/Library/DaisyToolchain/0.2.0/arm/arm-none-eabi/include/c++/10.3.1/cmath **** #ifndef __CORRECT_ISO_CPP_MATH_H_PROTO
 202:/Library/DaisyToolchain/0.2.0/arm/arm-none-eabi/include/c++/10.3.1/cmath ****   inline _GLIBCXX_CONSTEXPR float
 203:/Library/DaisyToolchain/0.2.0/arm/arm-none-eabi/include/c++/10.3.1/cmath ****   cosh(float __x)
 204:/Library/DaisyToolchain/0.2.0/arm/arm-none-eabi/include/c++/10.3.1/cmath ****   { return __builtin_coshf(__x); }
 205:/Library/DaisyToolchain/0.2.0/arm/arm-none-eabi/include/c++/10.3.1/cmath **** 
 206:/Library/DaisyToolchain/0.2.0/arm/arm-none-eabi/include/c++/10.3.1/cmath ****   inline _GLIBCXX_CONSTEXPR long double
 207:/Library/DaisyToolchain/0.2.0/arm/arm-none-eabi/include/c++/10.3.1/cmath ****   cosh(long double __x)
 208:/Library/DaisyToolchain/0.2.0/arm/arm-none-eabi/include/c++/10.3.1/cmath ****   { return __builtin_coshl(__x); }
 209:/Library/DaisyToolchain/0.2.0/arm/arm-none-eabi/include/c++/10.3.1/cmath **** #endif
 210:/Library/DaisyToolchain/0.2.0/arm/arm-none-eabi/include/c++/10.3.1/cmath **** 
 211:/Library/DaisyToolchain/0.2.0/arm/arm-none-eabi/include/c++/10.3.1/cmath ****   template<typename _Tp>
 212:/Library/DaisyToolchain/0.2.0/arm/arm-none-eabi/include/c++/10.3.1/cmath ****     inline _GLIBCXX_CONSTEXPR
 213:/Library/DaisyToolchain/0.2.0/arm/arm-none-eabi/include/c++/10.3.1/cmath ****     typename __gnu_cxx::__enable_if<__is_integer<_Tp>::__value,
 214:/Library/DaisyToolchain/0.2.0/arm/arm-none-eabi/include/c++/10.3.1/cmath ****                                     double>::__type
 215:/Library/DaisyToolchain/0.2.0/arm/arm-none-eabi/include/c++/10.3.1/cmath ****     cosh(_Tp __x)
 216:/Library/DaisyToolchain/0.2.0/arm/arm-none-eabi/include/c++/10.3.1/cmath ****     { return __builtin_cosh(__x); }
 217:/Library/DaisyToolchain/0.2.0/arm/arm-none-eabi/include/c++/10.3.1/cmath **** 
 218:/Library/DaisyToolchain/0.2.0/arm/arm-none-eabi/include/c++/10.3.1/cmath ****   using ::exp;
 219:/Library/DaisyToolchain/0.2.0/arm/arm-none-eabi/include/c++/10.3.1/cmath **** 
 220:/Library/DaisyToolchain/0.2.0/arm/arm-none-eabi/include/c++/10.3.1/cmath **** #ifndef __CORRECT_ISO_CPP_MATH_H_PROTO
 221:/Library/DaisyToolchain/0.2.0/arm/arm-none-eabi/include/c++/10.3.1/cmath ****   inline _GLIBCXX_CONSTEXPR float
 222:/Library/DaisyToolchain/0.2.0/arm/arm-none-eabi/include/c++/10.3.1/cmath ****   exp(float __x)
 223:/Library/DaisyToolchain/0.2.0/arm/arm-none-eabi/include/c++/10.3.1/cmath ****   { return __builtin_expf(__x); }
 224:/Library/DaisyToolchain/0.2.0/arm/arm-none-eabi/include/c++/10.3.1/cmath **** 
 225:/Library/DaisyToolchain/0.2.0/arm/arm-none-eabi/include/c++/10.3.1/cmath ****   inline _GLIBCXX_CONSTEXPR long double
 226:/Library/DaisyToolchain/0.2.0/arm/arm-none-eabi/include/c++/10.3.1/cmath ****   exp(long double __x)
 227:/Library/DaisyToolchain/0.2.0/arm/arm-none-eabi/include/c++/10.3.1/cmath ****   { return __builtin_expl(__x); }
 228:/Library/DaisyToolchain/0.2.0/arm/arm-none-eabi/include/c++/10.3.1/cmath **** #endif
 229:/Library/DaisyToolchain/0.2.0/arm/arm-none-eabi/include/c++/10.3.1/cmath **** 
 230:/Library/DaisyToolchain/0.2.0/arm/arm-none-eabi/include/c++/10.3.1/cmath ****   template<typename _Tp>
ARM GAS  /var/folders/2p/02m_5p7958535cp2tpgps0400000gn/T//cclqaeHn.s 			page 74


 231:/Library/DaisyToolchain/0.2.0/arm/arm-none-eabi/include/c++/10.3.1/cmath ****     inline _GLIBCXX_CONSTEXPR
 232:/Library/DaisyToolchain/0.2.0/arm/arm-none-eabi/include/c++/10.3.1/cmath ****     typename __gnu_cxx::__enable_if<__is_integer<_Tp>::__value,
 233:/Library/DaisyToolchain/0.2.0/arm/arm-none-eabi/include/c++/10.3.1/cmath ****                                     double>::__type
 234:/Library/DaisyToolchain/0.2.0/arm/arm-none-eabi/include/c++/10.3.1/cmath ****     exp(_Tp __x)
 235:/Library/DaisyToolchain/0.2.0/arm/arm-none-eabi/include/c++/10.3.1/cmath ****     { return __builtin_exp(__x); }
 236:/Library/DaisyToolchain/0.2.0/arm/arm-none-eabi/include/c++/10.3.1/cmath **** 
 237:/Library/DaisyToolchain/0.2.0/arm/arm-none-eabi/include/c++/10.3.1/cmath ****   using ::fabs;
 238:/Library/DaisyToolchain/0.2.0/arm/arm-none-eabi/include/c++/10.3.1/cmath **** 
 239:/Library/DaisyToolchain/0.2.0/arm/arm-none-eabi/include/c++/10.3.1/cmath **** #ifndef __CORRECT_ISO_CPP_MATH_H_PROTO
 240:/Library/DaisyToolchain/0.2.0/arm/arm-none-eabi/include/c++/10.3.1/cmath ****   inline _GLIBCXX_CONSTEXPR float
 241:/Library/DaisyToolchain/0.2.0/arm/arm-none-eabi/include/c++/10.3.1/cmath ****   fabs(float __x)
 242:/Library/DaisyToolchain/0.2.0/arm/arm-none-eabi/include/c++/10.3.1/cmath ****   { return __builtin_fabsf(__x); }
 243:/Library/DaisyToolchain/0.2.0/arm/arm-none-eabi/include/c++/10.3.1/cmath **** 
 244:/Library/DaisyToolchain/0.2.0/arm/arm-none-eabi/include/c++/10.3.1/cmath ****   inline _GLIBCXX_CONSTEXPR long double
 245:/Library/DaisyToolchain/0.2.0/arm/arm-none-eabi/include/c++/10.3.1/cmath ****   fabs(long double __x)
 246:/Library/DaisyToolchain/0.2.0/arm/arm-none-eabi/include/c++/10.3.1/cmath ****   { return __builtin_fabsl(__x); }
 247:/Library/DaisyToolchain/0.2.0/arm/arm-none-eabi/include/c++/10.3.1/cmath **** #endif
 248:/Library/DaisyToolchain/0.2.0/arm/arm-none-eabi/include/c++/10.3.1/cmath **** 
 249:/Library/DaisyToolchain/0.2.0/arm/arm-none-eabi/include/c++/10.3.1/cmath ****   template<typename _Tp>
 250:/Library/DaisyToolchain/0.2.0/arm/arm-none-eabi/include/c++/10.3.1/cmath ****     inline _GLIBCXX_CONSTEXPR
 251:/Library/DaisyToolchain/0.2.0/arm/arm-none-eabi/include/c++/10.3.1/cmath ****     typename __gnu_cxx::__enable_if<__is_integer<_Tp>::__value,
 252:/Library/DaisyToolchain/0.2.0/arm/arm-none-eabi/include/c++/10.3.1/cmath ****                                     double>::__type
 253:/Library/DaisyToolchain/0.2.0/arm/arm-none-eabi/include/c++/10.3.1/cmath ****     fabs(_Tp __x)
 254:/Library/DaisyToolchain/0.2.0/arm/arm-none-eabi/include/c++/10.3.1/cmath ****     { return __builtin_fabs(__x); }
 255:/Library/DaisyToolchain/0.2.0/arm/arm-none-eabi/include/c++/10.3.1/cmath **** 
 256:/Library/DaisyToolchain/0.2.0/arm/arm-none-eabi/include/c++/10.3.1/cmath ****   using ::floor;
 257:/Library/DaisyToolchain/0.2.0/arm/arm-none-eabi/include/c++/10.3.1/cmath **** 
 258:/Library/DaisyToolchain/0.2.0/arm/arm-none-eabi/include/c++/10.3.1/cmath **** #ifndef __CORRECT_ISO_CPP_MATH_H_PROTO
 259:/Library/DaisyToolchain/0.2.0/arm/arm-none-eabi/include/c++/10.3.1/cmath ****   inline _GLIBCXX_CONSTEXPR float
 260:/Library/DaisyToolchain/0.2.0/arm/arm-none-eabi/include/c++/10.3.1/cmath ****   floor(float __x)
 261:/Library/DaisyToolchain/0.2.0/arm/arm-none-eabi/include/c++/10.3.1/cmath ****   { return __builtin_floorf(__x); }
 262:/Library/DaisyToolchain/0.2.0/arm/arm-none-eabi/include/c++/10.3.1/cmath **** 
 263:/Library/DaisyToolchain/0.2.0/arm/arm-none-eabi/include/c++/10.3.1/cmath ****   inline _GLIBCXX_CONSTEXPR long double
 264:/Library/DaisyToolchain/0.2.0/arm/arm-none-eabi/include/c++/10.3.1/cmath ****   floor(long double __x)
 265:/Library/DaisyToolchain/0.2.0/arm/arm-none-eabi/include/c++/10.3.1/cmath ****   { return __builtin_floorl(__x); }
 266:/Library/DaisyToolchain/0.2.0/arm/arm-none-eabi/include/c++/10.3.1/cmath **** #endif
 267:/Library/DaisyToolchain/0.2.0/arm/arm-none-eabi/include/c++/10.3.1/cmath **** 
 268:/Library/DaisyToolchain/0.2.0/arm/arm-none-eabi/include/c++/10.3.1/cmath ****   template<typename _Tp>
 269:/Library/DaisyToolchain/0.2.0/arm/arm-none-eabi/include/c++/10.3.1/cmath ****     inline _GLIBCXX_CONSTEXPR
 270:/Library/DaisyToolchain/0.2.0/arm/arm-none-eabi/include/c++/10.3.1/cmath ****     typename __gnu_cxx::__enable_if<__is_integer<_Tp>::__value,
 271:/Library/DaisyToolchain/0.2.0/arm/arm-none-eabi/include/c++/10.3.1/cmath ****                                     double>::__type
 272:/Library/DaisyToolchain/0.2.0/arm/arm-none-eabi/include/c++/10.3.1/cmath ****     floor(_Tp __x)
 273:/Library/DaisyToolchain/0.2.0/arm/arm-none-eabi/include/c++/10.3.1/cmath ****     { return __builtin_floor(__x); }
 274:/Library/DaisyToolchain/0.2.0/arm/arm-none-eabi/include/c++/10.3.1/cmath **** 
 275:/Library/DaisyToolchain/0.2.0/arm/arm-none-eabi/include/c++/10.3.1/cmath ****   using ::fmod;
 276:/Library/DaisyToolchain/0.2.0/arm/arm-none-eabi/include/c++/10.3.1/cmath **** 
 277:/Library/DaisyToolchain/0.2.0/arm/arm-none-eabi/include/c++/10.3.1/cmath **** #ifndef __CORRECT_ISO_CPP_MATH_H_PROTO
 278:/Library/DaisyToolchain/0.2.0/arm/arm-none-eabi/include/c++/10.3.1/cmath ****   inline _GLIBCXX_CONSTEXPR float
 279:/Library/DaisyToolchain/0.2.0/arm/arm-none-eabi/include/c++/10.3.1/cmath ****   fmod(float __x, float __y)
 280:/Library/DaisyToolchain/0.2.0/arm/arm-none-eabi/include/c++/10.3.1/cmath ****   { return __builtin_fmodf(__x, __y); }
 281:/Library/DaisyToolchain/0.2.0/arm/arm-none-eabi/include/c++/10.3.1/cmath **** 
 282:/Library/DaisyToolchain/0.2.0/arm/arm-none-eabi/include/c++/10.3.1/cmath ****   inline _GLIBCXX_CONSTEXPR long double
 283:/Library/DaisyToolchain/0.2.0/arm/arm-none-eabi/include/c++/10.3.1/cmath ****   fmod(long double __x, long double __y)
 284:/Library/DaisyToolchain/0.2.0/arm/arm-none-eabi/include/c++/10.3.1/cmath ****   { return __builtin_fmodl(__x, __y); }
 285:/Library/DaisyToolchain/0.2.0/arm/arm-none-eabi/include/c++/10.3.1/cmath **** #endif
 286:/Library/DaisyToolchain/0.2.0/arm/arm-none-eabi/include/c++/10.3.1/cmath **** 
 287:/Library/DaisyToolchain/0.2.0/arm/arm-none-eabi/include/c++/10.3.1/cmath ****   template<typename _Tp, typename _Up>
ARM GAS  /var/folders/2p/02m_5p7958535cp2tpgps0400000gn/T//cclqaeHn.s 			page 75


 288:/Library/DaisyToolchain/0.2.0/arm/arm-none-eabi/include/c++/10.3.1/cmath ****     inline _GLIBCXX_CONSTEXPR
 289:/Library/DaisyToolchain/0.2.0/arm/arm-none-eabi/include/c++/10.3.1/cmath ****     typename __gnu_cxx::__promote_2<_Tp, _Up>::__type
 290:/Library/DaisyToolchain/0.2.0/arm/arm-none-eabi/include/c++/10.3.1/cmath ****     fmod(_Tp __x, _Up __y)
 291:/Library/DaisyToolchain/0.2.0/arm/arm-none-eabi/include/c++/10.3.1/cmath ****     {
 292:/Library/DaisyToolchain/0.2.0/arm/arm-none-eabi/include/c++/10.3.1/cmath ****       typedef typename __gnu_cxx::__promote_2<_Tp, _Up>::__type __type;
 293:/Library/DaisyToolchain/0.2.0/arm/arm-none-eabi/include/c++/10.3.1/cmath ****       return fmod(__type(__x), __type(__y));
 294:/Library/DaisyToolchain/0.2.0/arm/arm-none-eabi/include/c++/10.3.1/cmath ****     }
 295:/Library/DaisyToolchain/0.2.0/arm/arm-none-eabi/include/c++/10.3.1/cmath **** 
 296:/Library/DaisyToolchain/0.2.0/arm/arm-none-eabi/include/c++/10.3.1/cmath ****   using ::frexp;
 297:/Library/DaisyToolchain/0.2.0/arm/arm-none-eabi/include/c++/10.3.1/cmath **** 
 298:/Library/DaisyToolchain/0.2.0/arm/arm-none-eabi/include/c++/10.3.1/cmath **** #ifndef __CORRECT_ISO_CPP_MATH_H_PROTO
 299:/Library/DaisyToolchain/0.2.0/arm/arm-none-eabi/include/c++/10.3.1/cmath ****   inline float
 300:/Library/DaisyToolchain/0.2.0/arm/arm-none-eabi/include/c++/10.3.1/cmath ****   frexp(float __x, int* __exp)
 301:/Library/DaisyToolchain/0.2.0/arm/arm-none-eabi/include/c++/10.3.1/cmath ****   { return __builtin_frexpf(__x, __exp); }
 302:/Library/DaisyToolchain/0.2.0/arm/arm-none-eabi/include/c++/10.3.1/cmath **** 
 303:/Library/DaisyToolchain/0.2.0/arm/arm-none-eabi/include/c++/10.3.1/cmath ****   inline long double
 304:/Library/DaisyToolchain/0.2.0/arm/arm-none-eabi/include/c++/10.3.1/cmath ****   frexp(long double __x, int* __exp)
 305:/Library/DaisyToolchain/0.2.0/arm/arm-none-eabi/include/c++/10.3.1/cmath ****   { return __builtin_frexpl(__x, __exp); }
 306:/Library/DaisyToolchain/0.2.0/arm/arm-none-eabi/include/c++/10.3.1/cmath **** #endif
 307:/Library/DaisyToolchain/0.2.0/arm/arm-none-eabi/include/c++/10.3.1/cmath **** 
 308:/Library/DaisyToolchain/0.2.0/arm/arm-none-eabi/include/c++/10.3.1/cmath ****   template<typename _Tp>
 309:/Library/DaisyToolchain/0.2.0/arm/arm-none-eabi/include/c++/10.3.1/cmath ****     inline _GLIBCXX_CONSTEXPR
 310:/Library/DaisyToolchain/0.2.0/arm/arm-none-eabi/include/c++/10.3.1/cmath ****     typename __gnu_cxx::__enable_if<__is_integer<_Tp>::__value, 
 311:/Library/DaisyToolchain/0.2.0/arm/arm-none-eabi/include/c++/10.3.1/cmath ****                                     double>::__type
 312:/Library/DaisyToolchain/0.2.0/arm/arm-none-eabi/include/c++/10.3.1/cmath ****     frexp(_Tp __x, int* __exp)
 313:/Library/DaisyToolchain/0.2.0/arm/arm-none-eabi/include/c++/10.3.1/cmath ****     { return __builtin_frexp(__x, __exp); }
 314:/Library/DaisyToolchain/0.2.0/arm/arm-none-eabi/include/c++/10.3.1/cmath **** 
 315:/Library/DaisyToolchain/0.2.0/arm/arm-none-eabi/include/c++/10.3.1/cmath ****   using ::ldexp;
 316:/Library/DaisyToolchain/0.2.0/arm/arm-none-eabi/include/c++/10.3.1/cmath **** 
 317:/Library/DaisyToolchain/0.2.0/arm/arm-none-eabi/include/c++/10.3.1/cmath **** #ifndef __CORRECT_ISO_CPP_MATH_H_PROTO
 318:/Library/DaisyToolchain/0.2.0/arm/arm-none-eabi/include/c++/10.3.1/cmath ****   inline _GLIBCXX_CONSTEXPR float
 319:/Library/DaisyToolchain/0.2.0/arm/arm-none-eabi/include/c++/10.3.1/cmath ****   ldexp(float __x, int __exp)
 320:/Library/DaisyToolchain/0.2.0/arm/arm-none-eabi/include/c++/10.3.1/cmath ****   { return __builtin_ldexpf(__x, __exp); }
 321:/Library/DaisyToolchain/0.2.0/arm/arm-none-eabi/include/c++/10.3.1/cmath **** 
 322:/Library/DaisyToolchain/0.2.0/arm/arm-none-eabi/include/c++/10.3.1/cmath ****   inline _GLIBCXX_CONSTEXPR long double
 323:/Library/DaisyToolchain/0.2.0/arm/arm-none-eabi/include/c++/10.3.1/cmath ****   ldexp(long double __x, int __exp)
 324:/Library/DaisyToolchain/0.2.0/arm/arm-none-eabi/include/c++/10.3.1/cmath ****   { return __builtin_ldexpl(__x, __exp); }
 325:/Library/DaisyToolchain/0.2.0/arm/arm-none-eabi/include/c++/10.3.1/cmath **** #endif
 326:/Library/DaisyToolchain/0.2.0/arm/arm-none-eabi/include/c++/10.3.1/cmath **** 
 327:/Library/DaisyToolchain/0.2.0/arm/arm-none-eabi/include/c++/10.3.1/cmath ****   template<typename _Tp>
 328:/Library/DaisyToolchain/0.2.0/arm/arm-none-eabi/include/c++/10.3.1/cmath ****     inline _GLIBCXX_CONSTEXPR
 329:/Library/DaisyToolchain/0.2.0/arm/arm-none-eabi/include/c++/10.3.1/cmath ****     typename __gnu_cxx::__enable_if<__is_integer<_Tp>::__value, 
 330:/Library/DaisyToolchain/0.2.0/arm/arm-none-eabi/include/c++/10.3.1/cmath ****                                     double>::__type
 331:/Library/DaisyToolchain/0.2.0/arm/arm-none-eabi/include/c++/10.3.1/cmath ****     ldexp(_Tp __x, int __exp)
 332:/Library/DaisyToolchain/0.2.0/arm/arm-none-eabi/include/c++/10.3.1/cmath ****     { return __builtin_ldexp(__x, __exp); }
 333:/Library/DaisyToolchain/0.2.0/arm/arm-none-eabi/include/c++/10.3.1/cmath **** 
 334:/Library/DaisyToolchain/0.2.0/arm/arm-none-eabi/include/c++/10.3.1/cmath ****   using ::log;
 335:/Library/DaisyToolchain/0.2.0/arm/arm-none-eabi/include/c++/10.3.1/cmath **** 
 336:/Library/DaisyToolchain/0.2.0/arm/arm-none-eabi/include/c++/10.3.1/cmath **** #ifndef __CORRECT_ISO_CPP_MATH_H_PROTO
 337:/Library/DaisyToolchain/0.2.0/arm/arm-none-eabi/include/c++/10.3.1/cmath ****   inline _GLIBCXX_CONSTEXPR float
 338:/Library/DaisyToolchain/0.2.0/arm/arm-none-eabi/include/c++/10.3.1/cmath ****   log(float __x)
 339:/Library/DaisyToolchain/0.2.0/arm/arm-none-eabi/include/c++/10.3.1/cmath ****   { return __builtin_logf(__x); }
 340:/Library/DaisyToolchain/0.2.0/arm/arm-none-eabi/include/c++/10.3.1/cmath **** 
 341:/Library/DaisyToolchain/0.2.0/arm/arm-none-eabi/include/c++/10.3.1/cmath ****   inline _GLIBCXX_CONSTEXPR long double
 342:/Library/DaisyToolchain/0.2.0/arm/arm-none-eabi/include/c++/10.3.1/cmath ****   log(long double __x)
 343:/Library/DaisyToolchain/0.2.0/arm/arm-none-eabi/include/c++/10.3.1/cmath ****   { return __builtin_logl(__x); }
 344:/Library/DaisyToolchain/0.2.0/arm/arm-none-eabi/include/c++/10.3.1/cmath **** #endif
ARM GAS  /var/folders/2p/02m_5p7958535cp2tpgps0400000gn/T//cclqaeHn.s 			page 76


 345:/Library/DaisyToolchain/0.2.0/arm/arm-none-eabi/include/c++/10.3.1/cmath **** 
 346:/Library/DaisyToolchain/0.2.0/arm/arm-none-eabi/include/c++/10.3.1/cmath ****   template<typename _Tp>
 347:/Library/DaisyToolchain/0.2.0/arm/arm-none-eabi/include/c++/10.3.1/cmath ****     inline _GLIBCXX_CONSTEXPR
 348:/Library/DaisyToolchain/0.2.0/arm/arm-none-eabi/include/c++/10.3.1/cmath ****     typename __gnu_cxx::__enable_if<__is_integer<_Tp>::__value, 
 349:/Library/DaisyToolchain/0.2.0/arm/arm-none-eabi/include/c++/10.3.1/cmath ****                                     double>::__type
 350:/Library/DaisyToolchain/0.2.0/arm/arm-none-eabi/include/c++/10.3.1/cmath ****     log(_Tp __x)
 351:/Library/DaisyToolchain/0.2.0/arm/arm-none-eabi/include/c++/10.3.1/cmath ****     { return __builtin_log(__x); }
 352:/Library/DaisyToolchain/0.2.0/arm/arm-none-eabi/include/c++/10.3.1/cmath **** 
 353:/Library/DaisyToolchain/0.2.0/arm/arm-none-eabi/include/c++/10.3.1/cmath ****   using ::log10;
 354:/Library/DaisyToolchain/0.2.0/arm/arm-none-eabi/include/c++/10.3.1/cmath **** 
 355:/Library/DaisyToolchain/0.2.0/arm/arm-none-eabi/include/c++/10.3.1/cmath **** #ifndef __CORRECT_ISO_CPP_MATH_H_PROTO
 356:/Library/DaisyToolchain/0.2.0/arm/arm-none-eabi/include/c++/10.3.1/cmath ****   inline _GLIBCXX_CONSTEXPR float
 357:/Library/DaisyToolchain/0.2.0/arm/arm-none-eabi/include/c++/10.3.1/cmath ****   log10(float __x)
 358:/Library/DaisyToolchain/0.2.0/arm/arm-none-eabi/include/c++/10.3.1/cmath ****   { return __builtin_log10f(__x); }
 359:/Library/DaisyToolchain/0.2.0/arm/arm-none-eabi/include/c++/10.3.1/cmath **** 
 360:/Library/DaisyToolchain/0.2.0/arm/arm-none-eabi/include/c++/10.3.1/cmath ****   inline _GLIBCXX_CONSTEXPR long double
 361:/Library/DaisyToolchain/0.2.0/arm/arm-none-eabi/include/c++/10.3.1/cmath ****   log10(long double __x)
 362:/Library/DaisyToolchain/0.2.0/arm/arm-none-eabi/include/c++/10.3.1/cmath ****   { return __builtin_log10l(__x); }
 363:/Library/DaisyToolchain/0.2.0/arm/arm-none-eabi/include/c++/10.3.1/cmath **** #endif
 364:/Library/DaisyToolchain/0.2.0/arm/arm-none-eabi/include/c++/10.3.1/cmath **** 
 365:/Library/DaisyToolchain/0.2.0/arm/arm-none-eabi/include/c++/10.3.1/cmath ****   template<typename _Tp>
 366:/Library/DaisyToolchain/0.2.0/arm/arm-none-eabi/include/c++/10.3.1/cmath ****     inline _GLIBCXX_CONSTEXPR
 367:/Library/DaisyToolchain/0.2.0/arm/arm-none-eabi/include/c++/10.3.1/cmath ****     typename __gnu_cxx::__enable_if<__is_integer<_Tp>::__value,
 368:/Library/DaisyToolchain/0.2.0/arm/arm-none-eabi/include/c++/10.3.1/cmath ****                                     double>::__type
 369:/Library/DaisyToolchain/0.2.0/arm/arm-none-eabi/include/c++/10.3.1/cmath ****     log10(_Tp __x)
 370:/Library/DaisyToolchain/0.2.0/arm/arm-none-eabi/include/c++/10.3.1/cmath ****     { return __builtin_log10(__x); }
 371:/Library/DaisyToolchain/0.2.0/arm/arm-none-eabi/include/c++/10.3.1/cmath **** 
 372:/Library/DaisyToolchain/0.2.0/arm/arm-none-eabi/include/c++/10.3.1/cmath ****   using ::modf;
 373:/Library/DaisyToolchain/0.2.0/arm/arm-none-eabi/include/c++/10.3.1/cmath **** 
 374:/Library/DaisyToolchain/0.2.0/arm/arm-none-eabi/include/c++/10.3.1/cmath **** #ifndef __CORRECT_ISO_CPP_MATH_H_PROTO
 375:/Library/DaisyToolchain/0.2.0/arm/arm-none-eabi/include/c++/10.3.1/cmath ****   inline float
 376:/Library/DaisyToolchain/0.2.0/arm/arm-none-eabi/include/c++/10.3.1/cmath ****   modf(float __x, float* __iptr)
 377:/Library/DaisyToolchain/0.2.0/arm/arm-none-eabi/include/c++/10.3.1/cmath ****   { return __builtin_modff(__x, __iptr); }
 378:/Library/DaisyToolchain/0.2.0/arm/arm-none-eabi/include/c++/10.3.1/cmath **** 
 379:/Library/DaisyToolchain/0.2.0/arm/arm-none-eabi/include/c++/10.3.1/cmath ****   inline long double
 380:/Library/DaisyToolchain/0.2.0/arm/arm-none-eabi/include/c++/10.3.1/cmath ****   modf(long double __x, long double* __iptr)
 381:/Library/DaisyToolchain/0.2.0/arm/arm-none-eabi/include/c++/10.3.1/cmath ****   { return __builtin_modfl(__x, __iptr); }
 382:/Library/DaisyToolchain/0.2.0/arm/arm-none-eabi/include/c++/10.3.1/cmath **** #endif
 383:/Library/DaisyToolchain/0.2.0/arm/arm-none-eabi/include/c++/10.3.1/cmath **** 
 384:/Library/DaisyToolchain/0.2.0/arm/arm-none-eabi/include/c++/10.3.1/cmath ****   using ::pow;
 385:/Library/DaisyToolchain/0.2.0/arm/arm-none-eabi/include/c++/10.3.1/cmath **** 
 386:/Library/DaisyToolchain/0.2.0/arm/arm-none-eabi/include/c++/10.3.1/cmath **** #ifndef __CORRECT_ISO_CPP_MATH_H_PROTO
 387:/Library/DaisyToolchain/0.2.0/arm/arm-none-eabi/include/c++/10.3.1/cmath ****   inline _GLIBCXX_CONSTEXPR float
 388:/Library/DaisyToolchain/0.2.0/arm/arm-none-eabi/include/c++/10.3.1/cmath ****   pow(float __x, float __y)
 389:/Library/DaisyToolchain/0.2.0/arm/arm-none-eabi/include/c++/10.3.1/cmath ****   { return __builtin_powf(__x, __y); }
 390:/Library/DaisyToolchain/0.2.0/arm/arm-none-eabi/include/c++/10.3.1/cmath **** 
 391:/Library/DaisyToolchain/0.2.0/arm/arm-none-eabi/include/c++/10.3.1/cmath ****   inline _GLIBCXX_CONSTEXPR long double
 392:/Library/DaisyToolchain/0.2.0/arm/arm-none-eabi/include/c++/10.3.1/cmath ****   pow(long double __x, long double __y)
 393:/Library/DaisyToolchain/0.2.0/arm/arm-none-eabi/include/c++/10.3.1/cmath ****   { return __builtin_powl(__x, __y); }
 394:/Library/DaisyToolchain/0.2.0/arm/arm-none-eabi/include/c++/10.3.1/cmath **** 
 395:/Library/DaisyToolchain/0.2.0/arm/arm-none-eabi/include/c++/10.3.1/cmath **** #if __cplusplus < 201103L
 396:/Library/DaisyToolchain/0.2.0/arm/arm-none-eabi/include/c++/10.3.1/cmath ****   // _GLIBCXX_RESOLVE_LIB_DEFECTS
 397:/Library/DaisyToolchain/0.2.0/arm/arm-none-eabi/include/c++/10.3.1/cmath ****   // DR 550. What should the return type of pow(float,int) be?
 398:/Library/DaisyToolchain/0.2.0/arm/arm-none-eabi/include/c++/10.3.1/cmath ****   inline double
 399:/Library/DaisyToolchain/0.2.0/arm/arm-none-eabi/include/c++/10.3.1/cmath ****   pow(double __x, int __i)
 400:/Library/DaisyToolchain/0.2.0/arm/arm-none-eabi/include/c++/10.3.1/cmath ****   { return __builtin_powi(__x, __i); }
 401:/Library/DaisyToolchain/0.2.0/arm/arm-none-eabi/include/c++/10.3.1/cmath **** 
ARM GAS  /var/folders/2p/02m_5p7958535cp2tpgps0400000gn/T//cclqaeHn.s 			page 77


 402:/Library/DaisyToolchain/0.2.0/arm/arm-none-eabi/include/c++/10.3.1/cmath ****   inline float
 403:/Library/DaisyToolchain/0.2.0/arm/arm-none-eabi/include/c++/10.3.1/cmath ****   pow(float __x, int __n)
 404:/Library/DaisyToolchain/0.2.0/arm/arm-none-eabi/include/c++/10.3.1/cmath ****   { return __builtin_powif(__x, __n); }
 405:/Library/DaisyToolchain/0.2.0/arm/arm-none-eabi/include/c++/10.3.1/cmath **** 
 406:/Library/DaisyToolchain/0.2.0/arm/arm-none-eabi/include/c++/10.3.1/cmath ****   inline long double
 407:/Library/DaisyToolchain/0.2.0/arm/arm-none-eabi/include/c++/10.3.1/cmath ****   pow(long double __x, int __n)
 408:/Library/DaisyToolchain/0.2.0/arm/arm-none-eabi/include/c++/10.3.1/cmath ****   { return __builtin_powil(__x, __n); }
 409:/Library/DaisyToolchain/0.2.0/arm/arm-none-eabi/include/c++/10.3.1/cmath **** #endif
 410:/Library/DaisyToolchain/0.2.0/arm/arm-none-eabi/include/c++/10.3.1/cmath **** #endif
 411:/Library/DaisyToolchain/0.2.0/arm/arm-none-eabi/include/c++/10.3.1/cmath **** 
 412:/Library/DaisyToolchain/0.2.0/arm/arm-none-eabi/include/c++/10.3.1/cmath ****   template<typename _Tp, typename _Up>
 413:/Library/DaisyToolchain/0.2.0/arm/arm-none-eabi/include/c++/10.3.1/cmath ****     inline _GLIBCXX_CONSTEXPR
 414:/Library/DaisyToolchain/0.2.0/arm/arm-none-eabi/include/c++/10.3.1/cmath ****     typename __gnu_cxx::__promote_2<_Tp, _Up>::__type
 415:/Library/DaisyToolchain/0.2.0/arm/arm-none-eabi/include/c++/10.3.1/cmath ****     pow(_Tp __x, _Up __y)
 416:/Library/DaisyToolchain/0.2.0/arm/arm-none-eabi/include/c++/10.3.1/cmath ****     {
 417:/Library/DaisyToolchain/0.2.0/arm/arm-none-eabi/include/c++/10.3.1/cmath ****       typedef typename __gnu_cxx::__promote_2<_Tp, _Up>::__type __type;
 418:/Library/DaisyToolchain/0.2.0/arm/arm-none-eabi/include/c++/10.3.1/cmath ****       return pow(__type(__x), __type(__y));
 419:/Library/DaisyToolchain/0.2.0/arm/arm-none-eabi/include/c++/10.3.1/cmath ****     }
 420:/Library/DaisyToolchain/0.2.0/arm/arm-none-eabi/include/c++/10.3.1/cmath **** 
 421:/Library/DaisyToolchain/0.2.0/arm/arm-none-eabi/include/c++/10.3.1/cmath ****   using ::sin;
 422:/Library/DaisyToolchain/0.2.0/arm/arm-none-eabi/include/c++/10.3.1/cmath **** 
 423:/Library/DaisyToolchain/0.2.0/arm/arm-none-eabi/include/c++/10.3.1/cmath **** #ifndef __CORRECT_ISO_CPP_MATH_H_PROTO
 424:/Library/DaisyToolchain/0.2.0/arm/arm-none-eabi/include/c++/10.3.1/cmath ****   inline _GLIBCXX_CONSTEXPR float
 425:/Library/DaisyToolchain/0.2.0/arm/arm-none-eabi/include/c++/10.3.1/cmath ****   sin(float __x)
 2204              		.loc 13 425 3 is_stmt 1 view .LVU615
 2205              	.LBB578:
 426:/Library/DaisyToolchain/0.2.0/arm/arm-none-eabi/include/c++/10.3.1/cmath ****   { return __builtin_sinf(__x); }
 2206              		.loc 13 426 5 view .LVU616
 2207              		.loc 13 426 26 is_stmt 0 view .LVU617
 2208 00b4 B0EE690A 		vmov.f32	s0, s19
 2209 00b8 FFF7FEFF 		bl	sinf
 2210              	.LVL144:
 2211              		.loc 13 426 26 view .LVU618
 2212              	.LBE578:
 2213              	.LBE577:
  17:StereoRotator.h ****       out.right =(in.left*sin(rotation_)) - (in.right*cos(rotation_));
 2214              		.loc 12 17 43 view .LVU619
 2215 00bc 20EE487A 		vnmul.f32	s14, s0, s16
 2216              	.LBE581:
 2217              	.LBE587:
  25:StereoRotator.h ****       out.left = wet_mix_*processed.left + ((1.0f-wet_mix_)*in.left);
 2218              		.loc 12 25 50 view .LVU620
 2219 00c0 F7EE000A 		vmov.f32	s1, #1.0e+0
 2220              		.loc 12 25 18 view .LVU621
 2221 00c4 D5ED027A 		vldr.32	s15, [r5, #8]
 2222              	.LBE593:
 2223              	.LBE597:
 574:GrannyChordApp.cpp **** 
 575:GrannyChordApp.cpp ****   /* apply chorus */
 576:GrannyChordApp.cpp ****   out = chorus_.ProcessMix(out);
 2224              		.loc 3 576 31 view .LVU622
 2225 00c8 04F53C70 		add	r0, r4, #752
 577:GrannyChordApp.cpp **** 
 578:GrannyChordApp.cpp ****   /* apply reverb */
 579:GrannyChordApp.cpp ****   reverb_.ProcessMix(out.left, out.right, &out.left, &out.right);
 2226              		.loc 3 579 21 view .LVU623
 2227 00cc 06AD     		add	r5, sp, #24
ARM GAS  /var/folders/2p/02m_5p7958535cp2tpgps0400000gn/T//cclqaeHn.s 			page 78


 2228              	.LBB598:
 2229              	.LBB594:
 2230              	.LBB588:
 2231              	.LBB582:
  17:StereoRotator.h ****       out.right =(in.left*sin(rotation_)) - (in.right*cos(rotation_));
 2232              		.loc 12 17 43 view .LVU624
 2233 00ce A8EE897A 		vfma.f32	s14, s17, s18
 2234              	.LVL145:
  18:StereoRotator.h ****       return out;
 2235              		.loc 12 18 7 is_stmt 1 view .LVU625
  18:StereoRotator.h ****       return out;
 2236              		.loc 12 18 7 is_stmt 0 view .LVU626
 2237              	.LBE582:
 2238              	.LBE588:
 2239              	.LBE594:
 2240              	.LBE598:
 2241              		.loc 13 426 5 is_stmt 1 view .LVU627
 185:/Library/DaisyToolchain/0.2.0/arm/arm-none-eabi/include/c++/10.3.1/cmath **** 
 2242              		.loc 13 185 5 view .LVU628
 2243              	.LBB599:
 2244              	.LBB595:
 2245              	.LBB589:
 2246              	.LBB583:
  18:StereoRotator.h ****       return out;
 2247              		.loc 12 18 43 is_stmt 0 view .LVU629
 2248 00d2 29EE489A 		vnmul.f32	s18, s18, s16
 2249              	.LBE583:
 2250              	.LBE589:
 2251              		.loc 12 25 50 view .LVU630
 2252 00d6 70EEE70A 		vsub.f32	s1, s1, s15
 2253              	.LBB590:
 2254              	.LBB584:
  18:StereoRotator.h ****       return out;
 2255              		.loc 12 18 43 view .LVU631
 2256 00da A8EE809A 		vfma.f32	s18, s17, s0
 2257              	.LVL146:
  19:StereoRotator.h ****     }
 2258              		.loc 12 19 7 is_stmt 1 view .LVU632
  19:StereoRotator.h ****     }
 2259              		.loc 12 19 7 is_stmt 0 view .LVU633
 2260              	.LBE584:
 2261              	.LBE590:
 2262              		.loc 12 25 7 is_stmt 1 view .LVU634
 2263              		.loc 12 25 60 is_stmt 0 view .LVU635
 2264 00de 28EEA00A 		vmul.f32	s0, s17, s1
  26:StereoRotator.h ****       out.right = wet_mix_*processed.right + ((1.0f-wet_mix_)*in.right);
 2265              		.loc 12 26 62 view .LVU636
 2266 00e2 68EE200A 		vmul.f32	s1, s16, s1
  25:StereoRotator.h ****       out.right = wet_mix_*processed.right + ((1.0f-wet_mix_)*in.right);
 2267              		.loc 12 25 42 view .LVU637
 2268 00e6 A7EE870A 		vfma.f32	s0, s15, s14
 2269              	.LVL147:
 2270              		.loc 12 26 7 is_stmt 1 view .LVU638
 2271              		.loc 12 26 44 is_stmt 0 view .LVU639
 2272 00ea E7EE890A 		vfma.f32	s1, s15, s18
 2273              	.LVL148:
  27:StereoRotator.h ****       return out;
ARM GAS  /var/folders/2p/02m_5p7958535cp2tpgps0400000gn/T//cclqaeHn.s 			page 79


 2274              		.loc 12 27 7 is_stmt 1 view .LVU640
 2275              		.loc 12 27 7 is_stmt 0 view .LVU641
 2276              	.LBE595:
 2277              	.LBE599:
 573:GrannyChordApp.cpp **** 
 2278              		.loc 3 573 32 view .LVU642
 2279 00ee 8DED060A 		vstr.32	s0, [sp, #24]
 2280 00f2 CDED070A 		vstr.32	s1, [sp, #28]
 576:GrannyChordApp.cpp **** 
 2281              		.loc 3 576 3 is_stmt 1 view .LVU643
 576:GrannyChordApp.cpp **** 
 2282              		.loc 3 576 31 is_stmt 0 view .LVU644
 2283 00f6 FFF7FEFF 		bl	_ZN7daisysp6Chorus10ProcessMixE6Sample
 2284              	.LVL149:
 2285              		.loc 3 579 21 view .LVU645
 2286 00fa 07AA     		add	r2, sp, #28
 2287 00fc 2B46     		mov	r3, r5
 2288 00fe 2946     		mov	r1, r5
 576:GrannyChordApp.cpp **** 
 2289              		.loc 3 576 31 view .LVU646
 2290 0100 CDED070A 		vstr.32	s1, [sp, #28]
 2291              		.loc 3 579 3 is_stmt 1 view .LVU647
 2292              		.loc 3 579 21 is_stmt 0 view .LVU648
 2293 0104 0092     		str	r2, [sp]
 2294 0106 D4F8EC02 		ldr	r0, [r4, #748]
 580:GrannyChordApp.cpp **** 
 581:GrannyChordApp.cpp ****   out.left = hicut_.Process(out.left);
 2295              		.loc 3 581 28 view .LVU649
 2296 010a 04F59D44 		add	r4, r4, #20096
 2297              	.LVL150:
 576:GrannyChordApp.cpp **** 
 2298              		.loc 3 576 31 view .LVU650
 2299 010e 8DED060A 		vstr.32	s0, [sp, #24]
 579:GrannyChordApp.cpp **** 
 2300              		.loc 3 579 21 view .LVU651
 2301 0112 FFF7FEFF 		bl	_ZN7daisysp8ReverbSc10ProcessMixERKfS2_PfS3_
 2302              	.LVL151:
 2303              		.loc 3 581 3 is_stmt 1 view .LVU652
 2304              		.loc 3 581 28 is_stmt 0 view .LVU653
 2305 0116 3034     		adds	r4, r4, #48
 2306              	.LVL152:
 2307              		.loc 3 581 28 view .LVU654
 2308 0118 9DED060A 		vldr.32	s0, [sp, #24]
 2309 011c 2046     		mov	r0, r4
 2310 011e FFF7FEFF 		bl	_ZN7daisysp7OnePole7ProcessEf
 2311              	.LVL153:
 582:GrannyChordApp.cpp ****   out.right = hicut_.Process(out.right);
 2312              		.loc 3 582 29 view .LVU655
 2313 0122 2046     		mov	r0, r4
 581:GrannyChordApp.cpp ****   out.right = hicut_.Process(out.right);
 2314              		.loc 3 581 12 view .LVU656
 2315 0124 8DED060A 		vstr.32	s0, [sp, #24]
 2316              		.loc 3 582 3 is_stmt 1 view .LVU657
 2317              		.loc 3 582 29 is_stmt 0 view .LVU658
 2318 0128 9DED070A 		vldr.32	s0, [sp, #28]
 2319 012c FFF7FEFF 		bl	_ZN7daisysp7OnePole7ProcessEf
 2320              	.LVL154:
ARM GAS  /var/folders/2p/02m_5p7958535cp2tpgps0400000gn/T//cclqaeHn.s 			page 80


 583:GrannyChordApp.cpp ****   return out;
 2321              		.loc 3 583 10 view .LVU659
 2322 0130 0AAB     		add	r3, sp, #40
 582:GrannyChordApp.cpp ****   out.right = hicut_.Process(out.right);
 2323              		.loc 3 582 13 view .LVU660
 2324 0132 8DED070A 		vstr.32	s0, [sp, #28]
 2325              		.loc 3 583 3 is_stmt 1 view .LVU661
 2326              		.loc 3 583 10 is_stmt 0 view .LVU662
 2327 0136 95E80300 		ldm	r5, {r0, r1}
 2328 013a 03E90300 		stmdb	r3, {r0, r1}
 584:GrannyChordApp.cpp **** }
 2329              		.loc 3 584 1 view .LVU663
 2330 013e 9DED080A 		vldr.32	s0, [sp, #32]
 2331 0142 DDED090A 		vldr.32	s1, [sp, #36]
 2332 0146 0BB0     		add	sp, sp, #44
 2333              		.cfi_def_cfa_offset 28
 2334              		@ sp needed
 2335 0148 BDEC048B 		vldm	sp!, {d8-d9}
 2336              		.cfi_restore 82
 2337              		.cfi_restore 83
 2338              		.cfi_restore 80
 2339              		.cfi_restore 81
 2340              		.cfi_def_cfa_offset 12
 2341 014c 30BD     		pop	{r4, r5, pc}
 2342              	.LVL155:
 2343              	.L90:
 2344              		.loc 3 584 1 view .LVU664
 2345 014e 00BF     		.align	3
 2346              	.L89:
 2347 0150 182D4454 		.word	1413754136
 2348 0154 FB211940 		.word	1075388923
 2349 0158 00000000 		.word	0
 2350 015c 0070E740 		.word	1088909312
 2351              		.cfi_endproc
 2352              	.LFE4943:
 2354              		.section	.text._ZN14GrannyChordApp16ProcessSynthesisEPPfj,"ax",%progbits
 2355              		.align	1
 2356              		.global	_ZN14GrannyChordApp16ProcessSynthesisEPPfj
 2357              		.syntax unified
 2358              		.thumb
 2359              		.thumb_func
 2361              	_ZN14GrannyChordApp16ProcessSynthesisEPPfj:
 2362              	.LVL156:
 2363              	.LFB4942:
 532:GrannyChordApp.cpp ****   // Sample samp;
 2364              		.loc 3 532 82 is_stmt 1 view -0
 2365              		.cfi_startproc
 2366              		@ args = 0, pretend = 0, frame = 16
 2367              		@ frame_needed = 0, uses_anonymous_args = 0
 534:GrannyChordApp.cpp ****     Sample samp = synth_.ProcessGrains();
 2368              		.loc 3 534 3 view .LVU666
 532:GrannyChordApp.cpp ****   // Sample samp;
 2369              		.loc 3 532 82 is_stmt 0 view .LVU667
 2370 0000 2DE9F04F 		push	{r4, r5, r6, r7, r8, r9, r10, fp, lr}
 2371              		.cfi_def_cfa_offset 36
 2372              		.cfi_offset 4, -36
 2373              		.cfi_offset 5, -32
ARM GAS  /var/folders/2p/02m_5p7958535cp2tpgps0400000gn/T//cclqaeHn.s 			page 81


 2374              		.cfi_offset 6, -28
 2375              		.cfi_offset 7, -24
 2376              		.cfi_offset 8, -20
 2377              		.cfi_offset 9, -16
 2378              		.cfi_offset 10, -12
 2379              		.cfi_offset 11, -8
 2380              		.cfi_offset 14, -4
 2381 0004 0446     		mov	r4, r0
 2382 0006 85B0     		sub	sp, sp, #20
 2383              		.cfi_def_cfa_offset 56
 532:GrannyChordApp.cpp ****   // Sample samp;
 2384              		.loc 3 532 82 view .LVU668
 2385 0008 0E46     		mov	r6, r1
 2386 000a 9346     		mov	fp, r2
 2387              	.LBB614:
 534:GrannyChordApp.cpp ****     Sample samp = synth_.ProcessGrains();
 2388              		.loc 3 534 15 view .LVU669
 2389 000c 0025     		movs	r5, #0
 2390              	.LVL157:
 2391              	.L106:
 534:GrannyChordApp.cpp ****     Sample samp = synth_.ProcessGrains();
 2392              		.loc 3 534 21 is_stmt 1 discriminator 1 view .LVU670
 2393 000e 5D45     		cmp	r5, fp
 2394 0010 00F0CC80 		beq	.L91
 2395              	.LBB615:
 535:GrannyChordApp.cpp ****     counter++;
 2396              		.loc 3 535 5 view .LVU671
 536:GrannyChordApp.cpp **** 
 2397              		.loc 3 536 12 is_stmt 0 view .LVU672
 2398 0014 04F55048 		add	r8, r4, #53248
 535:GrannyChordApp.cpp ****     counter++;
 2399              		.loc 3 535 40 view .LVU673
 2400 0018 04F12000 		add	r0, r4, #32
 2401 001c FFF7FEFF 		bl	_ZN13GranularSynth13ProcessGrainsEv
 2402              	.LVL158:
 538:GrannyChordApp.cpp ****     // out[0][i] = samp.left;
 2403              		.loc 3 538 26 view .LVU674
 2404 0020 2046     		mov	r0, r4
 536:GrannyChordApp.cpp **** 
 2405              		.loc 3 536 12 view .LVU675
 2406 0022 D8F89032 		ldr	r3, [r8, #656]
 535:GrannyChordApp.cpp ****     counter++;
 2407              		.loc 3 535 40 view .LVU676
 2408 0026 CDED030A 		vstr.32	s1, [sp, #12]
 536:GrannyChordApp.cpp **** 
 2409              		.loc 3 536 5 is_stmt 1 view .LVU677
 536:GrannyChordApp.cpp **** 
 2410              		.loc 3 536 12 is_stmt 0 view .LVU678
 2411 002a 0133     		adds	r3, r3, #1
 535:GrannyChordApp.cpp ****     counter++;
 2412              		.loc 3 535 40 view .LVU679
 2413 002c 8DED020A 		vstr.32	s0, [sp, #8]
 536:GrannyChordApp.cpp **** 
 2414              		.loc 3 536 12 view .LVU680
 2415 0030 C8F89032 		str	r3, [r8, #656]
 538:GrannyChordApp.cpp ****     // out[0][i] = samp.left;
 2416              		.loc 3 538 5 is_stmt 1 view .LVU681
ARM GAS  /var/folders/2p/02m_5p7958535cp2tpgps0400000gn/T//cclqaeHn.s 			page 82


 538:GrannyChordApp.cpp ****     // out[0][i] = samp.left;
 2417              		.loc 3 538 26 is_stmt 0 view .LVU682
 2418 0034 FFF7FEFF 		bl	_ZN14GrannyChordApp9ProcessFXE6Sample
 2419              	.LVL159:
 541:GrannyChordApp.cpp ****     limiter_.ProcessBlock(&samp.right, 1, 1.0f);
 2420              		.loc 3 541 26 view .LVU683
 2421 0038 04F53A70 		add	r0, r4, #744
 2422 003c 0122     		movs	r2, #1
 2423 003e 02A9     		add	r1, sp, #8
 538:GrannyChordApp.cpp ****     // out[0][i] = samp.left;
 2424              		.loc 3 538 26 view .LVU684
 2425 0040 8DED020A 		vstr.32	s0, [sp, #8]
 541:GrannyChordApp.cpp ****     limiter_.ProcessBlock(&samp.right, 1, 1.0f);
 2426              		.loc 3 541 26 view .LVU685
 2427 0044 B7EE000A 		vmov.f32	s0, #1.0e+0
 538:GrannyChordApp.cpp ****     // out[0][i] = samp.left;
 2428              		.loc 3 538 26 view .LVU686
 2429 0048 CDED030A 		vstr.32	s1, [sp, #12]
 541:GrannyChordApp.cpp ****     limiter_.ProcessBlock(&samp.right, 1, 1.0f);
 2430              		.loc 3 541 5 is_stmt 1 view .LVU687
 541:GrannyChordApp.cpp ****     limiter_.ProcessBlock(&samp.right, 1, 1.0f);
 2431              		.loc 3 541 26 is_stmt 0 view .LVU688
 2432 004c 0190     		str	r0, [sp, #4]
 2433 004e FFF7FEFF 		bl	_ZN7daisysp7Limiter12ProcessBlockEPfjf
 2434              	.LVL160:
 542:GrannyChordApp.cpp ****     // if (counter%128000==0){
 2435              		.loc 3 542 5 is_stmt 1 view .LVU689
 542:GrannyChordApp.cpp ****     // if (counter%128000==0){
 2436              		.loc 3 542 26 is_stmt 0 view .LVU690
 2437 0052 0122     		movs	r2, #1
 2438 0054 03A9     		add	r1, sp, #12
 2439 0056 B7EE000A 		vmov.f32	s0, #1.0e+0
 2440 005a 0198     		ldr	r0, [sp, #4]
 2441 005c FFF7FEFF 		bl	_ZN7daisysp7Limiter12ProcessBlockEPfjf
 2442              	.LVL161:
 547:GrannyChordApp.cpp ****     out[1][i] = samp.right;
 2443              		.loc 3 547 5 is_stmt 1 view .LVU691
 547:GrannyChordApp.cpp ****     out[1][i] = samp.right;
 2444              		.loc 3 547 13 is_stmt 0 view .LVU692
 2445 0060 3168     		ldr	r1, [r6]
 547:GrannyChordApp.cpp ****     out[1][i] = samp.right;
 2446              		.loc 3 547 22 view .LVU693
 2447 0062 029B     		ldr	r3, [sp, #8]	@ float
 547:GrannyChordApp.cpp ****     out[1][i] = samp.right;
 2448              		.loc 3 547 13 view .LVU694
 2449 0064 01EB8501 		add	r1, r1, r5, lsl #2
 548:GrannyChordApp.cpp **** 
 2450              		.loc 3 548 13 view .LVU695
 2451 0068 7268     		ldr	r2, [r6, #4]
 547:GrannyChordApp.cpp ****     out[1][i] = samp.right;
 2452              		.loc 3 547 15 view .LVU696
 2453 006a 0B60     		str	r3, [r1]	@ float
 548:GrannyChordApp.cpp **** 
 2454              		.loc 3 548 5 is_stmt 1 view .LVU697
 548:GrannyChordApp.cpp **** 
 2455              		.loc 3 548 13 is_stmt 0 view .LVU698
 2456 006c 02EB8502 		add	r2, r2, r5, lsl #2
ARM GAS  /var/folders/2p/02m_5p7958535cp2tpgps0400000gn/T//cclqaeHn.s 			page 83


 548:GrannyChordApp.cpp **** 
 2457              		.loc 3 548 22 view .LVU699
 2458 0070 039B     		ldr	r3, [sp, #12]	@ float
 548:GrannyChordApp.cpp **** 
 2459              		.loc 3 548 15 view .LVU700
 2460 0072 1360     		str	r3, [r2]	@ float
 550:GrannyChordApp.cpp ****       temp_interleaved_buf_[0]=out[0][i];
 2461              		.loc 3 550 5 is_stmt 1 view .LVU701
 550:GrannyChordApp.cpp ****       temp_interleaved_buf_[0]=out[0][i];
 2462              		.loc 3 550 24 is_stmt 0 view .LVU702
 2463 0074 98F81032 		ldrb	r3, [r8, #528]	@ zero_extendqisi2
 2464 0078 002B     		cmp	r3, #0
 2465 007a 00F09580 		beq	.L94
 2466              	.LVL162:
 2467              	.LBB616:
 2468              	.LBI616:
 175:../libDaisy/src/util/WavWriter.h ****     {
 2469              		.loc 9 175 18 is_stmt 1 discriminator 1 view .LVU703
 2470              	.LBB617:
 177:../libDaisy/src/util/WavWriter.h ****     }
 2471              		.loc 9 177 23 is_stmt 0 discriminator 1 view .LVU704
 2472 007e 04F58043 		add	r3, r4, #16384
 2473 0082 D3F8C0CF 		ldr	ip, [r3, #4032]
 2474              	.LVL163:
 177:../libDaisy/src/util/WavWriter.h ****     }
 2475              		.loc 9 177 48 discriminator 1 view .LVU705
 2476 0086 03F69470 		addw	r0, r3, #3988
 177:../libDaisy/src/util/WavWriter.h ****     }
 2477              		.loc 9 177 16 discriminator 1 view .LVU706
 2478 008a 07EE90CA 		vmov	s15, ip	@ int
 2479 008e F8EE676A 		vcvt.f32.u32	s13, s15
 177:../libDaisy/src/util/WavWriter.h ****     }
 2480              		.loc 9 177 48 discriminator 1 view .LVU707
 2481 0092 D0ED0D7A 		vldr.32	s15, [r0, #52]
 2482 0096 86EEA77A 		vdiv.f32	s14, s13, s15
 2483              	.LBE617:
 2484              	.LBE616:
 550:GrannyChordApp.cpp ****       temp_interleaved_buf_[0]=out[0][i];
 2485              		.loc 3 550 24 discriminator 1 view .LVU708
 2486 009a DFED467A 		vldr.32	s15, .L114
 2487 009e B4EEE77A 		vcmpe.f32	s14, s15
 2488 00a2 F1EE10FA 		vmrs	APSR_nzcv, FPSCR
 2489 00a6 7FD5     		bpl	.L94
 551:GrannyChordApp.cpp ****       temp_interleaved_buf_[1]=out[1][i];
 2490              		.loc 3 551 7 is_stmt 1 view .LVU709
 551:GrannyChordApp.cpp ****       temp_interleaved_buf_[1]=out[1][i];
 2491              		.loc 3 551 40 is_stmt 0 view .LVU710
 2492 00a8 0968     		ldr	r1, [r1]	@ float
 2493              	.LBB618:
 2494              	.LBB619:
 2495              	.LBB620:
  95:../libDaisy/src/util/WavWriter.h ****         {
 2496              		.loc 9 95 37 view .LVU711
 2497 00aa D3F8CC0F 		ldr	r0, [r3, #4044]
 2498              	.LBE620:
 2499              	.LBE619:
 2500              	.LBE618:
ARM GAS  /var/folders/2p/02m_5p7958535cp2tpgps0400000gn/T//cclqaeHn.s 			page 84


 551:GrannyChordApp.cpp ****       temp_interleaved_buf_[1]=out[1][i];
 2501              		.loc 3 551 31 view .LVU712
 2502 00ae C8F81C12 		str	r1, [r8, #540]	@ float
 552:GrannyChordApp.cpp ****       sd_writer_.Sample(temp_interleaved_buf_);
 2503              		.loc 3 552 7 is_stmt 1 view .LVU713
 2504              	.LBB650:
 2505              	.LBB647:
 2506              	.LBB644:
  95:../libDaisy/src/util/WavWriter.h ****         {
 2507              		.loc 9 95 21 is_stmt 0 view .LVU714
 2508 00b2 0021     		movs	r1, #0
 2509              	.LBE644:
 2510              	.LBE647:
 2511              	.LBE650:
 552:GrannyChordApp.cpp ****       sd_writer_.Sample(temp_interleaved_buf_);
 2512              		.loc 3 552 40 view .LVU715
 2513 00b4 1268     		ldr	r2, [r2]	@ float
 2514              	.LBB651:
 2515              	.LBB648:
 2516              	.LBB645:
 2517              	.LBB621:
  97:../libDaisy/src/util/WavWriter.h ****             {
 2518              		.loc 9 97 25 view .LVU716
 2519 00b6 D3F8D0EF 		ldr	lr, [r3, #4048]
 2520              	.LBE621:
 2521              	.LBE645:
 2522              	.LBE648:
 2523              	.LBE651:
 552:GrannyChordApp.cpp ****       sd_writer_.Sample(temp_interleaved_buf_);
 2524              		.loc 3 552 31 view .LVU717
 2525 00ba C8F82022 		str	r2, [r8, #544]	@ float
 553:GrannyChordApp.cpp ****     }
 2526              		.loc 3 553 7 is_stmt 1 view .LVU718
 2527              	.LVL164:
 2528              	.LBB652:
 2529              	.LBI618:
  93:../libDaisy/src/util/WavWriter.h ****     {
 2530              		.loc 9 93 10 view .LVU719
  93:../libDaisy/src/util/WavWriter.h ****     {
 2531              		.loc 9 93 10 is_stmt 0 view .LVU720
 2532 00be 04F55242 		add	r2, r4, #53760
 2533              	.LBB649:
 2534              	.LBB646:
 2535              	.LBB641:
 2536              	.LBB622:
 2537              	.LBB623:
 103:../libDaisy/src/util/WavWriter.h ****                 }
 2538              		.loc 9 103 24 view .LVU721
 2539 00c2 D3F8C48F 		ldr	r8, [r3, #4036]
 2540 00c6 1C32     		adds	r2, r2, #28
 2541              	.LVL165:
 2542              	.L103:
 103:../libDaisy/src/util/WavWriter.h ****                 }
 2543              		.loc 9 103 24 view .LVU722
 2544              	.LBE623:
 2545              	.LBE622:
 2546              	.LBE641:
ARM GAS  /var/folders/2p/02m_5p7958535cp2tpgps0400000gn/T//cclqaeHn.s 			page 85


  95:../libDaisy/src/util/WavWriter.h ****         {
 2547              		.loc 9 95 30 is_stmt 1 view .LVU723
 2548 00c8 8842     		cmp	r0, r1
 2549 00ca 4CDD     		ble	.L97
 2550              	.LBB642:
  97:../libDaisy/src/util/WavWriter.h ****             {
 2551              		.loc 9 97 13 is_stmt 0 view .LVU724
 2552 00cc BEF1100F 		cmp	lr, #16
 2553 00d0 05D0     		beq	.L98
 2554 00d2 BEF1200F 		cmp	lr, #32
 2555 00d6 27D0     		beq	.L99
 2556              	.L100:
 2557              	.LBE642:
  95:../libDaisy/src/util/WavWriter.h ****         {
 2558              		.loc 9 95 9 is_stmt 1 view .LVU725
 2559 00d8 0131     		adds	r1, r1, #1
 2560              	.LVL166:
  95:../libDaisy/src/util/WavWriter.h ****         {
 2561              		.loc 9 95 9 is_stmt 0 view .LVU726
 2562 00da 0432     		adds	r2, r2, #4
 2563 00dc F4E7     		b	.L103
 2564              	.L98:
 2565              	.LVL167:
 2566              	.LBB643:
 2567              	.LBB640:
 2568              	.LBB632:
 103:../libDaisy/src/util/WavWriter.h ****                 }
 2569              		.loc 9 103 42 view .LVU727
 2570 00de D2ED007A 		vldr.32	s15, [r2]
 102:../libDaisy/src/util/WavWriter.h ****                     tp[wptr_ + i] = f2s16(in[i]);
 2571              		.loc 9 102 35 view .LVU728
 2572 00e2 04F59F49 		add	r9, r4, #20352
 2573              	.LBB624:
 2574              	.LBB625:
 123:../libDaisy/src/daisy_core.h **** }
 124:../libDaisy/src/daisy_core.h **** 
 125:../libDaisy/src/daisy_core.h **** /**
 126:../libDaisy/src/daisy_core.h ****     Converts float to Signed 16-bit
 127:../libDaisy/src/daisy_core.h **** */
 128:../libDaisy/src/daisy_core.h **** FORCE_INLINE int16_t f2s16(float x)
 129:../libDaisy/src/daisy_core.h **** {
 130:../libDaisy/src/daisy_core.h ****     x = x <= FBIPMIN ? FBIPMIN : x;
 2575              		.loc 11 130 22 view .LVU729
 2576 00e6 9FED347A 		vldr.32	s14, .L114+4
 2577              	.LBE625:
 2578              	.LBE624:
 103:../libDaisy/src/util/WavWriter.h ****                 }
 2579              		.loc 9 103 30 view .LVU730
 2580 00ea 01EB080A 		add	r10, r1, r8
 2581              	.LVL168:
 2582              	.LBB629:
 2583              	.LBI624:
 128:../libDaisy/src/daisy_core.h **** {
 2584              		.loc 11 128 22 is_stmt 1 view .LVU731
 2585              	.LBB626:
 2586              		.loc 11 130 5 view .LVU732
 2587              	.LBE626:
ARM GAS  /var/folders/2p/02m_5p7958535cp2tpgps0400000gn/T//cclqaeHn.s 			page 86


 2588              	.LBE629:
 102:../libDaisy/src/util/WavWriter.h ****                     tp[wptr_ + i] = f2s16(in[i]);
 2589              		.loc 9 102 35 is_stmt 0 view .LVU733
 2590 00ee 09F15409 		add	r9, r9, #84
 2591              	.LBB630:
 2592              	.LBB627:
 2593              		.loc 11 130 22 view .LVU734
 2594 00f2 F4EEC77A 		vcmpe.f32	s15, s14
 2595 00f6 F1EE10FA 		vmrs	APSR_nzcv, FPSCR
 2596 00fa 12D9     		bls	.L107
 131:../libDaisy/src/daisy_core.h ****     x = x >= FBIPMAX ? FBIPMAX : x;
 2597              		.loc 11 131 5 is_stmt 1 view .LVU735
 2598              		.loc 11 131 22 is_stmt 0 view .LVU736
 2599 00fc 9FED2F7A 		vldr.32	s14, .L114+8
 2600 0100 F4EE477A 		vcmp.f32	s15, s14
 2601 0104 F1EE10FA 		vmrs	APSR_nzcv, FPSCR
 2602 0108 67FE277A 		vselge.f32	s15, s14, s15
 2603              	.LVL169:
 2604              	.L101:
 132:../libDaisy/src/daisy_core.h ****     return (int32_t)(x * F2S16_SCALE);
 2605              		.loc 11 132 5 is_stmt 1 view .LVU737
 2606              		.loc 11 132 24 is_stmt 0 view .LVU738
 2607 010c 9FED2C7A 		vldr.32	s14, .L114+12
 2608 0110 67EE877A 		vmul.f32	s15, s15, s14
 2609              		.loc 11 132 12 view .LVU739
 2610 0114 FDEEE77A 		vcvt.s32.f32	s15, s15
 2611              		.loc 11 132 37 view .LVU740
 2612 0118 17EE907A 		vmov	r7, s15	@ int
 2613 011c 29F81A70 		strh	r7, [r9, r10, lsl #1]	@ movhi
 2614              	.LBE627:
 2615              	.LBE630:
 2616              	.LBE632:
 105:../libDaisy/src/util/WavWriter.h ****                 case 32: transfer_buff[wptr_ + i] = f2s32(in[i]); break;
 2617              		.loc 9 105 17 view .LVU741
 2618 0120 DAE7     		b	.L100
 2619              	.LVL170:
 2620              	.L107:
 2621              	.LBB633:
 2622              	.LBB631:
 2623              	.LBB628:
 130:../libDaisy/src/daisy_core.h ****     x = x >= FBIPMAX ? FBIPMAX : x;
 2624              		.loc 11 130 22 view .LVU742
 2625 0122 F0EE477A 		vmov.f32	s15, s14
 2626              	.LVL171:
 130:../libDaisy/src/daisy_core.h ****     x = x >= FBIPMAX ? FBIPMAX : x;
 2627              		.loc 11 130 22 view .LVU743
 2628 0126 F1E7     		b	.L101
 2629              	.LVL172:
 2630              	.L99:
 130:../libDaisy/src/daisy_core.h ****     x = x >= FBIPMAX ? FBIPMAX : x;
 2631              		.loc 11 130 22 view .LVU744
 2632              	.LBE628:
 2633              	.LBE631:
 2634              	.LBE633:
 106:../libDaisy/src/util/WavWriter.h ****                 default: break;
 2635              		.loc 9 106 58 view .LVU745
 2636 0128 D2ED007A 		vldr.32	s15, [r2]
ARM GAS  /var/folders/2p/02m_5p7958535cp2tpgps0400000gn/T//cclqaeHn.s 			page 87


 106:../libDaisy/src/util/WavWriter.h ****                 default: break;
 2637              		.loc 9 106 46 view .LVU746
 2638 012c 01EB0809 		add	r9, r1, r8
 2639              	.LVL173:
 2640              	.LBB634:
 2641              	.LBI634:
 133:../libDaisy/src/daisy_core.h **** }
 134:../libDaisy/src/daisy_core.h **** 
 135:../libDaisy/src/daisy_core.h **** /**
 136:../libDaisy/src/daisy_core.h ****     Converts Signed 24-bit to float
 137:../libDaisy/src/daisy_core.h ****  */
 138:../libDaisy/src/daisy_core.h **** FORCE_INLINE float s242f(int32_t x)
 139:../libDaisy/src/daisy_core.h **** {
 140:../libDaisy/src/daisy_core.h ****     x = (x ^ S24SIGN) - S24SIGN; //sign extend aka ((x<<8)>>8)
 141:../libDaisy/src/daisy_core.h ****     return (float)x * S242F_SCALE;
 142:../libDaisy/src/daisy_core.h **** }
 143:../libDaisy/src/daisy_core.h **** /**
 144:../libDaisy/src/daisy_core.h ****     Converts float to Signed 24-bit
 145:../libDaisy/src/daisy_core.h ****  */
 146:../libDaisy/src/daisy_core.h **** FORCE_INLINE int32_t f2s24(float x)
 147:../libDaisy/src/daisy_core.h **** {
 148:../libDaisy/src/daisy_core.h ****     x = x <= FBIPMIN ? FBIPMIN : x;
 149:../libDaisy/src/daisy_core.h ****     x = x >= FBIPMAX ? FBIPMAX : x;
 150:../libDaisy/src/daisy_core.h ****     return (int32_t)(x * F2S24_SCALE);
 151:../libDaisy/src/daisy_core.h **** }
 152:../libDaisy/src/daisy_core.h **** 
 153:../libDaisy/src/daisy_core.h **** /**
 154:../libDaisy/src/daisy_core.h ****     Converts Signed 32-bit to float
 155:../libDaisy/src/daisy_core.h ****  */
 156:../libDaisy/src/daisy_core.h **** FORCE_INLINE float s322f(int32_t x)
 157:../libDaisy/src/daisy_core.h **** {
 158:../libDaisy/src/daisy_core.h ****     return (float)x * S322F_SCALE;
 159:../libDaisy/src/daisy_core.h **** }
 160:../libDaisy/src/daisy_core.h **** /**
 161:../libDaisy/src/daisy_core.h ****     Converts float to Signed 24-bit
 162:../libDaisy/src/daisy_core.h ****  */
 163:../libDaisy/src/daisy_core.h **** FORCE_INLINE int32_t f2s32(float x)
 2642              		.loc 11 163 22 is_stmt 1 view .LVU747
 2643              	.LBB635:
 164:../libDaisy/src/daisy_core.h **** {
 165:../libDaisy/src/daisy_core.h ****     x = x <= FBIPMIN ? FBIPMIN : x;
 2644              		.loc 11 165 5 view .LVU748
 2645              		.loc 11 165 22 is_stmt 0 view .LVU749
 2646 0130 9FED217A 		vldr.32	s14, .L114+4
 2647 0134 F4EEC77A 		vcmpe.f32	s15, s14
 2648 0138 F1EE10FA 		vmrs	APSR_nzcv, FPSCR
 2649 013c 10D9     		bls	.L109
 166:../libDaisy/src/daisy_core.h ****     x = x >= FBIPMAX ? FBIPMAX : x;
 2650              		.loc 11 166 5 is_stmt 1 view .LVU750
 2651              		.loc 11 166 22 is_stmt 0 view .LVU751
 2652 013e 9FED1F7A 		vldr.32	s14, .L114+8
 2653 0142 F4EE477A 		vcmp.f32	s15, s14
 2654 0146 F1EE10FA 		vmrs	APSR_nzcv, FPSCR
 2655 014a 67FE277A 		vselge.f32	s15, s14, s15
 2656              	.LVL174:
 2657              	.L102:
 167:../libDaisy/src/daisy_core.h ****     return (int32_t)(x * F2S32_SCALE);
ARM GAS  /var/folders/2p/02m_5p7958535cp2tpgps0400000gn/T//cclqaeHn.s 			page 88


 2658              		.loc 11 167 5 is_stmt 1 view .LVU752
 2659              		.loc 11 167 37 is_stmt 0 view .LVU753
 2660 014e FEEEE07A 		vcvt.s32.f32	s15, s15, #31
 2661              	.LBE635:
 2662              	.LBE634:
 106:../libDaisy/src/util/WavWriter.h ****                 default: break;
 2663              		.loc 9 106 51 view .LVU754
 2664 0152 03EB8909 		add	r9, r3, r9, lsl #2
 2665              	.LBB638:
 2666              	.LBB636:
 2667              		.loc 11 167 37 view .LVU755
 2668 0156 17EE907A 		vmov	r7, s15	@ int
 2669 015a C9F8D47F 		str	r7, [r9, #4052]
 2670              	.LBE636:
 2671              	.LBE638:
 106:../libDaisy/src/util/WavWriter.h ****                 default: break;
 2672              		.loc 9 106 67 view .LVU756
 2673 015e BBE7     		b	.L100
 2674              	.LVL175:
 2675              	.L109:
 2676              	.LBB639:
 2677              	.LBB637:
 165:../libDaisy/src/daisy_core.h ****     x = x >= FBIPMAX ? FBIPMAX : x;
 2678              		.loc 11 165 22 view .LVU757
 2679 0160 F0EE477A 		vmov.f32	s15, s14
 2680              	.LVL176:
 165:../libDaisy/src/daisy_core.h ****     x = x >= FBIPMAX ? FBIPMAX : x;
 2681              		.loc 11 165 22 view .LVU758
 2682 0164 F3E7     		b	.L102
 2683              	.LVL177:
 2684              	.L97:
 165:../libDaisy/src/daisy_core.h ****     x = x >= FBIPMAX ? FBIPMAX : x;
 2685              		.loc 11 165 22 view .LVU759
 2686              	.LBE637:
 2687              	.LBE639:
 2688              	.LBE640:
 2689              	.LBE643:
 2690              	.LBE646:
 113:../libDaisy/src/util/WavWriter.h ****         if(wptr_ == cap_point)
 2691              		.loc 9 113 40 view .LVU760
 2692 0166 BEF1100F 		cmp	lr, #16
 111:../libDaisy/src/util/WavWriter.h ****         size_t cap_point
 2693              		.loc 9 111 15 view .LVU761
 2694 016a 4044     		add	r0, r0, r8
 110:../libDaisy/src/util/WavWriter.h ****         wptr_ += cfg_.channels;
 2695              		.loc 9 110 9 view .LVU762
 2696 016c 0CF10102 		add	r2, ip, #1
 113:../libDaisy/src/util/WavWriter.h ****         if(wptr_ == cap_point)
 2697              		.loc 9 113 40 view .LVU763
 2698 0170 0CBF     		ite	eq
 2699 0172 4FF40051 		moveq	r1, #8192
 2700              	.LVL178:
 113:../libDaisy/src/util/WavWriter.h ****         if(wptr_ == cap_point)
 2701              		.loc 9 113 40 view .LVU764
 2702 0176 4FF48051 		movne	r1, #4096
 2703              	.LVL179:
 110:../libDaisy/src/util/WavWriter.h ****         wptr_ += cfg_.channels;
ARM GAS  /var/folders/2p/02m_5p7958535cp2tpgps0400000gn/T//cclqaeHn.s 			page 89


 2704              		.loc 9 110 9 view .LVU765
 2705 017a C3F8C02F 		str	r2, [r3, #4032]
 114:../libDaisy/src/util/WavWriter.h ****         {
 2706              		.loc 9 114 9 view .LVU766
 2707 017e 8842     		cmp	r0, r1
 111:../libDaisy/src/util/WavWriter.h ****         size_t cap_point
 2708              		.loc 9 111 15 view .LVU767
 2709 0180 C3F8C40F 		str	r0, [r3, #4036]
 116:../libDaisy/src/util/WavWriter.h ****         }
 2710              		.loc 9 116 21 view .LVU768
 2711 0184 02BF     		ittt	eq
 2712 0186 04F54042 		addeq	r2, r4, #49152
 2713 018a 4FF0010C 		moveq	ip, #1
 2714 018e C2F8D4CF 		streq	ip, [r2, #4052]
 118:../libDaisy/src/util/WavWriter.h ****         {
 2715              		.loc 9 118 9 view .LVU769
 2716 0192 B0EB410F 		cmp	r0, r1, lsl #1
 2717 0196 07D3     		bcc	.L94
 120:../libDaisy/src/util/WavWriter.h ****             bstate_ = BufferState::FLUSH1;
 2718              		.loc 9 120 21 view .LVU770
 2719 0198 0022     		movs	r2, #0
 2720 019a C3F8C42F 		str	r2, [r3, #4036]
 121:../libDaisy/src/util/WavWriter.h ****         }
 2721              		.loc 9 121 21 view .LVU771
 2722 019e 04F54043 		add	r3, r4, #49152
 2723 01a2 0222     		movs	r2, #2
 2724 01a4 C3F8D42F 		str	r2, [r3, #4052]
 2725              	.LVL180:
 2726              	.L94:
 121:../libDaisy/src/util/WavWriter.h ****         }
 2727              		.loc 9 121 21 view .LVU772
 2728              	.LBE649:
 2729              	.LBE652:
 2730              	.LBE615:
 534:GrannyChordApp.cpp ****     Sample samp = synth_.ProcessGrains();
 2731              		.loc 3 534 3 is_stmt 1 discriminator 2 view .LVU773
 2732 01a8 0135     		adds	r5, r5, #1
 2733              	.LVL181:
 534:GrannyChordApp.cpp ****     Sample samp = synth_.ProcessGrains();
 2734              		.loc 3 534 3 is_stmt 0 discriminator 2 view .LVU774
 2735 01aa 30E7     		b	.L106
 2736              	.L91:
 534:GrannyChordApp.cpp ****     Sample samp = synth_.ProcessGrains();
 2737              		.loc 3 534 3 discriminator 2 view .LVU775
 2738              	.LBE614:
 556:GrannyChordApp.cpp **** 
 2739              		.loc 3 556 1 view .LVU776
 2740 01ac 05B0     		add	sp, sp, #20
 2741              		.cfi_def_cfa_offset 36
 2742              		@ sp needed
 2743 01ae BDE8F08F 		pop	{r4, r5, r6, r7, r8, r9, r10, fp, pc}
 2744              	.LVL182:
 2745              	.L115:
 556:GrannyChordApp.cpp **** 
 2746              		.loc 3 556 1 view .LVU777
 2747 01b2 00BF     		.align	2
 2748              	.L114:
ARM GAS  /var/folders/2p/02m_5p7958535cp2tpgps0400000gn/T//cclqaeHn.s 			page 90


 2749 01b4 0000F042 		.word	1123024896
 2750 01b8 04FF7FBF 		.word	-1082130684
 2751 01bc 04FF7F3F 		.word	1065352964
 2752 01c0 00FEFF46 		.word	1191181824
 2753              		.cfi_endproc
 2754              	.LFE4942:
 2756              		.section	.rodata._ZN14GrannyChordApp12ProcessAudioEPKPKfPPfj.str1.1,"aMS",%progbits,1
 2757              	.LC8:
 2758 0000 73746F70 		.ascii	"stopped audio > len\000"
 2758      70656420 
 2758      61756469 
 2758      6F203E20 
 2758      6C656E00 
 2759              		.section	.text._ZN14GrannyChordApp12ProcessAudioEPKPKfPPfj,"ax",%progbits
 2760              		.align	1
 2761              		.global	_ZN14GrannyChordApp12ProcessAudioEPKPKfPPfj
 2762              		.syntax unified
 2763              		.thumb
 2764              		.thumb_func
 2766              	_ZN14GrannyChordApp12ProcessAudioEPKPKfPPfj:
 2767              	.LVL183:
 2768              	.LFB4939:
 474:GrannyChordApp.cpp ****   switch(curr_state_){
 2769              		.loc 3 474 107 is_stmt 1 view -0
 2770              		.cfi_startproc
 2771              		@ args = 0, pretend = 0, frame = 0
 2772              		@ frame_needed = 0, uses_anonymous_args = 0
 475:GrannyChordApp.cpp ****     case AppState::PlayWAV:
 2773              		.loc 3 475 3 view .LVU779
 474:GrannyChordApp.cpp ****   switch(curr_state_){
 2774              		.loc 3 474 107 is_stmt 0 view .LVU780
 2775 0000 2DE9F041 		push	{r4, r5, r6, r7, r8, lr}
 2776              		.cfi_def_cfa_offset 24
 2777              		.cfi_offset 4, -24
 2778              		.cfi_offset 5, -20
 2779              		.cfi_offset 6, -16
 2780              		.cfi_offset 7, -12
 2781              		.cfi_offset 8, -8
 2782              		.cfi_offset 14, -4
 475:GrannyChordApp.cpp ****     case AppState::PlayWAV:
 2783              		.loc 3 475 10 view .LVU781
 2784 0004 D0F89452 		ldr	r5, [r0, #660]
 474:GrannyChordApp.cpp ****   switch(curr_state_){
 2785              		.loc 3 474 107 view .LVU782
 2786 0008 1646     		mov	r6, r2
 2787 000a 1F46     		mov	r7, r3
 475:GrannyChordApp.cpp ****     case AppState::PlayWAV:
 2788              		.loc 3 475 3 view .LVU783
 2789 000c 022D     		cmp	r5, #2
 2790 000e 27D0     		beq	.L117
 2791 0010 032D     		cmp	r5, #3
 2792 0012 21D0     		beq	.L118
 2793 0014 012D     		cmp	r5, #1
 2794 0016 29D1     		bne	.L116
 2795              	.LVL184:
 2796              	.LBB659:
 2797              	.LBI659:
ARM GAS  /var/folders/2p/02m_5p7958535cp2tpgps0400000gn/T//cclqaeHn.s 			page 91


 474:GrannyChordApp.cpp ****   switch(curr_state_){
 2798              		.loc 3 474 6 is_stmt 1 view .LVU784
 2799              	.LBB660:
 476:GrannyChordApp.cpp ****       if (wav_playhead_>= filemgr_.GetSamplesPerChannel() -1){
 2800              		.loc 3 476 5 view .LVU785
 477:GrannyChordApp.cpp ****         instance_->pod_.StopAudio();
 2801              		.loc 3 477 7 view .LVU786
 477:GrannyChordApp.cpp ****         instance_->pod_.StopAudio();
 2802              		.loc 3 477 27 is_stmt 0 view .LVU787
 2803 0018 D0F88C32 		ldr	r3, [r0, #652]
 2804              	.LVL185:
 2805              	.LBB661:
 2806              	.LBI661:
  27:AudioFileManager.h ****     size_t GetTotalSamples() const { return header_.total_samples; }
 2807              		.loc 8 27 12 is_stmt 1 view .LVU788
 2808              	.LBB662:
  27:AudioFileManager.h ****     size_t GetTotalSamples() const { return header_.total_samples; }
 2809              		.loc 8 27 43 view .LVU789
  27:AudioFileManager.h ****     size_t GetTotalSamples() const { return header_.total_samples; }
 2810              		.loc 8 27 43 is_stmt 0 view .LVU790
 2811              	.LBE662:
 2812              	.LBE661:
 477:GrannyChordApp.cpp ****         instance_->pod_.StopAudio();
 2813              		.loc 3 477 11 view .LVU791
 2814 001c 00F58044 		add	r4, r0, #16384
 2815              	.LBB665:
 2816              	.LBB663:
  27:AudioFileManager.h ****     size_t GetTotalSamples() const { return header_.total_samples; }
 2817              		.loc 8 27 58 view .LVU792
 2818 0020 03F58053 		add	r3, r3, #4096
  27:AudioFileManager.h ****     size_t GetTotalSamples() const { return header_.total_samples; }
 2819              		.loc 8 27 82 view .LVU793
 2820 0024 B3F92820 		ldrsh	r2, [r3, #40]
 2821              	.LVL186:
  27:AudioFileManager.h ****     size_t GetTotalSamples() const { return header_.total_samples; }
 2822              		.loc 8 27 82 view .LVU794
 2823 0028 DD6A     		ldr	r5, [r3, #44]
 2824              	.LBE663:
 2825              	.LBE665:
 477:GrannyChordApp.cpp ****         instance_->pod_.StopAudio();
 2826              		.loc 3 477 7 view .LVU795
 2827 002a D4F8CC3E 		ldr	r3, [r4, #3788]
 2828              	.LBB666:
 2829              	.LBB664:
  27:AudioFileManager.h ****     size_t GetTotalSamples() const { return header_.total_samples; }
 2830              		.loc 8 27 82 view .LVU796
 2831 002e B5FBF2F5 		udiv	r5, r5, r2
 2832              	.LBE664:
 2833              	.LBE666:
 477:GrannyChordApp.cpp ****         instance_->pod_.StopAudio();
 2834              		.loc 3 477 59 view .LVU797
 2835 0032 013D     		subs	r5, r5, #1
 477:GrannyChordApp.cpp ****         instance_->pod_.StopAudio();
 2836              		.loc 3 477 7 view .LVU798
 2837 0034 AB42     		cmp	r3, r5
 2838 0036 09D3     		bcc	.L120
 478:GrannyChordApp.cpp ****         DebugPrint(pod_, "stopped audio > len"); 
ARM GAS  /var/folders/2p/02m_5p7958535cp2tpgps0400000gn/T//cclqaeHn.s 			page 92


 2839              		.loc 3 478 9 is_stmt 1 view .LVU799
 478:GrannyChordApp.cpp ****         DebugPrint(pod_, "stopped audio > len"); 
 2840              		.loc 3 478 34 is_stmt 0 view .LVU800
 2841 0038 0D4B     		ldr	r3, .L121
 478:GrannyChordApp.cpp ****         DebugPrint(pod_, "stopped audio > len"); 
 2842              		.loc 3 478 20 view .LVU801
 2843 003a 1B68     		ldr	r3, [r3]
 478:GrannyChordApp.cpp ****         DebugPrint(pod_, "stopped audio > len"); 
 2844              		.loc 3 478 34 view .LVU802
 2845 003c D869     		ldr	r0, [r3, #28]
 2846              	.LVL187:
 478:GrannyChordApp.cpp ****         DebugPrint(pod_, "stopped audio > len"); 
 2847              		.loc 3 478 34 view .LVU803
 2848 003e FFF7FEFF 		bl	_ZN5daisy8DaisyPod9StopAudioEv
 2849              	.LVL188:
 479:GrannyChordApp.cpp ****         return;
 2850              		.loc 3 479 9 is_stmt 1 view .LVU804
 479:GrannyChordApp.cpp ****         return;
 2851              		.loc 3 479 9 view .LVU805
 2852              	.LBB667:
 2853              	.LBI667:
 126:../libDaisy/src/daisy_seed.h ****     {
 2854              		.loc 5 126 17 view .LVU806
 2855              	.LBB668:
 2856              		.loc 5 128 23 is_stmt 0 view .LVU807
 2857 0042 0C48     		ldr	r0, .L121+4
 2858              	.LBE668:
 2859              	.LBE667:
 2860              	.LBE660:
 2861              	.LBE659:
 495:GrannyChordApp.cpp **** 
 2862              		.loc 3 495 1 view .LVU808
 2863 0044 BDE8F041 		pop	{r4, r5, r6, r7, r8, lr}
 2864              		.cfi_remember_state
 2865              		.cfi_restore 14
 2866              		.cfi_restore 8
 2867              		.cfi_restore 7
 2868              		.cfi_restore 6
 2869              		.cfi_restore 5
 2870              		.cfi_restore 4
 2871              		.cfi_def_cfa_offset 0
 2872              	.LVL189:
 2873              	.LBB673:
 2874              	.LBB671:
 2875              	.LBB670:
 2876              	.LBB669:
 2877              		.loc 5 128 23 view .LVU809
 2878 0048 FFF7FEBF 		b	_ZN5daisy6LoggerILNS_17LoggerDestinationE1EE9PrintLineEPKcz
 2879              	.LVL190:
 2880              	.L120:
 2881              		.cfi_restore_state
 2882              		.loc 5 128 23 view .LVU810
 2883              	.LBE669:
 2884              	.LBE670:
 482:GrannyChordApp.cpp ****       return;  
 2885              		.loc 3 482 7 is_stmt 1 view .LVU811
 482:GrannyChordApp.cpp ****       return;  
ARM GAS  /var/folders/2p/02m_5p7958535cp2tpgps0400000gn/T//cclqaeHn.s 			page 93


 2886              		.loc 3 482 25 is_stmt 0 view .LVU812
 2887 004c 3A46     		mov	r2, r7
 2888 004e 3146     		mov	r1, r6
 2889              	.LVL191:
 482:GrannyChordApp.cpp ****       return;  
 2890              		.loc 3 482 25 view .LVU813
 2891              	.LBE671:
 2892              	.LBE673:
 495:GrannyChordApp.cpp **** 
 2893              		.loc 3 495 1 view .LVU814
 2894 0050 BDE8F041 		pop	{r4, r5, r6, r7, r8, lr}
 2895              		.cfi_remember_state
 2896              		.cfi_restore 14
 2897              		.cfi_restore 8
 2898              		.cfi_restore 7
 2899              		.cfi_restore 6
 2900              		.cfi_restore 5
 2901              		.cfi_restore 4
 2902              		.cfi_def_cfa_offset 0
 2903              	.LVL192:
 2904              	.LBB674:
 2905              	.LBB672:
 482:GrannyChordApp.cpp ****       return;  
 2906              		.loc 3 482 25 view .LVU815
 2907 0054 FFF7FEBF 		b	_ZN14GrannyChordApp18ProcessWAVPlaybackEPPfj
 2908              	.LVL193:
 2909              	.L118:
 2910              		.cfi_restore_state
 482:GrannyChordApp.cpp ****       return;  
 2911              		.loc 3 482 25 view .LVU816
 2912              	.LBE672:
 2913              	.LBE674:
 484:GrannyChordApp.cpp ****       ProcessRecordIn(in, out, size);
 2914              		.loc 3 484 5 is_stmt 1 view .LVU817
 485:GrannyChordApp.cpp ****       return;
 2915              		.loc 3 485 7 view .LVU818
 495:GrannyChordApp.cpp **** 
 2916              		.loc 3 495 1 is_stmt 0 view .LVU819
 2917 0058 BDE8F041 		pop	{r4, r5, r6, r7, r8, lr}
 2918              		.cfi_remember_state
 2919              		.cfi_restore 14
 2920              		.cfi_restore 8
 2921              		.cfi_restore 7
 2922              		.cfi_restore 6
 2923              		.cfi_restore 5
 2924              		.cfi_restore 4
 2925              		.cfi_def_cfa_offset 0
 485:GrannyChordApp.cpp ****       return;
 2926              		.loc 3 485 22 view .LVU820
 2927 005c FFF7FEBF 		b	_ZN14GrannyChordApp15ProcessRecordInEPKPKfPPfj
 2928              	.LVL194:
 2929              	.L117:
 2930              		.cfi_restore_state
 487:GrannyChordApp.cpp ****       ProcessSynthesis(out,size);
 2931              		.loc 3 487 5 is_stmt 1 view .LVU821
 488:GrannyChordApp.cpp ****       return;
 2932              		.loc 3 488 7 view .LVU822
ARM GAS  /var/folders/2p/02m_5p7958535cp2tpgps0400000gn/T//cclqaeHn.s 			page 94


 488:GrannyChordApp.cpp ****       return;
 2933              		.loc 3 488 23 is_stmt 0 view .LVU823
 2934 0060 3146     		mov	r1, r6
 2935              	.LVL195:
 488:GrannyChordApp.cpp ****       return;
 2936              		.loc 3 488 23 view .LVU824
 2937 0062 1A46     		mov	r2, r3
 2938              	.LVL196:
 495:GrannyChordApp.cpp **** 
 2939              		.loc 3 495 1 view .LVU825
 2940 0064 BDE8F041 		pop	{r4, r5, r6, r7, r8, lr}
 2941              		.cfi_remember_state
 2942              		.cfi_restore 14
 2943              		.cfi_restore 8
 2944              		.cfi_restore 7
 2945              		.cfi_restore 6
 2946              		.cfi_restore 5
 2947              		.cfi_restore 4
 2948              		.cfi_def_cfa_offset 0
 2949              	.LVL197:
 488:GrannyChordApp.cpp ****       return;
 2950              		.loc 3 488 23 view .LVU826
 2951 0068 FFF7FEBF 		b	_ZN14GrannyChordApp16ProcessSynthesisEPPfj
 2952              	.LVL198:
 2953              	.L116:
 2954              		.cfi_restore_state
 495:GrannyChordApp.cpp **** 
 2955              		.loc 3 495 1 view .LVU827
 2956 006c BDE8F081 		pop	{r4, r5, r6, r7, r8, pc}
 2957              	.L122:
 2958              		.align	2
 2959              	.L121:
 2960 0070 00000000 		.word	.LANCHOR0
 2961 0074 00000000 		.word	.LC8
 2962              		.cfi_endproc
 2963              	.LFE4939:
 2965              		.section	.text._ZN14GrannyChordApp13AudioCallbackEPKPKfPPfj,"ax",%progbits
 2966              		.align	1
 2967              		.global	_ZN14GrannyChordApp13AudioCallbackEPKPKfPPfj
 2968              		.syntax unified
 2969              		.thumb
 2970              		.thumb_func
 2972              	_ZN14GrannyChordApp13AudioCallbackEPKPKfPPfj:
 2973              	.LVL199:
 2974              	.LFB4938:
 470:GrannyChordApp.cpp ****   instance_->ProcessAudio(in,out,size);
 2975              		.loc 3 470 108 is_stmt 1 view -0
 2976              		.cfi_startproc
 2977              		@ args = 0, pretend = 0, frame = 0
 2978              		@ frame_needed = 0, uses_anonymous_args = 0
 2979              		@ link register save eliminated.
 471:GrannyChordApp.cpp **** }
 2980              		.loc 3 471 3 view .LVU829
 470:GrannyChordApp.cpp ****   instance_->ProcessAudio(in,out,size);
 2981              		.loc 3 470 108 is_stmt 0 view .LVU830
 2982 0000 1346     		mov	r3, r2
 471:GrannyChordApp.cpp **** }
ARM GAS  /var/folders/2p/02m_5p7958535cp2tpgps0400000gn/T//cclqaeHn.s 			page 95


 2983              		.loc 3 471 26 view .LVU831
 2984 0002 0A46     		mov	r2, r1
 2985              	.LVL200:
 471:GrannyChordApp.cpp **** }
 2986              		.loc 3 471 26 view .LVU832
 2987 0004 0146     		mov	r1, r0
 2988              	.LVL201:
 471:GrannyChordApp.cpp **** }
 2989              		.loc 3 471 26 view .LVU833
 2990 0006 0248     		ldr	r0, .L124
 2991              	.LVL202:
 471:GrannyChordApp.cpp **** }
 2992              		.loc 3 471 26 view .LVU834
 2993 0008 0068     		ldr	r0, [r0]
 2994 000a FFF7FEBF 		b	_ZN14GrannyChordApp12ProcessAudioEPKPKfPPfj
 2995              	.LVL203:
 2996              	.L125:
 471:GrannyChordApp.cpp **** }
 2997              		.loc 3 471 26 view .LVU835
 2998 000e 00BF     		.align	2
 2999              	.L124:
 3000 0010 00000000 		.word	.LANCHOR0
 3001              		.cfi_endproc
 3002              	.LFE4938:
 3004              		.section	.rodata._ZN14GrannyChordApp13RecordOutToSDEv.str1.1,"aMS",%progbits,1
 3005              	.LC9:
 3006 0000 7265636F 		.ascii	"recording_%d\000"
 3006      7264696E 
 3006      675F2564 
 3006      00
 3007              		.section	.text._ZN14GrannyChordApp13RecordOutToSDEv,"ax",%progbits
 3008              		.align	1
 3009              		.global	_ZN14GrannyChordApp13RecordOutToSDEv
 3010              		.syntax unified
 3011              		.thumb
 3012              		.thumb_func
 3014              	_ZN14GrannyChordApp13RecordOutToSDEv:
 3015              	.LVL204:
 3016              	.LFB4944:
 585:GrannyChordApp.cpp **** 
 586:GrannyChordApp.cpp **** /// @brief Process audio from chord mode and mix to output buffer
 587:GrannyChordApp.cpp **** /// @param out Output audio buffer
 588:GrannyChordApp.cpp **** /// @param size Number of samples to process in this call
 589:GrannyChordApp.cpp **** // void GrannyChordApp::ProcessChordMode(AudioHandle::OutputBuffer out, size_t size){
 590:GrannyChordApp.cpp **** //   // if (UserTriggeredChord()) {
 591:GrannyChordApp.cpp **** //   //   synth_.TriggerChord(out[0], out[1], size);
 592:GrannyChordApp.cpp **** //   // } else {
 593:GrannyChordApp.cpp **** //   //     std::memset(out[0], 0, size * sizeof(float));
 594:GrannyChordApp.cpp **** //   //     std::memset(out[1], 0, size * sizeof(float));
 595:GrannyChordApp.cpp **** //   // }
 596:GrannyChordApp.cpp **** // }
 597:GrannyChordApp.cpp **** 
 598:GrannyChordApp.cpp **** /// @brief Record granular synth or chord output audio to SD card
 599:GrannyChordApp.cpp **** /// @param out Output audio buffer
 600:GrannyChordApp.cpp **** /// @param size Number of samples to process in this call
 601:GrannyChordApp.cpp **** void GrannyChordApp::RecordOutToSD(){
 3017              		.loc 3 601 37 is_stmt 1 view -0
ARM GAS  /var/folders/2p/02m_5p7958535cp2tpgps0400000gn/T//cclqaeHn.s 			page 96


 3018              		.cfi_startproc
 3019              		@ args = 0, pretend = 0, frame = 40
 3020              		@ frame_needed = 0, uses_anonymous_args = 0
 602:GrannyChordApp.cpp ****   InitWavWriter();
 3021              		.loc 3 602 3 view .LVU837
 601:GrannyChordApp.cpp ****   InitWavWriter();
 3022              		.loc 3 601 37 is_stmt 0 view .LVU838
 3023 0000 F0B5     		push	{r4, r5, r6, r7, lr}
 3024              		.cfi_def_cfa_offset 20
 3025              		.cfi_offset 4, -20
 3026              		.cfi_offset 5, -16
 3027              		.cfi_offset 6, -12
 3028              		.cfi_offset 7, -8
 3029              		.cfi_offset 14, -4
 3030 0002 0446     		mov	r4, r0
 3031 0004 8BB0     		sub	sp, sp, #44
 3032              		.cfi_def_cfa_offset 64
 3033              		.loc 3 602 16 view .LVU839
 3034 0006 FFF7FEFF 		bl	_ZN14GrannyChordApp13InitWavWriterEv
 3035              	.LVL205:
 603:GrannyChordApp.cpp ****   char name[32];
 3036              		.loc 3 603 3 is_stmt 1 view .LVU840
 604:GrannyChordApp.cpp ****   sprintf(name,"recording_%d",recording_count_);
 3037              		.loc 3 604 3 view .LVU841
 3038              		.loc 3 604 10 is_stmt 0 view .LVU842
 3039 000a 1749     		ldr	r1, .L129
 3040 000c 04F55045 		add	r5, r4, #53248
 3041 0010 02A8     		add	r0, sp, #8
 3042              	.LBB679:
 3043              	.LBB680:
 157:../libDaisy/src/util/WavWriter.h ****         {
 3044              		.loc 9 157 18 view .LVU843
 3045 0012 04F54F46 		add	r6, r4, #52992
 3046 0016 04F59F47 		add	r7, r4, #20352
 3047              	.LBE680:
 3048              	.LBE679:
 3049              		.loc 3 604 10 view .LVU844
 3050 001a D5F81422 		ldr	r2, [r5, #532]
 3051 001e FFF7FEFF 		bl	sprintf
 3052              	.LVL206:
 605:GrannyChordApp.cpp ****   recording_count_++;
 3053              		.loc 3 605 3 is_stmt 1 view .LVU845
 3054              		.loc 3 605 19 is_stmt 0 view .LVU846
 3055 0022 D5F81432 		ldr	r3, [r5, #532]
 3056              	.LBB685:
 3057              	.LBB682:
 157:../libDaisy/src/util/WavWriter.h ****         {
 3058              		.loc 9 157 18 view .LVU847
 3059 0026 DC36     		adds	r6, r6, #220
 3060 0028 0A22     		movs	r2, #10
 3061              	.LBE682:
 3062              	.LBE685:
 3063              		.loc 3 605 19 view .LVU848
 3064 002a 0133     		adds	r3, r3, #1
 3065              	.LBB686:
 3066              	.LBB683:
 157:../libDaisy/src/util/WavWriter.h ****         {
ARM GAS  /var/folders/2p/02m_5p7958535cp2tpgps0400000gn/T//cclqaeHn.s 			page 97


 3067              		.loc 9 157 18 view .LVU849
 3068 002c 02A9     		add	r1, sp, #8
 3069 002e 3046     		mov	r0, r6
 3070 0030 1437     		adds	r7, r7, #20
 3071              	.LBE683:
 3072              	.LBE686:
 3073              		.loc 3 605 19 view .LVU850
 3074 0032 C5F81432 		str	r3, [r5, #532]
 606:GrannyChordApp.cpp ****   sd_writer_.OpenFile(name);
 3075              		.loc 3 606 3 is_stmt 1 view .LVU851
 3076              	.LVL207:
 3077              	.LBB687:
 3078              	.LBI679:
 155:../libDaisy/src/util/WavWriter.h ****     {
 3079              		.loc 9 155 10 view .LVU852
 3080              	.LBB684:
 157:../libDaisy/src/util/WavWriter.h ****         {
 3081              		.loc 9 157 18 is_stmt 0 view .LVU853
 3082 0036 FFF7FEFF 		bl	f_open
 3083              	.LVL208:
 157:../libDaisy/src/util/WavWriter.h ****         {
 3084              		.loc 9 157 9 view .LVU854
 3085 003a 80B9     		cbnz	r0, .L127
 3086              	.LBB681:
 159:../libDaisy/src/util/WavWriter.h ****             if(f_write(&fp_, &wavheader_, sizeof(wavheader_), &bw) == FR_OK)
 3087              		.loc 9 159 26 view .LVU855
 3088 003c 0190     		str	r0, [sp, #4]
 160:../libDaisy/src/util/WavWriter.h ****             {
 3089              		.loc 9 160 23 view .LVU856
 3090 003e 01AB     		add	r3, sp, #4
 3091 0040 2C22     		movs	r2, #44
 3092 0042 3946     		mov	r1, r7
 3093 0044 3046     		mov	r0, r6
 3094 0046 FFF7FEFF 		bl	f_write
 3095              	.LVL209:
 160:../libDaisy/src/util/WavWriter.h ****             {
 3096              		.loc 9 160 13 view .LVU857
 3097 004a 40B9     		cbnz	r0, .L127
 162:../libDaisy/src/util/WavWriter.h ****                 num_samps_ = 0;
 3098              		.loc 9 162 28 view .LVU858
 3099 004c 04F58043 		add	r3, r4, #16384
 3100 0050 0122     		movs	r2, #1
 3101 0052 04F54044 		add	r4, r4, #49152
 3102              	.LVL210:
 162:../libDaisy/src/util/WavWriter.h ****                 num_samps_ = 0;
 3103              		.loc 9 162 28 view .LVU859
 3104 0056 84F8D82F 		strb	r2, [r4, #4056]
 163:../libDaisy/src/util/WavWriter.h ****             }
 3105              		.loc 9 163 28 view .LVU860
 3106 005a C3F8C00F 		str	r0, [r3, #4032]
 3107              	.LVL211:
 3108              	.L127:
 163:../libDaisy/src/util/WavWriter.h ****             }
 3109              		.loc 9 163 28 view .LVU861
 3110              	.LBE681:
 3111              	.LBE684:
 3112              	.LBE687:
ARM GAS  /var/folders/2p/02m_5p7958535cp2tpgps0400000gn/T//cclqaeHn.s 			page 98


 607:GrannyChordApp.cpp ****   recording_out_ = true;
 3113              		.loc 3 607 3 is_stmt 1 view .LVU862
 3114              		.loc 3 607 18 is_stmt 0 view .LVU863
 3115 005e 0123     		movs	r3, #1
 3116 0060 85F81032 		strb	r3, [r5, #528]
 608:GrannyChordApp.cpp **** }
 3117              		.loc 3 608 1 view .LVU864
 3118 0064 0BB0     		add	sp, sp, #44
 3119              		.cfi_def_cfa_offset 20
 3120              		@ sp needed
 3121 0066 F0BD     		pop	{r4, r5, r6, r7, pc}
 3122              	.LVL212:
 3123              	.L130:
 3124              		.loc 3 608 1 view .LVU865
 3125              		.align	2
 3126              	.L129:
 3127 0068 00000000 		.word	.LC9
 3128              		.cfi_endproc
 3129              	.LFE4944:
 3131              		.section	.text._ZN14GrannyChordApp17UpdateKnob1ParamsEf9SynthMode,"ax",%progbits
 3132              		.align	1
 3133              		.global	_ZN14GrannyChordApp17UpdateKnob1ParamsEf9SynthMode
 3134              		.syntax unified
 3135              		.thumb
 3136              		.thumb_func
 3138              	_ZN14GrannyChordApp17UpdateKnob1ParamsEf9SynthMode:
 3139              	.LVL213:
 3140              	.LFB4946:
 609:GrannyChordApp.cpp **** 
 610:GrannyChordApp.cpp **** /// @brief cleans up after recording to SD card is finished
 611:GrannyChordApp.cpp **** void GrannyChordApp::FinishRecording(){
 612:GrannyChordApp.cpp ****   sd_writer_.SaveFile();
 613:GrannyChordApp.cpp ****   recording_out_=false;
 614:GrannyChordApp.cpp **** }
 615:GrannyChordApp.cpp **** 
 616:GrannyChordApp.cpp **** /// @brief Updates synth parameters from hardware knob 1 input
 617:GrannyChordApp.cpp **** /// @param knob1_val float between 0-1 from knob input
 618:GrannyChordApp.cpp **** /// @param mode current synth mode that determines which parameters to update
 619:GrannyChordApp.cpp **** void GrannyChordApp::UpdateKnob1Params(float knob1_val, SynthMode mode){
 3141              		.loc 3 619 72 is_stmt 1 view -0
 3142              		.cfi_startproc
 3143              		@ args = 0, pretend = 0, frame = 8
 3144              		@ frame_needed = 0, uses_anonymous_args = 0
 620:GrannyChordApp.cpp ****   switch (mode){
 3145              		.loc 3 620 3 view .LVU867
 619:GrannyChordApp.cpp ****   switch (mode){
 3146              		.loc 3 619 72 is_stmt 0 view .LVU868
 3147 0000 10B5     		push	{r4, lr}
 3148              		.cfi_def_cfa_offset 8
 3149              		.cfi_offset 4, -8
 3150              		.cfi_offset 14, -4
 3151 0002 0446     		mov	r4, r0
 3152 0004 2DED028B 		vpush.64	{d8}
 3153              		.cfi_def_cfa_offset 16
 3154              		.cfi_offset 80, -16
 3155              		.cfi_offset 81, -12
 3156 0008 B0EE408A 		vmov.f32	s16, s0
ARM GAS  /var/folders/2p/02m_5p7958535cp2tpgps0400000gn/T//cclqaeHn.s 			page 99


 3157 000c 82B0     		sub	sp, sp, #8
 3158              		.cfi_def_cfa_offset 24
 3159              		.loc 3 620 3 view .LVU869
 3160 000e 0729     		cmp	r1, #7
 3161 0010 2BD8     		bhi	.L131
 3162 0012 DFE801F0 		tbb	[pc, r1]
 3163              	.L134:
 3164 0016 04       		.byte	(.L141-.L134)/2
 3165 0017 0C       		.byte	(.L140-.L134)/2
 3166 0018 14       		.byte	(.L139-.L134)/2
 3167 0019 1C       		.byte	(.L138-.L134)/2
 3168 001a 24       		.byte	(.L137-.L134)/2
 3169 001b 2E       		.byte	(.L136-.L134)/2
 3170 001c 51       		.byte	(.L135-.L134)/2
 3171 001d 56       		.byte	(.L133-.L134)/2
 3172              		.p2align 1
 3173              	.L141:
 621:GrannyChordApp.cpp ****     case SynthMode::Size_Position:
 3174              		.loc 3 621 5 is_stmt 1 view .LVU870
 622:GrannyChordApp.cpp ****       synth_.SetGrainSize(knob1_val);
 3175              		.loc 3 622 7 view .LVU871
 3176              		.loc 3 622 26 is_stmt 0 view .LVU872
 3177 001e 2030     		adds	r0, r0, #32
 3178              	.LVL214:
 623:GrannyChordApp.cpp ****       return;
 624:GrannyChordApp.cpp ****     case SynthMode::Pitch_ActiveGrains:
 625:GrannyChordApp.cpp ****       synth_.SetPitchRatio(knob1_val);
 626:GrannyChordApp.cpp ****       return;
 627:GrannyChordApp.cpp ****     case SynthMode::Pan_Direction:
 628:GrannyChordApp.cpp ****       synth_.SetPan(knob1_val);
 629:GrannyChordApp.cpp ****       return;
 630:GrannyChordApp.cpp ****     case SynthMode::RndAmount_RndFreq:
 631:GrannyChordApp.cpp ****       synth_.SetRndAmount(knob1_val);
 632:GrannyChordApp.cpp ****       break;
 633:GrannyChordApp.cpp ****     case SynthMode::StereoRotate:
 634:GrannyChordApp.cpp ****       rotator_.SetFreq(knob1_val*2.0f);
 635:GrannyChordApp.cpp ****       return;
 636:GrannyChordApp.cpp ****     case SynthMode::Chorus:
 637:GrannyChordApp.cpp ****       chorus_.SetLfoDepth(knob1_val);
 638:GrannyChordApp.cpp ****       /* set chorus left/right channel to (synth pan +/- 20% of knob value) */
 639:GrannyChordApp.cpp ****       chorus_.SetPan(fclamp(synth_.GetPan()+(0.2f*knob1_val),0,1), (fclamp(synth_.GetPan()-(0.2f*kn
 640:GrannyChordApp.cpp ****       return;     
 641:GrannyChordApp.cpp ****     case SynthMode::Reverb:
 642:GrannyChordApp.cpp ****        /* set reverb feedback ie tail length */
 643:GrannyChordApp.cpp ****       reverb_.SetFeedback(knob1_val);
 644:GrannyChordApp.cpp ****       return;
 645:GrannyChordApp.cpp ****     case SynthMode::Filter:
 646:GrannyChordApp.cpp ****       /* map knob value to frequency range with an exponential curve */
 647:GrannyChordApp.cpp ****       knob1_val = fmap(knob1_val, LOPASS_LOWER_BOUND, LOPASS_UPPER_BOUND, daisysp::Mapping::EXP);
 648:GrannyChordApp.cpp ****       /* set cutoff frequency of low pass moog filter */
 649:GrannyChordApp.cpp ****       lowpass_moog_.SetFreq(knob1_val);
 650:GrannyChordApp.cpp ****       return;
 651:GrannyChordApp.cpp ****   }
 652:GrannyChordApp.cpp **** }
 3179              		.loc 3 652 1 view .LVU873
 3180 0020 02B0     		add	sp, sp, #8
 3181              		.cfi_remember_state
ARM GAS  /var/folders/2p/02m_5p7958535cp2tpgps0400000gn/T//cclqaeHn.s 			page 100


 3182              		.cfi_def_cfa_offset 16
 3183              		@ sp needed
 3184 0022 BDEC028B 		vldm	sp!, {d8}
 3185              		.cfi_restore 80
 3186              		.cfi_restore 81
 3187              		.cfi_def_cfa_offset 8
 3188 0026 BDE81040 		pop	{r4, lr}
 3189              		.cfi_restore 14
 3190              		.cfi_restore 4
 3191              		.cfi_def_cfa_offset 0
 3192              	.LVL215:
 622:GrannyChordApp.cpp ****       synth_.SetGrainSize(knob1_val);
 3193              		.loc 3 622 26 view .LVU874
 3194 002a FFF7FEBF 		b	_ZN13GranularSynth12SetGrainSizeEf
 3195              	.LVL216:
 3196              	.L140:
 3197              		.cfi_restore_state
 624:GrannyChordApp.cpp ****       synth_.SetPitchRatio(knob1_val);
 3198              		.loc 3 624 5 is_stmt 1 view .LVU875
 625:GrannyChordApp.cpp ****       return;
 3199              		.loc 3 625 7 view .LVU876
 625:GrannyChordApp.cpp ****       return;
 3200              		.loc 3 625 27 is_stmt 0 view .LVU877
 3201 002e 2030     		adds	r0, r0, #32
 3202              	.LVL217:
 3203              		.loc 3 652 1 view .LVU878
 3204 0030 02B0     		add	sp, sp, #8
 3205              		.cfi_remember_state
 3206              		.cfi_def_cfa_offset 16
 3207              		@ sp needed
 3208 0032 BDEC028B 		vldm	sp!, {d8}
 3209              		.cfi_restore 80
 3210              		.cfi_restore 81
 3211              		.cfi_def_cfa_offset 8
 3212 0036 BDE81040 		pop	{r4, lr}
 3213              		.cfi_restore 14
 3214              		.cfi_restore 4
 3215              		.cfi_def_cfa_offset 0
 3216              	.LVL218:
 625:GrannyChordApp.cpp ****       return;
 3217              		.loc 3 625 27 view .LVU879
 3218 003a FFF7FEBF 		b	_ZN13GranularSynth13SetPitchRatioEf
 3219              	.LVL219:
 3220              	.L139:
 3221              		.cfi_restore_state
 627:GrannyChordApp.cpp ****       synth_.SetPan(knob1_val);
 3222              		.loc 3 627 5 is_stmt 1 view .LVU880
 628:GrannyChordApp.cpp ****       return;
 3223              		.loc 3 628 7 view .LVU881
 628:GrannyChordApp.cpp ****       return;
 3224              		.loc 3 628 20 is_stmt 0 view .LVU882
 3225 003e 2030     		adds	r0, r0, #32
 3226              	.LVL220:
 3227              		.loc 3 652 1 view .LVU883
 3228 0040 02B0     		add	sp, sp, #8
 3229              		.cfi_remember_state
 3230              		.cfi_def_cfa_offset 16
ARM GAS  /var/folders/2p/02m_5p7958535cp2tpgps0400000gn/T//cclqaeHn.s 			page 101


 3231              		@ sp needed
 3232 0042 BDEC028B 		vldm	sp!, {d8}
 3233              		.cfi_restore 80
 3234              		.cfi_restore 81
 3235              		.cfi_def_cfa_offset 8
 3236 0046 BDE81040 		pop	{r4, lr}
 3237              		.cfi_restore 14
 3238              		.cfi_restore 4
 3239              		.cfi_def_cfa_offset 0
 3240              	.LVL221:
 628:GrannyChordApp.cpp ****       return;
 3241              		.loc 3 628 20 view .LVU884
 3242 004a FFF7FEBF 		b	_ZN13GranularSynth6SetPanEf
 3243              	.LVL222:
 3244              	.L138:
 3245              		.cfi_restore_state
 630:GrannyChordApp.cpp ****       synth_.SetRndAmount(knob1_val);
 3246              		.loc 3 630 5 is_stmt 1 view .LVU885
 631:GrannyChordApp.cpp ****       break;
 3247              		.loc 3 631 7 view .LVU886
 631:GrannyChordApp.cpp ****       break;
 3248              		.loc 3 631 26 is_stmt 0 view .LVU887
 3249 004e 2030     		adds	r0, r0, #32
 3250              	.LVL223:
 3251              		.loc 3 652 1 view .LVU888
 3252 0050 02B0     		add	sp, sp, #8
 3253              		.cfi_remember_state
 3254              		.cfi_def_cfa_offset 16
 3255              		@ sp needed
 3256 0052 BDEC028B 		vldm	sp!, {d8}
 3257              		.cfi_restore 80
 3258              		.cfi_restore 81
 3259              		.cfi_def_cfa_offset 8
 3260 0056 BDE81040 		pop	{r4, lr}
 3261              		.cfi_restore 14
 3262              		.cfi_restore 4
 3263              		.cfi_def_cfa_offset 0
 3264              	.LVL224:
 631:GrannyChordApp.cpp ****       break;
 3265              		.loc 3 631 26 view .LVU889
 3266 005a FFF7FEBF 		b	_ZN13GranularSynth12SetRndAmountEf
 3267              	.LVL225:
 3268              	.L137:
 3269              		.cfi_restore_state
 633:GrannyChordApp.cpp ****       rotator_.SetFreq(knob1_val*2.0f);
 3270              		.loc 3 633 5 is_stmt 1 view .LVU890
 634:GrannyChordApp.cpp ****       return;
 3271              		.loc 3 634 7 view .LVU891
 3272              	.LBB688:
 3273              	.LBI688:
   7:StereoRotator.h ****       freq_ = freq;
 3274              		.loc 12 7 10 view .LVU892
 3275              	.LBB689:
   8:StereoRotator.h ****     }
 3276              		.loc 12 8 7 view .LVU893
 3277              	.LBE689:
 3278              	.LBE688:
ARM GAS  /var/folders/2p/02m_5p7958535cp2tpgps0400000gn/T//cclqaeHn.s 			page 102


 634:GrannyChordApp.cpp ****       return;
 3279              		.loc 3 634 23 is_stmt 0 view .LVU894
 3280 005e 30EE008A 		vadd.f32	s16, s0, s0
 3281              	.LVL226:
 3282              	.LBB691:
 3283              	.LBB690:
   8:StereoRotator.h ****     }
 3284              		.loc 12 8 13 view .LVU895
 3285 0062 00F59D44 		add	r4, r0, #20096
 3286 0066 84ED0A8A 		vstr.32	s16, [r4, #40]
 3287              	.LVL227:
 3288              	.L131:
   8:StereoRotator.h ****     }
 3289              		.loc 12 8 13 view .LVU896
 3290              	.LBE690:
 3291              	.LBE691:
 3292              		.loc 3 652 1 view .LVU897
 3293 006a 02B0     		add	sp, sp, #8
 3294              		.cfi_remember_state
 3295              		.cfi_def_cfa_offset 16
 3296              		@ sp needed
 3297 006c BDEC028B 		vldm	sp!, {d8}
 3298              		.cfi_restore 80
 3299              		.cfi_restore 81
 3300              		.cfi_def_cfa_offset 8
 3301 0070 10BD     		pop	{r4, pc}
 3302              	.LVL228:
 3303              	.L136:
 3304              		.cfi_restore_state
 636:GrannyChordApp.cpp ****       chorus_.SetLfoDepth(knob1_val);
 3305              		.loc 3 636 5 is_stmt 1 view .LVU898
 637:GrannyChordApp.cpp ****       /* set chorus left/right channel to (synth pan +/- 20% of knob value) */
 3306              		.loc 3 637 7 view .LVU899
 637:GrannyChordApp.cpp ****       /* set chorus left/right channel to (synth pan +/- 20% of knob value) */
 3307              		.loc 3 637 26 is_stmt 0 view .LVU900
 3308 0072 00F53C70 		add	r0, r0, #752
 3309              	.LVL229:
 637:GrannyChordApp.cpp ****       /* set chorus left/right channel to (synth pan +/- 20% of knob value) */
 3310              		.loc 3 637 26 view .LVU901
 3311 0076 0190     		str	r0, [sp, #4]
 3312 0078 FFF7FEFF 		bl	_ZN7daisysp6Chorus11SetLfoDepthEf
 3313              	.LVL230:
 639:GrannyChordApp.cpp ****       return;     
 3314              		.loc 3 639 7 is_stmt 1 view .LVU902
 3315              	.LBB692:
 3316              	.LBI692:
 3317              		.file 14 "GranularSynth.h"
   1:GranularSynth.h **** #pragma once
   2:GranularSynth.h **** 
   3:GranularSynth.h **** #include "Grain.h"
   4:GranularSynth.h **** #include "daisy_pod.h"
   5:GranularSynth.h **** #include "debug_print.h"
   6:GranularSynth.h **** #include <vector>
   7:GranularSynth.h **** 
   8:GranularSynth.h **** class GranularSynth{
   9:GranularSynth.h ****   public:
  10:GranularSynth.h ****     GranularSynth(DaisyPod& pod) 
ARM GAS  /var/folders/2p/02m_5p7958535cp2tpgps0400000gn/T//cclqaeHn.s 			page 103


  11:GranularSynth.h ****       : pod_(pod), left_buf_(nullptr), right_buf_(nullptr), audio_len_(0),
  12:GranularSynth.h ****         grains_(){}
  13:GranularSynth.h **** 
  14:GranularSynth.h ****     void Init(int16_t *left, int16_t *right, size_t audio_len);
  15:GranularSynth.h ****     void Reset(size_t len);
  16:GranularSynth.h ****     void InitParams();
  17:GranularSynth.h ****     void UpdateGrainParams();
  18:GranularSynth.h ****     void ApplyRandomness();
  19:GranularSynth.h ****     void TriggerGrain();
  20:GranularSynth.h ****     Sample ProcessGrains();
  21:GranularSynth.h **** 
  22:GranularSynth.h ****     void SetPan(float pan);    
  23:GranularSynth.h ****     void SetGrainSize(float knob_val);
  24:GranularSynth.h ****     void SetSpawnPos(float knob_val);
  25:GranularSynth.h ****     void SetActiveGrains(float knob_val);
  26:GranularSynth.h ****     void SetPitchRatio(float ratio);
  27:GranularSynth.h ****     void SetDirection(float direction);
  28:GranularSynth.h **** 
  29:GranularSynth.h ****     void SetRndAmount(float amount);
  30:GranularSynth.h ****     void SetRndRefreshFreq(float freq);
  31:GranularSynth.h ****     float GetRnd();
  32:GranularSynth.h **** 
  33:GranularSynth.h ****     /* used to set chorus pan */
  34:GranularSynth.h ****     float GetPan(){ return pan_; }
 3318              		.loc 14 34 11 view .LVU903
 3319              	.LBB693:
 3320              		.loc 14 34 21 view .LVU904
 3321              		.loc 14 34 28 is_stmt 0 view .LVU905
 3322 007c D4ED9C7A 		vldr.32	s15, [r4, #624]
 3323              	.LVL231:
 3324              		.loc 14 34 28 view .LVU906
 3325              	.LBE693:
 3326              	.LBE692:
 3327              	.LBB694:
 3328              	.LBB695:
 3329              	.LBB696:
 3330              		.file 15 "../DaisySP/Source/Utility/dsp.h"
   1:../DaisySP/Source/Utility/dsp.h **** /*
   2:../DaisySP/Source/Utility/dsp.h **** Copyright (c) 2020 Electrosmith, Corp, Emilie Gillet
   3:../DaisySP/Source/Utility/dsp.h **** 
   4:../DaisySP/Source/Utility/dsp.h **** Use of this source code is governed by an MIT-style
   5:../DaisySP/Source/Utility/dsp.h **** license that can be found in the LICENSE file or at
   6:../DaisySP/Source/Utility/dsp.h **** https://opensource.org/licenses/MIT.
   7:../DaisySP/Source/Utility/dsp.h **** */
   8:../DaisySP/Source/Utility/dsp.h **** 
   9:../DaisySP/Source/Utility/dsp.h **** /** Helpful defines, functions, and other utilities for use in/with daisysp modules.
  10:../DaisySP/Source/Utility/dsp.h **** */
  11:../DaisySP/Source/Utility/dsp.h **** #pragma once
  12:../DaisySP/Source/Utility/dsp.h **** #ifndef DSY_CORE_DSP
  13:../DaisySP/Source/Utility/dsp.h **** #define DSY_CORE_DSP
  14:../DaisySP/Source/Utility/dsp.h **** #include <cassert>
  15:../DaisySP/Source/Utility/dsp.h **** #include <cstdint>
  16:../DaisySP/Source/Utility/dsp.h **** #include <random>
  17:../DaisySP/Source/Utility/dsp.h **** #include <cmath>
  18:../DaisySP/Source/Utility/dsp.h **** 
  19:../DaisySP/Source/Utility/dsp.h **** /** PIs
  20:../DaisySP/Source/Utility/dsp.h **** */
ARM GAS  /var/folders/2p/02m_5p7958535cp2tpgps0400000gn/T//cclqaeHn.s 			page 104


  21:../DaisySP/Source/Utility/dsp.h **** #define PI_F 3.1415927410125732421875f
  22:../DaisySP/Source/Utility/dsp.h **** #define TWOPI_F (2.0f * PI_F)
  23:../DaisySP/Source/Utility/dsp.h **** #define HALFPI_F (PI_F * 0.5f)
  24:../DaisySP/Source/Utility/dsp.h **** #define DSY_MIN(in, mn) (in < mn ? in : mn)
  25:../DaisySP/Source/Utility/dsp.h **** #define DSY_MAX(in, mx) (in > mx ? in : mx)
  26:../DaisySP/Source/Utility/dsp.h **** #define DSY_CLAMP(in, mn, mx) (DSY_MIN(DSY_MAX(in, mn), mx))
  27:../DaisySP/Source/Utility/dsp.h **** #define DSY_COUNTOF(_arr) (sizeof(_arr) / sizeof(_arr[0]))
  28:../DaisySP/Source/Utility/dsp.h **** 
  29:../DaisySP/Source/Utility/dsp.h **** namespace daisysp
  30:../DaisySP/Source/Utility/dsp.h **** {
  31:../DaisySP/Source/Utility/dsp.h **** //Avoids division for random floats. e.g. rand() * kRandFrac
  32:../DaisySP/Source/Utility/dsp.h **** static constexpr float kRandFrac = 1.f / (float)RAND_MAX;
  33:../DaisySP/Source/Utility/dsp.h **** 
  34:../DaisySP/Source/Utility/dsp.h **** //Convert from semitones to other units. e.g. 2 ^ (kOneTwelfth * x)
  35:../DaisySP/Source/Utility/dsp.h **** static constexpr float kOneTwelfth = 1.f / 12.f;
  36:../DaisySP/Source/Utility/dsp.h **** 
  37:../DaisySP/Source/Utility/dsp.h **** /** efficient floating point min/max
  38:../DaisySP/Source/Utility/dsp.h **** c/o stephen mccaul
  39:../DaisySP/Source/Utility/dsp.h **** */
  40:../DaisySP/Source/Utility/dsp.h **** inline float fmax(float a, float b)
  41:../DaisySP/Source/Utility/dsp.h **** {
  42:../DaisySP/Source/Utility/dsp.h ****     float r;
  43:../DaisySP/Source/Utility/dsp.h **** #ifdef __arm__
  44:../DaisySP/Source/Utility/dsp.h ****     asm("vmaxnm.f32 %[d], %[n], %[m]" : [d] "=t"(r) : [n] "t"(a), [m] "t"(b) :);
  45:../DaisySP/Source/Utility/dsp.h **** #else
  46:../DaisySP/Source/Utility/dsp.h ****     r = (a > b) ? a : b;
  47:../DaisySP/Source/Utility/dsp.h **** #endif // __arm__
  48:../DaisySP/Source/Utility/dsp.h ****     return r;
  49:../DaisySP/Source/Utility/dsp.h **** }
  50:../DaisySP/Source/Utility/dsp.h **** 
  51:../DaisySP/Source/Utility/dsp.h **** inline float fmin(float a, float b)
  52:../DaisySP/Source/Utility/dsp.h **** {
  53:../DaisySP/Source/Utility/dsp.h ****     float r;
  54:../DaisySP/Source/Utility/dsp.h **** #ifdef __arm__
  55:../DaisySP/Source/Utility/dsp.h ****     asm("vminnm.f32 %[d], %[n], %[m]" : [d] "=t"(r) : [n] "t"(a), [m] "t"(b) :);
 3331              		.loc 15 55 5 view .LVU907
 3332 0080 F7EE000A 		vmov.f32	s1, #1.0e+0
 3333              	.LBE696:
 3334              	.LBE695:
 3335              	.LBE694:
 639:GrannyChordApp.cpp ****       return;     
 3336              		.loc 3 639 21 view .LVU908
 3337 0084 DFED196A 		vldr.32	s13, .L142
 3338 0088 B0EE670A 		vmov.f32	s0, s15
 3339              	.LBB703:
 3340              	.LBB698:
 3341              	.LBB699:
  44:../DaisySP/Source/Utility/dsp.h **** #else
 3342              		.loc 15 44 5 view .LVU909
 3343 008c 9FED187A 		vldr.32	s14, .L142+4
 3344              	.LBE699:
 3345              	.LBE698:
 3346              	.LBE703:
 639:GrannyChordApp.cpp ****       return;     
 3347              		.loc 3 639 21 view .LVU910
 3348 0090 0198     		ldr	r0, [sp, #4]
 3349 0092 E8EE667A 		vfms.f32	s15, s16, s13
ARM GAS  /var/folders/2p/02m_5p7958535cp2tpgps0400000gn/T//cclqaeHn.s 			page 105


 3350              	.LBB704:
 3351              	.LBB705:
 3352              	.LBB706:
  44:../DaisySP/Source/Utility/dsp.h **** #else
 3353              		.loc 15 44 5 view .LVU911
 3354              		.syntax unified
 3355              	@ 44 "../DaisySP/Source/Utility/dsp.h" 1
 3356 0096 C7FE877A 		vmaxnm.f32 s15, s15, s14
 3357              	@ 0 "" 2
 3358              		.thumb
 3359              		.syntax unified
 3360              	.LBE706:
 3361              	.LBE705:
 3362              	.LBE704:
 639:GrannyChordApp.cpp ****       return;     
 3363              		.loc 3 639 21 view .LVU912
 3364 009a A8EE260A 		vfma.f32	s0, s16, s13
 3365              	.LVL232:
 3366              	.LBB711:
 3367              	.LBI694:
  56:../DaisySP/Source/Utility/dsp.h **** #else
  57:../DaisySP/Source/Utility/dsp.h ****     r = (a < b) ? a : b;
  58:../DaisySP/Source/Utility/dsp.h **** #endif // __arm__
  59:../DaisySP/Source/Utility/dsp.h ****     return r;
  60:../DaisySP/Source/Utility/dsp.h **** }
  61:../DaisySP/Source/Utility/dsp.h **** 
  62:../DaisySP/Source/Utility/dsp.h **** /** quick fp clamp
  63:../DaisySP/Source/Utility/dsp.h **** */
  64:../DaisySP/Source/Utility/dsp.h **** inline float fclamp(float in, float min, float max)
 3368              		.loc 15 64 14 is_stmt 1 view .LVU913
 3369              	.LBE711:
  65:../DaisySP/Source/Utility/dsp.h **** {
  66:../DaisySP/Source/Utility/dsp.h ****     return fmin(fmax(in, min), max);
 3370              		.loc 15 66 5 view .LVU914
 3371              	.LBB712:
 3372              	.LBB701:
 3373              	.LBI698:
  40:../DaisySP/Source/Utility/dsp.h **** {
 3374              		.loc 15 40 14 view .LVU915
 3375              	.LBB700:
  42:../DaisySP/Source/Utility/dsp.h **** #ifdef __arm__
 3376              		.loc 15 42 5 view .LVU916
  44:../DaisySP/Source/Utility/dsp.h **** #else
 3377              		.loc 15 44 5 view .LVU917
 3378              		.syntax unified
 3379              	@ 44 "../DaisySP/Source/Utility/dsp.h" 1
 3380 009e 80FE070A 		vmaxnm.f32 s0, s0, s14
 3381              	@ 0 "" 2
 3382              	.LVL233:
  48:../DaisySP/Source/Utility/dsp.h **** }
 3383              		.loc 15 48 5 view .LVU918
  48:../DaisySP/Source/Utility/dsp.h **** }
 3384              		.loc 15 48 5 is_stmt 0 view .LVU919
 3385              		.thumb
 3386              		.syntax unified
 3387              	.LBE700:
 3388              	.LBE701:
ARM GAS  /var/folders/2p/02m_5p7958535cp2tpgps0400000gn/T//cclqaeHn.s 			page 106


 3389              	.LBB702:
 3390              	.LBI695:
  51:../DaisySP/Source/Utility/dsp.h **** {
 3391              		.loc 15 51 14 is_stmt 1 view .LVU920
 3392              	.LBB697:
  53:../DaisySP/Source/Utility/dsp.h **** #ifdef __arm__
 3393              		.loc 15 53 5 view .LVU921
  55:../DaisySP/Source/Utility/dsp.h **** #else
 3394              		.loc 15 55 5 view .LVU922
 3395              		.syntax unified
 3396              	@ 55 "../DaisySP/Source/Utility/dsp.h" 1
 3397 00a2 80FE600A 		vminnm.f32 s0, s0, s1
 3398              	@ 0 "" 2
 3399              	.LVL234:
  59:../DaisySP/Source/Utility/dsp.h **** }
 3400              		.loc 15 59 5 view .LVU923
  59:../DaisySP/Source/Utility/dsp.h **** }
 3401              		.loc 15 59 5 is_stmt 0 view .LVU924
 3402              		.thumb
 3403              		.syntax unified
 3404              	.LBE697:
 3405              	.LBE702:
 3406              	.LBE712:
 3407              		.loc 14 34 21 is_stmt 1 view .LVU925
 3408              	.LBB713:
 3409              	.LBI704:
  64:../DaisySP/Source/Utility/dsp.h **** {
 3410              		.loc 15 64 14 view .LVU926
 3411              	.LBE713:
 3412              		.loc 15 66 5 view .LVU927
 3413              	.LBB714:
 3414              	.LBB708:
 3415              	.LBI705:
  40:../DaisySP/Source/Utility/dsp.h **** {
 3416              		.loc 15 40 14 view .LVU928
 3417              	.LBB707:
  42:../DaisySP/Source/Utility/dsp.h **** #ifdef __arm__
 3418              		.loc 15 42 5 view .LVU929
  44:../DaisySP/Source/Utility/dsp.h **** #else
 3419              		.loc 15 44 5 view .LVU930
  48:../DaisySP/Source/Utility/dsp.h **** }
 3420              		.loc 15 48 5 view .LVU931
  48:../DaisySP/Source/Utility/dsp.h **** }
 3421              		.loc 15 48 5 is_stmt 0 view .LVU932
 3422              	.LBE707:
 3423              	.LBE708:
 3424              	.LBB709:
 3425              	.LBI709:
  51:../DaisySP/Source/Utility/dsp.h **** {
 3426              		.loc 15 51 14 is_stmt 1 view .LVU933
 3427              	.LBB710:
  53:../DaisySP/Source/Utility/dsp.h **** #ifdef __arm__
 3428              		.loc 15 53 5 view .LVU934
  55:../DaisySP/Source/Utility/dsp.h **** #else
 3429              		.loc 15 55 5 view .LVU935
 3430              		.syntax unified
 3431              	@ 55 "../DaisySP/Source/Utility/dsp.h" 1
ARM GAS  /var/folders/2p/02m_5p7958535cp2tpgps0400000gn/T//cclqaeHn.s 			page 107


 3432 00a6 C7FEE00A 		vminnm.f32 s1, s15, s1
 3433              	@ 0 "" 2
 3434              	.LVL235:
  59:../DaisySP/Source/Utility/dsp.h **** }
 3435              		.loc 15 59 5 view .LVU936
  59:../DaisySP/Source/Utility/dsp.h **** }
 3436              		.loc 15 59 5 is_stmt 0 view .LVU937
 3437              		.thumb
 3438              		.syntax unified
 3439              	.LBE710:
 3440              	.LBE709:
 3441              	.LBE714:
 3442              		.loc 3 652 1 view .LVU938
 3443 00aa 02B0     		add	sp, sp, #8
 3444              		.cfi_remember_state
 3445              		.cfi_def_cfa_offset 16
 3446              		@ sp needed
 3447 00ac BDEC028B 		vldm	sp!, {d8}
 3448              		.cfi_restore 80
 3449              		.cfi_restore 81
 3450              		.cfi_def_cfa_offset 8
 3451              	.LVL236:
 3452              		.loc 3 652 1 view .LVU939
 3453 00b0 BDE81040 		pop	{r4, lr}
 3454              		.cfi_restore 14
 3455              		.cfi_restore 4
 3456              		.cfi_def_cfa_offset 0
 3457              	.LVL237:
 639:GrannyChordApp.cpp ****       return;     
 3458              		.loc 3 639 21 view .LVU940
 3459 00b4 FFF7FEBF 		b	_ZN7daisysp6Chorus6SetPanEff
 3460              	.LVL238:
 3461              	.L135:
 3462              		.cfi_restore_state
 641:GrannyChordApp.cpp ****        /* set reverb feedback ie tail length */
 3463              		.loc 3 641 5 is_stmt 1 view .LVU941
 643:GrannyChordApp.cpp ****       return;
 3464              		.loc 3 643 7 view .LVU942
 3465              	.LBB715:
 3466              	.LBI715:
 3467              		.file 16 "../DaisySP/Source/../DaisySP-LGPL/Source/Effects/reverbsc.h"
   1:../DaisySP/Source/../DaisySP-LGPL/Source/Effects/reverbsc.h **** /*
   2:../DaisySP/Source/../DaisySP-LGPL/Source/Effects/reverbsc.h **** Copyright (c) 2023 Electrosmith, Corp, Sean Costello, Istvan Varga, Paul Batchelor
   3:../DaisySP/Source/../DaisySP-LGPL/Source/Effects/reverbsc.h **** 
   4:../DaisySP/Source/../DaisySP-LGPL/Source/Effects/reverbsc.h **** Use of this source code is governed by the LGPL V2.1
   5:../DaisySP/Source/../DaisySP-LGPL/Source/Effects/reverbsc.h **** license that can be found in the LICENSE file or at
   6:../DaisySP/Source/../DaisySP-LGPL/Source/Effects/reverbsc.h **** https://opensource.org/license/lgpl-2-1/
   7:../DaisySP/Source/../DaisySP-LGPL/Source/Effects/reverbsc.h **** */
   8:../DaisySP/Source/../DaisySP-LGPL/Source/Effects/reverbsc.h **** 
   9:../DaisySP/Source/../DaisySP-LGPL/Source/Effects/reverbsc.h **** #pragma once
  10:../DaisySP/Source/../DaisySP-LGPL/Source/Effects/reverbsc.h **** #ifndef DSYSP_REVERBSC_H
  11:../DaisySP/Source/../DaisySP-LGPL/Source/Effects/reverbsc.h **** #define DSYSP_REVERBSC_H
  12:../DaisySP/Source/../DaisySP-LGPL/Source/Effects/reverbsc.h **** 
  13:../DaisySP/Source/../DaisySP-LGPL/Source/Effects/reverbsc.h **** #define DSY_REVERBSC_MAX_SIZE 98936
  14:../DaisySP/Source/../DaisySP-LGPL/Source/Effects/reverbsc.h **** // #define DSY_REVERBSC_MAX_SIZE 49468
  15:../DaisySP/Source/../DaisySP-LGPL/Source/Effects/reverbsc.h **** 
  16:../DaisySP/Source/../DaisySP-LGPL/Source/Effects/reverbsc.h **** namespace daisysp
ARM GAS  /var/folders/2p/02m_5p7958535cp2tpgps0400000gn/T//cclqaeHn.s 			page 108


  17:../DaisySP/Source/../DaisySP-LGPL/Source/Effects/reverbsc.h **** {
  18:../DaisySP/Source/../DaisySP-LGPL/Source/Effects/reverbsc.h **** /**Delay line for internal reverb use
  19:../DaisySP/Source/../DaisySP-LGPL/Source/Effects/reverbsc.h **** */
  20:../DaisySP/Source/../DaisySP-LGPL/Source/Effects/reverbsc.h **** typedef struct
  21:../DaisySP/Source/../DaisySP-LGPL/Source/Effects/reverbsc.h **** {
  22:../DaisySP/Source/../DaisySP-LGPL/Source/Effects/reverbsc.h ****     int    write_pos;         /**< write position */
  23:../DaisySP/Source/../DaisySP-LGPL/Source/Effects/reverbsc.h ****     int    buffer_size;       /**< buffer size */
  24:../DaisySP/Source/../DaisySP-LGPL/Source/Effects/reverbsc.h ****     int    read_pos;          /**< read position */
  25:../DaisySP/Source/../DaisySP-LGPL/Source/Effects/reverbsc.h ****     int    read_pos_frac;     /**< fractional component of read pos */
  26:../DaisySP/Source/../DaisySP-LGPL/Source/Effects/reverbsc.h ****     int    read_pos_frac_inc; /**< increment for fractional */
  27:../DaisySP/Source/../DaisySP-LGPL/Source/Effects/reverbsc.h ****     int    dummy;             /**<  dummy var */
  28:../DaisySP/Source/../DaisySP-LGPL/Source/Effects/reverbsc.h ****     int    seed_val;          /**< randseed */
  29:../DaisySP/Source/../DaisySP-LGPL/Source/Effects/reverbsc.h ****     int    rand_line_cnt;     /**< number of random lines */
  30:../DaisySP/Source/../DaisySP-LGPL/Source/Effects/reverbsc.h ****     float  filter_state;      /**< state of filter */
  31:../DaisySP/Source/../DaisySP-LGPL/Source/Effects/reverbsc.h ****     float *buf;               /**< buffer ptr */
  32:../DaisySP/Source/../DaisySP-LGPL/Source/Effects/reverbsc.h **** } ReverbScDl;
  33:../DaisySP/Source/../DaisySP-LGPL/Source/Effects/reverbsc.h **** 
  34:../DaisySP/Source/../DaisySP-LGPL/Source/Effects/reverbsc.h **** /** Stereo Reverb */
  35:../DaisySP/Source/../DaisySP-LGPL/Source/Effects/reverbsc.h **** class ReverbSc
  36:../DaisySP/Source/../DaisySP-LGPL/Source/Effects/reverbsc.h **** {
  37:../DaisySP/Source/../DaisySP-LGPL/Source/Effects/reverbsc.h ****   public:
  38:../DaisySP/Source/../DaisySP-LGPL/Source/Effects/reverbsc.h ****     ReverbSc() {}
  39:../DaisySP/Source/../DaisySP-LGPL/Source/Effects/reverbsc.h ****     ~ReverbSc() {}
  40:../DaisySP/Source/../DaisySP-LGPL/Source/Effects/reverbsc.h ****     /** Initializes the reverb module, and sets the sample_rate at which the Process function will 
  41:../DaisySP/Source/../DaisySP-LGPL/Source/Effects/reverbsc.h ****         Returns 0 if all good, or 1 if it runs out of delay times exceed maximum allowed.
  42:../DaisySP/Source/../DaisySP-LGPL/Source/Effects/reverbsc.h ****     */
  43:../DaisySP/Source/../DaisySP-LGPL/Source/Effects/reverbsc.h ****     int Init(float sample_rate);
  44:../DaisySP/Source/../DaisySP-LGPL/Source/Effects/reverbsc.h **** 
  45:../DaisySP/Source/../DaisySP-LGPL/Source/Effects/reverbsc.h ****     /** Process the input through the reverb, and updates values of out1, and out2 with the new pro
  46:../DaisySP/Source/../DaisySP-LGPL/Source/Effects/reverbsc.h ****     */
  47:../DaisySP/Source/../DaisySP-LGPL/Source/Effects/reverbsc.h ****     int Process(const float &in1, const float &in2, float *out1, float *out2);
  48:../DaisySP/Source/../DaisySP-LGPL/Source/Effects/reverbsc.h **** 
  49:../DaisySP/Source/../DaisySP-LGPL/Source/Effects/reverbsc.h ****     /* process using a simple wet/dry mix */
  50:../DaisySP/Source/../DaisySP-LGPL/Source/Effects/reverbsc.h ****     void ProcessMix(const float &in1, const float &in2, float *out1, float *out2);
  51:../DaisySP/Source/../DaisySP-LGPL/Source/Effects/reverbsc.h ****     void SetMix(float mix) { wet_mix_ = mix; }
  52:../DaisySP/Source/../DaisySP-LGPL/Source/Effects/reverbsc.h ****     /** controls the reverb time. reverb tail becomes infinite when set to 1.0
  53:../DaisySP/Source/../DaisySP-LGPL/Source/Effects/reverbsc.h ****         \param fb - sets reverb time. range: 0.0 to 1.0
  54:../DaisySP/Source/../DaisySP-LGPL/Source/Effects/reverbsc.h ****     */
  55:../DaisySP/Source/../DaisySP-LGPL/Source/Effects/reverbsc.h ****     inline void SetFeedback(const float &fb) { feedback_ = fb; }
 3468              		.loc 16 55 17 view .LVU943
 3469              	.LBB716:
 3470              		.loc 16 55 48 view .LVU944
 3471              		.loc 16 55 58 is_stmt 0 view .LVU945
 3472 00b8 D0F8EC32 		ldr	r3, [r0, #748]
 3473 00bc 83ED000A 		vstr.32	s0, [r3]
 3474              		.loc 16 55 64 view .LVU946
 3475 00c0 D3E7     		b	.L131
 3476              	.LVL239:
 3477              	.L133:
 3478              		.loc 16 55 64 view .LVU947
 3479              	.LBE716:
 3480              	.LBE715:
 645:GrannyChordApp.cpp ****       /* map knob value to frequency range with an exponential curve */
 3481              		.loc 3 645 5 is_stmt 1 view .LVU948
 647:GrannyChordApp.cpp ****       /* set cutoff frequency of low pass moog filter */
 3482              		.loc 3 647 7 view .LVU949
 3483              	.LBB717:
ARM GAS  /var/folders/2p/02m_5p7958535cp2tpgps0400000gn/T//cclqaeHn.s 			page 109


 3484              	.LBI717:
  67:../DaisySP/Source/Utility/dsp.h **** }
  68:../DaisySP/Source/Utility/dsp.h **** 
  69:../DaisySP/Source/Utility/dsp.h **** /** From Musicdsp.org "Fast power and root estimates for 32bit floats)
  70:../DaisySP/Source/Utility/dsp.h **** Original code by Stefan Stenzel
  71:../DaisySP/Source/Utility/dsp.h **** These are approximations
  72:../DaisySP/Source/Utility/dsp.h **** */
  73:../DaisySP/Source/Utility/dsp.h **** inline float fastpower(float f, int n)
  74:../DaisySP/Source/Utility/dsp.h **** {
  75:../DaisySP/Source/Utility/dsp.h ****     long *lp, l;
  76:../DaisySP/Source/Utility/dsp.h ****     lp = (long *)(&f);
  77:../DaisySP/Source/Utility/dsp.h ****     l  = *lp;
  78:../DaisySP/Source/Utility/dsp.h ****     l -= 0x3F800000;
  79:../DaisySP/Source/Utility/dsp.h ****     l <<= (n - 1);
  80:../DaisySP/Source/Utility/dsp.h ****     l += 0x3F800000;
  81:../DaisySP/Source/Utility/dsp.h ****     *lp = l;
  82:../DaisySP/Source/Utility/dsp.h ****     return f;
  83:../DaisySP/Source/Utility/dsp.h **** }
  84:../DaisySP/Source/Utility/dsp.h **** 
  85:../DaisySP/Source/Utility/dsp.h **** inline float fastroot(float f, int n)
  86:../DaisySP/Source/Utility/dsp.h **** {
  87:../DaisySP/Source/Utility/dsp.h ****     long *lp, l;
  88:../DaisySP/Source/Utility/dsp.h ****     lp = (long *)(&f);
  89:../DaisySP/Source/Utility/dsp.h ****     l  = *lp;
  90:../DaisySP/Source/Utility/dsp.h ****     l -= 0x3F800000;
  91:../DaisySP/Source/Utility/dsp.h ****     l >>= (n - 1);
  92:../DaisySP/Source/Utility/dsp.h ****     l += 0x3F800000;
  93:../DaisySP/Source/Utility/dsp.h ****     *lp = l;
  94:../DaisySP/Source/Utility/dsp.h ****     return f;
  95:../DaisySP/Source/Utility/dsp.h **** }
  96:../DaisySP/Source/Utility/dsp.h **** 
  97:../DaisySP/Source/Utility/dsp.h **** /** Significantly more efficient than fmodf(x, 1.0f) for calculating
  98:../DaisySP/Source/Utility/dsp.h ****  *  the decimal part of a floating point value.
  99:../DaisySP/Source/Utility/dsp.h ****  */
 100:../DaisySP/Source/Utility/dsp.h **** inline float fastmod1f(float x)
 101:../DaisySP/Source/Utility/dsp.h **** {
 102:../DaisySP/Source/Utility/dsp.h ****     return x - static_cast<int>(x);
 103:../DaisySP/Source/Utility/dsp.h **** }
 104:../DaisySP/Source/Utility/dsp.h **** 
 105:../DaisySP/Source/Utility/dsp.h **** /** From http://openaudio.blogspot.com/2017/02/faster-log10-and-pow.html
 106:../DaisySP/Source/Utility/dsp.h **** No approximation, pow10f(x) gives a 90% speed increase over powf(10.f, x)
 107:../DaisySP/Source/Utility/dsp.h **** */
 108:../DaisySP/Source/Utility/dsp.h **** inline float pow10f(float f)
 109:../DaisySP/Source/Utility/dsp.h **** {
 110:../DaisySP/Source/Utility/dsp.h ****     return expf(2.302585092994046f * f);
 111:../DaisySP/Source/Utility/dsp.h **** }
 112:../DaisySP/Source/Utility/dsp.h **** 
 113:../DaisySP/Source/Utility/dsp.h **** /* Original code for fastlog2f by Dr. Paul Beckmann from the ARM community forum, adapted from the 
 114:../DaisySP/Source/Utility/dsp.h **** About 25% performance increase over std::log10f
 115:../DaisySP/Source/Utility/dsp.h **** */
 116:../DaisySP/Source/Utility/dsp.h **** inline float fastlog2f(float f)
 117:../DaisySP/Source/Utility/dsp.h **** {
 118:../DaisySP/Source/Utility/dsp.h ****     float frac;
 119:../DaisySP/Source/Utility/dsp.h ****     int   exp;
 120:../DaisySP/Source/Utility/dsp.h ****     frac = frexpf(fabsf(f), &exp);
 121:../DaisySP/Source/Utility/dsp.h ****     f    = 1.23149591368684f;
 122:../DaisySP/Source/Utility/dsp.h ****     f *= frac;
ARM GAS  /var/folders/2p/02m_5p7958535cp2tpgps0400000gn/T//cclqaeHn.s 			page 110


 123:../DaisySP/Source/Utility/dsp.h ****     f += -4.11852516267426f;
 124:../DaisySP/Source/Utility/dsp.h ****     f *= frac;
 125:../DaisySP/Source/Utility/dsp.h ****     f += 6.02197014179219f;
 126:../DaisySP/Source/Utility/dsp.h ****     f *= frac;
 127:../DaisySP/Source/Utility/dsp.h ****     f += -3.13396450166353f;
 128:../DaisySP/Source/Utility/dsp.h ****     f += exp;
 129:../DaisySP/Source/Utility/dsp.h ****     return (f);
 130:../DaisySP/Source/Utility/dsp.h **** }
 131:../DaisySP/Source/Utility/dsp.h **** 
 132:../DaisySP/Source/Utility/dsp.h **** inline float fastlog10f(float f)
 133:../DaisySP/Source/Utility/dsp.h **** {
 134:../DaisySP/Source/Utility/dsp.h ****     return fastlog2f(f) * 0.3010299956639812f;
 135:../DaisySP/Source/Utility/dsp.h **** }
 136:../DaisySP/Source/Utility/dsp.h **** 
 137:../DaisySP/Source/Utility/dsp.h **** /** Midi to frequency helper
 138:../DaisySP/Source/Utility/dsp.h **** */
 139:../DaisySP/Source/Utility/dsp.h **** inline float mtof(float m)
 140:../DaisySP/Source/Utility/dsp.h **** {
 141:../DaisySP/Source/Utility/dsp.h ****     return powf(2, (m - 69.0f) / 12.0f) * 440.0f;
 142:../DaisySP/Source/Utility/dsp.h **** }
 143:../DaisySP/Source/Utility/dsp.h **** 
 144:../DaisySP/Source/Utility/dsp.h **** 
 145:../DaisySP/Source/Utility/dsp.h **** /** one pole lpf
 146:../DaisySP/Source/Utility/dsp.h **** out is passed by reference, and must be retained between
 147:../DaisySP/Source/Utility/dsp.h **** calls to properly filter the signal
 148:../DaisySP/Source/Utility/dsp.h **** coeff can be calculated:
 149:../DaisySP/Source/Utility/dsp.h **** coeff = 1.0 / (time * sample_rate) ; where time is in seconds
 150:../DaisySP/Source/Utility/dsp.h **** */
 151:../DaisySP/Source/Utility/dsp.h **** inline void fonepole(float &out, float in, float coeff)
 152:../DaisySP/Source/Utility/dsp.h **** {
 153:../DaisySP/Source/Utility/dsp.h ****     out += coeff * (in - out);
 154:../DaisySP/Source/Utility/dsp.h **** }
 155:../DaisySP/Source/Utility/dsp.h **** 
 156:../DaisySP/Source/Utility/dsp.h **** /** Curves to use with the fmap function */
 157:../DaisySP/Source/Utility/dsp.h **** enum class Mapping
 158:../DaisySP/Source/Utility/dsp.h **** {
 159:../DaisySP/Source/Utility/dsp.h ****     LINEAR,
 160:../DaisySP/Source/Utility/dsp.h ****     EXP,
 161:../DaisySP/Source/Utility/dsp.h ****     LOG,
 162:../DaisySP/Source/Utility/dsp.h **** };
 163:../DaisySP/Source/Utility/dsp.h **** 
 164:../DaisySP/Source/Utility/dsp.h **** /** Maps a float between a specified range, using a specified curve.
 165:../DaisySP/Source/Utility/dsp.h ****  *
 166:../DaisySP/Source/Utility/dsp.h ****  *  \param in a value between 0 to 1 that will be mapped to the new range.
 167:../DaisySP/Source/Utility/dsp.h ****  *  \param min the new minimum value
 168:../DaisySP/Source/Utility/dsp.h ****  *  \param max the new maxmimum value
 169:../DaisySP/Source/Utility/dsp.h ****  *  \param curve a Mapping Value to adjust the response curve of the transformation
 170:../DaisySP/Source/Utility/dsp.h ****  *               defaults to Linear. @see Mapping
 171:../DaisySP/Source/Utility/dsp.h ****  *
 172:../DaisySP/Source/Utility/dsp.h ****  *  When using the log curve min and max, must be greater than zero.
 173:../DaisySP/Source/Utility/dsp.h ****  *
 174:../DaisySP/Source/Utility/dsp.h ****  *  \retval returns the transformed float within the new range.
 175:../DaisySP/Source/Utility/dsp.h **** */
 176:../DaisySP/Source/Utility/dsp.h **** inline float
 177:../DaisySP/Source/Utility/dsp.h **** fmap(float in, float min, float max, Mapping curve = Mapping::LINEAR)
 3485              		.loc 15 177 1 view .LVU950
 3486              	.LBE717:
ARM GAS  /var/folders/2p/02m_5p7958535cp2tpgps0400000gn/T//cclqaeHn.s 			page 111


 178:../DaisySP/Source/Utility/dsp.h **** {
 179:../DaisySP/Source/Utility/dsp.h ****     switch(curve)
 3487              		.loc 15 179 5 view .LVU951
 3488              	.LBB727:
 3489              	.LBB718:
 180:../DaisySP/Source/Utility/dsp.h ****     {
 181:../DaisySP/Source/Utility/dsp.h ****         case Mapping::EXP:
 3490              		.loc 15 181 9 view .LVU952
 182:../DaisySP/Source/Utility/dsp.h ****             return fclamp(min + (in * in) * (max - min), min, max);
 3491              		.loc 15 182 13 view .LVU953
 3492              		.loc 15 182 26 is_stmt 0 view .LVU954
 3493 00c2 B3EE047A 		vmov.f32	s14, #2.0e+1
 3494 00c6 DFED0B6A 		vldr.32	s13, .L142+8
 3495              		.loc 15 182 37 view .LVU955
 3496 00ca 20EE008A 		vmul.f32	s16, s0, s0
 3497              	.LBE718:
 3498              	.LBE727:
 3499              	.LBB728:
 3500              	.LBB729:
  39:../DaisySP/Source/../DaisySP-LGPL/Source/Filters/moogladder.h ****     /** 
 3501              		.loc 10 39 45 view .LVU956
 3502 00ce 00F59C44 		add	r4, r0, #19968
 3503              	.LBE729:
 3504              	.LBE728:
 3505              	.LBB731:
 3506              	.LBB725:
 3507              		.loc 15 182 26 view .LVU957
 3508 00d2 F0EE477A 		vmov.f32	s15, s14
 3509 00d6 E8EE267A 		vfma.f32	s15, s16, s13
 3510              	.LVL240:
 3511              	.LBB719:
 3512              	.LBI719:
  64:../DaisySP/Source/Utility/dsp.h **** {
 3513              		.loc 15 64 14 is_stmt 1 view .LVU958
 3514              	.LBE719:
 3515              	.LBE725:
 3516              	.LBE731:
  66:../DaisySP/Source/Utility/dsp.h **** }
 3517              		.loc 15 66 5 view .LVU959
 3518              	.LBB732:
 3519              	.LBB726:
 3520              	.LBB724:
 3521              	.LBB720:
 3522              	.LBI720:
  40:../DaisySP/Source/Utility/dsp.h **** {
 3523              		.loc 15 40 14 view .LVU960
 3524              	.LBB721:
  42:../DaisySP/Source/Utility/dsp.h **** #ifdef __arm__
 3525              		.loc 15 42 5 view .LVU961
  44:../DaisySP/Source/Utility/dsp.h **** #else
 3526              		.loc 15 44 5 view .LVU962
 3527              		.syntax unified
 3528              	@ 44 "../DaisySP/Source/Utility/dsp.h" 1
 3529 00da C7FE877A 		vmaxnm.f32 s15, s15, s14
 3530              	@ 0 "" 2
 3531              	.LVL241:
  48:../DaisySP/Source/Utility/dsp.h **** }
ARM GAS  /var/folders/2p/02m_5p7958535cp2tpgps0400000gn/T//cclqaeHn.s 			page 112


 3532              		.loc 15 48 5 view .LVU963
  48:../DaisySP/Source/Utility/dsp.h **** }
 3533              		.loc 15 48 5 is_stmt 0 view .LVU964
 3534              		.thumb
 3535              		.syntax unified
 3536              	.LBE721:
 3537              	.LBE720:
 3538              	.LBB722:
 3539              	.LBI722:
  51:../DaisySP/Source/Utility/dsp.h **** {
 3540              		.loc 15 51 14 is_stmt 1 view .LVU965
 3541              	.LBB723:
  53:../DaisySP/Source/Utility/dsp.h **** #ifdef __arm__
 3542              		.loc 15 53 5 view .LVU966
  55:../DaisySP/Source/Utility/dsp.h **** #else
 3543              		.loc 15 55 5 view .LVU967
 3544 00de 9FED067A 		vldr.32	s14, .L142+12
 3545              	.LVL242:
  55:../DaisySP/Source/Utility/dsp.h **** #else
 3546              		.loc 15 55 5 is_stmt 0 view .LVU968
 3547              		.syntax unified
 3548              	@ 55 "../DaisySP/Source/Utility/dsp.h" 1
 3549 00e2 C7FEC77A 		vminnm.f32 s15, s15, s14
 3550              	@ 0 "" 2
 3551              	.LVL243:
  59:../DaisySP/Source/Utility/dsp.h **** }
 3552              		.loc 15 59 5 is_stmt 1 view .LVU969
  59:../DaisySP/Source/Utility/dsp.h **** }
 3553              		.loc 15 59 5 is_stmt 0 view .LVU970
 3554              		.thumb
 3555              		.syntax unified
 3556              	.LBE723:
 3557              	.LBE722:
 3558              	.LBE724:
 3559              	.LBE726:
 3560              	.LBE732:
 649:GrannyChordApp.cpp ****       return;
 3561              		.loc 3 649 7 is_stmt 1 view .LVU971
 3562              	.LBB733:
 3563              	.LBI728:
  39:../DaisySP/Source/../DaisySP-LGPL/Source/Filters/moogladder.h ****     /** 
 3564              		.loc 10 39 17 view .LVU972
 3565              	.LBB730:
  39:../DaisySP/Source/../DaisySP-LGPL/Source/Filters/moogladder.h ****     /** 
 3566              		.loc 10 39 39 view .LVU973
  39:../DaisySP/Source/../DaisySP-LGPL/Source/Filters/moogladder.h ****     /** 
 3567              		.loc 10 39 45 is_stmt 0 view .LVU974
 3568 00e6 C4ED167A 		vstr.32	s15, [r4, #88]
 3569              	.LVL244:
  39:../DaisySP/Source/../DaisySP-LGPL/Source/Filters/moogladder.h ****     /** 
 3570              		.loc 10 39 53 view .LVU975
 3571 00ea BEE7     		b	.L131
 3572              	.L143:
 3573              		.align	2
 3574              	.L142:
 3575 00ec CDCC4C3E 		.word	1045220557
 3576 00f0 00000000 		.word	0
ARM GAS  /var/folders/2p/02m_5p7958535cp2tpgps0400000gn/T//cclqaeHn.s 			page 113


 3577 00f4 00788C46 		.word	1183610880
 3578 00f8 00A08C46 		.word	1183621120
 3579              	.LBE730:
 3580              	.LBE733:
 3581              		.cfi_endproc
 3582              	.LFE4946:
 3584              		.section	.text._ZN14GrannyChordApp17UpdateKnob2ParamsEf9SynthMode,"ax",%progbits
 3585              		.align	1
 3586              		.global	_ZN14GrannyChordApp17UpdateKnob2ParamsEf9SynthMode
 3587              		.syntax unified
 3588              		.thumb
 3589              		.thumb_func
 3591              	_ZN14GrannyChordApp17UpdateKnob2ParamsEf9SynthMode:
 3592              	.LVL245:
 3593              	.LFB4947:
 653:GrannyChordApp.cpp **** 
 654:GrannyChordApp.cpp **** /// @brief Updates synth parameters from hardware knob 2 input
 655:GrannyChordApp.cpp **** /// @param knob1_val float between 0-1 from knob input
 656:GrannyChordApp.cpp **** /// @param mode current synth mode that determines which parameters to update
 657:GrannyChordApp.cpp **** void GrannyChordApp::UpdateKnob2Params(float knob2_val, SynthMode mode){
 3594              		.loc 3 657 72 is_stmt 1 view -0
 3595              		.cfi_startproc
 3596              		@ args = 0, pretend = 0, frame = 0
 3597              		@ frame_needed = 0, uses_anonymous_args = 0
 658:GrannyChordApp.cpp ****   switch (mode){
 3598              		.loc 3 658 3 view .LVU977
 657:GrannyChordApp.cpp ****   switch (mode){
 3599              		.loc 3 657 72 is_stmt 0 view .LVU978
 3600 0000 08B5     		push	{r3, lr}
 3601              		.cfi_def_cfa_offset 8
 3602              		.cfi_offset 3, -8
 3603              		.cfi_offset 14, -4
 3604              		.loc 3 658 3 view .LVU979
 3605 0002 0729     		cmp	r1, #7
 3606 0004 1DD8     		bhi	.L144
 3607 0006 DFE801F0 		tbb	[pc, r1]
 3608              	.L147:
 3609 000a 04       		.byte	(.L154-.L147)/2
 3610 000b 09       		.byte	(.L153-.L147)/2
 3611 000c 0E       		.byte	(.L152-.L147)/2
 3612 000d 13       		.byte	(.L151-.L147)/2
 3613 000e 18       		.byte	(.L150-.L147)/2
 3614 000f 1D       		.byte	(.L149-.L147)/2
 3615 0010 23       		.byte	(.L148-.L147)/2
 3616 0011 2A       		.byte	(.L146-.L147)/2
 3617              		.p2align 1
 3618              	.L154:
 659:GrannyChordApp.cpp ****     case SynthMode::Size_Position:
 3619              		.loc 3 659 5 is_stmt 1 view .LVU980
 660:GrannyChordApp.cpp ****       synth_.SetSpawnPos(knob2_val);
 3620              		.loc 3 660 7 view .LVU981
 3621              		.loc 3 660 25 is_stmt 0 view .LVU982
 3622 0012 2030     		adds	r0, r0, #32
 3623              	.LVL246:
 661:GrannyChordApp.cpp ****       return;
 662:GrannyChordApp.cpp ****     case SynthMode::Pitch_ActiveGrains:
 663:GrannyChordApp.cpp ****       synth_.SetActiveGrains(knob2_val);
ARM GAS  /var/folders/2p/02m_5p7958535cp2tpgps0400000gn/T//cclqaeHn.s 			page 114


 664:GrannyChordApp.cpp ****       return;
 665:GrannyChordApp.cpp ****     case SynthMode::Pan_Direction:
 666:GrannyChordApp.cpp ****       synth_.SetDirection(knob2_val);
 667:GrannyChordApp.cpp ****       return;
 668:GrannyChordApp.cpp ****     case SynthMode::RndAmount_RndFreq:
 669:GrannyChordApp.cpp ****       synth_.SetRndRefreshFreq(knob2_val);
 670:GrannyChordApp.cpp ****       break;
 671:GrannyChordApp.cpp ****     case SynthMode::StereoRotate:
 672:GrannyChordApp.cpp ****       rotator_.SetMix(knob2_val);
 673:GrannyChordApp.cpp ****       return;
 674:GrannyChordApp.cpp ****     case SynthMode::Chorus:
 675:GrannyChordApp.cpp ****       chorus_.SetMix(knob2_val);
 676:GrannyChordApp.cpp ****       return;
 677:GrannyChordApp.cpp ****     case SynthMode::Reverb:
 678:GrannyChordApp.cpp ****         reverb_.SetMix(knob2_val);
 679:GrannyChordApp.cpp ****         return;
 680:GrannyChordApp.cpp ****     case SynthMode::Filter:
 681:GrannyChordApp.cpp ****       /* map knob value to frequency range with linear curve */
 682:GrannyChordApp.cpp ****       knob2_val = fmap(knob2_val, HIPASS_LOWER_BOUND, HIPASS_UPPER_BOUND, daisysp::Mapping::EXP);
 683:GrannyChordApp.cpp ****       /* set cutoff frequency for high pass filter */
 684:GrannyChordApp.cpp ****       hipass_.SetFrequency(knob2_val);
 685:GrannyChordApp.cpp ****       return;
 686:GrannyChordApp.cpp ****   }
 687:GrannyChordApp.cpp **** }
 3624              		.loc 3 687 1 view .LVU983
 3625 0014 BDE80840 		pop	{r3, lr}
 3626              		.cfi_remember_state
 3627              		.cfi_restore 14
 3628              		.cfi_restore 3
 3629              		.cfi_def_cfa_offset 0
 660:GrannyChordApp.cpp ****       synth_.SetSpawnPos(knob2_val);
 3630              		.loc 3 660 25 view .LVU984
 3631 0018 FFF7FEBF 		b	_ZN13GranularSynth11SetSpawnPosEf
 3632              	.LVL247:
 3633              	.L153:
 3634              		.cfi_restore_state
 662:GrannyChordApp.cpp ****       synth_.SetActiveGrains(knob2_val);
 3635              		.loc 3 662 5 is_stmt 1 view .LVU985
 663:GrannyChordApp.cpp ****       return;
 3636              		.loc 3 663 7 view .LVU986
 663:GrannyChordApp.cpp ****       return;
 3637              		.loc 3 663 29 is_stmt 0 view .LVU987
 3638 001c 2030     		adds	r0, r0, #32
 3639              	.LVL248:
 3640              		.loc 3 687 1 view .LVU988
 3641 001e BDE80840 		pop	{r3, lr}
 3642              		.cfi_remember_state
 3643              		.cfi_restore 14
 3644              		.cfi_restore 3
 3645              		.cfi_def_cfa_offset 0
 663:GrannyChordApp.cpp ****       return;
 3646              		.loc 3 663 29 view .LVU989
 3647 0022 FFF7FEBF 		b	_ZN13GranularSynth15SetActiveGrainsEf
 3648              	.LVL249:
 3649              	.L152:
 3650              		.cfi_restore_state
 665:GrannyChordApp.cpp ****       synth_.SetDirection(knob2_val);
ARM GAS  /var/folders/2p/02m_5p7958535cp2tpgps0400000gn/T//cclqaeHn.s 			page 115


 3651              		.loc 3 665 5 is_stmt 1 view .LVU990
 666:GrannyChordApp.cpp ****       return;
 3652              		.loc 3 666 7 view .LVU991
 666:GrannyChordApp.cpp ****       return;
 3653              		.loc 3 666 26 is_stmt 0 view .LVU992
 3654 0026 2030     		adds	r0, r0, #32
 3655              	.LVL250:
 3656              		.loc 3 687 1 view .LVU993
 3657 0028 BDE80840 		pop	{r3, lr}
 3658              		.cfi_remember_state
 3659              		.cfi_restore 14
 3660              		.cfi_restore 3
 3661              		.cfi_def_cfa_offset 0
 666:GrannyChordApp.cpp ****       return;
 3662              		.loc 3 666 26 view .LVU994
 3663 002c FFF7FEBF 		b	_ZN13GranularSynth12SetDirectionEf
 3664              	.LVL251:
 3665              	.L151:
 3666              		.cfi_restore_state
 668:GrannyChordApp.cpp ****       synth_.SetRndRefreshFreq(knob2_val);
 3667              		.loc 3 668 5 is_stmt 1 view .LVU995
 669:GrannyChordApp.cpp ****       break;
 3668              		.loc 3 669 7 view .LVU996
 669:GrannyChordApp.cpp ****       break;
 3669              		.loc 3 669 31 is_stmt 0 view .LVU997
 3670 0030 2030     		adds	r0, r0, #32
 3671              	.LVL252:
 3672              		.loc 3 687 1 view .LVU998
 3673 0032 BDE80840 		pop	{r3, lr}
 3674              		.cfi_remember_state
 3675              		.cfi_restore 14
 3676              		.cfi_restore 3
 3677              		.cfi_def_cfa_offset 0
 669:GrannyChordApp.cpp ****       break;
 3678              		.loc 3 669 31 view .LVU999
 3679 0036 FFF7FEBF 		b	_ZN13GranularSynth17SetRndRefreshFreqEf
 3680              	.LVL253:
 3681              	.L150:
 3682              		.cfi_restore_state
 671:GrannyChordApp.cpp ****       rotator_.SetMix(knob2_val);
 3683              		.loc 3 671 5 is_stmt 1 view .LVU1000
 672:GrannyChordApp.cpp ****       return;
 3684              		.loc 3 672 7 view .LVU1001
 3685              	.LBB734:
 3686              	.LBI734:
  28:StereoRotator.h ****     }
  29:StereoRotator.h **** 
  30:StereoRotator.h ****     void SetMix(float mix) { wet_mix_ = mix; }
 3687              		.loc 12 30 10 view .LVU1002
 3688              	.LBB735:
 3689              		.loc 12 30 30 view .LVU1003
 3690              		.loc 12 30 39 is_stmt 0 view .LVU1004
 3691 003a 00F59D40 		add	r0, r0, #20096
 3692              	.LVL254:
 3693              		.loc 12 30 39 view .LVU1005
 3694 003e 80ED0B0A 		vstr.32	s0, [r0, #44]
 3695              	.LVL255:
ARM GAS  /var/folders/2p/02m_5p7958535cp2tpgps0400000gn/T//cclqaeHn.s 			page 116


 3696              	.L144:
 3697              		.loc 12 30 39 view .LVU1006
 3698              	.LBE735:
 3699              	.LBE734:
 3700              		.loc 3 687 1 view .LVU1007
 3701 0042 08BD     		pop	{r3, pc}
 3702              	.LVL256:
 3703              	.L149:
 674:GrannyChordApp.cpp ****       chorus_.SetMix(knob2_val);
 3704              		.loc 3 674 5 is_stmt 1 view .LVU1008
 675:GrannyChordApp.cpp ****       return;
 3705              		.loc 3 675 7 view .LVU1009
 675:GrannyChordApp.cpp ****       return;
 3706              		.loc 3 675 21 is_stmt 0 view .LVU1010
 3707 0044 00F53C70 		add	r0, r0, #752
 3708              	.LVL257:
 3709              		.loc 3 687 1 view .LVU1011
 3710 0048 BDE80840 		pop	{r3, lr}
 3711              		.cfi_remember_state
 3712              		.cfi_restore 14
 3713              		.cfi_restore 3
 3714              		.cfi_def_cfa_offset 0
 675:GrannyChordApp.cpp ****       return;
 3715              		.loc 3 675 21 view .LVU1012
 3716 004c FFF7FEBF 		b	_ZN7daisysp6Chorus6SetMixEf
 3717              	.LVL258:
 3718              	.L148:
 3719              		.cfi_restore_state
 677:GrannyChordApp.cpp ****         reverb_.SetMix(knob2_val);
 3720              		.loc 3 677 5 is_stmt 1 view .LVU1013
 678:GrannyChordApp.cpp ****         return;
 3721              		.loc 3 678 9 view .LVU1014
 3722              	.LBB736:
 3723              	.LBI736:
  51:../DaisySP/Source/../DaisySP-LGPL/Source/Effects/reverbsc.h ****     /** controls the reverb time. reverb tail becomes infinite when set to 1.0
 3724              		.loc 16 51 10 view .LVU1015
 3725              	.LBB737:
  51:../DaisySP/Source/../DaisySP-LGPL/Source/Effects/reverbsc.h ****     /** controls the reverb time. reverb tail becomes infinite when set to 1.0
 3726              		.loc 16 51 30 view .LVU1016
  51:../DaisySP/Source/../DaisySP-LGPL/Source/Effects/reverbsc.h ****     /** controls the reverb time. reverb tail becomes infinite when set to 1.0
 3727              		.loc 16 51 39 is_stmt 0 view .LVU1017
 3728 0050 D0F8EC32 		ldr	r3, [r0, #748]
 3729 0054 03F5C123 		add	r3, r3, #395264
 3730 0058 83EDD10A 		vstr.32	s0, [r3, #836]
  51:../DaisySP/Source/../DaisySP-LGPL/Source/Effects/reverbsc.h ****     /** controls the reverb time. reverb tail becomes infinite when set to 1.0
 3731              		.loc 16 51 46 view .LVU1018
 3732 005c F1E7     		b	.L144
 3733              	.LVL259:
 3734              	.L146:
  51:../DaisySP/Source/../DaisySP-LGPL/Source/Effects/reverbsc.h ****     /** controls the reverb time. reverb tail becomes infinite when set to 1.0
 3735              		.loc 16 51 46 view .LVU1019
 3736              	.LBE737:
 3737              	.LBE736:
 680:GrannyChordApp.cpp ****       /* map knob value to frequency range with linear curve */
 3738              		.loc 3 680 5 is_stmt 1 view .LVU1020
 682:GrannyChordApp.cpp ****       /* set cutoff frequency for high pass filter */
 3739              		.loc 3 682 7 view .LVU1021
ARM GAS  /var/folders/2p/02m_5p7958535cp2tpgps0400000gn/T//cclqaeHn.s 			page 117


 3740              	.LBB738:
 3741              	.LBI738:
 177:../DaisySP/Source/Utility/dsp.h **** {
 3742              		.loc 15 177 1 view .LVU1022
 3743              	.LBE738:
 179:../DaisySP/Source/Utility/dsp.h ****     {
 3744              		.loc 15 179 5 view .LVU1023
 3745              	.LBB749:
 3746              	.LBB739:
 181:../DaisySP/Source/Utility/dsp.h ****             return fclamp(min + (in * in) * (max - min), min, max);
 3747              		.loc 15 181 9 view .LVU1024
 3748              		.loc 15 182 13 view .LVU1025
 3749              		.loc 15 182 26 is_stmt 0 view .LVU1026
 3750 005e 9FED0B7A 		vldr.32	s14, .L155
 3751              		.loc 15 182 37 view .LVU1027
 3752 0062 20EE000A 		vmul.f32	s0, s0, s0
 3753              	.LVL260:
 3754              		.loc 15 182 26 view .LVU1028
 3755 0066 DFED0A6A 		vldr.32	s13, .L155+4
 3756              	.LBE739:
 3757              	.LBE749:
 684:GrannyChordApp.cpp ****       return;
 3758              		.loc 3 684 27 view .LVU1029
 3759 006a 00F59D40 		add	r0, r0, #20096
 3760              	.LVL261:
 3761              	.LBB750:
 3762              	.LBB746:
 3763              		.loc 15 182 26 view .LVU1030
 3764 006e F0EE477A 		vmov.f32	s15, s14
 3765              	.LBE746:
 3766              	.LBE750:
 684:GrannyChordApp.cpp ****       return;
 3767              		.loc 3 684 27 view .LVU1031
 3768 0072 1430     		adds	r0, r0, #20
 3769              	.LVL262:
 3770              	.LBB751:
 3771              	.LBB747:
 3772              		.loc 15 182 26 view .LVU1032
 3773 0074 E0EE267A 		vfma.f32	s15, s0, s13
 3774              	.LVL263:
 3775              	.LBB740:
 3776              	.LBI740:
  64:../DaisySP/Source/Utility/dsp.h **** {
 3777              		.loc 15 64 14 is_stmt 1 view .LVU1033
 3778              	.LBE740:
 3779              	.LBE747:
 3780              	.LBE751:
  66:../DaisySP/Source/Utility/dsp.h **** }
 3781              		.loc 15 66 5 view .LVU1034
 3782              	.LBB752:
 3783              	.LBB748:
 3784              	.LBB745:
 3785              	.LBB741:
 3786              	.LBI741:
  40:../DaisySP/Source/Utility/dsp.h **** {
 3787              		.loc 15 40 14 view .LVU1035
 3788              	.LBB742:
ARM GAS  /var/folders/2p/02m_5p7958535cp2tpgps0400000gn/T//cclqaeHn.s 			page 118


  42:../DaisySP/Source/Utility/dsp.h **** #ifdef __arm__
 3789              		.loc 15 42 5 view .LVU1036
  44:../DaisySP/Source/Utility/dsp.h **** #else
 3790              		.loc 15 44 5 view .LVU1037
 3791              		.syntax unified
 3792              	@ 44 "../DaisySP/Source/Utility/dsp.h" 1
 3793 0078 87FE870A 		vmaxnm.f32 s0, s15, s14
 3794              	@ 0 "" 2
 3795              	.LVL264:
  48:../DaisySP/Source/Utility/dsp.h **** }
 3796              		.loc 15 48 5 view .LVU1038
  48:../DaisySP/Source/Utility/dsp.h **** }
 3797              		.loc 15 48 5 is_stmt 0 view .LVU1039
 3798              		.thumb
 3799              		.syntax unified
 3800              	.LBE742:
 3801              	.LBE741:
 3802              	.LBB743:
 3803              	.LBI743:
  51:../DaisySP/Source/Utility/dsp.h **** {
 3804              		.loc 15 51 14 is_stmt 1 view .LVU1040
 3805              	.LBB744:
  53:../DaisySP/Source/Utility/dsp.h **** #ifdef __arm__
 3806              		.loc 15 53 5 view .LVU1041
  55:../DaisySP/Source/Utility/dsp.h **** #else
 3807              		.loc 15 55 5 view .LVU1042
 3808 007c DFED057A 		vldr.32	s15, .L155+8
 3809              	.LVL265:
  55:../DaisySP/Source/Utility/dsp.h **** #else
 3810              		.loc 15 55 5 is_stmt 0 view .LVU1043
 3811              		.syntax unified
 3812              	@ 55 "../DaisySP/Source/Utility/dsp.h" 1
 3813 0080 80FE670A 		vminnm.f32 s0, s0, s15
 3814              	@ 0 "" 2
 3815              	.LVL266:
  59:../DaisySP/Source/Utility/dsp.h **** }
 3816              		.loc 15 59 5 is_stmt 1 view .LVU1044
  59:../DaisySP/Source/Utility/dsp.h **** }
 3817              		.loc 15 59 5 is_stmt 0 view .LVU1045
 3818              		.thumb
 3819              		.syntax unified
 3820              	.LBE744:
 3821              	.LBE743:
 3822              	.LBE745:
 3823              	.LBE748:
 3824              	.LBE752:
 684:GrannyChordApp.cpp ****       return;
 3825              		.loc 3 684 7 is_stmt 1 view .LVU1046
 684:GrannyChordApp.cpp ****       return;
 3826              		.loc 3 684 27 is_stmt 0 view .LVU1047
 3827 0084 FFF7FEFF 		bl	_ZN7daisysp7OnePole12SetFrequencyEf
 3828              	.LVL267:
 685:GrannyChordApp.cpp ****   }
 3829              		.loc 3 685 7 is_stmt 1 view .LVU1048
 3830 0088 DBE7     		b	.L144
 3831              	.L156:
 3832 008a 00BF     		.align	2
ARM GAS  /var/folders/2p/02m_5p7958535cp2tpgps0400000gn/T//cclqaeHn.s 			page 119


 3833              	.L155:
 3834 008c 17B7D139 		.word	970045207
 3835 0090 51491D3C 		.word	1008552273
 3836 0094 0AD7233C 		.word	1008981770
 3837              		.cfi_endproc
 3838              	.LFE4947:
 3840              		.section	.rodata._ZN14GrannyChordApp17UpdateSynthParamsEv.str1.1,"aMS",%progbits,1
 3841              	.LC10:
 3842 0000 6E657720 		.ascii	"new k1v: %f\000"
 3842      6B31763A 
 3842      20256600 
 3843              	.LC11:
 3844 000c 6E657720 		.ascii	"new k2v: %f\000"
 3844      6B32763A 
 3844      20256600 
 3845              		.section	.text._ZN14GrannyChordApp17UpdateSynthParamsEv,"ax",%progbits
 3846              		.align	1
 3847              		.global	_ZN14GrannyChordApp17UpdateSynthParamsEv
 3848              		.syntax unified
 3849              		.thumb
 3850              		.thumb_func
 3852              	_ZN14GrannyChordApp17UpdateSynthParamsEv:
 3853              	.LVL268:
 3854              	.LFB4930:
 355:GrannyChordApp.cpp ****   if (curr_state_!=AppState::Synthesis) return;
 3855              		.loc 3 355 41 view -0
 3856              		.cfi_startproc
 3857              		@ args = 0, pretend = 0, frame = 0
 3858              		@ frame_needed = 0, uses_anonymous_args = 0
 356:GrannyChordApp.cpp ****   int mode_idx = static_cast<int>(curr_synth_mode_);
 3859              		.loc 3 356 3 view .LVU1050
 3860 0000 D0F89432 		ldr	r3, [r0, #660]
 3861 0004 022B     		cmp	r3, #2
 355:GrannyChordApp.cpp ****   if (curr_state_!=AppState::Synthesis) return;
 3862              		.loc 3 355 41 is_stmt 0 view .LVU1051
 3863 0006 2DE9F041 		push	{r4, r5, r6, r7, r8, lr}
 3864              		.cfi_def_cfa_offset 24
 3865              		.cfi_offset 4, -24
 3866              		.cfi_offset 5, -20
 3867              		.cfi_offset 6, -16
 3868              		.cfi_offset 7, -12
 3869              		.cfi_offset 8, -8
 3870              		.cfi_offset 14, -4
 3871 000a 0446     		mov	r4, r0
 3872 000c 2DED048B 		vpush.64	{d8, d9}
 3873              		.cfi_def_cfa_offset 40
 3874              		.cfi_offset 80, -40
 3875              		.cfi_offset 81, -36
 3876              		.cfi_offset 82, -32
 3877              		.cfi_offset 83, -28
 356:GrannyChordApp.cpp ****   int mode_idx = static_cast<int>(curr_synth_mode_);
 3878              		.loc 3 356 3 view .LVU1052
 3879 0010 40F0A780 		bne	.L157
 3880              	.LVL269:
 3881              	.LBB771:
 3882              	.LBI771:
 355:GrannyChordApp.cpp ****   if (curr_state_!=AppState::Synthesis) return;
ARM GAS  /var/folders/2p/02m_5p7958535cp2tpgps0400000gn/T//cclqaeHn.s 			page 120


 3883              		.loc 3 355 6 is_stmt 1 view .LVU1053
 3884              	.LBB772:
 357:GrannyChordApp.cpp **** 
 3885              		.loc 3 357 3 view .LVU1054
 357:GrannyChordApp.cpp **** 
 3886              		.loc 3 357 7 is_stmt 0 view .LVU1055
 3887 0014 D0F89C52 		ldr	r5, [r0, #668]
 3888              	.LVL270:
 360:GrannyChordApp.cpp ****   float knob2_val = MapKnobDeadzone(pod_.knob2.Process());
 3889              		.loc 3 360 3 is_stmt 1 view .LVU1056
 360:GrannyChordApp.cpp ****   float knob2_val = MapKnobDeadzone(pod_.knob2.Process());
 3890              		.loc 3 360 36 is_stmt 0 view .LVU1057
 3891 0018 C069     		ldr	r0, [r0, #28]
 3892              	.LVL271:
 3893              	.LBB773:
 3894              	.LBB774:
 688:GrannyChordApp.cpp **** 
 689:GrannyChordApp.cpp **** 
 690:GrannyChordApp.cpp **** 
 691:GrannyChordApp.cpp **** /*
 692:GrannyChordApp.cpp **** 
 693:GrannyChordApp.cpp **** encoder for strum??? nice clicks 
 694:GrannyChordApp.cpp **** knob1 pitch? 
 695:GrannyChordApp.cpp **** knob2 position?
 696:GrannyChordApp.cpp **** buttons chords? 
 697:GrannyChordApp.cpp **** click encoder for granular stuff
 698:GrannyChordApp.cpp **** 
 699:GrannyChordApp.cpp **** */
 700:GrannyChordApp.cpp **** 
 701:GrannyChordApp.cpp **** /* knobs on the Pod have deadzones around 0 and 1 so we adjust for this */
 702:GrannyChordApp.cpp **** inline float GrannyChordApp::MapKnobDeadzone(float knob_val ){
 703:GrannyChordApp.cpp ****   if (knob_val<=0.01f) return 0.0f;
 3895              		.loc 3 703 3 view .LVU1058
 3896 001a 9FED579A 		vldr.32	s18, .L182+8
 3897              	.LBE774:
 3898              	.LBE773:
 360:GrannyChordApp.cpp ****   float knob2_val = MapKnobDeadzone(pod_.knob2.Process());
 3899              		.loc 3 360 36 view .LVU1059
 3900 001e 6830     		adds	r0, r0, #104
 3901 0020 FFF7FEFF 		bl	_ZN5daisy13AnalogControl7ProcessEv
 3902              	.LVL272:
 3903              	.LBB777:
 3904              	.LBI773:
 702:GrannyChordApp.cpp ****   if (knob_val<=0.01f) return 0.0f;
 3905              		.loc 3 702 14 is_stmt 1 view .LVU1060
 3906              	.LBB775:
 3907              		.loc 3 703 3 view .LVU1061
 3908 0024 B4EEC90A 		vcmpe.f32	s0, s18
 3909 0028 F1EE10FA 		vmrs	APSR_nzcv, FPSCR
 3910 002c 40F29380 		bls	.L171
 704:GrannyChordApp.cpp ****   if (knob_val>=0.99f) return 1.0f;
 3911              		.loc 3 704 3 view .LVU1062
 3912              		.loc 3 704 31 is_stmt 0 view .LVU1063
 3913 0030 DFED527A 		vldr.32	s15, .L182+12
 3914 0034 B4EE670A 		vcmp.f32	s0, s15
 3915 0038 F7EE007A 		vmov.f32	s15, #1.0e+0
 3916 003c F1EE10FA 		vmrs	APSR_nzcv, FPSCR
ARM GAS  /var/folders/2p/02m_5p7958535cp2tpgps0400000gn/T//cclqaeHn.s 			page 121


 3917 0040 67FE808A 		vselge.f32	s17, s15, s0
 3918              	.L160:
 3919              	.LVL273:
 3920              		.loc 3 704 31 view .LVU1064
 3921              	.LBE775:
 3922              	.LBE777:
 361:GrannyChordApp.cpp ****   
 3923              		.loc 3 361 3 is_stmt 1 view .LVU1065
 361:GrannyChordApp.cpp ****   
 3924              		.loc 3 361 36 is_stmt 0 view .LVU1066
 3925 0044 E069     		ldr	r0, [r4, #28]
 3926 0046 8830     		adds	r0, r0, #136
 3927 0048 FFF7FEFF 		bl	_ZN5daisy13AnalogControl7ProcessEv
 3928              	.LVL274:
 3929              	.LBB778:
 3930              	.LBI778:
 702:GrannyChordApp.cpp ****   if (knob_val<=0.01f) return 0.0f;
 3931              		.loc 3 702 14 is_stmt 1 view .LVU1067
 3932              	.LBB779:
 703:GrannyChordApp.cpp ****   if (knob_val>=0.99f) return 1.0f;
 3933              		.loc 3 703 3 view .LVU1068
 3934 004c B4EEC90A 		vcmpe.f32	s0, s18
 3935 0050 F1EE10FA 		vmrs	APSR_nzcv, FPSCR
 3936 0054 40F28280 		bls	.L172
 3937              		.loc 3 704 3 view .LVU1069
 3938              		.loc 3 704 31 is_stmt 0 view .LVU1070
 3939 0058 DFED487A 		vldr.32	s15, .L182+12
 3940 005c B4EE670A 		vcmp.f32	s0, s15
 3941 0060 F7EE007A 		vmov.f32	s15, #1.0e+0
 3942 0064 F1EE10FA 		vmrs	APSR_nzcv, FPSCR
 3943 0068 27FE808A 		vselge.f32	s16, s15, s0
 3944              	.L162:
 3945              	.LVL275:
 3946              		.loc 3 704 31 view .LVU1071
 3947              	.LBE779:
 3948              	.LBE778:
 363:GrannyChordApp.cpp **** 
 3949              		.loc 3 363 3 is_stmt 1 view .LVU1072
 363:GrannyChordApp.cpp **** 
 3950              		.loc 3 363 10 is_stmt 0 view .LVU1073
 3951 006c 04F55047 		add	r7, r4, #53248
 3952 0070 05F59E56 		add	r6, r5, #5056
 3953 0074 D7F89032 		ldr	r3, [r7, #656]
 3954 0078 1436     		adds	r6, r6, #20
 3955 007a 0133     		adds	r3, r3, #1
 3956 007c C7F89032 		str	r3, [r7, #656]
 366:GrannyChordApp.cpp ****     UpdateKnob1Params(knob1_val,curr_synth_mode_);
 3957              		.loc 3 366 3 is_stmt 1 view .LVU1074
 3958              	.LVL276:
 3959              	.LBB781:
 3960              	.LBI781:
 705:GrannyChordApp.cpp ****   return knob_val;
 706:GrannyChordApp.cpp **** }
 707:GrannyChordApp.cpp **** 
 708:GrannyChordApp.cpp **** inline bool GrannyChordApp::UpdateKnobPassThru(bool *knob_latched, float curr_knob_val, float prev_
 3961              		.loc 3 708 13 view .LVU1075
 3962              	.LBB782:
ARM GAS  /var/folders/2p/02m_5p7958535cp2tpgps0400000gn/T//cclqaeHn.s 			page 122


 709:GrannyChordApp.cpp ****   if ((*knob_latched)){
 3963              		.loc 3 709 3 view .LVU1076
 3964 0080 94F8A432 		ldrb	r3, [r4, #676]	@ zero_extendqisi2
 3965 0084 9BB1     		cbz	r3, .L164
 710:GrannyChordApp.cpp ****     if (fabs(curr_knob_val - prev_param)<0.0001){
 3966              		.loc 3 710 5 view .LVU1077
 3967              	.LVL277:
 3968              	.LBB783:
 3969              	.LBI783:
 241:/Library/DaisyToolchain/0.2.0/arm/arm-none-eabi/include/c++/10.3.1/cmath ****   { return __builtin_fabsf(__x); }
 3970              		.loc 13 241 3 view .LVU1078
 3971              	.LBB784:
 242:/Library/DaisyToolchain/0.2.0/arm/arm-none-eabi/include/c++/10.3.1/cmath **** 
 3972              		.loc 13 242 5 view .LVU1079
 242:/Library/DaisyToolchain/0.2.0/arm/arm-none-eabi/include/c++/10.3.1/cmath **** 
 3973              		.loc 13 242 5 is_stmt 0 view .LVU1080
 3974              	.LBE784:
 3975              	.LBE783:
 3976              	.LBE782:
 3977              	.LBE781:
 366:GrannyChordApp.cpp ****     UpdateKnob1Params(knob1_val,curr_synth_mode_);
 3978              		.loc 3 366 25 view .LVU1081
 3979 0086 04EB8603 		add	r3, r4, r6, lsl #2
 3980              	.LBB788:
 3981              	.LBB787:
 3982              		.loc 3 710 13 view .LVU1082
 3983 008a 93ED017A 		vldr.32	s14, [r3, #4]
 3984 008e 38EEC77A 		vsub.f32	s14, s17, s14
 3985              		.loc 3 710 5 view .LVU1083
 3986 0092 9FED376B 		vldr.64	d6, .L182
 3987              	.LBB786:
 3988              	.LBB785:
 242:/Library/DaisyToolchain/0.2.0/arm/arm-none-eabi/include/c++/10.3.1/cmath **** 
 3989              		.loc 13 242 31 view .LVU1084
 3990 0096 B0EEC77A 		vabs.f32	s14, s14
 3991              	.LBE785:
 3992              	.LBE786:
 3993              		.loc 3 710 13 view .LVU1085
 3994 009a B7EEC77A 		vcvt.f64.f32	d7, s14
 3995              		.loc 3 710 5 view .LVU1086
 3996 009e B4EEC67B 		vcmpe.f64	d7, d6
 3997 00a2 F1EE10FA 		vmrs	APSR_nzcv, FPSCR
 3998 00a6 1DD5     		bpl	.L166
 711:GrannyChordApp.cpp ****       (*knob_latched) = false;
 3999              		.loc 3 711 7 is_stmt 1 view .LVU1087
 4000              		.loc 3 711 23 is_stmt 0 view .LVU1088
 4001 00a8 0023     		movs	r3, #0
 4002 00aa 84F8A432 		strb	r3, [r4, #676]
 712:GrannyChordApp.cpp ****       return true;
 4003              		.loc 3 712 7 is_stmt 1 view .LVU1089
 4004              	.LVL278:
 4005              	.L164:
 4006              		.loc 3 712 7 is_stmt 0 view .LVU1090
 4007              	.LBE787:
 4008              	.LBE788:
 367:GrannyChordApp.cpp ****     prev_param_k1[mode_idx] = knob1_val;
 4009              		.loc 3 367 5 is_stmt 1 view .LVU1091
ARM GAS  /var/folders/2p/02m_5p7958535cp2tpgps0400000gn/T//cclqaeHn.s 			page 123


 367:GrannyChordApp.cpp ****     prev_param_k1[mode_idx] = knob1_val;
 4010              		.loc 3 367 22 is_stmt 0 view .LVU1092
 4011 00ae B0EE680A 		vmov.f32	s0, s17
 4012 00b2 D4F89C12 		ldr	r1, [r4, #668]
 4013 00b6 2046     		mov	r0, r4
 368:GrannyChordApp.cpp ****     if (counter%96000==0){
 4014              		.loc 3 368 29 view .LVU1093
 4015 00b8 04EB8606 		add	r6, r4, r6, lsl #2
 367:GrannyChordApp.cpp ****     prev_param_k1[mode_idx] = knob1_val;
 4016              		.loc 3 367 22 view .LVU1094
 4017 00bc FFF7FEFF 		bl	_ZN14GrannyChordApp17UpdateKnob1ParamsEf9SynthMode
 4018              	.LVL279:
 368:GrannyChordApp.cpp ****     if (counter%96000==0){
 4019              		.loc 3 368 5 is_stmt 1 view .LVU1095
 368:GrannyChordApp.cpp ****     if (counter%96000==0){
 4020              		.loc 3 368 29 is_stmt 0 view .LVU1096
 4021 00c0 2F4A     		ldr	r2, .L182+16
 4022 00c2 D7F89032 		ldr	r3, [r7, #656]
 4023 00c6 C6ED018A 		vstr.32	s17, [r6, #4]
 369:GrannyChordApp.cpp ****       DebugPrint(pod_, "new k1v: %f",knob1_val);
 4024              		.loc 3 369 5 is_stmt 1 view .LVU1097
 368:GrannyChordApp.cpp ****     if (counter%96000==0){
 4025              		.loc 3 368 29 is_stmt 0 view .LVU1098
 4026 00ca 5343     		muls	r3, r2, r3
 369:GrannyChordApp.cpp ****       DebugPrint(pod_, "new k1v: %f",knob1_val);
 4027              		.loc 3 369 5 view .LVU1099
 4028 00cc 4AF6C362 		movw	r2, #44739
 4029 00d0 B2EB332F 		cmp	r2, r3, ror #8
 4030 00d4 06D3     		bcc	.L166
 370:GrannyChordApp.cpp ****     }
 4031              		.loc 3 370 7 is_stmt 1 view .LVU1100
 370:GrannyChordApp.cpp ****     }
 4032              		.loc 3 370 7 view .LVU1101
 4033              	.LVL280:
 4034              	.LBB789:
 4035              	.LBI789:
 126:../libDaisy/src/daisy_seed.h ****     {
 4036              		.loc 5 126 17 view .LVU1102
 4037              	.LBB790:
 4038              		.loc 5 128 23 is_stmt 0 view .LVU1103
 4039 00d6 B7EEE87A 		vcvt.f64.f32	d7, s17
 4040 00da 2A48     		ldr	r0, .L182+20
 4041 00dc 53EC172B 		vmov	r2, r3, d7
 4042 00e0 FFF7FEFF 		bl	_ZN5daisy6LoggerILNS_17LoggerDestinationE1EE9PrintLineEPKcz
 4043              	.LVL281:
 4044              	.L166:
 4045              		.loc 5 128 23 view .LVU1104
 4046              	.LBE790:
 4047              	.LBE789:
 374:GrannyChordApp.cpp ****     UpdateKnob2Params(knob2_val, curr_synth_mode_);
 4048              		.loc 3 374 3 is_stmt 1 view .LVU1105
 4049              	.LBB791:
 4050              	.LBI791:
 708:GrannyChordApp.cpp ****   if ((*knob_latched)){
 4051              		.loc 3 708 13 view .LVU1106
 4052              	.LBB792:
 709:GrannyChordApp.cpp ****     if (fabs(curr_knob_val - prev_param)<0.0001){
ARM GAS  /var/folders/2p/02m_5p7958535cp2tpgps0400000gn/T//cclqaeHn.s 			page 124


 4053              		.loc 3 709 3 view .LVU1107
 4054 00e4 05F59E55 		add	r5, r5, #5056
 4055              	.LVL282:
 709:GrannyChordApp.cpp ****     if (fabs(curr_knob_val - prev_param)<0.0001){
 4056              		.loc 3 709 3 is_stmt 0 view .LVU1108
 4057 00e8 94F8A532 		ldrb	r3, [r4, #677]	@ zero_extendqisi2
 4058 00ec 1C35     		adds	r5, r5, #28
 4059              	.LVL283:
 709:GrannyChordApp.cpp ****     if (fabs(curr_knob_val - prev_param)<0.0001){
 4060              		.loc 3 709 3 view .LVU1109
 4061 00ee 9BB1     		cbz	r3, .L168
 710:GrannyChordApp.cpp ****       (*knob_latched) = false;
 4062              		.loc 3 710 5 is_stmt 1 view .LVU1110
 4063              	.LVL284:
 4064              	.LBB793:
 4065              	.LBI793:
 241:/Library/DaisyToolchain/0.2.0/arm/arm-none-eabi/include/c++/10.3.1/cmath ****   { return __builtin_fabsf(__x); }
 4066              		.loc 13 241 3 view .LVU1111
 4067              	.LBB794:
 242:/Library/DaisyToolchain/0.2.0/arm/arm-none-eabi/include/c++/10.3.1/cmath **** 
 4068              		.loc 13 242 5 view .LVU1112
 242:/Library/DaisyToolchain/0.2.0/arm/arm-none-eabi/include/c++/10.3.1/cmath **** 
 4069              		.loc 13 242 5 is_stmt 0 view .LVU1113
 4070              	.LBE794:
 4071              	.LBE793:
 4072              	.LBE792:
 4073              	.LBE791:
 374:GrannyChordApp.cpp ****     UpdateKnob2Params(knob2_val, curr_synth_mode_);
 4074              		.loc 3 374 25 view .LVU1114
 4075 00f0 04EB8503 		add	r3, r4, r5, lsl #2
 4076              	.LBB798:
 4077              	.LBB797:
 710:GrannyChordApp.cpp ****       (*knob_latched) = false;
 4078              		.loc 3 710 13 view .LVU1115
 4079 00f4 93ED017A 		vldr.32	s14, [r3, #4]
 4080 00f8 38EE477A 		vsub.f32	s14, s16, s14
 710:GrannyChordApp.cpp ****       (*knob_latched) = false;
 4081              		.loc 3 710 5 view .LVU1116
 4082 00fc 9FED1C6B 		vldr.64	d6, .L182
 4083              	.LBB796:
 4084              	.LBB795:
 242:/Library/DaisyToolchain/0.2.0/arm/arm-none-eabi/include/c++/10.3.1/cmath **** 
 4085              		.loc 13 242 31 view .LVU1117
 4086 0100 B0EEC77A 		vabs.f32	s14, s14
 4087              	.LBE795:
 4088              	.LBE796:
 710:GrannyChordApp.cpp ****       (*knob_latched) = false;
 4089              		.loc 3 710 13 view .LVU1118
 4090 0104 B7EEC77A 		vcvt.f64.f32	d7, s14
 710:GrannyChordApp.cpp ****       (*knob_latched) = false;
 4091              		.loc 3 710 5 view .LVU1119
 4092 0108 B4EEC67B 		vcmpe.f64	d7, d6
 4093 010c F1EE10FA 		vmrs	APSR_nzcv, FPSCR
 4094 0110 27D5     		bpl	.L157
 711:GrannyChordApp.cpp ****       return true;
 4095              		.loc 3 711 7 is_stmt 1 view .LVU1120
 711:GrannyChordApp.cpp ****       return true;
ARM GAS  /var/folders/2p/02m_5p7958535cp2tpgps0400000gn/T//cclqaeHn.s 			page 125


 4096              		.loc 3 711 23 is_stmt 0 view .LVU1121
 4097 0112 0023     		movs	r3, #0
 4098 0114 84F8A532 		strb	r3, [r4, #677]
 4099              		.loc 3 712 7 is_stmt 1 view .LVU1122
 4100              	.LVL285:
 4101              	.L168:
 4102              		.loc 3 712 7 is_stmt 0 view .LVU1123
 4103              	.LBE797:
 4104              	.LBE798:
 375:GrannyChordApp.cpp ****     prev_param_k2[mode_idx] = knob2_val;
 4105              		.loc 3 375 5 is_stmt 1 view .LVU1124
 375:GrannyChordApp.cpp ****     prev_param_k2[mode_idx] = knob2_val;
 4106              		.loc 3 375 22 is_stmt 0 view .LVU1125
 4107 0118 D4F89C12 		ldr	r1, [r4, #668]
 4108 011c 2046     		mov	r0, r4
 4109 011e B0EE480A 		vmov.f32	s0, s16
 376:GrannyChordApp.cpp ****     if (counter%96000==0){
 4110              		.loc 3 376 29 view .LVU1126
 4111 0122 04EB8504 		add	r4, r4, r5, lsl #2
 4112              	.LVL286:
 375:GrannyChordApp.cpp ****     prev_param_k2[mode_idx] = knob2_val;
 4113              		.loc 3 375 22 view .LVU1127
 4114 0126 FFF7FEFF 		bl	_ZN14GrannyChordApp17UpdateKnob2ParamsEf9SynthMode
 4115              	.LVL287:
 376:GrannyChordApp.cpp ****     if (counter%96000==0){
 4116              		.loc 3 376 5 is_stmt 1 view .LVU1128
 376:GrannyChordApp.cpp ****     if (counter%96000==0){
 4117              		.loc 3 376 29 is_stmt 0 view .LVU1129
 4118 012a 154A     		ldr	r2, .L182+16
 4119 012c D7F89032 		ldr	r3, [r7, #656]
 4120 0130 84ED018A 		vstr.32	s16, [r4, #4]
 377:GrannyChordApp.cpp ****       DebugPrint(pod_, "new k2v: %f",knob2_val);
 4121              		.loc 3 377 5 is_stmt 1 view .LVU1130
 376:GrannyChordApp.cpp ****     if (counter%96000==0){
 4122              		.loc 3 376 29 is_stmt 0 view .LVU1131
 4123 0134 5343     		muls	r3, r2, r3
 377:GrannyChordApp.cpp ****       DebugPrint(pod_, "new k2v: %f",knob2_val);
 4124              		.loc 3 377 5 view .LVU1132
 4125 0136 4AF6C362 		movw	r2, #44739
 4126 013a B2EB332F 		cmp	r2, r3, ror #8
 4127 013e 10D3     		bcc	.L157
 378:GrannyChordApp.cpp ****     }
 4128              		.loc 3 378 7 is_stmt 1 view .LVU1133
 378:GrannyChordApp.cpp ****     }
 4129              		.loc 3 378 7 view .LVU1134
 4130              	.LVL288:
 4131              	.LBB799:
 4132              	.LBI799:
 126:../libDaisy/src/daisy_seed.h ****     {
 4133              		.loc 5 126 17 view .LVU1135
 4134              	.LBB800:
 4135              		.loc 5 128 23 is_stmt 0 view .LVU1136
 4136 0140 B7EEC87A 		vcvt.f64.f32	d7, s16
 4137 0144 1048     		ldr	r0, .L182+24
 4138              	.LBE800:
 4139              	.LBE799:
 4140              	.LBE772:
ARM GAS  /var/folders/2p/02m_5p7958535cp2tpgps0400000gn/T//cclqaeHn.s 			page 126


 4141              	.LBE771:
 381:GrannyChordApp.cpp **** 
 4142              		.loc 3 381 1 view .LVU1137
 4143 0146 BDEC048B 		vldm	sp!, {d8-d9}
 4144              		.cfi_remember_state
 4145              		.cfi_restore 82
 4146              		.cfi_restore 83
 4147              		.cfi_restore 80
 4148              		.cfi_restore 81
 4149              		.cfi_def_cfa_offset 24
 4150              	.LVL289:
 4151              	.LBB809:
 4152              	.LBB807:
 4153              	.LBB803:
 4154              	.LBB801:
 4155              		.loc 5 128 23 view .LVU1138
 4156 014a 53EC172B 		vmov	r2, r3, d7
 4157              	.LBE801:
 4158              	.LBE803:
 4159              	.LBE807:
 4160              	.LBE809:
 381:GrannyChordApp.cpp **** 
 4161              		.loc 3 381 1 view .LVU1139
 4162 014e BDE8F041 		pop	{r4, r5, r6, r7, r8, lr}
 4163              		.cfi_restore 14
 4164              		.cfi_restore 8
 4165              		.cfi_restore 7
 4166              		.cfi_restore 6
 4167              		.cfi_restore 5
 4168              		.cfi_restore 4
 4169              		.cfi_def_cfa_offset 0
 4170              	.LVL290:
 4171              	.LBB810:
 4172              	.LBB808:
 4173              	.LBB804:
 4174              	.LBB802:
 4175              		.loc 5 128 23 view .LVU1140
 4176 0152 FFF7FEBF 		b	_ZN5daisy6LoggerILNS_17LoggerDestinationE1EE9PrintLineEPKcz
 4177              	.LVL291:
 4178              	.L171:
 4179              		.cfi_restore_state
 4180              		.loc 5 128 23 view .LVU1141
 4181              	.LBE802:
 4182              	.LBE804:
 4183              	.LBB805:
 4184              	.LBB776:
 703:GrannyChordApp.cpp ****   if (knob_val>=0.99f) return 1.0f;
 4185              		.loc 3 703 31 view .LVU1142
 4186 0156 DFED0D8A 		vldr.32	s17, .L182+28
 4187 015a 73E7     		b	.L160
 4188              	.LVL292:
 4189              	.L172:
 703:GrannyChordApp.cpp ****   if (knob_val>=0.99f) return 1.0f;
 4190              		.loc 3 703 31 view .LVU1143
 4191              	.LBE776:
 4192              	.LBE805:
 4193              	.LBB806:
ARM GAS  /var/folders/2p/02m_5p7958535cp2tpgps0400000gn/T//cclqaeHn.s 			page 127


 4194              	.LBB780:
 4195 015c 9FED0B8A 		vldr.32	s16, .L182+28
 4196 0160 84E7     		b	.L162
 4197              	.LVL293:
 4198              	.L157:
 703:GrannyChordApp.cpp ****   if (knob_val>=0.99f) return 1.0f;
 4199              		.loc 3 703 31 view .LVU1144
 4200              	.LBE780:
 4201              	.LBE806:
 4202              	.LBE808:
 4203              	.LBE810:
 381:GrannyChordApp.cpp **** 
 4204              		.loc 3 381 1 view .LVU1145
 4205 0162 BDEC048B 		vldm	sp!, {d8-d9}
 4206              		.cfi_restore 82
 4207              		.cfi_restore 83
 4208              		.cfi_restore 80
 4209              		.cfi_restore 81
 4210              		.cfi_def_cfa_offset 24
 4211 0166 BDE8F081 		pop	{r4, r5, r6, r7, r8, pc}
 4212              	.L183:
 4213 016a 00BFAFF3 		.align	3
 4213      0080
 4214              	.L182:
 4215 0170 2D431CEB 		.word	-350469331
 4216 0174 E2361A3F 		.word	1058682594
 4217 0178 0AD7233C 		.word	1008981770
 4218 017c A4707D3F 		.word	1065185444
 4219 0180 4728A3B7 		.word	-1214044089
 4220 0184 00000000 		.word	.LC10
 4221 0188 0C000000 		.word	.LC11
 4222 018c 00000000 		.word	0
 4223              		.cfi_endproc
 4224              	.LFE4930:
 4226              		.section	.rodata._ZN14GrannyChordApp15DebugPrintStateE8AppState.str1.1,"aMS",%progbits,1
 4227              	.LC12:
 4228 0000 53746174 		.ascii	"State now in: SelectFile\000"
 4228      65206E6F 
 4228      7720696E 
 4228      3A205365 
 4228      6C656374 
 4229              	.LC13:
 4230 0019 53746174 		.ascii	"State now in: RecordIn\000"
 4230      65206E6F 
 4230      7720696E 
 4230      3A205265 
 4230      636F7264 
 4231              	.LC14:
 4232 0030 53746174 		.ascii	"State now in: PlayWAV\000"
 4232      65206E6F 
 4232      7720696E 
 4232      3A20506C 
 4232      61795741 
 4233              	.LC15:
 4234 0046 53746174 		.ascii	"State now in: Synthesis\000"
 4234      65206E6F 
 4234      7720696E 
ARM GAS  /var/folders/2p/02m_5p7958535cp2tpgps0400000gn/T//cclqaeHn.s 			page 128


 4234      3A205379 
 4234      6E746865 
 4235              	.LC16:
 4236 005e 53746174 		.ascii	"State now in: Error\000"
 4236      65206E6F 
 4236      7720696E 
 4236      3A204572 
 4236      726F7200 
 4237              		.section	.text._ZN14GrannyChordApp15DebugPrintStateE8AppState,"ax",%progbits
 4238              		.align	1
 4239              		.global	_ZN14GrannyChordApp15DebugPrintStateE8AppState
 4240              		.syntax unified
 4241              		.thumb
 4242              		.thumb_func
 4244              	_ZN14GrannyChordApp15DebugPrintStateE8AppState:
 4245              	.LVL294:
 4246              	.LFB4950:
 713:GrannyChordApp.cpp ****     }
 714:GrannyChordApp.cpp ****     else return false;
 715:GrannyChordApp.cpp ****   }
 716:GrannyChordApp.cpp ****   else return true;
 717:GrannyChordApp.cpp **** }
 718:GrannyChordApp.cpp **** 
 719:GrannyChordApp.cpp **** 
 720:GrannyChordApp.cpp **** 
 721:GrannyChordApp.cpp **** void GrannyChordApp::DebugPrintState(AppState state){
 4247              		.loc 3 721 53 is_stmt 1 view -0
 4248              		.cfi_startproc
 4249              		@ args = 0, pretend = 0, frame = 0
 4250              		@ frame_needed = 0, uses_anonymous_args = 0
 4251              		@ link register save eliminated.
 722:GrannyChordApp.cpp ****   switch(state){
 4252              		.loc 3 722 3 view .LVU1147
 4253 0000 0329     		cmp	r1, #3
 4254 0002 0CD8     		bhi	.L185
 4255 0004 DFE801F0 		tbb	[pc, r1]
 4256              	.L187:
 4257 0008 02       		.byte	(.L190-.L187)/2
 4258 0009 07       		.byte	(.L189-.L187)/2
 4259 000a 09       		.byte	(.L188-.L187)/2
 4260 000b 05       		.byte	(.L186-.L187)/2
 4261              		.p2align 1
 4262              	.L190:
 723:GrannyChordApp.cpp ****     case AppState::SelectFile:
 4263              		.loc 3 723 5 view .LVU1148
 724:GrannyChordApp.cpp ****       DebugPrint(pod_, "State now in: SelectFile");
 4264              		.loc 3 724 7 view .LVU1149
 4265              		.loc 3 724 7 view .LVU1150
 4266              	.LVL295:
 4267              	.LBB811:
 4268              	.LBI811:
 126:../libDaisy/src/daisy_seed.h ****     {
 4269              		.loc 5 126 17 view .LVU1151
 4270              	.LBB812:
 4271              		.loc 5 128 23 is_stmt 0 view .LVU1152
 4272 000c 0548     		ldr	r0, .L192
 4273              	.LVL296:
ARM GAS  /var/folders/2p/02m_5p7958535cp2tpgps0400000gn/T//cclqaeHn.s 			page 129


 4274              	.L191:
 4275              		.loc 5 128 23 view .LVU1153
 4276              	.LBE812:
 4277              	.LBE811:
 4278              	.LBB813:
 4279              	.LBB814:
 4280 000e FFF7FEBF 		b	_ZN5daisy6LoggerILNS_17LoggerDestinationE1EE9PrintLineEPKcz
 4281              	.LVL297:
 4282              	.L186:
 4283              		.loc 5 128 23 view .LVU1154
 4284              	.LBE814:
 4285              	.LBE813:
 725:GrannyChordApp.cpp ****       return;
 726:GrannyChordApp.cpp ****     case AppState::RecordIn:
 4286              		.loc 3 726 5 is_stmt 1 view .LVU1155
 727:GrannyChordApp.cpp ****       DebugPrint(pod_, "State now in: RecordIn");
 4287              		.loc 3 727 7 view .LVU1156
 4288              		.loc 3 727 7 view .LVU1157
 4289              	.LBB816:
 4290              	.LBI816:
 126:../libDaisy/src/daisy_seed.h ****     {
 4291              		.loc 5 126 17 view .LVU1158
 4292              	.LBB817:
 4293              		.loc 5 128 23 is_stmt 0 view .LVU1159
 4294 0012 0548     		ldr	r0, .L192+4
 4295              	.LVL298:
 4296              		.loc 5 128 23 view .LVU1160
 4297 0014 FBE7     		b	.L191
 4298              	.LVL299:
 4299              	.L189:
 4300              		.loc 5 128 23 view .LVU1161
 4301              	.LBE817:
 4302              	.LBE816:
 728:GrannyChordApp.cpp ****       return;
 729:GrannyChordApp.cpp ****     case AppState::PlayWAV:
 4303              		.loc 3 729 5 is_stmt 1 view .LVU1162
 730:GrannyChordApp.cpp ****       DebugPrint(pod_, "State now in: PlayWAV");
 4304              		.loc 3 730 7 view .LVU1163
 4305              		.loc 3 730 7 view .LVU1164
 4306              	.LBB818:
 4307              	.LBI818:
 126:../libDaisy/src/daisy_seed.h ****     {
 4308              		.loc 5 126 17 view .LVU1165
 4309              	.LBB819:
 4310              		.loc 5 128 23 is_stmt 0 view .LVU1166
 4311 0016 0548     		ldr	r0, .L192+8
 4312              	.LVL300:
 4313              		.loc 5 128 23 view .LVU1167
 4314 0018 F9E7     		b	.L191
 4315              	.LVL301:
 4316              	.L188:
 4317              		.loc 5 128 23 view .LVU1168
 4318              	.LBE819:
 4319              	.LBE818:
 731:GrannyChordApp.cpp ****       return;
 732:GrannyChordApp.cpp ****     case AppState::Synthesis:
 4320              		.loc 3 732 5 is_stmt 1 view .LVU1169
ARM GAS  /var/folders/2p/02m_5p7958535cp2tpgps0400000gn/T//cclqaeHn.s 			page 130


 733:GrannyChordApp.cpp ****       DebugPrint(pod_, "State now in: Synthesis");
 4321              		.loc 3 733 7 view .LVU1170
 4322              		.loc 3 733 7 view .LVU1171
 4323              	.LBB820:
 4324              	.LBI820:
 126:../libDaisy/src/daisy_seed.h ****     {
 4325              		.loc 5 126 17 view .LVU1172
 4326              	.LBB821:
 4327              		.loc 5 128 23 is_stmt 0 view .LVU1173
 4328 001a 0548     		ldr	r0, .L192+12
 4329              	.LVL302:
 4330              		.loc 5 128 23 view .LVU1174
 4331 001c F7E7     		b	.L191
 4332              	.LVL303:
 4333              	.L185:
 4334              		.loc 5 128 23 view .LVU1175
 4335              	.LBE821:
 4336              	.LBE820:
 734:GrannyChordApp.cpp ****       return;
 735:GrannyChordApp.cpp ****     // case AppState::ChordMode:
 736:GrannyChordApp.cpp ****       DebugPrint(pod_, "State now in: ChordMode");
 737:GrannyChordApp.cpp ****     case AppState::Error:
 4337              		.loc 3 737 5 is_stmt 1 view .LVU1176
 738:GrannyChordApp.cpp ****     default:
 4338              		.loc 3 738 5 view .LVU1177
 739:GrannyChordApp.cpp ****       DebugPrint(pod_, "State now in: Error");
 4339              		.loc 3 739 7 view .LVU1178
 4340              		.loc 3 739 7 view .LVU1179
 4341              	.LBB822:
 4342              	.LBI813:
 126:../libDaisy/src/daisy_seed.h ****     {
 4343              		.loc 5 126 17 view .LVU1180
 4344              	.LBB815:
 4345              		.loc 5 128 23 is_stmt 0 view .LVU1181
 4346 001e 0548     		ldr	r0, .L192+16
 4347              	.LVL304:
 4348              		.loc 5 128 23 view .LVU1182
 4349 0020 F5E7     		b	.L191
 4350              	.L193:
 4351 0022 00BF     		.align	2
 4352              	.L192:
 4353 0024 00000000 		.word	.LC12
 4354 0028 19000000 		.word	.LC13
 4355 002c 30000000 		.word	.LC14
 4356 0030 46000000 		.word	.LC15
 4357 0034 5E000000 		.word	.LC16
 4358              	.LBE815:
 4359              	.LBE822:
 4360              		.cfi_endproc
 4361              	.LFE4950:
 4363              		.section	.rodata._ZN14GrannyChordApp14DebugPrintModeE9SynthMode.str1.1,"aMS",%progbits,1
 4364              	.LC17:
 4365 0000 53746174 		.ascii	"State now in: SizePos\000"
 4365      65206E6F 
 4365      7720696E 
 4365      3A205369 
 4365      7A65506F 
ARM GAS  /var/folders/2p/02m_5p7958535cp2tpgps0400000gn/T//cclqaeHn.s 			page 131


 4366              	.LC18:
 4367 0016 53746174 		.ascii	"State now in: PitchGrains\000"
 4367      65206E6F 
 4367      7720696E 
 4367      3A205069 
 4367      74636847 
 4368              	.LC19:
 4369 0030 53746174 		.ascii	"State now in: PanDirection\000"
 4369      65206E6F 
 4369      7720696E 
 4369      3A205061 
 4369      6E446972 
 4370              	.LC20:
 4371 004b 53746174 		.ascii	"State now in: RndAmt/Freq\000"
 4371      65206E6F 
 4371      7720696E 
 4371      3A20526E 
 4371      64416D74 
 4372              	.LC21:
 4373 0065 53746174 		.ascii	"State now in: StereoRotate\000"
 4373      65206E6F 
 4373      7720696E 
 4373      3A205374 
 4373      6572656F 
 4374              	.LC22:
 4375 0080 53746174 		.ascii	"State now in: Chorus\000"
 4375      65206E6F 
 4375      7720696E 
 4375      3A204368 
 4375      6F727573 
 4376              	.LC23:
 4377 0095 53746174 		.ascii	"State now in: Reverb\000"
 4377      65206E6F 
 4377      7720696E 
 4377      3A205265 
 4377      76657262 
 4378              	.LC24:
 4379 00aa 53746174 		.ascii	"State now in: Filter\000"
 4379      65206E6F 
 4379      7720696E 
 4379      3A204669 
 4379      6C746572 
 4380              		.section	.text._ZN14GrannyChordApp14DebugPrintModeE9SynthMode,"ax",%progbits
 4381              		.align	1
 4382              		.global	_ZN14GrannyChordApp14DebugPrintModeE9SynthMode
 4383              		.syntax unified
 4384              		.thumb
 4385              		.thumb_func
 4387              	_ZN14GrannyChordApp14DebugPrintModeE9SynthMode:
 4388              	.LVL305:
 4389              	.LFB4951:
 740:GrannyChordApp.cpp ****       return;
 741:GrannyChordApp.cpp ****   }
 742:GrannyChordApp.cpp **** };
 743:GrannyChordApp.cpp **** 
 744:GrannyChordApp.cpp **** void GrannyChordApp::DebugPrintMode(SynthMode mode){
 4390              		.loc 3 744 52 is_stmt 1 view -0
ARM GAS  /var/folders/2p/02m_5p7958535cp2tpgps0400000gn/T//cclqaeHn.s 			page 132


 4391              		.cfi_startproc
 4392              		@ args = 0, pretend = 0, frame = 0
 4393              		@ frame_needed = 0, uses_anonymous_args = 0
 4394              		@ link register save eliminated.
 745:GrannyChordApp.cpp ****   switch(mode){
 4395              		.loc 3 745 3 view .LVU1184
 4396 0000 0729     		cmp	r1, #7
 4397 0002 16D8     		bhi	.L194
 4398 0004 DFE801F0 		tbb	[pc, r1]
 4399              	.L197:
 4400 0008 04       		.byte	(.L204-.L197)/2
 4401 0009 07       		.byte	(.L203-.L197)/2
 4402 000a 09       		.byte	(.L202-.L197)/2
 4403 000b 0B       		.byte	(.L201-.L197)/2
 4404 000c 0D       		.byte	(.L200-.L197)/2
 4405 000d 0F       		.byte	(.L199-.L197)/2
 4406 000e 11       		.byte	(.L198-.L197)/2
 4407 000f 13       		.byte	(.L196-.L197)/2
 4408              		.p2align 1
 4409              	.L204:
 746:GrannyChordApp.cpp ****     case SynthMode::Size_Position:
 4410              		.loc 3 746 5 view .LVU1185
 747:GrannyChordApp.cpp ****       DebugPrint(pod_, "State now in: SizePos");
 4411              		.loc 3 747 7 view .LVU1186
 4412              		.loc 3 747 7 view .LVU1187
 4413              	.LVL306:
 4414              	.LBB823:
 4415              	.LBI823:
 126:../libDaisy/src/daisy_seed.h ****     {
 4416              		.loc 5 126 17 view .LVU1188
 4417              	.LBB824:
 4418              		.loc 5 128 23 is_stmt 0 view .LVU1189
 4419 0010 0848     		ldr	r0, .L206
 4420              	.LVL307:
 4421              	.L205:
 4422              		.loc 5 128 23 view .LVU1190
 4423              	.LBE824:
 4424              	.LBE823:
 4425              	.LBB825:
 4426              	.LBB826:
 4427 0012 FFF7FEBF 		b	_ZN5daisy6LoggerILNS_17LoggerDestinationE1EE9PrintLineEPKcz
 4428              	.LVL308:
 4429              	.L203:
 4430              		.loc 5 128 23 view .LVU1191
 4431              	.LBE826:
 4432              	.LBE825:
 748:GrannyChordApp.cpp ****       return;
 749:GrannyChordApp.cpp ****     case SynthMode::Pitch_ActiveGrains:
 4433              		.loc 3 749 5 is_stmt 1 view .LVU1192
 750:GrannyChordApp.cpp ****       DebugPrint(pod_, "State now in: PitchGrains");
 4434              		.loc 3 750 7 view .LVU1193
 4435              		.loc 3 750 7 view .LVU1194
 4436              	.LBB828:
 4437              	.LBI828:
 126:../libDaisy/src/daisy_seed.h ****     {
 4438              		.loc 5 126 17 view .LVU1195
 4439              	.LBB829:
ARM GAS  /var/folders/2p/02m_5p7958535cp2tpgps0400000gn/T//cclqaeHn.s 			page 133


 4440              		.loc 5 128 23 is_stmt 0 view .LVU1196
 4441 0016 0848     		ldr	r0, .L206+4
 4442              	.LVL309:
 4443              		.loc 5 128 23 view .LVU1197
 4444 0018 FBE7     		b	.L205
 4445              	.LVL310:
 4446              	.L202:
 4447              		.loc 5 128 23 view .LVU1198
 4448              	.LBE829:
 4449              	.LBE828:
 751:GrannyChordApp.cpp ****       return;
 752:GrannyChordApp.cpp ****     case SynthMode::Pan_Direction:
 4450              		.loc 3 752 5 is_stmt 1 view .LVU1199
 753:GrannyChordApp.cpp ****       DebugPrint(pod_, "State now in: PanDirection");
 4451              		.loc 3 753 7 view .LVU1200
 4452              		.loc 3 753 7 view .LVU1201
 4453              	.LBB830:
 4454              	.LBI830:
 126:../libDaisy/src/daisy_seed.h ****     {
 4455              		.loc 5 126 17 view .LVU1202
 4456              	.LBB831:
 4457              		.loc 5 128 23 is_stmt 0 view .LVU1203
 4458 001a 0848     		ldr	r0, .L206+8
 4459              	.LVL311:
 4460              		.loc 5 128 23 view .LVU1204
 4461 001c F9E7     		b	.L205
 4462              	.LVL312:
 4463              	.L201:
 4464              		.loc 5 128 23 view .LVU1205
 4465              	.LBE831:
 4466              	.LBE830:
 754:GrannyChordApp.cpp ****       return;
 755:GrannyChordApp.cpp ****     case SynthMode::RndAmount_RndFreq:
 4467              		.loc 3 755 5 is_stmt 1 view .LVU1206
 756:GrannyChordApp.cpp ****       DebugPrint(pod_, "State now in: RndAmt/Freq");
 4468              		.loc 3 756 7 view .LVU1207
 4469              		.loc 3 756 7 view .LVU1208
 4470              	.LBB832:
 4471              	.LBI832:
 126:../libDaisy/src/daisy_seed.h ****     {
 4472              		.loc 5 126 17 view .LVU1209
 4473              	.LBB833:
 4474              		.loc 5 128 23 is_stmt 0 view .LVU1210
 4475 001e 0848     		ldr	r0, .L206+12
 4476              	.LVL313:
 4477              		.loc 5 128 23 view .LVU1211
 4478 0020 F7E7     		b	.L205
 4479              	.LVL314:
 4480              	.L200:
 4481              		.loc 5 128 23 view .LVU1212
 4482              	.LBE833:
 4483              	.LBE832:
 757:GrannyChordApp.cpp ****       return;
 758:GrannyChordApp.cpp ****     case SynthMode::StereoRotate:
 4484              		.loc 3 758 5 is_stmt 1 view .LVU1213
 759:GrannyChordApp.cpp ****       DebugPrint(pod_, "State now in: StereoRotate");
 4485              		.loc 3 759 7 view .LVU1214
ARM GAS  /var/folders/2p/02m_5p7958535cp2tpgps0400000gn/T//cclqaeHn.s 			page 134


 4486              		.loc 3 759 7 view .LVU1215
 4487              	.LBB834:
 4488              	.LBI834:
 126:../libDaisy/src/daisy_seed.h ****     {
 4489              		.loc 5 126 17 view .LVU1216
 4490              	.LBB835:
 4491              		.loc 5 128 23 is_stmt 0 view .LVU1217
 4492 0022 0848     		ldr	r0, .L206+16
 4493              	.LVL315:
 4494              		.loc 5 128 23 view .LVU1218
 4495 0024 F5E7     		b	.L205
 4496              	.LVL316:
 4497              	.L199:
 4498              		.loc 5 128 23 view .LVU1219
 4499              	.LBE835:
 4500              	.LBE834:
 760:GrannyChordApp.cpp ****       return;
 761:GrannyChordApp.cpp ****     case SynthMode::Chorus:
 4501              		.loc 3 761 5 is_stmt 1 view .LVU1220
 762:GrannyChordApp.cpp ****       DebugPrint(pod_, "State now in: Chorus");
 4502              		.loc 3 762 7 view .LVU1221
 4503              		.loc 3 762 7 view .LVU1222
 4504              	.LBB836:
 4505              	.LBI836:
 126:../libDaisy/src/daisy_seed.h ****     {
 4506              		.loc 5 126 17 view .LVU1223
 4507              	.LBB837:
 4508              		.loc 5 128 23 is_stmt 0 view .LVU1224
 4509 0026 0848     		ldr	r0, .L206+20
 4510              	.LVL317:
 4511              		.loc 5 128 23 view .LVU1225
 4512 0028 F3E7     		b	.L205
 4513              	.LVL318:
 4514              	.L198:
 4515              		.loc 5 128 23 view .LVU1226
 4516              	.LBE837:
 4517              	.LBE836:
 763:GrannyChordApp.cpp ****       return;
 764:GrannyChordApp.cpp ****     case SynthMode::Reverb:
 4518              		.loc 3 764 5 is_stmt 1 view .LVU1227
 765:GrannyChordApp.cpp ****       DebugPrint(pod_, "State now in: Reverb");
 4519              		.loc 3 765 7 view .LVU1228
 4520              		.loc 3 765 7 view .LVU1229
 4521              	.LBB838:
 4522              	.LBI838:
 126:../libDaisy/src/daisy_seed.h ****     {
 4523              		.loc 5 126 17 view .LVU1230
 4524              	.LBB839:
 4525              		.loc 5 128 23 is_stmt 0 view .LVU1231
 4526 002a 0848     		ldr	r0, .L206+24
 4527              	.LVL319:
 4528              		.loc 5 128 23 view .LVU1232
 4529 002c F1E7     		b	.L205
 4530              	.LVL320:
 4531              	.L196:
 4532              		.loc 5 128 23 view .LVU1233
 4533              	.LBE839:
ARM GAS  /var/folders/2p/02m_5p7958535cp2tpgps0400000gn/T//cclqaeHn.s 			page 135


 4534              	.LBE838:
 766:GrannyChordApp.cpp ****       return;
 767:GrannyChordApp.cpp ****     case SynthMode::Filter:
 4535              		.loc 3 767 5 is_stmt 1 view .LVU1234
 768:GrannyChordApp.cpp ****       DebugPrint(pod_, "State now in: Filter");
 4536              		.loc 3 768 7 view .LVU1235
 4537              		.loc 3 768 7 view .LVU1236
 4538              	.LBB840:
 4539              	.LBI825:
 126:../libDaisy/src/daisy_seed.h ****     {
 4540              		.loc 5 126 17 view .LVU1237
 4541              	.LBB827:
 4542              		.loc 5 128 23 is_stmt 0 view .LVU1238
 4543 002e 0848     		ldr	r0, .L206+28
 4544              	.LVL321:
 4545              		.loc 5 128 23 view .LVU1239
 4546 0030 EFE7     		b	.L205
 4547              	.LVL322:
 4548              	.L194:
 4549              		.loc 5 128 23 view .LVU1240
 4550              	.LBE827:
 4551              	.LBE840:
 769:GrannyChordApp.cpp ****       return;
 770:GrannyChordApp.cpp ****   }
 771:GrannyChordApp.cpp **** };
 4552              		.loc 3 771 1 view .LVU1241
 4553 0032 7047     		bx	lr
 4554              	.L207:
 4555              		.align	2
 4556              	.L206:
 4557 0034 00000000 		.word	.LC17
 4558 0038 16000000 		.word	.LC18
 4559 003c 30000000 		.word	.LC19
 4560 0040 4B000000 		.word	.LC20
 4561 0044 65000000 		.word	.LC21
 4562 0048 80000000 		.word	.LC22
 4563 004c 95000000 		.word	.LC23
 4564 0050 AA000000 		.word	.LC24
 4565              		.cfi_endproc
 4566              	.LFE4951:
 4568              		.section	.text._ZN14GrannyChordApp11InitColoursEv,"ax",%progbits
 4569              		.align	1
 4570              		.global	_ZN14GrannyChordApp11InitColoursEv
 4571              		.syntax unified
 4572              		.thumb
 4573              		.thumb_func
 4575              	_ZN14GrannyChordApp11InitColoursEv:
 4576              	.LVL323:
 4577              	.LFB4952:
 772:GrannyChordApp.cpp **** 
 773:GrannyChordApp.cpp **** void GrannyChordApp::InitColours(){
 4578              		.loc 3 773 35 is_stmt 1 view -0
 4579              		.cfi_startproc
 4580              		@ args = 0, pretend = 0, frame = 0
 4581              		@ frame_needed = 0, uses_anonymous_args = 0
 774:GrannyChordApp.cpp ****   colours.BLUE.Init(Color::PresetColor::BLUE);
 4582              		.loc 3 774 3 view .LVU1243
ARM GAS  /var/folders/2p/02m_5p7958535cp2tpgps0400000gn/T//cclqaeHn.s 			page 136


 773:GrannyChordApp.cpp ****   colours.BLUE.Init(Color::PresetColor::BLUE);
 4583              		.loc 3 773 35 is_stmt 0 view .LVU1244
 4584 0000 10B5     		push	{r4, lr}
 4585              		.cfi_def_cfa_offset 8
 4586              		.cfi_offset 4, -8
 4587              		.cfi_offset 14, -4
 4588 0002 0446     		mov	r4, r0
 4589              		.loc 3 774 20 view .LVU1245
 4590 0004 00F55240 		add	r0, r0, #53760
 4591              	.LVL324:
 4592              		.loc 3 774 20 view .LVU1246
 4593 0008 0221     		movs	r1, #2
 4594 000a 2C30     		adds	r0, r0, #44
 773:GrannyChordApp.cpp ****   colours.BLUE.Init(Color::PresetColor::BLUE);
 4595              		.loc 3 773 35 view .LVU1247
 4596 000c 2DED028B 		vpush.64	{d8}
 4597              		.cfi_def_cfa_offset 16
 4598              		.cfi_offset 80, -16
 4599              		.cfi_offset 81, -12
 4600              		.loc 3 774 20 view .LVU1248
 4601 0010 FFF7FEFF 		bl	_ZN5daisy5Color4InitENS0_11PresetColorE
 4602              	.LVL325:
 775:GrannyChordApp.cpp ****   colours.GREEN.Init(Color::PresetColor::GREEN);
 4603              		.loc 3 775 3 is_stmt 1 view .LVU1249
 4604              		.loc 3 775 21 is_stmt 0 view .LVU1250
 4605 0014 04F55240 		add	r0, r4, #53760
 4606 0018 0121     		movs	r1, #1
 776:GrannyChordApp.cpp ****   colours.RED.Init(Color::PresetColor::RED);
 777:GrannyChordApp.cpp ****   colours.CYAN.Init(0,255,255);
 4607              		.loc 3 777 20 view .LVU1251
 4608 001a 9FED1F8A 		vldr.32	s16, .L209
 775:GrannyChordApp.cpp ****   colours.GREEN.Init(Color::PresetColor::GREEN);
 4609              		.loc 3 775 21 view .LVU1252
 4610 001e 3830     		adds	r0, r0, #56
 4611              		.loc 3 777 20 view .LVU1253
 4612 0020 DFED1E8A 		vldr.32	s17, .L209+4
 775:GrannyChordApp.cpp ****   colours.GREEN.Init(Color::PresetColor::GREEN);
 4613              		.loc 3 775 21 view .LVU1254
 4614 0024 FFF7FEFF 		bl	_ZN5daisy5Color4InitENS0_11PresetColorE
 4615              	.LVL326:
 776:GrannyChordApp.cpp ****   colours.RED.Init(Color::PresetColor::RED);
 4616              		.loc 3 776 3 is_stmt 1 view .LVU1255
 776:GrannyChordApp.cpp ****   colours.RED.Init(Color::PresetColor::RED);
 4617              		.loc 3 776 19 is_stmt 0 view .LVU1256
 4618 0028 04F55240 		add	r0, r4, #53760
 4619 002c 0021     		movs	r1, #0
 4620 002e 4430     		adds	r0, r0, #68
 4621 0030 FFF7FEFF 		bl	_ZN5daisy5Color4InitENS0_11PresetColorE
 4622              	.LVL327:
 4623              		.loc 3 777 3 is_stmt 1 view .LVU1257
 4624              		.loc 3 777 20 is_stmt 0 view .LVU1258
 4625 0034 04F55240 		add	r0, r4, #53760
 4626 0038 B0EE481A 		vmov.f32	s2, s16
 4627 003c F0EE480A 		vmov.f32	s1, s16
 4628 0040 5030     		adds	r0, r0, #80
 4629 0042 B0EE680A 		vmov.f32	s0, s17
 4630 0046 FFF7FEFF 		bl	_ZN5daisy5Color4InitEfff
ARM GAS  /var/folders/2p/02m_5p7958535cp2tpgps0400000gn/T//cclqaeHn.s 			page 137


 4631              	.LVL328:
 778:GrannyChordApp.cpp ****   colours.PURPLE.Init(Color::PresetColor::PURPLE);
 4632              		.loc 3 778 3 is_stmt 1 view .LVU1259
 4633              		.loc 3 778 22 is_stmt 0 view .LVU1260
 4634 004a 04F55240 		add	r0, r4, #53760
 4635 004e 0421     		movs	r1, #4
 4636 0050 5C30     		adds	r0, r0, #92
 4637 0052 FFF7FEFF 		bl	_ZN5daisy5Color4InitENS0_11PresetColorE
 4638              	.LVL329:
 779:GrannyChordApp.cpp ****   colours.ORANGE.Init(Color::PresetColor::GOLD);
 4639              		.loc 3 779 3 is_stmt 1 view .LVU1261
 4640              		.loc 3 779 22 is_stmt 0 view .LVU1262
 4641 0056 04F55240 		add	r0, r4, #53760
 4642 005a 0621     		movs	r1, #6
 4643 005c 6830     		adds	r0, r0, #104
 4644 005e FFF7FEFF 		bl	_ZN5daisy5Color4InitENS0_11PresetColorE
 4645              	.LVL330:
 780:GrannyChordApp.cpp ****   colours.YELLOW.Init(255,255,0);
 4646              		.loc 3 780 3 is_stmt 1 view .LVU1263
 4647              		.loc 3 780 22 is_stmt 0 view .LVU1264
 4648 0062 04F55240 		add	r0, r4, #53760
 4649 0066 B0EE681A 		vmov.f32	s2, s17
 4650 006a F0EE480A 		vmov.f32	s1, s16
 4651 006e 7430     		adds	r0, r0, #116
 4652 0070 B0EE480A 		vmov.f32	s0, s16
 4653 0074 FFF7FEFF 		bl	_ZN5daisy5Color4InitEfff
 4654              	.LVL331:
 781:GrannyChordApp.cpp ****   colours.PINK.Init(255,0,255);
 4655              		.loc 3 781 3 is_stmt 1 view .LVU1265
 4656              		.loc 3 781 20 is_stmt 0 view .LVU1266
 4657 0078 04F55240 		add	r0, r4, #53760
 4658 007c B0EE481A 		vmov.f32	s2, s16
 4659 0080 F0EE680A 		vmov.f32	s1, s17
 4660 0084 8030     		adds	r0, r0, #128
 4661 0086 B0EE480A 		vmov.f32	s0, s16
 782:GrannyChordApp.cpp **** }
 4662              		.loc 3 782 1 view .LVU1267
 4663 008a BDEC028B 		vldm	sp!, {d8}
 4664              		.cfi_restore 80
 4665              		.cfi_restore 81
 4666              		.cfi_def_cfa_offset 8
 4667 008e BDE81040 		pop	{r4, lr}
 4668              		.cfi_restore 14
 4669              		.cfi_restore 4
 4670              		.cfi_def_cfa_offset 0
 4671              	.LVL332:
 781:GrannyChordApp.cpp ****   colours.PINK.Init(255,0,255);
 4672              		.loc 3 781 20 view .LVU1268
 4673 0092 FFF7FEBF 		b	_ZN5daisy5Color4InitEfff
 4674              	.LVL333:
 4675              	.L210:
 781:GrannyChordApp.cpp ****   colours.PINK.Init(255,0,255);
 4676              		.loc 3 781 20 view .LVU1269
 4677 0096 00BF     		.align	2
 4678              	.L209:
 4679 0098 00007F43 		.word	1132396544
 4680 009c 00000000 		.word	0
ARM GAS  /var/folders/2p/02m_5p7958535cp2tpgps0400000gn/T//cclqaeHn.s 			page 138


 4681              		.cfi_endproc
 4682              	.LFE4952:
 4684              		.section	.text._ZN14GrannyChordApp14SetLedAppStateEv,"ax",%progbits
 4685              		.align	1
 4686              		.global	_ZN14GrannyChordApp14SetLedAppStateEv
 4687              		.syntax unified
 4688              		.thumb
 4689              		.thumb_func
 4691              	_ZN14GrannyChordApp14SetLedAppStateEv:
 4692              	.LVL334:
 4693              	.LFB4953:
 783:GrannyChordApp.cpp **** 
 784:GrannyChordApp.cpp **** /// @brief sets led colours based on app state
 785:GrannyChordApp.cpp **** void GrannyChordApp::SetLedAppState(){
 4694              		.loc 3 785 38 is_stmt 1 view -0
 4695              		.cfi_startproc
 4696              		@ args = 0, pretend = 0, frame = 16
 4697              		@ frame_needed = 0, uses_anonymous_args = 0
 786:GrannyChordApp.cpp ****   switch(next_state_){
 4698              		.loc 3 786 3 view .LVU1271
 785:GrannyChordApp.cpp ****   switch(next_state_){
 4699              		.loc 3 785 38 is_stmt 0 view .LVU1272
 4700 0000 7FB5     		push	{r0, r1, r2, r3, r4, r5, r6, lr}
 4701              		.cfi_def_cfa_offset 32
 4702              		.cfi_offset 4, -16
 4703              		.cfi_offset 5, -12
 4704              		.cfi_offset 6, -8
 4705              		.cfi_offset 14, -4
 4706              		.loc 3 786 3 view .LVU1273
 4707 0002 D0F89822 		ldr	r2, [r0, #664]
 785:GrannyChordApp.cpp ****   switch(next_state_){
 4708              		.loc 3 785 38 view .LVU1274
 4709 0006 0446     		mov	r4, r0
 787:GrannyChordApp.cpp ****     case AppState::SelectFile:
 788:GrannyChordApp.cpp ****       pod_.led1.SetColor(colours.GREEN);
 4710              		.loc 3 788 7 view .LVU1275
 4711 0008 C369     		ldr	r3, [r0, #28]
 786:GrannyChordApp.cpp ****     case AppState::SelectFile:
 4712              		.loc 3 786 3 view .LVU1276
 4713 000a 052A     		cmp	r2, #5
 4714 000c 10D8     		bhi	.L212
 4715 000e DFE802F0 		tbb	[pc, r2]
 4716              	.L214:
 4717 0012 03       		.byte	(.L219-.L214)/2
 4718 0013 24       		.byte	(.L218-.L214)/2
 4719 0014 29       		.byte	(.L217-.L214)/2
 4720 0015 2E       		.byte	(.L216-.L214)/2
 4721 0016 33       		.byte	(.L215-.L214)/2
 4722 0017 38       		.byte	(.L213-.L214)/2
 4723              		.p2align 1
 4724              	.L219:
 787:GrannyChordApp.cpp ****     case AppState::SelectFile:
 4725              		.loc 3 787 5 is_stmt 1 view .LVU1277
 4726              		.loc 3 788 7 view .LVU1278
 4727              		.loc 3 788 34 is_stmt 0 view .LVU1279
 4728 0018 00F55242 		add	r2, r0, #53760
 4729 001c 01AD     		add	r5, sp, #4
ARM GAS  /var/folders/2p/02m_5p7958535cp2tpgps0400000gn/T//cclqaeHn.s 			page 139


 4730 001e 3832     		adds	r2, r2, #56
 4731              	.L225:
 789:GrannyChordApp.cpp ****       break;
 790:GrannyChordApp.cpp ****     case AppState::PlayWAV:
 791:GrannyChordApp.cpp ****       pod_.led1.SetColor(colours.CYAN);
 792:GrannyChordApp.cpp ****       break;
 793:GrannyChordApp.cpp ****     case AppState::Synthesis:
 794:GrannyChordApp.cpp ****       pod_.led1.SetColor(colours.BLUE);
 795:GrannyChordApp.cpp ****       break;
 796:GrannyChordApp.cpp ****     case AppState::RecordIn:
 797:GrannyChordApp.cpp ****       pod_.led1.SetColor(colours.YELLOW);
 798:GrannyChordApp.cpp ****       break;
 799:GrannyChordApp.cpp ****     case AppState::ChordMode:
 800:GrannyChordApp.cpp ****       pod_.led1.SetColor(colours.PURPLE);
 4732              		.loc 3 800 34 view .LVU1280
 4733 0020 07CA     		ldm	r2, {r0, r1, r2}
 4734              	.LVL335:
 4735              		.loc 3 800 34 view .LVU1281
 4736 0022 85E80700 		stm	r5, {r0, r1, r2}
 4737              		.loc 3 800 25 view .LVU1282
 4738 0026 2946     		mov	r1, r5
 4739 0028 03F1D800 		add	r0, r3, #216
 4740              	.L224:
 801:GrannyChordApp.cpp ****       break;
 802:GrannyChordApp.cpp ****     case AppState::Error:
 803:GrannyChordApp.cpp ****       pod_.led1.SetColor(colours.RED);
 804:GrannyChordApp.cpp ****       pod_.led2.SetColor(colours.RED);
 4741              		.loc 3 804 25 view .LVU1283
 4742 002c FFF7FEFF 		bl	_ZN5daisy6RgbLed8SetColorENS_5ColorE
 4743              	.LVL336:
 4744              	.LBB841:
 4745              	.LBI841:
 4746              		.file 17 "../libDaisy/src/util/color.h"
   1:../libDaisy/src/util/color.h **** /* 
   2:../libDaisy/src/util/color.h **** TODO:
   3:../libDaisy/src/util/color.h **** - Add Blend(), Scale(), etc.
   4:../libDaisy/src/util/color.h **** - I'd also like to change the way the Color names are accessed.
   5:../libDaisy/src/util/color.h **** */
   6:../libDaisy/src/util/color.h **** /**        I'd like for it to be easy and not `Color::PresetColor::Foo`
   7:../libDaisy/src/util/color.h **** */
   8:../libDaisy/src/util/color.h **** /** - There's no way to change a color once its been created (without unintuitively reiniting it).
   9:../libDaisy/src/util/color.h **** */
  10:../libDaisy/src/util/color.h **** #pragma once
  11:../libDaisy/src/util/color.h **** #ifndef DSY_COLOR_H
  12:../libDaisy/src/util/color.h **** #define DSY_COLOR_H
  13:../libDaisy/src/util/color.h **** #include <stdint.h>
  14:../libDaisy/src/util/color.h **** 
  15:../libDaisy/src/util/color.h **** 
  16:../libDaisy/src/util/color.h **** namespace daisy
  17:../libDaisy/src/util/color.h **** {
  18:../libDaisy/src/util/color.h **** /** @addtogroup utility
  19:../libDaisy/src/util/color.h ****     @{
  20:../libDaisy/src/util/color.h **** */
  21:../libDaisy/src/util/color.h **** 
  22:../libDaisy/src/util/color.h **** /** Class for handling simple colors */
  23:../libDaisy/src/util/color.h **** class Color
  24:../libDaisy/src/util/color.h **** {
ARM GAS  /var/folders/2p/02m_5p7958535cp2tpgps0400000gn/T//cclqaeHn.s 			page 140


  25:../libDaisy/src/util/color.h ****   public:
  26:../libDaisy/src/util/color.h ****     Color() {}
  27:../libDaisy/src/util/color.h ****     ~Color() {}
 4747              		.loc 17 27 5 is_stmt 1 view .LVU1284
 4748              		.loc 17 27 5 is_stmt 0 view .LVU1285
 4749              	.LBE841:
 805:GrannyChordApp.cpp ****       break;
 4750              		.loc 3 805 7 is_stmt 1 view .LVU1286
 4751              	.L212:
 806:GrannyChordApp.cpp ****     default:
 807:GrannyChordApp.cpp ****       break;
 808:GrannyChordApp.cpp ****   }
 809:GrannyChordApp.cpp ****   if (curr_state_ != AppState::Synthesis) pod_.led2.Set(0,0,0); /* turn off led2 */
 4752              		.loc 3 809 3 view .LVU1287
 4753 0030 D4F89432 		ldr	r3, [r4, #660]
 4754 0034 022B     		cmp	r3, #2
 4755 0036 0AD0     		beq	.L220
 4756              		.loc 3 809 43 discriminator 1 view .LVU1288
 4757              		.loc 3 809 56 is_stmt 0 discriminator 1 view .LVU1289
 4758 0038 9FED1D1A 		vldr.32	s2, .L226
 4759 003c E069     		ldr	r0, [r4, #28]
 4760 003e F0EE410A 		vmov.f32	s1, s2
 4761 0042 B0EE410A 		vmov.f32	s0, s2
 4762 0046 00F59670 		add	r0, r0, #300
 4763 004a FFF7FEFF 		bl	_ZN5daisy6RgbLed3SetEfff
 4764              	.LVL337:
 4765              	.L220:
 810:GrannyChordApp.cpp ****   pod_.UpdateLeds();
 4766              		.loc 3 810 3 is_stmt 1 view .LVU1290
 4767              		.loc 3 810 18 is_stmt 0 view .LVU1291
 4768 004e E069     		ldr	r0, [r4, #28]
 811:GrannyChordApp.cpp **** }
 4769              		.loc 3 811 1 view .LVU1292
 4770 0050 04B0     		add	sp, sp, #16
 4771              		.cfi_remember_state
 4772              		.cfi_def_cfa_offset 16
 4773              		@ sp needed
 4774 0052 BDE87040 		pop	{r4, r5, r6, lr}
 4775              		.cfi_restore 14
 4776              		.cfi_restore 6
 4777              		.cfi_restore 5
 4778              		.cfi_restore 4
 4779              		.cfi_def_cfa_offset 0
 4780              	.LVL338:
 810:GrannyChordApp.cpp ****   pod_.UpdateLeds();
 4781              		.loc 3 810 18 view .LVU1293
 4782 0056 FFF7FEBF 		b	_ZN5daisy8DaisyPod10UpdateLedsEv
 4783              	.LVL339:
 4784              	.L218:
 4785              		.cfi_restore_state
 790:GrannyChordApp.cpp ****       pod_.led1.SetColor(colours.CYAN);
 4786              		.loc 3 790 5 is_stmt 1 view .LVU1294
 791:GrannyChordApp.cpp ****       break;
 4787              		.loc 3 791 7 view .LVU1295
 791:GrannyChordApp.cpp ****       break;
 4788              		.loc 3 791 34 is_stmt 0 view .LVU1296
 4789 005a 00F55242 		add	r2, r0, #53760
ARM GAS  /var/folders/2p/02m_5p7958535cp2tpgps0400000gn/T//cclqaeHn.s 			page 141


 4790 005e 01AD     		add	r5, sp, #4
 4791 0060 5032     		adds	r2, r2, #80
 4792 0062 DDE7     		b	.L225
 4793              	.L217:
 793:GrannyChordApp.cpp ****       pod_.led1.SetColor(colours.BLUE);
 4794              		.loc 3 793 5 is_stmt 1 view .LVU1297
 794:GrannyChordApp.cpp ****       break;
 4795              		.loc 3 794 7 view .LVU1298
 794:GrannyChordApp.cpp ****       break;
 4796              		.loc 3 794 34 is_stmt 0 view .LVU1299
 4797 0064 00F55242 		add	r2, r0, #53760
 4798 0068 01AD     		add	r5, sp, #4
 4799 006a 2C32     		adds	r2, r2, #44
 4800 006c D8E7     		b	.L225
 4801              	.L216:
 796:GrannyChordApp.cpp ****       pod_.led1.SetColor(colours.YELLOW);
 4802              		.loc 3 796 5 is_stmt 1 view .LVU1300
 797:GrannyChordApp.cpp ****       break;
 4803              		.loc 3 797 7 view .LVU1301
 797:GrannyChordApp.cpp ****       break;
 4804              		.loc 3 797 34 is_stmt 0 view .LVU1302
 4805 006e 00F55242 		add	r2, r0, #53760
 4806 0072 01AD     		add	r5, sp, #4
 4807 0074 7432     		adds	r2, r2, #116
 4808 0076 D3E7     		b	.L225
 4809              	.L215:
 799:GrannyChordApp.cpp ****       pod_.led1.SetColor(colours.PURPLE);
 4810              		.loc 3 799 5 is_stmt 1 view .LVU1303
 800:GrannyChordApp.cpp ****       break;
 4811              		.loc 3 800 7 view .LVU1304
 800:GrannyChordApp.cpp ****       break;
 4812              		.loc 3 800 34 is_stmt 0 view .LVU1305
 4813 0078 00F55242 		add	r2, r0, #53760
 4814 007c 01AD     		add	r5, sp, #4
 4815 007e 5C32     		adds	r2, r2, #92
 4816 0080 CEE7     		b	.L225
 4817              	.L213:
 802:GrannyChordApp.cpp ****       pod_.led1.SetColor(colours.RED);
 4818              		.loc 3 802 5 is_stmt 1 view .LVU1306
 803:GrannyChordApp.cpp ****       pod_.led2.SetColor(colours.RED);
 4819              		.loc 3 803 7 view .LVU1307
 803:GrannyChordApp.cpp ****       pod_.led2.SetColor(colours.RED);
 4820              		.loc 3 803 34 is_stmt 0 view .LVU1308
 4821 0082 00F55246 		add	r6, r0, #53760
 4822 0086 01AD     		add	r5, sp, #4
 4823 0088 4436     		adds	r6, r6, #68
 4824 008a 96E80700 		ldm	r6, {r0, r1, r2}
 4825              	.LVL340:
 803:GrannyChordApp.cpp ****       pod_.led2.SetColor(colours.RED);
 4826              		.loc 3 803 34 view .LVU1309
 4827 008e 85E80700 		stm	r5, {r0, r1, r2}
 803:GrannyChordApp.cpp ****       pod_.led2.SetColor(colours.RED);
 4828              		.loc 3 803 25 view .LVU1310
 4829 0092 03F1D800 		add	r0, r3, #216
 4830 0096 2946     		mov	r1, r5
 4831 0098 FFF7FEFF 		bl	_ZN5daisy6RgbLed8SetColorENS_5ColorE
 4832              	.LVL341:
ARM GAS  /var/folders/2p/02m_5p7958535cp2tpgps0400000gn/T//cclqaeHn.s 			page 142


 4833              	.LBB842:
 4834              	.LBI842:
 4835              		.loc 17 27 5 is_stmt 1 view .LVU1311
 4836              		.loc 17 27 5 is_stmt 0 view .LVU1312
 4837              	.LBE842:
 804:GrannyChordApp.cpp ****       break;
 4838              		.loc 3 804 7 is_stmt 1 view .LVU1313
 804:GrannyChordApp.cpp ****       break;
 4839              		.loc 3 804 25 is_stmt 0 view .LVU1314
 4840 009c E369     		ldr	r3, [r4, #28]
 804:GrannyChordApp.cpp ****       break;
 4841              		.loc 3 804 34 view .LVU1315
 4842 009e 96E80700 		ldm	r6, {r0, r1, r2}
 4843 00a2 85E80700 		stm	r5, {r0, r1, r2}
 804:GrannyChordApp.cpp ****       break;
 4844              		.loc 3 804 25 view .LVU1316
 4845 00a6 2946     		mov	r1, r5
 4846 00a8 03F59670 		add	r0, r3, #300
 4847 00ac BEE7     		b	.L224
 4848              	.L227:
 4849 00ae 00BF     		.align	2
 4850              	.L226:
 4851 00b0 00000000 		.word	0
 4852              		.cfi_endproc
 4853              	.LFE4953:
 4855              		.section	.rodata._ZN14GrannyChordApp4InitEPsS0_.str1.1,"aMS",%progbits,1
 4856              	.LC25:
 4857 0000 46696C65 		.ascii	"File manager failed to init\000"
 4857      206D616E 
 4857      61676572 
 4857      20666169 
 4857      6C656420 
 4858              		.section	.text._ZN14GrannyChordApp4InitEPsS0_,"ax",%progbits
 4859              		.align	1
 4860              		.global	_ZN14GrannyChordApp4InitEPsS0_
 4861              		.syntax unified
 4862              		.thumb
 4863              		.thumb_func
 4865              	_ZN14GrannyChordApp4InitEPsS0_:
 4866              	.LVL342:
 4867              	.LFB4913:
  15:GrannyChordApp.cpp ****   left_buf_ = left, right_buf_ = right;
 4868              		.loc 3 15 57 is_stmt 1 view -0
 4869              		.cfi_startproc
 4870              		@ args = 0, pretend = 0, frame = 0
 4871              		@ frame_needed = 0, uses_anonymous_args = 0
  16:GrannyChordApp.cpp ****   pod_.SetAudioBlockSize(2);
 4872              		.loc 3 16 3 view .LVU1318
  15:GrannyChordApp.cpp ****   left_buf_ = left, right_buf_ = right;
 4873              		.loc 3 15 57 is_stmt 0 view .LVU1319
 4874 0000 70B5     		push	{r4, r5, r6, lr}
 4875              		.cfi_def_cfa_offset 16
 4876              		.cfi_offset 4, -16
 4877              		.cfi_offset 5, -12
 4878              		.cfi_offset 6, -8
 4879              		.cfi_offset 14, -4
  16:GrannyChordApp.cpp ****   pod_.SetAudioBlockSize(2);
ARM GAS  /var/folders/2p/02m_5p7958535cp2tpgps0400000gn/T//cclqaeHn.s 			page 143


 4880              		.loc 3 16 13 view .LVU1320
 4881 0002 00F58045 		add	r5, r0, #16384
  15:GrannyChordApp.cpp ****   left_buf_ = left, right_buf_ = right;
 4882              		.loc 3 15 57 view .LVU1321
 4883 0006 0446     		mov	r4, r0
  19:GrannyChordApp.cpp ****   // SetupTimer();
 4884              		.loc 3 19 15 view .LVU1322
 4885 0008 0026     		movs	r6, #0
  17:GrannyChordApp.cpp ****   pod_.SetAudioSampleRate(SaiHandle::Config::SampleRate::SAI_48KHZ);
 4886              		.loc 3 17 25 view .LVU1323
 4887 000a C069     		ldr	r0, [r0, #28]
 4888              	.LVL343:
  16:GrannyChordApp.cpp ****   pod_.SetAudioBlockSize(2);
 4889              		.loc 3 16 13 view .LVU1324
 4890 000c C5F8C01E 		str	r1, [r5, #3776]
  17:GrannyChordApp.cpp ****   pod_.SetAudioSampleRate(SaiHandle::Config::SampleRate::SAI_48KHZ);
 4891              		.loc 3 17 25 view .LVU1325
 4892 0010 0221     		movs	r1, #2
 4893              	.LVL344:
  16:GrannyChordApp.cpp ****   pod_.SetAudioBlockSize(2);
 4894              		.loc 3 16 32 view .LVU1326
 4895 0012 C5F8C42E 		str	r2, [r5, #3780]
  17:GrannyChordApp.cpp ****   pod_.SetAudioSampleRate(SaiHandle::Config::SampleRate::SAI_48KHZ);
 4896              		.loc 3 17 3 is_stmt 1 view .LVU1327
  17:GrannyChordApp.cpp ****   pod_.SetAudioSampleRate(SaiHandle::Config::SampleRate::SAI_48KHZ);
 4897              		.loc 3 17 25 is_stmt 0 view .LVU1328
 4898 0016 FFF7FEFF 		bl	_ZN5daisy8DaisyPod17SetAudioBlockSizeEj
 4899              	.LVL345:
  18:GrannyChordApp.cpp ****   curr_state_ = AppState::SelectFile;
 4900              		.loc 3 18 3 is_stmt 1 view .LVU1329
  18:GrannyChordApp.cpp ****   curr_state_ = AppState::SelectFile;
 4901              		.loc 3 18 26 is_stmt 0 view .LVU1330
 4902 001a E069     		ldr	r0, [r4, #28]
 4903 001c 0321     		movs	r1, #3
 4904 001e FFF7FEFF 		bl	_ZN5daisy8DaisyPod18SetAudioSampleRateENS_9SaiHandle6Config10SampleRateE
 4905              	.LVL346:
  19:GrannyChordApp.cpp ****   // SetupTimer();
 4906              		.loc 3 19 3 is_stmt 1 view .LVU1331
  21:GrannyChordApp.cpp ****     DebugPrint(pod_,"File manager failed to init");
 4907              		.loc 3 21 19 is_stmt 0 view .LVU1332
 4908 0022 2046     		mov	r0, r4
  19:GrannyChordApp.cpp ****   // SetupTimer();
 4909              		.loc 3 19 15 view .LVU1333
 4910 0024 C4F89462 		str	r6, [r4, #660]
  21:GrannyChordApp.cpp ****     DebugPrint(pod_,"File manager failed to init");
 4911              		.loc 3 21 3 is_stmt 1 view .LVU1334
  21:GrannyChordApp.cpp ****     DebugPrint(pod_,"File manager failed to init");
 4912              		.loc 3 21 19 is_stmt 0 view .LVU1335
 4913 0028 FFF7FEFF 		bl	_ZN14GrannyChordApp11InitFileMgrEv
 4914              	.LVL347:
  21:GrannyChordApp.cpp ****     DebugPrint(pod_,"File manager failed to init");
 4915              		.loc 3 21 3 view .LVU1336
 4916 002c A0B9     		cbnz	r0, .L229
  22:GrannyChordApp.cpp ****     pod_.led1.SetRed(1);
 4917              		.loc 3 22 5 is_stmt 1 view .LVU1337
  22:GrannyChordApp.cpp ****     pod_.led1.SetRed(1);
 4918              		.loc 3 22 5 view .LVU1338
ARM GAS  /var/folders/2p/02m_5p7958535cp2tpgps0400000gn/T//cclqaeHn.s 			page 144


 4919              	.LVL348:
 4920              	.LBB847:
 4921              	.LBI847:
 126:../libDaisy/src/daisy_seed.h ****     {
 4922              		.loc 5 126 17 view .LVU1339
 4923              	.LBB848:
 4924              		.loc 5 128 23 is_stmt 0 view .LVU1340
 4925 002e 1B48     		ldr	r0, .L230
 4926 0030 FFF7FEFF 		bl	_ZN5daisy6LoggerILNS_17LoggerDestinationE1EE9PrintLineEPKcz
 4927              	.LVL349:
 4928              		.loc 5 128 23 view .LVU1341
 4929              	.LBE848:
 4930              	.LBE847:
  23:GrannyChordApp.cpp ****     pod_.led2.SetRed(1);
 4931              		.loc 3 23 5 is_stmt 1 view .LVU1342
  23:GrannyChordApp.cpp ****     pod_.led2.SetRed(1);
 4932              		.loc 3 23 21 is_stmt 0 view .LVU1343
 4933 0034 E069     		ldr	r0, [r4, #28]
 4934 0036 B7EE000A 		vmov.f32	s0, #1.0e+0
 4935 003a D830     		adds	r0, r0, #216
 4936 003c FFF7FEFF 		bl	_ZN5daisy6RgbLed6SetRedEf
 4937              	.LVL350:
  24:GrannyChordApp.cpp ****     pod_.UpdateLeds();
 4938              		.loc 3 24 5 is_stmt 1 view .LVU1344
  24:GrannyChordApp.cpp ****     pod_.UpdateLeds();
 4939              		.loc 3 24 21 is_stmt 0 view .LVU1345
 4940 0040 E069     		ldr	r0, [r4, #28]
 4941 0042 B7EE000A 		vmov.f32	s0, #1.0e+0
 4942 0046 00F59670 		add	r0, r0, #300
 4943 004a FFF7FEFF 		bl	_ZN5daisy6RgbLed6SetRedEf
 4944              	.LVL351:
  25:GrannyChordApp.cpp ****     return;
 4945              		.loc 3 25 5 is_stmt 1 view .LVU1346
  25:GrannyChordApp.cpp ****     return;
 4946              		.loc 3 25 20 is_stmt 0 view .LVU1347
 4947 004e E069     		ldr	r0, [r4, #28]
  37:GrannyChordApp.cpp **** 
 4948              		.loc 3 37 1 view .LVU1348
 4949 0050 BDE87040 		pop	{r4, r5, r6, lr}
 4950              		.cfi_remember_state
 4951              		.cfi_restore 14
 4952              		.cfi_restore 6
 4953              		.cfi_restore 5
 4954              		.cfi_restore 4
 4955              		.cfi_def_cfa_offset 0
 4956              	.LVL352:
  25:GrannyChordApp.cpp ****     return;
 4957              		.loc 3 25 20 view .LVU1349
 4958 0054 FFF7FEBF 		b	_ZN5daisy8DaisyPod10UpdateLedsEv
 4959              	.LVL353:
 4960              	.L229:
 4961              		.cfi_restore_state
  29:GrannyChordApp.cpp ****   InitPrevParamVals();
 4962              		.loc 3 29 3 is_stmt 1 view .LVU1350
  29:GrannyChordApp.cpp ****   InitPrevParamVals();
 4963              		.loc 3 29 9 is_stmt 0 view .LVU1351
 4964 0058 2046     		mov	r0, r4
ARM GAS  /var/folders/2p/02m_5p7958535cp2tpgps0400000gn/T//cclqaeHn.s 			page 145


 4965 005a FFF7FEFF 		bl	_ZN14GrannyChordApp6InitFXEv
 4966              	.LVL354:
  30:GrannyChordApp.cpp ****   InitColours();
 4967              		.loc 3 30 3 is_stmt 1 view .LVU1352
  30:GrannyChordApp.cpp ****   InitColours();
 4968              		.loc 3 30 20 is_stmt 0 view .LVU1353
 4969 005e 2046     		mov	r0, r4
 4970 0060 FFF7FEFF 		bl	_ZN14GrannyChordApp17InitPrevParamValsEv
 4971              	.LVL355:
  31:GrannyChordApp.cpp ****   SetLedAppState();
 4972              		.loc 3 31 3 is_stmt 1 view .LVU1354
  31:GrannyChordApp.cpp ****   SetLedAppState();
 4973              		.loc 3 31 14 is_stmt 0 view .LVU1355
 4974 0064 2046     		mov	r0, r4
 4975 0066 FFF7FEFF 		bl	_ZN14GrannyChordApp11InitColoursEv
 4976              	.LVL356:
  32:GrannyChordApp.cpp ****   pod_.UpdateLeds();
 4977              		.loc 3 32 3 is_stmt 1 view .LVU1356
  32:GrannyChordApp.cpp ****   pod_.UpdateLeds();
 4978              		.loc 3 32 17 is_stmt 0 view .LVU1357
 4979 006a 2046     		mov	r0, r4
 4980 006c FFF7FEFF 		bl	_ZN14GrannyChordApp14SetLedAppStateEv
 4981              	.LVL357:
  33:GrannyChordApp.cpp ****   SeedRng();
 4982              		.loc 3 33 3 is_stmt 1 view .LVU1358
  33:GrannyChordApp.cpp ****   SeedRng();
 4983              		.loc 3 33 18 is_stmt 0 view .LVU1359
 4984 0070 E069     		ldr	r0, [r4, #28]
 4985 0072 FFF7FEFF 		bl	_ZN5daisy8DaisyPod10UpdateLedsEv
 4986              	.LVL358:
  34:GrannyChordApp.cpp ****   synth_.Init(left_buf_, right_buf_, 0);
 4987              		.loc 3 34 3 is_stmt 1 view .LVU1360
 4988              	.LBB849:
 4989              	.LBI849:
 4990              		.file 18 "constants_utils.h"
   1:constants_utils.h **** #pragma once
   2:constants_utils.h **** #include "stddef.h"
   3:constants_utils.h **** #include <time.h>
   4:constants_utils.h **** 
   5:constants_utils.h **** /* audio constants */
   6:constants_utils.h **** constexpr int SAMPLE_RATE = 48000;
   7:constants_utils.h **** constexpr float SAMPLE_RATE_FLOAT = 48000.f;
   8:constants_utils.h **** constexpr int BIT_DEPTH = 16;
   9:constants_utils.h **** 
  10:constants_utils.h **** /* delay line buffer size (2s @ 48kHz) */
  11:constants_utils.h **** constexpr size_t DELAY_TIME = 96000;
  12:constants_utils.h **** 
  13:constants_utils.h **** /* maximum length of recording to SD card */
  14:constants_utils.h **** constexpr size_t MAX_REC_OUT_LEN = 120;
  15:constants_utils.h **** 
  16:constants_utils.h **** /* 16mb - max size of one stereo channel to be loaded into buffers */
  17:constants_utils.h **** constexpr size_t CHNL_BUF_SIZE_ABS = 16*1024*1024;
  18:constants_utils.h **** /* above is absolute size - each sample needs an int16 (2 bytes) so we do (abs_size)/2 */
  19:constants_utils.h **** constexpr size_t CHNL_BUF_SIZE_SAMPS = 8*1024*1024;
  20:constants_utils.h **** 
  21:constants_utils.h **** /* chunk size for reading audio into temporary buffer */
  22:constants_utils.h **** const size_t BUF_CHUNK_SZ = 16384;
ARM GAS  /var/folders/2p/02m_5p7958535cp2tpgps0400000gn/T//cclqaeHn.s 			page 146


  23:constants_utils.h **** 
  24:constants_utils.h **** /* file reading constants*/
  25:constants_utils.h **** static const uint16_t MAX_FILES = 32;                      
  26:constants_utils.h **** static const uint16_t MAX_FNAME_LEN = 128;
  27:constants_utils.h **** 
  28:constants_utils.h **** /* granular synth parameter constants */
  29:constants_utils.h **** constexpr int MIN_GRAINS = 1;
  30:constants_utils.h **** constexpr int MAX_GRAINS = 10;
  31:constants_utils.h **** static constexpr int NUM_SYNTH_MODES = 8;
  32:constants_utils.h **** constexpr float PARAM_CHANGE_THRESHOLD = 0.01f;
  33:constants_utils.h **** constexpr float MIN_GRAIN_SIZE_MS = 100.0f;
  34:constants_utils.h **** constexpr float MAX_GRAIN_SIZE_MS = 3000.0f;
  35:constants_utils.h **** constexpr size_t MIN_GRAIN_SIZE_SAMPLES = 4800; /* 100ms at 48kHz */
  36:constants_utils.h **** constexpr size_t MAX_GRAIN_SIZE_SAMPLES = 144000; /* 3s at 48kHz */
  37:constants_utils.h **** constexpr float MIN_PITCH = 0.5f;
  38:constants_utils.h **** constexpr float MAX_PITCH = 3.0f;
  39:constants_utils.h **** 
  40:constants_utils.h **** /* button event constants */
  41:constants_utils.h **** const unsigned long DEBOUNCE_DELAY = 50; 
  42:constants_utils.h **** const unsigned long LONG_PRESS_TIME = 1000;
  43:constants_utils.h **** 
  44:constants_utils.h **** /* hipass filter frequency range */
  45:constants_utils.h **** const float HIPASS_LOWER_BOUND = 0.0004f;
  46:constants_utils.h **** const float HIPASS_UPPER_BOUND = 0.01f;
  47:constants_utils.h **** 
  48:constants_utils.h **** /* lowpass filter frequency range */
  49:constants_utils.h **** const float LOPASS_LOWER_BOUND = 20.0f;
  50:constants_utils.h **** const float LOPASS_UPPER_BOUND = 18000.0f;
  51:constants_utils.h **** 
  52:constants_utils.h **** // const float HICUT_FREQ = 0.3125f; /* 15000Hz @ 48kHz sample rate */
  53:constants_utils.h **** const float HICUT_FREQ = 0.34375; /* 16500Hz @ 48kHz sample rate */
  54:constants_utils.h **** 
  55:constants_utils.h **** /* random number generator variables and helper functions */
  56:constants_utils.h **** extern uint32_t rng_state;
  57:constants_utils.h **** inline void SeedRng(){
 4991              		.loc 18 57 13 view .LVU1361
 4992              	.LBB850:
  58:constants_utils.h ****   rng_state = static_cast<uint32_t>(time(nullptr));
 4993              		.loc 18 58 3 view .LVU1362
 4994              		.loc 18 58 41 is_stmt 0 view .LVU1363
 4995 0076 3046     		mov	r0, r6
 4996 0078 FFF7FEFF 		bl	time
 4997              	.LVL359:
 4998              		.loc 18 58 13 view .LVU1364
 4999 007c 084B     		ldr	r3, .L230+4
 5000              	.LBE850:
 5001              	.LBE849:
  35:GrannyChordApp.cpp ****   pod_.StartAdc();
 5002              		.loc 3 35 14 view .LVU1365
 5003 007e D5F8C42E 		ldr	r2, [r5, #3780]
 5004              	.LBB852:
 5005              	.LBB851:
 5006              		.loc 18 58 13 view .LVU1366
 5007 0082 1860     		str	r0, [r3]
 5008              	.LBE851:
 5009              	.LBE852:
  35:GrannyChordApp.cpp ****   pod_.StartAdc();
ARM GAS  /var/folders/2p/02m_5p7958535cp2tpgps0400000gn/T//cclqaeHn.s 			page 147


 5010              		.loc 3 35 3 is_stmt 1 view .LVU1367
  35:GrannyChordApp.cpp ****   pod_.StartAdc();
 5011              		.loc 3 35 14 is_stmt 0 view .LVU1368
 5012 0084 04F12000 		add	r0, r4, #32
 5013 0088 3346     		mov	r3, r6
 5014 008a D5F8C01E 		ldr	r1, [r5, #3776]
 5015 008e FFF7FEFF 		bl	_ZN13GranularSynth4InitEPsS0_j
 5016              	.LVL360:
  36:GrannyChordApp.cpp **** }
 5017              		.loc 3 36 3 is_stmt 1 view .LVU1369
  36:GrannyChordApp.cpp **** }
 5018              		.loc 3 36 16 is_stmt 0 view .LVU1370
 5019 0092 E069     		ldr	r0, [r4, #28]
  37:GrannyChordApp.cpp **** 
 5020              		.loc 3 37 1 view .LVU1371
 5021 0094 BDE87040 		pop	{r4, r5, r6, lr}
 5022              		.cfi_restore 14
 5023              		.cfi_restore 6
 5024              		.cfi_restore 5
 5025              		.cfi_restore 4
 5026              		.cfi_def_cfa_offset 0
 5027              	.LVL361:
  36:GrannyChordApp.cpp **** }
 5028              		.loc 3 36 16 view .LVU1372
 5029 0098 FFF7FEBF 		b	_ZN5daisy8DaisyPod8StartAdcEv
 5030              	.LVL362:
 5031              	.L231:
 5032              		.align	2
 5033              	.L230:
 5034 009c 00000000 		.word	.LC25
 5035 00a0 00000000 		.word	rng_state
 5036              		.cfi_endproc
 5037              	.LFE4913:
 5039              		.section	.text._ZN14GrannyChordApp15SetLedSynthModeEv,"ax",%progbits
 5040              		.align	1
 5041              		.global	_ZN14GrannyChordApp15SetLedSynthModeEv
 5042              		.syntax unified
 5043              		.thumb
 5044              		.thumb_func
 5046              	_ZN14GrannyChordApp15SetLedSynthModeEv:
 5047              	.LVL363:
 5048              	.LFB4954:
 812:GrannyChordApp.cpp **** 
 813:GrannyChordApp.cpp **** void GrannyChordApp::SetLedSynthMode(){
 5049              		.loc 3 813 39 is_stmt 1 view -0
 5050              		.cfi_startproc
 5051              		@ args = 0, pretend = 0, frame = 16
 5052              		@ frame_needed = 0, uses_anonymous_args = 0
 814:GrannyChordApp.cpp ****   if (curr_state_ == AppState::Synthesis){
 5053              		.loc 3 814 3 view .LVU1374
 813:GrannyChordApp.cpp ****   if (curr_state_ == AppState::Synthesis){
 5054              		.loc 3 813 39 is_stmt 0 view .LVU1375
 5055 0000 7FB5     		push	{r0, r1, r2, r3, r4, r5, r6, lr}
 5056              		.cfi_def_cfa_offset 32
 5057              		.cfi_offset 4, -16
 5058              		.cfi_offset 5, -12
 5059              		.cfi_offset 6, -8
ARM GAS  /var/folders/2p/02m_5p7958535cp2tpgps0400000gn/T//cclqaeHn.s 			page 148


 5060              		.cfi_offset 14, -4
 5061              	.LBB853:
 5062              		.loc 3 814 3 view .LVU1376
 5063 0002 D0F89432 		ldr	r3, [r0, #660]
 5064              	.LBE853:
 813:GrannyChordApp.cpp ****   if (curr_state_ == AppState::Synthesis){
 5065              		.loc 3 813 39 view .LVU1377
 5066 0006 0646     		mov	r6, r0
 5067              	.LBB858:
 5068              		.loc 3 814 3 view .LVU1378
 5069 0008 022B     		cmp	r3, #2
 5070 000a 27D1     		bne	.L233
 5071              	.LBB854:
 815:GrannyChordApp.cpp ****     switch(curr_synth_mode_){
 5072              		.loc 3 815 5 view .LVU1379
 5073 000c D0F89C22 		ldr	r2, [r0, #668]
 5074 0010 00F55045 		add	r5, r0, #53248
 816:GrannyChordApp.cpp ****       /* regular: led1 blue / cyan / orange / yellow */
 817:GrannyChordApp.cpp ****       /* FX: led2 blue / cyan / orange / yellow */
 818:GrannyChordApp.cpp ****       case SynthMode::Size_Position:
 819:GrannyChordApp.cpp ****         pod_.led1.SetColor(colours.BLUE);
 5075              		.loc 3 819 9 view .LVU1380
 5076 0014 C369     		ldr	r3, [r0, #28]
 815:GrannyChordApp.cpp ****     switch(curr_synth_mode_){
 5077              		.loc 3 815 5 is_stmt 1 view .LVU1381
 5078 0016 01AC     		add	r4, sp, #4
 5079 0018 072A     		cmp	r2, #7
 5080 001a 0FD8     		bhi	.L234
 5081 001c DFE802F0 		tbb	[pc, r2]
 5082              	.L236:
 5083 0020 04       		.byte	(.L243-.L236)/2
 5084 0021 24       		.byte	(.L242-.L236)/2
 5085 0022 27       		.byte	(.L241-.L236)/2
 5086 0023 2A       		.byte	(.L240-.L236)/2
 5087 0024 2D       		.byte	(.L239-.L236)/2
 5088 0025 36       		.byte	(.L238-.L236)/2
 5089 0026 39       		.byte	(.L237-.L236)/2
 5090 0027 3C       		.byte	(.L235-.L236)/2
 5091              		.p2align 1
 5092              	.L243:
 818:GrannyChordApp.cpp ****         pod_.led1.SetColor(colours.BLUE);
 5093              		.loc 3 818 7 view .LVU1382
 5094              		.loc 3 819 9 view .LVU1383
 5095              		.loc 3 819 36 is_stmt 0 view .LVU1384
 5096 0028 05F50B72 		add	r2, r5, #556
 5097              	.L248:
 820:GrannyChordApp.cpp ****         break;
 821:GrannyChordApp.cpp ****       case SynthMode::Pitch_ActiveGrains:
 822:GrannyChordApp.cpp ****         pod_.led1.SetColor(colours.CYAN);
 5098              		.loc 3 822 36 view .LVU1385
 5099 002c 07CA     		ldm	r2, {r0, r1, r2}
 5100              	.LVL364:
 5101              		.loc 3 822 36 view .LVU1386
 5102 002e 84E80700 		stm	r4, {r0, r1, r2}
 5103              		.loc 3 822 27 view .LVU1387
 5104 0032 2146     		mov	r1, r4
 5105 0034 03F1D800 		add	r0, r3, #216
ARM GAS  /var/folders/2p/02m_5p7958535cp2tpgps0400000gn/T//cclqaeHn.s 			page 149


 5106              	.L245:
 823:GrannyChordApp.cpp ****         break;
 824:GrannyChordApp.cpp ****       case SynthMode::Pan_Direction:
 825:GrannyChordApp.cpp ****         pod_.led1.SetColor(colours.ORANGE);
 826:GrannyChordApp.cpp ****         break;
 827:GrannyChordApp.cpp ****       case SynthMode::RndAmount_RndFreq:
 828:GrannyChordApp.cpp ****         pod_.led1.SetColor(colours.YELLOW);
 829:GrannyChordApp.cpp ****         break;
 830:GrannyChordApp.cpp ****       case SynthMode::StereoRotate:
 831:GrannyChordApp.cpp ****         pod_.led2.SetColor(colours.BLUE);
 832:GrannyChordApp.cpp ****         break;
 833:GrannyChordApp.cpp ****       case SynthMode::Chorus:
 834:GrannyChordApp.cpp ****         pod_.led2.SetColor(colours.CYAN);
 835:GrannyChordApp.cpp ****         break;
 836:GrannyChordApp.cpp ****       case SynthMode::Reverb:
 837:GrannyChordApp.cpp ****       pod_.led2.SetColor(colours.ORANGE);
 838:GrannyChordApp.cpp ****         break;
 839:GrannyChordApp.cpp ****       case SynthMode::Filter:
 840:GrannyChordApp.cpp ****         pod_.led2.SetColor(colours.YELLOW);
 5107              		.loc 3 840 27 view .LVU1388
 5108 0038 FFF7FEFF 		bl	_ZN5daisy6RgbLed8SetColorENS_5ColorE
 5109              	.LVL365:
 5110              	.LBB855:
 5111              	.LBI855:
 5112              		.loc 17 27 5 is_stmt 1 view .LVU1389
 5113              		.loc 17 27 5 is_stmt 0 view .LVU1390
 5114              	.LBE855:
 841:GrannyChordApp.cpp ****         break;
 5115              		.loc 3 841 9 is_stmt 1 view .LVU1391
 5116              	.L234:
 842:GrannyChordApp.cpp ****       default:
 843:GrannyChordApp.cpp ****         break;
 844:GrannyChordApp.cpp ****     }
 845:GrannyChordApp.cpp ****     int mode_idx = static_cast<int>(curr_synth_mode_);
 5117              		.loc 3 845 5 view .LVU1392
 846:GrannyChordApp.cpp ****     if (mode_idx < 4) {
 5118              		.loc 3 846 5 view .LVU1393
 5119 003c D6F89C22 		ldr	r2, [r6, #668]
 847:GrannyChordApp.cpp ****       /* led2 green in regular mode */
 848:GrannyChordApp.cpp ****       pod_.led2.SetColor(colours.GREEN);
 5120              		.loc 3 848 7 is_stmt 0 view .LVU1394
 5121 0040 F369     		ldr	r3, [r6, #28]
 846:GrannyChordApp.cpp ****     if (mode_idx < 4) {
 5122              		.loc 3 846 5 view .LVU1395
 5123 0042 032A     		cmp	r2, #3
 5124 0044 2BDC     		bgt	.L244
 5125              		.loc 3 848 7 is_stmt 1 view .LVU1396
 5126              		.loc 3 848 34 is_stmt 0 view .LVU1397
 5127 0046 05F50E75 		add	r5, r5, #568
 5128 004a 95E80700 		ldm	r5, {r0, r1, r2}
 5129 004e 84E80700 		stm	r4, {r0, r1, r2}
 5130              		.loc 3 848 25 view .LVU1398
 5131 0052 2146     		mov	r1, r4
 5132 0054 03F59670 		add	r0, r3, #300
 5133              	.L247:
 849:GrannyChordApp.cpp ****     }
 850:GrannyChordApp.cpp ****     else{
ARM GAS  /var/folders/2p/02m_5p7958535cp2tpgps0400000gn/T//cclqaeHn.s 			page 150


 851:GrannyChordApp.cpp ****       /* led1 pink in FX Mode */
 852:GrannyChordApp.cpp ****       pod_.led1.SetColor(colours.PINK);
 5134              		.loc 3 852 25 view .LVU1399
 5135 0058 FFF7FEFF 		bl	_ZN5daisy6RgbLed8SetColorENS_5ColorE
 5136              	.LVL366:
 5137              	.LBB856:
 5138              	.LBI856:
 5139              		.loc 17 27 5 is_stmt 1 view .LVU1400
 5140              	.L233:
 5141              		.loc 17 27 5 is_stmt 0 view .LVU1401
 5142              	.LBE856:
 5143              	.LBE854:
 5144              	.LBE858:
 853:GrannyChordApp.cpp ****     }
 854:GrannyChordApp.cpp ****   }
 855:GrannyChordApp.cpp ****   pod_.UpdateLeds();
 5145              		.loc 3 855 3 is_stmt 1 view .LVU1402
 5146              		.loc 3 855 18 is_stmt 0 view .LVU1403
 5147 005c F069     		ldr	r0, [r6, #28]
 856:GrannyChordApp.cpp **** }...
 5148              		.loc 3 856 1 view .LVU1404
 5149 005e 04B0     		add	sp, sp, #16
 5150              		.cfi_remember_state
 5151              		.cfi_def_cfa_offset 16
 5152              		@ sp needed
 5153 0060 BDE87040 		pop	{r4, r5, r6, lr}
 5154              		.cfi_restore 14
 5155              		.cfi_restore 6
 5156              		.cfi_restore 5
 5157              		.cfi_restore 4
 5158              		.cfi_def_cfa_offset 0
 5159              	.LVL367:
 855:GrannyChordApp.cpp ****   pod_.UpdateLeds();
 5160              		.loc 3 855 18 view .LVU1405
 5161 0064 FFF7FEBF 		b	_ZN5daisy8DaisyPod10UpdateLedsEv
 5162              	.LVL368:
 5163              	.L242:
 5164              		.cfi_restore_state
 5165              	.LBB859:
 5166              	.LBB857:
 821:GrannyChordApp.cpp ****       case SynthMode::Pitch_ActiveGrains:
 5167              		.loc 3 821 7 is_stmt 1 view .LVU1406
 822:GrannyChordApp.cpp ****         pod_.led1.SetColor(colours.CYAN);
 5168              		.loc 3 822 9 view .LVU1407
 822:GrannyChordApp.cpp ****         pod_.led1.SetColor(colours.CYAN);
 5169              		.loc 3 822 36 is_stmt 0 view .LVU1408
 5170 0068 05F51472 		add	r2, r5, #592
 5171 006c DEE7     		b	.L248
 5172              	.L241:
 824:GrannyChordApp.cpp ****       case SynthMode::Pan_Direction:
 5173              		.loc 3 824 7 is_stmt 1 view .LVU1409
 825:GrannyChordApp.cpp ****         pod_.led1.SetColor(colours.ORANGE);
 5174              		.loc 3 825 9 view .LVU1410
 825:GrannyChordApp.cpp ****         pod_.led1.SetColor(colours.ORANGE);
 5175              		.loc 3 825 36 is_stmt 0 view .LVU1411
 5176 006e 05F51A72 		add	r2, r5, #616
 5177 0072 DBE7     		b	.L248
ARM GAS  /var/folders/2p/02m_5p7958535cp2tpgps0400000gn/T//cclqaeHn.s 			page 151


 5178              	.L240:
 827:GrannyChordApp.cpp ****       case SynthMode::RndAmount_RndFreq:
 5179              		.loc 3 827 7 is_stmt 1 view .LVU1412
 828:GrannyChordApp.cpp ****         pod_.led1.SetColor(colours.YELLOW);
 5180              		.loc 3 828 9 view .LVU1413
 828:GrannyChordApp.cpp ****         pod_.led1.SetColor(colours.YELLOW);
 5181              		.loc 3 828 36 is_stmt 0 view .LVU1414
 5182 0074 05F51D72 		add	r2, r5, #628
 5183 0078 D8E7     		b	.L248
 5184              	.L239:
 830:GrannyChordApp.cpp ****       case SynthMode::StereoRotate:
 5185              		.loc 3 830 7 is_stmt 1 view .LVU1415
 831:GrannyChordApp.cpp ****         pod_.led2.SetColor(colours.BLUE);
 5186              		.loc 3 831 9 view .LVU1416
 831:GrannyChordApp.cpp ****         pod_.led2.SetColor(colours.BLUE);
 5187              		.loc 3 831 36 is_stmt 0 view .LVU1417
 5188 007a 05F50B72 		add	r2, r5, #556
 5189              	.L246:
 840:GrannyChordApp.cpp ****         pod_.led2.SetColor(colours.YELLOW);
 5190              		.loc 3 840 36 view .LVU1418
 5191 007e 07CA     		ldm	r2, {r0, r1, r2}
 5192              	.LVL369:
 840:GrannyChordApp.cpp ****         pod_.led2.SetColor(colours.YELLOW);
 5193              		.loc 3 840 36 view .LVU1419
 5194 0080 84E80700 		stm	r4, {r0, r1, r2}
 840:GrannyChordApp.cpp ****         pod_.led2.SetColor(colours.YELLOW);
 5195              		.loc 3 840 27 view .LVU1420
 5196 0084 2146     		mov	r1, r4
 5197 0086 03F59670 		add	r0, r3, #300
 5198 008a D5E7     		b	.L245
 5199              	.LVL370:
 5200              	.L238:
 833:GrannyChordApp.cpp ****       case SynthMode::Chorus:
 5201              		.loc 3 833 7 is_stmt 1 view .LVU1421
 834:GrannyChordApp.cpp ****         pod_.led2.SetColor(colours.CYAN);
 5202              		.loc 3 834 9 view .LVU1422
 834:GrannyChordApp.cpp ****         pod_.led2.SetColor(colours.CYAN);
 5203              		.loc 3 834 36 is_stmt 0 view .LVU1423
 5204 008c 05F51472 		add	r2, r5, #592
 5205 0090 F5E7     		b	.L246
 5206              	.L237:
 836:GrannyChordApp.cpp ****       case SynthMode::Reverb:
 5207              		.loc 3 836 7 is_stmt 1 view .LVU1424
 837:GrannyChordApp.cpp ****       pod_.led2.SetColor(colours.ORANGE);
 5208              		.loc 3 837 7 view .LVU1425
 837:GrannyChordApp.cpp ****       pod_.led2.SetColor(colours.ORANGE);
 5209              		.loc 3 837 34 is_stmt 0 view .LVU1426
 5210 0092 05F51A72 		add	r2, r5, #616
 5211 0096 F2E7     		b	.L246
 5212              	.L235:
 839:GrannyChordApp.cpp ****       case SynthMode::Filter:
 5213              		.loc 3 839 7 is_stmt 1 view .LVU1427
 840:GrannyChordApp.cpp ****         pod_.led2.SetColor(colours.YELLOW);
 5214              		.loc 3 840 9 view .LVU1428
 840:GrannyChordApp.cpp ****         pod_.led2.SetColor(colours.YELLOW);
 5215              		.loc 3 840 36 is_stmt 0 view .LVU1429
 5216 0098 05F51D72 		add	r2, r5, #628
ARM GAS  /var/folders/2p/02m_5p7958535cp2tpgps0400000gn/T//cclqaeHn.s 			page 152


 5217 009c EFE7     		b	.L246
 5218              	.LVL371:
 5219              	.L244:
 852:GrannyChordApp.cpp ****       pod_.led1.SetColor(colours.PINK);
 5220              		.loc 3 852 7 is_stmt 1 view .LVU1430
 852:GrannyChordApp.cpp ****       pod_.led1.SetColor(colours.PINK);
 5221              		.loc 3 852 34 is_stmt 0 view .LVU1431
 5222 009e 05F52075 		add	r5, r5, #640
 5223 00a2 95E80700 		ldm	r5, {r0, r1, r2}
 5224              	.LVL372:
 852:GrannyChordApp.cpp ****       pod_.led1.SetColor(colours.PINK);
 5225              		.loc 3 852 34 view .LVU1432
 5226 00a6 84E80700 		stm	r4, {r0, r1, r2}
 852:GrannyChordApp.cpp ****       pod_.led1.SetColor(colours.PINK);
 5227              		.loc 3 852 25 view .LVU1433
 5228 00aa 2146     		mov	r1, r4
 5229 00ac 03F1D800 		add	r0, r3, #216
 5230 00b0 D2E7     		b	.L247
 5231              	.LBE857:
 5232              	.LBE859:
 5233              		.cfi_endproc
 5234              	.LFE4954:
 5236              		.section	.text._ZN14GrannyChordApp22HandleButton1LongPressEv,"ax",%progbits
 5237              		.align	1
 5238              		.global	_ZN14GrannyChordApp22HandleButton1LongPressEv
 5239              		.syntax unified
 5240              		.thumb
 5241              		.thumb_func
 5243              	_ZN14GrannyChordApp22HandleButton1LongPressEv:
 5244              	.LVL373:
 5245              	.LFB4925:
 290:GrannyChordApp.cpp **** void GrannyChordApp::HandleButton1LongPress(){
 5246              		.loc 3 290 46 is_stmt 1 view -0
 5247              		.cfi_startproc
 5248              		@ args = 0, pretend = 0, frame = 0
 5249              		@ frame_needed = 0, uses_anonymous_args = 0
 5250              		@ link register save eliminated.
 291:GrannyChordApp.cpp ****   int mode_idx = static_cast<int>(curr_synth_mode_);
 5251              		.loc 3 291 3 view .LVU1435
 292:GrannyChordApp.cpp ****   if (mode_idx<4) mode_idx = 4;
 5252              		.loc 3 292 3 view .LVU1436
 5253 0000 D0F89C22 		ldr	r2, [r0, #668]
 293:GrannyChordApp.cpp ****   else mode_idx = 0;
 5254              		.loc 3 293 17 is_stmt 0 view .LVU1437
 5255 0004 042A     		cmp	r2, #4
 5256 0006 B4BF     		ite	lt
 5257 0008 0422     		movlt	r2, #4
 5258 000a 0022     		movge	r2, #0
 5259              	.LVL374:
 294:GrannyChordApp.cpp ****   curr_synth_mode_ = static_cast<SynthMode>(mode_idx);
 5260              		.loc 3 294 3 is_stmt 1 view .LVU1438
 294:GrannyChordApp.cpp ****   curr_synth_mode_ = static_cast<SynthMode>(mode_idx);
 5261              		.loc 3 294 20 is_stmt 0 view .LVU1439
 5262 000c C0F89C22 		str	r2, [r0, #668]
 295:GrannyChordApp.cpp ****   SetLedSynthMode();
 5263              		.loc 3 295 3 is_stmt 1 view .LVU1440
 295:GrannyChordApp.cpp ****   SetLedSynthMode();
ARM GAS  /var/folders/2p/02m_5p7958535cp2tpgps0400000gn/T//cclqaeHn.s 			page 153


 5264              		.loc 3 295 18 is_stmt 0 view .LVU1441
 5265 0010 FFF7FEBF 		b	_ZN14GrannyChordApp15SetLedSynthModeEv
 5266              	.LVL375:
 295:GrannyChordApp.cpp ****   SetLedSynthMode();
 5267              		.loc 3 295 18 view .LVU1442
 5268              		.cfi_endproc
 5269              	.LFE4925:
 5271              		.section	.rodata._ZN14GrannyChordApp13NextSynthModeEv.str1.1,"aMS",%progbits,1
 5272              	.LC26:
 5273 0000 676F696E 		.ascii	"going to synth mode\000"
 5273      6720746F 
 5273      2073796E 
 5273      7468206D 
 5273      6F646500 
 5274              		.section	.text._ZN14GrannyChordApp13NextSynthModeEv,"ax",%progbits
 5275              		.align	1
 5276              		.global	_ZN14GrannyChordApp13NextSynthModeEv
 5277              		.syntax unified
 5278              		.thumb
 5279              		.thumb_func
 5281              	_ZN14GrannyChordApp13NextSynthModeEv:
 5282              	.LVL376:
 5283              	.LFB4928:
 312:GrannyChordApp.cpp **** void GrannyChordApp::NextSynthMode(){
 5284              		.loc 3 312 37 is_stmt 1 view -0
 5285              		.cfi_startproc
 5286              		@ args = 0, pretend = 0, frame = 0
 5287              		@ frame_needed = 0, uses_anonymous_args = 0
 313:GrannyChordApp.cpp ****   DebugPrint(pod_, "going to synth mode");
 5288              		.loc 3 313 3 view .LVU1444
 313:GrannyChordApp.cpp ****   DebugPrint(pod_, "going to synth mode");
 5289              		.loc 3 313 3 view .LVU1445
 5290              	.LBB860:
 5291              	.LBI860:
 126:../libDaisy/src/daisy_seed.h ****     {
 5292              		.loc 5 126 17 view .LVU1446
 5293              	.LBE860:
 312:GrannyChordApp.cpp **** void GrannyChordApp::NextSynthMode(){
 5294              		.loc 3 312 37 is_stmt 0 view .LVU1447
 5295 0000 10B5     		push	{r4, lr}
 5296              		.cfi_def_cfa_offset 8
 5297              		.cfi_offset 4, -8
 5298              		.cfi_offset 14, -4
 312:GrannyChordApp.cpp **** void GrannyChordApp::NextSynthMode(){
 5299              		.loc 3 312 37 view .LVU1448
 5300 0002 0446     		mov	r4, r0
 5301              	.LBB862:
 5302              	.LBB861:
 5303              		.loc 5 128 23 view .LVU1449
 5304 0004 0E48     		ldr	r0, .L255
 5305              	.LVL377:
 5306              		.loc 5 128 23 view .LVU1450
 5307 0006 FFF7FEFF 		bl	_ZN5daisy6LoggerILNS_17LoggerDestinationE1EE9PrintLineEPKcz
 5308              	.LVL378:
 5309              		.loc 5 128 23 view .LVU1451
 5310              	.LBE861:
 5311              	.LBE862:
ARM GAS  /var/folders/2p/02m_5p7958535cp2tpgps0400000gn/T//cclqaeHn.s 			page 154


 314:GrannyChordApp.cpp ****   int mode_idx = static_cast<int>(curr_synth_mode_);
 5312              		.loc 3 314 3 is_stmt 1 view .LVU1452
 314:GrannyChordApp.cpp ****   int mode_idx = static_cast<int>(curr_synth_mode_);
 5313              		.loc 3 314 7 is_stmt 0 view .LVU1453
 5314 000a D4F89C12 		ldr	r1, [r4, #668]
 5315              	.LVL379:
 316:GrannyChordApp.cpp ****   if (mode_idx < 4){
 5316              		.loc 3 316 3 is_stmt 1 view .LVU1454
 5317 000e 0329     		cmp	r1, #3
 5318 0010 01F10101 		add	r1, r1, #1
 5319              	.LVL380:
 316:GrannyChordApp.cpp ****   if (mode_idx < 4){
 5320              		.loc 3 316 3 is_stmt 0 view .LVU1455
 5321 0014 0FDC     		bgt	.L253
 317:GrannyChordApp.cpp ****     mode_idx++;
 5322              		.loc 3 317 5 is_stmt 1 view .LVU1456
 5323              	.LVL381:
 318:GrannyChordApp.cpp ****     if (mode_idx>=4) mode_idx =0;
 5324              		.loc 3 318 5 view .LVU1457
 318:GrannyChordApp.cpp ****     if (mode_idx>=4) mode_idx =0;
 5325              		.loc 3 318 31 is_stmt 0 view .LVU1458
 5326 0016 0429     		cmp	r1, #4
 5327 0018 08BF     		it	eq
 5328 001a 0021     		moveq	r1, #0
 5329              	.LVL382:
 5330              	.L254:
 325:GrannyChordApp.cpp ****   curr_synth_mode_ = static_cast<SynthMode>(mode_idx);
 5331              		.loc 3 325 3 is_stmt 1 view .LVU1459
 326:GrannyChordApp.cpp ****   DebugPrintMode(curr_synth_mode_);
 5332              		.loc 3 326 17 is_stmt 0 view .LVU1460
 5333 001c 2046     		mov	r0, r4
 325:GrannyChordApp.cpp ****   curr_synth_mode_ = static_cast<SynthMode>(mode_idx);
 5334              		.loc 3 325 20 view .LVU1461
 5335 001e C4F89C12 		str	r1, [r4, #668]
 326:GrannyChordApp.cpp ****   DebugPrintMode(curr_synth_mode_);
 5336              		.loc 3 326 3 is_stmt 1 view .LVU1462
 326:GrannyChordApp.cpp ****   DebugPrintMode(curr_synth_mode_);
 5337              		.loc 3 326 17 is_stmt 0 view .LVU1463
 5338 0022 FFF7FEFF 		bl	_ZN14GrannyChordApp14DebugPrintModeE9SynthMode
 5339              	.LVL383:
 327:GrannyChordApp.cpp ****   SetLedSynthMode();
 5340              		.loc 3 327 3 is_stmt 1 view .LVU1464
 327:GrannyChordApp.cpp ****   SetLedSynthMode();
 5341              		.loc 3 327 18 is_stmt 0 view .LVU1465
 5342 0026 2046     		mov	r0, r4
 5343 0028 FFF7FEFF 		bl	_ZN14GrannyChordApp15SetLedSynthModeEv
 5344              	.LVL384:
 328:GrannyChordApp.cpp ****   knob1_latched = true;
 5345              		.loc 3 328 3 is_stmt 1 view .LVU1466
 329:GrannyChordApp.cpp ****   knob2_latched = true;
 5346              		.loc 3 329 3 view .LVU1467
 328:GrannyChordApp.cpp ****   knob1_latched = true;
 5347              		.loc 3 328 17 is_stmt 0 view .LVU1468
 5348 002c 40F20113 		movw	r3, #257
 5349 0030 A4F8A432 		strh	r3, [r4, #676]	@ movhi
 330:GrannyChordApp.cpp **** }
 5350              		.loc 3 330 1 view .LVU1469
ARM GAS  /var/folders/2p/02m_5p7958535cp2tpgps0400000gn/T//cclqaeHn.s 			page 155


 5351 0034 10BD     		pop	{r4, pc}
 5352              	.LVL385:
 5353              	.L253:
 322:GrannyChordApp.cpp ****     mode_idx++;
 5354              		.loc 3 322 5 is_stmt 1 view .LVU1470
 323:GrannyChordApp.cpp ****     if (mode_idx>7) mode_idx =4;
 5355              		.loc 3 323 5 view .LVU1471
 323:GrannyChordApp.cpp ****     if (mode_idx>7) mode_idx =4;
 5356              		.loc 3 323 30 is_stmt 0 view .LVU1472
 5357 0036 0829     		cmp	r1, #8
 5358 0038 A8BF     		it	ge
 5359 003a 0421     		movge	r1, #4
 5360              	.LVL386:
 323:GrannyChordApp.cpp ****     if (mode_idx>7) mode_idx =4;
 5361              		.loc 3 323 30 view .LVU1473
 5362 003c EEE7     		b	.L254
 5363              	.L256:
 5364 003e 00BF     		.align	2
 5365              	.L255:
 5366 0040 00000000 		.word	.LC26
 5367              		.cfi_endproc
 5368              	.LFE4928:
 5370              		.section	.text._ZN14GrannyChordApp13HandleButton1Ev,"ax",%progbits
 5371              		.align	1
 5372              		.global	_ZN14GrannyChordApp13HandleButton1Ev
 5373              		.syntax unified
 5374              		.thumb
 5375              		.thumb_func
 5377              	_ZN14GrannyChordApp13HandleButton1Ev:
 5378              	.LVL387:
 5379              	.LFB4923:
 280:GrannyChordApp.cpp **** void GrannyChordApp::HandleButton1(){
 5380              		.loc 3 280 37 is_stmt 1 view -0
 5381              		.cfi_startproc
 5382              		@ args = 0, pretend = 0, frame = 0
 5383              		@ frame_needed = 0, uses_anonymous_args = 0
 5384              		@ link register save eliminated.
 281:GrannyChordApp.cpp ****   NextSynthMode();
 5385              		.loc 3 281 3 view .LVU1475
 281:GrannyChordApp.cpp ****   NextSynthMode();
 5386              		.loc 3 281 16 is_stmt 0 view .LVU1476
 5387 0000 FFF7FEBF 		b	_ZN14GrannyChordApp13NextSynthModeEv
 5388              	.LVL388:
 281:GrannyChordApp.cpp ****   NextSynthMode();
 5389              		.loc 3 281 16 view .LVU1477
 5390              		.cfi_endproc
 5391              	.LFE4923:
 5393              		.section	.rodata._ZN14GrannyChordApp13PrevSynthModeEv.str1.1,"aMS",%progbits,1
 5394              	.LC27:
 5395 0000 676F696E 		.ascii	"going to prev synth mode\000"
 5395      6720746F 
 5395      20707265 
 5395      76207379 
 5395      6E746820 
 5396              		.section	.text._ZN14GrannyChordApp13PrevSynthModeEv,"ax",%progbits
 5397              		.align	1
 5398              		.global	_ZN14GrannyChordApp13PrevSynthModeEv
ARM GAS  /var/folders/2p/02m_5p7958535cp2tpgps0400000gn/T//cclqaeHn.s 			page 156


 5399              		.syntax unified
 5400              		.thumb
 5401              		.thumb_func
 5403              	_ZN14GrannyChordApp13PrevSynthModeEv:
 5404              	.LVL389:
 5405              	.LFB4929:
 333:GrannyChordApp.cpp **** void GrannyChordApp::PrevSynthMode(){
 5406              		.loc 3 333 37 is_stmt 1 view -0
 5407              		.cfi_startproc
 5408              		@ args = 0, pretend = 0, frame = 0
 5409              		@ frame_needed = 0, uses_anonymous_args = 0
 334:GrannyChordApp.cpp ****   DebugPrint(pod_, "going to prev synth mode");
 5410              		.loc 3 334 3 view .LVU1479
 334:GrannyChordApp.cpp ****   DebugPrint(pod_, "going to prev synth mode");
 5411              		.loc 3 334 3 view .LVU1480
 5412              	.LBB863:
 5413              	.LBI863:
 126:../libDaisy/src/daisy_seed.h ****     {
 5414              		.loc 5 126 17 view .LVU1481
 5415              	.LBE863:
 333:GrannyChordApp.cpp **** void GrannyChordApp::PrevSynthMode(){
 5416              		.loc 3 333 37 is_stmt 0 view .LVU1482
 5417 0000 10B5     		push	{r4, lr}
 5418              		.cfi_def_cfa_offset 8
 5419              		.cfi_offset 4, -8
 5420              		.cfi_offset 14, -4
 333:GrannyChordApp.cpp **** void GrannyChordApp::PrevSynthMode(){
 5421              		.loc 3 333 37 view .LVU1483
 5422 0002 0446     		mov	r4, r0
 5423              	.LBB865:
 5424              	.LBB864:
 5425              		.loc 5 128 23 view .LVU1484
 5426 0004 0E48     		ldr	r0, .L261
 5427              	.LVL390:
 5428              		.loc 5 128 23 view .LVU1485
 5429 0006 FFF7FEFF 		bl	_ZN5daisy6LoggerILNS_17LoggerDestinationE1EE9PrintLineEPKcz
 5430              	.LVL391:
 5431              		.loc 5 128 23 view .LVU1486
 5432              	.LBE864:
 5433              	.LBE865:
 335:GrannyChordApp.cpp ****   int mode_idx = static_cast<int>(curr_synth_mode_);
 5434              		.loc 3 335 3 is_stmt 1 view .LVU1487
 335:GrannyChordApp.cpp ****   int mode_idx = static_cast<int>(curr_synth_mode_);
 5435              		.loc 3 335 7 is_stmt 0 view .LVU1488
 5436 000a D4F89C12 		ldr	r1, [r4, #668]
 5437              	.LVL392:
 337:GrannyChordApp.cpp ****   if (mode_idx < 4){
 5438              		.loc 3 337 3 is_stmt 1 view .LVU1489
 5439 000e 0329     		cmp	r1, #3
 5440 0010 01F1FF31 		add	r1, r1, #-1
 5441              	.LVL393:
 337:GrannyChordApp.cpp ****   if (mode_idx < 4){
 5442              		.loc 3 337 3 is_stmt 0 view .LVU1490
 5443 0014 0FDC     		bgt	.L259
 338:GrannyChordApp.cpp ****     mode_idx--;
 5444              		.loc 3 338 5 is_stmt 1 view .LVU1491
 5445              	.LVL394:
ARM GAS  /var/folders/2p/02m_5p7958535cp2tpgps0400000gn/T//cclqaeHn.s 			page 157


 339:GrannyChordApp.cpp ****     if (mode_idx<0) mode_idx = 3;
 5446              		.loc 3 339 5 view .LVU1492
 339:GrannyChordApp.cpp ****     if (mode_idx<0) mode_idx = 3;
 5447              		.loc 3 339 30 is_stmt 0 view .LVU1493
 5448 0016 0029     		cmp	r1, #0
 5449 0018 B8BF     		it	lt
 5450 001a 0321     		movlt	r1, #3
 5451              	.LVL395:
 5452              	.L260:
 346:GrannyChordApp.cpp ****   curr_synth_mode_ = static_cast<SynthMode>(mode_idx);
 5453              		.loc 3 346 3 is_stmt 1 view .LVU1494
 347:GrannyChordApp.cpp ****   DebugPrintMode(curr_synth_mode_);
 5454              		.loc 3 347 17 is_stmt 0 view .LVU1495
 5455 001c 2046     		mov	r0, r4
 346:GrannyChordApp.cpp ****   curr_synth_mode_ = static_cast<SynthMode>(mode_idx);
 5456              		.loc 3 346 20 view .LVU1496
 5457 001e C4F89C12 		str	r1, [r4, #668]
 347:GrannyChordApp.cpp ****   DebugPrintMode(curr_synth_mode_);
 5458              		.loc 3 347 3 is_stmt 1 view .LVU1497
 347:GrannyChordApp.cpp ****   DebugPrintMode(curr_synth_mode_);
 5459              		.loc 3 347 17 is_stmt 0 view .LVU1498
 5460 0022 FFF7FEFF 		bl	_ZN14GrannyChordApp14DebugPrintModeE9SynthMode
 5461              	.LVL396:
 348:GrannyChordApp.cpp ****   SetLedSynthMode();
 5462              		.loc 3 348 3 is_stmt 1 view .LVU1499
 348:GrannyChordApp.cpp ****   SetLedSynthMode();
 5463              		.loc 3 348 18 is_stmt 0 view .LVU1500
 5464 0026 2046     		mov	r0, r4
 5465 0028 FFF7FEFF 		bl	_ZN14GrannyChordApp15SetLedSynthModeEv
 5466              	.LVL397:
 349:GrannyChordApp.cpp ****   knob1_latched = true;
 5467              		.loc 3 349 3 is_stmt 1 view .LVU1501
 350:GrannyChordApp.cpp ****   knob2_latched = true;
 5468              		.loc 3 350 3 view .LVU1502
 349:GrannyChordApp.cpp ****   knob1_latched = true;
 5469              		.loc 3 349 17 is_stmt 0 view .LVU1503
 5470 002c 40F20113 		movw	r3, #257
 5471 0030 A4F8A432 		strh	r3, [r4, #676]	@ movhi
 351:GrannyChordApp.cpp **** }
 5472              		.loc 3 351 1 view .LVU1504
 5473 0034 10BD     		pop	{r4, pc}
 5474              	.LVL398:
 5475              	.L259:
 343:GrannyChordApp.cpp ****     mode_idx--;
 5476              		.loc 3 343 5 is_stmt 1 view .LVU1505
 344:GrannyChordApp.cpp ****     if (mode_idx<4) mode_idx = 7;
 5477              		.loc 3 344 5 view .LVU1506
 344:GrannyChordApp.cpp ****     if (mode_idx<4) mode_idx = 7;
 5478              		.loc 3 344 30 is_stmt 0 view .LVU1507
 5479 0036 0329     		cmp	r1, #3
 5480 0038 08BF     		it	eq
 5481 003a 0721     		moveq	r1, #7
 5482              	.LVL399:
 344:GrannyChordApp.cpp ****     if (mode_idx<4) mode_idx = 7;
 5483              		.loc 3 344 30 view .LVU1508
 5484 003c EEE7     		b	.L260
 5485              	.L262:
ARM GAS  /var/folders/2p/02m_5p7958535cp2tpgps0400000gn/T//cclqaeHn.s 			page 158


 5486 003e 00BF     		.align	2
 5487              	.L261:
 5488 0040 00000000 		.word	.LC27
 5489              		.cfi_endproc
 5490              	.LFE4929:
 5492              		.section	.text._ZN14GrannyChordApp13HandleButton2Ev,"ax",%progbits
 5493              		.align	1
 5494              		.global	_ZN14GrannyChordApp13HandleButton2Ev
 5495              		.syntax unified
 5496              		.thumb
 5497              		.thumb_func
 5499              	_ZN14GrannyChordApp13HandleButton2Ev:
 5500              	.LVL400:
 5501              	.LFB4924:
 285:GrannyChordApp.cpp **** void GrannyChordApp::HandleButton2(){
 5502              		.loc 3 285 37 is_stmt 1 view -0
 5503              		.cfi_startproc
 5504              		@ args = 0, pretend = 0, frame = 0
 5505              		@ frame_needed = 0, uses_anonymous_args = 0
 5506              		@ link register save eliminated.
 286:GrannyChordApp.cpp ****     PrevSynthMode();
 5507              		.loc 3 286 5 view .LVU1510
 286:GrannyChordApp.cpp ****     PrevSynthMode();
 5508              		.loc 3 286 18 is_stmt 0 view .LVU1511
 5509 0000 FFF7FEBF 		b	_ZN14GrannyChordApp13PrevSynthModeEv
 5510              	.LVL401:
 286:GrannyChordApp.cpp ****     PrevSynthMode();
 5511              		.loc 3 286 18 view .LVU1512
 5512              		.cfi_endproc
 5513              	.LFE4924:
 5515              		.section	.rodata._ZN14GrannyChordApp17HandleStateChangeEv.str1.1,"aMS",%progbits,1
 5516              	.LC28:
 5517 0000 73746F70 		.ascii	"stopped audio for select file\000"
 5517      70656420 
 5517      61756469 
 5517      6F20666F 
 5517      72207365 
 5518              	.LC29:
 5519 001e 5265636F 		.ascii	"Recording in\000"
 5519      7264696E 
 5519      6720696E 
 5519      00
 5520              	.LC30:
 5521 002b 73746172 		.ascii	"starting playback\000"
 5521      74696E67 
 5521      20706C61 
 5521      79626163 
 5521      6B00
 5522              	.LC31:
 5523 003d 73746172 		.ascii	"started audiocallback\000"
 5523      74656420 
 5523      61756469 
 5523      6F63616C 
 5523      6C626163 
 5524              		.section	.text._ZN14GrannyChordApp17HandleStateChangeEv,"ax",%progbits
 5525              		.align	1
 5526              		.global	_ZN14GrannyChordApp17HandleStateChangeEv
ARM GAS  /var/folders/2p/02m_5p7958535cp2tpgps0400000gn/T//cclqaeHn.s 			page 159


 5527              		.syntax unified
 5528              		.thumb
 5529              		.thumb_func
 5531              	_ZN14GrannyChordApp17HandleStateChangeEv:
 5532              	.LVL402:
 5533              	.LFB4918:
 107:GrannyChordApp.cpp **** void GrannyChordApp::HandleStateChange(){
 5534              		.loc 3 107 41 is_stmt 1 view -0
 5535              		.cfi_startproc
 5536              		@ args = 0, pretend = 0, frame = 0
 5537              		@ frame_needed = 0, uses_anonymous_args = 0
 108:GrannyChordApp.cpp ****   switch(next_state_){
 5538              		.loc 3 108 3 view .LVU1514
 5539 0000 D0F89832 		ldr	r3, [r0, #664]
 107:GrannyChordApp.cpp **** void GrannyChordApp::HandleStateChange(){
 5540              		.loc 3 107 41 is_stmt 0 view .LVU1515
 5541 0004 10B5     		push	{r4, lr}
 5542              		.cfi_def_cfa_offset 8
 5543              		.cfi_offset 4, -8
 5544              		.cfi_offset 14, -4
 107:GrannyChordApp.cpp **** void GrannyChordApp::HandleStateChange(){
 5545              		.loc 3 107 41 view .LVU1516
 5546 0006 0446     		mov	r4, r0
 108:GrannyChordApp.cpp ****   switch(next_state_){
 5547              		.loc 3 108 3 view .LVU1517
 5548 0008 052B     		cmp	r3, #5
 5549 000a 0DD8     		bhi	.L264
 5550 000c DFE803F0 		tbb	[pc, r3]
 5551              	.L267:
 5552 0010 03       		.byte	(.L271-.L267)/2
 5553 0011 14       		.byte	(.L270-.L267)/2
 5554 0012 1B       		.byte	(.L269-.L267)/2
 5555 0013 0D       		.byte	(.L268-.L267)/2
 5556 0014 0C       		.byte	(.L264-.L267)/2
 5557 0015 28       		.byte	(.L266-.L267)/2
 5558              		.p2align 1
 5559              	.L271:
 109:GrannyChordApp.cpp ****     case AppState::SelectFile:
 5560              		.loc 3 109 5 is_stmt 1 view .LVU1518
 110:GrannyChordApp.cpp ****       pod_.StopAudio();
 5561              		.loc 3 110 7 view .LVU1519
 110:GrannyChordApp.cpp ****       pod_.StopAudio();
 5562              		.loc 3 110 21 is_stmt 0 view .LVU1520
 5563 0016 C069     		ldr	r0, [r0, #28]
 5564              	.LVL403:
 110:GrannyChordApp.cpp ****       pod_.StopAudio();
 5565              		.loc 3 110 21 view .LVU1521
 5566 0018 FFF7FEFF 		bl	_ZN5daisy8DaisyPod9StopAudioEv
 5567              	.LVL404:
 111:GrannyChordApp.cpp ****       DebugPrint(pod_, "stopped audio for select file");
 5568              		.loc 3 111 7 is_stmt 1 view .LVU1522
 111:GrannyChordApp.cpp ****       DebugPrint(pod_, "stopped audio for select file");
 5569              		.loc 3 111 7 view .LVU1523
 5570              	.LBB866:
 5571              	.LBI866:
 126:../libDaisy/src/daisy_seed.h ****     {
 5572              		.loc 5 126 17 view .LVU1524
ARM GAS  /var/folders/2p/02m_5p7958535cp2tpgps0400000gn/T//cclqaeHn.s 			page 160


 5573              	.LBB867:
 5574              		.loc 5 128 23 is_stmt 0 view .LVU1525
 5575 001c 1148     		ldr	r0, .L273
 5576 001e FFF7FEFF 		bl	_ZN5daisy6LoggerILNS_17LoggerDestinationE1EE9PrintLineEPKcz
 5577              	.LVL405:
 5578              		.loc 5 128 23 view .LVU1526
 5579              	.LBE867:
 5580              	.LBE866:
 112:GrannyChordApp.cpp ****       curr_state_ = AppState::SelectFile;
 5581              		.loc 3 112 7 is_stmt 1 view .LVU1527
 112:GrannyChordApp.cpp ****       curr_state_ = AppState::SelectFile;
 5582              		.loc 3 112 19 is_stmt 0 view .LVU1528
 5583 0022 0023     		movs	r3, #0
 5584              	.L272:
 131:GrannyChordApp.cpp ****       curr_state_ = AppState::Error;
 5585              		.loc 3 131 19 view .LVU1529
 5586 0024 C4F89432 		str	r3, [r4, #660]
 132:GrannyChordApp.cpp ****       break;
 5587              		.loc 3 132 7 is_stmt 1 view .LVU1530
 5588              	.L264:
 136:GrannyChordApp.cpp **** }
 5589              		.loc 3 136 1 is_stmt 0 view .LVU1531
 5590 0028 10BD     		pop	{r4, pc}
 5591              	.LVL406:
 5592              	.L268:
 114:GrannyChordApp.cpp ****     case AppState::RecordIn:
 5593              		.loc 3 114 5 is_stmt 1 view .LVU1532
 115:GrannyChordApp.cpp ****       InitRecordIn();
 5594              		.loc 3 115 7 view .LVU1533
 115:GrannyChordApp.cpp ****       InitRecordIn();
 5595              		.loc 3 115 19 is_stmt 0 view .LVU1534
 5596 002a FFF7FEFF 		bl	_ZN14GrannyChordApp12InitRecordInEv
 5597              	.LVL407:
 116:GrannyChordApp.cpp ****       DebugPrint(pod_, "Recording in");
 5598              		.loc 3 116 7 is_stmt 1 view .LVU1535
 116:GrannyChordApp.cpp ****       DebugPrint(pod_, "Recording in");
 5599              		.loc 3 116 7 view .LVU1536
 5600              	.LBB868:
 5601              	.LBI868:
 126:../libDaisy/src/daisy_seed.h ****     {
 5602              		.loc 5 126 17 view .LVU1537
 5603              	.LBB869:
 5604              		.loc 5 128 23 is_stmt 0 view .LVU1538
 5605 002e 0E48     		ldr	r0, .L273+4
 5606 0030 FFF7FEFF 		bl	_ZN5daisy6LoggerILNS_17LoggerDestinationE1EE9PrintLineEPKcz
 5607              	.LVL408:
 5608              		.loc 5 128 23 view .LVU1539
 5609              	.LBE869:
 5610              	.LBE868:
 117:GrannyChordApp.cpp ****       curr_state_ = AppState::RecordIn;  
 5611              		.loc 3 117 7 is_stmt 1 view .LVU1540
 117:GrannyChordApp.cpp ****       curr_state_ = AppState::RecordIn;  
 5612              		.loc 3 117 19 is_stmt 0 view .LVU1541
 5613 0034 0323     		movs	r3, #3
 5614 0036 F5E7     		b	.L272
 5615              	.LVL409:
 5616              	.L270:
ARM GAS  /var/folders/2p/02m_5p7958535cp2tpgps0400000gn/T//cclqaeHn.s 			page 161


 119:GrannyChordApp.cpp ****     case AppState::PlayWAV:
 5617              		.loc 3 119 5 is_stmt 1 view .LVU1542
 120:GrannyChordApp.cpp ****       InitPlayback(); 
 5618              		.loc 3 120 7 view .LVU1543
 120:GrannyChordApp.cpp ****       InitPlayback(); 
 5619              		.loc 3 120 19 is_stmt 0 view .LVU1544
 5620 0038 FFF7FEFF 		bl	_ZN14GrannyChordApp12InitPlaybackEv
 5621              	.LVL410:
 121:GrannyChordApp.cpp ****       DebugPrint(pod_,"starting playback");
 5622              		.loc 3 121 7 is_stmt 1 view .LVU1545
 121:GrannyChordApp.cpp ****       DebugPrint(pod_,"starting playback");
 5623              		.loc 3 121 7 view .LVU1546
 5624              	.LBB870:
 5625              	.LBI870:
 126:../libDaisy/src/daisy_seed.h ****     {
 5626              		.loc 5 126 17 view .LVU1547
 5627              	.LBB871:
 5628              		.loc 5 128 23 is_stmt 0 view .LVU1548
 5629 003c 0B48     		ldr	r0, .L273+8
 5630 003e FFF7FEFF 		bl	_ZN5daisy6LoggerILNS_17LoggerDestinationE1EE9PrintLineEPKcz
 5631              	.LVL411:
 5632              		.loc 5 128 23 view .LVU1549
 5633              	.LBE871:
 5634              	.LBE870:
 122:GrannyChordApp.cpp ****       curr_state_ = AppState::PlayWAV;
 5635              		.loc 3 122 7 is_stmt 1 view .LVU1550
 122:GrannyChordApp.cpp ****       curr_state_ = AppState::PlayWAV;
 5636              		.loc 3 122 19 is_stmt 0 view .LVU1551
 5637 0042 0123     		movs	r3, #1
 5638 0044 EEE7     		b	.L272
 5639              	.LVL412:
 5640              	.L269:
 124:GrannyChordApp.cpp ****     case AppState::Synthesis:
 5641              		.loc 3 124 5 is_stmt 1 view .LVU1552
 125:GrannyChordApp.cpp ****       InitSynth();
 5642              		.loc 3 125 7 view .LVU1553
 125:GrannyChordApp.cpp ****       InitSynth();
 5643              		.loc 3 125 16 is_stmt 0 view .LVU1554
 5644 0046 FFF7FEFF 		bl	_ZN14GrannyChordApp9InitSynthEv
 5645              	.LVL413:
 126:GrannyChordApp.cpp ****       curr_state_ = AppState::Synthesis;
 5646              		.loc 3 126 7 is_stmt 1 view .LVU1555
 126:GrannyChordApp.cpp ****       curr_state_ = AppState::Synthesis;
 5647              		.loc 3 126 19 is_stmt 0 view .LVU1556
 5648 004a 0223     		movs	r3, #2
 127:GrannyChordApp.cpp ****       SetLedSynthMode();
 5649              		.loc 3 127 22 view .LVU1557
 5650 004c 2046     		mov	r0, r4
 126:GrannyChordApp.cpp ****       curr_state_ = AppState::Synthesis;
 5651              		.loc 3 126 19 view .LVU1558
 5652 004e C4F89432 		str	r3, [r4, #660]
 127:GrannyChordApp.cpp ****       SetLedSynthMode();
 5653              		.loc 3 127 7 is_stmt 1 view .LVU1559
 127:GrannyChordApp.cpp ****       SetLedSynthMode();
 5654              		.loc 3 127 22 is_stmt 0 view .LVU1560
 5655 0052 FFF7FEFF 		bl	_ZN14GrannyChordApp15SetLedSynthModeEv
 5656              	.LVL414:
ARM GAS  /var/folders/2p/02m_5p7958535cp2tpgps0400000gn/T//cclqaeHn.s 			page 162


 128:GrannyChordApp.cpp ****       DebugPrint(pod_, "started audiocallback");
 5657              		.loc 3 128 7 is_stmt 1 view .LVU1561
 128:GrannyChordApp.cpp ****       DebugPrint(pod_, "started audiocallback");
 5658              		.loc 3 128 7 view .LVU1562
 5659              	.LBB872:
 5660              	.LBI872:
 126:../libDaisy/src/daisy_seed.h ****     {
 5661              		.loc 5 126 17 view .LVU1563
 5662              	.LBB873:
 5663              		.loc 5 128 23 is_stmt 0 view .LVU1564
 5664 0056 0648     		ldr	r0, .L273+12
 5665              	.LBE873:
 5666              	.LBE872:
 136:GrannyChordApp.cpp **** }
 5667              		.loc 3 136 1 view .LVU1565
 5668 0058 BDE81040 		pop	{r4, lr}
 5669              		.cfi_remember_state
 5670              		.cfi_restore 14
 5671              		.cfi_restore 4
 5672              		.cfi_def_cfa_offset 0
 5673              	.LVL415:
 5674              	.LBB875:
 5675              	.LBB874:
 5676              		.loc 5 128 23 view .LVU1566
 5677 005c FFF7FEBF 		b	_ZN5daisy6LoggerILNS_17LoggerDestinationE1EE9PrintLineEPKcz
 5678              	.LVL416:
 5679              	.L266:
 5680              		.cfi_restore_state
 5681              		.loc 5 128 23 view .LVU1567
 5682              	.LBE874:
 5683              	.LBE875:
 130:GrannyChordApp.cpp ****     case AppState::Error: 
 5684              		.loc 3 130 5 is_stmt 1 view .LVU1568
 131:GrannyChordApp.cpp ****       curr_state_ = AppState::Error;
 5685              		.loc 3 131 7 view .LVU1569
 131:GrannyChordApp.cpp ****       curr_state_ = AppState::Error;
 5686              		.loc 3 131 19 is_stmt 0 view .LVU1570
 5687 0060 0523     		movs	r3, #5
 5688 0062 DFE7     		b	.L272
 5689              	.L274:
 5690              		.align	2
 5691              	.L273:
 5692 0064 00000000 		.word	.LC28
 5693 0068 1E000000 		.word	.LC29
 5694 006c 2B000000 		.word	.LC30
 5695 0070 3D000000 		.word	.LC31
 5696              		.cfi_endproc
 5697              	.LFE4918:
 5699              		.section	.text._ZN5daisy9WavWriterILj16384EE8SaveFileEv,"axG",%progbits,_ZN5daisy9WavWriterILj1638
 5700              		.align	1
 5701              		.weak	_ZN5daisy9WavWriterILj16384EE8SaveFileEv
 5702              		.syntax unified
 5703              		.thumb
 5704              		.thumb_func
 5706              	_ZN5daisy9WavWriterILj16384EE8SaveFileEv:
 5707              	.LVL417:
 5708              	.LFB5282:
ARM GAS  /var/folders/2p/02m_5p7958535cp2tpgps0400000gn/T//cclqaeHn.s 			page 163


 142:../libDaisy/src/util/WavWriter.h ****     {
 5709              		.loc 9 142 10 is_stmt 1 view -0
 5710              		.cfi_startproc
 5711              		@ args = 0, pretend = 0, frame = 8
 5712              		@ frame_needed = 0, uses_anonymous_args = 0
 142:../libDaisy/src/util/WavWriter.h ****     {
 5713              		.loc 9 142 10 is_stmt 0 view .LVU1572
 5714 0000 37B5     		push	{r0, r1, r2, r4, r5, lr}
 5715              		.cfi_def_cfa_offset 24
 5716              		.cfi_offset 4, -12
 5717              		.cfi_offset 5, -8
 5718              		.cfi_offset 14, -4
 145:../libDaisy/src/util/WavWriter.h ****         // We _should_ flush whatever's left in the transfer buff
 5719              		.loc 9 145 25 view .LVU1573
 5720 0002 00F50043 		add	r3, r0, #32768
 144:../libDaisy/src/util/WavWriter.h ****         recording_      = false;
 5721              		.loc 9 144 22 view .LVU1574
 5722 0006 0021     		movs	r1, #0
 149:../libDaisy/src/util/WavWriter.h ****         f_write(&fp_, &wavheader_, sizeof(wavheader_), &bw);
 5723              		.loc 9 149 16 view .LVU1575
 5724 0008 00F50045 		add	r5, r0, #32768
 142:../libDaisy/src/util/WavWriter.h ****     {
 5725              		.loc 9 142 10 view .LVU1576
 5726 000c 0446     		mov	r4, r0
 145:../libDaisy/src/util/WavWriter.h ****         // We _should_ flush whatever's left in the transfer buff
 5727              		.loc 9 145 25 view .LVU1577
 5728 000e 83F84410 		strb	r1, [r3, #68]
 5729              	.LVL418:
 5730              	.LBB878:
 5731              	.LBI878:
 182:../libDaisy/src/util/WavWriter.h ****     {
 5732              		.loc 9 182 21 is_stmt 1 view .LVU1578
 5733              	.LBE878:
 149:../libDaisy/src/util/WavWriter.h ****         f_write(&fp_, &wavheader_, sizeof(wavheader_), &bw);
 5734              		.loc 9 149 16 is_stmt 0 view .LVU1579
 5735 0012 4835     		adds	r5, r5, #72
 144:../libDaisy/src/util/WavWriter.h ****         recording_      = false;
 5736              		.loc 9 144 22 view .LVU1580
 5737 0014 0191     		str	r1, [sp, #4]
 5738              	.LBB880:
 5739              	.LBB879:
 185:../libDaisy/src/util/WavWriter.h ****         return 36 + wavheader_.SubCHunk2Size;
 5740              		.loc 9 185 42 view .LVU1581
 5741 0016 D0E90E32 		ldrd	r3, r2, [r0, #56]
 5742 001a 5343     		muls	r3, r2, r3
 5743 001c C26A     		ldr	r2, [r0, #44]
 5744 001e 5343     		muls	r3, r2, r3
 185:../libDaisy/src/util/WavWriter.h ****         return 36 + wavheader_.SubCHunk2Size;
 5745              		.loc 9 185 63 view .LVU1582
 5746 0020 DB08     		lsrs	r3, r3, #3
 185:../libDaisy/src/util/WavWriter.h ****         return 36 + wavheader_.SubCHunk2Size;
 5747              		.loc 9 185 13 view .LVU1583
 5748 0022 8362     		str	r3, [r0, #40]
 5749              	.LVL419:
 186:../libDaisy/src/util/WavWriter.h ****     }
 5750              		.loc 9 186 32 view .LVU1584
 5751 0024 2433     		adds	r3, r3, #36
ARM GAS  /var/folders/2p/02m_5p7958535cp2tpgps0400000gn/T//cclqaeHn.s 			page 164


 5752              	.LBE879:
 5753              	.LBE880:
 148:../libDaisy/src/util/WavWriter.h ****         f_lseek(&fp_, 0);
 5754              		.loc 9 148 29 view .LVU1585
 5755 0026 4360     		str	r3, [r0, #4]
 149:../libDaisy/src/util/WavWriter.h ****         f_write(&fp_, &wavheader_, sizeof(wavheader_), &bw);
 5756              		.loc 9 149 16 view .LVU1586
 5757 0028 2846     		mov	r0, r5
 5758              	.LVL420:
 149:../libDaisy/src/util/WavWriter.h ****         f_write(&fp_, &wavheader_, sizeof(wavheader_), &bw);
 5759              		.loc 9 149 16 view .LVU1587
 5760 002a FFF7FEFF 		bl	f_lseek
 5761              	.LVL421:
 150:../libDaisy/src/util/WavWriter.h ****         f_close(&fp_);
 5762              		.loc 9 150 16 view .LVU1588
 5763 002e 01AB     		add	r3, sp, #4
 5764 0030 2C22     		movs	r2, #44
 5765 0032 2146     		mov	r1, r4
 5766 0034 2846     		mov	r0, r5
 5767 0036 FFF7FEFF 		bl	f_write
 5768              	.LVL422:
 151:../libDaisy/src/util/WavWriter.h ****     }
 5769              		.loc 9 151 16 view .LVU1589
 5770 003a 2846     		mov	r0, r5
 5771 003c FFF7FEFF 		bl	f_close
 5772              	.LVL423:
 152:../libDaisy/src/util/WavWriter.h **** 
 5773              		.loc 9 152 5 view .LVU1590
 5774 0040 03B0     		add	sp, sp, #12
 5775              		.cfi_def_cfa_offset 12
 5776              		@ sp needed
 5777 0042 30BD     		pop	{r4, r5, pc}
 152:../libDaisy/src/util/WavWriter.h **** 
 5778              		.loc 9 152 5 view .LVU1591
 5779              		.cfi_endproc
 5780              	.LFE5282:
 5782              		.section	.text._ZN14GrannyChordApp15FinishRecordingEv,"ax",%progbits
 5783              		.align	1
 5784              		.global	_ZN14GrannyChordApp15FinishRecordingEv
 5785              		.syntax unified
 5786              		.thumb
 5787              		.thumb_func
 5789              	_ZN14GrannyChordApp15FinishRecordingEv:
 5790              	.LVL424:
 5791              	.LFB4945:
 611:GrannyChordApp.cpp **** void GrannyChordApp::FinishRecording(){
 5792              		.loc 3 611 39 is_stmt 1 view -0
 5793              		.cfi_startproc
 5794              		@ args = 0, pretend = 0, frame = 0
 5795              		@ frame_needed = 0, uses_anonymous_args = 0
 612:GrannyChordApp.cpp ****   sd_writer_.SaveFile();
 5796              		.loc 3 612 3 view .LVU1593
 611:GrannyChordApp.cpp **** void GrannyChordApp::FinishRecording(){
 5797              		.loc 3 611 39 is_stmt 0 view .LVU1594
 5798 0000 10B5     		push	{r4, lr}
 5799              		.cfi_def_cfa_offset 8
 5800              		.cfi_offset 4, -8
ARM GAS  /var/folders/2p/02m_5p7958535cp2tpgps0400000gn/T//cclqaeHn.s 			page 165


 5801              		.cfi_offset 14, -4
 611:GrannyChordApp.cpp **** void GrannyChordApp::FinishRecording(){
 5802              		.loc 3 611 39 view .LVU1595
 5803 0002 0446     		mov	r4, r0
 612:GrannyChordApp.cpp ****   sd_writer_.SaveFile();
 5804              		.loc 3 612 22 view .LVU1596
 5805 0004 00F59F40 		add	r0, r0, #20352
 5806              	.LVL425:
 612:GrannyChordApp.cpp ****   sd_writer_.SaveFile();
 5807              		.loc 3 612 22 view .LVU1597
 5808 0008 1430     		adds	r0, r0, #20
 613:GrannyChordApp.cpp ****   recording_out_=false;
 5809              		.loc 3 613 17 view .LVU1598
 5810 000a 04F55044 		add	r4, r4, #53248
 5811              	.LVL426:
 612:GrannyChordApp.cpp ****   sd_writer_.SaveFile();
 5812              		.loc 3 612 22 view .LVU1599
 5813 000e FFF7FEFF 		bl	_ZN5daisy9WavWriterILj16384EE8SaveFileEv
 5814              	.LVL427:
 613:GrannyChordApp.cpp ****   recording_out_=false;
 5815              		.loc 3 613 3 is_stmt 1 view .LVU1600
 613:GrannyChordApp.cpp ****   recording_out_=false;
 5816              		.loc 3 613 17 is_stmt 0 view .LVU1601
 5817 0012 0023     		movs	r3, #0
 5818 0014 84F81032 		strb	r3, [r4, #528]
 614:GrannyChordApp.cpp **** }
 5819              		.loc 3 614 1 view .LVU1602
 5820 0018 10BD     		pop	{r4, pc}
 614:GrannyChordApp.cpp **** }
 5821              		.loc 3 614 1 view .LVU1603
 5822              		.cfi_endproc
 5823              	.LFE4945:
 5825              		.section	.rodata._ZN14GrannyChordApp13ButtonHandlerEv.str1.1,"aMS",%progbits,1
 5826              	.LC32:
 5827 0000 6E6F7720 		.ascii	"now recording out!\000"
 5827      7265636F 
 5827      7264696E 
 5827      67206F75 
 5827      742100
 5828              	.LC33:
 5829 0013 66696E69 		.ascii	"finished recording out: %.2fs\000"
 5829      73686564 
 5829      20726563 
 5829      6F726469 
 5829      6E67206F 
 5830              		.section	.text._ZN14GrannyChordApp13ButtonHandlerEv,"ax",%progbits
 5831              		.align	1
 5832              		.global	_ZN14GrannyChordApp13ButtonHandlerEv
 5833              		.syntax unified
 5834              		.thumb
 5835              		.thumb_func
 5837              	_ZN14GrannyChordApp13ButtonHandlerEv:
 5838              	.LVL428:
 5839              	.LFB4922:
 194:GrannyChordApp.cpp **** void GrannyChordApp::ButtonHandler(){
 5840              		.loc 3 194 37 is_stmt 1 view -0
 5841              		.cfi_startproc
ARM GAS  /var/folders/2p/02m_5p7958535cp2tpgps0400000gn/T//cclqaeHn.s 			page 166


 5842              		@ args = 0, pretend = 0, frame = 0
 5843              		@ frame_needed = 0, uses_anonymous_args = 0
 195:GrannyChordApp.cpp ****   unsigned long time_now = System::GetNow();
 5844              		.loc 3 195 3 view .LVU1605
 194:GrannyChordApp.cpp **** void GrannyChordApp::ButtonHandler(){
 5845              		.loc 3 194 37 is_stmt 0 view .LVU1606
 5846 0000 70B5     		push	{r4, r5, r6, lr}
 5847              		.cfi_def_cfa_offset 16
 5848              		.cfi_offset 4, -16
 5849              		.cfi_offset 5, -12
 5850              		.cfi_offset 6, -8
 5851              		.cfi_offset 14, -4
 5852 0002 0546     		mov	r5, r0
 197:GrannyChordApp.cpp ****   if (time_now - last_action_time_ < DEBOUNCE_DELAY) {
 5853              		.loc 3 197 18 view .LVU1607
 5854 0004 05F55044 		add	r4, r5, #53248
 194:GrannyChordApp.cpp **** void GrannyChordApp::ButtonHandler(){
 5855              		.loc 3 194 37 view .LVU1608
 5856 0008 2DED028B 		vpush.64	{d8}
 5857              		.cfi_def_cfa_offset 24
 5858              		.cfi_offset 80, -24
 5859              		.cfi_offset 81, -20
 195:GrannyChordApp.cpp ****   unsigned long time_now = System::GetNow();
 5860              		.loc 3 195 42 view .LVU1609
 5861 000c FFF7FEFF 		bl	_ZN5daisy6System6GetNowEv
 5862              	.LVL429:
 197:GrannyChordApp.cpp ****   if (time_now - last_action_time_ < DEBOUNCE_DELAY) {
 5863              		.loc 3 197 16 view .LVU1610
 5864 0010 D4F82432 		ldr	r3, [r4, #548]
 195:GrannyChordApp.cpp ****   unsigned long time_now = System::GetNow();
 5865              		.loc 3 195 42 view .LVU1611
 5866 0014 0646     		mov	r6, r0
 5867              	.LVL430:
 197:GrannyChordApp.cpp ****   if (time_now - last_action_time_ < DEBOUNCE_DELAY) {
 5868              		.loc 3 197 3 is_stmt 1 view .LVU1612
 197:GrannyChordApp.cpp ****   if (time_now - last_action_time_ < DEBOUNCE_DELAY) {
 5869              		.loc 3 197 16 is_stmt 0 view .LVU1613
 5870 0016 C31A     		subs	r3, r0, r3
 197:GrannyChordApp.cpp ****   if (time_now - last_action_time_ < DEBOUNCE_DELAY) {
 5871              		.loc 3 197 3 view .LVU1614
 5872 0018 312B     		cmp	r3, #49
 5873 001a 40F28880 		bls	.L277
 202:GrannyChordApp.cpp ****   if (pod_.button1.RisingEdge()){
 5874              		.loc 3 202 3 is_stmt 1 view .LVU1615
 202:GrannyChordApp.cpp ****   if (pod_.button1.RisingEdge()){
 5875              		.loc 3 202 7 is_stmt 0 view .LVU1616
 5876 001e E869     		ldr	r0, [r5, #28]
 5877              	.LVL431:
 5878              	.LBB913:
 5879              	.LBI913:
  70:../libDaisy/src/hid/switch.h **** 
 5880              		.loc 1 70 17 is_stmt 1 view .LVU1617
 5881              	.LBB914:
  70:../libDaisy/src/hid/switch.h **** 
 5882              		.loc 1 70 38 view .LVU1618
  70:../libDaisy/src/hid/switch.h **** 
 5883              		.loc 1 70 54 is_stmt 0 view .LVU1619
ARM GAS  /var/folders/2p/02m_5p7958535cp2tpgps0400000gn/T//cclqaeHn.s 			page 167


 5884 0020 90F8B430 		ldrb	r3, [r0, #180]	@ zero_extendqisi2
 5885 0024 43B1     		cbz	r3, .L280
 5886              	.LVL432:
  70:../libDaisy/src/hid/switch.h **** 
 5887              		.loc 1 70 54 view .LVU1620
 5888              	.LBE914:
 5889              	.LBE913:
 202:GrannyChordApp.cpp ****   if (pod_.button1.RisingEdge()){
 5890              		.loc 3 202 3 view .LVU1621
 5891 0026 90F8BA30 		ldrb	r3, [r0, #186]	@ zero_extendqisi2
 5892 002a 7F2B     		cmp	r3, #127
 203:GrannyChordApp.cpp ****     last_action_time_ = time_now;
 5893              		.loc 3 203 5 is_stmt 1 view .LVU1622
 204:GrannyChordApp.cpp ****     btn1_long_press_fired_ = false;
 5894              		.loc 3 204 28 is_stmt 0 view .LVU1623
 5895 002c 02BF     		ittt	eq
 5896 002e 0023     		moveq	r3, #0
 203:GrannyChordApp.cpp ****     last_action_time_ = time_now;
 5897              		.loc 3 203 23 view .LVU1624
 5898 0030 C4F82462 		streq	r6, [r4, #548]
 204:GrannyChordApp.cpp ****     btn1_long_press_fired_ = false;
 5899              		.loc 3 204 5 is_stmt 1 view .LVU1625
 204:GrannyChordApp.cpp ****     btn1_long_press_fired_ = false;
 5900              		.loc 3 204 28 is_stmt 0 view .LVU1626
 5901 0034 84F82832 		strbeq	r3, [r4, #552]
 5902              	.L280:
 208:GrannyChordApp.cpp ****   if (pod_.button1.Pressed()){
 5903              		.loc 3 208 3 is_stmt 1 view .LVU1627
 5904              	.LVL433:
 5905              	.LBB915:
 5906              	.LBB916:
 5907              	.LBI916:
  79:../libDaisy/src/hid/switch.h **** 
 5908              		.loc 1 79 17 view .LVU1628
 5909              	.LBB917:
  79:../libDaisy/src/hid/switch.h **** 
 5910              		.loc 1 79 35 view .LVU1629
  79:../libDaisy/src/hid/switch.h **** 
 5911              		.loc 1 79 35 is_stmt 0 view .LVU1630
 5912              	.LBE917:
 5913              	.LBE916:
 208:GrannyChordApp.cpp ****   if (pod_.button1.Pressed()){
 5914              		.loc 3 208 3 view .LVU1631
 5915 0038 90F8BA30 		ldrb	r3, [r0, #186]	@ zero_extendqisi2
 5916 003c FF2B     		cmp	r3, #255
 5917 003e 14D1     		bne	.L282
 5918              	.LBB918:
 209:GrannyChordApp.cpp ****     float held_time = pod_.button1.TimeHeldMs();
 5919              		.loc 3 209 5 is_stmt 1 view .LVU1632
 209:GrannyChordApp.cpp ****     float held_time = pod_.button1.TimeHeldMs();
 5920              		.loc 3 209 46 is_stmt 0 view .LVU1633
 5921 0040 B030     		adds	r0, r0, #176
 5922 0042 FFF7FEFF 		bl	_ZNK5daisy6Switch10TimeHeldMsEv
 5923              	.LVL434:
 210:GrannyChordApp.cpp ****     if (held_time > LONG_PRESS_TIME && !btn1_long_press_fired_){
 5924              		.loc 3 210 5 is_stmt 1 view .LVU1634
 5925 0046 DFED5A7A 		vldr.32	s15, .L315
ARM GAS  /var/folders/2p/02m_5p7958535cp2tpgps0400000gn/T//cclqaeHn.s 			page 168


 5926 004a B4EEE70A 		vcmpe.f32	s0, s15
 5927 004e F1EE10FA 		vmrs	APSR_nzcv, FPSCR
 5928 0052 0ADD     		ble	.L282
 210:GrannyChordApp.cpp ****     if (held_time > LONG_PRESS_TIME && !btn1_long_press_fired_){
 5929              		.loc 3 210 37 is_stmt 0 discriminator 1 view .LVU1635
 5930 0054 94F82832 		ldrb	r3, [r4, #552]	@ zero_extendqisi2
 5931 0058 3BB9     		cbnz	r3, .L282
 211:GrannyChordApp.cpp ****       HandleButton1LongPress();
 5932              		.loc 3 211 7 is_stmt 1 view .LVU1636
 211:GrannyChordApp.cpp ****       HandleButton1LongPress();
 5933              		.loc 3 211 29 is_stmt 0 view .LVU1637
 5934 005a 2846     		mov	r0, r5
 5935 005c FFF7FEFF 		bl	_ZN14GrannyChordApp22HandleButton1LongPressEv
 5936              	.LVL435:
 212:GrannyChordApp.cpp ****       btn1_long_press_fired_ = true;
 5937              		.loc 3 212 7 is_stmt 1 view .LVU1638
 212:GrannyChordApp.cpp ****       btn1_long_press_fired_ = true;
 5938              		.loc 3 212 30 is_stmt 0 view .LVU1639
 5939 0060 0123     		movs	r3, #1
 213:GrannyChordApp.cpp ****       last_action_time_ = time_now;
 5940              		.loc 3 213 25 view .LVU1640
 5941 0062 C4F82462 		str	r6, [r4, #548]
 212:GrannyChordApp.cpp ****       btn1_long_press_fired_ = true;
 5942              		.loc 3 212 30 view .LVU1641
 5943 0066 84F82832 		strb	r3, [r4, #552]
 213:GrannyChordApp.cpp ****       last_action_time_ = time_now;
 5944              		.loc 3 213 7 is_stmt 1 view .LVU1642
 5945              	.L282:
 213:GrannyChordApp.cpp ****       last_action_time_ = time_now;
 5946              		.loc 3 213 7 is_stmt 0 view .LVU1643
 5947              	.LBE918:
 5948              	.LBE915:
 218:GrannyChordApp.cpp ****   if (pod_.button1.FallingEdge()){
 5949              		.loc 3 218 3 is_stmt 1 view .LVU1644
 218:GrannyChordApp.cpp ****   if (pod_.button1.FallingEdge()){
 5950              		.loc 3 218 7 is_stmt 0 view .LVU1645
 5951 006a EB69     		ldr	r3, [r5, #28]
 5952              	.LVL436:
 5953              	.LBB919:
 5954              	.LBI919:
  73:../libDaisy/src/hid/switch.h ****     {
 5955              		.loc 1 73 17 is_stmt 1 view .LVU1646
 5956              	.LBB920:
  75:../libDaisy/src/hid/switch.h ****     }
 5957              		.loc 1 75 9 view .LVU1647
  75:../libDaisy/src/hid/switch.h ****     }
 5958              		.loc 1 75 25 is_stmt 0 view .LVU1648
 5959 006c 93F8B420 		ldrb	r2, [r3, #180]	@ zero_extendqisi2
 5960 0070 72B1     		cbz	r2, .L285
 5961              	.LVL437:
  75:../libDaisy/src/hid/switch.h ****     }
 5962              		.loc 1 75 25 view .LVU1649
 5963              	.LBE920:
 5964              	.LBE919:
 218:GrannyChordApp.cpp ****   if (pod_.button1.FallingEdge()){
 5965              		.loc 3 218 3 view .LVU1650
 5966 0072 93F8BA30 		ldrb	r3, [r3, #186]	@ zero_extendqisi2
ARM GAS  /var/folders/2p/02m_5p7958535cp2tpgps0400000gn/T//cclqaeHn.s 			page 169


 5967 0076 802B     		cmp	r3, #128
 5968 0078 0AD1     		bne	.L285
 219:GrannyChordApp.cpp ****     if (!btn1_long_press_fired_){
 5969              		.loc 3 219 5 is_stmt 1 view .LVU1651
 5970 007a 94F82832 		ldrb	r3, [r4, #552]	@ zero_extendqisi2
 5971 007e 13B9     		cbnz	r3, .L286
 220:GrannyChordApp.cpp ****       HandleButton1();
 5972              		.loc 3 220 7 view .LVU1652
 5973              	.LVL438:
 5974              	.LBB921:
 5975              	.LBI921:
 280:GrannyChordApp.cpp **** void GrannyChordApp::HandleButton1(){
 5976              		.loc 3 280 6 view .LVU1653
 5977              	.LBB922:
 281:GrannyChordApp.cpp ****   NextSynthMode();
 5978              		.loc 3 281 3 view .LVU1654
 281:GrannyChordApp.cpp ****   NextSynthMode();
 5979              		.loc 3 281 16 is_stmt 0 view .LVU1655
 5980 0080 2846     		mov	r0, r5
 5981 0082 FFF7FEFF 		bl	_ZN14GrannyChordApp13NextSynthModeEv
 5982              	.LVL439:
 5983              	.L286:
 281:GrannyChordApp.cpp ****   NextSynthMode();
 5984              		.loc 3 281 16 view .LVU1656
 5985              	.LBE922:
 5986              	.LBE921:
 222:GrannyChordApp.cpp ****     last_action_time_ = time_now;
 5987              		.loc 3 222 5 is_stmt 1 view .LVU1657
 223:GrannyChordApp.cpp ****     btn1_long_press_fired_ = false;
 5988              		.loc 3 223 28 is_stmt 0 view .LVU1658
 5989 0086 0023     		movs	r3, #0
 222:GrannyChordApp.cpp ****     last_action_time_ = time_now;
 5990              		.loc 3 222 23 view .LVU1659
 5991 0088 C4F82462 		str	r6, [r4, #548]
 223:GrannyChordApp.cpp ****     btn1_long_press_fired_ = false;
 5992              		.loc 3 223 5 is_stmt 1 view .LVU1660
 223:GrannyChordApp.cpp ****     btn1_long_press_fired_ = false;
 5993              		.loc 3 223 28 is_stmt 0 view .LVU1661
 5994 008c 84F82832 		strb	r3, [r4, #552]
 5995              	.L285:
 227:GrannyChordApp.cpp ****   if (pod_.button2.RisingEdge()){
 5996              		.loc 3 227 3 is_stmt 1 view .LVU1662
 227:GrannyChordApp.cpp ****   if (pod_.button2.RisingEdge()){
 5997              		.loc 3 227 7 is_stmt 0 view .LVU1663
 5998 0090 E869     		ldr	r0, [r5, #28]
 5999              	.LVL440:
 6000              	.LBB923:
 6001              	.LBI923:
  70:../libDaisy/src/hid/switch.h **** 
 6002              		.loc 1 70 17 is_stmt 1 view .LVU1664
 6003              	.LBB924:
  70:../libDaisy/src/hid/switch.h **** 
 6004              		.loc 1 70 38 view .LVU1665
  70:../libDaisy/src/hid/switch.h **** 
 6005              		.loc 1 70 54 is_stmt 0 view .LVU1666
 6006 0092 90F8C430 		ldrb	r3, [r0, #196]	@ zero_extendqisi2
 6007 0096 43B1     		cbz	r3, .L287
ARM GAS  /var/folders/2p/02m_5p7958535cp2tpgps0400000gn/T//cclqaeHn.s 			page 170


 6008              	.LVL441:
  70:../libDaisy/src/hid/switch.h **** 
 6009              		.loc 1 70 54 view .LVU1667
 6010              	.LBE924:
 6011              	.LBE923:
 227:GrannyChordApp.cpp ****   if (pod_.button2.RisingEdge()){
 6012              		.loc 3 227 3 view .LVU1668
 6013 0098 90F8CA30 		ldrb	r3, [r0, #202]	@ zero_extendqisi2
 6014 009c 7F2B     		cmp	r3, #127
 228:GrannyChordApp.cpp ****     last_action_time_ = time_now;
 6015              		.loc 3 228 5 is_stmt 1 view .LVU1669
 229:GrannyChordApp.cpp ****     btn2_long_press_fired_ = false;
 6016              		.loc 3 229 28 is_stmt 0 view .LVU1670
 6017 009e 02BF     		ittt	eq
 6018 00a0 0023     		moveq	r3, #0
 228:GrannyChordApp.cpp ****     last_action_time_ = time_now;
 6019              		.loc 3 228 23 view .LVU1671
 6020 00a2 C4F82462 		streq	r6, [r4, #548]
 229:GrannyChordApp.cpp ****     btn2_long_press_fired_ = false;
 6021              		.loc 3 229 5 is_stmt 1 view .LVU1672
 229:GrannyChordApp.cpp ****     btn2_long_press_fired_ = false;
 6022              		.loc 3 229 28 is_stmt 0 view .LVU1673
 6023 00a6 84F82932 		strbeq	r3, [r4, #553]
 6024              	.L287:
 233:GrannyChordApp.cpp ****   if (pod_.button2.Pressed()){
 6025              		.loc 3 233 3 is_stmt 1 view .LVU1674
 6026              	.LVL442:
 6027              	.LBB925:
 6028              	.LBB926:
 6029              	.LBI926:
  79:../libDaisy/src/hid/switch.h **** 
 6030              		.loc 1 79 17 view .LVU1675
 6031              	.LBB927:
  79:../libDaisy/src/hid/switch.h **** 
 6032              		.loc 1 79 35 view .LVU1676
  79:../libDaisy/src/hid/switch.h **** 
 6033              		.loc 1 79 35 is_stmt 0 view .LVU1677
 6034              	.LBE927:
 6035              	.LBE926:
 233:GrannyChordApp.cpp ****   if (pod_.button2.Pressed()){
 6036              		.loc 3 233 3 view .LVU1678
 6037 00aa 90F8CA30 		ldrb	r3, [r0, #202]	@ zero_extendqisi2
 6038 00ae FF2B     		cmp	r3, #255
 6039 00b0 11D1     		bne	.L289
 6040              	.LBB928:
 234:GrannyChordApp.cpp ****     float held_time = pod_.button2.TimeHeldMs();
 6041              		.loc 3 234 5 is_stmt 1 view .LVU1679
 234:GrannyChordApp.cpp ****     float held_time = pod_.button2.TimeHeldMs();
 6042              		.loc 3 234 46 is_stmt 0 view .LVU1680
 6043 00b2 C030     		adds	r0, r0, #192
 6044 00b4 FFF7FEFF 		bl	_ZNK5daisy6Switch10TimeHeldMsEv
 6045              	.LVL443:
 235:GrannyChordApp.cpp ****     if (held_time > LONG_PRESS_TIME && !btn2_long_press_fired_){
 6046              		.loc 3 235 5 is_stmt 1 view .LVU1681
 6047 00b8 DFED3D7A 		vldr.32	s15, .L315
 6048 00bc B4EEE70A 		vcmpe.f32	s0, s15
 6049 00c0 F1EE10FA 		vmrs	APSR_nzcv, FPSCR
ARM GAS  /var/folders/2p/02m_5p7958535cp2tpgps0400000gn/T//cclqaeHn.s 			page 171


 6050 00c4 07DD     		ble	.L289
 235:GrannyChordApp.cpp ****     if (held_time > LONG_PRESS_TIME && !btn2_long_press_fired_){
 6051              		.loc 3 235 37 is_stmt 0 discriminator 1 view .LVU1682
 6052 00c6 94F82932 		ldrb	r3, [r4, #553]	@ zero_extendqisi2
 6053 00ca 23B9     		cbnz	r3, .L289
 236:GrannyChordApp.cpp ****       HandleButton2LongPress();
 6054              		.loc 3 236 7 is_stmt 1 view .LVU1683
 237:GrannyChordApp.cpp ****       btn2_long_press_fired_ = true;
 6055              		.loc 3 237 7 view .LVU1684
 237:GrannyChordApp.cpp ****       btn2_long_press_fired_ = true;
 6056              		.loc 3 237 30 is_stmt 0 view .LVU1685
 6057 00cc 0123     		movs	r3, #1
 238:GrannyChordApp.cpp ****       last_action_time_ = time_now;
 6058              		.loc 3 238 25 view .LVU1686
 6059 00ce C4F82462 		str	r6, [r4, #548]
 237:GrannyChordApp.cpp ****       btn2_long_press_fired_ = true;
 6060              		.loc 3 237 30 view .LVU1687
 6061 00d2 84F82932 		strb	r3, [r4, #553]
 238:GrannyChordApp.cpp ****       last_action_time_ = time_now;
 6062              		.loc 3 238 7 is_stmt 1 view .LVU1688
 6063              	.LVL444:
 6064              	.L289:
 238:GrannyChordApp.cpp ****       last_action_time_ = time_now;
 6065              		.loc 3 238 7 is_stmt 0 view .LVU1689
 6066              	.LBE928:
 6067              	.LBE925:
 243:GrannyChordApp.cpp ****   if (pod_.button2.FallingEdge()){
 6068              		.loc 3 243 3 is_stmt 1 view .LVU1690
 243:GrannyChordApp.cpp ****   if (pod_.button2.FallingEdge()){
 6069              		.loc 3 243 7 is_stmt 0 view .LVU1691
 6070 00d6 EB69     		ldr	r3, [r5, #28]
 6071              	.LVL445:
 6072              	.LBB929:
 6073              	.LBI929:
  73:../libDaisy/src/hid/switch.h ****     {
 6074              		.loc 1 73 17 is_stmt 1 view .LVU1692
 6075              	.LBB930:
  75:../libDaisy/src/hid/switch.h ****     }
 6076              		.loc 1 75 9 view .LVU1693
  75:../libDaisy/src/hid/switch.h ****     }
 6077              		.loc 1 75 25 is_stmt 0 view .LVU1694
 6078 00d8 93F8C420 		ldrb	r2, [r3, #196]	@ zero_extendqisi2
 6079 00dc 72B1     		cbz	r2, .L292
 6080              	.LVL446:
  75:../libDaisy/src/hid/switch.h ****     }
 6081              		.loc 1 75 25 view .LVU1695
 6082              	.LBE930:
 6083              	.LBE929:
 243:GrannyChordApp.cpp ****   if (pod_.button2.FallingEdge()){
 6084              		.loc 3 243 3 view .LVU1696
 6085 00de 93F8CA30 		ldrb	r3, [r3, #202]	@ zero_extendqisi2
 6086 00e2 802B     		cmp	r3, #128
 6087 00e4 0AD1     		bne	.L292
 244:GrannyChordApp.cpp ****     if (!btn2_long_press_fired_){
 6088              		.loc 3 244 5 is_stmt 1 view .LVU1697
 6089 00e6 94F82932 		ldrb	r3, [r4, #553]	@ zero_extendqisi2
 6090 00ea 13B9     		cbnz	r3, .L293
ARM GAS  /var/folders/2p/02m_5p7958535cp2tpgps0400000gn/T//cclqaeHn.s 			page 172


 245:GrannyChordApp.cpp ****       HandleButton2();
 6091              		.loc 3 245 7 view .LVU1698
 6092              	.LVL447:
 6093              	.LBB931:
 6094              	.LBI931:
 285:GrannyChordApp.cpp **** void GrannyChordApp::HandleButton2(){
 6095              		.loc 3 285 6 view .LVU1699
 6096              	.LBB932:
 286:GrannyChordApp.cpp ****     PrevSynthMode();
 6097              		.loc 3 286 5 view .LVU1700
 286:GrannyChordApp.cpp ****     PrevSynthMode();
 6098              		.loc 3 286 18 is_stmt 0 view .LVU1701
 6099 00ec 2846     		mov	r0, r5
 6100 00ee FFF7FEFF 		bl	_ZN14GrannyChordApp13PrevSynthModeEv
 6101              	.LVL448:
 6102              	.L293:
 286:GrannyChordApp.cpp ****     PrevSynthMode();
 6103              		.loc 3 286 18 view .LVU1702
 6104              	.LBE932:
 6105              	.LBE931:
 247:GrannyChordApp.cpp ****     last_action_time_ = time_now;
 6106              		.loc 3 247 5 is_stmt 1 view .LVU1703
 248:GrannyChordApp.cpp ****     btn2_long_press_fired_ = false;
 6107              		.loc 3 248 28 is_stmt 0 view .LVU1704
 6108 00f2 0023     		movs	r3, #0
 247:GrannyChordApp.cpp ****     last_action_time_ = time_now;
 6109              		.loc 3 247 23 view .LVU1705
 6110 00f4 C4F82462 		str	r6, [r4, #548]
 248:GrannyChordApp.cpp ****     btn2_long_press_fired_ = false;
 6111              		.loc 3 248 5 is_stmt 1 view .LVU1706
 248:GrannyChordApp.cpp ****     btn2_long_press_fired_ = false;
 6112              		.loc 3 248 28 is_stmt 0 view .LVU1707
 6113 00f8 84F82932 		strb	r3, [r4, #553]
 6114              	.L292:
 252:GrannyChordApp.cpp ****   if (pod_.button1.Pressed() && pod_.button2.Pressed()){
 6115              		.loc 3 252 3 is_stmt 1 view .LVU1708
 6116              	.LBB933:
 252:GrannyChordApp.cpp ****   if (pod_.button1.Pressed() && pod_.button2.Pressed()){
 6117              		.loc 3 252 7 is_stmt 0 view .LVU1709
 6118 00fc E869     		ldr	r0, [r5, #28]
 6119              	.LVL449:
 6120              	.LBB934:
 6121              	.LBI934:
  79:../libDaisy/src/hid/switch.h **** 
 6122              		.loc 1 79 17 is_stmt 1 view .LVU1710
 6123              	.LBB935:
  79:../libDaisy/src/hid/switch.h **** 
 6124              		.loc 1 79 35 view .LVU1711
  79:../libDaisy/src/hid/switch.h **** 
 6125              		.loc 1 79 35 is_stmt 0 view .LVU1712
 6126              	.LBE935:
 6127              	.LBE934:
 252:GrannyChordApp.cpp ****   if (pod_.button1.Pressed() && pod_.button2.Pressed()){
 6128              		.loc 3 252 30 view .LVU1713
 6129 00fe 90F8BA30 		ldrb	r3, [r0, #186]	@ zero_extendqisi2
 6130 0102 FF2B     		cmp	r3, #255
 6131 0104 16D1     		bne	.L294
ARM GAS  /var/folders/2p/02m_5p7958535cp2tpgps0400000gn/T//cclqaeHn.s 			page 173


 6132              	.LVL450:
 6133              	.LBB936:
 6134              	.LBI936:
  79:../libDaisy/src/hid/switch.h **** 
 6135              		.loc 1 79 17 is_stmt 1 discriminator 1 view .LVU1714
 6136              	.LBB937:
  79:../libDaisy/src/hid/switch.h **** 
 6137              		.loc 1 79 35 discriminator 1 view .LVU1715
  79:../libDaisy/src/hid/switch.h **** 
 6138              		.loc 1 79 35 is_stmt 0 discriminator 1 view .LVU1716
 6139              	.LBE937:
 6140              	.LBE936:
 252:GrannyChordApp.cpp ****   if (pod_.button1.Pressed() && pod_.button2.Pressed()){
 6141              		.loc 3 252 30 discriminator 1 view .LVU1717
 6142 0106 90F8CA30 		ldrb	r3, [r0, #202]	@ zero_extendqisi2
 6143 010a FF2B     		cmp	r3, #255
 6144 010c 12D1     		bne	.L294
 6145              	.LBB938:
 253:GrannyChordApp.cpp ****     float heldTime1 = pod_.button1.TimeHeldMs();
 6146              		.loc 3 253 5 is_stmt 1 view .LVU1718
 253:GrannyChordApp.cpp ****     float heldTime1 = pod_.button1.TimeHeldMs();
 6147              		.loc 3 253 46 is_stmt 0 view .LVU1719
 6148 010e B030     		adds	r0, r0, #176
 6149 0110 FFF7FEFF 		bl	_ZNK5daisy6Switch10TimeHeldMsEv
 6150              	.LVL451:
 254:GrannyChordApp.cpp ****     float heldTime2 = pod_.button2.TimeHeldMs();
 6151              		.loc 3 254 46 view .LVU1720
 6152 0114 E869     		ldr	r0, [r5, #28]
 253:GrannyChordApp.cpp ****     float heldTime1 = pod_.button1.TimeHeldMs();
 6153              		.loc 3 253 46 view .LVU1721
 6154 0116 B0EE408A 		vmov.f32	s16, s0
 6155              	.LVL452:
 254:GrannyChordApp.cpp ****     float heldTime2 = pod_.button2.TimeHeldMs();
 6156              		.loc 3 254 5 is_stmt 1 view .LVU1722
 254:GrannyChordApp.cpp ****     float heldTime2 = pod_.button2.TimeHeldMs();
 6157              		.loc 3 254 46 is_stmt 0 view .LVU1723
 6158 011a C030     		adds	r0, r0, #192
 6159 011c FFF7FEFF 		bl	_ZNK5daisy6Switch10TimeHeldMsEv
 6160              	.LVL453:
 255:GrannyChordApp.cpp ****     if (heldTime1 > LONG_PRESS_TIME &&
 6161              		.loc 3 255 5 is_stmt 1 view .LVU1724
 6162 0120 DFED237A 		vldr.32	s15, .L315
 6163 0124 B4EEE78A 		vcmpe.f32	s16, s15
 6164 0128 F1EE10FA 		vmrs	APSR_nzcv, FPSCR
 6165 012c 06DC     		bgt	.L295
 6166              	.LVL454:
 6167              	.L277:
 255:GrannyChordApp.cpp ****     if (heldTime1 > LONG_PRESS_TIME &&
 6168              		.loc 3 255 5 is_stmt 0 view .LVU1725
 6169              	.LBE938:
 6170              	.LBE933:
 277:GrannyChordApp.cpp **** }
 6171              		.loc 3 277 1 view .LVU1726
 6172 012e BDEC028B 		vldm	sp!, {d8}
 6173              		.cfi_remember_state
 6174              		.cfi_restore 80
 6175              		.cfi_restore 81
ARM GAS  /var/folders/2p/02m_5p7958535cp2tpgps0400000gn/T//cclqaeHn.s 			page 174


 6176              		.cfi_def_cfa_offset 16
 6177 0132 70BD     		pop	{r4, r5, r6, pc}
 6178              	.LVL455:
 6179              	.L294:
 6180              		.cfi_restore_state
 6181              	.LBB954:
 275:GrannyChordApp.cpp ****     both_btns_long_press_fired_ = false;
 6182              		.loc 3 275 5 is_stmt 1 discriminator 4 view .LVU1727
 275:GrannyChordApp.cpp ****     both_btns_long_press_fired_ = false;
 6183              		.loc 3 275 33 is_stmt 0 discriminator 4 view .LVU1728
 6184 0134 0023     		movs	r3, #0
 6185 0136 84F82A32 		strb	r3, [r4, #554]
 6186 013a F8E7     		b	.L277
 6187              	.LVL456:
 6188              	.L295:
 6189              	.LBB953:
 255:GrannyChordApp.cpp ****     if (heldTime1 > LONG_PRESS_TIME &&
 6190              		.loc 3 255 37 discriminator 1 view .LVU1729
 6191 013c B4EEE70A 		vcmpe.f32	s0, s15
 6192 0140 F1EE10FA 		vmrs	APSR_nzcv, FPSCR
 6193 0144 F3DD     		ble	.L277
 256:GrannyChordApp.cpp ****         heldTime2 > LONG_PRESS_TIME &&
 6194              		.loc 3 256 37 view .LVU1730
 6195 0146 94F82A12 		ldrb	r1, [r4, #554]	@ zero_extendqisi2
 6196 014a 0029     		cmp	r1, #0
 6197 014c EFD1     		bne	.L277
 259:GrannyChordApp.cpp ****       if (!recording_out_){
 6198              		.loc 3 259 7 is_stmt 1 view .LVU1731
 6199 014e 94F81032 		ldrb	r3, [r4, #528]	@ zero_extendqisi2
 260:GrannyChordApp.cpp ****         pod_.seed.SetLed(1);
 6200              		.loc 3 260 25 is_stmt 0 view .LVU1732
 6201 0152 E869     		ldr	r0, [r5, #28]
 259:GrannyChordApp.cpp ****       if (!recording_out_){
 6202              		.loc 3 259 7 view .LVU1733
 6203 0154 8BB9     		cbnz	r3, .L298
 260:GrannyChordApp.cpp ****         pod_.seed.SetLed(1);
 6204              		.loc 3 260 9 is_stmt 1 view .LVU1734
 260:GrannyChordApp.cpp ****         pod_.seed.SetLed(1);
 6205              		.loc 3 260 25 is_stmt 0 view .LVU1735
 6206 0156 0121     		movs	r1, #1
 6207 0158 FFF7FEFF 		bl	_ZN5daisy9DaisySeed6SetLedEb
 6208              	.LVL457:
 261:GrannyChordApp.cpp ****         recording_out_ = true;
 6209              		.loc 3 261 9 is_stmt 1 view .LVU1736
 261:GrannyChordApp.cpp ****         recording_out_ = true;
 6210              		.loc 3 261 24 is_stmt 0 view .LVU1737
 6211 015c 0123     		movs	r3, #1
 6212              	.LBB939:
 6213              	.LBB940:
 6214              		.loc 5 128 23 view .LVU1738
 6215 015e 1548     		ldr	r0, .L315+4
 6216              	.LBE940:
 6217              	.LBE939:
 261:GrannyChordApp.cpp ****         recording_out_ = true;
 6218              		.loc 3 261 24 view .LVU1739
 6219 0160 84F81032 		strb	r3, [r4, #528]
 262:GrannyChordApp.cpp ****         DebugPrint(pod_,"now recording out!");
ARM GAS  /var/folders/2p/02m_5p7958535cp2tpgps0400000gn/T//cclqaeHn.s 			page 175


 6220              		.loc 3 262 9 is_stmt 1 view .LVU1740
 262:GrannyChordApp.cpp ****         DebugPrint(pod_,"now recording out!");
 6221              		.loc 3 262 9 view .LVU1741
 6222              	.LVL458:
 6223              	.LBB942:
 6224              	.LBI939:
 126:../libDaisy/src/daisy_seed.h ****     {
 6225              		.loc 5 126 17 view .LVU1742
 6226              	.LBB941:
 6227              		.loc 5 128 23 is_stmt 0 view .LVU1743
 6228 0164 FFF7FEFF 		bl	_ZN5daisy6LoggerILNS_17LoggerDestinationE1EE9PrintLineEPKcz
 6229              	.LVL459:
 6230              		.loc 5 128 23 view .LVU1744
 6231              	.LBE941:
 6232              	.LBE942:
 263:GrannyChordApp.cpp ****         RecordOutToSD();
 6233              		.loc 3 263 9 is_stmt 1 view .LVU1745
 263:GrannyChordApp.cpp ****         RecordOutToSD();
 6234              		.loc 3 263 22 is_stmt 0 view .LVU1746
 6235 0168 2846     		mov	r0, r5
 6236 016a FFF7FEFF 		bl	_ZN14GrannyChordApp13RecordOutToSDEv
 6237              	.LVL460:
 6238              	.L299:
 270:GrannyChordApp.cpp ****       both_btns_long_press_fired_ = true;
 6239              		.loc 3 270 7 is_stmt 1 view .LVU1747
 270:GrannyChordApp.cpp ****       both_btns_long_press_fired_ = true;
 6240              		.loc 3 270 35 is_stmt 0 view .LVU1748
 6241 016e 0123     		movs	r3, #1
 271:GrannyChordApp.cpp ****       last_action_time_ = time_now;
 6242              		.loc 3 271 25 view .LVU1749
 6243 0170 C4F82462 		str	r6, [r4, #548]
 270:GrannyChordApp.cpp ****       both_btns_long_press_fired_ = true;
 6244              		.loc 3 270 35 view .LVU1750
 6245 0174 84F82A32 		strb	r3, [r4, #554]
 271:GrannyChordApp.cpp ****       last_action_time_ = time_now;
 6246              		.loc 3 271 7 is_stmt 1 view .LVU1751
 6247 0178 D9E7     		b	.L277
 6248              	.LVL461:
 6249              	.L298:
 266:GrannyChordApp.cpp ****         pod_.seed.SetLed(0);
 6250              		.loc 3 266 9 view .LVU1752
 266:GrannyChordApp.cpp ****         pod_.seed.SetLed(0);
 6251              		.loc 3 266 25 is_stmt 0 view .LVU1753
 6252 017a FFF7FEFF 		bl	_ZN5daisy9DaisySeed6SetLedEb
 6253              	.LVL462:
 267:GrannyChordApp.cpp ****         DebugPrint(pod_, "finished recording out: %.2fs",sd_writer_.GetLengthSeconds());
 6254              		.loc 3 267 9 is_stmt 1 view .LVU1754
 267:GrannyChordApp.cpp ****         DebugPrint(pod_, "finished recording out: %.2fs",sd_writer_.GetLengthSeconds());
 6255              		.loc 3 267 9 view .LVU1755
 6256              	.LBB943:
 6257              	.LBI943:
 175:../libDaisy/src/util/WavWriter.h ****     {
 6258              		.loc 9 175 18 view .LVU1756
 175:../libDaisy/src/util/WavWriter.h ****     {
 6259              		.loc 9 175 18 is_stmt 0 view .LVU1757
 6260              	.LBE943:
 6261              	.LBB946:
ARM GAS  /var/folders/2p/02m_5p7958535cp2tpgps0400000gn/T//cclqaeHn.s 			page 176


 6262              	.LBI946:
 126:../libDaisy/src/daisy_seed.h ****     {
 6263              		.loc 5 126 17 is_stmt 1 view .LVU1758
 6264              	.LBE946:
 6265              	.LBB949:
 6266              	.LBB944:
 177:../libDaisy/src/util/WavWriter.h ****     }
 6267              		.loc 9 177 23 is_stmt 0 view .LVU1759
 6268 017e 05F58043 		add	r3, r5, #16384
 6269              	.LBE944:
 6270              	.LBE949:
 6271              	.LBB950:
 6272              	.LBB947:
 6273              		.loc 5 128 23 view .LVU1760
 6274 0182 0D48     		ldr	r0, .L315+8
 6275              	.LBE947:
 6276              	.LBE950:
 6277              	.LBB951:
 6278              	.LBB945:
 177:../libDaisy/src/util/WavWriter.h ****     }
 6279              		.loc 9 177 16 view .LVU1761
 6280 0184 D3F8C02F 		ldr	r2, [r3, #4032]
 177:../libDaisy/src/util/WavWriter.h ****     }
 6281              		.loc 9 177 48 view .LVU1762
 6282 0188 03F69473 		addw	r3, r3, #3988
 177:../libDaisy/src/util/WavWriter.h ****     }
 6283              		.loc 9 177 16 view .LVU1763
 6284 018c 07EE902A 		vmov	s15, r2	@ int
 177:../libDaisy/src/util/WavWriter.h ****     }
 6285              		.loc 9 177 48 view .LVU1764
 6286 0190 D3ED0D6A 		vldr.32	s13, [r3, #52]
 177:../libDaisy/src/util/WavWriter.h ****     }
 6287              		.loc 9 177 16 view .LVU1765
 6288 0194 F8EE677A 		vcvt.f32.u32	s15, s15
 177:../libDaisy/src/util/WavWriter.h ****     }
 6289              		.loc 9 177 48 view .LVU1766
 6290 0198 87EEA67A 		vdiv.f32	s14, s15, s13
 6291              	.LBE945:
 6292              	.LBE951:
 6293              	.LBB952:
 6294              	.LBB948:
 6295              		.loc 5 128 23 view .LVU1767
 6296 019c B7EEC77A 		vcvt.f64.f32	d7, s14
 6297 01a0 53EC172B 		vmov	r2, r3, d7
 6298 01a4 FFF7FEFF 		bl	_ZN5daisy6LoggerILNS_17LoggerDestinationE1EE9PrintLineEPKcz
 6299              	.LVL463:
 6300              		.loc 5 128 23 view .LVU1768
 6301              	.LBE948:
 6302              	.LBE952:
 268:GrannyChordApp.cpp ****         FinishRecording();
 6303              		.loc 3 268 9 is_stmt 1 view .LVU1769
 268:GrannyChordApp.cpp ****         FinishRecording();
 6304              		.loc 3 268 24 is_stmt 0 view .LVU1770
 6305 01a8 2846     		mov	r0, r5
 6306 01aa FFF7FEFF 		bl	_ZN14GrannyChordApp15FinishRecordingEv
 6307              	.LVL464:
 6308 01ae DEE7     		b	.L299
ARM GAS  /var/folders/2p/02m_5p7958535cp2tpgps0400000gn/T//cclqaeHn.s 			page 177


 6309              	.L316:
 6310              		.align	2
 6311              	.L315:
 6312 01b0 00007A44 		.word	1148846080
 6313 01b4 00000000 		.word	.LC32
 6314 01b8 13000000 		.word	.LC33
 6315              	.LBE953:
 6316              	.LBE954:
 6317              		.cfi_endproc
 6318              	.LFE4922:
 6320              		.section	.rodata._ZN14GrannyChordApp8UpdateUIEv.str1.1,"aMS",%progbits,1
 6321              	.LC34:
 6322 0000 73776974 		.ascii	"switching states\000"
 6322      6368696E 
 6322      67207374 
 6322      61746573 
 6322      00
 6323              	.LC35:
 6324 0011 68616E64 		.ascii	"handled state change\000"
 6324      6C656420 
 6324      73746174 
 6324      65206368 
 6324      616E6765 
 6325              		.section	.text._ZN14GrannyChordApp8UpdateUIEv,"ax",%progbits
 6326              		.align	1
 6327              		.global	_ZN14GrannyChordApp8UpdateUIEv
 6328              		.syntax unified
 6329              		.thumb
 6330              		.thumb_func
 6332              	_ZN14GrannyChordApp8UpdateUIEv:
 6333              	.LVL465:
 6334              	.LFB4917:
  80:GrannyChordApp.cpp **** void GrannyChordApp::UpdateUI(){
 6335              		.loc 3 80 32 is_stmt 1 view -0
 6336              		.cfi_startproc
 6337              		@ args = 0, pretend = 0, frame = 0
 6338              		@ frame_needed = 0, uses_anonymous_args = 0
  81:GrannyChordApp.cpp ****   pod_.ProcessDigitalControls();
 6339              		.loc 3 81 3 view .LVU1772
  80:GrannyChordApp.cpp **** void GrannyChordApp::UpdateUI(){
 6340              		.loc 3 80 32 is_stmt 0 view .LVU1773
 6341 0000 10B5     		push	{r4, lr}
 6342              		.cfi_def_cfa_offset 8
 6343              		.cfi_offset 4, -8
 6344              		.cfi_offset 14, -4
  80:GrannyChordApp.cpp **** void GrannyChordApp::UpdateUI(){
 6345              		.loc 3 80 32 view .LVU1774
 6346 0002 0446     		mov	r4, r0
  81:GrannyChordApp.cpp ****   pod_.ProcessDigitalControls();
 6347              		.loc 3 81 30 view .LVU1775
 6348 0004 C069     		ldr	r0, [r0, #28]
 6349              	.LVL466:
  81:GrannyChordApp.cpp ****   pod_.ProcessDigitalControls();
 6350              		.loc 3 81 30 view .LVU1776
 6351 0006 FFF7FEFF 		bl	_ZN5daisy8DaisyPod22ProcessDigitalControlsEv
 6352              	.LVL467:
  83:GrannyChordApp.cpp ****   if (pod_.encoder.TimeHeldMs() > 1000.0f) HandleEncoderLongPress();
ARM GAS  /var/folders/2p/02m_5p7958535cp2tpgps0400000gn/T//cclqaeHn.s 			page 178


 6353              		.loc 3 83 3 is_stmt 1 view .LVU1777
 6354              	.LBB967:
 6355              	.LBI967:
  43:../libDaisy/src/hid/encoder.h **** 
  44:../libDaisy/src/hid/encoder.h ****     /** Returns true while the encoder is held down.*/
  45:../libDaisy/src/hid/encoder.h ****     inline bool Pressed() const { return sw_.Pressed(); }
  46:../libDaisy/src/hid/encoder.h **** 
  47:../libDaisy/src/hid/encoder.h ****     /** Returns the time in milliseconds that the encoder has been held down. */
  48:../libDaisy/src/hid/encoder.h ****     inline float TimeHeldMs() const { return sw_.TimeHeldMs(); }
 6356              		.loc 7 48 18 view .LVU1778
 6357              	.LBB968:
 6358              		.loc 7 48 39 view .LVU1779
 6359              		.loc 7 48 60 is_stmt 0 view .LVU1780
 6360 000a E069     		ldr	r0, [r4, #28]
 6361 000c 4830     		adds	r0, r0, #72
 6362 000e FFF7FEFF 		bl	_ZNK5daisy6Switch10TimeHeldMsEv
 6363              	.LVL468:
 6364              		.loc 7 48 60 view .LVU1781
 6365              	.LBE968:
 6366              	.LBE967:
  83:GrannyChordApp.cpp ****   if (pod_.encoder.TimeHeldMs() > 1000.0f) HandleEncoderLongPress();
 6367              		.loc 3 83 3 view .LVU1782
 6368 0012 DFED217A 		vldr.32	s15, .L335
 6369 0016 B4EEE70A 		vcmpe.f32	s0, s15
 6370 001a F1EE10FA 		vmrs	APSR_nzcv, FPSCR
 6371 001e 2CDD     		ble	.L334
  83:GrannyChordApp.cpp ****   if (pod_.encoder.TimeHeldMs() > 1000.0f) HandleEncoderLongPress();
 6372              		.loc 3 83 44 is_stmt 1 discriminator 1 view .LVU1783
  83:GrannyChordApp.cpp ****   if (pod_.encoder.TimeHeldMs() > 1000.0f) HandleEncoderLongPress();
 6373              		.loc 3 83 66 is_stmt 0 discriminator 1 view .LVU1784
 6374 0020 2046     		mov	r0, r4
 6375 0022 FFF7FEFF 		bl	_ZN14GrannyChordApp22HandleEncoderLongPressEv
 6376              	.LVL469:
 6377              	.L320:
  86:GrannyChordApp.cpp ****   if (curr_state_==AppState::Synthesis){
 6378              		.loc 3 86 3 is_stmt 1 view .LVU1785
 6379 0026 D4F89432 		ldr	r3, [r4, #660]
 6380 002a 022B     		cmp	r3, #2
 6381 002c 02D1     		bne	.L321
  87:GrannyChordApp.cpp ****     ButtonHandler();
 6382              		.loc 3 87 5 view .LVU1786
  87:GrannyChordApp.cpp ****     ButtonHandler();
 6383              		.loc 3 87 18 is_stmt 0 view .LVU1787
 6384 002e 2046     		mov	r0, r4
 6385 0030 FFF7FEFF 		bl	_ZN14GrannyChordApp13ButtonHandlerEv
 6386              	.LVL470:
 6387              	.L321:
  90:GrannyChordApp.cpp ****   int32_t encoder_inc = pod_.encoder.Increment();
 6388              		.loc 3 90 3 is_stmt 1 view .LVU1788
  90:GrannyChordApp.cpp ****   int32_t encoder_inc = pod_.encoder.Increment();
 6389              		.loc 3 90 25 is_stmt 0 view .LVU1789
 6390 0034 E369     		ldr	r3, [r4, #28]
 6391              	.LVL471:
 6392              	.LBB969:
 6393              	.LBI969:
  36:../libDaisy/src/hid/encoder.h **** 
 6394              		.loc 7 36 20 is_stmt 1 view .LVU1790
ARM GAS  /var/folders/2p/02m_5p7958535cp2tpgps0400000gn/T//cclqaeHn.s 			page 179


 6395              	.LBB970:
  36:../libDaisy/src/hid/encoder.h **** 
 6396              		.loc 7 36 40 view .LVU1791
  36:../libDaisy/src/hid/encoder.h **** 
 6397              		.loc 7 36 56 is_stmt 0 view .LVU1792
 6398 0036 93F84420 		ldrb	r2, [r3, #68]	@ zero_extendqisi2
 6399 003a 22B1     		cbz	r2, .L322
 6400 003c 596E     		ldr	r1, [r3, #100]
 6401              	.LVL472:
  36:../libDaisy/src/hid/encoder.h **** 
 6402              		.loc 7 36 56 view .LVU1793
 6403              	.LBE970:
 6404              	.LBE969:
  91:GrannyChordApp.cpp ****   if (encoder_inc!=0){
 6405              		.loc 3 91 3 is_stmt 1 view .LVU1794
 6406 003e 11B1     		cbz	r1, .L322
  92:GrannyChordApp.cpp ****     HandleEncoderIncrement(encoder_inc);
 6407              		.loc 3 92 5 view .LVU1795
  92:GrannyChordApp.cpp ****     HandleEncoderIncrement(encoder_inc);
 6408              		.loc 3 92 27 is_stmt 0 view .LVU1796
 6409 0040 2046     		mov	r0, r4
 6410 0042 FFF7FEFF 		bl	_ZN14GrannyChordApp22HandleEncoderIncrementEi
 6411              	.LVL473:
 6412              	.L322:
  94:GrannyChordApp.cpp ****   if (curr_state_ != next_state_){
 6413              		.loc 3 94 3 is_stmt 1 view .LVU1797
 6414 0046 D4E9A513 		ldrd	r1, r3, [r4, #660]
 6415 004a 9942     		cmp	r1, r3
 6416 004c 22D0     		beq	.L317
  96:GrannyChordApp.cpp ****     DebugPrintState(curr_state_);
 6417              		.loc 3 96 5 view .LVU1798
  96:GrannyChordApp.cpp ****     DebugPrintState(curr_state_);
 6418              		.loc 3 96 20 is_stmt 0 view .LVU1799
 6419 004e 2046     		mov	r0, r4
 6420 0050 FFF7FEFF 		bl	_ZN14GrannyChordApp15DebugPrintStateE8AppState
 6421              	.LVL474:
  97:GrannyChordApp.cpp ****     DebugPrint(pod_, "switching states");
 6422              		.loc 3 97 5 is_stmt 1 view .LVU1800
  97:GrannyChordApp.cpp ****     DebugPrint(pod_, "switching states");
 6423              		.loc 3 97 5 view .LVU1801
 6424              	.LBB971:
 6425              	.LBI971:
 126:../libDaisy/src/daisy_seed.h ****     {
 6426              		.loc 5 126 17 view .LVU1802
 6427              	.LBB972:
 6428              		.loc 5 128 23 is_stmt 0 view .LVU1803
 6429 0054 1148     		ldr	r0, .L335+4
 6430 0056 FFF7FEFF 		bl	_ZN5daisy6LoggerILNS_17LoggerDestinationE1EE9PrintLineEPKcz
 6431              	.LVL475:
 6432              		.loc 5 128 23 view .LVU1804
 6433              	.LBE972:
 6434              	.LBE971:
  98:GrannyChordApp.cpp ****     DebugPrintState(next_state_);
 6435              		.loc 3 98 5 is_stmt 1 view .LVU1805
  98:GrannyChordApp.cpp ****     DebugPrintState(next_state_);
 6436              		.loc 3 98 20 is_stmt 0 view .LVU1806
 6437 005a D4F89812 		ldr	r1, [r4, #664]
ARM GAS  /var/folders/2p/02m_5p7958535cp2tpgps0400000gn/T//cclqaeHn.s 			page 180


 6438 005e 2046     		mov	r0, r4
 6439 0060 FFF7FEFF 		bl	_ZN14GrannyChordApp15DebugPrintStateE8AppState
 6440              	.LVL476:
 100:GrannyChordApp.cpp ****     SetLedAppState();
 6441              		.loc 3 100 5 is_stmt 1 view .LVU1807
 100:GrannyChordApp.cpp ****     SetLedAppState();
 6442              		.loc 3 100 19 is_stmt 0 view .LVU1808
 6443 0064 2046     		mov	r0, r4
 6444 0066 FFF7FEFF 		bl	_ZN14GrannyChordApp14SetLedAppStateEv
 6445              	.LVL477:
 101:GrannyChordApp.cpp ****     HandleStateChange();
 6446              		.loc 3 101 5 is_stmt 1 view .LVU1809
 101:GrannyChordApp.cpp ****     HandleStateChange();
 6447              		.loc 3 101 22 is_stmt 0 view .LVU1810
 6448 006a 2046     		mov	r0, r4
 6449 006c FFF7FEFF 		bl	_ZN14GrannyChordApp17HandleStateChangeEv
 6450              	.LVL478:
 102:GrannyChordApp.cpp ****     DebugPrint(pod_, "handled state change");
 6451              		.loc 3 102 5 is_stmt 1 view .LVU1811
 102:GrannyChordApp.cpp ****     DebugPrint(pod_, "handled state change");
 6452              		.loc 3 102 5 view .LVU1812
 6453              	.LBB973:
 6454              	.LBI973:
 126:../libDaisy/src/daisy_seed.h ****     {
 6455              		.loc 5 126 17 view .LVU1813
 6456              	.LBB974:
 6457              		.loc 5 128 23 is_stmt 0 view .LVU1814
 6458 0070 0B48     		ldr	r0, .L335+8
 6459              	.LBE974:
 6460              	.LBE973:
 104:GrannyChordApp.cpp **** }
 6461              		.loc 3 104 1 view .LVU1815
 6462 0072 BDE81040 		pop	{r4, lr}
 6463              		.cfi_remember_state
 6464              		.cfi_restore 14
 6465              		.cfi_restore 4
 6466              		.cfi_def_cfa_offset 0
 6467              	.LVL479:
 6468              	.LBB976:
 6469              	.LBB975:
 6470              		.loc 5 128 23 view .LVU1816
 6471 0076 FFF7FEBF 		b	_ZN5daisy6LoggerILNS_17LoggerDestinationE1EE9PrintLineEPKcz
 6472              	.LVL480:
 6473              	.L334:
 6474              		.cfi_restore_state
 6475              		.loc 5 128 23 view .LVU1817
 6476              	.LBE975:
 6477              	.LBE976:
  84:GrannyChordApp.cpp ****   else if (pod_.encoder.FallingEdge()) HandleEncoderPressed();
 6478              		.loc 3 84 8 is_stmt 1 view .LVU1818
  84:GrannyChordApp.cpp ****   else if (pod_.encoder.FallingEdge()) HandleEncoderPressed();
 6479              		.loc 3 84 12 is_stmt 0 view .LVU1819
 6480 007a E369     		ldr	r3, [r4, #28]
 6481              	.LVL481:
 6482              	.LBB977:
 6483              	.LBI977:
  42:../libDaisy/src/hid/encoder.h **** 
ARM GAS  /var/folders/2p/02m_5p7958535cp2tpgps0400000gn/T//cclqaeHn.s 			page 181


 6484              		.loc 7 42 17 is_stmt 1 view .LVU1820
 6485              	.LBE977:
  42:../libDaisy/src/hid/encoder.h **** 
 6486              		.loc 7 42 39 view .LVU1821
 6487              	.LBB980:
 6488              	.LBB978:
 6489              	.LBI978:
  73:../libDaisy/src/hid/switch.h ****     {
 6490              		.loc 1 73 17 view .LVU1822
 6491              	.LBB979:
  75:../libDaisy/src/hid/switch.h ****     }
 6492              		.loc 1 75 9 view .LVU1823
  75:../libDaisy/src/hid/switch.h ****     }
 6493              		.loc 1 75 25 is_stmt 0 view .LVU1824
 6494 007c 93F84C20 		ldrb	r2, [r3, #76]	@ zero_extendqisi2
 6495 0080 002A     		cmp	r2, #0
 6496 0082 D0D0     		beq	.L320
 6497              	.LVL482:
  75:../libDaisy/src/hid/switch.h ****     }
 6498              		.loc 1 75 25 view .LVU1825
 6499              	.LBE979:
 6500              	.LBE978:
 6501              	.LBE980:
  84:GrannyChordApp.cpp ****   else if (pod_.encoder.FallingEdge()) HandleEncoderPressed();
 6502              		.loc 3 84 8 view .LVU1826
 6503 0084 93F85230 		ldrb	r3, [r3, #82]	@ zero_extendqisi2
 6504 0088 802B     		cmp	r3, #128
 6505 008a CCD1     		bne	.L320
  84:GrannyChordApp.cpp ****   else if (pod_.encoder.FallingEdge()) HandleEncoderPressed();
 6506              		.loc 3 84 40 is_stmt 1 discriminator 1 view .LVU1827
  84:GrannyChordApp.cpp ****   else if (pod_.encoder.FallingEdge()) HandleEncoderPressed();
 6507              		.loc 3 84 60 is_stmt 0 discriminator 1 view .LVU1828
 6508 008c 2046     		mov	r0, r4
 6509 008e FFF7FEFF 		bl	_ZN14GrannyChordApp20HandleEncoderPressedEv
 6510              	.LVL483:
 6511 0092 C8E7     		b	.L320
 6512              	.L317:
 104:GrannyChordApp.cpp **** }
 6513              		.loc 3 104 1 view .LVU1829
 6514 0094 10BD     		pop	{r4, pc}
 6515              	.LVL484:
 6516              	.L336:
 104:GrannyChordApp.cpp **** }
 6517              		.loc 3 104 1 view .LVU1830
 6518 0096 00BF     		.align	2
 6519              	.L335:
 6520 0098 00007A44 		.word	1148846080
 6521 009c 00000000 		.word	.LC34
 6522 00a0 11000000 		.word	.LC35
 6523              		.cfi_endproc
 6524              	.LFE4917:
 6526              		.section	.rodata._ZN14GrannyChordApp3RunEv.str1.1,"aMS",%progbits,1
 6527              	.LC36:
 6528 0000 61707020 		.ascii	"app is running\000"
 6528      69732072 
 6528      756E6E69 
 6528      6E6700
ARM GAS  /var/folders/2p/02m_5p7958535cp2tpgps0400000gn/T//cclqaeHn.s 			page 182


 6529              		.section	.text._ZN14GrannyChordApp3RunEv,"ax",%progbits
 6530              		.align	1
 6531              		.global	_ZN14GrannyChordApp3RunEv
 6532              		.syntax unified
 6533              		.thumb
 6534              		.thumb_func
 6536              	_ZN14GrannyChordApp3RunEv:
 6537              	.LVL485:
 6538              	.LFB4916:
  53:GrannyChordApp.cpp **** void GrannyChordApp::Run(){
 6539              		.loc 3 53 27 is_stmt 1 view -0
 6540              		.cfi_startproc
 6541              		@ Volatile: function does not return.
 6542              		@ args = 0, pretend = 0, frame = 8
 6543              		@ frame_needed = 0, uses_anonymous_args = 0
  54:GrannyChordApp.cpp ****   pod_.seed.PrintLine("app is running");
 6544              		.loc 3 54 3 view .LVU1832
 6545              	.LBB991:
 6546              	.LBI991:
 126:../libDaisy/src/daisy_seed.h ****     {
 6547              		.loc 5 126 17 view .LVU1833
 6548              	.LBE991:
  53:GrannyChordApp.cpp **** void GrannyChordApp::Run(){
 6549              		.loc 3 53 27 is_stmt 0 view .LVU1834
 6550 0000 0446     		mov	r4, r0
 6551 0002 07B5     		push	{r0, r1, r2, lr}
 6552              		.cfi_def_cfa_offset 16
 6553              		.cfi_offset 14, -4
 6554              	.LBB993:
 6555              	.LBB992:
 6556              		.loc 5 128 23 view .LVU1835
 6557 0004 2448     		ldr	r0, .L353
 6558              	.LVL486:
 6559              		.loc 5 128 23 view .LVU1836
 6560 0006 FFF7FEFF 		bl	_ZN5daisy6LoggerILNS_17LoggerDestinationE1EE9PrintLineEPKcz
 6561              	.LVL487:
 6562              	.L344:
 6563              		.loc 5 128 23 view .LVU1837
 6564              	.LBE992:
 6565              	.LBE993:
  56:GrannyChordApp.cpp ****   while(true){
 6566              		.loc 3 56 3 is_stmt 1 view .LVU1838
  66:GrannyChordApp.cpp ****     if (recording_out_) {
 6567              		.loc 3 66 5 view .LVU1839
  66:GrannyChordApp.cpp ****     if (recording_out_) {
 6568              		.loc 3 66 9 is_stmt 0 view .LVU1840
 6569 000a 04F55046 		add	r6, r4, #53248
  66:GrannyChordApp.cpp ****     if (recording_out_) {
 6570              		.loc 3 66 5 view .LVU1841
 6571 000e 96F81032 		ldrb	r3, [r6, #528]	@ zero_extendqisi2
 6572 0012 CBB3     		cbz	r3, .L339
 6573              	.LBB994:
 6574              	.LBB995:
 128:../libDaisy/src/util/WavWriter.h ****         {
 6575              		.loc 9 128 12 view .LVU1842
 6576 0014 04F54043 		add	r3, r4, #49152
 6577              	.LBE995:
ARM GAS  /var/folders/2p/02m_5p7958535cp2tpgps0400000gn/T//cclqaeHn.s 			page 183


 6578              	.LBE994:
  67:GrannyChordApp.cpp ****       sd_writer_.Write();
 6579              		.loc 3 67 23 view .LVU1843
 6580 0018 04F59F45 		add	r5, r4, #20352
 6581              	.LBB1000:
 6582              	.LBB998:
 128:../libDaisy/src/util/WavWriter.h ****         {
 6583              		.loc 9 128 12 view .LVU1844
 6584 001c D3F8D41F 		ldr	r1, [r3, #4052]
 6585              	.LBE998:
 6586              	.LBE1000:
  67:GrannyChordApp.cpp ****       sd_writer_.Write();
 6587              		.loc 3 67 23 view .LVU1845
 6588 0020 1435     		adds	r5, r5, #20
  67:GrannyChordApp.cpp ****       sd_writer_.Write();
 6589              		.loc 3 67 7 is_stmt 1 view .LVU1846
 6590              	.LVL488:
 6591              	.LBB1001:
 6592              	.LBI994:
 126:../libDaisy/src/util/WavWriter.h ****     {
 6593              		.loc 9 126 10 view .LVU1847
 6594              	.LBB999:
 128:../libDaisy/src/util/WavWriter.h ****         {
 6595              		.loc 9 128 41 is_stmt 0 view .LVU1848
 6596 0022 B1B1     		cbz	r1, .L340
 6597              	.LVL489:
 6598              	.LBB996:
 6599              	.LBI996:
 169:../libDaisy/src/util/WavWriter.h **** 
 6600              		.loc 9 169 17 is_stmt 1 view .LVU1849
 169:../libDaisy/src/util/WavWriter.h **** 
 6601              		.loc 9 169 17 is_stmt 0 view .LVU1850
 6602              	.LBE996:
 128:../libDaisy/src/util/WavWriter.h ****         {
 6603              		.loc 9 128 41 view .LVU1851
 6604 0024 93F8D82F 		ldrb	r2, [r3, #4056]	@ zero_extendqisi2
 6605 0028 9AB1     		cbz	r2, .L340
 6606              	.LBB997:
 131:../libDaisy/src/util/WavWriter.h ****             //offset          = bstate_ == BufferState::FLUSH0 ? 0 : transfer_size;
 6607              		.loc 9 131 26 view .LVU1852
 6608 002a 0022     		movs	r2, #0
 133:../libDaisy/src/util/WavWriter.h ****             bstate_ = BufferState::IDLE;
 6609              		.loc 9 133 54 view .LVU1853
 6610 002c 0129     		cmp	r1, #1
 135:../libDaisy/src/util/WavWriter.h ****         }
 6611              		.loc 9 135 20 view .LVU1854
 6612 002e 05F50040 		add	r0, r5, #32768
 133:../libDaisy/src/util/WavWriter.h ****             bstate_ = BufferState::IDLE;
 6613              		.loc 9 133 54 view .LVU1855
 6614 0032 0CBF     		ite	eq
 6615 0034 1146     		moveq	r1, r2
 6616 0036 4FF48051 		movne	r1, #4096
 6617              	.LVL490:
 134:../libDaisy/src/util/WavWriter.h ****             f_write(&fp_, &transfer_buff[offset], transfer_size, &bw);
 6618              		.loc 9 134 21 view .LVU1856
 6619 003a C3F8D42F 		str	r2, [r3, #4052]
 135:../libDaisy/src/util/WavWriter.h ****         }
ARM GAS  /var/folders/2p/02m_5p7958535cp2tpgps0400000gn/T//cclqaeHn.s 			page 184


 6620              		.loc 9 135 20 view .LVU1857
 6621 003e 4830     		adds	r0, r0, #72
 135:../libDaisy/src/util/WavWriter.h ****         }
 6622              		.loc 9 135 41 view .LVU1858
 6623 0040 1031     		adds	r1, r1, #16
 6624              	.LVL491:
 131:../libDaisy/src/util/WavWriter.h ****             //offset          = bstate_ == BufferState::FLUSH0 ? 0 : transfer_size;
 6625              		.loc 9 131 26 view .LVU1859
 6626 0042 0192     		str	r2, [sp, #4]
 135:../libDaisy/src/util/WavWriter.h ****         }
 6627              		.loc 9 135 20 view .LVU1860
 6628 0044 01AB     		add	r3, sp, #4
 6629 0046 4FF48042 		mov	r2, #16384
 6630 004a 05EB8101 		add	r1, r5, r1, lsl #2
 6631              	.LVL492:
 135:../libDaisy/src/util/WavWriter.h ****         }
 6632              		.loc 9 135 20 view .LVU1861
 6633 004e FFF7FEFF 		bl	f_write
 6634              	.LVL493:
 6635              	.L340:
 135:../libDaisy/src/util/WavWriter.h ****         }
 6636              		.loc 9 135 20 view .LVU1862
 6637              	.LBE997:
 6638              	.LBE999:
 6639              	.LBE1001:
  68:GrannyChordApp.cpp ****       if (sd_writer_.GetLengthSeconds()>120){
 6640              		.loc 3 68 7 is_stmt 1 view .LVU1863
 6641              	.LBB1002:
 6642              	.LBI1002:
 175:../libDaisy/src/util/WavWriter.h ****     {
 6643              		.loc 9 175 18 view .LVU1864
 6644              	.LBB1003:
 177:../libDaisy/src/util/WavWriter.h ****     }
 6645              		.loc 9 177 23 is_stmt 0 view .LVU1865
 6646 0052 04F58043 		add	r3, r4, #16384
 177:../libDaisy/src/util/WavWriter.h ****     }
 6647              		.loc 9 177 16 view .LVU1866
 6648 0056 D3F8C02F 		ldr	r2, [r3, #4032]
 177:../libDaisy/src/util/WavWriter.h ****     }
 6649              		.loc 9 177 48 view .LVU1867
 6650 005a 03F69473 		addw	r3, r3, #3988
 177:../libDaisy/src/util/WavWriter.h ****     }
 6651              		.loc 9 177 16 view .LVU1868
 6652 005e 07EE902A 		vmov	s15, r2	@ int
 177:../libDaisy/src/util/WavWriter.h ****     }
 6653              		.loc 9 177 48 view .LVU1869
 6654 0062 D3ED0D6A 		vldr.32	s13, [r3, #52]
 177:../libDaisy/src/util/WavWriter.h ****     }
 6655              		.loc 9 177 16 view .LVU1870
 6656 0066 F8EE677A 		vcvt.f32.u32	s15, s15
 177:../libDaisy/src/util/WavWriter.h ****     }
 6657              		.loc 9 177 48 view .LVU1871
 6658 006a 87EEA67A 		vdiv.f32	s14, s15, s13
 6659              	.LBE1003:
 6660              	.LBE1002:
  68:GrannyChordApp.cpp ****       if (sd_writer_.GetLengthSeconds()>120){
 6661              		.loc 3 68 7 view .LVU1872
ARM GAS  /var/folders/2p/02m_5p7958535cp2tpgps0400000gn/T//cclqaeHn.s 			page 185


 6662 006e DFED0B7A 		vldr.32	s15, .L353+4
 6663 0072 B4EEE77A 		vcmpe.f32	s14, s15
 6664 0076 F1EE10FA 		vmrs	APSR_nzcv, FPSCR
 6665 007a 05DD     		ble	.L339
  69:GrannyChordApp.cpp ****         sd_writer_.SaveFile();
 6666              		.loc 3 69 9 is_stmt 1 view .LVU1873
  69:GrannyChordApp.cpp ****         sd_writer_.SaveFile();
 6667              		.loc 3 69 28 is_stmt 0 view .LVU1874
 6668 007c 2846     		mov	r0, r5
 6669 007e FFF7FEFF 		bl	_ZN5daisy9WavWriterILj16384EE8SaveFileEv
 6670              	.LVL494:
  70:GrannyChordApp.cpp ****         recording_out_ = false;
 6671              		.loc 3 70 9 is_stmt 1 view .LVU1875
  70:GrannyChordApp.cpp ****         recording_out_ = false;
 6672              		.loc 3 70 24 is_stmt 0 view .LVU1876
 6673 0082 0023     		movs	r3, #0
 6674 0084 86F81032 		strb	r3, [r6, #528]
 6675              	.L339:
  73:GrannyChordApp.cpp ****     UpdateUI();
 6676              		.loc 3 73 5 is_stmt 1 view .LVU1877
  73:GrannyChordApp.cpp ****     UpdateUI();
 6677              		.loc 3 73 13 is_stmt 0 view .LVU1878
 6678 0088 2046     		mov	r0, r4
 6679 008a FFF7FEFF 		bl	_ZN14GrannyChordApp8UpdateUIEv
 6680              	.LVL495:
  74:GrannyChordApp.cpp ****     UpdateSynthParams();
 6681              		.loc 3 74 5 is_stmt 1 view .LVU1879
  74:GrannyChordApp.cpp ****     UpdateSynthParams();
 6682              		.loc 3 74 22 is_stmt 0 view .LVU1880
 6683 008e 2046     		mov	r0, r4
 6684 0090 FFF7FEFF 		bl	_ZN14GrannyChordApp17UpdateSynthParamsEv
 6685              	.LVL496:
  56:GrannyChordApp.cpp ****   while(true){
 6686              		.loc 3 56 3 is_stmt 1 view .LVU1881
  66:GrannyChordApp.cpp ****     if (recording_out_) {
 6687              		.loc 3 66 5 is_stmt 0 view .LVU1882
 6688 0094 B9E7     		b	.L344
 6689              	.L354:
 6690 0096 00BF     		.align	2
 6691              	.L353:
 6692 0098 00000000 		.word	.LC36
 6693 009c 0000F042 		.word	1123024896
 6694              		.cfi_endproc
 6695              	.LFE4916:
 6697              		.global	_ZN14GrannyChordApp9instance_E
 6698              		.section	.bss._ZN14GrannyChordApp9instance_E,"aw",%nobits
 6699              		.align	2
 6700              		.set	.LANCHOR0,. + 0
 6703              	_ZN14GrannyChordApp9instance_E:
 6704 0000 00000000 		.space	4
 6705              		.text
 6706              	.Letext0:
 6707              		.file 19 "/Library/DaisyToolchain/0.2.0/arm/arm-none-eabi/include/machine/_default_types.h"
 6708              		.file 20 "/Library/DaisyToolchain/0.2.0/arm/arm-none-eabi/include/sys/_stdint.h"
 6709              		.file 21 "/Library/DaisyToolchain/0.2.0/arm/arm-none-eabi/include/stdint.h"
 6710              		.file 22 "/Library/DaisyToolchain/0.2.0/arm/lib/gcc/arm-none-eabi/10.3.1/include/stddef.h"
 6711              		.file 23 "/Library/DaisyToolchain/0.2.0/arm/arm-none-eabi/include/c++/10.3.1/cstdlib"
ARM GAS  /var/folders/2p/02m_5p7958535cp2tpgps0400000gn/T//cclqaeHn.s 			page 186


 6712              		.file 24 "/Library/DaisyToolchain/0.2.0/arm/arm-none-eabi/include/c++/10.3.1/cstdint"
 6713              		.file 25 "/Library/DaisyToolchain/0.2.0/arm/arm-none-eabi/include/c++/10.3.1/arm-none-eabi/thumb/v
 6714              		.file 26 "/Library/DaisyToolchain/0.2.0/arm/arm-none-eabi/include/c++/10.3.1/type_traits"
 6715              		.file 27 "/Library/DaisyToolchain/0.2.0/arm/arm-none-eabi/include/c++/10.3.1/bits/cpp_type_traits.
 6716              		.file 28 "/Library/DaisyToolchain/0.2.0/arm/arm-none-eabi/include/c++/10.3.1/bits/stl_pair.h"
 6717              		.file 29 "/Library/DaisyToolchain/0.2.0/arm/arm-none-eabi/include/c++/10.3.1/debug/debug.h"
 6718              		.file 30 "/Library/DaisyToolchain/0.2.0/arm/arm-none-eabi/include/c++/10.3.1/bits/algorithmfwd.h"
 6719              		.file 31 "/Library/DaisyToolchain/0.2.0/arm/arm-none-eabi/include/c++/10.3.1/bits/exception_ptr.h"
 6720              		.file 32 "/Library/DaisyToolchain/0.2.0/arm/arm-none-eabi/include/c++/10.3.1/initializer_list"
 6721              		.file 33 "/Library/DaisyToolchain/0.2.0/arm/arm-none-eabi/include/c++/10.3.1/cstdarg"
 6722              		.file 34 "/Library/DaisyToolchain/0.2.0/arm/arm-none-eabi/include/c++/10.3.1/cstdio"
 6723              		.file 35 "/Library/DaisyToolchain/0.2.0/arm/arm-none-eabi/include/c++/10.3.1/cstring"
 6724              		.file 36 "/Library/DaisyToolchain/0.2.0/arm/arm-none-eabi/include/c++/10.3.1/cwchar"
 6725              		.file 37 "/Library/DaisyToolchain/0.2.0/arm/arm-none-eabi/include/c++/10.3.1/clocale"
 6726              		.file 38 "/Library/DaisyToolchain/0.2.0/arm/arm-none-eabi/include/c++/10.3.1/bits/basic_string.h"
 6727              		.file 39 "/Library/DaisyToolchain/0.2.0/arm/arm-none-eabi/include/c++/10.3.1/bits/stl_iterator.h"
 6728              		.file 40 "/Library/DaisyToolchain/0.2.0/arm/arm-none-eabi/include/c++/10.3.1/bits/predefined_ops.h
 6729              		.file 41 "/Library/DaisyToolchain/0.2.0/arm/arm-none-eabi/include/sys/_types.h"
 6730              		.file 42 "/Library/DaisyToolchain/0.2.0/arm/arm-none-eabi/include/sys/reent.h"
 6731              		.file 43 "/Library/DaisyToolchain/0.2.0/arm/arm-none-eabi/include/sys/lock.h"
 6732              		.file 44 "/Library/DaisyToolchain/0.2.0/arm/arm-none-eabi/include/math.h"
 6733              		.file 45 "/Library/DaisyToolchain/0.2.0/arm/arm-none-eabi/include/stdlib.h"
 6734              		.file 46 "/Library/DaisyToolchain/0.2.0/arm/arm-none-eabi/include/c++/10.3.1/math.h"
 6735              		.file 47 "/Library/DaisyToolchain/0.2.0/arm/arm-none-eabi/include/c++/10.3.1/stdlib.h"
 6736              		.file 48 "../libDaisy/src/per/tim.h"
 6737              		.file 49 "../libDaisy/src/sys/system.h"
 6738              		.file 50 "../libDaisy/src/per/qspi.h"
 6739              		.file 51 "../libDaisy/src/per/dac.h"
 6740              		.file 52 "../libDaisy/src/per/sai.h"
 6741              		.file 53 "../libDaisy/src/hid/audio.h"
 6742              		.file 54 "../libDaisy/src/per/adc.h"
 6743              		.file 55 "../libDaisy/src/per/uart.h"
 6744              		.file 56 "../libDaisy/src/hid/MidiEvent.h"
 6745              		.file 57 "../libDaisy/src/hid/midi_parser.h"
 6746              		.file 58 "../libDaisy/src/hid/usb.h"
 6747              		.file 59 "../libDaisy/src/hid/midi.h"
 6748              		.file 60 "../libDaisy/src/util/FIFO.h"
 6749              		.file 61 "../libDaisy/src/hid/ctrl.h"
 6750              		.file 62 "../libDaisy/src/hid/logger_impl.h"
 6751              		.file 63 "../libDaisy/src/per/sdmmc.h"
 6752              		.file 64 "../libDaisy/src/util/wav_format.h"
 6753              		.file 65 "../libDaisy/src/hid/led.h"
 6754              		.file 66 "../libDaisy/src/hid/rgb_led.h"
 6755              		.file 67 "../libDaisy/src/dev/max11300.h"
 6756              		.file 68 "../libDaisy/src/sys/fatfs.h"
 6757              		.file 69 "../libDaisy/src/hid/logger.h"
 6758              		.file 70 "../libDaisy/src/daisy_pod.h"
 6759              		.file 71 "../libDaisy/src/per/gpio.h"
 6760              		.file 72 "../libDaisy/src/dev/sdram.h"
 6761              		.file 73 "/Library/DaisyToolchain/0.2.0/arm/lib/gcc/arm-none-eabi/10.3.1/include/stdarg.h"
 6762              		.file 74 "/Library/DaisyToolchain/0.2.0/arm/arm-none-eabi/include/stdio.h"
 6763              		.file 75 "../libDaisy/Middlewares/Third_Party/FatFs/src/integer.h"
 6764              		.file 76 "../libDaisy/Middlewares/Third_Party/FatFs/src/ff.h"
 6765              		.file 77 "/Library/DaisyToolchain/0.2.0/arm/arm-none-eabi/include/string.h"
 6766              		.file 78 "../DaisySP/Source/Control/adenv.h"
 6767              		.file 79 "../DaisySP/Source/Dynamics/limiter.h"
 6768              		.file 80 "../DaisySP/Source/Utility/delayline.h"
ARM GAS  /var/folders/2p/02m_5p7958535cp2tpgps0400000gn/T//cclqaeHn.s 			page 187


 6769              		.file 81 "../DaisySP/Source/Effects/chorus.h"
 6770              		.file 82 "../DaisySP/Source/Utility/smooth_random.h"
 6771              		.file 83 "../DaisySP/Source/../DaisySP-LGPL/Source/Dynamics/compressor.h"
 6772              		.file 84 "/Library/DaisyToolchain/0.2.0/arm/arm-none-eabi/include/wchar.h"
 6773              		.file 85 "/Library/DaisyToolchain/0.2.0/arm/arm-none-eabi/include/time.h"
 6774              		.file 86 "/Library/DaisyToolchain/0.2.0/arm/arm-none-eabi/include/locale.h"
 6775              		.file 87 "../DaisySP/Source/Effects/../../../src/sample.h"
 6776              		.file 88 "../libDaisy/src/dev/sr_595.h"
 6777              		.file 89 "GrainPhasor.h"
 6778              		.file 90 "Grain.h"
 6779              		.file 91 "AppState.h"
 6780              		.file 92 "GrannyChordApp.h"
 6781              		.file 93 "<built-in>"
ARM GAS  /var/folders/2p/02m_5p7958535cp2tpgps0400000gn/T//cclqaeHn.s 			page 188


DEFINED SYMBOLS
                            *ABS*:0000000000000000 GrannyChordApp.cpp
/var/folders/2p/02m_5p7958535cp2tpgps0400000gn/T//cclqaeHn.s:19     .text._ZNK5daisy6Switch10TimeHeldMsEv:0000000000000000 $t
/var/folders/2p/02m_5p7958535cp2tpgps0400000gn/T//cclqaeHn.s:25     .text._ZNK5daisy6Switch10TimeHeldMsEv:0000000000000000 _ZNK5daisy6Switch10TimeHeldMsEv
/var/folders/2p/02m_5p7958535cp2tpgps0400000gn/T//cclqaeHn.s:84     .text._ZNK5daisy6Switch10TimeHeldMsEv:0000000000000028 $d
/var/folders/2p/02m_5p7958535cp2tpgps0400000gn/T//cclqaeHn.s:89     .text._ZN7daisysp7OnePole12SetFrequencyEf:0000000000000000 $t
/var/folders/2p/02m_5p7958535cp2tpgps0400000gn/T//cclqaeHn.s:95     .text._ZN7daisysp7OnePole12SetFrequencyEf:0000000000000000 _ZN7daisysp7OnePole12SetFrequencyEf
/var/folders/2p/02m_5p7958535cp2tpgps0400000gn/T//cclqaeHn.s:146    .text._ZN7daisysp7OnePole12SetFrequencyEf:0000000000000038 $d
/var/folders/2p/02m_5p7958535cp2tpgps0400000gn/T//cclqaeHn.s:152    .text._ZN7daisysp7OnePole7ProcessEf:0000000000000000 $t
/var/folders/2p/02m_5p7958535cp2tpgps0400000gn/T//cclqaeHn.s:158    .text._ZN7daisysp7OnePole7ProcessEf:0000000000000000 _ZN7daisysp7OnePole7ProcessEf
/var/folders/2p/02m_5p7958535cp2tpgps0400000gn/T//cclqaeHn.s:207    .text._ZN7daisysp7OnePole7ProcessEf:0000000000000038 $d
/var/folders/2p/02m_5p7958535cp2tpgps0400000gn/T//cclqaeHn.s:221    .text._ZN14GrannyChordApp12PrintCPULoadEv:0000000000000000 $t
/var/folders/2p/02m_5p7958535cp2tpgps0400000gn/T//cclqaeHn.s:227    .text._ZN14GrannyChordApp12PrintCPULoadEv:0000000000000000 _ZN14GrannyChordApp12PrintCPULoadEv
/var/folders/2p/02m_5p7958535cp2tpgps0400000gn/T//cclqaeHn.s:541    .text._ZN14GrannyChordApp12PrintCPULoadEv:00000000000000e0 $d
/var/folders/2p/02m_5p7958535cp2tpgps0400000gn/T//cclqaeHn.s:555    .text._ZN14GrannyChordApp20HandleEncoderPressedEv:0000000000000000 $t
/var/folders/2p/02m_5p7958535cp2tpgps0400000gn/T//cclqaeHn.s:561    .text._ZN14GrannyChordApp20HandleEncoderPressedEv:0000000000000000 _ZN14GrannyChordApp20HandleEncoderPressedEv
/var/folders/2p/02m_5p7958535cp2tpgps0400000gn/T//cclqaeHn.s:608    .text._ZN14GrannyChordApp22HandleEncoderLongPressEv:0000000000000000 $t
/var/folders/2p/02m_5p7958535cp2tpgps0400000gn/T//cclqaeHn.s:614    .text._ZN14GrannyChordApp22HandleEncoderLongPressEv:0000000000000000 _ZN14GrannyChordApp22HandleEncoderLongPressEv
/var/folders/2p/02m_5p7958535cp2tpgps0400000gn/T//cclqaeHn.s:706    .text._ZN14GrannyChordApp22HandleButton2LongPressEv:0000000000000000 $t
/var/folders/2p/02m_5p7958535cp2tpgps0400000gn/T//cclqaeHn.s:712    .text._ZN14GrannyChordApp22HandleButton2LongPressEv:0000000000000000 _ZN14GrannyChordApp22HandleButton2LongPressEv
/var/folders/2p/02m_5p7958535cp2tpgps0400000gn/T//cclqaeHn.s:729    .text._ZN14GrannyChordApp19HandleFileSelectionEl:0000000000000000 $t
/var/folders/2p/02m_5p7958535cp2tpgps0400000gn/T//cclqaeHn.s:735    .text._ZN14GrannyChordApp19HandleFileSelectionEl:0000000000000000 _ZN14GrannyChordApp19HandleFileSelectionEl
/var/folders/2p/02m_5p7958535cp2tpgps0400000gn/T//cclqaeHn.s:859    .text._ZN14GrannyChordApp19HandleFileSelectionEl:0000000000000048 $d
/var/folders/2p/02m_5p7958535cp2tpgps0400000gn/T//cclqaeHn.s:866    .text._ZN14GrannyChordApp22HandleEncoderIncrementEi:0000000000000000 $t
/var/folders/2p/02m_5p7958535cp2tpgps0400000gn/T//cclqaeHn.s:872    .text._ZN14GrannyChordApp22HandleEncoderIncrementEi:0000000000000000 _ZN14GrannyChordApp22HandleEncoderIncrementEi
/var/folders/2p/02m_5p7958535cp2tpgps0400000gn/T//cclqaeHn.s:920    .text._ZN14GrannyChordApp11InitFileMgrEv:0000000000000000 $t
/var/folders/2p/02m_5p7958535cp2tpgps0400000gn/T//cclqaeHn.s:926    .text._ZN14GrannyChordApp11InitFileMgrEv:0000000000000000 _ZN14GrannyChordApp11InitFileMgrEv
/var/folders/2p/02m_5p7958535cp2tpgps0400000gn/T//cclqaeHn.s:997    .text._ZN14GrannyChordApp12InitPlaybackEv:0000000000000000 $t
/var/folders/2p/02m_5p7958535cp2tpgps0400000gn/T//cclqaeHn.s:1003   .text._ZN14GrannyChordApp12InitPlaybackEv:0000000000000000 _ZN14GrannyChordApp12InitPlaybackEv
/var/folders/2p/02m_5p7958535cp2tpgps0400000gn/T//cclqaeHn.s:1094   .text._ZN14GrannyChordApp12InitPlaybackEv:000000000000004c $d
/var/folders/2p/02m_5p7958535cp2tpgps0400000gn/T//cclqaeHn.s:2972   .text._ZN14GrannyChordApp13AudioCallbackEPKPKfPPfj:0000000000000000 _ZN14GrannyChordApp13AudioCallbackEPKPKfPPfj
/var/folders/2p/02m_5p7958535cp2tpgps0400000gn/T//cclqaeHn.s:1101   .text._ZN14GrannyChordApp12InitRecordInEv:0000000000000000 $t
/var/folders/2p/02m_5p7958535cp2tpgps0400000gn/T//cclqaeHn.s:1107   .text._ZN14GrannyChordApp12InitRecordInEv:0000000000000000 _ZN14GrannyChordApp12InitRecordInEv
/var/folders/2p/02m_5p7958535cp2tpgps0400000gn/T//cclqaeHn.s:1155   .text._ZN14GrannyChordApp13InitWavWriterEv:0000000000000000 $t
/var/folders/2p/02m_5p7958535cp2tpgps0400000gn/T//cclqaeHn.s:1161   .text._ZN14GrannyChordApp13InitWavWriterEv:0000000000000000 _ZN14GrannyChordApp13InitWavWriterEv
/var/folders/2p/02m_5p7958535cp2tpgps0400000gn/T//cclqaeHn.s:1375   .text._ZN14GrannyChordApp13InitWavWriterEv:00000000000000b4 $d
/var/folders/2p/02m_5p7958535cp2tpgps0400000gn/T//cclqaeHn.s:1382   .text._ZN14GrannyChordApp6InitFXEv:0000000000000000 $t
/var/folders/2p/02m_5p7958535cp2tpgps0400000gn/T//cclqaeHn.s:1388   .text._ZN14GrannyChordApp6InitFXEv:0000000000000000 _ZN14GrannyChordApp6InitFXEv
/var/folders/2p/02m_5p7958535cp2tpgps0400000gn/T//cclqaeHn.s:1566   .text._ZN14GrannyChordApp6InitFXEv:0000000000000088 $d
/var/folders/2p/02m_5p7958535cp2tpgps0400000gn/T//cclqaeHn.s:1574   .text._ZN14GrannyChordApp17InitPrevParamValsEv:0000000000000000 $t
/var/folders/2p/02m_5p7958535cp2tpgps0400000gn/T//cclqaeHn.s:1580   .text._ZN14GrannyChordApp17InitPrevParamValsEv:0000000000000000 _ZN14GrannyChordApp17InitPrevParamValsEv
/var/folders/2p/02m_5p7958535cp2tpgps0400000gn/T//cclqaeHn.s:1633   .text._ZN14GrannyChordApp9InitSynthEv:0000000000000000 $t
/var/folders/2p/02m_5p7958535cp2tpgps0400000gn/T//cclqaeHn.s:1639   .text._ZN14GrannyChordApp9InitSynthEv:0000000000000000 _ZN14GrannyChordApp9InitSynthEv
/var/folders/2p/02m_5p7958535cp2tpgps0400000gn/T//cclqaeHn.s:1736   .text._ZN14GrannyChordApp9InitSynthEv:000000000000004c $d
/var/folders/2p/02m_5p7958535cp2tpgps0400000gn/T//cclqaeHn.s:1743   .text._ZN14GrannyChordApp18ProcessWAVPlaybackEPPfj:0000000000000000 $t
/var/folders/2p/02m_5p7958535cp2tpgps0400000gn/T//cclqaeHn.s:1749   .text._ZN14GrannyChordApp18ProcessWAVPlaybackEPPfj:0000000000000000 _ZN14GrannyChordApp18ProcessWAVPlaybackEPPfj
/var/folders/2p/02m_5p7958535cp2tpgps0400000gn/T//cclqaeHn.s:1914   .text._ZN14GrannyChordApp18ProcessWAVPlaybackEPPfj:0000000000000080 $d
/var/folders/2p/02m_5p7958535cp2tpgps0400000gn/T//cclqaeHn.s:1919   .text._ZN14GrannyChordApp15ProcessRecordInEPKPKfPPfj:0000000000000000 $t
/var/folders/2p/02m_5p7958535cp2tpgps0400000gn/T//cclqaeHn.s:1925   .text._ZN14GrannyChordApp15ProcessRecordInEPKPKfPPfj:0000000000000000 _ZN14GrannyChordApp15ProcessRecordInEPKPKfPPfj
/var/folders/2p/02m_5p7958535cp2tpgps0400000gn/T//cclqaeHn.s:2022   .text._ZN14GrannyChordApp15ProcessRecordInEPKPKfPPfj:0000000000000074 $d
/var/folders/2p/02m_5p7958535cp2tpgps0400000gn/T//cclqaeHn.s:2027   .text._ZN14GrannyChordApp9ProcessFXE6Sample:0000000000000000 $t
/var/folders/2p/02m_5p7958535cp2tpgps0400000gn/T//cclqaeHn.s:2033   .text._ZN14GrannyChordApp9ProcessFXE6Sample:0000000000000000 _ZN14GrannyChordApp9ProcessFXE6Sample
/var/folders/2p/02m_5p7958535cp2tpgps0400000gn/T//cclqaeHn.s:2347   .text._ZN14GrannyChordApp9ProcessFXE6Sample:0000000000000150 $d
/var/folders/2p/02m_5p7958535cp2tpgps0400000gn/T//cclqaeHn.s:2355   .text._ZN14GrannyChordApp16ProcessSynthesisEPPfj:0000000000000000 $t
/var/folders/2p/02m_5p7958535cp2tpgps0400000gn/T//cclqaeHn.s:2361   .text._ZN14GrannyChordApp16ProcessSynthesisEPPfj:0000000000000000 _ZN14GrannyChordApp16ProcessSynthesisEPPfj
/var/folders/2p/02m_5p7958535cp2tpgps0400000gn/T//cclqaeHn.s:2749   .text._ZN14GrannyChordApp16ProcessSynthesisEPPfj:00000000000001b4 $d
/var/folders/2p/02m_5p7958535cp2tpgps0400000gn/T//cclqaeHn.s:2760   .text._ZN14GrannyChordApp12ProcessAudioEPKPKfPPfj:0000000000000000 $t
ARM GAS  /var/folders/2p/02m_5p7958535cp2tpgps0400000gn/T//cclqaeHn.s 			page 189


/var/folders/2p/02m_5p7958535cp2tpgps0400000gn/T//cclqaeHn.s:2766   .text._ZN14GrannyChordApp12ProcessAudioEPKPKfPPfj:0000000000000000 _ZN14GrannyChordApp12ProcessAudioEPKPKfPPfj
/var/folders/2p/02m_5p7958535cp2tpgps0400000gn/T//cclqaeHn.s:2960   .text._ZN14GrannyChordApp12ProcessAudioEPKPKfPPfj:0000000000000070 $d
/var/folders/2p/02m_5p7958535cp2tpgps0400000gn/T//cclqaeHn.s:2966   .text._ZN14GrannyChordApp13AudioCallbackEPKPKfPPfj:0000000000000000 $t
/var/folders/2p/02m_5p7958535cp2tpgps0400000gn/T//cclqaeHn.s:3000   .text._ZN14GrannyChordApp13AudioCallbackEPKPKfPPfj:0000000000000010 $d
/var/folders/2p/02m_5p7958535cp2tpgps0400000gn/T//cclqaeHn.s:3008   .text._ZN14GrannyChordApp13RecordOutToSDEv:0000000000000000 $t
/var/folders/2p/02m_5p7958535cp2tpgps0400000gn/T//cclqaeHn.s:3014   .text._ZN14GrannyChordApp13RecordOutToSDEv:0000000000000000 _ZN14GrannyChordApp13RecordOutToSDEv
/var/folders/2p/02m_5p7958535cp2tpgps0400000gn/T//cclqaeHn.s:3127   .text._ZN14GrannyChordApp13RecordOutToSDEv:0000000000000068 $d
/var/folders/2p/02m_5p7958535cp2tpgps0400000gn/T//cclqaeHn.s:3132   .text._ZN14GrannyChordApp17UpdateKnob1ParamsEf9SynthMode:0000000000000000 $t
/var/folders/2p/02m_5p7958535cp2tpgps0400000gn/T//cclqaeHn.s:3138   .text._ZN14GrannyChordApp17UpdateKnob1ParamsEf9SynthMode:0000000000000000 _ZN14GrannyChordApp17UpdateKnob1ParamsEf9SynthMode
/var/folders/2p/02m_5p7958535cp2tpgps0400000gn/T//cclqaeHn.s:3164   .text._ZN14GrannyChordApp17UpdateKnob1ParamsEf9SynthMode:0000000000000016 $d
/var/folders/2p/02m_5p7958535cp2tpgps0400000gn/T//cclqaeHn.s:3172   .text._ZN14GrannyChordApp17UpdateKnob1ParamsEf9SynthMode:000000000000001e $t
/var/folders/2p/02m_5p7958535cp2tpgps0400000gn/T//cclqaeHn.s:3575   .text._ZN14GrannyChordApp17UpdateKnob1ParamsEf9SynthMode:00000000000000ec $d
/var/folders/2p/02m_5p7958535cp2tpgps0400000gn/T//cclqaeHn.s:3585   .text._ZN14GrannyChordApp17UpdateKnob2ParamsEf9SynthMode:0000000000000000 $t
/var/folders/2p/02m_5p7958535cp2tpgps0400000gn/T//cclqaeHn.s:3591   .text._ZN14GrannyChordApp17UpdateKnob2ParamsEf9SynthMode:0000000000000000 _ZN14GrannyChordApp17UpdateKnob2ParamsEf9SynthMode
/var/folders/2p/02m_5p7958535cp2tpgps0400000gn/T//cclqaeHn.s:3609   .text._ZN14GrannyChordApp17UpdateKnob2ParamsEf9SynthMode:000000000000000a $d
/var/folders/2p/02m_5p7958535cp2tpgps0400000gn/T//cclqaeHn.s:3617   .text._ZN14GrannyChordApp17UpdateKnob2ParamsEf9SynthMode:0000000000000012 $t
/var/folders/2p/02m_5p7958535cp2tpgps0400000gn/T//cclqaeHn.s:3834   .text._ZN14GrannyChordApp17UpdateKnob2ParamsEf9SynthMode:000000000000008c $d
/var/folders/2p/02m_5p7958535cp2tpgps0400000gn/T//cclqaeHn.s:3846   .text._ZN14GrannyChordApp17UpdateSynthParamsEv:0000000000000000 $t
/var/folders/2p/02m_5p7958535cp2tpgps0400000gn/T//cclqaeHn.s:3852   .text._ZN14GrannyChordApp17UpdateSynthParamsEv:0000000000000000 _ZN14GrannyChordApp17UpdateSynthParamsEv
/var/folders/2p/02m_5p7958535cp2tpgps0400000gn/T//cclqaeHn.s:4215   .text._ZN14GrannyChordApp17UpdateSynthParamsEv:0000000000000170 $d
/var/folders/2p/02m_5p7958535cp2tpgps0400000gn/T//cclqaeHn.s:4238   .text._ZN14GrannyChordApp15DebugPrintStateE8AppState:0000000000000000 $t
/var/folders/2p/02m_5p7958535cp2tpgps0400000gn/T//cclqaeHn.s:4244   .text._ZN14GrannyChordApp15DebugPrintStateE8AppState:0000000000000000 _ZN14GrannyChordApp15DebugPrintStateE8AppState
/var/folders/2p/02m_5p7958535cp2tpgps0400000gn/T//cclqaeHn.s:4257   .text._ZN14GrannyChordApp15DebugPrintStateE8AppState:0000000000000008 $d
/var/folders/2p/02m_5p7958535cp2tpgps0400000gn/T//cclqaeHn.s:4261   .text._ZN14GrannyChordApp15DebugPrintStateE8AppState:000000000000000c $t
/var/folders/2p/02m_5p7958535cp2tpgps0400000gn/T//cclqaeHn.s:4353   .text._ZN14GrannyChordApp15DebugPrintStateE8AppState:0000000000000024 $d
/var/folders/2p/02m_5p7958535cp2tpgps0400000gn/T//cclqaeHn.s:4381   .text._ZN14GrannyChordApp14DebugPrintModeE9SynthMode:0000000000000000 $t
/var/folders/2p/02m_5p7958535cp2tpgps0400000gn/T//cclqaeHn.s:4387   .text._ZN14GrannyChordApp14DebugPrintModeE9SynthMode:0000000000000000 _ZN14GrannyChordApp14DebugPrintModeE9SynthMode
/var/folders/2p/02m_5p7958535cp2tpgps0400000gn/T//cclqaeHn.s:4400   .text._ZN14GrannyChordApp14DebugPrintModeE9SynthMode:0000000000000008 $d
/var/folders/2p/02m_5p7958535cp2tpgps0400000gn/T//cclqaeHn.s:4408   .text._ZN14GrannyChordApp14DebugPrintModeE9SynthMode:0000000000000010 $t
/var/folders/2p/02m_5p7958535cp2tpgps0400000gn/T//cclqaeHn.s:4557   .text._ZN14GrannyChordApp14DebugPrintModeE9SynthMode:0000000000000034 $d
/var/folders/2p/02m_5p7958535cp2tpgps0400000gn/T//cclqaeHn.s:4569   .text._ZN14GrannyChordApp11InitColoursEv:0000000000000000 $t
/var/folders/2p/02m_5p7958535cp2tpgps0400000gn/T//cclqaeHn.s:4575   .text._ZN14GrannyChordApp11InitColoursEv:0000000000000000 _ZN14GrannyChordApp11InitColoursEv
/var/folders/2p/02m_5p7958535cp2tpgps0400000gn/T//cclqaeHn.s:4679   .text._ZN14GrannyChordApp11InitColoursEv:0000000000000098 $d
/var/folders/2p/02m_5p7958535cp2tpgps0400000gn/T//cclqaeHn.s:4685   .text._ZN14GrannyChordApp14SetLedAppStateEv:0000000000000000 $t
/var/folders/2p/02m_5p7958535cp2tpgps0400000gn/T//cclqaeHn.s:4691   .text._ZN14GrannyChordApp14SetLedAppStateEv:0000000000000000 _ZN14GrannyChordApp14SetLedAppStateEv
/var/folders/2p/02m_5p7958535cp2tpgps0400000gn/T//cclqaeHn.s:4717   .text._ZN14GrannyChordApp14SetLedAppStateEv:0000000000000012 $d
/var/folders/2p/02m_5p7958535cp2tpgps0400000gn/T//cclqaeHn.s:4723   .text._ZN14GrannyChordApp14SetLedAppStateEv:0000000000000018 $t
/var/folders/2p/02m_5p7958535cp2tpgps0400000gn/T//cclqaeHn.s:4851   .text._ZN14GrannyChordApp14SetLedAppStateEv:00000000000000b0 $d
/var/folders/2p/02m_5p7958535cp2tpgps0400000gn/T//cclqaeHn.s:4859   .text._ZN14GrannyChordApp4InitEPsS0_:0000000000000000 $t
/var/folders/2p/02m_5p7958535cp2tpgps0400000gn/T//cclqaeHn.s:4865   .text._ZN14GrannyChordApp4InitEPsS0_:0000000000000000 _ZN14GrannyChordApp4InitEPsS0_
/var/folders/2p/02m_5p7958535cp2tpgps0400000gn/T//cclqaeHn.s:5034   .text._ZN14GrannyChordApp4InitEPsS0_:000000000000009c $d
/var/folders/2p/02m_5p7958535cp2tpgps0400000gn/T//cclqaeHn.s:5040   .text._ZN14GrannyChordApp15SetLedSynthModeEv:0000000000000000 $t
/var/folders/2p/02m_5p7958535cp2tpgps0400000gn/T//cclqaeHn.s:5046   .text._ZN14GrannyChordApp15SetLedSynthModeEv:0000000000000000 _ZN14GrannyChordApp15SetLedSynthModeEv
/var/folders/2p/02m_5p7958535cp2tpgps0400000gn/T//cclqaeHn.s:5083   .text._ZN14GrannyChordApp15SetLedSynthModeEv:0000000000000020 $d
/var/folders/2p/02m_5p7958535cp2tpgps0400000gn/T//cclqaeHn.s:5091   .text._ZN14GrannyChordApp15SetLedSynthModeEv:0000000000000028 $t
/var/folders/2p/02m_5p7958535cp2tpgps0400000gn/T//cclqaeHn.s:5237   .text._ZN14GrannyChordApp22HandleButton1LongPressEv:0000000000000000 $t
/var/folders/2p/02m_5p7958535cp2tpgps0400000gn/T//cclqaeHn.s:5243   .text._ZN14GrannyChordApp22HandleButton1LongPressEv:0000000000000000 _ZN14GrannyChordApp22HandleButton1LongPressEv
/var/folders/2p/02m_5p7958535cp2tpgps0400000gn/T//cclqaeHn.s:5275   .text._ZN14GrannyChordApp13NextSynthModeEv:0000000000000000 $t
/var/folders/2p/02m_5p7958535cp2tpgps0400000gn/T//cclqaeHn.s:5281   .text._ZN14GrannyChordApp13NextSynthModeEv:0000000000000000 _ZN14GrannyChordApp13NextSynthModeEv
/var/folders/2p/02m_5p7958535cp2tpgps0400000gn/T//cclqaeHn.s:5366   .text._ZN14GrannyChordApp13NextSynthModeEv:0000000000000040 $d
/var/folders/2p/02m_5p7958535cp2tpgps0400000gn/T//cclqaeHn.s:5371   .text._ZN14GrannyChordApp13HandleButton1Ev:0000000000000000 $t
/var/folders/2p/02m_5p7958535cp2tpgps0400000gn/T//cclqaeHn.s:5377   .text._ZN14GrannyChordApp13HandleButton1Ev:0000000000000000 _ZN14GrannyChordApp13HandleButton1Ev
/var/folders/2p/02m_5p7958535cp2tpgps0400000gn/T//cclqaeHn.s:5397   .text._ZN14GrannyChordApp13PrevSynthModeEv:0000000000000000 $t
/var/folders/2p/02m_5p7958535cp2tpgps0400000gn/T//cclqaeHn.s:5403   .text._ZN14GrannyChordApp13PrevSynthModeEv:0000000000000000 _ZN14GrannyChordApp13PrevSynthModeEv
/var/folders/2p/02m_5p7958535cp2tpgps0400000gn/T//cclqaeHn.s:5488   .text._ZN14GrannyChordApp13PrevSynthModeEv:0000000000000040 $d
/var/folders/2p/02m_5p7958535cp2tpgps0400000gn/T//cclqaeHn.s:5493   .text._ZN14GrannyChordApp13HandleButton2Ev:0000000000000000 $t
/var/folders/2p/02m_5p7958535cp2tpgps0400000gn/T//cclqaeHn.s:5499   .text._ZN14GrannyChordApp13HandleButton2Ev:0000000000000000 _ZN14GrannyChordApp13HandleButton2Ev
ARM GAS  /var/folders/2p/02m_5p7958535cp2tpgps0400000gn/T//cclqaeHn.s 			page 190


/var/folders/2p/02m_5p7958535cp2tpgps0400000gn/T//cclqaeHn.s:5525   .text._ZN14GrannyChordApp17HandleStateChangeEv:0000000000000000 $t
/var/folders/2p/02m_5p7958535cp2tpgps0400000gn/T//cclqaeHn.s:5531   .text._ZN14GrannyChordApp17HandleStateChangeEv:0000000000000000 _ZN14GrannyChordApp17HandleStateChangeEv
/var/folders/2p/02m_5p7958535cp2tpgps0400000gn/T//cclqaeHn.s:5552   .text._ZN14GrannyChordApp17HandleStateChangeEv:0000000000000010 $d
/var/folders/2p/02m_5p7958535cp2tpgps0400000gn/T//cclqaeHn.s:5558   .text._ZN14GrannyChordApp17HandleStateChangeEv:0000000000000016 $t
/var/folders/2p/02m_5p7958535cp2tpgps0400000gn/T//cclqaeHn.s:5692   .text._ZN14GrannyChordApp17HandleStateChangeEv:0000000000000064 $d
/var/folders/2p/02m_5p7958535cp2tpgps0400000gn/T//cclqaeHn.s:5700   .text._ZN5daisy9WavWriterILj16384EE8SaveFileEv:0000000000000000 $t
/var/folders/2p/02m_5p7958535cp2tpgps0400000gn/T//cclqaeHn.s:5706   .text._ZN5daisy9WavWriterILj16384EE8SaveFileEv:0000000000000000 _ZN5daisy9WavWriterILj16384EE8SaveFileEv
/var/folders/2p/02m_5p7958535cp2tpgps0400000gn/T//cclqaeHn.s:5783   .text._ZN14GrannyChordApp15FinishRecordingEv:0000000000000000 $t
/var/folders/2p/02m_5p7958535cp2tpgps0400000gn/T//cclqaeHn.s:5789   .text._ZN14GrannyChordApp15FinishRecordingEv:0000000000000000 _ZN14GrannyChordApp15FinishRecordingEv
/var/folders/2p/02m_5p7958535cp2tpgps0400000gn/T//cclqaeHn.s:5831   .text._ZN14GrannyChordApp13ButtonHandlerEv:0000000000000000 $t
/var/folders/2p/02m_5p7958535cp2tpgps0400000gn/T//cclqaeHn.s:5837   .text._ZN14GrannyChordApp13ButtonHandlerEv:0000000000000000 _ZN14GrannyChordApp13ButtonHandlerEv
/var/folders/2p/02m_5p7958535cp2tpgps0400000gn/T//cclqaeHn.s:6312   .text._ZN14GrannyChordApp13ButtonHandlerEv:00000000000001b0 $d
/var/folders/2p/02m_5p7958535cp2tpgps0400000gn/T//cclqaeHn.s:6326   .text._ZN14GrannyChordApp8UpdateUIEv:0000000000000000 $t
/var/folders/2p/02m_5p7958535cp2tpgps0400000gn/T//cclqaeHn.s:6332   .text._ZN14GrannyChordApp8UpdateUIEv:0000000000000000 _ZN14GrannyChordApp8UpdateUIEv
/var/folders/2p/02m_5p7958535cp2tpgps0400000gn/T//cclqaeHn.s:6520   .text._ZN14GrannyChordApp8UpdateUIEv:0000000000000098 $d
/var/folders/2p/02m_5p7958535cp2tpgps0400000gn/T//cclqaeHn.s:6530   .text._ZN14GrannyChordApp3RunEv:0000000000000000 $t
/var/folders/2p/02m_5p7958535cp2tpgps0400000gn/T//cclqaeHn.s:6536   .text._ZN14GrannyChordApp3RunEv:0000000000000000 _ZN14GrannyChordApp3RunEv
/var/folders/2p/02m_5p7958535cp2tpgps0400000gn/T//cclqaeHn.s:6692   .text._ZN14GrannyChordApp3RunEv:0000000000000098 $d
/var/folders/2p/02m_5p7958535cp2tpgps0400000gn/T//cclqaeHn.s:6703   .bss._ZN14GrannyChordApp9instance_E:0000000000000000 _ZN14GrannyChordApp9instance_E
/var/folders/2p/02m_5p7958535cp2tpgps0400000gn/T//cclqaeHn.s:6699   .bss._ZN14GrannyChordApp9instance_E:0000000000000000 $d

UNDEFINED SYMBOLS
_ZN5daisy6System6GetNowEv
tanf
_ZN5daisy6LoggerILNS_17LoggerDestinationE1EE9PrintLineEPKcz
_ZN5daisy7Encoder8DebounceEv
strcpy
_ZN16AudioFileManager10SetBuffersEPsS0_
_ZN16AudioFileManager4InitEv
_ZN16AudioFileManager12ScanWavFilesEv
_ZN16AudioFileManager8LoadFileEt
_ZN5daisy8DaisyPod10StartAudioEPFvPKPKfPPfjE
memset
_ZN7daisysp10Compressor4InitEf
_ZN7daisysp7Limiter4InitEv
_ZN7daisysp6Chorus4InitEf
_ZN7daisysp8ReverbSc4InitEf
_ZN7daisysp10MoogLadder4InitEf
_ZN13GranularSynth4InitEPsS0_j
_ZN7daisysp10MoogLadder7ProcessEf
cosf
sinf
_ZN7daisysp6Chorus10ProcessMixE6Sample
_ZN7daisysp8ReverbSc10ProcessMixERKfS2_PfS3_
_ZN13GranularSynth13ProcessGrainsEv
_ZN7daisysp7Limiter12ProcessBlockEPfjf
_ZN5daisy8DaisyPod9StopAudioEv
sprintf
f_open
f_write
_ZN13GranularSynth12SetGrainSizeEf
_ZN13GranularSynth13SetPitchRatioEf
_ZN13GranularSynth6SetPanEf
_ZN13GranularSynth12SetRndAmountEf
_ZN7daisysp6Chorus11SetLfoDepthEf
_ZN7daisysp6Chorus6SetPanEff
_ZN13GranularSynth11SetSpawnPosEf
ARM GAS  /var/folders/2p/02m_5p7958535cp2tpgps0400000gn/T//cclqaeHn.s 			page 191


_ZN13GranularSynth15SetActiveGrainsEf
_ZN13GranularSynth12SetDirectionEf
_ZN13GranularSynth17SetRndRefreshFreqEf
_ZN7daisysp6Chorus6SetMixEf
_ZN5daisy13AnalogControl7ProcessEv
_ZN5daisy5Color4InitENS0_11PresetColorE
_ZN5daisy5Color4InitEfff
_ZN5daisy6RgbLed8SetColorENS_5ColorE
_ZN5daisy6RgbLed3SetEfff
_ZN5daisy8DaisyPod10UpdateLedsEv
_ZN5daisy8DaisyPod17SetAudioBlockSizeEj
_ZN5daisy8DaisyPod18SetAudioSampleRateENS_9SaiHandle6Config10SampleRateE
_ZN5daisy6RgbLed6SetRedEf
time
_ZN5daisy8DaisyPod8StartAdcEv
rng_state
f_lseek
f_close
_ZN5daisy9DaisySeed6SetLedEb
_ZN5daisy8DaisyPod22ProcessDigitalControlsEv
