ARM GAS  /var/folders/2p/02m_5p7958535cp2tpgps0400000gn/T//ccCr8gkt.s 			page 1


   1              		.cpu cortex-m7
   2              		.arch armv7e-m
   3              		.fpu fpv5-d16
   4              		.eabi_attribute 28, 1
   5              		.eabi_attribute 20, 1
   6              		.eabi_attribute 21, 1
   7              		.eabi_attribute 23, 3
   8              		.eabi_attribute 24, 1
   9              		.eabi_attribute 25, 1
  10              		.eabi_attribute 26, 1
  11              		.eabi_attribute 30, 4
  12              		.eabi_attribute 34, 1
  13              		.eabi_attribute 18, 4
  14              		.file	"GrannyChordApp.cpp"
  15              		.text
  16              	.Ltext0:
  17              		.cfi_sections	.debug_frame
  18              		.section	.text._ZNK5daisy6Switch10TimeHeldMsEv,"axG",%progbits,_ZNK5daisy6Switch10TimeHeldMsEv,com
  19              		.align	1
  20              		.weak	_ZNK5daisy6Switch10TimeHeldMsEv
  21              		.syntax unified
  22              		.thumb
  23              		.thumb_func
  25              	_ZNK5daisy6Switch10TimeHeldMsEv:
  26              	.LVL0:
  27              	.LFB1646:
  28              		.file 1 "../libDaisy/src/hid/switch.h"
   1:../libDaisy/src/hid/switch.h **** #pragma once
   2:../libDaisy/src/hid/switch.h **** #ifndef DSY_SWITCH_H
   3:../libDaisy/src/hid/switch.h **** #define DSY_SWITCH_H
   4:../libDaisy/src/hid/switch.h **** #include "daisy_core.h"
   5:../libDaisy/src/hid/switch.h **** #include "per/gpio.h"
   6:../libDaisy/src/hid/switch.h **** #include "sys/system.h"
   7:../libDaisy/src/hid/switch.h **** 
   8:../libDaisy/src/hid/switch.h **** namespace daisy
   9:../libDaisy/src/hid/switch.h **** {
  10:../libDaisy/src/hid/switch.h **** /** 
  11:../libDaisy/src/hid/switch.h ****     Generic Class for handling momentary/latching switches \n 
  12:../libDaisy/src/hid/switch.h ****     Inspired/influenced by Mutable Instruments (pichenettes) Switch classes
  13:../libDaisy/src/hid/switch.h ****     @author Stephen Hensley
  14:../libDaisy/src/hid/switch.h ****     @date December 2019
  15:../libDaisy/src/hid/switch.h ****     @ingroup controls
  16:../libDaisy/src/hid/switch.h **** */
  17:../libDaisy/src/hid/switch.h **** class Switch
  18:../libDaisy/src/hid/switch.h **** {
  19:../libDaisy/src/hid/switch.h ****   public:
  20:../libDaisy/src/hid/switch.h ****     /** Specifies the expected behavior of the switch */
  21:../libDaisy/src/hid/switch.h ****     enum Type
  22:../libDaisy/src/hid/switch.h ****     {
  23:../libDaisy/src/hid/switch.h ****         TYPE_TOGGLE,    /**< & */
  24:../libDaisy/src/hid/switch.h ****         TYPE_MOMENTARY, /**< & */
  25:../libDaisy/src/hid/switch.h ****     };
  26:../libDaisy/src/hid/switch.h ****     /** Specifies whether the pressed is HIGH or LOW. */
  27:../libDaisy/src/hid/switch.h ****     enum Polarity
  28:../libDaisy/src/hid/switch.h ****     {
  29:../libDaisy/src/hid/switch.h ****         POLARITY_NORMAL,   /**< & */
  30:../libDaisy/src/hid/switch.h ****         POLARITY_INVERTED, /**< & */
ARM GAS  /var/folders/2p/02m_5p7958535cp2tpgps0400000gn/T//ccCr8gkt.s 			page 2


  31:../libDaisy/src/hid/switch.h ****     };
  32:../libDaisy/src/hid/switch.h **** 
  33:../libDaisy/src/hid/switch.h ****     /** Specifies whether to use built-in Pull Up/Down resistors to hold button at a given state wh
  34:../libDaisy/src/hid/switch.h ****     enum Pull
  35:../libDaisy/src/hid/switch.h ****     {
  36:../libDaisy/src/hid/switch.h ****         PULL_UP,   /**< & */
  37:../libDaisy/src/hid/switch.h ****         PULL_DOWN, /**< & */
  38:../libDaisy/src/hid/switch.h ****         PULL_NONE, /**< & */
  39:../libDaisy/src/hid/switch.h ****     };
  40:../libDaisy/src/hid/switch.h **** 
  41:../libDaisy/src/hid/switch.h ****     Switch() {}
  42:../libDaisy/src/hid/switch.h ****     ~Switch() {}
  43:../libDaisy/src/hid/switch.h **** 
  44:../libDaisy/src/hid/switch.h ****     /** 
  45:../libDaisy/src/hid/switch.h ****     Initializes the switch object with a given port/pin combo.
  46:../libDaisy/src/hid/switch.h ****     \param pin port/pin object to tell the switch which hardware pin to use.
  47:../libDaisy/src/hid/switch.h ****     \param update_rate Does nothing. Backwards compatibility until next breaking update.
  48:../libDaisy/src/hid/switch.h ****     \param t switch type -- Default: TYPE_MOMENTARY
  49:../libDaisy/src/hid/switch.h ****     \param pol switch polarity -- Default: POLARITY_INVERTED
  50:../libDaisy/src/hid/switch.h ****     \param pu switch pull up/down -- Default: PULL_UP
  51:../libDaisy/src/hid/switch.h ****     */
  52:../libDaisy/src/hid/switch.h ****     void
  53:../libDaisy/src/hid/switch.h ****     Init(dsy_gpio_pin pin, float update_rate, Type t, Polarity pol, Pull pu);
  54:../libDaisy/src/hid/switch.h **** 
  55:../libDaisy/src/hid/switch.h ****     /**
  56:../libDaisy/src/hid/switch.h ****        Simplified Init.
  57:../libDaisy/src/hid/switch.h ****        \param pin port/pin object to tell the switch which hardware pin to use.
  58:../libDaisy/src/hid/switch.h ****        \param update_rate Left for backwards compatibility until next breaking change.
  59:../libDaisy/src/hid/switch.h ****     */
  60:../libDaisy/src/hid/switch.h ****     void Init(dsy_gpio_pin pin, float update_rate = 0.f);
  61:../libDaisy/src/hid/switch.h **** 
  62:../libDaisy/src/hid/switch.h ****     /** 
  63:../libDaisy/src/hid/switch.h ****     Called at update_rate to debounce and handle timing for the switch.
  64:../libDaisy/src/hid/switch.h ****     In order for events not to be missed, its important that the Edge/Pressed checks
  65:../libDaisy/src/hid/switch.h ****     be made at the same rate as the debounce function is being called.
  66:../libDaisy/src/hid/switch.h ****     */
  67:../libDaisy/src/hid/switch.h ****     void Debounce();
  68:../libDaisy/src/hid/switch.h **** 
  69:../libDaisy/src/hid/switch.h ****     /** \return true if a button was just pressed. */
  70:../libDaisy/src/hid/switch.h ****     inline bool RisingEdge() const { return updated_ ? state_ == 0x7f : false; }
  71:../libDaisy/src/hid/switch.h **** 
  72:../libDaisy/src/hid/switch.h ****     /** \return true if the button was just released */
  73:../libDaisy/src/hid/switch.h ****     inline bool FallingEdge() const
  74:../libDaisy/src/hid/switch.h ****     {
  75:../libDaisy/src/hid/switch.h ****         return updated_ ? state_ == 0x80 : false;
  76:../libDaisy/src/hid/switch.h ****     }
  77:../libDaisy/src/hid/switch.h **** 
  78:../libDaisy/src/hid/switch.h ****     /** \return true if the button is held down (or if the toggle is on) */
  79:../libDaisy/src/hid/switch.h ****     inline bool Pressed() const { return state_ == 0xff; }
  80:../libDaisy/src/hid/switch.h **** 
  81:../libDaisy/src/hid/switch.h ****     /** \return true if the button is held down, without debouncing */
  82:../libDaisy/src/hid/switch.h ****     inline bool RawState()
  83:../libDaisy/src/hid/switch.h ****     {
  84:../libDaisy/src/hid/switch.h ****         return flip_ ? !dsy_gpio_read(&hw_gpio_) : dsy_gpio_read(&hw_gpio_);
  85:../libDaisy/src/hid/switch.h ****     }
  86:../libDaisy/src/hid/switch.h **** 
  87:../libDaisy/src/hid/switch.h ****     /** \return the time in milliseconds that the button has been held (or toggle has been on) */
ARM GAS  /var/folders/2p/02m_5p7958535cp2tpgps0400000gn/T//ccCr8gkt.s 			page 3


  88:../libDaisy/src/hid/switch.h ****     inline float TimeHeldMs() const
  29              		.loc 1 88 18 view -0
  30              		.cfi_startproc
  31              		@ args = 0, pretend = 0, frame = 0
  32              		@ frame_needed = 0, uses_anonymous_args = 0
  89:../libDaisy/src/hid/switch.h ****     {
  90:../libDaisy/src/hid/switch.h ****         return Pressed() ? System::GetNow() - rising_edge_time_ : 0;
  33              		.loc 1 90 9 view .LVU1
  34              	.LBB225:
  35              	.LBI225:
  79:../libDaisy/src/hid/switch.h **** 
  36              		.loc 1 79 17 view .LVU2
  37              	.LBB226:
  79:../libDaisy/src/hid/switch.h **** 
  38              		.loc 1 79 35 view .LVU3
  79:../libDaisy/src/hid/switch.h **** 
  39              		.loc 1 79 35 is_stmt 0 view .LVU4
  40              	.LBE226:
  41              	.LBE225:
  88:../libDaisy/src/hid/switch.h ****     {
  42              		.loc 1 88 18 view .LVU5
  43 0000 10B5     		push	{r4, lr}
  44              		.cfi_def_cfa_offset 8
  45              		.cfi_offset 4, -8
  46              		.cfi_offset 14, -4
  47              		.loc 1 90 26 view .LVU6
  48 0002 837A     		ldrb	r3, [r0, #10]	@ zero_extendqisi2
  88:../libDaisy/src/hid/switch.h ****     {
  49              		.loc 1 88 18 view .LVU7
  50 0004 0446     		mov	r4, r0
  51              		.loc 1 90 26 view .LVU8
  52 0006 FF2B     		cmp	r3, #255
  53 0008 0AD1     		bne	.L3
  54              	.LVL1:
  55              	.LBB227:
  56              	.LBI227:
  88:../libDaisy/src/hid/switch.h ****     {
  57              		.loc 1 88 18 is_stmt 1 view .LVU9
  58              	.LBB228:
  59              		.loc 1 90 42 is_stmt 0 view .LVU10
  60 000a FFF7FEFF 		bl	_ZN5daisy6System6GetNowEv
  61              	.LVL2:
  62              		.loc 1 90 45 view .LVU11
  63 000e 07EE900A 		vmov	s15, r0	@ int
  64 0012 B8EE670A 		vcvt.f32.u32	s0, s15
  65              		.loc 1 90 26 view .LVU12
  66 0016 D4ED037A 		vldr.32	s15, [r4, #12]
  67 001a 30EE670A 		vsub.f32	s0, s0, s15
  68              	.LVL3:
  69              	.L1:
  70              		.loc 1 90 26 view .LVU13
  71              	.LBE228:
  72              	.LBE227:
  91:../libDaisy/src/hid/switch.h ****     }
  73              		.loc 1 91 5 view .LVU14
  74 001e 10BD     		pop	{r4, pc}
  75              	.LVL4:
ARM GAS  /var/folders/2p/02m_5p7958535cp2tpgps0400000gn/T//ccCr8gkt.s 			page 4


  76              	.L3:
  90:../libDaisy/src/hid/switch.h ****     }
  77              		.loc 1 90 26 view .LVU15
  78 0020 9FED010A 		vldr.32	s0, .L4
  90:../libDaisy/src/hid/switch.h ****     }
  79              		.loc 1 90 67 view .LVU16
  80 0024 FBE7     		b	.L1
  81              	.L5:
  82 0026 00BF     		.align	2
  83              	.L4:
  84 0028 00000000 		.word	0
  85              		.cfi_endproc
  86              	.LFE1646:
  88              		.section	.text._ZN14GrannyChordApp20HandleEncoderPressedEv,"ax",%progbits
  89              		.align	1
  90              		.global	_ZN14GrannyChordApp20HandleEncoderPressedEv
  91              		.syntax unified
  92              		.thumb
  93              		.thumb_func
  95              	_ZN14GrannyChordApp20HandleEncoderPressedEv:
  96              	.LVL5:
  97              	.LFB4905:
  98              		.file 2 "GrannyChordApp.cpp"
   1:GrannyChordApp.cpp **** #ifdef DEBUG_MODE // TODO: remove
   2:GrannyChordApp.cpp **** #pragma message("Debug mode is ON")
   3:GrannyChordApp.cpp **** #else
   4:GrannyChordApp.cpp **** #pragma message("Debug mode is OFF")
   5:GrannyChordApp.cpp **** #endif
   6:GrannyChordApp.cpp **** 
   7:GrannyChordApp.cpp **** #include "GrannyChordApp.h"
   8:GrannyChordApp.cpp **** 
   9:GrannyChordApp.cpp **** /* this is required for AudioCallback as it needs a static object */
  10:GrannyChordApp.cpp **** GrannyChordApp* GrannyChordApp::instance_ = nullptr;
  11:GrannyChordApp.cpp **** 
  12:GrannyChordApp.cpp **** /// @brief Initialises app state and members and goes through app startup process
  13:GrannyChordApp.cpp **** /// @param left Left channel audio data buffer
  14:GrannyChordApp.cpp **** /// @param right Right channel audio data buffer
  15:GrannyChordApp.cpp **** void GrannyChordApp::Init(int16_t *left, int16_t *right, int16_t *temp){
  16:GrannyChordApp.cpp ****   left_buf_ = left, right_buf_ = right, temp_buf_ = temp;
  17:GrannyChordApp.cpp ****   pod_.SetAudioBlockSize(4);
  18:GrannyChordApp.cpp ****   pod_.SetAudioSampleRate(SaiHandle::Config::SampleRate::SAI_48KHZ);
  19:GrannyChordApp.cpp **** 
  20:GrannyChordApp.cpp ****   curr_state_ = AppState::SelectFile;
  21:GrannyChordApp.cpp ****   if (!InitFileMgr()){
  22:GrannyChordApp.cpp ****     DebugPrint(pod_,"File manager failed to init");
  23:GrannyChordApp.cpp ****     pod_.led1.SetRed(1);
  24:GrannyChordApp.cpp ****     pod_.led2.SetRed(1);
  25:GrannyChordApp.cpp ****     pod_.UpdateLeds();
  26:GrannyChordApp.cpp ****     return;
  27:GrannyChordApp.cpp ****   }
  28:GrannyChordApp.cpp ****   // loadmeter.Init(pod_.AudioSampleRate(), pod_.AudioBlockSize());
  29:GrannyChordApp.cpp ****   InitFX();
  30:GrannyChordApp.cpp ****   InitPrevParamVals();
  31:GrannyChordApp.cpp ****   SeedRng();
  32:GrannyChordApp.cpp **** 
  33:GrannyChordApp.cpp ****   pod_.StartAdc();
  34:GrannyChordApp.cpp **** }
ARM GAS  /var/folders/2p/02m_5p7958535cp2tpgps0400000gn/T//ccCr8gkt.s 			page 5


  35:GrannyChordApp.cpp **** 
  36:GrannyChordApp.cpp **** /// @brief Loops whilst app is running, updating state and UI, handling 
  37:GrannyChordApp.cpp **** ///        state transitions, updating parameters and managing audio recordings
  38:GrannyChordApp.cpp **** void GrannyChordApp::Run(){
  39:GrannyChordApp.cpp ****   while(true){
  40:GrannyChordApp.cpp ****     UpdateUI();
  41:GrannyChordApp.cpp ****     System::Delay(10);
  42:GrannyChordApp.cpp ****   }
  43:GrannyChordApp.cpp **** }
  44:GrannyChordApp.cpp **** 
  45:GrannyChordApp.cpp **** void GrannyChordApp::UpdateUI(){
  46:GrannyChordApp.cpp ****   AppState prev_state = curr_state_;
  47:GrannyChordApp.cpp ****   pod_.ProcessDigitalControls();
  48:GrannyChordApp.cpp ****   if (pod_.encoder.Pressed()) HandleEncoderPressed();
  49:GrannyChordApp.cpp ****   if (pod_.encoder.TimeHeldMs() > 1000.0f) HandleEncoderLongPress();
  50:GrannyChordApp.cpp ****   if (pod_.button1.Pressed()) HandleButton1();
  51:GrannyChordApp.cpp ****   if (pod_.button2.Pressed()) HandleButton2();
  52:GrannyChordApp.cpp ****   if (curr_state_==AppState::Synthesis){
  53:GrannyChordApp.cpp ****     if (pod_.button1.TimeHeldMs() >1000.0f) HandleButton1LongPress();
  54:GrannyChordApp.cpp ****     if (pod_.button2.TimeHeldMs() >1000.0f) HandleButton2LongPress();
  55:GrannyChordApp.cpp ****   }
  56:GrannyChordApp.cpp **** 
  57:GrannyChordApp.cpp ****   int32_t encoder_inc = pod_.encoder.Increment();
  58:GrannyChordApp.cpp ****   if (encoder_inc!=0){
  59:GrannyChordApp.cpp ****     if (curr_state_== AppState::SelectFile){
  60:GrannyChordApp.cpp ****       HandleFileSelection(encoder_inc);
  61:GrannyChordApp.cpp ****     }
  62:GrannyChordApp.cpp ****     else if (curr_state_==AppState::PlayWAV){
  63:GrannyChordApp.cpp ****       curr_state_ = AppState::SelectFile;
  64:GrannyChordApp.cpp ****     }
  65:GrannyChordApp.cpp ****   }
  66:GrannyChordApp.cpp ****   if (prev_state != curr_state_){
  67:GrannyChordApp.cpp ****     DebugPrintState(prev_state);
  68:GrannyChordApp.cpp ****     DebugPrint(pod_, "switching states");
  69:GrannyChordApp.cpp ****     DebugPrintState(curr_state_);
  70:GrannyChordApp.cpp ****     HandleStateChange();
  71:GrannyChordApp.cpp ****   }
  72:GrannyChordApp.cpp **** }
  73:GrannyChordApp.cpp **** 
  74:GrannyChordApp.cpp **** void GrannyChordApp::HandleStateChange(){
  75:GrannyChordApp.cpp ****   switch(curr_state_){
  76:GrannyChordApp.cpp ****     case AppState::SelectFile:
  77:GrannyChordApp.cpp ****       pod_.StopAudio();
  78:GrannyChordApp.cpp ****       return; 
  79:GrannyChordApp.cpp ****     case AppState::RecordIn:
  80:GrannyChordApp.cpp ****       ClearAudioBuffers();    
  81:GrannyChordApp.cpp ****       return;
  82:GrannyChordApp.cpp ****     case AppState::PlayWAV:
  83:GrannyChordApp.cpp ****       InitPlayback(); 
  84:GrannyChordApp.cpp ****       return;
  85:GrannyChordApp.cpp ****     case AppState::Synthesis:
  86:GrannyChordApp.cpp ****       InitSynth();
  87:GrannyChordApp.cpp ****       return;
  88:GrannyChordApp.cpp ****     case AppState::Error: 
  89:GrannyChordApp.cpp ****       pod_.led1.SetRed(1); 
  90:GrannyChordApp.cpp ****       pod_.led2.SetRed(1); 
  91:GrannyChordApp.cpp ****       return;
ARM GAS  /var/folders/2p/02m_5p7958535cp2tpgps0400000gn/T//ccCr8gkt.s 			page 6


  92:GrannyChordApp.cpp ****     default: 
  93:GrannyChordApp.cpp ****       return;
  94:GrannyChordApp.cpp ****   }
  95:GrannyChordApp.cpp **** }
  96:GrannyChordApp.cpp **** 
  97:GrannyChordApp.cpp **** void GrannyChordApp::HandleEncoderPressed(){
  99              		.loc 2 97 44 is_stmt 1 view -0
 100              		.cfi_startproc
 101              		@ args = 0, pretend = 0, frame = 0
 102              		@ frame_needed = 0, uses_anonymous_args = 0
 103              		@ link register save eliminated.
  98:GrannyChordApp.cpp ****   switch(curr_state_){
 104              		.loc 2 98 3 view .LVU18
 105              		.loc 2 98 10 is_stmt 0 view .LVU19
 106 0000 D0F8D034 		ldr	r3, [r0, #1232]
 107              		.loc 2 98 3 view .LVU20
 108 0004 012B     		cmp	r3, #1
 109 0006 06D0     		beq	.L7
 110 0008 032B     		cmp	r3, #3
 111 000a 00D0     		beq	.L8
 112 000c 13B9     		cbnz	r3, .L6
 113              	.L8:
  99:GrannyChordApp.cpp ****     case AppState::SelectFile:
 114              		.loc 2 99 5 is_stmt 1 view .LVU21
 100:GrannyChordApp.cpp ****       curr_state_ = AppState::PlayWAV;
 115              		.loc 2 100 7 view .LVU22
 116              		.loc 2 100 19 is_stmt 0 view .LVU23
 117 000e 0123     		movs	r3, #1
 118              	.L13:
 101:GrannyChordApp.cpp ****       return;
 102:GrannyChordApp.cpp ****     case AppState::RecordIn: 
 103:GrannyChordApp.cpp ****       curr_state_ = AppState::PlayWAV;
 104:GrannyChordApp.cpp ****       return;
 105:GrannyChordApp.cpp ****     case AppState::PlayWAV:
 106:GrannyChordApp.cpp ****       curr_state_ = AppState::Synthesis;
 119              		.loc 2 106 19 view .LVU24
 120 0010 C0F8D034 		str	r3, [r0, #1232]
 107:GrannyChordApp.cpp ****       return;
 121              		.loc 2 107 7 is_stmt 1 view .LVU25
 122              	.L6:
 108:GrannyChordApp.cpp ****     default:
 109:GrannyChordApp.cpp ****       return;
 110:GrannyChordApp.cpp ****   }
 111:GrannyChordApp.cpp **** }
 123              		.loc 2 111 1 is_stmt 0 view .LVU26
 124 0014 7047     		bx	lr
 125              	.L7:
 105:GrannyChordApp.cpp ****       curr_state_ = AppState::Synthesis;
 126              		.loc 2 105 5 is_stmt 1 view .LVU27
 106:GrannyChordApp.cpp ****       return;
 127              		.loc 2 106 7 view .LVU28
 106:GrannyChordApp.cpp ****       return;
 128              		.loc 2 106 19 is_stmt 0 view .LVU29
 129 0016 0223     		movs	r3, #2
 130 0018 FAE7     		b	.L13
 131              		.cfi_endproc
 132              	.LFE4905:
ARM GAS  /var/folders/2p/02m_5p7958535cp2tpgps0400000gn/T//ccCr8gkt.s 			page 7


 134              		.section	.text._ZN14GrannyChordApp22HandleEncoderLongPressEv,"ax",%progbits
 135              		.align	1
 136              		.global	_ZN14GrannyChordApp22HandleEncoderLongPressEv
 137              		.syntax unified
 138              		.thumb
 139              		.thumb_func
 141              	_ZN14GrannyChordApp22HandleEncoderLongPressEv:
 142              	.LVL6:
 143              	.LFB4906:
 112:GrannyChordApp.cpp **** 
 113:GrannyChordApp.cpp **** void GrannyChordApp::HandleEncoderLongPress(){
 144              		.loc 2 113 46 is_stmt 1 view -0
 145              		.cfi_startproc
 146              		@ args = 0, pretend = 0, frame = 0
 147              		@ frame_needed = 0, uses_anonymous_args = 0
 148              		@ link register save eliminated.
 114:GrannyChordApp.cpp ****   switch(curr_state_){
 149              		.loc 2 114 3 view .LVU31
 150              		.loc 2 114 10 is_stmt 0 view .LVU32
 151 0000 D0F8D034 		ldr	r3, [r0, #1232]
 152              		.loc 2 114 3 view .LVU33
 153 0004 012B     		cmp	r3, #1
 154 0006 03DC     		bgt	.L15
 155 0008 002B     		cmp	r3, #0
 156 000a 07DB     		blt	.L14
 115:GrannyChordApp.cpp ****     case AppState::Synthesis:
 116:GrannyChordApp.cpp ****       curr_state_ = AppState::SelectFile;
 117:GrannyChordApp.cpp ****       return;
 118:GrannyChordApp.cpp ****     case AppState::RecordIn:  
 119:GrannyChordApp.cpp ****       curr_state_ = AppState::SelectFile;
 120:GrannyChordApp.cpp ****       return;
 121:GrannyChordApp.cpp ****     case AppState::SelectFile:
 157              		.loc 2 121 5 is_stmt 1 view .LVU34
 122:GrannyChordApp.cpp ****       curr_state_ = AppState::RecordIn; 
 158              		.loc 2 122 7 view .LVU35
 159              		.loc 2 122 19 is_stmt 0 view .LVU36
 160 000c 0323     		movs	r3, #3
 161 000e 03E0     		b	.L18
 162              	.L15:
 114:GrannyChordApp.cpp ****   switch(curr_state_){
 163              		.loc 2 114 3 view .LVU37
 164 0010 023B     		subs	r3, r3, #2
 165 0012 012B     		cmp	r3, #1
 166 0014 02D8     		bhi	.L14
 115:GrannyChordApp.cpp ****     case AppState::Synthesis:
 167              		.loc 2 115 5 is_stmt 1 view .LVU38
 116:GrannyChordApp.cpp ****       return;
 168              		.loc 2 116 7 view .LVU39
 116:GrannyChordApp.cpp ****       return;
 169              		.loc 2 116 19 is_stmt 0 view .LVU40
 170 0016 0023     		movs	r3, #0
 171              	.L18:
 172              		.loc 2 122 19 view .LVU41
 173 0018 C0F8D034 		str	r3, [r0, #1232]
 123:GrannyChordApp.cpp ****       return;
 174              		.loc 2 123 7 is_stmt 1 view .LVU42
 175              	.L14:
ARM GAS  /var/folders/2p/02m_5p7958535cp2tpgps0400000gn/T//ccCr8gkt.s 			page 8


 124:GrannyChordApp.cpp ****     case AppState::PlayWAV: 
 125:GrannyChordApp.cpp ****       curr_state_ = AppState::RecordIn;  
 126:GrannyChordApp.cpp ****       return;
 127:GrannyChordApp.cpp ****     default:
 128:GrannyChordApp.cpp ****       return;
 129:GrannyChordApp.cpp ****   }
 130:GrannyChordApp.cpp **** }
 176              		.loc 2 130 1 is_stmt 0 view .LVU43
 177 001c 7047     		bx	lr
 178              		.cfi_endproc
 179              	.LFE4906:
 181              		.section	.rodata._ZN14GrannyChordApp19HandleFileSelectionEl.str1.1,"aMS",%progbits,1
 182              	.LC0:
 183 0000 73656C65 		.ascii	"selected file %d %s\000"
 183      63746564 
 183      2066696C 
 183      65202564 
 183      20257300 
 184              		.section	.text._ZN14GrannyChordApp19HandleFileSelectionEl,"ax",%progbits
 185              		.align	1
 186              		.global	_ZN14GrannyChordApp19HandleFileSelectionEl
 187              		.syntax unified
 188              		.thumb
 189              		.thumb_func
 191              	_ZN14GrannyChordApp19HandleFileSelectionEl:
 192              	.LVL7:
 193              	.LFB4911:
 131:GrannyChordApp.cpp **** 
 132:GrannyChordApp.cpp **** void GrannyChordApp::HandleButton1(){
 133:GrannyChordApp.cpp ****   if (curr_state_==AppState::Synthesis){
 134:GrannyChordApp.cpp ****     UpdateSynthMode();
 135:GrannyChordApp.cpp ****   }
 136:GrannyChordApp.cpp **** }
 137:GrannyChordApp.cpp **** 
 138:GrannyChordApp.cpp **** /// @brief Toggles on/off randomness for synth parameters
 139:GrannyChordApp.cpp **** void GrannyChordApp::HandleButton2(){
 140:GrannyChordApp.cpp ****   if (curr_state_==AppState::Synthesis){
 141:GrannyChordApp.cpp ****     ToggleRandomnessControls();
 142:GrannyChordApp.cpp ****   }
 143:GrannyChordApp.cpp **** }
 144:GrannyChordApp.cpp **** 
 145:GrannyChordApp.cpp **** void GrannyChordApp::HandleButton1LongPress(){
 146:GrannyChordApp.cpp ****   if (curr_state_==AppState::Synthesis){
 147:GrannyChordApp.cpp ****     ToggleFX(true);
 148:GrannyChordApp.cpp ****   }
 149:GrannyChordApp.cpp **** }
 150:GrannyChordApp.cpp **** 
 151:GrannyChordApp.cpp **** void GrannyChordApp::HandleButton2LongPress(){
 152:GrannyChordApp.cpp ****   if (curr_state_==AppState::Synthesis){
 153:GrannyChordApp.cpp ****     ToggleFX(false);
 154:GrannyChordApp.cpp ****   }
 155:GrannyChordApp.cpp **** }
 156:GrannyChordApp.cpp **** 
 157:GrannyChordApp.cpp **** /// @brief Scrolls through list of files for user selection
 158:GrannyChordApp.cpp **** void GrannyChordApp::HandleFileSelection(int32_t encoder_inc){
 194              		.loc 2 158 62 is_stmt 1 view -0
 195              		.cfi_startproc
ARM GAS  /var/folders/2p/02m_5p7958535cp2tpgps0400000gn/T//ccCr8gkt.s 			page 9


 196              		@ args = 0, pretend = 0, frame = 0
 197              		@ frame_needed = 0, uses_anonymous_args = 0
 159:GrannyChordApp.cpp ****   int file_count = filemgr_.GetFileCount();
 198              		.loc 2 159 3 view .LVU45
 199              		.loc 2 159 20 is_stmt 0 view .LVU46
 200 0000 D0F8C834 		ldr	r3, [r0, #1224]
 201              	.LVL8:
 202              	.LBB229:
 203              	.LBI229:
 204              		.file 3 "AudioFileManager.h"
   1:AudioFileManager.h **** #pragma once
   2:AudioFileManager.h **** #include <stdio.h>
   3:AudioFileManager.h **** #include <stdint.h>
   4:AudioFileManager.h **** #include <vector>
   5:AudioFileManager.h **** #include "daisy_pod.h"
   6:AudioFileManager.h **** #include "constants_utils.h"
   7:AudioFileManager.h **** #include "debug_print.h"
   8:AudioFileManager.h **** 
   9:AudioFileManager.h **** using namespace daisy; 
  10:AudioFileManager.h **** 
  11:AudioFileManager.h **** class AudioFileManager {
  12:AudioFileManager.h ****   public:
  13:AudioFileManager.h ****     AudioFileManager(SdmmcHandler &sd, FatFSInterface &fsi, DaisyPod &pod, FIL *file)
  14:AudioFileManager.h ****       : sd_(sd), fsi_(fsi), pod_(pod), curr_file_(file), 
  15:AudioFileManager.h ****         left_buf_(nullptr), right_buf_(nullptr) {};
  16:AudioFileManager.h ****     
  17:AudioFileManager.h ****     bool Init();
  18:AudioFileManager.h ****     bool ScanWavFiles();
  19:AudioFileManager.h ****     void SetBuffers(int16_t *left, int16_t *right, int16_t* temp_buf);
  20:AudioFileManager.h ****     bool LoadFile(uint16_t file_idx);
  21:AudioFileManager.h ****     
  22:AudioFileManager.h ****     bool CloseFile();
  23:AudioFileManager.h ****     bool GetWavHeader(FIL *file);
  24:AudioFileManager.h **** 
  25:AudioFileManager.h ****     int16_t* GetLeftBuffer() const { return left_buf_; }
  26:AudioFileManager.h ****     int16_t* GetRightBuffer() const { return right_buf_; }
  27:AudioFileManager.h ****     size_t GetSamplesPerChannel() const { return header_.total_samples / header_.channels; }
  28:AudioFileManager.h ****     size_t GetTotalSamples() const { return header_.total_samples; }
  29:AudioFileManager.h ****     int16_t GetNumChannels() const { return header_.channels; }
  30:AudioFileManager.h ****     uint16_t GetFileCount() const { return file_count_; }
 205              		.loc 3 30 14 is_stmt 1 view .LVU47
 206              	.LBB230:
 207              		.loc 3 30 37 view .LVU48
 208              		.loc 3 30 37 is_stmt 0 view .LVU49
 209              	.LBE230:
 210              	.LBE229:
 158:GrannyChordApp.cpp ****   int file_count = filemgr_.GetFileCount();
 211              		.loc 2 158 62 view .LVU50
 212 0004 10B5     		push	{r4, lr}
 213              		.cfi_def_cfa_offset 8
 214              		.cfi_offset 4, -8
 215              		.cfi_offset 14, -4
 216              	.LBB232:
 217              	.LBB231:
 218              		.loc 3 30 44 view .LVU51
 219 0006 03F58052 		add	r2, r3, #4096
 220              	.LBE231:
ARM GAS  /var/folders/2p/02m_5p7958535cp2tpgps0400000gn/T//ccCr8gkt.s 			page 10


 221              	.LBE232:
 160:GrannyChordApp.cpp ****   file_idx_ = (file_idx_ + encoder_inc + file_count) % file_count;
 222              		.loc 2 160 26 view .LVU52
 223 000a D0F88045 		ldr	r4, [r0, #1408]
 159:GrannyChordApp.cpp ****   file_idx_ = (file_idx_ + encoder_inc + file_count) % file_count;
 224              		.loc 2 159 42 view .LVU53
 225 000e D28B     		ldrh	r2, [r2, #30]
 226              	.LVL9:
 227              		.loc 2 160 3 is_stmt 1 view .LVU54
 228              		.loc 2 160 26 is_stmt 0 view .LVU55
 229 0010 2144     		add	r1, r1, r4
 230              	.LVL10:
 231              		.loc 2 160 40 view .LVU56
 232 0012 8C18     		adds	r4, r1, r2
 233              		.loc 2 160 54 view .LVU57
 234 0014 94FBF2F1 		sdiv	r1, r4, r2
 235 0018 02FB1144 		mls	r4, r2, r1, r4
 161:GrannyChordApp.cpp ****   filemgr_.GetName(file_idx_,fname_);
 236              		.loc 2 161 30 view .LVU58
 237 001c 00F28C52 		addw	r2, r0, #1420
 238              	.LVL11:
 239              	.LBB233:
 240              	.LBB234:
  31:AudioFileManager.h ****     void GetName(uint16_t idx, char* name) const { strcpy(name, names_[idx]); }
 241              		.loc 3 31 75 view .LVU59
 242 0020 A1B2     		uxth	r1, r4
 243              	.LBE234:
 244              	.LBE233:
 160:GrannyChordApp.cpp ****   filemgr_.GetName(file_idx_,fname_);
 245              		.loc 2 160 13 view .LVU60
 246 0022 C0F88045 		str	r4, [r0, #1408]
 247              		.loc 2 161 3 is_stmt 1 view .LVU61
 248              	.LVL12:
 249              	.LBB237:
 250              	.LBI233:
 251              		.loc 3 31 10 view .LVU62
 252              	.LBB235:
 253              		.loc 3 31 52 view .LVU63
 254              		.loc 3 31 58 is_stmt 0 view .LVU64
 255 0026 1046     		mov	r0, r2
 256              	.LVL13:
 257              		.loc 3 31 75 view .LVU65
 258 0028 03EBC111 		add	r1, r3, r1, lsl #7
 259              		.loc 3 31 58 view .LVU66
 260 002c 1C31     		adds	r1, r1, #28
 261 002e FFF7FEFF 		bl	strcpy
 262              	.LVL14:
 263              		.loc 3 31 58 view .LVU67
 264              	.LBE235:
 265              	.LBE237:
 266              	.LBB238:
 267              	.LBB239:
 268              		.file 4 "../libDaisy/src/daisy_seed.h"
   1:../libDaisy/src/daisy_seed.h **** #pragma once
   2:../libDaisy/src/daisy_seed.h **** #ifndef DSY_SEED_H
   3:../libDaisy/src/daisy_seed.h **** #define DSY_SEED_H
   4:../libDaisy/src/daisy_seed.h **** 
ARM GAS  /var/folders/2p/02m_5p7958535cp2tpgps0400000gn/T//ccCr8gkt.s 			page 11


   5:../libDaisy/src/daisy_seed.h **** #include "daisy.h"
   6:../libDaisy/src/daisy_seed.h **** 
   7:../libDaisy/src/daisy_seed.h **** //Uncomment this out if you're still using the rev2 hardware
   8:../libDaisy/src/daisy_seed.h **** //#define SEED_REV2
   9:../libDaisy/src/daisy_seed.h **** 
  10:../libDaisy/src/daisy_seed.h **** namespace daisy
  11:../libDaisy/src/daisy_seed.h **** {
  12:../libDaisy/src/daisy_seed.h **** /**
  13:../libDaisy/src/daisy_seed.h ****    @brief This is the higher-level interface for the Daisy board. \n 
  14:../libDaisy/src/daisy_seed.h ****     All basic peripheral configuration/initialization is setup here. \n
  15:../libDaisy/src/daisy_seed.h **** 
  16:../libDaisy/src/daisy_seed.h ****    @ingroup boards
  17:../libDaisy/src/daisy_seed.h **** */
  18:../libDaisy/src/daisy_seed.h **** class DaisySeed
  19:../libDaisy/src/daisy_seed.h **** {
  20:../libDaisy/src/daisy_seed.h ****   public:
  21:../libDaisy/src/daisy_seed.h ****     DaisySeed() {}
  22:../libDaisy/src/daisy_seed.h ****     ~DaisySeed() {}
  23:../libDaisy/src/daisy_seed.h **** 
  24:../libDaisy/src/daisy_seed.h ****     /** This function used to provide a pre-initialization configuraiton 
  25:../libDaisy/src/daisy_seed.h ****      *  it has since been deprecated, and does nothing.
  26:../libDaisy/src/daisy_seed.h ****      */
  27:../libDaisy/src/daisy_seed.h ****     void Configure();
  28:../libDaisy/src/daisy_seed.h **** 
  29:../libDaisy/src/daisy_seed.h ****     /** 
  30:../libDaisy/src/daisy_seed.h ****     Initializes the Daisy Seed and the following peripherals:
  31:../libDaisy/src/daisy_seed.h ****     SDRAM, QSPI, 24-bit 48kHz Audio via AK4556, Internal USB,
  32:../libDaisy/src/daisy_seed.h ****     as well as the built-in LED and Testpoint.
  33:../libDaisy/src/daisy_seed.h **** 
  34:../libDaisy/src/daisy_seed.h ****     ADCs, DACs, and other special peripherals (such as I2C, SPI, etc.)
  35:../libDaisy/src/daisy_seed.h ****     can be initialized using their specific initializers within libdaisy
  36:../libDaisy/src/daisy_seed.h ****     for a specific application.
  37:../libDaisy/src/daisy_seed.h ****     */
  38:../libDaisy/src/daisy_seed.h ****     void Init(bool boost = false);
  39:../libDaisy/src/daisy_seed.h **** 
  40:../libDaisy/src/daisy_seed.h ****     /** 
  41:../libDaisy/src/daisy_seed.h ****     Deinitializes all peripherals automatically handled by `Init`.
  42:../libDaisy/src/daisy_seed.h ****     */
  43:../libDaisy/src/daisy_seed.h ****     void DeInit();
  44:../libDaisy/src/daisy_seed.h **** 
  45:../libDaisy/src/daisy_seed.h ****     /** 
  46:../libDaisy/src/daisy_seed.h ****     Wait some ms before going on.
  47:../libDaisy/src/daisy_seed.h ****     \param del Delay time in ms.
  48:../libDaisy/src/daisy_seed.h ****     */
  49:../libDaisy/src/daisy_seed.h ****     void DelayMs(size_t del);
  50:../libDaisy/src/daisy_seed.h **** 
  51:../libDaisy/src/daisy_seed.h ****     /** 
  52:../libDaisy/src/daisy_seed.h ****     Returns the gpio_pin corresponding to the index 0-31.
  53:../libDaisy/src/daisy_seed.h ****     For the given GPIO on the Daisy Seed (labeled 1-32 in docs).
  54:../libDaisy/src/daisy_seed.h ****     */
  55:../libDaisy/src/daisy_seed.h ****     static dsy_gpio_pin GetPin(uint8_t pin_idx);
  56:../libDaisy/src/daisy_seed.h **** 
  57:../libDaisy/src/daisy_seed.h ****     /** Begins the audio for the seeds builtin audio.
  58:../libDaisy/src/daisy_seed.h ****     the specified callback will get called whenever
  59:../libDaisy/src/daisy_seed.h ****     new data is ready to be prepared.
  60:../libDaisy/src/daisy_seed.h ****     */
  61:../libDaisy/src/daisy_seed.h ****     void StartAudio(AudioHandle::InterleavingAudioCallback cb);
ARM GAS  /var/folders/2p/02m_5p7958535cp2tpgps0400000gn/T//ccCr8gkt.s 			page 12


  62:../libDaisy/src/daisy_seed.h **** 
  63:../libDaisy/src/daisy_seed.h ****     /** Begins the audio for the seeds builtin audio.
  64:../libDaisy/src/daisy_seed.h ****     the specified callback will get called whenever
  65:../libDaisy/src/daisy_seed.h ****     new data is ready to be prepared.
  66:../libDaisy/src/daisy_seed.h ****     This will use the newer non-interleaved callback.
  67:../libDaisy/src/daisy_seed.h ****     */
  68:../libDaisy/src/daisy_seed.h ****     void StartAudio(AudioHandle::AudioCallback cb);
  69:../libDaisy/src/daisy_seed.h **** 
  70:../libDaisy/src/daisy_seed.h ****     /** Changes to a new interleaved callback
  71:../libDaisy/src/daisy_seed.h ****      */
  72:../libDaisy/src/daisy_seed.h ****     void ChangeAudioCallback(AudioHandle::InterleavingAudioCallback cb);
  73:../libDaisy/src/daisy_seed.h **** 
  74:../libDaisy/src/daisy_seed.h ****     /** Changes to a new multichannel callback
  75:../libDaisy/src/daisy_seed.h ****      */
  76:../libDaisy/src/daisy_seed.h ****     void ChangeAudioCallback(AudioHandle::AudioCallback cb);
  77:../libDaisy/src/daisy_seed.h **** 
  78:../libDaisy/src/daisy_seed.h ****     /** Stops the audio if it is running. */
  79:../libDaisy/src/daisy_seed.h ****     void StopAudio();
  80:../libDaisy/src/daisy_seed.h **** 
  81:../libDaisy/src/daisy_seed.h ****     /** Updates the Audio Sample Rate, and reinitializes.
  82:../libDaisy/src/daisy_seed.h ****      ** Audio must be stopped for this to work.
  83:../libDaisy/src/daisy_seed.h ****      */
  84:../libDaisy/src/daisy_seed.h ****     void SetAudioSampleRate(SaiHandle::Config::SampleRate samplerate);
  85:../libDaisy/src/daisy_seed.h **** 
  86:../libDaisy/src/daisy_seed.h ****     /** Returns the audio sample rate in Hz as a floating point number.
  87:../libDaisy/src/daisy_seed.h ****      */
  88:../libDaisy/src/daisy_seed.h ****     float AudioSampleRate();
  89:../libDaisy/src/daisy_seed.h **** 
  90:../libDaisy/src/daisy_seed.h ****     /** Sets the number of samples processed per channel by the audio callback.
  91:../libDaisy/src/daisy_seed.h ****      */
  92:../libDaisy/src/daisy_seed.h ****     void SetAudioBlockSize(size_t blocksize);
  93:../libDaisy/src/daisy_seed.h **** 
  94:../libDaisy/src/daisy_seed.h ****     /** Returns the number of samples per channel in a block of audio. */
  95:../libDaisy/src/daisy_seed.h ****     size_t AudioBlockSize();
  96:../libDaisy/src/daisy_seed.h **** 
  97:../libDaisy/src/daisy_seed.h ****     /** Returns the rate in Hz that the Audio callback is called */
  98:../libDaisy/src/daisy_seed.h ****     float AudioCallbackRate() const;
  99:../libDaisy/src/daisy_seed.h **** 
 100:../libDaisy/src/daisy_seed.h ****     /** Returns the SAI Handle for the Daisy Seed 
 101:../libDaisy/src/daisy_seed.h ****      *  This can be useful when adding a secondary codec,
 102:../libDaisy/src/daisy_seed.h ****      *  the result of this function can be passed to the audio reinit 
 103:../libDaisy/src/daisy_seed.h ****      *  with an SAI2 configuration
 104:../libDaisy/src/daisy_seed.h ****      */
 105:../libDaisy/src/daisy_seed.h ****     const SaiHandle& AudioSaiHandle() const;
 106:../libDaisy/src/daisy_seed.h **** 
 107:../libDaisy/src/daisy_seed.h ****     /** Sets the state of the built in LED
 108:../libDaisy/src/daisy_seed.h ****      */
 109:../libDaisy/src/daisy_seed.h ****     void SetLed(bool state);
 110:../libDaisy/src/daisy_seed.h **** 
 111:../libDaisy/src/daisy_seed.h ****     /** Sets the state of the test point near pin 10
 112:../libDaisy/src/daisy_seed.h ****      */
 113:../libDaisy/src/daisy_seed.h ****     void SetTestPoint(bool state);
 114:../libDaisy/src/daisy_seed.h **** 
 115:../libDaisy/src/daisy_seed.h ****     /** Print formatted debug log message
 116:../libDaisy/src/daisy_seed.h ****      */
 117:../libDaisy/src/daisy_seed.h ****     template <typename... VA>
 118:../libDaisy/src/daisy_seed.h ****     static void Print(const char* format, VA... va)
ARM GAS  /var/folders/2p/02m_5p7958535cp2tpgps0400000gn/T//ccCr8gkt.s 			page 13


 119:../libDaisy/src/daisy_seed.h ****     {
 120:../libDaisy/src/daisy_seed.h ****         Log::Print(format, va...);
 121:../libDaisy/src/daisy_seed.h ****     }
 122:../libDaisy/src/daisy_seed.h **** 
 123:../libDaisy/src/daisy_seed.h ****     /** Print formatted debug log message with automatic line termination
 124:../libDaisy/src/daisy_seed.h ****     */
 125:../libDaisy/src/daisy_seed.h ****     template <typename... VA>
 126:../libDaisy/src/daisy_seed.h ****     static void PrintLine(const char* format, VA... va)
 127:../libDaisy/src/daisy_seed.h ****     {
 128:../libDaisy/src/daisy_seed.h ****         Log::PrintLine(format, va...);
 269              		.loc 4 128 23 view .LVU68
 270 0032 2146     		mov	r1, r4
 271              	.LBE239:
 272              	.LBE238:
 273              	.LBB242:
 274              	.LBB236:
 275              		.loc 3 31 58 view .LVU69
 276 0034 0246     		mov	r2, r0
 277              	.LVL15:
 278              		.loc 3 31 58 view .LVU70
 279              	.LBE236:
 280              	.LBE242:
 162:GrannyChordApp.cpp ****   DebugPrint(pod_, "selected file %d %s",file_idx_,fname_);
 281              		.loc 2 162 3 is_stmt 1 view .LVU71
 282              		.loc 2 162 3 view .LVU72
 283              	.LBB243:
 284              	.LBI238:
 126:../libDaisy/src/daisy_seed.h ****     {
 285              		.loc 4 126 17 view .LVU73
 286              	.LBB240:
 287              		.loc 4 128 23 is_stmt 0 view .LVU74
 288 0036 0248     		ldr	r0, .L20
 289              	.LVL16:
 290              		.loc 4 128 23 view .LVU75
 291              	.LBE240:
 292              	.LBE243:
 163:GrannyChordApp.cpp **** }
 293              		.loc 2 163 1 view .LVU76
 294 0038 BDE81040 		pop	{r4, lr}
 295              		.cfi_restore 14
 296              		.cfi_restore 4
 297              		.cfi_def_cfa_offset 0
 298              	.LBB244:
 299              	.LBB241:
 300              		.loc 4 128 23 view .LVU77
 301 003c FFF7FEBF 		b	_ZN5daisy6LoggerILNS_17LoggerDestinationE1EE9PrintLineEPKcz
 302              	.LVL17:
 303              	.L21:
 304              		.loc 4 128 23 view .LVU78
 305              		.align	2
 306              	.L20:
 307 0040 00000000 		.word	.LC0
 308              	.LBE241:
 309              	.LBE244:
 310              		.cfi_endproc
 311              	.LFE4911:
 313              		.section	.text._ZN14GrannyChordApp15UpdateSynthModeEv,"ax",%progbits
ARM GAS  /var/folders/2p/02m_5p7958535cp2tpgps0400000gn/T//ccCr8gkt.s 			page 14


 314              		.align	1
 315              		.global	_ZN14GrannyChordApp15UpdateSynthModeEv
 316              		.syntax unified
 317              		.thumb
 318              		.thumb_func
 320              	_ZN14GrannyChordApp15UpdateSynthModeEv:
 321              	.LVL18:
 322              	.LFB4912:
 164:GrannyChordApp.cpp **** 
 165:GrannyChordApp.cpp **** /// @brief iterates through synth parameter control modes
 166:GrannyChordApp.cpp **** void GrannyChordApp::UpdateSynthMode(){
 323              		.loc 2 166 39 is_stmt 1 view -0
 324              		.cfi_startproc
 325              		@ args = 0, pretend = 0, frame = 0
 326              		@ frame_needed = 0, uses_anonymous_args = 0
 327              		@ link register save eliminated.
 167:GrannyChordApp.cpp ****   switch(curr_synth_mode_){
 328              		.loc 2 167 3 view .LVU80
 329 0000 D0F8D434 		ldr	r3, [r0, #1236]
 330 0004 062B     		cmp	r3, #6
 331 0006 08D8     		bhi	.L22
 332 0008 DFE803F0 		tbb	[pc, r3]
 333              	.L25:
 334 000c 04       		.byte	(.L28-.L25)/2
 335 000d 08       		.byte	(.L27-.L25)/2
 336 000e 0A       		.byte	(.L26-.L25)/2
 337 000f 07       		.byte	(.L22-.L25)/2
 338 0010 07       		.byte	(.L22-.L25)/2
 339 0011 07       		.byte	(.L22-.L25)/2
 340 0012 0C       		.byte	(.L24-.L25)/2
 341 0013 00       		.p2align 1
 342              	.L28:
 168:GrannyChordApp.cpp ****     case SynthMode::Size_Position:
 343              		.loc 2 168 5 view .LVU81
 169:GrannyChordApp.cpp ****       curr_synth_mode_ = SynthMode::Pitch_ActiveGrains;
 344              		.loc 2 169 7 view .LVU82
 345              		.loc 2 169 24 is_stmt 0 view .LVU83
 346 0014 0123     		movs	r3, #1
 347              	.L29:
 170:GrannyChordApp.cpp ****       return;
 171:GrannyChordApp.cpp ****     case SynthMode::Pitch_ActiveGrains:
 172:GrannyChordApp.cpp ****       curr_synth_mode_ = SynthMode::PhasorMode_EnvType;
 173:GrannyChordApp.cpp ****       return;
 174:GrannyChordApp.cpp ****     case SynthMode::PhasorMode_EnvType:
 175:GrannyChordApp.cpp ****       curr_synth_mode_ = SynthMode::Pan_PanRnd;
 176:GrannyChordApp.cpp ****       return;
 177:GrannyChordApp.cpp ****     case SynthMode::Pan_PanRnd:
 178:GrannyChordApp.cpp ****       curr_synth_mode_ = SynthMode::Size_Position;
 348              		.loc 2 178 24 view .LVU84
 349 0016 C0F8D434 		str	r3, [r0, #1236]
 179:GrannyChordApp.cpp ****       return;
 350              		.loc 2 179 7 is_stmt 1 view .LVU85
 351              	.L22:
 180:GrannyChordApp.cpp ****     default:
 181:GrannyChordApp.cpp ****       return;
 182:GrannyChordApp.cpp ****   }
 183:GrannyChordApp.cpp **** }
ARM GAS  /var/folders/2p/02m_5p7958535cp2tpgps0400000gn/T//ccCr8gkt.s 			page 15


 352              		.loc 2 183 1 is_stmt 0 view .LVU86
 353 001a 7047     		bx	lr
 354              	.L27:
 171:GrannyChordApp.cpp ****       curr_synth_mode_ = SynthMode::PhasorMode_EnvType;
 355              		.loc 2 171 5 is_stmt 1 view .LVU87
 172:GrannyChordApp.cpp ****       return;
 356              		.loc 2 172 7 view .LVU88
 172:GrannyChordApp.cpp ****       return;
 357              		.loc 2 172 24 is_stmt 0 view .LVU89
 358 001c 0223     		movs	r3, #2
 359 001e FAE7     		b	.L29
 360              	.L26:
 174:GrannyChordApp.cpp ****       curr_synth_mode_ = SynthMode::Pan_PanRnd;
 361              		.loc 2 174 5 is_stmt 1 view .LVU90
 175:GrannyChordApp.cpp ****       return;
 362              		.loc 2 175 7 view .LVU91
 175:GrannyChordApp.cpp ****       return;
 363              		.loc 2 175 24 is_stmt 0 view .LVU92
 364 0020 0623     		movs	r3, #6
 365 0022 F8E7     		b	.L29
 366              	.L24:
 177:GrannyChordApp.cpp ****       curr_synth_mode_ = SynthMode::Size_Position;
 367              		.loc 2 177 5 is_stmt 1 view .LVU93
 178:GrannyChordApp.cpp ****       return;
 368              		.loc 2 178 7 view .LVU94
 178:GrannyChordApp.cpp ****       return;
 369              		.loc 2 178 24 is_stmt 0 view .LVU95
 370 0024 0023     		movs	r3, #0
 371 0026 F6E7     		b	.L29
 372              		.cfi_endproc
 373              	.LFE4912:
 375              		.section	.text._ZN14GrannyChordApp13HandleButton1Ev,"ax",%progbits
 376              		.align	1
 377              		.global	_ZN14GrannyChordApp13HandleButton1Ev
 378              		.syntax unified
 379              		.thumb
 380              		.thumb_func
 382              	_ZN14GrannyChordApp13HandleButton1Ev:
 383              	.LVL19:
 384              	.LFB4907:
 132:GrannyChordApp.cpp ****   if (curr_state_==AppState::Synthesis){
 385              		.loc 2 132 37 is_stmt 1 view -0
 386              		.cfi_startproc
 387              		@ args = 0, pretend = 0, frame = 0
 388              		@ frame_needed = 0, uses_anonymous_args = 0
 389              		@ link register save eliminated.
 133:GrannyChordApp.cpp ****     UpdateSynthMode();
 390              		.loc 2 133 3 view .LVU97
 391 0000 D0F8D034 		ldr	r3, [r0, #1232]
 392 0004 022B     		cmp	r3, #2
 393 0006 01D1     		bne	.L30
 134:GrannyChordApp.cpp ****   }
 394              		.loc 2 134 5 view .LVU98
 134:GrannyChordApp.cpp ****   }
 395              		.loc 2 134 20 is_stmt 0 view .LVU99
 396 0008 FFF7FEBF 		b	_ZN14GrannyChordApp15UpdateSynthModeEv
 397              	.LVL20:
ARM GAS  /var/folders/2p/02m_5p7958535cp2tpgps0400000gn/T//ccCr8gkt.s 			page 16


 398              	.L30:
 136:GrannyChordApp.cpp **** 
 399              		.loc 2 136 1 view .LVU100
 400 000c 7047     		bx	lr
 401              		.cfi_endproc
 402              	.LFE4907:
 404              		.section	.text._ZN14GrannyChordApp24ToggleRandomnessControlsEv,"ax",%progbits
 405              		.align	1
 406              		.global	_ZN14GrannyChordApp24ToggleRandomnessControlsEv
 407              		.syntax unified
 408              		.thumb
 409              		.thumb_func
 411              	_ZN14GrannyChordApp24ToggleRandomnessControlsEv:
 412              	.LVL21:
 413              	.LFB4914:
 184:GrannyChordApp.cpp **** 
 185:GrannyChordApp.cpp **** /// @brief Updates synth parameters based on current synth mode and adjusts
 186:GrannyChordApp.cpp **** ///        knob input values to account for knob jitter and deadzones around 0/1
 187:GrannyChordApp.cpp **** void GrannyChordApp::UpdateSynthParams(){
 188:GrannyChordApp.cpp ****   if (curr_state_!=AppState::Synthesis) return;
 189:GrannyChordApp.cpp ****   int mode_idx = static_cast<int>(curr_synth_mode_);
 190:GrannyChordApp.cpp ****   float knob1_val = MapKnobDeadzone(pod_.knob1.Process());
 191:GrannyChordApp.cpp ****   float knob2_val = MapKnobDeadzone(pod_.knob2.Process());
 192:GrannyChordApp.cpp **** 
 193:GrannyChordApp.cpp ****   if (CheckParamDelta(knob1_val,prev_param_vals_k1[mode_idx])){
 194:GrannyChordApp.cpp ****     UpdateKnob1Params(knob1_val,curr_synth_mode_);
 195:GrannyChordApp.cpp ****     prev_param_vals_k1[mode_idx] = knob1_val;
 196:GrannyChordApp.cpp ****   }
 197:GrannyChordApp.cpp ****   if(CheckParamDelta(knob2_val, prev_param_vals_k2[mode_idx])){
 198:GrannyChordApp.cpp ****     UpdateKnob2Params(knob2_val, curr_synth_mode_);
 199:GrannyChordApp.cpp ****     prev_param_vals_k2[mode_idx] = knob2_val;
 200:GrannyChordApp.cpp ****   }
 201:GrannyChordApp.cpp **** }
 202:GrannyChordApp.cpp **** 
 203:GrannyChordApp.cpp **** void GrannyChordApp::ToggleRandomnessControls(){
 414              		.loc 2 203 48 is_stmt 1 view -0
 415              		.cfi_startproc
 416              		@ args = 0, pretend = 0, frame = 0
 417              		@ frame_needed = 0, uses_anonymous_args = 0
 418              		@ link register save eliminated.
 204:GrannyChordApp.cpp ****   if (curr_synth_mode_ <= SynthMode::PhasorMode_EnvType_Rnd){
 419              		.loc 2 204 3 view .LVU102
 420              		.loc 2 204 7 is_stmt 0 view .LVU103
 421 0000 D0F8D434 		ldr	r3, [r0, #1236]
 422              		.loc 2 204 3 view .LVU104
 423 0004 052B     		cmp	r3, #5
 205:GrannyChordApp.cpp ****     /* below works because regular modes are even, random modes are odd
 206:GrannyChordApp.cpp ****       so we can XOR their enum value to get the corresponding mode */
 207:GrannyChordApp.cpp ****     curr_synth_mode_ = static_cast<SynthMode>(static_cast<int>(curr_synth_mode_) ^ 1);
 424              		.loc 2 207 5 is_stmt 1 view .LVU105
 425              		.loc 2 207 82 is_stmt 0 view .LVU106
 426 0006 DCBF     		itt	le
 427 0008 83F00103 		eorle	r3, r3, #1
 428              		.loc 2 207 22 view .LVU107
 429 000c C0F8D434 		strle	r3, [r0, #1236]
 208:GrannyChordApp.cpp ****   }
 209:GrannyChordApp.cpp **** }
ARM GAS  /var/folders/2p/02m_5p7958535cp2tpgps0400000gn/T//ccCr8gkt.s 			page 17


 430              		.loc 2 209 1 view .LVU108
 431 0010 7047     		bx	lr
 432              		.cfi_endproc
 433              	.LFE4914:
 435              		.section	.text._ZN14GrannyChordApp13HandleButton2Ev,"ax",%progbits
 436              		.align	1
 437              		.global	_ZN14GrannyChordApp13HandleButton2Ev
 438              		.syntax unified
 439              		.thumb
 440              		.thumb_func
 442              	_ZN14GrannyChordApp13HandleButton2Ev:
 443              	.LVL22:
 444              	.LFB4908:
 139:GrannyChordApp.cpp ****   if (curr_state_==AppState::Synthesis){
 445              		.loc 2 139 37 is_stmt 1 view -0
 446              		.cfi_startproc
 447              		@ args = 0, pretend = 0, frame = 0
 448              		@ frame_needed = 0, uses_anonymous_args = 0
 449              		@ link register save eliminated.
 140:GrannyChordApp.cpp ****     ToggleRandomnessControls();
 450              		.loc 2 140 3 view .LVU110
 451 0000 D0F8D034 		ldr	r3, [r0, #1232]
 452 0004 022B     		cmp	r3, #2
 453 0006 01D1     		bne	.L34
 141:GrannyChordApp.cpp ****   }
 454              		.loc 2 141 5 view .LVU111
 141:GrannyChordApp.cpp ****   }
 455              		.loc 2 141 29 is_stmt 0 view .LVU112
 456 0008 FFF7FEBF 		b	_ZN14GrannyChordApp24ToggleRandomnessControlsEv
 457              	.LVL23:
 458              	.L34:
 143:GrannyChordApp.cpp **** 
 459              		.loc 2 143 1 view .LVU113
 460 000c 7047     		bx	lr
 461              		.cfi_endproc
 462              	.LFE4908:
 464              		.section	.text._ZN14GrannyChordApp8ToggleFXEb,"ax",%progbits
 465              		.align	1
 466              		.global	_ZN14GrannyChordApp8ToggleFXEb
 467              		.syntax unified
 468              		.thumb
 469              		.thumb_func
 471              	_ZN14GrannyChordApp8ToggleFXEb:
 472              	.LVL24:
 473              	.LFB4915:
 210:GrannyChordApp.cpp **** 
 211:GrannyChordApp.cpp **** void GrannyChordApp::ToggleFX(bool which_fx){
 474              		.loc 2 211 45 is_stmt 1 view -0
 475              		.cfi_startproc
 476              		@ args = 0, pretend = 0, frame = 0
 477              		@ frame_needed = 0, uses_anonymous_args = 0
 478              		@ link register save eliminated.
 212:GrannyChordApp.cpp ****   if (curr_synth_mode_ >= SynthMode::Reverb){
 479              		.loc 2 212 3 view .LVU115
 480              		.loc 2 212 7 is_stmt 0 view .LVU116
 481 0000 D0F8D434 		ldr	r3, [r0, #1236]
 482              		.loc 2 212 3 view .LVU117
ARM GAS  /var/folders/2p/02m_5p7958535cp2tpgps0400000gn/T//ccCr8gkt.s 			page 18


 483 0004 062B     		cmp	r3, #6
 484 0006 04DD     		ble	.L37
 213:GrannyChordApp.cpp ****     curr_synth_mode_ = prev_synth_mode_;
 485              		.loc 2 213 5 is_stmt 1 view .LVU118
 486              		.loc 2 213 22 is_stmt 0 view .LVU119
 487 0008 D0F8D834 		ldr	r3, [r0, #1240]
 488              	.L41:
 214:GrannyChordApp.cpp ****     return;
 215:GrannyChordApp.cpp ****   }
 216:GrannyChordApp.cpp ****   prev_synth_mode_ =  curr_synth_mode_;
 217:GrannyChordApp.cpp ****   /* if true, switch to reverb, else false - cheap but it works */
 218:GrannyChordApp.cpp ****   curr_synth_mode_ = which_fx ? SynthMode::Reverb : SynthMode::Filter;
 489              		.loc 2 218 20 view .LVU120
 490 000c C0F8D434 		str	r3, [r0, #1236]
 219:GrannyChordApp.cpp **** }
 491              		.loc 2 219 1 view .LVU121
 492 0010 7047     		bx	lr
 493              	.L37:
 216:GrannyChordApp.cpp ****   /* if true, switch to reverb, else false - cheap but it works */
 494              		.loc 2 216 3 is_stmt 1 view .LVU122
 218:GrannyChordApp.cpp **** }
 495              		.loc 2 218 31 is_stmt 0 view .LVU123
 496 0012 0029     		cmp	r1, #0
 216:GrannyChordApp.cpp ****   /* if true, switch to reverb, else false - cheap but it works */
 497              		.loc 2 216 20 view .LVU124
 498 0014 C0F8D834 		str	r3, [r0, #1240]
 218:GrannyChordApp.cpp **** }
 499              		.loc 2 218 3 is_stmt 1 view .LVU125
 218:GrannyChordApp.cpp **** }
 500              		.loc 2 218 31 is_stmt 0 view .LVU126
 501 0018 14BF     		ite	ne
 502 001a 0723     		movne	r3, #7
 503 001c 0823     		moveq	r3, #8
 504 001e F5E7     		b	.L41
 505              		.cfi_endproc
 506              	.LFE4915:
 508              		.section	.text._ZN14GrannyChordApp22HandleButton1LongPressEv,"ax",%progbits
 509              		.align	1
 510              		.global	_ZN14GrannyChordApp22HandleButton1LongPressEv
 511              		.syntax unified
 512              		.thumb
 513              		.thumb_func
 515              	_ZN14GrannyChordApp22HandleButton1LongPressEv:
 516              	.LVL25:
 517              	.LFB4909:
 145:GrannyChordApp.cpp ****   if (curr_state_==AppState::Synthesis){
 518              		.loc 2 145 46 is_stmt 1 view -0
 519              		.cfi_startproc
 520              		@ args = 0, pretend = 0, frame = 0
 521              		@ frame_needed = 0, uses_anonymous_args = 0
 522              		@ link register save eliminated.
 146:GrannyChordApp.cpp ****     ToggleFX(true);
 523              		.loc 2 146 3 view .LVU128
 524 0000 D0F8D034 		ldr	r3, [r0, #1232]
 525 0004 022B     		cmp	r3, #2
 526 0006 02D1     		bne	.L42
 147:GrannyChordApp.cpp ****   }
ARM GAS  /var/folders/2p/02m_5p7958535cp2tpgps0400000gn/T//ccCr8gkt.s 			page 19


 527              		.loc 2 147 5 view .LVU129
 147:GrannyChordApp.cpp ****   }
 528              		.loc 2 147 13 is_stmt 0 view .LVU130
 529 0008 0121     		movs	r1, #1
 530 000a FFF7FEBF 		b	_ZN14GrannyChordApp8ToggleFXEb
 531              	.LVL26:
 532              	.L42:
 149:GrannyChordApp.cpp **** 
 533              		.loc 2 149 1 view .LVU131
 534 000e 7047     		bx	lr
 535              		.cfi_endproc
 536              	.LFE4909:
 538              		.section	.text._ZN14GrannyChordApp22HandleButton2LongPressEv,"ax",%progbits
 539              		.align	1
 540              		.global	_ZN14GrannyChordApp22HandleButton2LongPressEv
 541              		.syntax unified
 542              		.thumb
 543              		.thumb_func
 545              	_ZN14GrannyChordApp22HandleButton2LongPressEv:
 546              	.LVL27:
 547              	.LFB4910:
 151:GrannyChordApp.cpp ****   if (curr_state_==AppState::Synthesis){
 548              		.loc 2 151 46 is_stmt 1 view -0
 549              		.cfi_startproc
 550              		@ args = 0, pretend = 0, frame = 0
 551              		@ frame_needed = 0, uses_anonymous_args = 0
 552              		@ link register save eliminated.
 152:GrannyChordApp.cpp ****     ToggleFX(false);
 553              		.loc 2 152 3 view .LVU133
 554 0000 D0F8D034 		ldr	r3, [r0, #1232]
 555 0004 022B     		cmp	r3, #2
 556 0006 02D1     		bne	.L44
 153:GrannyChordApp.cpp ****   }
 557              		.loc 2 153 5 view .LVU134
 153:GrannyChordApp.cpp ****   }
 558              		.loc 2 153 13 is_stmt 0 view .LVU135
 559 0008 0021     		movs	r1, #0
 560 000a FFF7FEBF 		b	_ZN14GrannyChordApp8ToggleFXEb
 561              	.LVL28:
 562              	.L44:
 155:GrannyChordApp.cpp **** 
 563              		.loc 2 155 1 view .LVU136
 564 000e 7047     		bx	lr
 565              		.cfi_endproc
 566              	.LFE4910:
 568              		.section	.rodata._ZN14GrannyChordApp11InitFileMgrEv.str1.1,"aMS",%progbits,1
 569              	.LC1:
 570 0000 7363616E 		.ascii	"scanning wavs now\000"
 570      6E696E67 
 570      20776176 
 570      73206E6F 
 570      7700
 571              		.section	.text._ZN14GrannyChordApp11InitFileMgrEv,"ax",%progbits
 572              		.align	1
 573              		.global	_ZN14GrannyChordApp11InitFileMgrEv
 574              		.syntax unified
 575              		.thumb
ARM GAS  /var/folders/2p/02m_5p7958535cp2tpgps0400000gn/T//ccCr8gkt.s 			page 20


 576              		.thumb_func
 578              	_ZN14GrannyChordApp11InitFileMgrEv:
 579              	.LVL29:
 580              	.LFB4916:
 220:GrannyChordApp.cpp **** 
 221:GrannyChordApp.cpp **** /// @brief Initialises file manager, sets audio data buffers and scans SD card for WAV files
 222:GrannyChordApp.cpp **** /// @return True on successful initialisation, false if init fails or no WAV files found
 223:GrannyChordApp.cpp **** bool GrannyChordApp::InitFileMgr(){
 581              		.loc 2 223 35 is_stmt 1 view -0
 582              		.cfi_startproc
 583              		@ args = 0, pretend = 0, frame = 0
 584              		@ frame_needed = 0, uses_anonymous_args = 0
 224:GrannyChordApp.cpp ****   filemgr_.SetBuffers(left_buf_,right_buf_, temp_buf_);
 585              		.loc 2 224 3 view .LVU138
 223:GrannyChordApp.cpp ****   filemgr_.SetBuffers(left_buf_,right_buf_, temp_buf_);
 586              		.loc 2 223 35 is_stmt 0 view .LVU139
 587 0000 10B5     		push	{r4, lr}
 588              		.cfi_def_cfa_offset 8
 589              		.cfi_offset 4, -8
 590              		.cfi_offset 14, -4
 223:GrannyChordApp.cpp ****   filemgr_.SetBuffers(left_buf_,right_buf_, temp_buf_);
 591              		.loc 2 223 35 view .LVU140
 592 0002 0446     		mov	r4, r0
 593              		.loc 2 224 22 view .LVU141
 594 0004 D0F87C35 		ldr	r3, [r0, #1404]
 595 0008 D0F87825 		ldr	r2, [r0, #1400]
 596 000c D0F87415 		ldr	r1, [r0, #1396]
 597 0010 D0F8C804 		ldr	r0, [r0, #1224]
 598              	.LVL30:
 599              		.loc 2 224 22 view .LVU142
 600 0014 FFF7FEFF 		bl	_ZN16AudioFileManager10SetBuffersEPsS0_S0_
 601              	.LVL31:
 225:GrannyChordApp.cpp ****   if (!filemgr_.Init())return false;
 602              		.loc 2 225 3 is_stmt 1 view .LVU143
 603              		.loc 2 225 21 is_stmt 0 view .LVU144
 604 0018 D4F8C804 		ldr	r0, [r4, #1224]
 605 001c FFF7FEFF 		bl	_ZN16AudioFileManager4InitEv
 606              	.LVL32:
 607              		.loc 2 225 3 view .LVU145
 608 0020 40B1     		cbz	r0, .L47
 609              	.LVL33:
 610              	.LBB249:
 611              	.LBI249:
 223:GrannyChordApp.cpp ****   filemgr_.SetBuffers(left_buf_,right_buf_, temp_buf_);
 612              		.loc 2 223 6 is_stmt 1 view .LVU146
 613              	.LBB250:
 226:GrannyChordApp.cpp ****   pod_.seed.PrintLine("scanning wavs now");
 614              		.loc 2 226 3 view .LVU147
 615              	.LBB251:
 616              	.LBI251:
 126:../libDaisy/src/daisy_seed.h ****     {
 617              		.loc 4 126 17 view .LVU148
 618              	.LBB252:
 619              		.loc 4 128 23 is_stmt 0 view .LVU149
 620 0022 0548     		ldr	r0, .L48
 621 0024 FFF7FEFF 		bl	_ZN5daisy6LoggerILNS_17LoggerDestinationE1EE9PrintLineEPKcz
 622              	.LVL34:
ARM GAS  /var/folders/2p/02m_5p7958535cp2tpgps0400000gn/T//ccCr8gkt.s 			page 21


 623              		.loc 4 128 23 view .LVU150
 624              	.LBE252:
 625              	.LBE251:
 227:GrannyChordApp.cpp ****   return filemgr_.ScanWavFiles();
 626              		.loc 2 227 3 is_stmt 1 view .LVU151
 627              		.loc 2 227 31 is_stmt 0 view .LVU152
 628 0028 D4F8C804 		ldr	r0, [r4, #1224]
 629              	.LBE250:
 630              	.LBE249:
 228:GrannyChordApp.cpp **** }
 631              		.loc 2 228 1 view .LVU153
 632 002c BDE81040 		pop	{r4, lr}
 633              		.cfi_remember_state
 634              		.cfi_restore 14
 635              		.cfi_restore 4
 636              		.cfi_def_cfa_offset 0
 637              	.LVL35:
 638              	.LBB254:
 639              	.LBB253:
 227:GrannyChordApp.cpp ****   return filemgr_.ScanWavFiles();
 640              		.loc 2 227 31 view .LVU154
 641 0030 FFF7FEBF 		b	_ZN16AudioFileManager12ScanWavFilesEv
 642              	.LVL36:
 643              	.L47:
 644              		.cfi_restore_state
 227:GrannyChordApp.cpp ****   return filemgr_.ScanWavFiles();
 645              		.loc 2 227 31 view .LVU155
 646              	.LBE253:
 647              	.LBE254:
 648              		.loc 2 228 1 view .LVU156
 649 0034 10BD     		pop	{r4, pc}
 650              	.LVL37:
 651              	.L49:
 652              		.loc 2 228 1 view .LVU157
 653 0036 00BF     		.align	2
 654              	.L48:
 655 0038 00000000 		.word	.LC1
 656              		.cfi_endproc
 657              	.LFE4916:
 659              		.section	.text._ZN14GrannyChordApp9InitSynthEv,"ax",%progbits
 660              		.align	1
 661              		.global	_ZN14GrannyChordApp9InitSynthEv
 662              		.syntax unified
 663              		.thumb
 664              		.thumb_func
 666              	_ZN14GrannyChordApp9InitSynthEv:
 667              	.LVL38:
 668              	.LFB4917:
 229:GrannyChordApp.cpp **** 
 230:GrannyChordApp.cpp **** /// @brief Calls synth initialisation function, passes audio data buffers and audio length
 231:GrannyChordApp.cpp **** void GrannyChordApp::InitSynth(){
 669              		.loc 2 231 33 is_stmt 1 view -0
 670              		.cfi_startproc
 671              		@ args = 0, pretend = 0, frame = 0
 672              		@ frame_needed = 0, uses_anonymous_args = 0
 673              		@ link register save eliminated.
 232:GrannyChordApp.cpp ****   // synth_.Init(left_buf_, right_buf_, audio_len_);
ARM GAS  /var/folders/2p/02m_5p7958535cp2tpgps0400000gn/T//ccCr8gkt.s 			page 22


 233:GrannyChordApp.cpp ****   synth_.Init(left_buf_, right_buf_, filemgr_.GetSamplesPerChannel());
 674              		.loc 2 233 3 view .LVU159
 675              		.loc 2 233 38 is_stmt 0 view .LVU160
 676 0000 D0F8C824 		ldr	r2, [r0, #1224]
 677              	.LVL39:
 678              	.LBB255:
 679              	.LBI255:
  27:AudioFileManager.h ****     size_t GetTotalSamples() const { return header_.total_samples; }
 680              		.loc 3 27 12 is_stmt 1 view .LVU161
 681              	.LBB256:
  27:AudioFileManager.h ****     size_t GetTotalSamples() const { return header_.total_samples; }
 682              		.loc 3 27 43 view .LVU162
  27:AudioFileManager.h ****     size_t GetTotalSamples() const { return header_.total_samples; }
 683              		.loc 3 27 43 is_stmt 0 view .LVU163
 684              	.LBE256:
 685              	.LBE255:
 686              		.loc 2 233 14 view .LVU164
 687 0004 2030     		adds	r0, r0, #32
 688              	.LVL40:
 689              		.loc 2 233 14 view .LVU165
 690 0006 D0F85415 		ldr	r1, [r0, #1364]
 691              	.LBB258:
 692              	.LBB257:
  27:AudioFileManager.h ****     size_t GetTotalSamples() const { return header_.total_samples; }
 693              		.loc 3 27 58 view .LVU166
 694 000a 02F58052 		add	r2, r2, #4096
  27:AudioFileManager.h ****     size_t GetTotalSamples() const { return header_.total_samples; }
 695              		.loc 3 27 82 view .LVU167
 696 000e B2F92830 		ldrsh	r3, [r2, #40]
 697 0012 D26A     		ldr	r2, [r2, #44]
 698              	.LBE257:
 699              	.LBE258:
 700              		.loc 2 233 14 view .LVU168
 701 0014 B2FBF3F3 		udiv	r3, r2, r3
 702 0018 D0F85825 		ldr	r2, [r0, #1368]
 703 001c FFF7FEBF 		b	_ZN13GranularSynth4InitEPKsS1_j
 704              	.LVL41:
 705              		.loc 2 233 14 view .LVU169
 706              		.cfi_endproc
 707              	.LFE4917:
 709              		.section	.text._ZN14GrannyChordApp17ClearAudioBuffersEv,"ax",%progbits
 710              		.align	1
 711              		.global	_ZN14GrannyChordApp17ClearAudioBuffersEv
 712              		.syntax unified
 713              		.thumb
 714              		.thumb_func
 716              	_ZN14GrannyChordApp17ClearAudioBuffersEv:
 717              	.LVL42:
 718              	.LFB4918:
 234:GrannyChordApp.cpp **** }
 235:GrannyChordApp.cpp **** 
 236:GrannyChordApp.cpp **** /// @brief Resets current file index and audio data buffers
 237:GrannyChordApp.cpp **** ///        Calls method to handle WAV file selection
 238:GrannyChordApp.cpp **** void GrannyChordApp::ClearAudioBuffers(){
 719              		.loc 2 238 41 is_stmt 1 view -0
 720              		.cfi_startproc
 721              		@ args = 0, pretend = 0, frame = 0
ARM GAS  /var/folders/2p/02m_5p7958535cp2tpgps0400000gn/T//ccCr8gkt.s 			page 23


 722              		@ frame_needed = 0, uses_anonymous_args = 0
 239:GrannyChordApp.cpp ****   memset(left_buf_, 0, CHNL_BUF_SIZE_ABS);
 723              		.loc 2 239 3 view .LVU171
 238:GrannyChordApp.cpp ****   memset(left_buf_, 0, CHNL_BUF_SIZE_ABS);
 724              		.loc 2 238 41 is_stmt 0 view .LVU172
 725 0000 10B5     		push	{r4, lr}
 726              		.cfi_def_cfa_offset 8
 727              		.cfi_offset 4, -8
 728              		.cfi_offset 14, -4
 238:GrannyChordApp.cpp ****   memset(left_buf_, 0, CHNL_BUF_SIZE_ABS);
 729              		.loc 2 238 41 view .LVU173
 730 0002 0446     		mov	r4, r0
 731              		.loc 2 239 9 view .LVU174
 732 0004 4FF08072 		mov	r2, #16777216
 733 0008 0021     		movs	r1, #0
 734 000a D0F87405 		ldr	r0, [r0, #1396]
 735              	.LVL43:
 736              		.loc 2 239 9 view .LVU175
 737 000e FFF7FEFF 		bl	memset
 738              	.LVL44:
 240:GrannyChordApp.cpp ****   memset(right_buf_, 0, CHNL_BUF_SIZE_ABS);
 739              		.loc 2 240 3 is_stmt 1 view .LVU176
 740              		.loc 2 240 9 is_stmt 0 view .LVU177
 741 0012 D4F87805 		ldr	r0, [r4, #1400]
 742 0016 4FF08072 		mov	r2, #16777216
 743 001a 0021     		movs	r1, #0
 241:GrannyChordApp.cpp **** }
 744              		.loc 2 241 1 view .LVU178
 745 001c BDE81040 		pop	{r4, lr}
 746              		.cfi_restore 14
 747              		.cfi_restore 4
 748              		.cfi_def_cfa_offset 0
 749              	.LVL45:
 240:GrannyChordApp.cpp ****   memset(right_buf_, 0, CHNL_BUF_SIZE_ABS);
 750              		.loc 2 240 9 view .LVU179
 751 0020 FFF7FEBF 		b	memset
 752              	.LVL46:
 753              		.cfi_endproc
 754              	.LFE4918:
 756              		.section	.rodata._ZN14GrannyChordApp12InitPlaybackEv.str1.1,"aMS",%progbits,1
 757              	.LC2:
 758 0000 6C6F6164 		.ascii	"loading file\000"
 758      696E6720 
 758      66696C65 
 758      00
 759              	.LC3:
 760 000d 6661696C 		.ascii	"failed to load file\000"
 760      65642074 
 760      6F206C6F 
 760      61642066 
 760      696C6500 
 761              	.LC4:
 762 0021 6C6F6164 		.ascii	"loaded file\000"
 762      65642066 
 762      696C6500 
 763              	.LC5:
 764 002d 73746172 		.ascii	"started audio callback\000"
ARM GAS  /var/folders/2p/02m_5p7958535cp2tpgps0400000gn/T//ccCr8gkt.s 			page 24


 764      74656420 
 764      61756469 
 764      6F206361 
 764      6C6C6261 
 765              		.section	.text._ZN14GrannyChordApp12InitPlaybackEv,"ax",%progbits
 766              		.align	1
 767              		.global	_ZN14GrannyChordApp12InitPlaybackEv
 768              		.syntax unified
 769              		.thumb
 770              		.thumb_func
 772              	_ZN14GrannyChordApp12InitPlaybackEv:
 773              	.LVL47:
 774              	.LFB4919:
 242:GrannyChordApp.cpp **** 
 243:GrannyChordApp.cpp **** /// @brief Initialises WAV playback state, resets playhead, sets current file audio length
 244:GrannyChordApp.cpp **** void GrannyChordApp::InitPlayback(){
 775              		.loc 2 244 36 is_stmt 1 view -0
 776              		.cfi_startproc
 777              		@ args = 0, pretend = 0, frame = 0
 778              		@ frame_needed = 0, uses_anonymous_args = 0
 245:GrannyChordApp.cpp ****   wav_playhead_ = 0;
 779              		.loc 2 245 3 view .LVU181
 780              		.loc 2 245 17 is_stmt 0 view .LVU182
 781 0000 0023     		movs	r3, #0
 244:GrannyChordApp.cpp ****   wav_playhead_ = 0;
 782              		.loc 2 244 36 view .LVU183
 783 0002 10B5     		push	{r4, lr}
 784              		.cfi_def_cfa_offset 8
 785              		.cfi_offset 4, -8
 786              		.cfi_offset 14, -4
 244:GrannyChordApp.cpp ****   wav_playhead_ = 0;
 787              		.loc 2 244 36 view .LVU184
 788 0004 0446     		mov	r4, r0
 789              		.loc 2 245 17 view .LVU185
 790 0006 C0F88435 		str	r3, [r0, #1412]
 246:GrannyChordApp.cpp ****   DebugPrint(pod_, "loading file");
 791              		.loc 2 246 3 is_stmt 1 view .LVU186
 792              		.loc 2 246 3 view .LVU187
 793              	.LVL48:
 794              	.LBB273:
 795              	.LBI273:
 126:../libDaisy/src/daisy_seed.h ****     {
 796              		.loc 4 126 17 view .LVU188
 797              	.LBB274:
 798              		.loc 4 128 23 is_stmt 0 view .LVU189
 799 000a 0E48     		ldr	r0, .L56
 800              	.LVL49:
 801              		.loc 4 128 23 view .LVU190
 802 000c FFF7FEFF 		bl	_ZN5daisy6LoggerILNS_17LoggerDestinationE1EE9PrintLineEPKcz
 803              	.LVL50:
 804              		.loc 4 128 23 view .LVU191
 805              	.LBE274:
 806              	.LBE273:
 247:GrannyChordApp.cpp ****   // audio_len_ = filemgr_.GetSamplesPerChannel();
 248:GrannyChordApp.cpp ****   if (!filemgr_.LoadFile(file_idx_)) {
 807              		.loc 2 248 3 is_stmt 1 view .LVU192
 808              		.loc 2 248 25 is_stmt 0 view .LVU193
ARM GAS  /var/folders/2p/02m_5p7958535cp2tpgps0400000gn/T//ccCr8gkt.s 			page 25


 809 0010 B4F88015 		ldrh	r1, [r4, #1408]
 810 0014 D4F8C804 		ldr	r0, [r4, #1224]
 811 0018 FFF7FEFF 		bl	_ZN16AudioFileManager8LoadFileEt
 812              	.LVL51:
 813              		.loc 2 248 3 view .LVU194
 814 001c 30B9     		cbnz	r0, .L53
 249:GrannyChordApp.cpp ****     DebugPrint(pod_,"failed to load file");
 815              		.loc 2 249 5 is_stmt 1 view .LVU195
 816              		.loc 2 249 5 view .LVU196
 817              	.LVL52:
 818              	.LBB275:
 819              	.LBI275:
 126:../libDaisy/src/daisy_seed.h ****     {
 820              		.loc 4 126 17 view .LVU197
 821              	.LBB276:
 822              		.loc 4 128 23 is_stmt 0 view .LVU198
 823 001e 0A48     		ldr	r0, .L56+4
 824 0020 FFF7FEFF 		bl	_ZN5daisy6LoggerILNS_17LoggerDestinationE1EE9PrintLineEPKcz
 825              	.LVL53:
 826              		.loc 4 128 23 view .LVU199
 827              	.LBE276:
 828              	.LBE275:
 250:GrannyChordApp.cpp ****     curr_state_=AppState::Error;
 829              		.loc 2 250 5 is_stmt 1 view .LVU200
 830              		.loc 2 250 16 is_stmt 0 view .LVU201
 831 0024 0423     		movs	r3, #4
 832 0026 C4F8D034 		str	r3, [r4, #1232]
 251:GrannyChordApp.cpp ****     return;
 833              		.loc 2 251 5 is_stmt 1 view .LVU202
 252:GrannyChordApp.cpp ****   }
 253:GrannyChordApp.cpp ****   DebugPrint(pod_, "loaded file");
 254:GrannyChordApp.cpp ****   pod_.StartAudio(AudioCallback);
 255:GrannyChordApp.cpp ****   DebugPrint(pod_, "started audio callback");
 256:GrannyChordApp.cpp **** }
 834              		.loc 2 256 1 is_stmt 0 view .LVU203
 835 002a 10BD     		pop	{r4, pc}
 836              	.LVL54:
 837              	.L53:
 838              	.LBB277:
 839              	.LBI277:
 244:GrannyChordApp.cpp ****   wav_playhead_ = 0;
 840              		.loc 2 244 6 is_stmt 1 view .LVU204
 841              	.LBB278:
 253:GrannyChordApp.cpp ****   pod_.StartAudio(AudioCallback);
 842              		.loc 2 253 3 view .LVU205
 253:GrannyChordApp.cpp ****   pod_.StartAudio(AudioCallback);
 843              		.loc 2 253 3 view .LVU206
 844              	.LBB279:
 845              	.LBI279:
 126:../libDaisy/src/daisy_seed.h ****     {
 846              		.loc 4 126 17 view .LVU207
 847              	.LBB280:
 848              		.loc 4 128 23 is_stmt 0 view .LVU208
 849 002c 0748     		ldr	r0, .L56+8
 850 002e FFF7FEFF 		bl	_ZN5daisy6LoggerILNS_17LoggerDestinationE1EE9PrintLineEPKcz
 851              	.LVL55:
 852              		.loc 4 128 23 view .LVU209
ARM GAS  /var/folders/2p/02m_5p7958535cp2tpgps0400000gn/T//ccCr8gkt.s 			page 26


 853              	.LBE280:
 854              	.LBE279:
 254:GrannyChordApp.cpp ****   DebugPrint(pod_, "started audio callback");
 855              		.loc 2 254 3 is_stmt 1 view .LVU210
 254:GrannyChordApp.cpp ****   DebugPrint(pod_, "started audio callback");
 856              		.loc 2 254 18 is_stmt 0 view .LVU211
 857 0032 E069     		ldr	r0, [r4, #28]
 858 0034 0649     		ldr	r1, .L56+12
 859 0036 FFF7FEFF 		bl	_ZN5daisy8DaisyPod10StartAudioEPFvPKPKfPPfjE
 860              	.LVL56:
 255:GrannyChordApp.cpp **** }
 861              		.loc 2 255 3 is_stmt 1 view .LVU212
 255:GrannyChordApp.cpp **** }
 862              		.loc 2 255 3 view .LVU213
 863              	.LBB281:
 864              	.LBI281:
 126:../libDaisy/src/daisy_seed.h ****     {
 865              		.loc 4 126 17 view .LVU214
 866              	.LBB282:
 867              		.loc 4 128 23 is_stmt 0 view .LVU215
 868 003a 0648     		ldr	r0, .L56+16
 869              	.LBE282:
 870              	.LBE281:
 871              	.LBE278:
 872              	.LBE277:
 873              		.loc 2 256 1 view .LVU216
 874 003c BDE81040 		pop	{r4, lr}
 875              		.cfi_restore 14
 876              		.cfi_restore 4
 877              		.cfi_def_cfa_offset 0
 878              	.LVL57:
 879              	.LBB286:
 880              	.LBB285:
 881              	.LBB284:
 882              	.LBB283:
 883              		.loc 4 128 23 view .LVU217
 884 0040 FFF7FEBF 		b	_ZN5daisy6LoggerILNS_17LoggerDestinationE1EE9PrintLineEPKcz
 885              	.LVL58:
 886              	.L57:
 887              		.align	2
 888              	.L56:
 889 0044 00000000 		.word	.LC2
 890 0048 0D000000 		.word	.LC3
 891 004c 21000000 		.word	.LC4
 892 0050 00000000 		.word	_ZN14GrannyChordApp13AudioCallbackEPKPKfPPfj
 893 0054 2D000000 		.word	.LC5
 894              	.LBE283:
 895              	.LBE284:
 896              	.LBE285:
 897              	.LBE286:
 898              		.cfi_endproc
 899              	.LFE4919:
 901              		.section	.text._ZN14GrannyChordApp17HandleStateChangeEv,"ax",%progbits
 902              		.align	1
 903              		.global	_ZN14GrannyChordApp17HandleStateChangeEv
 904              		.syntax unified
 905              		.thumb
ARM GAS  /var/folders/2p/02m_5p7958535cp2tpgps0400000gn/T//ccCr8gkt.s 			page 27


 906              		.thumb_func
 908              	_ZN14GrannyChordApp17HandleStateChangeEv:
 909              	.LVL59:
 910              	.LFB4904:
  74:GrannyChordApp.cpp ****   switch(curr_state_){
 911              		.loc 2 74 41 is_stmt 1 view -0
 912              		.cfi_startproc
 913              		@ args = 0, pretend = 0, frame = 0
 914              		@ frame_needed = 0, uses_anonymous_args = 0
  75:GrannyChordApp.cpp ****     case AppState::SelectFile:
 915              		.loc 2 75 3 view .LVU219
 916 0000 D0F8D034 		ldr	r3, [r0, #1232]
  74:GrannyChordApp.cpp ****   switch(curr_state_){
 917              		.loc 2 74 41 is_stmt 0 view .LVU220
 918 0004 10B5     		push	{r4, lr}
 919              		.cfi_def_cfa_offset 8
 920              		.cfi_offset 4, -8
 921              		.cfi_offset 14, -4
  74:GrannyChordApp.cpp ****   switch(curr_state_){
 922              		.loc 2 74 41 view .LVU221
 923 0006 0446     		mov	r4, r0
  75:GrannyChordApp.cpp ****     case AppState::SelectFile:
 924              		.loc 2 75 3 view .LVU222
 925 0008 042B     		cmp	r3, #4
 926 000a 24D8     		bhi	.L58
 927 000c DFE803F0 		tbb	[pc, r3]
 928              	.L61:
 929 0010 03       		.byte	(.L65-.L61)/2
 930 0011 0C       		.byte	(.L64-.L61)/2
 931 0012 10       		.byte	(.L63-.L61)/2
 932 0013 08       		.byte	(.L62-.L61)/2
 933 0014 14       		.byte	(.L60-.L61)/2
 934 0015 00       		.p2align 1
 935              	.L65:
  76:GrannyChordApp.cpp ****       pod_.StopAudio();
 936              		.loc 2 76 5 is_stmt 1 view .LVU223
  77:GrannyChordApp.cpp ****       return; 
 937              		.loc 2 77 7 view .LVU224
  77:GrannyChordApp.cpp ****       return; 
 938              		.loc 2 77 21 is_stmt 0 view .LVU225
 939 0016 C069     		ldr	r0, [r0, #28]
 940              	.LVL60:
  95:GrannyChordApp.cpp **** 
 941              		.loc 2 95 1 view .LVU226
 942 0018 BDE81040 		pop	{r4, lr}
 943              		.cfi_remember_state
 944              		.cfi_restore 14
 945              		.cfi_restore 4
 946              		.cfi_def_cfa_offset 0
 947              	.LVL61:
  77:GrannyChordApp.cpp ****       return; 
 948              		.loc 2 77 21 view .LVU227
 949 001c FFF7FEBF 		b	_ZN5daisy8DaisyPod9StopAudioEv
 950              	.LVL62:
 951              	.L62:
 952              		.cfi_restore_state
  79:GrannyChordApp.cpp ****       ClearAudioBuffers();    
ARM GAS  /var/folders/2p/02m_5p7958535cp2tpgps0400000gn/T//ccCr8gkt.s 			page 28


 953              		.loc 2 79 5 is_stmt 1 view .LVU228
  80:GrannyChordApp.cpp ****       return;
 954              		.loc 2 80 7 view .LVU229
  95:GrannyChordApp.cpp **** 
 955              		.loc 2 95 1 is_stmt 0 view .LVU230
 956 0020 BDE81040 		pop	{r4, lr}
 957              		.cfi_remember_state
 958              		.cfi_restore 14
 959              		.cfi_restore 4
 960              		.cfi_def_cfa_offset 0
  80:GrannyChordApp.cpp ****       return;
 961              		.loc 2 80 24 view .LVU231
 962 0024 FFF7FEBF 		b	_ZN14GrannyChordApp17ClearAudioBuffersEv
 963              	.LVL63:
 964              	.L64:
 965              		.cfi_restore_state
  82:GrannyChordApp.cpp ****       InitPlayback(); 
 966              		.loc 2 82 5 is_stmt 1 view .LVU232
  83:GrannyChordApp.cpp ****       return;
 967              		.loc 2 83 7 view .LVU233
  95:GrannyChordApp.cpp **** 
 968              		.loc 2 95 1 is_stmt 0 view .LVU234
 969 0028 BDE81040 		pop	{r4, lr}
 970              		.cfi_remember_state
 971              		.cfi_restore 14
 972              		.cfi_restore 4
 973              		.cfi_def_cfa_offset 0
  83:GrannyChordApp.cpp ****       return;
 974              		.loc 2 83 19 view .LVU235
 975 002c FFF7FEBF 		b	_ZN14GrannyChordApp12InitPlaybackEv
 976              	.LVL64:
 977              	.L63:
 978              		.cfi_restore_state
  85:GrannyChordApp.cpp ****       InitSynth();
 979              		.loc 2 85 5 is_stmt 1 view .LVU236
  86:GrannyChordApp.cpp ****       return;
 980              		.loc 2 86 7 view .LVU237
  95:GrannyChordApp.cpp **** 
 981              		.loc 2 95 1 is_stmt 0 view .LVU238
 982 0030 BDE81040 		pop	{r4, lr}
 983              		.cfi_remember_state
 984              		.cfi_restore 14
 985              		.cfi_restore 4
 986              		.cfi_def_cfa_offset 0
  86:GrannyChordApp.cpp ****       return;
 987              		.loc 2 86 16 view .LVU239
 988 0034 FFF7FEBF 		b	_ZN14GrannyChordApp9InitSynthEv
 989              	.LVL65:
 990              	.L60:
 991              		.cfi_restore_state
  88:GrannyChordApp.cpp ****       pod_.led1.SetRed(1); 
 992              		.loc 2 88 5 is_stmt 1 view .LVU240
  89:GrannyChordApp.cpp ****       pod_.led2.SetRed(1); 
 993              		.loc 2 89 7 view .LVU241
  89:GrannyChordApp.cpp ****       pod_.led2.SetRed(1); 
 994              		.loc 2 89 23 is_stmt 0 view .LVU242
 995 0038 C069     		ldr	r0, [r0, #28]
ARM GAS  /var/folders/2p/02m_5p7958535cp2tpgps0400000gn/T//ccCr8gkt.s 			page 29


 996              	.LVL66:
  89:GrannyChordApp.cpp ****       pod_.led2.SetRed(1); 
 997              		.loc 2 89 23 view .LVU243
 998 003a B7EE000A 		vmov.f32	s0, #1.0e+0
 999 003e D830     		adds	r0, r0, #216
 1000 0040 FFF7FEFF 		bl	_ZN5daisy6RgbLed6SetRedEf
 1001              	.LVL67:
  90:GrannyChordApp.cpp ****       return;
 1002              		.loc 2 90 7 is_stmt 1 view .LVU244
  90:GrannyChordApp.cpp ****       return;
 1003              		.loc 2 90 23 is_stmt 0 view .LVU245
 1004 0044 E069     		ldr	r0, [r4, #28]
 1005 0046 B7EE000A 		vmov.f32	s0, #1.0e+0
 1006 004a 00F59670 		add	r0, r0, #300
  95:GrannyChordApp.cpp **** 
 1007              		.loc 2 95 1 view .LVU246
 1008 004e BDE81040 		pop	{r4, lr}
 1009              		.cfi_remember_state
 1010              		.cfi_restore 14
 1011              		.cfi_restore 4
 1012              		.cfi_def_cfa_offset 0
 1013              	.LVL68:
  90:GrannyChordApp.cpp ****       return;
 1014              		.loc 2 90 23 view .LVU247
 1015 0052 FFF7FEBF 		b	_ZN5daisy6RgbLed6SetRedEf
 1016              	.LVL69:
 1017              	.L58:
 1018              		.cfi_restore_state
  95:GrannyChordApp.cpp **** 
 1019              		.loc 2 95 1 view .LVU248
 1020 0056 10BD     		pop	{r4, pc}
 1021              		.cfi_endproc
 1022              	.LFE4904:
 1024              		.section	.text._ZN14GrannyChordApp12InitRecordInEv,"ax",%progbits
 1025              		.align	1
 1026              		.global	_ZN14GrannyChordApp12InitRecordInEv
 1027              		.syntax unified
 1028              		.thumb
 1029              		.thumb_func
 1031              	_ZN14GrannyChordApp12InitRecordInEv:
 1032              	.LFB5524:
 1033              		.cfi_startproc
 1034              		@ args = 0, pretend = 0, frame = 0
 1035              		@ frame_needed = 0, uses_anonymous_args = 0
 1036              		@ link register save eliminated.
 1037 0000 FFF7FEBF 		b	_ZN14GrannyChordApp17ClearAudioBuffersEv
 1038              		.cfi_endproc
 1039              	.LFE5524:
 1041              		.section	.text._ZN14GrannyChordApp6InitFXEv,"ax",%progbits
 1042              		.align	1
 1043              		.global	_ZN14GrannyChordApp6InitFXEv
 1044              		.syntax unified
 1045              		.thumb
 1046              		.thumb_func
 1048              	_ZN14GrannyChordApp6InitFXEv:
 1049              	.LVL70:
 1050              	.LFB4921:
ARM GAS  /var/folders/2p/02m_5p7958535cp2tpgps0400000gn/T//ccCr8gkt.s 			page 30


 257:GrannyChordApp.cpp **** 
 258:GrannyChordApp.cpp **** /// @brief Initialises RecordIn state, clears audio buffers
 259:GrannyChordApp.cpp **** void GrannyChordApp::InitRecordIn(){
 260:GrannyChordApp.cpp ****   memset(left_buf_, 0, CHNL_BUF_SIZE_ABS);
 261:GrannyChordApp.cpp ****   memset(right_buf_, 0, CHNL_BUF_SIZE_ABS);
 262:GrannyChordApp.cpp **** 
 263:GrannyChordApp.cpp ****   // DebugPrint(pod_, "cleared audio buffers for recording in");
 264:GrannyChordApp.cpp **** }
 265:GrannyChordApp.cpp **** 
 266:GrannyChordApp.cpp **** // /// @brief Initialise object for recording out to SD card
 267:GrannyChordApp.cpp **** // void GrannyChordApp::InitWavWriter(){
 268:GrannyChordApp.cpp **** //   WavWriter<16384>::Config cfg;
 269:GrannyChordApp.cpp **** //   cfg.bitspersample = BIT_DEPTH;
 270:GrannyChordApp.cpp **** //   cfg.channels = filemgr_.GetNumChannels();
 271:GrannyChordApp.cpp **** //   cfg.samplerate = SAMPLE_RATE;
 272:GrannyChordApp.cpp **** //   sd_out_writer_.Init(cfg);
 273:GrannyChordApp.cpp **** // }
 274:GrannyChordApp.cpp **** 
 275:GrannyChordApp.cpp **** /// @brief initialise reverb, compressor, filter configs for FX section 
 276:GrannyChordApp.cpp **** void GrannyChordApp::InitFX(){
 1051              		.loc 2 276 30 is_stmt 1 view -0
 1052              		.cfi_startproc
 1053              		@ args = 0, pretend = 0, frame = 8
 1054              		@ frame_needed = 0, uses_anonymous_args = 0
 277:GrannyChordApp.cpp ****   comp_.Init(pod_.AudioSampleRate());
 1055              		.loc 2 277 3 view .LVU250
 276:GrannyChordApp.cpp ****   comp_.Init(pod_.AudioSampleRate());
 1056              		.loc 2 276 30 is_stmt 0 view .LVU251
 1057 0000 37B5     		push	{r0, r1, r2, r4, r5, lr}
 1058              		.cfi_def_cfa_offset 24
 1059              		.cfi_offset 4, -12
 1060              		.cfi_offset 5, -8
 1061              		.cfi_offset 14, -4
 276:GrannyChordApp.cpp ****   comp_.Init(pod_.AudioSampleRate());
 1062              		.loc 2 276 30 view .LVU252
 1063 0002 0446     		mov	r4, r0
 1064              		.loc 2 277 13 view .LVU253
 1065 0004 C069     		ldr	r0, [r0, #28]
 1066              	.LVL71:
 1067              		.loc 2 277 13 view .LVU254
 1068 0006 FFF7FEFF 		bl	_ZN5daisy8DaisyPod15AudioSampleRateEv
 1069              	.LVL72:
 1070 000a 04F2DC40 		addw	r0, r4, #1244
 278:GrannyChordApp.cpp ****   reverb_.Init(SAMPLE_RATE_FLOAT);
 279:GrannyChordApp.cpp ****   lowpass_moog_.Init(SAMPLE_RATE_FLOAT);
 1071              		.loc 2 279 21 view .LVU255
 1072 000e 04F5A465 		add	r5, r4, #1312
 277:GrannyChordApp.cpp ****   reverb_.Init(SAMPLE_RATE_FLOAT);
 1073              		.loc 2 277 13 view .LVU256
 1074 0012 FFF7FEFF 		bl	_ZN7daisysp10Compressor4InitEf
 1075              	.LVL73:
 278:GrannyChordApp.cpp ****   reverb_.Init(SAMPLE_RATE_FLOAT);
 1076              		.loc 2 278 3 is_stmt 1 view .LVU257
 278:GrannyChordApp.cpp ****   reverb_.Init(SAMPLE_RATE_FLOAT);
 1077              		.loc 2 278 15 is_stmt 0 view .LVU258
 1078 0016 9FED0F0A 		vldr.32	s0, .L68
 1079 001a D4F81C05 		ldr	r0, [r4, #1308]
ARM GAS  /var/folders/2p/02m_5p7958535cp2tpgps0400000gn/T//ccCr8gkt.s 			page 31


 1080 001e 8DED010A 		vstr.32	s0, [sp, #4]	@ int
 1081 0022 FFF7FEFF 		bl	_ZN7daisysp8ReverbSc4InitEf
 1082              	.LVL74:
 1083              		.loc 2 279 3 is_stmt 1 view .LVU259
 1084              		.loc 2 279 21 is_stmt 0 view .LVU260
 1085 0026 9DED010A 		vldr.32	s0, [sp, #4]	@ int
 1086 002a 2846     		mov	r0, r5
 1087 002c FFF7FEFF 		bl	_ZN7daisysp10MoogLadder4InitEf
 1088              	.LVL75:
 280:GrannyChordApp.cpp ****   lowpass_moog_.SetFreq(20000.0f);
 1089              		.loc 2 280 3 is_stmt 1 view .LVU261
 1090              	.LBB298:
 1091              	.LBI298:
 1092              		.file 5 "../DaisySP/Source/../DaisySP-LGPL/Source/Filters/moogladder.h"
   1:../DaisySP/Source/../DaisySP-LGPL/Source/Filters/moogladder.h **** /*
   2:../DaisySP/Source/../DaisySP-LGPL/Source/Filters/moogladder.h **** Copyright (c) 2023 Electrosmith, Corp, Victor Lazzarini, John ffitch (fast tanh), Bob Moog
   3:../DaisySP/Source/../DaisySP-LGPL/Source/Filters/moogladder.h **** 
   4:../DaisySP/Source/../DaisySP-LGPL/Source/Filters/moogladder.h **** Use of this source code is governed by the LGPL V2.1
   5:../DaisySP/Source/../DaisySP-LGPL/Source/Filters/moogladder.h **** license that can be found in the LICENSE file or at
   6:../DaisySP/Source/../DaisySP-LGPL/Source/Filters/moogladder.h **** https://opensource.org/license/lgpl-2-1/
   7:../DaisySP/Source/../DaisySP-LGPL/Source/Filters/moogladder.h **** */
   8:../DaisySP/Source/../DaisySP-LGPL/Source/Filters/moogladder.h **** 
   9:../DaisySP/Source/../DaisySP-LGPL/Source/Filters/moogladder.h **** #pragma once
  10:../DaisySP/Source/../DaisySP-LGPL/Source/Filters/moogladder.h **** #ifndef DSY_MOOGLADDER_H
  11:../DaisySP/Source/../DaisySP-LGPL/Source/Filters/moogladder.h **** #define DSY_MOOGLADDER_H
  12:../DaisySP/Source/../DaisySP-LGPL/Source/Filters/moogladder.h **** 
  13:../DaisySP/Source/../DaisySP-LGPL/Source/Filters/moogladder.h **** #include <stdint.h>
  14:../DaisySP/Source/../DaisySP-LGPL/Source/Filters/moogladder.h **** #ifdef __cplusplus
  15:../DaisySP/Source/../DaisySP-LGPL/Source/Filters/moogladder.h **** 
  16:../DaisySP/Source/../DaisySP-LGPL/Source/Filters/moogladder.h **** namespace daisysp
  17:../DaisySP/Source/../DaisySP-LGPL/Source/Filters/moogladder.h **** {
  18:../DaisySP/Source/../DaisySP-LGPL/Source/Filters/moogladder.h **** /** Moog ladder filter module*/
  19:../DaisySP/Source/../DaisySP-LGPL/Source/Filters/moogladder.h **** class MoogLadder
  20:../DaisySP/Source/../DaisySP-LGPL/Source/Filters/moogladder.h **** {
  21:../DaisySP/Source/../DaisySP-LGPL/Source/Filters/moogladder.h ****   public:
  22:../DaisySP/Source/../DaisySP-LGPL/Source/Filters/moogladder.h ****     MoogLadder() {}
  23:../DaisySP/Source/../DaisySP-LGPL/Source/Filters/moogladder.h ****     ~MoogLadder() {}
  24:../DaisySP/Source/../DaisySP-LGPL/Source/Filters/moogladder.h ****     /** Initializes the MoogLadder module.
  25:../DaisySP/Source/../DaisySP-LGPL/Source/Filters/moogladder.h ****         sample_rate - The sample rate of the audio engine being run. 
  26:../DaisySP/Source/../DaisySP-LGPL/Source/Filters/moogladder.h ****     */
  27:../DaisySP/Source/../DaisySP-LGPL/Source/Filters/moogladder.h ****     void Init(float sample_rate);
  28:../DaisySP/Source/../DaisySP-LGPL/Source/Filters/moogladder.h **** 
  29:../DaisySP/Source/../DaisySP-LGPL/Source/Filters/moogladder.h **** 
  30:../DaisySP/Source/../DaisySP-LGPL/Source/Filters/moogladder.h ****     /** Processes the lowpass filter
  31:../DaisySP/Source/../DaisySP-LGPL/Source/Filters/moogladder.h ****     */
  32:../DaisySP/Source/../DaisySP-LGPL/Source/Filters/moogladder.h ****     float Process(float in);
  33:../DaisySP/Source/../DaisySP-LGPL/Source/Filters/moogladder.h **** 
  34:../DaisySP/Source/../DaisySP-LGPL/Source/Filters/moogladder.h ****     /** 
  35:../DaisySP/Source/../DaisySP-LGPL/Source/Filters/moogladder.h ****         Sets the cutoff frequency or half-way point of the filter.
  36:../DaisySP/Source/../DaisySP-LGPL/Source/Filters/moogladder.h ****         Arguments
  37:../DaisySP/Source/../DaisySP-LGPL/Source/Filters/moogladder.h ****         - freq - frequency value in Hz. Range: Any positive value.
  38:../DaisySP/Source/../DaisySP-LGPL/Source/Filters/moogladder.h ****     */
  39:../DaisySP/Source/../DaisySP-LGPL/Source/Filters/moogladder.h ****     inline void SetFreq(float freq) { freq_ = freq; }
 1093              		.loc 5 39 17 view .LVU262
 1094              	.LBB299:
 1095              		.loc 5 39 39 view .LVU263
 1096              		.loc 5 39 45 is_stmt 0 view .LVU264
ARM GAS  /var/folders/2p/02m_5p7958535cp2tpgps0400000gn/T//ccCr8gkt.s 			page 32


 1097 0030 094B     		ldr	r3, .L68+4
 1098              	.LBE299:
 1099              	.LBE298:
 1100              	.LBB301:
 1101              	.LBB302:
 1102              	.LBB303:
 1103              		.file 6 "../DaisySP/Source/Filters/onepole.h"
   1:../DaisySP/Source/Filters/onepole.h **** /*
   2:../DaisySP/Source/Filters/onepole.h **** Copyright (c) 2020 Electrosmith, Corp, Emilie Gillet
   3:../DaisySP/Source/Filters/onepole.h **** 
   4:../DaisySP/Source/Filters/onepole.h **** Use of this source code is governed by an MIT-style
   5:../DaisySP/Source/Filters/onepole.h **** license that can be found in the LICENSE file or at
   6:../DaisySP/Source/Filters/onepole.h **** https://opensource.org/licenses/MIT.
   7:../DaisySP/Source/Filters/onepole.h **** */
   8:../DaisySP/Source/Filters/onepole.h **** 
   9:../DaisySP/Source/Filters/onepole.h **** #ifndef DSY_ONEPOLE_H
  10:../DaisySP/Source/Filters/onepole.h **** #define DSY_ONEPOLE_H
  11:../DaisySP/Source/Filters/onepole.h **** 
  12:../DaisySP/Source/Filters/onepole.h **** #include "Utility/dsp.h"
  13:../DaisySP/Source/Filters/onepole.h **** #include <cmath>
  14:../DaisySP/Source/Filters/onepole.h **** #include <algorithm>
  15:../DaisySP/Source/Filters/onepole.h **** 
  16:../DaisySP/Source/Filters/onepole.h **** namespace daisysp
  17:../DaisySP/Source/Filters/onepole.h **** {
  18:../DaisySP/Source/Filters/onepole.h **** /**         
  19:../DaisySP/Source/Filters/onepole.h ****     @brief One Pole Lowpass / Highpass Filter
  20:../DaisySP/Source/Filters/onepole.h ****     @author beserge
  21:../DaisySP/Source/Filters/onepole.h ****     @date Dec 2023 
  22:../DaisySP/Source/Filters/onepole.h ****     Ported from pichenettes/stmlib/dsp/filter.h \n 
  23:../DaisySP/Source/Filters/onepole.h ****     \n to an independent module. \n
  24:../DaisySP/Source/Filters/onepole.h ****     Original code written by Emilie Gillet. \n
  25:../DaisySP/Source/Filters/onepole.h **** */
  26:../DaisySP/Source/Filters/onepole.h **** class OnePole
  27:../DaisySP/Source/Filters/onepole.h **** {
  28:../DaisySP/Source/Filters/onepole.h ****   public:
  29:../DaisySP/Source/Filters/onepole.h ****     OnePole() {}
  30:../DaisySP/Source/Filters/onepole.h ****     ~OnePole() {}
  31:../DaisySP/Source/Filters/onepole.h **** 
  32:../DaisySP/Source/Filters/onepole.h ****     /**
  33:../DaisySP/Source/Filters/onepole.h ****      * @brief Operational modes of the filter
  34:../DaisySP/Source/Filters/onepole.h ****      * - LOW_PASS = cuts out high frequency sound, lets low frequency sound pass through
  35:../DaisySP/Source/Filters/onepole.h ****      * - HIGH_PASS = cuts out low frequency sound, lets high frequency sound pass through
  36:../DaisySP/Source/Filters/onepole.h ****      */
  37:../DaisySP/Source/Filters/onepole.h ****     enum FilterMode
  38:../DaisySP/Source/Filters/onepole.h ****     {
  39:../DaisySP/Source/Filters/onepole.h ****         FILTER_MODE_LOW_PASS,
  40:../DaisySP/Source/Filters/onepole.h ****         FILTER_MODE_HIGH_PASS
  41:../DaisySP/Source/Filters/onepole.h ****     };
  42:../DaisySP/Source/Filters/onepole.h **** 
  43:../DaisySP/Source/Filters/onepole.h ****     /** Initializes the module */
  44:../DaisySP/Source/Filters/onepole.h ****     void Init()
  45:../DaisySP/Source/Filters/onepole.h ****     {
  46:../DaisySP/Source/Filters/onepole.h ****         Reset();
  47:../DaisySP/Source/Filters/onepole.h ****         mode_ = FILTER_MODE_LOW_PASS;
  48:../DaisySP/Source/Filters/onepole.h ****     }
  49:../DaisySP/Source/Filters/onepole.h **** 
  50:../DaisySP/Source/Filters/onepole.h ****     /** Reset the module to its default state */
ARM GAS  /var/folders/2p/02m_5p7958535cp2tpgps0400000gn/T//ccCr8gkt.s 			page 33


  51:../DaisySP/Source/Filters/onepole.h ****     inline void Reset() { state_ = 0.0f; }
 1104              		.loc 6 51 34 view .LVU265
 1105 0032 0022     		movs	r2, #0
 1106              	.LBE303:
 1107              	.LBE302:
 1108              	.LBE301:
 1109              	.LBB306:
 1110              	.LBB307:
  52:../DaisySP/Source/Filters/onepole.h **** 
  53:../DaisySP/Source/Filters/onepole.h ****     /** Set the filter cutoff frequency
  54:../DaisySP/Source/Filters/onepole.h ****     *   \param freq Cutoff frequency. Valid range from 0 to .497f
  55:../DaisySP/Source/Filters/onepole.h ****     */
  56:../DaisySP/Source/Filters/onepole.h ****     inline void SetFrequency(float freq)
  57:../DaisySP/Source/Filters/onepole.h ****     {
  58:../DaisySP/Source/Filters/onepole.h ****         // Clip coefficient to about 100.
  59:../DaisySP/Source/Filters/onepole.h ****         freq = freq < 0.497f ? freq : 0.497f;
  60:../DaisySP/Source/Filters/onepole.h **** 
  61:../DaisySP/Source/Filters/onepole.h ****         g_  = tanf(PI_F * freq);
  62:../DaisySP/Source/Filters/onepole.h ****         gi_ = 1.f / (1.f + g_);
  63:../DaisySP/Source/Filters/onepole.h ****     }
  64:../DaisySP/Source/Filters/onepole.h **** 
  65:../DaisySP/Source/Filters/onepole.h ****     /** Set the filter mode
  66:../DaisySP/Source/Filters/onepole.h ****     *   \param mode Filter mode. Can be lowpass or highpass
  67:../DaisySP/Source/Filters/onepole.h ****     */
  68:../DaisySP/Source/Filters/onepole.h ****     inline void SetFilterMode(FilterMode mode) { mode_ = mode; }
 1111              		.loc 6 68 56 view .LVU266
 1112 0034 0121     		movs	r1, #1
 1113              	.LBE307:
 1114              	.LBE306:
 1115              	.LBB309:
 1116              	.LBB300:
 1117              		.loc 5 39 45 view .LVU267
 1118 0036 AB60     		str	r3, [r5, #8]	@ float
 1119              	.LVL76:
 1120              		.loc 5 39 45 view .LVU268
 1121              	.LBE300:
 1122              	.LBE309:
 281:GrannyChordApp.cpp ****   lowpass_moog_.SetRes(0.7f);
 1123              		.loc 2 281 3 is_stmt 1 view .LVU269
 1124              	.LBB310:
 1125              	.LBI310:
  40:../DaisySP/Source/../DaisySP-LGPL/Source/Filters/moogladder.h ****     /** 
  41:../DaisySP/Source/../DaisySP-LGPL/Source/Filters/moogladder.h ****         Sets the resonance of the filter.
  42:../DaisySP/Source/../DaisySP-LGPL/Source/Filters/moogladder.h ****     */
  43:../DaisySP/Source/../DaisySP-LGPL/Source/Filters/moogladder.h ****     inline void SetRes(float res) { res_ = res; }
 1126              		.loc 5 43 17 view .LVU270
 1127              	.LBB311:
 1128              		.loc 5 43 37 view .LVU271
 1129              		.loc 5 43 42 is_stmt 0 view .LVU272
 1130 0038 084B     		ldr	r3, .L68+8
 1131 003a 6B60     		str	r3, [r5, #4]	@ float
 1132              	.LVL77:
 1133              		.loc 5 43 42 view .LVU273
 1134              	.LBE311:
 1135              	.LBE310:
 282:GrannyChordApp.cpp ****   hipass_.Init();
 1136              		.loc 2 282 3 is_stmt 1 view .LVU274
ARM GAS  /var/folders/2p/02m_5p7958535cp2tpgps0400000gn/T//ccCr8gkt.s 			page 34


 1137              	.LBB312:
 1138              	.LBI301:
  44:../DaisySP/Source/Filters/onepole.h ****     {
 1139              		.loc 6 44 10 view .LVU275
 1140              	.LBE312:
  46:../DaisySP/Source/Filters/onepole.h ****         mode_ = FILTER_MODE_LOW_PASS;
 1141              		.loc 6 46 9 view .LVU276
 1142              	.LBB313:
 1143              	.LBB305:
 1144              	.LBI302:
  51:../DaisySP/Source/Filters/onepole.h **** 
 1145              		.loc 6 51 17 view .LVU277
 1146              	.LBB304:
  51:../DaisySP/Source/Filters/onepole.h **** 
 1147              		.loc 6 51 27 view .LVU278
  51:../DaisySP/Source/Filters/onepole.h **** 
 1148              		.loc 6 51 34 is_stmt 0 view .LVU279
 1149 003c 04F26453 		addw	r3, r4, #1380
 1150              	.LVL78:
  51:../DaisySP/Source/Filters/onepole.h **** 
 1151              		.loc 6 51 34 view .LVU280
 1152 0040 9A60     		str	r2, [r3, #8]	@ float
 1153              	.LVL79:
  51:../DaisySP/Source/Filters/onepole.h **** 
 1154              		.loc 6 51 34 view .LVU281
 1155              	.LBE304:
 1156              	.LBE305:
 1157              	.LBE313:
  47:../DaisySP/Source/Filters/onepole.h ****     }
 1158              		.loc 6 47 9 is_stmt 1 view .LVU282
 283:GrannyChordApp.cpp ****   hipass_.SetFilterMode(daisysp::OnePole::FilterMode::FILTER_MODE_HIGH_PASS);
 1159              		.loc 2 283 3 view .LVU283
 1160              	.LBB314:
 1161              	.LBI306:
 1162              		.loc 6 68 17 view .LVU284
 1163              	.LBB308:
 1164              		.loc 6 68 50 view .LVU285
 1165              		.loc 6 68 56 is_stmt 0 view .LVU286
 1166 0042 84F87015 		strb	r1, [r4, #1392]
 1167              	.LVL80:
 1168              		.loc 6 68 56 view .LVU287
 1169              	.LBE308:
 1170              	.LBE314:
 284:GrannyChordApp.cpp ****   hipass_.SetFrequency(0.0f); // NOTE: CHECK THIS
 1171              		.loc 2 284 3 is_stmt 1 view .LVU288
 1172              	.LBB315:
 1173              	.LBI315:
  56:../DaisySP/Source/Filters/onepole.h ****     {
 1174              		.loc 6 56 17 view .LVU289
 1175              	.LBB316:
  59:../DaisySP/Source/Filters/onepole.h **** 
 1176              		.loc 6 59 9 view .LVU290
  61:../DaisySP/Source/Filters/onepole.h ****         gi_ = 1.f / (1.f + g_);
 1177              		.loc 6 61 9 view .LVU291
  61:../DaisySP/Source/Filters/onepole.h ****         gi_ = 1.f / (1.f + g_);
 1178              		.loc 6 61 13 is_stmt 0 view .LVU292
 1179 0046 1A60     		str	r2, [r3]	@ float
ARM GAS  /var/folders/2p/02m_5p7958535cp2tpgps0400000gn/T//ccCr8gkt.s 			page 35


  62:../DaisySP/Source/Filters/onepole.h ****     }
 1180              		.loc 6 62 9 is_stmt 1 view .LVU293
  62:../DaisySP/Source/Filters/onepole.h ****     }
 1181              		.loc 6 62 13 is_stmt 0 view .LVU294
 1182 0048 4FF07E52 		mov	r2, #1065353216
 1183 004c 5A60     		str	r2, [r3, #4]	@ float
 1184              	.LVL81:
  62:../DaisySP/Source/Filters/onepole.h ****     }
 1185              		.loc 6 62 13 view .LVU295
 1186              	.LBE316:
 1187              	.LBE315:
 285:GrannyChordApp.cpp **** }
 1188              		.loc 2 285 1 view .LVU296
 1189 004e 03B0     		add	sp, sp, #12
 1190              		.cfi_def_cfa_offset 12
 1191              		@ sp needed
 1192 0050 30BD     		pop	{r4, r5, pc}
 1193              	.LVL82:
 1194              	.L69:
 1195              		.loc 2 285 1 view .LVU297
 1196 0052 00BF     		.align	2
 1197              	.L68:
 1198 0054 00803B47 		.word	1195081728
 1199 0058 00409C46 		.word	1184645120
 1200 005c 3333333F 		.word	1060320051
 1201              		.cfi_endproc
 1202              	.LFE4921:
 1204              		.section	.text._ZN14GrannyChordApp17InitPrevParamValsEv,"ax",%progbits
 1205              		.align	1
 1206              		.global	_ZN14GrannyChordApp17InitPrevParamValsEv
 1207              		.syntax unified
 1208              		.thumb
 1209              		.thumb_func
 1211              	_ZN14GrannyChordApp17InitPrevParamValsEv:
 1212              	.LVL83:
 1213              	.LFB4922:
 286:GrannyChordApp.cpp **** 
 287:GrannyChordApp.cpp **** /// @brief Initialise previous parameter value arrays to defaults
 288:GrannyChordApp.cpp **** void GrannyChordApp::InitPrevParamVals(){
 1214              		.loc 2 288 41 is_stmt 1 view -0
 1215              		.cfi_startproc
 1216              		@ args = 0, pretend = 0, frame = 0
 1217              		@ frame_needed = 0, uses_anonymous_args = 0
 1218              		@ link register save eliminated.
 289:GrannyChordApp.cpp ****       for (int i=0; i < NUM_SYNTH_MODES;i++){
 1219              		.loc 2 289 7 view .LVU299
 1220              	.LBB317:
 1221              		.loc 2 289 23 view .LVU300
 1222 0000 00F20C63 		addw	r3, r0, #1548
 1223 0004 00F5C560 		add	r0, r0, #1576
 1224              	.LVL84:
 1225              	.L71:
 290:GrannyChordApp.cpp ****         prev_param_vals_k1[i] = 0.5f;
 1226              		.loc 2 290 9 discriminator 2 view .LVU301
 1227              		.loc 2 290 31 is_stmt 0 discriminator 2 view .LVU302
 1228 0008 4FF07C52 		mov	r2, #1056964608
 1229 000c 43F8042B 		str	r2, [r3], #4	@ float
ARM GAS  /var/folders/2p/02m_5p7958535cp2tpgps0400000gn/T//ccCr8gkt.s 			page 36


 291:GrannyChordApp.cpp ****         prev_param_vals_k2[i] = 0.5f;
 1230              		.loc 2 291 9 is_stmt 1 discriminator 2 view .LVU303
 289:GrannyChordApp.cpp ****       for (int i=0; i < NUM_SYNTH_MODES;i++){
 1231              		.loc 2 289 23 is_stmt 0 discriminator 2 view .LVU304
 1232 0010 8342     		cmp	r3, r0
 1233              		.loc 2 291 31 discriminator 2 view .LVU305
 1234 0012 9A61     		str	r2, [r3, #24]	@ float
 289:GrannyChordApp.cpp ****       for (int i=0; i < NUM_SYNTH_MODES;i++){
 1235              		.loc 2 289 7 is_stmt 1 discriminator 2 view .LVU306
 289:GrannyChordApp.cpp ****       for (int i=0; i < NUM_SYNTH_MODES;i++){
 1236              		.loc 2 289 23 discriminator 2 view .LVU307
 1237 0014 F8D1     		bne	.L71
 1238              	.LBE317:
 292:GrannyChordApp.cpp ****       } 
 293:GrannyChordApp.cpp **** };
 1239              		.loc 2 293 1 is_stmt 0 view .LVU308
 1240 0016 7047     		bx	lr
 1241              		.cfi_endproc
 1242              	.LFE4922:
 1244              		.section	.rodata._ZN14GrannyChordApp4InitEPsS0_S0_.str1.1,"aMS",%progbits,1
 1245              	.LC6:
 1246 0000 46696C65 		.ascii	"File manager failed to init\000"
 1246      206D616E 
 1246      61676572 
 1246      20666169 
 1246      6C656420 
 1247              		.section	.text._ZN14GrannyChordApp4InitEPsS0_S0_,"ax",%progbits
 1248              		.align	1
 1249              		.global	_ZN14GrannyChordApp4InitEPsS0_S0_
 1250              		.syntax unified
 1251              		.thumb
 1252              		.thumb_func
 1254              	_ZN14GrannyChordApp4InitEPsS0_S0_:
 1255              	.LVL85:
 1256              	.LFB4901:
  15:GrannyChordApp.cpp ****   left_buf_ = left, right_buf_ = right, temp_buf_ = temp;
 1257              		.loc 2 15 72 is_stmt 1 view -0
 1258              		.cfi_startproc
 1259              		@ args = 0, pretend = 0, frame = 0
 1260              		@ frame_needed = 0, uses_anonymous_args = 0
  16:GrannyChordApp.cpp ****   pod_.SetAudioBlockSize(4);
 1261              		.loc 2 16 3 view .LVU310
  15:GrannyChordApp.cpp ****   left_buf_ = left, right_buf_ = right, temp_buf_ = temp;
 1262              		.loc 2 15 72 is_stmt 0 view .LVU311
 1263 0000 38B5     		push	{r3, r4, r5, lr}
 1264              		.cfi_def_cfa_offset 16
 1265              		.cfi_offset 3, -16
 1266              		.cfi_offset 4, -12
 1267              		.cfi_offset 5, -8
 1268              		.cfi_offset 14, -4
  15:GrannyChordApp.cpp ****   left_buf_ = left, right_buf_ = right, temp_buf_ = temp;
 1269              		.loc 2 15 72 view .LVU312
 1270 0002 0446     		mov	r4, r0
  16:GrannyChordApp.cpp ****   pod_.SetAudioBlockSize(4);
 1271              		.loc 2 16 13 view .LVU313
 1272 0004 C0F87415 		str	r1, [r0, #1396]
  16:GrannyChordApp.cpp ****   pod_.SetAudioBlockSize(4);
ARM GAS  /var/folders/2p/02m_5p7958535cp2tpgps0400000gn/T//ccCr8gkt.s 			page 37


 1273              		.loc 2 16 32 view .LVU314
 1274 0008 C0F87825 		str	r2, [r0, #1400]
  17:GrannyChordApp.cpp ****   pod_.SetAudioSampleRate(SaiHandle::Config::SampleRate::SAI_48KHZ);
 1275              		.loc 2 17 25 view .LVU315
 1276 000c 0421     		movs	r1, #4
 1277              	.LVL86:
  16:GrannyChordApp.cpp ****   pod_.SetAudioBlockSize(4);
 1278              		.loc 2 16 51 view .LVU316
 1279 000e C0F87C35 		str	r3, [r0, #1404]
  17:GrannyChordApp.cpp ****   pod_.SetAudioSampleRate(SaiHandle::Config::SampleRate::SAI_48KHZ);
 1280              		.loc 2 17 3 is_stmt 1 view .LVU317
  20:GrannyChordApp.cpp ****   if (!InitFileMgr()){
 1281              		.loc 2 20 15 is_stmt 0 view .LVU318
 1282 0012 0025     		movs	r5, #0
  17:GrannyChordApp.cpp ****   pod_.SetAudioSampleRate(SaiHandle::Config::SampleRate::SAI_48KHZ);
 1283              		.loc 2 17 25 view .LVU319
 1284 0014 C069     		ldr	r0, [r0, #28]
 1285              	.LVL87:
  17:GrannyChordApp.cpp ****   pod_.SetAudioSampleRate(SaiHandle::Config::SampleRate::SAI_48KHZ);
 1286              		.loc 2 17 25 view .LVU320
 1287 0016 FFF7FEFF 		bl	_ZN5daisy8DaisyPod17SetAudioBlockSizeEj
 1288              	.LVL88:
  18:GrannyChordApp.cpp **** 
 1289              		.loc 2 18 3 is_stmt 1 view .LVU321
  18:GrannyChordApp.cpp **** 
 1290              		.loc 2 18 26 is_stmt 0 view .LVU322
 1291 001a E069     		ldr	r0, [r4, #28]
 1292 001c 0321     		movs	r1, #3
 1293 001e FFF7FEFF 		bl	_ZN5daisy8DaisyPod18SetAudioSampleRateENS_9SaiHandle6Config10SampleRateE
 1294              	.LVL89:
  20:GrannyChordApp.cpp ****   if (!InitFileMgr()){
 1295              		.loc 2 20 3 is_stmt 1 view .LVU323
  21:GrannyChordApp.cpp ****     DebugPrint(pod_,"File manager failed to init");
 1296              		.loc 2 21 19 is_stmt 0 view .LVU324
 1297 0022 2046     		mov	r0, r4
  20:GrannyChordApp.cpp ****   if (!InitFileMgr()){
 1298              		.loc 2 20 15 view .LVU325
 1299 0024 C4F8D054 		str	r5, [r4, #1232]
  21:GrannyChordApp.cpp ****     DebugPrint(pod_,"File manager failed to init");
 1300              		.loc 2 21 3 is_stmt 1 view .LVU326
  21:GrannyChordApp.cpp ****     DebugPrint(pod_,"File manager failed to init");
 1301              		.loc 2 21 19 is_stmt 0 view .LVU327
 1302 0028 FFF7FEFF 		bl	_ZN14GrannyChordApp11InitFileMgrEv
 1303              	.LVL90:
  21:GrannyChordApp.cpp ****     DebugPrint(pod_,"File manager failed to init");
 1304              		.loc 2 21 3 view .LVU328
 1305 002c A0B9     		cbnz	r0, .L74
  22:GrannyChordApp.cpp ****     pod_.led1.SetRed(1);
 1306              		.loc 2 22 5 is_stmt 1 view .LVU329
  22:GrannyChordApp.cpp ****     pod_.led1.SetRed(1);
 1307              		.loc 2 22 5 view .LVU330
 1308              	.LVL91:
 1309              	.LBB322:
 1310              	.LBI322:
 126:../libDaisy/src/daisy_seed.h ****     {
 1311              		.loc 4 126 17 view .LVU331
 1312              	.LBB323:
ARM GAS  /var/folders/2p/02m_5p7958535cp2tpgps0400000gn/T//ccCr8gkt.s 			page 38


 1313              		.loc 4 128 23 is_stmt 0 view .LVU332
 1314 002e 1248     		ldr	r0, .L75
 1315 0030 FFF7FEFF 		bl	_ZN5daisy6LoggerILNS_17LoggerDestinationE1EE9PrintLineEPKcz
 1316              	.LVL92:
 1317              		.loc 4 128 23 view .LVU333
 1318              	.LBE323:
 1319              	.LBE322:
  23:GrannyChordApp.cpp ****     pod_.led2.SetRed(1);
 1320              		.loc 2 23 5 is_stmt 1 view .LVU334
  23:GrannyChordApp.cpp ****     pod_.led2.SetRed(1);
 1321              		.loc 2 23 21 is_stmt 0 view .LVU335
 1322 0034 E069     		ldr	r0, [r4, #28]
 1323 0036 B7EE000A 		vmov.f32	s0, #1.0e+0
 1324 003a D830     		adds	r0, r0, #216
 1325 003c FFF7FEFF 		bl	_ZN5daisy6RgbLed6SetRedEf
 1326              	.LVL93:
  24:GrannyChordApp.cpp ****     pod_.UpdateLeds();
 1327              		.loc 2 24 5 is_stmt 1 view .LVU336
  24:GrannyChordApp.cpp ****     pod_.UpdateLeds();
 1328              		.loc 2 24 21 is_stmt 0 view .LVU337
 1329 0040 E069     		ldr	r0, [r4, #28]
 1330 0042 B7EE000A 		vmov.f32	s0, #1.0e+0
 1331 0046 00F59670 		add	r0, r0, #300
 1332 004a FFF7FEFF 		bl	_ZN5daisy6RgbLed6SetRedEf
 1333              	.LVL94:
  25:GrannyChordApp.cpp ****     return;
 1334              		.loc 2 25 5 is_stmt 1 view .LVU338
  25:GrannyChordApp.cpp ****     return;
 1335              		.loc 2 25 20 is_stmt 0 view .LVU339
 1336 004e E069     		ldr	r0, [r4, #28]
  34:GrannyChordApp.cpp **** 
 1337              		.loc 2 34 1 view .LVU340
 1338 0050 BDE83840 		pop	{r3, r4, r5, lr}
 1339              		.cfi_remember_state
 1340              		.cfi_restore 14
 1341              		.cfi_restore 5
 1342              		.cfi_restore 4
 1343              		.cfi_restore 3
 1344              		.cfi_def_cfa_offset 0
 1345              	.LVL95:
  25:GrannyChordApp.cpp ****     return;
 1346              		.loc 2 25 20 view .LVU341
 1347 0054 FFF7FEBF 		b	_ZN5daisy8DaisyPod10UpdateLedsEv
 1348              	.LVL96:
 1349              	.L74:
 1350              		.cfi_restore_state
  29:GrannyChordApp.cpp ****   InitPrevParamVals();
 1351              		.loc 2 29 3 is_stmt 1 view .LVU342
  29:GrannyChordApp.cpp ****   InitPrevParamVals();
 1352              		.loc 2 29 9 is_stmt 0 view .LVU343
 1353 0058 2046     		mov	r0, r4
 1354 005a FFF7FEFF 		bl	_ZN14GrannyChordApp6InitFXEv
 1355              	.LVL97:
  30:GrannyChordApp.cpp ****   SeedRng();
 1356              		.loc 2 30 3 is_stmt 1 view .LVU344
  30:GrannyChordApp.cpp ****   SeedRng();
 1357              		.loc 2 30 20 is_stmt 0 view .LVU345
ARM GAS  /var/folders/2p/02m_5p7958535cp2tpgps0400000gn/T//ccCr8gkt.s 			page 39


 1358 005e 2046     		mov	r0, r4
 1359 0060 FFF7FEFF 		bl	_ZN14GrannyChordApp17InitPrevParamValsEv
 1360              	.LVL98:
  31:GrannyChordApp.cpp **** 
 1361              		.loc 2 31 3 is_stmt 1 view .LVU346
 1362              	.LBB324:
 1363              	.LBI324:
 1364              		.file 7 "constants_utils.h"
   1:constants_utils.h **** #pragma once
   2:constants_utils.h **** #include "stddef.h"
   3:constants_utils.h **** #include <time.h>
   4:constants_utils.h **** 
   5:constants_utils.h **** constexpr int SAMPLE_RATE = 48000;
   6:constants_utils.h **** constexpr float SAMPLE_RATE_FLOAT = 48000.f;
   7:constants_utils.h **** 
   8:constants_utils.h **** /* 16mb - max size of one stereo channel to be loaded into buffers */
   9:constants_utils.h **** constexpr size_t CHNL_BUF_SIZE_ABS = 16*1024*1024;
  10:constants_utils.h **** /* above is absolute size - each sample needs an int16 (2 bytes) so we do (abs_size)/2 */
  11:constants_utils.h **** constexpr size_t CHNL_BUF_SIZE_SAMPS = 8*1024*1024;
  12:constants_utils.h **** 
  13:constants_utils.h **** /* chunk size for reading audio into temporary buffer */
  14:constants_utils.h **** const size_t BUF_CHUNK_SZ = 16384;
  15:constants_utils.h **** 
  16:constants_utils.h **** static const uint16_t MAX_FILES = 32;                      
  17:constants_utils.h **** static const uint16_t MAX_FNAME_LEN = 128;
  18:constants_utils.h **** 
  19:constants_utils.h **** constexpr int BIT_DEPTH = 16;
  20:constants_utils.h **** /* min/max number of concurrent active grains */
  21:constants_utils.h **** constexpr int MIN_GRAINS = 1;
  22:constants_utils.h **** constexpr int MAX_GRAINS = 20;
  23:constants_utils.h **** 
  24:constants_utils.h **** constexpr float MIN_GRAIN_SIZE_MS = 100.0f;
  25:constants_utils.h **** constexpr float MAX_GRAIN_SIZE_MS = 3000.0f;
  26:constants_utils.h **** constexpr size_t MIN_GRAIN_SIZE_SAMPLES = 4800; // 100ms at 48kHz
  27:constants_utils.h **** constexpr size_t MAX_GRAIN_SIZE_SAMPLES = 144000; // 3s at 48kHz
  28:constants_utils.h **** constexpr float MIN_PITCH = 0.5f;
  29:constants_utils.h **** constexpr float MAX_PITCH = 3.0f;
  30:constants_utils.h **** 
  31:constants_utils.h **** /* integer clamp as can't use std::clamp */
  32:constants_utils.h **** inline constexpr size_t intclamp(size_t val, size_t min, size_t max){
  33:constants_utils.h ****   if (val < min) val = min;
  34:constants_utils.h ****   else if (val > max) val = max;
  35:constants_utils.h ****   return val;
  36:constants_utils.h **** }
  37:constants_utils.h **** 
  38:constants_utils.h **** /* converts milliseconds to number of samples */
  39:constants_utils.h **** inline constexpr size_t MsToSamples(float ms){
  40:constants_utils.h ****   return static_cast<size_t>(SAMPLE_RATE_FLOAT * (ms*0.001f));
  41:constants_utils.h **** }
  42:constants_utils.h **** 
  43:constants_utils.h **** /* converts number of samples to milliseconds */
  44:constants_utils.h **** inline constexpr float SamplesToMs(size_t samples){
  45:constants_utils.h ****   return (static_cast<float>(samples) * 1000.0f) / SAMPLE_RATE_FLOAT; 
  46:constants_utils.h **** }
  47:constants_utils.h **** 
  48:constants_utils.h **** static constexpr int NUM_ENV_TYPES = 4;
  49:constants_utils.h **** static constexpr int NUM_PHASOR_MODES = 4;
ARM GAS  /var/folders/2p/02m_5p7958535cp2tpgps0400000gn/T//ccCr8gkt.s 			page 40


  50:constants_utils.h **** static constexpr int NUM_SYNTH_MODES = 7;
  51:constants_utils.h **** constexpr float PARAM_CHANGE_THRESHOLD = 0.01f;
  52:constants_utils.h **** 
  53:constants_utils.h **** extern uint32_t rng_state;
  54:constants_utils.h **** 
  55:constants_utils.h **** inline void SeedRng(){
 1365              		.loc 7 55 13 view .LVU347
 1366              	.LBB325:
  56:constants_utils.h ****   rng_state = static_cast<uint32_t>(time(nullptr));
 1367              		.loc 7 56 3 view .LVU348
 1368              		.loc 7 56 41 is_stmt 0 view .LVU349
 1369 0064 2846     		mov	r0, r5
 1370 0066 FFF7FEFF 		bl	time
 1371              	.LVL99:
 1372              		.loc 7 56 13 view .LVU350
 1373 006a 044B     		ldr	r3, .L75+4
 1374 006c 1860     		str	r0, [r3]
 1375              	.LBE325:
 1376              	.LBE324:
  33:GrannyChordApp.cpp **** }
 1377              		.loc 2 33 3 is_stmt 1 view .LVU351
  33:GrannyChordApp.cpp **** }
 1378              		.loc 2 33 16 is_stmt 0 view .LVU352
 1379 006e E069     		ldr	r0, [r4, #28]
  34:GrannyChordApp.cpp **** 
 1380              		.loc 2 34 1 view .LVU353
 1381 0070 BDE83840 		pop	{r3, r4, r5, lr}
 1382              		.cfi_restore 14
 1383              		.cfi_restore 5
 1384              		.cfi_restore 4
 1385              		.cfi_restore 3
 1386              		.cfi_def_cfa_offset 0
 1387              	.LVL100:
  33:GrannyChordApp.cpp **** }
 1388              		.loc 2 33 16 view .LVU354
 1389 0074 FFF7FEBF 		b	_ZN5daisy8DaisyPod8StartAdcEv
 1390              	.LVL101:
 1391              	.L76:
 1392              		.align	2
 1393              	.L75:
 1394 0078 00000000 		.word	.LC6
 1395 007c 00000000 		.word	rng_state
 1396              		.cfi_endproc
 1397              	.LFE4901:
 1399              		.section	.rodata._ZN14GrannyChordApp18ProcessWAVPlaybackEPPfj.str1.1,"aMS",%progbits,1
 1400              	.LC7:
 1401 0000 2B317300 		.ascii	"+1s\000"
 1402              		.section	.text._ZN14GrannyChordApp18ProcessWAVPlaybackEPPfj,"ax",%progbits
 1403              		.align	1
 1404              		.global	_ZN14GrannyChordApp18ProcessWAVPlaybackEPPfj
 1405              		.syntax unified
 1406              		.thumb
 1407              		.thumb_func
 1409              	_ZN14GrannyChordApp18ProcessWAVPlaybackEPPfj:
 1410              	.LVL102:
 1411              	.LFB4925:
 294:GrannyChordApp.cpp **** 
ARM GAS  /var/folders/2p/02m_5p7958535cp2tpgps0400000gn/T//ccCr8gkt.s 			page 41


 295:GrannyChordApp.cpp **** 
 296:GrannyChordApp.cpp **** /// @brief Master audio callback, called at audio rate, calls all audio processing methods
 297:GrannyChordApp.cpp **** /// @param in Audio input buffer
 298:GrannyChordApp.cpp **** /// @param out Audio output buffer
 299:GrannyChordApp.cpp **** /// @param size Number of samples to process in this call
 300:GrannyChordApp.cpp **** void GrannyChordApp::AudioCallback(AudioHandle::InputBuffer in, AudioHandle::OutputBuffer out, size
 301:GrannyChordApp.cpp ****   instance_->ProcessAudio(in,out,size);
 302:GrannyChordApp.cpp **** }
 303:GrannyChordApp.cpp **** 
 304:GrannyChordApp.cpp **** void GrannyChordApp::ProcessAudio(AudioHandle::InputBuffer in, AudioHandle::OutputBuffer out, size_
 305:GrannyChordApp.cpp ****   // loadmeter.OnBlockStart();
 306:GrannyChordApp.cpp ****   switch(curr_state_){
 307:GrannyChordApp.cpp ****     case AppState::PlayWAV: 
 308:GrannyChordApp.cpp ****       if (wav_playhead_>= filemgr_.GetSamplesPerChannel() -1){
 309:GrannyChordApp.cpp ****         instance_->pod_.StopAudio();
 310:GrannyChordApp.cpp ****         return;
 311:GrannyChordApp.cpp ****       }
 312:GrannyChordApp.cpp ****       ProcessWAVPlayback(out,size);
 313:GrannyChordApp.cpp ****       return;  
 314:GrannyChordApp.cpp ****     case AppState::RecordIn:
 315:GrannyChordApp.cpp ****       ProcessRecordIn(in, out, size);
 316:GrannyChordApp.cpp ****       return;
 317:GrannyChordApp.cpp ****     case AppState::Synthesis:
 318:GrannyChordApp.cpp ****       ProcessSynthesis(out,size);
 319:GrannyChordApp.cpp ****       return;
 320:GrannyChordApp.cpp ****     // case AppState::ChordMode:
 321:GrannyChordApp.cpp ****     default:
 322:GrannyChordApp.cpp ****       pod_.StopAudio();
 323:GrannyChordApp.cpp ****       return;
 324:GrannyChordApp.cpp ****   }
 325:GrannyChordApp.cpp ****   // loadmeter.OnBlockEnd();
 326:GrannyChordApp.cpp **** }
 327:GrannyChordApp.cpp **** 
 328:GrannyChordApp.cpp **** 
 329:GrannyChordApp.cpp **** // /// @brief Outputs silence if app is in non audio output state
 330:GrannyChordApp.cpp **** // /// @param out Output audio buffer
 331:GrannyChordApp.cpp **** // /// @param size Number of samples to process in this call (irrelevant)
 332:GrannyChordApp.cpp **** // void GrannyChordApp::AudioIdle(AudioHandle::OutputBuffer out, size_t size){
 333:GrannyChordApp.cpp **** //   for (size_t i=0; i<size; i++){
 334:GrannyChordApp.cpp **** //     out[0][i]=out[1][i]=0.0f;
 335:GrannyChordApp.cpp **** //   }
 336:GrannyChordApp.cpp **** // }
 337:GrannyChordApp.cpp **** 
 338:GrannyChordApp.cpp **** /// @brief Process audio for WAV playback mode and increment playback position
 339:GrannyChordApp.cpp **** /// @param out Output audio buffer
 340:GrannyChordApp.cpp **** /// @param size Number of samples to process in this call
 341:GrannyChordApp.cpp **** void GrannyChordApp::ProcessWAVPlayback(AudioHandle::OutputBuffer out, size_t size){
 1412              		.loc 2 341 84 is_stmt 1 view -0
 1413              		.cfi_startproc
 1414              		@ args = 0, pretend = 0, frame = 0
 1415              		@ frame_needed = 0, uses_anonymous_args = 0
 1416              		@ link register save eliminated.
 342:GrannyChordApp.cpp ****   for (size_t i=0; i<size; i++){
 1417              		.loc 2 342 3 view .LVU356
 341:GrannyChordApp.cpp ****   for (size_t i=0; i<size; i++){
 1418              		.loc 2 341 84 is_stmt 0 view .LVU357
 1419 0000 70B4     		push	{r4, r5, r6}
ARM GAS  /var/folders/2p/02m_5p7958535cp2tpgps0400000gn/T//ccCr8gkt.s 			page 42


 1420              		.cfi_def_cfa_offset 12
 1421              		.cfi_offset 4, -12
 1422              		.cfi_offset 5, -8
 1423              		.cfi_offset 6, -4
 1424              	.LBB326:
 1425              		.loc 2 342 15 view .LVU358
 1426 0002 0024     		movs	r4, #0
 1427              	.LVL103:
 1428              	.L80:
 1429              		.loc 2 342 21 is_stmt 1 discriminator 1 view .LVU359
 1430 0004 9442     		cmp	r4, r2
 343:GrannyChordApp.cpp ****     if (wav_playhead_ < filemgr_.GetSamplesPerChannel()){
 1431              		.loc 2 343 9 is_stmt 0 discriminator 1 view .LVU360
 1432 0006 D0F88435 		ldr	r3, [r0, #1412]
 342:GrannyChordApp.cpp ****   for (size_t i=0; i<size; i++){
 1433              		.loc 2 342 21 discriminator 1 view .LVU361
 1434 000a 33D0     		beq	.L78
 1435              		.loc 2 343 5 is_stmt 1 view .LVU362
 1436              		.loc 2 343 25 is_stmt 0 view .LVU363
 1437 000c D0F8C854 		ldr	r5, [r0, #1224]
 1438              	.LVL104:
 1439              	.LBB327:
 1440              	.LBI327:
  27:AudioFileManager.h ****     size_t GetTotalSamples() const { return header_.total_samples; }
 1441              		.loc 3 27 12 is_stmt 1 view .LVU364
 1442              	.LBB328:
  27:AudioFileManager.h ****     size_t GetTotalSamples() const { return header_.total_samples; }
 1443              		.loc 3 27 43 view .LVU365
  27:AudioFileManager.h ****     size_t GetTotalSamples() const { return header_.total_samples; }
 1444              		.loc 3 27 58 is_stmt 0 view .LVU366
 1445 0010 05F58055 		add	r5, r5, #4096
  27:AudioFileManager.h ****     size_t GetTotalSamples() const { return header_.total_samples; }
 1446              		.loc 3 27 82 view .LVU367
 1447 0014 B5F92860 		ldrsh	r6, [r5, #40]
 1448 0018 ED6A     		ldr	r5, [r5, #44]
 1449 001a B5FBF6F5 		udiv	r5, r5, r6
 1450              	.LBE328:
 1451              	.LBE327:
 1452              		.loc 2 343 5 view .LVU368
 1453 001e 9D42     		cmp	r5, r3
 1454 0020 26D9     		bls	.L79
 344:GrannyChordApp.cpp ****       out[0][i] = s162f(left_buf_[wav_playhead_]) * 0.5f;
 1455              		.loc 2 344 7 is_stmt 1 view .LVU369
 1456              	.LVL105:
 1457              	.LBB329:
 1458              	.LBI329:
 1459              		.file 8 "../libDaisy/src/daisy_core.h"
   1:../libDaisy/src/daisy_core.h **** #pragma once
   2:../libDaisy/src/daisy_core.h **** #ifndef DSY_CORE_HW_H
   3:../libDaisy/src/daisy_core.h **** #define DSY_CORE_HW_H /**< & */
   4:../libDaisy/src/daisy_core.h **** #include <stdint.h>
   5:../libDaisy/src/daisy_core.h **** #include <stdlib.h>
   6:../libDaisy/src/daisy_core.h **** 
   7:../libDaisy/src/daisy_core.h **** #if defined(_MSC_VER)
   8:../libDaisy/src/daisy_core.h **** #define FORCE_INLINE __forceinline /**< & */
   9:../libDaisy/src/daisy_core.h **** #elif defined(__clang__)
  10:../libDaisy/src/daisy_core.h **** #define FORCE_INLINE inline __attribute__((always_inline)) /**< & */
ARM GAS  /var/folders/2p/02m_5p7958535cp2tpgps0400000gn/T//ccCr8gkt.s 			page 43


  11:../libDaisy/src/daisy_core.h **** #pragma clang diagnostic ignored "-Wduplicate-decl-specifier"
  12:../libDaisy/src/daisy_core.h **** #elif defined(__GNUC__)
  13:../libDaisy/src/daisy_core.h **** #define FORCE_INLINE inline __attribute__((always_inline)) /**< & */
  14:../libDaisy/src/daisy_core.h **** #else
  15:../libDaisy/src/daisy_core.h **** #error unknown compiler
  16:../libDaisy/src/daisy_core.h **** #endif
  17:../libDaisy/src/daisy_core.h **** 
  18:../libDaisy/src/daisy_core.h **** /** @addtogroup utility
  19:../libDaisy/src/daisy_core.h ****     @{
  20:../libDaisy/src/daisy_core.h **** */
  21:../libDaisy/src/daisy_core.h **** 
  22:../libDaisy/src/daisy_core.h **** /** Macro for area of memory that is configured as cacheless
  23:../libDaisy/src/daisy_core.h **** This should be used primarily for DMA buffers, and the like.
  24:../libDaisy/src/daisy_core.h **** */
  25:../libDaisy/src/daisy_core.h **** #define DMA_BUFFER_MEM_SECTION __attribute__((section(".sram1_bss")))
  26:../libDaisy/src/daisy_core.h **** /** 
  27:../libDaisy/src/daisy_core.h **** THE DTCM RAM section is also non-cached. However, is not suitable 
  28:../libDaisy/src/daisy_core.h **** for DMA transfers. Performance is on par with internal SRAM w/ 
  29:../libDaisy/src/daisy_core.h **** cache enabled.
  30:../libDaisy/src/daisy_core.h **** */
  31:../libDaisy/src/daisy_core.h **** #define DTCM_MEM_SECTION __attribute__((section(".dtcmram_bss")))
  32:../libDaisy/src/daisy_core.h **** 
  33:../libDaisy/src/daisy_core.h **** #define FBIPMAX 0.999985f             /**< close to 1.0f-LSB at 16 bit */
  34:../libDaisy/src/daisy_core.h **** #define FBIPMIN (-FBIPMAX)            /**< - (1 - LSB) */
  35:../libDaisy/src/daisy_core.h **** #define U82F_SCALE 0.0078740f         /**< 1 / 127 */
  36:../libDaisy/src/daisy_core.h **** #define F2U8_SCALE 127.0f             /**< 128 - 1 */
  37:../libDaisy/src/daisy_core.h **** #define S82F_SCALE 0.0078125f         /**< 1 / (2**7) */
  38:../libDaisy/src/daisy_core.h **** #define F2S8_SCALE 127.0f             /**< (2 ** 7) - 1 */
  39:../libDaisy/src/daisy_core.h **** #define S162F_SCALE 3.0517578125e-05f /**< 1 / (2** 15) */
  40:../libDaisy/src/daisy_core.h **** #define F2S16_SCALE 32767.0f          /**< (2 ** 15) - 1 */
  41:../libDaisy/src/daisy_core.h **** #define F2S24_SCALE 8388608.0f        /**< 2 ** 23 */
  42:../libDaisy/src/daisy_core.h **** #define S242F_SCALE 1.192092896e-07f  /**< 1 / (2 ** 23) */
  43:../libDaisy/src/daisy_core.h **** #define S24SIGN 0x800000              /**< 2 ** 23 */
  44:../libDaisy/src/daisy_core.h **** #define S322F_SCALE 4.6566129e-10f    /**< 1 / (2** 31) */
  45:../libDaisy/src/daisy_core.h **** #define F2S32_SCALE 2147483647.f      /**< (2 ** 31) - 1 */
  46:../libDaisy/src/daisy_core.h **** 
  47:../libDaisy/src/daisy_core.h **** 
  48:../libDaisy/src/daisy_core.h **** /** shorthand macro for simplifying the reading of the left 
  49:../libDaisy/src/daisy_core.h ****  *  channel of a non-interleaved output buffer named out */
  50:../libDaisy/src/daisy_core.h **** #define OUT_L out[0]
  51:../libDaisy/src/daisy_core.h **** 
  52:../libDaisy/src/daisy_core.h **** /** shorthand macro for simplifying the reading of the right 
  53:../libDaisy/src/daisy_core.h ****  *  channel of a non-interleaved output buffer named out */
  54:../libDaisy/src/daisy_core.h **** #define OUT_R out[1]
  55:../libDaisy/src/daisy_core.h **** 
  56:../libDaisy/src/daisy_core.h **** /** shorthand macro for simplifying the reading of the left 
  57:../libDaisy/src/daisy_core.h ****  *  channel of a non-interleaved input buffer named in */
  58:../libDaisy/src/daisy_core.h **** #define IN_L in[0]
  59:../libDaisy/src/daisy_core.h **** 
  60:../libDaisy/src/daisy_core.h **** /** shorthand macro for simplifying the reading of the right 
  61:../libDaisy/src/daisy_core.h ****  *  channel of a non-interleaved input buffer named in */
  62:../libDaisy/src/daisy_core.h **** #define IN_R in[1]
  63:../libDaisy/src/daisy_core.h **** 
  64:../libDaisy/src/daisy_core.h **** /** 
  65:../libDaisy/src/daisy_core.h ****     Computes cube.
  66:../libDaisy/src/daisy_core.h ****     \param x Number to be cubed
  67:../libDaisy/src/daisy_core.h ****     \return x ^ 3
ARM GAS  /var/folders/2p/02m_5p7958535cp2tpgps0400000gn/T//ccCr8gkt.s 			page 44


  68:../libDaisy/src/daisy_core.h **** */
  69:../libDaisy/src/daisy_core.h **** FORCE_INLINE float cube(float x)
  70:../libDaisy/src/daisy_core.h **** {
  71:../libDaisy/src/daisy_core.h ****     return (x * x) * x;
  72:../libDaisy/src/daisy_core.h **** }
  73:../libDaisy/src/daisy_core.h **** 
  74:../libDaisy/src/daisy_core.h **** /** 
  75:../libDaisy/src/daisy_core.h ****     Converts unsigned 8-bit to float
  76:../libDaisy/src/daisy_core.h ****     \param x Number to be scaled.
  77:../libDaisy/src/daisy_core.h ****     \return Scaled number.
  78:../libDaisy/src/daisy_core.h **** */
  79:../libDaisy/src/daisy_core.h **** FORCE_INLINE float u82f(uint8_t x)
  80:../libDaisy/src/daisy_core.h **** {
  81:../libDaisy/src/daisy_core.h ****     return ((float)x - 127.f) * U82F_SCALE;
  82:../libDaisy/src/daisy_core.h **** }
  83:../libDaisy/src/daisy_core.h **** 
  84:../libDaisy/src/daisy_core.h **** /**
  85:../libDaisy/src/daisy_core.h ****     Converts float to unsigned 8-bit
  86:../libDaisy/src/daisy_core.h **** */
  87:../libDaisy/src/daisy_core.h **** FORCE_INLINE uint8_t f2u8(float x)
  88:../libDaisy/src/daisy_core.h **** {
  89:../libDaisy/src/daisy_core.h ****     x = x <= FBIPMIN ? FBIPMIN : x;
  90:../libDaisy/src/daisy_core.h ****     x = x >= FBIPMAX ? FBIPMAX : x;
  91:../libDaisy/src/daisy_core.h ****     return (uint8_t)((x * F2U8_SCALE) + F2U8_SCALE);
  92:../libDaisy/src/daisy_core.h **** }
  93:../libDaisy/src/daisy_core.h **** 
  94:../libDaisy/src/daisy_core.h **** 
  95:../libDaisy/src/daisy_core.h **** /** 
  96:../libDaisy/src/daisy_core.h ****     Converts Signed 8-bit to float
  97:../libDaisy/src/daisy_core.h ****     \param x Number to be scaled.
  98:../libDaisy/src/daisy_core.h ****     \return Scaled number.
  99:../libDaisy/src/daisy_core.h **** */
 100:../libDaisy/src/daisy_core.h **** FORCE_INLINE float s82f(int8_t x)
 101:../libDaisy/src/daisy_core.h **** {
 102:../libDaisy/src/daisy_core.h ****     return (float)x * S82F_SCALE;
 103:../libDaisy/src/daisy_core.h **** }
 104:../libDaisy/src/daisy_core.h **** 
 105:../libDaisy/src/daisy_core.h **** /**
 106:../libDaisy/src/daisy_core.h ****     Converts float to Signed 8-bit
 107:../libDaisy/src/daisy_core.h **** */
 108:../libDaisy/src/daisy_core.h **** FORCE_INLINE int8_t f2s8(float x)
 109:../libDaisy/src/daisy_core.h **** {
 110:../libDaisy/src/daisy_core.h ****     x = x <= FBIPMIN ? FBIPMIN : x;
 111:../libDaisy/src/daisy_core.h ****     x = x >= FBIPMAX ? FBIPMAX : x;
 112:../libDaisy/src/daisy_core.h ****     return (int32_t)(x * F2S8_SCALE);
 113:../libDaisy/src/daisy_core.h **** }
 114:../libDaisy/src/daisy_core.h **** 
 115:../libDaisy/src/daisy_core.h **** /** 
 116:../libDaisy/src/daisy_core.h ****     Converts Signed 16-bit to float
 117:../libDaisy/src/daisy_core.h ****     \param x Number to be scaled.
 118:../libDaisy/src/daisy_core.h ****     \return Scaled number.
 119:../libDaisy/src/daisy_core.h **** */
 120:../libDaisy/src/daisy_core.h **** FORCE_INLINE float s162f(int16_t x)
 1460              		.loc 8 120 20 view .LVU370
 1461              	.LBB330:
 121:../libDaisy/src/daisy_core.h **** {
 122:../libDaisy/src/daisy_core.h ****     return (float)x * S162F_SCALE;
ARM GAS  /var/folders/2p/02m_5p7958535cp2tpgps0400000gn/T//ccCr8gkt.s 			page 45


 1462              		.loc 8 122 5 view .LVU371
 1463              		.loc 8 122 5 is_stmt 0 view .LVU372
 1464              	.LBE330:
 1465              	.LBE329:
 1466              		.loc 2 344 24 view .LVU373
 1467 0022 D0F87465 		ldr	r6, [r0, #1396]
 1468              		.loc 2 344 51 view .LVU374
 1469 0026 F6EE006A 		vmov.f32	s13, #5.0e-1
 1470              	.LBB335:
 1471              	.LBB331:
 1472              		.loc 8 122 23 view .LVU375
 1473 002a 9FED196A 		vldr.32	s12, .L83
 1474              		.loc 8 122 12 view .LVU376
 1475 002e 36F91360 		ldrsh	r6, [r6, r3, lsl #1]
 1476              	.LBE331:
 1477              	.LBE335:
 1478              		.loc 2 344 17 view .LVU377
 1479 0032 0D68     		ldr	r5, [r1]
 1480              	.LBB336:
 1481              	.LBB332:
 1482              		.loc 8 122 12 view .LVU378
 1483 0034 07EE106A 		vmov	s14, r6	@ int
 1484              	.LBE332:
 1485              	.LBE336:
 345:GrannyChordApp.cpp ****       out[1][1] = s162f(right_buf_[wav_playhead_]) * 0.5f;
 1486              		.loc 2 345 24 view .LVU379
 1487 0038 D0F87865 		ldr	r6, [r0, #1400]
 344:GrannyChordApp.cpp ****       out[1][1] = s162f(right_buf_[wav_playhead_]) * 0.5f;
 1488              		.loc 2 344 17 view .LVU380
 1489 003c 05EB8405 		add	r5, r5, r4, lsl #2
 1490              	.LBB337:
 1491              	.LBB338:
 1492              		.loc 8 122 12 view .LVU381
 1493 0040 36F91360 		ldrsh	r6, [r6, r3, lsl #1]
 1494              	.LBE338:
 1495              	.LBE337:
 1496              	.LBB343:
 1497              	.LBB333:
 1498 0044 B8EEC77A 		vcvt.f32.s32	s14, s14
 1499              	.LBE333:
 1500              	.LBE343:
 346:GrannyChordApp.cpp ****       wav_playhead_++;
 1501              		.loc 2 346 20 view .LVU382
 1502 0048 0133     		adds	r3, r3, #1
 1503              	.LBB344:
 1504              	.LBB339:
 1505              		.loc 8 122 12 view .LVU383
 1506 004a 07EE906A 		vmov	s15, r6	@ int
 1507              	.LBE339:
 1508              	.LBE344:
 1509              	.LBB345:
 1510              	.LBB334:
 1511              		.loc 8 122 23 view .LVU384
 1512 004e 27EE067A 		vmul.f32	s14, s14, s12
 1513              	.LBE334:
 1514              	.LBE345:
 1515              	.LBB346:
ARM GAS  /var/folders/2p/02m_5p7958535cp2tpgps0400000gn/T//ccCr8gkt.s 			page 46


 1516              	.LBB340:
 1517              		.loc 8 122 12 view .LVU385
 1518 0052 F8EEE77A 		vcvt.f32.s32	s15, s15
 1519              	.LBE340:
 1520              	.LBE346:
 344:GrannyChordApp.cpp ****       out[1][1] = s162f(right_buf_[wav_playhead_]) * 0.5f;
 1521              		.loc 2 344 51 view .LVU386
 1522 0056 27EE267A 		vmul.f32	s14, s14, s13
 1523              	.LBB347:
 1524              	.LBB341:
 1525              		.loc 8 122 23 view .LVU387
 1526 005a 67EE867A 		vmul.f32	s15, s15, s12
 1527              	.LBE341:
 1528              	.LBE347:
 344:GrannyChordApp.cpp ****       out[1][1] = s162f(right_buf_[wav_playhead_]) * 0.5f;
 1529              		.loc 2 344 17 view .LVU388
 1530 005e 85ED007A 		vstr.32	s14, [r5]
 345:GrannyChordApp.cpp ****       out[1][1] = s162f(right_buf_[wav_playhead_]) * 0.5f;
 1531              		.loc 2 345 7 is_stmt 1 view .LVU389
 1532              	.LVL106:
 1533              	.LBB348:
 1534              	.LBI337:
 120:../libDaisy/src/daisy_core.h **** {
 1535              		.loc 8 120 20 view .LVU390
 1536              	.LBB342:
 1537              		.loc 8 122 5 view .LVU391
 1538              		.loc 8 122 5 is_stmt 0 view .LVU392
 1539              	.LBE342:
 1540              	.LBE348:
 345:GrannyChordApp.cpp ****       wav_playhead_++;
 1541              		.loc 2 345 52 view .LVU393
 1542 0062 67EEA67A 		vmul.f32	s15, s15, s13
 345:GrannyChordApp.cpp ****       wav_playhead_++;
 1543              		.loc 2 345 17 view .LVU394
 1544 0066 4D68     		ldr	r5, [r1, #4]
 1545 0068 C5ED017A 		vstr.32	s15, [r5, #4]
 1546              		.loc 2 346 7 is_stmt 1 view .LVU395
 1547              		.loc 2 346 20 is_stmt 0 view .LVU396
 1548 006c C0F88435 		str	r3, [r0, #1412]
 1549              	.L79:
 342:GrannyChordApp.cpp ****     if (wav_playhead_ < filemgr_.GetSamplesPerChannel()){
 1550              		.loc 2 342 3 is_stmt 1 discriminator 2 view .LVU397
 1551 0070 0134     		adds	r4, r4, #1
 1552              	.LVL107:
 342:GrannyChordApp.cpp ****     if (wav_playhead_ < filemgr_.GetSamplesPerChannel()){
 1553              		.loc 2 342 3 is_stmt 0 discriminator 2 view .LVU398
 1554 0072 C7E7     		b	.L80
 1555              	.L78:
 342:GrannyChordApp.cpp ****     if (wav_playhead_ < filemgr_.GetSamplesPerChannel()){
 1556              		.loc 2 342 3 discriminator 2 view .LVU399
 1557              	.LBE326:
 347:GrannyChordApp.cpp ****     }
 348:GrannyChordApp.cpp ****   }
 349:GrannyChordApp.cpp ****   if (wav_playhead_%48000==0){
 1558              		.loc 2 349 3 is_stmt 1 view .LVU400
 1559              	.LBB349:
 342:GrannyChordApp.cpp ****     if (wav_playhead_ < filemgr_.GetSamplesPerChannel()){
ARM GAS  /var/folders/2p/02m_5p7958535cp2tpgps0400000gn/T//ccCr8gkt.s 			page 47


 1560              		.loc 2 342 3 is_stmt 0 view .LVU401
 1561 0074 4BF68032 		movw	r2, #48000
 1562              	.LVL108:
 342:GrannyChordApp.cpp ****     if (wav_playhead_ < filemgr_.GetSamplesPerChannel()){
 1563              		.loc 2 342 3 view .LVU402
 1564 0078 B3FBF2F1 		udiv	r1, r3, r2
 1565              	.LVL109:
 342:GrannyChordApp.cpp ****     if (wav_playhead_ < filemgr_.GetSamplesPerChannel()){
 1566              		.loc 2 342 3 view .LVU403
 1567 007c 02FB1133 		mls	r3, r2, r1, r3
 1568              	.LBE349:
 1569              		.loc 2 349 3 view .LVU404
 1570 0080 1BB9     		cbnz	r3, .L77
 350:GrannyChordApp.cpp ****     pod_.seed.PrintLine("+1s");
 1571              		.loc 2 350 5 is_stmt 1 view .LVU405
 1572              	.LVL110:
 1573              	.LBB350:
 1574              	.LBI350:
 126:../libDaisy/src/daisy_seed.h ****     {
 1575              		.loc 4 126 17 view .LVU406
 1576              	.LBB351:
 1577              		.loc 4 128 23 is_stmt 0 view .LVU407
 1578 0082 0448     		ldr	r0, .L83+4
 1579              	.LVL111:
 1580              		.loc 4 128 23 view .LVU408
 1581              	.LBE351:
 1582              	.LBE350:
 351:GrannyChordApp.cpp ****   }
 352:GrannyChordApp.cpp **** }
 1583              		.loc 2 352 1 view .LVU409
 1584 0084 70BC     		pop	{r4, r5, r6}
 1585              		.cfi_remember_state
 1586              		.cfi_restore 6
 1587              		.cfi_restore 5
 1588              		.cfi_restore 4
 1589              		.cfi_def_cfa_offset 0
 1590              	.LVL112:
 1591              	.LBB353:
 1592              	.LBB352:
 1593              		.loc 4 128 23 view .LVU410
 1594 0086 FFF7FEBF 		b	_ZN5daisy6LoggerILNS_17LoggerDestinationE1EE9PrintLineEPKcz
 1595              	.LVL113:
 1596              	.L77:
 1597              		.cfi_restore_state
 1598              		.loc 4 128 23 view .LVU411
 1599              	.LBE352:
 1600              	.LBE353:
 1601              		.loc 2 352 1 view .LVU412
 1602 008a 70BC     		pop	{r4, r5, r6}
 1603              		.cfi_restore 6
 1604              		.cfi_restore 5
 1605              		.cfi_restore 4
 1606              		.cfi_def_cfa_offset 0
 1607              	.LVL114:
 1608              		.loc 2 352 1 view .LVU413
 1609 008c 7047     		bx	lr
 1610              	.L84:
ARM GAS  /var/folders/2p/02m_5p7958535cp2tpgps0400000gn/T//ccCr8gkt.s 			page 48


 1611 008e 00BF     		.align	2
 1612              	.L83:
 1613 0090 00000038 		.word	939524096
 1614 0094 00000000 		.word	.LC7
 1615              		.cfi_endproc
 1616              	.LFE4925:
 1618              		.section	.text._ZN14GrannyChordApp15ProcessRecordInEPKPKfPPfj,"ax",%progbits
 1619              		.align	1
 1620              		.global	_ZN14GrannyChordApp15ProcessRecordInEPKPKfPPfj
 1621              		.syntax unified
 1622              		.thumb
 1623              		.thumb_func
 1625              	_ZN14GrannyChordApp15ProcessRecordInEPKPKfPPfj:
 1626              	.LVL115:
 1627              	.LFB4926:
 353:GrannyChordApp.cpp **** 
 354:GrannyChordApp.cpp **** /// @brief Process input audio when app is in RecordIn state
 355:GrannyChordApp.cpp **** /// @param in Input audio buffer
 356:GrannyChordApp.cpp **** /// @param out Output audio buffer
 357:GrannyChordApp.cpp **** /// @param size Number of samples to process in this call
 358:GrannyChordApp.cpp **** void GrannyChordApp::ProcessRecordIn(AudioHandle::InputBuffer in, AudioHandle::OutputBuffer out, si
 1628              		.loc 2 358 110 is_stmt 1 view -0
 1629              		.cfi_startproc
 1630              		@ args = 0, pretend = 0, frame = 0
 1631              		@ frame_needed = 0, uses_anonymous_args = 0
 359:GrannyChordApp.cpp ****   const size_t MAX_RECORDING_LEN = 60*48000; /* 60s @ 48kHZ */
 1632              		.loc 2 359 3 view .LVU415
 360:GrannyChordApp.cpp ****   size_t record_pos = 0;
 1633              		.loc 2 360 3 view .LVU416
 361:GrannyChordApp.cpp ****   for (size_t i=0; i<size;i++){
 1634              		.loc 2 361 3 view .LVU417
 358:GrannyChordApp.cpp ****   const size_t MAX_RECORDING_LEN = 60*48000; /* 60s @ 48kHZ */
 1635              		.loc 2 358 110 is_stmt 0 view .LVU418
 1636 0000 F0B5     		push	{r4, r5, r6, r7, lr}
 1637              		.cfi_def_cfa_offset 20
 1638              		.cfi_offset 4, -20
 1639              		.cfi_offset 5, -16
 1640              		.cfi_offset 6, -12
 1641              		.cfi_offset 7, -8
 1642              		.cfi_offset 14, -4
 1643              	.LBB354:
 1644              		.loc 2 361 15 view .LVU419
 1645 0002 0024     		movs	r4, #0
 1646              	.LBE354:
 360:GrannyChordApp.cpp ****   size_t record_pos = 0;
 1647              		.loc 2 360 10 view .LVU420
 1648 0004 2546     		mov	r5, r4
 1649              	.LVL116:
 1650              	.L87:
 1651              	.LBB355:
 1652              		.loc 2 361 21 is_stmt 1 discriminator 3 view .LVU421
 1653 0006 9C42     		cmp	r4, r3
 1654 0008 2DD0     		beq	.L85
 362:GrannyChordApp.cpp ****     /* send audio in straight to output for monitoring */
 363:GrannyChordApp.cpp ****     out[0][i]=in[0][i];
 1655              		.loc 2 363 5 discriminator 2 view .LVU422
 1656              		.loc 2 363 22 is_stmt 0 discriminator 2 view .LVU423
ARM GAS  /var/folders/2p/02m_5p7958535cp2tpgps0400000gn/T//ccCr8gkt.s 			page 49


 1657 000a 0E68     		ldr	r6, [r1]
 1658              		.loc 2 363 14 discriminator 2 view .LVU424
 1659 000c 1768     		ldr	r7, [r2]
 1660              		.loc 2 363 22 discriminator 2 view .LVU425
 1661 000e 06EB8406 		add	r6, r6, r4, lsl #2
 1662              		.loc 2 363 14 discriminator 2 view .LVU426
 1663 0012 07EB8407 		add	r7, r7, r4, lsl #2
 1664              		.loc 2 363 22 discriminator 2 view .LVU427
 1665 0016 D6F800C0 		ldr	ip, [r6]	@ float
 1666              		.loc 2 363 14 discriminator 2 view .LVU428
 1667 001a C7F800C0 		str	ip, [r7]	@ float
 364:GrannyChordApp.cpp ****     out[1][i]=in[1][i];
 1668              		.loc 2 364 5 is_stmt 1 discriminator 2 view .LVU429
 1669              		.loc 2 364 22 is_stmt 0 discriminator 2 view .LVU430
 1670 001e 4F68     		ldr	r7, [r1, #4]
 1671 0020 07EB8407 		add	r7, r7, r4, lsl #2
 1672 0024 D7ED007A 		vldr.32	s15, [r7]
 1673              		.loc 2 364 14 discriminator 2 view .LVU431
 1674 0028 5768     		ldr	r7, [r2, #4]
 1675 002a 07EB8407 		add	r7, r7, r4, lsl #2
 361:GrannyChordApp.cpp ****     /* send audio in straight to output for monitoring */
 1676              		.loc 2 361 3 discriminator 2 view .LVU432
 1677 002e 0134     		adds	r4, r4, #1
 1678              	.LVL117:
 1679              		.loc 2 364 14 discriminator 2 view .LVU433
 1680 0030 C7ED007A 		vstr.32	s15, [r7]
 365:GrannyChordApp.cpp **** 
 366:GrannyChordApp.cpp ****     /* record audio in to SDRAM buffers */
 367:GrannyChordApp.cpp ****     left_buf_[record_pos] = in[0][i];
 1681              		.loc 2 367 5 is_stmt 1 discriminator 2 view .LVU434
 368:GrannyChordApp.cpp ****     right_buf_[record_pos] = in[1][i];
 1682              		.loc 2 368 28 is_stmt 0 discriminator 2 view .LVU435
 1683 0034 FDEEE77A 		vcvt.s32.f32	s15, s15
 367:GrannyChordApp.cpp ****     right_buf_[record_pos] = in[1][i];
 1684              		.loc 2 367 27 discriminator 2 view .LVU436
 1685 0038 96ED007A 		vldr.32	s14, [r6]
 1686 003c D0F87475 		ldr	r7, [r0, #1396]
 1687 0040 BDEEC77A 		vcvt.s32.f32	s14, s14
 1688 0044 17EE106A 		vmov	r6, s14	@ int
 1689 0048 27F81560 		strh	r6, [r7, r5, lsl #1]	@ movhi
 1690              		.loc 2 368 5 is_stmt 1 discriminator 2 view .LVU437
 1691              		.loc 2 368 28 is_stmt 0 discriminator 2 view .LVU438
 1692 004c 17EE907A 		vmov	r7, s15	@ int
 1693 0050 D0F87865 		ldr	r6, [r0, #1400]
 1694 0054 26F81570 		strh	r7, [r6, r5, lsl #1]	@ movhi
 369:GrannyChordApp.cpp **** 
 370:GrannyChordApp.cpp ****     /* wrap around recording length - if it exceeds 60s,
 371:GrannyChordApp.cpp ****       the start of the recording will be overwritten */
 372:GrannyChordApp.cpp ****     record_pos = (record_pos+1)%MAX_RECORDING_LEN;
 1695              		.loc 2 372 5 is_stmt 1 discriminator 2 view .LVU439
 1696              		.loc 2 372 29 is_stmt 0 discriminator 2 view .LVU440
 1697 0058 0135     		adds	r5, r5, #1
 1698              	.LVL118:
 1699              		.loc 2 372 16 discriminator 2 view .LVU441
 1700 005a 034E     		ldr	r6, .L89
 1701 005c B5FBF6F7 		udiv	r7, r5, r6
 1702 0060 06FB1755 		mls	r5, r6, r7, r5
ARM GAS  /var/folders/2p/02m_5p7958535cp2tpgps0400000gn/T//ccCr8gkt.s 			page 50


 1703              	.LVL119:
 361:GrannyChordApp.cpp ****     /* send audio in straight to output for monitoring */
 1704              		.loc 2 361 3 is_stmt 1 discriminator 2 view .LVU442
 361:GrannyChordApp.cpp ****     /* send audio in straight to output for monitoring */
 1705              		.loc 2 361 3 is_stmt 0 discriminator 2 view .LVU443
 1706 0064 CFE7     		b	.L87
 1707              	.L85:
 361:GrannyChordApp.cpp ****     /* send audio in straight to output for monitoring */
 1708              		.loc 2 361 3 discriminator 2 view .LVU444
 1709              	.LBE355:
 373:GrannyChordApp.cpp ****   }
 374:GrannyChordApp.cpp **** }
 1710              		.loc 2 374 1 view .LVU445
 1711 0066 F0BD     		pop	{r4, r5, r6, r7, pc}
 1712              	.LVL120:
 1713              	.L90:
 1714              		.loc 2 374 1 view .LVU446
 1715              		.align	2
 1716              	.L89:
 1717 0068 00F22B00 		.word	2880000
 1718              		.cfi_endproc
 1719              	.LFE4926:
 1721              		.section	.text._ZN14GrannyChordApp16ProcessSynthesisEPPfj,"ax",%progbits
 1722              		.align	1
 1723              		.global	_ZN14GrannyChordApp16ProcessSynthesisEPPfj
 1724              		.syntax unified
 1725              		.thumb
 1726              		.thumb_func
 1728              	_ZN14GrannyChordApp16ProcessSynthesisEPPfj:
 1729              	.LVL121:
 1730              	.LFB4927:
 375:GrannyChordApp.cpp **** 
 376:GrannyChordApp.cpp **** /// @brief Process audio through granular synth and mix to output buffer
 377:GrannyChordApp.cpp **** /// @param out Output audio buffer
 378:GrannyChordApp.cpp **** /// @param size Number of samples to process in this call
 379:GrannyChordApp.cpp **** void GrannyChordApp::ProcessSynthesis(AudioHandle::OutputBuffer out, size_t size){
 1731              		.loc 2 379 82 is_stmt 1 view -0
 1732              		.cfi_startproc
 1733              		@ args = 0, pretend = 0, frame = 8
 1734              		@ frame_needed = 0, uses_anonymous_args = 0
 380:GrannyChordApp.cpp ****   // for (size_t i=0; i<size; i++){ // NOTE: is this correct? do i need to loop? don't think so
 381:GrannyChordApp.cpp ****     synth_.ProcessGrains(out[0],out[1],size); 
 1735              		.loc 2 381 5 view .LVU448
 379:GrannyChordApp.cpp ****   // for (size_t i=0; i<size; i++){ // NOTE: is this correct? do i need to loop? don't think so
 1736              		.loc 2 379 82 is_stmt 0 view .LVU449
 1737 0000 7FB5     		push	{r0, r1, r2, r3, r4, r5, r6, lr}
 1738              		.cfi_def_cfa_offset 32
 1739              		.cfi_offset 4, -16
 1740              		.cfi_offset 5, -12
 1741              		.cfi_offset 6, -8
 1742              		.cfi_offset 14, -4
 379:GrannyChordApp.cpp ****   // for (size_t i=0; i<size; i++){ // NOTE: is this correct? do i need to loop? don't think so
 1743              		.loc 2 379 82 view .LVU450
 1744 0002 0D46     		mov	r5, r1
 1745 0004 1646     		mov	r6, r2
 1746 0006 0446     		mov	r4, r0
 1747              		.loc 2 381 25 view .LVU451
ARM GAS  /var/folders/2p/02m_5p7958535cp2tpgps0400000gn/T//ccCr8gkt.s 			page 51


 1748 0008 1346     		mov	r3, r2
 1749 000a 2030     		adds	r0, r0, #32
 1750              	.LVL122:
 1751              		.loc 2 381 25 view .LVU452
 1752 000c D1E90012 		ldrd	r1, r2, [r1]
 1753              	.LVL123:
 1754              		.loc 2 381 25 view .LVU453
 1755 0010 FFF7FEFF 		bl	_ZN13GranularSynth13ProcessGrainsEPfS0_j
 1756              	.LVL124:
 382:GrannyChordApp.cpp ****     comp_.ProcessBlock(out[0],out[0],size);
 1757              		.loc 2 382 5 is_stmt 1 view .LVU454
 1758              	.LBB360:
 1759              	.LBB361:
 1760              		.file 9 "../DaisySP/Source/../DaisySP-LGPL/Source/Dynamics/compressor.h"
   1:../DaisySP/Source/../DaisySP-LGPL/Source/Dynamics/compressor.h **** /*
   2:../DaisySP/Source/../DaisySP-LGPL/Source/Dynamics/compressor.h **** Copyright (c) 2023 Electrosmith, Corp, GRAME, Centre National de Creation Musicale.
   3:../DaisySP/Source/../DaisySP-LGPL/Source/Dynamics/compressor.h **** 
   4:../DaisySP/Source/../DaisySP-LGPL/Source/Dynamics/compressor.h **** Use of this source code is governed by the LGPL V2.1
   5:../DaisySP/Source/../DaisySP-LGPL/Source/Dynamics/compressor.h **** license that can be found in the LICENSE file or at
   6:../DaisySP/Source/../DaisySP-LGPL/Source/Dynamics/compressor.h **** https://opensource.org/license/lgpl-2-1/
   7:../DaisySP/Source/../DaisySP-LGPL/Source/Dynamics/compressor.h **** */
   8:../DaisySP/Source/../DaisySP-LGPL/Source/Dynamics/compressor.h **** 
   9:../DaisySP/Source/../DaisySP-LGPL/Source/Dynamics/compressor.h **** #pragma once
  10:../DaisySP/Source/../DaisySP-LGPL/Source/Dynamics/compressor.h **** #ifndef DSY_COMPRESSOR_H
  11:../DaisySP/Source/../DaisySP-LGPL/Source/Dynamics/compressor.h **** #define DSY_COMPRESSOR_H
  12:../DaisySP/Source/../DaisySP-LGPL/Source/Dynamics/compressor.h **** 
  13:../DaisySP/Source/../DaisySP-LGPL/Source/Dynamics/compressor.h **** #include "Utility/dsp.h"
  14:../DaisySP/Source/../DaisySP-LGPL/Source/Dynamics/compressor.h **** 
  15:../DaisySP/Source/../DaisySP-LGPL/Source/Dynamics/compressor.h **** namespace daisysp
  16:../DaisySP/Source/../DaisySP-LGPL/Source/Dynamics/compressor.h **** {
  17:../DaisySP/Source/../DaisySP-LGPL/Source/Dynamics/compressor.h **** /** dynamics compressor
  18:../DaisySP/Source/../DaisySP-LGPL/Source/Dynamics/compressor.h **** 
  19:../DaisySP/Source/../DaisySP-LGPL/Source/Dynamics/compressor.h **** influenced by compressor in soundpipe (from faust).
  20:../DaisySP/Source/../DaisySP-LGPL/Source/Dynamics/compressor.h **** 
  21:../DaisySP/Source/../DaisySP-LGPL/Source/Dynamics/compressor.h **** Modifications made to do:
  22:../DaisySP/Source/../DaisySP-LGPL/Source/Dynamics/compressor.h **** - Less calculations during each process loop (coefficients recalculated on parameter change).
  23:../DaisySP/Source/../DaisySP-LGPL/Source/Dynamics/compressor.h **** - C++-ified
  24:../DaisySP/Source/../DaisySP-LGPL/Source/Dynamics/compressor.h **** - added sidechain support
  25:../DaisySP/Source/../DaisySP-LGPL/Source/Dynamics/compressor.h **** - pulled gain apart for monitoring and multichannel support
  26:../DaisySP/Source/../DaisySP-LGPL/Source/Dynamics/compressor.h **** - improved readability
  27:../DaisySP/Source/../DaisySP-LGPL/Source/Dynamics/compressor.h **** - improved makeup-gain calculations
  28:../DaisySP/Source/../DaisySP-LGPL/Source/Dynamics/compressor.h **** - changing controls now costs a lot less
  29:../DaisySP/Source/../DaisySP-LGPL/Source/Dynamics/compressor.h **** - a lot less expensive
  30:../DaisySP/Source/../DaisySP-LGPL/Source/Dynamics/compressor.h **** 
  31:../DaisySP/Source/../DaisySP-LGPL/Source/Dynamics/compressor.h **** by: shensley, improved upon by AvAars
  32:../DaisySP/Source/../DaisySP-LGPL/Source/Dynamics/compressor.h **** \todo Add soft/hard knee settings
  33:../DaisySP/Source/../DaisySP-LGPL/Source/Dynamics/compressor.h **** */
  34:../DaisySP/Source/../DaisySP-LGPL/Source/Dynamics/compressor.h **** class Compressor
  35:../DaisySP/Source/../DaisySP-LGPL/Source/Dynamics/compressor.h **** {
  36:../DaisySP/Source/../DaisySP-LGPL/Source/Dynamics/compressor.h ****   public:
  37:../DaisySP/Source/../DaisySP-LGPL/Source/Dynamics/compressor.h ****     Compressor() {}
  38:../DaisySP/Source/../DaisySP-LGPL/Source/Dynamics/compressor.h ****     ~Compressor() {}
  39:../DaisySP/Source/../DaisySP-LGPL/Source/Dynamics/compressor.h ****     /** Initializes compressor
  40:../DaisySP/Source/../DaisySP-LGPL/Source/Dynamics/compressor.h ****         \param sample_rate rate at which samples will be produced by the audio engine.
  41:../DaisySP/Source/../DaisySP-LGPL/Source/Dynamics/compressor.h ****     */
  42:../DaisySP/Source/../DaisySP-LGPL/Source/Dynamics/compressor.h ****     void Init(float sample_rate);
  43:../DaisySP/Source/../DaisySP-LGPL/Source/Dynamics/compressor.h **** 
ARM GAS  /var/folders/2p/02m_5p7958535cp2tpgps0400000gn/T//ccCr8gkt.s 			page 52


  44:../DaisySP/Source/../DaisySP-LGPL/Source/Dynamics/compressor.h ****     /** Compress the audio input signal, saves the calculated gain
  45:../DaisySP/Source/../DaisySP-LGPL/Source/Dynamics/compressor.h ****         \param in audio input signal
  46:../DaisySP/Source/../DaisySP-LGPL/Source/Dynamics/compressor.h ****     */
  47:../DaisySP/Source/../DaisySP-LGPL/Source/Dynamics/compressor.h ****     float Process(float in);
  48:../DaisySP/Source/../DaisySP-LGPL/Source/Dynamics/compressor.h **** 
  49:../DaisySP/Source/../DaisySP-LGPL/Source/Dynamics/compressor.h ****     /** Compresses the audio input signal, keyed by a secondary input.
  50:../DaisySP/Source/../DaisySP-LGPL/Source/Dynamics/compressor.h ****         \param in audio input signal (to be compressed)
  51:../DaisySP/Source/../DaisySP-LGPL/Source/Dynamics/compressor.h ****         \param key audio input that will be used to side-chain the compressor
  52:../DaisySP/Source/../DaisySP-LGPL/Source/Dynamics/compressor.h ****     */
  53:../DaisySP/Source/../DaisySP-LGPL/Source/Dynamics/compressor.h ****     float Process(float in, float key)
  54:../DaisySP/Source/../DaisySP-LGPL/Source/Dynamics/compressor.h ****     {
  55:../DaisySP/Source/../DaisySP-LGPL/Source/Dynamics/compressor.h ****         Process(key);
  56:../DaisySP/Source/../DaisySP-LGPL/Source/Dynamics/compressor.h ****         return Apply(in);
  57:../DaisySP/Source/../DaisySP-LGPL/Source/Dynamics/compressor.h ****     }
  58:../DaisySP/Source/../DaisySP-LGPL/Source/Dynamics/compressor.h **** 
  59:../DaisySP/Source/../DaisySP-LGPL/Source/Dynamics/compressor.h ****     /** Apply compression to the audio signal, based on the previously calculated gain
  60:../DaisySP/Source/../DaisySP-LGPL/Source/Dynamics/compressor.h ****         \param in audio input signal
  61:../DaisySP/Source/../DaisySP-LGPL/Source/Dynamics/compressor.h ****     */
  62:../DaisySP/Source/../DaisySP-LGPL/Source/Dynamics/compressor.h ****     float Apply(float in) { return gain_ * in; }
  63:../DaisySP/Source/../DaisySP-LGPL/Source/Dynamics/compressor.h **** 
  64:../DaisySP/Source/../DaisySP-LGPL/Source/Dynamics/compressor.h ****     /** Compresses a block of audio
  65:../DaisySP/Source/../DaisySP-LGPL/Source/Dynamics/compressor.h ****         \param in audio input signal
  66:../DaisySP/Source/../DaisySP-LGPL/Source/Dynamics/compressor.h ****         \param out audio output signal
  67:../DaisySP/Source/../DaisySP-LGPL/Source/Dynamics/compressor.h ****         \param size the size of the block
  68:../DaisySP/Source/../DaisySP-LGPL/Source/Dynamics/compressor.h ****     */
  69:../DaisySP/Source/../DaisySP-LGPL/Source/Dynamics/compressor.h ****     void ProcessBlock(float *in, float *out, size_t size)
  70:../DaisySP/Source/../DaisySP-LGPL/Source/Dynamics/compressor.h ****     {
  71:../DaisySP/Source/../DaisySP-LGPL/Source/Dynamics/compressor.h ****         ProcessBlock(in, out, in, size);
 1761              		.loc 9 71 21 is_stmt 0 view .LVU455
 1762 0014 2B68     		ldr	r3, [r5]
 1763              	.LBE361:
 1764              	.LBE360:
 1765              		.loc 2 382 23 view .LVU456
 1766 0016 04F2DC40 		addw	r0, r4, #1244
 1767              	.LVL125:
 1768              	.LBB363:
 1769              	.LBI360:
  69:../DaisySP/Source/../DaisySP-LGPL/Source/Dynamics/compressor.h ****     {
 1770              		.loc 9 69 10 is_stmt 1 view .LVU457
 1771              	.LBB362:
 1772              		.loc 9 71 9 view .LVU458
 1773              		.loc 9 71 21 is_stmt 0 view .LVU459
 1774 001a 0096     		str	r6, [sp]
 1775 001c 1A46     		mov	r2, r3
 1776 001e 1946     		mov	r1, r3
 1777 0020 0390     		str	r0, [sp, #12]
 1778 0022 FFF7FEFF 		bl	_ZN7daisysp10Compressor12ProcessBlockEPfS1_S1_j
 1779              	.LVL126:
 1780              		.loc 9 71 21 view .LVU460
 1781              	.LBE362:
 1782              	.LBE363:
 383:GrannyChordApp.cpp ****     comp_.ProcessBlock(out[1],out[1],size);
 1783              		.loc 2 383 5 is_stmt 1 view .LVU461
 1784              		.loc 2 383 23 is_stmt 0 view .LVU462
 1785 0026 6B68     		ldr	r3, [r5, #4]
 1786              	.LVL127:
 1787              	.LBB364:
ARM GAS  /var/folders/2p/02m_5p7958535cp2tpgps0400000gn/T//ccCr8gkt.s 			page 53


 1788              	.LBI364:
  69:../DaisySP/Source/../DaisySP-LGPL/Source/Dynamics/compressor.h ****     {
 1789              		.loc 9 69 10 is_stmt 1 view .LVU463
 1790              	.LBB365:
 1791              		.loc 9 71 9 view .LVU464
 1792              		.loc 9 71 21 is_stmt 0 view .LVU465
 1793 0028 0398     		ldr	r0, [sp, #12]
 1794 002a 1A46     		mov	r2, r3
 1795 002c 1946     		mov	r1, r3
 1796 002e 0096     		str	r6, [sp]
 1797 0030 FFF7FEFF 		bl	_ZN7daisysp10Compressor12ProcessBlockEPfS1_S1_j
 1798              	.LVL128:
 1799              		.loc 9 71 21 view .LVU466
 1800              	.LBE365:
 1801              	.LBE364:
 384:GrannyChordApp.cpp **** 
 385:GrannyChordApp.cpp ****     // float temp_left[size];
 386:GrannyChordApp.cpp ****     // float temp_right[size];
 387:GrannyChordApp.cpp ****     
 388:GrannyChordApp.cpp ****     // for (size_t i=0; i<size; i++){
 389:GrannyChordApp.cpp ****     //   temp_left[i] = out[0][i];
 390:GrannyChordApp.cpp ****     //   temp_right[i] = out[1][i];
 391:GrannyChordApp.cpp ****     //   reverb_.Process(temp_left[i],temp_right[i],&out[0][i],&out[1][i]); // NOTE: check this wor
 392:GrannyChordApp.cpp ****     // }
 393:GrannyChordApp.cpp **** }
 1802              		.loc 2 393 1 view .LVU467
 1803 0034 04B0     		add	sp, sp, #16
 1804              		.cfi_def_cfa_offset 16
 1805              		@ sp needed
 1806 0036 70BD     		pop	{r4, r5, r6, pc}
 1807              		.loc 2 393 1 view .LVU468
 1808              		.cfi_endproc
 1809              	.LFE4927:
 1811              		.section	.text._ZN14GrannyChordApp12ProcessAudioEPKPKfPPfj,"ax",%progbits
 1812              		.align	1
 1813              		.global	_ZN14GrannyChordApp12ProcessAudioEPKPKfPPfj
 1814              		.syntax unified
 1815              		.thumb
 1816              		.thumb_func
 1818              	_ZN14GrannyChordApp12ProcessAudioEPKPKfPPfj:
 1819              	.LVL129:
 1820              	.LFB4924:
 304:GrannyChordApp.cpp ****   // loadmeter.OnBlockStart();
 1821              		.loc 2 304 107 is_stmt 1 view -0
 1822              		.cfi_startproc
 1823              		@ args = 0, pretend = 0, frame = 0
 1824              		@ frame_needed = 0, uses_anonymous_args = 0
 1825              		@ link register save eliminated.
 306:GrannyChordApp.cpp ****     case AppState::PlayWAV: 
 1826              		.loc 2 306 3 view .LVU470
 304:GrannyChordApp.cpp ****   // loadmeter.OnBlockStart();
 1827              		.loc 2 304 107 is_stmt 0 view .LVU471
 1828 0000 F0B4     		push	{r4, r5, r6, r7}
 1829              		.cfi_def_cfa_offset 16
 1830              		.cfi_offset 4, -16
 1831              		.cfi_offset 5, -12
 1832              		.cfi_offset 6, -8
ARM GAS  /var/folders/2p/02m_5p7958535cp2tpgps0400000gn/T//ccCr8gkt.s 			page 54


 1833              		.cfi_offset 7, -4
 306:GrannyChordApp.cpp ****     case AppState::PlayWAV: 
 1834              		.loc 2 306 10 view .LVU472
 1835 0002 D0F8D054 		ldr	r5, [r0, #1232]
 304:GrannyChordApp.cpp ****   // loadmeter.OnBlockStart();
 1836              		.loc 2 304 107 view .LVU473
 1837 0006 1646     		mov	r6, r2
 1838 0008 1F46     		mov	r7, r3
 306:GrannyChordApp.cpp ****     case AppState::PlayWAV: 
 1839              		.loc 2 306 3 view .LVU474
 1840 000a 022D     		cmp	r5, #2
 1841 000c 1FD0     		beq	.L93
 1842 000e 032D     		cmp	r5, #3
 1843 0010 1AD0     		beq	.L94
 1844 0012 012D     		cmp	r5, #1
 1845 0014 20D1     		bne	.L95
 307:GrannyChordApp.cpp ****       if (wav_playhead_>= filemgr_.GetSamplesPerChannel() -1){
 1846              		.loc 2 307 5 is_stmt 1 view .LVU475
 308:GrannyChordApp.cpp ****         instance_->pod_.StopAudio();
 1847              		.loc 2 308 7 view .LVU476
 308:GrannyChordApp.cpp ****         instance_->pod_.StopAudio();
 1848              		.loc 2 308 27 is_stmt 0 view .LVU477
 1849 0016 D0F8C834 		ldr	r3, [r0, #1224]
 1850              	.LVL130:
 1851              	.LBB366:
 1852              	.LBI366:
  27:AudioFileManager.h ****     size_t GetTotalSamples() const { return header_.total_samples; }
 1853              		.loc 3 27 12 is_stmt 1 view .LVU478
 1854              	.LBB367:
  27:AudioFileManager.h ****     size_t GetTotalSamples() const { return header_.total_samples; }
 1855              		.loc 3 27 43 view .LVU479
  27:AudioFileManager.h ****     size_t GetTotalSamples() const { return header_.total_samples; }
 1856              		.loc 3 27 58 is_stmt 0 view .LVU480
 1857 001a 03F58053 		add	r3, r3, #4096
  27:AudioFileManager.h ****     size_t GetTotalSamples() const { return header_.total_samples; }
 1858              		.loc 3 27 82 view .LVU481
 1859 001e B3F92820 		ldrsh	r2, [r3, #40]
 1860              	.LVL131:
  27:AudioFileManager.h ****     size_t GetTotalSamples() const { return header_.total_samples; }
 1861              		.loc 3 27 82 view .LVU482
 1862 0022 DD6A     		ldr	r5, [r3, #44]
 1863              	.LBE367:
 1864              	.LBE366:
 308:GrannyChordApp.cpp ****         instance_->pod_.StopAudio();
 1865              		.loc 2 308 7 view .LVU483
 1866 0024 D0F88435 		ldr	r3, [r0, #1412]
 1867              	.LBB369:
 1868              	.LBB368:
  27:AudioFileManager.h ****     size_t GetTotalSamples() const { return header_.total_samples; }
 1869              		.loc 3 27 82 view .LVU484
 1870 0028 B5FBF2F5 		udiv	r5, r5, r2
 1871              	.LBE368:
 1872              	.LBE369:
 308:GrannyChordApp.cpp ****         instance_->pod_.StopAudio();
 1873              		.loc 2 308 59 view .LVU485
 1874 002c 013D     		subs	r5, r5, #1
 308:GrannyChordApp.cpp ****         instance_->pod_.StopAudio();
ARM GAS  /var/folders/2p/02m_5p7958535cp2tpgps0400000gn/T//ccCr8gkt.s 			page 55


 1875              		.loc 2 308 7 view .LVU486
 1876 002e AB42     		cmp	r3, r5
 1877 0030 05D3     		bcc	.L96
 309:GrannyChordApp.cpp ****         return;
 1878              		.loc 2 309 9 is_stmt 1 view .LVU487
 309:GrannyChordApp.cpp ****         return;
 1879              		.loc 2 309 34 is_stmt 0 view .LVU488
 1880 0032 0A4B     		ldr	r3, .L98
 309:GrannyChordApp.cpp ****         return;
 1881              		.loc 2 309 20 view .LVU489
 1882 0034 1B68     		ldr	r3, [r3]
 309:GrannyChordApp.cpp ****         return;
 1883              		.loc 2 309 34 view .LVU490
 1884 0036 D869     		ldr	r0, [r3, #28]
 1885              	.LVL132:
 1886              	.L97:
 326:GrannyChordApp.cpp **** 
 1887              		.loc 2 326 1 view .LVU491
 1888 0038 F0BC     		pop	{r4, r5, r6, r7}
 1889              		.cfi_remember_state
 1890              		.cfi_restore 7
 1891              		.cfi_restore 6
 1892              		.cfi_restore 5
 1893              		.cfi_restore 4
 1894              		.cfi_def_cfa_offset 0
 1895              	.LVL133:
 322:GrannyChordApp.cpp ****       return;
 1896              		.loc 2 322 21 view .LVU492
 1897 003a FFF7FEBF 		b	_ZN5daisy8DaisyPod9StopAudioEv
 1898              	.LVL134:
 1899              	.L96:
 1900              		.cfi_restore_state
 312:GrannyChordApp.cpp ****       return;  
 1901              		.loc 2 312 7 is_stmt 1 view .LVU493
 312:GrannyChordApp.cpp ****       return;  
 1902              		.loc 2 312 25 is_stmt 0 view .LVU494
 1903 003e 3A46     		mov	r2, r7
 1904 0040 3146     		mov	r1, r6
 1905              	.LVL135:
 326:GrannyChordApp.cpp **** 
 1906              		.loc 2 326 1 view .LVU495
 1907 0042 F0BC     		pop	{r4, r5, r6, r7}
 1908              		.cfi_remember_state
 1909              		.cfi_restore 7
 1910              		.cfi_restore 6
 1911              		.cfi_restore 5
 1912              		.cfi_restore 4
 1913              		.cfi_def_cfa_offset 0
 1914              	.LVL136:
 312:GrannyChordApp.cpp ****       return;  
 1915              		.loc 2 312 25 view .LVU496
 1916 0044 FFF7FEBF 		b	_ZN14GrannyChordApp18ProcessWAVPlaybackEPPfj
 1917              	.LVL137:
 1918              	.L94:
 1919              		.cfi_restore_state
 314:GrannyChordApp.cpp ****       ProcessRecordIn(in, out, size);
 1920              		.loc 2 314 5 is_stmt 1 view .LVU497
ARM GAS  /var/folders/2p/02m_5p7958535cp2tpgps0400000gn/T//ccCr8gkt.s 			page 56


 315:GrannyChordApp.cpp ****       return;
 1921              		.loc 2 315 7 view .LVU498
 326:GrannyChordApp.cpp **** 
 1922              		.loc 2 326 1 is_stmt 0 view .LVU499
 1923 0048 F0BC     		pop	{r4, r5, r6, r7}
 1924              		.cfi_remember_state
 1925              		.cfi_restore 7
 1926              		.cfi_restore 6
 1927              		.cfi_restore 5
 1928              		.cfi_restore 4
 1929              		.cfi_def_cfa_offset 0
 315:GrannyChordApp.cpp ****       return;
 1930              		.loc 2 315 22 view .LVU500
 1931 004a FFF7FEBF 		b	_ZN14GrannyChordApp15ProcessRecordInEPKPKfPPfj
 1932              	.LVL138:
 1933              	.L93:
 1934              		.cfi_restore_state
 317:GrannyChordApp.cpp ****       ProcessSynthesis(out,size);
 1935              		.loc 2 317 5 is_stmt 1 view .LVU501
 318:GrannyChordApp.cpp ****       return;
 1936              		.loc 2 318 7 view .LVU502
 318:GrannyChordApp.cpp ****       return;
 1937              		.loc 2 318 23 is_stmt 0 view .LVU503
 1938 004e 3146     		mov	r1, r6
 1939              	.LVL139:
 318:GrannyChordApp.cpp ****       return;
 1940              		.loc 2 318 23 view .LVU504
 1941 0050 1A46     		mov	r2, r3
 1942              	.LVL140:
 326:GrannyChordApp.cpp **** 
 1943              		.loc 2 326 1 view .LVU505
 1944 0052 F0BC     		pop	{r4, r5, r6, r7}
 1945              		.cfi_remember_state
 1946              		.cfi_restore 7
 1947              		.cfi_restore 6
 1948              		.cfi_restore 5
 1949              		.cfi_restore 4
 1950              		.cfi_def_cfa_offset 0
 1951              	.LVL141:
 318:GrannyChordApp.cpp ****       return;
 1952              		.loc 2 318 23 view .LVU506
 1953 0054 FFF7FEBF 		b	_ZN14GrannyChordApp16ProcessSynthesisEPPfj
 1954              	.LVL142:
 1955              	.L95:
 1956              		.cfi_restore_state
 321:GrannyChordApp.cpp ****       pod_.StopAudio();
 1957              		.loc 2 321 5 is_stmt 1 view .LVU507
 322:GrannyChordApp.cpp ****       return;
 1958              		.loc 2 322 7 view .LVU508
 322:GrannyChordApp.cpp ****       return;
 1959              		.loc 2 322 21 is_stmt 0 view .LVU509
 1960 0058 C069     		ldr	r0, [r0, #28]
 1961              	.LVL143:
 322:GrannyChordApp.cpp ****       return;
 1962              		.loc 2 322 21 view .LVU510
 1963 005a EDE7     		b	.L97
 1964              	.L99:
ARM GAS  /var/folders/2p/02m_5p7958535cp2tpgps0400000gn/T//ccCr8gkt.s 			page 57


 1965              		.align	2
 1966              	.L98:
 1967 005c 00000000 		.word	.LANCHOR0
 1968              		.cfi_endproc
 1969              	.LFE4924:
 1971              		.section	.text._ZN14GrannyChordApp13AudioCallbackEPKPKfPPfj,"ax",%progbits
 1972              		.align	1
 1973              		.global	_ZN14GrannyChordApp13AudioCallbackEPKPKfPPfj
 1974              		.syntax unified
 1975              		.thumb
 1976              		.thumb_func
 1978              	_ZN14GrannyChordApp13AudioCallbackEPKPKfPPfj:
 1979              	.LVL144:
 1980              	.LFB4923:
 300:GrannyChordApp.cpp ****   instance_->ProcessAudio(in,out,size);
 1981              		.loc 2 300 108 is_stmt 1 view -0
 1982              		.cfi_startproc
 1983              		@ args = 0, pretend = 0, frame = 0
 1984              		@ frame_needed = 0, uses_anonymous_args = 0
 1985              		@ link register save eliminated.
 301:GrannyChordApp.cpp **** }
 1986              		.loc 2 301 3 view .LVU512
 300:GrannyChordApp.cpp ****   instance_->ProcessAudio(in,out,size);
 1987              		.loc 2 300 108 is_stmt 0 view .LVU513
 1988 0000 1346     		mov	r3, r2
 301:GrannyChordApp.cpp **** }
 1989              		.loc 2 301 26 view .LVU514
 1990 0002 0A46     		mov	r2, r1
 1991              	.LVL145:
 301:GrannyChordApp.cpp **** }
 1992              		.loc 2 301 26 view .LVU515
 1993 0004 0146     		mov	r1, r0
 1994              	.LVL146:
 301:GrannyChordApp.cpp **** }
 1995              		.loc 2 301 26 view .LVU516
 1996 0006 0248     		ldr	r0, .L101
 1997              	.LVL147:
 301:GrannyChordApp.cpp **** }
 1998              		.loc 2 301 26 view .LVU517
 1999 0008 0068     		ldr	r0, [r0]
 2000 000a FFF7FEBF 		b	_ZN14GrannyChordApp12ProcessAudioEPKPKfPPfj
 2001              	.LVL148:
 2002              	.L102:
 301:GrannyChordApp.cpp **** }
 2003              		.loc 2 301 26 view .LVU518
 2004 000e 00BF     		.align	2
 2005              	.L101:
 2006 0010 00000000 		.word	.LANCHOR0
 2007              		.cfi_endproc
 2008              	.LFE4923:
 2010              		.section	.text._ZN14GrannyChordApp15ToggleRecordOutEv,"ax",%progbits
 2011              		.align	1
 2012              		.global	_ZN14GrannyChordApp15ToggleRecordOutEv
 2013              		.syntax unified
 2014              		.thumb
 2015              		.thumb_func
 2017              	_ZN14GrannyChordApp15ToggleRecordOutEv:
ARM GAS  /var/folders/2p/02m_5p7958535cp2tpgps0400000gn/T//ccCr8gkt.s 			page 58


 2018              	.LVL149:
 2019              	.LFB4928:
 394:GrannyChordApp.cpp **** 
 395:GrannyChordApp.cpp **** /// @brief Process audio from chord mode and mix to output buffer
 396:GrannyChordApp.cpp **** /// @param out Output audio buffer
 397:GrannyChordApp.cpp **** /// @param size Number of samples to process in this call
 398:GrannyChordApp.cpp **** // void GrannyChordApp::ProcessChordMode(AudioHandle::OutputBuffer out, size_t size){
 399:GrannyChordApp.cpp **** //   // if (UserTriggeredChord()) {
 400:GrannyChordApp.cpp **** //   //   synth_.TriggerChord(out[0], out[1], size);
 401:GrannyChordApp.cpp **** //   // } else {
 402:GrannyChordApp.cpp **** //   //     std::memset(out[0], 0, size * sizeof(float));
 403:GrannyChordApp.cpp **** //   //     std::memset(out[1], 0, size * sizeof(float));
 404:GrannyChordApp.cpp **** //   // }
 405:GrannyChordApp.cpp **** // }
 406:GrannyChordApp.cpp **** 
 407:GrannyChordApp.cpp **** /// @brief Record granular synth or chord output audio to SD card
 408:GrannyChordApp.cpp **** /// @param out Output audio buffer
 409:GrannyChordApp.cpp **** /// @param size Number of samples to process in this call
 410:GrannyChordApp.cpp **** // void GrannyChordApp::RecordOutToSD(AudioHandle::OutputBuffer out, size_t size){
 411:GrannyChordApp.cpp **** //   InitWavWriter();
 412:GrannyChordApp.cpp **** //   char name[32];
 413:GrannyChordApp.cpp **** //   sprintf(name,"recording_%d",recording_count_);
 414:GrannyChordApp.cpp **** //   sd_out_writer_.OpenFile(name);
 415:GrannyChordApp.cpp **** //   recording_count_++;
 416:GrannyChordApp.cpp **** //   recording_out_ = true;
 417:GrannyChordApp.cpp **** // // NOTE: 
 418:GrannyChordApp.cpp **** // // USE THIS 
 419:GrannyChordApp.cpp **** // // https://electro-smith.github.io/libDaisy/classdaisy_1_1_wav_writer.html
 420:GrannyChordApp.cpp **** 
 421:GrannyChordApp.cpp **** //   // create file on sd card 
 422:GrannyChordApp.cpp **** //   // write in blocks]
 423:GrannyChordApp.cpp **** //   // will have to f2s16 to conv back to int16 
 424:GrannyChordApp.cpp **** //   // max recording duration should be 120*48000*sizeof(float)*2(channels)??
 425:GrannyChordApp.cpp **** //   // wrap around index ? or just stop recording at max length
 426:GrannyChordApp.cpp **** //   // could flash seed led if wrapping, solid if stop at max
 427:GrannyChordApp.cpp **** //   // write straight to sd card?
 428:GrannyChordApp.cpp **** //   // or is it better to write to a circular buffer in SDRAM
 429:GrannyChordApp.cpp **** //   // then asynchronously/more slowly write to SD card
 430:GrannyChordApp.cpp **** //   // reset recording buffer pointer
 431:GrannyChordApp.cpp **** //   // set up audio input gain or anything?
 432:GrannyChordApp.cpp **** //   // init sample counter for recording duration? 
 433:GrannyChordApp.cpp **** //   // when finished: update file headers
 434:GrannyChordApp.cpp **** //   // update UI to show recording finished
 435:GrannyChordApp.cpp **** // }
 436:GrannyChordApp.cpp **** 
 437:GrannyChordApp.cpp **** /// @brief Helper function to mark when audio output recording starts
 438:GrannyChordApp.cpp **** void GrannyChordApp::ToggleRecordOut(){
 2020              		.loc 2 438 39 is_stmt 1 view -0
 2021              		.cfi_startproc
 2022              		@ args = 0, pretend = 0, frame = 0
 2023              		@ frame_needed = 0, uses_anonymous_args = 0
 2024              		@ link register save eliminated.
 439:GrannyChordApp.cpp ****   recording_out_ = !recording_out_;
 2025              		.loc 2 439 3 view .LVU520
 2026              		.loc 2 439 20 is_stmt 0 view .LVU521
 2027 0000 90F84436 		ldrb	r3, [r0, #1604]	@ zero_extendqisi2
 2028 0004 83F00103 		eor	r3, r3, #1
ARM GAS  /var/folders/2p/02m_5p7958535cp2tpgps0400000gn/T//ccCr8gkt.s 			page 59


 2029              		.loc 2 439 18 view .LVU522
 2030 0008 80F84436 		strb	r3, [r0, #1604]
 440:GrannyChordApp.cpp **** }
 2031              		.loc 2 440 1 view .LVU523
 2032 000c 7047     		bx	lr
 2033              		.cfi_endproc
 2034              	.LFE4928:
 2036              		.section	.text._ZN14GrannyChordApp17UpdateKnob1ParamsEf9SynthMode,"ax",%progbits
 2037              		.align	1
 2038              		.global	_ZN14GrannyChordApp17UpdateKnob1ParamsEf9SynthMode
 2039              		.syntax unified
 2040              		.thumb
 2041              		.thumb_func
 2043              	_ZN14GrannyChordApp17UpdateKnob1ParamsEf9SynthMode:
 2044              	.LVL150:
 2045              	.LFB4929:
 441:GrannyChordApp.cpp **** 
 442:GrannyChordApp.cpp **** 
 443:GrannyChordApp.cpp **** void GrannyChordApp::UpdateKnob1Params(float knob1_val, SynthMode mode){
 2046              		.loc 2 443 72 is_stmt 1 view -0
 2047              		.cfi_startproc
 2048              		@ args = 0, pretend = 0, frame = 0
 2049              		@ frame_needed = 0, uses_anonymous_args = 0
 2050              		@ link register save eliminated.
 444:GrannyChordApp.cpp ****   switch (mode){
 2051              		.loc 2 444 3 view .LVU525
 2052 0000 0829     		cmp	r1, #8
 2053 0002 46D8     		bhi	.L104
 2054 0004 DFE801F0 		tbb	[pc, r1]
 2055              	.L107:
 2056 0008 05       		.byte	(.L115-.L107)/2
 2057 0009 08       		.byte	(.L114-.L107)/2
 2058 000a 0E       		.byte	(.L113-.L107)/2
 2059 000b 21       		.byte	(.L112-.L107)/2
 2060 000c 26       		.byte	(.L111-.L107)/2
 2061 000d 29       		.byte	(.L110-.L107)/2
 2062 000e 0B       		.byte	(.L109-.L107)/2
 2063 000f 2C       		.byte	(.L108-.L107)/2
 2064 0010 31       		.byte	(.L106-.L107)/2
 2065 0011 00       		.p2align 1
 2066              	.L115:
 445:GrannyChordApp.cpp ****     case SynthMode::Size_Position:
 2067              		.loc 2 445 5 view .LVU526
 446:GrannyChordApp.cpp ****       synth_.SetGrainSize(knob1_val);
 2068              		.loc 2 446 7 view .LVU527
 2069              		.loc 2 446 26 is_stmt 0 view .LVU528
 2070 0012 2030     		adds	r0, r0, #32
 2071              	.LVL151:
 2072              		.loc 2 446 26 view .LVU529
 2073 0014 FFF7FEBF 		b	_ZN13GranularSynth12SetGrainSizeEf
 2074              	.LVL152:
 2075              	.L114:
 447:GrannyChordApp.cpp ****       return;
 448:GrannyChordApp.cpp ****     case SynthMode::Pitch_ActiveGrains:
 2076              		.loc 2 448 5 is_stmt 1 view .LVU530
 449:GrannyChordApp.cpp ****       synth_.SetPitchRatio(knob1_val);
 2077              		.loc 2 449 7 view .LVU531
ARM GAS  /var/folders/2p/02m_5p7958535cp2tpgps0400000gn/T//ccCr8gkt.s 			page 60


 2078              		.loc 2 449 27 is_stmt 0 view .LVU532
 2079 0018 2030     		adds	r0, r0, #32
 2080              	.LVL153:
 2081              		.loc 2 449 27 view .LVU533
 2082 001a FFF7FEBF 		b	_ZN13GranularSynth13SetPitchRatioEf
 2083              	.LVL154:
 2084              	.L109:
 450:GrannyChordApp.cpp ****       return;
 451:GrannyChordApp.cpp ****     case SynthMode::Pan_PanRnd:
 2085              		.loc 2 451 5 is_stmt 1 view .LVU534
 452:GrannyChordApp.cpp ****       synth_.SetPan(knob1_val);
 2086              		.loc 2 452 7 view .LVU535
 2087              		.loc 2 452 20 is_stmt 0 view .LVU536
 2088 001e 2030     		adds	r0, r0, #32
 2089              	.LVL155:
 2090              		.loc 2 452 20 view .LVU537
 2091 0020 FFF7FEBF 		b	_ZN13GranularSynth6SetPanEf
 2092              	.LVL156:
 2093              	.L113:
 453:GrannyChordApp.cpp ****       return;
 454:GrannyChordApp.cpp ****     case SynthMode::PhasorMode_EnvType:
 2094              		.loc 2 454 5 is_stmt 1 view .LVU538
 455:GrannyChordApp.cpp ****       knob1_val = fmap(knob1_val, 0, NUM_PHASOR_MODES);
 2095              		.loc 2 455 7 view .LVU539
 2096              	.LBB370:
 2097              	.LBI370:
 2098              		.file 10 "../DaisySP/Source/Utility/dsp.h"
   1:../DaisySP/Source/Utility/dsp.h **** /*
   2:../DaisySP/Source/Utility/dsp.h **** Copyright (c) 2020 Electrosmith, Corp, Emilie Gillet
   3:../DaisySP/Source/Utility/dsp.h **** 
   4:../DaisySP/Source/Utility/dsp.h **** Use of this source code is governed by an MIT-style
   5:../DaisySP/Source/Utility/dsp.h **** license that can be found in the LICENSE file or at
   6:../DaisySP/Source/Utility/dsp.h **** https://opensource.org/licenses/MIT.
   7:../DaisySP/Source/Utility/dsp.h **** */
   8:../DaisySP/Source/Utility/dsp.h **** 
   9:../DaisySP/Source/Utility/dsp.h **** /** Helpful defines, functions, and other utilities for use in/with daisysp modules.
  10:../DaisySP/Source/Utility/dsp.h **** */
  11:../DaisySP/Source/Utility/dsp.h **** #pragma once
  12:../DaisySP/Source/Utility/dsp.h **** #ifndef DSY_CORE_DSP
  13:../DaisySP/Source/Utility/dsp.h **** #define DSY_CORE_DSP
  14:../DaisySP/Source/Utility/dsp.h **** #include <cassert>
  15:../DaisySP/Source/Utility/dsp.h **** #include <cstdint>
  16:../DaisySP/Source/Utility/dsp.h **** #include <random>
  17:../DaisySP/Source/Utility/dsp.h **** #include <cmath>
  18:../DaisySP/Source/Utility/dsp.h **** 
  19:../DaisySP/Source/Utility/dsp.h **** /** PIs
  20:../DaisySP/Source/Utility/dsp.h **** */
  21:../DaisySP/Source/Utility/dsp.h **** #define PI_F 3.1415927410125732421875f
  22:../DaisySP/Source/Utility/dsp.h **** #define TWOPI_F (2.0f * PI_F)
  23:../DaisySP/Source/Utility/dsp.h **** #define HALFPI_F (PI_F * 0.5f)
  24:../DaisySP/Source/Utility/dsp.h **** #define DSY_MIN(in, mn) (in < mn ? in : mn)
  25:../DaisySP/Source/Utility/dsp.h **** #define DSY_MAX(in, mx) (in > mx ? in : mx)
  26:../DaisySP/Source/Utility/dsp.h **** #define DSY_CLAMP(in, mn, mx) (DSY_MIN(DSY_MAX(in, mn), mx))
  27:../DaisySP/Source/Utility/dsp.h **** #define DSY_COUNTOF(_arr) (sizeof(_arr) / sizeof(_arr[0]))
  28:../DaisySP/Source/Utility/dsp.h **** 
  29:../DaisySP/Source/Utility/dsp.h **** namespace daisysp
  30:../DaisySP/Source/Utility/dsp.h **** {
ARM GAS  /var/folders/2p/02m_5p7958535cp2tpgps0400000gn/T//ccCr8gkt.s 			page 61


  31:../DaisySP/Source/Utility/dsp.h **** //Avoids division for random floats. e.g. rand() * kRandFrac
  32:../DaisySP/Source/Utility/dsp.h **** static constexpr float kRandFrac = 1.f / (float)RAND_MAX;
  33:../DaisySP/Source/Utility/dsp.h **** 
  34:../DaisySP/Source/Utility/dsp.h **** //Convert from semitones to other units. e.g. 2 ^ (kOneTwelfth * x)
  35:../DaisySP/Source/Utility/dsp.h **** static constexpr float kOneTwelfth = 1.f / 12.f;
  36:../DaisySP/Source/Utility/dsp.h **** 
  37:../DaisySP/Source/Utility/dsp.h **** /** efficient floating point min/max
  38:../DaisySP/Source/Utility/dsp.h **** c/o stephen mccaul
  39:../DaisySP/Source/Utility/dsp.h **** */
  40:../DaisySP/Source/Utility/dsp.h **** inline float fmax(float a, float b)
  41:../DaisySP/Source/Utility/dsp.h **** {
  42:../DaisySP/Source/Utility/dsp.h ****     float r;
  43:../DaisySP/Source/Utility/dsp.h **** #ifdef __arm__
  44:../DaisySP/Source/Utility/dsp.h ****     asm("vmaxnm.f32 %[d], %[n], %[m]" : [d] "=t"(r) : [n] "t"(a), [m] "t"(b) :);
  45:../DaisySP/Source/Utility/dsp.h **** #else
  46:../DaisySP/Source/Utility/dsp.h ****     r = (a > b) ? a : b;
  47:../DaisySP/Source/Utility/dsp.h **** #endif // __arm__
  48:../DaisySP/Source/Utility/dsp.h ****     return r;
  49:../DaisySP/Source/Utility/dsp.h **** }
  50:../DaisySP/Source/Utility/dsp.h **** 
  51:../DaisySP/Source/Utility/dsp.h **** inline float fmin(float a, float b)
  52:../DaisySP/Source/Utility/dsp.h **** {
  53:../DaisySP/Source/Utility/dsp.h ****     float r;
  54:../DaisySP/Source/Utility/dsp.h **** #ifdef __arm__
  55:../DaisySP/Source/Utility/dsp.h ****     asm("vminnm.f32 %[d], %[n], %[m]" : [d] "=t"(r) : [n] "t"(a), [m] "t"(b) :);
  56:../DaisySP/Source/Utility/dsp.h **** #else
  57:../DaisySP/Source/Utility/dsp.h ****     r = (a < b) ? a : b;
  58:../DaisySP/Source/Utility/dsp.h **** #endif // __arm__
  59:../DaisySP/Source/Utility/dsp.h ****     return r;
  60:../DaisySP/Source/Utility/dsp.h **** }
  61:../DaisySP/Source/Utility/dsp.h **** 
  62:../DaisySP/Source/Utility/dsp.h **** /** quick fp clamp
  63:../DaisySP/Source/Utility/dsp.h **** */
  64:../DaisySP/Source/Utility/dsp.h **** inline float fclamp(float in, float min, float max)
  65:../DaisySP/Source/Utility/dsp.h **** {
  66:../DaisySP/Source/Utility/dsp.h ****     return fmin(fmax(in, min), max);
  67:../DaisySP/Source/Utility/dsp.h **** }
  68:../DaisySP/Source/Utility/dsp.h **** 
  69:../DaisySP/Source/Utility/dsp.h **** /** From Musicdsp.org "Fast power and root estimates for 32bit floats)
  70:../DaisySP/Source/Utility/dsp.h **** Original code by Stefan Stenzel
  71:../DaisySP/Source/Utility/dsp.h **** These are approximations
  72:../DaisySP/Source/Utility/dsp.h **** */
  73:../DaisySP/Source/Utility/dsp.h **** inline float fastpower(float f, int n)
  74:../DaisySP/Source/Utility/dsp.h **** {
  75:../DaisySP/Source/Utility/dsp.h ****     long *lp, l;
  76:../DaisySP/Source/Utility/dsp.h ****     lp = (long *)(&f);
  77:../DaisySP/Source/Utility/dsp.h ****     l  = *lp;
  78:../DaisySP/Source/Utility/dsp.h ****     l -= 0x3F800000;
  79:../DaisySP/Source/Utility/dsp.h ****     l <<= (n - 1);
  80:../DaisySP/Source/Utility/dsp.h ****     l += 0x3F800000;
  81:../DaisySP/Source/Utility/dsp.h ****     *lp = l;
  82:../DaisySP/Source/Utility/dsp.h ****     return f;
  83:../DaisySP/Source/Utility/dsp.h **** }
  84:../DaisySP/Source/Utility/dsp.h **** 
  85:../DaisySP/Source/Utility/dsp.h **** inline float fastroot(float f, int n)
  86:../DaisySP/Source/Utility/dsp.h **** {
  87:../DaisySP/Source/Utility/dsp.h ****     long *lp, l;
ARM GAS  /var/folders/2p/02m_5p7958535cp2tpgps0400000gn/T//ccCr8gkt.s 			page 62


  88:../DaisySP/Source/Utility/dsp.h ****     lp = (long *)(&f);
  89:../DaisySP/Source/Utility/dsp.h ****     l  = *lp;
  90:../DaisySP/Source/Utility/dsp.h ****     l -= 0x3F800000;
  91:../DaisySP/Source/Utility/dsp.h ****     l >>= (n - 1);
  92:../DaisySP/Source/Utility/dsp.h ****     l += 0x3F800000;
  93:../DaisySP/Source/Utility/dsp.h ****     *lp = l;
  94:../DaisySP/Source/Utility/dsp.h ****     return f;
  95:../DaisySP/Source/Utility/dsp.h **** }
  96:../DaisySP/Source/Utility/dsp.h **** 
  97:../DaisySP/Source/Utility/dsp.h **** /** Significantly more efficient than fmodf(x, 1.0f) for calculating
  98:../DaisySP/Source/Utility/dsp.h ****  *  the decimal part of a floating point value.
  99:../DaisySP/Source/Utility/dsp.h ****  */
 100:../DaisySP/Source/Utility/dsp.h **** inline float fastmod1f(float x)
 101:../DaisySP/Source/Utility/dsp.h **** {
 102:../DaisySP/Source/Utility/dsp.h ****     return x - static_cast<int>(x);
 103:../DaisySP/Source/Utility/dsp.h **** }
 104:../DaisySP/Source/Utility/dsp.h **** 
 105:../DaisySP/Source/Utility/dsp.h **** /** From http://openaudio.blogspot.com/2017/02/faster-log10-and-pow.html
 106:../DaisySP/Source/Utility/dsp.h **** No approximation, pow10f(x) gives a 90% speed increase over powf(10.f, x)
 107:../DaisySP/Source/Utility/dsp.h **** */
 108:../DaisySP/Source/Utility/dsp.h **** inline float pow10f(float f)
 109:../DaisySP/Source/Utility/dsp.h **** {
 110:../DaisySP/Source/Utility/dsp.h ****     return expf(2.302585092994046f * f);
 111:../DaisySP/Source/Utility/dsp.h **** }
 112:../DaisySP/Source/Utility/dsp.h **** 
 113:../DaisySP/Source/Utility/dsp.h **** /* Original code for fastlog2f by Dr. Paul Beckmann from the ARM community forum, adapted from the 
 114:../DaisySP/Source/Utility/dsp.h **** About 25% performance increase over std::log10f
 115:../DaisySP/Source/Utility/dsp.h **** */
 116:../DaisySP/Source/Utility/dsp.h **** inline float fastlog2f(float f)
 117:../DaisySP/Source/Utility/dsp.h **** {
 118:../DaisySP/Source/Utility/dsp.h ****     float frac;
 119:../DaisySP/Source/Utility/dsp.h ****     int   exp;
 120:../DaisySP/Source/Utility/dsp.h ****     frac = frexpf(fabsf(f), &exp);
 121:../DaisySP/Source/Utility/dsp.h ****     f    = 1.23149591368684f;
 122:../DaisySP/Source/Utility/dsp.h ****     f *= frac;
 123:../DaisySP/Source/Utility/dsp.h ****     f += -4.11852516267426f;
 124:../DaisySP/Source/Utility/dsp.h ****     f *= frac;
 125:../DaisySP/Source/Utility/dsp.h ****     f += 6.02197014179219f;
 126:../DaisySP/Source/Utility/dsp.h ****     f *= frac;
 127:../DaisySP/Source/Utility/dsp.h ****     f += -3.13396450166353f;
 128:../DaisySP/Source/Utility/dsp.h ****     f += exp;
 129:../DaisySP/Source/Utility/dsp.h ****     return (f);
 130:../DaisySP/Source/Utility/dsp.h **** }
 131:../DaisySP/Source/Utility/dsp.h **** 
 132:../DaisySP/Source/Utility/dsp.h **** inline float fastlog10f(float f)
 133:../DaisySP/Source/Utility/dsp.h **** {
 134:../DaisySP/Source/Utility/dsp.h ****     return fastlog2f(f) * 0.3010299956639812f;
 135:../DaisySP/Source/Utility/dsp.h **** }
 136:../DaisySP/Source/Utility/dsp.h **** 
 137:../DaisySP/Source/Utility/dsp.h **** /** Midi to frequency helper
 138:../DaisySP/Source/Utility/dsp.h **** */
 139:../DaisySP/Source/Utility/dsp.h **** inline float mtof(float m)
 140:../DaisySP/Source/Utility/dsp.h **** {
 141:../DaisySP/Source/Utility/dsp.h ****     return powf(2, (m - 69.0f) / 12.0f) * 440.0f;
 142:../DaisySP/Source/Utility/dsp.h **** }
 143:../DaisySP/Source/Utility/dsp.h **** 
 144:../DaisySP/Source/Utility/dsp.h **** 
ARM GAS  /var/folders/2p/02m_5p7958535cp2tpgps0400000gn/T//ccCr8gkt.s 			page 63


 145:../DaisySP/Source/Utility/dsp.h **** /** one pole lpf
 146:../DaisySP/Source/Utility/dsp.h **** out is passed by reference, and must be retained between
 147:../DaisySP/Source/Utility/dsp.h **** calls to properly filter the signal
 148:../DaisySP/Source/Utility/dsp.h **** coeff can be calculated:
 149:../DaisySP/Source/Utility/dsp.h **** coeff = 1.0 / (time * sample_rate) ; where time is in seconds
 150:../DaisySP/Source/Utility/dsp.h **** */
 151:../DaisySP/Source/Utility/dsp.h **** inline void fonepole(float &out, float in, float coeff)
 152:../DaisySP/Source/Utility/dsp.h **** {
 153:../DaisySP/Source/Utility/dsp.h ****     out += coeff * (in - out);
 154:../DaisySP/Source/Utility/dsp.h **** }
 155:../DaisySP/Source/Utility/dsp.h **** 
 156:../DaisySP/Source/Utility/dsp.h **** /** Curves to use with the fmap function */
 157:../DaisySP/Source/Utility/dsp.h **** enum class Mapping
 158:../DaisySP/Source/Utility/dsp.h **** {
 159:../DaisySP/Source/Utility/dsp.h ****     LINEAR,
 160:../DaisySP/Source/Utility/dsp.h ****     EXP,
 161:../DaisySP/Source/Utility/dsp.h ****     LOG,
 162:../DaisySP/Source/Utility/dsp.h **** };
 163:../DaisySP/Source/Utility/dsp.h **** 
 164:../DaisySP/Source/Utility/dsp.h **** /** Maps a float between a specified range, using a specified curve.
 165:../DaisySP/Source/Utility/dsp.h ****  *
 166:../DaisySP/Source/Utility/dsp.h ****  *  \param in a value between 0 to 1 that will be mapped to the new range.
 167:../DaisySP/Source/Utility/dsp.h ****  *  \param min the new minimum value
 168:../DaisySP/Source/Utility/dsp.h ****  *  \param max the new maxmimum value
 169:../DaisySP/Source/Utility/dsp.h ****  *  \param curve a Mapping Value to adjust the response curve of the transformation
 170:../DaisySP/Source/Utility/dsp.h ****  *               defaults to Linear. @see Mapping
 171:../DaisySP/Source/Utility/dsp.h ****  *
 172:../DaisySP/Source/Utility/dsp.h ****  *  When using the log curve min and max, must be greater than zero.
 173:../DaisySP/Source/Utility/dsp.h ****  *
 174:../DaisySP/Source/Utility/dsp.h ****  *  \retval returns the transformed float within the new range.
 175:../DaisySP/Source/Utility/dsp.h **** */
 176:../DaisySP/Source/Utility/dsp.h **** inline float
 177:../DaisySP/Source/Utility/dsp.h **** fmap(float in, float min, float max, Mapping curve = Mapping::LINEAR)
 2099              		.loc 10 177 1 view .LVU540
 2100              	.LBE370:
 178:../DaisySP/Source/Utility/dsp.h **** {
 179:../DaisySP/Source/Utility/dsp.h ****     switch(curve)
 2101              		.loc 10 179 5 view .LVU541
 2102              	.LBB380:
 2103              	.LBB371:
 180:../DaisySP/Source/Utility/dsp.h ****     {
 181:../DaisySP/Source/Utility/dsp.h ****         case Mapping::EXP:
 182:../DaisySP/Source/Utility/dsp.h ****             return fclamp(min + (in * in) * (max - min), min, max);
 183:../DaisySP/Source/Utility/dsp.h ****         case Mapping::LOG:
 184:../DaisySP/Source/Utility/dsp.h ****         {
 185:../DaisySP/Source/Utility/dsp.h ****             const float a = 1.f / log10f(max / min);
 186:../DaisySP/Source/Utility/dsp.h ****             return fclamp(min * powf(10, in / a), min, max);
 187:../DaisySP/Source/Utility/dsp.h ****         }
 188:../DaisySP/Source/Utility/dsp.h ****         case Mapping::LINEAR:
 2104              		.loc 10 188 9 view .LVU542
 189:../DaisySP/Source/Utility/dsp.h ****         default: return fclamp(min + in * (max - min), min, max);
 2105              		.loc 10 189 9 view .LVU543
 2106              		.loc 10 189 18 view .LVU544
 2107              		.loc 10 189 31 is_stmt 0 view .LVU545
 2108 0024 DFED1B6A 		vldr.32	s13, .L117
 2109 0028 B1EE007A 		vmov.f32	s14, #4.0e+0
 2110              	.LBE371:
ARM GAS  /var/folders/2p/02m_5p7958535cp2tpgps0400000gn/T//ccCr8gkt.s 			page 64


 2111              	.LBE380:
 456:GrannyChordApp.cpp ****       synth_.SetPhasorMode(static_cast<GrainPhasor::Mode>(knob1_val));
 2112              		.loc 2 456 27 view .LVU546
 2113 002c 2030     		adds	r0, r0, #32
 2114              	.LVL157:
 2115              	.LBB381:
 2116              	.LBB378:
 2117              		.loc 10 189 31 view .LVU547
 2118 002e F0EE667A 		vmov.f32	s15, s13
 2119 0032 E0EE077A 		vfma.f32	s15, s0, s14
 2120              	.LVL158:
 2121              	.LBB372:
 2122              	.LBI372:
  64:../DaisySP/Source/Utility/dsp.h **** {
 2123              		.loc 10 64 14 is_stmt 1 view .LVU548
 2124              	.LBE372:
 2125              	.LBE378:
 2126              	.LBE381:
  66:../DaisySP/Source/Utility/dsp.h **** }
 2127              		.loc 10 66 5 view .LVU549
 2128              	.LBB382:
 2129              	.LBB379:
 2130              	.LBB377:
 2131              	.LBB373:
 2132              	.LBI373:
  40:../DaisySP/Source/Utility/dsp.h **** {
 2133              		.loc 10 40 14 view .LVU550
 2134              	.LBB374:
  42:../DaisySP/Source/Utility/dsp.h **** #ifdef __arm__
 2135              		.loc 10 42 5 view .LVU551
  44:../DaisySP/Source/Utility/dsp.h **** #else
 2136              		.loc 10 44 5 view .LVU552
 2137              		.syntax unified
 2138              	@ 44 "../DaisySP/Source/Utility/dsp.h" 1
 2139 0036 C7FEA67A 		vmaxnm.f32 s15, s15, s13
 2140              	@ 0 "" 2
 2141              	.LVL159:
  48:../DaisySP/Source/Utility/dsp.h **** }
 2142              		.loc 10 48 5 view .LVU553
  48:../DaisySP/Source/Utility/dsp.h **** }
 2143              		.loc 10 48 5 is_stmt 0 view .LVU554
 2144              		.thumb
 2145              		.syntax unified
 2146              	.LBE374:
 2147              	.LBE373:
 2148              	.LBB375:
 2149              	.LBI375:
  51:../DaisySP/Source/Utility/dsp.h **** {
 2150              		.loc 10 51 14 is_stmt 1 view .LVU555
 2151              	.LBB376:
  53:../DaisySP/Source/Utility/dsp.h **** #ifdef __arm__
 2152              		.loc 10 53 5 view .LVU556
  55:../DaisySP/Source/Utility/dsp.h **** #else
 2153              		.loc 10 55 5 view .LVU557
 2154              		.syntax unified
 2155              	@ 55 "../DaisySP/Source/Utility/dsp.h" 1
 2156 003a C7FEC77A 		vminnm.f32 s15, s15, s14
ARM GAS  /var/folders/2p/02m_5p7958535cp2tpgps0400000gn/T//ccCr8gkt.s 			page 65


 2157              	@ 0 "" 2
 2158              	.LVL160:
  59:../DaisySP/Source/Utility/dsp.h **** }
 2159              		.loc 10 59 5 view .LVU558
  59:../DaisySP/Source/Utility/dsp.h **** }
 2160              		.loc 10 59 5 is_stmt 0 view .LVU559
 2161              		.thumb
 2162              		.syntax unified
 2163              	.LBE376:
 2164              	.LBE375:
 2165              	.LBE377:
 2166              	.LBE379:
 2167              	.LBE382:
 2168              		.loc 2 456 7 is_stmt 1 view .LVU560
 2169              		.loc 2 456 27 is_stmt 0 view .LVU561
 2170 003e FDEEE77A 		vcvt.s32.f32	s15, s15
 2171              	.LVL161:
 2172              		.loc 2 456 27 view .LVU562
 2173 0042 17EE901A 		vmov	r1, s15	@ int
 2174              	.LVL162:
 2175              		.loc 2 456 27 view .LVU563
 2176 0046 FFF7FEBF 		b	_ZN13GranularSynth13SetPhasorModeEN11GrainPhasor4ModeE
 2177              	.LVL163:
 2178              	.L112:
 457:GrannyChordApp.cpp ****       return;
 458:GrannyChordApp.cpp ****     case SynthMode::Size_Position_Rnd:
 2179              		.loc 2 458 5 is_stmt 1 view .LVU564
 459:GrannyChordApp.cpp ****       synth_.SetSizeRnd(knob1_val);
 2180              		.loc 2 459 7 view .LVU565
 2181              	.LBB383:
 2182              	.LBI383:
 2183              		.file 11 "GranularSynth.h"
   1:GranularSynth.h **** #pragma once
   2:GranularSynth.h **** 
   3:GranularSynth.h **** #include "Grain.h"
   4:GranularSynth.h **** #include "daisy_pod.h"
   5:GranularSynth.h **** #include <vector>
   6:GranularSynth.h **** 
   7:GranularSynth.h **** class GranularSynth{
   8:GranularSynth.h ****   public:
   9:GranularSynth.h ****     GranularSynth(DaisyPod& pod) 
  10:GranularSynth.h ****       : pod_(pod), left_buf_(nullptr), right_buf_(nullptr), audio_len_(0),
  11:GranularSynth.h ****         grains_(){}
  12:GranularSynth.h **** 
  13:GranularSynth.h ****     void Init(const int16_t *left, const int16_t *right, size_t audio_len);
  14:GranularSynth.h ****     void InitParams();
  15:GranularSynth.h ****     void UpdateGrainParams();
  16:GranularSynth.h ****     void ApplyRandomness();
  17:GranularSynth.h ****     void TriggerGrain();
  18:GranularSynth.h ****     void ProcessGrains(float *out_left, float *out_right, size_t size);
  19:GranularSynth.h **** 
  20:GranularSynth.h ****     void SetEnvelopeType(Grain::EnvelopeType type);
  21:GranularSynth.h ****     void SetPhasorMode(GrainPhasor::Mode mode);
  22:GranularSynth.h ****     void SetPan(float pan);
  23:GranularSynth.h ****     
  24:GranularSynth.h ****     void SetGrainSize(float knob_val);
  25:GranularSynth.h ****     void SetSpawnPos(float knob_val);
ARM GAS  /var/folders/2p/02m_5p7958535cp2tpgps0400000gn/T//ccCr8gkt.s 			page 66


  26:GranularSynth.h ****     void SetActiveGrains(float knob_val);
  27:GranularSynth.h ****     void SetPitchRatio(float ratio);
  28:GranularSynth.h **** 
  29:GranularSynth.h ****     void SetSizeRnd(float rnd){ rnd_size_ = rnd; }
 2184              		.loc 11 29 10 view .LVU566
 2185              	.LBB384:
 2186              		.loc 11 29 33 view .LVU567
 2187              		.loc 11 29 43 is_stmt 0 view .LVU568
 2188 004a 00F2AC40 		addw	r0, r0, #1196
 2189              	.LVL164:
 2190              	.L116:
 2191              		.loc 11 29 43 view .LVU569
 2192              	.LBE384:
 2193              	.LBE383:
 2194              	.LBB385:
 2195              	.LBB386:
  30:GranularSynth.h ****     void SetPositionRnd(float rnd){ rnd_spawn_pos_ = rnd; }
  31:GranularSynth.h ****     void SetPitchRnd(float rnd){ rnd_pitch_ = rnd; }
 2196              		.loc 11 31 45 view .LVU570
 2197 004e 80ED000A 		vstr.32	s0, [r0]
 2198              		.loc 11 31 52 view .LVU571
 2199 0052 7047     		bx	lr
 2200              	.LVL165:
 2201              	.L111:
 2202              		.loc 11 31 52 view .LVU572
 2203              	.LBE386:
 2204              	.LBE385:
 460:GrannyChordApp.cpp ****       return;
 461:GrannyChordApp.cpp ****     case SynthMode::Pitch_ActiveGrains_Rnd:
 2205              		.loc 2 461 5 is_stmt 1 view .LVU573
 462:GrannyChordApp.cpp ****       synth_.SetPitchRnd(knob1_val);
 2206              		.loc 2 462 7 view .LVU574
 2207              	.LBB388:
 2208              	.LBI385:
 2209              		.loc 11 31 10 view .LVU575
 2210              	.LBB387:
 2211              		.loc 11 31 34 view .LVU576
 2212              		.loc 11 31 45 is_stmt 0 view .LVU577
 2213 0054 00F59760 		add	r0, r0, #1208
 2214              	.LVL166:
 2215              		.loc 11 31 45 view .LVU578
 2216 0058 F9E7     		b	.L116
 2217              	.LVL167:
 2218              	.L110:
 2219              		.loc 11 31 45 view .LVU579
 2220              	.LBE387:
 2221              	.LBE388:
 463:GrannyChordApp.cpp ****       return;
 464:GrannyChordApp.cpp ****     case SynthMode::PhasorMode_EnvType_Rnd:
 2222              		.loc 2 464 5 is_stmt 1 view .LVU580
 465:GrannyChordApp.cpp ****       synth_.SetPhasorRnd(knob1_val);
 2223              		.loc 2 465 7 view .LVU581
 2224              	.LBB389:
 2225              	.LBI389:
  32:GranularSynth.h ****     void SetCountRnd(float rnd){ rnd_count_ = rnd; }
  33:GranularSynth.h ****     void SetPanRnd(float rnd){ rnd_pan_ = rnd; }
  34:GranularSynth.h ****     void SetEnvRnd(float rnd){ rnd_envelope_ = rnd; }
ARM GAS  /var/folders/2p/02m_5p7958535cp2tpgps0400000gn/T//ccCr8gkt.s 			page 67


  35:GranularSynth.h ****     void SetPhasorRnd(float rnd){ rnd_phasor_ = rnd; }
 2226              		.loc 11 35 10 view .LVU582
 2227              	.LBB390:
 2228              		.loc 11 35 35 view .LVU583
 2229              		.loc 11 35 47 is_stmt 0 view .LVU584
 2230 005a 00F2C440 		addw	r0, r0, #1220
 2231              	.LVL168:
 2232              		.loc 11 35 47 view .LVU585
 2233 005e F6E7     		b	.L116
 2234              	.LVL169:
 2235              	.L108:
 2236              		.loc 11 35 47 view .LVU586
 2237              	.LBE390:
 2238              	.LBE389:
 466:GrannyChordApp.cpp ****       return;
 467:GrannyChordApp.cpp ****     case SynthMode::Reverb:
 2239              		.loc 2 467 5 is_stmt 1 view .LVU587
 468:GrannyChordApp.cpp ****       /* set reverb feedback ie tail length */
 469:GrannyChordApp.cpp ****       reverb_.SetFeedback(knob1_val); // NOTE check it doesn't clip
 2240              		.loc 2 469 7 view .LVU588
 2241              	.LBB391:
 2242              	.LBI391:
 2243              		.file 12 "../DaisySP/Source/../DaisySP-LGPL/Source/Effects/reverbsc.h"
   1:../DaisySP/Source/../DaisySP-LGPL/Source/Effects/reverbsc.h **** /*
   2:../DaisySP/Source/../DaisySP-LGPL/Source/Effects/reverbsc.h **** Copyright (c) 2023 Electrosmith, Corp, Sean Costello, Istvan Varga, Paul Batchelor
   3:../DaisySP/Source/../DaisySP-LGPL/Source/Effects/reverbsc.h **** 
   4:../DaisySP/Source/../DaisySP-LGPL/Source/Effects/reverbsc.h **** Use of this source code is governed by the LGPL V2.1
   5:../DaisySP/Source/../DaisySP-LGPL/Source/Effects/reverbsc.h **** license that can be found in the LICENSE file or at
   6:../DaisySP/Source/../DaisySP-LGPL/Source/Effects/reverbsc.h **** https://opensource.org/license/lgpl-2-1/
   7:../DaisySP/Source/../DaisySP-LGPL/Source/Effects/reverbsc.h **** */
   8:../DaisySP/Source/../DaisySP-LGPL/Source/Effects/reverbsc.h **** 
   9:../DaisySP/Source/../DaisySP-LGPL/Source/Effects/reverbsc.h **** #pragma once
  10:../DaisySP/Source/../DaisySP-LGPL/Source/Effects/reverbsc.h **** #ifndef DSYSP_REVERBSC_H
  11:../DaisySP/Source/../DaisySP-LGPL/Source/Effects/reverbsc.h **** #define DSYSP_REVERBSC_H
  12:../DaisySP/Source/../DaisySP-LGPL/Source/Effects/reverbsc.h **** 
  13:../DaisySP/Source/../DaisySP-LGPL/Source/Effects/reverbsc.h **** #define DSY_REVERBSC_MAX_SIZE 98936
  14:../DaisySP/Source/../DaisySP-LGPL/Source/Effects/reverbsc.h **** 
  15:../DaisySP/Source/../DaisySP-LGPL/Source/Effects/reverbsc.h **** namespace daisysp
  16:../DaisySP/Source/../DaisySP-LGPL/Source/Effects/reverbsc.h **** {
  17:../DaisySP/Source/../DaisySP-LGPL/Source/Effects/reverbsc.h **** /**Delay line for internal reverb use
  18:../DaisySP/Source/../DaisySP-LGPL/Source/Effects/reverbsc.h **** */
  19:../DaisySP/Source/../DaisySP-LGPL/Source/Effects/reverbsc.h **** typedef struct
  20:../DaisySP/Source/../DaisySP-LGPL/Source/Effects/reverbsc.h **** {
  21:../DaisySP/Source/../DaisySP-LGPL/Source/Effects/reverbsc.h ****     int    write_pos;         /**< write position */
  22:../DaisySP/Source/../DaisySP-LGPL/Source/Effects/reverbsc.h ****     int    buffer_size;       /**< buffer size */
  23:../DaisySP/Source/../DaisySP-LGPL/Source/Effects/reverbsc.h ****     int    read_pos;          /**< read position */
  24:../DaisySP/Source/../DaisySP-LGPL/Source/Effects/reverbsc.h ****     int    read_pos_frac;     /**< fractional component of read pos */
  25:../DaisySP/Source/../DaisySP-LGPL/Source/Effects/reverbsc.h ****     int    read_pos_frac_inc; /**< increment for fractional */
  26:../DaisySP/Source/../DaisySP-LGPL/Source/Effects/reverbsc.h ****     int    dummy;             /**<  dummy var */
  27:../DaisySP/Source/../DaisySP-LGPL/Source/Effects/reverbsc.h ****     int    seed_val;          /**< randseed */
  28:../DaisySP/Source/../DaisySP-LGPL/Source/Effects/reverbsc.h ****     int    rand_line_cnt;     /**< number of random lines */
  29:../DaisySP/Source/../DaisySP-LGPL/Source/Effects/reverbsc.h ****     float  filter_state;      /**< state of filter */
  30:../DaisySP/Source/../DaisySP-LGPL/Source/Effects/reverbsc.h ****     float *buf;               /**< buffer ptr */
  31:../DaisySP/Source/../DaisySP-LGPL/Source/Effects/reverbsc.h **** } ReverbScDl;
  32:../DaisySP/Source/../DaisySP-LGPL/Source/Effects/reverbsc.h **** 
  33:../DaisySP/Source/../DaisySP-LGPL/Source/Effects/reverbsc.h **** /** Stereo Reverb */
  34:../DaisySP/Source/../DaisySP-LGPL/Source/Effects/reverbsc.h **** class ReverbSc
ARM GAS  /var/folders/2p/02m_5p7958535cp2tpgps0400000gn/T//ccCr8gkt.s 			page 68


  35:../DaisySP/Source/../DaisySP-LGPL/Source/Effects/reverbsc.h **** {
  36:../DaisySP/Source/../DaisySP-LGPL/Source/Effects/reverbsc.h ****   public:
  37:../DaisySP/Source/../DaisySP-LGPL/Source/Effects/reverbsc.h ****     ReverbSc() {}
  38:../DaisySP/Source/../DaisySP-LGPL/Source/Effects/reverbsc.h ****     ~ReverbSc() {}
  39:../DaisySP/Source/../DaisySP-LGPL/Source/Effects/reverbsc.h ****     /** Initializes the reverb module, and sets the sample_rate at which the Process function will 
  40:../DaisySP/Source/../DaisySP-LGPL/Source/Effects/reverbsc.h ****         Returns 0 if all good, or 1 if it runs out of delay times exceed maximum allowed.
  41:../DaisySP/Source/../DaisySP-LGPL/Source/Effects/reverbsc.h ****     */
  42:../DaisySP/Source/../DaisySP-LGPL/Source/Effects/reverbsc.h ****     int Init(float sample_rate);
  43:../DaisySP/Source/../DaisySP-LGPL/Source/Effects/reverbsc.h **** 
  44:../DaisySP/Source/../DaisySP-LGPL/Source/Effects/reverbsc.h ****     /** Process the input through the reverb, and updates values of out1, and out2 with the new pro
  45:../DaisySP/Source/../DaisySP-LGPL/Source/Effects/reverbsc.h ****     */
  46:../DaisySP/Source/../DaisySP-LGPL/Source/Effects/reverbsc.h ****     int Process(const float &in1, const float &in2, float *out1, float *out2);
  47:../DaisySP/Source/../DaisySP-LGPL/Source/Effects/reverbsc.h **** 
  48:../DaisySP/Source/../DaisySP-LGPL/Source/Effects/reverbsc.h ****     /* process using a simple wet/dry mix */
  49:../DaisySP/Source/../DaisySP-LGPL/Source/Effects/reverbsc.h ****     void ProcessMix(const float &in1, const float &in2, float *out1, float *out2);
  50:../DaisySP/Source/../DaisySP-LGPL/Source/Effects/reverbsc.h ****     void SetMix(float mix) { wet_mix_ = mix; }
  51:../DaisySP/Source/../DaisySP-LGPL/Source/Effects/reverbsc.h ****     /** controls the reverb time. reverb tail becomes infinite when set to 1.0
  52:../DaisySP/Source/../DaisySP-LGPL/Source/Effects/reverbsc.h ****         \param fb - sets reverb time. range: 0.0 to 1.0
  53:../DaisySP/Source/../DaisySP-LGPL/Source/Effects/reverbsc.h ****     */
  54:../DaisySP/Source/../DaisySP-LGPL/Source/Effects/reverbsc.h ****     inline void SetFeedback(const float &fb) { feedback_ = fb; }
 2244              		.loc 12 54 17 view .LVU589
 2245              	.LBB392:
 2246              		.loc 12 54 48 view .LVU590
 2247              		.loc 12 54 58 is_stmt 0 view .LVU591
 2248 0060 D0F81C35 		ldr	r3, [r0, #1308]
 2249 0064 83ED000A 		vstr.32	s0, [r3]
 2250              		.loc 12 54 64 view .LVU592
 2251 0068 7047     		bx	lr
 2252              	.LVL170:
 2253              	.L106:
 2254              		.loc 12 54 64 view .LVU593
 2255              	.LBE392:
 2256              	.LBE391:
 470:GrannyChordApp.cpp ****       return;
 471:GrannyChordApp.cpp ****     case SynthMode::Filter:
 2257              		.loc 2 471 5 is_stmt 1 view .LVU594
 472:GrannyChordApp.cpp ****       // knob1_val = fmap(knob1_val, 20.0f, 20000.0f, daisysp::Mapping::EXP);
 473:GrannyChordApp.cpp ****       /* map knob value to frequency range with an exponential curve */
 474:GrannyChordApp.cpp ****       knob1_val = fmap(knob1_val, 20.0f, 5000.0f, daisysp::Mapping::EXP);
 2258              		.loc 2 474 7 view .LVU595
 2259              	.LBB393:
 2260              	.LBI393:
 177:../DaisySP/Source/Utility/dsp.h **** {
 2261              		.loc 10 177 1 view .LVU596
 2262              	.LBE393:
 179:../DaisySP/Source/Utility/dsp.h ****     {
 2263              		.loc 10 179 5 view .LVU597
 2264              	.LBB403:
 2265              	.LBB394:
 181:../DaisySP/Source/Utility/dsp.h ****             return fclamp(min + (in * in) * (max - min), min, max);
 2266              		.loc 10 181 9 view .LVU598
 182:../DaisySP/Source/Utility/dsp.h ****         case Mapping::LOG:
 2267              		.loc 10 182 13 view .LVU599
 182:../DaisySP/Source/Utility/dsp.h ****         case Mapping::LOG:
 2268              		.loc 10 182 26 is_stmt 0 view .LVU600
 2269 006a B3EE047A 		vmov.f32	s14, #2.0e+1
 2270 006e DFED0A6A 		vldr.32	s13, .L117+4
ARM GAS  /var/folders/2p/02m_5p7958535cp2tpgps0400000gn/T//ccCr8gkt.s 			page 69


 182:../DaisySP/Source/Utility/dsp.h ****         case Mapping::LOG:
 2271              		.loc 10 182 37 view .LVU601
 2272 0072 20EE000A 		vmul.f32	s0, s0, s0
 2273              	.LVL171:
 182:../DaisySP/Source/Utility/dsp.h ****         case Mapping::LOG:
 2274              		.loc 10 182 37 view .LVU602
 2275              	.LBE394:
 2276              	.LBE403:
 2277              	.LBB404:
 2278              	.LBB405:
  39:../DaisySP/Source/../DaisySP-LGPL/Source/Filters/moogladder.h ****     /** 
 2279              		.loc 5 39 45 view .LVU603
 2280 0076 00F5A460 		add	r0, r0, #1312
 2281              	.LVL172:
  39:../DaisySP/Source/../DaisySP-LGPL/Source/Filters/moogladder.h ****     /** 
 2282              		.loc 5 39 45 view .LVU604
 2283              	.LBE405:
 2284              	.LBE404:
 2285              	.LBB407:
 2286              	.LBB401:
 182:../DaisySP/Source/Utility/dsp.h ****         case Mapping::LOG:
 2287              		.loc 10 182 26 view .LVU605
 2288 007a F0EE477A 		vmov.f32	s15, s14
 2289 007e E0EE267A 		vfma.f32	s15, s0, s13
 2290              	.LVL173:
 2291              	.LBB395:
 2292              	.LBI395:
  64:../DaisySP/Source/Utility/dsp.h **** {
 2293              		.loc 10 64 14 is_stmt 1 view .LVU606
 2294              	.LBE395:
 2295              	.LBE401:
 2296              	.LBE407:
  66:../DaisySP/Source/Utility/dsp.h **** }
 2297              		.loc 10 66 5 view .LVU607
 2298              	.LBB408:
 2299              	.LBB402:
 2300              	.LBB400:
 2301              	.LBB396:
 2302              	.LBI396:
  40:../DaisySP/Source/Utility/dsp.h **** {
 2303              		.loc 10 40 14 view .LVU608
 2304              	.LBB397:
  42:../DaisySP/Source/Utility/dsp.h **** #ifdef __arm__
 2305              		.loc 10 42 5 view .LVU609
  44:../DaisySP/Source/Utility/dsp.h **** #else
 2306              		.loc 10 44 5 view .LVU610
 2307              		.syntax unified
 2308              	@ 44 "../DaisySP/Source/Utility/dsp.h" 1
 2309 0082 C7FE877A 		vmaxnm.f32 s15, s15, s14
 2310              	@ 0 "" 2
 2311              	.LVL174:
  48:../DaisySP/Source/Utility/dsp.h **** }
 2312              		.loc 10 48 5 view .LVU611
  48:../DaisySP/Source/Utility/dsp.h **** }
 2313              		.loc 10 48 5 is_stmt 0 view .LVU612
 2314              		.thumb
 2315              		.syntax unified
ARM GAS  /var/folders/2p/02m_5p7958535cp2tpgps0400000gn/T//ccCr8gkt.s 			page 70


 2316              	.LBE397:
 2317              	.LBE396:
 2318              	.LBB398:
 2319              	.LBI398:
  51:../DaisySP/Source/Utility/dsp.h **** {
 2320              		.loc 10 51 14 is_stmt 1 view .LVU613
 2321              	.LBB399:
  53:../DaisySP/Source/Utility/dsp.h **** #ifdef __arm__
 2322              		.loc 10 53 5 view .LVU614
  55:../DaisySP/Source/Utility/dsp.h **** #else
 2323              		.loc 10 55 5 view .LVU615
 2324 0086 9FED057A 		vldr.32	s14, .L117+8
 2325              	.LVL175:
  55:../DaisySP/Source/Utility/dsp.h **** #else
 2326              		.loc 10 55 5 is_stmt 0 view .LVU616
 2327              		.syntax unified
 2328              	@ 55 "../DaisySP/Source/Utility/dsp.h" 1
 2329 008a C7FEC77A 		vminnm.f32 s15, s15, s14
 2330              	@ 0 "" 2
 2331              	.LVL176:
  59:../DaisySP/Source/Utility/dsp.h **** }
 2332              		.loc 10 59 5 is_stmt 1 view .LVU617
  59:../DaisySP/Source/Utility/dsp.h **** }
 2333              		.loc 10 59 5 is_stmt 0 view .LVU618
 2334              		.thumb
 2335              		.syntax unified
 2336              	.LBE399:
 2337              	.LBE398:
 2338              	.LBE400:
 2339              	.LBE402:
 2340              	.LBE408:
 475:GrannyChordApp.cpp ****       /* set cutoff frequency of low pass moog filter */
 476:GrannyChordApp.cpp ****       lowpass_moog_.SetFreq(knob1_val);
 2341              		.loc 2 476 7 is_stmt 1 view .LVU619
 2342              	.LBB409:
 2343              	.LBI404:
  39:../DaisySP/Source/../DaisySP-LGPL/Source/Filters/moogladder.h ****     /** 
 2344              		.loc 5 39 17 view .LVU620
 2345              	.LBB406:
  39:../DaisySP/Source/../DaisySP-LGPL/Source/Filters/moogladder.h ****     /** 
 2346              		.loc 5 39 39 view .LVU621
  39:../DaisySP/Source/../DaisySP-LGPL/Source/Filters/moogladder.h ****     /** 
 2347              		.loc 5 39 45 is_stmt 0 view .LVU622
 2348 008e C0ED027A 		vstr.32	s15, [r0, #8]
 2349              	.LVL177:
 2350              	.L104:
  39:../DaisySP/Source/../DaisySP-LGPL/Source/Filters/moogladder.h ****     /** 
 2351              		.loc 5 39 45 view .LVU623
 2352              	.LBE406:
 2353              	.LBE409:
 477:GrannyChordApp.cpp ****       return;
 478:GrannyChordApp.cpp ****   }
 479:GrannyChordApp.cpp **** }
 2354              		.loc 2 479 1 view .LVU624
 2355 0092 7047     		bx	lr
 2356              	.L118:
 2357              		.align	2
ARM GAS  /var/folders/2p/02m_5p7958535cp2tpgps0400000gn/T//ccCr8gkt.s 			page 71


 2358              	.L117:
 2359 0094 00000000 		.word	0
 2360 0098 00A09B45 		.word	1167826944
 2361 009c 00409C45 		.word	1167867904
 2362              		.cfi_endproc
 2363              	.LFE4929:
 2365              		.section	.text._ZN14GrannyChordApp17UpdateKnob2ParamsEf9SynthMode,"ax",%progbits
 2366              		.align	1
 2367              		.global	_ZN14GrannyChordApp17UpdateKnob2ParamsEf9SynthMode
 2368              		.syntax unified
 2369              		.thumb
 2370              		.thumb_func
 2372              	_ZN14GrannyChordApp17UpdateKnob2ParamsEf9SynthMode:
 2373              	.LVL178:
 2374              	.LFB4930:
 480:GrannyChordApp.cpp **** 
 481:GrannyChordApp.cpp **** void GrannyChordApp::UpdateKnob2Params(float knob2_val, SynthMode mode){
 2375              		.loc 2 481 72 is_stmt 1 view -0
 2376              		.cfi_startproc
 2377              		@ args = 0, pretend = 0, frame = 0
 2378              		@ frame_needed = 0, uses_anonymous_args = 0
 482:GrannyChordApp.cpp ****   switch (mode){
 2379              		.loc 2 482 3 view .LVU626
 481:GrannyChordApp.cpp ****   switch (mode){
 2380              		.loc 2 481 72 is_stmt 0 view .LVU627
 2381 0000 10B5     		push	{r4, lr}
 2382              		.cfi_def_cfa_offset 8
 2383              		.cfi_offset 4, -8
 2384              		.cfi_offset 14, -4
 481:GrannyChordApp.cpp ****   switch (mode){
 2385              		.loc 2 481 72 view .LVU628
 2386 0002 0446     		mov	r4, r0
 2387              		.loc 2 482 3 view .LVU629
 2388 0004 0829     		cmp	r1, #8
 2389 0006 14D8     		bhi	.L119
 2390 0008 DFE801F0 		tbb	[pc, r1]
 2391              	.L122:
 2392 000c 05       		.byte	(.L130-.L122)/2
 2393 000d 0A       		.byte	(.L129-.L122)/2
 2394 000e 14       		.byte	(.L128-.L122)/2
 2395 000f 29       		.byte	(.L127-.L122)/2
 2396 0010 2C       		.byte	(.L126-.L122)/2
 2397 0011 2F       		.byte	(.L125-.L122)/2
 2398 0012 0F       		.byte	(.L124-.L122)/2
 2399 0013 32       		.byte	(.L123-.L122)/2
 2400 0014 39       		.byte	(.L121-.L122)/2
 2401 0015 00       		.p2align 1
 2402              	.L130:
 483:GrannyChordApp.cpp ****     case SynthMode::Size_Position:
 2403              		.loc 2 483 5 is_stmt 1 view .LVU630
 484:GrannyChordApp.cpp ****       synth_.SetSpawnPos(knob2_val);
 2404              		.loc 2 484 7 view .LVU631
 2405              		.loc 2 484 25 is_stmt 0 view .LVU632
 2406 0016 2030     		adds	r0, r0, #32
 2407              	.LVL179:
 485:GrannyChordApp.cpp ****       return;
 486:GrannyChordApp.cpp ****     case SynthMode::Pitch_ActiveGrains:
ARM GAS  /var/folders/2p/02m_5p7958535cp2tpgps0400000gn/T//ccCr8gkt.s 			page 72


 487:GrannyChordApp.cpp ****       synth_.SetActiveGrains(knob2_val);
 488:GrannyChordApp.cpp ****       return;
 489:GrannyChordApp.cpp ****     case SynthMode::Pan_PanRnd:
 490:GrannyChordApp.cpp ****       synth_.SetPanRnd(knob2_val);
 491:GrannyChordApp.cpp ****       return;
 492:GrannyChordApp.cpp ****     case SynthMode::PhasorMode_EnvType:
 493:GrannyChordApp.cpp ****       knob2_val = fmap(knob2_val, 0, NUM_ENV_TYPES);
 494:GrannyChordApp.cpp ****       synth_.SetEnvelopeType(static_cast<Grain::EnvelopeType>(knob2_val));
 495:GrannyChordApp.cpp ****       return;
 496:GrannyChordApp.cpp ****     case SynthMode::Size_Position_Rnd:
 497:GrannyChordApp.cpp ****       synth_.SetPositionRnd(knob2_val);
 498:GrannyChordApp.cpp ****       return;
 499:GrannyChordApp.cpp ****     case SynthMode::Pitch_ActiveGrains_Rnd:
 500:GrannyChordApp.cpp ****       synth_.SetCountRnd(knob2_val);
 501:GrannyChordApp.cpp ****       return;
 502:GrannyChordApp.cpp ****     case SynthMode::PhasorMode_EnvType_Rnd:
 503:GrannyChordApp.cpp ****       synth_.SetEnvRnd(knob2_val);
 504:GrannyChordApp.cpp ****       return;
 505:GrannyChordApp.cpp ****     case SynthMode::Reverb:
 506:GrannyChordApp.cpp ****       // /* map knob value to frequency range with an exponential curve */
 507:GrannyChordApp.cpp ****       // knob2_val = fmap(knob2_val, 100.0f, 20000.0f, daisysp::Mapping::EXP);
 508:GrannyChordApp.cpp ****       // /* set reverb low pass frequency */
 509:GrannyChordApp.cpp ****       // reverb_.SetLpFreq(knob2_val);
 510:GrannyChordApp.cpp ****       reverb_.SetMix(knob2_val);
 511:GrannyChordApp.cpp ****       return;
 512:GrannyChordApp.cpp ****     case SynthMode::Filter:
 513:GrannyChordApp.cpp ****       /* again, map knob value to frequency range with an exponential curve */
 514:GrannyChordApp.cpp ****       knob2_val = fmap(knob2_val, 0.001f, 0.497f, daisysp::Mapping::EXP);
 515:GrannyChordApp.cpp ****       /* set cutoff frequency for high pass filter */
 516:GrannyChordApp.cpp ****       hipass_.SetFrequency(knob2_val);
 517:GrannyChordApp.cpp ****       return;
 518:GrannyChordApp.cpp ****   }
 519:GrannyChordApp.cpp **** }
 2408              		.loc 2 519 1 view .LVU633
 2409 0018 BDE81040 		pop	{r4, lr}
 2410              		.cfi_remember_state
 2411              		.cfi_restore 14
 2412              		.cfi_restore 4
 2413              		.cfi_def_cfa_offset 0
 2414              	.LVL180:
 484:GrannyChordApp.cpp ****       synth_.SetSpawnPos(knob2_val);
 2415              		.loc 2 484 25 view .LVU634
 2416 001c FFF7FEBF 		b	_ZN13GranularSynth11SetSpawnPosEf
 2417              	.LVL181:
 2418              	.L129:
 2419              		.cfi_restore_state
 486:GrannyChordApp.cpp ****       synth_.SetActiveGrains(knob2_val);
 2420              		.loc 2 486 5 is_stmt 1 view .LVU635
 487:GrannyChordApp.cpp ****       return;
 2421              		.loc 2 487 7 view .LVU636
 487:GrannyChordApp.cpp ****       return;
 2422              		.loc 2 487 29 is_stmt 0 view .LVU637
 2423 0020 2030     		adds	r0, r0, #32
 2424              	.LVL182:
 2425              		.loc 2 519 1 view .LVU638
 2426 0022 BDE81040 		pop	{r4, lr}
 2427              		.cfi_remember_state
ARM GAS  /var/folders/2p/02m_5p7958535cp2tpgps0400000gn/T//ccCr8gkt.s 			page 73


 2428              		.cfi_restore 14
 2429              		.cfi_restore 4
 2430              		.cfi_def_cfa_offset 0
 2431              	.LVL183:
 487:GrannyChordApp.cpp ****       return;
 2432              		.loc 2 487 29 view .LVU639
 2433 0026 FFF7FEBF 		b	_ZN13GranularSynth15SetActiveGrainsEf
 2434              	.LVL184:
 2435              	.L124:
 2436              		.cfi_restore_state
 489:GrannyChordApp.cpp ****       synth_.SetPanRnd(knob2_val);
 2437              		.loc 2 489 5 is_stmt 1 view .LVU640
 490:GrannyChordApp.cpp ****       return;
 2438              		.loc 2 490 7 view .LVU641
 2439              	.LBB436:
 2440              	.LBI436:
  33:GranularSynth.h ****     void SetEnvRnd(float rnd){ rnd_envelope_ = rnd; }
 2441              		.loc 11 33 10 view .LVU642
 2442              	.LBB437:
  33:GranularSynth.h ****     void SetEnvRnd(float rnd){ rnd_envelope_ = rnd; }
 2443              		.loc 11 33 32 view .LVU643
  33:GranularSynth.h ****     void SetEnvRnd(float rnd){ rnd_envelope_ = rnd; }
 2444              		.loc 11 33 41 is_stmt 0 view .LVU644
 2445 002a 00F2BC44 		addw	r4, r0, #1212
 2446              	.LVL185:
 2447              	.L132:
  33:GranularSynth.h ****     void SetEnvRnd(float rnd){ rnd_envelope_ = rnd; }
 2448              		.loc 11 33 41 view .LVU645
 2449              	.LBE437:
 2450              	.LBE436:
 2451              	.LBB438:
 2452              	.LBB439:
  34:GranularSynth.h ****     void SetPhasorRnd(float rnd){ rnd_phasor_ = rnd; }
 2453              		.loc 11 34 46 view .LVU646
 2454 002e 84ED000A 		vstr.32	s0, [r4]
 2455              	.LVL186:
 2456              	.L119:
  34:GranularSynth.h ****     void SetPhasorRnd(float rnd){ rnd_phasor_ = rnd; }
 2457              		.loc 11 34 46 view .LVU647
 2458              	.LBE439:
 2459              	.LBE438:
 2460              		.loc 2 519 1 view .LVU648
 2461 0032 10BD     		pop	{r4, pc}
 2462              	.LVL187:
 2463              	.L128:
 492:GrannyChordApp.cpp ****       knob2_val = fmap(knob2_val, 0, NUM_ENV_TYPES);
 2464              		.loc 2 492 5 is_stmt 1 view .LVU649
 493:GrannyChordApp.cpp ****       synth_.SetEnvelopeType(static_cast<Grain::EnvelopeType>(knob2_val));
 2465              		.loc 2 493 7 view .LVU650
 2466              	.LBB441:
 2467              	.LBI441:
 177:../DaisySP/Source/Utility/dsp.h **** {
 2468              		.loc 10 177 1 view .LVU651
 2469              	.LBE441:
 179:../DaisySP/Source/Utility/dsp.h ****     {
 2470              		.loc 10 179 5 view .LVU652
 2471              	.LBB452:
ARM GAS  /var/folders/2p/02m_5p7958535cp2tpgps0400000gn/T//ccCr8gkt.s 			page 74


 2472              	.LBB442:
 188:../DaisySP/Source/Utility/dsp.h ****         default: return fclamp(min + in * (max - min), min, max);
 2473              		.loc 10 188 9 view .LVU653
 2474              		.loc 10 189 9 view .LVU654
 2475              		.loc 10 189 18 view .LVU655
 2476              		.loc 10 189 31 is_stmt 0 view .LVU656
 2477 0034 DFED276A 		vldr.32	s13, .L133
 2478 0038 B1EE007A 		vmov.f32	s14, #4.0e+0
 2479              	.LBE442:
 2480              	.LBE452:
 494:GrannyChordApp.cpp ****       return;
 2481              		.loc 2 494 29 view .LVU657
 2482 003c 2030     		adds	r0, r0, #32
 2483              	.LVL188:
 2484              	.LBB453:
 2485              	.LBB449:
 2486              		.loc 10 189 31 view .LVU658
 2487 003e F0EE667A 		vmov.f32	s15, s13
 2488              	.LBE449:
 2489              	.LBE453:
 2490              		.loc 2 519 1 view .LVU659
 2491 0042 BDE81040 		pop	{r4, lr}
 2492              		.cfi_remember_state
 2493              		.cfi_restore 14
 2494              		.cfi_restore 4
 2495              		.cfi_def_cfa_offset 0
 2496              	.LVL189:
 2497              	.LBB454:
 2498              	.LBB450:
 2499              		.loc 10 189 31 view .LVU660
 2500 0046 E0EE077A 		vfma.f32	s15, s0, s14
 2501              	.LVL190:
 2502              	.LBB443:
 2503              	.LBI443:
  64:../DaisySP/Source/Utility/dsp.h **** {
 2504              		.loc 10 64 14 is_stmt 1 view .LVU661
 2505              	.LBE443:
 2506              	.LBE450:
 2507              	.LBE454:
  66:../DaisySP/Source/Utility/dsp.h **** }
 2508              		.loc 10 66 5 view .LVU662
 2509              	.LBB455:
 2510              	.LBB451:
 2511              	.LBB448:
 2512              	.LBB444:
 2513              	.LBI444:
  40:../DaisySP/Source/Utility/dsp.h **** {
 2514              		.loc 10 40 14 view .LVU663
 2515              	.LBB445:
  42:../DaisySP/Source/Utility/dsp.h **** #ifdef __arm__
 2516              		.loc 10 42 5 view .LVU664
  44:../DaisySP/Source/Utility/dsp.h **** #else
 2517              		.loc 10 44 5 view .LVU665
 2518              		.syntax unified
 2519              	@ 44 "../DaisySP/Source/Utility/dsp.h" 1
 2520 004a C7FEA67A 		vmaxnm.f32 s15, s15, s13
 2521              	@ 0 "" 2
ARM GAS  /var/folders/2p/02m_5p7958535cp2tpgps0400000gn/T//ccCr8gkt.s 			page 75


 2522              	.LVL191:
  48:../DaisySP/Source/Utility/dsp.h **** }
 2523              		.loc 10 48 5 view .LVU666
  48:../DaisySP/Source/Utility/dsp.h **** }
 2524              		.loc 10 48 5 is_stmt 0 view .LVU667
 2525              		.thumb
 2526              		.syntax unified
 2527              	.LBE445:
 2528              	.LBE444:
 2529              	.LBB446:
 2530              	.LBI446:
  51:../DaisySP/Source/Utility/dsp.h **** {
 2531              		.loc 10 51 14 is_stmt 1 view .LVU668
 2532              	.LBB447:
  53:../DaisySP/Source/Utility/dsp.h **** #ifdef __arm__
 2533              		.loc 10 53 5 view .LVU669
  55:../DaisySP/Source/Utility/dsp.h **** #else
 2534              		.loc 10 55 5 view .LVU670
 2535              		.syntax unified
 2536              	@ 55 "../DaisySP/Source/Utility/dsp.h" 1
 2537 004e C7FEC77A 		vminnm.f32 s15, s15, s14
 2538              	@ 0 "" 2
 2539              	.LVL192:
  59:../DaisySP/Source/Utility/dsp.h **** }
 2540              		.loc 10 59 5 view .LVU671
  59:../DaisySP/Source/Utility/dsp.h **** }
 2541              		.loc 10 59 5 is_stmt 0 view .LVU672
 2542              		.thumb
 2543              		.syntax unified
 2544              	.LBE447:
 2545              	.LBE446:
 2546              	.LBE448:
 2547              	.LBE451:
 2548              	.LBE455:
 494:GrannyChordApp.cpp ****       return;
 2549              		.loc 2 494 7 is_stmt 1 view .LVU673
 494:GrannyChordApp.cpp ****       return;
 2550              		.loc 2 494 29 is_stmt 0 view .LVU674
 2551 0052 FDEEE77A 		vcvt.s32.f32	s15, s15
 2552              	.LVL193:
 494:GrannyChordApp.cpp ****       return;
 2553              		.loc 2 494 29 view .LVU675
 2554 0056 17EE901A 		vmov	r1, s15	@ int
 2555              	.LVL194:
 494:GrannyChordApp.cpp ****       return;
 2556              		.loc 2 494 29 view .LVU676
 2557 005a FFF7FEBF 		b	_ZN13GranularSynth15SetEnvelopeTypeEN5Grain12EnvelopeTypeE
 2558              	.LVL195:
 2559              	.L127:
 2560              		.cfi_restore_state
 496:GrannyChordApp.cpp ****       synth_.SetPositionRnd(knob2_val);
 2561              		.loc 2 496 5 is_stmt 1 view .LVU677
 497:GrannyChordApp.cpp ****       return;
 2562              		.loc 2 497 7 view .LVU678
 2563              	.LBB456:
 2564              	.LBI456:
  30:GranularSynth.h ****     void SetPitchRnd(float rnd){ rnd_pitch_ = rnd; }
ARM GAS  /var/folders/2p/02m_5p7958535cp2tpgps0400000gn/T//ccCr8gkt.s 			page 76


 2565              		.loc 11 30 10 view .LVU679
 2566              	.LBB457:
  30:GranularSynth.h ****     void SetPitchRnd(float rnd){ rnd_pitch_ = rnd; }
 2567              		.loc 11 30 37 view .LVU680
  30:GranularSynth.h ****     void SetPitchRnd(float rnd){ rnd_pitch_ = rnd; }
 2568              		.loc 11 30 52 is_stmt 0 view .LVU681
 2569 005e 00F59664 		add	r4, r0, #1200
 2570 0062 E4E7     		b	.L132
 2571              	.LVL196:
 2572              	.L126:
  30:GranularSynth.h ****     void SetPitchRnd(float rnd){ rnd_pitch_ = rnd; }
 2573              		.loc 11 30 52 view .LVU682
 2574              	.LBE457:
 2575              	.LBE456:
 499:GrannyChordApp.cpp ****       synth_.SetCountRnd(knob2_val);
 2576              		.loc 2 499 5 is_stmt 1 view .LVU683
 500:GrannyChordApp.cpp ****       return;
 2577              		.loc 2 500 7 view .LVU684
 2578              	.LBB458:
 2579              	.LBI458:
  32:GranularSynth.h ****     void SetPanRnd(float rnd){ rnd_pan_ = rnd; }
 2580              		.loc 11 32 10 view .LVU685
 2581              	.LBB459:
  32:GranularSynth.h ****     void SetPanRnd(float rnd){ rnd_pan_ = rnd; }
 2582              		.loc 11 32 34 view .LVU686
  32:GranularSynth.h ****     void SetPanRnd(float rnd){ rnd_pan_ = rnd; }
 2583              		.loc 11 32 45 is_stmt 0 view .LVU687
 2584 0064 00F2B444 		addw	r4, r0, #1204
 2585 0068 E1E7     		b	.L132
 2586              	.LVL197:
 2587              	.L125:
  32:GranularSynth.h ****     void SetPanRnd(float rnd){ rnd_pan_ = rnd; }
 2588              		.loc 11 32 45 view .LVU688
 2589              	.LBE459:
 2590              	.LBE458:
 502:GrannyChordApp.cpp ****       synth_.SetEnvRnd(knob2_val);
 2591              		.loc 2 502 5 is_stmt 1 view .LVU689
 503:GrannyChordApp.cpp ****       return;
 2592              		.loc 2 503 7 view .LVU690
 2593              	.LBB460:
 2594              	.LBI438:
  34:GranularSynth.h ****     void SetPhasorRnd(float rnd){ rnd_phasor_ = rnd; }
 2595              		.loc 11 34 10 view .LVU691
 2596              	.LBB440:
  34:GranularSynth.h ****     void SetPhasorRnd(float rnd){ rnd_phasor_ = rnd; }
 2597              		.loc 11 34 32 view .LVU692
  34:GranularSynth.h ****     void SetPhasorRnd(float rnd){ rnd_phasor_ = rnd; }
 2598              		.loc 11 34 46 is_stmt 0 view .LVU693
 2599 006a 00F59864 		add	r4, r0, #1216
 2600 006e DEE7     		b	.L132
 2601              	.LVL198:
 2602              	.L123:
  34:GranularSynth.h ****     void SetPhasorRnd(float rnd){ rnd_phasor_ = rnd; }
 2603              		.loc 11 34 46 view .LVU694
 2604              	.LBE440:
 2605              	.LBE460:
 505:GrannyChordApp.cpp ****       // /* map knob value to frequency range with an exponential curve */
ARM GAS  /var/folders/2p/02m_5p7958535cp2tpgps0400000gn/T//ccCr8gkt.s 			page 77


 2606              		.loc 2 505 5 is_stmt 1 view .LVU695
 510:GrannyChordApp.cpp ****       return;
 2607              		.loc 2 510 7 view .LVU696
 2608              	.LBB461:
 2609              	.LBI461:
  50:../DaisySP/Source/../DaisySP-LGPL/Source/Effects/reverbsc.h ****     /** controls the reverb time. reverb tail becomes infinite when set to 1.0
 2610              		.loc 12 50 10 view .LVU697
 2611              	.LBB462:
  50:../DaisySP/Source/../DaisySP-LGPL/Source/Effects/reverbsc.h ****     /** controls the reverb time. reverb tail becomes infinite when set to 1.0
 2612              		.loc 12 50 30 view .LVU698
  50:../DaisySP/Source/../DaisySP-LGPL/Source/Effects/reverbsc.h ****     /** controls the reverb time. reverb tail becomes infinite when set to 1.0
 2613              		.loc 12 50 39 is_stmt 0 view .LVU699
 2614 0070 D0F81C35 		ldr	r3, [r0, #1308]
 2615 0074 03F5C123 		add	r3, r3, #395264
 2616 0078 83EDD10A 		vstr.32	s0, [r3, #836]
  50:../DaisySP/Source/../DaisySP-LGPL/Source/Effects/reverbsc.h ****     /** controls the reverb time. reverb tail becomes infinite when set to 1.0
 2617              		.loc 12 50 46 view .LVU700
 2618 007c D9E7     		b	.L119
 2619              	.LVL199:
 2620              	.L121:
  50:../DaisySP/Source/../DaisySP-LGPL/Source/Effects/reverbsc.h ****     /** controls the reverb time. reverb tail becomes infinite when set to 1.0
 2621              		.loc 12 50 46 view .LVU701
 2622              	.LBE462:
 2623              	.LBE461:
 512:GrannyChordApp.cpp ****       /* again, map knob value to frequency range with an exponential curve */
 2624              		.loc 2 512 5 is_stmt 1 view .LVU702
 514:GrannyChordApp.cpp ****       /* set cutoff frequency for high pass filter */
 2625              		.loc 2 514 7 view .LVU703
 2626              	.LBB463:
 2627              	.LBI463:
 177:../DaisySP/Source/Utility/dsp.h **** {
 2628              		.loc 10 177 1 view .LVU704
 2629              	.LBE463:
 179:../DaisySP/Source/Utility/dsp.h ****     {
 2630              		.loc 10 179 5 view .LVU705
 2631              	.LBB477:
 2632              	.LBB464:
 181:../DaisySP/Source/Utility/dsp.h ****             return fclamp(min + (in * in) * (max - min), min, max);
 2633              		.loc 10 181 9 view .LVU706
 182:../DaisySP/Source/Utility/dsp.h ****         case Mapping::LOG:
 2634              		.loc 10 182 13 view .LVU707
 182:../DaisySP/Source/Utility/dsp.h ****         case Mapping::LOG:
 2635              		.loc 10 182 26 is_stmt 0 view .LVU708
 2636 007e 9FED167A 		vldr.32	s14, .L133+4
 182:../DaisySP/Source/Utility/dsp.h ****         case Mapping::LOG:
 2637              		.loc 10 182 37 view .LVU709
 2638 0082 20EE000A 		vmul.f32	s0, s0, s0
 2639              	.LVL200:
 182:../DaisySP/Source/Utility/dsp.h ****         case Mapping::LOG:
 2640              		.loc 10 182 26 view .LVU710
 2641 0086 DFED156A 		vldr.32	s13, .L133+8
 2642              	.LBE464:
 2643              	.LBE477:
 2644              	.LBB478:
 2645              	.LBB479:
  61:../DaisySP/Source/Filters/onepole.h ****         gi_ = 1.f / (1.f + g_);
 2646              		.loc 6 61 13 view .LVU711
ARM GAS  /var/folders/2p/02m_5p7958535cp2tpgps0400000gn/T//ccCr8gkt.s 			page 78


 2647 008a 04F26454 		addw	r4, r4, #1380
 2648              	.LBE479:
 2649              	.LBE478:
 2650              	.LBB482:
 2651              	.LBB474:
 182:../DaisySP/Source/Utility/dsp.h ****         case Mapping::LOG:
 2652              		.loc 10 182 26 view .LVU712
 2653 008e F0EE477A 		vmov.f32	s15, s14
 2654 0092 E0EE267A 		vfma.f32	s15, s0, s13
 2655              	.LVL201:
 2656              	.LBB465:
 2657              	.LBI465:
  64:../DaisySP/Source/Utility/dsp.h **** {
 2658              		.loc 10 64 14 is_stmt 1 view .LVU713
 2659              	.LBE465:
 2660              	.LBE474:
 2661              	.LBE482:
  66:../DaisySP/Source/Utility/dsp.h **** }
 2662              		.loc 10 66 5 view .LVU714
 2663              	.LBB483:
 2664              	.LBB475:
 2665              	.LBB472:
 2666              	.LBB466:
 2667              	.LBI466:
  40:../DaisySP/Source/Utility/dsp.h **** {
 2668              		.loc 10 40 14 view .LVU715
 2669              	.LBB467:
  42:../DaisySP/Source/Utility/dsp.h **** #ifdef __arm__
 2670              		.loc 10 42 5 view .LVU716
  44:../DaisySP/Source/Utility/dsp.h **** #else
 2671              		.loc 10 44 5 view .LVU717
 2672              	.LBE467:
 2673              	.LBE466:
 2674              	.LBE472:
 2675              	.LBE475:
 2676              	.LBE483:
 2677              	.LBB484:
 2678              	.LBB480:
  61:../DaisySP/Source/Filters/onepole.h ****         gi_ = 1.f / (1.f + g_);
 2679              		.loc 6 61 19 is_stmt 0 view .LVU718
 2680 0096 9FED120A 		vldr.32	s0, .L133+12
 2681              	.LBE480:
 2682              	.LBE484:
 2683              	.LBB485:
 2684              	.LBB476:
 2685              	.LBB473:
 2686              	.LBB469:
 2687              	.LBB468:
  44:../DaisySP/Source/Utility/dsp.h **** #else
 2688              		.loc 10 44 5 view .LVU719
 2689              		.syntax unified
 2690              	@ 44 "../DaisySP/Source/Utility/dsp.h" 1
 2691 009a C7FE877A 		vmaxnm.f32 s15, s15, s14
 2692              	@ 0 "" 2
 2693              	.LVL202:
  48:../DaisySP/Source/Utility/dsp.h **** }
 2694              		.loc 10 48 5 is_stmt 1 view .LVU720
ARM GAS  /var/folders/2p/02m_5p7958535cp2tpgps0400000gn/T//ccCr8gkt.s 			page 79


  48:../DaisySP/Source/Utility/dsp.h **** }
 2695              		.loc 10 48 5 is_stmt 0 view .LVU721
 2696              		.thumb
 2697              		.syntax unified
 2698              	.LBE468:
 2699              	.LBE469:
 2700              	.LBB470:
 2701              	.LBI470:
  51:../DaisySP/Source/Utility/dsp.h **** {
 2702              		.loc 10 51 14 is_stmt 1 view .LVU722
 2703              	.LBB471:
  53:../DaisySP/Source/Utility/dsp.h **** #ifdef __arm__
 2704              		.loc 10 53 5 view .LVU723
  55:../DaisySP/Source/Utility/dsp.h **** #else
 2705              		.loc 10 55 5 view .LVU724
 2706 009e 9FED117A 		vldr.32	s14, .L133+16
 2707              	.LVL203:
  55:../DaisySP/Source/Utility/dsp.h **** #else
 2708              		.loc 10 55 5 is_stmt 0 view .LVU725
 2709              		.syntax unified
 2710              	@ 55 "../DaisySP/Source/Utility/dsp.h" 1
 2711 00a2 C7FEC77A 		vminnm.f32 s15, s15, s14
 2712              	@ 0 "" 2
 2713              	.LVL204:
  59:../DaisySP/Source/Utility/dsp.h **** }
 2714              		.loc 10 59 5 is_stmt 1 view .LVU726
  59:../DaisySP/Source/Utility/dsp.h **** }
 2715              		.loc 10 59 5 is_stmt 0 view .LVU727
 2716              		.thumb
 2717              		.syntax unified
 2718              	.LBE471:
 2719              	.LBE470:
 2720              	.LBE473:
 2721              	.LBE476:
 2722              	.LBE485:
 516:GrannyChordApp.cpp ****       return;
 2723              		.loc 2 516 7 is_stmt 1 view .LVU728
 2724              	.LBB486:
 2725              	.LBI478:
  56:../DaisySP/Source/Filters/onepole.h ****     {
 2726              		.loc 6 56 17 view .LVU729
 2727              	.LBB481:
  59:../DaisySP/Source/Filters/onepole.h **** 
 2728              		.loc 6 59 9 view .LVU730
  59:../DaisySP/Source/Filters/onepole.h **** 
 2729              		.loc 6 59 30 is_stmt 0 view .LVU731
 2730 00a6 F4EEC77A 		vcmpe.f32	s15, s14
 2731 00aa F1EE10FA 		vmrs	APSR_nzcv, FPSCR
 2732 00ae 58BF     		it	pl
 2733 00b0 F0EE477A 		vmovpl.f32	s15, s14
 2734              	.LVL205:
  61:../DaisySP/Source/Filters/onepole.h ****         gi_ = 1.f / (1.f + g_);
 2735              		.loc 6 61 9 is_stmt 1 view .LVU732
  61:../DaisySP/Source/Filters/onepole.h ****         gi_ = 1.f / (1.f + g_);
 2736              		.loc 6 61 19 is_stmt 0 view .LVU733
 2737 00b4 27EE800A 		vmul.f32	s0, s15, s0
 2738 00b8 FFF7FEFF 		bl	tanf
ARM GAS  /var/folders/2p/02m_5p7958535cp2tpgps0400000gn/T//ccCr8gkt.s 			page 80


 2739              	.LVL206:
  62:../DaisySP/Source/Filters/onepole.h ****     }
 2740              		.loc 6 62 26 view .LVU734
 2741 00bc F7EE007A 		vmov.f32	s15, #1.0e+0
  61:../DaisySP/Source/Filters/onepole.h ****         gi_ = 1.f / (1.f + g_);
 2742              		.loc 6 61 13 view .LVU735
 2743 00c0 84ED000A 		vstr.32	s0, [r4]
  62:../DaisySP/Source/Filters/onepole.h ****     }
 2744              		.loc 6 62 9 is_stmt 1 view .LVU736
  62:../DaisySP/Source/Filters/onepole.h ****     }
 2745              		.loc 6 62 26 is_stmt 0 view .LVU737
 2746 00c4 30EE270A 		vadd.f32	s0, s0, s15
  62:../DaisySP/Source/Filters/onepole.h ****     }
 2747              		.loc 6 62 19 view .LVU738
 2748 00c8 87EE807A 		vdiv.f32	s14, s15, s0
  62:../DaisySP/Source/Filters/onepole.h ****     }
 2749              		.loc 6 62 13 view .LVU739
 2750 00cc 84ED017A 		vstr.32	s14, [r4, #4]
  63:../DaisySP/Source/Filters/onepole.h **** 
 2751              		.loc 6 63 5 view .LVU740
 2752 00d0 AFE7     		b	.L119
 2753              	.L134:
 2754 00d2 00BF     		.align	2
 2755              	.L133:
 2756 00d4 00000000 		.word	0
 2757 00d8 6F12833A 		.word	981668463
 2758 00dc B7F3FD3E 		.word	1056830391
 2759 00e0 DB0F4940 		.word	1078530011
 2760 00e4 C976FE3E 		.word	1056863945
 2761              	.LBE481:
 2762              	.LBE486:
 2763              		.cfi_endproc
 2764              	.LFE4930:
 2766              		.section	.text._ZN14GrannyChordApp17UpdateSynthParamsEv,"ax",%progbits
 2767              		.align	1
 2768              		.global	_ZN14GrannyChordApp17UpdateSynthParamsEv
 2769              		.syntax unified
 2770              		.thumb
 2771              		.thumb_func
 2773              	_ZN14GrannyChordApp17UpdateSynthParamsEv:
 2774              	.LVL207:
 2775              	.LFB4913:
 187:GrannyChordApp.cpp ****   if (curr_state_!=AppState::Synthesis) return;
 2776              		.loc 2 187 41 is_stmt 1 view -0
 2777              		.cfi_startproc
 2778              		@ args = 0, pretend = 0, frame = 0
 2779              		@ frame_needed = 0, uses_anonymous_args = 0
 188:GrannyChordApp.cpp ****   int mode_idx = static_cast<int>(curr_synth_mode_);
 2780              		.loc 2 188 3 view .LVU742
 2781 0000 D0F8D034 		ldr	r3, [r0, #1232]
 2782 0004 022B     		cmp	r3, #2
 187:GrannyChordApp.cpp ****   if (curr_state_!=AppState::Synthesis) return;
 2783              		.loc 2 187 41 is_stmt 0 view .LVU743
 2784 0006 70B5     		push	{r4, r5, r6, lr}
 2785              		.cfi_def_cfa_offset 16
 2786              		.cfi_offset 4, -16
 2787              		.cfi_offset 5, -12
ARM GAS  /var/folders/2p/02m_5p7958535cp2tpgps0400000gn/T//ccCr8gkt.s 			page 81


 2788              		.cfi_offset 6, -8
 2789              		.cfi_offset 14, -4
 2790 0008 0446     		mov	r4, r0
 2791 000a 2DED048B 		vpush.64	{d8, d9}
 2792              		.cfi_def_cfa_offset 32
 2793              		.cfi_offset 80, -32
 2794              		.cfi_offset 81, -28
 2795              		.cfi_offset 82, -24
 2796              		.cfi_offset 83, -20
 188:GrannyChordApp.cpp ****   int mode_idx = static_cast<int>(curr_synth_mode_);
 2797              		.loc 2 188 3 view .LVU744
 2798 000e 57D1     		bne	.L135
 189:GrannyChordApp.cpp ****   float knob1_val = MapKnobDeadzone(pod_.knob1.Process());
 2799              		.loc 2 189 3 is_stmt 1 view .LVU745
 189:GrannyChordApp.cpp ****   float knob1_val = MapKnobDeadzone(pod_.knob1.Process());
 2800              		.loc 2 189 7 is_stmt 0 view .LVU746
 2801 0010 D0F8D454 		ldr	r5, [r0, #1236]
 2802              	.LVL208:
 190:GrannyChordApp.cpp ****   float knob2_val = MapKnobDeadzone(pod_.knob2.Process());
 2803              		.loc 2 190 3 is_stmt 1 view .LVU747
 190:GrannyChordApp.cpp ****   float knob2_val = MapKnobDeadzone(pod_.knob2.Process());
 2804              		.loc 2 190 36 is_stmt 0 view .LVU748
 2805 0014 C069     		ldr	r0, [r0, #28]
 2806              	.LVL209:
 2807              	.LBB487:
 2808              	.LBB488:
 520:GrannyChordApp.cpp **** 
 521:GrannyChordApp.cpp **** /* check parameter value change is over a certain level to avoid reading knob jitter */
 522:GrannyChordApp.cpp **** inline constexpr bool GrannyChordApp::CheckParamDelta(float curr_val, float prev_val){
 523:GrannyChordApp.cpp ****   return (fabsf(curr_val - prev_val)>0.01f);
 524:GrannyChordApp.cpp **** }
 525:GrannyChordApp.cpp **** 
 526:GrannyChordApp.cpp **** 
 527:GrannyChordApp.cpp **** /* knobs on the Pod have deadzones around 0 and 1 so we adjust for this */
 528:GrannyChordApp.cpp **** inline constexpr float GrannyChordApp::MapKnobDeadzone(float knob_val ){
 529:GrannyChordApp.cpp ****   if (knob_val<=0.01f) return 0.0f;
 2809              		.loc 2 529 3 view .LVU749
 2810 0016 9FED2F9A 		vldr.32	s18, .L152
 2811              	.LBE488:
 2812              	.LBE487:
 190:GrannyChordApp.cpp ****   float knob2_val = MapKnobDeadzone(pod_.knob2.Process());
 2813              		.loc 2 190 36 view .LVU750
 2814 001a 6830     		adds	r0, r0, #104
 2815 001c FFF7FEFF 		bl	_ZN5daisy13AnalogControl7ProcessEv
 2816              	.LVL210:
 2817              	.LBB491:
 2818              	.LBI487:
 528:GrannyChordApp.cpp ****   if (knob_val<=0.01f) return 0.0f;
 2819              		.loc 2 528 24 is_stmt 1 view .LVU751
 2820              	.LBB489:
 2821              		.loc 2 529 3 view .LVU752
 2822 0020 B4EEC90A 		vcmpe.f32	s0, s18
 2823 0024 F1EE10FA 		vmrs	APSR_nzcv, FPSCR
 2824 0028 4DD9     		bls	.L146
 530:GrannyChordApp.cpp ****   if (knob_val>=0.99f) return 1.0f;
 2825              		.loc 2 530 3 view .LVU753
 2826              		.loc 2 530 31 is_stmt 0 view .LVU754
ARM GAS  /var/folders/2p/02m_5p7958535cp2tpgps0400000gn/T//ccCr8gkt.s 			page 82


 2827 002a DFED2B7A 		vldr.32	s15, .L152+4
 2828 002e B4EE670A 		vcmp.f32	s0, s15
 2829 0032 F7EE007A 		vmov.f32	s15, #1.0e+0
 2830 0036 F1EE10FA 		vmrs	APSR_nzcv, FPSCR
 2831 003a 67FE808A 		vselge.f32	s17, s15, s0
 2832              	.L138:
 2833              	.LVL211:
 2834              		.loc 2 530 31 view .LVU755
 2835              	.LBE489:
 2836              	.LBE491:
 191:GrannyChordApp.cpp **** 
 2837              		.loc 2 191 3 is_stmt 1 view .LVU756
 191:GrannyChordApp.cpp **** 
 2838              		.loc 2 191 36 is_stmt 0 view .LVU757
 2839 003e E069     		ldr	r0, [r4, #28]
 2840 0040 8830     		adds	r0, r0, #136
 2841 0042 FFF7FEFF 		bl	_ZN5daisy13AnalogControl7ProcessEv
 2842              	.LVL212:
 2843              	.LBB492:
 2844              	.LBI492:
 528:GrannyChordApp.cpp ****   if (knob_val<=0.01f) return 0.0f;
 2845              		.loc 2 528 24 is_stmt 1 view .LVU758
 2846              	.LBB493:
 529:GrannyChordApp.cpp ****   if (knob_val>=0.99f) return 1.0f;
 2847              		.loc 2 529 3 view .LVU759
 2848 0046 B4EEC90A 		vcmpe.f32	s0, s18
 2849 004a F1EE10FA 		vmrs	APSR_nzcv, FPSCR
 2850 004e 3DD9     		bls	.L147
 2851              		.loc 2 530 3 view .LVU760
 2852              		.loc 2 530 31 is_stmt 0 view .LVU761
 2853 0050 DFED217A 		vldr.32	s15, .L152+4
 2854 0054 B4EE670A 		vcmp.f32	s0, s15
 2855 0058 F7EE007A 		vmov.f32	s15, #1.0e+0
 2856 005c F1EE10FA 		vmrs	APSR_nzcv, FPSCR
 2857 0060 27FE808A 		vselge.f32	s16, s15, s0
 2858              	.L140:
 2859              	.LVL213:
 2860              		.loc 2 530 31 view .LVU762
 2861              	.LBE493:
 2862              	.LBE492:
 193:GrannyChordApp.cpp ****     UpdateKnob1Params(knob1_val,curr_synth_mode_);
 2863              		.loc 2 193 3 is_stmt 1 view .LVU763
 2864 0064 04EB8505 		add	r5, r4, r5, lsl #2
 2865              	.LVL214:
 2866              	.LBB495:
 2867              	.LBI495:
 522:GrannyChordApp.cpp ****   return (fabsf(curr_val - prev_val)>0.01f);
 2868              		.loc 2 522 23 view .LVU764
 2869              	.LBB496:
 523:GrannyChordApp.cpp **** }
 2870              		.loc 2 523 3 view .LVU765
 523:GrannyChordApp.cpp **** }
 2871              		.loc 2 523 3 is_stmt 0 view .LVU766
 2872              	.LBE496:
 2873              	.LBE495:
 193:GrannyChordApp.cpp ****     UpdateKnob1Params(knob1_val,curr_synth_mode_);
 2874              		.loc 2 193 22 view .LVU767
ARM GAS  /var/folders/2p/02m_5p7958535cp2tpgps0400000gn/T//ccCr8gkt.s 			page 83


 2875 0068 05F20C66 		addw	r6, r5, #1548
 2876              	.LBB498:
 2877              	.LBB497:
 523:GrannyChordApp.cpp **** }
 2878              		.loc 2 523 26 view .LVU768
 2879 006c D6ED007A 		vldr.32	s15, [r6]
 2880 0070 78EEE77A 		vsub.f32	s15, s17, s15
 523:GrannyChordApp.cpp **** }
 2881              		.loc 2 523 16 view .LVU769
 2882 0074 F0EEE77A 		vabs.f32	s15, s15
 2883              	.LBE497:
 2884              	.LBE498:
 193:GrannyChordApp.cpp ****     UpdateKnob1Params(knob1_val,curr_synth_mode_);
 2885              		.loc 2 193 3 view .LVU770
 2886 0078 F4EEC97A 		vcmpe.f32	s15, s18
 2887 007c F1EE10FA 		vmrs	APSR_nzcv, FPSCR
 2888 0080 08DD     		ble	.L142
 194:GrannyChordApp.cpp ****     prev_param_vals_k1[mode_idx] = knob1_val;
 2889              		.loc 2 194 5 is_stmt 1 view .LVU771
 194:GrannyChordApp.cpp ****     prev_param_vals_k1[mode_idx] = knob1_val;
 2890              		.loc 2 194 22 is_stmt 0 view .LVU772
 2891 0082 B0EE680A 		vmov.f32	s0, s17
 2892 0086 D4F8D414 		ldr	r1, [r4, #1236]
 2893 008a 2046     		mov	r0, r4
 2894 008c FFF7FEFF 		bl	_ZN14GrannyChordApp17UpdateKnob1ParamsEf9SynthMode
 2895              	.LVL215:
 195:GrannyChordApp.cpp ****   }
 2896              		.loc 2 195 5 is_stmt 1 view .LVU773
 195:GrannyChordApp.cpp ****   }
 2897              		.loc 2 195 34 is_stmt 0 view .LVU774
 2898 0090 C6ED008A 		vstr.32	s17, [r6]
 2899              	.L142:
 197:GrannyChordApp.cpp ****     UpdateKnob2Params(knob2_val, curr_synth_mode_);
 2900              		.loc 2 197 3 is_stmt 1 view .LVU775
 2901              	.LVL216:
 2902              	.LBB499:
 2903              	.LBI499:
 522:GrannyChordApp.cpp ****   return (fabsf(curr_val - prev_val)>0.01f);
 2904              		.loc 2 522 23 view .LVU776
 2905              	.LBB500:
 523:GrannyChordApp.cpp **** }
 2906              		.loc 2 523 3 view .LVU777
 523:GrannyChordApp.cpp **** }
 2907              		.loc 2 523 3 is_stmt 0 view .LVU778
 2908              	.LBE500:
 2909              	.LBE499:
 197:GrannyChordApp.cpp ****     UpdateKnob2Params(knob2_val, curr_synth_mode_);
 2910              		.loc 2 197 21 view .LVU779
 2911 0094 05F5C565 		add	r5, r5, #1576
 2912              	.LBB502:
 2913              	.LBB501:
 523:GrannyChordApp.cpp **** }
 2914              		.loc 2 523 26 view .LVU780
 2915 0098 D5ED007A 		vldr.32	s15, [r5]
 2916 009c 78EE677A 		vsub.f32	s15, s16, s15
 523:GrannyChordApp.cpp **** }
 2917              		.loc 2 523 16 view .LVU781
ARM GAS  /var/folders/2p/02m_5p7958535cp2tpgps0400000gn/T//ccCr8gkt.s 			page 84


 2918 00a0 F0EEE77A 		vabs.f32	s15, s15
 2919              	.LBE501:
 2920              	.LBE502:
 197:GrannyChordApp.cpp ****     UpdateKnob2Params(knob2_val, curr_synth_mode_);
 2921              		.loc 2 197 3 view .LVU782
 2922 00a4 F4EEC97A 		vcmpe.f32	s15, s18
 2923 00a8 F1EE10FA 		vmrs	APSR_nzcv, FPSCR
 2924 00ac 08DD     		ble	.L135
 198:GrannyChordApp.cpp ****     prev_param_vals_k2[mode_idx] = knob2_val;
 2925              		.loc 2 198 5 is_stmt 1 view .LVU783
 198:GrannyChordApp.cpp ****     prev_param_vals_k2[mode_idx] = knob2_val;
 2926              		.loc 2 198 22 is_stmt 0 view .LVU784
 2927 00ae B0EE480A 		vmov.f32	s0, s16
 2928 00b2 D4F8D414 		ldr	r1, [r4, #1236]
 2929 00b6 2046     		mov	r0, r4
 2930 00b8 FFF7FEFF 		bl	_ZN14GrannyChordApp17UpdateKnob2ParamsEf9SynthMode
 2931              	.LVL217:
 199:GrannyChordApp.cpp ****   }
 2932              		.loc 2 199 5 is_stmt 1 view .LVU785
 199:GrannyChordApp.cpp ****   }
 2933              		.loc 2 199 34 is_stmt 0 view .LVU786
 2934 00bc 85ED008A 		vstr.32	s16, [r5]
 2935              	.LVL218:
 2936              	.L135:
 201:GrannyChordApp.cpp **** 
 2937              		.loc 2 201 1 view .LVU787
 2938 00c0 BDEC048B 		vldm	sp!, {d8-d9}
 2939              		.cfi_remember_state
 2940              		.cfi_restore 82
 2941              		.cfi_restore 83
 2942              		.cfi_restore 80
 2943              		.cfi_restore 81
 2944              		.cfi_def_cfa_offset 16
 2945 00c4 70BD     		pop	{r4, r5, r6, pc}
 2946              	.LVL219:
 2947              	.L146:
 2948              		.cfi_restore_state
 2949              	.LBB503:
 2950              	.LBB490:
 529:GrannyChordApp.cpp ****   if (knob_val>=0.99f) return 1.0f;
 2951              		.loc 2 529 31 view .LVU788
 2952 00c6 DFED058A 		vldr.32	s17, .L152+8
 2953 00ca B8E7     		b	.L138
 2954              	.LVL220:
 2955              	.L147:
 529:GrannyChordApp.cpp ****   if (knob_val>=0.99f) return 1.0f;
 2956              		.loc 2 529 31 view .LVU789
 2957              	.LBE490:
 2958              	.LBE503:
 2959              	.LBB504:
 2960              	.LBB494:
 2961 00cc 9FED038A 		vldr.32	s16, .L152+8
 2962 00d0 C8E7     		b	.L140
 2963              	.L153:
 2964 00d2 00BF     		.align	2
 2965              	.L152:
 2966 00d4 0AD7233C 		.word	1008981770
ARM GAS  /var/folders/2p/02m_5p7958535cp2tpgps0400000gn/T//ccCr8gkt.s 			page 85


 2967 00d8 A4707D3F 		.word	1065185444
 2968 00dc 00000000 		.word	0
 2969              	.LBE494:
 2970              	.LBE504:
 2971              		.cfi_endproc
 2972              	.LFE4913:
 2974              		.section	.rodata._ZN14GrannyChordApp15DebugPrintStateE8AppState.str1.1,"aMS",%progbits,1
 2975              	.LC8:
 2976 0000 53746174 		.ascii	"State now in: SelectFile\000"
 2976      65206E6F 
 2976      7720696E 
 2976      3A205365 
 2976      6C656374 
 2977              	.LC9:
 2978 0019 53746174 		.ascii	"State now in: RecordIn\000"
 2978      65206E6F 
 2978      7720696E 
 2978      3A205265 
 2978      636F7264 
 2979              	.LC10:
 2980 0030 53746174 		.ascii	"State now in: PlayWAV\000"
 2980      65206E6F 
 2980      7720696E 
 2980      3A20506C 
 2980      61795741 
 2981              	.LC11:
 2982 0046 53746174 		.ascii	"State now in: Synthesis\000"
 2982      65206E6F 
 2982      7720696E 
 2982      3A205379 
 2982      6E746865 
 2983              	.LC12:
 2984 005e 53746174 		.ascii	"State now in: Error\000"
 2984      65206E6F 
 2984      7720696E 
 2984      3A204572 
 2984      726F7200 
 2985              	.LC13:
 2986 0072 64656661 		.ascii	"default state??\000"
 2986      756C7420 
 2986      73746174 
 2986      653F3F00 
 2987              		.section	.text._ZN14GrannyChordApp15DebugPrintStateE8AppState,"ax",%progbits
 2988              		.align	1
 2989              		.global	_ZN14GrannyChordApp15DebugPrintStateE8AppState
 2990              		.syntax unified
 2991              		.thumb
 2992              		.thumb_func
 2994              	_ZN14GrannyChordApp15DebugPrintStateE8AppState:
 2995              	.LVL221:
 2996              	.LFB4934:
 531:GrannyChordApp.cpp ****   return knob_val;
 532:GrannyChordApp.cpp **** }
 533:GrannyChordApp.cpp **** 
 534:GrannyChordApp.cpp **** /* here we check if the current value of the knob has moved through the last stored value 
 535:GrannyChordApp.cpp ****   before the synth mode changed, and only update the parameter once the current knob value
 536:GrannyChordApp.cpp ****   'passes through' the stored value - meaning if we set grain size to 0.1 then switch modes 
ARM GAS  /var/folders/2p/02m_5p7958535cp2tpgps0400000gn/T//ccCr8gkt.s 			page 86


 537:GrannyChordApp.cpp ****   and move the knob to 0.8, if we switch back, grain size won't be updated again until the 
 538:GrannyChordApp.cpp ****   knob passes through this value.  */
 539:GrannyChordApp.cpp **** 
 540:GrannyChordApp.cpp **** inline constexpr float GrannyChordApp::UpdateKnobPassThru(float curr_knob_val, float *stored_knob_v
 541:GrannyChordApp.cpp ****   if (!(*pass_thru)){
 542:GrannyChordApp.cpp ****     if (curr_knob_val >= (*stored_knob_val) || curr_knob_val <= (*stored_knob_val)) {
 543:GrannyChordApp.cpp ****       (*pass_thru) = true;
 544:GrannyChordApp.cpp ****     }
 545:GrannyChordApp.cpp **** } 
 546:GrannyChordApp.cpp ****   if (*pass_thru){
 547:GrannyChordApp.cpp ****     (*stored_knob_val) = curr_knob_val;
 548:GrannyChordApp.cpp ****     return curr_knob_val;
 549:GrannyChordApp.cpp ****   }
 550:GrannyChordApp.cpp ****   return (*stored_knob_val);
 551:GrannyChordApp.cpp **** }
 552:GrannyChordApp.cpp **** 
 553:GrannyChordApp.cpp **** void GrannyChordApp::DebugPrintState(AppState state){
 2997              		.loc 2 553 53 is_stmt 1 view -0
 2998              		.cfi_startproc
 2999              		@ args = 0, pretend = 0, frame = 0
 3000              		@ frame_needed = 0, uses_anonymous_args = 0
 3001              		@ link register save eliminated.
 554:GrannyChordApp.cpp ****   switch(state){
 3002              		.loc 2 554 3 view .LVU791
 3003 0000 0429     		cmp	r1, #4
 3004 0002 0FD8     		bhi	.L155
 3005 0004 DFE801F0 		tbb	[pc, r1]
 3006              	.L157:
 3007 0008 03       		.byte	(.L161-.L157)/2
 3008 0009 08       		.byte	(.L160-.L157)/2
 3009 000a 0A       		.byte	(.L159-.L157)/2
 3010 000b 06       		.byte	(.L158-.L157)/2
 3011 000c 0C       		.byte	(.L156-.L157)/2
 3012 000d 00       		.p2align 1
 3013              	.L161:
 555:GrannyChordApp.cpp ****     case AppState::SelectFile:
 3014              		.loc 2 555 5 view .LVU792
 556:GrannyChordApp.cpp ****       DebugPrint(pod_, "State now in: SelectFile");
 3015              		.loc 2 556 7 view .LVU793
 3016              		.loc 2 556 7 view .LVU794
 3017              	.LVL222:
 3018              	.LBB505:
 3019              	.LBI505:
 126:../libDaisy/src/daisy_seed.h ****     {
 3020              		.loc 4 126 17 view .LVU795
 3021              	.LBB506:
 3022              		.loc 4 128 23 is_stmt 0 view .LVU796
 3023 000e 0648     		ldr	r0, .L163
 3024              	.LVL223:
 3025              	.L162:
 3026              		.loc 4 128 23 view .LVU797
 3027              	.LBE506:
 3028              	.LBE505:
 3029              	.LBB507:
 3030              	.LBB508:
 3031 0010 FFF7FEBF 		b	_ZN5daisy6LoggerILNS_17LoggerDestinationE1EE9PrintLineEPKcz
 3032              	.LVL224:
ARM GAS  /var/folders/2p/02m_5p7958535cp2tpgps0400000gn/T//ccCr8gkt.s 			page 87


 3033              	.L158:
 3034              		.loc 4 128 23 view .LVU798
 3035              	.LBE508:
 3036              	.LBE507:
 557:GrannyChordApp.cpp ****         return;
 558:GrannyChordApp.cpp ****     case AppState::RecordIn:
 3037              		.loc 2 558 5 is_stmt 1 view .LVU799
 559:GrannyChordApp.cpp ****       DebugPrint(pod_, "State now in: RecordIn");
 3038              		.loc 2 559 7 view .LVU800
 3039              		.loc 2 559 7 view .LVU801
 3040              	.LBB510:
 3041              	.LBI510:
 126:../libDaisy/src/daisy_seed.h ****     {
 3042              		.loc 4 126 17 view .LVU802
 3043              	.LBB511:
 3044              		.loc 4 128 23 is_stmt 0 view .LVU803
 3045 0014 0548     		ldr	r0, .L163+4
 3046              	.LVL225:
 3047              		.loc 4 128 23 view .LVU804
 3048 0016 FBE7     		b	.L162
 3049              	.LVL226:
 3050              	.L160:
 3051              		.loc 4 128 23 view .LVU805
 3052              	.LBE511:
 3053              	.LBE510:
 560:GrannyChordApp.cpp ****         return;
 561:GrannyChordApp.cpp ****     case AppState::PlayWAV:
 3054              		.loc 2 561 5 is_stmt 1 view .LVU806
 562:GrannyChordApp.cpp ****       DebugPrint(pod_, "State now in: PlayWAV");
 3055              		.loc 2 562 7 view .LVU807
 3056              		.loc 2 562 7 view .LVU808
 3057              	.LBB512:
 3058              	.LBI512:
 126:../libDaisy/src/daisy_seed.h ****     {
 3059              		.loc 4 126 17 view .LVU809
 3060              	.LBB513:
 3061              		.loc 4 128 23 is_stmt 0 view .LVU810
 3062 0018 0548     		ldr	r0, .L163+8
 3063              	.LVL227:
 3064              		.loc 4 128 23 view .LVU811
 3065 001a F9E7     		b	.L162
 3066              	.LVL228:
 3067              	.L159:
 3068              		.loc 4 128 23 view .LVU812
 3069              	.LBE513:
 3070              	.LBE512:
 563:GrannyChordApp.cpp ****         return;
 564:GrannyChordApp.cpp ****     case AppState::Synthesis:
 3071              		.loc 2 564 5 is_stmt 1 view .LVU813
 565:GrannyChordApp.cpp ****       DebugPrint(pod_, "State now in: Synthesis");
 3072              		.loc 2 565 7 view .LVU814
 3073              		.loc 2 565 7 view .LVU815
 3074              	.LBB514:
 3075              	.LBI514:
 126:../libDaisy/src/daisy_seed.h ****     {
 3076              		.loc 4 126 17 view .LVU816
 3077              	.LBB515:
ARM GAS  /var/folders/2p/02m_5p7958535cp2tpgps0400000gn/T//ccCr8gkt.s 			page 88


 3078              		.loc 4 128 23 is_stmt 0 view .LVU817
 3079 001c 0548     		ldr	r0, .L163+12
 3080              	.LVL229:
 3081              		.loc 4 128 23 view .LVU818
 3082 001e F7E7     		b	.L162
 3083              	.LVL230:
 3084              	.L156:
 3085              		.loc 4 128 23 view .LVU819
 3086              	.LBE515:
 3087              	.LBE514:
 566:GrannyChordApp.cpp ****         return;
 567:GrannyChordApp.cpp ****     // case AppState::ChordMode:
 568:GrannyChordApp.cpp ****       DebugPrint(pod_, "State now in: ChordMode");
 569:GrannyChordApp.cpp ****     case AppState::Error:
 3088              		.loc 2 569 5 is_stmt 1 view .LVU820
 570:GrannyChordApp.cpp ****       DebugPrint(pod_, "State now in: Error");
 3089              		.loc 2 570 7 view .LVU821
 3090              		.loc 2 570 7 view .LVU822
 3091              	.LBB516:
 3092              	.LBI516:
 126:../libDaisy/src/daisy_seed.h ****     {
 3093              		.loc 4 126 17 view .LVU823
 3094              	.LBB517:
 3095              		.loc 4 128 23 is_stmt 0 view .LVU824
 3096 0020 0548     		ldr	r0, .L163+16
 3097              	.LVL231:
 3098              		.loc 4 128 23 view .LVU825
 3099 0022 F5E7     		b	.L162
 3100              	.LVL232:
 3101              	.L155:
 3102              		.loc 4 128 23 view .LVU826
 3103              	.LBE517:
 3104              	.LBE516:
 571:GrannyChordApp.cpp ****         return;
 572:GrannyChordApp.cpp ****     default:
 3105              		.loc 2 572 5 is_stmt 1 view .LVU827
 573:GrannyChordApp.cpp ****       DebugPrint(pod_, "default state??");
 3106              		.loc 2 573 7 view .LVU828
 3107              		.loc 2 573 7 view .LVU829
 3108              	.LBB518:
 3109              	.LBI507:
 126:../libDaisy/src/daisy_seed.h ****     {
 3110              		.loc 4 126 17 view .LVU830
 3111              	.LBB509:
 3112              		.loc 4 128 23 is_stmt 0 view .LVU831
 3113 0024 0548     		ldr	r0, .L163+20
 3114              	.LVL233:
 3115              		.loc 4 128 23 view .LVU832
 3116 0026 F3E7     		b	.L162
 3117              	.L164:
 3118              		.align	2
 3119              	.L163:
 3120 0028 00000000 		.word	.LC8
 3121 002c 19000000 		.word	.LC9
 3122 0030 30000000 		.word	.LC10
 3123 0034 46000000 		.word	.LC11
 3124 0038 5E000000 		.word	.LC12
ARM GAS  /var/folders/2p/02m_5p7958535cp2tpgps0400000gn/T//ccCr8gkt.s 			page 89


 3125 003c 72000000 		.word	.LC13
 3126              	.LBE509:
 3127              	.LBE518:
 3128              		.cfi_endproc
 3129              	.LFE4934:
 3131              		.section	.rodata._ZN14GrannyChordApp8UpdateUIEv.str1.1,"aMS",%progbits,1
 3132              	.LC14:
 3133 0000 73776974 		.ascii	"switching states\000"
 3133      6368696E 
 3133      67207374 
 3133      61746573 
 3133      00
 3134              		.section	.text._ZN14GrannyChordApp8UpdateUIEv,"ax",%progbits
 3135              		.align	1
 3136              		.global	_ZN14GrannyChordApp8UpdateUIEv
 3137              		.syntax unified
 3138              		.thumb
 3139              		.thumb_func
 3141              	_ZN14GrannyChordApp8UpdateUIEv:
 3142              	.LVL234:
 3143              	.LFB4903:
  45:GrannyChordApp.cpp ****   AppState prev_state = curr_state_;
 3144              		.loc 2 45 32 is_stmt 1 view -0
 3145              		.cfi_startproc
 3146              		@ args = 0, pretend = 0, frame = 0
 3147              		@ frame_needed = 0, uses_anonymous_args = 0
  46:GrannyChordApp.cpp ****   pod_.ProcessDigitalControls();
 3148              		.loc 2 46 3 view .LVU834
  45:GrannyChordApp.cpp ****   AppState prev_state = curr_state_;
 3149              		.loc 2 45 32 is_stmt 0 view .LVU835
 3150 0000 38B5     		push	{r3, r4, r5, lr}
 3151              		.cfi_def_cfa_offset 16
 3152              		.cfi_offset 3, -16
 3153              		.cfi_offset 4, -12
 3154              		.cfi_offset 5, -8
 3155              		.cfi_offset 14, -4
 3156 0002 0446     		mov	r4, r0
  46:GrannyChordApp.cpp ****   pod_.ProcessDigitalControls();
 3157              		.loc 2 46 12 view .LVU836
 3158 0004 D0F8D054 		ldr	r5, [r0, #1232]
 3159              	.LVL235:
  47:GrannyChordApp.cpp ****   if (pod_.encoder.Pressed()) HandleEncoderPressed();
 3160              		.loc 2 47 3 is_stmt 1 view .LVU837
  47:GrannyChordApp.cpp ****   if (pod_.encoder.Pressed()) HandleEncoderPressed();
 3161              		.loc 2 47 30 is_stmt 0 view .LVU838
 3162 0008 C069     		ldr	r0, [r0, #28]
 3163              	.LVL236:
  45:GrannyChordApp.cpp ****   AppState prev_state = curr_state_;
 3164              		.loc 2 45 32 view .LVU839
 3165 000a 2DED028B 		vpush.64	{d8}
 3166              		.cfi_def_cfa_offset 24
 3167              		.cfi_offset 80, -24
 3168              		.cfi_offset 81, -20
  47:GrannyChordApp.cpp ****   if (pod_.encoder.Pressed()) HandleEncoderPressed();
 3169              		.loc 2 47 30 view .LVU840
 3170 000e FFF7FEFF 		bl	_ZN5daisy8DaisyPod22ProcessDigitalControlsEv
 3171              	.LVL237:
ARM GAS  /var/folders/2p/02m_5p7958535cp2tpgps0400000gn/T//ccCr8gkt.s 			page 90


  48:GrannyChordApp.cpp ****   if (pod_.encoder.TimeHeldMs() > 1000.0f) HandleEncoderLongPress();
 3172              		.loc 2 48 3 is_stmt 1 view .LVU841
 3173              	.LBB519:
 3174              	.LBI519:
 3175              		.file 13 "../libDaisy/src/hid/encoder.h"
   1:../libDaisy/src/hid/encoder.h **** #pragma once
   2:../libDaisy/src/hid/encoder.h **** #ifndef DSY_ENCODER_H
   3:../libDaisy/src/hid/encoder.h **** #define DSY_ENCODER_H
   4:../libDaisy/src/hid/encoder.h **** #include "daisy_core.h"
   5:../libDaisy/src/hid/encoder.h **** #include "per/gpio.h"
   6:../libDaisy/src/hid/encoder.h **** #include "hid/switch.h"
   7:../libDaisy/src/hid/encoder.h **** 
   8:../libDaisy/src/hid/encoder.h **** namespace daisy
   9:../libDaisy/src/hid/encoder.h **** {
  10:../libDaisy/src/hid/encoder.h **** /** 
  11:../libDaisy/src/hid/encoder.h ****     @brief Generic Class for handling Quadrature Encoders \n 
  12:../libDaisy/src/hid/encoder.h ****     Inspired/influenced by Mutable Instruments (pichenettes) Encoder classes
  13:../libDaisy/src/hid/encoder.h ****     @author Stephen Hensley
  14:../libDaisy/src/hid/encoder.h ****     @date December 2019
  15:../libDaisy/src/hid/encoder.h ****     @ingroup controls
  16:../libDaisy/src/hid/encoder.h **** */
  17:../libDaisy/src/hid/encoder.h **** class Encoder
  18:../libDaisy/src/hid/encoder.h **** {
  19:../libDaisy/src/hid/encoder.h ****   public:
  20:../libDaisy/src/hid/encoder.h ****     Encoder() {}
  21:../libDaisy/src/hid/encoder.h ****     ~Encoder() {}
  22:../libDaisy/src/hid/encoder.h **** 
  23:../libDaisy/src/hid/encoder.h ****     /** Initializes the encoder with the specified hardware pins.
  24:../libDaisy/src/hid/encoder.h ****      * Update rate is to be deprecated in a future release
  25:../libDaisy/src/hid/encoder.h ****      */
  26:../libDaisy/src/hid/encoder.h ****     void Init(dsy_gpio_pin a,
  27:../libDaisy/src/hid/encoder.h ****               dsy_gpio_pin b,
  28:../libDaisy/src/hid/encoder.h ****               dsy_gpio_pin click,
  29:../libDaisy/src/hid/encoder.h ****               float        update_rate = 0.f);
  30:../libDaisy/src/hid/encoder.h ****     /** Called at update_rate to debounce and handle timing for the switch.
  31:../libDaisy/src/hid/encoder.h ****      * In order for events not to be missed, its important that the Edge/Pressed checks be made at 
  32:../libDaisy/src/hid/encoder.h ****      */
  33:../libDaisy/src/hid/encoder.h ****     void Debounce();
  34:../libDaisy/src/hid/encoder.h **** 
  35:../libDaisy/src/hid/encoder.h ****     /** Returns +1 if the encoder was turned clockwise, -1 if it was turned counter-clockwise, or 0
  36:../libDaisy/src/hid/encoder.h ****     inline int32_t Increment() const { return updated_ ? inc_ : 0; }
  37:../libDaisy/src/hid/encoder.h **** 
  38:../libDaisy/src/hid/encoder.h ****     /** Returns true if the encoder was just pressed. */
  39:../libDaisy/src/hid/encoder.h ****     inline bool RisingEdge() const { return sw_.RisingEdge(); }
  40:../libDaisy/src/hid/encoder.h **** 
  41:../libDaisy/src/hid/encoder.h ****     /** Returns true if the encoder was just released. */
  42:../libDaisy/src/hid/encoder.h ****     inline bool FallingEdge() const { return sw_.FallingEdge(); }
  43:../libDaisy/src/hid/encoder.h **** 
  44:../libDaisy/src/hid/encoder.h ****     /** Returns true while the encoder is held down.*/
  45:../libDaisy/src/hid/encoder.h ****     inline bool Pressed() const { return sw_.Pressed(); }
 3176              		.loc 13 45 17 view .LVU842
 3177              	.LBE519:
 3178              		.loc 13 45 35 view .LVU843
 3179              	.LBB522:
 3180              	.LBB520:
 3181              	.LBI520:
  79:../libDaisy/src/hid/switch.h **** 
ARM GAS  /var/folders/2p/02m_5p7958535cp2tpgps0400000gn/T//ccCr8gkt.s 			page 91


 3182              		.loc 1 79 17 view .LVU844
 3183              	.LBB521:
  79:../libDaisy/src/hid/switch.h **** 
 3184              		.loc 1 79 35 view .LVU845
  79:../libDaisy/src/hid/switch.h **** 
 3185              		.loc 1 79 42 is_stmt 0 view .LVU846
 3186 0012 E369     		ldr	r3, [r4, #28]
 3187              	.LBE521:
 3188              	.LBE520:
 3189              	.LBE522:
  48:GrannyChordApp.cpp ****   if (pod_.encoder.TimeHeldMs() > 1000.0f) HandleEncoderLongPress();
 3190              		.loc 2 48 3 view .LVU847
 3191 0014 93F85230 		ldrb	r3, [r3, #82]	@ zero_extendqisi2
 3192 0018 FF2B     		cmp	r3, #255
 3193 001a 02D1     		bne	.L166
  48:GrannyChordApp.cpp ****   if (pod_.encoder.TimeHeldMs() > 1000.0f) HandleEncoderLongPress();
 3194              		.loc 2 48 31 is_stmt 1 discriminator 1 view .LVU848
  48:GrannyChordApp.cpp ****   if (pod_.encoder.TimeHeldMs() > 1000.0f) HandleEncoderLongPress();
 3195              		.loc 2 48 51 is_stmt 0 discriminator 1 view .LVU849
 3196 001c 2046     		mov	r0, r4
 3197 001e FFF7FEFF 		bl	_ZN14GrannyChordApp20HandleEncoderPressedEv
 3198              	.LVL238:
 3199              	.L166:
  49:GrannyChordApp.cpp ****   if (pod_.button1.Pressed()) HandleButton1();
 3200              		.loc 2 49 3 is_stmt 1 view .LVU850
 3201              	.LBB523:
 3202              	.LBI523:
  46:../libDaisy/src/hid/encoder.h **** 
  47:../libDaisy/src/hid/encoder.h ****     /** Returns the time in milliseconds that the encoder has been held down. */
  48:../libDaisy/src/hid/encoder.h ****     inline float TimeHeldMs() const { return sw_.TimeHeldMs(); }
 3203              		.loc 13 48 18 view .LVU851
 3204              	.LBB524:
 3205              		.loc 13 48 39 view .LVU852
 3206              		.loc 13 48 60 is_stmt 0 view .LVU853
 3207 0022 E069     		ldr	r0, [r4, #28]
 3208              	.LBE524:
 3209              	.LBE523:
  49:GrannyChordApp.cpp ****   if (pod_.button1.Pressed()) HandleButton1();
 3210              		.loc 2 49 3 view .LVU854
 3211 0024 9FED328A 		vldr.32	s16, .L189
 3212              	.LBB526:
 3213              	.LBB525:
 3214              		.loc 13 48 60 view .LVU855
 3215 0028 4830     		adds	r0, r0, #72
 3216 002a FFF7FEFF 		bl	_ZNK5daisy6Switch10TimeHeldMsEv
 3217              	.LVL239:
 3218              		.loc 13 48 60 view .LVU856
 3219              	.LBE525:
 3220              	.LBE526:
  49:GrannyChordApp.cpp ****   if (pod_.button1.Pressed()) HandleButton1();
 3221              		.loc 2 49 3 view .LVU857
 3222 002e B4EEC80A 		vcmpe.f32	s0, s16
 3223 0032 F1EE10FA 		vmrs	APSR_nzcv, FPSCR
 3224 0036 02DD     		ble	.L167
  49:GrannyChordApp.cpp ****   if (pod_.button1.Pressed()) HandleButton1();
 3225              		.loc 2 49 44 is_stmt 1 discriminator 1 view .LVU858
  49:GrannyChordApp.cpp ****   if (pod_.button1.Pressed()) HandleButton1();
ARM GAS  /var/folders/2p/02m_5p7958535cp2tpgps0400000gn/T//ccCr8gkt.s 			page 92


 3226              		.loc 2 49 66 is_stmt 0 discriminator 1 view .LVU859
 3227 0038 2046     		mov	r0, r4
 3228 003a FFF7FEFF 		bl	_ZN14GrannyChordApp22HandleEncoderLongPressEv
 3229              	.LVL240:
 3230              	.L167:
  50:GrannyChordApp.cpp ****   if (pod_.button2.Pressed()) HandleButton2();
 3231              		.loc 2 50 3 is_stmt 1 view .LVU860
 3232              	.LBB527:
 3233              	.LBI527:
  79:../libDaisy/src/hid/switch.h **** 
 3234              		.loc 1 79 17 view .LVU861
 3235              	.LBB528:
  79:../libDaisy/src/hid/switch.h **** 
 3236              		.loc 1 79 35 view .LVU862
  79:../libDaisy/src/hid/switch.h **** 
 3237              		.loc 1 79 42 is_stmt 0 view .LVU863
 3238 003e E369     		ldr	r3, [r4, #28]
 3239              	.LBE528:
 3240              	.LBE527:
  50:GrannyChordApp.cpp ****   if (pod_.button2.Pressed()) HandleButton2();
 3241              		.loc 2 50 3 view .LVU864
 3242 0040 93F8BA30 		ldrb	r3, [r3, #186]	@ zero_extendqisi2
 3243 0044 FF2B     		cmp	r3, #255
 3244 0046 02D1     		bne	.L169
  50:GrannyChordApp.cpp ****   if (pod_.button2.Pressed()) HandleButton2();
 3245              		.loc 2 50 31 is_stmt 1 discriminator 1 view .LVU865
  50:GrannyChordApp.cpp ****   if (pod_.button2.Pressed()) HandleButton2();
 3246              		.loc 2 50 44 is_stmt 0 discriminator 1 view .LVU866
 3247 0048 2046     		mov	r0, r4
 3248 004a FFF7FEFF 		bl	_ZN14GrannyChordApp13HandleButton1Ev
 3249              	.LVL241:
 3250              	.L169:
  51:GrannyChordApp.cpp ****   if (curr_state_==AppState::Synthesis){
 3251              		.loc 2 51 3 is_stmt 1 view .LVU867
 3252              	.LBB529:
 3253              	.LBI529:
  79:../libDaisy/src/hid/switch.h **** 
 3254              		.loc 1 79 17 view .LVU868
 3255              	.LBB530:
  79:../libDaisy/src/hid/switch.h **** 
 3256              		.loc 1 79 35 view .LVU869
  79:../libDaisy/src/hid/switch.h **** 
 3257              		.loc 1 79 42 is_stmt 0 view .LVU870
 3258 004e E369     		ldr	r3, [r4, #28]
 3259              	.LBE530:
 3260              	.LBE529:
  51:GrannyChordApp.cpp ****   if (curr_state_==AppState::Synthesis){
 3261              		.loc 2 51 3 view .LVU871
 3262 0050 93F8CA30 		ldrb	r3, [r3, #202]	@ zero_extendqisi2
 3263 0054 FF2B     		cmp	r3, #255
 3264 0056 02D1     		bne	.L170
  51:GrannyChordApp.cpp ****   if (curr_state_==AppState::Synthesis){
 3265              		.loc 2 51 31 is_stmt 1 discriminator 1 view .LVU872
  51:GrannyChordApp.cpp ****   if (curr_state_==AppState::Synthesis){
 3266              		.loc 2 51 44 is_stmt 0 discriminator 1 view .LVU873
 3267 0058 2046     		mov	r0, r4
 3268 005a FFF7FEFF 		bl	_ZN14GrannyChordApp13HandleButton2Ev
ARM GAS  /var/folders/2p/02m_5p7958535cp2tpgps0400000gn/T//ccCr8gkt.s 			page 93


 3269              	.LVL242:
 3270              	.L170:
  52:GrannyChordApp.cpp ****     if (pod_.button1.TimeHeldMs() >1000.0f) HandleButton1LongPress();
 3271              		.loc 2 52 3 is_stmt 1 view .LVU874
 3272 005e D4F8D034 		ldr	r3, [r4, #1232]
 3273 0062 022B     		cmp	r3, #2
 3274 0064 17D1     		bne	.L172
  53:GrannyChordApp.cpp ****     if (pod_.button2.TimeHeldMs() >1000.0f) HandleButton2LongPress();
 3275              		.loc 2 53 5 view .LVU875
  53:GrannyChordApp.cpp ****     if (pod_.button2.TimeHeldMs() >1000.0f) HandleButton2LongPress();
 3276              		.loc 2 53 32 is_stmt 0 view .LVU876
 3277 0066 E069     		ldr	r0, [r4, #28]
 3278 0068 B030     		adds	r0, r0, #176
 3279 006a FFF7FEFF 		bl	_ZNK5daisy6Switch10TimeHeldMsEv
 3280              	.LVL243:
  53:GrannyChordApp.cpp ****     if (pod_.button2.TimeHeldMs() >1000.0f) HandleButton2LongPress();
 3281              		.loc 2 53 5 view .LVU877
 3282 006e B4EEC80A 		vcmpe.f32	s0, s16
 3283 0072 F1EE10FA 		vmrs	APSR_nzcv, FPSCR
 3284 0076 02DD     		ble	.L173
  53:GrannyChordApp.cpp ****     if (pod_.button2.TimeHeldMs() >1000.0f) HandleButton2LongPress();
 3285              		.loc 2 53 45 is_stmt 1 discriminator 1 view .LVU878
  53:GrannyChordApp.cpp ****     if (pod_.button2.TimeHeldMs() >1000.0f) HandleButton2LongPress();
 3286              		.loc 2 53 67 is_stmt 0 discriminator 1 view .LVU879
 3287 0078 2046     		mov	r0, r4
 3288 007a FFF7FEFF 		bl	_ZN14GrannyChordApp22HandleButton1LongPressEv
 3289              	.LVL244:
 3290              	.L173:
  54:GrannyChordApp.cpp ****   }
 3291              		.loc 2 54 5 is_stmt 1 view .LVU880
  54:GrannyChordApp.cpp ****   }
 3292              		.loc 2 54 32 is_stmt 0 view .LVU881
 3293 007e E069     		ldr	r0, [r4, #28]
 3294 0080 C030     		adds	r0, r0, #192
 3295 0082 FFF7FEFF 		bl	_ZNK5daisy6Switch10TimeHeldMsEv
 3296              	.LVL245:
  54:GrannyChordApp.cpp ****   }
 3297              		.loc 2 54 5 view .LVU882
 3298 0086 B4EEC80A 		vcmpe.f32	s0, s16
 3299 008a F1EE10FA 		vmrs	APSR_nzcv, FPSCR
 3300 008e 02DD     		ble	.L172
  54:GrannyChordApp.cpp ****   }
 3301              		.loc 2 54 45 is_stmt 1 discriminator 1 view .LVU883
  54:GrannyChordApp.cpp ****   }
 3302              		.loc 2 54 67 is_stmt 0 discriminator 1 view .LVU884
 3303 0090 2046     		mov	r0, r4
 3304 0092 FFF7FEFF 		bl	_ZN14GrannyChordApp22HandleButton2LongPressEv
 3305              	.LVL246:
 3306              	.L172:
  57:GrannyChordApp.cpp ****   if (encoder_inc!=0){
 3307              		.loc 2 57 3 is_stmt 1 view .LVU885
  57:GrannyChordApp.cpp ****   if (encoder_inc!=0){
 3308              		.loc 2 57 25 is_stmt 0 view .LVU886
 3309 0096 E369     		ldr	r3, [r4, #28]
 3310              	.LVL247:
 3311              	.LBB531:
 3312              	.LBI531:
ARM GAS  /var/folders/2p/02m_5p7958535cp2tpgps0400000gn/T//ccCr8gkt.s 			page 94


  36:../libDaisy/src/hid/encoder.h **** 
 3313              		.loc 13 36 20 is_stmt 1 view .LVU887
 3314              	.LBB532:
  36:../libDaisy/src/hid/encoder.h **** 
 3315              		.loc 13 36 40 view .LVU888
  36:../libDaisy/src/hid/encoder.h **** 
 3316              		.loc 13 36 56 is_stmt 0 view .LVU889
 3317 0098 93F84420 		ldrb	r2, [r3, #68]	@ zero_extendqisi2
 3318 009c 3AB1     		cbz	r2, .L177
 3319 009e 596E     		ldr	r1, [r3, #100]
 3320              	.LVL248:
  36:../libDaisy/src/hid/encoder.h **** 
 3321              		.loc 13 36 56 view .LVU890
 3322              	.LBE532:
 3323              	.LBE531:
  58:GrannyChordApp.cpp ****     if (curr_state_== AppState::SelectFile){
 3324              		.loc 2 58 3 is_stmt 1 view .LVU891
 3325 00a0 29B1     		cbz	r1, .L177
  59:GrannyChordApp.cpp ****       HandleFileSelection(encoder_inc);
 3326              		.loc 2 59 9 is_stmt 0 view .LVU892
 3327 00a2 D4F8D034 		ldr	r3, [r4, #1232]
  59:GrannyChordApp.cpp ****       HandleFileSelection(encoder_inc);
 3328              		.loc 2 59 5 is_stmt 1 view .LVU893
 3329 00a6 CBB9     		cbnz	r3, .L178
  60:GrannyChordApp.cpp ****     }
 3330              		.loc 2 60 7 view .LVU894
  60:GrannyChordApp.cpp ****     }
 3331              		.loc 2 60 26 is_stmt 0 view .LVU895
 3332 00a8 2046     		mov	r0, r4
 3333 00aa FFF7FEFF 		bl	_ZN14GrannyChordApp19HandleFileSelectionEl
 3334              	.LVL249:
 3335              	.L177:
  66:GrannyChordApp.cpp ****     DebugPrintState(prev_state);
 3336              		.loc 2 66 3 is_stmt 1 view .LVU896
 3337 00ae D4F8D034 		ldr	r3, [r4, #1232]
 3338 00b2 AB42     		cmp	r3, r5
 3339 00b4 18D0     		beq	.L165
  67:GrannyChordApp.cpp ****     DebugPrint(pod_, "switching states");
 3340              		.loc 2 67 5 view .LVU897
  67:GrannyChordApp.cpp ****     DebugPrint(pod_, "switching states");
 3341              		.loc 2 67 20 is_stmt 0 view .LVU898
 3342 00b6 2946     		mov	r1, r5
 3343 00b8 2046     		mov	r0, r4
 3344 00ba FFF7FEFF 		bl	_ZN14GrannyChordApp15DebugPrintStateE8AppState
 3345              	.LVL250:
  68:GrannyChordApp.cpp ****     DebugPrintState(curr_state_);
 3346              		.loc 2 68 5 is_stmt 1 view .LVU899
  68:GrannyChordApp.cpp ****     DebugPrintState(curr_state_);
 3347              		.loc 2 68 5 view .LVU900
 3348              	.LBB533:
 3349              	.LBI533:
 126:../libDaisy/src/daisy_seed.h ****     {
 3350              		.loc 4 126 17 view .LVU901
 3351              	.LBB534:
 3352              		.loc 4 128 23 is_stmt 0 view .LVU902
 3353 00be 0D48     		ldr	r0, .L189+4
 3354 00c0 FFF7FEFF 		bl	_ZN5daisy6LoggerILNS_17LoggerDestinationE1EE9PrintLineEPKcz
ARM GAS  /var/folders/2p/02m_5p7958535cp2tpgps0400000gn/T//ccCr8gkt.s 			page 95


 3355              	.LVL251:
 3356              		.loc 4 128 23 view .LVU903
 3357              	.LBE534:
 3358              	.LBE533:
  69:GrannyChordApp.cpp ****     HandleStateChange();
 3359              		.loc 2 69 5 is_stmt 1 view .LVU904
  69:GrannyChordApp.cpp ****     HandleStateChange();
 3360              		.loc 2 69 20 is_stmt 0 view .LVU905
 3361 00c4 2046     		mov	r0, r4
 3362 00c6 D4F8D014 		ldr	r1, [r4, #1232]
 3363 00ca FFF7FEFF 		bl	_ZN14GrannyChordApp15DebugPrintStateE8AppState
 3364              	.LVL252:
  70:GrannyChordApp.cpp ****   }
 3365              		.loc 2 70 5 is_stmt 1 view .LVU906
  70:GrannyChordApp.cpp ****   }
 3366              		.loc 2 70 22 is_stmt 0 view .LVU907
 3367 00ce 2046     		mov	r0, r4
  72:GrannyChordApp.cpp **** 
 3368              		.loc 2 72 1 view .LVU908
 3369 00d0 BDEC028B 		vldm	sp!, {d8}
 3370              		.cfi_remember_state
 3371              		.cfi_restore 80
 3372              		.cfi_restore 81
 3373              		.cfi_def_cfa_offset 16
 3374 00d4 BDE83840 		pop	{r3, r4, r5, lr}
 3375              		.cfi_restore 14
 3376              		.cfi_restore 5
 3377              		.cfi_restore 4
 3378              		.cfi_restore 3
 3379              		.cfi_def_cfa_offset 0
 3380              	.LVL253:
  70:GrannyChordApp.cpp ****   }
 3381              		.loc 2 70 22 view .LVU909
 3382 00d8 FFF7FEBF 		b	_ZN14GrannyChordApp17HandleStateChangeEv
 3383              	.LVL254:
 3384              	.L178:
 3385              		.cfi_restore_state
  62:GrannyChordApp.cpp ****       curr_state_ = AppState::SelectFile;
 3386              		.loc 2 62 10 is_stmt 1 view .LVU910
 3387 00dc 012B     		cmp	r3, #1
  63:GrannyChordApp.cpp ****     }
 3388              		.loc 2 63 7 view .LVU911
  63:GrannyChordApp.cpp ****     }
 3389              		.loc 2 63 19 is_stmt 0 view .LVU912
 3390 00de 04BF     		itt	eq
 3391 00e0 0023     		moveq	r3, #0
 3392 00e2 C4F8D034 		streq	r3, [r4, #1232]
 3393 00e6 E2E7     		b	.L177
 3394              	.LVL255:
 3395              	.L165:
  72:GrannyChordApp.cpp **** 
 3396              		.loc 2 72 1 view .LVU913
 3397 00e8 BDEC028B 		vldm	sp!, {d8}
 3398              		.cfi_restore 80
 3399              		.cfi_restore 81
 3400              		.cfi_def_cfa_offset 16
 3401 00ec 38BD     		pop	{r3, r4, r5, pc}
ARM GAS  /var/folders/2p/02m_5p7958535cp2tpgps0400000gn/T//ccCr8gkt.s 			page 96


 3402              	.LVL256:
 3403              	.L190:
  72:GrannyChordApp.cpp **** 
 3404              		.loc 2 72 1 view .LVU914
 3405 00ee 00BF     		.align	2
 3406              	.L189:
 3407 00f0 00007A44 		.word	1148846080
 3408 00f4 00000000 		.word	.LC14
 3409              		.cfi_endproc
 3410              	.LFE4903:
 3412              		.section	.text._ZN14GrannyChordApp3RunEv,"ax",%progbits
 3413              		.align	1
 3414              		.global	_ZN14GrannyChordApp3RunEv
 3415              		.syntax unified
 3416              		.thumb
 3417              		.thumb_func
 3419              	_ZN14GrannyChordApp3RunEv:
 3420              	.LVL257:
 3421              	.LFB4902:
  38:GrannyChordApp.cpp ****   while(true){
 3422              		.loc 2 38 27 is_stmt 1 view -0
 3423              		.cfi_startproc
 3424              		@ Volatile: function does not return.
 3425              		@ args = 0, pretend = 0, frame = 0
 3426              		@ frame_needed = 0, uses_anonymous_args = 0
  38:GrannyChordApp.cpp ****   while(true){
 3427              		.loc 2 38 27 is_stmt 0 view .LVU916
 3428 0000 0446     		mov	r4, r0
 3429 0002 08B5     		push	{r3, lr}
 3430              		.cfi_def_cfa_offset 8
 3431              		.cfi_offset 3, -8
 3432              		.cfi_offset 14, -4
 3433              	.LVL258:
 3434              	.L192:
  39:GrannyChordApp.cpp ****     UpdateUI();
 3435              		.loc 2 39 3 is_stmt 1 discriminator 1 view .LVU917
  40:GrannyChordApp.cpp ****     System::Delay(10);
 3436              		.loc 2 40 5 discriminator 1 view .LVU918
  40:GrannyChordApp.cpp ****     System::Delay(10);
 3437              		.loc 2 40 13 is_stmt 0 discriminator 1 view .LVU919
 3438 0004 2046     		mov	r0, r4
 3439 0006 FFF7FEFF 		bl	_ZN14GrannyChordApp8UpdateUIEv
 3440              	.LVL259:
  41:GrannyChordApp.cpp ****   }
 3441              		.loc 2 41 5 is_stmt 1 discriminator 1 view .LVU920
  41:GrannyChordApp.cpp ****   }
 3442              		.loc 2 41 18 is_stmt 0 discriminator 1 view .LVU921
 3443 000a 0A20     		movs	r0, #10
 3444 000c FFF7FEFF 		bl	_ZN5daisy6System5DelayEm
 3445              	.LVL260:
  39:GrannyChordApp.cpp ****     UpdateUI();
 3446              		.loc 2 39 3 is_stmt 1 discriminator 1 view .LVU922
 3447 0010 F8E7     		b	.L192
 3448              		.cfi_endproc
 3449              	.LFE4902:
 3451              		.global	_ZN14GrannyChordApp9instance_E
 3452              		.section	.bss._ZN14GrannyChordApp9instance_E,"aw",%nobits
ARM GAS  /var/folders/2p/02m_5p7958535cp2tpgps0400000gn/T//ccCr8gkt.s 			page 97


 3453              		.align	2
 3454              		.set	.LANCHOR0,. + 0
 3457              	_ZN14GrannyChordApp9instance_E:
 3458 0000 00000000 		.space	4
 3459              		.text
 3460              	.Letext0:
 3461              		.file 14 "/Library/DaisyToolchain/0.2.0/arm/arm-none-eabi/include/machine/_default_types.h"
 3462              		.file 15 "/Library/DaisyToolchain/0.2.0/arm/arm-none-eabi/include/sys/_stdint.h"
 3463              		.file 16 "/Library/DaisyToolchain/0.2.0/arm/arm-none-eabi/include/stdint.h"
 3464              		.file 17 "/Library/DaisyToolchain/0.2.0/arm/lib/gcc/arm-none-eabi/10.3.1/include/stddef.h"
 3465              		.file 18 "/Library/DaisyToolchain/0.2.0/arm/arm-none-eabi/include/c++/10.3.1/cmath"
 3466              		.file 19 "/Library/DaisyToolchain/0.2.0/arm/arm-none-eabi/include/c++/10.3.1/bits/std_abs.h"
 3467              		.file 20 "/Library/DaisyToolchain/0.2.0/arm/arm-none-eabi/include/c++/10.3.1/cstdlib"
 3468              		.file 21 "/Library/DaisyToolchain/0.2.0/arm/arm-none-eabi/include/c++/10.3.1/cstdint"
 3469              		.file 22 "/Library/DaisyToolchain/0.2.0/arm/arm-none-eabi/include/c++/10.3.1/arm-none-eabi/thumb/v
 3470              		.file 23 "/Library/DaisyToolchain/0.2.0/arm/arm-none-eabi/include/c++/10.3.1/type_traits"
 3471              		.file 24 "/Library/DaisyToolchain/0.2.0/arm/arm-none-eabi/include/c++/10.3.1/debug/debug.h"
 3472              		.file 25 "/Library/DaisyToolchain/0.2.0/arm/arm-none-eabi/include/c++/10.3.1/bits/algorithmfwd.h"
 3473              		.file 26 "/Library/DaisyToolchain/0.2.0/arm/arm-none-eabi/include/c++/10.3.1/bits/stl_pair.h"
 3474              		.file 27 "/Library/DaisyToolchain/0.2.0/arm/arm-none-eabi/include/c++/10.3.1/bits/exception_ptr.h"
 3475              		.file 28 "/Library/DaisyToolchain/0.2.0/arm/arm-none-eabi/include/c++/10.3.1/initializer_list"
 3476              		.file 29 "/Library/DaisyToolchain/0.2.0/arm/arm-none-eabi/include/c++/10.3.1/cstdarg"
 3477              		.file 30 "/Library/DaisyToolchain/0.2.0/arm/arm-none-eabi/include/c++/10.3.1/cstdio"
 3478              		.file 31 "/Library/DaisyToolchain/0.2.0/arm/arm-none-eabi/include/c++/10.3.1/cstring"
 3479              		.file 32 "/Library/DaisyToolchain/0.2.0/arm/arm-none-eabi/include/c++/10.3.1/cwchar"
 3480              		.file 33 "/Library/DaisyToolchain/0.2.0/arm/arm-none-eabi/include/c++/10.3.1/clocale"
 3481              		.file 34 "/Library/DaisyToolchain/0.2.0/arm/arm-none-eabi/include/c++/10.3.1/bits/basic_string.h"
 3482              		.file 35 "/Library/DaisyToolchain/0.2.0/arm/arm-none-eabi/include/c++/10.3.1/bits/stl_iterator.h"
 3483              		.file 36 "/Library/DaisyToolchain/0.2.0/arm/arm-none-eabi/include/c++/10.3.1/bits/predefined_ops.h
 3484              		.file 37 "/Library/DaisyToolchain/0.2.0/arm/arm-none-eabi/include/sys/_types.h"
 3485              		.file 38 "/Library/DaisyToolchain/0.2.0/arm/arm-none-eabi/include/sys/reent.h"
 3486              		.file 39 "/Library/DaisyToolchain/0.2.0/arm/arm-none-eabi/include/sys/lock.h"
 3487              		.file 40 "/Library/DaisyToolchain/0.2.0/arm/arm-none-eabi/include/math.h"
 3488              		.file 41 "/Library/DaisyToolchain/0.2.0/arm/arm-none-eabi/include/stdlib.h"
 3489              		.file 42 "/Library/DaisyToolchain/0.2.0/arm/arm-none-eabi/include/c++/10.3.1/math.h"
 3490              		.file 43 "/Library/DaisyToolchain/0.2.0/arm/arm-none-eabi/include/c++/10.3.1/stdlib.h"
 3491              		.file 44 "../libDaisy/src/per/tim.h"
 3492              		.file 45 "../libDaisy/src/sys/system.h"
 3493              		.file 46 "../libDaisy/src/per/qspi.h"
 3494              		.file 47 "../libDaisy/src/per/dac.h"
 3495              		.file 48 "../libDaisy/src/per/sai.h"
 3496              		.file 49 "../libDaisy/src/hid/audio.h"
 3497              		.file 50 "../libDaisy/src/per/adc.h"
 3498              		.file 51 "../libDaisy/src/per/uart.h"
 3499              		.file 52 "../libDaisy/src/hid/MidiEvent.h"
 3500              		.file 53 "../libDaisy/src/hid/midi_parser.h"
 3501              		.file 54 "../libDaisy/src/hid/usb.h"
 3502              		.file 55 "../libDaisy/src/hid/midi.h"
 3503              		.file 56 "../libDaisy/src/util/FIFO.h"
 3504              		.file 57 "../libDaisy/src/hid/ctrl.h"
 3505              		.file 58 "../libDaisy/src/hid/logger_impl.h"
 3506              		.file 59 "../libDaisy/src/per/sdmmc.h"
 3507              		.file 60 "../libDaisy/src/util/wav_format.h"
 3508              		.file 61 "../libDaisy/src/hid/led.h"
 3509              		.file 62 "../libDaisy/src/util/color.h"
 3510              		.file 63 "../libDaisy/src/hid/rgb_led.h"
 3511              		.file 64 "../libDaisy/src/dev/max11300.h"
ARM GAS  /var/folders/2p/02m_5p7958535cp2tpgps0400000gn/T//ccCr8gkt.s 			page 98


 3512              		.file 65 "../libDaisy/src/util/CpuLoadMeter.h"
 3513              		.file 66 "../libDaisy/src/sys/fatfs.h"
 3514              		.file 67 "../libDaisy/src/hid/logger.h"
 3515              		.file 68 "../libDaisy/src/daisy_pod.h"
 3516              		.file 69 "../libDaisy/src/per/gpio.h"
 3517              		.file 70 "../libDaisy/src/dev/sdram.h"
 3518              		.file 71 "/Library/DaisyToolchain/0.2.0/arm/lib/gcc/arm-none-eabi/10.3.1/include/stdarg.h"
 3519              		.file 72 "/Library/DaisyToolchain/0.2.0/arm/arm-none-eabi/include/stdio.h"
 3520              		.file 73 "../libDaisy/Middlewares/Third_Party/FatFs/src/integer.h"
 3521              		.file 74 "../libDaisy/Middlewares/Third_Party/FatFs/src/ff.h"
 3522              		.file 75 "/Library/DaisyToolchain/0.2.0/arm/arm-none-eabi/include/string.h"
 3523              		.file 76 "../DaisySP/Source/Control/adenv.h"
 3524              		.file 77 "/Library/DaisyToolchain/0.2.0/arm/arm-none-eabi/include/wchar.h"
 3525              		.file 78 "/Library/DaisyToolchain/0.2.0/arm/arm-none-eabi/include/time.h"
 3526              		.file 79 "/Library/DaisyToolchain/0.2.0/arm/arm-none-eabi/include/locale.h"
 3527              		.file 80 "../libDaisy/src/dev/sr_595.h"
 3528              		.file 81 "GrainPhasor.h"
 3529              		.file 82 "Grain.h"
 3530              		.file 83 "AppState.h"
 3531              		.file 84 "GrannyChordApp.h"
 3532              		.file 85 "<built-in>"
ARM GAS  /var/folders/2p/02m_5p7958535cp2tpgps0400000gn/T//ccCr8gkt.s 			page 99


DEFINED SYMBOLS
                            *ABS*:0000000000000000 GrannyChordApp.cpp
/var/folders/2p/02m_5p7958535cp2tpgps0400000gn/T//ccCr8gkt.s:19     .text._ZNK5daisy6Switch10TimeHeldMsEv:0000000000000000 $t
/var/folders/2p/02m_5p7958535cp2tpgps0400000gn/T//ccCr8gkt.s:25     .text._ZNK5daisy6Switch10TimeHeldMsEv:0000000000000000 _ZNK5daisy6Switch10TimeHeldMsEv
/var/folders/2p/02m_5p7958535cp2tpgps0400000gn/T//ccCr8gkt.s:84     .text._ZNK5daisy6Switch10TimeHeldMsEv:0000000000000028 $d
/var/folders/2p/02m_5p7958535cp2tpgps0400000gn/T//ccCr8gkt.s:89     .text._ZN14GrannyChordApp20HandleEncoderPressedEv:0000000000000000 $t
/var/folders/2p/02m_5p7958535cp2tpgps0400000gn/T//ccCr8gkt.s:95     .text._ZN14GrannyChordApp20HandleEncoderPressedEv:0000000000000000 _ZN14GrannyChordApp20HandleEncoderPressedEv
/var/folders/2p/02m_5p7958535cp2tpgps0400000gn/T//ccCr8gkt.s:135    .text._ZN14GrannyChordApp22HandleEncoderLongPressEv:0000000000000000 $t
/var/folders/2p/02m_5p7958535cp2tpgps0400000gn/T//ccCr8gkt.s:141    .text._ZN14GrannyChordApp22HandleEncoderLongPressEv:0000000000000000 _ZN14GrannyChordApp22HandleEncoderLongPressEv
/var/folders/2p/02m_5p7958535cp2tpgps0400000gn/T//ccCr8gkt.s:185    .text._ZN14GrannyChordApp19HandleFileSelectionEl:0000000000000000 $t
/var/folders/2p/02m_5p7958535cp2tpgps0400000gn/T//ccCr8gkt.s:191    .text._ZN14GrannyChordApp19HandleFileSelectionEl:0000000000000000 _ZN14GrannyChordApp19HandleFileSelectionEl
/var/folders/2p/02m_5p7958535cp2tpgps0400000gn/T//ccCr8gkt.s:307    .text._ZN14GrannyChordApp19HandleFileSelectionEl:0000000000000040 $d
/var/folders/2p/02m_5p7958535cp2tpgps0400000gn/T//ccCr8gkt.s:314    .text._ZN14GrannyChordApp15UpdateSynthModeEv:0000000000000000 $t
/var/folders/2p/02m_5p7958535cp2tpgps0400000gn/T//ccCr8gkt.s:320    .text._ZN14GrannyChordApp15UpdateSynthModeEv:0000000000000000 _ZN14GrannyChordApp15UpdateSynthModeEv
/var/folders/2p/02m_5p7958535cp2tpgps0400000gn/T//ccCr8gkt.s:334    .text._ZN14GrannyChordApp15UpdateSynthModeEv:000000000000000c $d
/var/folders/2p/02m_5p7958535cp2tpgps0400000gn/T//ccCr8gkt.s:376    .text._ZN14GrannyChordApp13HandleButton1Ev:0000000000000000 $t
/var/folders/2p/02m_5p7958535cp2tpgps0400000gn/T//ccCr8gkt.s:382    .text._ZN14GrannyChordApp13HandleButton1Ev:0000000000000000 _ZN14GrannyChordApp13HandleButton1Ev
/var/folders/2p/02m_5p7958535cp2tpgps0400000gn/T//ccCr8gkt.s:405    .text._ZN14GrannyChordApp24ToggleRandomnessControlsEv:0000000000000000 $t
/var/folders/2p/02m_5p7958535cp2tpgps0400000gn/T//ccCr8gkt.s:411    .text._ZN14GrannyChordApp24ToggleRandomnessControlsEv:0000000000000000 _ZN14GrannyChordApp24ToggleRandomnessControlsEv
/var/folders/2p/02m_5p7958535cp2tpgps0400000gn/T//ccCr8gkt.s:436    .text._ZN14GrannyChordApp13HandleButton2Ev:0000000000000000 $t
/var/folders/2p/02m_5p7958535cp2tpgps0400000gn/T//ccCr8gkt.s:442    .text._ZN14GrannyChordApp13HandleButton2Ev:0000000000000000 _ZN14GrannyChordApp13HandleButton2Ev
/var/folders/2p/02m_5p7958535cp2tpgps0400000gn/T//ccCr8gkt.s:465    .text._ZN14GrannyChordApp8ToggleFXEb:0000000000000000 $t
/var/folders/2p/02m_5p7958535cp2tpgps0400000gn/T//ccCr8gkt.s:471    .text._ZN14GrannyChordApp8ToggleFXEb:0000000000000000 _ZN14GrannyChordApp8ToggleFXEb
/var/folders/2p/02m_5p7958535cp2tpgps0400000gn/T//ccCr8gkt.s:509    .text._ZN14GrannyChordApp22HandleButton1LongPressEv:0000000000000000 $t
/var/folders/2p/02m_5p7958535cp2tpgps0400000gn/T//ccCr8gkt.s:515    .text._ZN14GrannyChordApp22HandleButton1LongPressEv:0000000000000000 _ZN14GrannyChordApp22HandleButton1LongPressEv
/var/folders/2p/02m_5p7958535cp2tpgps0400000gn/T//ccCr8gkt.s:539    .text._ZN14GrannyChordApp22HandleButton2LongPressEv:0000000000000000 $t
/var/folders/2p/02m_5p7958535cp2tpgps0400000gn/T//ccCr8gkt.s:545    .text._ZN14GrannyChordApp22HandleButton2LongPressEv:0000000000000000 _ZN14GrannyChordApp22HandleButton2LongPressEv
/var/folders/2p/02m_5p7958535cp2tpgps0400000gn/T//ccCr8gkt.s:572    .text._ZN14GrannyChordApp11InitFileMgrEv:0000000000000000 $t
/var/folders/2p/02m_5p7958535cp2tpgps0400000gn/T//ccCr8gkt.s:578    .text._ZN14GrannyChordApp11InitFileMgrEv:0000000000000000 _ZN14GrannyChordApp11InitFileMgrEv
/var/folders/2p/02m_5p7958535cp2tpgps0400000gn/T//ccCr8gkt.s:655    .text._ZN14GrannyChordApp11InitFileMgrEv:0000000000000038 $d
/var/folders/2p/02m_5p7958535cp2tpgps0400000gn/T//ccCr8gkt.s:660    .text._ZN14GrannyChordApp9InitSynthEv:0000000000000000 $t
/var/folders/2p/02m_5p7958535cp2tpgps0400000gn/T//ccCr8gkt.s:666    .text._ZN14GrannyChordApp9InitSynthEv:0000000000000000 _ZN14GrannyChordApp9InitSynthEv
/var/folders/2p/02m_5p7958535cp2tpgps0400000gn/T//ccCr8gkt.s:710    .text._ZN14GrannyChordApp17ClearAudioBuffersEv:0000000000000000 $t
/var/folders/2p/02m_5p7958535cp2tpgps0400000gn/T//ccCr8gkt.s:716    .text._ZN14GrannyChordApp17ClearAudioBuffersEv:0000000000000000 _ZN14GrannyChordApp17ClearAudioBuffersEv
/var/folders/2p/02m_5p7958535cp2tpgps0400000gn/T//ccCr8gkt.s:766    .text._ZN14GrannyChordApp12InitPlaybackEv:0000000000000000 $t
/var/folders/2p/02m_5p7958535cp2tpgps0400000gn/T//ccCr8gkt.s:772    .text._ZN14GrannyChordApp12InitPlaybackEv:0000000000000000 _ZN14GrannyChordApp12InitPlaybackEv
/var/folders/2p/02m_5p7958535cp2tpgps0400000gn/T//ccCr8gkt.s:889    .text._ZN14GrannyChordApp12InitPlaybackEv:0000000000000044 $d
/var/folders/2p/02m_5p7958535cp2tpgps0400000gn/T//ccCr8gkt.s:1978   .text._ZN14GrannyChordApp13AudioCallbackEPKPKfPPfj:0000000000000000 _ZN14GrannyChordApp13AudioCallbackEPKPKfPPfj
/var/folders/2p/02m_5p7958535cp2tpgps0400000gn/T//ccCr8gkt.s:902    .text._ZN14GrannyChordApp17HandleStateChangeEv:0000000000000000 $t
/var/folders/2p/02m_5p7958535cp2tpgps0400000gn/T//ccCr8gkt.s:908    .text._ZN14GrannyChordApp17HandleStateChangeEv:0000000000000000 _ZN14GrannyChordApp17HandleStateChangeEv
/var/folders/2p/02m_5p7958535cp2tpgps0400000gn/T//ccCr8gkt.s:929    .text._ZN14GrannyChordApp17HandleStateChangeEv:0000000000000010 $d
/var/folders/2p/02m_5p7958535cp2tpgps0400000gn/T//ccCr8gkt.s:1025   .text._ZN14GrannyChordApp12InitRecordInEv:0000000000000000 $t
/var/folders/2p/02m_5p7958535cp2tpgps0400000gn/T//ccCr8gkt.s:1031   .text._ZN14GrannyChordApp12InitRecordInEv:0000000000000000 _ZN14GrannyChordApp12InitRecordInEv
/var/folders/2p/02m_5p7958535cp2tpgps0400000gn/T//ccCr8gkt.s:1042   .text._ZN14GrannyChordApp6InitFXEv:0000000000000000 $t
/var/folders/2p/02m_5p7958535cp2tpgps0400000gn/T//ccCr8gkt.s:1048   .text._ZN14GrannyChordApp6InitFXEv:0000000000000000 _ZN14GrannyChordApp6InitFXEv
/var/folders/2p/02m_5p7958535cp2tpgps0400000gn/T//ccCr8gkt.s:1198   .text._ZN14GrannyChordApp6InitFXEv:0000000000000054 $d
/var/folders/2p/02m_5p7958535cp2tpgps0400000gn/T//ccCr8gkt.s:1205   .text._ZN14GrannyChordApp17InitPrevParamValsEv:0000000000000000 $t
/var/folders/2p/02m_5p7958535cp2tpgps0400000gn/T//ccCr8gkt.s:1211   .text._ZN14GrannyChordApp17InitPrevParamValsEv:0000000000000000 _ZN14GrannyChordApp17InitPrevParamValsEv
/var/folders/2p/02m_5p7958535cp2tpgps0400000gn/T//ccCr8gkt.s:1248   .text._ZN14GrannyChordApp4InitEPsS0_S0_:0000000000000000 $t
/var/folders/2p/02m_5p7958535cp2tpgps0400000gn/T//ccCr8gkt.s:1254   .text._ZN14GrannyChordApp4InitEPsS0_S0_:0000000000000000 _ZN14GrannyChordApp4InitEPsS0_S0_
/var/folders/2p/02m_5p7958535cp2tpgps0400000gn/T//ccCr8gkt.s:1394   .text._ZN14GrannyChordApp4InitEPsS0_S0_:0000000000000078 $d
/var/folders/2p/02m_5p7958535cp2tpgps0400000gn/T//ccCr8gkt.s:1403   .text._ZN14GrannyChordApp18ProcessWAVPlaybackEPPfj:0000000000000000 $t
/var/folders/2p/02m_5p7958535cp2tpgps0400000gn/T//ccCr8gkt.s:1409   .text._ZN14GrannyChordApp18ProcessWAVPlaybackEPPfj:0000000000000000 _ZN14GrannyChordApp18ProcessWAVPlaybackEPPfj
/var/folders/2p/02m_5p7958535cp2tpgps0400000gn/T//ccCr8gkt.s:1613   .text._ZN14GrannyChordApp18ProcessWAVPlaybackEPPfj:0000000000000090 $d
/var/folders/2p/02m_5p7958535cp2tpgps0400000gn/T//ccCr8gkt.s:1619   .text._ZN14GrannyChordApp15ProcessRecordInEPKPKfPPfj:0000000000000000 $t
/var/folders/2p/02m_5p7958535cp2tpgps0400000gn/T//ccCr8gkt.s:1625   .text._ZN14GrannyChordApp15ProcessRecordInEPKPKfPPfj:0000000000000000 _ZN14GrannyChordApp15ProcessRecordInEPKPKfPPfj
/var/folders/2p/02m_5p7958535cp2tpgps0400000gn/T//ccCr8gkt.s:1717   .text._ZN14GrannyChordApp15ProcessRecordInEPKPKfPPfj:0000000000000068 $d
ARM GAS  /var/folders/2p/02m_5p7958535cp2tpgps0400000gn/T//ccCr8gkt.s 			page 100


/var/folders/2p/02m_5p7958535cp2tpgps0400000gn/T//ccCr8gkt.s:1722   .text._ZN14GrannyChordApp16ProcessSynthesisEPPfj:0000000000000000 $t
/var/folders/2p/02m_5p7958535cp2tpgps0400000gn/T//ccCr8gkt.s:1728   .text._ZN14GrannyChordApp16ProcessSynthesisEPPfj:0000000000000000 _ZN14GrannyChordApp16ProcessSynthesisEPPfj
/var/folders/2p/02m_5p7958535cp2tpgps0400000gn/T//ccCr8gkt.s:1812   .text._ZN14GrannyChordApp12ProcessAudioEPKPKfPPfj:0000000000000000 $t
/var/folders/2p/02m_5p7958535cp2tpgps0400000gn/T//ccCr8gkt.s:1818   .text._ZN14GrannyChordApp12ProcessAudioEPKPKfPPfj:0000000000000000 _ZN14GrannyChordApp12ProcessAudioEPKPKfPPfj
/var/folders/2p/02m_5p7958535cp2tpgps0400000gn/T//ccCr8gkt.s:1967   .text._ZN14GrannyChordApp12ProcessAudioEPKPKfPPfj:000000000000005c $d
/var/folders/2p/02m_5p7958535cp2tpgps0400000gn/T//ccCr8gkt.s:1972   .text._ZN14GrannyChordApp13AudioCallbackEPKPKfPPfj:0000000000000000 $t
/var/folders/2p/02m_5p7958535cp2tpgps0400000gn/T//ccCr8gkt.s:2006   .text._ZN14GrannyChordApp13AudioCallbackEPKPKfPPfj:0000000000000010 $d
/var/folders/2p/02m_5p7958535cp2tpgps0400000gn/T//ccCr8gkt.s:2011   .text._ZN14GrannyChordApp15ToggleRecordOutEv:0000000000000000 $t
/var/folders/2p/02m_5p7958535cp2tpgps0400000gn/T//ccCr8gkt.s:2017   .text._ZN14GrannyChordApp15ToggleRecordOutEv:0000000000000000 _ZN14GrannyChordApp15ToggleRecordOutEv
/var/folders/2p/02m_5p7958535cp2tpgps0400000gn/T//ccCr8gkt.s:2037   .text._ZN14GrannyChordApp17UpdateKnob1ParamsEf9SynthMode:0000000000000000 $t
/var/folders/2p/02m_5p7958535cp2tpgps0400000gn/T//ccCr8gkt.s:2043   .text._ZN14GrannyChordApp17UpdateKnob1ParamsEf9SynthMode:0000000000000000 _ZN14GrannyChordApp17UpdateKnob1ParamsEf9SynthMode
/var/folders/2p/02m_5p7958535cp2tpgps0400000gn/T//ccCr8gkt.s:2056   .text._ZN14GrannyChordApp17UpdateKnob1ParamsEf9SynthMode:0000000000000008 $d
/var/folders/2p/02m_5p7958535cp2tpgps0400000gn/T//ccCr8gkt.s:2359   .text._ZN14GrannyChordApp17UpdateKnob1ParamsEf9SynthMode:0000000000000094 $d
/var/folders/2p/02m_5p7958535cp2tpgps0400000gn/T//ccCr8gkt.s:2366   .text._ZN14GrannyChordApp17UpdateKnob2ParamsEf9SynthMode:0000000000000000 $t
/var/folders/2p/02m_5p7958535cp2tpgps0400000gn/T//ccCr8gkt.s:2372   .text._ZN14GrannyChordApp17UpdateKnob2ParamsEf9SynthMode:0000000000000000 _ZN14GrannyChordApp17UpdateKnob2ParamsEf9SynthMode
/var/folders/2p/02m_5p7958535cp2tpgps0400000gn/T//ccCr8gkt.s:2392   .text._ZN14GrannyChordApp17UpdateKnob2ParamsEf9SynthMode:000000000000000c $d
/var/folders/2p/02m_5p7958535cp2tpgps0400000gn/T//ccCr8gkt.s:2756   .text._ZN14GrannyChordApp17UpdateKnob2ParamsEf9SynthMode:00000000000000d4 $d
/var/folders/2p/02m_5p7958535cp2tpgps0400000gn/T//ccCr8gkt.s:2767   .text._ZN14GrannyChordApp17UpdateSynthParamsEv:0000000000000000 $t
/var/folders/2p/02m_5p7958535cp2tpgps0400000gn/T//ccCr8gkt.s:2773   .text._ZN14GrannyChordApp17UpdateSynthParamsEv:0000000000000000 _ZN14GrannyChordApp17UpdateSynthParamsEv
/var/folders/2p/02m_5p7958535cp2tpgps0400000gn/T//ccCr8gkt.s:2966   .text._ZN14GrannyChordApp17UpdateSynthParamsEv:00000000000000d4 $d
/var/folders/2p/02m_5p7958535cp2tpgps0400000gn/T//ccCr8gkt.s:2988   .text._ZN14GrannyChordApp15DebugPrintStateE8AppState:0000000000000000 $t
/var/folders/2p/02m_5p7958535cp2tpgps0400000gn/T//ccCr8gkt.s:2994   .text._ZN14GrannyChordApp15DebugPrintStateE8AppState:0000000000000000 _ZN14GrannyChordApp15DebugPrintStateE8AppState
/var/folders/2p/02m_5p7958535cp2tpgps0400000gn/T//ccCr8gkt.s:3007   .text._ZN14GrannyChordApp15DebugPrintStateE8AppState:0000000000000008 $d
/var/folders/2p/02m_5p7958535cp2tpgps0400000gn/T//ccCr8gkt.s:3120   .text._ZN14GrannyChordApp15DebugPrintStateE8AppState:0000000000000028 $d
/var/folders/2p/02m_5p7958535cp2tpgps0400000gn/T//ccCr8gkt.s:3135   .text._ZN14GrannyChordApp8UpdateUIEv:0000000000000000 $t
/var/folders/2p/02m_5p7958535cp2tpgps0400000gn/T//ccCr8gkt.s:3141   .text._ZN14GrannyChordApp8UpdateUIEv:0000000000000000 _ZN14GrannyChordApp8UpdateUIEv
/var/folders/2p/02m_5p7958535cp2tpgps0400000gn/T//ccCr8gkt.s:3407   .text._ZN14GrannyChordApp8UpdateUIEv:00000000000000f0 $d
/var/folders/2p/02m_5p7958535cp2tpgps0400000gn/T//ccCr8gkt.s:3413   .text._ZN14GrannyChordApp3RunEv:0000000000000000 $t
/var/folders/2p/02m_5p7958535cp2tpgps0400000gn/T//ccCr8gkt.s:3419   .text._ZN14GrannyChordApp3RunEv:0000000000000000 _ZN14GrannyChordApp3RunEv
/var/folders/2p/02m_5p7958535cp2tpgps0400000gn/T//ccCr8gkt.s:3457   .bss._ZN14GrannyChordApp9instance_E:0000000000000000 _ZN14GrannyChordApp9instance_E
/var/folders/2p/02m_5p7958535cp2tpgps0400000gn/T//ccCr8gkt.s:3453   .bss._ZN14GrannyChordApp9instance_E:0000000000000000 $d
/var/folders/2p/02m_5p7958535cp2tpgps0400000gn/T//ccCr8gkt.s:341    .text._ZN14GrannyChordApp15UpdateSynthModeEv:0000000000000013 $d
/var/folders/2p/02m_5p7958535cp2tpgps0400000gn/T//ccCr8gkt.s:341    .text._ZN14GrannyChordApp15UpdateSynthModeEv:0000000000000014 $t
/var/folders/2p/02m_5p7958535cp2tpgps0400000gn/T//ccCr8gkt.s:934    .text._ZN14GrannyChordApp17HandleStateChangeEv:0000000000000015 $d
/var/folders/2p/02m_5p7958535cp2tpgps0400000gn/T//ccCr8gkt.s:934    .text._ZN14GrannyChordApp17HandleStateChangeEv:0000000000000016 $t
/var/folders/2p/02m_5p7958535cp2tpgps0400000gn/T//ccCr8gkt.s:2065   .text._ZN14GrannyChordApp17UpdateKnob1ParamsEf9SynthMode:0000000000000011 $d
/var/folders/2p/02m_5p7958535cp2tpgps0400000gn/T//ccCr8gkt.s:2065   .text._ZN14GrannyChordApp17UpdateKnob1ParamsEf9SynthMode:0000000000000012 $t
/var/folders/2p/02m_5p7958535cp2tpgps0400000gn/T//ccCr8gkt.s:2401   .text._ZN14GrannyChordApp17UpdateKnob2ParamsEf9SynthMode:0000000000000015 $d
/var/folders/2p/02m_5p7958535cp2tpgps0400000gn/T//ccCr8gkt.s:2401   .text._ZN14GrannyChordApp17UpdateKnob2ParamsEf9SynthMode:0000000000000016 $t
/var/folders/2p/02m_5p7958535cp2tpgps0400000gn/T//ccCr8gkt.s:3012   .text._ZN14GrannyChordApp15DebugPrintStateE8AppState:000000000000000d $d
/var/folders/2p/02m_5p7958535cp2tpgps0400000gn/T//ccCr8gkt.s:3012   .text._ZN14GrannyChordApp15DebugPrintStateE8AppState:000000000000000e $t

UNDEFINED SYMBOLS
_ZN5daisy6System6GetNowEv
strcpy
_ZN5daisy6LoggerILNS_17LoggerDestinationE1EE9PrintLineEPKcz
_ZN16AudioFileManager10SetBuffersEPsS0_S0_
_ZN16AudioFileManager4InitEv
_ZN16AudioFileManager12ScanWavFilesEv
_ZN13GranularSynth4InitEPKsS1_j
memset
_ZN16AudioFileManager8LoadFileEt
_ZN5daisy8DaisyPod10StartAudioEPFvPKPKfPPfjE
_ZN5daisy8DaisyPod9StopAudioEv
_ZN5daisy6RgbLed6SetRedEf
_ZN5daisy8DaisyPod15AudioSampleRateEv
_ZN7daisysp10Compressor4InitEf
ARM GAS  /var/folders/2p/02m_5p7958535cp2tpgps0400000gn/T//ccCr8gkt.s 			page 101


_ZN7daisysp8ReverbSc4InitEf
_ZN7daisysp10MoogLadder4InitEf
_ZN5daisy8DaisyPod17SetAudioBlockSizeEj
_ZN5daisy8DaisyPod18SetAudioSampleRateENS_9SaiHandle6Config10SampleRateE
_ZN5daisy8DaisyPod10UpdateLedsEv
time
_ZN5daisy8DaisyPod8StartAdcEv
rng_state
_ZN13GranularSynth13ProcessGrainsEPfS0_j
_ZN7daisysp10Compressor12ProcessBlockEPfS1_S1_j
_ZN13GranularSynth12SetGrainSizeEf
_ZN13GranularSynth13SetPitchRatioEf
_ZN13GranularSynth6SetPanEf
_ZN13GranularSynth13SetPhasorModeEN11GrainPhasor4ModeE
_ZN13GranularSynth11SetSpawnPosEf
_ZN13GranularSynth15SetActiveGrainsEf
_ZN13GranularSynth15SetEnvelopeTypeEN5Grain12EnvelopeTypeE
tanf
_ZN5daisy13AnalogControl7ProcessEv
_ZN5daisy8DaisyPod22ProcessDigitalControlsEv
_ZN5daisy6System5DelayEm
