ARM GAS  /var/folders/2p/02m_5p7958535cp2tpgps0400000gn/T//ccRuMDjw.s 			page 1


   1              		.cpu cortex-m7
   2              		.arch armv7e-m
   3              		.fpu fpv5-d16
   4              		.eabi_attribute 28, 1
   5              		.eabi_attribute 20, 1
   6              		.eabi_attribute 21, 1
   7              		.eabi_attribute 23, 3
   8              		.eabi_attribute 24, 1
   9              		.eabi_attribute 25, 1
  10              		.eabi_attribute 26, 1
  11              		.eabi_attribute 30, 4
  12              		.eabi_attribute 34, 1
  13              		.eabi_attribute 18, 4
  14              		.file	"GrannyChordApp.cpp"
  15              		.text
  16              	.Ltext0:
  17              		.cfi_sections	.debug_frame
  18              		.section	.text._ZNK5daisy6Switch10TimeHeldMsEv,"axG",%progbits,_ZNK5daisy6Switch10TimeHeldMsEv,com
  19              		.align	1
  20              		.weak	_ZNK5daisy6Switch10TimeHeldMsEv
  21              		.syntax unified
  22              		.thumb
  23              		.thumb_func
  25              	_ZNK5daisy6Switch10TimeHeldMsEv:
  26              	.LVL0:
  27              	.LFB1646:
  28              		.file 1 "../libDaisy/src/hid/switch.h"
   1:../libDaisy/src/hid/switch.h **** #pragma once
   2:../libDaisy/src/hid/switch.h **** #ifndef DSY_SWITCH_H
   3:../libDaisy/src/hid/switch.h **** #define DSY_SWITCH_H
   4:../libDaisy/src/hid/switch.h **** #include "daisy_core.h"
   5:../libDaisy/src/hid/switch.h **** #include "per/gpio.h"
   6:../libDaisy/src/hid/switch.h **** #include "sys/system.h"
   7:../libDaisy/src/hid/switch.h **** 
   8:../libDaisy/src/hid/switch.h **** namespace daisy
   9:../libDaisy/src/hid/switch.h **** {
  10:../libDaisy/src/hid/switch.h **** /** 
  11:../libDaisy/src/hid/switch.h ****     Generic Class for handling momentary/latching switches \n 
  12:../libDaisy/src/hid/switch.h ****     Inspired/influenced by Mutable Instruments (pichenettes) Switch classes
  13:../libDaisy/src/hid/switch.h ****     @author Stephen Hensley
  14:../libDaisy/src/hid/switch.h ****     @date December 2019
  15:../libDaisy/src/hid/switch.h ****     @ingroup controls
  16:../libDaisy/src/hid/switch.h **** */
  17:../libDaisy/src/hid/switch.h **** class Switch
  18:../libDaisy/src/hid/switch.h **** {
  19:../libDaisy/src/hid/switch.h ****   public:
  20:../libDaisy/src/hid/switch.h ****     /** Specifies the expected behavior of the switch */
  21:../libDaisy/src/hid/switch.h ****     enum Type
  22:../libDaisy/src/hid/switch.h ****     {
  23:../libDaisy/src/hid/switch.h ****         TYPE_TOGGLE,    /**< & */
  24:../libDaisy/src/hid/switch.h ****         TYPE_MOMENTARY, /**< & */
  25:../libDaisy/src/hid/switch.h ****     };
  26:../libDaisy/src/hid/switch.h ****     /** Specifies whether the pressed is HIGH or LOW. */
  27:../libDaisy/src/hid/switch.h ****     enum Polarity
  28:../libDaisy/src/hid/switch.h ****     {
  29:../libDaisy/src/hid/switch.h ****         POLARITY_NORMAL,   /**< & */
  30:../libDaisy/src/hid/switch.h ****         POLARITY_INVERTED, /**< & */
ARM GAS  /var/folders/2p/02m_5p7958535cp2tpgps0400000gn/T//ccRuMDjw.s 			page 2


  31:../libDaisy/src/hid/switch.h ****     };
  32:../libDaisy/src/hid/switch.h **** 
  33:../libDaisy/src/hid/switch.h ****     /** Specifies whether to use built-in Pull Up/Down resistors to hold button at a given state wh
  34:../libDaisy/src/hid/switch.h ****     enum Pull
  35:../libDaisy/src/hid/switch.h ****     {
  36:../libDaisy/src/hid/switch.h ****         PULL_UP,   /**< & */
  37:../libDaisy/src/hid/switch.h ****         PULL_DOWN, /**< & */
  38:../libDaisy/src/hid/switch.h ****         PULL_NONE, /**< & */
  39:../libDaisy/src/hid/switch.h ****     };
  40:../libDaisy/src/hid/switch.h **** 
  41:../libDaisy/src/hid/switch.h ****     Switch() {}
  42:../libDaisy/src/hid/switch.h ****     ~Switch() {}
  43:../libDaisy/src/hid/switch.h **** 
  44:../libDaisy/src/hid/switch.h ****     /** 
  45:../libDaisy/src/hid/switch.h ****     Initializes the switch object with a given port/pin combo.
  46:../libDaisy/src/hid/switch.h ****     \param pin port/pin object to tell the switch which hardware pin to use.
  47:../libDaisy/src/hid/switch.h ****     \param update_rate Does nothing. Backwards compatibility until next breaking update.
  48:../libDaisy/src/hid/switch.h ****     \param t switch type -- Default: TYPE_MOMENTARY
  49:../libDaisy/src/hid/switch.h ****     \param pol switch polarity -- Default: POLARITY_INVERTED
  50:../libDaisy/src/hid/switch.h ****     \param pu switch pull up/down -- Default: PULL_UP
  51:../libDaisy/src/hid/switch.h ****     */
  52:../libDaisy/src/hid/switch.h ****     void
  53:../libDaisy/src/hid/switch.h ****     Init(dsy_gpio_pin pin, float update_rate, Type t, Polarity pol, Pull pu);
  54:../libDaisy/src/hid/switch.h **** 
  55:../libDaisy/src/hid/switch.h ****     /**
  56:../libDaisy/src/hid/switch.h ****        Simplified Init.
  57:../libDaisy/src/hid/switch.h ****        \param pin port/pin object to tell the switch which hardware pin to use.
  58:../libDaisy/src/hid/switch.h ****        \param update_rate Left for backwards compatibility until next breaking change.
  59:../libDaisy/src/hid/switch.h ****     */
  60:../libDaisy/src/hid/switch.h ****     void Init(dsy_gpio_pin pin, float update_rate = 0.f);
  61:../libDaisy/src/hid/switch.h **** 
  62:../libDaisy/src/hid/switch.h ****     /** 
  63:../libDaisy/src/hid/switch.h ****     Called at update_rate to debounce and handle timing for the switch.
  64:../libDaisy/src/hid/switch.h ****     In order for events not to be missed, its important that the Edge/Pressed checks
  65:../libDaisy/src/hid/switch.h ****     be made at the same rate as the debounce function is being called.
  66:../libDaisy/src/hid/switch.h ****     */
  67:../libDaisy/src/hid/switch.h ****     void Debounce();
  68:../libDaisy/src/hid/switch.h **** 
  69:../libDaisy/src/hid/switch.h ****     /** \return true if a button was just pressed. */
  70:../libDaisy/src/hid/switch.h ****     inline bool RisingEdge() const { return updated_ ? state_ == 0x7f : false; }
  71:../libDaisy/src/hid/switch.h **** 
  72:../libDaisy/src/hid/switch.h ****     /** \return true if the button was just released */
  73:../libDaisy/src/hid/switch.h ****     inline bool FallingEdge() const
  74:../libDaisy/src/hid/switch.h ****     {
  75:../libDaisy/src/hid/switch.h ****         return updated_ ? state_ == 0x80 : false;
  76:../libDaisy/src/hid/switch.h ****     }
  77:../libDaisy/src/hid/switch.h **** 
  78:../libDaisy/src/hid/switch.h ****     /** \return true if the button is held down (or if the toggle is on) */
  79:../libDaisy/src/hid/switch.h ****     inline bool Pressed() const { return state_ == 0xff; }
  80:../libDaisy/src/hid/switch.h **** 
  81:../libDaisy/src/hid/switch.h ****     /** \return true if the button is held down, without debouncing */
  82:../libDaisy/src/hid/switch.h ****     inline bool RawState()
  83:../libDaisy/src/hid/switch.h ****     {
  84:../libDaisy/src/hid/switch.h ****         return flip_ ? !dsy_gpio_read(&hw_gpio_) : dsy_gpio_read(&hw_gpio_);
  85:../libDaisy/src/hid/switch.h ****     }
  86:../libDaisy/src/hid/switch.h **** 
  87:../libDaisy/src/hid/switch.h ****     /** \return the time in milliseconds that the button has been held (or toggle has been on) */
ARM GAS  /var/folders/2p/02m_5p7958535cp2tpgps0400000gn/T//ccRuMDjw.s 			page 3


  88:../libDaisy/src/hid/switch.h ****     inline float TimeHeldMs() const
  29              		.loc 1 88 18 view -0
  30              		.cfi_startproc
  31              		@ args = 0, pretend = 0, frame = 0
  32              		@ frame_needed = 0, uses_anonymous_args = 0
  89:../libDaisy/src/hid/switch.h ****     {
  90:../libDaisy/src/hid/switch.h ****         return Pressed() ? System::GetNow() - rising_edge_time_ : 0;
  33              		.loc 1 90 9 view .LVU1
  34              	.LBB331:
  35              	.LBI331:
  79:../libDaisy/src/hid/switch.h **** 
  36              		.loc 1 79 17 view .LVU2
  37              	.LBB332:
  79:../libDaisy/src/hid/switch.h **** 
  38              		.loc 1 79 35 view .LVU3
  79:../libDaisy/src/hid/switch.h **** 
  39              		.loc 1 79 35 is_stmt 0 view .LVU4
  40              	.LBE332:
  41              	.LBE331:
  88:../libDaisy/src/hid/switch.h ****     {
  42              		.loc 1 88 18 view .LVU5
  43 0000 10B5     		push	{r4, lr}
  44              		.cfi_def_cfa_offset 8
  45              		.cfi_offset 4, -8
  46              		.cfi_offset 14, -4
  47              		.loc 1 90 26 view .LVU6
  48 0002 837A     		ldrb	r3, [r0, #10]	@ zero_extendqisi2
  88:../libDaisy/src/hid/switch.h ****     {
  49              		.loc 1 88 18 view .LVU7
  50 0004 0446     		mov	r4, r0
  51              		.loc 1 90 26 view .LVU8
  52 0006 FF2B     		cmp	r3, #255
  53 0008 0AD1     		bne	.L3
  54              	.LVL1:
  55              	.LBB333:
  56              	.LBI333:
  88:../libDaisy/src/hid/switch.h ****     {
  57              		.loc 1 88 18 is_stmt 1 view .LVU9
  58              	.LBB334:
  59              		.loc 1 90 42 is_stmt 0 view .LVU10
  60 000a FFF7FEFF 		bl	_ZN5daisy6System6GetNowEv
  61              	.LVL2:
  62              		.loc 1 90 45 view .LVU11
  63 000e 07EE900A 		vmov	s15, r0	@ int
  64 0012 B8EE670A 		vcvt.f32.u32	s0, s15
  65              		.loc 1 90 26 view .LVU12
  66 0016 D4ED037A 		vldr.32	s15, [r4, #12]
  67 001a 30EE670A 		vsub.f32	s0, s0, s15
  68              	.LVL3:
  69              	.L1:
  70              		.loc 1 90 26 view .LVU13
  71              	.LBE334:
  72              	.LBE333:
  91:../libDaisy/src/hid/switch.h ****     }
  73              		.loc 1 91 5 view .LVU14
  74 001e 10BD     		pop	{r4, pc}
  75              	.LVL4:
ARM GAS  /var/folders/2p/02m_5p7958535cp2tpgps0400000gn/T//ccRuMDjw.s 			page 4


  76              	.L3:
  90:../libDaisy/src/hid/switch.h ****     }
  77              		.loc 1 90 26 view .LVU15
  78 0020 9FED010A 		vldr.32	s0, .L4
  90:../libDaisy/src/hid/switch.h ****     }
  79              		.loc 1 90 67 view .LVU16
  80 0024 FBE7     		b	.L1
  81              	.L5:
  82 0026 00BF     		.align	2
  83              	.L4:
  84 0028 00000000 		.word	0
  85              		.cfi_endproc
  86              	.LFE1646:
  88              		.section	.text._ZN14GrannyChordApp20HandleEncoderPressedEv,"ax",%progbits
  89              		.align	1
  90              		.global	_ZN14GrannyChordApp20HandleEncoderPressedEv
  91              		.syntax unified
  92              		.thumb
  93              		.thumb_func
  95              	_ZN14GrannyChordApp20HandleEncoderPressedEv:
  96              	.LVL5:
  97              	.LFB4908:
  98              		.file 2 "GrannyChordApp.cpp"
   1:GrannyChordApp.cpp **** #ifdef DEBUG_MODE // TODO: remove
   2:GrannyChordApp.cpp **** #pragma message("Debug mode is ON")
   3:GrannyChordApp.cpp **** #else
   4:GrannyChordApp.cpp **** #pragma message("Debug mode is OFF")
   5:GrannyChordApp.cpp **** #endif
   6:GrannyChordApp.cpp **** 
   7:GrannyChordApp.cpp **** #include "GrannyChordApp.h"
   8:GrannyChordApp.cpp **** 
   9:GrannyChordApp.cpp **** /* this is required for AudioCallback as it needs a static object */
  10:GrannyChordApp.cpp **** GrannyChordApp* GrannyChordApp::instance_ = nullptr;
  11:GrannyChordApp.cpp **** 
  12:GrannyChordApp.cpp **** 
  13:GrannyChordApp.cpp **** /// @brief Initialises app state and members and goes through app startup process
  14:GrannyChordApp.cpp **** /// @param left Left channel audio data buffer
  15:GrannyChordApp.cpp **** /// @param right Right channel audio data buffer
  16:GrannyChordApp.cpp **** void GrannyChordApp::Init(int16_t *left, int16_t *right, int16_t *temp){
  17:GrannyChordApp.cpp ****   left_buf_ = left, right_buf_ = right, temp_buf_ = temp;
  18:GrannyChordApp.cpp ****   pod_.SetAudioBlockSize(2);
  19:GrannyChordApp.cpp ****   pod_.SetAudioSampleRate(SaiHandle::Config::SampleRate::SAI_48KHZ);
  20:GrannyChordApp.cpp **** 
  21:GrannyChordApp.cpp ****   curr_state_ = AppState::SelectFile;
  22:GrannyChordApp.cpp ****   if (!InitFileMgr()){
  23:GrannyChordApp.cpp ****     DebugPrint(pod_,"File manager failed to init");
  24:GrannyChordApp.cpp ****     pod_.led1.SetRed(1);
  25:GrannyChordApp.cpp ****     pod_.led2.SetRed(1);
  26:GrannyChordApp.cpp ****     pod_.UpdateLeds();
  27:GrannyChordApp.cpp ****     return;
  28:GrannyChordApp.cpp ****   }
  29:GrannyChordApp.cpp ****   loadmeter.Init(pod_.AudioSampleRate(), pod_.AudioBlockSize());
  30:GrannyChordApp.cpp ****   InitFX();
  31:GrannyChordApp.cpp ****   InitPrevParamVals();
  32:GrannyChordApp.cpp ****   SeedRng();
  33:GrannyChordApp.cpp ****   synth_.Init(left_buf_, right_buf_, 0);
  34:GrannyChordApp.cpp ****   pod_.StartAdc();
ARM GAS  /var/folders/2p/02m_5p7958535cp2tpgps0400000gn/T//ccRuMDjw.s 			page 5


  35:GrannyChordApp.cpp **** }
  36:GrannyChordApp.cpp **** 
  37:GrannyChordApp.cpp **** /// @brief Loops whilst app is running, updating state and UI, handling 
  38:GrannyChordApp.cpp **** ///        state transitions, updating parameters and managing audio recordings
  39:GrannyChordApp.cpp **** void GrannyChordApp::Run(){
  40:GrannyChordApp.cpp ****   // size_t count = 0;
  41:GrannyChordApp.cpp ****   pod_.seed.PrintLine("app is running");
  42:GrannyChordApp.cpp ****   while(true){
  43:GrannyChordApp.cpp ****     loop_count++;
  44:GrannyChordApp.cpp ****     if (loop_count%2000==0){
  45:GrannyChordApp.cpp ****       const float avgLoad = loadmeter.GetAvgCpuLoad();
  46:GrannyChordApp.cpp ****       const float maxLoad = loadmeter.GetMaxCpuLoad();
  47:GrannyChordApp.cpp ****       const float minLoad = loadmeter.GetMinCpuLoad();
  48:GrannyChordApp.cpp ****       // print it to the serial connection (as percentages)
  49:GrannyChordApp.cpp ****       pod_.seed.PrintLine("Processing Load %:");
  50:GrannyChordApp.cpp ****       // pod_.seed.PrintLine("Max: %.8f",(maxLoad * 100.0f));
  51:GrannyChordApp.cpp ****       // pod_.seed.PrintLine("Avg: %.8f",(avgLoad * 100.0f));
  52:GrannyChordApp.cpp ****       // pod_.seed.PrintLine("Min: %.8f",(minLoad * 100.0f)); 
  53:GrannyChordApp.cpp ****       pod_.seed.PrintLine("Max: " FLT_FMT3, FLT_VAR3(maxLoad * 100.0f));
  54:GrannyChordApp.cpp ****       pod_.seed.PrintLine("Avg: " FLT_FMT3, FLT_VAR3(avgLoad * 100.0f));
  55:GrannyChordApp.cpp ****       pod_.seed.PrintLine("Min: " FLT_FMT3, FLT_VAR3(minLoad * 100.0f));
  56:GrannyChordApp.cpp ****       loop_count=0;
  57:GrannyChordApp.cpp ****       System::Delay(500);
  58:GrannyChordApp.cpp ****     }
  59:GrannyChordApp.cpp ****     if (recording_out_) {
  60:GrannyChordApp.cpp ****       sd_writer_.Write();
  61:GrannyChordApp.cpp ****       if (sd_writer_.GetLengthSeconds()>120){
  62:GrannyChordApp.cpp ****         sd_writer_.SaveFile();
  63:GrannyChordApp.cpp ****         recording_out_ = 0;
  64:GrannyChordApp.cpp ****       }
  65:GrannyChordApp.cpp ****     }
  66:GrannyChordApp.cpp ****     UpdateUI();
  67:GrannyChordApp.cpp ****     UpdateSynthParams();
  68:GrannyChordApp.cpp ****     System::Delay(5);
  69:GrannyChordApp.cpp ****   }
  70:GrannyChordApp.cpp **** }
  71:GrannyChordApp.cpp **** 
  72:GrannyChordApp.cpp **** void GrannyChordApp::UpdateUI(){
  73:GrannyChordApp.cpp ****   pod_.ProcessDigitalControls();
  74:GrannyChordApp.cpp ****   if ((pod_.encoder.TimeHeldMs() > 1000.0f)) HandleEncoderLongPress();
  75:GrannyChordApp.cpp ****   else if (pod_.encoder.FallingEdge()) HandleEncoderPressed();
  76:GrannyChordApp.cpp ****   if (pod_.button1.FallingEdge()) HandleButton1();
  77:GrannyChordApp.cpp ****   if (pod_.button2.FallingEdge()) HandleButton2();
  78:GrannyChordApp.cpp ****   if (curr_state_==AppState::Synthesis){
  79:GrannyChordApp.cpp ****     if (pod_.button1.TimeHeldMs() >1000.0f) HandleButton1LongPress();
  80:GrannyChordApp.cpp ****     if (pod_.button2.TimeHeldMs() >1000.0f) HandleButton2LongPress();
  81:GrannyChordApp.cpp ****   }
  82:GrannyChordApp.cpp **** 
  83:GrannyChordApp.cpp ****   int32_t encoder_inc = pod_.encoder.Increment();
  84:GrannyChordApp.cpp ****   if (encoder_inc!=0){
  85:GrannyChordApp.cpp ****     if (next_state_== AppState::SelectFile){
  86:GrannyChordApp.cpp ****       recorded_in_ = false;
  87:GrannyChordApp.cpp ****       HandleFileSelection(encoder_inc);
  88:GrannyChordApp.cpp ****     }
  89:GrannyChordApp.cpp ****     else if (curr_state_==AppState::PlayWAV){
  90:GrannyChordApp.cpp ****       recorded_in_ = false;
  91:GrannyChordApp.cpp ****       next_state_ = AppState::SelectFile;
ARM GAS  /var/folders/2p/02m_5p7958535cp2tpgps0400000gn/T//ccRuMDjw.s 			page 6


  92:GrannyChordApp.cpp ****     }
  93:GrannyChordApp.cpp ****   }
  94:GrannyChordApp.cpp ****   if (curr_state_ != next_state_){
  95:GrannyChordApp.cpp ****     DebugPrintState(curr_state_);
  96:GrannyChordApp.cpp ****     DebugPrint(pod_, "switching states");
  97:GrannyChordApp.cpp ****     DebugPrintState(next_state_);
  98:GrannyChordApp.cpp ****     HandleStateChange();
  99:GrannyChordApp.cpp ****   }
 100:GrannyChordApp.cpp **** }
 101:GrannyChordApp.cpp **** 
 102:GrannyChordApp.cpp **** void GrannyChordApp::HandleStateChange(){
 103:GrannyChordApp.cpp ****   switch(next_state_){
 104:GrannyChordApp.cpp ****     case AppState::SelectFile:
 105:GrannyChordApp.cpp ****       pod_.StopAudio();
 106:GrannyChordApp.cpp ****       curr_state_ = AppState::SelectFile;
 107:GrannyChordApp.cpp ****       return; 
 108:GrannyChordApp.cpp ****     case AppState::RecordIn:
 109:GrannyChordApp.cpp ****       InitRecordIn();
 110:GrannyChordApp.cpp ****       curr_state_ = AppState::RecordIn;  
 111:GrannyChordApp.cpp ****       return;
 112:GrannyChordApp.cpp ****     case AppState::PlayWAV:
 113:GrannyChordApp.cpp ****       InitPlayback(); 
 114:GrannyChordApp.cpp ****       curr_state_ = AppState::PlayWAV;
 115:GrannyChordApp.cpp ****       return;
 116:GrannyChordApp.cpp ****     case AppState::Synthesis:
 117:GrannyChordApp.cpp ****       InitSynth();
 118:GrannyChordApp.cpp ****       DebugPrint(pod_, "synth init finished");
 119:GrannyChordApp.cpp ****       curr_state_ = AppState::Synthesis;
 120:GrannyChordApp.cpp ****       DebugPrint(pod_, "started audiocb");
 121:GrannyChordApp.cpp ****       return;
 122:GrannyChordApp.cpp ****     case AppState::Error: 
 123:GrannyChordApp.cpp ****       pod_.led1.SetRed(1); 
 124:GrannyChordApp.cpp ****       pod_.led2.SetRed(1); 
 125:GrannyChordApp.cpp ****       curr_state_ = AppState::Error;
 126:GrannyChordApp.cpp ****       return;
 127:GrannyChordApp.cpp ****     default: 
 128:GrannyChordApp.cpp ****       return;
 129:GrannyChordApp.cpp ****   }
 130:GrannyChordApp.cpp **** }
 131:GrannyChordApp.cpp **** 
 132:GrannyChordApp.cpp **** void GrannyChordApp::HandleEncoderPressed(){
  99              		.loc 2 132 44 is_stmt 1 view -0
 100              		.cfi_startproc
 101              		@ args = 0, pretend = 0, frame = 0
 102              		@ frame_needed = 0, uses_anonymous_args = 0
 103              		@ link register save eliminated.
 133:GrannyChordApp.cpp ****   switch(curr_state_){
 104              		.loc 2 133 3 view .LVU18
 105              		.loc 2 133 10 is_stmt 0 view .LVU19
 106 0000 D0F83834 		ldr	r3, [r0, #1080]
 107              		.loc 2 133 3 view .LVU20
 108 0004 012B     		cmp	r3, #1
 109 0006 0CD0     		beq	.L7
 110 0008 032B     		cmp	r3, #3
 111 000a 04D0     		beq	.L8
 112 000c 13B9     		cbnz	r3, .L6
 134:GrannyChordApp.cpp ****     case AppState::SelectFile:
ARM GAS  /var/folders/2p/02m_5p7958535cp2tpgps0400000gn/T//ccRuMDjw.s 			page 7


 113              		.loc 2 134 5 is_stmt 1 view .LVU21
 135:GrannyChordApp.cpp ****       next_state_ = AppState::PlayWAV;
 114              		.loc 2 135 7 view .LVU22
 115              		.loc 2 135 19 is_stmt 0 view .LVU23
 116 000e 0123     		movs	r3, #1
 117              	.L10:
 136:GrannyChordApp.cpp ****       return;
 137:GrannyChordApp.cpp ****     case AppState::RecordIn: 
 138:GrannyChordApp.cpp ****       recorded_in_ = true;
 139:GrannyChordApp.cpp ****       next_state_ = AppState::PlayWAV; // NOTE: NEED TO CHANGE THIS
 140:GrannyChordApp.cpp ****                                         // ATM IT LOADS + PLAYS A WAV FILE
 141:GrannyChordApp.cpp ****                                         // NEED IT TO PLAY BUFFERS
 142:GrannyChordApp.cpp ****       return;
 143:GrannyChordApp.cpp ****     case AppState::PlayWAV:
 144:GrannyChordApp.cpp ****       next_state_ = AppState::Synthesis;
 118              		.loc 2 144 19 view .LVU24
 119 0010 C0F83C34 		str	r3, [r0, #1084]
 145:GrannyChordApp.cpp ****       return;
 120              		.loc 2 145 7 is_stmt 1 view .LVU25
 121              	.L6:
 146:GrannyChordApp.cpp ****     default:
 147:GrannyChordApp.cpp ****       return;
 148:GrannyChordApp.cpp ****   }
 149:GrannyChordApp.cpp **** }
 122              		.loc 2 149 1 is_stmt 0 view .LVU26
 123 0014 7047     		bx	lr
 124              	.L8:
 137:GrannyChordApp.cpp ****       recorded_in_ = true;
 125              		.loc 2 137 5 is_stmt 1 view .LVU27
 138:GrannyChordApp.cpp ****       next_state_ = AppState::PlayWAV; // NOTE: NEED TO CHANGE THIS
 126              		.loc 2 138 7 view .LVU28
 138:GrannyChordApp.cpp ****       next_state_ = AppState::PlayWAV; // NOTE: NEED TO CHANGE THIS
 127              		.loc 2 138 20 is_stmt 0 view .LVU29
 128 0016 00F50042 		add	r2, r0, #32768
 129 001a 0123     		movs	r3, #1
 130 001c 82F82438 		strb	r3, [r2, #2084]
 139:GrannyChordApp.cpp ****                                         // ATM IT LOADS + PLAYS A WAV FILE
 131              		.loc 2 139 7 is_stmt 1 view .LVU30
 132 0020 F6E7     		b	.L10
 133              	.L7:
 143:GrannyChordApp.cpp ****       next_state_ = AppState::Synthesis;
 134              		.loc 2 143 5 view .LVU31
 144:GrannyChordApp.cpp ****       return;
 135              		.loc 2 144 7 view .LVU32
 144:GrannyChordApp.cpp ****       return;
 136              		.loc 2 144 19 is_stmt 0 view .LVU33
 137 0022 0223     		movs	r3, #2
 138 0024 F4E7     		b	.L10
 139              		.cfi_endproc
 140              	.LFE4908:
 142              		.section	.rodata._ZN14GrannyChordApp22HandleEncoderLongPressEv.str1.1,"aMS",%progbits,1
 143              	.LC0:
 144 0000 696E206C 		.ascii	"in long press method\000"
 144      6F6E6720 
 144      70726573 
 144      73206D65 
 144      74686F64 
ARM GAS  /var/folders/2p/02m_5p7958535cp2tpgps0400000gn/T//ccRuMDjw.s 			page 8


 145              		.section	.text._ZN14GrannyChordApp22HandleEncoderLongPressEv,"ax",%progbits
 146              		.align	1
 147              		.global	_ZN14GrannyChordApp22HandleEncoderLongPressEv
 148              		.syntax unified
 149              		.thumb
 150              		.thumb_func
 152              	_ZN14GrannyChordApp22HandleEncoderLongPressEv:
 153              	.LVL6:
 154              	.LFB4909:
 150:GrannyChordApp.cpp **** 
 151:GrannyChordApp.cpp **** void GrannyChordApp::HandleEncoderLongPress(){
 155              		.loc 2 151 46 is_stmt 1 view -0
 156              		.cfi_startproc
 157              		@ args = 0, pretend = 0, frame = 0
 158              		@ frame_needed = 0, uses_anonymous_args = 0
 159              		.loc 2 151 46 is_stmt 0 view .LVU35
 160 0000 10B5     		push	{r4, lr}
 161              		.cfi_def_cfa_offset 8
 162              		.cfi_offset 4, -8
 163              		.cfi_offset 14, -4
 164 0002 0446     		mov	r4, r0
 165              	.LVL7:
 166              	.L17:
 152:GrannyChordApp.cpp ****   do { pod_.encoder.Debounce();  }
 167              		.loc 2 152 3 is_stmt 1 view .LVU36
 168              		.loc 2 152 8 view .LVU37
 169              		.loc 2 152 29 is_stmt 0 view .LVU38
 170 0004 E069     		ldr	r0, [r4, #28]
 171 0006 4030     		adds	r0, r0, #64
 172 0008 FFF7FEFF 		bl	_ZN5daisy7Encoder8DebounceEv
 173              	.LVL8:
 153:GrannyChordApp.cpp ****   while(!pod_.encoder.FallingEdge());
 174              		.loc 2 153 9 is_stmt 1 view .LVU39
 175              		.loc 2 153 10 is_stmt 0 view .LVU40
 176 000c E369     		ldr	r3, [r4, #28]
 177              	.LVL9:
 178              	.LBB341:
 179              	.LBI341:
 180              		.file 3 "../libDaisy/src/hid/encoder.h"
   1:../libDaisy/src/hid/encoder.h **** #pragma once
   2:../libDaisy/src/hid/encoder.h **** #ifndef DSY_ENCODER_H
   3:../libDaisy/src/hid/encoder.h **** #define DSY_ENCODER_H
   4:../libDaisy/src/hid/encoder.h **** #include "daisy_core.h"
   5:../libDaisy/src/hid/encoder.h **** #include "per/gpio.h"
   6:../libDaisy/src/hid/encoder.h **** #include "hid/switch.h"
   7:../libDaisy/src/hid/encoder.h **** 
   8:../libDaisy/src/hid/encoder.h **** namespace daisy
   9:../libDaisy/src/hid/encoder.h **** {
  10:../libDaisy/src/hid/encoder.h **** /** 
  11:../libDaisy/src/hid/encoder.h ****     @brief Generic Class for handling Quadrature Encoders \n 
  12:../libDaisy/src/hid/encoder.h ****     Inspired/influenced by Mutable Instruments (pichenettes) Encoder classes
  13:../libDaisy/src/hid/encoder.h ****     @author Stephen Hensley
  14:../libDaisy/src/hid/encoder.h ****     @date December 2019
  15:../libDaisy/src/hid/encoder.h ****     @ingroup controls
  16:../libDaisy/src/hid/encoder.h **** */
  17:../libDaisy/src/hid/encoder.h **** class Encoder
  18:../libDaisy/src/hid/encoder.h **** {
ARM GAS  /var/folders/2p/02m_5p7958535cp2tpgps0400000gn/T//ccRuMDjw.s 			page 9


  19:../libDaisy/src/hid/encoder.h ****   public:
  20:../libDaisy/src/hid/encoder.h ****     Encoder() {}
  21:../libDaisy/src/hid/encoder.h ****     ~Encoder() {}
  22:../libDaisy/src/hid/encoder.h **** 
  23:../libDaisy/src/hid/encoder.h ****     /** Initializes the encoder with the specified hardware pins.
  24:../libDaisy/src/hid/encoder.h ****      * Update rate is to be deprecated in a future release
  25:../libDaisy/src/hid/encoder.h ****      */
  26:../libDaisy/src/hid/encoder.h ****     void Init(dsy_gpio_pin a,
  27:../libDaisy/src/hid/encoder.h ****               dsy_gpio_pin b,
  28:../libDaisy/src/hid/encoder.h ****               dsy_gpio_pin click,
  29:../libDaisy/src/hid/encoder.h ****               float        update_rate = 0.f);
  30:../libDaisy/src/hid/encoder.h ****     /** Called at update_rate to debounce and handle timing for the switch.
  31:../libDaisy/src/hid/encoder.h ****      * In order for events not to be missed, its important that the Edge/Pressed checks be made at 
  32:../libDaisy/src/hid/encoder.h ****      */
  33:../libDaisy/src/hid/encoder.h ****     void Debounce();
  34:../libDaisy/src/hid/encoder.h **** 
  35:../libDaisy/src/hid/encoder.h ****     /** Returns +1 if the encoder was turned clockwise, -1 if it was turned counter-clockwise, or 0
  36:../libDaisy/src/hid/encoder.h ****     inline int32_t Increment() const { return updated_ ? inc_ : 0; }
  37:../libDaisy/src/hid/encoder.h **** 
  38:../libDaisy/src/hid/encoder.h ****     /** Returns true if the encoder was just pressed. */
  39:../libDaisy/src/hid/encoder.h ****     inline bool RisingEdge() const { return sw_.RisingEdge(); }
  40:../libDaisy/src/hid/encoder.h **** 
  41:../libDaisy/src/hid/encoder.h ****     /** Returns true if the encoder was just released. */
  42:../libDaisy/src/hid/encoder.h ****     inline bool FallingEdge() const { return sw_.FallingEdge(); }
 181              		.loc 3 42 17 is_stmt 1 view .LVU41
 182              	.LBE341:
 183              		.loc 3 42 39 view .LVU42
 184              	.LBB344:
 185              	.LBB342:
 186              	.LBI342:
  73:../libDaisy/src/hid/switch.h ****     {
 187              		.loc 1 73 17 view .LVU43
 188              	.LBB343:
  75:../libDaisy/src/hid/switch.h ****     }
 189              		.loc 1 75 9 view .LVU44
  75:../libDaisy/src/hid/switch.h ****     }
 190              		.loc 1 75 25 is_stmt 0 view .LVU45
 191 000e 93F84C20 		ldrb	r2, [r3, #76]	@ zero_extendqisi2
 192 0012 002A     		cmp	r2, #0
 193 0014 F6D0     		beq	.L17
 194              	.LVL10:
  75:../libDaisy/src/hid/switch.h ****     }
 195              		.loc 1 75 25 view .LVU46
 196              	.LBE343:
 197              	.LBE342:
 198              	.LBE344:
 199              		.loc 2 153 9 view .LVU47
 200 0016 93F85230 		ldrb	r3, [r3, #82]	@ zero_extendqisi2
 201 001a 802B     		cmp	r3, #128
 202 001c F2D1     		bne	.L17
 154:GrannyChordApp.cpp ****   DebugPrint(pod_,"in long press method");
 203              		.loc 2 154 3 is_stmt 1 view .LVU48
 204              		.loc 2 154 3 view .LVU49
 205              	.LVL11:
 206              	.LBB345:
 207              	.LBI345:
 208              		.file 4 "../libDaisy/src/daisy_seed.h"
ARM GAS  /var/folders/2p/02m_5p7958535cp2tpgps0400000gn/T//ccRuMDjw.s 			page 10


   1:../libDaisy/src/daisy_seed.h **** #pragma once
   2:../libDaisy/src/daisy_seed.h **** #ifndef DSY_SEED_H
   3:../libDaisy/src/daisy_seed.h **** #define DSY_SEED_H
   4:../libDaisy/src/daisy_seed.h **** 
   5:../libDaisy/src/daisy_seed.h **** #include "daisy.h"
   6:../libDaisy/src/daisy_seed.h **** 
   7:../libDaisy/src/daisy_seed.h **** //Uncomment this out if you're still using the rev2 hardware
   8:../libDaisy/src/daisy_seed.h **** //#define SEED_REV2
   9:../libDaisy/src/daisy_seed.h **** 
  10:../libDaisy/src/daisy_seed.h **** namespace daisy
  11:../libDaisy/src/daisy_seed.h **** {
  12:../libDaisy/src/daisy_seed.h **** /**
  13:../libDaisy/src/daisy_seed.h ****    @brief This is the higher-level interface for the Daisy board. \n 
  14:../libDaisy/src/daisy_seed.h ****     All basic peripheral configuration/initialization is setup here. \n
  15:../libDaisy/src/daisy_seed.h **** 
  16:../libDaisy/src/daisy_seed.h ****    @ingroup boards
  17:../libDaisy/src/daisy_seed.h **** */
  18:../libDaisy/src/daisy_seed.h **** class DaisySeed
  19:../libDaisy/src/daisy_seed.h **** {
  20:../libDaisy/src/daisy_seed.h ****   public:
  21:../libDaisy/src/daisy_seed.h ****     DaisySeed() {}
  22:../libDaisy/src/daisy_seed.h ****     ~DaisySeed() {}
  23:../libDaisy/src/daisy_seed.h **** 
  24:../libDaisy/src/daisy_seed.h ****     /** This function used to provide a pre-initialization configuraiton 
  25:../libDaisy/src/daisy_seed.h ****      *  it has since been deprecated, and does nothing.
  26:../libDaisy/src/daisy_seed.h ****      */
  27:../libDaisy/src/daisy_seed.h ****     void Configure();
  28:../libDaisy/src/daisy_seed.h **** 
  29:../libDaisy/src/daisy_seed.h ****     /** 
  30:../libDaisy/src/daisy_seed.h ****     Initializes the Daisy Seed and the following peripherals:
  31:../libDaisy/src/daisy_seed.h ****     SDRAM, QSPI, 24-bit 48kHz Audio via AK4556, Internal USB,
  32:../libDaisy/src/daisy_seed.h ****     as well as the built-in LED and Testpoint.
  33:../libDaisy/src/daisy_seed.h **** 
  34:../libDaisy/src/daisy_seed.h ****     ADCs, DACs, and other special peripherals (such as I2C, SPI, etc.)
  35:../libDaisy/src/daisy_seed.h ****     can be initialized using their specific initializers within libdaisy
  36:../libDaisy/src/daisy_seed.h ****     for a specific application.
  37:../libDaisy/src/daisy_seed.h ****     */
  38:../libDaisy/src/daisy_seed.h ****     void Init(bool boost = false);
  39:../libDaisy/src/daisy_seed.h **** 
  40:../libDaisy/src/daisy_seed.h ****     /** 
  41:../libDaisy/src/daisy_seed.h ****     Deinitializes all peripherals automatically handled by `Init`.
  42:../libDaisy/src/daisy_seed.h ****     */
  43:../libDaisy/src/daisy_seed.h ****     void DeInit();
  44:../libDaisy/src/daisy_seed.h **** 
  45:../libDaisy/src/daisy_seed.h ****     /** 
  46:../libDaisy/src/daisy_seed.h ****     Wait some ms before going on.
  47:../libDaisy/src/daisy_seed.h ****     \param del Delay time in ms.
  48:../libDaisy/src/daisy_seed.h ****     */
  49:../libDaisy/src/daisy_seed.h ****     void DelayMs(size_t del);
  50:../libDaisy/src/daisy_seed.h **** 
  51:../libDaisy/src/daisy_seed.h ****     /** 
  52:../libDaisy/src/daisy_seed.h ****     Returns the gpio_pin corresponding to the index 0-31.
  53:../libDaisy/src/daisy_seed.h ****     For the given GPIO on the Daisy Seed (labeled 1-32 in docs).
  54:../libDaisy/src/daisy_seed.h ****     */
  55:../libDaisy/src/daisy_seed.h ****     static dsy_gpio_pin GetPin(uint8_t pin_idx);
  56:../libDaisy/src/daisy_seed.h **** 
  57:../libDaisy/src/daisy_seed.h ****     /** Begins the audio for the seeds builtin audio.
ARM GAS  /var/folders/2p/02m_5p7958535cp2tpgps0400000gn/T//ccRuMDjw.s 			page 11


  58:../libDaisy/src/daisy_seed.h ****     the specified callback will get called whenever
  59:../libDaisy/src/daisy_seed.h ****     new data is ready to be prepared.
  60:../libDaisy/src/daisy_seed.h ****     */
  61:../libDaisy/src/daisy_seed.h ****     void StartAudio(AudioHandle::InterleavingAudioCallback cb);
  62:../libDaisy/src/daisy_seed.h **** 
  63:../libDaisy/src/daisy_seed.h ****     /** Begins the audio for the seeds builtin audio.
  64:../libDaisy/src/daisy_seed.h ****     the specified callback will get called whenever
  65:../libDaisy/src/daisy_seed.h ****     new data is ready to be prepared.
  66:../libDaisy/src/daisy_seed.h ****     This will use the newer non-interleaved callback.
  67:../libDaisy/src/daisy_seed.h ****     */
  68:../libDaisy/src/daisy_seed.h ****     void StartAudio(AudioHandle::AudioCallback cb);
  69:../libDaisy/src/daisy_seed.h **** 
  70:../libDaisy/src/daisy_seed.h ****     /** Changes to a new interleaved callback
  71:../libDaisy/src/daisy_seed.h ****      */
  72:../libDaisy/src/daisy_seed.h ****     void ChangeAudioCallback(AudioHandle::InterleavingAudioCallback cb);
  73:../libDaisy/src/daisy_seed.h **** 
  74:../libDaisy/src/daisy_seed.h ****     /** Changes to a new multichannel callback
  75:../libDaisy/src/daisy_seed.h ****      */
  76:../libDaisy/src/daisy_seed.h ****     void ChangeAudioCallback(AudioHandle::AudioCallback cb);
  77:../libDaisy/src/daisy_seed.h **** 
  78:../libDaisy/src/daisy_seed.h ****     /** Stops the audio if it is running. */
  79:../libDaisy/src/daisy_seed.h ****     void StopAudio();
  80:../libDaisy/src/daisy_seed.h **** 
  81:../libDaisy/src/daisy_seed.h ****     /** Updates the Audio Sample Rate, and reinitializes.
  82:../libDaisy/src/daisy_seed.h ****      ** Audio must be stopped for this to work.
  83:../libDaisy/src/daisy_seed.h ****      */
  84:../libDaisy/src/daisy_seed.h ****     void SetAudioSampleRate(SaiHandle::Config::SampleRate samplerate);
  85:../libDaisy/src/daisy_seed.h **** 
  86:../libDaisy/src/daisy_seed.h ****     /** Returns the audio sample rate in Hz as a floating point number.
  87:../libDaisy/src/daisy_seed.h ****      */
  88:../libDaisy/src/daisy_seed.h ****     float AudioSampleRate();
  89:../libDaisy/src/daisy_seed.h **** 
  90:../libDaisy/src/daisy_seed.h ****     /** Sets the number of samples processed per channel by the audio callback.
  91:../libDaisy/src/daisy_seed.h ****      */
  92:../libDaisy/src/daisy_seed.h ****     void SetAudioBlockSize(size_t blocksize);
  93:../libDaisy/src/daisy_seed.h **** 
  94:../libDaisy/src/daisy_seed.h ****     /** Returns the number of samples per channel in a block of audio. */
  95:../libDaisy/src/daisy_seed.h ****     size_t AudioBlockSize();
  96:../libDaisy/src/daisy_seed.h **** 
  97:../libDaisy/src/daisy_seed.h ****     /** Returns the rate in Hz that the Audio callback is called */
  98:../libDaisy/src/daisy_seed.h ****     float AudioCallbackRate() const;
  99:../libDaisy/src/daisy_seed.h **** 
 100:../libDaisy/src/daisy_seed.h ****     /** Returns the SAI Handle for the Daisy Seed 
 101:../libDaisy/src/daisy_seed.h ****      *  This can be useful when adding a secondary codec,
 102:../libDaisy/src/daisy_seed.h ****      *  the result of this function can be passed to the audio reinit 
 103:../libDaisy/src/daisy_seed.h ****      *  with an SAI2 configuration
 104:../libDaisy/src/daisy_seed.h ****      */
 105:../libDaisy/src/daisy_seed.h ****     const SaiHandle& AudioSaiHandle() const;
 106:../libDaisy/src/daisy_seed.h **** 
 107:../libDaisy/src/daisy_seed.h ****     /** Sets the state of the built in LED
 108:../libDaisy/src/daisy_seed.h ****      */
 109:../libDaisy/src/daisy_seed.h ****     void SetLed(bool state);
 110:../libDaisy/src/daisy_seed.h **** 
 111:../libDaisy/src/daisy_seed.h ****     /** Sets the state of the test point near pin 10
 112:../libDaisy/src/daisy_seed.h ****      */
 113:../libDaisy/src/daisy_seed.h ****     void SetTestPoint(bool state);
 114:../libDaisy/src/daisy_seed.h **** 
ARM GAS  /var/folders/2p/02m_5p7958535cp2tpgps0400000gn/T//ccRuMDjw.s 			page 12


 115:../libDaisy/src/daisy_seed.h ****     /** Print formatted debug log message
 116:../libDaisy/src/daisy_seed.h ****      */
 117:../libDaisy/src/daisy_seed.h ****     template <typename... VA>
 118:../libDaisy/src/daisy_seed.h ****     static void Print(const char* format, VA... va)
 119:../libDaisy/src/daisy_seed.h ****     {
 120:../libDaisy/src/daisy_seed.h ****         Log::Print(format, va...);
 121:../libDaisy/src/daisy_seed.h ****     }
 122:../libDaisy/src/daisy_seed.h **** 
 123:../libDaisy/src/daisy_seed.h ****     /** Print formatted debug log message with automatic line termination
 124:../libDaisy/src/daisy_seed.h ****     */
 125:../libDaisy/src/daisy_seed.h ****     template <typename... VA>
 126:../libDaisy/src/daisy_seed.h ****     static void PrintLine(const char* format, VA... va)
 209              		.loc 4 126 17 view .LVU50
 210              	.LBB346:
 127:../libDaisy/src/daisy_seed.h ****     {
 128:../libDaisy/src/daisy_seed.h ****         Log::PrintLine(format, va...);
 211              		.loc 4 128 23 is_stmt 0 view .LVU51
 212 001e 0B48     		ldr	r0, .L20
 213 0020 FFF7FEFF 		bl	_ZN5daisy6LoggerILNS_17LoggerDestinationE1EE9PrintLineEPKcz
 214              	.LVL12:
 215              		.loc 4 128 23 view .LVU52
 216              	.LBE346:
 217              	.LBE345:
 155:GrannyChordApp.cpp ****   switch(curr_state_){
 218              		.loc 2 155 3 is_stmt 1 view .LVU53
 219              		.loc 2 155 10 is_stmt 0 view .LVU54
 220 0024 D4F83834 		ldr	r3, [r4, #1080]
 221              		.loc 2 155 3 view .LVU55
 222 0028 012B     		cmp	r3, #1
 223 002a 08DC     		bgt	.L13
 224 002c 002B     		cmp	r3, #0
 225 002e 0CDB     		blt	.L11
 156:GrannyChordApp.cpp ****     case AppState::Synthesis:
 157:GrannyChordApp.cpp ****     case AppState::RecordIn:  
 158:GrannyChordApp.cpp ****       next_state_ = AppState::SelectFile;
 159:GrannyChordApp.cpp ****       return;
 160:GrannyChordApp.cpp ****     case AppState::SelectFile:
 226              		.loc 2 160 5 is_stmt 1 view .LVU56
 161:GrannyChordApp.cpp ****     case AppState::PlayWAV: 
 227              		.loc 2 161 5 view .LVU57
 162:GrannyChordApp.cpp ****       recorded_in_ = true;
 228              		.loc 2 162 7 view .LVU58
 229              		.loc 2 162 20 is_stmt 0 view .LVU59
 230 0030 04F50043 		add	r3, r4, #32768
 231 0034 0122     		movs	r2, #1
 232 0036 83F82428 		strb	r2, [r3, #2084]
 163:GrannyChordApp.cpp ****       next_state_ = AppState::RecordIn;  
 233              		.loc 2 163 7 is_stmt 1 view .LVU60
 234              		.loc 2 163 19 is_stmt 0 view .LVU61
 235 003a 0323     		movs	r3, #3
 236 003c 03E0     		b	.L19
 237              	.L13:
 155:GrannyChordApp.cpp ****     case AppState::Synthesis:
 238              		.loc 2 155 3 view .LVU62
 239 003e 023B     		subs	r3, r3, #2
 240 0040 012B     		cmp	r3, #1
 241 0042 02D8     		bhi	.L11
ARM GAS  /var/folders/2p/02m_5p7958535cp2tpgps0400000gn/T//ccRuMDjw.s 			page 13


 156:GrannyChordApp.cpp ****     case AppState::RecordIn:  
 242              		.loc 2 156 5 is_stmt 1 view .LVU63
 157:GrannyChordApp.cpp ****       next_state_ = AppState::SelectFile;
 243              		.loc 2 157 5 view .LVU64
 158:GrannyChordApp.cpp ****       return;
 244              		.loc 2 158 7 view .LVU65
 158:GrannyChordApp.cpp ****       return;
 245              		.loc 2 158 19 is_stmt 0 view .LVU66
 246 0044 0023     		movs	r3, #0
 247              	.L19:
 248              		.loc 2 163 19 view .LVU67
 249 0046 C4F83C34 		str	r3, [r4, #1084]
 164:GrannyChordApp.cpp ****       return;
 250              		.loc 2 164 7 is_stmt 1 view .LVU68
 251              	.L11:
 165:GrannyChordApp.cpp ****     default:
 166:GrannyChordApp.cpp ****       return;
 167:GrannyChordApp.cpp ****   }
 168:GrannyChordApp.cpp **** }
 252              		.loc 2 168 1 is_stmt 0 view .LVU69
 253 004a 10BD     		pop	{r4, pc}
 254              	.LVL13:
 255              	.L21:
 256              		.loc 2 168 1 view .LVU70
 257              		.align	2
 258              	.L20:
 259 004c 00000000 		.word	.LC0
 260              		.cfi_endproc
 261              	.LFE4909:
 263              		.section	.rodata._ZN14GrannyChordApp19HandleFileSelectionEl.str1.1,"aMS",%progbits,1
 264              	.LC1:
 265 0000 73656C65 		.ascii	"selected file %d %s\000"
 265      63746564 
 265      2066696C 
 265      65202564 
 265      20257300 
 266              		.section	.text._ZN14GrannyChordApp19HandleFileSelectionEl,"ax",%progbits
 267              		.align	1
 268              		.global	_ZN14GrannyChordApp19HandleFileSelectionEl
 269              		.syntax unified
 270              		.thumb
 271              		.thumb_func
 273              	_ZN14GrannyChordApp19HandleFileSelectionEl:
 274              	.LVL14:
 275              	.LFB4914:
 169:GrannyChordApp.cpp **** 
 170:GrannyChordApp.cpp **** void GrannyChordApp::HandleButton1(){
 171:GrannyChordApp.cpp ****   if (curr_state_==AppState::Synthesis){
 172:GrannyChordApp.cpp ****     UpdateSynthMode();
 173:GrannyChordApp.cpp ****   }
 174:GrannyChordApp.cpp **** }
 175:GrannyChordApp.cpp **** 
 176:GrannyChordApp.cpp **** /// @brief Toggles on/off randomness for synth parameters
 177:GrannyChordApp.cpp **** void GrannyChordApp::HandleButton2(){
 178:GrannyChordApp.cpp ****   if (curr_state_==AppState::Synthesis){
 179:GrannyChordApp.cpp ****     ToggleRandomnessControls();
 180:GrannyChordApp.cpp ****   }
ARM GAS  /var/folders/2p/02m_5p7958535cp2tpgps0400000gn/T//ccRuMDjw.s 			page 14


 181:GrannyChordApp.cpp **** }
 182:GrannyChordApp.cpp **** 
 183:GrannyChordApp.cpp **** void GrannyChordApp::HandleButton1LongPress(){
 184:GrannyChordApp.cpp ****   if (curr_state_==AppState::Synthesis){
 185:GrannyChordApp.cpp ****     ToggleFX(true);
 186:GrannyChordApp.cpp ****   }
 187:GrannyChordApp.cpp **** }
 188:GrannyChordApp.cpp **** 
 189:GrannyChordApp.cpp **** void GrannyChordApp::HandleButton2LongPress(){
 190:GrannyChordApp.cpp ****   if (curr_state_==AppState::Synthesis){
 191:GrannyChordApp.cpp ****     ToggleFX(false);
 192:GrannyChordApp.cpp ****   }
 193:GrannyChordApp.cpp **** }
 194:GrannyChordApp.cpp **** 
 195:GrannyChordApp.cpp **** /// @brief Scrolls through list of files for user selection
 196:GrannyChordApp.cpp **** void GrannyChordApp::HandleFileSelection(int32_t encoder_inc){
 276              		.loc 2 196 62 is_stmt 1 view -0
 277              		.cfi_startproc
 278              		@ args = 0, pretend = 0, frame = 0
 279              		@ frame_needed = 0, uses_anonymous_args = 0
 197:GrannyChordApp.cpp ****   int file_count = filemgr_.GetFileCount();
 280              		.loc 2 197 3 view .LVU72
 281              		.loc 2 197 20 is_stmt 0 view .LVU73
 282 0000 D0F83034 		ldr	r3, [r0, #1072]
 283              	.LVL15:
 284              	.LBB347:
 285              	.LBI347:
 286              		.file 5 "AudioFileManager.h"
   1:AudioFileManager.h **** #pragma once
   2:AudioFileManager.h **** #include <stdio.h>
   3:AudioFileManager.h **** #include <stdint.h>
   4:AudioFileManager.h **** #include <vector>
   5:AudioFileManager.h **** #include "daisy_pod.h"
   6:AudioFileManager.h **** #include "constants_utils.h"
   7:AudioFileManager.h **** #include "debug_print.h"
   8:AudioFileManager.h **** 
   9:AudioFileManager.h **** using namespace daisy; 
  10:AudioFileManager.h **** 
  11:AudioFileManager.h **** class AudioFileManager {
  12:AudioFileManager.h ****   public:
  13:AudioFileManager.h ****     AudioFileManager(SdmmcHandler &sd, FatFSInterface &fsi, DaisyPod &pod, FIL *file)
  14:AudioFileManager.h ****       : sd_(sd), fsi_(fsi), pod_(pod), curr_file_(file), 
  15:AudioFileManager.h ****         left_buf_(nullptr), right_buf_(nullptr) {};
  16:AudioFileManager.h ****     
  17:AudioFileManager.h ****     bool Init();
  18:AudioFileManager.h ****     bool ScanWavFiles();
  19:AudioFileManager.h ****     void SetBuffers(int16_t *left, int16_t *right, int16_t* temp_buf);
  20:AudioFileManager.h ****     bool LoadFile(uint16_t file_idx);
  21:AudioFileManager.h ****     
  22:AudioFileManager.h ****     bool CloseFile();
  23:AudioFileManager.h ****     bool GetWavHeader(FIL *file);
  24:AudioFileManager.h **** 
  25:AudioFileManager.h ****     int16_t* GetLeftBuffer() const { return left_buf_; }
  26:AudioFileManager.h ****     int16_t* GetRightBuffer() const { return right_buf_; }
  27:AudioFileManager.h ****     size_t GetSamplesPerChannel() const { return header_.total_samples / header_.channels; }
  28:AudioFileManager.h ****     size_t GetTotalSamples() const { return header_.total_samples; }
  29:AudioFileManager.h ****     int16_t GetNumChannels() const { return header_.channels; }
ARM GAS  /var/folders/2p/02m_5p7958535cp2tpgps0400000gn/T//ccRuMDjw.s 			page 15


  30:AudioFileManager.h ****     uint16_t GetFileCount() const { return file_count_; }
 287              		.loc 5 30 14 is_stmt 1 view .LVU74
 288              	.LBB348:
 289              		.loc 5 30 37 view .LVU75
 290              		.loc 5 30 37 is_stmt 0 view .LVU76
 291              	.LBE348:
 292              	.LBE347:
 196:GrannyChordApp.cpp ****   int file_count = filemgr_.GetFileCount();
 293              		.loc 2 196 62 view .LVU77
 294 0004 10B5     		push	{r4, lr}
 295              		.cfi_def_cfa_offset 8
 296              		.cfi_offset 4, -8
 297              		.cfi_offset 14, -4
 298              	.LBB350:
 299              	.LBB349:
 300              		.loc 5 30 44 view .LVU78
 301 0006 03F58052 		add	r2, r3, #4096
 302              	.LBE349:
 303              	.LBE350:
 198:GrannyChordApp.cpp ****   file_idx_ = (file_idx_ + encoder_inc + file_count) % file_count;
 304              		.loc 2 198 26 view .LVU79
 305 000a D0F8EC44 		ldr	r4, [r0, #1260]
 197:GrannyChordApp.cpp ****   file_idx_ = (file_idx_ + encoder_inc + file_count) % file_count;
 306              		.loc 2 197 42 view .LVU80
 307 000e D28B     		ldrh	r2, [r2, #30]
 308              	.LVL16:
 309              		.loc 2 198 3 is_stmt 1 view .LVU81
 310              		.loc 2 198 26 is_stmt 0 view .LVU82
 311 0010 2144     		add	r1, r1, r4
 312              	.LVL17:
 313              		.loc 2 198 40 view .LVU83
 314 0012 8C18     		adds	r4, r1, r2
 315              		.loc 2 198 54 view .LVU84
 316 0014 94FBF2F1 		sdiv	r1, r4, r2
 317 0018 02FB1144 		mls	r4, r2, r1, r4
 199:GrannyChordApp.cpp ****   filemgr_.GetName(file_idx_,fname_);
 318              		.loc 2 199 30 view .LVU85
 319 001c 00F59F62 		add	r2, r0, #1272
 320              	.LVL18:
 321              	.LBB351:
 322              	.LBB352:
  31:AudioFileManager.h ****     void GetName(uint16_t idx, char* name) const { strcpy(name, names_[idx]); }
 323              		.loc 5 31 75 view .LVU86
 324 0020 A1B2     		uxth	r1, r4
 325              	.LBE352:
 326              	.LBE351:
 198:GrannyChordApp.cpp ****   filemgr_.GetName(file_idx_,fname_);
 327              		.loc 2 198 13 view .LVU87
 328 0022 C0F8EC44 		str	r4, [r0, #1260]
 329              		.loc 2 199 3 is_stmt 1 view .LVU88
 330              	.LVL19:
 331              	.LBB355:
 332              	.LBI351:
 333              		.loc 5 31 10 view .LVU89
 334              	.LBB353:
 335              		.loc 5 31 52 view .LVU90
 336              		.loc 5 31 58 is_stmt 0 view .LVU91
ARM GAS  /var/folders/2p/02m_5p7958535cp2tpgps0400000gn/T//ccRuMDjw.s 			page 16


 337 0026 1046     		mov	r0, r2
 338              	.LVL20:
 339              		.loc 5 31 75 view .LVU92
 340 0028 03EBC111 		add	r1, r3, r1, lsl #7
 341              		.loc 5 31 58 view .LVU93
 342 002c 1C31     		adds	r1, r1, #28
 343 002e FFF7FEFF 		bl	strcpy
 344              	.LVL21:
 345              		.loc 5 31 58 view .LVU94
 346              	.LBE353:
 347              	.LBE355:
 348              	.LBB356:
 349              	.LBB357:
 350              		.loc 4 128 23 view .LVU95
 351 0032 2146     		mov	r1, r4
 352              	.LBE357:
 353              	.LBE356:
 354              	.LBB360:
 355              	.LBB354:
 356              		.loc 5 31 58 view .LVU96
 357 0034 0246     		mov	r2, r0
 358              	.LVL22:
 359              		.loc 5 31 58 view .LVU97
 360              	.LBE354:
 361              	.LBE360:
 200:GrannyChordApp.cpp ****   DebugPrint(pod_, "selected file %d %s",file_idx_,fname_);
 362              		.loc 2 200 3 is_stmt 1 view .LVU98
 363              		.loc 2 200 3 view .LVU99
 364              	.LBB361:
 365              	.LBI356:
 126:../libDaisy/src/daisy_seed.h ****     {
 366              		.loc 4 126 17 view .LVU100
 367              	.LBB358:
 368              		.loc 4 128 23 is_stmt 0 view .LVU101
 369 0036 0248     		ldr	r0, .L23
 370              	.LVL23:
 371              		.loc 4 128 23 view .LVU102
 372              	.LBE358:
 373              	.LBE361:
 201:GrannyChordApp.cpp **** }
 374              		.loc 2 201 1 view .LVU103
 375 0038 BDE81040 		pop	{r4, lr}
 376              		.cfi_restore 14
 377              		.cfi_restore 4
 378              		.cfi_def_cfa_offset 0
 379              	.LBB362:
 380              	.LBB359:
 381              		.loc 4 128 23 view .LVU104
 382 003c FFF7FEBF 		b	_ZN5daisy6LoggerILNS_17LoggerDestinationE1EE9PrintLineEPKcz
 383              	.LVL24:
 384              	.L24:
 385              		.loc 4 128 23 view .LVU105
 386              		.align	2
 387              	.L23:
 388 0040 00000000 		.word	.LC1
 389              	.LBE359:
 390              	.LBE362:
ARM GAS  /var/folders/2p/02m_5p7958535cp2tpgps0400000gn/T//ccRuMDjw.s 			page 17


 391              		.cfi_endproc
 392              	.LFE4914:
 394              		.section	.rodata._ZN14GrannyChordApp15UpdateSynthModeEv.str1.1,"aMS",%progbits,1
 395              	.LC2:
 396 0000 6E657874 		.ascii	"next synth mode\000"
 396      2073796E 
 396      7468206D 
 396      6F646500 
 397              		.section	.text._ZN14GrannyChordApp15UpdateSynthModeEv,"ax",%progbits
 398              		.align	1
 399              		.global	_ZN14GrannyChordApp15UpdateSynthModeEv
 400              		.syntax unified
 401              		.thumb
 402              		.thumb_func
 404              	_ZN14GrannyChordApp15UpdateSynthModeEv:
 405              	.LVL25:
 406              	.LFB4915:
 202:GrannyChordApp.cpp **** 
 203:GrannyChordApp.cpp **** /// @brief iterates through synth parameter control modes
 204:GrannyChordApp.cpp **** void GrannyChordApp::UpdateSynthMode(){
 407              		.loc 2 204 39 is_stmt 1 view -0
 408              		.cfi_startproc
 409              		@ args = 0, pretend = 0, frame = 0
 410              		@ frame_needed = 0, uses_anonymous_args = 0
 205:GrannyChordApp.cpp ****   DebugPrint(pod_, "next synth mode");
 411              		.loc 2 205 3 view .LVU107
 412              		.loc 2 205 3 view .LVU108
 413              	.LBB363:
 414              	.LBI363:
 126:../libDaisy/src/daisy_seed.h ****     {
 415              		.loc 4 126 17 view .LVU109
 416              	.LBE363:
 204:GrannyChordApp.cpp ****   DebugPrint(pod_, "next synth mode");
 417              		.loc 2 204 39 is_stmt 0 view .LVU110
 418 0000 10B5     		push	{r4, lr}
 419              		.cfi_def_cfa_offset 8
 420              		.cfi_offset 4, -8
 421              		.cfi_offset 14, -4
 204:GrannyChordApp.cpp ****   DebugPrint(pod_, "next synth mode");
 422              		.loc 2 204 39 view .LVU111
 423 0002 0446     		mov	r4, r0
 424              	.LBB365:
 425              	.LBB364:
 426              		.loc 4 128 23 view .LVU112
 427 0004 0B48     		ldr	r0, .L33
 428              	.LVL26:
 429              		.loc 4 128 23 view .LVU113
 430 0006 FFF7FEFF 		bl	_ZN5daisy6LoggerILNS_17LoggerDestinationE1EE9PrintLineEPKcz
 431              	.LVL27:
 432              		.loc 4 128 23 view .LVU114
 433              	.LBE364:
 434              	.LBE365:
 206:GrannyChordApp.cpp ****   switch(curr_synth_mode_){
 435              		.loc 2 206 3 is_stmt 1 view .LVU115
 436 000a D4F84034 		ldr	r3, [r4, #1088]
 437 000e 062B     		cmp	r3, #6
 438 0010 08D8     		bhi	.L25
ARM GAS  /var/folders/2p/02m_5p7958535cp2tpgps0400000gn/T//ccRuMDjw.s 			page 18


 439 0012 DFE803F0 		tbb	[pc, r3]
 440              	.L28:
 441 0016 04       		.byte	(.L31-.L28)/2
 442 0017 08       		.byte	(.L30-.L28)/2
 443 0018 0A       		.byte	(.L29-.L28)/2
 444 0019 07       		.byte	(.L25-.L28)/2
 445 001a 07       		.byte	(.L25-.L28)/2
 446 001b 07       		.byte	(.L25-.L28)/2
 447 001c 0C       		.byte	(.L27-.L28)/2
 448 001d 00       		.p2align 1
 449              	.L31:
 207:GrannyChordApp.cpp ****     case SynthMode::Size_Position:
 450              		.loc 2 207 5 view .LVU116
 208:GrannyChordApp.cpp ****       curr_synth_mode_ = SynthMode::Pitch_ActiveGrains;
 451              		.loc 2 208 7 view .LVU117
 452              		.loc 2 208 24 is_stmt 0 view .LVU118
 453 001e 0123     		movs	r3, #1
 454              	.L32:
 209:GrannyChordApp.cpp ****       return;
 210:GrannyChordApp.cpp ****     case SynthMode::Pitch_ActiveGrains:
 211:GrannyChordApp.cpp ****       curr_synth_mode_ = SynthMode::PhasorMode_EnvType;
 212:GrannyChordApp.cpp ****       return;
 213:GrannyChordApp.cpp ****     case SynthMode::PhasorMode_EnvType:
 214:GrannyChordApp.cpp ****       curr_synth_mode_ = SynthMode::Pan_PanRnd;
 215:GrannyChordApp.cpp ****       return;
 216:GrannyChordApp.cpp ****     case SynthMode::Pan_PanRnd:
 217:GrannyChordApp.cpp ****       curr_synth_mode_ = SynthMode::Size_Position;
 455              		.loc 2 217 24 view .LVU119
 456 0020 C4F84034 		str	r3, [r4, #1088]
 218:GrannyChordApp.cpp ****       return;
 457              		.loc 2 218 7 is_stmt 1 view .LVU120
 458              	.L25:
 219:GrannyChordApp.cpp ****     default:
 220:GrannyChordApp.cpp ****       return;
 221:GrannyChordApp.cpp ****   }
 222:GrannyChordApp.cpp **** }
 459              		.loc 2 222 1 is_stmt 0 view .LVU121
 460 0024 10BD     		pop	{r4, pc}
 461              	.LVL28:
 462              	.L30:
 210:GrannyChordApp.cpp ****       curr_synth_mode_ = SynthMode::PhasorMode_EnvType;
 463              		.loc 2 210 5 is_stmt 1 view .LVU122
 211:GrannyChordApp.cpp ****       return;
 464              		.loc 2 211 7 view .LVU123
 211:GrannyChordApp.cpp ****       return;
 465              		.loc 2 211 24 is_stmt 0 view .LVU124
 466 0026 0223     		movs	r3, #2
 467 0028 FAE7     		b	.L32
 468              	.L29:
 213:GrannyChordApp.cpp ****       curr_synth_mode_ = SynthMode::Pan_PanRnd;
 469              		.loc 2 213 5 is_stmt 1 view .LVU125
 214:GrannyChordApp.cpp ****       return;
 470              		.loc 2 214 7 view .LVU126
 214:GrannyChordApp.cpp ****       return;
 471              		.loc 2 214 24 is_stmt 0 view .LVU127
 472 002a 0623     		movs	r3, #6
 473 002c F8E7     		b	.L32
ARM GAS  /var/folders/2p/02m_5p7958535cp2tpgps0400000gn/T//ccRuMDjw.s 			page 19


 474              	.L27:
 216:GrannyChordApp.cpp ****       curr_synth_mode_ = SynthMode::Size_Position;
 475              		.loc 2 216 5 is_stmt 1 view .LVU128
 217:GrannyChordApp.cpp ****       return;
 476              		.loc 2 217 7 view .LVU129
 217:GrannyChordApp.cpp ****       return;
 477              		.loc 2 217 24 is_stmt 0 view .LVU130
 478 002e 0023     		movs	r3, #0
 479 0030 F6E7     		b	.L32
 480              	.L34:
 481 0032 00BF     		.align	2
 482              	.L33:
 483 0034 00000000 		.word	.LC2
 484              		.cfi_endproc
 485              	.LFE4915:
 487              		.section	.text._ZN14GrannyChordApp13HandleButton1Ev,"ax",%progbits
 488              		.align	1
 489              		.global	_ZN14GrannyChordApp13HandleButton1Ev
 490              		.syntax unified
 491              		.thumb
 492              		.thumb_func
 494              	_ZN14GrannyChordApp13HandleButton1Ev:
 495              	.LVL29:
 496              	.LFB4910:
 170:GrannyChordApp.cpp ****   if (curr_state_==AppState::Synthesis){
 497              		.loc 2 170 37 is_stmt 1 view -0
 498              		.cfi_startproc
 499              		@ args = 0, pretend = 0, frame = 0
 500              		@ frame_needed = 0, uses_anonymous_args = 0
 501              		@ link register save eliminated.
 171:GrannyChordApp.cpp ****     UpdateSynthMode();
 502              		.loc 2 171 3 view .LVU132
 503 0000 D0F83834 		ldr	r3, [r0, #1080]
 504 0004 022B     		cmp	r3, #2
 505 0006 01D1     		bne	.L35
 172:GrannyChordApp.cpp ****   }
 506              		.loc 2 172 5 view .LVU133
 172:GrannyChordApp.cpp ****   }
 507              		.loc 2 172 20 is_stmt 0 view .LVU134
 508 0008 FFF7FEBF 		b	_ZN14GrannyChordApp15UpdateSynthModeEv
 509              	.LVL30:
 510              	.L35:
 174:GrannyChordApp.cpp **** 
 511              		.loc 2 174 1 view .LVU135
 512 000c 7047     		bx	lr
 513              		.cfi_endproc
 514              	.LFE4910:
 516              		.section	.text._ZN14GrannyChordApp24ToggleRandomnessControlsEv,"ax",%progbits
 517              		.align	1
 518              		.global	_ZN14GrannyChordApp24ToggleRandomnessControlsEv
 519              		.syntax unified
 520              		.thumb
 521              		.thumb_func
 523              	_ZN14GrannyChordApp24ToggleRandomnessControlsEv:
 524              	.LVL31:
 525              	.LFB4917:
 223:GrannyChordApp.cpp **** 
ARM GAS  /var/folders/2p/02m_5p7958535cp2tpgps0400000gn/T//ccRuMDjw.s 			page 20


 224:GrannyChordApp.cpp **** /// @brief Updates synth parameters based on current synth mode and adjusts
 225:GrannyChordApp.cpp **** ///        knob input values to account for knob jitter and deadzones around 0/1
 226:GrannyChordApp.cpp **** void GrannyChordApp::UpdateSynthParams(){
 227:GrannyChordApp.cpp ****   if (curr_state_!=AppState::Synthesis) return;
 228:GrannyChordApp.cpp ****   int mode_idx = static_cast<int>(curr_synth_mode_);
 229:GrannyChordApp.cpp ****   float knob1_val = MapKnobDeadzone(pod_.knob1.Process());
 230:GrannyChordApp.cpp ****   float knob2_val = MapKnobDeadzone(pod_.knob2.Process());
 231:GrannyChordApp.cpp **** 
 232:GrannyChordApp.cpp ****   if (CheckParamDelta(knob1_val,prev_param_vals_k1[mode_idx])){
 233:GrannyChordApp.cpp ****     UpdateKnob1Params(knob1_val,curr_synth_mode_);
 234:GrannyChordApp.cpp ****     prev_param_vals_k1[mode_idx] = knob1_val;
 235:GrannyChordApp.cpp ****   }
 236:GrannyChordApp.cpp ****   if(CheckParamDelta(knob2_val, prev_param_vals_k2[mode_idx])){
 237:GrannyChordApp.cpp ****     UpdateKnob2Params(knob2_val, curr_synth_mode_);
 238:GrannyChordApp.cpp ****     prev_param_vals_k2[mode_idx] = knob2_val;
 239:GrannyChordApp.cpp ****   }
 240:GrannyChordApp.cpp **** }
 241:GrannyChordApp.cpp **** 
 242:GrannyChordApp.cpp **** void GrannyChordApp::ToggleRandomnessControls(){
 526              		.loc 2 242 48 is_stmt 1 view -0
 527              		.cfi_startproc
 528              		@ args = 0, pretend = 0, frame = 0
 529              		@ frame_needed = 0, uses_anonymous_args = 0
 530              		@ link register save eliminated.
 243:GrannyChordApp.cpp ****   if (curr_synth_mode_ <= SynthMode::PhasorMode_EnvType_Rnd){
 531              		.loc 2 243 3 view .LVU137
 532              		.loc 2 243 7 is_stmt 0 view .LVU138
 533 0000 D0F84034 		ldr	r3, [r0, #1088]
 534              		.loc 2 243 3 view .LVU139
 535 0004 052B     		cmp	r3, #5
 244:GrannyChordApp.cpp ****     /* below works because regular modes are even, random modes are odd
 245:GrannyChordApp.cpp ****       so we can XOR their enum value to get the corresponding mode */
 246:GrannyChordApp.cpp ****     curr_synth_mode_ = static_cast<SynthMode>(static_cast<int>(curr_synth_mode_) ^ 1);
 536              		.loc 2 246 5 is_stmt 1 view .LVU140
 537              		.loc 2 246 82 is_stmt 0 view .LVU141
 538 0006 DCBF     		itt	le
 539 0008 83F00103 		eorle	r3, r3, #1
 540              		.loc 2 246 22 view .LVU142
 541 000c C0F84034 		strle	r3, [r0, #1088]
 247:GrannyChordApp.cpp ****   }
 248:GrannyChordApp.cpp **** }
 542              		.loc 2 248 1 view .LVU143
 543 0010 7047     		bx	lr
 544              		.cfi_endproc
 545              	.LFE4917:
 547              		.section	.text._ZN14GrannyChordApp13HandleButton2Ev,"ax",%progbits
 548              		.align	1
 549              		.global	_ZN14GrannyChordApp13HandleButton2Ev
 550              		.syntax unified
 551              		.thumb
 552              		.thumb_func
 554              	_ZN14GrannyChordApp13HandleButton2Ev:
 555              	.LVL32:
 556              	.LFB4911:
 177:GrannyChordApp.cpp ****   if (curr_state_==AppState::Synthesis){
 557              		.loc 2 177 37 is_stmt 1 view -0
 558              		.cfi_startproc
ARM GAS  /var/folders/2p/02m_5p7958535cp2tpgps0400000gn/T//ccRuMDjw.s 			page 21


 559              		@ args = 0, pretend = 0, frame = 0
 560              		@ frame_needed = 0, uses_anonymous_args = 0
 561              		@ link register save eliminated.
 178:GrannyChordApp.cpp ****     ToggleRandomnessControls();
 562              		.loc 2 178 3 view .LVU145
 563 0000 D0F83834 		ldr	r3, [r0, #1080]
 564 0004 022B     		cmp	r3, #2
 565 0006 01D1     		bne	.L39
 179:GrannyChordApp.cpp ****   }
 566              		.loc 2 179 5 view .LVU146
 179:GrannyChordApp.cpp ****   }
 567              		.loc 2 179 29 is_stmt 0 view .LVU147
 568 0008 FFF7FEBF 		b	_ZN14GrannyChordApp24ToggleRandomnessControlsEv
 569              	.LVL33:
 570              	.L39:
 181:GrannyChordApp.cpp **** 
 571              		.loc 2 181 1 view .LVU148
 572 000c 7047     		bx	lr
 573              		.cfi_endproc
 574              	.LFE4911:
 576              		.section	.text._ZN14GrannyChordApp8ToggleFXEb,"ax",%progbits
 577              		.align	1
 578              		.global	_ZN14GrannyChordApp8ToggleFXEb
 579              		.syntax unified
 580              		.thumb
 581              		.thumb_func
 583              	_ZN14GrannyChordApp8ToggleFXEb:
 584              	.LVL34:
 585              	.LFB4918:
 249:GrannyChordApp.cpp **** 
 250:GrannyChordApp.cpp **** void GrannyChordApp::ToggleFX(bool which_fx){
 586              		.loc 2 250 45 is_stmt 1 view -0
 587              		.cfi_startproc
 588              		@ args = 0, pretend = 0, frame = 0
 589              		@ frame_needed = 0, uses_anonymous_args = 0
 590              		@ link register save eliminated.
 251:GrannyChordApp.cpp ****   if (curr_synth_mode_ >= SynthMode::Reverb){
 591              		.loc 2 251 3 view .LVU150
 592              		.loc 2 251 7 is_stmt 0 view .LVU151
 593 0000 D0F84034 		ldr	r3, [r0, #1088]
 594              		.loc 2 251 3 view .LVU152
 595 0004 062B     		cmp	r3, #6
 596 0006 04DD     		ble	.L42
 252:GrannyChordApp.cpp ****     curr_synth_mode_ = prev_synth_mode_;
 597              		.loc 2 252 5 is_stmt 1 view .LVU153
 598              		.loc 2 252 22 is_stmt 0 view .LVU154
 599 0008 D0F84434 		ldr	r3, [r0, #1092]
 600              	.L46:
 253:GrannyChordApp.cpp ****     return;
 254:GrannyChordApp.cpp ****   }
 255:GrannyChordApp.cpp ****   prev_synth_mode_ =  curr_synth_mode_;
 256:GrannyChordApp.cpp ****   /* if true, switch to reverb, else false - cheap but it works */
 257:GrannyChordApp.cpp ****   curr_synth_mode_ = which_fx ? SynthMode::Reverb : SynthMode::Filter;
 601              		.loc 2 257 20 view .LVU155
 602 000c C0F84034 		str	r3, [r0, #1088]
 258:GrannyChordApp.cpp **** }
 603              		.loc 2 258 1 view .LVU156
ARM GAS  /var/folders/2p/02m_5p7958535cp2tpgps0400000gn/T//ccRuMDjw.s 			page 22


 604 0010 7047     		bx	lr
 605              	.L42:
 255:GrannyChordApp.cpp ****   /* if true, switch to reverb, else false - cheap but it works */
 606              		.loc 2 255 3 is_stmt 1 view .LVU157
 257:GrannyChordApp.cpp **** }
 607              		.loc 2 257 31 is_stmt 0 view .LVU158
 608 0012 0029     		cmp	r1, #0
 255:GrannyChordApp.cpp ****   /* if true, switch to reverb, else false - cheap but it works */
 609              		.loc 2 255 20 view .LVU159
 610 0014 C0F84434 		str	r3, [r0, #1092]
 257:GrannyChordApp.cpp **** }
 611              		.loc 2 257 3 is_stmt 1 view .LVU160
 257:GrannyChordApp.cpp **** }
 612              		.loc 2 257 31 is_stmt 0 view .LVU161
 613 0018 14BF     		ite	ne
 614 001a 0723     		movne	r3, #7
 615 001c 0823     		moveq	r3, #8
 616 001e F5E7     		b	.L46
 617              		.cfi_endproc
 618              	.LFE4918:
 620              		.section	.text._ZN14GrannyChordApp22HandleButton1LongPressEv,"ax",%progbits
 621              		.align	1
 622              		.global	_ZN14GrannyChordApp22HandleButton1LongPressEv
 623              		.syntax unified
 624              		.thumb
 625              		.thumb_func
 627              	_ZN14GrannyChordApp22HandleButton1LongPressEv:
 628              	.LVL35:
 629              	.LFB4912:
 183:GrannyChordApp.cpp ****   if (curr_state_==AppState::Synthesis){
 630              		.loc 2 183 46 is_stmt 1 view -0
 631              		.cfi_startproc
 632              		@ args = 0, pretend = 0, frame = 0
 633              		@ frame_needed = 0, uses_anonymous_args = 0
 634              		@ link register save eliminated.
 184:GrannyChordApp.cpp ****     ToggleFX(true);
 635              		.loc 2 184 3 view .LVU163
 636 0000 D0F83834 		ldr	r3, [r0, #1080]
 637 0004 022B     		cmp	r3, #2
 638 0006 02D1     		bne	.L47
 185:GrannyChordApp.cpp ****   }
 639              		.loc 2 185 5 view .LVU164
 185:GrannyChordApp.cpp ****   }
 640              		.loc 2 185 13 is_stmt 0 view .LVU165
 641 0008 0121     		movs	r1, #1
 642 000a FFF7FEBF 		b	_ZN14GrannyChordApp8ToggleFXEb
 643              	.LVL36:
 644              	.L47:
 187:GrannyChordApp.cpp **** 
 645              		.loc 2 187 1 view .LVU166
 646 000e 7047     		bx	lr
 647              		.cfi_endproc
 648              	.LFE4912:
 650              		.section	.text._ZN14GrannyChordApp22HandleButton2LongPressEv,"ax",%progbits
 651              		.align	1
 652              		.global	_ZN14GrannyChordApp22HandleButton2LongPressEv
 653              		.syntax unified
ARM GAS  /var/folders/2p/02m_5p7958535cp2tpgps0400000gn/T//ccRuMDjw.s 			page 23


 654              		.thumb
 655              		.thumb_func
 657              	_ZN14GrannyChordApp22HandleButton2LongPressEv:
 658              	.LVL37:
 659              	.LFB4913:
 189:GrannyChordApp.cpp ****   if (curr_state_==AppState::Synthesis){
 660              		.loc 2 189 46 is_stmt 1 view -0
 661              		.cfi_startproc
 662              		@ args = 0, pretend = 0, frame = 0
 663              		@ frame_needed = 0, uses_anonymous_args = 0
 664              		@ link register save eliminated.
 190:GrannyChordApp.cpp ****     ToggleFX(false);
 665              		.loc 2 190 3 view .LVU168
 666 0000 D0F83834 		ldr	r3, [r0, #1080]
 667 0004 022B     		cmp	r3, #2
 668 0006 02D1     		bne	.L49
 191:GrannyChordApp.cpp ****   }
 669              		.loc 2 191 5 view .LVU169
 191:GrannyChordApp.cpp ****   }
 670              		.loc 2 191 13 is_stmt 0 view .LVU170
 671 0008 0021     		movs	r1, #0
 672 000a FFF7FEBF 		b	_ZN14GrannyChordApp8ToggleFXEb
 673              	.LVL38:
 674              	.L49:
 193:GrannyChordApp.cpp **** 
 675              		.loc 2 193 1 view .LVU171
 676 000e 7047     		bx	lr
 677              		.cfi_endproc
 678              	.LFE4913:
 680              		.section	.rodata._ZN14GrannyChordApp11InitFileMgrEv.str1.1,"aMS",%progbits,1
 681              	.LC3:
 682 0000 7363616E 		.ascii	"scanning wavs now\000"
 682      6E696E67 
 682      20776176 
 682      73206E6F 
 682      7700
 683              		.section	.text._ZN14GrannyChordApp11InitFileMgrEv,"ax",%progbits
 684              		.align	1
 685              		.global	_ZN14GrannyChordApp11InitFileMgrEv
 686              		.syntax unified
 687              		.thumb
 688              		.thumb_func
 690              	_ZN14GrannyChordApp11InitFileMgrEv:
 691              	.LVL39:
 692              	.LFB4919:
 259:GrannyChordApp.cpp **** 
 260:GrannyChordApp.cpp **** /// @brief Initialises file manager, sets audio data buffers and scans SD card for WAV files
 261:GrannyChordApp.cpp **** /// @return True on successful initialisation, false if init fails or no WAV files found
 262:GrannyChordApp.cpp **** bool GrannyChordApp::InitFileMgr(){
 693              		.loc 2 262 35 is_stmt 1 view -0
 694              		.cfi_startproc
 695              		@ args = 0, pretend = 0, frame = 0
 696              		@ frame_needed = 0, uses_anonymous_args = 0
 263:GrannyChordApp.cpp ****   filemgr_.SetBuffers(left_buf_,right_buf_, temp_buf_);
 697              		.loc 2 263 3 view .LVU173
 698              		.loc 2 263 22 is_stmt 0 view .LVU174
 699 0000 00F59C61 		add	r1, r0, #1248
ARM GAS  /var/folders/2p/02m_5p7958535cp2tpgps0400000gn/T//ccRuMDjw.s 			page 24


 262:GrannyChordApp.cpp ****   filemgr_.SetBuffers(left_buf_,right_buf_, temp_buf_);
 700              		.loc 2 262 35 view .LVU175
 701 0004 10B5     		push	{r4, lr}
 702              		.cfi_def_cfa_offset 8
 703              		.cfi_offset 4, -8
 704              		.cfi_offset 14, -4
 262:GrannyChordApp.cpp ****   filemgr_.SetBuffers(left_buf_,right_buf_, temp_buf_);
 705              		.loc 2 262 35 view .LVU176
 706 0006 0446     		mov	r4, r0
 707              		.loc 2 263 22 view .LVU177
 708 0008 D0F83004 		ldr	r0, [r0, #1072]
 709              	.LVL40:
 710              		.loc 2 263 22 view .LVU178
 711 000c 0EC9     		ldm	r1, {r1, r2, r3}
 712 000e FFF7FEFF 		bl	_ZN16AudioFileManager10SetBuffersEPsS0_S0_
 713              	.LVL41:
 264:GrannyChordApp.cpp ****   if (!filemgr_.Init())return false;
 714              		.loc 2 264 3 is_stmt 1 view .LVU179
 715              		.loc 2 264 21 is_stmt 0 view .LVU180
 716 0012 D4F83004 		ldr	r0, [r4, #1072]
 717 0016 FFF7FEFF 		bl	_ZN16AudioFileManager4InitEv
 718              	.LVL42:
 719              		.loc 2 264 3 view .LVU181
 720 001a 40B1     		cbz	r0, .L52
 721              	.LVL43:
 722              	.LBB370:
 723              	.LBI370:
 262:GrannyChordApp.cpp ****   filemgr_.SetBuffers(left_buf_,right_buf_, temp_buf_);
 724              		.loc 2 262 6 is_stmt 1 view .LVU182
 725              	.LBB371:
 265:GrannyChordApp.cpp ****   pod_.seed.PrintLine("scanning wavs now");
 726              		.loc 2 265 3 view .LVU183
 727              	.LBB372:
 728              	.LBI372:
 126:../libDaisy/src/daisy_seed.h ****     {
 729              		.loc 4 126 17 view .LVU184
 730              	.LBB373:
 731              		.loc 4 128 23 is_stmt 0 view .LVU185
 732 001c 0448     		ldr	r0, .L53
 733 001e FFF7FEFF 		bl	_ZN5daisy6LoggerILNS_17LoggerDestinationE1EE9PrintLineEPKcz
 734              	.LVL44:
 735              		.loc 4 128 23 view .LVU186
 736              	.LBE373:
 737              	.LBE372:
 266:GrannyChordApp.cpp ****   return filemgr_.ScanWavFiles();
 738              		.loc 2 266 3 is_stmt 1 view .LVU187
 739              		.loc 2 266 31 is_stmt 0 view .LVU188
 740 0022 D4F83004 		ldr	r0, [r4, #1072]
 741              	.LBE371:
 742              	.LBE370:
 267:GrannyChordApp.cpp **** }
 743              		.loc 2 267 1 view .LVU189
 744 0026 BDE81040 		pop	{r4, lr}
 745              		.cfi_remember_state
 746              		.cfi_restore 14
 747              		.cfi_restore 4
 748              		.cfi_def_cfa_offset 0
ARM GAS  /var/folders/2p/02m_5p7958535cp2tpgps0400000gn/T//ccRuMDjw.s 			page 25


 749              	.LVL45:
 750              	.LBB375:
 751              	.LBB374:
 266:GrannyChordApp.cpp ****   return filemgr_.ScanWavFiles();
 752              		.loc 2 266 31 view .LVU190
 753 002a FFF7FEBF 		b	_ZN16AudioFileManager12ScanWavFilesEv
 754              	.LVL46:
 755              	.L52:
 756              		.cfi_restore_state
 266:GrannyChordApp.cpp ****   return filemgr_.ScanWavFiles();
 757              		.loc 2 266 31 view .LVU191
 758              	.LBE374:
 759              	.LBE375:
 760              		.loc 2 267 1 view .LVU192
 761 002e 10BD     		pop	{r4, pc}
 762              	.LVL47:
 763              	.L54:
 764              		.loc 2 267 1 view .LVU193
 765              		.align	2
 766              	.L53:
 767 0030 00000000 		.word	.LC3
 768              		.cfi_endproc
 769              	.LFE4919:
 771              		.section	.rodata._ZN14GrannyChordApp9InitSynthEv.str1.1,"aMS",%progbits,1
 772              	.LC4:
 773 0000 73796E74 		.ascii	"synth init ok - samples %u\000"
 773      6820696E 
 773      6974206F 
 773      6B202D20 
 773      73616D70 
 774              		.section	.text._ZN14GrannyChordApp9InitSynthEv,"ax",%progbits
 775              		.align	1
 776              		.global	_ZN14GrannyChordApp9InitSynthEv
 777              		.syntax unified
 778              		.thumb
 779              		.thumb_func
 781              	_ZN14GrannyChordApp9InitSynthEv:
 782              	.LVL48:
 783              	.LFB4920:
 268:GrannyChordApp.cpp **** 
 269:GrannyChordApp.cpp **** /// @brief Calls synth initialisation function, passes audio data buffers and audio length
 270:GrannyChordApp.cpp **** void GrannyChordApp::InitSynth(){
 784              		.loc 2 270 33 is_stmt 1 view -0
 785              		.cfi_startproc
 786              		@ args = 0, pretend = 0, frame = 0
 787              		@ frame_needed = 0, uses_anonymous_args = 0
 271:GrannyChordApp.cpp ****   synth_.Init(left_buf_, right_buf_, filemgr_.GetSamplesPerChannel());
 788              		.loc 2 271 3 view .LVU195
 789              		.loc 2 271 38 is_stmt 0 view .LVU196
 790 0000 D0F83024 		ldr	r2, [r0, #1072]
 791              	.LVL49:
 792              	.LBB376:
 793              	.LBI376:
  27:AudioFileManager.h ****     size_t GetTotalSamples() const { return header_.total_samples; }
 794              		.loc 5 27 12 is_stmt 1 view .LVU197
 795              	.LBB377:
  27:AudioFileManager.h ****     size_t GetTotalSamples() const { return header_.total_samples; }
ARM GAS  /var/folders/2p/02m_5p7958535cp2tpgps0400000gn/T//ccRuMDjw.s 			page 26


 796              		.loc 5 27 43 view .LVU198
  27:AudioFileManager.h ****     size_t GetTotalSamples() const { return header_.total_samples; }
 797              		.loc 5 27 43 is_stmt 0 view .LVU199
 798              	.LBE377:
 799              	.LBE376:
 800              		.loc 2 271 14 view .LVU200
 801 0004 D0F8E014 		ldr	r1, [r0, #1248]
 802              	.LBB379:
 803              	.LBB378:
  27:AudioFileManager.h ****     size_t GetTotalSamples() const { return header_.total_samples; }
 804              		.loc 5 27 58 view .LVU201
 805 0008 02F58052 		add	r2, r2, #4096
  27:AudioFileManager.h ****     size_t GetTotalSamples() const { return header_.total_samples; }
 806              		.loc 5 27 82 view .LVU202
 807 000c B2F92830 		ldrsh	r3, [r2, #40]
 808 0010 D26A     		ldr	r2, [r2, #44]
 809              	.LBE378:
 810              	.LBE379:
 270:GrannyChordApp.cpp ****   synth_.Init(left_buf_, right_buf_, filemgr_.GetSamplesPerChannel());
 811              		.loc 2 270 33 view .LVU203
 812 0012 10B5     		push	{r4, lr}
 813              		.cfi_def_cfa_offset 8
 814              		.cfi_offset 4, -8
 815              		.cfi_offset 14, -4
 270:GrannyChordApp.cpp ****   synth_.Init(left_buf_, right_buf_, filemgr_.GetSamplesPerChannel());
 816              		.loc 2 270 33 view .LVU204
 817 0014 0446     		mov	r4, r0
 818              		.loc 2 271 14 view .LVU205
 819 0016 2030     		adds	r0, r0, #32
 820              	.LVL50:
 821              		.loc 2 271 14 view .LVU206
 822 0018 B2FBF3F3 		udiv	r3, r2, r3
 823 001c D0F8C424 		ldr	r2, [r0, #1220]
 824 0020 FFF7FEFF 		bl	_ZN13GranularSynth4InitEPsS0_j
 825              	.LVL51:
 272:GrannyChordApp.cpp ****   // synth_.Reset(filemgr_.GetSamplesPerChannel());
 273:GrannyChordApp.cpp ****   DebugPrint(pod_,"synth init ok - samples %u",filemgr_.GetSamplesPerChannel());
 826              		.loc 2 273 3 is_stmt 1 view .LVU207
 827              		.loc 2 273 3 view .LVU208
 828 0024 D4F83034 		ldr	r3, [r4, #1072]
 829              	.LVL52:
 830              	.LBB380:
 831              	.LBI380:
  27:AudioFileManager.h ****     size_t GetTotalSamples() const { return header_.total_samples; }
 832              		.loc 5 27 12 view .LVU209
 833              	.LBB381:
  27:AudioFileManager.h ****     size_t GetTotalSamples() const { return header_.total_samples; }
 834              		.loc 5 27 43 view .LVU210
  27:AudioFileManager.h ****     size_t GetTotalSamples() const { return header_.total_samples; }
 835              		.loc 5 27 43 is_stmt 0 view .LVU211
 836              	.LBE381:
 837              	.LBE380:
 838              	.LBB383:
 839              	.LBI383:
 126:../libDaisy/src/daisy_seed.h ****     {
 840              		.loc 4 126 17 is_stmt 1 view .LVU212
 841              	.LBB384:
ARM GAS  /var/folders/2p/02m_5p7958535cp2tpgps0400000gn/T//ccRuMDjw.s 			page 27


 842              		.loc 4 128 23 is_stmt 0 view .LVU213
 843 0028 0548     		ldr	r0, .L56
 844              	.LBE384:
 845              	.LBE383:
 846              	.LBB386:
 847              	.LBB382:
  27:AudioFileManager.h ****     size_t GetTotalSamples() const { return header_.total_samples; }
 848              		.loc 5 27 58 view .LVU214
 849 002a 03F58053 		add	r3, r3, #4096
 850              	.LVL53:
  27:AudioFileManager.h ****     size_t GetTotalSamples() const { return header_.total_samples; }
 851              		.loc 5 27 82 view .LVU215
 852 002e B3F92820 		ldrsh	r2, [r3, #40]
 853 0032 D96A     		ldr	r1, [r3, #44]
 854              	.LBE382:
 855              	.LBE386:
 274:GrannyChordApp.cpp **** 
 275:GrannyChordApp.cpp **** }
 856              		.loc 2 275 1 view .LVU216
 857 0034 BDE81040 		pop	{r4, lr}
 858              		.cfi_restore 14
 859              		.cfi_restore 4
 860              		.cfi_def_cfa_offset 0
 861              	.LVL54:
 862              	.LBB387:
 863              	.LBB385:
 864              		.loc 4 128 23 view .LVU217
 865 0038 B1FBF2F1 		udiv	r1, r1, r2
 866 003c FFF7FEBF 		b	_ZN5daisy6LoggerILNS_17LoggerDestinationE1EE9PrintLineEPKcz
 867              	.LVL55:
 868              	.L57:
 869              		.loc 4 128 23 view .LVU218
 870              		.align	2
 871              	.L56:
 872 0040 00000000 		.word	.LC4
 873              	.LBE385:
 874              	.LBE387:
 875              		.cfi_endproc
 876              	.LFE4920:
 878              		.section	.rodata._ZN14GrannyChordApp12InitPlaybackEv.str1.1,"aMS",%progbits,1
 879              	.LC5:
 880 0000 6C6F6164 		.ascii	"loading file\000"
 880      696E6720 
 880      66696C65 
 880      00
 881              	.LC6:
 882 000d 6661696C 		.ascii	"failed to load file\000"
 882      65642074 
 882      6F206C6F 
 882      61642066 
 882      696C6500 
 883              	.LC7:
 884 0021 6C6F6164 		.ascii	"loaded file\000"
 884      65642066 
 884      696C6500 
 885              	.LC8:
 886 002d 73746172 		.ascii	"started audio callback\000"
ARM GAS  /var/folders/2p/02m_5p7958535cp2tpgps0400000gn/T//ccRuMDjw.s 			page 28


 886      74656420 
 886      61756469 
 886      6F206361 
 886      6C6C6261 
 887              		.section	.text._ZN14GrannyChordApp12InitPlaybackEv,"ax",%progbits
 888              		.align	1
 889              		.global	_ZN14GrannyChordApp12InitPlaybackEv
 890              		.syntax unified
 891              		.thumb
 892              		.thumb_func
 894              	_ZN14GrannyChordApp12InitPlaybackEv:
 895              	.LVL56:
 896              	.LFB4921:
 276:GrannyChordApp.cpp **** 
 277:GrannyChordApp.cpp **** // /// @brief Resets current file index and audio data buffers
 278:GrannyChordApp.cpp **** // ///        Calls method to handle WAV file selection
 279:GrannyChordApp.cpp **** // void GrannyChordApp::ClearAudioBuffers(){
 280:GrannyChordApp.cpp **** //   pod_.seed.PrintLine("clearing audio buffers");
 281:GrannyChordApp.cpp **** //   memset(left_buf_, 0, CHNL_BUF_SIZE_ABS);
 282:GrannyChordApp.cpp **** //   memset(right_buf_, 0, CHNL_BUF_SIZE_ABS);
 283:GrannyChordApp.cpp **** // }
 284:GrannyChordApp.cpp **** 
 285:GrannyChordApp.cpp **** /// @brief Initialises WAV playback state, resets playhead, sets current file audio length
 286:GrannyChordApp.cpp **** void GrannyChordApp::InitPlayback(){
 897              		.loc 2 286 36 is_stmt 1 view -0
 898              		.cfi_startproc
 899              		@ args = 0, pretend = 0, frame = 0
 900              		@ frame_needed = 0, uses_anonymous_args = 0
 287:GrannyChordApp.cpp ****   wav_playhead_ = 0;
 901              		.loc 2 287 3 view .LVU220
 286:GrannyChordApp.cpp ****   wav_playhead_ = 0;
 902              		.loc 2 286 36 is_stmt 0 view .LVU221
 903 0000 38B5     		push	{r3, r4, r5, lr}
 904              		.cfi_def_cfa_offset 16
 905              		.cfi_offset 3, -16
 906              		.cfi_offset 4, -12
 907              		.cfi_offset 5, -8
 908              		.cfi_offset 14, -4
 909              		.loc 2 287 17 view .LVU222
 910 0002 0025     		movs	r5, #0
 286:GrannyChordApp.cpp ****   wav_playhead_ = 0;
 911              		.loc 2 286 36 view .LVU223
 912 0004 0446     		mov	r4, r0
 913              		.loc 2 287 17 view .LVU224
 914 0006 C0F8F054 		str	r5, [r0, #1264]
 288:GrannyChordApp.cpp ****   DebugPrint(pod_, "loading file");
 915              		.loc 2 288 3 is_stmt 1 view .LVU225
 916              		.loc 2 288 3 view .LVU226
 917              	.LVL57:
 918              	.LBB388:
 919              	.LBI388:
 126:../libDaisy/src/daisy_seed.h ****     {
 920              		.loc 4 126 17 view .LVU227
 921              	.LBB389:
 922              		.loc 4 128 23 is_stmt 0 view .LVU228
 923 000a 1248     		ldr	r0, .L62
 924              	.LVL58:
ARM GAS  /var/folders/2p/02m_5p7958535cp2tpgps0400000gn/T//ccRuMDjw.s 			page 29


 925              		.loc 4 128 23 view .LVU229
 926 000c FFF7FEFF 		bl	_ZN5daisy6LoggerILNS_17LoggerDestinationE1EE9PrintLineEPKcz
 927              	.LVL59:
 928              		.loc 4 128 23 view .LVU230
 929              	.LBE389:
 930              	.LBE388:
 289:GrannyChordApp.cpp ****   record_in_pos_  = 0;
 931              		.loc 2 289 3 is_stmt 1 view .LVU231
 932              		.loc 2 289 19 is_stmt 0 view .LVU232
 933 0010 04F50043 		add	r3, r4, #32768
 934 0014 C3F82858 		str	r5, [r3, #2088]
 290:GrannyChordApp.cpp ****   if (!recorded_in_){
 935              		.loc 2 290 3 is_stmt 1 view .LVU233
 936 0018 93F82438 		ldrb	r3, [r3, #2084]	@ zero_extendqisi2
 937 001c 6BB9     		cbnz	r3, .L59
 291:GrannyChordApp.cpp ****     if (!filemgr_.LoadFile(file_idx_)) {
 938              		.loc 2 291 5 view .LVU234
 939              		.loc 2 291 27 is_stmt 0 view .LVU235
 940 001e B4F8EC14 		ldrh	r1, [r4, #1260]
 941 0022 D4F83004 		ldr	r0, [r4, #1072]
 942 0026 FFF7FEFF 		bl	_ZN16AudioFileManager8LoadFileEt
 943              	.LVL60:
 944              		.loc 2 291 5 view .LVU236
 945 002a 30B9     		cbnz	r0, .L59
 292:GrannyChordApp.cpp ****       DebugPrint(pod_,"failed to load file");
 946              		.loc 2 292 7 is_stmt 1 view .LVU237
 947              		.loc 2 292 7 view .LVU238
 948              	.LVL61:
 949              	.LBB390:
 950              	.LBI390:
 126:../libDaisy/src/daisy_seed.h ****     {
 951              		.loc 4 126 17 view .LVU239
 952              	.LBB391:
 953              		.loc 4 128 23 is_stmt 0 view .LVU240
 954 002c 0A48     		ldr	r0, .L62+4
 955 002e FFF7FEFF 		bl	_ZN5daisy6LoggerILNS_17LoggerDestinationE1EE9PrintLineEPKcz
 956              	.LVL62:
 957              		.loc 4 128 23 view .LVU241
 958              	.LBE391:
 959              	.LBE390:
 293:GrannyChordApp.cpp ****       curr_state_=AppState::Error;
 960              		.loc 2 293 7 is_stmt 1 view .LVU242
 961              		.loc 2 293 18 is_stmt 0 view .LVU243
 962 0032 0423     		movs	r3, #4
 963 0034 C4F83834 		str	r3, [r4, #1080]
 294:GrannyChordApp.cpp ****       return;
 964              		.loc 2 294 7 is_stmt 1 view .LVU244
 295:GrannyChordApp.cpp ****     }
 296:GrannyChordApp.cpp ****   }
 297:GrannyChordApp.cpp ****   DebugPrint(pod_, "loaded file");
 298:GrannyChordApp.cpp ****   pod_.StartAudio(AudioCallback);
 299:GrannyChordApp.cpp ****   DebugPrint(pod_, "started audio callback");
 300:GrannyChordApp.cpp **** }
 965              		.loc 2 300 1 is_stmt 0 view .LVU245
 966 0038 38BD     		pop	{r3, r4, r5, pc}
 967              	.LVL63:
 968              	.L59:
ARM GAS  /var/folders/2p/02m_5p7958535cp2tpgps0400000gn/T//ccRuMDjw.s 			page 30


 297:GrannyChordApp.cpp ****   pod_.StartAudio(AudioCallback);
 969              		.loc 2 297 3 is_stmt 1 view .LVU246
 297:GrannyChordApp.cpp ****   pod_.StartAudio(AudioCallback);
 970              		.loc 2 297 3 view .LVU247
 971              	.LBB392:
 972              	.LBI392:
 126:../libDaisy/src/daisy_seed.h ****     {
 973              		.loc 4 126 17 view .LVU248
 974              	.LBB393:
 975              		.loc 4 128 23 is_stmt 0 view .LVU249
 976 003a 0848     		ldr	r0, .L62+8
 977 003c FFF7FEFF 		bl	_ZN5daisy6LoggerILNS_17LoggerDestinationE1EE9PrintLineEPKcz
 978              	.LVL64:
 979              		.loc 4 128 23 view .LVU250
 980              	.LBE393:
 981              	.LBE392:
 298:GrannyChordApp.cpp ****   DebugPrint(pod_, "started audio callback");
 982              		.loc 2 298 3 is_stmt 1 view .LVU251
 298:GrannyChordApp.cpp ****   DebugPrint(pod_, "started audio callback");
 983              		.loc 2 298 18 is_stmt 0 view .LVU252
 984 0040 E069     		ldr	r0, [r4, #28]
 985 0042 0749     		ldr	r1, .L62+12
 986 0044 FFF7FEFF 		bl	_ZN5daisy8DaisyPod10StartAudioEPFvPKPKfPPfjE
 987              	.LVL65:
 299:GrannyChordApp.cpp **** }
 988              		.loc 2 299 3 is_stmt 1 view .LVU253
 299:GrannyChordApp.cpp **** }
 989              		.loc 2 299 3 view .LVU254
 990              	.LBB394:
 991              	.LBI394:
 126:../libDaisy/src/daisy_seed.h ****     {
 992              		.loc 4 126 17 view .LVU255
 993              	.LBB395:
 994              		.loc 4 128 23 is_stmt 0 view .LVU256
 995 0048 0648     		ldr	r0, .L62+16
 996              	.LBE395:
 997              	.LBE394:
 998              		.loc 2 300 1 view .LVU257
 999 004a BDE83840 		pop	{r3, r4, r5, lr}
 1000              		.cfi_restore 14
 1001              		.cfi_restore 5
 1002              		.cfi_restore 4
 1003              		.cfi_restore 3
 1004              		.cfi_def_cfa_offset 0
 1005              	.LVL66:
 1006              	.LBB397:
 1007              	.LBB396:
 1008              		.loc 4 128 23 view .LVU258
 1009 004e FFF7FEBF 		b	_ZN5daisy6LoggerILNS_17LoggerDestinationE1EE9PrintLineEPKcz
 1010              	.LVL67:
 1011              	.L63:
 1012 0052 00BF     		.align	2
 1013              	.L62:
 1014 0054 00000000 		.word	.LC5
 1015 0058 0D000000 		.word	.LC6
 1016 005c 21000000 		.word	.LC7
 1017 0060 00000000 		.word	_ZN14GrannyChordApp13AudioCallbackEPKPKfPPfj
ARM GAS  /var/folders/2p/02m_5p7958535cp2tpgps0400000gn/T//ccRuMDjw.s 			page 31


 1018 0064 2D000000 		.word	.LC8
 1019              	.LBE396:
 1020              	.LBE397:
 1021              		.cfi_endproc
 1022              	.LFE4921:
 1024              		.section	.text._ZN14GrannyChordApp12InitRecordInEv,"ax",%progbits
 1025              		.align	1
 1026              		.global	_ZN14GrannyChordApp12InitRecordInEv
 1027              		.syntax unified
 1028              		.thumb
 1029              		.thumb_func
 1031              	_ZN14GrannyChordApp12InitRecordInEv:
 1032              	.LVL68:
 1033              	.LFB4922:
 301:GrannyChordApp.cpp **** 
 302:GrannyChordApp.cpp **** /// @brief Initialises RecordIn state, clears audio buffers
 303:GrannyChordApp.cpp **** void GrannyChordApp::InitRecordIn(){
 1034              		.loc 2 303 36 is_stmt 1 view -0
 1035              		.cfi_startproc
 1036              		@ args = 0, pretend = 0, frame = 0
 1037              		@ frame_needed = 0, uses_anonymous_args = 0
 304:GrannyChordApp.cpp ****   memset(left_buf_, 0, CHNL_BUF_SIZE_ABS);
 1038              		.loc 2 304 3 view .LVU260
 303:GrannyChordApp.cpp ****   memset(left_buf_, 0, CHNL_BUF_SIZE_ABS);
 1039              		.loc 2 303 36 is_stmt 0 view .LVU261
 1040 0000 10B5     		push	{r4, lr}
 1041              		.cfi_def_cfa_offset 8
 1042              		.cfi_offset 4, -8
 1043              		.cfi_offset 14, -4
 303:GrannyChordApp.cpp ****   memset(left_buf_, 0, CHNL_BUF_SIZE_ABS);
 1044              		.loc 2 303 36 view .LVU262
 1045 0002 0446     		mov	r4, r0
 1046              		.loc 2 304 9 view .LVU263
 1047 0004 4FF08072 		mov	r2, #16777216
 1048 0008 0021     		movs	r1, #0
 1049 000a D0F8E004 		ldr	r0, [r0, #1248]
 1050              	.LVL69:
 1051              		.loc 2 304 9 view .LVU264
 1052 000e FFF7FEFF 		bl	memset
 1053              	.LVL70:
 305:GrannyChordApp.cpp ****   memset(right_buf_, 0, CHNL_BUF_SIZE_ABS);
 1054              		.loc 2 305 3 is_stmt 1 view .LVU265
 1055              		.loc 2 305 9 is_stmt 0 view .LVU266
 1056 0012 D4F8E404 		ldr	r0, [r4, #1252]
 1057 0016 4FF08072 		mov	r2, #16777216
 1058 001a 0021     		movs	r1, #0
 1059 001c FFF7FEFF 		bl	memset
 1060              	.LVL71:
 306:GrannyChordApp.cpp ****   record_in_pos_ = 0;
 1061              		.loc 2 306 3 is_stmt 1 view .LVU267
 1062              		.loc 2 306 18 is_stmt 0 view .LVU268
 1063 0020 04F50044 		add	r4, r4, #32768
 1064              	.LVL72:
 1065              		.loc 2 306 18 view .LVU269
 1066 0024 0023     		movs	r3, #0
 1067 0026 C4F82838 		str	r3, [r4, #2088]
 307:GrannyChordApp.cpp **** }
ARM GAS  /var/folders/2p/02m_5p7958535cp2tpgps0400000gn/T//ccRuMDjw.s 			page 32


 1068              		.loc 2 307 1 view .LVU270
 1069 002a 10BD     		pop	{r4, pc}
 1070              		.loc 2 307 1 view .LVU271
 1071              		.cfi_endproc
 1072              	.LFE4922:
 1074              		.section	.rodata._ZN14GrannyChordApp17HandleStateChangeEv.str1.1,"aMS",%progbits,1
 1075              	.LC9:
 1076 0000 73796E74 		.ascii	"synth init finished\000"
 1076      6820696E 
 1076      69742066 
 1076      696E6973 
 1076      68656400 
 1077              	.LC10:
 1078 0014 73746172 		.ascii	"started audiocb\000"
 1078      74656420 
 1078      61756469 
 1078      6F636200 
 1079              		.section	.text._ZN14GrannyChordApp17HandleStateChangeEv,"ax",%progbits
 1080              		.align	1
 1081              		.global	_ZN14GrannyChordApp17HandleStateChangeEv
 1082              		.syntax unified
 1083              		.thumb
 1084              		.thumb_func
 1086              	_ZN14GrannyChordApp17HandleStateChangeEv:
 1087              	.LVL73:
 1088              	.LFB4907:
 102:GrannyChordApp.cpp ****   switch(next_state_){
 1089              		.loc 2 102 41 is_stmt 1 view -0
 1090              		.cfi_startproc
 1091              		@ args = 0, pretend = 0, frame = 0
 1092              		@ frame_needed = 0, uses_anonymous_args = 0
 103:GrannyChordApp.cpp ****     case AppState::SelectFile:
 1093              		.loc 2 103 3 view .LVU273
 1094 0000 D0F83C34 		ldr	r3, [r0, #1084]
 102:GrannyChordApp.cpp ****   switch(next_state_){
 1095              		.loc 2 102 41 is_stmt 0 view .LVU274
 1096 0004 10B5     		push	{r4, lr}
 1097              		.cfi_def_cfa_offset 8
 1098              		.cfi_offset 4, -8
 1099              		.cfi_offset 14, -4
 102:GrannyChordApp.cpp ****   switch(next_state_){
 1100              		.loc 2 102 41 view .LVU275
 1101 0006 0446     		mov	r4, r0
 103:GrannyChordApp.cpp ****     case AppState::SelectFile:
 1102              		.loc 2 103 3 view .LVU276
 1103 0008 042B     		cmp	r3, #4
 1104 000a 0AD8     		bhi	.L65
 1105 000c DFE803F0 		tbb	[pc, r3]
 1106              	.L68:
 1107 0010 03       		.byte	(.L72-.L68)/2
 1108 0011 0E       		.byte	(.L71-.L68)/2
 1109 0012 12       		.byte	(.L70-.L68)/2
 1110 0013 0A       		.byte	(.L69-.L68)/2
 1111 0014 1F       		.byte	(.L67-.L68)/2
 1112 0015 00       		.p2align 1
 1113              	.L72:
 104:GrannyChordApp.cpp ****       pod_.StopAudio();
ARM GAS  /var/folders/2p/02m_5p7958535cp2tpgps0400000gn/T//ccRuMDjw.s 			page 33


 1114              		.loc 2 104 5 is_stmt 1 view .LVU277
 105:GrannyChordApp.cpp ****       curr_state_ = AppState::SelectFile;
 1115              		.loc 2 105 7 view .LVU278
 105:GrannyChordApp.cpp ****       curr_state_ = AppState::SelectFile;
 1116              		.loc 2 105 21 is_stmt 0 view .LVU279
 1117 0016 C069     		ldr	r0, [r0, #28]
 1118              	.LVL74:
 105:GrannyChordApp.cpp ****       curr_state_ = AppState::SelectFile;
 1119              		.loc 2 105 21 view .LVU280
 1120 0018 FFF7FEFF 		bl	_ZN5daisy8DaisyPod9StopAudioEv
 1121              	.LVL75:
 106:GrannyChordApp.cpp ****       return; 
 1122              		.loc 2 106 7 is_stmt 1 view .LVU281
 106:GrannyChordApp.cpp ****       return; 
 1123              		.loc 2 106 19 is_stmt 0 view .LVU282
 1124 001c 0023     		movs	r3, #0
 1125              	.L73:
 125:GrannyChordApp.cpp ****       return;
 1126              		.loc 2 125 19 view .LVU283
 1127 001e C4F83834 		str	r3, [r4, #1080]
 126:GrannyChordApp.cpp ****     default: 
 1128              		.loc 2 126 7 is_stmt 1 view .LVU284
 1129              	.L65:
 130:GrannyChordApp.cpp **** 
 1130              		.loc 2 130 1 is_stmt 0 view .LVU285
 1131 0022 10BD     		pop	{r4, pc}
 1132              	.LVL76:
 1133              	.L69:
 108:GrannyChordApp.cpp ****       InitRecordIn();
 1134              		.loc 2 108 5 is_stmt 1 view .LVU286
 109:GrannyChordApp.cpp ****       curr_state_ = AppState::RecordIn;  
 1135              		.loc 2 109 7 view .LVU287
 109:GrannyChordApp.cpp ****       curr_state_ = AppState::RecordIn;  
 1136              		.loc 2 109 19 is_stmt 0 view .LVU288
 1137 0024 FFF7FEFF 		bl	_ZN14GrannyChordApp12InitRecordInEv
 1138              	.LVL77:
 110:GrannyChordApp.cpp ****       return;
 1139              		.loc 2 110 7 is_stmt 1 view .LVU289
 110:GrannyChordApp.cpp ****       return;
 1140              		.loc 2 110 19 is_stmt 0 view .LVU290
 1141 0028 0323     		movs	r3, #3
 1142 002a F8E7     		b	.L73
 1143              	.LVL78:
 1144              	.L71:
 112:GrannyChordApp.cpp ****       InitPlayback(); 
 1145              		.loc 2 112 5 is_stmt 1 view .LVU291
 113:GrannyChordApp.cpp ****       curr_state_ = AppState::PlayWAV;
 1146              		.loc 2 113 7 view .LVU292
 113:GrannyChordApp.cpp ****       curr_state_ = AppState::PlayWAV;
 1147              		.loc 2 113 19 is_stmt 0 view .LVU293
 1148 002c FFF7FEFF 		bl	_ZN14GrannyChordApp12InitPlaybackEv
 1149              	.LVL79:
 114:GrannyChordApp.cpp ****       return;
 1150              		.loc 2 114 7 is_stmt 1 view .LVU294
 114:GrannyChordApp.cpp ****       return;
 1151              		.loc 2 114 19 is_stmt 0 view .LVU295
 1152 0030 0123     		movs	r3, #1
ARM GAS  /var/folders/2p/02m_5p7958535cp2tpgps0400000gn/T//ccRuMDjw.s 			page 34


 1153 0032 F4E7     		b	.L73
 1154              	.LVL80:
 1155              	.L70:
 116:GrannyChordApp.cpp ****       InitSynth();
 1156              		.loc 2 116 5 is_stmt 1 view .LVU296
 117:GrannyChordApp.cpp ****       DebugPrint(pod_, "synth init finished");
 1157              		.loc 2 117 7 view .LVU297
 117:GrannyChordApp.cpp ****       DebugPrint(pod_, "synth init finished");
 1158              		.loc 2 117 16 is_stmt 0 view .LVU298
 1159 0034 FFF7FEFF 		bl	_ZN14GrannyChordApp9InitSynthEv
 1160              	.LVL81:
 118:GrannyChordApp.cpp ****       curr_state_ = AppState::Synthesis;
 1161              		.loc 2 118 7 is_stmt 1 view .LVU299
 118:GrannyChordApp.cpp ****       curr_state_ = AppState::Synthesis;
 1162              		.loc 2 118 7 view .LVU300
 1163              	.LBB398:
 1164              	.LBI398:
 126:../libDaisy/src/daisy_seed.h ****     {
 1165              		.loc 4 126 17 view .LVU301
 1166              	.LBB399:
 1167              		.loc 4 128 23 is_stmt 0 view .LVU302
 1168 0038 0C48     		ldr	r0, .L74
 1169 003a FFF7FEFF 		bl	_ZN5daisy6LoggerILNS_17LoggerDestinationE1EE9PrintLineEPKcz
 1170              	.LVL82:
 1171              		.loc 4 128 23 view .LVU303
 1172              	.LBE399:
 1173              	.LBE398:
 119:GrannyChordApp.cpp ****       DebugPrint(pod_, "started audiocb");
 1174              		.loc 2 119 7 is_stmt 1 view .LVU304
 119:GrannyChordApp.cpp ****       DebugPrint(pod_, "started audiocb");
 1175              		.loc 2 119 19 is_stmt 0 view .LVU305
 1176 003e 0223     		movs	r3, #2
 1177              	.LBB400:
 1178              	.LBB401:
 1179              		.loc 4 128 23 view .LVU306
 1180 0040 0B48     		ldr	r0, .L74+4
 1181              	.LBE401:
 1182              	.LBE400:
 119:GrannyChordApp.cpp ****       DebugPrint(pod_, "started audiocb");
 1183              		.loc 2 119 19 view .LVU307
 1184 0042 C4F83834 		str	r3, [r4, #1080]
 120:GrannyChordApp.cpp ****       return;
 1185              		.loc 2 120 7 is_stmt 1 view .LVU308
 120:GrannyChordApp.cpp ****       return;
 1186              		.loc 2 120 7 view .LVU309
 1187              	.LVL83:
 1188              	.LBB403:
 1189              	.LBI400:
 126:../libDaisy/src/daisy_seed.h ****     {
 1190              		.loc 4 126 17 view .LVU310
 1191              	.LBE403:
 130:GrannyChordApp.cpp **** 
 1192              		.loc 2 130 1 is_stmt 0 view .LVU311
 1193 0046 BDE81040 		pop	{r4, lr}
 1194              		.cfi_remember_state
 1195              		.cfi_restore 14
 1196              		.cfi_restore 4
ARM GAS  /var/folders/2p/02m_5p7958535cp2tpgps0400000gn/T//ccRuMDjw.s 			page 35


 1197              		.cfi_def_cfa_offset 0
 1198              	.LVL84:
 1199              	.LBB404:
 1200              	.LBB402:
 1201              		.loc 4 128 23 view .LVU312
 1202 004a FFF7FEBF 		b	_ZN5daisy6LoggerILNS_17LoggerDestinationE1EE9PrintLineEPKcz
 1203              	.LVL85:
 1204              	.L67:
 1205              		.cfi_restore_state
 1206              		.loc 4 128 23 view .LVU313
 1207              	.LBE402:
 1208              	.LBE404:
 122:GrannyChordApp.cpp ****       pod_.led1.SetRed(1); 
 1209              		.loc 2 122 5 is_stmt 1 view .LVU314
 123:GrannyChordApp.cpp ****       pod_.led2.SetRed(1); 
 1210              		.loc 2 123 7 view .LVU315
 123:GrannyChordApp.cpp ****       pod_.led2.SetRed(1); 
 1211              		.loc 2 123 23 is_stmt 0 view .LVU316
 1212 004e C069     		ldr	r0, [r0, #28]
 1213              	.LVL86:
 123:GrannyChordApp.cpp ****       pod_.led2.SetRed(1); 
 1214              		.loc 2 123 23 view .LVU317
 1215 0050 B7EE000A 		vmov.f32	s0, #1.0e+0
 1216 0054 D830     		adds	r0, r0, #216
 1217 0056 FFF7FEFF 		bl	_ZN5daisy6RgbLed6SetRedEf
 1218              	.LVL87:
 124:GrannyChordApp.cpp ****       curr_state_ = AppState::Error;
 1219              		.loc 2 124 7 is_stmt 1 view .LVU318
 124:GrannyChordApp.cpp ****       curr_state_ = AppState::Error;
 1220              		.loc 2 124 23 is_stmt 0 view .LVU319
 1221 005a E069     		ldr	r0, [r4, #28]
 1222 005c B7EE000A 		vmov.f32	s0, #1.0e+0
 1223 0060 00F59670 		add	r0, r0, #300
 1224 0064 FFF7FEFF 		bl	_ZN5daisy6RgbLed6SetRedEf
 1225              	.LVL88:
 125:GrannyChordApp.cpp ****       return;
 1226              		.loc 2 125 7 is_stmt 1 view .LVU320
 125:GrannyChordApp.cpp ****       return;
 1227              		.loc 2 125 19 is_stmt 0 view .LVU321
 1228 0068 0423     		movs	r3, #4
 1229 006a D8E7     		b	.L73
 1230              	.L75:
 1231              		.align	2
 1232              	.L74:
 1233 006c 00000000 		.word	.LC9
 1234 0070 14000000 		.word	.LC10
 1235              		.cfi_endproc
 1236              	.LFE4907:
 1238              		.section	.text._ZN14GrannyChordApp13InitWavWriterEv,"ax",%progbits
 1239              		.align	1
 1240              		.global	_ZN14GrannyChordApp13InitWavWriterEv
 1241              		.syntax unified
 1242              		.thumb
 1243              		.thumb_func
 1245              	_ZN14GrannyChordApp13InitWavWriterEv:
 1246              	.LVL89:
 1247              	.LFB4923:
ARM GAS  /var/folders/2p/02m_5p7958535cp2tpgps0400000gn/T//ccRuMDjw.s 			page 36


 308:GrannyChordApp.cpp **** 
 309:GrannyChordApp.cpp **** // /// @brief Initialise object for recording out to SD card
 310:GrannyChordApp.cpp **** void GrannyChordApp::InitWavWriter(){
 1248              		.loc 2 310 37 is_stmt 1 view -0
 1249              		.cfi_startproc
 1250              		@ args = 0, pretend = 0, frame = 0
 1251              		@ frame_needed = 0, uses_anonymous_args = 0
 1252              		@ link register save eliminated.
 311:GrannyChordApp.cpp ****   WavWriter<16384>::Config cfg;
 1253              		.loc 2 311 3 view .LVU323
 312:GrannyChordApp.cpp ****   cfg.bitspersample = BIT_DEPTH;
 1254              		.loc 2 312 3 view .LVU324
 313:GrannyChordApp.cpp ****   cfg.channels = filemgr_.GetNumChannels();
 1255              		.loc 2 313 3 view .LVU325
 1256              	.LBB413:
 1257              	.LBI413:
  29:AudioFileManager.h ****     uint16_t GetFileCount() const { return file_count_; }
 1258              		.loc 5 29 13 view .LVU326
 1259              	.LBB414:
  29:AudioFileManager.h ****     uint16_t GetFileCount() const { return file_count_; }
 1260              		.loc 5 29 38 view .LVU327
  29:AudioFileManager.h ****     uint16_t GetFileCount() const { return file_count_; }
 1261              		.loc 5 29 53 is_stmt 0 view .LVU328
 1262 0000 D0F83034 		ldr	r3, [r0, #1072]
 1263              	.LBE414:
 1264              	.LBE413:
 1265              	.LBB416:
 1266              	.LBB417:
 1267              		.file 6 "../libDaisy/src/util/WavWriter.h"
   1:../libDaisy/src/util/WavWriter.h **** #pragma once
   2:../libDaisy/src/util/WavWriter.h **** #pragma once
   3:../libDaisy/src/util/WavWriter.h **** #include "fatfs.h"
   4:../libDaisy/src/util/WavWriter.h **** 
   5:../libDaisy/src/util/WavWriter.h **** namespace daisy
   6:../libDaisy/src/util/WavWriter.h **** {
   7:../libDaisy/src/util/WavWriter.h **** /** Audio Recording Module
   8:../libDaisy/src/util/WavWriter.h ****  ** 
   9:../libDaisy/src/util/WavWriter.h ****  ** Record audio into a working buffer that is gradually written to a WAV file on an SD Card. 
  10:../libDaisy/src/util/WavWriter.h ****  **
  11:../libDaisy/src/util/WavWriter.h ****  ** Recordings are made with floating point input, and will be converted to the 
  12:../libDaisy/src/util/WavWriter.h ****  ** specified bits per sample internally 
  13:../libDaisy/src/util/WavWriter.h ****  **
  14:../libDaisy/src/util/WavWriter.h ****  ** For now only 16-bit and 32-bit (signed int) formats are supported
  15:../libDaisy/src/util/WavWriter.h ****  ** f32 and s24 formats will be added next
  16:../libDaisy/src/util/WavWriter.h ****  **
  17:../libDaisy/src/util/WavWriter.h ****  ** The transfer size determines the amount of internal memory used, and can have an
  18:../libDaisy/src/util/WavWriter.h ****  ** effect on the performance of the streaming behavior of the WavWriter.
  19:../libDaisy/src/util/WavWriter.h ****  ** Memory use can be calculated as: (2 * transfer_size) bytes
  20:../libDaisy/src/util/WavWriter.h ****  ** Performance optimal with sizes: 16384, 32768
  21:../libDaisy/src/util/WavWriter.h ****  ** 
  22:../libDaisy/src/util/WavWriter.h ****  ** To use:
  23:../libDaisy/src/util/WavWriter.h ****  ** 1. Create a WavWriter<size> object (e.g. WavWriter<32768> writer)
  24:../libDaisy/src/util/WavWriter.h ****  ** 2. Configure the settings as desired by creating a WavWriter<32768>::Config struct and setting 
  25:../libDaisy/src/util/WavWriter.h ****  ** 3. Initialize the object with the configuration struct.
  26:../libDaisy/src/util/WavWriter.h ****  ** 4. Open a new file for writing with: writer.OpenFile("FileName.wav")
  27:../libDaisy/src/util/WavWriter.h ****  ** 5. Write to it within your audio callback using: writer.Sample(value)
  28:../libDaisy/src/util/WavWriter.h ****  ** 6. Fill the Wav File on the SD Card with data from your main loop by running: writer.Write()
ARM GAS  /var/folders/2p/02m_5p7958535cp2tpgps0400000gn/T//ccRuMDjw.s 			page 37


  29:../libDaisy/src/util/WavWriter.h ****  ** 7. When finished with the recording finalize, and close the file with: writer.SaveFile();
  30:../libDaisy/src/util/WavWriter.h ****  ** 
  31:../libDaisy/src/util/WavWriter.h ****  ** */
  32:../libDaisy/src/util/WavWriter.h **** template <size_t transfer_size>
  33:../libDaisy/src/util/WavWriter.h **** class WavWriter
  34:../libDaisy/src/util/WavWriter.h **** {
  35:../libDaisy/src/util/WavWriter.h ****   public:
  36:../libDaisy/src/util/WavWriter.h ****     WavWriter() {}
  37:../libDaisy/src/util/WavWriter.h ****     ~WavWriter() {}
  38:../libDaisy/src/util/WavWriter.h **** 
  39:../libDaisy/src/util/WavWriter.h ****     /** Return values for write related functions */
  40:../libDaisy/src/util/WavWriter.h ****     enum class Result
  41:../libDaisy/src/util/WavWriter.h ****     {
  42:../libDaisy/src/util/WavWriter.h ****         OK,
  43:../libDaisy/src/util/WavWriter.h ****         ERROR,
  44:../libDaisy/src/util/WavWriter.h ****     };
  45:../libDaisy/src/util/WavWriter.h **** 
  46:../libDaisy/src/util/WavWriter.h ****     /** Configuration structure for the wave writer.
  47:../libDaisy/src/util/WavWriter.h **** 	 ** */
  48:../libDaisy/src/util/WavWriter.h ****     struct Config
  49:../libDaisy/src/util/WavWriter.h ****     {
  50:../libDaisy/src/util/WavWriter.h ****         float   samplerate;
  51:../libDaisy/src/util/WavWriter.h ****         int32_t channels;
  52:../libDaisy/src/util/WavWriter.h ****         int32_t bitspersample;
  53:../libDaisy/src/util/WavWriter.h ****     };
  54:../libDaisy/src/util/WavWriter.h **** 
  55:../libDaisy/src/util/WavWriter.h ****     /** State of the internal Writing mechanism. 
  56:../libDaisy/src/util/WavWriter.h **** 	 ** When the buffer is a certain amount full one section will write its contents
  57:../libDaisy/src/util/WavWriter.h **** 	 ** while the other is still being written to. This is performed circularly
  58:../libDaisy/src/util/WavWriter.h **** 	 ** so that audio will be uninterrupted during writing. */
  59:../libDaisy/src/util/WavWriter.h ****     enum class BufferState
  60:../libDaisy/src/util/WavWriter.h ****     {
  61:../libDaisy/src/util/WavWriter.h ****         IDLE,
  62:../libDaisy/src/util/WavWriter.h ****         FLUSH0,
  63:../libDaisy/src/util/WavWriter.h ****         FLUSH1,
  64:../libDaisy/src/util/WavWriter.h ****     };
  65:../libDaisy/src/util/WavWriter.h **** 
  66:../libDaisy/src/util/WavWriter.h ****     /**  Initializes the WavFile header, and prepares the object for recording. */
  67:../libDaisy/src/util/WavWriter.h ****     void Init(const Config &cfg)
  68:../libDaisy/src/util/WavWriter.h ****     {
  69:../libDaisy/src/util/WavWriter.h ****         cfg_       = cfg;
 1268              		.loc 6 69 9 view .LVU329
 1269 0004 00F5B662 		add	r2, r0, #1456
 1270 0008 9FED287A 		vldr.32	s14, .L78
  70:../libDaisy/src/util/WavWriter.h ****         num_samps_ = 0;
 1271              		.loc 6 70 20 view .LVU330
 1272 000c 0021     		movs	r1, #0
 1273              	.LBE417:
 1274              	.LBE416:
 1275              	.LBB446:
 1276              	.LBB415:
  29:AudioFileManager.h ****     uint16_t GetFileCount() const { return file_count_; }
 1277              		.loc 5 29 53 view .LVU331
 1278 000e 03F58053 		add	r3, r3, #4096
 1279 0012 B3F92830 		ldrsh	r3, [r3, #40]
 1280              	.LVL90:
  29:AudioFileManager.h ****     uint16_t GetFileCount() const { return file_count_; }
ARM GAS  /var/folders/2p/02m_5p7958535cp2tpgps0400000gn/T//ccRuMDjw.s 			page 38


 1281              		.loc 5 29 53 view .LVU332
 1282              	.LBE415:
 1283              	.LBE446:
 314:GrannyChordApp.cpp ****   cfg.samplerate = SAMPLE_RATE;
 1284              		.loc 2 314 3 is_stmt 1 view .LVU333
 315:GrannyChordApp.cpp ****   sd_writer_.Init(cfg);
 1285              		.loc 2 315 3 view .LVU334
 1286              	.LBB447:
 1287              	.LBI416:
  67:../libDaisy/src/util/WavWriter.h ****     {
 1288              		.loc 6 67 10 view .LVU335
 1289              	.LBB444:
  69:../libDaisy/src/util/WavWriter.h ****         num_samps_ = 0;
 1290              		.loc 6 69 9 is_stmt 0 view .LVU336
 1291 0016 82ED0D7A 		vstr.32	s14, [r2, #52]
 1292 001a 1022     		movs	r2, #16
 1293              	.LVL91:
 1294              	.LBB418:
 1295              	.LBB419:
  71:../libDaisy/src/util/WavWriter.h ****         // Prep the wav header according to config.
  72:../libDaisy/src/util/WavWriter.h ****         // Certain things (i.e. Size, etc. will have to wait until the finalization of the file, or
  73:../libDaisy/src/util/WavWriter.h ****         wavheader_.ChunkId       = kWavFileChunkId;     /** "RIFF" */
  74:../libDaisy/src/util/WavWriter.h ****         wavheader_.FileFormat    = kWavFileWaveId;      /** "WAVE" */
  75:../libDaisy/src/util/WavWriter.h ****         wavheader_.SubChunk1ID   = kWavFileSubChunk1Id; /** "fmt " */
  76:../libDaisy/src/util/WavWriter.h ****         wavheader_.SubChunk1Size = 16;                  // for PCM
  77:../libDaisy/src/util/WavWriter.h ****         wavheader_.AudioFormat   = WAVE_FORMAT_PCM;
  78:../libDaisy/src/util/WavWriter.h ****         wavheader_.NbrChannels   = cfg.channels;
  79:../libDaisy/src/util/WavWriter.h ****         wavheader_.SampleRate    = static_cast<int>(cfg.samplerate);
  80:../libDaisy/src/util/WavWriter.h ****         wavheader_.ByteRate      = CalcByteRate();
  81:../libDaisy/src/util/WavWriter.h ****         wavheader_.BlockAlign    = cfg_.channels * cfg_.bitspersample / 8;
  82:../libDaisy/src/util/WavWriter.h ****         wavheader_.BitPerSample  = cfg_.bitspersample;
  83:../libDaisy/src/util/WavWriter.h ****         wavheader_.SubChunk2ID   = kWavFileSubChunk2Id; /** "data" */
  84:../libDaisy/src/util/WavWriter.h ****         /** Also calcs SubChunk2Size */
  85:../libDaisy/src/util/WavWriter.h ****         wavheader_.FileSize = CalcFileSize();
  86:../libDaisy/src/util/WavWriter.h ****         // This is calculated as part of the subchunk size
  87:../libDaisy/src/util/WavWriter.h ****     }
  88:../libDaisy/src/util/WavWriter.h **** 
  89:../libDaisy/src/util/WavWriter.h ****     /** Records the current sample into the working buffer,
  90:../libDaisy/src/util/WavWriter.h ****      ** queues writes to media when necessary. 
  91:../libDaisy/src/util/WavWriter.h ****      ** 
  92:../libDaisy/src/util/WavWriter.h ****      ** \param in should be a pointer to an array of samples */
  93:../libDaisy/src/util/WavWriter.h ****     void Sample(const float *in)
  94:../libDaisy/src/util/WavWriter.h ****     {
  95:../libDaisy/src/util/WavWriter.h ****         for(int32_t i = 0; i < cfg_.channels; i++)
  96:../libDaisy/src/util/WavWriter.h ****         {
  97:../libDaisy/src/util/WavWriter.h ****             switch(cfg_.bitspersample)
  98:../libDaisy/src/util/WavWriter.h ****             {
  99:../libDaisy/src/util/WavWriter.h ****                 case 16:
 100:../libDaisy/src/util/WavWriter.h ****                 {
 101:../libDaisy/src/util/WavWriter.h ****                     int16_t *tp;
 102:../libDaisy/src/util/WavWriter.h ****                     tp            = (int16_t *)transfer_buff;
 103:../libDaisy/src/util/WavWriter.h ****                     tp[wptr_ + i] = f2s16(in[i]);
 104:../libDaisy/src/util/WavWriter.h ****                 }
 105:../libDaisy/src/util/WavWriter.h ****                 break;
 106:../libDaisy/src/util/WavWriter.h ****                 case 32: transfer_buff[wptr_ + i] = f2s32(in[i]); break;
 107:../libDaisy/src/util/WavWriter.h ****                 default: break;
 108:../libDaisy/src/util/WavWriter.h ****             }
ARM GAS  /var/folders/2p/02m_5p7958535cp2tpgps0400000gn/T//ccRuMDjw.s 			page 39


 109:../libDaisy/src/util/WavWriter.h ****         }
 110:../libDaisy/src/util/WavWriter.h ****         num_samps_++;
 111:../libDaisy/src/util/WavWriter.h ****         wptr_ += cfg_.channels;
 112:../libDaisy/src/util/WavWriter.h ****         size_t cap_point
 113:../libDaisy/src/util/WavWriter.h ****             = cfg_.bitspersample == 16 ? kTransferSamps * 2 : kTransferSamps;
 114:../libDaisy/src/util/WavWriter.h ****         if(wptr_ == cap_point)
 115:../libDaisy/src/util/WavWriter.h ****         {
 116:../libDaisy/src/util/WavWriter.h ****             bstate_ = BufferState::FLUSH0;
 117:../libDaisy/src/util/WavWriter.h ****         }
 118:../libDaisy/src/util/WavWriter.h ****         if(wptr_ >= cap_point * 2)
 119:../libDaisy/src/util/WavWriter.h ****         {
 120:../libDaisy/src/util/WavWriter.h ****             wptr_   = 0;
 121:../libDaisy/src/util/WavWriter.h ****             bstate_ = BufferState::FLUSH1;
 122:../libDaisy/src/util/WavWriter.h ****         }
 123:../libDaisy/src/util/WavWriter.h ****     }
 124:../libDaisy/src/util/WavWriter.h **** 
 125:../libDaisy/src/util/WavWriter.h ****     /** Check buffer state and write */
 126:../libDaisy/src/util/WavWriter.h ****     void Write()
 127:../libDaisy/src/util/WavWriter.h ****     {
 128:../libDaisy/src/util/WavWriter.h ****         if(bstate_ != BufferState::IDLE && IsRecording())
 129:../libDaisy/src/util/WavWriter.h ****         {
 130:../libDaisy/src/util/WavWriter.h ****             uint32_t     offset;
 131:../libDaisy/src/util/WavWriter.h ****             unsigned int bw = 0;
 132:../libDaisy/src/util/WavWriter.h ****             //offset          = bstate_ == BufferState::FLUSH0 ? 0 : transfer_size;
 133:../libDaisy/src/util/WavWriter.h ****             offset  = bstate_ == BufferState::FLUSH0 ? 0 : kTransferSamps;
 134:../libDaisy/src/util/WavWriter.h ****             bstate_ = BufferState::IDLE;
 135:../libDaisy/src/util/WavWriter.h ****             f_write(&fp_, &transfer_buff[offset], transfer_size, &bw);
 136:../libDaisy/src/util/WavWriter.h ****         }
 137:../libDaisy/src/util/WavWriter.h ****     }
 138:../libDaisy/src/util/WavWriter.h **** 
 139:../libDaisy/src/util/WavWriter.h ****     /** Finalizes the writing of the WAV file.
 140:../libDaisy/src/util/WavWriter.h **** 	 ** This overwrites the WAV Header with the correct
 141:../libDaisy/src/util/WavWriter.h **** 	 ** final size, and closes the fptr. */
 142:../libDaisy/src/util/WavWriter.h ****     void SaveFile()
 143:../libDaisy/src/util/WavWriter.h ****     {
 144:../libDaisy/src/util/WavWriter.h ****         unsigned int bw = 0;
 145:../libDaisy/src/util/WavWriter.h ****         recording_      = false;
 146:../libDaisy/src/util/WavWriter.h ****         // We _should_ flush whatever's left in the transfer buff
 147:../libDaisy/src/util/WavWriter.h ****         // TODO: that.
 148:../libDaisy/src/util/WavWriter.h ****         wavheader_.FileSize = CalcFileSize();
 149:../libDaisy/src/util/WavWriter.h ****         f_lseek(&fp_, 0);
 150:../libDaisy/src/util/WavWriter.h ****         f_write(&fp_, &wavheader_, sizeof(wavheader_), &bw);
 151:../libDaisy/src/util/WavWriter.h ****         f_close(&fp_);
 152:../libDaisy/src/util/WavWriter.h ****     }
 153:../libDaisy/src/util/WavWriter.h **** 
 154:../libDaisy/src/util/WavWriter.h ****     /** Opens a file for writing. Writes the initial WAV Header, and gets ready for stream-based re
 155:../libDaisy/src/util/WavWriter.h ****     void OpenFile(const char *name)
 156:../libDaisy/src/util/WavWriter.h ****     {
 157:../libDaisy/src/util/WavWriter.h ****         if(f_open(&fp_, name, FA_WRITE | FA_CREATE_ALWAYS) == FR_OK)
 158:../libDaisy/src/util/WavWriter.h ****         {
 159:../libDaisy/src/util/WavWriter.h ****             unsigned int bw = 0;
 160:../libDaisy/src/util/WavWriter.h ****             if(f_write(&fp_, &wavheader_, sizeof(wavheader_), &bw) == FR_OK)
 161:../libDaisy/src/util/WavWriter.h ****             {
 162:../libDaisy/src/util/WavWriter.h ****                 recording_ = true;
 163:../libDaisy/src/util/WavWriter.h ****                 num_samps_ = 0;
 164:../libDaisy/src/util/WavWriter.h ****             }
 165:../libDaisy/src/util/WavWriter.h ****         }
ARM GAS  /var/folders/2p/02m_5p7958535cp2tpgps0400000gn/T//ccRuMDjw.s 			page 40


 166:../libDaisy/src/util/WavWriter.h ****     }
 167:../libDaisy/src/util/WavWriter.h **** 
 168:../libDaisy/src/util/WavWriter.h ****     /** Returns whether recording is currently active or not. */
 169:../libDaisy/src/util/WavWriter.h ****     inline bool IsRecording() const { return recording_; }
 170:../libDaisy/src/util/WavWriter.h **** 
 171:../libDaisy/src/util/WavWriter.h ****     /** Returns the current length in samples of the recording. */
 172:../libDaisy/src/util/WavWriter.h ****     inline uint32_t GetLengthSamps() { return num_samps_; }
 173:../libDaisy/src/util/WavWriter.h **** 
 174:../libDaisy/src/util/WavWriter.h ****     /** Returns the current length of the recording in seconds. */
 175:../libDaisy/src/util/WavWriter.h ****     inline float GetLengthSeconds()
 176:../libDaisy/src/util/WavWriter.h ****     {
 177:../libDaisy/src/util/WavWriter.h ****         return (float)num_samps_ / (float)cfg_.samplerate;
 178:../libDaisy/src/util/WavWriter.h ****     }
 179:../libDaisy/src/util/WavWriter.h **** 
 180:../libDaisy/src/util/WavWriter.h ****   private:
 181:../libDaisy/src/util/WavWriter.h ****     /** Calculate the file size based on current recording */
 182:../libDaisy/src/util/WavWriter.h ****     inline uint32_t CalcFileSize()
 183:../libDaisy/src/util/WavWriter.h ****     {
 184:../libDaisy/src/util/WavWriter.h ****         wavheader_.SubCHunk2Size
 185:../libDaisy/src/util/WavWriter.h ****             = num_samps_ * cfg_.channels * cfg_.bitspersample / 8;
 186:../libDaisy/src/util/WavWriter.h ****         return 36 + wavheader_.SubCHunk2Size;
 187:../libDaisy/src/util/WavWriter.h ****     }
 188:../libDaisy/src/util/WavWriter.h **** 
 189:../libDaisy/src/util/WavWriter.h ****     /** Compute the byte rate given the user settings. */
 190:../libDaisy/src/util/WavWriter.h ****     inline uint32_t CalcByteRate()
 191:../libDaisy/src/util/WavWriter.h ****     {
 192:../libDaisy/src/util/WavWriter.h ****         return cfg_.samplerate * cfg_.channels * cfg_.bitspersample / 8;
 1296              		.loc 6 192 32 view .LVU337
 1297 001c 07EE903A 		vmov	s15, r3	@ int
 1298              	.LBE419:
 1299              	.LBE418:
  70:../libDaisy/src/util/WavWriter.h ****         // Prep the wav header according to config.
 1300              		.loc 6 70 20 view .LVU338
 1301 0020 C0F8DC15 		str	r1, [r0, #1500]
  73:../libDaisy/src/util/WavWriter.h ****         wavheader_.FileFormat    = kWavFileWaveId;      /** "WAVE" */
 1302              		.loc 6 73 34 view .LVU339
 1303 0024 2249     		ldr	r1, .L78+4
 1304              	.LBB429:
 1305              	.LBB420:
 1306              		.loc 6 192 32 view .LVU340
 1307 0026 F8EEE77A 		vcvt.f32.s32	s15, s15
 1308              	.LBE420:
 1309              	.LBE429:
 1310              	.LBE444:
 1311              	.LBE447:
 313:GrannyChordApp.cpp ****   cfg.samplerate = SAMPLE_RATE;
 1312              		.loc 2 313 41 view .LVU341
 1313 002a C0F8E835 		str	r3, [r0, #1512]
 1314              	.LBB448:
 1315              	.LBB445:
  73:../libDaisy/src/util/WavWriter.h ****         wavheader_.FileFormat    = kWavFileWaveId;      /** "WAVE" */
 1316              		.loc 6 73 34 view .LVU342
 1317 002e C0F8B015 		str	r1, [r0, #1456]
  74:../libDaisy/src/util/WavWriter.h ****         wavheader_.SubChunk1ID   = kWavFileSubChunk1Id; /** "fmt " */
 1318              		.loc 6 74 34 view .LVU343
 1319 0032 A1F57001 		sub	r1, r1, #15728640
  78:../libDaisy/src/util/WavWriter.h ****         wavheader_.SampleRate    = static_cast<int>(cfg.samplerate);
ARM GAS  /var/folders/2p/02m_5p7958535cp2tpgps0400000gn/T//ccRuMDjw.s 			page 41


 1320              		.loc 6 78 34 view .LVU344
 1321 0036 A0F8C635 		strh	r3, [r0, #1478]	@ movhi
  81:../libDaisy/src/util/WavWriter.h ****         wavheader_.BitPerSample  = cfg_.bitspersample;
 1322              		.loc 6 81 71 view .LVU345
 1323 003a 1B01     		lsls	r3, r3, #4
 1324              	.LVL92:
 1325              	.LBB430:
 1326              	.LBB421:
 1327              		.loc 6 192 32 view .LVU346
 1328 003c 67EE877A 		vmul.f32	s15, s15, s14
 1329              	.LBE421:
 1330              	.LBE430:
  74:../libDaisy/src/util/WavWriter.h ****         wavheader_.SubChunk1ID   = kWavFileSubChunk1Id; /** "fmt " */
 1331              		.loc 6 74 34 view .LVU347
 1332 0040 A1F2FB71 		subw	r1, r1, #2043
 1333              	.LBB431:
 1334              	.LBB422:
 1335              		.loc 6 192 48 view .LVU348
 1336 0044 B3EE007A 		vmov.f32	s14, #1.6e+1
 1337              	.LBE422:
 1338              	.LBE431:
  81:../libDaisy/src/util/WavWriter.h ****         wavheader_.BitPerSample  = cfg_.bitspersample;
 1339              		.loc 6 81 71 view .LVU349
 1340 0048 48BF     		it	mi
 1341 004a 0733     		addmi	r3, r3, #7
  74:../libDaisy/src/util/WavWriter.h ****         wavheader_.SubChunk1ID   = kWavFileSubChunk1Id; /** "fmt " */
 1342              		.loc 6 74 34 view .LVU350
 1343 004c C0F8B815 		str	r1, [r0, #1464]
  75:../libDaisy/src/util/WavWriter.h ****         wavheader_.SubChunk1Size = 16;                  // for PCM
 1344              		.loc 6 75 34 view .LVU351
 1345 0050 01F15B41 		add	r1, r1, #-620756992
  81:../libDaisy/src/util/WavWriter.h ****         wavheader_.BitPerSample  = cfg_.bitspersample;
 1346              		.loc 6 81 71 view .LVU352
 1347 0054 DB10     		asrs	r3, r3, #3
  69:../libDaisy/src/util/WavWriter.h ****         num_samps_ = 0;
 1348              		.loc 6 69 9 view .LVU353
 1349 0056 C0F8EC25 		str	r2, [r0, #1516]
 1350              	.LBB432:
 1351              	.LBB423:
 1352              		.loc 6 192 48 view .LVU354
 1353 005a 67EE877A 		vmul.f32	s15, s15, s14
 1354              	.LBE423:
 1355              	.LBE432:
  75:../libDaisy/src/util/WavWriter.h ****         wavheader_.SubChunk1Size = 16;                  // for PCM
 1356              		.loc 6 75 34 view .LVU355
 1357 005e 01F5F111 		add	r1, r1, #1974272
 1358              	.LBB433:
 1359              	.LBB424:
 1360              		.loc 6 192 69 view .LVU356
 1361 0062 B4EE007A 		vmov.f32	s14, #1.25e-1
 1362              	.LBE424:
 1363              	.LBE433:
  81:../libDaisy/src/util/WavWriter.h ****         wavheader_.BitPerSample  = cfg_.bitspersample;
 1364              		.loc 6 81 34 view .LVU357
 1365 0066 A0F8D035 		strh	r3, [r0, #1488]	@ movhi
  75:../libDaisy/src/util/WavWriter.h ****         wavheader_.SubChunk1Size = 16;                  // for PCM
 1366              		.loc 6 75 34 view .LVU358
ARM GAS  /var/folders/2p/02m_5p7958535cp2tpgps0400000gn/T//ccRuMDjw.s 			page 42


 1367 006a 01F60F41 		addw	r1, r1, #3087
  83:../libDaisy/src/util/WavWriter.h ****         /** Also calcs SubChunk2Size */
 1368              		.loc 6 83 34 view .LVU359
 1369 006e 114B     		ldr	r3, .L78+8
  76:../libDaisy/src/util/WavWriter.h ****         wavheader_.AudioFormat   = WAVE_FORMAT_PCM;
 1370              		.loc 6 76 34 view .LVU360
 1371 0070 C0F8C025 		str	r2, [r0, #1472]
 1372              	.LBB434:
 1373              	.LBB425:
 1374              		.loc 6 192 69 view .LVU361
 1375 0074 67EE877A 		vmul.f32	s15, s15, s14
 1376              	.LBE425:
 1377              	.LBE434:
  75:../libDaisy/src/util/WavWriter.h ****         wavheader_.SubChunk1Size = 16;                  // for PCM
 1378              		.loc 6 75 34 view .LVU362
 1379 0078 C0F8BC15 		str	r1, [r0, #1468]
  77:../libDaisy/src/util/WavWriter.h ****         wavheader_.NbrChannels   = cfg.channels;
 1380              		.loc 6 77 34 view .LVU363
 1381 007c 0121     		movs	r1, #1
  83:../libDaisy/src/util/WavWriter.h ****         /** Also calcs SubChunk2Size */
 1382              		.loc 6 83 34 view .LVU364
 1383 007e C0F8D435 		str	r3, [r0, #1492]
 1384              	.LBB435:
 1385              	.LBB436:
 185:../libDaisy/src/util/WavWriter.h ****         return 36 + wavheader_.SubCHunk2Size;
 1386              		.loc 6 185 13 view .LVU365
 1387 0082 0023     		movs	r3, #0
 1388              	.LBE436:
 1389              	.LBE435:
  82:../libDaisy/src/util/WavWriter.h ****         wavheader_.SubChunk2ID   = kWavFileSubChunk2Id; /** "data" */
 1390              		.loc 6 82 34 view .LVU366
 1391 0084 A0F8D225 		strh	r2, [r0, #1490]	@ movhi
 1392              	.LBB438:
 1393              	.LBB426:
 1394              		.loc 6 192 71 view .LVU367
 1395 0088 FCEEE77A 		vcvt.u32.f32	s15, s15
 1396              	.LBE426:
 1397              	.LBE438:
  77:../libDaisy/src/util/WavWriter.h ****         wavheader_.NbrChannels   = cfg.channels;
 1398              		.loc 6 77 34 view .LVU368
 1399 008c A0F8C415 		strh	r1, [r0, #1476]	@ movhi
  79:../libDaisy/src/util/WavWriter.h ****         wavheader_.ByteRate      = CalcByteRate();
 1400              		.loc 6 79 34 view .LVU369
 1401 0090 4BF68031 		movw	r1, #48000
 1402              	.LBB439:
 1403              	.LBB437:
 185:../libDaisy/src/util/WavWriter.h ****         return 36 + wavheader_.SubCHunk2Size;
 1404              		.loc 6 185 13 view .LVU370
 1405 0094 C0F8D835 		str	r3, [r0, #1496]
 1406              	.LBE437:
 1407              	.LBE439:
  85:../libDaisy/src/util/WavWriter.h ****         // This is calculated as part of the subchunk size
 1408              		.loc 6 85 29 view .LVU371
 1409 0098 2423     		movs	r3, #36
  79:../libDaisy/src/util/WavWriter.h ****         wavheader_.ByteRate      = CalcByteRate();
 1410              		.loc 6 79 34 view .LVU372
 1411 009a C0F8C815 		str	r1, [r0, #1480]
ARM GAS  /var/folders/2p/02m_5p7958535cp2tpgps0400000gn/T//ccRuMDjw.s 			page 43


 1412              	.LVL93:
 1413              	.LBB440:
 1414              	.LBI418:
 190:../libDaisy/src/util/WavWriter.h ****     {
 1415              		.loc 6 190 21 is_stmt 1 view .LVU373
 190:../libDaisy/src/util/WavWriter.h ****     {
 1416              		.loc 6 190 21 is_stmt 0 view .LVU374
 1417              	.LBE440:
 1418              	.LBB441:
 1419              	.LBI435:
 182:../libDaisy/src/util/WavWriter.h ****     {
 1420              		.loc 6 182 21 is_stmt 1 view .LVU375
 182:../libDaisy/src/util/WavWriter.h ****     {
 1421              		.loc 6 182 21 is_stmt 0 view .LVU376
 1422              	.LBE441:
 1423              	.LBB442:
 1424              	.LBB427:
 1425              		.loc 6 192 71 view .LVU377
 1426 009e 17EE901A 		vmov	r1, s15	@ int
 1427              	.LBE427:
 1428              	.LBE442:
  85:../libDaisy/src/util/WavWriter.h ****         // This is calculated as part of the subchunk size
 1429              		.loc 6 85 29 view .LVU378
 1430 00a2 C0F8B435 		str	r3, [r0, #1460]
 1431              	.LVL94:
 1432              	.LBB443:
 1433              	.LBB428:
 1434              		.loc 6 192 71 view .LVU379
 1435 00a6 C0F8CC15 		str	r1, [r0, #1484]
 1436              	.LBE428:
 1437              	.LBE443:
 1438              	.LBE445:
 1439              	.LBE448:
 316:GrannyChordApp.cpp **** }
 1440              		.loc 2 316 1 view .LVU380
 1441 00aa 7047     		bx	lr
 1442              	.L79:
 1443              		.align	2
 1444              	.L78:
 1445 00ac 00803B47 		.word	1195081728
 1446 00b0 52494646 		.word	1179011410
 1447 00b4 64617461 		.word	1635017060
 1448              		.cfi_endproc
 1449              	.LFE4923:
 1451              		.section	.text._ZN14GrannyChordApp6InitFXEv,"ax",%progbits
 1452              		.align	1
 1453              		.global	_ZN14GrannyChordApp6InitFXEv
 1454              		.syntax unified
 1455              		.thumb
 1456              		.thumb_func
 1458              	_ZN14GrannyChordApp6InitFXEv:
 1459              	.LVL95:
 1460              	.LFB4924:
 317:GrannyChordApp.cpp **** 
 318:GrannyChordApp.cpp **** /// @brief initialise reverb, compressor, filter configs for FX section 
 319:GrannyChordApp.cpp **** void GrannyChordApp::InitFX(){
 1461              		.loc 2 319 30 is_stmt 1 view -0
ARM GAS  /var/folders/2p/02m_5p7958535cp2tpgps0400000gn/T//ccRuMDjw.s 			page 44


 1462              		.cfi_startproc
 1463              		@ args = 0, pretend = 0, frame = 8
 1464              		@ frame_needed = 0, uses_anonymous_args = 0
 320:GrannyChordApp.cpp ****   comp_.Init(pod_.AudioSampleRate());
 1465              		.loc 2 320 3 view .LVU382
 319:GrannyChordApp.cpp ****   comp_.Init(pod_.AudioSampleRate());
 1466              		.loc 2 319 30 is_stmt 0 view .LVU383
 1467 0000 37B5     		push	{r0, r1, r2, r4, r5, lr}
 1468              		.cfi_def_cfa_offset 24
 1469              		.cfi_offset 4, -12
 1470              		.cfi_offset 5, -8
 1471              		.cfi_offset 14, -4
 319:GrannyChordApp.cpp ****   comp_.Init(pod_.AudioSampleRate());
 1472              		.loc 2 319 30 view .LVU384
 1473 0002 0446     		mov	r4, r0
 1474              		.loc 2 320 13 view .LVU385
 1475 0004 C069     		ldr	r0, [r0, #28]
 1476              	.LVL96:
 1477              		.loc 2 320 13 view .LVU386
 1478 0006 FFF7FEFF 		bl	_ZN5daisy8DaisyPod15AudioSampleRateEv
 1479              	.LVL97:
 1480 000a 04F58960 		add	r0, r4, #1096
 321:GrannyChordApp.cpp ****   reverb_.Init(SAMPLE_RATE_FLOAT);
 322:GrannyChordApp.cpp ****   lowpass_moog_.Init(SAMPLE_RATE_FLOAT);
 1481              		.loc 2 322 21 view .LVU387
 1482 000e 04F28C45 		addw	r5, r4, #1164
 320:GrannyChordApp.cpp ****   reverb_.Init(SAMPLE_RATE_FLOAT);
 1483              		.loc 2 320 13 view .LVU388
 1484 0012 FFF7FEFF 		bl	_ZN7daisysp10Compressor4InitEf
 1485              	.LVL98:
 321:GrannyChordApp.cpp ****   reverb_.Init(SAMPLE_RATE_FLOAT);
 1486              		.loc 2 321 3 is_stmt 1 view .LVU389
 321:GrannyChordApp.cpp ****   reverb_.Init(SAMPLE_RATE_FLOAT);
 1487              		.loc 2 321 15 is_stmt 0 view .LVU390
 1488 0016 9FED0F0A 		vldr.32	s0, .L81
 1489 001a D4F88804 		ldr	r0, [r4, #1160]
 1490 001e 8DED010A 		vstr.32	s0, [sp, #4]	@ int
 1491 0022 FFF7FEFF 		bl	_ZN7daisysp8ReverbSc4InitEf
 1492              	.LVL99:
 1493              		.loc 2 322 3 is_stmt 1 view .LVU391
 1494              		.loc 2 322 21 is_stmt 0 view .LVU392
 1495 0026 9DED010A 		vldr.32	s0, [sp, #4]	@ int
 1496 002a 2846     		mov	r0, r5
 1497 002c FFF7FEFF 		bl	_ZN7daisysp10MoogLadder4InitEf
 1498              	.LVL100:
 323:GrannyChordApp.cpp ****   lowpass_moog_.SetFreq(20000.0f);
 1499              		.loc 2 323 3 is_stmt 1 view .LVU393
 1500              	.LBB460:
 1501              	.LBI460:
 1502              		.file 7 "../DaisySP/Source/../DaisySP-LGPL/Source/Filters/moogladder.h"
   1:../DaisySP/Source/../DaisySP-LGPL/Source/Filters/moogladder.h **** /*
   2:../DaisySP/Source/../DaisySP-LGPL/Source/Filters/moogladder.h **** Copyright (c) 2023 Electrosmith, Corp, Victor Lazzarini, John ffitch (fast tanh), Bob Moog
   3:../DaisySP/Source/../DaisySP-LGPL/Source/Filters/moogladder.h **** 
   4:../DaisySP/Source/../DaisySP-LGPL/Source/Filters/moogladder.h **** Use of this source code is governed by the LGPL V2.1
   5:../DaisySP/Source/../DaisySP-LGPL/Source/Filters/moogladder.h **** license that can be found in the LICENSE file or at
   6:../DaisySP/Source/../DaisySP-LGPL/Source/Filters/moogladder.h **** https://opensource.org/license/lgpl-2-1/
   7:../DaisySP/Source/../DaisySP-LGPL/Source/Filters/moogladder.h **** */
ARM GAS  /var/folders/2p/02m_5p7958535cp2tpgps0400000gn/T//ccRuMDjw.s 			page 45


   8:../DaisySP/Source/../DaisySP-LGPL/Source/Filters/moogladder.h **** 
   9:../DaisySP/Source/../DaisySP-LGPL/Source/Filters/moogladder.h **** #pragma once
  10:../DaisySP/Source/../DaisySP-LGPL/Source/Filters/moogladder.h **** #ifndef DSY_MOOGLADDER_H
  11:../DaisySP/Source/../DaisySP-LGPL/Source/Filters/moogladder.h **** #define DSY_MOOGLADDER_H
  12:../DaisySP/Source/../DaisySP-LGPL/Source/Filters/moogladder.h **** 
  13:../DaisySP/Source/../DaisySP-LGPL/Source/Filters/moogladder.h **** #include <stdint.h>
  14:../DaisySP/Source/../DaisySP-LGPL/Source/Filters/moogladder.h **** #ifdef __cplusplus
  15:../DaisySP/Source/../DaisySP-LGPL/Source/Filters/moogladder.h **** 
  16:../DaisySP/Source/../DaisySP-LGPL/Source/Filters/moogladder.h **** namespace daisysp
  17:../DaisySP/Source/../DaisySP-LGPL/Source/Filters/moogladder.h **** {
  18:../DaisySP/Source/../DaisySP-LGPL/Source/Filters/moogladder.h **** /** Moog ladder filter module*/
  19:../DaisySP/Source/../DaisySP-LGPL/Source/Filters/moogladder.h **** class MoogLadder
  20:../DaisySP/Source/../DaisySP-LGPL/Source/Filters/moogladder.h **** {
  21:../DaisySP/Source/../DaisySP-LGPL/Source/Filters/moogladder.h ****   public:
  22:../DaisySP/Source/../DaisySP-LGPL/Source/Filters/moogladder.h ****     MoogLadder() {}
  23:../DaisySP/Source/../DaisySP-LGPL/Source/Filters/moogladder.h ****     ~MoogLadder() {}
  24:../DaisySP/Source/../DaisySP-LGPL/Source/Filters/moogladder.h ****     /** Initializes the MoogLadder module.
  25:../DaisySP/Source/../DaisySP-LGPL/Source/Filters/moogladder.h ****         sample_rate - The sample rate of the audio engine being run. 
  26:../DaisySP/Source/../DaisySP-LGPL/Source/Filters/moogladder.h ****     */
  27:../DaisySP/Source/../DaisySP-LGPL/Source/Filters/moogladder.h ****     void Init(float sample_rate);
  28:../DaisySP/Source/../DaisySP-LGPL/Source/Filters/moogladder.h **** 
  29:../DaisySP/Source/../DaisySP-LGPL/Source/Filters/moogladder.h **** 
  30:../DaisySP/Source/../DaisySP-LGPL/Source/Filters/moogladder.h ****     /** Processes the lowpass filter
  31:../DaisySP/Source/../DaisySP-LGPL/Source/Filters/moogladder.h ****     */
  32:../DaisySP/Source/../DaisySP-LGPL/Source/Filters/moogladder.h ****     float Process(float in);
  33:../DaisySP/Source/../DaisySP-LGPL/Source/Filters/moogladder.h **** 
  34:../DaisySP/Source/../DaisySP-LGPL/Source/Filters/moogladder.h ****     /** 
  35:../DaisySP/Source/../DaisySP-LGPL/Source/Filters/moogladder.h ****         Sets the cutoff frequency or half-way point of the filter.
  36:../DaisySP/Source/../DaisySP-LGPL/Source/Filters/moogladder.h ****         Arguments
  37:../DaisySP/Source/../DaisySP-LGPL/Source/Filters/moogladder.h ****         - freq - frequency value in Hz. Range: Any positive value.
  38:../DaisySP/Source/../DaisySP-LGPL/Source/Filters/moogladder.h ****     */
  39:../DaisySP/Source/../DaisySP-LGPL/Source/Filters/moogladder.h ****     inline void SetFreq(float freq) { freq_ = freq; }
 1503              		.loc 7 39 17 view .LVU394
 1504              	.LBB461:
 1505              		.loc 7 39 39 view .LVU395
 1506              		.loc 7 39 45 is_stmt 0 view .LVU396
 1507 0030 094B     		ldr	r3, .L81+4
 1508              	.LBE461:
 1509              	.LBE460:
 1510              	.LBB463:
 1511              	.LBB464:
 1512              	.LBB465:
 1513              		.file 8 "../DaisySP/Source/Filters/onepole.h"
   1:../DaisySP/Source/Filters/onepole.h **** /*
   2:../DaisySP/Source/Filters/onepole.h **** Copyright (c) 2020 Electrosmith, Corp, Emilie Gillet
   3:../DaisySP/Source/Filters/onepole.h **** 
   4:../DaisySP/Source/Filters/onepole.h **** Use of this source code is governed by an MIT-style
   5:../DaisySP/Source/Filters/onepole.h **** license that can be found in the LICENSE file or at
   6:../DaisySP/Source/Filters/onepole.h **** https://opensource.org/licenses/MIT.
   7:../DaisySP/Source/Filters/onepole.h **** */
   8:../DaisySP/Source/Filters/onepole.h **** 
   9:../DaisySP/Source/Filters/onepole.h **** #ifndef DSY_ONEPOLE_H
  10:../DaisySP/Source/Filters/onepole.h **** #define DSY_ONEPOLE_H
  11:../DaisySP/Source/Filters/onepole.h **** 
  12:../DaisySP/Source/Filters/onepole.h **** #include "Utility/dsp.h"
  13:../DaisySP/Source/Filters/onepole.h **** #include <cmath>
  14:../DaisySP/Source/Filters/onepole.h **** #include <algorithm>
ARM GAS  /var/folders/2p/02m_5p7958535cp2tpgps0400000gn/T//ccRuMDjw.s 			page 46


  15:../DaisySP/Source/Filters/onepole.h **** 
  16:../DaisySP/Source/Filters/onepole.h **** namespace daisysp
  17:../DaisySP/Source/Filters/onepole.h **** {
  18:../DaisySP/Source/Filters/onepole.h **** /**         
  19:../DaisySP/Source/Filters/onepole.h ****     @brief One Pole Lowpass / Highpass Filter
  20:../DaisySP/Source/Filters/onepole.h ****     @author beserge
  21:../DaisySP/Source/Filters/onepole.h ****     @date Dec 2023 
  22:../DaisySP/Source/Filters/onepole.h ****     Ported from pichenettes/stmlib/dsp/filter.h \n 
  23:../DaisySP/Source/Filters/onepole.h ****     \n to an independent module. \n
  24:../DaisySP/Source/Filters/onepole.h ****     Original code written by Emilie Gillet. \n
  25:../DaisySP/Source/Filters/onepole.h **** */
  26:../DaisySP/Source/Filters/onepole.h **** class OnePole
  27:../DaisySP/Source/Filters/onepole.h **** {
  28:../DaisySP/Source/Filters/onepole.h ****   public:
  29:../DaisySP/Source/Filters/onepole.h ****     OnePole() {}
  30:../DaisySP/Source/Filters/onepole.h ****     ~OnePole() {}
  31:../DaisySP/Source/Filters/onepole.h **** 
  32:../DaisySP/Source/Filters/onepole.h ****     /**
  33:../DaisySP/Source/Filters/onepole.h ****      * @brief Operational modes of the filter
  34:../DaisySP/Source/Filters/onepole.h ****      * - LOW_PASS = cuts out high frequency sound, lets low frequency sound pass through
  35:../DaisySP/Source/Filters/onepole.h ****      * - HIGH_PASS = cuts out low frequency sound, lets high frequency sound pass through
  36:../DaisySP/Source/Filters/onepole.h ****      */
  37:../DaisySP/Source/Filters/onepole.h ****     enum FilterMode
  38:../DaisySP/Source/Filters/onepole.h ****     {
  39:../DaisySP/Source/Filters/onepole.h ****         FILTER_MODE_LOW_PASS,
  40:../DaisySP/Source/Filters/onepole.h ****         FILTER_MODE_HIGH_PASS
  41:../DaisySP/Source/Filters/onepole.h ****     };
  42:../DaisySP/Source/Filters/onepole.h **** 
  43:../DaisySP/Source/Filters/onepole.h ****     /** Initializes the module */
  44:../DaisySP/Source/Filters/onepole.h ****     void Init()
  45:../DaisySP/Source/Filters/onepole.h ****     {
  46:../DaisySP/Source/Filters/onepole.h ****         Reset();
  47:../DaisySP/Source/Filters/onepole.h ****         mode_ = FILTER_MODE_LOW_PASS;
  48:../DaisySP/Source/Filters/onepole.h ****     }
  49:../DaisySP/Source/Filters/onepole.h **** 
  50:../DaisySP/Source/Filters/onepole.h ****     /** Reset the module to its default state */
  51:../DaisySP/Source/Filters/onepole.h ****     inline void Reset() { state_ = 0.0f; }
 1514              		.loc 8 51 34 view .LVU397
 1515 0032 0022     		movs	r2, #0
 1516              	.LBE465:
 1517              	.LBE464:
 1518              	.LBE463:
 1519              	.LBB468:
 1520              	.LBB469:
  52:../DaisySP/Source/Filters/onepole.h **** 
  53:../DaisySP/Source/Filters/onepole.h ****     /** Set the filter cutoff frequency
  54:../DaisySP/Source/Filters/onepole.h ****     *   \param freq Cutoff frequency. Valid range from 0 to .497f
  55:../DaisySP/Source/Filters/onepole.h ****     */
  56:../DaisySP/Source/Filters/onepole.h ****     inline void SetFrequency(float freq)
  57:../DaisySP/Source/Filters/onepole.h ****     {
  58:../DaisySP/Source/Filters/onepole.h ****         // Clip coefficient to about 100.
  59:../DaisySP/Source/Filters/onepole.h ****         freq = freq < 0.497f ? freq : 0.497f;
  60:../DaisySP/Source/Filters/onepole.h **** 
  61:../DaisySP/Source/Filters/onepole.h ****         g_  = tanf(PI_F * freq);
  62:../DaisySP/Source/Filters/onepole.h ****         gi_ = 1.f / (1.f + g_);
  63:../DaisySP/Source/Filters/onepole.h ****     }
  64:../DaisySP/Source/Filters/onepole.h **** 
ARM GAS  /var/folders/2p/02m_5p7958535cp2tpgps0400000gn/T//ccRuMDjw.s 			page 47


  65:../DaisySP/Source/Filters/onepole.h ****     /** Set the filter mode
  66:../DaisySP/Source/Filters/onepole.h ****     *   \param mode Filter mode. Can be lowpass or highpass
  67:../DaisySP/Source/Filters/onepole.h ****     */
  68:../DaisySP/Source/Filters/onepole.h ****     inline void SetFilterMode(FilterMode mode) { mode_ = mode; }
 1521              		.loc 8 68 56 view .LVU398
 1522 0034 0121     		movs	r1, #1
 1523              	.LBE469:
 1524              	.LBE468:
 1525              	.LBB471:
 1526              	.LBB462:
 1527              		.loc 7 39 45 view .LVU399
 1528 0036 AB60     		str	r3, [r5, #8]	@ float
 1529              	.LVL101:
 1530              		.loc 7 39 45 view .LVU400
 1531              	.LBE462:
 1532              	.LBE471:
 324:GrannyChordApp.cpp ****   lowpass_moog_.SetRes(0.7f);
 1533              		.loc 2 324 3 is_stmt 1 view .LVU401
 1534              	.LBB472:
 1535              	.LBI472:
  40:../DaisySP/Source/../DaisySP-LGPL/Source/Filters/moogladder.h ****     /** 
  41:../DaisySP/Source/../DaisySP-LGPL/Source/Filters/moogladder.h ****         Sets the resonance of the filter.
  42:../DaisySP/Source/../DaisySP-LGPL/Source/Filters/moogladder.h ****     */
  43:../DaisySP/Source/../DaisySP-LGPL/Source/Filters/moogladder.h ****     inline void SetRes(float res) { res_ = res; }
 1536              		.loc 7 43 17 view .LVU402
 1537              	.LBB473:
 1538              		.loc 7 43 37 view .LVU403
 1539              		.loc 7 43 42 is_stmt 0 view .LVU404
 1540 0038 084B     		ldr	r3, .L81+8
 1541 003a 6B60     		str	r3, [r5, #4]	@ float
 1542              	.LVL102:
 1543              		.loc 7 43 42 view .LVU405
 1544              	.LBE473:
 1545              	.LBE472:
 325:GrannyChordApp.cpp ****   hipass_.Init();
 1546              		.loc 2 325 3 is_stmt 1 view .LVU406
 1547              	.LBB474:
 1548              	.LBI463:
  44:../DaisySP/Source/Filters/onepole.h ****     {
 1549              		.loc 8 44 10 view .LVU407
 1550              	.LBE474:
  46:../DaisySP/Source/Filters/onepole.h ****         mode_ = FILTER_MODE_LOW_PASS;
 1551              		.loc 8 46 9 view .LVU408
 1552              	.LBB475:
 1553              	.LBB467:
 1554              	.LBI464:
  51:../DaisySP/Source/Filters/onepole.h **** 
 1555              		.loc 8 51 17 view .LVU409
 1556              	.LBB466:
  51:../DaisySP/Source/Filters/onepole.h **** 
 1557              		.loc 8 51 27 view .LVU410
  51:../DaisySP/Source/Filters/onepole.h **** 
 1558              		.loc 8 51 34 is_stmt 0 view .LVU411
 1559 003c 04F59A63 		add	r3, r4, #1232
 1560              	.LVL103:
  51:../DaisySP/Source/Filters/onepole.h **** 
 1561              		.loc 8 51 34 view .LVU412
ARM GAS  /var/folders/2p/02m_5p7958535cp2tpgps0400000gn/T//ccRuMDjw.s 			page 48


 1562 0040 9A60     		str	r2, [r3, #8]	@ float
 1563              	.LVL104:
  51:../DaisySP/Source/Filters/onepole.h **** 
 1564              		.loc 8 51 34 view .LVU413
 1565              	.LBE466:
 1566              	.LBE467:
 1567              	.LBE475:
  47:../DaisySP/Source/Filters/onepole.h ****     }
 1568              		.loc 8 47 9 is_stmt 1 view .LVU414
 326:GrannyChordApp.cpp ****   hipass_.SetFilterMode(daisysp::OnePole::FilterMode::FILTER_MODE_HIGH_PASS);
 1569              		.loc 2 326 3 view .LVU415
 1570              	.LBB476:
 1571              	.LBI468:
 1572              		.loc 8 68 17 view .LVU416
 1573              	.LBB470:
 1574              		.loc 8 68 50 view .LVU417
 1575              		.loc 8 68 56 is_stmt 0 view .LVU418
 1576 0042 84F8DC14 		strb	r1, [r4, #1244]
 1577              	.LVL105:
 1578              		.loc 8 68 56 view .LVU419
 1579              	.LBE470:
 1580              	.LBE476:
 327:GrannyChordApp.cpp ****   hipass_.SetFrequency(0.0f); // NOTE: CHECK THIS
 1581              		.loc 2 327 3 is_stmt 1 view .LVU420
 1582              	.LBB477:
 1583              	.LBI477:
  56:../DaisySP/Source/Filters/onepole.h ****     {
 1584              		.loc 8 56 17 view .LVU421
 1585              	.LBB478:
  59:../DaisySP/Source/Filters/onepole.h **** 
 1586              		.loc 8 59 9 view .LVU422
  61:../DaisySP/Source/Filters/onepole.h ****         gi_ = 1.f / (1.f + g_);
 1587              		.loc 8 61 9 view .LVU423
  61:../DaisySP/Source/Filters/onepole.h ****         gi_ = 1.f / (1.f + g_);
 1588              		.loc 8 61 13 is_stmt 0 view .LVU424
 1589 0046 1A60     		str	r2, [r3]	@ float
  62:../DaisySP/Source/Filters/onepole.h ****     }
 1590              		.loc 8 62 9 is_stmt 1 view .LVU425
  62:../DaisySP/Source/Filters/onepole.h ****     }
 1591              		.loc 8 62 13 is_stmt 0 view .LVU426
 1592 0048 4FF07E52 		mov	r2, #1065353216
 1593 004c 5A60     		str	r2, [r3, #4]	@ float
 1594              	.LVL106:
  62:../DaisySP/Source/Filters/onepole.h ****     }
 1595              		.loc 8 62 13 view .LVU427
 1596              	.LBE478:
 1597              	.LBE477:
 328:GrannyChordApp.cpp **** }
 1598              		.loc 2 328 1 view .LVU428
 1599 004e 03B0     		add	sp, sp, #12
 1600              		.cfi_def_cfa_offset 12
 1601              		@ sp needed
 1602 0050 30BD     		pop	{r4, r5, pc}
 1603              	.LVL107:
 1604              	.L82:
 1605              		.loc 2 328 1 view .LVU429
 1606 0052 00BF     		.align	2
ARM GAS  /var/folders/2p/02m_5p7958535cp2tpgps0400000gn/T//ccRuMDjw.s 			page 49


 1607              	.L81:
 1608 0054 00803B47 		.word	1195081728
 1609 0058 00409C46 		.word	1184645120
 1610 005c 3333333F 		.word	1060320051
 1611              		.cfi_endproc
 1612              	.LFE4924:
 1614              		.section	.text._ZN14GrannyChordApp17InitPrevParamValsEv,"ax",%progbits
 1615              		.align	1
 1616              		.global	_ZN14GrannyChordApp17InitPrevParamValsEv
 1617              		.syntax unified
 1618              		.thumb
 1619              		.thumb_func
 1621              	_ZN14GrannyChordApp17InitPrevParamValsEv:
 1622              	.LVL108:
 1623              	.LFB4925:
 329:GrannyChordApp.cpp **** 
 330:GrannyChordApp.cpp **** /// @brief Initialise previous parameter value arrays to defaults
 331:GrannyChordApp.cpp **** void GrannyChordApp::InitPrevParamVals(){
 1624              		.loc 2 331 41 is_stmt 1 view -0
 1625              		.cfi_startproc
 1626              		@ args = 0, pretend = 0, frame = 0
 1627              		@ frame_needed = 0, uses_anonymous_args = 0
 1628              		@ link register save eliminated.
 332:GrannyChordApp.cpp ****       for (int i=0; i < NUM_SYNTH_MODES;i++){
 1629              		.loc 2 332 7 view .LVU431
 1630              	.LBB479:
 1631              		.loc 2 332 23 view .LVU432
 1632 0000 00F5AF63 		add	r3, r0, #1400
 1633 0004 00F29450 		addw	r0, r0, #1428
 1634              	.LVL109:
 1635              	.L84:
 333:GrannyChordApp.cpp ****         prev_param_vals_k1[i] = 0.5f;
 1636              		.loc 2 333 9 discriminator 2 view .LVU433
 1637              		.loc 2 333 31 is_stmt 0 discriminator 2 view .LVU434
 1638 0008 4FF07C52 		mov	r2, #1056964608
 1639 000c 43F8042B 		str	r2, [r3], #4	@ float
 334:GrannyChordApp.cpp ****         prev_param_vals_k2[i] = 0.5f;
 1640              		.loc 2 334 9 is_stmt 1 discriminator 2 view .LVU435
 332:GrannyChordApp.cpp ****       for (int i=0; i < NUM_SYNTH_MODES;i++){
 1641              		.loc 2 332 23 is_stmt 0 discriminator 2 view .LVU436
 1642 0010 8342     		cmp	r3, r0
 1643              		.loc 2 334 31 discriminator 2 view .LVU437
 1644 0012 9A61     		str	r2, [r3, #24]	@ float
 332:GrannyChordApp.cpp ****       for (int i=0; i < NUM_SYNTH_MODES;i++){
 1645              		.loc 2 332 7 is_stmt 1 discriminator 2 view .LVU438
 332:GrannyChordApp.cpp ****       for (int i=0; i < NUM_SYNTH_MODES;i++){
 1646              		.loc 2 332 23 discriminator 2 view .LVU439
 1647 0014 F8D1     		bne	.L84
 1648              	.LBE479:
 335:GrannyChordApp.cpp ****       } 
 336:GrannyChordApp.cpp **** };
 1649              		.loc 2 336 1 is_stmt 0 view .LVU440
 1650 0016 7047     		bx	lr
 1651              		.cfi_endproc
 1652              	.LFE4925:
 1654              		.section	.rodata._ZN14GrannyChordApp4InitEPsS0_S0_.str1.1,"aMS",%progbits,1
 1655              	.LC11:
ARM GAS  /var/folders/2p/02m_5p7958535cp2tpgps0400000gn/T//ccRuMDjw.s 			page 50


 1656 0000 46696C65 		.ascii	"File manager failed to init\000"
 1656      206D616E 
 1656      61676572 
 1656      20666169 
 1656      6C656420 
 1657              		.section	.text._ZN14GrannyChordApp4InitEPsS0_S0_,"ax",%progbits
 1658              		.align	1
 1659              		.global	_ZN14GrannyChordApp4InitEPsS0_S0_
 1660              		.syntax unified
 1661              		.thumb
 1662              		.thumb_func
 1664              	_ZN14GrannyChordApp4InitEPsS0_S0_:
 1665              	.LVL110:
 1666              	.LFB4903:
  16:GrannyChordApp.cpp ****   left_buf_ = left, right_buf_ = right, temp_buf_ = temp;
 1667              		.loc 2 16 72 is_stmt 1 view -0
 1668              		.cfi_startproc
 1669              		@ args = 0, pretend = 0, frame = 0
 1670              		@ frame_needed = 0, uses_anonymous_args = 0
  17:GrannyChordApp.cpp ****   pod_.SetAudioBlockSize(2);
 1671              		.loc 2 17 3 view .LVU442
  16:GrannyChordApp.cpp ****   left_buf_ = left, right_buf_ = right, temp_buf_ = temp;
 1672              		.loc 2 16 72 is_stmt 0 view .LVU443
 1673 0000 38B5     		push	{r3, r4, r5, lr}
 1674              		.cfi_def_cfa_offset 16
 1675              		.cfi_offset 3, -16
 1676              		.cfi_offset 4, -12
 1677              		.cfi_offset 5, -8
 1678              		.cfi_offset 14, -4
 1679 0002 0446     		mov	r4, r0
  21:GrannyChordApp.cpp ****   if (!InitFileMgr()){
 1680              		.loc 2 21 15 view .LVU444
 1681 0004 0025     		movs	r5, #0
  16:GrannyChordApp.cpp ****   left_buf_ = left, right_buf_ = right, temp_buf_ = temp;
 1682              		.loc 2 16 72 view .LVU445
 1683 0006 2DED048B 		vpush.64	{d8, d9}
 1684              		.cfi_def_cfa_offset 32
 1685              		.cfi_offset 80, -32
 1686              		.cfi_offset 81, -28
 1687              		.cfi_offset 82, -24
 1688              		.cfi_offset 83, -20
  17:GrannyChordApp.cpp ****   pod_.SetAudioBlockSize(2);
 1689              		.loc 2 17 13 view .LVU446
 1690 000a C0F8E014 		str	r1, [r0, #1248]
  18:GrannyChordApp.cpp ****   pod_.SetAudioSampleRate(SaiHandle::Config::SampleRate::SAI_48KHZ);
 1691              		.loc 2 18 25 view .LVU447
 1692 000e 0221     		movs	r1, #2
 1693              	.LVL111:
  17:GrannyChordApp.cpp ****   pod_.SetAudioBlockSize(2);
 1694              		.loc 2 17 32 view .LVU448
 1695 0010 C0F8E424 		str	r2, [r0, #1252]
  17:GrannyChordApp.cpp ****   pod_.SetAudioBlockSize(2);
 1696              		.loc 2 17 51 view .LVU449
 1697 0014 C0F8E834 		str	r3, [r0, #1256]
  18:GrannyChordApp.cpp ****   pod_.SetAudioSampleRate(SaiHandle::Config::SampleRate::SAI_48KHZ);
 1698              		.loc 2 18 3 is_stmt 1 view .LVU450
  18:GrannyChordApp.cpp ****   pod_.SetAudioSampleRate(SaiHandle::Config::SampleRate::SAI_48KHZ);
ARM GAS  /var/folders/2p/02m_5p7958535cp2tpgps0400000gn/T//ccRuMDjw.s 			page 51


 1699              		.loc 2 18 25 is_stmt 0 view .LVU451
 1700 0018 C069     		ldr	r0, [r0, #28]
 1701              	.LVL112:
  18:GrannyChordApp.cpp ****   pod_.SetAudioSampleRate(SaiHandle::Config::SampleRate::SAI_48KHZ);
 1702              		.loc 2 18 25 view .LVU452
 1703 001a FFF7FEFF 		bl	_ZN5daisy8DaisyPod17SetAudioBlockSizeEj
 1704              	.LVL113:
  19:GrannyChordApp.cpp **** 
 1705              		.loc 2 19 3 is_stmt 1 view .LVU453
  19:GrannyChordApp.cpp **** 
 1706              		.loc 2 19 26 is_stmt 0 view .LVU454
 1707 001e E069     		ldr	r0, [r4, #28]
 1708 0020 0321     		movs	r1, #3
 1709 0022 FFF7FEFF 		bl	_ZN5daisy8DaisyPod18SetAudioSampleRateENS_9SaiHandle6Config10SampleRateE
 1710              	.LVL114:
  21:GrannyChordApp.cpp ****   if (!InitFileMgr()){
 1711              		.loc 2 21 3 is_stmt 1 view .LVU455
  22:GrannyChordApp.cpp ****     DebugPrint(pod_,"File manager failed to init");
 1712              		.loc 2 22 19 is_stmt 0 view .LVU456
 1713 0026 2046     		mov	r0, r4
  21:GrannyChordApp.cpp ****   if (!InitFileMgr()){
 1714              		.loc 2 21 15 view .LVU457
 1715 0028 C4F83854 		str	r5, [r4, #1080]
  22:GrannyChordApp.cpp ****     DebugPrint(pod_,"File manager failed to init");
 1716              		.loc 2 22 3 is_stmt 1 view .LVU458
  22:GrannyChordApp.cpp ****     DebugPrint(pod_,"File manager failed to init");
 1717              		.loc 2 22 19 is_stmt 0 view .LVU459
 1718 002c FFF7FEFF 		bl	_ZN14GrannyChordApp11InitFileMgrEv
 1719              	.LVL115:
  22:GrannyChordApp.cpp ****     DebugPrint(pod_,"File manager failed to init");
 1720              		.loc 2 22 3 view .LVU460
 1721 0030 B0B9     		cbnz	r0, .L87
  23:GrannyChordApp.cpp ****     pod_.led1.SetRed(1);
 1722              		.loc 2 23 5 is_stmt 1 view .LVU461
  23:GrannyChordApp.cpp ****     pod_.led1.SetRed(1);
 1723              		.loc 2 23 5 view .LVU462
 1724              	.LVL116:
 1725              	.LBB488:
 1726              	.LBI488:
 126:../libDaisy/src/daisy_seed.h ****     {
 1727              		.loc 4 126 17 view .LVU463
 1728              	.LBB489:
 1729              		.loc 4 128 23 is_stmt 0 view .LVU464
 1730 0032 3048     		ldr	r0, .L88
 1731 0034 FFF7FEFF 		bl	_ZN5daisy6LoggerILNS_17LoggerDestinationE1EE9PrintLineEPKcz
 1732              	.LVL117:
 1733              		.loc 4 128 23 view .LVU465
 1734              	.LBE489:
 1735              	.LBE488:
  24:GrannyChordApp.cpp ****     pod_.led2.SetRed(1);
 1736              		.loc 2 24 5 is_stmt 1 view .LVU466
  24:GrannyChordApp.cpp ****     pod_.led2.SetRed(1);
 1737              		.loc 2 24 21 is_stmt 0 view .LVU467
 1738 0038 E069     		ldr	r0, [r4, #28]
 1739 003a B7EE000A 		vmov.f32	s0, #1.0e+0
 1740 003e D830     		adds	r0, r0, #216
 1741 0040 FFF7FEFF 		bl	_ZN5daisy6RgbLed6SetRedEf
ARM GAS  /var/folders/2p/02m_5p7958535cp2tpgps0400000gn/T//ccRuMDjw.s 			page 52


 1742              	.LVL118:
  25:GrannyChordApp.cpp ****     pod_.UpdateLeds();
 1743              		.loc 2 25 5 is_stmt 1 view .LVU468
  25:GrannyChordApp.cpp ****     pod_.UpdateLeds();
 1744              		.loc 2 25 21 is_stmt 0 view .LVU469
 1745 0044 E069     		ldr	r0, [r4, #28]
 1746 0046 B7EE000A 		vmov.f32	s0, #1.0e+0
 1747 004a 00F59670 		add	r0, r0, #300
 1748 004e FFF7FEFF 		bl	_ZN5daisy6RgbLed6SetRedEf
 1749              	.LVL119:
  26:GrannyChordApp.cpp ****     return;
 1750              		.loc 2 26 5 is_stmt 1 view .LVU470
  26:GrannyChordApp.cpp ****     return;
 1751              		.loc 2 26 20 is_stmt 0 view .LVU471
 1752 0052 E069     		ldr	r0, [r4, #28]
  35:GrannyChordApp.cpp **** 
 1753              		.loc 2 35 1 view .LVU472
 1754 0054 BDEC048B 		vldm	sp!, {d8-d9}
 1755              		.cfi_remember_state
 1756              		.cfi_restore 82
 1757              		.cfi_restore 83
 1758              		.cfi_restore 80
 1759              		.cfi_restore 81
 1760              		.cfi_def_cfa_offset 16
 1761 0058 BDE83840 		pop	{r3, r4, r5, lr}
 1762              		.cfi_restore 14
 1763              		.cfi_restore 5
 1764              		.cfi_restore 4
 1765              		.cfi_restore 3
 1766              		.cfi_def_cfa_offset 0
 1767              	.LVL120:
  26:GrannyChordApp.cpp ****     return;
 1768              		.loc 2 26 20 view .LVU473
 1769 005c FFF7FEBF 		b	_ZN5daisy8DaisyPod10UpdateLedsEv
 1770              	.LVL121:
 1771              	.L87:
 1772              		.cfi_restore_state
  29:GrannyChordApp.cpp ****   InitFX();
 1773              		.loc 2 29 3 is_stmt 1 view .LVU474
  29:GrannyChordApp.cpp ****   InitFX();
 1774              		.loc 2 29 17 is_stmt 0 view .LVU475
 1775 0060 E069     		ldr	r0, [r4, #28]
 1776 0062 FFF7FEFF 		bl	_ZN5daisy8DaisyPod15AudioSampleRateEv
 1777              	.LVL122:
  29:GrannyChordApp.cpp ****   InitFX();
 1778              		.loc 2 29 61 view .LVU476
 1779 0066 E069     		ldr	r0, [r4, #28]
  29:GrannyChordApp.cpp ****   InitFX();
 1780              		.loc 2 29 17 view .LVU477
 1781 0068 F0EE408A 		vmov.f32	s17, s0
  29:GrannyChordApp.cpp ****   InitFX();
 1782              		.loc 2 29 61 view .LVU478
 1783 006c FFF7FEFF 		bl	_ZN5daisy8DaisyPod14AudioBlockSizeEv
 1784              	.LVL123:
 1785              	.LBB490:
 1786              	.LBI490:
 1787              		.file 9 "../libDaisy/src/util/CpuLoadMeter.h"
ARM GAS  /var/folders/2p/02m_5p7958535cp2tpgps0400000gn/T//ccRuMDjw.s 			page 53


   1:../libDaisy/src/util/CpuLoadMeter.h **** #pragma once
   2:../libDaisy/src/util/CpuLoadMeter.h **** 
   3:../libDaisy/src/util/CpuLoadMeter.h **** #include "sys/system.h"
   4:../libDaisy/src/util/CpuLoadMeter.h **** #include <cmath>
   5:../libDaisy/src/util/CpuLoadMeter.h **** 
   6:../libDaisy/src/util/CpuLoadMeter.h **** namespace daisy
   7:../libDaisy/src/util/CpuLoadMeter.h **** {
   8:../libDaisy/src/util/CpuLoadMeter.h **** /** @brief CPU load metering
   9:../libDaisy/src/util/CpuLoadMeter.h ****  *  @author jelliesen
  10:../libDaisy/src/util/CpuLoadMeter.h ****  *  @addtogroup utility
  11:../libDaisy/src/util/CpuLoadMeter.h ****  * 
  12:../libDaisy/src/util/CpuLoadMeter.h ****  *  To measure the CPU load of your audio processing, create a CpuLoadMeter
  13:../libDaisy/src/util/CpuLoadMeter.h ****  *  and initialize it with your block size and sample rate.
  14:../libDaisy/src/util/CpuLoadMeter.h ****  *  Then at the beginning of the audio callback, call `OnBlockStart()`, 
  15:../libDaisy/src/util/CpuLoadMeter.h ****  *  and at the end of the audio callback, call `OnBlockEnd()`.
  16:../libDaisy/src/util/CpuLoadMeter.h ****  *  You can then read out the minimum, maximum and average CPU load.
  17:../libDaisy/src/util/CpuLoadMeter.h ****  */
  18:../libDaisy/src/util/CpuLoadMeter.h **** class CpuLoadMeter
  19:../libDaisy/src/util/CpuLoadMeter.h **** {
  20:../libDaisy/src/util/CpuLoadMeter.h ****   public:
  21:../libDaisy/src/util/CpuLoadMeter.h ****     CpuLoadMeter(){};
  22:../libDaisy/src/util/CpuLoadMeter.h **** 
  23:../libDaisy/src/util/CpuLoadMeter.h ****     /** Initializes the CpuLoadMeter for a particular sample rate and block size.
  24:../libDaisy/src/util/CpuLoadMeter.h ****      *  @param sampleRateInHz           The sample rate in Hz
  25:../libDaisy/src/util/CpuLoadMeter.h ****      *  @param blockSizeInSamples       The block size in samples
  26:../libDaisy/src/util/CpuLoadMeter.h ****      *  @param smoothingFilterCutoffHz  The cutoff frequency of the smoothing filter that's used to
  27:../libDaisy/src/util/CpuLoadMeter.h ****      *                                  create the average CPU load reading.
  28:../libDaisy/src/util/CpuLoadMeter.h ****      */
  29:../libDaisy/src/util/CpuLoadMeter.h ****     void Init(float sampleRateInHz,
 1788              		.loc 9 29 10 is_stmt 1 view .LVU479
 1789              	.LBB491:
  30:../libDaisy/src/util/CpuLoadMeter.h ****               int   blockSizeInSamples,
  31:../libDaisy/src/util/CpuLoadMeter.h ****               float smoothingFilterCutoffHz = 1.0f)
  32:../libDaisy/src/util/CpuLoadMeter.h ****     {
  33:../libDaisy/src/util/CpuLoadMeter.h ****         const auto secPerBlock = float(blockSizeInSamples) / sampleRateInHz;
 1790              		.loc 9 33 9 view .LVU480
 1791              		.loc 9 33 34 is_stmt 0 view .LVU481
 1792 0070 07EE900A 		vmov	s15, r0	@ int
 1793 0074 B8EEE78A 		vcvt.f32.s32	s16, s15
  34:../libDaisy/src/util/CpuLoadMeter.h ****         const auto ticksPerS   = float(System::GetTickFreq());
 1794              		.loc 9 34 59 view .LVU482
 1795 0078 FFF7FEFF 		bl	_ZN5daisy6System11GetTickFreqEv
 1796              	.LVL124:
 1797              		.loc 9 34 61 view .LVU483
 1798 007c 07EE900A 		vmov	s15, r0	@ int
  35:../libDaisy/src/util/CpuLoadMeter.h ****         ticksPerBlockInv_      = 1.0f / (ticksPerS * secPerBlock);
 1799              		.loc 9 35 39 view .LVU484
 1800 0080 B7EE007A 		vmov.f32	s14, #1.0e+0
  36:../libDaisy/src/util/CpuLoadMeter.h **** 
  37:../libDaisy/src/util/CpuLoadMeter.h ****         // update filter coefficient for smoothing filter (1pole lowpass)
  38:../libDaisy/src/util/CpuLoadMeter.h ****         const auto blockRateInHz = sampleRateInHz / float(blockSizeInSamples);
  39:../libDaisy/src/util/CpuLoadMeter.h ****         const auto cutoffNormalized
 1801              		.loc 9 39 20 view .LVU485
 1802 0084 9FED1C6A 		vldr.32	s12, .L88+4
 1803              	.LBB492:
 1804              	.LBB493:
  40:../libDaisy/src/util/CpuLoadMeter.h ****             = smoothingFilterCutoffHz * 2.0f * 3.141592653f / blockRateInHz;
ARM GAS  /var/folders/2p/02m_5p7958535cp2tpgps0400000gn/T//ccRuMDjw.s 			page 54


  41:../libDaisy/src/util/CpuLoadMeter.h ****         // according to
  42:../libDaisy/src/util/CpuLoadMeter.h ****         // https://en.wikipedia.org/wiki/Low-pass_filter#Simple_infinite_impulse_response_filter
  43:../libDaisy/src/util/CpuLoadMeter.h ****         smoothingConstant_ = cutoffNormalized / (cutoffNormalized + 1.0f);
  44:../libDaisy/src/util/CpuLoadMeter.h **** 
  45:../libDaisy/src/util/CpuLoadMeter.h ****         Reset();
  46:../libDaisy/src/util/CpuLoadMeter.h ****     }
  47:../libDaisy/src/util/CpuLoadMeter.h **** 
  48:../libDaisy/src/util/CpuLoadMeter.h ****     /** Call this at the beginning of your audio callback */
  49:../libDaisy/src/util/CpuLoadMeter.h ****     void OnBlockStart() { currentBlockStartTicks_ = System::GetTick(); }
  50:../libDaisy/src/util/CpuLoadMeter.h **** 
  51:../libDaisy/src/util/CpuLoadMeter.h ****     /** Call this at the end of your audio callback */
  52:../libDaisy/src/util/CpuLoadMeter.h ****     void OnBlockEnd()
  53:../libDaisy/src/util/CpuLoadMeter.h ****     {
  54:../libDaisy/src/util/CpuLoadMeter.h ****         const auto end         = System::GetTick();
  55:../libDaisy/src/util/CpuLoadMeter.h ****         const auto ticksPassed = end - currentBlockStartTicks_;
  56:../libDaisy/src/util/CpuLoadMeter.h ****         const auto currentBlockLoad
  57:../libDaisy/src/util/CpuLoadMeter.h ****             = float(ticksPassed) * ticksPerBlockInv_; // usPassed / usPerBlock
  58:../libDaisy/src/util/CpuLoadMeter.h **** 
  59:../libDaisy/src/util/CpuLoadMeter.h ****         if(firstCycle_)
  60:../libDaisy/src/util/CpuLoadMeter.h ****         {
  61:../libDaisy/src/util/CpuLoadMeter.h ****             max_ = min_ = avg_ = currentBlockLoad;
  62:../libDaisy/src/util/CpuLoadMeter.h ****             firstCycle_        = false;
  63:../libDaisy/src/util/CpuLoadMeter.h ****         }
  64:../libDaisy/src/util/CpuLoadMeter.h ****         else
  65:../libDaisy/src/util/CpuLoadMeter.h ****         {
  66:../libDaisy/src/util/CpuLoadMeter.h ****             if(currentBlockLoad > max_)
  67:../libDaisy/src/util/CpuLoadMeter.h ****                 max_ = currentBlockLoad;
  68:../libDaisy/src/util/CpuLoadMeter.h ****             if(currentBlockLoad < min_)
  69:../libDaisy/src/util/CpuLoadMeter.h ****                 min_ = currentBlockLoad;
  70:../libDaisy/src/util/CpuLoadMeter.h **** 
  71:../libDaisy/src/util/CpuLoadMeter.h ****             avg_ = smoothingConstant_ * currentBlockLoad
  72:../libDaisy/src/util/CpuLoadMeter.h ****                    + (1.0f - smoothingConstant_) * avg_;
  73:../libDaisy/src/util/CpuLoadMeter.h ****         }
  74:../libDaisy/src/util/CpuLoadMeter.h ****     }
  75:../libDaisy/src/util/CpuLoadMeter.h **** 
  76:../libDaisy/src/util/CpuLoadMeter.h ****     /** Returns the smoothed average CPU load in the range 0..1 */
  77:../libDaisy/src/util/CpuLoadMeter.h ****     float GetAvgCpuLoad() const { return avg_; }
  78:../libDaisy/src/util/CpuLoadMeter.h ****     /** Returns the minimun CPU load observed since the last call to Reset(). */
  79:../libDaisy/src/util/CpuLoadMeter.h ****     float GetMinCpuLoad() const { return min_; }
  80:../libDaisy/src/util/CpuLoadMeter.h ****     /** Returns the maximum CPU load observed since the last call to Reset(). */
  81:../libDaisy/src/util/CpuLoadMeter.h ****     float GetMaxCpuLoad() const { return max_; }
  82:../libDaisy/src/util/CpuLoadMeter.h **** 
  83:../libDaisy/src/util/CpuLoadMeter.h ****     /** Resets the minimun, maximum and average load readings. */
  84:../libDaisy/src/util/CpuLoadMeter.h ****     void Reset()
  85:../libDaisy/src/util/CpuLoadMeter.h ****     {
  86:../libDaisy/src/util/CpuLoadMeter.h ****         firstCycle_ = true;
 1805              		.loc 9 86 21 view .LVU486
 1806 0088 0123     		movs	r3, #1
 1807              	.LBE493:
 1808              	.LBE492:
  33:../libDaisy/src/util/CpuLoadMeter.h ****         const auto ticksPerS   = float(System::GetTickFreq());
 1809              		.loc 9 33 20 view .LVU487
 1810 008a 88EE289A 		vdiv.f32	s18, s16, s17
 1811              	.LVL125:
  34:../libDaisy/src/util/CpuLoadMeter.h ****         ticksPerBlockInv_      = 1.0f / (ticksPerS * secPerBlock);
 1812              		.loc 9 34 9 is_stmt 1 view .LVU488
  35:../libDaisy/src/util/CpuLoadMeter.h **** 
ARM GAS  /var/folders/2p/02m_5p7958535cp2tpgps0400000gn/T//ccRuMDjw.s 			page 55


 1813              		.loc 9 35 9 view .LVU489
 1814              	.LBE491:
 1815              	.LBE490:
  30:GrannyChordApp.cpp ****   InitPrevParamVals();
 1816              		.loc 2 30 9 is_stmt 0 view .LVU490
 1817 008e 2046     		mov	r0, r4
 1818              	.LVL126:
 1819              	.LBB501:
 1820              	.LBB500:
 1821              	.LBB497:
 1822              	.LBB494:
 1823              		.loc 9 86 21 view .LVU491
 1824 0090 2370     		strb	r3, [r4]
  87:../libDaisy/src/util/CpuLoadMeter.h ****         avg_ = max_ = min_ = NAN;
 1825              		.loc 9 87 28 view .LVU492
 1826 0092 1A4B     		ldr	r3, .L88+8
 1827 0094 E360     		str	r3, [r4, #12]	@ float
 1828              	.LBE494:
 1829              	.LBE497:
  34:../libDaisy/src/util/CpuLoadMeter.h ****         ticksPerBlockInv_      = 1.0f / (ticksPerS * secPerBlock);
 1830              		.loc 9 34 61 view .LVU493
 1831 0096 F8EE677A 		vcvt.f32.u32	s15, s15
 1832              	.LVL127:
 1833              	.LBB498:
 1834              	.LBB495:
 1835              		.loc 9 87 21 view .LVU494
 1836 009a 2361     		str	r3, [r4, #16]	@ float
 1837              		.loc 9 87 14 view .LVU495
 1838 009c 6361     		str	r3, [r4, #20]	@ float
 1839              	.LBE495:
 1840              	.LBE498:
  35:../libDaisy/src/util/CpuLoadMeter.h **** 
 1841              		.loc 9 35 52 view .LVU496
 1842 009e 67EE897A 		vmul.f32	s15, s15, s18
 1843              	.LVL128:
  35:../libDaisy/src/util/CpuLoadMeter.h **** 
 1844              		.loc 9 35 39 view .LVU497
 1845 00a2 C7EE276A 		vdiv.f32	s13, s14, s15
  35:../libDaisy/src/util/CpuLoadMeter.h **** 
 1846              		.loc 9 35 32 view .LVU498
 1847 00a6 C4ED016A 		vstr.32	s13, [r4, #4]
  38:../libDaisy/src/util/CpuLoadMeter.h ****         const auto cutoffNormalized
 1848              		.loc 9 38 9 is_stmt 1 view .LVU499
 1849              	.LVL129:
  39:../libDaisy/src/util/CpuLoadMeter.h ****             = smoothingFilterCutoffHz * 2.0f * 3.141592653f / blockRateInHz;
 1850              		.loc 9 39 9 view .LVU500
  38:../libDaisy/src/util/CpuLoadMeter.h ****         const auto cutoffNormalized
 1851              		.loc 9 38 20 is_stmt 0 view .LVU501
 1852 00aa C8EE886A 		vdiv.f32	s13, s17, s16
 1853              	.LVL130:
  39:../libDaisy/src/util/CpuLoadMeter.h ****             = smoothingFilterCutoffHz * 2.0f * 3.141592653f / blockRateInHz;
 1854              		.loc 9 39 20 view .LVU502
 1855 00ae C6EE267A 		vdiv.f32	s15, s12, s13
 1856              	.LVL131:
  43:../libDaisy/src/util/CpuLoadMeter.h **** 
 1857              		.loc 9 43 9 is_stmt 1 view .LVU503
  43:../libDaisy/src/util/CpuLoadMeter.h **** 
ARM GAS  /var/folders/2p/02m_5p7958535cp2tpgps0400000gn/T//ccRuMDjw.s 			page 56


 1858              		.loc 9 43 67 is_stmt 0 view .LVU504
 1859 00b2 37EE877A 		vadd.f32	s14, s15, s14
  43:../libDaisy/src/util/CpuLoadMeter.h **** 
 1860              		.loc 9 43 47 view .LVU505
 1861 00b6 C7EE876A 		vdiv.f32	s13, s15, s14
 1862              	.LVL132:
  43:../libDaisy/src/util/CpuLoadMeter.h **** 
 1863              		.loc 9 43 28 view .LVU506
 1864 00ba C4ED066A 		vstr.32	s13, [r4, #24]
  45:../libDaisy/src/util/CpuLoadMeter.h ****     }
 1865              		.loc 9 45 9 is_stmt 1 view .LVU507
 1866              	.LVL133:
 1867              	.LBB499:
 1868              	.LBI492:
  84:../libDaisy/src/util/CpuLoadMeter.h ****     {
 1869              		.loc 9 84 10 view .LVU508
 1870              	.LBB496:
  86:../libDaisy/src/util/CpuLoadMeter.h ****         avg_ = max_ = min_ = NAN;
 1871              		.loc 9 86 9 view .LVU509
 1872              		.loc 9 87 9 view .LVU510
 1873              		.loc 9 87 9 is_stmt 0 view .LVU511
 1874              	.LBE496:
 1875              	.LBE499:
 1876              	.LBE500:
 1877              	.LBE501:
  30:GrannyChordApp.cpp ****   InitPrevParamVals();
 1878              		.loc 2 30 3 is_stmt 1 view .LVU512
  30:GrannyChordApp.cpp ****   InitPrevParamVals();
 1879              		.loc 2 30 9 is_stmt 0 view .LVU513
 1880 00be FFF7FEFF 		bl	_ZN14GrannyChordApp6InitFXEv
 1881              	.LVL134:
  31:GrannyChordApp.cpp ****   SeedRng();
 1882              		.loc 2 31 3 is_stmt 1 view .LVU514
  31:GrannyChordApp.cpp ****   SeedRng();
 1883              		.loc 2 31 20 is_stmt 0 view .LVU515
 1884 00c2 2046     		mov	r0, r4
 1885 00c4 FFF7FEFF 		bl	_ZN14GrannyChordApp17InitPrevParamValsEv
 1886              	.LVL135:
  32:GrannyChordApp.cpp ****   synth_.Init(left_buf_, right_buf_, 0);
 1887              		.loc 2 32 3 is_stmt 1 view .LVU516
 1888              	.LBB502:
 1889              	.LBI502:
 1890              		.file 10 "constants_utils.h"
   1:constants_utils.h **** #pragma once
   2:constants_utils.h **** #include "stddef.h"
   3:constants_utils.h **** #include <time.h>
   4:constants_utils.h **** 
   5:constants_utils.h **** constexpr int SAMPLE_RATE = 48000;
   6:constants_utils.h **** constexpr float SAMPLE_RATE_FLOAT = 48000.f;
   7:constants_utils.h **** 
   8:constants_utils.h **** /* 16mb - max size of one stereo channel to be loaded into buffers */
   9:constants_utils.h **** constexpr size_t CHNL_BUF_SIZE_ABS = 16*1024*1024;
  10:constants_utils.h **** /* above is absolute size - each sample needs an int16 (2 bytes) so we do (abs_size)/2 */
  11:constants_utils.h **** constexpr size_t CHNL_BUF_SIZE_SAMPS = 8*1024*1024;
  12:constants_utils.h **** 
  13:constants_utils.h **** /* chunk size for reading audio into temporary buffer */
  14:constants_utils.h **** const size_t BUF_CHUNK_SZ = 16384;
ARM GAS  /var/folders/2p/02m_5p7958535cp2tpgps0400000gn/T//ccRuMDjw.s 			page 57


  15:constants_utils.h **** 
  16:constants_utils.h **** static const uint16_t MAX_FILES = 32;                      
  17:constants_utils.h **** static const uint16_t MAX_FNAME_LEN = 128;
  18:constants_utils.h **** 
  19:constants_utils.h **** constexpr int BIT_DEPTH = 16;
  20:constants_utils.h **** /* min/max number of concurrent active grains */
  21:constants_utils.h **** constexpr int MIN_GRAINS = 1;
  22:constants_utils.h **** constexpr int MAX_GRAINS = 20;
  23:constants_utils.h **** 
  24:constants_utils.h **** constexpr float MIN_GRAIN_SIZE_MS = 100.0f;
  25:constants_utils.h **** constexpr float MAX_GRAIN_SIZE_MS = 3000.0f;
  26:constants_utils.h **** constexpr size_t MIN_GRAIN_SIZE_SAMPLES = 4800; // 100ms at 48kHz
  27:constants_utils.h **** constexpr size_t MAX_GRAIN_SIZE_SAMPLES = 144000; // 3s at 48kHz
  28:constants_utils.h **** constexpr float MIN_PITCH = 0.5f;
  29:constants_utils.h **** constexpr float MAX_PITCH = 3.0f;
  30:constants_utils.h **** 
  31:constants_utils.h **** /* integer clamp as can't use std::clamp */
  32:constants_utils.h **** inline constexpr size_t intclamp(size_t val, size_t min, size_t max){
  33:constants_utils.h ****   if (val < min) val = min;
  34:constants_utils.h ****   else if (val > max) val = max;
  35:constants_utils.h ****   return val;
  36:constants_utils.h **** }
  37:constants_utils.h **** 
  38:constants_utils.h **** /* converts milliseconds to number of samples */
  39:constants_utils.h **** inline constexpr size_t MsToSamples(float ms){
  40:constants_utils.h ****   return static_cast<size_t>(SAMPLE_RATE_FLOAT * (ms*0.001f));
  41:constants_utils.h **** }
  42:constants_utils.h **** 
  43:constants_utils.h **** /* converts number of samples to milliseconds */
  44:constants_utils.h **** inline constexpr float SamplesToMs(size_t samples){
  45:constants_utils.h ****   return (static_cast<float>(samples) * 1000.0f) / SAMPLE_RATE_FLOAT; 
  46:constants_utils.h **** }
  47:constants_utils.h **** 
  48:constants_utils.h **** static constexpr int NUM_ENV_TYPES = 4;
  49:constants_utils.h **** static constexpr int NUM_PHASOR_MODES = 4;
  50:constants_utils.h **** static constexpr int NUM_SYNTH_MODES = 7;
  51:constants_utils.h **** constexpr float PARAM_CHANGE_THRESHOLD = 0.01f;
  52:constants_utils.h **** 
  53:constants_utils.h **** extern uint32_t rng_state;
  54:constants_utils.h **** 
  55:constants_utils.h **** inline void SeedRng(){
 1891              		.loc 10 55 13 view .LVU517
 1892              	.LBB503:
  56:constants_utils.h ****   rng_state = static_cast<uint32_t>(time(nullptr));
 1893              		.loc 10 56 3 view .LVU518
 1894              		.loc 10 56 41 is_stmt 0 view .LVU519
 1895 00c8 2846     		mov	r0, r5
 1896 00ca FFF7FEFF 		bl	time
 1897              	.LVL136:
 1898              		.loc 10 56 13 view .LVU520
 1899 00ce 0C4B     		ldr	r3, .L88+12
 1900              	.LBE503:
 1901              	.LBE502:
  33:GrannyChordApp.cpp ****   pod_.StartAdc();
 1902              		.loc 2 33 14 view .LVU521
 1903 00d0 D4F8E424 		ldr	r2, [r4, #1252]
 1904              	.LBB505:
ARM GAS  /var/folders/2p/02m_5p7958535cp2tpgps0400000gn/T//ccRuMDjw.s 			page 58


 1905              	.LBB504:
 1906              		.loc 10 56 13 view .LVU522
 1907 00d4 1860     		str	r0, [r3]
 1908              	.LBE504:
 1909              	.LBE505:
  33:GrannyChordApp.cpp ****   pod_.StartAdc();
 1910              		.loc 2 33 3 is_stmt 1 view .LVU523
  33:GrannyChordApp.cpp ****   pod_.StartAdc();
 1911              		.loc 2 33 14 is_stmt 0 view .LVU524
 1912 00d6 04F12000 		add	r0, r4, #32
 1913 00da 2B46     		mov	r3, r5
 1914 00dc D4F8E014 		ldr	r1, [r4, #1248]
 1915 00e0 FFF7FEFF 		bl	_ZN13GranularSynth4InitEPsS0_j
 1916              	.LVL137:
  34:GrannyChordApp.cpp **** }
 1917              		.loc 2 34 3 is_stmt 1 view .LVU525
  34:GrannyChordApp.cpp **** }
 1918              		.loc 2 34 16 is_stmt 0 view .LVU526
 1919 00e4 E069     		ldr	r0, [r4, #28]
  35:GrannyChordApp.cpp **** 
 1920              		.loc 2 35 1 view .LVU527
 1921 00e6 BDEC048B 		vldm	sp!, {d8-d9}
 1922              		.cfi_restore 82
 1923              		.cfi_restore 83
 1924              		.cfi_restore 80
 1925              		.cfi_restore 81
 1926              		.cfi_def_cfa_offset 16
 1927 00ea BDE83840 		pop	{r3, r4, r5, lr}
 1928              		.cfi_restore 14
 1929              		.cfi_restore 5
 1930              		.cfi_restore 4
 1931              		.cfi_restore 3
 1932              		.cfi_def_cfa_offset 0
 1933              	.LVL138:
  34:GrannyChordApp.cpp **** }
 1934              		.loc 2 34 16 view .LVU528
 1935 00ee FFF7FEBF 		b	_ZN5daisy8DaisyPod8StartAdcEv
 1936              	.LVL139:
 1937              	.L89:
 1938 00f2 00BF     		.align	2
 1939              	.L88:
 1940 00f4 00000000 		.word	.LC11
 1941 00f8 DB0FC940 		.word	1086918619
 1942 00fc 0000C07F 		.word	2143289344
 1943 0100 00000000 		.word	rng_state
 1944              		.cfi_endproc
 1945              	.LFE4903:
 1947              		.section	.text._ZN14GrannyChordApp18ProcessWAVPlaybackEPPfj,"ax",%progbits
 1948              		.align	1
 1949              		.global	_ZN14GrannyChordApp18ProcessWAVPlaybackEPPfj
 1950              		.syntax unified
 1951              		.thumb
 1952              		.thumb_func
 1954              	_ZN14GrannyChordApp18ProcessWAVPlaybackEPPfj:
 1955              	.LVL140:
 1956              	.LFB4928:
 337:GrannyChordApp.cpp **** 
ARM GAS  /var/folders/2p/02m_5p7958535cp2tpgps0400000gn/T//ccRuMDjw.s 			page 59


 338:GrannyChordApp.cpp **** /// @brief Master audio callback, called at audio rate, calls all audio processing methods
 339:GrannyChordApp.cpp **** /// @param in Audio input buffer
 340:GrannyChordApp.cpp **** /// @param out Audio output buffer
 341:GrannyChordApp.cpp **** /// @param size Number of samples to process in this call
 342:GrannyChordApp.cpp **** void GrannyChordApp::AudioCallback(AudioHandle::InputBuffer in, AudioHandle::OutputBuffer out, size
 343:GrannyChordApp.cpp ****   instance_->ProcessAudio(in,out,size);
 344:GrannyChordApp.cpp **** }
 345:GrannyChordApp.cpp **** 
 346:GrannyChordApp.cpp **** void GrannyChordApp::ProcessAudio(AudioHandle::InputBuffer in, AudioHandle::OutputBuffer out, size_
 347:GrannyChordApp.cpp **** 
 348:GrannyChordApp.cpp ****   switch(curr_state_){
 349:GrannyChordApp.cpp ****     case AppState::PlayWAV:
 350:GrannyChordApp.cpp ****       if (wav_playhead_>= filemgr_.GetSamplesPerChannel() -1){
 351:GrannyChordApp.cpp ****         instance_->pod_.StopAudio();
 352:GrannyChordApp.cpp ****         DebugPrint(pod_, "stopped audio > len");
 353:GrannyChordApp.cpp ****         return;
 354:GrannyChordApp.cpp ****       }
 355:GrannyChordApp.cpp ****       ProcessWAVPlayback(out,size);
 356:GrannyChordApp.cpp ****       return;  
 357:GrannyChordApp.cpp ****     case AppState::RecordIn:
 358:GrannyChordApp.cpp ****       ProcessRecordIn(in, out, size);
 359:GrannyChordApp.cpp ****       return;
 360:GrannyChordApp.cpp ****     case AppState::Synthesis:
 361:GrannyChordApp.cpp ****       ProcessSynthesis(out,size);
 362:GrannyChordApp.cpp ****       return;
 363:GrannyChordApp.cpp ****     // case AppState::ChordMode:
 364:GrannyChordApp.cpp ****     default:
 365:GrannyChordApp.cpp ****       // instance_->pod_.StopAudio();
 366:GrannyChordApp.cpp **** 
 367:GrannyChordApp.cpp ****       return;
 368:GrannyChordApp.cpp ****   }
 369:GrannyChordApp.cpp ****   
 370:GrannyChordApp.cpp **** }
 371:GrannyChordApp.cpp **** 
 372:GrannyChordApp.cpp **** 
 373:GrannyChordApp.cpp **** // /// @brief Outputs silence if app is in non audio output state
 374:GrannyChordApp.cpp **** // /// @param out Output audio buffer
 375:GrannyChordApp.cpp **** // /// @param size Number of samples to process in this call (irrelevant)
 376:GrannyChordApp.cpp **** // void GrannyChordApp::AudioIdle(AudioHandle::OutputBuffer out, size_t size){
 377:GrannyChordApp.cpp **** //   for (size_t i=0; i<size; i++){
 378:GrannyChordApp.cpp **** //     out[0][i]=out[1][i]=0.0f;
 379:GrannyChordApp.cpp **** //   }
 380:GrannyChordApp.cpp **** // }
 381:GrannyChordApp.cpp **** 
 382:GrannyChordApp.cpp **** /// @brief Process audio for WAV playback mode and increment playback position
 383:GrannyChordApp.cpp **** /// @param out Output audio buffer
 384:GrannyChordApp.cpp **** /// @param size Number of samples to process in this call
 385:GrannyChordApp.cpp **** void GrannyChordApp::ProcessWAVPlayback(AudioHandle::OutputBuffer out, size_t size){
 1957              		.loc 2 385 84 is_stmt 1 view -0
 1958              		.cfi_startproc
 1959              		@ args = 0, pretend = 0, frame = 0
 1960              		@ frame_needed = 0, uses_anonymous_args = 0
 386:GrannyChordApp.cpp ****   loadmeter.OnBlockStart();
 1961              		.loc 2 386 3 view .LVU530
 385:GrannyChordApp.cpp ****   loadmeter.OnBlockStart();
 1962              		.loc 2 385 84 is_stmt 0 view .LVU531
 1963 0000 F8B5     		push	{r3, r4, r5, r6, r7, lr}
ARM GAS  /var/folders/2p/02m_5p7958535cp2tpgps0400000gn/T//ccRuMDjw.s 			page 60


 1964              		.cfi_def_cfa_offset 24
 1965              		.cfi_offset 3, -24
 1966              		.cfi_offset 4, -20
 1967              		.cfi_offset 5, -16
 1968              		.cfi_offset 6, -12
 1969              		.cfi_offset 7, -8
 1970              		.cfi_offset 14, -4
 385:GrannyChordApp.cpp ****   loadmeter.OnBlockStart();
 1971              		.loc 2 385 84 view .LVU532
 1972 0002 0446     		mov	r4, r0
 1973              	.LVL141:
 1974              	.LBB517:
 1975              	.LBI517:
  49:../libDaisy/src/util/CpuLoadMeter.h **** 
 1976              		.loc 9 49 10 is_stmt 1 view .LVU533
 1977              	.LBB518:
  49:../libDaisy/src/util/CpuLoadMeter.h **** 
 1978              		.loc 9 49 27 view .LVU534
 1979              	.LBE518:
 1980              	.LBE517:
 385:GrannyChordApp.cpp ****   loadmeter.OnBlockStart();
 1981              		.loc 2 385 84 is_stmt 0 view .LVU535
 1982 0004 0D46     		mov	r5, r1
 1983 0006 1646     		mov	r6, r2
 1984              	.LBB520:
 1985              	.LBB519:
  49:../libDaisy/src/util/CpuLoadMeter.h **** 
 1986              		.loc 9 49 68 view .LVU536
 1987 0008 FFF7FEFF 		bl	_ZN5daisy6System7GetTickEv
 1988              	.LVL142:
  49:../libDaisy/src/util/CpuLoadMeter.h **** 
 1989              		.loc 9 49 51 view .LVU537
 1990 000c A060     		str	r0, [r4, #8]
 1991              	.LBE519:
 1992              	.LBE520:
 1993              	.LBB521:
 387:GrannyChordApp.cpp ****   for (size_t i=0; i<size; i++){
 1994              		.loc 2 387 15 view .LVU538
 1995 000e 0020     		movs	r0, #0
 1996              	.LVL143:
 1997              	.L93:
 1998              		.loc 2 387 21 is_stmt 1 discriminator 1 view .LVU539
 1999 0010 B042     		cmp	r0, r6
 2000 0012 2FD0     		beq	.L91
 388:GrannyChordApp.cpp ****     if (wav_playhead_ < filemgr_.GetSamplesPerChannel()){
 2001              		.loc 2 388 5 view .LVU540
 2002              		.loc 2 388 25 is_stmt 0 view .LVU541
 2003 0014 D4F83014 		ldr	r1, [r4, #1072]
 2004              	.LVL144:
 2005              	.LBB522:
 2006              	.LBI522:
  27:AudioFileManager.h ****     size_t GetTotalSamples() const { return header_.total_samples; }
 2007              		.loc 5 27 12 is_stmt 1 view .LVU542
 2008              	.LBB523:
  27:AudioFileManager.h ****     size_t GetTotalSamples() const { return header_.total_samples; }
 2009              		.loc 5 27 43 view .LVU543
  27:AudioFileManager.h ****     size_t GetTotalSamples() const { return header_.total_samples; }
ARM GAS  /var/folders/2p/02m_5p7958535cp2tpgps0400000gn/T//ccRuMDjw.s 			page 61


 2010              		.loc 5 27 43 is_stmt 0 view .LVU544
 2011              	.LBE523:
 2012              	.LBE522:
 2013              		.loc 2 388 9 view .LVU545
 2014 0018 D4F8F034 		ldr	r3, [r4, #1264]
 2015              	.LBB525:
 2016              	.LBB524:
  27:AudioFileManager.h ****     size_t GetTotalSamples() const { return header_.total_samples; }
 2017              		.loc 5 27 58 view .LVU546
 2018 001c 01F58051 		add	r1, r1, #4096
  27:AudioFileManager.h ****     size_t GetTotalSamples() const { return header_.total_samples; }
 2019              		.loc 5 27 82 view .LVU547
 2020 0020 B1F92870 		ldrsh	r7, [r1, #40]
 2021 0024 CA6A     		ldr	r2, [r1, #44]
 2022 0026 B2FBF7F2 		udiv	r2, r2, r7
 2023              	.LBE524:
 2024              	.LBE525:
 2025              		.loc 2 388 5 view .LVU548
 2026 002a 9342     		cmp	r3, r2
 2027 002c 20D2     		bcs	.L92
 389:GrannyChordApp.cpp ****       out[0][i] = s162f(left_buf_[wav_playhead_]);
 2028              		.loc 2 389 7 is_stmt 1 view .LVU549
 2029              	.LVL145:
 2030              	.LBB526:
 2031              	.LBI526:
 2032              		.file 11 "../libDaisy/src/daisy_core.h"
   1:../libDaisy/src/daisy_core.h **** #pragma once
   2:../libDaisy/src/daisy_core.h **** #ifndef DSY_CORE_HW_H
   3:../libDaisy/src/daisy_core.h **** #define DSY_CORE_HW_H /**< & */
   4:../libDaisy/src/daisy_core.h **** #include <stdint.h>
   5:../libDaisy/src/daisy_core.h **** #include <stdlib.h>
   6:../libDaisy/src/daisy_core.h **** 
   7:../libDaisy/src/daisy_core.h **** #if defined(_MSC_VER)
   8:../libDaisy/src/daisy_core.h **** #define FORCE_INLINE __forceinline /**< & */
   9:../libDaisy/src/daisy_core.h **** #elif defined(__clang__)
  10:../libDaisy/src/daisy_core.h **** #define FORCE_INLINE inline __attribute__((always_inline)) /**< & */
  11:../libDaisy/src/daisy_core.h **** #pragma clang diagnostic ignored "-Wduplicate-decl-specifier"
  12:../libDaisy/src/daisy_core.h **** #elif defined(__GNUC__)
  13:../libDaisy/src/daisy_core.h **** #define FORCE_INLINE inline __attribute__((always_inline)) /**< & */
  14:../libDaisy/src/daisy_core.h **** #else
  15:../libDaisy/src/daisy_core.h **** #error unknown compiler
  16:../libDaisy/src/daisy_core.h **** #endif
  17:../libDaisy/src/daisy_core.h **** 
  18:../libDaisy/src/daisy_core.h **** /** @addtogroup utility
  19:../libDaisy/src/daisy_core.h ****     @{
  20:../libDaisy/src/daisy_core.h **** */
  21:../libDaisy/src/daisy_core.h **** 
  22:../libDaisy/src/daisy_core.h **** /** Macro for area of memory that is configured as cacheless
  23:../libDaisy/src/daisy_core.h **** This should be used primarily for DMA buffers, and the like.
  24:../libDaisy/src/daisy_core.h **** */
  25:../libDaisy/src/daisy_core.h **** #define DMA_BUFFER_MEM_SECTION __attribute__((section(".sram1_bss")))
  26:../libDaisy/src/daisy_core.h **** /** 
  27:../libDaisy/src/daisy_core.h **** THE DTCM RAM section is also non-cached. However, is not suitable 
  28:../libDaisy/src/daisy_core.h **** for DMA transfers. Performance is on par with internal SRAM w/ 
  29:../libDaisy/src/daisy_core.h **** cache enabled.
  30:../libDaisy/src/daisy_core.h **** */
  31:../libDaisy/src/daisy_core.h **** #define DTCM_MEM_SECTION __attribute__((section(".dtcmram_bss")))
ARM GAS  /var/folders/2p/02m_5p7958535cp2tpgps0400000gn/T//ccRuMDjw.s 			page 62


  32:../libDaisy/src/daisy_core.h **** 
  33:../libDaisy/src/daisy_core.h **** #define FBIPMAX 0.999985f             /**< close to 1.0f-LSB at 16 bit */
  34:../libDaisy/src/daisy_core.h **** #define FBIPMIN (-FBIPMAX)            /**< - (1 - LSB) */
  35:../libDaisy/src/daisy_core.h **** #define U82F_SCALE 0.0078740f         /**< 1 / 127 */
  36:../libDaisy/src/daisy_core.h **** #define F2U8_SCALE 127.0f             /**< 128 - 1 */
  37:../libDaisy/src/daisy_core.h **** #define S82F_SCALE 0.0078125f         /**< 1 / (2**7) */
  38:../libDaisy/src/daisy_core.h **** #define F2S8_SCALE 127.0f             /**< (2 ** 7) - 1 */
  39:../libDaisy/src/daisy_core.h **** #define S162F_SCALE 3.0517578125e-05f /**< 1 / (2** 15) */
  40:../libDaisy/src/daisy_core.h **** #define F2S16_SCALE 32767.0f          /**< (2 ** 15) - 1 */
  41:../libDaisy/src/daisy_core.h **** #define F2S24_SCALE 8388608.0f        /**< 2 ** 23 */
  42:../libDaisy/src/daisy_core.h **** #define S242F_SCALE 1.192092896e-07f  /**< 1 / (2 ** 23) */
  43:../libDaisy/src/daisy_core.h **** #define S24SIGN 0x800000              /**< 2 ** 23 */
  44:../libDaisy/src/daisy_core.h **** #define S322F_SCALE 4.6566129e-10f    /**< 1 / (2** 31) */
  45:../libDaisy/src/daisy_core.h **** #define F2S32_SCALE 2147483647.f      /**< (2 ** 31) - 1 */
  46:../libDaisy/src/daisy_core.h **** 
  47:../libDaisy/src/daisy_core.h **** 
  48:../libDaisy/src/daisy_core.h **** /** shorthand macro for simplifying the reading of the left 
  49:../libDaisy/src/daisy_core.h ****  *  channel of a non-interleaved output buffer named out */
  50:../libDaisy/src/daisy_core.h **** #define OUT_L out[0]
  51:../libDaisy/src/daisy_core.h **** 
  52:../libDaisy/src/daisy_core.h **** /** shorthand macro for simplifying the reading of the right 
  53:../libDaisy/src/daisy_core.h ****  *  channel of a non-interleaved output buffer named out */
  54:../libDaisy/src/daisy_core.h **** #define OUT_R out[1]
  55:../libDaisy/src/daisy_core.h **** 
  56:../libDaisy/src/daisy_core.h **** /** shorthand macro for simplifying the reading of the left 
  57:../libDaisy/src/daisy_core.h ****  *  channel of a non-interleaved input buffer named in */
  58:../libDaisy/src/daisy_core.h **** #define IN_L in[0]
  59:../libDaisy/src/daisy_core.h **** 
  60:../libDaisy/src/daisy_core.h **** /** shorthand macro for simplifying the reading of the right 
  61:../libDaisy/src/daisy_core.h ****  *  channel of a non-interleaved input buffer named in */
  62:../libDaisy/src/daisy_core.h **** #define IN_R in[1]
  63:../libDaisy/src/daisy_core.h **** 
  64:../libDaisy/src/daisy_core.h **** /** 
  65:../libDaisy/src/daisy_core.h ****     Computes cube.
  66:../libDaisy/src/daisy_core.h ****     \param x Number to be cubed
  67:../libDaisy/src/daisy_core.h ****     \return x ^ 3
  68:../libDaisy/src/daisy_core.h **** */
  69:../libDaisy/src/daisy_core.h **** FORCE_INLINE float cube(float x)
  70:../libDaisy/src/daisy_core.h **** {
  71:../libDaisy/src/daisy_core.h ****     return (x * x) * x;
  72:../libDaisy/src/daisy_core.h **** }
  73:../libDaisy/src/daisy_core.h **** 
  74:../libDaisy/src/daisy_core.h **** /** 
  75:../libDaisy/src/daisy_core.h ****     Converts unsigned 8-bit to float
  76:../libDaisy/src/daisy_core.h ****     \param x Number to be scaled.
  77:../libDaisy/src/daisy_core.h ****     \return Scaled number.
  78:../libDaisy/src/daisy_core.h **** */
  79:../libDaisy/src/daisy_core.h **** FORCE_INLINE float u82f(uint8_t x)
  80:../libDaisy/src/daisy_core.h **** {
  81:../libDaisy/src/daisy_core.h ****     return ((float)x - 127.f) * U82F_SCALE;
  82:../libDaisy/src/daisy_core.h **** }
  83:../libDaisy/src/daisy_core.h **** 
  84:../libDaisy/src/daisy_core.h **** /**
  85:../libDaisy/src/daisy_core.h ****     Converts float to unsigned 8-bit
  86:../libDaisy/src/daisy_core.h **** */
  87:../libDaisy/src/daisy_core.h **** FORCE_INLINE uint8_t f2u8(float x)
  88:../libDaisy/src/daisy_core.h **** {
ARM GAS  /var/folders/2p/02m_5p7958535cp2tpgps0400000gn/T//ccRuMDjw.s 			page 63


  89:../libDaisy/src/daisy_core.h ****     x = x <= FBIPMIN ? FBIPMIN : x;
  90:../libDaisy/src/daisy_core.h ****     x = x >= FBIPMAX ? FBIPMAX : x;
  91:../libDaisy/src/daisy_core.h ****     return (uint8_t)((x * F2U8_SCALE) + F2U8_SCALE);
  92:../libDaisy/src/daisy_core.h **** }
  93:../libDaisy/src/daisy_core.h **** 
  94:../libDaisy/src/daisy_core.h **** 
  95:../libDaisy/src/daisy_core.h **** /** 
  96:../libDaisy/src/daisy_core.h ****     Converts Signed 8-bit to float
  97:../libDaisy/src/daisy_core.h ****     \param x Number to be scaled.
  98:../libDaisy/src/daisy_core.h ****     \return Scaled number.
  99:../libDaisy/src/daisy_core.h **** */
 100:../libDaisy/src/daisy_core.h **** FORCE_INLINE float s82f(int8_t x)
 101:../libDaisy/src/daisy_core.h **** {
 102:../libDaisy/src/daisy_core.h ****     return (float)x * S82F_SCALE;
 103:../libDaisy/src/daisy_core.h **** }
 104:../libDaisy/src/daisy_core.h **** 
 105:../libDaisy/src/daisy_core.h **** /**
 106:../libDaisy/src/daisy_core.h ****     Converts float to Signed 8-bit
 107:../libDaisy/src/daisy_core.h **** */
 108:../libDaisy/src/daisy_core.h **** FORCE_INLINE int8_t f2s8(float x)
 109:../libDaisy/src/daisy_core.h **** {
 110:../libDaisy/src/daisy_core.h ****     x = x <= FBIPMIN ? FBIPMIN : x;
 111:../libDaisy/src/daisy_core.h ****     x = x >= FBIPMAX ? FBIPMAX : x;
 112:../libDaisy/src/daisy_core.h ****     return (int32_t)(x * F2S8_SCALE);
 113:../libDaisy/src/daisy_core.h **** }
 114:../libDaisy/src/daisy_core.h **** 
 115:../libDaisy/src/daisy_core.h **** /** 
 116:../libDaisy/src/daisy_core.h ****     Converts Signed 16-bit to float
 117:../libDaisy/src/daisy_core.h ****     \param x Number to be scaled.
 118:../libDaisy/src/daisy_core.h ****     \return Scaled number.
 119:../libDaisy/src/daisy_core.h **** */
 120:../libDaisy/src/daisy_core.h **** FORCE_INLINE float s162f(int16_t x)
 2033              		.loc 11 120 20 view .LVU550
 2034              	.LBB527:
 121:../libDaisy/src/daisy_core.h **** {
 122:../libDaisy/src/daisy_core.h ****     return (float)x * S162F_SCALE;
 2035              		.loc 11 122 5 view .LVU551
 2036              		.loc 11 122 5 is_stmt 0 view .LVU552
 2037              	.LBE527:
 2038              	.LBE526:
 2039              		.loc 2 389 24 view .LVU553
 2040 002e D4F8E014 		ldr	r1, [r4, #1248]
 2041              	.LBB532:
 2042              	.LBB528:
 2043              		.loc 11 122 23 view .LVU554
 2044 0032 DFED2C6A 		vldr.32	s13, .L103
 2045              		.loc 11 122 12 view .LVU555
 2046 0036 31F91310 		ldrsh	r1, [r1, r3, lsl #1]
 2047              	.LBE528:
 2048              	.LBE532:
 2049              		.loc 2 389 17 view .LVU556
 2050 003a 2A68     		ldr	r2, [r5]
 2051              	.LBB533:
 2052              	.LBB529:
 2053              		.loc 11 122 12 view .LVU557
 2054 003c 07EE101A 		vmov	s14, r1	@ int
 2055              	.LBE529:
ARM GAS  /var/folders/2p/02m_5p7958535cp2tpgps0400000gn/T//ccRuMDjw.s 			page 64


 2056              	.LBE533:
 390:GrannyChordApp.cpp ****       out[1][1] = s162f(right_buf_[wav_playhead_]);
 2057              		.loc 2 390 24 view .LVU558
 2058 0040 D4F8E414 		ldr	r1, [r4, #1252]
 389:GrannyChordApp.cpp ****       out[1][1] = s162f(right_buf_[wav_playhead_]);
 2059              		.loc 2 389 17 view .LVU559
 2060 0044 02EB8002 		add	r2, r2, r0, lsl #2
 2061              	.LBB534:
 2062              	.LBB535:
 2063              		.loc 11 122 12 view .LVU560
 2064 0048 31F91310 		ldrsh	r1, [r1, r3, lsl #1]
 2065              	.LBE535:
 2066              	.LBE534:
 2067              	.LBB539:
 2068              	.LBB530:
 2069 004c B8EEC77A 		vcvt.f32.s32	s14, s14
 2070              	.LBE530:
 2071              	.LBE539:
 391:GrannyChordApp.cpp ****       wav_playhead_++;
 2072              		.loc 2 391 20 view .LVU561
 2073 0050 0133     		adds	r3, r3, #1
 2074              	.LBB540:
 2075              	.LBB536:
 2076              		.loc 11 122 12 view .LVU562
 2077 0052 07EE901A 		vmov	s15, r1	@ int
 2078              	.LBE536:
 2079              	.LBE540:
 2080              	.LBB541:
 2081              	.LBB531:
 2082              		.loc 11 122 23 view .LVU563
 2083 0056 27EE267A 		vmul.f32	s14, s14, s13
 2084              	.LBE531:
 2085              	.LBE541:
 2086              	.LBB542:
 2087              	.LBB537:
 2088              		.loc 11 122 12 view .LVU564
 2089 005a F8EEE77A 		vcvt.f32.s32	s15, s15
 2090              	.LBE537:
 2091              	.LBE542:
 389:GrannyChordApp.cpp ****       out[1][1] = s162f(right_buf_[wav_playhead_]);
 2092              		.loc 2 389 17 view .LVU565
 2093 005e 82ED007A 		vstr.32	s14, [r2]
 390:GrannyChordApp.cpp ****       out[1][1] = s162f(right_buf_[wav_playhead_]);
 2094              		.loc 2 390 7 is_stmt 1 view .LVU566
 2095              	.LVL146:
 2096              	.LBB543:
 2097              	.LBI534:
 120:../libDaisy/src/daisy_core.h **** {
 2098              		.loc 11 120 20 view .LVU567
 2099              	.LBB538:
 2100              		.loc 11 122 5 view .LVU568
 2101              		.loc 11 122 23 is_stmt 0 view .LVU569
 2102 0062 67EEA67A 		vmul.f32	s15, s15, s13
 2103              	.LBE538:
 2104              	.LBE543:
 390:GrannyChordApp.cpp ****       wav_playhead_++;
 2105              		.loc 2 390 17 view .LVU570
ARM GAS  /var/folders/2p/02m_5p7958535cp2tpgps0400000gn/T//ccRuMDjw.s 			page 65


 2106 0066 6A68     		ldr	r2, [r5, #4]
 2107 0068 C2ED017A 		vstr.32	s15, [r2, #4]
 2108              		.loc 2 391 7 is_stmt 1 view .LVU571
 2109              		.loc 2 391 20 is_stmt 0 view .LVU572
 2110 006c C4F8F034 		str	r3, [r4, #1264]
 2111              	.L92:
 387:GrannyChordApp.cpp ****     if (wav_playhead_ < filemgr_.GetSamplesPerChannel()){
 2112              		.loc 2 387 3 is_stmt 1 discriminator 2 view .LVU573
 2113 0070 0130     		adds	r0, r0, #1
 2114              	.LVL147:
 387:GrannyChordApp.cpp ****     if (wav_playhead_ < filemgr_.GetSamplesPerChannel()){
 2115              		.loc 2 387 3 is_stmt 0 discriminator 2 view .LVU574
 2116 0072 CDE7     		b	.L93
 2117              	.L91:
 387:GrannyChordApp.cpp ****     if (wav_playhead_ < filemgr_.GetSamplesPerChannel()){
 2118              		.loc 2 387 3 discriminator 2 view .LVU575
 2119              	.LBE521:
 392:GrannyChordApp.cpp ****     }
 393:GrannyChordApp.cpp ****   }
 394:GrannyChordApp.cpp ****   loadmeter.OnBlockEnd();
 2120              		.loc 2 394 3 is_stmt 1 view .LVU576
 2121              	.LVL148:
 2122              	.LBB544:
 2123              	.LBI544:
  52:../libDaisy/src/util/CpuLoadMeter.h ****     {
 2124              		.loc 9 52 10 view .LVU577
 2125              	.LBB545:
  54:../libDaisy/src/util/CpuLoadMeter.h ****         const auto ticksPassed = end - currentBlockStartTicks_;
 2126              		.loc 9 54 9 view .LVU578
  54:../libDaisy/src/util/CpuLoadMeter.h ****         const auto ticksPassed = end - currentBlockStartTicks_;
 2127              		.loc 9 54 49 is_stmt 0 view .LVU579
 2128 0074 FFF7FEFF 		bl	_ZN5daisy6System7GetTickEv
 2129              	.LVL149:
  55:../libDaisy/src/util/CpuLoadMeter.h ****         const auto currentBlockLoad
 2130              		.loc 9 55 9 is_stmt 1 view .LVU580
  56:../libDaisy/src/util/CpuLoadMeter.h ****             = float(ticksPassed) * ticksPerBlockInv_; // usPassed / usPerBlock
 2131              		.loc 9 56 9 view .LVU581
  55:../libDaisy/src/util/CpuLoadMeter.h ****         const auto currentBlockLoad
 2132              		.loc 9 55 20 is_stmt 0 view .LVU582
 2133 0078 A368     		ldr	r3, [r4, #8]
  56:../libDaisy/src/util/CpuLoadMeter.h ****             = float(ticksPassed) * ticksPerBlockInv_; // usPassed / usPerBlock
 2134              		.loc 9 56 20 view .LVU583
 2135 007a 94ED017A 		vldr.32	s14, [r4, #4]
  55:../libDaisy/src/util/CpuLoadMeter.h ****         const auto currentBlockLoad
 2136              		.loc 9 55 20 view .LVU584
 2137 007e C31A     		subs	r3, r0, r3
 2138              	.LVL150:
  55:../libDaisy/src/util/CpuLoadMeter.h ****         const auto currentBlockLoad
 2139              		.loc 9 55 20 view .LVU585
 2140 0080 07EE903A 		vmov	s15, r3	@ int
  59:../libDaisy/src/util/CpuLoadMeter.h ****         {
 2141              		.loc 9 59 9 view .LVU586
 2142 0084 2378     		ldrb	r3, [r4]	@ zero_extendqisi2
 2143              	.LVL151:
  57:../libDaisy/src/util/CpuLoadMeter.h **** 
 2144              		.loc 9 57 15 view .LVU587
 2145 0086 F8EE677A 		vcvt.f32.u32	s15, s15
ARM GAS  /var/folders/2p/02m_5p7958535cp2tpgps0400000gn/T//ccRuMDjw.s 			page 66


 2146              	.LVL152:
  56:../libDaisy/src/util/CpuLoadMeter.h ****             = float(ticksPassed) * ticksPerBlockInv_; // usPassed / usPerBlock
 2147              		.loc 9 56 20 view .LVU588
 2148 008a 67EE877A 		vmul.f32	s15, s15, s14
 2149              	.LVL153:
  59:../libDaisy/src/util/CpuLoadMeter.h ****         {
 2150              		.loc 9 59 9 is_stmt 1 view .LVU589
 2151 008e 43B1     		cbz	r3, .L94
  61:../libDaisy/src/util/CpuLoadMeter.h ****             firstCycle_        = false;
 2152              		.loc 9 61 13 view .LVU590
  62:../libDaisy/src/util/CpuLoadMeter.h ****         }
 2153              		.loc 9 62 32 is_stmt 0 view .LVU591
 2154 0090 0023     		movs	r3, #0
  61:../libDaisy/src/util/CpuLoadMeter.h ****             firstCycle_        = false;
 2155              		.loc 9 61 32 view .LVU592
 2156 0092 C4ED057A 		vstr.32	s15, [r4, #20]
  61:../libDaisy/src/util/CpuLoadMeter.h ****             firstCycle_        = false;
 2157              		.loc 9 61 25 view .LVU593
 2158 0096 C4ED037A 		vstr.32	s15, [r4, #12]
  61:../libDaisy/src/util/CpuLoadMeter.h ****             firstCycle_        = false;
 2159              		.loc 9 61 18 view .LVU594
 2160 009a C4ED047A 		vstr.32	s15, [r4, #16]
  62:../libDaisy/src/util/CpuLoadMeter.h ****         }
 2161              		.loc 9 62 13 is_stmt 1 view .LVU595
  62:../libDaisy/src/util/CpuLoadMeter.h ****         }
 2162              		.loc 9 62 32 is_stmt 0 view .LVU596
 2163 009e 2370     		strb	r3, [r4]
 2164              	.LVL154:
 2165              	.L90:
  62:../libDaisy/src/util/CpuLoadMeter.h ****         }
 2166              		.loc 9 62 32 view .LVU597
 2167              	.LBE545:
 2168              	.LBE544:
 395:GrannyChordApp.cpp **** }
 2169              		.loc 2 395 1 view .LVU598
 2170 00a0 F8BD     		pop	{r3, r4, r5, r6, r7, pc}
 2171              	.LVL155:
 2172              	.L94:
 2173              	.LBB547:
 2174              	.LBB546:
  66:../libDaisy/src/util/CpuLoadMeter.h ****                 max_ = currentBlockLoad;
 2175              		.loc 9 66 13 is_stmt 1 view .LVU599
 2176 00a2 94ED047A 		vldr.32	s14, [r4, #16]
  71:../libDaisy/src/util/CpuLoadMeter.h ****                    + (1.0f - smoothingConstant_) * avg_;
 2177              		.loc 9 71 20 is_stmt 0 view .LVU600
 2178 00a6 D4ED066A 		vldr.32	s13, [r4, #24]
  66:../libDaisy/src/util/CpuLoadMeter.h ****                 max_ = currentBlockLoad;
 2179              		.loc 9 66 13 view .LVU601
 2180 00aa F4EEC77A 		vcmpe.f32	s15, s14
  68:../libDaisy/src/util/CpuLoadMeter.h ****                 min_ = currentBlockLoad;
 2181              		.loc 9 68 13 view .LVU602
 2182 00ae 94ED037A 		vldr.32	s14, [r4, #12]
  72:../libDaisy/src/util/CpuLoadMeter.h ****         }
 2183              		.loc 9 72 50 view .LVU603
 2184 00b2 94ED056A 		vldr.32	s12, [r4, #20]
  66:../libDaisy/src/util/CpuLoadMeter.h ****                 max_ = currentBlockLoad;
 2185              		.loc 9 66 13 view .LVU604
ARM GAS  /var/folders/2p/02m_5p7958535cp2tpgps0400000gn/T//ccRuMDjw.s 			page 67


 2186 00b6 F1EE10FA 		vmrs	APSR_nzcv, FPSCR
  67:../libDaisy/src/util/CpuLoadMeter.h ****             if(currentBlockLoad < min_)
 2187              		.loc 9 67 17 is_stmt 1 view .LVU605
  68:../libDaisy/src/util/CpuLoadMeter.h ****                 min_ = currentBlockLoad;
 2188              		.loc 9 68 13 is_stmt 0 view .LVU606
 2189 00ba F4EEC77A 		vcmpe.f32	s15, s14
  72:../libDaisy/src/util/CpuLoadMeter.h ****         }
 2190              		.loc 9 72 28 view .LVU607
 2191 00be B7EE007A 		vmov.f32	s14, #1.0e+0
  67:../libDaisy/src/util/CpuLoadMeter.h ****             if(currentBlockLoad < min_)
 2192              		.loc 9 67 22 view .LVU608
 2193 00c2 C8BF     		it	gt
 2194 00c4 C4ED047A 		vstrgt.32	s15, [r4, #16]
  68:../libDaisy/src/util/CpuLoadMeter.h ****                 min_ = currentBlockLoad;
 2195              		.loc 9 68 13 is_stmt 1 view .LVU609
 2196 00c8 F1EE10FA 		vmrs	APSR_nzcv, FPSCR
  69:../libDaisy/src/util/CpuLoadMeter.h **** 
 2197              		.loc 9 69 17 view .LVU610
  72:../libDaisy/src/util/CpuLoadMeter.h ****         }
 2198              		.loc 9 72 28 is_stmt 0 view .LVU611
 2199 00cc 37EE667A 		vsub.f32	s14, s14, s13
  69:../libDaisy/src/util/CpuLoadMeter.h **** 
 2200              		.loc 9 69 22 view .LVU612
 2201 00d0 48BF     		it	mi
 2202 00d2 C4ED037A 		vstrmi.32	s15, [r4, #12]
  71:../libDaisy/src/util/CpuLoadMeter.h ****                    + (1.0f - smoothingConstant_) * avg_;
 2203              		.loc 9 71 13 is_stmt 1 view .LVU613
  72:../libDaisy/src/util/CpuLoadMeter.h ****         }
 2204              		.loc 9 72 50 is_stmt 0 view .LVU614
 2205 00d6 27EE067A 		vmul.f32	s14, s14, s12
  72:../libDaisy/src/util/CpuLoadMeter.h ****         }
 2206              		.loc 9 72 20 view .LVU615
 2207 00da A7EEA67A 		vfma.f32	s14, s15, s13
  71:../libDaisy/src/util/CpuLoadMeter.h ****                    + (1.0f - smoothingConstant_) * avg_;
 2208              		.loc 9 71 18 view .LVU616
 2209 00de 84ED057A 		vstr.32	s14, [r4, #20]
 2210              	.LVL156:
  71:../libDaisy/src/util/CpuLoadMeter.h ****                    + (1.0f - smoothingConstant_) * avg_;
 2211              		.loc 9 71 18 view .LVU617
 2212              	.LBE546:
 2213              	.LBE547:
 2214              		.loc 2 395 1 view .LVU618
 2215 00e2 DDE7     		b	.L90
 2216              	.L104:
 2217              		.align	2
 2218              	.L103:
 2219 00e4 00000038 		.word	939524096
 2220              		.cfi_endproc
 2221              	.LFE4928:
 2223              		.section	.text._ZN14GrannyChordApp15ProcessRecordInEPKPKfPPfj,"ax",%progbits
 2224              		.align	1
 2225              		.global	_ZN14GrannyChordApp15ProcessRecordInEPKPKfPPfj
 2226              		.syntax unified
 2227              		.thumb
 2228              		.thumb_func
 2230              	_ZN14GrannyChordApp15ProcessRecordInEPKPKfPPfj:
 2231              	.LVL157:
ARM GAS  /var/folders/2p/02m_5p7958535cp2tpgps0400000gn/T//ccRuMDjw.s 			page 68


 2232              	.LFB4929:
 396:GrannyChordApp.cpp **** 
 397:GrannyChordApp.cpp **** /// @brief Process input audio when app is in RecordIn state
 398:GrannyChordApp.cpp **** /// @param in Input audio buffer
 399:GrannyChordApp.cpp **** /// @param out Output audio buffer
 400:GrannyChordApp.cpp **** /// @param size Number of samples to process in this call
 401:GrannyChordApp.cpp **** void GrannyChordApp::ProcessRecordIn(AudioHandle::InputBuffer in, AudioHandle::OutputBuffer out, si
 2233              		.loc 2 401 110 is_stmt 1 view -0
 2234              		.cfi_startproc
 2235              		@ args = 0, pretend = 0, frame = 0
 2236              		@ frame_needed = 0, uses_anonymous_args = 0
 402:GrannyChordApp.cpp ****   const size_t MAX_RECORDING_LEN = 120*48000; /* 120s @ 48kHZ */
 2237              		.loc 2 402 3 view .LVU620
 403:GrannyChordApp.cpp ****   for (size_t i=0; i<size;i++){
 2238              		.loc 2 403 3 view .LVU621
 401:GrannyChordApp.cpp ****   const size_t MAX_RECORDING_LEN = 120*48000; /* 120s @ 48kHZ */
 2239              		.loc 2 401 110 is_stmt 0 view .LVU622
 2240 0000 F0B5     		push	{r4, r5, r6, r7, lr}
 2241              		.cfi_def_cfa_offset 20
 2242              		.cfi_offset 4, -20
 2243              		.cfi_offset 5, -16
 2244              		.cfi_offset 6, -12
 2245              		.cfi_offset 7, -8
 2246              		.cfi_offset 14, -4
 2247              	.LBB548:
 2248              		.loc 2 403 15 view .LVU623
 2249 0002 0025     		movs	r5, #0
 2250              	.LVL158:
 2251              	.L107:
 2252              		.loc 2 403 21 is_stmt 1 discriminator 3 view .LVU624
 2253 0004 9D42     		cmp	r5, r3
 2254 0006 31D0     		beq	.L105
 404:GrannyChordApp.cpp ****     /* send audio in straight to output for monitoring */
 405:GrannyChordApp.cpp ****     out[0][i]=in[0][i];
 2255              		.loc 2 405 5 discriminator 2 view .LVU625
 2256              		.loc 2 405 22 is_stmt 0 discriminator 2 view .LVU626
 2257 0008 0E68     		ldr	r6, [r1]
 406:GrannyChordApp.cpp ****     out[1][i]=in[1][i];
 407:GrannyChordApp.cpp **** 
 408:GrannyChordApp.cpp ****     /* record audio in to SDRAM buffers */
 409:GrannyChordApp.cpp ****     left_buf_[record_in_pos_] = in[0][i];
 2258              		.loc 2 409 15 discriminator 2 view .LVU627
 2259 000a 00F5004C 		add	ip, r0, #32768
 405:GrannyChordApp.cpp ****     out[1][i]=in[1][i];
 2260              		.loc 2 405 14 discriminator 2 view .LVU628
 2261 000e 1468     		ldr	r4, [r2]
 405:GrannyChordApp.cpp ****     out[1][i]=in[1][i];
 2262              		.loc 2 405 22 discriminator 2 view .LVU629
 2263 0010 06EB8506 		add	r6, r6, r5, lsl #2
 405:GrannyChordApp.cpp ****     out[1][i]=in[1][i];
 2264              		.loc 2 405 14 discriminator 2 view .LVU630
 2265 0014 04EB8504 		add	r4, r4, r5, lsl #2
 405:GrannyChordApp.cpp ****     out[1][i]=in[1][i];
 2266              		.loc 2 405 22 discriminator 2 view .LVU631
 2267 0018 3768     		ldr	r7, [r6]	@ float
 405:GrannyChordApp.cpp ****     out[1][i]=in[1][i];
 2268              		.loc 2 405 14 discriminator 2 view .LVU632
ARM GAS  /var/folders/2p/02m_5p7958535cp2tpgps0400000gn/T//ccRuMDjw.s 			page 69


 2269 001a 2760     		str	r7, [r4]	@ float
 406:GrannyChordApp.cpp ****     out[1][i]=in[1][i];
 2270              		.loc 2 406 5 is_stmt 1 discriminator 2 view .LVU633
 406:GrannyChordApp.cpp ****     out[1][i]=in[1][i];
 2271              		.loc 2 406 22 is_stmt 0 discriminator 2 view .LVU634
 2272 001c 4C68     		ldr	r4, [r1, #4]
 2273              		.loc 2 409 31 discriminator 2 view .LVU635
 2274 001e D0F8E074 		ldr	r7, [r0, #1248]
 406:GrannyChordApp.cpp ****     out[1][i]=in[1][i];
 2275              		.loc 2 406 22 discriminator 2 view .LVU636
 2276 0022 04EB8504 		add	r4, r4, r5, lsl #2
 2277 0026 D4ED007A 		vldr.32	s15, [r4]
 406:GrannyChordApp.cpp ****     out[1][i]=in[1][i];
 2278              		.loc 2 406 14 discriminator 2 view .LVU637
 2279 002a 5468     		ldr	r4, [r2, #4]
 2280 002c 04EB8504 		add	r4, r4, r5, lsl #2
 403:GrannyChordApp.cpp ****     /* send audio in straight to output for monitoring */
 2281              		.loc 2 403 3 discriminator 2 view .LVU638
 2282 0030 0135     		adds	r5, r5, #1
 2283              	.LVL159:
 406:GrannyChordApp.cpp ****     out[1][i]=in[1][i];
 2284              		.loc 2 406 14 discriminator 2 view .LVU639
 2285 0032 C4ED007A 		vstr.32	s15, [r4]
 2286              		.loc 2 409 5 is_stmt 1 discriminator 2 view .LVU640
 410:GrannyChordApp.cpp ****     right_buf_[record_in_pos_] = in[1][i];
 2287              		.loc 2 410 32 is_stmt 0 discriminator 2 view .LVU641
 2288 0036 FDEEE77A 		vcvt.s32.f32	s15, s15
 409:GrannyChordApp.cpp ****     right_buf_[record_in_pos_] = in[1][i];
 2289              		.loc 2 409 31 discriminator 2 view .LVU642
 2290 003a 96ED007A 		vldr.32	s14, [r6]
 409:GrannyChordApp.cpp ****     right_buf_[record_in_pos_] = in[1][i];
 2291              		.loc 2 409 15 discriminator 2 view .LVU643
 2292 003e DCF82848 		ldr	r4, [ip, #2088]
 409:GrannyChordApp.cpp ****     right_buf_[record_in_pos_] = in[1][i];
 2293              		.loc 2 409 31 discriminator 2 view .LVU644
 2294 0042 BDEEC77A 		vcvt.s32.f32	s14, s14
 2295 0046 17EE106A 		vmov	r6, s14	@ int
 2296 004a 27F81460 		strh	r6, [r7, r4, lsl #1]	@ movhi
 2297              		.loc 2 410 5 is_stmt 1 discriminator 2 view .LVU645
 2298              		.loc 2 410 32 is_stmt 0 discriminator 2 view .LVU646
 2299 004e 17EE907A 		vmov	r7, s15	@ int
 2300 0052 D0F8E464 		ldr	r6, [r0, #1252]
 2301 0056 26F81470 		strh	r7, [r6, r4, lsl #1]	@ movhi
 411:GrannyChordApp.cpp **** 
 412:GrannyChordApp.cpp ****     /* wrap around recording length - if it exceeds 120s,
 413:GrannyChordApp.cpp ****       the start of the recording will be overwritten */
 414:GrannyChordApp.cpp ****     record_in_pos_ = (record_in_pos_+1)%MAX_RECORDING_LEN;
 2302              		.loc 2 414 5 is_stmt 1 discriminator 2 view .LVU647
 2303              		.loc 2 414 37 is_stmt 0 discriminator 2 view .LVU648
 2304 005a 0134     		adds	r4, r4, #1
 2305              		.loc 2 414 40 discriminator 2 view .LVU649
 2306 005c 044E     		ldr	r6, .L109
 2307 005e B4FBF6F7 		udiv	r7, r4, r6
 2308 0062 06FB1744 		mls	r4, r6, r7, r4
 2309              		.loc 2 414 20 discriminator 2 view .LVU650
 2310 0066 CCF82848 		str	r4, [ip, #2088]
 403:GrannyChordApp.cpp ****     /* send audio in straight to output for monitoring */
ARM GAS  /var/folders/2p/02m_5p7958535cp2tpgps0400000gn/T//ccRuMDjw.s 			page 70


 2311              		.loc 2 403 3 is_stmt 1 discriminator 2 view .LVU651
 2312              	.LVL160:
 403:GrannyChordApp.cpp ****     /* send audio in straight to output for monitoring */
 2313              		.loc 2 403 3 is_stmt 0 discriminator 2 view .LVU652
 2314 006a CBE7     		b	.L107
 2315              	.L105:
 403:GrannyChordApp.cpp ****     /* send audio in straight to output for monitoring */
 2316              		.loc 2 403 3 discriminator 2 view .LVU653
 2317              	.LBE548:
 415:GrannyChordApp.cpp ****   }
 416:GrannyChordApp.cpp **** }
 2318              		.loc 2 416 1 view .LVU654
 2319 006c F0BD     		pop	{r4, r5, r6, r7, pc}
 2320              	.LVL161:
 2321              	.L110:
 2322              		.loc 2 416 1 view .LVU655
 2323 006e 00BF     		.align	2
 2324              	.L109:
 2325 0070 00E45700 		.word	5760000
 2326              		.cfi_endproc
 2327              	.LFE4929:
 2329              		.section	.text._ZN14GrannyChordApp16ProcessSynthesisEPPfj,"ax",%progbits
 2330              		.align	1
 2331              		.global	_ZN14GrannyChordApp16ProcessSynthesisEPPfj
 2332              		.syntax unified
 2333              		.thumb
 2334              		.thumb_func
 2336              	_ZN14GrannyChordApp16ProcessSynthesisEPPfj:
 2337              	.LVL162:
 2338              	.LFB4930:
 417:GrannyChordApp.cpp **** 
 418:GrannyChordApp.cpp **** /// @brief Process audio through granular synth and mix to output buffer
 419:GrannyChordApp.cpp **** /// @param out Output audio buffer
 420:GrannyChordApp.cpp **** /// @param size Number of samples to process in this call
 421:GrannyChordApp.cpp **** void GrannyChordApp::ProcessSynthesis(AudioHandle::OutputBuffer out, size_t size){
 2339              		.loc 2 421 82 is_stmt 1 view -0
 2340              		.cfi_startproc
 2341              		@ args = 0, pretend = 0, frame = 24
 2342              		@ frame_needed = 0, uses_anonymous_args = 0
 422:GrannyChordApp.cpp ****   for (size_t i=0; i<size; i++){ 
 2343              		.loc 2 422 3 view .LVU657
 421:GrannyChordApp.cpp ****   for (size_t i=0; i<size; i++){ 
 2344              		.loc 2 421 82 is_stmt 0 view .LVU658
 2345 0000 2DE9F04F 		push	{r4, r5, r6, r7, r8, r9, r10, fp, lr}
 2346              		.cfi_def_cfa_offset 36
 2347              		.cfi_offset 4, -36
 2348              		.cfi_offset 5, -32
 2349              		.cfi_offset 6, -28
 2350              		.cfi_offset 7, -24
 2351              		.cfi_offset 8, -20
 2352              		.cfi_offset 9, -16
 2353              		.cfi_offset 10, -12
 2354              		.cfi_offset 11, -8
 2355              		.cfi_offset 14, -4
 2356 0004 0446     		mov	r4, r0
 2357 0006 0D46     		mov	r5, r1
 2358 0008 9346     		mov	fp, r2
ARM GAS  /var/folders/2p/02m_5p7958535cp2tpgps0400000gn/T//ccRuMDjw.s 			page 71


 2359              	.LBB563:
 2360              		.loc 2 422 15 view .LVU659
 2361 000a 0026     		movs	r6, #0
 2362              	.LBE563:
 421:GrannyChordApp.cpp ****   for (size_t i=0; i<size; i++){ 
 2363              		.loc 2 421 82 view .LVU660
 2364 000c 2DED028B 		vpush.64	{d8}
 2365              		.cfi_def_cfa_offset 44
 2366              		.cfi_offset 80, -44
 2367              		.cfi_offset 81, -40
 2368 0010 89B0     		sub	sp, sp, #36
 2369              		.cfi_def_cfa_offset 80
 2370              	.LVL163:
 2371              	.L126:
 2372              	.LBB597:
 2373              		.loc 2 422 21 is_stmt 1 discriminator 1 view .LVU661
 2374 0012 5E45     		cmp	r6, fp
 2375 0014 00F0CB80 		beq	.L111
 2376              	.LBB564:
 423:GrannyChordApp.cpp ****     Sample samp = synth_.ProcessGrains();
 2377              		.loc 2 423 5 view .LVU662
 2378              		.loc 2 423 40 is_stmt 0 view .LVU663
 2379 0018 04F12000 		add	r0, r4, #32
 2380 001c 4FEA8608 		lsl	r8, r6, #2
 2381 0020 FFF7FEFF 		bl	_ZN13GranularSynth13ProcessGrainsEv
 2382              	.LVL164:
 424:GrannyChordApp.cpp ****     // out[0][i] = comp_.Process(samp.left);
 425:GrannyChordApp.cpp ****     out[0][i] = samp.left;
 2383              		.loc 2 425 15 view .LVU664
 2384 0024 2B68     		ldr	r3, [r5]
 423:GrannyChordApp.cpp ****     Sample samp = synth_.ProcessGrains();
 2385              		.loc 2 423 40 view .LVU665
 2386 0026 B0EE608A 		vmov.f32	s16, s1
 426:GrannyChordApp.cpp ****     // out[1][i] = comp_.Process(samp.right);
 427:GrannyChordApp.cpp ****     out[1][i] = samp.right;
 428:GrannyChordApp.cpp ****     reverb_.ProcessMix
 429:GrannyChordApp.cpp ****       (comp_.Process(samp.left), comp_.Process(samp.right),
 2387              		.loc 2 429 21 view .LVU666
 2388 002a 04F58960 		add	r0, r4, #1096
 425:GrannyChordApp.cpp ****     // out[1][i] = comp_.Process(samp.right);
 2389              		.loc 2 425 15 view .LVU667
 2390 002e 03EB8603 		add	r3, r3, r6, lsl #2
 423:GrannyChordApp.cpp ****     // out[0][i] = comp_.Process(samp.left);
 2391              		.loc 2 423 40 view .LVU668
 2392 0032 CDED070A 		vstr.32	s1, [sp, #28]
 2393              	.LVL165:
 425:GrannyChordApp.cpp ****     // out[1][i] = comp_.Process(samp.right);
 2394              		.loc 2 425 5 is_stmt 1 view .LVU669
 428:GrannyChordApp.cpp ****       (comp_.Process(samp.left), comp_.Process(samp.right),
 2395              		.loc 2 428 5 is_stmt 0 view .LVU670
 2396 0036 D4F88894 		ldr	r9, [r4, #1160]
 425:GrannyChordApp.cpp ****     // out[1][i] = comp_.Process(samp.right);
 2397              		.loc 2 425 15 view .LVU671
 2398 003a 83ED000A 		vstr.32	s0, [r3]
 427:GrannyChordApp.cpp ****     reverb_.ProcessMix
 2399              		.loc 2 427 5 is_stmt 1 view .LVU672
 427:GrannyChordApp.cpp ****     reverb_.ProcessMix
ARM GAS  /var/folders/2p/02m_5p7958535cp2tpgps0400000gn/T//ccRuMDjw.s 			page 72


 2400              		.loc 2 427 15 is_stmt 0 view .LVU673
 2401 003e 6B68     		ldr	r3, [r5, #4]
 2402              		.loc 2 429 21 view .LVU674
 2403 0040 0390     		str	r0, [sp, #12]
 427:GrannyChordApp.cpp ****     reverb_.ProcessMix
 2404              		.loc 2 427 15 view .LVU675
 2405 0042 03EB8603 		add	r3, r3, r6, lsl #2
 423:GrannyChordApp.cpp ****     // out[0][i] = comp_.Process(samp.left);
 2406              		.loc 2 423 40 view .LVU676
 2407 0046 8DED060A 		vstr.32	s0, [sp, #24]
 427:GrannyChordApp.cpp ****     reverb_.ProcessMix
 2408              		.loc 2 427 15 view .LVU677
 2409 004a C3ED000A 		vstr.32	s1, [r3]
 428:GrannyChordApp.cpp ****       (comp_.Process(samp.left), comp_.Process(samp.right),
 2410              		.loc 2 428 5 is_stmt 1 view .LVU678
 2411              		.loc 2 429 21 is_stmt 0 view .LVU679
 2412 004e FFF7FEFF 		bl	_ZN7daisysp10Compressor7ProcessEf
 2413              	.LVL166:
 2414              		.loc 2 429 47 view .LVU680
 2415 0052 0398     		ldr	r0, [sp, #12]
 2416              		.loc 2 429 21 view .LVU681
 2417 0054 8DED040A 		vstr.32	s0, [sp, #16]
 2418              		.loc 2 429 47 view .LVU682
 2419 0058 B0EE480A 		vmov.f32	s0, s16
 2420 005c FFF7FEFF 		bl	_ZN7daisysp10Compressor7ProcessEf
 2421              	.LVL167:
 2422              		.loc 2 429 7 view .LVU683
 2423 0060 04A9     		add	r1, sp, #16
 2424 0062 4846     		mov	r0, r9
 2425              		.loc 2 429 47 view .LVU684
 2426 0064 8DED050A 		vstr.32	s0, [sp, #20]
 2427              		.loc 2 429 7 view .LVU685
 2428 0068 D5E90032 		ldrd	r3, r2, [r5]
 2429 006c 4244     		add	r2, r2, r8
 2430 006e 4344     		add	r3, r3, r8
 2431 0070 0092     		str	r2, [sp]
 2432 0072 05AA     		add	r2, sp, #20
 2433 0074 FFF7FEFF 		bl	_ZN7daisysp8ReverbSc10ProcessMixERKfS2_PfS3_
 2434              	.LVL168:
 430:GrannyChordApp.cpp ****       &out[0][i], &out[1][i]);
 431:GrannyChordApp.cpp ****     
 432:GrannyChordApp.cpp ****     if (recording_out_ && sd_writer_.GetLengthSeconds()<120){
 2435              		.loc 2 432 5 is_stmt 1 view .LVU686
 2436              		.loc 2 432 9 is_stmt 0 view .LVU687
 2437 0078 04F50041 		add	r1, r4, #32768
 2438              		.loc 2 432 24 view .LVU688
 2439 007c 91F82C38 		ldrb	r3, [r1, #2092]	@ zero_extendqisi2
 2440 0080 002B     		cmp	r3, #0
 2441 0082 00F09280 		beq	.L114
 2442              	.LVL169:
 2443              	.LBB565:
 2444              	.LBI565:
 175:../libDaisy/src/util/WavWriter.h ****     {
 2445              		.loc 6 175 18 is_stmt 1 discriminator 1 view .LVU689
 2446              	.LBB566:
 177:../libDaisy/src/util/WavWriter.h ****     }
 2447              		.loc 6 177 23 is_stmt 0 discriminator 1 view .LVU690
ARM GAS  /var/folders/2p/02m_5p7958535cp2tpgps0400000gn/T//ccRuMDjw.s 			page 73


 2448 0086 D4F8DCC5 		ldr	ip, [r4, #1500]
 2449              	.LVL170:
 177:../libDaisy/src/util/WavWriter.h ****     }
 2450              		.loc 6 177 48 discriminator 1 view .LVU691
 2451 008a 04F5B663 		add	r3, r4, #1456
 177:../libDaisy/src/util/WavWriter.h ****     }
 2452              		.loc 6 177 16 discriminator 1 view .LVU692
 2453 008e 07EE90CA 		vmov	s15, ip	@ int
 2454 0092 F8EE676A 		vcvt.f32.u32	s13, s15
 177:../libDaisy/src/util/WavWriter.h ****     }
 2455              		.loc 6 177 48 discriminator 1 view .LVU693
 2456 0096 D3ED0D7A 		vldr.32	s15, [r3, #52]
 2457 009a 86EEA77A 		vdiv.f32	s14, s13, s15
 2458              	.LBE566:
 2459              	.LBE565:
 2460              		.loc 2 432 24 discriminator 1 view .LVU694
 2461 009e DFED467A 		vldr.32	s15, .L134
 2462 00a2 B4EEE77A 		vcmpe.f32	s14, s15
 2463 00a6 F1EE10FA 		vmrs	APSR_nzcv, FPSCR
 2464 00aa 7ED5     		bpl	.L114
 433:GrannyChordApp.cpp ****       temp_interleaved_buf_[0]=out[0][i];
 2465              		.loc 2 433 7 is_stmt 1 view .LVU695
 2466              		.loc 2 433 40 is_stmt 0 view .LVU696
 2467 00ac 2B68     		ldr	r3, [r5]
 2468              	.LBB567:
 2469              	.LBB568:
 2470              	.LBB569:
  95:../libDaisy/src/util/WavWriter.h ****         {
 2471              		.loc 6 95 21 view .LVU697
 2472 00ae 0020     		movs	r0, #0
 2473              	.LBB570:
  97:../libDaisy/src/util/WavWriter.h ****             {
 2474              		.loc 6 97 25 view .LVU698
 2475 00b0 D4F8ECE5 		ldr	lr, [r4, #1516]
 2476              	.LBE570:
 2477              	.LBE569:
 2478              	.LBE568:
 2479              	.LBE567:
 2480              		.loc 2 433 40 view .LVU699
 2481 00b4 4344     		add	r3, r3, r8
 2482 00b6 1A68     		ldr	r2, [r3]	@ float
 2483              		.loc 2 433 31 view .LVU700
 2484 00b8 01F63803 		addw	r3, r1, #2104
 2485 00bc 1A60     		str	r2, [r3]	@ float
 434:GrannyChordApp.cpp ****       temp_interleaved_buf_[1]=out[1][i];
 2486              		.loc 2 434 7 is_stmt 1 view .LVU701
 2487              		.loc 2 434 40 is_stmt 0 view .LVU702
 2488 00be 6B68     		ldr	r3, [r5, #4]
 2489 00c0 4344     		add	r3, r3, r8
 2490              	.LBB595:
 2491              	.LBB593:
 2492              	.LBB591:
 2493              	.LBB588:
 2494              	.LBB571:
 2495              	.LBB572:
 103:../libDaisy/src/util/WavWriter.h ****                 }
 2496              		.loc 6 103 24 view .LVU703
ARM GAS  /var/folders/2p/02m_5p7958535cp2tpgps0400000gn/T//ccRuMDjw.s 			page 74


 2497 00c2 D4F8E085 		ldr	r8, [r4, #1504]
 2498              	.LBE572:
 2499              	.LBE571:
 2500              	.LBE588:
 2501              	.LBE591:
 2502              	.LBE593:
 2503              	.LBE595:
 2504              		.loc 2 434 40 view .LVU704
 2505 00c6 1A68     		ldr	r2, [r3]	@ float
 2506              		.loc 2 434 31 view .LVU705
 2507 00c8 01F63C03 		addw	r3, r1, #2108
 2508 00cc 1A60     		str	r2, [r3]	@ float
 435:GrannyChordApp.cpp ****       sd_writer_.Sample(temp_interleaved_buf_);
 2509              		.loc 2 435 7 is_stmt 1 view .LVU706
 2510              	.LVL171:
 2511              	.LBB596:
 2512              	.LBI567:
  93:../libDaisy/src/util/WavWriter.h ****     {
 2513              		.loc 6 93 10 view .LVU707
  93:../libDaisy/src/util/WavWriter.h ****     {
 2514              		.loc 6 93 10 is_stmt 0 view .LVU708
 2515 00ce 04F50842 		add	r2, r4, #34816
 2516              	.LBB594:
 2517              	.LBB592:
  95:../libDaisy/src/util/WavWriter.h ****         {
 2518              		.loc 6 95 37 view .LVU709
 2519 00d2 D4F8E835 		ldr	r3, [r4, #1512]
 2520 00d6 3832     		adds	r2, r2, #56
 2521              	.LVL172:
 2522              	.L123:
  95:../libDaisy/src/util/WavWriter.h ****         {
 2523              		.loc 6 95 30 is_stmt 1 view .LVU710
 2524 00d8 8342     		cmp	r3, r0
 2525 00da 4ADD     		ble	.L117
 2526              	.LBB589:
  97:../libDaisy/src/util/WavWriter.h ****             {
 2527              		.loc 6 97 13 is_stmt 0 view .LVU711
 2528 00dc BEF1100F 		cmp	lr, #16
 2529 00e0 05D0     		beq	.L118
 2530 00e2 BEF1200F 		cmp	lr, #32
 2531 00e6 25D0     		beq	.L119
 2532              	.L120:
 2533              	.LBE589:
  95:../libDaisy/src/util/WavWriter.h ****         {
 2534              		.loc 6 95 9 is_stmt 1 view .LVU712
 2535 00e8 0130     		adds	r0, r0, #1
 2536              	.LVL173:
  95:../libDaisy/src/util/WavWriter.h ****         {
 2537              		.loc 6 95 9 is_stmt 0 view .LVU713
 2538 00ea 0432     		adds	r2, r2, #4
 2539 00ec F4E7     		b	.L123
 2540              	.L118:
 2541              	.LVL174:
 2542              	.LBB590:
 2543              	.LBB587:
 2544              	.LBB579:
 103:../libDaisy/src/util/WavWriter.h ****                 }
ARM GAS  /var/folders/2p/02m_5p7958535cp2tpgps0400000gn/T//ccRuMDjw.s 			page 75


 2545              		.loc 6 103 42 view .LVU714
 2546 00ee D2ED007A 		vldr.32	s15, [r2]
 102:../libDaisy/src/util/WavWriter.h ****                     tp[wptr_ + i] = f2s16(in[i]);
 2547              		.loc 6 102 35 view .LVU715
 2548 00f2 04F5BE69 		add	r9, r4, #1520
 2549              	.LVL175:
 2550              	.LBB573:
 2551              	.LBB574:
 123:../libDaisy/src/daisy_core.h **** }
 124:../libDaisy/src/daisy_core.h **** 
 125:../libDaisy/src/daisy_core.h **** /**
 126:../libDaisy/src/daisy_core.h ****     Converts float to Signed 16-bit
 127:../libDaisy/src/daisy_core.h **** */
 128:../libDaisy/src/daisy_core.h **** FORCE_INLINE int16_t f2s16(float x)
 129:../libDaisy/src/daisy_core.h **** {
 130:../libDaisy/src/daisy_core.h ****     x = x <= FBIPMIN ? FBIPMIN : x;
 2552              		.loc 11 130 22 view .LVU716
 2553 00f6 9FED317A 		vldr.32	s14, .L134+4
 2554              	.LBE574:
 2555              	.LBE573:
 103:../libDaisy/src/util/WavWriter.h ****                 }
 2556              		.loc 6 103 30 view .LVU717
 2557 00fa 00EB080A 		add	r10, r0, r8
 2558              	.LVL176:
 2559              	.LBB577:
 2560              	.LBI573:
 128:../libDaisy/src/daisy_core.h **** {
 2561              		.loc 11 128 22 is_stmt 1 view .LVU718
 2562              	.LBB575:
 2563              		.loc 11 130 5 view .LVU719
 2564              		.loc 11 130 22 is_stmt 0 view .LVU720
 2565 00fe F4EEC77A 		vcmpe.f32	s15, s14
 2566 0102 F1EE10FA 		vmrs	APSR_nzcv, FPSCR
 2567 0106 12D9     		bls	.L127
 131:../libDaisy/src/daisy_core.h ****     x = x >= FBIPMAX ? FBIPMAX : x;
 2568              		.loc 11 131 5 is_stmt 1 view .LVU721
 2569              		.loc 11 131 22 is_stmt 0 view .LVU722
 2570 0108 9FED2D7A 		vldr.32	s14, .L134+8
 2571 010c F4EE477A 		vcmp.f32	s15, s14
 2572 0110 F1EE10FA 		vmrs	APSR_nzcv, FPSCR
 2573 0114 67FE277A 		vselge.f32	s15, s14, s15
 2574              	.LVL177:
 2575              	.L121:
 132:../libDaisy/src/daisy_core.h ****     return (int32_t)(x * F2S16_SCALE);
 2576              		.loc 11 132 5 is_stmt 1 view .LVU723
 2577              		.loc 11 132 24 is_stmt 0 view .LVU724
 2578 0118 9FED2A7A 		vldr.32	s14, .L134+12
 2579 011c 67EE877A 		vmul.f32	s15, s15, s14
 2580              		.loc 11 132 12 view .LVU725
 2581 0120 FDEEE77A 		vcvt.s32.f32	s15, s15
 2582              		.loc 11 132 37 view .LVU726
 2583 0124 17EE907A 		vmov	r7, s15	@ int
 2584 0128 29F81A70 		strh	r7, [r9, r10, lsl #1]	@ movhi
 2585              	.LBE575:
 2586              	.LBE577:
 2587              	.LBE579:
 105:../libDaisy/src/util/WavWriter.h ****                 case 32: transfer_buff[wptr_ + i] = f2s32(in[i]); break;
ARM GAS  /var/folders/2p/02m_5p7958535cp2tpgps0400000gn/T//ccRuMDjw.s 			page 76


 2588              		.loc 6 105 17 view .LVU727
 2589 012c DCE7     		b	.L120
 2590              	.LVL178:
 2591              	.L127:
 2592              	.LBB580:
 2593              	.LBB578:
 2594              	.LBB576:
 130:../libDaisy/src/daisy_core.h ****     x = x >= FBIPMAX ? FBIPMAX : x;
 2595              		.loc 11 130 22 view .LVU728
 2596 012e F0EE477A 		vmov.f32	s15, s14
 2597              	.LVL179:
 130:../libDaisy/src/daisy_core.h ****     x = x >= FBIPMAX ? FBIPMAX : x;
 2598              		.loc 11 130 22 view .LVU729
 2599 0132 F1E7     		b	.L121
 2600              	.LVL180:
 2601              	.L119:
 130:../libDaisy/src/daisy_core.h ****     x = x >= FBIPMAX ? FBIPMAX : x;
 2602              		.loc 11 130 22 view .LVU730
 2603              	.LBE576:
 2604              	.LBE578:
 2605              	.LBE580:
 106:../libDaisy/src/util/WavWriter.h ****                 default: break;
 2606              		.loc 6 106 58 view .LVU731
 2607 0134 D2ED007A 		vldr.32	s15, [r2]
 106:../libDaisy/src/util/WavWriter.h ****                 default: break;
 2608              		.loc 6 106 46 view .LVU732
 2609 0138 00EB0809 		add	r9, r0, r8
 2610              	.LVL181:
 2611              	.LBB581:
 2612              	.LBI581:
 133:../libDaisy/src/daisy_core.h **** }
 134:../libDaisy/src/daisy_core.h **** 
 135:../libDaisy/src/daisy_core.h **** /**
 136:../libDaisy/src/daisy_core.h ****     Converts Signed 24-bit to float
 137:../libDaisy/src/daisy_core.h ****  */
 138:../libDaisy/src/daisy_core.h **** FORCE_INLINE float s242f(int32_t x)
 139:../libDaisy/src/daisy_core.h **** {
 140:../libDaisy/src/daisy_core.h ****     x = (x ^ S24SIGN) - S24SIGN; //sign extend aka ((x<<8)>>8)
 141:../libDaisy/src/daisy_core.h ****     return (float)x * S242F_SCALE;
 142:../libDaisy/src/daisy_core.h **** }
 143:../libDaisy/src/daisy_core.h **** /**
 144:../libDaisy/src/daisy_core.h ****     Converts float to Signed 24-bit
 145:../libDaisy/src/daisy_core.h ****  */
 146:../libDaisy/src/daisy_core.h **** FORCE_INLINE int32_t f2s24(float x)
 147:../libDaisy/src/daisy_core.h **** {
 148:../libDaisy/src/daisy_core.h ****     x = x <= FBIPMIN ? FBIPMIN : x;
 149:../libDaisy/src/daisy_core.h ****     x = x >= FBIPMAX ? FBIPMAX : x;
 150:../libDaisy/src/daisy_core.h ****     return (int32_t)(x * F2S24_SCALE);
 151:../libDaisy/src/daisy_core.h **** }
 152:../libDaisy/src/daisy_core.h **** 
 153:../libDaisy/src/daisy_core.h **** /**
 154:../libDaisy/src/daisy_core.h ****     Converts Signed 32-bit to float
 155:../libDaisy/src/daisy_core.h ****  */
 156:../libDaisy/src/daisy_core.h **** FORCE_INLINE float s322f(int32_t x)
 157:../libDaisy/src/daisy_core.h **** {
 158:../libDaisy/src/daisy_core.h ****     return (float)x * S322F_SCALE;
 159:../libDaisy/src/daisy_core.h **** }
ARM GAS  /var/folders/2p/02m_5p7958535cp2tpgps0400000gn/T//ccRuMDjw.s 			page 77


 160:../libDaisy/src/daisy_core.h **** /**
 161:../libDaisy/src/daisy_core.h ****     Converts float to Signed 24-bit
 162:../libDaisy/src/daisy_core.h ****  */
 163:../libDaisy/src/daisy_core.h **** FORCE_INLINE int32_t f2s32(float x)
 2613              		.loc 11 163 22 is_stmt 1 view .LVU733
 2614              	.LBB582:
 164:../libDaisy/src/daisy_core.h **** {
 165:../libDaisy/src/daisy_core.h ****     x = x <= FBIPMIN ? FBIPMIN : x;
 2615              		.loc 11 165 5 view .LVU734
 2616              		.loc 11 165 22 is_stmt 0 view .LVU735
 2617 013c 9FED1F7A 		vldr.32	s14, .L134+4
 2618 0140 F4EEC77A 		vcmpe.f32	s15, s14
 2619 0144 F1EE10FA 		vmrs	APSR_nzcv, FPSCR
 2620 0148 10D9     		bls	.L129
 166:../libDaisy/src/daisy_core.h ****     x = x >= FBIPMAX ? FBIPMAX : x;
 2621              		.loc 11 166 5 is_stmt 1 view .LVU736
 2622              		.loc 11 166 22 is_stmt 0 view .LVU737
 2623 014a 9FED1D7A 		vldr.32	s14, .L134+8
 2624 014e F4EE477A 		vcmp.f32	s15, s14
 2625 0152 F1EE10FA 		vmrs	APSR_nzcv, FPSCR
 2626 0156 67FE277A 		vselge.f32	s15, s14, s15
 2627              	.LVL182:
 2628              	.L122:
 167:../libDaisy/src/daisy_core.h ****     return (int32_t)(x * F2S32_SCALE);
 2629              		.loc 11 167 5 is_stmt 1 view .LVU738
 2630              		.loc 11 167 37 is_stmt 0 view .LVU739
 2631 015a FEEEE07A 		vcvt.s32.f32	s15, s15, #31
 2632              	.LBE582:
 2633              	.LBE581:
 106:../libDaisy/src/util/WavWriter.h ****                 default: break;
 2634              		.loc 6 106 51 view .LVU740
 2635 015e 04EB8909 		add	r9, r4, r9, lsl #2
 2636              	.LBB585:
 2637              	.LBB583:
 2638              		.loc 11 167 37 view .LVU741
 2639 0162 17EE907A 		vmov	r7, s15	@ int
 2640 0166 C9F8F075 		str	r7, [r9, #1520]
 2641              	.LBE583:
 2642              	.LBE585:
 106:../libDaisy/src/util/WavWriter.h ****                 default: break;
 2643              		.loc 6 106 67 view .LVU742
 2644 016a BDE7     		b	.L120
 2645              	.LVL183:
 2646              	.L129:
 2647              	.LBB586:
 2648              	.LBB584:
 165:../libDaisy/src/daisy_core.h ****     x = x >= FBIPMAX ? FBIPMAX : x;
 2649              		.loc 11 165 22 view .LVU743
 2650 016c F0EE477A 		vmov.f32	s15, s14
 2651              	.LVL184:
 165:../libDaisy/src/daisy_core.h ****     x = x >= FBIPMAX ? FBIPMAX : x;
 2652              		.loc 11 165 22 view .LVU744
 2653 0170 F3E7     		b	.L122
 2654              	.LVL185:
 2655              	.L117:
 165:../libDaisy/src/daisy_core.h ****     x = x >= FBIPMAX ? FBIPMAX : x;
 2656              		.loc 11 165 22 view .LVU745
ARM GAS  /var/folders/2p/02m_5p7958535cp2tpgps0400000gn/T//ccRuMDjw.s 			page 78


 2657              	.LBE584:
 2658              	.LBE586:
 2659              	.LBE587:
 2660              	.LBE590:
 2661              	.LBE592:
 110:../libDaisy/src/util/WavWriter.h ****         wptr_ += cfg_.channels;
 2662              		.loc 6 110 9 view .LVU746
 2663 0172 0CF10102 		add	r2, ip, #1
 113:../libDaisy/src/util/WavWriter.h ****         if(wptr_ == cap_point)
 2664              		.loc 6 113 40 view .LVU747
 2665 0176 BEF1100F 		cmp	lr, #16
 111:../libDaisy/src/util/WavWriter.h ****         size_t cap_point
 2666              		.loc 6 111 15 view .LVU748
 2667 017a 4344     		add	r3, r3, r8
 110:../libDaisy/src/util/WavWriter.h ****         wptr_ += cfg_.channels;
 2668              		.loc 6 110 9 view .LVU749
 2669 017c C4F8DC25 		str	r2, [r4, #1500]
 113:../libDaisy/src/util/WavWriter.h ****         if(wptr_ == cap_point)
 2670              		.loc 6 113 40 view .LVU750
 2671 0180 0CBF     		ite	eq
 2672 0182 4FF40052 		moveq	r2, #8192
 2673 0186 4FF48052 		movne	r2, #4096
 2674              	.LVL186:
 111:../libDaisy/src/util/WavWriter.h ****         size_t cap_point
 2675              		.loc 6 111 15 view .LVU751
 2676 018a C4F8E035 		str	r3, [r4, #1504]
 114:../libDaisy/src/util/WavWriter.h ****         {
 2677              		.loc 6 114 9 view .LVU752
 2678 018e 9342     		cmp	r3, r2
 116:../libDaisy/src/util/WavWriter.h ****         }
 2679              		.loc 6 116 21 view .LVU753
 2680 0190 04BF     		itt	eq
 2681 0192 0120     		moveq	r0, #1
 2682              	.LVL187:
 116:../libDaisy/src/util/WavWriter.h ****         }
 2683              		.loc 6 116 21 view .LVU754
 2684 0194 C1F8F005 		streq	r0, [r1, #1520]
 118:../libDaisy/src/util/WavWriter.h ****         {
 2685              		.loc 6 118 9 view .LVU755
 2686 0198 B3EB420F 		cmp	r3, r2, lsl #1
 120:../libDaisy/src/util/WavWriter.h ****             bstate_ = BufferState::FLUSH1;
 2687              		.loc 6 120 21 view .LVU756
 2688 019c 21BF     		itttt	cs
 2689 019e 0023     		movcs	r3, #0
 2690 01a0 C4F8E035 		strcs	r3, [r4, #1504]
 121:../libDaisy/src/util/WavWriter.h ****         }
 2691              		.loc 6 121 21 view .LVU757
 2692 01a4 0223     		movcs	r3, #2
 2693 01a6 C1F8F035 		strcs	r3, [r1, #1520]
 2694              	.LVL188:
 2695              	.L114:
 121:../libDaisy/src/util/WavWriter.h ****         }
 2696              		.loc 6 121 21 view .LVU758
 2697              	.LBE594:
 2698              	.LBE596:
 2699              	.LBE564:
 422:GrannyChordApp.cpp ****     Sample samp = synth_.ProcessGrains();
ARM GAS  /var/folders/2p/02m_5p7958535cp2tpgps0400000gn/T//ccRuMDjw.s 			page 79


 2700              		.loc 2 422 3 is_stmt 1 discriminator 2 view .LVU759
 2701 01aa 0136     		adds	r6, r6, #1
 2702              	.LVL189:
 422:GrannyChordApp.cpp ****     Sample samp = synth_.ProcessGrains();
 2703              		.loc 2 422 3 is_stmt 0 discriminator 2 view .LVU760
 2704 01ac 31E7     		b	.L126
 2705              	.L111:
 422:GrannyChordApp.cpp ****     Sample samp = synth_.ProcessGrains();
 2706              		.loc 2 422 3 discriminator 2 view .LVU761
 2707              	.LBE597:
 436:GrannyChordApp.cpp ****     }
 437:GrannyChordApp.cpp ****   }
 438:GrannyChordApp.cpp **** }
 2708              		.loc 2 438 1 view .LVU762
 2709 01ae 09B0     		add	sp, sp, #36
 2710              		.cfi_def_cfa_offset 44
 2711              		@ sp needed
 2712 01b0 BDEC028B 		vldm	sp!, {d8}
 2713              		.cfi_restore 80
 2714              		.cfi_restore 81
 2715              		.cfi_def_cfa_offset 36
 2716 01b4 BDE8F08F 		pop	{r4, r5, r6, r7, r8, r9, r10, fp, pc}
 2717              	.LVL190:
 2718              	.L135:
 2719              		.loc 2 438 1 view .LVU763
 2720              		.align	2
 2721              	.L134:
 2722 01b8 0000F042 		.word	1123024896
 2723 01bc 04FF7FBF 		.word	-1082130684
 2724 01c0 04FF7F3F 		.word	1065352964
 2725 01c4 00FEFF46 		.word	1191181824
 2726              		.cfi_endproc
 2727              	.LFE4930:
 2729              		.section	.rodata._ZN14GrannyChordApp12ProcessAudioEPKPKfPPfj.str1.1,"aMS",%progbits,1
 2730              	.LC12:
 2731 0000 73746F70 		.ascii	"stopped audio > len\000"
 2731      70656420 
 2731      61756469 
 2731      6F203E20 
 2731      6C656E00 
 2732              		.section	.text._ZN14GrannyChordApp12ProcessAudioEPKPKfPPfj,"ax",%progbits
 2733              		.align	1
 2734              		.global	_ZN14GrannyChordApp12ProcessAudioEPKPKfPPfj
 2735              		.syntax unified
 2736              		.thumb
 2737              		.thumb_func
 2739              	_ZN14GrannyChordApp12ProcessAudioEPKPKfPPfj:
 2740              	.LVL191:
 2741              	.LFB4927:
 346:GrannyChordApp.cpp **** 
 2742              		.loc 2 346 107 is_stmt 1 view -0
 2743              		.cfi_startproc
 2744              		@ args = 0, pretend = 0, frame = 0
 2745              		@ frame_needed = 0, uses_anonymous_args = 0
 348:GrannyChordApp.cpp ****     case AppState::PlayWAV:
 2746              		.loc 2 348 3 view .LVU765
 346:GrannyChordApp.cpp **** 
ARM GAS  /var/folders/2p/02m_5p7958535cp2tpgps0400000gn/T//ccRuMDjw.s 			page 80


 2747              		.loc 2 346 107 is_stmt 0 view .LVU766
 2748 0000 2DE9F041 		push	{r4, r5, r6, r7, r8, lr}
 2749              		.cfi_def_cfa_offset 24
 2750              		.cfi_offset 4, -24
 2751              		.cfi_offset 5, -20
 2752              		.cfi_offset 6, -16
 2753              		.cfi_offset 7, -12
 2754              		.cfi_offset 8, -8
 2755              		.cfi_offset 14, -4
 348:GrannyChordApp.cpp ****     case AppState::PlayWAV:
 2756              		.loc 2 348 10 view .LVU767
 2757 0004 D0F83844 		ldr	r4, [r0, #1080]
 346:GrannyChordApp.cpp **** 
 2758              		.loc 2 346 107 view .LVU768
 2759 0008 1646     		mov	r6, r2
 2760 000a 1F46     		mov	r7, r3
 348:GrannyChordApp.cpp ****     case AppState::PlayWAV:
 2761              		.loc 2 348 3 view .LVU769
 2762 000c 022C     		cmp	r4, #2
 2763 000e 25D0     		beq	.L137
 2764 0010 032C     		cmp	r4, #3
 2765 0012 1FD0     		beq	.L138
 2766 0014 012C     		cmp	r4, #1
 2767 0016 27D1     		bne	.L136
 2768              	.LVL192:
 2769              	.LBB604:
 2770              	.LBI604:
 346:GrannyChordApp.cpp **** 
 2771              		.loc 2 346 6 is_stmt 1 view .LVU770
 2772              	.LBB605:
 349:GrannyChordApp.cpp ****       if (wav_playhead_>= filemgr_.GetSamplesPerChannel() -1){
 2773              		.loc 2 349 5 view .LVU771
 350:GrannyChordApp.cpp ****         instance_->pod_.StopAudio();
 2774              		.loc 2 350 7 view .LVU772
 350:GrannyChordApp.cpp ****         instance_->pod_.StopAudio();
 2775              		.loc 2 350 27 is_stmt 0 view .LVU773
 2776 0018 D0F83034 		ldr	r3, [r0, #1072]
 2777              	.LVL193:
 2778              	.LBB606:
 2779              	.LBI606:
  27:AudioFileManager.h ****     size_t GetTotalSamples() const { return header_.total_samples; }
 2780              		.loc 5 27 12 is_stmt 1 view .LVU774
 2781              	.LBB607:
  27:AudioFileManager.h ****     size_t GetTotalSamples() const { return header_.total_samples; }
 2782              		.loc 5 27 43 view .LVU775
  27:AudioFileManager.h ****     size_t GetTotalSamples() const { return header_.total_samples; }
 2783              		.loc 5 27 58 is_stmt 0 view .LVU776
 2784 001c 03F58053 		add	r3, r3, #4096
  27:AudioFileManager.h ****     size_t GetTotalSamples() const { return header_.total_samples; }
 2785              		.loc 5 27 82 view .LVU777
 2786 0020 B3F92820 		ldrsh	r2, [r3, #40]
 2787              	.LVL194:
  27:AudioFileManager.h ****     size_t GetTotalSamples() const { return header_.total_samples; }
 2788              		.loc 5 27 82 view .LVU778
 2789 0024 DC6A     		ldr	r4, [r3, #44]
 2790              	.LBE607:
 2791              	.LBE606:
ARM GAS  /var/folders/2p/02m_5p7958535cp2tpgps0400000gn/T//ccRuMDjw.s 			page 81


 350:GrannyChordApp.cpp ****         instance_->pod_.StopAudio();
 2792              		.loc 2 350 7 view .LVU779
 2793 0026 D0F8F034 		ldr	r3, [r0, #1264]
 2794              	.LBB609:
 2795              	.LBB608:
  27:AudioFileManager.h ****     size_t GetTotalSamples() const { return header_.total_samples; }
 2796              		.loc 5 27 82 view .LVU780
 2797 002a B4FBF2F4 		udiv	r4, r4, r2
 2798              	.LBE608:
 2799              	.LBE609:
 350:GrannyChordApp.cpp ****         instance_->pod_.StopAudio();
 2800              		.loc 2 350 59 view .LVU781
 2801 002e 013C     		subs	r4, r4, #1
 350:GrannyChordApp.cpp ****         instance_->pod_.StopAudio();
 2802              		.loc 2 350 7 view .LVU782
 2803 0030 A342     		cmp	r3, r4
 2804 0032 09D3     		bcc	.L140
 351:GrannyChordApp.cpp ****         DebugPrint(pod_, "stopped audio > len");
 2805              		.loc 2 351 9 is_stmt 1 view .LVU783
 351:GrannyChordApp.cpp ****         DebugPrint(pod_, "stopped audio > len");
 2806              		.loc 2 351 34 is_stmt 0 view .LVU784
 2807 0034 0D4B     		ldr	r3, .L141
 351:GrannyChordApp.cpp ****         DebugPrint(pod_, "stopped audio > len");
 2808              		.loc 2 351 20 view .LVU785
 2809 0036 1B68     		ldr	r3, [r3]
 351:GrannyChordApp.cpp ****         DebugPrint(pod_, "stopped audio > len");
 2810              		.loc 2 351 34 view .LVU786
 2811 0038 D869     		ldr	r0, [r3, #28]
 2812              	.LVL195:
 351:GrannyChordApp.cpp ****         DebugPrint(pod_, "stopped audio > len");
 2813              		.loc 2 351 34 view .LVU787
 2814 003a FFF7FEFF 		bl	_ZN5daisy8DaisyPod9StopAudioEv
 2815              	.LVL196:
 352:GrannyChordApp.cpp ****         return;
 2816              		.loc 2 352 9 is_stmt 1 view .LVU788
 352:GrannyChordApp.cpp ****         return;
 2817              		.loc 2 352 9 view .LVU789
 2818              	.LBB610:
 2819              	.LBI610:
 126:../libDaisy/src/daisy_seed.h ****     {
 2820              		.loc 4 126 17 view .LVU790
 2821              	.LBB611:
 2822              		.loc 4 128 23 is_stmt 0 view .LVU791
 2823 003e 0C48     		ldr	r0, .L141+4
 2824              	.LBE611:
 2825              	.LBE610:
 2826              	.LBE605:
 2827              	.LBE604:
 370:GrannyChordApp.cpp **** 
 2828              		.loc 2 370 1 view .LVU792
 2829 0040 BDE8F041 		pop	{r4, r5, r6, r7, r8, lr}
 2830              		.cfi_remember_state
 2831              		.cfi_restore 14
 2832              		.cfi_restore 8
 2833              		.cfi_restore 7
 2834              		.cfi_restore 6
 2835              		.cfi_restore 5
ARM GAS  /var/folders/2p/02m_5p7958535cp2tpgps0400000gn/T//ccRuMDjw.s 			page 82


 2836              		.cfi_restore 4
 2837              		.cfi_def_cfa_offset 0
 2838              	.LVL197:
 2839              	.LBB616:
 2840              	.LBB614:
 2841              	.LBB613:
 2842              	.LBB612:
 2843              		.loc 4 128 23 view .LVU793
 2844 0044 FFF7FEBF 		b	_ZN5daisy6LoggerILNS_17LoggerDestinationE1EE9PrintLineEPKcz
 2845              	.LVL198:
 2846              	.L140:
 2847              		.cfi_restore_state
 2848              		.loc 4 128 23 view .LVU794
 2849              	.LBE612:
 2850              	.LBE613:
 355:GrannyChordApp.cpp ****       return;  
 2851              		.loc 2 355 7 is_stmt 1 view .LVU795
 355:GrannyChordApp.cpp ****       return;  
 2852              		.loc 2 355 25 is_stmt 0 view .LVU796
 2853 0048 3A46     		mov	r2, r7
 2854 004a 3146     		mov	r1, r6
 2855              	.LVL199:
 355:GrannyChordApp.cpp ****       return;  
 2856              		.loc 2 355 25 view .LVU797
 2857              	.LBE614:
 2858              	.LBE616:
 370:GrannyChordApp.cpp **** 
 2859              		.loc 2 370 1 view .LVU798
 2860 004c BDE8F041 		pop	{r4, r5, r6, r7, r8, lr}
 2861              		.cfi_remember_state
 2862              		.cfi_restore 14
 2863              		.cfi_restore 8
 2864              		.cfi_restore 7
 2865              		.cfi_restore 6
 2866              		.cfi_restore 5
 2867              		.cfi_restore 4
 2868              		.cfi_def_cfa_offset 0
 2869              	.LVL200:
 2870              	.LBB617:
 2871              	.LBB615:
 355:GrannyChordApp.cpp ****       return;  
 2872              		.loc 2 355 25 view .LVU799
 2873 0050 FFF7FEBF 		b	_ZN14GrannyChordApp18ProcessWAVPlaybackEPPfj
 2874              	.LVL201:
 2875              	.L138:
 2876              		.cfi_restore_state
 355:GrannyChordApp.cpp ****       return;  
 2877              		.loc 2 355 25 view .LVU800
 2878              	.LBE615:
 2879              	.LBE617:
 357:GrannyChordApp.cpp ****       ProcessRecordIn(in, out, size);
 2880              		.loc 2 357 5 is_stmt 1 view .LVU801
 358:GrannyChordApp.cpp ****       return;
 2881              		.loc 2 358 7 view .LVU802
 370:GrannyChordApp.cpp **** 
 2882              		.loc 2 370 1 is_stmt 0 view .LVU803
 2883 0054 BDE8F041 		pop	{r4, r5, r6, r7, r8, lr}
ARM GAS  /var/folders/2p/02m_5p7958535cp2tpgps0400000gn/T//ccRuMDjw.s 			page 83


 2884              		.cfi_remember_state
 2885              		.cfi_restore 14
 2886              		.cfi_restore 8
 2887              		.cfi_restore 7
 2888              		.cfi_restore 6
 2889              		.cfi_restore 5
 2890              		.cfi_restore 4
 2891              		.cfi_def_cfa_offset 0
 358:GrannyChordApp.cpp ****       return;
 2892              		.loc 2 358 22 view .LVU804
 2893 0058 FFF7FEBF 		b	_ZN14GrannyChordApp15ProcessRecordInEPKPKfPPfj
 2894              	.LVL202:
 2895              	.L137:
 2896              		.cfi_restore_state
 360:GrannyChordApp.cpp ****       ProcessSynthesis(out,size);
 2897              		.loc 2 360 5 is_stmt 1 view .LVU805
 361:GrannyChordApp.cpp ****       return;
 2898              		.loc 2 361 7 view .LVU806
 361:GrannyChordApp.cpp ****       return;
 2899              		.loc 2 361 23 is_stmt 0 view .LVU807
 2900 005c 3146     		mov	r1, r6
 2901              	.LVL203:
 361:GrannyChordApp.cpp ****       return;
 2902              		.loc 2 361 23 view .LVU808
 2903 005e 1A46     		mov	r2, r3
 2904              	.LVL204:
 370:GrannyChordApp.cpp **** 
 2905              		.loc 2 370 1 view .LVU809
 2906 0060 BDE8F041 		pop	{r4, r5, r6, r7, r8, lr}
 2907              		.cfi_remember_state
 2908              		.cfi_restore 14
 2909              		.cfi_restore 8
 2910              		.cfi_restore 7
 2911              		.cfi_restore 6
 2912              		.cfi_restore 5
 2913              		.cfi_restore 4
 2914              		.cfi_def_cfa_offset 0
 2915              	.LVL205:
 361:GrannyChordApp.cpp ****       return;
 2916              		.loc 2 361 23 view .LVU810
 2917 0064 FFF7FEBF 		b	_ZN14GrannyChordApp16ProcessSynthesisEPPfj
 2918              	.LVL206:
 2919              	.L136:
 2920              		.cfi_restore_state
 370:GrannyChordApp.cpp **** 
 2921              		.loc 2 370 1 view .LVU811
 2922 0068 BDE8F081 		pop	{r4, r5, r6, r7, r8, pc}
 2923              	.L142:
 2924              		.align	2
 2925              	.L141:
 2926 006c 00000000 		.word	.LANCHOR0
 2927 0070 00000000 		.word	.LC12
 2928              		.cfi_endproc
 2929              	.LFE4927:
 2931              		.section	.text._ZN14GrannyChordApp13AudioCallbackEPKPKfPPfj,"ax",%progbits
 2932              		.align	1
 2933              		.global	_ZN14GrannyChordApp13AudioCallbackEPKPKfPPfj
ARM GAS  /var/folders/2p/02m_5p7958535cp2tpgps0400000gn/T//ccRuMDjw.s 			page 84


 2934              		.syntax unified
 2935              		.thumb
 2936              		.thumb_func
 2938              	_ZN14GrannyChordApp13AudioCallbackEPKPKfPPfj:
 2939              	.LVL207:
 2940              	.LFB4926:
 342:GrannyChordApp.cpp ****   instance_->ProcessAudio(in,out,size);
 2941              		.loc 2 342 108 is_stmt 1 view -0
 2942              		.cfi_startproc
 2943              		@ args = 0, pretend = 0, frame = 0
 2944              		@ frame_needed = 0, uses_anonymous_args = 0
 2945              		@ link register save eliminated.
 343:GrannyChordApp.cpp **** }
 2946              		.loc 2 343 3 view .LVU813
 342:GrannyChordApp.cpp ****   instance_->ProcessAudio(in,out,size);
 2947              		.loc 2 342 108 is_stmt 0 view .LVU814
 2948 0000 1346     		mov	r3, r2
 343:GrannyChordApp.cpp **** }
 2949              		.loc 2 343 26 view .LVU815
 2950 0002 0A46     		mov	r2, r1
 2951              	.LVL208:
 343:GrannyChordApp.cpp **** }
 2952              		.loc 2 343 26 view .LVU816
 2953 0004 0146     		mov	r1, r0
 2954              	.LVL209:
 343:GrannyChordApp.cpp **** }
 2955              		.loc 2 343 26 view .LVU817
 2956 0006 0248     		ldr	r0, .L144
 2957              	.LVL210:
 343:GrannyChordApp.cpp **** }
 2958              		.loc 2 343 26 view .LVU818
 2959 0008 0068     		ldr	r0, [r0]
 2960 000a FFF7FEBF 		b	_ZN14GrannyChordApp12ProcessAudioEPKPKfPPfj
 2961              	.LVL211:
 2962              	.L145:
 343:GrannyChordApp.cpp **** }
 2963              		.loc 2 343 26 view .LVU819
 2964 000e 00BF     		.align	2
 2965              	.L144:
 2966 0010 00000000 		.word	.LANCHOR0
 2967              		.cfi_endproc
 2968              	.LFE4926:
 2970              		.section	.rodata._ZN14GrannyChordApp13RecordOutToSDEPPfj.str1.1,"aMS",%progbits,1
 2971              	.LC13:
 2972 0000 7265636F 		.ascii	"recording_%d\000"
 2972      7264696E 
 2972      675F2564 
 2972      00
 2973              		.section	.text._ZN14GrannyChordApp13RecordOutToSDEPPfj,"ax",%progbits
 2974              		.align	1
 2975              		.global	_ZN14GrannyChordApp13RecordOutToSDEPPfj
 2976              		.syntax unified
 2977              		.thumb
 2978              		.thumb_func
 2980              	_ZN14GrannyChordApp13RecordOutToSDEPPfj:
 2981              	.LVL212:
 2982              	.LFB4931:
ARM GAS  /var/folders/2p/02m_5p7958535cp2tpgps0400000gn/T//ccRuMDjw.s 			page 85


 439:GrannyChordApp.cpp **** 
 440:GrannyChordApp.cpp **** /// @brief Process audio from chord mode and mix to output buffer
 441:GrannyChordApp.cpp **** /// @param out Output audio buffer
 442:GrannyChordApp.cpp **** /// @param size Number of samples to process in this call
 443:GrannyChordApp.cpp **** // void GrannyChordApp::ProcessChordMode(AudioHandle::OutputBuffer out, size_t size){
 444:GrannyChordApp.cpp **** //   // if (UserTriggeredChord()) {
 445:GrannyChordApp.cpp **** //   //   synth_.TriggerChord(out[0], out[1], size);
 446:GrannyChordApp.cpp **** //   // } else {
 447:GrannyChordApp.cpp **** //   //     std::memset(out[0], 0, size * sizeof(float));
 448:GrannyChordApp.cpp **** //   //     std::memset(out[1], 0, size * sizeof(float));
 449:GrannyChordApp.cpp **** //   // }
 450:GrannyChordApp.cpp **** // }
 451:GrannyChordApp.cpp **** 
 452:GrannyChordApp.cpp **** /// @brief Record granular synth or chord output audio to SD card
 453:GrannyChordApp.cpp **** /// @param out Output audio buffer
 454:GrannyChordApp.cpp **** /// @param size Number of samples to process in this call
 455:GrannyChordApp.cpp **** void GrannyChordApp::RecordOutToSD(AudioHandle::OutputBuffer out, size_t size){
 2983              		.loc 2 455 79 is_stmt 1 view -0
 2984              		.cfi_startproc
 2985              		@ args = 0, pretend = 0, frame = 40
 2986              		@ frame_needed = 0, uses_anonymous_args = 0
 456:GrannyChordApp.cpp ****   InitWavWriter();
 2987              		.loc 2 456 3 view .LVU821
 455:GrannyChordApp.cpp ****   InitWavWriter();
 2988              		.loc 2 455 79 is_stmt 0 view .LVU822
 2989 0000 F0B5     		push	{r4, r5, r6, r7, lr}
 2990              		.cfi_def_cfa_offset 20
 2991              		.cfi_offset 4, -20
 2992              		.cfi_offset 5, -16
 2993              		.cfi_offset 6, -12
 2994              		.cfi_offset 7, -8
 2995              		.cfi_offset 14, -4
 457:GrannyChordApp.cpp ****   char name[32];
 458:GrannyChordApp.cpp ****   sprintf(name,"recording_%d",recording_count_);
 2996              		.loc 2 458 10 view .LVU823
 2997 0002 00F50045 		add	r5, r0, #32768
 455:GrannyChordApp.cpp ****   InitWavWriter();
 2998              		.loc 2 455 79 view .LVU824
 2999 0006 8BB0     		sub	sp, sp, #44
 3000              		.cfi_def_cfa_offset 64
 455:GrannyChordApp.cpp ****   InitWavWriter();
 3001              		.loc 2 455 79 view .LVU825
 3002 0008 0446     		mov	r4, r0
 456:GrannyChordApp.cpp ****   char name[32];
 3003              		.loc 2 456 16 view .LVU826
 3004 000a FFF7FEFF 		bl	_ZN14GrannyChordApp13InitWavWriterEv
 3005              	.LVL213:
 457:GrannyChordApp.cpp ****   char name[32];
 3006              		.loc 2 457 3 is_stmt 1 view .LVU827
 3007              		.loc 2 458 3 view .LVU828
 3008              		.loc 2 458 10 is_stmt 0 view .LVU829
 3009 000e D5F83028 		ldr	r2, [r5, #2096]
 3010 0012 02A8     		add	r0, sp, #8
 3011              	.LVL214:
 3012              		.loc 2 458 10 view .LVU830
 3013 0014 1249     		ldr	r1, .L149
 3014              	.LBB622:
ARM GAS  /var/folders/2p/02m_5p7958535cp2tpgps0400000gn/T//ccRuMDjw.s 			page 86


 3015              	.LBB623:
 157:../libDaisy/src/util/WavWriter.h ****         {
 3016              		.loc 6 157 18 view .LVU831
 3017 0016 04F50546 		add	r6, r4, #34048
 3018              	.LBE623:
 3019              	.LBE622:
 3020              		.loc 2 458 10 view .LVU832
 3021 001a FFF7FEFF 		bl	sprintf
 3022              	.LVL215:
 459:GrannyChordApp.cpp ****   recording_count_++;
 3023              		.loc 2 459 3 is_stmt 1 view .LVU833
 3024              		.loc 2 459 19 is_stmt 0 view .LVU834
 3025 001e D5F83038 		ldr	r3, [r5, #2096]
 3026              	.LBB628:
 3027              	.LBB625:
 157:../libDaisy/src/util/WavWriter.h ****         {
 3028              		.loc 6 157 18 view .LVU835
 3029 0022 F836     		adds	r6, r6, #248
 3030 0024 0A22     		movs	r2, #10
 3031              	.LBE625:
 3032              	.LBE628:
 3033              		.loc 2 459 19 view .LVU836
 3034 0026 0133     		adds	r3, r3, #1
 3035              	.LBB629:
 3036              	.LBB626:
 157:../libDaisy/src/util/WavWriter.h ****         {
 3037              		.loc 6 157 18 view .LVU837
 3038 0028 02A9     		add	r1, sp, #8
 3039 002a 3046     		mov	r0, r6
 3040 002c 04F5B667 		add	r7, r4, #1456
 3041              	.LBE626:
 3042              	.LBE629:
 3043              		.loc 2 459 19 view .LVU838
 3044 0030 C5F83038 		str	r3, [r5, #2096]
 460:GrannyChordApp.cpp ****   sd_writer_.OpenFile(name);
 3045              		.loc 2 460 3 is_stmt 1 view .LVU839
 3046              	.LVL216:
 3047              	.LBB630:
 3048              	.LBI622:
 155:../libDaisy/src/util/WavWriter.h ****     {
 3049              		.loc 6 155 10 view .LVU840
 3050              	.LBB627:
 157:../libDaisy/src/util/WavWriter.h ****         {
 3051              		.loc 6 157 18 is_stmt 0 view .LVU841
 3052 0034 FFF7FEFF 		bl	f_open
 3053              	.LVL217:
 157:../libDaisy/src/util/WavWriter.h ****         {
 3054              		.loc 6 157 9 view .LVU842
 3055 0038 60B9     		cbnz	r0, .L147
 3056              	.LBB624:
 159:../libDaisy/src/util/WavWriter.h ****             if(f_write(&fp_, &wavheader_, sizeof(wavheader_), &bw) == FR_OK)
 3057              		.loc 6 159 26 view .LVU843
 3058 003a 0190     		str	r0, [sp, #4]
 160:../libDaisy/src/util/WavWriter.h ****             {
 3059              		.loc 6 160 23 view .LVU844
 3060 003c 01AB     		add	r3, sp, #4
 3061 003e 2C22     		movs	r2, #44
ARM GAS  /var/folders/2p/02m_5p7958535cp2tpgps0400000gn/T//ccRuMDjw.s 			page 87


 3062 0040 3946     		mov	r1, r7
 3063 0042 3046     		mov	r0, r6
 3064 0044 FFF7FEFF 		bl	f_write
 3065              	.LVL218:
 160:../libDaisy/src/util/WavWriter.h ****             {
 3066              		.loc 6 160 13 view .LVU845
 3067 0048 20B9     		cbnz	r0, .L147
 162:../libDaisy/src/util/WavWriter.h ****                 num_samps_ = 0;
 3068              		.loc 6 162 28 view .LVU846
 3069 004a 0123     		movs	r3, #1
 3070 004c 85F8F435 		strb	r3, [r5, #1524]
 163:../libDaisy/src/util/WavWriter.h ****             }
 3071              		.loc 6 163 28 view .LVU847
 3072 0050 C4F8DC05 		str	r0, [r4, #1500]
 3073              	.L147:
 3074              	.LVL219:
 163:../libDaisy/src/util/WavWriter.h ****             }
 3075              		.loc 6 163 28 view .LVU848
 3076              	.LBE624:
 3077              	.LBE627:
 3078              	.LBE630:
 461:GrannyChordApp.cpp ****   recording_out_ = true;
 3079              		.loc 2 461 3 is_stmt 1 view .LVU849
 3080              		.loc 2 461 18 is_stmt 0 view .LVU850
 3081 0054 0123     		movs	r3, #1
 3082 0056 85F82C38 		strb	r3, [r5, #2092]
 462:GrannyChordApp.cpp **** }
 3083              		.loc 2 462 1 view .LVU851
 3084 005a 0BB0     		add	sp, sp, #44
 3085              		.cfi_def_cfa_offset 20
 3086              		@ sp needed
 3087 005c F0BD     		pop	{r4, r5, r6, r7, pc}
 3088              	.LVL220:
 3089              	.L150:
 3090              		.loc 2 462 1 view .LVU852
 3091 005e 00BF     		.align	2
 3092              	.L149:
 3093 0060 00000000 		.word	.LC13
 3094              		.cfi_endproc
 3095              	.LFE4931:
 3097              		.section	.text._ZN14GrannyChordApp15ToggleRecordOutEv,"ax",%progbits
 3098              		.align	1
 3099              		.global	_ZN14GrannyChordApp15ToggleRecordOutEv
 3100              		.syntax unified
 3101              		.thumb
 3102              		.thumb_func
 3104              	_ZN14GrannyChordApp15ToggleRecordOutEv:
 3105              	.LVL221:
 3106              	.LFB4932:
 463:GrannyChordApp.cpp **** // // NOTE: 
 464:GrannyChordApp.cpp **** // // USE THIS 
 465:GrannyChordApp.cpp **** // // https://electro-smith.github.io/libDaisy/classdaisy_1_1_wav_writer.html
 466:GrannyChordApp.cpp **** 
 467:GrannyChordApp.cpp **** //   // create file on sd card 
 468:GrannyChordApp.cpp **** //   // write in blocks]
 469:GrannyChordApp.cpp **** //   // will have to f2s16 to conv back to int16 
 470:GrannyChordApp.cpp **** //   // max recording duration should be 120*48000*sizeof(float)*2(channels)??
ARM GAS  /var/folders/2p/02m_5p7958535cp2tpgps0400000gn/T//ccRuMDjw.s 			page 88


 471:GrannyChordApp.cpp **** //   // wrap around index ? or just stop recording at max length
 472:GrannyChordApp.cpp **** //   // could flash seed led if wrapping, solid if stop at max
 473:GrannyChordApp.cpp **** //   // write straight to sd card?
 474:GrannyChordApp.cpp **** //   // or is it better to write to a circular buffer in SDRAM
 475:GrannyChordApp.cpp **** //   // then asynchronously/more slowly write to SD card
 476:GrannyChordApp.cpp **** //   // reset recording buffer pointer
 477:GrannyChordApp.cpp **** //   // set up audio input gain or anything?
 478:GrannyChordApp.cpp **** //   // init sample counter for recording duration? 
 479:GrannyChordApp.cpp **** //   // when finished: update file headers
 480:GrannyChordApp.cpp **** //   // update UI to show recording finished
 481:GrannyChordApp.cpp **** // }
 482:GrannyChordApp.cpp **** 
 483:GrannyChordApp.cpp **** /// @brief Helper function to mark when audio output recording starts
 484:GrannyChordApp.cpp **** void GrannyChordApp::ToggleRecordOut(){
 3107              		.loc 2 484 39 is_stmt 1 view -0
 3108              		.cfi_startproc
 3109              		@ args = 0, pretend = 0, frame = 0
 3110              		@ frame_needed = 0, uses_anonymous_args = 0
 3111              		@ link register save eliminated.
 485:GrannyChordApp.cpp ****   recording_out_ = !recording_out_;
 3112              		.loc 2 485 3 view .LVU854
 3113              		.loc 2 485 18 is_stmt 0 view .LVU855
 3114 0000 00F50040 		add	r0, r0, #32768
 3115              	.LVL222:
 3116              		.loc 2 485 20 view .LVU856
 3117 0004 90F82C38 		ldrb	r3, [r0, #2092]	@ zero_extendqisi2
 3118 0008 83F00103 		eor	r3, r3, #1
 3119              		.loc 2 485 18 view .LVU857
 3120 000c 80F82C38 		strb	r3, [r0, #2092]
 486:GrannyChordApp.cpp **** }
 3121              		.loc 2 486 1 view .LVU858
 3122 0010 7047     		bx	lr
 3123              		.cfi_endproc
 3124              	.LFE4932:
 3126              		.section	.text._ZN14GrannyChordApp17UpdateKnob1ParamsEf9SynthMode,"ax",%progbits
 3127              		.align	1
 3128              		.global	_ZN14GrannyChordApp17UpdateKnob1ParamsEf9SynthMode
 3129              		.syntax unified
 3130              		.thumb
 3131              		.thumb_func
 3133              	_ZN14GrannyChordApp17UpdateKnob1ParamsEf9SynthMode:
 3134              	.LVL223:
 3135              	.LFB4934:
 487:GrannyChordApp.cpp **** 
 488:GrannyChordApp.cpp **** void GrannyChordApp::FinishRecording(){
 489:GrannyChordApp.cpp ****   sd_writer_.SaveFile();
 490:GrannyChordApp.cpp **** }
 491:GrannyChordApp.cpp **** 
 492:GrannyChordApp.cpp **** 
 493:GrannyChordApp.cpp **** void GrannyChordApp::UpdateKnob1Params(float knob1_val, SynthMode mode){
 3136              		.loc 2 493 72 is_stmt 1 view -0
 3137              		.cfi_startproc
 3138              		@ args = 0, pretend = 0, frame = 0
 3139              		@ frame_needed = 0, uses_anonymous_args = 0
 3140              		@ link register save eliminated.
 494:GrannyChordApp.cpp ****   switch (mode){
 3141              		.loc 2 494 3 view .LVU860
ARM GAS  /var/folders/2p/02m_5p7958535cp2tpgps0400000gn/T//ccRuMDjw.s 			page 89


 3142 0000 0829     		cmp	r1, #8
 3143 0002 46D8     		bhi	.L152
 3144 0004 DFE801F0 		tbb	[pc, r1]
 3145              	.L155:
 3146 0008 05       		.byte	(.L163-.L155)/2
 3147 0009 08       		.byte	(.L162-.L155)/2
 3148 000a 0E       		.byte	(.L161-.L155)/2
 3149 000b 21       		.byte	(.L160-.L155)/2
 3150 000c 26       		.byte	(.L159-.L155)/2
 3151 000d 29       		.byte	(.L158-.L155)/2
 3152 000e 0B       		.byte	(.L157-.L155)/2
 3153 000f 2C       		.byte	(.L156-.L155)/2
 3154 0010 31       		.byte	(.L154-.L155)/2
 3155 0011 00       		.p2align 1
 3156              	.L163:
 495:GrannyChordApp.cpp ****     case SynthMode::Size_Position:
 3157              		.loc 2 495 5 view .LVU861
 496:GrannyChordApp.cpp ****       synth_.SetGrainSize(knob1_val);
 3158              		.loc 2 496 7 view .LVU862
 3159              		.loc 2 496 26 is_stmt 0 view .LVU863
 3160 0012 2030     		adds	r0, r0, #32
 3161              	.LVL224:
 3162              		.loc 2 496 26 view .LVU864
 3163 0014 FFF7FEBF 		b	_ZN13GranularSynth12SetGrainSizeEf
 3164              	.LVL225:
 3165              	.L162:
 497:GrannyChordApp.cpp ****       return;
 498:GrannyChordApp.cpp ****     case SynthMode::Pitch_ActiveGrains:
 3166              		.loc 2 498 5 is_stmt 1 view .LVU865
 499:GrannyChordApp.cpp ****       synth_.SetPitchRatio(knob1_val);
 3167              		.loc 2 499 7 view .LVU866
 3168              		.loc 2 499 27 is_stmt 0 view .LVU867
 3169 0018 2030     		adds	r0, r0, #32
 3170              	.LVL226:
 3171              		.loc 2 499 27 view .LVU868
 3172 001a FFF7FEBF 		b	_ZN13GranularSynth13SetPitchRatioEf
 3173              	.LVL227:
 3174              	.L157:
 500:GrannyChordApp.cpp ****       return;
 501:GrannyChordApp.cpp ****     case SynthMode::Pan_PanRnd:
 3175              		.loc 2 501 5 is_stmt 1 view .LVU869
 502:GrannyChordApp.cpp ****       synth_.SetPan(knob1_val);
 3176              		.loc 2 502 7 view .LVU870
 3177              		.loc 2 502 20 is_stmt 0 view .LVU871
 3178 001e 2030     		adds	r0, r0, #32
 3179              	.LVL228:
 3180              		.loc 2 502 20 view .LVU872
 3181 0020 FFF7FEBF 		b	_ZN13GranularSynth6SetPanEf
 3182              	.LVL229:
 3183              	.L161:
 503:GrannyChordApp.cpp ****       return;
 504:GrannyChordApp.cpp ****     case SynthMode::PhasorMode_EnvType:
 3184              		.loc 2 504 5 is_stmt 1 view .LVU873
 505:GrannyChordApp.cpp ****       knob1_val = fmap(knob1_val, 0, NUM_PHASOR_MODES);
 3185              		.loc 2 505 7 view .LVU874
 3186              	.LBB631:
 3187              	.LBI631:
ARM GAS  /var/folders/2p/02m_5p7958535cp2tpgps0400000gn/T//ccRuMDjw.s 			page 90


 3188              		.file 12 "../DaisySP/Source/Utility/dsp.h"
   1:../DaisySP/Source/Utility/dsp.h **** /*
   2:../DaisySP/Source/Utility/dsp.h **** Copyright (c) 2020 Electrosmith, Corp, Emilie Gillet
   3:../DaisySP/Source/Utility/dsp.h **** 
   4:../DaisySP/Source/Utility/dsp.h **** Use of this source code is governed by an MIT-style
   5:../DaisySP/Source/Utility/dsp.h **** license that can be found in the LICENSE file or at
   6:../DaisySP/Source/Utility/dsp.h **** https://opensource.org/licenses/MIT.
   7:../DaisySP/Source/Utility/dsp.h **** */
   8:../DaisySP/Source/Utility/dsp.h **** 
   9:../DaisySP/Source/Utility/dsp.h **** /** Helpful defines, functions, and other utilities for use in/with daisysp modules.
  10:../DaisySP/Source/Utility/dsp.h **** */
  11:../DaisySP/Source/Utility/dsp.h **** #pragma once
  12:../DaisySP/Source/Utility/dsp.h **** #ifndef DSY_CORE_DSP
  13:../DaisySP/Source/Utility/dsp.h **** #define DSY_CORE_DSP
  14:../DaisySP/Source/Utility/dsp.h **** #include <cassert>
  15:../DaisySP/Source/Utility/dsp.h **** #include <cstdint>
  16:../DaisySP/Source/Utility/dsp.h **** #include <random>
  17:../DaisySP/Source/Utility/dsp.h **** #include <cmath>
  18:../DaisySP/Source/Utility/dsp.h **** 
  19:../DaisySP/Source/Utility/dsp.h **** /** PIs
  20:../DaisySP/Source/Utility/dsp.h **** */
  21:../DaisySP/Source/Utility/dsp.h **** #define PI_F 3.1415927410125732421875f
  22:../DaisySP/Source/Utility/dsp.h **** #define TWOPI_F (2.0f * PI_F)
  23:../DaisySP/Source/Utility/dsp.h **** #define HALFPI_F (PI_F * 0.5f)
  24:../DaisySP/Source/Utility/dsp.h **** #define DSY_MIN(in, mn) (in < mn ? in : mn)
  25:../DaisySP/Source/Utility/dsp.h **** #define DSY_MAX(in, mx) (in > mx ? in : mx)
  26:../DaisySP/Source/Utility/dsp.h **** #define DSY_CLAMP(in, mn, mx) (DSY_MIN(DSY_MAX(in, mn), mx))
  27:../DaisySP/Source/Utility/dsp.h **** #define DSY_COUNTOF(_arr) (sizeof(_arr) / sizeof(_arr[0]))
  28:../DaisySP/Source/Utility/dsp.h **** 
  29:../DaisySP/Source/Utility/dsp.h **** namespace daisysp
  30:../DaisySP/Source/Utility/dsp.h **** {
  31:../DaisySP/Source/Utility/dsp.h **** //Avoids division for random floats. e.g. rand() * kRandFrac
  32:../DaisySP/Source/Utility/dsp.h **** static constexpr float kRandFrac = 1.f / (float)RAND_MAX;
  33:../DaisySP/Source/Utility/dsp.h **** 
  34:../DaisySP/Source/Utility/dsp.h **** //Convert from semitones to other units. e.g. 2 ^ (kOneTwelfth * x)
  35:../DaisySP/Source/Utility/dsp.h **** static constexpr float kOneTwelfth = 1.f / 12.f;
  36:../DaisySP/Source/Utility/dsp.h **** 
  37:../DaisySP/Source/Utility/dsp.h **** /** efficient floating point min/max
  38:../DaisySP/Source/Utility/dsp.h **** c/o stephen mccaul
  39:../DaisySP/Source/Utility/dsp.h **** */
  40:../DaisySP/Source/Utility/dsp.h **** inline float fmax(float a, float b)
  41:../DaisySP/Source/Utility/dsp.h **** {
  42:../DaisySP/Source/Utility/dsp.h ****     float r;
  43:../DaisySP/Source/Utility/dsp.h **** #ifdef __arm__
  44:../DaisySP/Source/Utility/dsp.h ****     asm("vmaxnm.f32 %[d], %[n], %[m]" : [d] "=t"(r) : [n] "t"(a), [m] "t"(b) :);
  45:../DaisySP/Source/Utility/dsp.h **** #else
  46:../DaisySP/Source/Utility/dsp.h ****     r = (a > b) ? a : b;
  47:../DaisySP/Source/Utility/dsp.h **** #endif // __arm__
  48:../DaisySP/Source/Utility/dsp.h ****     return r;
  49:../DaisySP/Source/Utility/dsp.h **** }
  50:../DaisySP/Source/Utility/dsp.h **** 
  51:../DaisySP/Source/Utility/dsp.h **** inline float fmin(float a, float b)
  52:../DaisySP/Source/Utility/dsp.h **** {
  53:../DaisySP/Source/Utility/dsp.h ****     float r;
  54:../DaisySP/Source/Utility/dsp.h **** #ifdef __arm__
  55:../DaisySP/Source/Utility/dsp.h ****     asm("vminnm.f32 %[d], %[n], %[m]" : [d] "=t"(r) : [n] "t"(a), [m] "t"(b) :);
  56:../DaisySP/Source/Utility/dsp.h **** #else
ARM GAS  /var/folders/2p/02m_5p7958535cp2tpgps0400000gn/T//ccRuMDjw.s 			page 91


  57:../DaisySP/Source/Utility/dsp.h ****     r = (a < b) ? a : b;
  58:../DaisySP/Source/Utility/dsp.h **** #endif // __arm__
  59:../DaisySP/Source/Utility/dsp.h ****     return r;
  60:../DaisySP/Source/Utility/dsp.h **** }
  61:../DaisySP/Source/Utility/dsp.h **** 
  62:../DaisySP/Source/Utility/dsp.h **** /** quick fp clamp
  63:../DaisySP/Source/Utility/dsp.h **** */
  64:../DaisySP/Source/Utility/dsp.h **** inline float fclamp(float in, float min, float max)
  65:../DaisySP/Source/Utility/dsp.h **** {
  66:../DaisySP/Source/Utility/dsp.h ****     return fmin(fmax(in, min), max);
  67:../DaisySP/Source/Utility/dsp.h **** }
  68:../DaisySP/Source/Utility/dsp.h **** 
  69:../DaisySP/Source/Utility/dsp.h **** /** From Musicdsp.org "Fast power and root estimates for 32bit floats)
  70:../DaisySP/Source/Utility/dsp.h **** Original code by Stefan Stenzel
  71:../DaisySP/Source/Utility/dsp.h **** These are approximations
  72:../DaisySP/Source/Utility/dsp.h **** */
  73:../DaisySP/Source/Utility/dsp.h **** inline float fastpower(float f, int n)
  74:../DaisySP/Source/Utility/dsp.h **** {
  75:../DaisySP/Source/Utility/dsp.h ****     long *lp, l;
  76:../DaisySP/Source/Utility/dsp.h ****     lp = (long *)(&f);
  77:../DaisySP/Source/Utility/dsp.h ****     l  = *lp;
  78:../DaisySP/Source/Utility/dsp.h ****     l -= 0x3F800000;
  79:../DaisySP/Source/Utility/dsp.h ****     l <<= (n - 1);
  80:../DaisySP/Source/Utility/dsp.h ****     l += 0x3F800000;
  81:../DaisySP/Source/Utility/dsp.h ****     *lp = l;
  82:../DaisySP/Source/Utility/dsp.h ****     return f;
  83:../DaisySP/Source/Utility/dsp.h **** }
  84:../DaisySP/Source/Utility/dsp.h **** 
  85:../DaisySP/Source/Utility/dsp.h **** inline float fastroot(float f, int n)
  86:../DaisySP/Source/Utility/dsp.h **** {
  87:../DaisySP/Source/Utility/dsp.h ****     long *lp, l;
  88:../DaisySP/Source/Utility/dsp.h ****     lp = (long *)(&f);
  89:../DaisySP/Source/Utility/dsp.h ****     l  = *lp;
  90:../DaisySP/Source/Utility/dsp.h ****     l -= 0x3F800000;
  91:../DaisySP/Source/Utility/dsp.h ****     l >>= (n - 1);
  92:../DaisySP/Source/Utility/dsp.h ****     l += 0x3F800000;
  93:../DaisySP/Source/Utility/dsp.h ****     *lp = l;
  94:../DaisySP/Source/Utility/dsp.h ****     return f;
  95:../DaisySP/Source/Utility/dsp.h **** }
  96:../DaisySP/Source/Utility/dsp.h **** 
  97:../DaisySP/Source/Utility/dsp.h **** /** Significantly more efficient than fmodf(x, 1.0f) for calculating
  98:../DaisySP/Source/Utility/dsp.h ****  *  the decimal part of a floating point value.
  99:../DaisySP/Source/Utility/dsp.h ****  */
 100:../DaisySP/Source/Utility/dsp.h **** inline float fastmod1f(float x)
 101:../DaisySP/Source/Utility/dsp.h **** {
 102:../DaisySP/Source/Utility/dsp.h ****     return x - static_cast<int>(x);
 103:../DaisySP/Source/Utility/dsp.h **** }
 104:../DaisySP/Source/Utility/dsp.h **** 
 105:../DaisySP/Source/Utility/dsp.h **** /** From http://openaudio.blogspot.com/2017/02/faster-log10-and-pow.html
 106:../DaisySP/Source/Utility/dsp.h **** No approximation, pow10f(x) gives a 90% speed increase over powf(10.f, x)
 107:../DaisySP/Source/Utility/dsp.h **** */
 108:../DaisySP/Source/Utility/dsp.h **** inline float pow10f(float f)
 109:../DaisySP/Source/Utility/dsp.h **** {
 110:../DaisySP/Source/Utility/dsp.h ****     return expf(2.302585092994046f * f);
 111:../DaisySP/Source/Utility/dsp.h **** }
 112:../DaisySP/Source/Utility/dsp.h **** 
 113:../DaisySP/Source/Utility/dsp.h **** /* Original code for fastlog2f by Dr. Paul Beckmann from the ARM community forum, adapted from the 
ARM GAS  /var/folders/2p/02m_5p7958535cp2tpgps0400000gn/T//ccRuMDjw.s 			page 92


 114:../DaisySP/Source/Utility/dsp.h **** About 25% performance increase over std::log10f
 115:../DaisySP/Source/Utility/dsp.h **** */
 116:../DaisySP/Source/Utility/dsp.h **** inline float fastlog2f(float f)
 117:../DaisySP/Source/Utility/dsp.h **** {
 118:../DaisySP/Source/Utility/dsp.h ****     float frac;
 119:../DaisySP/Source/Utility/dsp.h ****     int   exp;
 120:../DaisySP/Source/Utility/dsp.h ****     frac = frexpf(fabsf(f), &exp);
 121:../DaisySP/Source/Utility/dsp.h ****     f    = 1.23149591368684f;
 122:../DaisySP/Source/Utility/dsp.h ****     f *= frac;
 123:../DaisySP/Source/Utility/dsp.h ****     f += -4.11852516267426f;
 124:../DaisySP/Source/Utility/dsp.h ****     f *= frac;
 125:../DaisySP/Source/Utility/dsp.h ****     f += 6.02197014179219f;
 126:../DaisySP/Source/Utility/dsp.h ****     f *= frac;
 127:../DaisySP/Source/Utility/dsp.h ****     f += -3.13396450166353f;
 128:../DaisySP/Source/Utility/dsp.h ****     f += exp;
 129:../DaisySP/Source/Utility/dsp.h ****     return (f);
 130:../DaisySP/Source/Utility/dsp.h **** }
 131:../DaisySP/Source/Utility/dsp.h **** 
 132:../DaisySP/Source/Utility/dsp.h **** inline float fastlog10f(float f)
 133:../DaisySP/Source/Utility/dsp.h **** {
 134:../DaisySP/Source/Utility/dsp.h ****     return fastlog2f(f) * 0.3010299956639812f;
 135:../DaisySP/Source/Utility/dsp.h **** }
 136:../DaisySP/Source/Utility/dsp.h **** 
 137:../DaisySP/Source/Utility/dsp.h **** /** Midi to frequency helper
 138:../DaisySP/Source/Utility/dsp.h **** */
 139:../DaisySP/Source/Utility/dsp.h **** inline float mtof(float m)
 140:../DaisySP/Source/Utility/dsp.h **** {
 141:../DaisySP/Source/Utility/dsp.h ****     return powf(2, (m - 69.0f) / 12.0f) * 440.0f;
 142:../DaisySP/Source/Utility/dsp.h **** }
 143:../DaisySP/Source/Utility/dsp.h **** 
 144:../DaisySP/Source/Utility/dsp.h **** 
 145:../DaisySP/Source/Utility/dsp.h **** /** one pole lpf
 146:../DaisySP/Source/Utility/dsp.h **** out is passed by reference, and must be retained between
 147:../DaisySP/Source/Utility/dsp.h **** calls to properly filter the signal
 148:../DaisySP/Source/Utility/dsp.h **** coeff can be calculated:
 149:../DaisySP/Source/Utility/dsp.h **** coeff = 1.0 / (time * sample_rate) ; where time is in seconds
 150:../DaisySP/Source/Utility/dsp.h **** */
 151:../DaisySP/Source/Utility/dsp.h **** inline void fonepole(float &out, float in, float coeff)
 152:../DaisySP/Source/Utility/dsp.h **** {
 153:../DaisySP/Source/Utility/dsp.h ****     out += coeff * (in - out);
 154:../DaisySP/Source/Utility/dsp.h **** }
 155:../DaisySP/Source/Utility/dsp.h **** 
 156:../DaisySP/Source/Utility/dsp.h **** /** Curves to use with the fmap function */
 157:../DaisySP/Source/Utility/dsp.h **** enum class Mapping
 158:../DaisySP/Source/Utility/dsp.h **** {
 159:../DaisySP/Source/Utility/dsp.h ****     LINEAR,
 160:../DaisySP/Source/Utility/dsp.h ****     EXP,
 161:../DaisySP/Source/Utility/dsp.h ****     LOG,
 162:../DaisySP/Source/Utility/dsp.h **** };
 163:../DaisySP/Source/Utility/dsp.h **** 
 164:../DaisySP/Source/Utility/dsp.h **** /** Maps a float between a specified range, using a specified curve.
 165:../DaisySP/Source/Utility/dsp.h ****  *
 166:../DaisySP/Source/Utility/dsp.h ****  *  \param in a value between 0 to 1 that will be mapped to the new range.
 167:../DaisySP/Source/Utility/dsp.h ****  *  \param min the new minimum value
 168:../DaisySP/Source/Utility/dsp.h ****  *  \param max the new maxmimum value
 169:../DaisySP/Source/Utility/dsp.h ****  *  \param curve a Mapping Value to adjust the response curve of the transformation
 170:../DaisySP/Source/Utility/dsp.h ****  *               defaults to Linear. @see Mapping
ARM GAS  /var/folders/2p/02m_5p7958535cp2tpgps0400000gn/T//ccRuMDjw.s 			page 93


 171:../DaisySP/Source/Utility/dsp.h ****  *
 172:../DaisySP/Source/Utility/dsp.h ****  *  When using the log curve min and max, must be greater than zero.
 173:../DaisySP/Source/Utility/dsp.h ****  *
 174:../DaisySP/Source/Utility/dsp.h ****  *  \retval returns the transformed float within the new range.
 175:../DaisySP/Source/Utility/dsp.h **** */
 176:../DaisySP/Source/Utility/dsp.h **** inline float
 177:../DaisySP/Source/Utility/dsp.h **** fmap(float in, float min, float max, Mapping curve = Mapping::LINEAR)
 3189              		.loc 12 177 1 view .LVU875
 3190              	.LBE631:
 178:../DaisySP/Source/Utility/dsp.h **** {
 179:../DaisySP/Source/Utility/dsp.h ****     switch(curve)
 3191              		.loc 12 179 5 view .LVU876
 3192              	.LBB641:
 3193              	.LBB632:
 180:../DaisySP/Source/Utility/dsp.h ****     {
 181:../DaisySP/Source/Utility/dsp.h ****         case Mapping::EXP:
 182:../DaisySP/Source/Utility/dsp.h ****             return fclamp(min + (in * in) * (max - min), min, max);
 183:../DaisySP/Source/Utility/dsp.h ****         case Mapping::LOG:
 184:../DaisySP/Source/Utility/dsp.h ****         {
 185:../DaisySP/Source/Utility/dsp.h ****             const float a = 1.f / log10f(max / min);
 186:../DaisySP/Source/Utility/dsp.h ****             return fclamp(min * powf(10, in / a), min, max);
 187:../DaisySP/Source/Utility/dsp.h ****         }
 188:../DaisySP/Source/Utility/dsp.h ****         case Mapping::LINEAR:
 3194              		.loc 12 188 9 view .LVU877
 189:../DaisySP/Source/Utility/dsp.h ****         default: return fclamp(min + in * (max - min), min, max);
 3195              		.loc 12 189 9 view .LVU878
 3196              		.loc 12 189 18 view .LVU879
 3197              		.loc 12 189 31 is_stmt 0 view .LVU880
 3198 0024 DFED1B6A 		vldr.32	s13, .L165
 3199 0028 B1EE007A 		vmov.f32	s14, #4.0e+0
 3200              	.LBE632:
 3201              	.LBE641:
 506:GrannyChordApp.cpp ****       synth_.SetPhasorMode(static_cast<GrainPhasor::Mode>(knob1_val));
 3202              		.loc 2 506 27 view .LVU881
 3203 002c 2030     		adds	r0, r0, #32
 3204              	.LVL230:
 3205              	.LBB642:
 3206              	.LBB639:
 3207              		.loc 12 189 31 view .LVU882
 3208 002e F0EE667A 		vmov.f32	s15, s13
 3209 0032 E0EE077A 		vfma.f32	s15, s0, s14
 3210              	.LVL231:
 3211              	.LBB633:
 3212              	.LBI633:
  64:../DaisySP/Source/Utility/dsp.h **** {
 3213              		.loc 12 64 14 is_stmt 1 view .LVU883
 3214              	.LBE633:
 3215              	.LBE639:
 3216              	.LBE642:
  66:../DaisySP/Source/Utility/dsp.h **** }
 3217              		.loc 12 66 5 view .LVU884
 3218              	.LBB643:
 3219              	.LBB640:
 3220              	.LBB638:
 3221              	.LBB634:
 3222              	.LBI634:
  40:../DaisySP/Source/Utility/dsp.h **** {
ARM GAS  /var/folders/2p/02m_5p7958535cp2tpgps0400000gn/T//ccRuMDjw.s 			page 94


 3223              		.loc 12 40 14 view .LVU885
 3224              	.LBB635:
  42:../DaisySP/Source/Utility/dsp.h **** #ifdef __arm__
 3225              		.loc 12 42 5 view .LVU886
  44:../DaisySP/Source/Utility/dsp.h **** #else
 3226              		.loc 12 44 5 view .LVU887
 3227              		.syntax unified
 3228              	@ 44 "../DaisySP/Source/Utility/dsp.h" 1
 3229 0036 C7FEA67A 		vmaxnm.f32 s15, s15, s13
 3230              	@ 0 "" 2
 3231              	.LVL232:
  48:../DaisySP/Source/Utility/dsp.h **** }
 3232              		.loc 12 48 5 view .LVU888
  48:../DaisySP/Source/Utility/dsp.h **** }
 3233              		.loc 12 48 5 is_stmt 0 view .LVU889
 3234              		.thumb
 3235              		.syntax unified
 3236              	.LBE635:
 3237              	.LBE634:
 3238              	.LBB636:
 3239              	.LBI636:
  51:../DaisySP/Source/Utility/dsp.h **** {
 3240              		.loc 12 51 14 is_stmt 1 view .LVU890
 3241              	.LBB637:
  53:../DaisySP/Source/Utility/dsp.h **** #ifdef __arm__
 3242              		.loc 12 53 5 view .LVU891
  55:../DaisySP/Source/Utility/dsp.h **** #else
 3243              		.loc 12 55 5 view .LVU892
 3244              		.syntax unified
 3245              	@ 55 "../DaisySP/Source/Utility/dsp.h" 1
 3246 003a C7FEC77A 		vminnm.f32 s15, s15, s14
 3247              	@ 0 "" 2
 3248              	.LVL233:
  59:../DaisySP/Source/Utility/dsp.h **** }
 3249              		.loc 12 59 5 view .LVU893
  59:../DaisySP/Source/Utility/dsp.h **** }
 3250              		.loc 12 59 5 is_stmt 0 view .LVU894
 3251              		.thumb
 3252              		.syntax unified
 3253              	.LBE637:
 3254              	.LBE636:
 3255              	.LBE638:
 3256              	.LBE640:
 3257              	.LBE643:
 3258              		.loc 2 506 7 is_stmt 1 view .LVU895
 3259              		.loc 2 506 27 is_stmt 0 view .LVU896
 3260 003e FDEEE77A 		vcvt.s32.f32	s15, s15
 3261              	.LVL234:
 3262              		.loc 2 506 27 view .LVU897
 3263 0042 17EE901A 		vmov	r1, s15	@ int
 3264              	.LVL235:
 3265              		.loc 2 506 27 view .LVU898
 3266 0046 FFF7FEBF 		b	_ZN13GranularSynth13SetPhasorModeEN11GrainPhasor4ModeE
 3267              	.LVL236:
 3268              	.L160:
 507:GrannyChordApp.cpp ****       return;
 508:GrannyChordApp.cpp ****     case SynthMode::Size_Position_Rnd:
ARM GAS  /var/folders/2p/02m_5p7958535cp2tpgps0400000gn/T//ccRuMDjw.s 			page 95


 3269              		.loc 2 508 5 is_stmt 1 view .LVU899
 509:GrannyChordApp.cpp ****       synth_.SetSizeRnd(knob1_val);
 3270              		.loc 2 509 7 view .LVU900
 3271              	.LBB644:
 3272              	.LBI644:
 3273              		.file 13 "GranularSynth.h"
   1:GranularSynth.h **** #pragma once
   2:GranularSynth.h **** 
   3:GranularSynth.h **** #include "Grain.h"
   4:GranularSynth.h **** #include "daisy_pod.h"
   5:GranularSynth.h **** #include "debug_print.h"
   6:GranularSynth.h **** 
   7:GranularSynth.h **** // #include "sample.h"
   8:GranularSynth.h **** #include <vector>
   9:GranularSynth.h **** 
  10:GranularSynth.h **** class GranularSynth{
  11:GranularSynth.h ****   public:
  12:GranularSynth.h ****     GranularSynth(DaisyPod& pod) 
  13:GranularSynth.h ****       : pod_(pod), left_buf_(nullptr), right_buf_(nullptr), audio_len_(0),
  14:GranularSynth.h ****         grains_(){}
  15:GranularSynth.h **** 
  16:GranularSynth.h ****     void Init(int16_t *left, int16_t *right, size_t audio_len);
  17:GranularSynth.h ****     void Reset(size_t len);
  18:GranularSynth.h ****     void InitParams();
  19:GranularSynth.h ****     void UpdateGrainParams();
  20:GranularSynth.h ****     void ApplyRandomness();
  21:GranularSynth.h ****     void TriggerGrain();
  22:GranularSynth.h ****     Sample ProcessGrains();
  23:GranularSynth.h **** 
  24:GranularSynth.h ****     void SetEnvelopeType(Grain::EnvelopeType type);
  25:GranularSynth.h ****     void SetPhasorMode(GrainPhasor::Mode mode);
  26:GranularSynth.h ****     void SetPan(float pan);
  27:GranularSynth.h ****     
  28:GranularSynth.h ****     void SetGrainSize(float knob_val);
  29:GranularSynth.h ****     void SetSpawnPos(float knob_val);
  30:GranularSynth.h ****     void SetActiveGrains(float knob_val);
  31:GranularSynth.h ****     void SetPitchRatio(float ratio);
  32:GranularSynth.h **** 
  33:GranularSynth.h ****     void SetSizeRnd(float rnd){ rnd_size_ = rnd; }
 3274              		.loc 13 33 10 view .LVU901
 3275              	.LBB645:
 3276              		.loc 13 33 33 view .LVU902
 3277              		.loc 13 33 43 is_stmt 0 view .LVU903
 3278 004a 00F21440 		addw	r0, r0, #1044
 3279              	.LVL237:
 3280              	.L164:
 3281              		.loc 13 33 43 view .LVU904
 3282              	.LBE645:
 3283              	.LBE644:
 3284              	.LBB646:
 3285              	.LBB647:
  34:GranularSynth.h ****     void SetPositionRnd(float rnd){ rnd_spawn_pos_ = rnd; }
  35:GranularSynth.h ****     void SetPitchRnd(float rnd){ rnd_pitch_ = rnd; }
 3286              		.loc 13 35 45 view .LVU905
 3287 004e 80ED000A 		vstr.32	s0, [r0]
 3288              		.loc 13 35 52 view .LVU906
 3289 0052 7047     		bx	lr
ARM GAS  /var/folders/2p/02m_5p7958535cp2tpgps0400000gn/T//ccRuMDjw.s 			page 96


 3290              	.LVL238:
 3291              	.L159:
 3292              		.loc 13 35 52 view .LVU907
 3293              	.LBE647:
 3294              	.LBE646:
 510:GrannyChordApp.cpp ****       return;
 511:GrannyChordApp.cpp ****     case SynthMode::Pitch_ActiveGrains_Rnd:
 3295              		.loc 2 511 5 is_stmt 1 view .LVU908
 512:GrannyChordApp.cpp ****       synth_.SetPitchRnd(knob1_val);
 3296              		.loc 2 512 7 view .LVU909
 3297              	.LBB649:
 3298              	.LBI646:
 3299              		.loc 13 35 10 view .LVU910
 3300              	.LBB648:
 3301              		.loc 13 35 34 view .LVU911
 3302              		.loc 13 35 45 is_stmt 0 view .LVU912
 3303 0054 00F58460 		add	r0, r0, #1056
 3304              	.LVL239:
 3305              		.loc 13 35 45 view .LVU913
 3306 0058 F9E7     		b	.L164
 3307              	.LVL240:
 3308              	.L158:
 3309              		.loc 13 35 45 view .LVU914
 3310              	.LBE648:
 3311              	.LBE649:
 513:GrannyChordApp.cpp ****       return;
 514:GrannyChordApp.cpp ****     case SynthMode::PhasorMode_EnvType_Rnd:
 3312              		.loc 2 514 5 is_stmt 1 view .LVU915
 515:GrannyChordApp.cpp ****       synth_.SetPhasorRnd(knob1_val);
 3313              		.loc 2 515 7 view .LVU916
 3314              	.LBB650:
 3315              	.LBI650:
  36:GranularSynth.h ****     void SetCountRnd(float rnd){ rnd_count_ = rnd; }
  37:GranularSynth.h ****     void SetPanRnd(float rnd){ rnd_pan_ = rnd; }
  38:GranularSynth.h ****     void SetEnvRnd(float rnd){ rnd_envelope_ = rnd; }
  39:GranularSynth.h ****     void SetPhasorRnd(float rnd){ rnd_phasor_ = rnd; }
 3316              		.loc 13 39 10 view .LVU917
 3317              	.LBB651:
 3318              		.loc 13 39 35 view .LVU918
 3319              		.loc 13 39 47 is_stmt 0 view .LVU919
 3320 005a 00F22C40 		addw	r0, r0, #1068
 3321              	.LVL241:
 3322              		.loc 13 39 47 view .LVU920
 3323 005e F6E7     		b	.L164
 3324              	.LVL242:
 3325              	.L156:
 3326              		.loc 13 39 47 view .LVU921
 3327              	.LBE651:
 3328              	.LBE650:
 516:GrannyChordApp.cpp ****       return;
 517:GrannyChordApp.cpp ****     case SynthMode::Reverb:
 3329              		.loc 2 517 5 is_stmt 1 view .LVU922
 518:GrannyChordApp.cpp ****       /* set reverb feedback ie tail length */
 519:GrannyChordApp.cpp ****       reverb_.SetFeedback(knob1_val); // NOTE check it doesn't clip
 3330              		.loc 2 519 7 view .LVU923
 3331              	.LBB652:
 3332              	.LBI652:
ARM GAS  /var/folders/2p/02m_5p7958535cp2tpgps0400000gn/T//ccRuMDjw.s 			page 97


 3333              		.file 14 "../DaisySP/Source/../DaisySP-LGPL/Source/Effects/reverbsc.h"
   1:../DaisySP/Source/../DaisySP-LGPL/Source/Effects/reverbsc.h **** /*
   2:../DaisySP/Source/../DaisySP-LGPL/Source/Effects/reverbsc.h **** Copyright (c) 2023 Electrosmith, Corp, Sean Costello, Istvan Varga, Paul Batchelor
   3:../DaisySP/Source/../DaisySP-LGPL/Source/Effects/reverbsc.h **** 
   4:../DaisySP/Source/../DaisySP-LGPL/Source/Effects/reverbsc.h **** Use of this source code is governed by the LGPL V2.1
   5:../DaisySP/Source/../DaisySP-LGPL/Source/Effects/reverbsc.h **** license that can be found in the LICENSE file or at
   6:../DaisySP/Source/../DaisySP-LGPL/Source/Effects/reverbsc.h **** https://opensource.org/license/lgpl-2-1/
   7:../DaisySP/Source/../DaisySP-LGPL/Source/Effects/reverbsc.h **** */
   8:../DaisySP/Source/../DaisySP-LGPL/Source/Effects/reverbsc.h **** 
   9:../DaisySP/Source/../DaisySP-LGPL/Source/Effects/reverbsc.h **** #pragma once
  10:../DaisySP/Source/../DaisySP-LGPL/Source/Effects/reverbsc.h **** #ifndef DSYSP_REVERBSC_H
  11:../DaisySP/Source/../DaisySP-LGPL/Source/Effects/reverbsc.h **** #define DSYSP_REVERBSC_H
  12:../DaisySP/Source/../DaisySP-LGPL/Source/Effects/reverbsc.h **** 
  13:../DaisySP/Source/../DaisySP-LGPL/Source/Effects/reverbsc.h **** #define DSY_REVERBSC_MAX_SIZE 98936
  14:../DaisySP/Source/../DaisySP-LGPL/Source/Effects/reverbsc.h **** // #define DSY_REVERBSC_MAX_SIZE 49468
  15:../DaisySP/Source/../DaisySP-LGPL/Source/Effects/reverbsc.h **** 
  16:../DaisySP/Source/../DaisySP-LGPL/Source/Effects/reverbsc.h **** namespace daisysp
  17:../DaisySP/Source/../DaisySP-LGPL/Source/Effects/reverbsc.h **** {
  18:../DaisySP/Source/../DaisySP-LGPL/Source/Effects/reverbsc.h **** /**Delay line for internal reverb use
  19:../DaisySP/Source/../DaisySP-LGPL/Source/Effects/reverbsc.h **** */
  20:../DaisySP/Source/../DaisySP-LGPL/Source/Effects/reverbsc.h **** typedef struct
  21:../DaisySP/Source/../DaisySP-LGPL/Source/Effects/reverbsc.h **** {
  22:../DaisySP/Source/../DaisySP-LGPL/Source/Effects/reverbsc.h ****     int    write_pos;         /**< write position */
  23:../DaisySP/Source/../DaisySP-LGPL/Source/Effects/reverbsc.h ****     int    buffer_size;       /**< buffer size */
  24:../DaisySP/Source/../DaisySP-LGPL/Source/Effects/reverbsc.h ****     int    read_pos;          /**< read position */
  25:../DaisySP/Source/../DaisySP-LGPL/Source/Effects/reverbsc.h ****     int    read_pos_frac;     /**< fractional component of read pos */
  26:../DaisySP/Source/../DaisySP-LGPL/Source/Effects/reverbsc.h ****     int    read_pos_frac_inc; /**< increment for fractional */
  27:../DaisySP/Source/../DaisySP-LGPL/Source/Effects/reverbsc.h ****     int    dummy;             /**<  dummy var */
  28:../DaisySP/Source/../DaisySP-LGPL/Source/Effects/reverbsc.h ****     int    seed_val;          /**< randseed */
  29:../DaisySP/Source/../DaisySP-LGPL/Source/Effects/reverbsc.h ****     int    rand_line_cnt;     /**< number of random lines */
  30:../DaisySP/Source/../DaisySP-LGPL/Source/Effects/reverbsc.h ****     float  filter_state;      /**< state of filter */
  31:../DaisySP/Source/../DaisySP-LGPL/Source/Effects/reverbsc.h ****     float *buf;               /**< buffer ptr */
  32:../DaisySP/Source/../DaisySP-LGPL/Source/Effects/reverbsc.h **** } ReverbScDl;
  33:../DaisySP/Source/../DaisySP-LGPL/Source/Effects/reverbsc.h **** 
  34:../DaisySP/Source/../DaisySP-LGPL/Source/Effects/reverbsc.h **** /** Stereo Reverb */
  35:../DaisySP/Source/../DaisySP-LGPL/Source/Effects/reverbsc.h **** class ReverbSc
  36:../DaisySP/Source/../DaisySP-LGPL/Source/Effects/reverbsc.h **** {
  37:../DaisySP/Source/../DaisySP-LGPL/Source/Effects/reverbsc.h ****   public:
  38:../DaisySP/Source/../DaisySP-LGPL/Source/Effects/reverbsc.h ****     ReverbSc() {}
  39:../DaisySP/Source/../DaisySP-LGPL/Source/Effects/reverbsc.h ****     ~ReverbSc() {}
  40:../DaisySP/Source/../DaisySP-LGPL/Source/Effects/reverbsc.h ****     /** Initializes the reverb module, and sets the sample_rate at which the Process function will 
  41:../DaisySP/Source/../DaisySP-LGPL/Source/Effects/reverbsc.h ****         Returns 0 if all good, or 1 if it runs out of delay times exceed maximum allowed.
  42:../DaisySP/Source/../DaisySP-LGPL/Source/Effects/reverbsc.h ****     */
  43:../DaisySP/Source/../DaisySP-LGPL/Source/Effects/reverbsc.h ****     int Init(float sample_rate);
  44:../DaisySP/Source/../DaisySP-LGPL/Source/Effects/reverbsc.h **** 
  45:../DaisySP/Source/../DaisySP-LGPL/Source/Effects/reverbsc.h ****     /** Process the input through the reverb, and updates values of out1, and out2 with the new pro
  46:../DaisySP/Source/../DaisySP-LGPL/Source/Effects/reverbsc.h ****     */
  47:../DaisySP/Source/../DaisySP-LGPL/Source/Effects/reverbsc.h ****     int Process(const float &in1, const float &in2, float *out1, float *out2);
  48:../DaisySP/Source/../DaisySP-LGPL/Source/Effects/reverbsc.h **** 
  49:../DaisySP/Source/../DaisySP-LGPL/Source/Effects/reverbsc.h ****     /* process using a simple wet/dry mix */
  50:../DaisySP/Source/../DaisySP-LGPL/Source/Effects/reverbsc.h ****     void ProcessMix(const float &in1, const float &in2, float *out1, float *out2);
  51:../DaisySP/Source/../DaisySP-LGPL/Source/Effects/reverbsc.h ****     void SetMix(float mix) { wet_mix_ = mix; }
  52:../DaisySP/Source/../DaisySP-LGPL/Source/Effects/reverbsc.h ****     /** controls the reverb time. reverb tail becomes infinite when set to 1.0
  53:../DaisySP/Source/../DaisySP-LGPL/Source/Effects/reverbsc.h ****         \param fb - sets reverb time. range: 0.0 to 1.0
  54:../DaisySP/Source/../DaisySP-LGPL/Source/Effects/reverbsc.h ****     */
  55:../DaisySP/Source/../DaisySP-LGPL/Source/Effects/reverbsc.h ****     inline void SetFeedback(const float &fb) { feedback_ = fb; }
 3334              		.loc 14 55 17 view .LVU924
ARM GAS  /var/folders/2p/02m_5p7958535cp2tpgps0400000gn/T//ccRuMDjw.s 			page 98


 3335              	.LBB653:
 3336              		.loc 14 55 48 view .LVU925
 3337              		.loc 14 55 58 is_stmt 0 view .LVU926
 3338 0060 D0F88834 		ldr	r3, [r0, #1160]
 3339 0064 83ED000A 		vstr.32	s0, [r3]
 3340              		.loc 14 55 64 view .LVU927
 3341 0068 7047     		bx	lr
 3342              	.LVL243:
 3343              	.L154:
 3344              		.loc 14 55 64 view .LVU928
 3345              	.LBE653:
 3346              	.LBE652:
 520:GrannyChordApp.cpp ****       return;
 521:GrannyChordApp.cpp ****     case SynthMode::Filter:
 3347              		.loc 2 521 5 is_stmt 1 view .LVU929
 522:GrannyChordApp.cpp ****       // knob1_val = fmap(knob1_val, 20.0f, 20000.0f, daisysp::Mapping::EXP);
 523:GrannyChordApp.cpp ****       /* map knob value to frequency range with an exponential curve */
 524:GrannyChordApp.cpp ****       knob1_val = fmap(knob1_val, 20.0f, 5000.0f, daisysp::Mapping::EXP);
 3348              		.loc 2 524 7 view .LVU930
 3349              	.LBB654:
 3350              	.LBI654:
 177:../DaisySP/Source/Utility/dsp.h **** {
 3351              		.loc 12 177 1 view .LVU931
 3352              	.LBE654:
 179:../DaisySP/Source/Utility/dsp.h ****     {
 3353              		.loc 12 179 5 view .LVU932
 3354              	.LBB664:
 3355              	.LBB655:
 181:../DaisySP/Source/Utility/dsp.h ****             return fclamp(min + (in * in) * (max - min), min, max);
 3356              		.loc 12 181 9 view .LVU933
 182:../DaisySP/Source/Utility/dsp.h ****         case Mapping::LOG:
 3357              		.loc 12 182 13 view .LVU934
 182:../DaisySP/Source/Utility/dsp.h ****         case Mapping::LOG:
 3358              		.loc 12 182 26 is_stmt 0 view .LVU935
 3359 006a B3EE047A 		vmov.f32	s14, #2.0e+1
 3360 006e DFED0A6A 		vldr.32	s13, .L165+4
 182:../DaisySP/Source/Utility/dsp.h ****         case Mapping::LOG:
 3361              		.loc 12 182 37 view .LVU936
 3362 0072 20EE000A 		vmul.f32	s0, s0, s0
 3363              	.LVL244:
 182:../DaisySP/Source/Utility/dsp.h ****         case Mapping::LOG:
 3364              		.loc 12 182 37 view .LVU937
 3365              	.LBE655:
 3366              	.LBE664:
 3367              	.LBB665:
 3368              	.LBB666:
  39:../DaisySP/Source/../DaisySP-LGPL/Source/Filters/moogladder.h ****     /** 
 3369              		.loc 7 39 45 view .LVU938
 3370 0076 00F28C40 		addw	r0, r0, #1164
 3371              	.LVL245:
  39:../DaisySP/Source/../DaisySP-LGPL/Source/Filters/moogladder.h ****     /** 
 3372              		.loc 7 39 45 view .LVU939
 3373              	.LBE666:
 3374              	.LBE665:
 3375              	.LBB668:
 3376              	.LBB662:
 182:../DaisySP/Source/Utility/dsp.h ****         case Mapping::LOG:
ARM GAS  /var/folders/2p/02m_5p7958535cp2tpgps0400000gn/T//ccRuMDjw.s 			page 99


 3377              		.loc 12 182 26 view .LVU940
 3378 007a F0EE477A 		vmov.f32	s15, s14
 3379 007e E0EE267A 		vfma.f32	s15, s0, s13
 3380              	.LVL246:
 3381              	.LBB656:
 3382              	.LBI656:
  64:../DaisySP/Source/Utility/dsp.h **** {
 3383              		.loc 12 64 14 is_stmt 1 view .LVU941
 3384              	.LBE656:
 3385              	.LBE662:
 3386              	.LBE668:
  66:../DaisySP/Source/Utility/dsp.h **** }
 3387              		.loc 12 66 5 view .LVU942
 3388              	.LBB669:
 3389              	.LBB663:
 3390              	.LBB661:
 3391              	.LBB657:
 3392              	.LBI657:
  40:../DaisySP/Source/Utility/dsp.h **** {
 3393              		.loc 12 40 14 view .LVU943
 3394              	.LBB658:
  42:../DaisySP/Source/Utility/dsp.h **** #ifdef __arm__
 3395              		.loc 12 42 5 view .LVU944
  44:../DaisySP/Source/Utility/dsp.h **** #else
 3396              		.loc 12 44 5 view .LVU945
 3397              		.syntax unified
 3398              	@ 44 "../DaisySP/Source/Utility/dsp.h" 1
 3399 0082 C7FE877A 		vmaxnm.f32 s15, s15, s14
 3400              	@ 0 "" 2
 3401              	.LVL247:
  48:../DaisySP/Source/Utility/dsp.h **** }
 3402              		.loc 12 48 5 view .LVU946
  48:../DaisySP/Source/Utility/dsp.h **** }
 3403              		.loc 12 48 5 is_stmt 0 view .LVU947
 3404              		.thumb
 3405              		.syntax unified
 3406              	.LBE658:
 3407              	.LBE657:
 3408              	.LBB659:
 3409              	.LBI659:
  51:../DaisySP/Source/Utility/dsp.h **** {
 3410              		.loc 12 51 14 is_stmt 1 view .LVU948
 3411              	.LBB660:
  53:../DaisySP/Source/Utility/dsp.h **** #ifdef __arm__
 3412              		.loc 12 53 5 view .LVU949
  55:../DaisySP/Source/Utility/dsp.h **** #else
 3413              		.loc 12 55 5 view .LVU950
 3414 0086 9FED057A 		vldr.32	s14, .L165+8
 3415              	.LVL248:
  55:../DaisySP/Source/Utility/dsp.h **** #else
 3416              		.loc 12 55 5 is_stmt 0 view .LVU951
 3417              		.syntax unified
 3418              	@ 55 "../DaisySP/Source/Utility/dsp.h" 1
 3419 008a C7FEC77A 		vminnm.f32 s15, s15, s14
 3420              	@ 0 "" 2
 3421              	.LVL249:
  59:../DaisySP/Source/Utility/dsp.h **** }
ARM GAS  /var/folders/2p/02m_5p7958535cp2tpgps0400000gn/T//ccRuMDjw.s 			page 100


 3422              		.loc 12 59 5 is_stmt 1 view .LVU952
  59:../DaisySP/Source/Utility/dsp.h **** }
 3423              		.loc 12 59 5 is_stmt 0 view .LVU953
 3424              		.thumb
 3425              		.syntax unified
 3426              	.LBE660:
 3427              	.LBE659:
 3428              	.LBE661:
 3429              	.LBE663:
 3430              	.LBE669:
 525:GrannyChordApp.cpp ****       /* set cutoff frequency of low pass moog filter */
 526:GrannyChordApp.cpp ****       lowpass_moog_.SetFreq(knob1_val);
 3431              		.loc 2 526 7 is_stmt 1 view .LVU954
 3432              	.LBB670:
 3433              	.LBI665:
  39:../DaisySP/Source/../DaisySP-LGPL/Source/Filters/moogladder.h ****     /** 
 3434              		.loc 7 39 17 view .LVU955
 3435              	.LBB667:
  39:../DaisySP/Source/../DaisySP-LGPL/Source/Filters/moogladder.h ****     /** 
 3436              		.loc 7 39 39 view .LVU956
  39:../DaisySP/Source/../DaisySP-LGPL/Source/Filters/moogladder.h ****     /** 
 3437              		.loc 7 39 45 is_stmt 0 view .LVU957
 3438 008e C0ED027A 		vstr.32	s15, [r0, #8]
 3439              	.LVL250:
 3440              	.L152:
  39:../DaisySP/Source/../DaisySP-LGPL/Source/Filters/moogladder.h ****     /** 
 3441              		.loc 7 39 45 view .LVU958
 3442              	.LBE667:
 3443              	.LBE670:
 527:GrannyChordApp.cpp ****       return;
 528:GrannyChordApp.cpp ****   }
 529:GrannyChordApp.cpp **** }
 3444              		.loc 2 529 1 view .LVU959
 3445 0092 7047     		bx	lr
 3446              	.L166:
 3447              		.align	2
 3448              	.L165:
 3449 0094 00000000 		.word	0
 3450 0098 00A09B45 		.word	1167826944
 3451 009c 00409C45 		.word	1167867904
 3452              		.cfi_endproc
 3453              	.LFE4934:
 3455              		.section	.text._ZN14GrannyChordApp17UpdateKnob2ParamsEf9SynthMode,"ax",%progbits
 3456              		.align	1
 3457              		.global	_ZN14GrannyChordApp17UpdateKnob2ParamsEf9SynthMode
 3458              		.syntax unified
 3459              		.thumb
 3460              		.thumb_func
 3462              	_ZN14GrannyChordApp17UpdateKnob2ParamsEf9SynthMode:
 3463              	.LVL251:
 3464              	.LFB4935:
 530:GrannyChordApp.cpp **** 
 531:GrannyChordApp.cpp **** void GrannyChordApp::UpdateKnob2Params(float knob2_val, SynthMode mode){
 3465              		.loc 2 531 72 is_stmt 1 view -0
 3466              		.cfi_startproc
 3467              		@ args = 0, pretend = 0, frame = 0
 3468              		@ frame_needed = 0, uses_anonymous_args = 0
ARM GAS  /var/folders/2p/02m_5p7958535cp2tpgps0400000gn/T//ccRuMDjw.s 			page 101


 532:GrannyChordApp.cpp ****   switch (mode){
 3469              		.loc 2 532 3 view .LVU961
 531:GrannyChordApp.cpp ****   switch (mode){
 3470              		.loc 2 531 72 is_stmt 0 view .LVU962
 3471 0000 10B5     		push	{r4, lr}
 3472              		.cfi_def_cfa_offset 8
 3473              		.cfi_offset 4, -8
 3474              		.cfi_offset 14, -4
 531:GrannyChordApp.cpp ****   switch (mode){
 3475              		.loc 2 531 72 view .LVU963
 3476 0002 0446     		mov	r4, r0
 3477              		.loc 2 532 3 view .LVU964
 3478 0004 0829     		cmp	r1, #8
 3479 0006 14D8     		bhi	.L167
 3480 0008 DFE801F0 		tbb	[pc, r1]
 3481              	.L170:
 3482 000c 05       		.byte	(.L178-.L170)/2
 3483 000d 0A       		.byte	(.L177-.L170)/2
 3484 000e 14       		.byte	(.L176-.L170)/2
 3485 000f 29       		.byte	(.L175-.L170)/2
 3486 0010 2C       		.byte	(.L174-.L170)/2
 3487 0011 2F       		.byte	(.L173-.L170)/2
 3488 0012 0F       		.byte	(.L172-.L170)/2
 3489 0013 32       		.byte	(.L171-.L170)/2
 3490 0014 39       		.byte	(.L169-.L170)/2
 3491 0015 00       		.p2align 1
 3492              	.L178:
 533:GrannyChordApp.cpp ****     case SynthMode::Size_Position:
 3493              		.loc 2 533 5 is_stmt 1 view .LVU965
 534:GrannyChordApp.cpp ****       synth_.SetSpawnPos(knob2_val);
 3494              		.loc 2 534 7 view .LVU966
 3495              		.loc 2 534 25 is_stmt 0 view .LVU967
 3496 0016 2030     		adds	r0, r0, #32
 3497              	.LVL252:
 535:GrannyChordApp.cpp ****       return;
 536:GrannyChordApp.cpp ****     case SynthMode::Pitch_ActiveGrains:
 537:GrannyChordApp.cpp ****       synth_.SetActiveGrains(knob2_val);
 538:GrannyChordApp.cpp ****       return;
 539:GrannyChordApp.cpp ****     case SynthMode::Pan_PanRnd:
 540:GrannyChordApp.cpp ****       synth_.SetPanRnd(knob2_val);
 541:GrannyChordApp.cpp ****       return;
 542:GrannyChordApp.cpp ****     case SynthMode::PhasorMode_EnvType:
 543:GrannyChordApp.cpp ****       knob2_val = fmap(knob2_val, 0, NUM_ENV_TYPES);
 544:GrannyChordApp.cpp ****       synth_.SetEnvelopeType(static_cast<Grain::EnvelopeType>(knob2_val));
 545:GrannyChordApp.cpp ****       return;
 546:GrannyChordApp.cpp ****     case SynthMode::Size_Position_Rnd:
 547:GrannyChordApp.cpp ****       synth_.SetPositionRnd(knob2_val);
 548:GrannyChordApp.cpp ****       return;
 549:GrannyChordApp.cpp ****     case SynthMode::Pitch_ActiveGrains_Rnd:
 550:GrannyChordApp.cpp ****       synth_.SetCountRnd(knob2_val);
 551:GrannyChordApp.cpp ****       return;
 552:GrannyChordApp.cpp ****     case SynthMode::PhasorMode_EnvType_Rnd:
 553:GrannyChordApp.cpp ****       synth_.SetEnvRnd(knob2_val);
 554:GrannyChordApp.cpp ****       return;
 555:GrannyChordApp.cpp ****     case SynthMode::Reverb:
 556:GrannyChordApp.cpp ****       // /* map knob value to frequency range with an exponential curve */
 557:GrannyChordApp.cpp ****       // knob2_val = fmap(knob2_val, 100.0f, 20000.0f, daisysp::Mapping::EXP);
ARM GAS  /var/folders/2p/02m_5p7958535cp2tpgps0400000gn/T//ccRuMDjw.s 			page 102


 558:GrannyChordApp.cpp ****       // /* set reverb low pass frequency */
 559:GrannyChordApp.cpp ****       // reverb_.SetLpFreq(knob2_val);
 560:GrannyChordApp.cpp ****       reverb_.SetMix(knob2_val);
 561:GrannyChordApp.cpp ****       return;
 562:GrannyChordApp.cpp ****     case SynthMode::Filter:
 563:GrannyChordApp.cpp ****       /* again, map knob value to frequency range with an exponential curve */
 564:GrannyChordApp.cpp ****       knob2_val = fmap(knob2_val, 0.001f, 0.497f, daisysp::Mapping::EXP);
 565:GrannyChordApp.cpp ****       /* set cutoff frequency for high pass filter */
 566:GrannyChordApp.cpp ****       hipass_.SetFrequency(knob2_val);
 567:GrannyChordApp.cpp ****       return;
 568:GrannyChordApp.cpp ****   }
 569:GrannyChordApp.cpp **** }
 3498              		.loc 2 569 1 view .LVU968
 3499 0018 BDE81040 		pop	{r4, lr}
 3500              		.cfi_remember_state
 3501              		.cfi_restore 14
 3502              		.cfi_restore 4
 3503              		.cfi_def_cfa_offset 0
 3504              	.LVL253:
 534:GrannyChordApp.cpp ****       synth_.SetSpawnPos(knob2_val);
 3505              		.loc 2 534 25 view .LVU969
 3506 001c FFF7FEBF 		b	_ZN13GranularSynth11SetSpawnPosEf
 3507              	.LVL254:
 3508              	.L177:
 3509              		.cfi_restore_state
 536:GrannyChordApp.cpp ****       synth_.SetActiveGrains(knob2_val);
 3510              		.loc 2 536 5 is_stmt 1 view .LVU970
 537:GrannyChordApp.cpp ****       return;
 3511              		.loc 2 537 7 view .LVU971
 537:GrannyChordApp.cpp ****       return;
 3512              		.loc 2 537 29 is_stmt 0 view .LVU972
 3513 0020 2030     		adds	r0, r0, #32
 3514              	.LVL255:
 3515              		.loc 2 569 1 view .LVU973
 3516 0022 BDE81040 		pop	{r4, lr}
 3517              		.cfi_remember_state
 3518              		.cfi_restore 14
 3519              		.cfi_restore 4
 3520              		.cfi_def_cfa_offset 0
 3521              	.LVL256:
 537:GrannyChordApp.cpp ****       return;
 3522              		.loc 2 537 29 view .LVU974
 3523 0026 FFF7FEBF 		b	_ZN13GranularSynth15SetActiveGrainsEf
 3524              	.LVL257:
 3525              	.L172:
 3526              		.cfi_restore_state
 539:GrannyChordApp.cpp ****       synth_.SetPanRnd(knob2_val);
 3527              		.loc 2 539 5 is_stmt 1 view .LVU975
 540:GrannyChordApp.cpp ****       return;
 3528              		.loc 2 540 7 view .LVU976
 3529              	.LBB697:
 3530              	.LBI697:
  37:GranularSynth.h ****     void SetEnvRnd(float rnd){ rnd_envelope_ = rnd; }
 3531              		.loc 13 37 10 view .LVU977
 3532              	.LBB698:
  37:GranularSynth.h ****     void SetEnvRnd(float rnd){ rnd_envelope_ = rnd; }
 3533              		.loc 13 37 32 view .LVU978
ARM GAS  /var/folders/2p/02m_5p7958535cp2tpgps0400000gn/T//ccRuMDjw.s 			page 103


  37:GranularSynth.h ****     void SetEnvRnd(float rnd){ rnd_envelope_ = rnd; }
 3534              		.loc 13 37 41 is_stmt 0 view .LVU979
 3535 002a 00F22444 		addw	r4, r0, #1060
 3536              	.LVL258:
 3537              	.L180:
  37:GranularSynth.h ****     void SetEnvRnd(float rnd){ rnd_envelope_ = rnd; }
 3538              		.loc 13 37 41 view .LVU980
 3539              	.LBE698:
 3540              	.LBE697:
 3541              	.LBB699:
 3542              	.LBB700:
  38:GranularSynth.h ****     void SetPhasorRnd(float rnd){ rnd_phasor_ = rnd; }
 3543              		.loc 13 38 46 view .LVU981
 3544 002e 84ED000A 		vstr.32	s0, [r4]
 3545              	.LVL259:
 3546              	.L167:
  38:GranularSynth.h ****     void SetPhasorRnd(float rnd){ rnd_phasor_ = rnd; }
 3547              		.loc 13 38 46 view .LVU982
 3548              	.LBE700:
 3549              	.LBE699:
 3550              		.loc 2 569 1 view .LVU983
 3551 0032 10BD     		pop	{r4, pc}
 3552              	.LVL260:
 3553              	.L176:
 542:GrannyChordApp.cpp ****       knob2_val = fmap(knob2_val, 0, NUM_ENV_TYPES);
 3554              		.loc 2 542 5 is_stmt 1 view .LVU984
 543:GrannyChordApp.cpp ****       synth_.SetEnvelopeType(static_cast<Grain::EnvelopeType>(knob2_val));
 3555              		.loc 2 543 7 view .LVU985
 3556              	.LBB702:
 3557              	.LBI702:
 177:../DaisySP/Source/Utility/dsp.h **** {
 3558              		.loc 12 177 1 view .LVU986
 3559              	.LBE702:
 179:../DaisySP/Source/Utility/dsp.h ****     {
 3560              		.loc 12 179 5 view .LVU987
 3561              	.LBB713:
 3562              	.LBB703:
 188:../DaisySP/Source/Utility/dsp.h ****         default: return fclamp(min + in * (max - min), min, max);
 3563              		.loc 12 188 9 view .LVU988
 3564              		.loc 12 189 9 view .LVU989
 3565              		.loc 12 189 18 view .LVU990
 3566              		.loc 12 189 31 is_stmt 0 view .LVU991
 3567 0034 DFED276A 		vldr.32	s13, .L181
 3568 0038 B1EE007A 		vmov.f32	s14, #4.0e+0
 3569              	.LBE703:
 3570              	.LBE713:
 544:GrannyChordApp.cpp ****       return;
 3571              		.loc 2 544 29 view .LVU992
 3572 003c 2030     		adds	r0, r0, #32
 3573              	.LVL261:
 3574              	.LBB714:
 3575              	.LBB710:
 3576              		.loc 12 189 31 view .LVU993
 3577 003e F0EE667A 		vmov.f32	s15, s13
 3578              	.LBE710:
 3579              	.LBE714:
 3580              		.loc 2 569 1 view .LVU994
ARM GAS  /var/folders/2p/02m_5p7958535cp2tpgps0400000gn/T//ccRuMDjw.s 			page 104


 3581 0042 BDE81040 		pop	{r4, lr}
 3582              		.cfi_remember_state
 3583              		.cfi_restore 14
 3584              		.cfi_restore 4
 3585              		.cfi_def_cfa_offset 0
 3586              	.LVL262:
 3587              	.LBB715:
 3588              	.LBB711:
 3589              		.loc 12 189 31 view .LVU995
 3590 0046 E0EE077A 		vfma.f32	s15, s0, s14
 3591              	.LVL263:
 3592              	.LBB704:
 3593              	.LBI704:
  64:../DaisySP/Source/Utility/dsp.h **** {
 3594              		.loc 12 64 14 is_stmt 1 view .LVU996
 3595              	.LBE704:
 3596              	.LBE711:
 3597              	.LBE715:
  66:../DaisySP/Source/Utility/dsp.h **** }
 3598              		.loc 12 66 5 view .LVU997
 3599              	.LBB716:
 3600              	.LBB712:
 3601              	.LBB709:
 3602              	.LBB705:
 3603              	.LBI705:
  40:../DaisySP/Source/Utility/dsp.h **** {
 3604              		.loc 12 40 14 view .LVU998
 3605              	.LBB706:
  42:../DaisySP/Source/Utility/dsp.h **** #ifdef __arm__
 3606              		.loc 12 42 5 view .LVU999
  44:../DaisySP/Source/Utility/dsp.h **** #else
 3607              		.loc 12 44 5 view .LVU1000
 3608              		.syntax unified
 3609              	@ 44 "../DaisySP/Source/Utility/dsp.h" 1
 3610 004a C7FEA67A 		vmaxnm.f32 s15, s15, s13
 3611              	@ 0 "" 2
 3612              	.LVL264:
  48:../DaisySP/Source/Utility/dsp.h **** }
 3613              		.loc 12 48 5 view .LVU1001
  48:../DaisySP/Source/Utility/dsp.h **** }
 3614              		.loc 12 48 5 is_stmt 0 view .LVU1002
 3615              		.thumb
 3616              		.syntax unified
 3617              	.LBE706:
 3618              	.LBE705:
 3619              	.LBB707:
 3620              	.LBI707:
  51:../DaisySP/Source/Utility/dsp.h **** {
 3621              		.loc 12 51 14 is_stmt 1 view .LVU1003
 3622              	.LBB708:
  53:../DaisySP/Source/Utility/dsp.h **** #ifdef __arm__
 3623              		.loc 12 53 5 view .LVU1004
  55:../DaisySP/Source/Utility/dsp.h **** #else
 3624              		.loc 12 55 5 view .LVU1005
 3625              		.syntax unified
 3626              	@ 55 "../DaisySP/Source/Utility/dsp.h" 1
 3627 004e C7FEC77A 		vminnm.f32 s15, s15, s14
ARM GAS  /var/folders/2p/02m_5p7958535cp2tpgps0400000gn/T//ccRuMDjw.s 			page 105


 3628              	@ 0 "" 2
 3629              	.LVL265:
  59:../DaisySP/Source/Utility/dsp.h **** }
 3630              		.loc 12 59 5 view .LVU1006
  59:../DaisySP/Source/Utility/dsp.h **** }
 3631              		.loc 12 59 5 is_stmt 0 view .LVU1007
 3632              		.thumb
 3633              		.syntax unified
 3634              	.LBE708:
 3635              	.LBE707:
 3636              	.LBE709:
 3637              	.LBE712:
 3638              	.LBE716:
 544:GrannyChordApp.cpp ****       return;
 3639              		.loc 2 544 7 is_stmt 1 view .LVU1008
 544:GrannyChordApp.cpp ****       return;
 3640              		.loc 2 544 29 is_stmt 0 view .LVU1009
 3641 0052 FDEEE77A 		vcvt.s32.f32	s15, s15
 3642              	.LVL266:
 544:GrannyChordApp.cpp ****       return;
 3643              		.loc 2 544 29 view .LVU1010
 3644 0056 17EE901A 		vmov	r1, s15	@ int
 3645              	.LVL267:
 544:GrannyChordApp.cpp ****       return;
 3646              		.loc 2 544 29 view .LVU1011
 3647 005a FFF7FEBF 		b	_ZN13GranularSynth15SetEnvelopeTypeEN5Grain12EnvelopeTypeE
 3648              	.LVL268:
 3649              	.L175:
 3650              		.cfi_restore_state
 546:GrannyChordApp.cpp ****       synth_.SetPositionRnd(knob2_val);
 3651              		.loc 2 546 5 is_stmt 1 view .LVU1012
 547:GrannyChordApp.cpp ****       return;
 3652              		.loc 2 547 7 view .LVU1013
 3653              	.LBB717:
 3654              	.LBI717:
  34:GranularSynth.h ****     void SetPitchRnd(float rnd){ rnd_pitch_ = rnd; }
 3655              		.loc 13 34 10 view .LVU1014
 3656              	.LBB718:
  34:GranularSynth.h ****     void SetPitchRnd(float rnd){ rnd_pitch_ = rnd; }
 3657              		.loc 13 34 37 view .LVU1015
  34:GranularSynth.h ****     void SetPitchRnd(float rnd){ rnd_pitch_ = rnd; }
 3658              		.loc 13 34 52 is_stmt 0 view .LVU1016
 3659 005e 00F58364 		add	r4, r0, #1048
 3660 0062 E4E7     		b	.L180
 3661              	.LVL269:
 3662              	.L174:
  34:GranularSynth.h ****     void SetPitchRnd(float rnd){ rnd_pitch_ = rnd; }
 3663              		.loc 13 34 52 view .LVU1017
 3664              	.LBE718:
 3665              	.LBE717:
 549:GrannyChordApp.cpp ****       synth_.SetCountRnd(knob2_val);
 3666              		.loc 2 549 5 is_stmt 1 view .LVU1018
 550:GrannyChordApp.cpp ****       return;
 3667              		.loc 2 550 7 view .LVU1019
 3668              	.LBB719:
 3669              	.LBI719:
  36:GranularSynth.h ****     void SetPanRnd(float rnd){ rnd_pan_ = rnd; }
ARM GAS  /var/folders/2p/02m_5p7958535cp2tpgps0400000gn/T//ccRuMDjw.s 			page 106


 3670              		.loc 13 36 10 view .LVU1020
 3671              	.LBB720:
  36:GranularSynth.h ****     void SetPanRnd(float rnd){ rnd_pan_ = rnd; }
 3672              		.loc 13 36 34 view .LVU1021
  36:GranularSynth.h ****     void SetPanRnd(float rnd){ rnd_pan_ = rnd; }
 3673              		.loc 13 36 45 is_stmt 0 view .LVU1022
 3674 0064 00F21C44 		addw	r4, r0, #1052
 3675 0068 E1E7     		b	.L180
 3676              	.LVL270:
 3677              	.L173:
  36:GranularSynth.h ****     void SetPanRnd(float rnd){ rnd_pan_ = rnd; }
 3678              		.loc 13 36 45 view .LVU1023
 3679              	.LBE720:
 3680              	.LBE719:
 552:GrannyChordApp.cpp ****       synth_.SetEnvRnd(knob2_val);
 3681              		.loc 2 552 5 is_stmt 1 view .LVU1024
 553:GrannyChordApp.cpp ****       return;
 3682              		.loc 2 553 7 view .LVU1025
 3683              	.LBB721:
 3684              	.LBI699:
  38:GranularSynth.h ****     void SetPhasorRnd(float rnd){ rnd_phasor_ = rnd; }
 3685              		.loc 13 38 10 view .LVU1026
 3686              	.LBB701:
  38:GranularSynth.h ****     void SetPhasorRnd(float rnd){ rnd_phasor_ = rnd; }
 3687              		.loc 13 38 32 view .LVU1027
  38:GranularSynth.h ****     void SetPhasorRnd(float rnd){ rnd_phasor_ = rnd; }
 3688              		.loc 13 38 46 is_stmt 0 view .LVU1028
 3689 006a 00F58564 		add	r4, r0, #1064
 3690 006e DEE7     		b	.L180
 3691              	.LVL271:
 3692              	.L171:
  38:GranularSynth.h ****     void SetPhasorRnd(float rnd){ rnd_phasor_ = rnd; }
 3693              		.loc 13 38 46 view .LVU1029
 3694              	.LBE701:
 3695              	.LBE721:
 555:GrannyChordApp.cpp ****       // /* map knob value to frequency range with an exponential curve */
 3696              		.loc 2 555 5 is_stmt 1 view .LVU1030
 560:GrannyChordApp.cpp ****       return;
 3697              		.loc 2 560 7 view .LVU1031
 3698              	.LBB722:
 3699              	.LBI722:
  51:../DaisySP/Source/../DaisySP-LGPL/Source/Effects/reverbsc.h ****     /** controls the reverb time. reverb tail becomes infinite when set to 1.0
 3700              		.loc 14 51 10 view .LVU1032
 3701              	.LBB723:
  51:../DaisySP/Source/../DaisySP-LGPL/Source/Effects/reverbsc.h ****     /** controls the reverb time. reverb tail becomes infinite when set to 1.0
 3702              		.loc 14 51 30 view .LVU1033
  51:../DaisySP/Source/../DaisySP-LGPL/Source/Effects/reverbsc.h ****     /** controls the reverb time. reverb tail becomes infinite when set to 1.0
 3703              		.loc 14 51 39 is_stmt 0 view .LVU1034
 3704 0070 D0F88834 		ldr	r3, [r0, #1160]
 3705 0074 03F5C123 		add	r3, r3, #395264
 3706 0078 83EDD10A 		vstr.32	s0, [r3, #836]
  51:../DaisySP/Source/../DaisySP-LGPL/Source/Effects/reverbsc.h ****     /** controls the reverb time. reverb tail becomes infinite when set to 1.0
 3707              		.loc 14 51 46 view .LVU1035
 3708 007c D9E7     		b	.L167
 3709              	.LVL272:
 3710              	.L169:
  51:../DaisySP/Source/../DaisySP-LGPL/Source/Effects/reverbsc.h ****     /** controls the reverb time. reverb tail becomes infinite when set to 1.0
ARM GAS  /var/folders/2p/02m_5p7958535cp2tpgps0400000gn/T//ccRuMDjw.s 			page 107


 3711              		.loc 14 51 46 view .LVU1036
 3712              	.LBE723:
 3713              	.LBE722:
 562:GrannyChordApp.cpp ****       /* again, map knob value to frequency range with an exponential curve */
 3714              		.loc 2 562 5 is_stmt 1 view .LVU1037
 564:GrannyChordApp.cpp ****       /* set cutoff frequency for high pass filter */
 3715              		.loc 2 564 7 view .LVU1038
 3716              	.LBB724:
 3717              	.LBI724:
 177:../DaisySP/Source/Utility/dsp.h **** {
 3718              		.loc 12 177 1 view .LVU1039
 3719              	.LBE724:
 179:../DaisySP/Source/Utility/dsp.h ****     {
 3720              		.loc 12 179 5 view .LVU1040
 3721              	.LBB738:
 3722              	.LBB725:
 181:../DaisySP/Source/Utility/dsp.h ****             return fclamp(min + (in * in) * (max - min), min, max);
 3723              		.loc 12 181 9 view .LVU1041
 182:../DaisySP/Source/Utility/dsp.h ****         case Mapping::LOG:
 3724              		.loc 12 182 13 view .LVU1042
 182:../DaisySP/Source/Utility/dsp.h ****         case Mapping::LOG:
 3725              		.loc 12 182 26 is_stmt 0 view .LVU1043
 3726 007e 9FED167A 		vldr.32	s14, .L181+4
 182:../DaisySP/Source/Utility/dsp.h ****         case Mapping::LOG:
 3727              		.loc 12 182 37 view .LVU1044
 3728 0082 20EE000A 		vmul.f32	s0, s0, s0
 3729              	.LVL273:
 182:../DaisySP/Source/Utility/dsp.h ****         case Mapping::LOG:
 3730              		.loc 12 182 26 view .LVU1045
 3731 0086 DFED156A 		vldr.32	s13, .L181+8
 3732              	.LBE725:
 3733              	.LBE738:
 3734              	.LBB739:
 3735              	.LBB740:
  61:../DaisySP/Source/Filters/onepole.h ****         gi_ = 1.f / (1.f + g_);
 3736              		.loc 8 61 13 view .LVU1046
 3737 008a 04F59A64 		add	r4, r4, #1232
 3738              	.LBE740:
 3739              	.LBE739:
 3740              	.LBB743:
 3741              	.LBB735:
 182:../DaisySP/Source/Utility/dsp.h ****         case Mapping::LOG:
 3742              		.loc 12 182 26 view .LVU1047
 3743 008e F0EE477A 		vmov.f32	s15, s14
 3744 0092 E0EE267A 		vfma.f32	s15, s0, s13
 3745              	.LVL274:
 3746              	.LBB726:
 3747              	.LBI726:
  64:../DaisySP/Source/Utility/dsp.h **** {
 3748              		.loc 12 64 14 is_stmt 1 view .LVU1048
 3749              	.LBE726:
 3750              	.LBE735:
 3751              	.LBE743:
  66:../DaisySP/Source/Utility/dsp.h **** }
 3752              		.loc 12 66 5 view .LVU1049
 3753              	.LBB744:
 3754              	.LBB736:
ARM GAS  /var/folders/2p/02m_5p7958535cp2tpgps0400000gn/T//ccRuMDjw.s 			page 108


 3755              	.LBB733:
 3756              	.LBB727:
 3757              	.LBI727:
  40:../DaisySP/Source/Utility/dsp.h **** {
 3758              		.loc 12 40 14 view .LVU1050
 3759              	.LBB728:
  42:../DaisySP/Source/Utility/dsp.h **** #ifdef __arm__
 3760              		.loc 12 42 5 view .LVU1051
  44:../DaisySP/Source/Utility/dsp.h **** #else
 3761              		.loc 12 44 5 view .LVU1052
 3762              	.LBE728:
 3763              	.LBE727:
 3764              	.LBE733:
 3765              	.LBE736:
 3766              	.LBE744:
 3767              	.LBB745:
 3768              	.LBB741:
  61:../DaisySP/Source/Filters/onepole.h ****         gi_ = 1.f / (1.f + g_);
 3769              		.loc 8 61 19 is_stmt 0 view .LVU1053
 3770 0096 9FED120A 		vldr.32	s0, .L181+12
 3771              	.LBE741:
 3772              	.LBE745:
 3773              	.LBB746:
 3774              	.LBB737:
 3775              	.LBB734:
 3776              	.LBB730:
 3777              	.LBB729:
  44:../DaisySP/Source/Utility/dsp.h **** #else
 3778              		.loc 12 44 5 view .LVU1054
 3779              		.syntax unified
 3780              	@ 44 "../DaisySP/Source/Utility/dsp.h" 1
 3781 009a C7FE877A 		vmaxnm.f32 s15, s15, s14
 3782              	@ 0 "" 2
 3783              	.LVL275:
  48:../DaisySP/Source/Utility/dsp.h **** }
 3784              		.loc 12 48 5 is_stmt 1 view .LVU1055
  48:../DaisySP/Source/Utility/dsp.h **** }
 3785              		.loc 12 48 5 is_stmt 0 view .LVU1056
 3786              		.thumb
 3787              		.syntax unified
 3788              	.LBE729:
 3789              	.LBE730:
 3790              	.LBB731:
 3791              	.LBI731:
  51:../DaisySP/Source/Utility/dsp.h **** {
 3792              		.loc 12 51 14 is_stmt 1 view .LVU1057
 3793              	.LBB732:
  53:../DaisySP/Source/Utility/dsp.h **** #ifdef __arm__
 3794              		.loc 12 53 5 view .LVU1058
  55:../DaisySP/Source/Utility/dsp.h **** #else
 3795              		.loc 12 55 5 view .LVU1059
 3796 009e 9FED117A 		vldr.32	s14, .L181+16
 3797              	.LVL276:
  55:../DaisySP/Source/Utility/dsp.h **** #else
 3798              		.loc 12 55 5 is_stmt 0 view .LVU1060
 3799              		.syntax unified
 3800              	@ 55 "../DaisySP/Source/Utility/dsp.h" 1
ARM GAS  /var/folders/2p/02m_5p7958535cp2tpgps0400000gn/T//ccRuMDjw.s 			page 109


 3801 00a2 C7FEC77A 		vminnm.f32 s15, s15, s14
 3802              	@ 0 "" 2
 3803              	.LVL277:
  59:../DaisySP/Source/Utility/dsp.h **** }
 3804              		.loc 12 59 5 is_stmt 1 view .LVU1061
  59:../DaisySP/Source/Utility/dsp.h **** }
 3805              		.loc 12 59 5 is_stmt 0 view .LVU1062
 3806              		.thumb
 3807              		.syntax unified
 3808              	.LBE732:
 3809              	.LBE731:
 3810              	.LBE734:
 3811              	.LBE737:
 3812              	.LBE746:
 566:GrannyChordApp.cpp ****       return;
 3813              		.loc 2 566 7 is_stmt 1 view .LVU1063
 3814              	.LBB747:
 3815              	.LBI739:
  56:../DaisySP/Source/Filters/onepole.h ****     {
 3816              		.loc 8 56 17 view .LVU1064
 3817              	.LBB742:
  59:../DaisySP/Source/Filters/onepole.h **** 
 3818              		.loc 8 59 9 view .LVU1065
  59:../DaisySP/Source/Filters/onepole.h **** 
 3819              		.loc 8 59 30 is_stmt 0 view .LVU1066
 3820 00a6 F4EEC77A 		vcmpe.f32	s15, s14
 3821 00aa F1EE10FA 		vmrs	APSR_nzcv, FPSCR
 3822 00ae 58BF     		it	pl
 3823 00b0 F0EE477A 		vmovpl.f32	s15, s14
 3824              	.LVL278:
  61:../DaisySP/Source/Filters/onepole.h ****         gi_ = 1.f / (1.f + g_);
 3825              		.loc 8 61 9 is_stmt 1 view .LVU1067
  61:../DaisySP/Source/Filters/onepole.h ****         gi_ = 1.f / (1.f + g_);
 3826              		.loc 8 61 19 is_stmt 0 view .LVU1068
 3827 00b4 27EE800A 		vmul.f32	s0, s15, s0
 3828 00b8 FFF7FEFF 		bl	tanf
 3829              	.LVL279:
  62:../DaisySP/Source/Filters/onepole.h ****     }
 3830              		.loc 8 62 26 view .LVU1069
 3831 00bc F7EE007A 		vmov.f32	s15, #1.0e+0
  61:../DaisySP/Source/Filters/onepole.h ****         gi_ = 1.f / (1.f + g_);
 3832              		.loc 8 61 13 view .LVU1070
 3833 00c0 84ED000A 		vstr.32	s0, [r4]
  62:../DaisySP/Source/Filters/onepole.h ****     }
 3834              		.loc 8 62 9 is_stmt 1 view .LVU1071
  62:../DaisySP/Source/Filters/onepole.h ****     }
 3835              		.loc 8 62 26 is_stmt 0 view .LVU1072
 3836 00c4 30EE270A 		vadd.f32	s0, s0, s15
  62:../DaisySP/Source/Filters/onepole.h ****     }
 3837              		.loc 8 62 19 view .LVU1073
 3838 00c8 87EE807A 		vdiv.f32	s14, s15, s0
  62:../DaisySP/Source/Filters/onepole.h ****     }
 3839              		.loc 8 62 13 view .LVU1074
 3840 00cc 84ED017A 		vstr.32	s14, [r4, #4]
  63:../DaisySP/Source/Filters/onepole.h **** 
 3841              		.loc 8 63 5 view .LVU1075
 3842 00d0 AFE7     		b	.L167
ARM GAS  /var/folders/2p/02m_5p7958535cp2tpgps0400000gn/T//ccRuMDjw.s 			page 110


 3843              	.L182:
 3844 00d2 00BF     		.align	2
 3845              	.L181:
 3846 00d4 00000000 		.word	0
 3847 00d8 6F12833A 		.word	981668463
 3848 00dc B7F3FD3E 		.word	1056830391
 3849 00e0 DB0F4940 		.word	1078530011
 3850 00e4 C976FE3E 		.word	1056863945
 3851              	.LBE742:
 3852              	.LBE747:
 3853              		.cfi_endproc
 3854              	.LFE4935:
 3856              		.section	.text._ZN14GrannyChordApp17UpdateSynthParamsEv,"ax",%progbits
 3857              		.align	1
 3858              		.global	_ZN14GrannyChordApp17UpdateSynthParamsEv
 3859              		.syntax unified
 3860              		.thumb
 3861              		.thumb_func
 3863              	_ZN14GrannyChordApp17UpdateSynthParamsEv:
 3864              	.LVL280:
 3865              	.LFB4916:
 226:GrannyChordApp.cpp ****   if (curr_state_!=AppState::Synthesis) return;
 3866              		.loc 2 226 41 is_stmt 1 view -0
 3867              		.cfi_startproc
 3868              		@ args = 0, pretend = 0, frame = 0
 3869              		@ frame_needed = 0, uses_anonymous_args = 0
 227:GrannyChordApp.cpp ****   int mode_idx = static_cast<int>(curr_synth_mode_);
 3870              		.loc 2 227 3 view .LVU1077
 3871 0000 D0F83834 		ldr	r3, [r0, #1080]
 3872 0004 022B     		cmp	r3, #2
 226:GrannyChordApp.cpp ****   if (curr_state_!=AppState::Synthesis) return;
 3873              		.loc 2 226 41 is_stmt 0 view .LVU1078
 3874 0006 70B5     		push	{r4, r5, r6, lr}
 3875              		.cfi_def_cfa_offset 16
 3876              		.cfi_offset 4, -16
 3877              		.cfi_offset 5, -12
 3878              		.cfi_offset 6, -8
 3879              		.cfi_offset 14, -4
 3880 0008 0446     		mov	r4, r0
 3881 000a 2DED048B 		vpush.64	{d8, d9}
 3882              		.cfi_def_cfa_offset 32
 3883              		.cfi_offset 80, -32
 3884              		.cfi_offset 81, -28
 3885              		.cfi_offset 82, -24
 3886              		.cfi_offset 83, -20
 227:GrannyChordApp.cpp ****   int mode_idx = static_cast<int>(curr_synth_mode_);
 3887              		.loc 2 227 3 view .LVU1079
 3888 000e 57D1     		bne	.L183
 3889              	.LVL281:
 3890              	.LBB758:
 3891              	.LBI758:
 226:GrannyChordApp.cpp ****   if (curr_state_!=AppState::Synthesis) return;
 3892              		.loc 2 226 6 is_stmt 1 view .LVU1080
 3893              	.LBB759:
 228:GrannyChordApp.cpp ****   float knob1_val = MapKnobDeadzone(pod_.knob1.Process());
 3894              		.loc 2 228 3 view .LVU1081
 228:GrannyChordApp.cpp ****   float knob1_val = MapKnobDeadzone(pod_.knob1.Process());
ARM GAS  /var/folders/2p/02m_5p7958535cp2tpgps0400000gn/T//ccRuMDjw.s 			page 111


 3895              		.loc 2 228 7 is_stmt 0 view .LVU1082
 3896 0010 D0F84054 		ldr	r5, [r0, #1088]
 3897              	.LVL282:
 229:GrannyChordApp.cpp ****   float knob2_val = MapKnobDeadzone(pod_.knob2.Process());
 3898              		.loc 2 229 3 is_stmt 1 view .LVU1083
 229:GrannyChordApp.cpp ****   float knob2_val = MapKnobDeadzone(pod_.knob2.Process());
 3899              		.loc 2 229 36 is_stmt 0 view .LVU1084
 3900 0014 C069     		ldr	r0, [r0, #28]
 3901              	.LVL283:
 3902              	.LBB760:
 3903              	.LBB761:
 570:GrannyChordApp.cpp **** 
 571:GrannyChordApp.cpp **** /* check parameter value change is over a certain level to avoid reading knob jitter */
 572:GrannyChordApp.cpp **** inline constexpr bool GrannyChordApp::CheckParamDelta(float curr_val, float prev_val){
 573:GrannyChordApp.cpp ****   return (fabsf(curr_val - prev_val)>0.01f);
 574:GrannyChordApp.cpp **** }
 575:GrannyChordApp.cpp **** 
 576:GrannyChordApp.cpp **** 
 577:GrannyChordApp.cpp **** /* knobs on the Pod have deadzones around 0 and 1 so we adjust for this */
 578:GrannyChordApp.cpp **** inline constexpr float GrannyChordApp::MapKnobDeadzone(float knob_val ){
 579:GrannyChordApp.cpp ****   if (knob_val<=0.01f) return 0.0f;
 3904              		.loc 2 579 3 view .LVU1085
 3905 0016 9FED2F9A 		vldr.32	s18, .L200
 3906              	.LBE761:
 3907              	.LBE760:
 229:GrannyChordApp.cpp ****   float knob2_val = MapKnobDeadzone(pod_.knob2.Process());
 3908              		.loc 2 229 36 view .LVU1086
 3909 001a 6830     		adds	r0, r0, #104
 3910 001c FFF7FEFF 		bl	_ZN5daisy13AnalogControl7ProcessEv
 3911              	.LVL284:
 3912              	.LBB764:
 3913              	.LBI760:
 578:GrannyChordApp.cpp ****   if (knob_val<=0.01f) return 0.0f;
 3914              		.loc 2 578 24 is_stmt 1 view .LVU1087
 3915              	.LBB762:
 3916              		.loc 2 579 3 view .LVU1088
 3917 0020 B4EEC90A 		vcmpe.f32	s0, s18
 3918 0024 F1EE10FA 		vmrs	APSR_nzcv, FPSCR
 3919 0028 4DD9     		bls	.L194
 580:GrannyChordApp.cpp ****   if (knob_val>=0.99f) return 1.0f;
 3920              		.loc 2 580 3 view .LVU1089
 3921              		.loc 2 580 31 is_stmt 0 view .LVU1090
 3922 002a DFED2B7A 		vldr.32	s15, .L200+4
 3923 002e B4EE670A 		vcmp.f32	s0, s15
 3924 0032 F7EE007A 		vmov.f32	s15, #1.0e+0
 3925 0036 F1EE10FA 		vmrs	APSR_nzcv, FPSCR
 3926 003a 67FE808A 		vselge.f32	s17, s15, s0
 3927              	.L186:
 3928              	.LVL285:
 3929              		.loc 2 580 31 view .LVU1091
 3930              	.LBE762:
 3931              	.LBE764:
 230:GrannyChordApp.cpp **** 
 3932              		.loc 2 230 3 is_stmt 1 view .LVU1092
 230:GrannyChordApp.cpp **** 
 3933              		.loc 2 230 36 is_stmt 0 view .LVU1093
 3934 003e E069     		ldr	r0, [r4, #28]
ARM GAS  /var/folders/2p/02m_5p7958535cp2tpgps0400000gn/T//ccRuMDjw.s 			page 112


 3935 0040 8830     		adds	r0, r0, #136
 3936 0042 FFF7FEFF 		bl	_ZN5daisy13AnalogControl7ProcessEv
 3937              	.LVL286:
 3938              	.LBB765:
 3939              	.LBI765:
 578:GrannyChordApp.cpp ****   if (knob_val<=0.01f) return 0.0f;
 3940              		.loc 2 578 24 is_stmt 1 view .LVU1094
 3941              	.LBB766:
 579:GrannyChordApp.cpp ****   if (knob_val>=0.99f) return 1.0f;
 3942              		.loc 2 579 3 view .LVU1095
 3943 0046 B4EEC90A 		vcmpe.f32	s0, s18
 3944 004a F1EE10FA 		vmrs	APSR_nzcv, FPSCR
 3945 004e 3DD9     		bls	.L195
 3946              		.loc 2 580 3 view .LVU1096
 3947              		.loc 2 580 31 is_stmt 0 view .LVU1097
 3948 0050 DFED217A 		vldr.32	s15, .L200+4
 3949 0054 B4EE670A 		vcmp.f32	s0, s15
 3950 0058 F7EE007A 		vmov.f32	s15, #1.0e+0
 3951 005c F1EE10FA 		vmrs	APSR_nzcv, FPSCR
 3952 0060 27FE808A 		vselge.f32	s16, s15, s0
 3953              	.L188:
 3954              	.LVL287:
 3955              		.loc 2 580 31 view .LVU1098
 3956              	.LBE766:
 3957              	.LBE765:
 232:GrannyChordApp.cpp ****     UpdateKnob1Params(knob1_val,curr_synth_mode_);
 3958              		.loc 2 232 3 is_stmt 1 view .LVU1099
 3959 0064 04EB8505 		add	r5, r4, r5, lsl #2
 3960              	.LVL288:
 3961              	.LBB768:
 3962              	.LBI768:
 572:GrannyChordApp.cpp ****   return (fabsf(curr_val - prev_val)>0.01f);
 3963              		.loc 2 572 23 view .LVU1100
 3964              	.LBB769:
 573:GrannyChordApp.cpp **** }
 3965              		.loc 2 573 3 view .LVU1101
 573:GrannyChordApp.cpp **** }
 3966              		.loc 2 573 3 is_stmt 0 view .LVU1102
 3967              	.LBE769:
 3968              	.LBE768:
 232:GrannyChordApp.cpp ****     UpdateKnob1Params(knob1_val,curr_synth_mode_);
 3969              		.loc 2 232 22 view .LVU1103
 3970 0068 05F5AF66 		add	r6, r5, #1400
 3971              	.LBB771:
 3972              	.LBB770:
 573:GrannyChordApp.cpp **** }
 3973              		.loc 2 573 26 view .LVU1104
 3974 006c D6ED007A 		vldr.32	s15, [r6]
 3975 0070 78EEE77A 		vsub.f32	s15, s17, s15
 573:GrannyChordApp.cpp **** }
 3976              		.loc 2 573 16 view .LVU1105
 3977 0074 F0EEE77A 		vabs.f32	s15, s15
 3978              	.LBE770:
 3979              	.LBE771:
 232:GrannyChordApp.cpp ****     UpdateKnob1Params(knob1_val,curr_synth_mode_);
 3980              		.loc 2 232 3 view .LVU1106
 3981 0078 F4EEC97A 		vcmpe.f32	s15, s18
ARM GAS  /var/folders/2p/02m_5p7958535cp2tpgps0400000gn/T//ccRuMDjw.s 			page 113


 3982 007c F1EE10FA 		vmrs	APSR_nzcv, FPSCR
 3983 0080 08DD     		ble	.L190
 233:GrannyChordApp.cpp ****     prev_param_vals_k1[mode_idx] = knob1_val;
 3984              		.loc 2 233 5 is_stmt 1 view .LVU1107
 233:GrannyChordApp.cpp ****     prev_param_vals_k1[mode_idx] = knob1_val;
 3985              		.loc 2 233 22 is_stmt 0 view .LVU1108
 3986 0082 B0EE680A 		vmov.f32	s0, s17
 3987 0086 D4F84014 		ldr	r1, [r4, #1088]
 3988 008a 2046     		mov	r0, r4
 3989 008c FFF7FEFF 		bl	_ZN14GrannyChordApp17UpdateKnob1ParamsEf9SynthMode
 3990              	.LVL289:
 234:GrannyChordApp.cpp ****   }
 3991              		.loc 2 234 5 is_stmt 1 view .LVU1109
 234:GrannyChordApp.cpp ****   }
 3992              		.loc 2 234 34 is_stmt 0 view .LVU1110
 3993 0090 C6ED008A 		vstr.32	s17, [r6]
 3994              	.L190:
 236:GrannyChordApp.cpp ****     UpdateKnob2Params(knob2_val, curr_synth_mode_);
 3995              		.loc 2 236 3 is_stmt 1 view .LVU1111
 3996              	.LVL290:
 3997              	.LBB772:
 3998              	.LBI772:
 572:GrannyChordApp.cpp ****   return (fabsf(curr_val - prev_val)>0.01f);
 3999              		.loc 2 572 23 view .LVU1112
 4000              	.LBB773:
 573:GrannyChordApp.cpp **** }
 4001              		.loc 2 573 3 view .LVU1113
 573:GrannyChordApp.cpp **** }
 4002              		.loc 2 573 3 is_stmt 0 view .LVU1114
 4003              	.LBE773:
 4004              	.LBE772:
 236:GrannyChordApp.cpp ****     UpdateKnob2Params(knob2_val, curr_synth_mode_);
 4005              		.loc 2 236 21 view .LVU1115
 4006 0094 05F29455 		addw	r5, r5, #1428
 4007              	.LBB775:
 4008              	.LBB774:
 573:GrannyChordApp.cpp **** }
 4009              		.loc 2 573 26 view .LVU1116
 4010 0098 D5ED007A 		vldr.32	s15, [r5]
 4011 009c 78EE677A 		vsub.f32	s15, s16, s15
 573:GrannyChordApp.cpp **** }
 4012              		.loc 2 573 16 view .LVU1117
 4013 00a0 F0EEE77A 		vabs.f32	s15, s15
 4014              	.LBE774:
 4015              	.LBE775:
 236:GrannyChordApp.cpp ****     UpdateKnob2Params(knob2_val, curr_synth_mode_);
 4016              		.loc 2 236 3 view .LVU1118
 4017 00a4 F4EEC97A 		vcmpe.f32	s15, s18
 4018 00a8 F1EE10FA 		vmrs	APSR_nzcv, FPSCR
 4019 00ac 08DD     		ble	.L183
 237:GrannyChordApp.cpp ****     prev_param_vals_k2[mode_idx] = knob2_val;
 4020              		.loc 2 237 5 is_stmt 1 view .LVU1119
 237:GrannyChordApp.cpp ****     prev_param_vals_k2[mode_idx] = knob2_val;
 4021              		.loc 2 237 22 is_stmt 0 view .LVU1120
 4022 00ae B0EE480A 		vmov.f32	s0, s16
 4023 00b2 D4F84014 		ldr	r1, [r4, #1088]
 4024 00b6 2046     		mov	r0, r4
ARM GAS  /var/folders/2p/02m_5p7958535cp2tpgps0400000gn/T//ccRuMDjw.s 			page 114


 4025 00b8 FFF7FEFF 		bl	_ZN14GrannyChordApp17UpdateKnob2ParamsEf9SynthMode
 4026              	.LVL291:
 238:GrannyChordApp.cpp ****   }
 4027              		.loc 2 238 5 is_stmt 1 view .LVU1121
 238:GrannyChordApp.cpp ****   }
 4028              		.loc 2 238 34 is_stmt 0 view .LVU1122
 4029 00bc 85ED008A 		vstr.32	s16, [r5]
 4030              	.LVL292:
 4031              	.L183:
 238:GrannyChordApp.cpp ****   }
 4032              		.loc 2 238 34 view .LVU1123
 4033              	.LBE759:
 4034              	.LBE758:
 240:GrannyChordApp.cpp **** 
 4035              		.loc 2 240 1 view .LVU1124
 4036 00c0 BDEC048B 		vldm	sp!, {d8-d9}
 4037              		.cfi_remember_state
 4038              		.cfi_restore 82
 4039              		.cfi_restore 83
 4040              		.cfi_restore 80
 4041              		.cfi_restore 81
 4042              		.cfi_def_cfa_offset 16
 4043 00c4 70BD     		pop	{r4, r5, r6, pc}
 4044              	.LVL293:
 4045              	.L194:
 4046              		.cfi_restore_state
 4047              	.LBB779:
 4048              	.LBB778:
 4049              	.LBB776:
 4050              	.LBB763:
 579:GrannyChordApp.cpp ****   if (knob_val>=0.99f) return 1.0f;
 4051              		.loc 2 579 31 view .LVU1125
 4052 00c6 DFED058A 		vldr.32	s17, .L200+8
 4053 00ca B8E7     		b	.L186
 4054              	.LVL294:
 4055              	.L195:
 579:GrannyChordApp.cpp ****   if (knob_val>=0.99f) return 1.0f;
 4056              		.loc 2 579 31 view .LVU1126
 4057              	.LBE763:
 4058              	.LBE776:
 4059              	.LBB777:
 4060              	.LBB767:
 4061 00cc 9FED038A 		vldr.32	s16, .L200+8
 4062 00d0 C8E7     		b	.L188
 4063              	.L201:
 4064 00d2 00BF     		.align	2
 4065              	.L200:
 4066 00d4 0AD7233C 		.word	1008981770
 4067 00d8 A4707D3F 		.word	1065185444
 4068 00dc 00000000 		.word	0
 4069              	.LBE767:
 4070              	.LBE777:
 4071              	.LBE778:
 4072              	.LBE779:
 4073              		.cfi_endproc
 4074              	.LFE4916:
 4076              		.section	.rodata._ZN14GrannyChordApp15DebugPrintStateE8AppState.str1.1,"aMS",%progbits,1
ARM GAS  /var/folders/2p/02m_5p7958535cp2tpgps0400000gn/T//ccRuMDjw.s 			page 115


 4077              	.LC14:
 4078 0000 53746174 		.ascii	"State now in: SelectFile\000"
 4078      65206E6F 
 4078      7720696E 
 4078      3A205365 
 4078      6C656374 
 4079              	.LC15:
 4080 0019 53746174 		.ascii	"State now in: RecordIn\000"
 4080      65206E6F 
 4080      7720696E 
 4080      3A205265 
 4080      636F7264 
 4081              	.LC16:
 4082 0030 53746174 		.ascii	"State now in: PlayWAV\000"
 4082      65206E6F 
 4082      7720696E 
 4082      3A20506C 
 4082      61795741 
 4083              	.LC17:
 4084 0046 53746174 		.ascii	"State now in: Synthesis\000"
 4084      65206E6F 
 4084      7720696E 
 4084      3A205379 
 4084      6E746865 
 4085              	.LC18:
 4086 005e 53746174 		.ascii	"State now in: Error\000"
 4086      65206E6F 
 4086      7720696E 
 4086      3A204572 
 4086      726F7200 
 4087              		.section	.text._ZN14GrannyChordApp15DebugPrintStateE8AppState,"ax",%progbits
 4088              		.align	1
 4089              		.global	_ZN14GrannyChordApp15DebugPrintStateE8AppState
 4090              		.syntax unified
 4091              		.thumb
 4092              		.thumb_func
 4094              	_ZN14GrannyChordApp15DebugPrintStateE8AppState:
 4095              	.LVL295:
 4096              	.LFB4939:
 581:GrannyChordApp.cpp ****   return knob_val;
 582:GrannyChordApp.cpp **** }
 583:GrannyChordApp.cpp **** 
 584:GrannyChordApp.cpp **** /* here we check if the current value of the knob has moved through the last stored value 
 585:GrannyChordApp.cpp ****   before the synth mode changed, and only update the parameter once the current knob value
 586:GrannyChordApp.cpp ****   'passes through' the stored value - meaning if we set grain size to 0.1 then switch modes 
 587:GrannyChordApp.cpp ****   and move the knob to 0.8, if we switch back, grain size won't be updated again until the 
 588:GrannyChordApp.cpp ****   knob passes through this value.  */
 589:GrannyChordApp.cpp **** inline constexpr float GrannyChordApp::UpdateKnobPassThru(float curr_knob_val, float *stored_knob_v
 590:GrannyChordApp.cpp ****   if (!(*pass_thru)){
 591:GrannyChordApp.cpp ****     if (curr_knob_val >= (*stored_knob_val) || curr_knob_val <= (*stored_knob_val)) {
 592:GrannyChordApp.cpp ****       (*pass_thru) = true;
 593:GrannyChordApp.cpp ****     }
 594:GrannyChordApp.cpp **** } 
 595:GrannyChordApp.cpp ****   if (*pass_thru){
 596:GrannyChordApp.cpp ****     (*stored_knob_val) = curr_knob_val;
 597:GrannyChordApp.cpp ****     return curr_knob_val;
 598:GrannyChordApp.cpp ****   }
ARM GAS  /var/folders/2p/02m_5p7958535cp2tpgps0400000gn/T//ccRuMDjw.s 			page 116


 599:GrannyChordApp.cpp ****   return (*stored_knob_val);
 600:GrannyChordApp.cpp **** }
 601:GrannyChordApp.cpp **** 
 602:GrannyChordApp.cpp **** void GrannyChordApp::DebugPrintState(AppState state){
 4097              		.loc 2 602 53 is_stmt 1 view -0
 4098              		.cfi_startproc
 4099              		@ args = 0, pretend = 0, frame = 0
 4100              		@ frame_needed = 0, uses_anonymous_args = 0
 4101              		@ link register save eliminated.
 603:GrannyChordApp.cpp ****   switch(state){
 4102              		.loc 2 603 3 view .LVU1128
 4103 0000 0329     		cmp	r1, #3
 4104 0002 0CD8     		bhi	.L203
 4105 0004 DFE801F0 		tbb	[pc, r1]
 4106              	.L205:
 4107 0008 02       		.byte	(.L208-.L205)/2
 4108 0009 07       		.byte	(.L207-.L205)/2
 4109 000a 09       		.byte	(.L206-.L205)/2
 4110 000b 05       		.byte	(.L204-.L205)/2
 4111              		.p2align 1
 4112              	.L208:
 604:GrannyChordApp.cpp ****     case AppState::SelectFile:
 4113              		.loc 2 604 5 view .LVU1129
 605:GrannyChordApp.cpp ****       DebugPrint(pod_, "State now in: SelectFile");
 4114              		.loc 2 605 7 view .LVU1130
 4115              		.loc 2 605 7 view .LVU1131
 4116              	.LVL296:
 4117              	.LBB780:
 4118              	.LBI780:
 126:../libDaisy/src/daisy_seed.h ****     {
 4119              		.loc 4 126 17 view .LVU1132
 4120              	.LBB781:
 4121              		.loc 4 128 23 is_stmt 0 view .LVU1133
 4122 000c 0548     		ldr	r0, .L210
 4123              	.LVL297:
 4124              	.L209:
 4125              		.loc 4 128 23 view .LVU1134
 4126              	.LBE781:
 4127              	.LBE780:
 4128              	.LBB782:
 4129              	.LBB783:
 4130 000e FFF7FEBF 		b	_ZN5daisy6LoggerILNS_17LoggerDestinationE1EE9PrintLineEPKcz
 4131              	.LVL298:
 4132              	.L204:
 4133              		.loc 4 128 23 view .LVU1135
 4134              	.LBE783:
 4135              	.LBE782:
 606:GrannyChordApp.cpp ****       return;
 607:GrannyChordApp.cpp ****     case AppState::RecordIn:
 4136              		.loc 2 607 5 is_stmt 1 view .LVU1136
 608:GrannyChordApp.cpp ****       DebugPrint(pod_, "State now in: RecordIn");
 4137              		.loc 2 608 7 view .LVU1137
 4138              		.loc 2 608 7 view .LVU1138
 4139              	.LBB785:
 4140              	.LBI785:
 126:../libDaisy/src/daisy_seed.h ****     {
 4141              		.loc 4 126 17 view .LVU1139
ARM GAS  /var/folders/2p/02m_5p7958535cp2tpgps0400000gn/T//ccRuMDjw.s 			page 117


 4142              	.LBB786:
 4143              		.loc 4 128 23 is_stmt 0 view .LVU1140
 4144 0012 0548     		ldr	r0, .L210+4
 4145              	.LVL299:
 4146              		.loc 4 128 23 view .LVU1141
 4147 0014 FBE7     		b	.L209
 4148              	.LVL300:
 4149              	.L207:
 4150              		.loc 4 128 23 view .LVU1142
 4151              	.LBE786:
 4152              	.LBE785:
 609:GrannyChordApp.cpp ****       return;
 610:GrannyChordApp.cpp ****     case AppState::PlayWAV:
 4153              		.loc 2 610 5 is_stmt 1 view .LVU1143
 611:GrannyChordApp.cpp ****       DebugPrint(pod_, "State now in: PlayWAV");
 4154              		.loc 2 611 7 view .LVU1144
 4155              		.loc 2 611 7 view .LVU1145
 4156              	.LBB787:
 4157              	.LBI787:
 126:../libDaisy/src/daisy_seed.h ****     {
 4158              		.loc 4 126 17 view .LVU1146
 4159              	.LBB788:
 4160              		.loc 4 128 23 is_stmt 0 view .LVU1147
 4161 0016 0548     		ldr	r0, .L210+8
 4162              	.LVL301:
 4163              		.loc 4 128 23 view .LVU1148
 4164 0018 F9E7     		b	.L209
 4165              	.LVL302:
 4166              	.L206:
 4167              		.loc 4 128 23 view .LVU1149
 4168              	.LBE788:
 4169              	.LBE787:
 612:GrannyChordApp.cpp ****       return;
 613:GrannyChordApp.cpp ****     case AppState::Synthesis:
 4170              		.loc 2 613 5 is_stmt 1 view .LVU1150
 614:GrannyChordApp.cpp ****       DebugPrint(pod_, "State now in: Synthesis");
 4171              		.loc 2 614 7 view .LVU1151
 4172              		.loc 2 614 7 view .LVU1152
 4173              	.LBB789:
 4174              	.LBI789:
 126:../libDaisy/src/daisy_seed.h ****     {
 4175              		.loc 4 126 17 view .LVU1153
 4176              	.LBB790:
 4177              		.loc 4 128 23 is_stmt 0 view .LVU1154
 4178 001a 0548     		ldr	r0, .L210+12
 4179              	.LVL303:
 4180              		.loc 4 128 23 view .LVU1155
 4181 001c F7E7     		b	.L209
 4182              	.LVL304:
 4183              	.L203:
 4184              		.loc 4 128 23 view .LVU1156
 4185              	.LBE790:
 4186              	.LBE789:
 615:GrannyChordApp.cpp ****       return;
 616:GrannyChordApp.cpp ****     // case AppState::ChordMode:
 617:GrannyChordApp.cpp ****       DebugPrint(pod_, "State now in: ChordMode");
 618:GrannyChordApp.cpp ****     case AppState::Error:
ARM GAS  /var/folders/2p/02m_5p7958535cp2tpgps0400000gn/T//ccRuMDjw.s 			page 118


 4187              		.loc 2 618 5 is_stmt 1 view .LVU1157
 619:GrannyChordApp.cpp ****     default:
 4188              		.loc 2 619 5 view .LVU1158
 620:GrannyChordApp.cpp ****       DebugPrint(pod_, "State now in: Error");
 4189              		.loc 2 620 7 view .LVU1159
 4190              		.loc 2 620 7 view .LVU1160
 4191              	.LBB791:
 4192              	.LBI782:
 126:../libDaisy/src/daisy_seed.h ****     {
 4193              		.loc 4 126 17 view .LVU1161
 4194              	.LBB784:
 4195              		.loc 4 128 23 is_stmt 0 view .LVU1162
 4196 001e 0548     		ldr	r0, .L210+16
 4197              	.LVL305:
 4198              		.loc 4 128 23 view .LVU1163
 4199 0020 F5E7     		b	.L209
 4200              	.L211:
 4201 0022 00BF     		.align	2
 4202              	.L210:
 4203 0024 00000000 		.word	.LC14
 4204 0028 19000000 		.word	.LC15
 4205 002c 30000000 		.word	.LC16
 4206 0030 46000000 		.word	.LC17
 4207 0034 5E000000 		.word	.LC18
 4208              	.LBE784:
 4209              	.LBE791:
 4210              		.cfi_endproc
 4211              	.LFE4939:
 4213              		.section	.rodata._ZN14GrannyChordApp8UpdateUIEv.str1.1,"aMS",%progbits,1
 4214              	.LC19:
 4215 0000 73776974 		.ascii	"switching states\000"
 4215      6368696E 
 4215      67207374 
 4215      61746573 
 4215      00
 4216              		.section	.text._ZN14GrannyChordApp8UpdateUIEv,"ax",%progbits
 4217              		.align	1
 4218              		.global	_ZN14GrannyChordApp8UpdateUIEv
 4219              		.syntax unified
 4220              		.thumb
 4221              		.thumb_func
 4223              	_ZN14GrannyChordApp8UpdateUIEv:
 4224              	.LVL306:
 4225              	.LFB4906:
  72:GrannyChordApp.cpp ****   pod_.ProcessDigitalControls();
 4226              		.loc 2 72 32 is_stmt 1 view -0
 4227              		.cfi_startproc
 4228              		@ args = 0, pretend = 0, frame = 0
 4229              		@ frame_needed = 0, uses_anonymous_args = 0
  73:GrannyChordApp.cpp ****   if ((pod_.encoder.TimeHeldMs() > 1000.0f)) HandleEncoderLongPress();
 4230              		.loc 2 73 3 view .LVU1165
  72:GrannyChordApp.cpp ****   pod_.ProcessDigitalControls();
 4231              		.loc 2 72 32 is_stmt 0 view .LVU1166
 4232 0000 10B5     		push	{r4, lr}
 4233              		.cfi_def_cfa_offset 8
 4234              		.cfi_offset 4, -8
 4235              		.cfi_offset 14, -4
ARM GAS  /var/folders/2p/02m_5p7958535cp2tpgps0400000gn/T//ccRuMDjw.s 			page 119


 4236 0002 0446     		mov	r4, r0
  73:GrannyChordApp.cpp ****   if ((pod_.encoder.TimeHeldMs() > 1000.0f)) HandleEncoderLongPress();
 4237              		.loc 2 73 30 view .LVU1167
 4238 0004 C069     		ldr	r0, [r0, #28]
 4239              	.LVL307:
  72:GrannyChordApp.cpp ****   pod_.ProcessDigitalControls();
 4240              		.loc 2 72 32 view .LVU1168
 4241 0006 2DED028B 		vpush.64	{d8}
 4242              		.cfi_def_cfa_offset 16
 4243              		.cfi_offset 80, -16
 4244              		.cfi_offset 81, -12
  73:GrannyChordApp.cpp ****   if ((pod_.encoder.TimeHeldMs() > 1000.0f)) HandleEncoderLongPress();
 4245              		.loc 2 73 30 view .LVU1169
 4246 000a FFF7FEFF 		bl	_ZN5daisy8DaisyPod22ProcessDigitalControlsEv
 4247              	.LVL308:
  74:GrannyChordApp.cpp ****   else if (pod_.encoder.FallingEdge()) HandleEncoderPressed();
 4248              		.loc 2 74 3 is_stmt 1 view .LVU1170
 4249              	.LBB806:
 4250              	.LBI806:
  43:../libDaisy/src/hid/encoder.h **** 
  44:../libDaisy/src/hid/encoder.h ****     /** Returns true while the encoder is held down.*/
  45:../libDaisy/src/hid/encoder.h ****     inline bool Pressed() const { return sw_.Pressed(); }
  46:../libDaisy/src/hid/encoder.h **** 
  47:../libDaisy/src/hid/encoder.h ****     /** Returns the time in milliseconds that the encoder has been held down. */
  48:../libDaisy/src/hid/encoder.h ****     inline float TimeHeldMs() const { return sw_.TimeHeldMs(); }
 4251              		.loc 3 48 18 view .LVU1171
 4252              	.LBB807:
 4253              		.loc 3 48 39 view .LVU1172
 4254              		.loc 3 48 60 is_stmt 0 view .LVU1173
 4255 000e E069     		ldr	r0, [r4, #28]
 4256              	.LBE807:
 4257              	.LBE806:
  74:GrannyChordApp.cpp ****   else if (pod_.encoder.FallingEdge()) HandleEncoderPressed();
 4258              		.loc 2 74 3 view .LVU1174
 4259 0010 9FED418A 		vldr.32	s16, .L246
 4260              	.LBB809:
 4261              	.LBB808:
 4262              		.loc 3 48 60 view .LVU1175
 4263 0014 4830     		adds	r0, r0, #72
 4264 0016 FFF7FEFF 		bl	_ZNK5daisy6Switch10TimeHeldMsEv
 4265              	.LVL309:
 4266              		.loc 3 48 60 view .LVU1176
 4267              	.LBE808:
 4268              	.LBE809:
  74:GrannyChordApp.cpp ****   else if (pod_.encoder.FallingEdge()) HandleEncoderPressed();
 4269              		.loc 2 74 3 view .LVU1177
 4270 001a B4EEC80A 		vcmpe.f32	s0, s16
 4271 001e F1EE10FA 		vmrs	APSR_nzcv, FPSCR
 4272 0022 5CDD     		ble	.L245
  74:GrannyChordApp.cpp ****   else if (pod_.encoder.FallingEdge()) HandleEncoderPressed();
 4273              		.loc 2 74 46 is_stmt 1 discriminator 1 view .LVU1178
  74:GrannyChordApp.cpp ****   else if (pod_.encoder.FallingEdge()) HandleEncoderPressed();
 4274              		.loc 2 74 68 is_stmt 0 discriminator 1 view .LVU1179
 4275 0024 2046     		mov	r0, r4
 4276 0026 FFF7FEFF 		bl	_ZN14GrannyChordApp22HandleEncoderLongPressEv
 4277              	.LVL310:
 4278              	.L215:
ARM GAS  /var/folders/2p/02m_5p7958535cp2tpgps0400000gn/T//ccRuMDjw.s 			page 120


  76:GrannyChordApp.cpp ****   if (pod_.button2.FallingEdge()) HandleButton2();
 4279              		.loc 2 76 3 is_stmt 1 view .LVU1180
  76:GrannyChordApp.cpp ****   if (pod_.button2.FallingEdge()) HandleButton2();
 4280              		.loc 2 76 7 is_stmt 0 view .LVU1181
 4281 002a E369     		ldr	r3, [r4, #28]
 4282              	.LVL311:
 4283              	.LBB810:
 4284              	.LBI810:
  73:../libDaisy/src/hid/switch.h ****     {
 4285              		.loc 1 73 17 is_stmt 1 view .LVU1182
 4286              	.LBB811:
  75:../libDaisy/src/hid/switch.h ****     }
 4287              		.loc 1 75 9 view .LVU1183
  75:../libDaisy/src/hid/switch.h ****     }
 4288              		.loc 1 75 25 is_stmt 0 view .LVU1184
 4289 002c 93F8B420 		ldrb	r2, [r3, #180]	@ zero_extendqisi2
 4290 0030 32B1     		cbz	r2, .L216
 4291              	.LVL312:
  75:../libDaisy/src/hid/switch.h ****     }
 4292              		.loc 1 75 25 view .LVU1185
 4293              	.LBE811:
 4294              	.LBE810:
  76:GrannyChordApp.cpp ****   if (pod_.button2.FallingEdge()) HandleButton2();
 4295              		.loc 2 76 3 view .LVU1186
 4296 0032 93F8BA30 		ldrb	r3, [r3, #186]	@ zero_extendqisi2
 4297 0036 802B     		cmp	r3, #128
 4298 0038 02D1     		bne	.L216
  76:GrannyChordApp.cpp ****   if (pod_.button2.FallingEdge()) HandleButton2();
 4299              		.loc 2 76 35 is_stmt 1 discriminator 1 view .LVU1187
  76:GrannyChordApp.cpp ****   if (pod_.button2.FallingEdge()) HandleButton2();
 4300              		.loc 2 76 48 is_stmt 0 discriminator 1 view .LVU1188
 4301 003a 2046     		mov	r0, r4
 4302 003c FFF7FEFF 		bl	_ZN14GrannyChordApp13HandleButton1Ev
 4303              	.LVL313:
 4304              	.L216:
  77:GrannyChordApp.cpp ****   if (curr_state_==AppState::Synthesis){
 4305              		.loc 2 77 3 is_stmt 1 view .LVU1189
  77:GrannyChordApp.cpp ****   if (curr_state_==AppState::Synthesis){
 4306              		.loc 2 77 7 is_stmt 0 view .LVU1190
 4307 0040 E369     		ldr	r3, [r4, #28]
 4308              	.LVL314:
 4309              	.LBB812:
 4310              	.LBI812:
  73:../libDaisy/src/hid/switch.h ****     {
 4311              		.loc 1 73 17 is_stmt 1 view .LVU1191
 4312              	.LBB813:
  75:../libDaisy/src/hid/switch.h ****     }
 4313              		.loc 1 75 9 view .LVU1192
  75:../libDaisy/src/hid/switch.h ****     }
 4314              		.loc 1 75 25 is_stmt 0 view .LVU1193
 4315 0042 93F8C420 		ldrb	r2, [r3, #196]	@ zero_extendqisi2
 4316 0046 32B1     		cbz	r2, .L217
 4317              	.LVL315:
  75:../libDaisy/src/hid/switch.h ****     }
 4318              		.loc 1 75 25 view .LVU1194
 4319              	.LBE813:
 4320              	.LBE812:
ARM GAS  /var/folders/2p/02m_5p7958535cp2tpgps0400000gn/T//ccRuMDjw.s 			page 121


  77:GrannyChordApp.cpp ****   if (curr_state_==AppState::Synthesis){
 4321              		.loc 2 77 3 view .LVU1195
 4322 0048 93F8CA30 		ldrb	r3, [r3, #202]	@ zero_extendqisi2
 4323 004c 802B     		cmp	r3, #128
 4324 004e 02D1     		bne	.L217
  77:GrannyChordApp.cpp ****   if (curr_state_==AppState::Synthesis){
 4325              		.loc 2 77 35 is_stmt 1 discriminator 1 view .LVU1196
  77:GrannyChordApp.cpp ****   if (curr_state_==AppState::Synthesis){
 4326              		.loc 2 77 48 is_stmt 0 discriminator 1 view .LVU1197
 4327 0050 2046     		mov	r0, r4
 4328 0052 FFF7FEFF 		bl	_ZN14GrannyChordApp13HandleButton2Ev
 4329              	.LVL316:
 4330              	.L217:
  78:GrannyChordApp.cpp ****     if (pod_.button1.TimeHeldMs() >1000.0f) HandleButton1LongPress();
 4331              		.loc 2 78 3 is_stmt 1 view .LVU1198
 4332 0056 D4F83834 		ldr	r3, [r4, #1080]
 4333 005a 022B     		cmp	r3, #2
 4334 005c 17D1     		bne	.L219
  79:GrannyChordApp.cpp ****     if (pod_.button2.TimeHeldMs() >1000.0f) HandleButton2LongPress();
 4335              		.loc 2 79 5 view .LVU1199
  79:GrannyChordApp.cpp ****     if (pod_.button2.TimeHeldMs() >1000.0f) HandleButton2LongPress();
 4336              		.loc 2 79 32 is_stmt 0 view .LVU1200
 4337 005e E069     		ldr	r0, [r4, #28]
 4338 0060 B030     		adds	r0, r0, #176
 4339 0062 FFF7FEFF 		bl	_ZNK5daisy6Switch10TimeHeldMsEv
 4340              	.LVL317:
  79:GrannyChordApp.cpp ****     if (pod_.button2.TimeHeldMs() >1000.0f) HandleButton2LongPress();
 4341              		.loc 2 79 5 view .LVU1201
 4342 0066 B4EEC80A 		vcmpe.f32	s0, s16
 4343 006a F1EE10FA 		vmrs	APSR_nzcv, FPSCR
 4344 006e 02DD     		ble	.L220
  79:GrannyChordApp.cpp ****     if (pod_.button2.TimeHeldMs() >1000.0f) HandleButton2LongPress();
 4345              		.loc 2 79 45 is_stmt 1 discriminator 1 view .LVU1202
  79:GrannyChordApp.cpp ****     if (pod_.button2.TimeHeldMs() >1000.0f) HandleButton2LongPress();
 4346              		.loc 2 79 67 is_stmt 0 discriminator 1 view .LVU1203
 4347 0070 2046     		mov	r0, r4
 4348 0072 FFF7FEFF 		bl	_ZN14GrannyChordApp22HandleButton1LongPressEv
 4349              	.LVL318:
 4350              	.L220:
  80:GrannyChordApp.cpp ****   }
 4351              		.loc 2 80 5 is_stmt 1 view .LVU1204
  80:GrannyChordApp.cpp ****   }
 4352              		.loc 2 80 32 is_stmt 0 view .LVU1205
 4353 0076 E069     		ldr	r0, [r4, #28]
 4354 0078 C030     		adds	r0, r0, #192
 4355 007a FFF7FEFF 		bl	_ZNK5daisy6Switch10TimeHeldMsEv
 4356              	.LVL319:
  80:GrannyChordApp.cpp ****   }
 4357              		.loc 2 80 5 view .LVU1206
 4358 007e B4EEC80A 		vcmpe.f32	s0, s16
 4359 0082 F1EE10FA 		vmrs	APSR_nzcv, FPSCR
 4360 0086 02DD     		ble	.L219
  80:GrannyChordApp.cpp ****   }
 4361              		.loc 2 80 45 is_stmt 1 discriminator 1 view .LVU1207
  80:GrannyChordApp.cpp ****   }
 4362              		.loc 2 80 67 is_stmt 0 discriminator 1 view .LVU1208
 4363 0088 2046     		mov	r0, r4
ARM GAS  /var/folders/2p/02m_5p7958535cp2tpgps0400000gn/T//ccRuMDjw.s 			page 122


 4364 008a FFF7FEFF 		bl	_ZN14GrannyChordApp22HandleButton2LongPressEv
 4365              	.LVL320:
 4366              	.L219:
  83:GrannyChordApp.cpp ****   if (encoder_inc!=0){
 4367              		.loc 2 83 3 is_stmt 1 view .LVU1209
  83:GrannyChordApp.cpp ****   if (encoder_inc!=0){
 4368              		.loc 2 83 25 is_stmt 0 view .LVU1210
 4369 008e E369     		ldr	r3, [r4, #28]
 4370              	.LVL321:
 4371              	.LBB814:
 4372              	.LBI814:
  36:../libDaisy/src/hid/encoder.h **** 
 4373              		.loc 3 36 20 is_stmt 1 view .LVU1211
 4374              	.LBB815:
  36:../libDaisy/src/hid/encoder.h **** 
 4375              		.loc 3 36 40 view .LVU1212
  36:../libDaisy/src/hid/encoder.h **** 
 4376              		.loc 3 36 56 is_stmt 0 view .LVU1213
 4377 0090 93F84420 		ldrb	r2, [r3, #68]	@ zero_extendqisi2
 4378 0094 5AB1     		cbz	r2, .L224
 4379 0096 596E     		ldr	r1, [r3, #100]
 4380              	.LVL322:
  36:../libDaisy/src/hid/encoder.h **** 
 4381              		.loc 3 36 56 view .LVU1214
 4382              	.LBE815:
 4383              	.LBE814:
  84:GrannyChordApp.cpp ****     if (next_state_== AppState::SelectFile){
 4384              		.loc 2 84 3 is_stmt 1 view .LVU1215
 4385 0098 49B1     		cbz	r1, .L224
  85:GrannyChordApp.cpp ****       recorded_in_ = false;
 4386              		.loc 2 85 5 view .LVU1216
 4387 009a D4F83C34 		ldr	r3, [r4, #1084]
 4388 009e 5BBB     		cbnz	r3, .L225
  86:GrannyChordApp.cpp ****       HandleFileSelection(encoder_inc);
 4389              		.loc 2 86 7 view .LVU1217
  86:GrannyChordApp.cpp ****       HandleFileSelection(encoder_inc);
 4390              		.loc 2 86 20 is_stmt 0 view .LVU1218
 4391 00a0 04F50042 		add	r2, r4, #32768
  87:GrannyChordApp.cpp ****     }
 4392              		.loc 2 87 26 view .LVU1219
 4393 00a4 2046     		mov	r0, r4
  86:GrannyChordApp.cpp ****       HandleFileSelection(encoder_inc);
 4394              		.loc 2 86 20 view .LVU1220
 4395 00a6 82F82438 		strb	r3, [r2, #2084]
  87:GrannyChordApp.cpp ****     }
 4396              		.loc 2 87 7 is_stmt 1 view .LVU1221
  87:GrannyChordApp.cpp ****     }
 4397              		.loc 2 87 26 is_stmt 0 view .LVU1222
 4398 00aa FFF7FEFF 		bl	_ZN14GrannyChordApp19HandleFileSelectionEl
 4399              	.LVL323:
 4400              	.L224:
  94:GrannyChordApp.cpp ****     DebugPrintState(curr_state_);
 4401              		.loc 2 94 3 is_stmt 1 view .LVU1223
  94:GrannyChordApp.cpp ****     DebugPrintState(curr_state_);
 4402              		.loc 2 94 7 is_stmt 0 view .LVU1224
 4403 00ae D4F83814 		ldr	r1, [r4, #1080]
  94:GrannyChordApp.cpp ****     DebugPrintState(curr_state_);
ARM GAS  /var/folders/2p/02m_5p7958535cp2tpgps0400000gn/T//ccRuMDjw.s 			page 123


 4404              		.loc 2 94 3 view .LVU1225
 4405 00b2 D4F83C34 		ldr	r3, [r4, #1084]
 4406 00b6 9942     		cmp	r1, r3
 4407 00b8 2AD0     		beq	.L212
  95:GrannyChordApp.cpp ****     DebugPrint(pod_, "switching states");
 4408              		.loc 2 95 5 is_stmt 1 view .LVU1226
  95:GrannyChordApp.cpp ****     DebugPrint(pod_, "switching states");
 4409              		.loc 2 95 20 is_stmt 0 view .LVU1227
 4410 00ba 2046     		mov	r0, r4
 4411 00bc FFF7FEFF 		bl	_ZN14GrannyChordApp15DebugPrintStateE8AppState
 4412              	.LVL324:
  96:GrannyChordApp.cpp ****     DebugPrintState(next_state_);
 4413              		.loc 2 96 5 is_stmt 1 view .LVU1228
  96:GrannyChordApp.cpp ****     DebugPrintState(next_state_);
 4414              		.loc 2 96 5 view .LVU1229
 4415              	.LBB816:
 4416              	.LBI816:
 126:../libDaisy/src/daisy_seed.h ****     {
 4417              		.loc 4 126 17 view .LVU1230
 4418              	.LBB817:
 4419              		.loc 4 128 23 is_stmt 0 view .LVU1231
 4420 00c0 1648     		ldr	r0, .L246+4
 4421 00c2 FFF7FEFF 		bl	_ZN5daisy6LoggerILNS_17LoggerDestinationE1EE9PrintLineEPKcz
 4422              	.LVL325:
 4423              		.loc 4 128 23 view .LVU1232
 4424              	.LBE817:
 4425              	.LBE816:
  97:GrannyChordApp.cpp ****     HandleStateChange();
 4426              		.loc 2 97 5 is_stmt 1 view .LVU1233
  97:GrannyChordApp.cpp ****     HandleStateChange();
 4427              		.loc 2 97 20 is_stmt 0 view .LVU1234
 4428 00c6 2046     		mov	r0, r4
 4429 00c8 D4F83C14 		ldr	r1, [r4, #1084]
 4430 00cc FFF7FEFF 		bl	_ZN14GrannyChordApp15DebugPrintStateE8AppState
 4431              	.LVL326:
  98:GrannyChordApp.cpp ****   }
 4432              		.loc 2 98 5 is_stmt 1 view .LVU1235
  98:GrannyChordApp.cpp ****   }
 4433              		.loc 2 98 22 is_stmt 0 view .LVU1236
 4434 00d0 2046     		mov	r0, r4
 100:GrannyChordApp.cpp **** 
 4435              		.loc 2 100 1 view .LVU1237
 4436 00d2 BDEC028B 		vldm	sp!, {d8}
 4437              		.cfi_remember_state
 4438              		.cfi_restore 80
 4439              		.cfi_restore 81
 4440              		.cfi_def_cfa_offset 8
 4441 00d6 BDE81040 		pop	{r4, lr}
 4442              		.cfi_restore 14
 4443              		.cfi_restore 4
 4444              		.cfi_def_cfa_offset 0
 4445              	.LVL327:
  98:GrannyChordApp.cpp ****   }
 4446              		.loc 2 98 22 view .LVU1238
 4447 00da FFF7FEBF 		b	_ZN14GrannyChordApp17HandleStateChangeEv
 4448              	.LVL328:
 4449              	.L245:
ARM GAS  /var/folders/2p/02m_5p7958535cp2tpgps0400000gn/T//ccRuMDjw.s 			page 124


 4450              		.cfi_restore_state
  75:GrannyChordApp.cpp ****   if (pod_.button1.FallingEdge()) HandleButton1();
 4451              		.loc 2 75 8 is_stmt 1 view .LVU1239
  75:GrannyChordApp.cpp ****   if (pod_.button1.FallingEdge()) HandleButton1();
 4452              		.loc 2 75 12 is_stmt 0 view .LVU1240
 4453 00de E369     		ldr	r3, [r4, #28]
 4454              	.LVL329:
 4455              	.LBB818:
 4456              	.LBI818:
  42:../libDaisy/src/hid/encoder.h **** 
 4457              		.loc 3 42 17 is_stmt 1 view .LVU1241
 4458              	.LBE818:
  42:../libDaisy/src/hid/encoder.h **** 
 4459              		.loc 3 42 39 view .LVU1242
 4460              	.LBB821:
 4461              	.LBB819:
 4462              	.LBI819:
  73:../libDaisy/src/hid/switch.h ****     {
 4463              		.loc 1 73 17 view .LVU1243
 4464              	.LBB820:
  75:../libDaisy/src/hid/switch.h ****     }
 4465              		.loc 1 75 9 view .LVU1244
  75:../libDaisy/src/hid/switch.h ****     }
 4466              		.loc 1 75 25 is_stmt 0 view .LVU1245
 4467 00e0 93F84C20 		ldrb	r2, [r3, #76]	@ zero_extendqisi2
 4468 00e4 002A     		cmp	r2, #0
 4469 00e6 A0D0     		beq	.L215
 4470              	.LVL330:
  75:../libDaisy/src/hid/switch.h ****     }
 4471              		.loc 1 75 25 view .LVU1246
 4472              	.LBE820:
 4473              	.LBE819:
 4474              	.LBE821:
  75:GrannyChordApp.cpp ****   if (pod_.button1.FallingEdge()) HandleButton1();
 4475              		.loc 2 75 8 view .LVU1247
 4476 00e8 93F85230 		ldrb	r3, [r3, #82]	@ zero_extendqisi2
 4477 00ec 802B     		cmp	r3, #128
 4478 00ee 9CD1     		bne	.L215
  75:GrannyChordApp.cpp ****   if (pod_.button1.FallingEdge()) HandleButton1();
 4479              		.loc 2 75 40 is_stmt 1 discriminator 1 view .LVU1248
  75:GrannyChordApp.cpp ****   if (pod_.button1.FallingEdge()) HandleButton1();
 4480              		.loc 2 75 60 is_stmt 0 discriminator 1 view .LVU1249
 4481 00f0 2046     		mov	r0, r4
 4482 00f2 FFF7FEFF 		bl	_ZN14GrannyChordApp20HandleEncoderPressedEv
 4483              	.LVL331:
 4484 00f6 98E7     		b	.L215
 4485              	.LVL332:
 4486              	.L225:
  89:GrannyChordApp.cpp ****       recorded_in_ = false;
 4487              		.loc 2 89 10 is_stmt 1 view .LVU1250
 4488 00f8 D4F83834 		ldr	r3, [r4, #1080]
 4489 00fc 012B     		cmp	r3, #1
  90:GrannyChordApp.cpp ****       next_state_ = AppState::SelectFile;
 4490              		.loc 2 90 7 view .LVU1251
  90:GrannyChordApp.cpp ****       next_state_ = AppState::SelectFile;
 4491              		.loc 2 90 20 is_stmt 0 view .LVU1252
 4492 00fe 01BF     		itttt	eq
ARM GAS  /var/folders/2p/02m_5p7958535cp2tpgps0400000gn/T//ccRuMDjw.s 			page 125


 4493 0100 0022     		moveq	r2, #0
 4494 0102 04F50043 		addeq	r3, r4, #32768
 4495 0106 83F82428 		strbeq	r2, [r3, #2084]
  91:GrannyChordApp.cpp ****     }
 4496              		.loc 2 91 7 is_stmt 1 view .LVU1253
  91:GrannyChordApp.cpp ****     }
 4497              		.loc 2 91 19 is_stmt 0 view .LVU1254
 4498 010a C4F83C24 		streq	r2, [r4, #1084]
 4499 010e CEE7     		b	.L224
 4500              	.LVL333:
 4501              	.L212:
 100:GrannyChordApp.cpp **** 
 4502              		.loc 2 100 1 view .LVU1255
 4503 0110 BDEC028B 		vldm	sp!, {d8}
 4504              		.cfi_restore 80
 4505              		.cfi_restore 81
 4506              		.cfi_def_cfa_offset 8
 4507 0114 10BD     		pop	{r4, pc}
 4508              	.LVL334:
 4509              	.L247:
 100:GrannyChordApp.cpp **** 
 4510              		.loc 2 100 1 view .LVU1256
 4511 0116 00BF     		.align	2
 4512              	.L246:
 4513 0118 00007A44 		.word	1148846080
 4514 011c 00000000 		.word	.LC19
 4515              		.cfi_endproc
 4516              	.LFE4906:
 4518              		.section	.rodata._ZN14GrannyChordApp14DebugPrintModeE9SynthMode.str1.1,"aMS",%progbits,1
 4519              	.LC20:
 4520 0000 53746174 		.ascii	"State now in: SizePos\000"
 4520      65206E6F 
 4520      7720696E 
 4520      3A205369 
 4520      7A65506F 
 4521              	.LC21:
 4522 0016 53746174 		.ascii	"State now in: SizePosRnd\000"
 4522      65206E6F 
 4522      7720696E 
 4522      3A205369 
 4522      7A65506F 
 4523              	.LC22:
 4524 002f 53746174 		.ascii	"State now in: PitchGrains\000"
 4524      65206E6F 
 4524      7720696E 
 4524      3A205069 
 4524      74636847 
 4525              	.LC23:
 4526 0049 53746174 		.ascii	"State now in: PitchGrainsRnd\000"
 4526      65206E6F 
 4526      7720696E 
 4526      3A205069 
 4526      74636847 
 4527              	.LC24:
 4528 0066 53746174 		.ascii	"State now in: PanPanRnd\000"
 4528      65206E6F 
 4528      7720696E 
ARM GAS  /var/folders/2p/02m_5p7958535cp2tpgps0400000gn/T//ccRuMDjw.s 			page 126


 4528      3A205061 
 4528      6E50616E 
 4529              	.LC25:
 4530 007e 53746174 		.ascii	"State now in: PhasorEnv\000"
 4530      65206E6F 
 4530      7720696E 
 4530      3A205068 
 4530      61736F72 
 4531              	.LC26:
 4532 0096 53746174 		.ascii	"State now in: PhasorEnvRnd\000"
 4532      65206E6F 
 4532      7720696E 
 4532      3A205068 
 4532      61736F72 
 4533              	.LC27:
 4534 00b1 53746174 		.ascii	"State now in: Reverb\000"
 4534      65206E6F 
 4534      7720696E 
 4534      3A205265 
 4534      76657262 
 4535              	.LC28:
 4536 00c6 53746174 		.ascii	"State now in: Filter\000"
 4536      65206E6F 
 4536      7720696E 
 4536      3A204669 
 4536      6C746572 
 4537              		.section	.text._ZN14GrannyChordApp14DebugPrintModeE9SynthMode,"ax",%progbits
 4538              		.align	1
 4539              		.global	_ZN14GrannyChordApp14DebugPrintModeE9SynthMode
 4540              		.syntax unified
 4541              		.thumb
 4542              		.thumb_func
 4544              	_ZN14GrannyChordApp14DebugPrintModeE9SynthMode:
 4545              	.LVL335:
 4546              	.LFB4940:
 621:GrannyChordApp.cpp ****       return;
 622:GrannyChordApp.cpp ****   }
 623:GrannyChordApp.cpp **** };
 624:GrannyChordApp.cpp **** 
 625:GrannyChordApp.cpp **** void GrannyChordApp::DebugPrintMode(SynthMode mode){
 4547              		.loc 2 625 52 is_stmt 1 view -0
 4548              		.cfi_startproc
 4549              		@ args = 0, pretend = 0, frame = 0
 4550              		@ frame_needed = 0, uses_anonymous_args = 0
 626:GrannyChordApp.cpp ****   switch(mode){
 4551              		.loc 2 626 3 view .LVU1258
 625:GrannyChordApp.cpp ****   switch(mode){
 4552              		.loc 2 625 52 is_stmt 0 view .LVU1259
 4553 0000 08B5     		push	{r3, lr}
 4554              		.cfi_def_cfa_offset 8
 4555              		.cfi_offset 3, -8
 4556              		.cfi_offset 14, -4
 4557              		.loc 2 626 3 view .LVU1260
 4558 0002 0829     		cmp	r1, #8
 4559 0004 1CD8     		bhi	.L248
 4560 0006 DFE801F0 		tbb	[pc, r1]
 4561              	.L251:
ARM GAS  /var/folders/2p/02m_5p7958535cp2tpgps0400000gn/T//ccRuMDjw.s 			page 127


 4562 000a 05       		.byte	(.L259-.L251)/2
 4563 000b 0C       		.byte	(.L258-.L251)/2
 4564 000c 13       		.byte	(.L257-.L251)/2
 4565 000d 0A       		.byte	(.L256-.L251)/2
 4566 000e 0E       		.byte	(.L255-.L251)/2
 4567 000f 15       		.byte	(.L254-.L251)/2
 4568 0010 10       		.byte	(.L253-.L251)/2
 4569 0011 17       		.byte	(.L252-.L251)/2
 4570 0012 19       		.byte	(.L250-.L251)/2
 4571 0013 00       		.p2align 1
 4572              	.L259:
 627:GrannyChordApp.cpp ****     case SynthMode::Size_Position:
 4573              		.loc 2 627 5 is_stmt 1 view .LVU1261
 628:GrannyChordApp.cpp ****       DebugPrint(pod_, "State now in: SizePos");
 4574              		.loc 2 628 7 view .LVU1262
 4575              		.loc 2 628 7 view .LVU1263
 4576              	.LVL336:
 4577              	.LBB822:
 4578              	.LBI822:
 126:../libDaisy/src/daisy_seed.h ****     {
 4579              		.loc 4 126 17 view .LVU1264
 4580              	.LBB823:
 4581              		.loc 4 128 23 is_stmt 0 view .LVU1265
 4582 0014 0B48     		ldr	r0, .L261
 4583              	.LVL337:
 4584              	.L260:
 4585              		.loc 4 128 23 view .LVU1266
 4586              	.LBE823:
 4587              	.LBE822:
 629:GrannyChordApp.cpp ****       return;
 630:GrannyChordApp.cpp ****     case SynthMode::Size_Position_Rnd:
 631:GrannyChordApp.cpp ****       DebugPrint(pod_, "State now in: SizePosRnd");
 632:GrannyChordApp.cpp ****       return;
 633:GrannyChordApp.cpp ****     case SynthMode::Pitch_ActiveGrains:
 634:GrannyChordApp.cpp ****       DebugPrint(pod_, "State now in: PitchGrains");
 635:GrannyChordApp.cpp ****       return;
 636:GrannyChordApp.cpp ****     case SynthMode::Pitch_ActiveGrains_Rnd:
 637:GrannyChordApp.cpp ****       DebugPrint(pod_, "State now in: PitchGrainsRnd");
 638:GrannyChordApp.cpp ****       return;
 639:GrannyChordApp.cpp ****     case SynthMode::Pan_PanRnd:
 640:GrannyChordApp.cpp ****       DebugPrint(pod_, "State now in: PanPanRnd");
 641:GrannyChordApp.cpp ****     case SynthMode::PhasorMode_EnvType:
 642:GrannyChordApp.cpp ****       DebugPrint(pod_, "State now in: PhasorEnv");
 643:GrannyChordApp.cpp ****       return;
 644:GrannyChordApp.cpp ****     case SynthMode::PhasorMode_EnvType_Rnd:
 645:GrannyChordApp.cpp ****       DebugPrint(pod_, "State now in: PhasorEnvRnd");
 646:GrannyChordApp.cpp ****       return;
 647:GrannyChordApp.cpp ****     case SynthMode::Reverb:
 648:GrannyChordApp.cpp ****       DebugPrint(pod_, "State now in: Reverb");
 649:GrannyChordApp.cpp ****       return;
 650:GrannyChordApp.cpp ****     case SynthMode::Filter:
 651:GrannyChordApp.cpp ****       DebugPrint(pod_, "State now in: Filter");
 652:GrannyChordApp.cpp ****       return;
 653:GrannyChordApp.cpp ****   }
 654:GrannyChordApp.cpp **** };
 4588              		.loc 2 654 1 view .LVU1267
 4589 0016 BDE80840 		pop	{r3, lr}
ARM GAS  /var/folders/2p/02m_5p7958535cp2tpgps0400000gn/T//ccRuMDjw.s 			page 128


 4590              		.cfi_remember_state
 4591              		.cfi_restore 14
 4592              		.cfi_restore 3
 4593              		.cfi_def_cfa_offset 0
 4594              	.LBB824:
 4595              	.LBB825:
 4596              		.loc 4 128 23 view .LVU1268
 4597 001a FFF7FEBF 		b	_ZN5daisy6LoggerILNS_17LoggerDestinationE1EE9PrintLineEPKcz
 4598              	.LVL338:
 4599              	.L256:
 4600              		.cfi_restore_state
 4601              		.loc 4 128 23 view .LVU1269
 4602              	.LBE825:
 4603              	.LBE824:
 630:GrannyChordApp.cpp ****       DebugPrint(pod_, "State now in: SizePosRnd");
 4604              		.loc 2 630 5 is_stmt 1 view .LVU1270
 631:GrannyChordApp.cpp ****       return;
 4605              		.loc 2 631 7 view .LVU1271
 631:GrannyChordApp.cpp ****       return;
 4606              		.loc 2 631 7 view .LVU1272
 4607              	.LBB827:
 4608              	.LBI827:
 126:../libDaisy/src/daisy_seed.h ****     {
 4609              		.loc 4 126 17 view .LVU1273
 4610              	.LBB828:
 4611              		.loc 4 128 23 is_stmt 0 view .LVU1274
 4612 001e 0A48     		ldr	r0, .L261+4
 4613              	.LVL339:
 4614              		.loc 4 128 23 view .LVU1275
 4615 0020 F9E7     		b	.L260
 4616              	.LVL340:
 4617              	.L258:
 4618              		.loc 4 128 23 view .LVU1276
 4619              	.LBE828:
 4620              	.LBE827:
 633:GrannyChordApp.cpp ****       DebugPrint(pod_, "State now in: PitchGrains");
 4621              		.loc 2 633 5 is_stmt 1 view .LVU1277
 634:GrannyChordApp.cpp ****       return;
 4622              		.loc 2 634 7 view .LVU1278
 634:GrannyChordApp.cpp ****       return;
 4623              		.loc 2 634 7 view .LVU1279
 4624              	.LBB829:
 4625              	.LBI829:
 126:../libDaisy/src/daisy_seed.h ****     {
 4626              		.loc 4 126 17 view .LVU1280
 4627              	.LBB830:
 4628              		.loc 4 128 23 is_stmt 0 view .LVU1281
 4629 0022 0A48     		ldr	r0, .L261+8
 4630              	.LVL341:
 4631              		.loc 4 128 23 view .LVU1282
 4632 0024 F7E7     		b	.L260
 4633              	.LVL342:
 4634              	.L255:
 4635              		.loc 4 128 23 view .LVU1283
 4636              	.LBE830:
 4637              	.LBE829:
 636:GrannyChordApp.cpp ****       DebugPrint(pod_, "State now in: PitchGrainsRnd");
ARM GAS  /var/folders/2p/02m_5p7958535cp2tpgps0400000gn/T//ccRuMDjw.s 			page 129


 4638              		.loc 2 636 5 is_stmt 1 view .LVU1284
 637:GrannyChordApp.cpp ****       return;
 4639              		.loc 2 637 7 view .LVU1285
 637:GrannyChordApp.cpp ****       return;
 4640              		.loc 2 637 7 view .LVU1286
 4641              	.LBB831:
 4642              	.LBI831:
 126:../libDaisy/src/daisy_seed.h ****     {
 4643              		.loc 4 126 17 view .LVU1287
 4644              	.LBB832:
 4645              		.loc 4 128 23 is_stmt 0 view .LVU1288
 4646 0026 0A48     		ldr	r0, .L261+12
 4647              	.LVL343:
 4648              		.loc 4 128 23 view .LVU1289
 4649 0028 F5E7     		b	.L260
 4650              	.LVL344:
 4651              	.L253:
 4652              		.loc 4 128 23 view .LVU1290
 4653              	.LBE832:
 4654              	.LBE831:
 639:GrannyChordApp.cpp ****       DebugPrint(pod_, "State now in: PanPanRnd");
 4655              		.loc 2 639 5 is_stmt 1 view .LVU1291
 640:GrannyChordApp.cpp ****     case SynthMode::PhasorMode_EnvType:
 4656              		.loc 2 640 7 view .LVU1292
 640:GrannyChordApp.cpp ****     case SynthMode::PhasorMode_EnvType:
 4657              		.loc 2 640 7 view .LVU1293
 4658              	.LBB833:
 4659              	.LBI833:
 126:../libDaisy/src/daisy_seed.h ****     {
 4660              		.loc 4 126 17 view .LVU1294
 4661              	.LBB834:
 4662              		.loc 4 128 23 is_stmt 0 view .LVU1295
 4663 002a 0A48     		ldr	r0, .L261+16
 4664              	.LVL345:
 4665              		.loc 4 128 23 view .LVU1296
 4666 002c FFF7FEFF 		bl	_ZN5daisy6LoggerILNS_17LoggerDestinationE1EE9PrintLineEPKcz
 4667              	.LVL346:
 4668              	.L257:
 4669              		.loc 4 128 23 view .LVU1297
 4670              	.LBE834:
 4671              	.LBE833:
 641:GrannyChordApp.cpp ****       DebugPrint(pod_, "State now in: PhasorEnv");
 4672              		.loc 2 641 5 is_stmt 1 view .LVU1298
 642:GrannyChordApp.cpp ****       return;
 4673              		.loc 2 642 7 view .LVU1299
 642:GrannyChordApp.cpp ****       return;
 4674              		.loc 2 642 7 view .LVU1300
 4675              	.LBB835:
 4676              	.LBI835:
 126:../libDaisy/src/daisy_seed.h ****     {
 4677              		.loc 4 126 17 view .LVU1301
 4678              	.LBB836:
 4679              		.loc 4 128 23 is_stmt 0 view .LVU1302
 4680 0030 0948     		ldr	r0, .L261+20
 4681 0032 F0E7     		b	.L260
 4682              	.LVL347:
 4683              	.L254:
ARM GAS  /var/folders/2p/02m_5p7958535cp2tpgps0400000gn/T//ccRuMDjw.s 			page 130


 4684              		.loc 4 128 23 view .LVU1303
 4685              	.LBE836:
 4686              	.LBE835:
 644:GrannyChordApp.cpp ****       DebugPrint(pod_, "State now in: PhasorEnvRnd");
 4687              		.loc 2 644 5 is_stmt 1 view .LVU1304
 645:GrannyChordApp.cpp ****       return;
 4688              		.loc 2 645 7 view .LVU1305
 645:GrannyChordApp.cpp ****       return;
 4689              		.loc 2 645 7 view .LVU1306
 4690              	.LBB837:
 4691              	.LBI837:
 126:../libDaisy/src/daisy_seed.h ****     {
 4692              		.loc 4 126 17 view .LVU1307
 4693              	.LBB838:
 4694              		.loc 4 128 23 is_stmt 0 view .LVU1308
 4695 0034 0948     		ldr	r0, .L261+24
 4696              	.LVL348:
 4697              		.loc 4 128 23 view .LVU1309
 4698 0036 EEE7     		b	.L260
 4699              	.LVL349:
 4700              	.L252:
 4701              		.loc 4 128 23 view .LVU1310
 4702              	.LBE838:
 4703              	.LBE837:
 647:GrannyChordApp.cpp ****       DebugPrint(pod_, "State now in: Reverb");
 4704              		.loc 2 647 5 is_stmt 1 view .LVU1311
 648:GrannyChordApp.cpp ****       return;
 4705              		.loc 2 648 7 view .LVU1312
 648:GrannyChordApp.cpp ****       return;
 4706              		.loc 2 648 7 view .LVU1313
 4707              	.LBB839:
 4708              	.LBI839:
 126:../libDaisy/src/daisy_seed.h ****     {
 4709              		.loc 4 126 17 view .LVU1314
 4710              	.LBB840:
 4711              		.loc 4 128 23 is_stmt 0 view .LVU1315
 4712 0038 0948     		ldr	r0, .L261+28
 4713              	.LVL350:
 4714              		.loc 4 128 23 view .LVU1316
 4715 003a ECE7     		b	.L260
 4716              	.LVL351:
 4717              	.L250:
 4718              		.loc 4 128 23 view .LVU1317
 4719              	.LBE840:
 4720              	.LBE839:
 650:GrannyChordApp.cpp ****       DebugPrint(pod_, "State now in: Filter");
 4721              		.loc 2 650 5 is_stmt 1 view .LVU1318
 651:GrannyChordApp.cpp ****       return;
 4722              		.loc 2 651 7 view .LVU1319
 651:GrannyChordApp.cpp ****       return;
 4723              		.loc 2 651 7 view .LVU1320
 4724              	.LBB841:
 4725              	.LBI824:
 126:../libDaisy/src/daisy_seed.h ****     {
 4726              		.loc 4 126 17 view .LVU1321
 4727              	.LBB826:
 4728              		.loc 4 128 23 is_stmt 0 view .LVU1322
ARM GAS  /var/folders/2p/02m_5p7958535cp2tpgps0400000gn/T//ccRuMDjw.s 			page 131


 4729 003c 0948     		ldr	r0, .L261+32
 4730              	.LVL352:
 4731              		.loc 4 128 23 view .LVU1323
 4732 003e EAE7     		b	.L260
 4733              	.LVL353:
 4734              	.L248:
 4735              		.loc 4 128 23 view .LVU1324
 4736              	.LBE826:
 4737              	.LBE841:
 4738              		.loc 2 654 1 view .LVU1325
 4739 0040 08BD     		pop	{r3, pc}
 4740              	.L262:
 4741 0042 00BF     		.align	2
 4742              	.L261:
 4743 0044 00000000 		.word	.LC20
 4744 0048 16000000 		.word	.LC21
 4745 004c 2F000000 		.word	.LC22
 4746 0050 49000000 		.word	.LC23
 4747 0054 66000000 		.word	.LC24
 4748 0058 7E000000 		.word	.LC25
 4749 005c 96000000 		.word	.LC26
 4750 0060 B1000000 		.word	.LC27
 4751 0064 C6000000 		.word	.LC28
 4752              		.cfi_endproc
 4753              	.LFE4940:
 4755              		.section	.text._ZN14GrannyChordApp10SetupTimerEv,"ax",%progbits
 4756              		.align	1
 4757              		.global	_ZN14GrannyChordApp10SetupTimerEv
 4758              		.syntax unified
 4759              		.thumb
 4760              		.thumb_func
 4762              	_ZN14GrannyChordApp10SetupTimerEv:
 4763              	.LVL354:
 4764              	.LFB4941:
 655:GrannyChordApp.cpp **** 
 656:GrannyChordApp.cpp **** 
 657:GrannyChordApp.cpp **** void GrannyChordApp::SetupTimer(){
 4765              		.loc 2 657 34 is_stmt 1 view -0
 4766              		.cfi_startproc
 4767              		@ args = 0, pretend = 0, frame = 16
 4768              		@ frame_needed = 0, uses_anonymous_args = 0
 658:GrannyChordApp.cpp ****   TimerHandle::Config cfg;
 4769              		.loc 2 658 3 view .LVU1327
 657:GrannyChordApp.cpp ****   TimerHandle::Config cfg;
 4770              		.loc 2 657 34 is_stmt 0 view .LVU1328
 4771 0000 30B5     		push	{r4, r5, lr}
 4772              		.cfi_def_cfa_offset 12
 4773              		.cfi_offset 4, -12
 4774              		.cfi_offset 5, -8
 4775              		.cfi_offset 14, -4
 659:GrannyChordApp.cpp ****   cfg.periph = TimerHandle::Config::Peripheral::TIM_5;
 4776              		.loc 2 659 14 view .LVU1329
 4777 0002 0323     		movs	r3, #3
 657:GrannyChordApp.cpp ****   TimerHandle::Config cfg;
 4778              		.loc 2 657 34 view .LVU1330
 4779 0004 85B0     		sub	sp, sp, #20
 4780              		.cfi_def_cfa_offset 32
ARM GAS  /var/folders/2p/02m_5p7958535cp2tpgps0400000gn/T//ccRuMDjw.s 			page 132


 4781              	.LVL355:
 4782              	.LBB842:
 4783              	.LBI842:
 4784              		.file 15 "../libDaisy/src/per/tim.h"
   1:../libDaisy/src/per/tim.h **** #pragma once
   2:../libDaisy/src/per/tim.h **** #ifndef DSY_TIM_H
   3:../libDaisy/src/per/tim.h **** #define DSY_TIM_H
   4:../libDaisy/src/per/tim.h **** 
   5:../libDaisy/src/per/tim.h **** #include <cstdint>
   6:../libDaisy/src/per/tim.h **** 
   7:../libDaisy/src/per/tim.h **** namespace daisy
   8:../libDaisy/src/per/tim.h **** {
   9:../libDaisy/src/per/tim.h **** /** @brief Hardare timer peripheral support.
  10:../libDaisy/src/per/tim.h ****  ** 
  11:../libDaisy/src/per/tim.h ****  ** Supports general-function TIM peripherals:
  12:../libDaisy/src/per/tim.h ****  ** - TIM2, TIM3, TIM4, TIM5
  13:../libDaisy/src/per/tim.h ****  **
  14:../libDaisy/src/per/tim.h ****  ** DaisySeed, and many internal peripherals utilize TIM2 for timing/delay purposes.
  15:../libDaisy/src/per/tim.h ****  ** It is configured to be at the maximum frequency: typically 200MHz or 240MHz (boost) 
  16:../libDaisy/src/per/tim.h ****  ** for measuring/delaying for very short periods. 
  17:../libDaisy/src/per/tim.h ****  **
  18:../libDaisy/src/per/tim.h ****  ** The GetUs/GetMs functions are available for convenience (and backwards compatibility),
  19:../libDaisy/src/per/tim.h ****  ** but to avoid wrapping errors on math when doing time-delta calculations, using ticks is 
  20:../libDaisy/src/per/tim.h ****  ** recommended. The data can be converted to the final time-base after getting the difference in t
  21:../libDaisy/src/per/tim.h ****  ** (Using GetFreq() can be used for these time-base calculations).
  22:../libDaisy/src/per/tim.h ****  **
  23:../libDaisy/src/per/tim.h ****  ** User callbacks can be set, and changed at any point during operation. However,
  24:../libDaisy/src/per/tim.h ****  ** the Config::enable_irq must be set to true when initializing for the interrupts
  25:../libDaisy/src/per/tim.h ****  ** to turn on and function.
  26:../libDaisy/src/per/tim.h ****  **
  27:../libDaisy/src/per/tim.h ****  ** @todo Fix issues with realtime getters, and wrapping of the timer(s).
  28:../libDaisy/src/per/tim.h ****  **     - This very noticeable with default settings for the 16-bit counters.
  29:../libDaisy/src/per/tim.h ****  ** @todo Other General purpose timers
  30:../libDaisy/src/per/tim.h ****  ** @todo Non-internal clock sources
  31:../libDaisy/src/per/tim.h ****  ** @todo Use of the four-tim channels per tim
  32:../libDaisy/src/per/tim.h ****  **     - PWM, etc.
  33:../libDaisy/src/per/tim.h ****  **     - InputCapture/OutputCompare, etc.
  34:../libDaisy/src/per/tim.h ****  ** @todo HRTIM
  35:../libDaisy/src/per/tim.h ****  ** @todo Advanced timers (TIM1/TIM8)
  36:../libDaisy/src/per/tim.h ****  ** */
  37:../libDaisy/src/per/tim.h **** class TimerHandle
  38:../libDaisy/src/per/tim.h **** {
  39:../libDaisy/src/per/tim.h ****   public:
  40:../libDaisy/src/per/tim.h ****     /** @brief Configuration struct for the Peripheral
  41:../libDaisy/src/per/tim.h ****      *  @note These settings are used during initialization
  42:../libDaisy/src/per/tim.h ****      *   and changing them afterwards may not have the desired effect.
  43:../libDaisy/src/per/tim.h ****      */
  44:../libDaisy/src/per/tim.h ****     struct Config
  45:../libDaisy/src/per/tim.h ****     {
  46:../libDaisy/src/per/tim.h ****         /** @brief Hardware Timer to configure, and use. */
  47:../libDaisy/src/per/tim.h ****         enum class Peripheral
  48:../libDaisy/src/per/tim.h ****         {
  49:../libDaisy/src/per/tim.h ****             TIM_2 = 0, /**< 32-bit counter */
  50:../libDaisy/src/per/tim.h ****             TIM_3,     /**< 16-bit counter */
  51:../libDaisy/src/per/tim.h ****             TIM_4,     /**< 16-bit counter */
  52:../libDaisy/src/per/tim.h ****             TIM_5,     /**< 32-bit counter*/
  53:../libDaisy/src/per/tim.h ****         };
ARM GAS  /var/folders/2p/02m_5p7958535cp2tpgps0400000gn/T//ccRuMDjw.s 			page 133


  54:../libDaisy/src/per/tim.h **** 
  55:../libDaisy/src/per/tim.h ****         /** @brief Direction of the auto-reload counter. 
  56:../libDaisy/src/per/tim.h ****          ** @todo Add support for the various  
  57:../libDaisy/src/per/tim.h ****          ** versions of Up/Down counters.
  58:../libDaisy/src/per/tim.h ****          ** */
  59:../libDaisy/src/per/tim.h ****         enum class CounterDir
  60:../libDaisy/src/per/tim.h ****         {
  61:../libDaisy/src/per/tim.h ****             UP = 0,
  62:../libDaisy/src/per/tim.h ****             DOWN,
  63:../libDaisy/src/per/tim.h ****         };
  64:../libDaisy/src/per/tim.h **** 
  65:../libDaisy/src/per/tim.h ****         Peripheral periph; /**< Hardware Peripheral */
  66:../libDaisy/src/per/tim.h ****         CounterDir dir;    /**< Counter direction */
  67:../libDaisy/src/per/tim.h **** 
  68:../libDaisy/src/per/tim.h ****         /** @brief period in ticks at TIM frequency that counter will reset based on dir
  69:../libDaisy/src/per/tim.h ****          *  @note TIM3 and TIM4 are both 16-bit timers. So the period maximum is 0xffff.
  70:../libDaisy/src/per/tim.h ****         */
  71:../libDaisy/src/per/tim.h ****         uint32_t period;
  72:../libDaisy/src/per/tim.h ****         bool     enable_irq; /**< Enable interrupt for user based callback */
  73:../libDaisy/src/per/tim.h **** 
  74:../libDaisy/src/per/tim.h ****         /* @brief Constructor for default states */
  75:../libDaisy/src/per/tim.h ****         Config()
 4785              		.loc 15 75 9 is_stmt 1 view .LVU1331
 4786              	.LBE842:
 4787              		.loc 2 659 14 is_stmt 0 view .LVU1332
 4788 0006 0025     		movs	r5, #0
 660:GrannyChordApp.cpp ****   cfg.period = 2000;
 661:GrannyChordApp.cpp ****   cfg.enable_irq = true;
 662:GrannyChordApp.cpp ****   timer_.Init(cfg);
 4789              		.loc 2 662 14 view .LVU1333
 4790 0008 00F50844 		add	r4, r0, #34816
 4791 000c 6946     		mov	r1, sp
 4792 000e 4034     		adds	r4, r4, #64
 659:GrannyChordApp.cpp ****   cfg.period = 2000;
 4793              		.loc 2 659 14 view .LVU1334
 4794 0010 CDE90035 		strd	r3, r5, [sp]
 660:GrannyChordApp.cpp ****   cfg.period = 2000;
 4795              		.loc 2 660 3 is_stmt 1 view .LVU1335
 660:GrannyChordApp.cpp ****   cfg.period = 2000;
 4796              		.loc 2 660 14 is_stmt 0 view .LVU1336
 4797 0014 4FF4FA63 		mov	r3, #2000
 4798              		.loc 2 662 14 view .LVU1337
 4799 0018 2046     		mov	r0, r4
 4800              	.LVL356:
 660:GrannyChordApp.cpp ****   cfg.period = 2000;
 4801              		.loc 2 660 14 view .LVU1338
 4802 001a 0293     		str	r3, [sp, #8]
 661:GrannyChordApp.cpp ****   timer_.Init(cfg);
 4803              		.loc 2 661 3 is_stmt 1 view .LVU1339
 661:GrannyChordApp.cpp ****   timer_.Init(cfg);
 4804              		.loc 2 661 18 is_stmt 0 view .LVU1340
 4805 001c 0123     		movs	r3, #1
 4806 001e 8DF80C30 		strb	r3, [sp, #12]
 4807              		.loc 2 662 3 is_stmt 1 view .LVU1341
 4808              		.loc 2 662 14 is_stmt 0 view .LVU1342
 4809 0022 FFF7FEFF 		bl	_ZN5daisy11TimerHandle4InitERKNS0_6ConfigE
 4810              	.LVL357:
ARM GAS  /var/folders/2p/02m_5p7958535cp2tpgps0400000gn/T//ccRuMDjw.s 			page 134


 663:GrannyChordApp.cpp ****   timer_.SetPrescaler(9999);
 4811              		.loc 2 663 3 is_stmt 1 view .LVU1343
 4812              		.loc 2 663 22 is_stmt 0 view .LVU1344
 4813 0026 42F20F71 		movw	r1, #9999
 4814 002a 2046     		mov	r0, r4
 4815 002c FFF7FEFF 		bl	_ZN5daisy11TimerHandle12SetPrescalerEm
 4816              	.LVL358:
 664:GrannyChordApp.cpp ****   timer_.SetCallback(StaticLedCallback, nullptr);
 4817              		.loc 2 664 3 is_stmt 1 view .LVU1345
 4818              		.loc 2 664 21 is_stmt 0 view .LVU1346
 4819 0030 2A46     		mov	r2, r5
 4820 0032 0349     		ldr	r1, .L264
 4821 0034 2046     		mov	r0, r4
 4822 0036 FFF7FEFF 		bl	_ZN5daisy11TimerHandle11SetCallbackEPFvPvES1_
 4823              	.LVL359:
 665:GrannyChordApp.cpp **** }
 4824              		.loc 2 665 1 view .LVU1347
 4825 003a 05B0     		add	sp, sp, #20
 4826              		.cfi_def_cfa_offset 12
 4827              	.LVL360:
 4828              		.loc 2 665 1 view .LVU1348
 4829              		@ sp needed
 4830 003c 30BD     		pop	{r4, r5, pc}
 4831              	.LVL361:
 4832              	.L265:
 4833              		.loc 2 665 1 view .LVU1349
 4834 003e 00BF     		.align	2
 4835              	.L264:
 4836 0040 00000000 		.word	_ZN14GrannyChordApp17StaticLedCallbackEPv
 4837              		.cfi_endproc
 4838              	.LFE4941:
 4840              		.section	.text._ZN14GrannyChordApp11LedCallbackEPv,"ax",%progbits
 4841              		.align	1
 4842              		.global	_ZN14GrannyChordApp11LedCallbackEPv
 4843              		.syntax unified
 4844              		.thumb
 4845              		.thumb_func
 4847              	_ZN14GrannyChordApp11LedCallbackEPv:
 4848              	.LVL362:
 4849              	.LFB4942:
 666:GrannyChordApp.cpp **** 
 667:GrannyChordApp.cpp **** 
 668:GrannyChordApp.cpp **** 
 669:GrannyChordApp.cpp **** // void GrannyChordApp::StartLedPulse(){
 670:GrannyChordApp.cpp **** //   timer_.Start();
 671:GrannyChordApp.cpp **** // }
 672:GrannyChordApp.cpp **** 
 673:GrannyChordApp.cpp **** // void GrannyChordApp::StopLedPulse(){
 674:GrannyChordApp.cpp **** //   timer_.Stop();
 675:GrannyChordApp.cpp **** // }
 676:GrannyChordApp.cpp **** 
 677:GrannyChordApp.cpp **** 
 678:GrannyChordApp.cpp **** void GrannyChordApp::LedCallback(void* data){
 4850              		.loc 2 678 45 is_stmt 1 view -0
 4851              		.cfi_startproc
 4852              		@ args = 0, pretend = 0, frame = 0
 4853              		@ frame_needed = 0, uses_anonymous_args = 0
ARM GAS  /var/folders/2p/02m_5p7958535cp2tpgps0400000gn/T//ccRuMDjw.s 			page 135


 679:GrannyChordApp.cpp ****   if (led_flash_count_ < 6) {
 4854              		.loc 2 679 3 view .LVU1351
 678:GrannyChordApp.cpp ****   if (led_flash_count_ < 6) {
 4855              		.loc 2 678 45 is_stmt 0 view .LVU1352
 4856 0000 38B5     		push	{r3, r4, r5, lr}
 4857              		.cfi_def_cfa_offset 16
 4858              		.cfi_offset 3, -16
 4859              		.cfi_offset 4, -12
 4860              		.cfi_offset 5, -8
 4861              		.cfi_offset 14, -4
 4862              		.loc 2 679 7 view .LVU1353
 4863 0002 00F50045 		add	r5, r0, #32768
 678:GrannyChordApp.cpp ****   if (led_flash_count_ < 6) {
 4864              		.loc 2 678 45 view .LVU1354
 4865 0006 0446     		mov	r4, r0
 680:GrannyChordApp.cpp ****       /* flash for the first 6 callbacks (3 cycles) */
 681:GrannyChordApp.cpp ****       if (led_flash_count_%2==0) pod_.led1.Set(0,0,0);
 4866              		.loc 2 681 47 view .LVU1355
 4867 0008 C069     		ldr	r0, [r0, #28]
 4868              	.LVL363:
 679:GrannyChordApp.cpp ****       /* flash for the first 6 callbacks (3 cycles) */
 4869              		.loc 2 679 7 view .LVU1356
 4870 000a D5F85C38 		ldr	r3, [r5, #2140]
 4871              		.loc 2 681 47 view .LVU1357
 4872 000e D830     		adds	r0, r0, #216
 679:GrannyChordApp.cpp ****       /* flash for the first 6 callbacks (3 cycles) */
 4873              		.loc 2 679 3 view .LVU1358
 4874 0010 052B     		cmp	r3, #5
 4875 0012 17DC     		bgt	.L267
 4876              		.loc 2 681 7 is_stmt 1 view .LVU1359
 4877 0014 DB07     		lsls	r3, r3, #31
 4878              		.loc 2 681 34 view .LVU1360
 4879              		.loc 2 681 47 is_stmt 0 view .LVU1361
 4880 0016 55BF     		itete	pl
 4881 0018 9FED0F1A 		vldrpl.32	s2, .L272
 682:GrannyChordApp.cpp ****       else pod_.led1.Set(0.7f, 0, 0.7f);
 4882              		.loc 2 682 25 view .LVU1362
 4883 001c 9FED0F1A 		vldrmi.32	s2, .L272+4
 681:GrannyChordApp.cpp ****       else pod_.led1.Set(0.7f, 0, 0.7f);
 4884              		.loc 2 681 47 view .LVU1363
 4885 0020 F0EE410A 		vmovpl.f32	s1, s2
 4886              		.loc 2 682 12 is_stmt 1 view .LVU1364
 4887              		.loc 2 682 25 is_stmt 0 view .LVU1365
 4888 0024 DFED0C0A 		vldrmi.32	s1, .L272
 4889 0028 B0EE410A 		vmov.f32	s0, s2
 4890 002c FFF7FEFF 		bl	_ZN5daisy6RgbLed3SetEfff
 4891              	.LVL364:
 683:GrannyChordApp.cpp ****       led_flash_count_++;
 4892              		.loc 2 683 7 is_stmt 1 view .LVU1366
 4893              		.loc 2 683 23 is_stmt 0 view .LVU1367
 4894 0030 D5F85C38 		ldr	r3, [r5, #2140]
 4895 0034 0133     		adds	r3, r3, #1
 4896 0036 C5F85C38 		str	r3, [r5, #2140]
 4897              	.L270:
 684:GrannyChordApp.cpp ****   } 
 685:GrannyChordApp.cpp ****   else pod_.led1.Set(1,0,1); /* stay solid after 3 flashes */
 686:GrannyChordApp.cpp ****   pod_.UpdateLeds();
ARM GAS  /var/folders/2p/02m_5p7958535cp2tpgps0400000gn/T//ccRuMDjw.s 			page 136


 4898              		.loc 2 686 3 is_stmt 1 view .LVU1368
 4899              		.loc 2 686 18 is_stmt 0 view .LVU1369
 4900 003a E069     		ldr	r0, [r4, #28]
 687:GrannyChordApp.cpp **** }
 4901              		.loc 2 687 1 view .LVU1370
 4902 003c BDE83840 		pop	{r3, r4, r5, lr}
 4903              		.cfi_remember_state
 4904              		.cfi_restore 14
 4905              		.cfi_restore 5
 4906              		.cfi_restore 4
 4907              		.cfi_restore 3
 4908              		.cfi_def_cfa_offset 0
 4909              	.LVL365:
 686:GrannyChordApp.cpp **** }
 4910              		.loc 2 686 18 view .LVU1371
 4911 0040 FFF7FEBF 		b	_ZN5daisy8DaisyPod10UpdateLedsEv
 4912              	.LVL366:
 4913              	.L267:
 4914              		.cfi_restore_state
 685:GrannyChordApp.cpp ****   pod_.UpdateLeds();
 4915              		.loc 2 685 8 is_stmt 1 view .LVU1372
 685:GrannyChordApp.cpp ****   pod_.UpdateLeds();
 4916              		.loc 2 685 21 is_stmt 0 view .LVU1373
 4917 0044 B7EE001A 		vmov.f32	s2, #1.0e+0
 4918 0048 DFED030A 		vldr.32	s1, .L272
 4919 004c B0EE410A 		vmov.f32	s0, s2
 4920 0050 FFF7FEFF 		bl	_ZN5daisy6RgbLed3SetEfff
 4921              	.LVL367:
 685:GrannyChordApp.cpp ****   pod_.UpdateLeds();
 4922              		.loc 2 685 21 view .LVU1374
 4923 0054 F1E7     		b	.L270
 4924              	.L273:
 4925 0056 00BF     		.align	2
 4926              	.L272:
 4927 0058 00000000 		.word	0
 4928 005c 3333333F 		.word	1060320051
 4929              		.cfi_endproc
 4930              	.LFE4942:
 4932              		.section	.text._ZN14GrannyChordApp17StaticLedCallbackEPv,"axG",%progbits,_ZN14GrannyChordApp17Stat
 4933              		.align	1
 4934              		.weak	_ZN14GrannyChordApp17StaticLedCallbackEPv
 4935              		.syntax unified
 4936              		.thumb
 4937              		.thumb_func
 4939              	_ZN14GrannyChordApp17StaticLedCallbackEPv:
 4940              	.LVL368:
 4941              	.LFB4902:
 4942              		.file 16 "GrannyChordApp.h"
   1:GrannyChordApp.h **** #pragma once 
   2:GrannyChordApp.h **** #include "daisy_pod.h"
   3:GrannyChordApp.h **** #include "daisysp.h"
   4:GrannyChordApp.h **** #include "GranularSynth.h"
   5:GrannyChordApp.h **** #include "AudioFileManager.h"
   6:GrannyChordApp.h **** #include "constants_utils.h"
   7:GrannyChordApp.h **** #include "debug_print.h"
   8:GrannyChordApp.h **** #include "DaisySP-LGPL-FX/reverb.h"
   9:GrannyChordApp.h **** #include "DaisySP-LGPL-FX/compressor.h"
ARM GAS  /var/folders/2p/02m_5p7958535cp2tpgps0400000gn/T//ccRuMDjw.s 			page 137


  10:GrannyChordApp.h **** #include "DaisySP-LGPL-FX/moogladder.h"
  11:GrannyChordApp.h **** #include "AppState.h"
  12:GrannyChordApp.h **** 
  13:GrannyChordApp.h **** using namespace daisy;
  14:GrannyChordApp.h **** using namespace daisysp;
  15:GrannyChordApp.h **** 
  16:GrannyChordApp.h **** class GrannyChordApp {
  17:GrannyChordApp.h ****   public:
  18:GrannyChordApp.h ****   GrannyChordApp(DaisyPod& pod, GranularSynth& synth, AudioFileManager& filemgr, ReverbSc &reverb)
  19:GrannyChordApp.h ****         : pod_(pod), synth_(synth), 
  20:GrannyChordApp.h ****           filemgr_(filemgr), reverb_(reverb){
  21:GrannyChordApp.h ****             instance_ = this;
  22:GrannyChordApp.h ****           };
  23:GrannyChordApp.h **** 
  24:GrannyChordApp.h ****     void Init(int16_t *left, int16_t *right, int16_t *temp);
  25:GrannyChordApp.h ****     void Run();
  26:GrannyChordApp.h **** 
  27:GrannyChordApp.h ****     CpuLoadMeter loadmeter;
  28:GrannyChordApp.h **** 
  29:GrannyChordApp.h ****     static void AudioCallback(AudioHandle::InputBuffer in, AudioHandle::OutputBuffer out, size_t si
  30:GrannyChordApp.h ****     void ProcessAudio(AudioHandle::InputBuffer in, AudioHandle::OutputBuffer out, size_t size);
  31:GrannyChordApp.h ****     static GrannyChordApp* instance_;
  32:GrannyChordApp.h **** 
  33:GrannyChordApp.h ****   private:
  34:GrannyChordApp.h ****     DaisyPod &pod_;
  35:GrannyChordApp.h ****     GranularSynth synth_;
  36:GrannyChordApp.h ****     AudioFileManager &filemgr_;
  37:GrannyChordApp.h ****     FIL *file_;
  38:GrannyChordApp.h **** 
  39:GrannyChordApp.h ****     /* UI and state objects */
  40:GrannyChordApp.h ****     AppState curr_state_;
  41:GrannyChordApp.h ****     AppState next_state_;
  42:GrannyChordApp.h ****     SynthMode curr_synth_mode_;
  43:GrannyChordApp.h ****     SynthMode prev_synth_mode_;
  44:GrannyChordApp.h **** 
  45:GrannyChordApp.h ****     /* audio FX and filters */
  46:GrannyChordApp.h ****     Compressor comp_;
  47:GrannyChordApp.h ****     ReverbSc& reverb_;
  48:GrannyChordApp.h ****     MoogLadder lowpass_moog_;
  49:GrannyChordApp.h ****     OnePole hipass_;
  50:GrannyChordApp.h **** 
  51:GrannyChordApp.h ****     /* audio data channel buffers */
  52:GrannyChordApp.h ****     int16_t *left_buf_;
  53:GrannyChordApp.h ****     int16_t *right_buf_;
  54:GrannyChordApp.h **** 
  55:GrannyChordApp.h ****     int16_t *temp_buf_;
  56:GrannyChordApp.h **** 
  57:GrannyChordApp.h ****     int file_idx_ = 0;
  58:GrannyChordApp.h ****     size_t wav_playhead_ = 0;
  59:GrannyChordApp.h ****     uint32_t audio_len_ = 0;
  60:GrannyChordApp.h ****     char fname_[MAX_FNAME_LEN];
  61:GrannyChordApp.h **** 
  62:GrannyChordApp.h ****     /* previous values for parameters controlled by knob 1*/
  63:GrannyChordApp.h ****     float prev_param_vals_k1[NUM_SYNTH_MODES];
  64:GrannyChordApp.h ****     float prev_param_vals_k2[NUM_SYNTH_MODES];
  65:GrannyChordApp.h ****     WavWriter<16384> sd_writer_;
  66:GrannyChordApp.h **** 
ARM GAS  /var/folders/2p/02m_5p7958535cp2tpgps0400000gn/T//ccRuMDjw.s 			page 138


  67:GrannyChordApp.h ****     
  68:GrannyChordApp.h ****     bool recorded_in_ = false;
  69:GrannyChordApp.h ****     size_t record_in_pos_ = 0;
  70:GrannyChordApp.h ****     bool recording_out_ = false;
  71:GrannyChordApp.h ****     size_t recording_count_ = 0;
  72:GrannyChordApp.h ****     size_t loop_count=0;
  73:GrannyChordApp.h ****     float temp_interleaved_buf_[2];
  74:GrannyChordApp.h **** 
  75:GrannyChordApp.h ****     TimerHandle timer_;
  76:GrannyChordApp.h ****     float led1_rgb_[3] = {0};
  77:GrannyChordApp.h ****     float led2_rgb_[3] = {0};
  78:GrannyChordApp.h ****     int led_flash_count_=0;
  79:GrannyChordApp.h **** 
  80:GrannyChordApp.h **** 
  81:GrannyChordApp.h ****     void UpdateUI();
  82:GrannyChordApp.h ****     void UpdateSynthMode();
  83:GrannyChordApp.h **** 
  84:GrannyChordApp.h ****     /* audio input/output/recording methods based on state */
  85:GrannyChordApp.h ****     void ProcessWAVPlayback(AudioHandle::OutputBuffer out, size_t size);
  86:GrannyChordApp.h ****     void ProcessRecordIn(AudioHandle::InputBuffer in, AudioHandle::OutputBuffer out, size_t size);
  87:GrannyChordApp.h ****     void ProcessSynthesis(AudioHandle::OutputBuffer out, size_t size);
  88:GrannyChordApp.h ****     void ProcessChordMode(AudioHandle::OutputBuffer out, size_t size);
  89:GrannyChordApp.h ****     void RecordOutToSD(AudioHandle::OutputBuffer out, size_t size);
  90:GrannyChordApp.h ****     void ToggleRecordOut();
  91:GrannyChordApp.h ****     void FinishRecording();
  92:GrannyChordApp.h **** 
  93:GrannyChordApp.h ****     void HandleEncoderPressed();
  94:GrannyChordApp.h ****     void HandleEncoderLongPress();
  95:GrannyChordApp.h ****     void HandleButton1();
  96:GrannyChordApp.h ****     void HandleButton2();
  97:GrannyChordApp.h ****     void HandleButton1LongPress();
  98:GrannyChordApp.h ****     void HandleButton2LongPress();
  99:GrannyChordApp.h ****     void ToggleRandomnessControls();
 100:GrannyChordApp.h ****     void ToggleFX(bool which_fx);
 101:GrannyChordApp.h **** 
 102:GrannyChordApp.h ****     /* methods to init / prepare for state change */
 103:GrannyChordApp.h ****     void ClearAudioBuffers();
 104:GrannyChordApp.h ****     bool InitFileMgr();
 105:GrannyChordApp.h ****     void InitPlayback();
 106:GrannyChordApp.h ****     void InitSynth();
 107:GrannyChordApp.h ****     void InitFX();
 108:GrannyChordApp.h ****     void InitRecordIn();
 109:GrannyChordApp.h ****     void InitWavWriter();
 110:GrannyChordApp.h ****     void InitPrevParamVals();
 111:GrannyChordApp.h **** 
 112:GrannyChordApp.h ****     void HandleStateChange();
 113:GrannyChordApp.h ****     void HandleFileSelection(int32_t encoder_inc);
 114:GrannyChordApp.h **** 
 115:GrannyChordApp.h ****     /* methods to update/init synth parameters */
 116:GrannyChordApp.h ****     void UpdateSynthParams();
 117:GrannyChordApp.h ****     void UpdateKnob1Params(float knob1_val, SynthMode mode);
 118:GrannyChordApp.h ****     void UpdateKnob2Params(float knob2_val, SynthMode mode);
 119:GrannyChordApp.h ****     // void UpdateChordParams();
 120:GrannyChordApp.h ****     inline constexpr bool CheckParamDelta(float curr_val, float prev_val);
 121:GrannyChordApp.h ****     inline constexpr float MapKnobDeadzone(float knob_val);
 122:GrannyChordApp.h ****     inline constexpr float UpdateKnobPassThru(float curr_knob_val, float *stored_knob_val, bool *pa
 123:GrannyChordApp.h **** 
ARM GAS  /var/folders/2p/02m_5p7958535cp2tpgps0400000gn/T//ccRuMDjw.s 			page 139


 124:GrannyChordApp.h ****     void DebugPrintState(AppState state);
 125:GrannyChordApp.h ****     void DebugPrintMode(SynthMode mode);
 126:GrannyChordApp.h **** 
 127:GrannyChordApp.h ****     /* has to be static - timer won't take class member function in callback */
 128:GrannyChordApp.h ****     static void StaticLedCallback(void* data){
 4943              		.loc 16 128 17 is_stmt 1 view -0
 4944              		.cfi_startproc
 4945              		@ args = 0, pretend = 0, frame = 0
 4946              		@ frame_needed = 0, uses_anonymous_args = 0
 4947              		@ link register save eliminated.
 129:GrannyChordApp.h ****       instance_ -> LedCallback(data);
 4948              		.loc 16 129 7 view .LVU1376
 4949              		.loc 16 129 31 is_stmt 0 view .LVU1377
 4950 0000 024B     		ldr	r3, .L275
 128:GrannyChordApp.h ****       instance_ -> LedCallback(data);
 4951              		.loc 16 128 17 view .LVU1378
 4952 0002 0146     		mov	r1, r0
 4953              		.loc 16 129 31 view .LVU1379
 4954 0004 1868     		ldr	r0, [r3]
 4955              	.LVL369:
 4956              		.loc 16 129 31 view .LVU1380
 4957 0006 FFF7FEBF 		b	_ZN14GrannyChordApp11LedCallbackEPv
 4958              	.LVL370:
 4959              	.L276:
 4960              		.loc 16 129 31 view .LVU1381
 4961 000a 00BF     		.align	2
 4962              	.L275:
 4963 000c 00000000 		.word	.LANCHOR0
 4964              		.cfi_endproc
 4965              	.LFE4902:
 4967              		.section	.text._ZN14GrannyChordApp14SetLedAppStateEv,"ax",%progbits
 4968              		.align	1
 4969              		.global	_ZN14GrannyChordApp14SetLedAppStateEv
 4970              		.syntax unified
 4971              		.thumb
 4972              		.thumb_func
 4974              	_ZN14GrannyChordApp14SetLedAppStateEv:
 4975              	.LVL371:
 4976              	.LFB4943:
 688:GrannyChordApp.cpp **** 
 689:GrannyChordApp.cpp **** void GrannyChordApp::SetLedAppState(){
 4977              		.loc 2 689 38 is_stmt 1 view -0
 4978              		.cfi_startproc
 4979              		@ args = 0, pretend = 0, frame = 0
 4980              		@ frame_needed = 0, uses_anonymous_args = 0
 4981              		@ link register save eliminated.
 690:GrannyChordApp.cpp ****   switch(curr_state_){
 4982              		.loc 2 690 3 view .LVU1383
 4983 0000 D0F83834 		ldr	r3, [r0, #1080]
 4984 0004 042B     		cmp	r3, #4
 4985 0006 4BD8     		bhi	.L277
 4986 0008 DFE803F0 		tbb	[pc, r3]
 4987              	.L280:
 4988 000c 03       		.byte	(.L284-.L280)/2
 4989 000d 11       		.byte	(.L283-.L280)/2
 4990 000e 1E       		.byte	(.L282-.L280)/2
 4991 000f 29       		.byte	(.L281-.L280)/2
ARM GAS  /var/folders/2p/02m_5p7958535cp2tpgps0400000gn/T//ccRuMDjw.s 			page 140


 4992 0010 36       		.byte	(.L279-.L280)/2
 4993 0011 00       		.p2align 1
 4994              	.L284:
 691:GrannyChordApp.cpp ****     case AppState::SelectFile:
 4995              		.loc 2 691 5 view .LVU1384
 692:GrannyChordApp.cpp ****       SetRgb1(0, 0, 0.7f); /* blue ? */
 4996              		.loc 2 692 7 view .LVU1385
 4997              	.LVL372:
 4998              	.LBB843:
 4999              	.LBI843:
 693:GrannyChordApp.cpp ****       break;
 694:GrannyChordApp.cpp ****     case AppState::PlayWAV:
 695:GrannyChordApp.cpp ****       SetRgb1(0, 0.7f, 0.7f); /* cyan */
 696:GrannyChordApp.cpp ****       break;
 697:GrannyChordApp.cpp ****     case AppState::Synthesis:
 698:GrannyChordApp.cpp ****       SetRgb1(0, 0.7f, 0); /* green */
 699:GrannyChordApp.cpp ****       break;
 700:GrannyChordApp.cpp ****     case AppState::RecordIn:
 701:GrannyChordApp.cpp ****       SetRgb1(0.7f,0.7f,0);  /* yellow? */
 702:GrannyChordApp.cpp ****       break;
 703:GrannyChordApp.cpp ****     // case AppState::ChordMode:
 704:GrannyChordApp.cpp ****       // SetRgb1(0.7f,0,1); /* violet/purple */
 705:GrannyChordApp.cpp ****       // break;
 706:GrannyChordApp.cpp ****     case AppState::Error:
 707:GrannyChordApp.cpp ****       SetRgb1(1, 0, 0); /* red */
 708:GrannyChordApp.cpp ****       pod_.led2.SetRed(1);
 709:GrannyChordApp.cpp ****       break;
 710:GrannyChordApp.cpp ****     default:
 711:GrannyChordApp.cpp ****       break;
 712:GrannyChordApp.cpp ****   }
 713:GrannyChordApp.cpp **** }
 714:GrannyChordApp.cpp **** 
 715:GrannyChordApp.cpp **** void GrannyChordApp::SetLedSynthMode(){
 716:GrannyChordApp.cpp ****   if (curr_state_ == AppState::Synthesis){
 717:GrannyChordApp.cpp ****     switch(curr_synth_mode_){
 718:GrannyChordApp.cpp ****       case SynthMode::Size_Position:
 719:GrannyChordApp.cpp ****         SetRgb2(0, 0.7f, 0); /* green */
 720:GrannyChordApp.cpp ****         break;
 721:GrannyChordApp.cpp ****       case SynthMode::Pitch_ActiveGrains:
 722:GrannyChordApp.cpp ****         SetRgb2(0.7f, 0.5f, 0); /* orange */
 723:GrannyChordApp.cpp ****         break;
 724:GrannyChordApp.cpp ****       case SynthMode::PhasorMode_EnvType:
 725:GrannyChordApp.cpp ****         SetRgb2(0, 0, 0.7f); /* blue */
 726:GrannyChordApp.cpp ****         break;
 727:GrannyChordApp.cpp ****       case SynthMode::Pan_PanRnd:
 728:GrannyChordApp.cpp ****         SetRgb2(0.7f, 0, 0.7f); /* pink */
 729:GrannyChordApp.cpp ****         break;
 730:GrannyChordApp.cpp ****       default:
 731:GrannyChordApp.cpp ****         break;
 732:GrannyChordApp.cpp ****     }
 733:GrannyChordApp.cpp ****   }
 734:GrannyChordApp.cpp **** }
 735:GrannyChordApp.cpp **** 
 736:GrannyChordApp.cpp **** void GrannyChordApp::SetRgb1(float r, float g, float b){
 5000              		.loc 2 736 6 view .LVU1386
 5001              	.LBB844:
 737:GrannyChordApp.cpp ****   led1_rgb_[0]= r;
ARM GAS  /var/folders/2p/02m_5p7958535cp2tpgps0400000gn/T//ccRuMDjw.s 			page 141


 5002              		.loc 2 737 3 view .LVU1387
 5003              		.loc 2 737 15 is_stmt 0 view .LVU1388
 5004 0012 00F50040 		add	r0, r0, #32768
 5005              	.LVL373:
 5006              		.loc 2 737 15 view .LVU1389
 5007 0016 0023     		movs	r3, #0
 5008 0018 00F64402 		addw	r2, r0, #2116
 5009 001c 1360     		str	r3, [r2]	@ float
 738:GrannyChordApp.cpp ****   led1_rgb_[1]= g;
 5010              		.loc 2 738 3 is_stmt 1 view .LVU1390
 5011              		.loc 2 738 15 is_stmt 0 view .LVU1391
 5012 001e 00F64802 		addw	r2, r0, #2120
 739:GrannyChordApp.cpp ****   led1_rgb_[2]= b;
 5013              		.loc 2 739 15 view .LVU1392
 5014 0022 00F64C00 		addw	r0, r0, #2124
 5015              	.LVL374:
 738:GrannyChordApp.cpp ****   led1_rgb_[1]= g;
 5016              		.loc 2 738 15 view .LVU1393
 5017 0026 1360     		str	r3, [r2]	@ float
 5018              		.loc 2 739 3 is_stmt 1 view .LVU1394
 5019              		.loc 2 739 15 is_stmt 0 view .LVU1395
 5020 0028 1E4B     		ldr	r3, .L287
 5021              	.LVL375:
 5022              	.L285:
 5023              		.loc 2 739 15 view .LVU1396
 5024              	.LBE844:
 5025              	.LBE843:
 5026              	.LBB845:
 5027              	.LBB846:
 5028 002a 0360     		str	r3, [r0]	@ float
 740:GrannyChordApp.cpp **** }
 5029              		.loc 2 740 1 view .LVU1397
 5030 002c 7047     		bx	lr
 5031              	.LVL376:
 5032              	.L283:
 5033              		.loc 2 740 1 view .LVU1398
 5034              	.LBE846:
 5035              	.LBE845:
 694:GrannyChordApp.cpp ****       SetRgb1(0, 0.7f, 0.7f); /* cyan */
 5036              		.loc 2 694 5 is_stmt 1 view .LVU1399
 695:GrannyChordApp.cpp ****       break;
 5037              		.loc 2 695 7 view .LVU1400
 5038              	.LBB848:
 5039              	.LBI845:
 736:GrannyChordApp.cpp ****   led1_rgb_[0]= r;
 5040              		.loc 2 736 6 view .LVU1401
 5041              	.LBB847:
 737:GrannyChordApp.cpp ****   led1_rgb_[1]= g;
 5042              		.loc 2 737 3 view .LVU1402
 737:GrannyChordApp.cpp ****   led1_rgb_[1]= g;
 5043              		.loc 2 737 15 is_stmt 0 view .LVU1403
 5044 002e 00F50040 		add	r0, r0, #32768
 5045              	.LVL377:
 737:GrannyChordApp.cpp ****   led1_rgb_[1]= g;
 5046              		.loc 2 737 15 view .LVU1404
 5047 0032 0022     		movs	r2, #0
 5048 0034 00F64403 		addw	r3, r0, #2116
ARM GAS  /var/folders/2p/02m_5p7958535cp2tpgps0400000gn/T//ccRuMDjw.s 			page 142


 5049 0038 1A60     		str	r2, [r3]	@ float
 738:GrannyChordApp.cpp ****   led1_rgb_[2]= b;
 5050              		.loc 2 738 3 is_stmt 1 view .LVU1405
 738:GrannyChordApp.cpp ****   led1_rgb_[2]= b;
 5051              		.loc 2 738 15 is_stmt 0 view .LVU1406
 5052 003a 00F64802 		addw	r2, r0, #2120
 5053 003e 194B     		ldr	r3, .L287
 5054 0040 1360     		str	r3, [r2]	@ float
 5055              	.LVL378:
 5056              	.L286:
 739:GrannyChordApp.cpp **** }
 5057              		.loc 2 739 3 is_stmt 1 view .LVU1407
 739:GrannyChordApp.cpp **** }
 5058              		.loc 2 739 15 is_stmt 0 view .LVU1408
 5059 0042 00F64C00 		addw	r0, r0, #2124
 5060 0046 F0E7     		b	.L285
 5061              	.LVL379:
 5062              	.L282:
 739:GrannyChordApp.cpp **** }
 5063              		.loc 2 739 15 view .LVU1409
 5064              	.LBE847:
 5065              	.LBE848:
 697:GrannyChordApp.cpp ****       SetRgb1(0, 0.7f, 0); /* green */
 5066              		.loc 2 697 5 is_stmt 1 view .LVU1410
 698:GrannyChordApp.cpp ****       break;
 5067              		.loc 2 698 7 view .LVU1411
 5068              	.LBB849:
 5069              	.LBI849:
 736:GrannyChordApp.cpp ****   led1_rgb_[0]= r;
 5070              		.loc 2 736 6 view .LVU1412
 5071              	.LBB850:
 737:GrannyChordApp.cpp ****   led1_rgb_[1]= g;
 5072              		.loc 2 737 3 view .LVU1413
 737:GrannyChordApp.cpp ****   led1_rgb_[1]= g;
 5073              		.loc 2 737 15 is_stmt 0 view .LVU1414
 5074 0048 00F50040 		add	r0, r0, #32768
 5075              	.LVL380:
 737:GrannyChordApp.cpp ****   led1_rgb_[1]= g;
 5076              		.loc 2 737 15 view .LVU1415
 5077 004c 0023     		movs	r3, #0
 738:GrannyChordApp.cpp ****   led1_rgb_[2]= b;
 5078              		.loc 2 738 15 view .LVU1416
 5079 004e 1549     		ldr	r1, .L287
 737:GrannyChordApp.cpp ****   led1_rgb_[1]= g;
 5080              		.loc 2 737 15 view .LVU1417
 5081 0050 00F64402 		addw	r2, r0, #2116
 5082 0054 1360     		str	r3, [r2]	@ float
 738:GrannyChordApp.cpp ****   led1_rgb_[2]= b;
 5083              		.loc 2 738 3 is_stmt 1 view .LVU1418
 738:GrannyChordApp.cpp ****   led1_rgb_[2]= b;
 5084              		.loc 2 738 15 is_stmt 0 view .LVU1419
 5085 0056 00F64802 		addw	r2, r0, #2120
 5086 005a 1160     		str	r1, [r2]	@ float
 739:GrannyChordApp.cpp **** }
 5087              		.loc 2 739 3 is_stmt 1 view .LVU1420
 5088 005c F1E7     		b	.L286
 5089              	.LVL381:
ARM GAS  /var/folders/2p/02m_5p7958535cp2tpgps0400000gn/T//ccRuMDjw.s 			page 143


 5090              	.L281:
 739:GrannyChordApp.cpp **** }
 5091              		.loc 2 739 3 is_stmt 0 view .LVU1421
 5092              	.LBE850:
 5093              	.LBE849:
 700:GrannyChordApp.cpp ****       SetRgb1(0.7f,0.7f,0);  /* yellow? */
 5094              		.loc 2 700 5 is_stmt 1 view .LVU1422
 701:GrannyChordApp.cpp ****       break;
 5095              		.loc 2 701 7 view .LVU1423
 5096              	.LBB851:
 5097              	.LBI851:
 736:GrannyChordApp.cpp ****   led1_rgb_[0]= r;
 5098              		.loc 2 736 6 view .LVU1424
 5099              	.LBB852:
 737:GrannyChordApp.cpp ****   led1_rgb_[1]= g;
 5100              		.loc 2 737 3 view .LVU1425
 737:GrannyChordApp.cpp ****   led1_rgb_[1]= g;
 5101              		.loc 2 737 15 is_stmt 0 view .LVU1426
 5102 005e 00F50040 		add	r0, r0, #32768
 5103              	.LVL382:
 737:GrannyChordApp.cpp ****   led1_rgb_[1]= g;
 5104              		.loc 2 737 15 view .LVU1427
 5105 0062 104B     		ldr	r3, .L287
 5106 0064 00F64402 		addw	r2, r0, #2116
 5107 0068 1360     		str	r3, [r2]	@ float
 738:GrannyChordApp.cpp ****   led1_rgb_[2]= b;
 5108              		.loc 2 738 3 is_stmt 1 view .LVU1428
 738:GrannyChordApp.cpp ****   led1_rgb_[2]= b;
 5109              		.loc 2 738 15 is_stmt 0 view .LVU1429
 5110 006a 00F64802 		addw	r2, r0, #2120
 739:GrannyChordApp.cpp **** }
 5111              		.loc 2 739 15 view .LVU1430
 5112 006e 00F64C00 		addw	r0, r0, #2124
 5113              	.LVL383:
 738:GrannyChordApp.cpp ****   led1_rgb_[2]= b;
 5114              		.loc 2 738 15 view .LVU1431
 5115 0072 1360     		str	r3, [r2]	@ float
 739:GrannyChordApp.cpp **** }
 5116              		.loc 2 739 3 is_stmt 1 view .LVU1432
 739:GrannyChordApp.cpp **** }
 5117              		.loc 2 739 15 is_stmt 0 view .LVU1433
 5118 0074 0023     		movs	r3, #0
 5119 0076 D8E7     		b	.L285
 5120              	.LVL384:
 5121              	.L279:
 739:GrannyChordApp.cpp **** }
 5122              		.loc 2 739 15 view .LVU1434
 5123              	.LBE852:
 5124              	.LBE851:
 706:GrannyChordApp.cpp ****       SetRgb1(1, 0, 0); /* red */
 5125              		.loc 2 706 5 is_stmt 1 view .LVU1435
 707:GrannyChordApp.cpp ****       pod_.led2.SetRed(1);
 5126              		.loc 2 707 7 view .LVU1436
 5127              	.LBB853:
 5128              	.LBI853:
 736:GrannyChordApp.cpp ****   led1_rgb_[0]= r;
 5129              		.loc 2 736 6 view .LVU1437
ARM GAS  /var/folders/2p/02m_5p7958535cp2tpgps0400000gn/T//ccRuMDjw.s 			page 144


 5130              	.LBB854:
 737:GrannyChordApp.cpp ****   led1_rgb_[1]= g;
 5131              		.loc 2 737 3 view .LVU1438
 737:GrannyChordApp.cpp ****   led1_rgb_[1]= g;
 5132              		.loc 2 737 15 is_stmt 0 view .LVU1439
 5133 0078 00F50043 		add	r3, r0, #32768
 5134 007c B7EE000A 		vmov.f32	s0, #1.0e+0
 5135              	.LBE854:
 5136              	.LBE853:
 708:GrannyChordApp.cpp ****       break;
 5137              		.loc 2 708 23 view .LVU1440
 5138 0080 C069     		ldr	r0, [r0, #28]
 5139              	.LVL385:
 5140              	.LBB857:
 5141              	.LBB855:
 737:GrannyChordApp.cpp ****   led1_rgb_[1]= g;
 5142              		.loc 2 737 15 view .LVU1441
 5143 0082 03F64402 		addw	r2, r3, #2116
 738:GrannyChordApp.cpp ****   led1_rgb_[2]= b;
 5144              		.loc 2 738 15 view .LVU1442
 5145 0086 03F64801 		addw	r1, r3, #2120
 739:GrannyChordApp.cpp **** }
 5146              		.loc 2 739 15 view .LVU1443
 5147 008a 03F64C03 		addw	r3, r3, #2124
 5148              	.LVL386:
 739:GrannyChordApp.cpp **** }
 5149              		.loc 2 739 15 view .LVU1444
 5150              	.LBE855:
 5151              	.LBE857:
 708:GrannyChordApp.cpp ****       break;
 5152              		.loc 2 708 23 view .LVU1445
 5153 008e 00F59670 		add	r0, r0, #300
 5154              	.LBB858:
 5155              	.LBB856:
 737:GrannyChordApp.cpp ****   led1_rgb_[1]= g;
 5156              		.loc 2 737 15 view .LVU1446
 5157 0092 82ED000A 		vstr.32	s0, [r2]
 738:GrannyChordApp.cpp ****   led1_rgb_[2]= b;
 5158              		.loc 2 738 3 is_stmt 1 view .LVU1447
 738:GrannyChordApp.cpp ****   led1_rgb_[2]= b;
 5159              		.loc 2 738 15 is_stmt 0 view .LVU1448
 5160 0096 0022     		movs	r2, #0
 5161 0098 0A60     		str	r2, [r1]	@ float
 739:GrannyChordApp.cpp **** }
 5162              		.loc 2 739 3 is_stmt 1 view .LVU1449
 739:GrannyChordApp.cpp **** }
 5163              		.loc 2 739 15 is_stmt 0 view .LVU1450
 5164 009a 1A60     		str	r2, [r3]	@ float
 5165              	.LVL387:
 739:GrannyChordApp.cpp **** }
 5166              		.loc 2 739 15 view .LVU1451
 5167              	.LBE856:
 5168              	.LBE858:
 708:GrannyChordApp.cpp ****       break;
 5169              		.loc 2 708 7 is_stmt 1 view .LVU1452
 708:GrannyChordApp.cpp ****       break;
 5170              		.loc 2 708 23 is_stmt 0 view .LVU1453
ARM GAS  /var/folders/2p/02m_5p7958535cp2tpgps0400000gn/T//ccRuMDjw.s 			page 145


 5171 009c FFF7FEBF 		b	_ZN5daisy6RgbLed6SetRedEf
 5172              	.LVL388:
 5173              	.L277:
 713:GrannyChordApp.cpp **** 
 5174              		.loc 2 713 1 view .LVU1454
 5175 00a0 7047     		bx	lr
 5176              	.L288:
 5177 00a2 00BF     		.align	2
 5178              	.L287:
 5179 00a4 3333333F 		.word	1060320051
 5180              		.cfi_endproc
 5181              	.LFE4943:
 5183              		.section	.text._ZN14GrannyChordApp15SetLedSynthModeEv,"ax",%progbits
 5184              		.align	1
 5185              		.global	_ZN14GrannyChordApp15SetLedSynthModeEv
 5186              		.syntax unified
 5187              		.thumb
 5188              		.thumb_func
 5190              	_ZN14GrannyChordApp15SetLedSynthModeEv:
 5191              	.LVL389:
 5192              	.LFB4944:
 715:GrannyChordApp.cpp ****   if (curr_state_ == AppState::Synthesis){
 5193              		.loc 2 715 39 is_stmt 1 view -0
 5194              		.cfi_startproc
 5195              		@ args = 0, pretend = 0, frame = 0
 5196              		@ frame_needed = 0, uses_anonymous_args = 0
 5197              		@ link register save eliminated.
 716:GrannyChordApp.cpp ****     switch(curr_synth_mode_){
 5198              		.loc 2 716 3 view .LVU1456
 5199 0000 D0F83834 		ldr	r3, [r0, #1080]
 5200 0004 022B     		cmp	r3, #2
 5201 0006 25D1     		bne	.L289
 717:GrannyChordApp.cpp ****       case SynthMode::Size_Position:
 5202              		.loc 2 717 5 view .LVU1457
 5203 0008 D0F84034 		ldr	r3, [r0, #1088]
 5204 000c 062B     		cmp	r3, #6
 5205 000e 21D8     		bhi	.L289
 5206 0010 DFE803F0 		tbb	[pc, r3]
 5207              	.L292:
 5208 0014 04       		.byte	(.L295-.L292)/2
 5209 0015 11       		.byte	(.L294-.L292)/2
 5210 0016 21       		.byte	(.L293-.L292)/2
 5211 0017 20       		.byte	(.L289-.L292)/2
 5212 0018 20       		.byte	(.L289-.L292)/2
 5213 0019 20       		.byte	(.L289-.L292)/2
 5214 001a 2E       		.byte	(.L291-.L292)/2
 5215 001b 00       		.p2align 1
 5216              	.L295:
 718:GrannyChordApp.cpp ****         SetRgb2(0, 0.7f, 0); /* green */
 5217              		.loc 2 718 7 view .LVU1458
 719:GrannyChordApp.cpp ****         break;
 5218              		.loc 2 719 9 view .LVU1459
 5219              	.LVL390:
 5220              	.LBB859:
 5221              	.LBI859:
 741:GrannyChordApp.cpp **** 
 742:GrannyChordApp.cpp **** void GrannyChordApp::SetRgb2(float r, float g, float b){
ARM GAS  /var/folders/2p/02m_5p7958535cp2tpgps0400000gn/T//ccRuMDjw.s 			page 146


 5222              		.loc 2 742 6 view .LVU1460
 5223              	.LBB860:
 743:GrannyChordApp.cpp ****   led2_rgb_[0]= r;
 5224              		.loc 2 743 3 view .LVU1461
 5225              		.loc 2 743 15 is_stmt 0 view .LVU1462
 5226 001c 00F50040 		add	r0, r0, #32768
 5227              	.LVL391:
 5228              		.loc 2 743 15 view .LVU1463
 5229 0020 0023     		movs	r3, #0
 744:GrannyChordApp.cpp ****   led2_rgb_[1]= g;
 5230              		.loc 2 744 15 view .LVU1464
 5231 0022 1849     		ldr	r1, .L298
 743:GrannyChordApp.cpp ****   led2_rgb_[0]= r;
 5232              		.loc 2 743 15 view .LVU1465
 5233 0024 00F50562 		add	r2, r0, #2128
 5234 0028 1360     		str	r3, [r2]	@ float
 5235              		.loc 2 744 3 is_stmt 1 view .LVU1466
 5236              		.loc 2 744 15 is_stmt 0 view .LVU1467
 5237 002a 00F65402 		addw	r2, r0, #2132
 5238              	.LVL392:
 5239              	.L296:
 5240              		.loc 2 744 15 view .LVU1468
 5241              	.LBE860:
 5242              	.LBE859:
 5243              	.LBB861:
 5244              	.LBB862:
 745:GrannyChordApp.cpp ****   led2_rgb_[2]= b;
 5245              		.loc 2 745 15 view .LVU1469
 5246 002e 00F65800 		addw	r0, r0, #2136
 744:GrannyChordApp.cpp ****   led2_rgb_[1]= g;
 5247              		.loc 2 744 15 view .LVU1470
 5248 0032 1160     		str	r1, [r2]	@ float
 5249              		.loc 2 745 3 is_stmt 1 view .LVU1471
 5250 0034 0DE0     		b	.L297
 5251              	.LVL393:
 5252              	.L294:
 5253              		.loc 2 745 3 is_stmt 0 view .LVU1472
 5254              	.LBE862:
 5255              	.LBE861:
 721:GrannyChordApp.cpp ****         SetRgb2(0.7f, 0.5f, 0); /* orange */
 5256              		.loc 2 721 7 is_stmt 1 view .LVU1473
 722:GrannyChordApp.cpp ****         break;
 5257              		.loc 2 722 9 view .LVU1474
 5258              	.LBB865:
 5259              	.LBI865:
 742:GrannyChordApp.cpp ****   led2_rgb_[0]= r;
 5260              		.loc 2 742 6 view .LVU1475
 5261              	.LBB866:
 743:GrannyChordApp.cpp ****   led2_rgb_[1]= g;
 5262              		.loc 2 743 3 view .LVU1476
 743:GrannyChordApp.cpp ****   led2_rgb_[1]= g;
 5263              		.loc 2 743 15 is_stmt 0 view .LVU1477
 5264 0036 00F50040 		add	r0, r0, #32768
 5265              	.LVL394:
 743:GrannyChordApp.cpp ****   led2_rgb_[1]= g;
 5266              		.loc 2 743 15 view .LVU1478
 5267 003a 124A     		ldr	r2, .L298
ARM GAS  /var/folders/2p/02m_5p7958535cp2tpgps0400000gn/T//ccRuMDjw.s 			page 147


 5268 003c 00F50563 		add	r3, r0, #2128
 5269 0040 1A60     		str	r2, [r3]	@ float
 744:GrannyChordApp.cpp ****   led2_rgb_[2]= b;
 5270              		.loc 2 744 3 is_stmt 1 view .LVU1479
 744:GrannyChordApp.cpp ****   led2_rgb_[2]= b;
 5271              		.loc 2 744 15 is_stmt 0 view .LVU1480
 5272 0042 00F65403 		addw	r3, r0, #2132
 5273 0046 4FF07C52 		mov	r2, #1056964608
 5274              		.loc 2 745 15 view .LVU1481
 5275 004a 00F65800 		addw	r0, r0, #2136
 5276              	.LVL395:
 744:GrannyChordApp.cpp ****   led2_rgb_[2]= b;
 5277              		.loc 2 744 15 view .LVU1482
 5278 004e 1A60     		str	r2, [r3]	@ float
 5279              		.loc 2 745 3 is_stmt 1 view .LVU1483
 5280              		.loc 2 745 15 is_stmt 0 view .LVU1484
 5281 0050 0023     		movs	r3, #0
 5282              	.LVL396:
 5283              	.L297:
 5284              		.loc 2 745 15 view .LVU1485
 5285              	.LBE866:
 5286              	.LBE865:
 5287              	.LBB867:
 5288              	.LBB863:
 5289 0052 0360     		str	r3, [r0]	@ float
 5290              	.L289:
 5291              	.LBE863:
 5292              	.LBE867:
 734:GrannyChordApp.cpp **** 
 5293              		.loc 2 734 1 view .LVU1486
 5294 0054 7047     		bx	lr
 5295              	.LVL397:
 5296              	.L293:
 724:GrannyChordApp.cpp ****         SetRgb2(0, 0, 0.7f); /* blue */
 5297              		.loc 2 724 7 is_stmt 1 view .LVU1487
 725:GrannyChordApp.cpp ****         break;
 5298              		.loc 2 725 9 view .LVU1488
 5299              	.LBB868:
 5300              	.LBI868:
 742:GrannyChordApp.cpp ****   led2_rgb_[0]= r;
 5301              		.loc 2 742 6 view .LVU1489
 5302              	.LBB869:
 743:GrannyChordApp.cpp ****   led2_rgb_[1]= g;
 5303              		.loc 2 743 3 view .LVU1490
 743:GrannyChordApp.cpp ****   led2_rgb_[1]= g;
 5304              		.loc 2 743 15 is_stmt 0 view .LVU1491
 5305 0056 00F50040 		add	r0, r0, #32768
 5306              	.LVL398:
 743:GrannyChordApp.cpp ****   led2_rgb_[1]= g;
 5307              		.loc 2 743 15 view .LVU1492
 5308 005a 0023     		movs	r3, #0
 5309 005c 00F50562 		add	r2, r0, #2128
 5310 0060 1360     		str	r3, [r2]	@ float
 744:GrannyChordApp.cpp ****   led2_rgb_[2]= b;
 5311              		.loc 2 744 3 is_stmt 1 view .LVU1493
 744:GrannyChordApp.cpp ****   led2_rgb_[2]= b;
 5312              		.loc 2 744 15 is_stmt 0 view .LVU1494
ARM GAS  /var/folders/2p/02m_5p7958535cp2tpgps0400000gn/T//ccRuMDjw.s 			page 148


 5313 0062 00F65402 		addw	r2, r0, #2132
 5314              		.loc 2 745 15 view .LVU1495
 5315 0066 00F65800 		addw	r0, r0, #2136
 5316              	.LVL399:
 744:GrannyChordApp.cpp ****   led2_rgb_[2]= b;
 5317              		.loc 2 744 15 view .LVU1496
 5318 006a 1360     		str	r3, [r2]	@ float
 5319              		.loc 2 745 3 is_stmt 1 view .LVU1497
 5320              		.loc 2 745 15 is_stmt 0 view .LVU1498
 5321 006c 054B     		ldr	r3, .L298
 5322 006e F0E7     		b	.L297
 5323              	.LVL400:
 5324              	.L291:
 5325              		.loc 2 745 15 view .LVU1499
 5326              	.LBE869:
 5327              	.LBE868:
 727:GrannyChordApp.cpp ****         SetRgb2(0.7f, 0, 0.7f); /* pink */
 5328              		.loc 2 727 7 is_stmt 1 view .LVU1500
 728:GrannyChordApp.cpp ****         break;
 5329              		.loc 2 728 9 view .LVU1501
 5330              	.LBB870:
 5331              	.LBI861:
 742:GrannyChordApp.cpp ****   led2_rgb_[0]= r;
 5332              		.loc 2 742 6 view .LVU1502
 5333              	.LBB864:
 743:GrannyChordApp.cpp ****   led2_rgb_[1]= g;
 5334              		.loc 2 743 3 view .LVU1503
 743:GrannyChordApp.cpp ****   led2_rgb_[1]= g;
 5335              		.loc 2 743 15 is_stmt 0 view .LVU1504
 5336 0070 00F50040 		add	r0, r0, #32768
 5337              	.LVL401:
 743:GrannyChordApp.cpp ****   led2_rgb_[1]= g;
 5338              		.loc 2 743 15 view .LVU1505
 5339 0074 034B     		ldr	r3, .L298
 744:GrannyChordApp.cpp ****   led2_rgb_[2]= b;
 5340              		.loc 2 744 15 view .LVU1506
 5341 0076 0021     		movs	r1, #0
 743:GrannyChordApp.cpp ****   led2_rgb_[1]= g;
 5342              		.loc 2 743 15 view .LVU1507
 5343 0078 00F50562 		add	r2, r0, #2128
 5344 007c 1360     		str	r3, [r2]	@ float
 744:GrannyChordApp.cpp ****   led2_rgb_[2]= b;
 5345              		.loc 2 744 3 is_stmt 1 view .LVU1508
 744:GrannyChordApp.cpp ****   led2_rgb_[2]= b;
 5346              		.loc 2 744 15 is_stmt 0 view .LVU1509
 5347 007e 00F65402 		addw	r2, r0, #2132
 5348 0082 D4E7     		b	.L296
 5349              	.L299:
 5350              		.align	2
 5351              	.L298:
 5352 0084 3333333F 		.word	1060320051
 5353              	.LBE864:
 5354              	.LBE870:
 5355              		.cfi_endproc
 5356              	.LFE4944:
 5358              		.section	.text._ZN14GrannyChordApp7SetRgb1Efff,"ax",%progbits
 5359              		.align	1
ARM GAS  /var/folders/2p/02m_5p7958535cp2tpgps0400000gn/T//ccRuMDjw.s 			page 149


 5360              		.global	_ZN14GrannyChordApp7SetRgb1Efff
 5361              		.syntax unified
 5362              		.thumb
 5363              		.thumb_func
 5365              	_ZN14GrannyChordApp7SetRgb1Efff:
 5366              	.LVL402:
 5367              	.LFB4945:
 736:GrannyChordApp.cpp ****   led1_rgb_[0]= r;
 5368              		.loc 2 736 56 is_stmt 1 view -0
 5369              		.cfi_startproc
 5370              		@ args = 0, pretend = 0, frame = 0
 5371              		@ frame_needed = 0, uses_anonymous_args = 0
 5372              		@ link register save eliminated.
 737:GrannyChordApp.cpp ****   led1_rgb_[1]= g;
 5373              		.loc 2 737 3 view .LVU1511
 737:GrannyChordApp.cpp ****   led1_rgb_[1]= g;
 5374              		.loc 2 737 15 is_stmt 0 view .LVU1512
 5375 0000 00F50040 		add	r0, r0, #32768
 5376              	.LVL403:
 737:GrannyChordApp.cpp ****   led1_rgb_[1]= g;
 5377              		.loc 2 737 15 view .LVU1513
 5378 0004 00F64403 		addw	r3, r0, #2116
 5379 0008 83ED000A 		vstr.32	s0, [r3]
 738:GrannyChordApp.cpp ****   led1_rgb_[2]= b;
 5380              		.loc 2 738 3 is_stmt 1 view .LVU1514
 738:GrannyChordApp.cpp ****   led1_rgb_[2]= b;
 5381              		.loc 2 738 15 is_stmt 0 view .LVU1515
 5382 000c 00F64803 		addw	r3, r0, #2120
 739:GrannyChordApp.cpp **** }
 5383              		.loc 2 739 15 view .LVU1516
 5384 0010 00F64C00 		addw	r0, r0, #2124
 5385              	.LVL404:
 738:GrannyChordApp.cpp ****   led1_rgb_[2]= b;
 5386              		.loc 2 738 15 view .LVU1517
 5387 0014 C3ED000A 		vstr.32	s1, [r3]
 739:GrannyChordApp.cpp **** }
 5388              		.loc 2 739 3 is_stmt 1 view .LVU1518
 739:GrannyChordApp.cpp **** }
 5389              		.loc 2 739 15 is_stmt 0 view .LVU1519
 5390 0018 80ED001A 		vstr.32	s2, [r0]
 740:GrannyChordApp.cpp **** 
 5391              		.loc 2 740 1 view .LVU1520
 5392 001c 7047     		bx	lr
 5393              		.cfi_endproc
 5394              	.LFE4945:
 5396              		.section	.text._ZN14GrannyChordApp7SetRgb2Efff,"ax",%progbits
 5397              		.align	1
 5398              		.global	_ZN14GrannyChordApp7SetRgb2Efff
 5399              		.syntax unified
 5400              		.thumb
 5401              		.thumb_func
 5403              	_ZN14GrannyChordApp7SetRgb2Efff:
 5404              	.LVL405:
 5405              	.LFB4946:
 742:GrannyChordApp.cpp ****   led2_rgb_[0]= r;
 5406              		.loc 2 742 56 is_stmt 1 view -0
 5407              		.cfi_startproc
ARM GAS  /var/folders/2p/02m_5p7958535cp2tpgps0400000gn/T//ccRuMDjw.s 			page 150


 5408              		@ args = 0, pretend = 0, frame = 0
 5409              		@ frame_needed = 0, uses_anonymous_args = 0
 5410              		@ link register save eliminated.
 743:GrannyChordApp.cpp ****   led2_rgb_[1]= g;
 5411              		.loc 2 743 3 view .LVU1522
 743:GrannyChordApp.cpp ****   led2_rgb_[1]= g;
 5412              		.loc 2 743 15 is_stmt 0 view .LVU1523
 5413 0000 00F50040 		add	r0, r0, #32768
 5414              	.LVL406:
 743:GrannyChordApp.cpp ****   led2_rgb_[1]= g;
 5415              		.loc 2 743 15 view .LVU1524
 5416 0004 00F50563 		add	r3, r0, #2128
 5417 0008 83ED000A 		vstr.32	s0, [r3]
 744:GrannyChordApp.cpp ****   led2_rgb_[2]= b;
 5418              		.loc 2 744 3 is_stmt 1 view .LVU1525
 744:GrannyChordApp.cpp ****   led2_rgb_[2]= b;
 5419              		.loc 2 744 15 is_stmt 0 view .LVU1526
 5420 000c 00F65403 		addw	r3, r0, #2132
 5421              		.loc 2 745 15 view .LVU1527
 5422 0010 00F65800 		addw	r0, r0, #2136
 5423              	.LVL407:
 744:GrannyChordApp.cpp ****   led2_rgb_[2]= b;
 5424              		.loc 2 744 15 view .LVU1528
 5425 0014 C3ED000A 		vstr.32	s1, [r3]
 5426              		.loc 2 745 3 is_stmt 1 view .LVU1529
 5427              		.loc 2 745 15 is_stmt 0 view .LVU1530
 5428 0018 80ED001A 		vstr.32	s2, [r0]
 746:GrannyChordApp.cpp **** }
 5429              		.loc 2 746 1 view .LVU1531
 5430 001c 7047     		bx	lr
 5431              		.cfi_endproc
 5432              	.LFE4946:
 5434              		.section	.text._ZN14GrannyChordApp12SetLedFXModeEv,"ax",%progbits
 5435              		.align	1
 5436              		.global	_ZN14GrannyChordApp12SetLedFXModeEv
 5437              		.syntax unified
 5438              		.thumb
 5439              		.thumb_func
 5441              	_ZN14GrannyChordApp12SetLedFXModeEv:
 5442              	.LFB5556:
 5443              		.cfi_startproc
 5444              		@ args = 0, pretend = 0, frame = 0
 5445              		@ frame_needed = 0, uses_anonymous_args = 0
 5446              		@ link register save eliminated.
 5447 0000 7047     		bx	lr
 5448              		.cfi_endproc
 5449              	.LFE5556:
 5451              		.section	.text._ZN14GrannyChordApp16SetLedRandomModeEv,"ax",%progbits
 5452              		.align	1
 5453              		.global	_ZN14GrannyChordApp16SetLedRandomModeEv
 5454              		.syntax unified
 5455              		.thumb
 5456              		.thumb_func
 5458              	_ZN14GrannyChordApp16SetLedRandomModeEv:
 5459              	.LVL408:
 5460              	.LFB4948:
 747:GrannyChordApp.cpp **** 
ARM GAS  /var/folders/2p/02m_5p7958535cp2tpgps0400000gn/T//ccRuMDjw.s 			page 151


 748:GrannyChordApp.cpp **** 
 749:GrannyChordApp.cpp **** void GrannyChordApp::SetLedFXMode(){
 750:GrannyChordApp.cpp **** 
 751:GrannyChordApp.cpp **** }
 752:GrannyChordApp.cpp **** 
 753:GrannyChordApp.cpp **** void GrannyChordApp::SetLedRandomMode(){
 5461              		.loc 2 753 40 is_stmt 1 view -0
 5462              		.cfi_startproc
 5463              		@ args = 0, pretend = 0, frame = 0
 5464              		@ frame_needed = 0, uses_anonymous_args = 0
 5465              		@ link register save eliminated.
 754:GrannyChordApp.cpp **** 
 755:GrannyChordApp.cpp **** }
 5466              		.loc 2 755 1 is_stmt 0 view .LVU1533
 5467 0000 7047     		bx	lr
 5468              		.cfi_endproc
 5469              	.LFE4948:
 5471              		.section	.text._ZN5daisy9WavWriterILj16384EE8SaveFileEv,"axG",%progbits,_ZN5daisy9WavWriterILj1638
 5472              		.align	1
 5473              		.weak	_ZN5daisy9WavWriterILj16384EE8SaveFileEv
 5474              		.syntax unified
 5475              		.thumb
 5476              		.thumb_func
 5478              	_ZN5daisy9WavWriterILj16384EE8SaveFileEv:
 5479              	.LVL409:
 5480              	.LFB5276:
 142:../libDaisy/src/util/WavWriter.h ****     {
 5481              		.loc 6 142 10 is_stmt 1 view -0
 5482              		.cfi_startproc
 5483              		@ args = 0, pretend = 0, frame = 8
 5484              		@ frame_needed = 0, uses_anonymous_args = 0
 142:../libDaisy/src/util/WavWriter.h ****     {
 5485              		.loc 6 142 10 is_stmt 0 view .LVU1535
 5486 0000 37B5     		push	{r0, r1, r2, r4, r5, lr}
 5487              		.cfi_def_cfa_offset 24
 5488              		.cfi_offset 4, -12
 5489              		.cfi_offset 5, -8
 5490              		.cfi_offset 14, -4
 145:../libDaisy/src/util/WavWriter.h ****         // We _should_ flush whatever's left in the transfer buff
 5491              		.loc 6 145 25 view .LVU1536
 5492 0002 00F50043 		add	r3, r0, #32768
 144:../libDaisy/src/util/WavWriter.h ****         recording_      = false;
 5493              		.loc 6 144 22 view .LVU1537
 5494 0006 0021     		movs	r1, #0
 149:../libDaisy/src/util/WavWriter.h ****         f_write(&fp_, &wavheader_, sizeof(wavheader_), &bw);
 5495              		.loc 6 149 16 view .LVU1538
 5496 0008 00F50045 		add	r5, r0, #32768
 142:../libDaisy/src/util/WavWriter.h ****     {
 5497              		.loc 6 142 10 view .LVU1539
 5498 000c 0446     		mov	r4, r0
 145:../libDaisy/src/util/WavWriter.h ****         // We _should_ flush whatever's left in the transfer buff
 5499              		.loc 6 145 25 view .LVU1540
 5500 000e 83F84410 		strb	r1, [r3, #68]
 5501              	.LVL410:
 5502              	.LBB873:
 5503              	.LBI873:
 182:../libDaisy/src/util/WavWriter.h ****     {
ARM GAS  /var/folders/2p/02m_5p7958535cp2tpgps0400000gn/T//ccRuMDjw.s 			page 152


 5504              		.loc 6 182 21 is_stmt 1 view .LVU1541
 5505              	.LBE873:
 149:../libDaisy/src/util/WavWriter.h ****         f_write(&fp_, &wavheader_, sizeof(wavheader_), &bw);
 5506              		.loc 6 149 16 is_stmt 0 view .LVU1542
 5507 0012 4835     		adds	r5, r5, #72
 144:../libDaisy/src/util/WavWriter.h ****         recording_      = false;
 5508              		.loc 6 144 22 view .LVU1543
 5509 0014 0191     		str	r1, [sp, #4]
 5510              	.LBB875:
 5511              	.LBB874:
 185:../libDaisy/src/util/WavWriter.h ****         return 36 + wavheader_.SubCHunk2Size;
 5512              		.loc 6 185 42 view .LVU1544
 5513 0016 D0E90E32 		ldrd	r3, r2, [r0, #56]
 5514 001a 5343     		muls	r3, r2, r3
 5515 001c C26A     		ldr	r2, [r0, #44]
 5516 001e 5343     		muls	r3, r2, r3
 185:../libDaisy/src/util/WavWriter.h ****         return 36 + wavheader_.SubCHunk2Size;
 5517              		.loc 6 185 63 view .LVU1545
 5518 0020 DB08     		lsrs	r3, r3, #3
 185:../libDaisy/src/util/WavWriter.h ****         return 36 + wavheader_.SubCHunk2Size;
 5519              		.loc 6 185 13 view .LVU1546
 5520 0022 8362     		str	r3, [r0, #40]
 5521              	.LVL411:
 186:../libDaisy/src/util/WavWriter.h ****     }
 5522              		.loc 6 186 32 view .LVU1547
 5523 0024 2433     		adds	r3, r3, #36
 5524              	.LBE874:
 5525              	.LBE875:
 148:../libDaisy/src/util/WavWriter.h ****         f_lseek(&fp_, 0);
 5526              		.loc 6 148 29 view .LVU1548
 5527 0026 4360     		str	r3, [r0, #4]
 149:../libDaisy/src/util/WavWriter.h ****         f_write(&fp_, &wavheader_, sizeof(wavheader_), &bw);
 5528              		.loc 6 149 16 view .LVU1549
 5529 0028 2846     		mov	r0, r5
 5530              	.LVL412:
 149:../libDaisy/src/util/WavWriter.h ****         f_write(&fp_, &wavheader_, sizeof(wavheader_), &bw);
 5531              		.loc 6 149 16 view .LVU1550
 5532 002a FFF7FEFF 		bl	f_lseek
 5533              	.LVL413:
 150:../libDaisy/src/util/WavWriter.h ****         f_close(&fp_);
 5534              		.loc 6 150 16 view .LVU1551
 5535 002e 01AB     		add	r3, sp, #4
 5536 0030 2C22     		movs	r2, #44
 5537 0032 2146     		mov	r1, r4
 5538 0034 2846     		mov	r0, r5
 5539 0036 FFF7FEFF 		bl	f_write
 5540              	.LVL414:
 151:../libDaisy/src/util/WavWriter.h ****     }
 5541              		.loc 6 151 16 view .LVU1552
 5542 003a 2846     		mov	r0, r5
 5543 003c FFF7FEFF 		bl	f_close
 5544              	.LVL415:
 152:../libDaisy/src/util/WavWriter.h **** 
 5545              		.loc 6 152 5 view .LVU1553
 5546 0040 03B0     		add	sp, sp, #12
 5547              		.cfi_def_cfa_offset 12
 5548              		@ sp needed
ARM GAS  /var/folders/2p/02m_5p7958535cp2tpgps0400000gn/T//ccRuMDjw.s 			page 153


 5549 0042 30BD     		pop	{r4, r5, pc}
 152:../libDaisy/src/util/WavWriter.h **** 
 5550              		.loc 6 152 5 view .LVU1554
 5551              		.cfi_endproc
 5552              	.LFE5276:
 5554              		.section	.rodata._ZN14GrannyChordApp3RunEv.str1.1,"aMS",%progbits,1
 5555              	.LC29:
 5556 0000 61707020 		.ascii	"app is running\000"
 5556      69732072 
 5556      756E6E69 
 5556      6E6700
 5557              	.LC30:
 5558 000f 50726F63 		.ascii	"Processing Load %:\000"
 5558      65737369 
 5558      6E67204C 
 5558      6F616420 
 5558      253A00
 5559              	.LC31:
 5560 0022 4D61783A 		.ascii	"Max: %c%d.%03d\000"
 5560      20256325 
 5560      642E2530 
 5560      336400
 5561              	.LC32:
 5562 0031 4176673A 		.ascii	"Avg: %c%d.%03d\000"
 5562      20256325 
 5562      642E2530 
 5562      336400
 5563              	.LC33:
 5564 0040 4D696E3A 		.ascii	"Min: %c%d.%03d\000"
 5564      20256325 
 5564      642E2530 
 5564      336400
 5565              		.section	.text._ZN14GrannyChordApp3RunEv,"ax",%progbits
 5566              		.align	1
 5567              		.global	_ZN14GrannyChordApp3RunEv
 5568              		.syntax unified
 5569              		.thumb
 5570              		.thumb_func
 5572              	_ZN14GrannyChordApp3RunEv:
 5573              	.LVL416:
 5574              	.LFB4904:
  39:GrannyChordApp.cpp ****   // size_t count = 0;
 5575              		.loc 2 39 27 is_stmt 1 view -0
 5576              		.cfi_startproc
 5577              		@ args = 0, pretend = 0, frame = 8
 5578              		@ frame_needed = 0, uses_anonymous_args = 0
  41:GrannyChordApp.cpp ****   while(true){
 5579              		.loc 2 41 3 view .LVU1556
 5580              	.LBB909:
 5581              	.LBI909:
 126:../libDaisy/src/daisy_seed.h ****     {
 5582              		.loc 4 126 17 view .LVU1557
 5583              	.LBE909:
  39:GrannyChordApp.cpp ****   // size_t count = 0;
 5584              		.loc 2 39 27 is_stmt 0 view .LVU1558
 5585 0000 70B5     		push	{r4, r5, r6, lr}
 5586              		.cfi_def_cfa_offset 16
ARM GAS  /var/folders/2p/02m_5p7958535cp2tpgps0400000gn/T//ccRuMDjw.s 			page 154


 5587              		.cfi_offset 4, -16
 5588              		.cfi_offset 5, -12
 5589              		.cfi_offset 6, -8
 5590              		.cfi_offset 14, -4
 5591 0002 0446     		mov	r4, r0
 5592              	.LBB912:
 5593              	.LBB910:
 5594              		.loc 4 128 23 view .LVU1559
 5595 0004 6248     		ldr	r0, .L328+8
 5596              	.LVL417:
 5597              		.loc 4 128 23 view .LVU1560
 5598              	.LBE910:
 5599              	.LBE912:
  39:GrannyChordApp.cpp ****   // size_t count = 0;
 5600              		.loc 2 39 27 view .LVU1561
 5601 0006 2DED068B 		vpush.64	{d8, d9, d10}
 5602              		.cfi_def_cfa_offset 40
 5603              		.cfi_offset 80, -40
 5604              		.cfi_offset 81, -36
 5605              		.cfi_offset 82, -32
 5606              		.cfi_offset 83, -28
 5607              		.cfi_offset 84, -24
 5608              		.cfi_offset 85, -20
 5609 000a 82B0     		sub	sp, sp, #8
 5610              		.cfi_def_cfa_offset 48
 5611              	.LBB913:
 5612              	.LBB911:
 5613              		.loc 4 128 23 view .LVU1562
 5614 000c FFF7FEFF 		bl	_ZN5daisy6LoggerILNS_17LoggerDestinationE1EE9PrintLineEPKcz
 5615              	.LVL418:
 5616              	.L316:
 5617              		.loc 4 128 23 view .LVU1563
 5618              	.LBE911:
 5619              	.LBE913:
  42:GrannyChordApp.cpp ****     loop_count++;
 5620              		.loc 2 42 3 is_stmt 1 view .LVU1564
 5621              	.LBB914:
  43:GrannyChordApp.cpp ****     if (loop_count%2000==0){
 5622              		.loc 2 43 5 view .LVU1565
 5623 0010 04F50045 		add	r5, r4, #32768
  43:GrannyChordApp.cpp ****     if (loop_count%2000==0){
 5624              		.loc 2 43 15 is_stmt 0 view .LVU1566
 5625 0014 4FF4FA66 		mov	r6, #2000
 5626 0018 D5F83438 		ldr	r3, [r5, #2100]
 5627 001c 0133     		adds	r3, r3, #1
 5628 001e B3FBF6F2 		udiv	r2, r3, r6
 5629 0022 06FB1236 		mls	r6, r6, r2, r3
 5630 0026 C5F83438 		str	r3, [r5, #2100]
  44:GrannyChordApp.cpp ****       const float avgLoad = loadmeter.GetAvgCpuLoad();
 5631              		.loc 2 44 5 is_stmt 1 view .LVU1567
 5632              	.LBB915:
 5633 002a 002E     		cmp	r6, #0
 5634 002c 6CD1     		bne	.L306
 5635              	.LBB916:
  45:GrannyChordApp.cpp ****       const float maxLoad = loadmeter.GetMaxCpuLoad();
 5636              		.loc 2 45 7 view .LVU1568
 5637              	.LVL419:
ARM GAS  /var/folders/2p/02m_5p7958535cp2tpgps0400000gn/T//ccRuMDjw.s 			page 155


 5638              	.LBB917:
 5639              	.LBI917:
  77:../libDaisy/src/util/CpuLoadMeter.h ****     /** Returns the minimun CPU load observed since the last call to Reset(). */
 5640              		.loc 9 77 11 view .LVU1569
 5641              	.LBB918:
  77:../libDaisy/src/util/CpuLoadMeter.h ****     /** Returns the minimun CPU load observed since the last call to Reset(). */
 5642              		.loc 9 77 35 view .LVU1570
 5643              	.LBE918:
 5644              	.LBE917:
 5645              	.LBB920:
 5646              	.LBB921:
  81:../libDaisy/src/util/CpuLoadMeter.h **** 
 5647              		.loc 9 81 42 is_stmt 0 view .LVU1571
 5648 002e 94ED049A 		vldr.32	s18, [r4, #16]
 5649              	.LBE921:
 5650              	.LBE920:
  53:GrannyChordApp.cpp ****       pod_.seed.PrintLine("Avg: " FLT_FMT3, FLT_VAR3(avgLoad * 100.0f));
 5651              		.loc 2 53 45 view .LVU1572
 5652 0032 9FED58AA 		vldr.32	s20, .L328+12
 5653              	.LBB923:
 5654              	.LBB924:
 5655              		.loc 4 128 23 view .LVU1573
 5656 0036 5848     		ldr	r0, .L328+16
 5657              	.LBE924:
 5658              	.LBE923:
 5659              	.LBB926:
 5660              	.LBB919:
  77:../libDaisy/src/util/CpuLoadMeter.h ****     /** Returns the minimun CPU load observed since the last call to Reset(). */
 5661              		.loc 9 77 42 view .LVU1574
 5662 0038 D4ED058A 		vldr.32	s17, [r4, #20]
 5663              	.LVL420:
  77:../libDaisy/src/util/CpuLoadMeter.h ****     /** Returns the minimun CPU load observed since the last call to Reset(). */
 5664              		.loc 9 77 42 view .LVU1575
 5665              	.LBE919:
 5666              	.LBE926:
  46:GrannyChordApp.cpp ****       const float minLoad = loadmeter.GetMinCpuLoad();
 5667              		.loc 2 46 7 is_stmt 1 view .LVU1576
 5668              	.LBB927:
 5669              	.LBI920:
  81:../libDaisy/src/util/CpuLoadMeter.h **** 
 5670              		.loc 9 81 11 view .LVU1577
 5671              	.LBB922:
  81:../libDaisy/src/util/CpuLoadMeter.h **** 
 5672              		.loc 9 81 35 view .LVU1578
  81:../libDaisy/src/util/CpuLoadMeter.h **** 
 5673              		.loc 9 81 35 is_stmt 0 view .LVU1579
 5674              	.LBE922:
 5675              	.LBE927:
  47:GrannyChordApp.cpp ****       // print it to the serial connection (as percentages)
 5676              		.loc 2 47 7 is_stmt 1 view .LVU1580
 5677              	.LBB928:
 5678              	.LBI928:
  79:../libDaisy/src/util/CpuLoadMeter.h ****     /** Returns the maximum CPU load observed since the last call to Reset(). */
 5679              		.loc 9 79 11 view .LVU1581
 5680              	.LBB929:
  79:../libDaisy/src/util/CpuLoadMeter.h ****     /** Returns the maximum CPU load observed since the last call to Reset(). */
 5681              		.loc 9 79 35 view .LVU1582
ARM GAS  /var/folders/2p/02m_5p7958535cp2tpgps0400000gn/T//ccRuMDjw.s 			page 156


  79:../libDaisy/src/util/CpuLoadMeter.h ****     /** Returns the maximum CPU load observed since the last call to Reset(). */
 5682              		.loc 9 79 42 is_stmt 0 view .LVU1583
 5683 003c 94ED038A 		vldr.32	s16, [r4, #12]
 5684              	.LVL421:
  79:../libDaisy/src/util/CpuLoadMeter.h ****     /** Returns the maximum CPU load observed since the last call to Reset(). */
 5685              		.loc 9 79 42 view .LVU1584
 5686              	.LBE929:
 5687              	.LBE928:
  49:GrannyChordApp.cpp ****       // pod_.seed.PrintLine("Max: %.8f",(maxLoad * 100.0f));
 5688              		.loc 2 49 7 is_stmt 1 view .LVU1585
 5689              	.LBB930:
 5690              	.LBI923:
 126:../libDaisy/src/daisy_seed.h ****     {
 5691              		.loc 4 126 17 view .LVU1586
 5692              	.LBB925:
 5693              		.loc 4 128 23 is_stmt 0 view .LVU1587
 5694 0040 FFF7FEFF 		bl	_ZN5daisy6LoggerILNS_17LoggerDestinationE1EE9PrintLineEPKcz
 5695              	.LVL422:
 5696              		.loc 4 128 23 view .LVU1588
 5697              	.LBE925:
 5698              	.LBE930:
  53:GrannyChordApp.cpp ****       pod_.seed.PrintLine("Avg: " FLT_FMT3, FLT_VAR3(avgLoad * 100.0f));
 5699              		.loc 2 53 7 is_stmt 1 view .LVU1589
 5700              	.LBB931:
 5701              	.LBI931:
 5702              		.file 17 "/Library/DaisyToolchain/0.2.0/arm/arm-none-eabi/include/c++/10.3.1/bits/std_abs.h"
   1:/Library/DaisyToolchain/0.2.0/arm/arm-none-eabi/include/c++/10.3.1/bits/std_abs.h **** // -*- C++ -*- C library enhancements header.
   2:/Library/DaisyToolchain/0.2.0/arm/arm-none-eabi/include/c++/10.3.1/bits/std_abs.h **** 
   3:/Library/DaisyToolchain/0.2.0/arm/arm-none-eabi/include/c++/10.3.1/bits/std_abs.h **** // Copyright (C) 2016-2020 Free Software Foundation, Inc.
   4:/Library/DaisyToolchain/0.2.0/arm/arm-none-eabi/include/c++/10.3.1/bits/std_abs.h **** //
   5:/Library/DaisyToolchain/0.2.0/arm/arm-none-eabi/include/c++/10.3.1/bits/std_abs.h **** // This file is part of the GNU ISO C++ Library.  This library is free
   6:/Library/DaisyToolchain/0.2.0/arm/arm-none-eabi/include/c++/10.3.1/bits/std_abs.h **** // software; you can redistribute it and/or modify it under the
   7:/Library/DaisyToolchain/0.2.0/arm/arm-none-eabi/include/c++/10.3.1/bits/std_abs.h **** // terms of the GNU General Public License as published by the
   8:/Library/DaisyToolchain/0.2.0/arm/arm-none-eabi/include/c++/10.3.1/bits/std_abs.h **** // Free Software Foundation; either version 3, or (at your option)
   9:/Library/DaisyToolchain/0.2.0/arm/arm-none-eabi/include/c++/10.3.1/bits/std_abs.h **** // any later version.
  10:/Library/DaisyToolchain/0.2.0/arm/arm-none-eabi/include/c++/10.3.1/bits/std_abs.h **** 
  11:/Library/DaisyToolchain/0.2.0/arm/arm-none-eabi/include/c++/10.3.1/bits/std_abs.h **** // This library is distributed in the hope that it will be useful,
  12:/Library/DaisyToolchain/0.2.0/arm/arm-none-eabi/include/c++/10.3.1/bits/std_abs.h **** // but WITHOUT ANY WARRANTY; without even the implied warranty of
  13:/Library/DaisyToolchain/0.2.0/arm/arm-none-eabi/include/c++/10.3.1/bits/std_abs.h **** // MERCHANTABILITY or FITNESS FOR A PARTICULAR PURPOSE.  See the
  14:/Library/DaisyToolchain/0.2.0/arm/arm-none-eabi/include/c++/10.3.1/bits/std_abs.h **** // GNU General Public License for more details.
  15:/Library/DaisyToolchain/0.2.0/arm/arm-none-eabi/include/c++/10.3.1/bits/std_abs.h **** 
  16:/Library/DaisyToolchain/0.2.0/arm/arm-none-eabi/include/c++/10.3.1/bits/std_abs.h **** // Under Section 7 of GPL version 3, you are granted additional
  17:/Library/DaisyToolchain/0.2.0/arm/arm-none-eabi/include/c++/10.3.1/bits/std_abs.h **** // permissions described in the GCC Runtime Library Exception, version
  18:/Library/DaisyToolchain/0.2.0/arm/arm-none-eabi/include/c++/10.3.1/bits/std_abs.h **** // 3.1, as published by the Free Software Foundation.
  19:/Library/DaisyToolchain/0.2.0/arm/arm-none-eabi/include/c++/10.3.1/bits/std_abs.h **** 
  20:/Library/DaisyToolchain/0.2.0/arm/arm-none-eabi/include/c++/10.3.1/bits/std_abs.h **** // You should have received a copy of the GNU General Public License and
  21:/Library/DaisyToolchain/0.2.0/arm/arm-none-eabi/include/c++/10.3.1/bits/std_abs.h **** // a copy of the GCC Runtime Library Exception along with this program;
  22:/Library/DaisyToolchain/0.2.0/arm/arm-none-eabi/include/c++/10.3.1/bits/std_abs.h **** // see the files COPYING3 and COPYING.RUNTIME respectively.  If not, see
  23:/Library/DaisyToolchain/0.2.0/arm/arm-none-eabi/include/c++/10.3.1/bits/std_abs.h **** // <http://www.gnu.org/licenses/>.
  24:/Library/DaisyToolchain/0.2.0/arm/arm-none-eabi/include/c++/10.3.1/bits/std_abs.h **** 
  25:/Library/DaisyToolchain/0.2.0/arm/arm-none-eabi/include/c++/10.3.1/bits/std_abs.h **** /** @file include/bits/std_abs.h
  26:/Library/DaisyToolchain/0.2.0/arm/arm-none-eabi/include/c++/10.3.1/bits/std_abs.h ****  *  This is an internal header file, included by other library headers.
  27:/Library/DaisyToolchain/0.2.0/arm/arm-none-eabi/include/c++/10.3.1/bits/std_abs.h ****  *  Do not attempt to use it directly. @headername{cmath, cstdlib}
  28:/Library/DaisyToolchain/0.2.0/arm/arm-none-eabi/include/c++/10.3.1/bits/std_abs.h ****  */
  29:/Library/DaisyToolchain/0.2.0/arm/arm-none-eabi/include/c++/10.3.1/bits/std_abs.h **** 
  30:/Library/DaisyToolchain/0.2.0/arm/arm-none-eabi/include/c++/10.3.1/bits/std_abs.h **** #ifndef _GLIBCXX_BITS_STD_ABS_H
  31:/Library/DaisyToolchain/0.2.0/arm/arm-none-eabi/include/c++/10.3.1/bits/std_abs.h **** #define _GLIBCXX_BITS_STD_ABS_H
ARM GAS  /var/folders/2p/02m_5p7958535cp2tpgps0400000gn/T//ccRuMDjw.s 			page 157


  32:/Library/DaisyToolchain/0.2.0/arm/arm-none-eabi/include/c++/10.3.1/bits/std_abs.h **** 
  33:/Library/DaisyToolchain/0.2.0/arm/arm-none-eabi/include/c++/10.3.1/bits/std_abs.h **** #pragma GCC system_header
  34:/Library/DaisyToolchain/0.2.0/arm/arm-none-eabi/include/c++/10.3.1/bits/std_abs.h **** 
  35:/Library/DaisyToolchain/0.2.0/arm/arm-none-eabi/include/c++/10.3.1/bits/std_abs.h **** #include <bits/c++config.h>
  36:/Library/DaisyToolchain/0.2.0/arm/arm-none-eabi/include/c++/10.3.1/bits/std_abs.h **** 
  37:/Library/DaisyToolchain/0.2.0/arm/arm-none-eabi/include/c++/10.3.1/bits/std_abs.h **** #define _GLIBCXX_INCLUDE_NEXT_C_HEADERS
  38:/Library/DaisyToolchain/0.2.0/arm/arm-none-eabi/include/c++/10.3.1/bits/std_abs.h **** #include_next <stdlib.h>
  39:/Library/DaisyToolchain/0.2.0/arm/arm-none-eabi/include/c++/10.3.1/bits/std_abs.h **** #ifdef __CORRECT_ISO_CPP_MATH_H_PROTO
  40:/Library/DaisyToolchain/0.2.0/arm/arm-none-eabi/include/c++/10.3.1/bits/std_abs.h **** # include_next <math.h>
  41:/Library/DaisyToolchain/0.2.0/arm/arm-none-eabi/include/c++/10.3.1/bits/std_abs.h **** #endif
  42:/Library/DaisyToolchain/0.2.0/arm/arm-none-eabi/include/c++/10.3.1/bits/std_abs.h **** #undef _GLIBCXX_INCLUDE_NEXT_C_HEADERS
  43:/Library/DaisyToolchain/0.2.0/arm/arm-none-eabi/include/c++/10.3.1/bits/std_abs.h **** 
  44:/Library/DaisyToolchain/0.2.0/arm/arm-none-eabi/include/c++/10.3.1/bits/std_abs.h **** #undef abs
  45:/Library/DaisyToolchain/0.2.0/arm/arm-none-eabi/include/c++/10.3.1/bits/std_abs.h **** 
  46:/Library/DaisyToolchain/0.2.0/arm/arm-none-eabi/include/c++/10.3.1/bits/std_abs.h **** extern "C++"
  47:/Library/DaisyToolchain/0.2.0/arm/arm-none-eabi/include/c++/10.3.1/bits/std_abs.h **** {
  48:/Library/DaisyToolchain/0.2.0/arm/arm-none-eabi/include/c++/10.3.1/bits/std_abs.h **** namespace std _GLIBCXX_VISIBILITY(default)
  49:/Library/DaisyToolchain/0.2.0/arm/arm-none-eabi/include/c++/10.3.1/bits/std_abs.h **** {
  50:/Library/DaisyToolchain/0.2.0/arm/arm-none-eabi/include/c++/10.3.1/bits/std_abs.h **** _GLIBCXX_BEGIN_NAMESPACE_VERSION
  51:/Library/DaisyToolchain/0.2.0/arm/arm-none-eabi/include/c++/10.3.1/bits/std_abs.h **** 
  52:/Library/DaisyToolchain/0.2.0/arm/arm-none-eabi/include/c++/10.3.1/bits/std_abs.h ****   using ::abs;
  53:/Library/DaisyToolchain/0.2.0/arm/arm-none-eabi/include/c++/10.3.1/bits/std_abs.h **** 
  54:/Library/DaisyToolchain/0.2.0/arm/arm-none-eabi/include/c++/10.3.1/bits/std_abs.h **** #ifndef __CORRECT_ISO_CPP_STDLIB_H_PROTO
  55:/Library/DaisyToolchain/0.2.0/arm/arm-none-eabi/include/c++/10.3.1/bits/std_abs.h ****   inline long
  56:/Library/DaisyToolchain/0.2.0/arm/arm-none-eabi/include/c++/10.3.1/bits/std_abs.h ****   abs(long __i) { return __builtin_labs(__i); }
  57:/Library/DaisyToolchain/0.2.0/arm/arm-none-eabi/include/c++/10.3.1/bits/std_abs.h **** #endif
  58:/Library/DaisyToolchain/0.2.0/arm/arm-none-eabi/include/c++/10.3.1/bits/std_abs.h **** 
  59:/Library/DaisyToolchain/0.2.0/arm/arm-none-eabi/include/c++/10.3.1/bits/std_abs.h **** #ifdef _GLIBCXX_USE_LONG_LONG
  60:/Library/DaisyToolchain/0.2.0/arm/arm-none-eabi/include/c++/10.3.1/bits/std_abs.h ****   inline long long
  61:/Library/DaisyToolchain/0.2.0/arm/arm-none-eabi/include/c++/10.3.1/bits/std_abs.h ****   abs(long long __x) { return __builtin_llabs (__x); }
  62:/Library/DaisyToolchain/0.2.0/arm/arm-none-eabi/include/c++/10.3.1/bits/std_abs.h **** #endif
  63:/Library/DaisyToolchain/0.2.0/arm/arm-none-eabi/include/c++/10.3.1/bits/std_abs.h **** 
  64:/Library/DaisyToolchain/0.2.0/arm/arm-none-eabi/include/c++/10.3.1/bits/std_abs.h **** // _GLIBCXX_RESOLVE_LIB_DEFECTS
  65:/Library/DaisyToolchain/0.2.0/arm/arm-none-eabi/include/c++/10.3.1/bits/std_abs.h **** // 2192. Validity and return type of std::abs(0u) is unclear
  66:/Library/DaisyToolchain/0.2.0/arm/arm-none-eabi/include/c++/10.3.1/bits/std_abs.h **** // 2294. <cstdlib> should declare abs(double)
  67:/Library/DaisyToolchain/0.2.0/arm/arm-none-eabi/include/c++/10.3.1/bits/std_abs.h **** // 2735. std::abs(short), std::abs(signed char) and others should return int
  68:/Library/DaisyToolchain/0.2.0/arm/arm-none-eabi/include/c++/10.3.1/bits/std_abs.h **** 
  69:/Library/DaisyToolchain/0.2.0/arm/arm-none-eabi/include/c++/10.3.1/bits/std_abs.h **** #ifndef __CORRECT_ISO_CPP_MATH_H_PROTO
  70:/Library/DaisyToolchain/0.2.0/arm/arm-none-eabi/include/c++/10.3.1/bits/std_abs.h ****   inline _GLIBCXX_CONSTEXPR double
  71:/Library/DaisyToolchain/0.2.0/arm/arm-none-eabi/include/c++/10.3.1/bits/std_abs.h ****   abs(double __x)
  72:/Library/DaisyToolchain/0.2.0/arm/arm-none-eabi/include/c++/10.3.1/bits/std_abs.h ****   { return __builtin_fabs(__x); }
  73:/Library/DaisyToolchain/0.2.0/arm/arm-none-eabi/include/c++/10.3.1/bits/std_abs.h **** 
  74:/Library/DaisyToolchain/0.2.0/arm/arm-none-eabi/include/c++/10.3.1/bits/std_abs.h ****   inline _GLIBCXX_CONSTEXPR float
  75:/Library/DaisyToolchain/0.2.0/arm/arm-none-eabi/include/c++/10.3.1/bits/std_abs.h ****   abs(float __x)
 5703              		.loc 17 75 3 view .LVU1590
 5704              	.LBB932:
  76:/Library/DaisyToolchain/0.2.0/arm/arm-none-eabi/include/c++/10.3.1/bits/std_abs.h ****   { return __builtin_fabsf(__x); }
 5705              		.loc 17 76 5 view .LVU1591
 5706              	.LBE932:
 5707              	.LBE931:
  53:GrannyChordApp.cpp ****       pod_.seed.PrintLine("Avg: " FLT_FMT3, FLT_VAR3(avgLoad * 100.0f));
 5708              		.loc 2 53 45 is_stmt 0 view .LVU1592
 5709 0044 29EE0A6A 		vmul.f32	s12, s18, s20
 5710              	.LVL423:
 5711              	.LBB934:
 5712              	.LBB935:
 5713              		.loc 4 128 23 view .LVU1593
ARM GAS  /var/folders/2p/02m_5p7958535cp2tpgps0400000gn/T//ccRuMDjw.s 			page 158


 5714 0048 5448     		ldr	r0, .L328+20
 5715              	.LBE935:
 5716              	.LBE934:
  53:GrannyChordApp.cpp ****       pod_.seed.PrintLine("Avg: " FLT_FMT3, FLT_VAR3(avgLoad * 100.0f));
 5717              		.loc 2 53 45 view .LVU1594
 5718 004a 9FED4F9B 		vldr.64	d9, .L328
 5719              	.LVL424:
  53:GrannyChordApp.cpp ****       pod_.seed.PrintLine("Avg: " FLT_FMT3, FLT_VAR3(avgLoad * 100.0f));
 5720              		.loc 2 53 26 view .LVU1595
 5721 004e B5EEC06A 		vcmpe.f32	s12, #0
 5722              	.LBB939:
 5723              	.LBB933:
 5724              		.loc 17 76 31 view .LVU1596
 5725 0052 B0EEC66A 		vabs.f32	s12, s12
 5726              	.LVL425:
 5727              		.loc 17 76 31 view .LVU1597
 5728              	.LBE933:
 5729              	.LBE939:
  53:GrannyChordApp.cpp ****       pod_.seed.PrintLine("Avg: " FLT_FMT3, FLT_VAR3(avgLoad * 100.0f));
 5730              		.loc 2 53 26 view .LVU1598
 5731 0056 F1EE10FA 		vmrs	APSR_nzcv, FPSCR
 5732 005a FDEEC67A 		vcvt.s32.f32	s15, s12
 5733              	.LVL426:
  53:GrannyChordApp.cpp ****       pod_.seed.PrintLine("Avg: " FLT_FMT3, FLT_VAR3(avgLoad * 100.0f));
 5734              		.loc 2 53 26 view .LVU1599
 5735              	.LBE916:
 5736              	.LBE915:
 5737              	.LBE914:
 5738              		.loc 17 76 5 is_stmt 1 view .LVU1600
 5739              		.loc 17 76 5 view .LVU1601
 5740              	.LBB981:
 5741              	.LBB970:
 5742              	.LBB967:
 5743              	.LBB940:
 5744              	.LBI934:
 126:../libDaisy/src/daisy_seed.h ****     {
 5745              		.loc 4 126 17 view .LVU1602
 5746              	.LBB936:
 5747              		.loc 4 128 23 is_stmt 0 view .LVU1603
 5748 005e 4CBF     		ite	mi
 5749 0060 2D21     		movmi	r1, #45
 5750 0062 2021     		movpl	r1, #32
 5751              	.LBE936:
 5752              	.LBE940:
  53:GrannyChordApp.cpp ****       pod_.seed.PrintLine("Avg: " FLT_FMT3, FLT_VAR3(avgLoad * 100.0f));
 5753              		.loc 2 53 45 view .LVU1604
 5754 0064 B8EEE77A 		vcvt.f32.s32	s14, s15
 5755              	.LVL427:
 5756              	.LBB941:
 5757              	.LBB937:
 5758              		.loc 4 128 23 view .LVU1605
 5759 0068 17EE902A 		vmov	r2, s15	@ int
 5760              	.LBE937:
 5761              	.LBE941:
  53:GrannyChordApp.cpp ****       pod_.seed.PrintLine("Avg: " FLT_FMT3, FLT_VAR3(avgLoad * 100.0f));
 5762              		.loc 2 53 45 view .LVU1606
 5763 006c 36EE476A 		vsub.f32	s12, s12, s14
ARM GAS  /var/folders/2p/02m_5p7958535cp2tpgps0400000gn/T//ccRuMDjw.s 			page 159


 5764              	.LVL428:
  53:GrannyChordApp.cpp ****       pod_.seed.PrintLine("Avg: " FLT_FMT3, FLT_VAR3(avgLoad * 100.0f));
 5765              		.loc 2 53 45 view .LVU1607
 5766 0070 B7EEC66A 		vcvt.f64.f32	d6, s12
 5767 0074 26EE096B 		vmul.f64	d6, d6, d9
 5768              	.LBB942:
 5769              	.LBB938:
 5770              		.loc 4 128 23 view .LVU1608
 5771 0078 BDEEC67B 		vcvt.s32.f64	s14, d6
 5772 007c 17EE103A 		vmov	r3, s14	@ int
 5773 0080 FFF7FEFF 		bl	_ZN5daisy6LoggerILNS_17LoggerDestinationE1EE9PrintLineEPKcz
 5774              	.LVL429:
 5775              		.loc 4 128 23 view .LVU1609
 5776              	.LBE938:
 5777              	.LBE942:
  54:GrannyChordApp.cpp ****       pod_.seed.PrintLine("Min: " FLT_FMT3, FLT_VAR3(minLoad * 100.0f));
 5778              		.loc 2 54 7 is_stmt 1 view .LVU1610
 5779              	.LBB943:
 5780              	.LBI943:
  75:/Library/DaisyToolchain/0.2.0/arm/arm-none-eabi/include/c++/10.3.1/bits/std_abs.h ****   { return __builtin_fabsf(__x); }
 5781              		.loc 17 75 3 view .LVU1611
 5782              	.LBB944:
 5783              		.loc 17 76 5 view .LVU1612
 5784              	.LBE944:
 5785              	.LBE943:
  54:GrannyChordApp.cpp ****       pod_.seed.PrintLine("Min: " FLT_FMT3, FLT_VAR3(minLoad * 100.0f));
 5786              		.loc 2 54 45 is_stmt 0 view .LVU1613
 5787 0084 28EE8A6A 		vmul.f32	s12, s17, s20
 5788              	.LVL430:
 5789              	.LBB946:
 5790              	.LBB947:
 5791              		.loc 4 128 23 view .LVU1614
 5792 0088 4548     		ldr	r0, .L328+24
 5793              	.LBE947:
 5794              	.LBE946:
  54:GrannyChordApp.cpp ****       pod_.seed.PrintLine("Min: " FLT_FMT3, FLT_VAR3(minLoad * 100.0f));
 5795              		.loc 2 54 26 view .LVU1615
 5796 008a B5EEC06A 		vcmpe.f32	s12, #0
 5797              	.LBB951:
 5798              	.LBB945:
 5799              		.loc 17 76 31 view .LVU1616
 5800 008e B0EEC66A 		vabs.f32	s12, s12
 5801              	.LVL431:
 5802              		.loc 17 76 31 view .LVU1617
 5803              	.LBE945:
 5804              	.LBE951:
  54:GrannyChordApp.cpp ****       pod_.seed.PrintLine("Min: " FLT_FMT3, FLT_VAR3(minLoad * 100.0f));
 5805              		.loc 2 54 26 view .LVU1618
 5806 0092 F1EE10FA 		vmrs	APSR_nzcv, FPSCR
 5807 0096 FDEEC67A 		vcvt.s32.f32	s15, s12
 5808              	.LVL432:
  54:GrannyChordApp.cpp ****       pod_.seed.PrintLine("Min: " FLT_FMT3, FLT_VAR3(minLoad * 100.0f));
 5809              		.loc 2 54 26 view .LVU1619
 5810              	.LBE967:
 5811              	.LBE970:
 5812              	.LBE981:
 5813              		.loc 17 76 5 is_stmt 1 view .LVU1620
ARM GAS  /var/folders/2p/02m_5p7958535cp2tpgps0400000gn/T//ccRuMDjw.s 			page 160


 5814              		.loc 17 76 5 view .LVU1621
 5815              	.LBB982:
 5816              	.LBB971:
 5817              	.LBB968:
 5818              	.LBB952:
 5819              	.LBI946:
 126:../libDaisy/src/daisy_seed.h ****     {
 5820              		.loc 4 126 17 view .LVU1622
 5821              	.LBB948:
 5822              		.loc 4 128 23 is_stmt 0 view .LVU1623
 5823 009a 4CBF     		ite	mi
 5824 009c 2D21     		movmi	r1, #45
 5825 009e 2021     		movpl	r1, #32
 5826              	.LBE948:
 5827              	.LBE952:
  54:GrannyChordApp.cpp ****       pod_.seed.PrintLine("Min: " FLT_FMT3, FLT_VAR3(minLoad * 100.0f));
 5828              		.loc 2 54 45 view .LVU1624
 5829 00a0 B8EEE77A 		vcvt.f32.s32	s14, s15
 5830              	.LVL433:
 5831              	.LBB953:
 5832              	.LBB949:
 5833              		.loc 4 128 23 view .LVU1625
 5834 00a4 17EE902A 		vmov	r2, s15	@ int
 5835              	.LBE949:
 5836              	.LBE953:
  54:GrannyChordApp.cpp ****       pod_.seed.PrintLine("Min: " FLT_FMT3, FLT_VAR3(minLoad * 100.0f));
 5837              		.loc 2 54 45 view .LVU1626
 5838 00a8 36EE476A 		vsub.f32	s12, s12, s14
 5839              	.LVL434:
  54:GrannyChordApp.cpp ****       pod_.seed.PrintLine("Min: " FLT_FMT3, FLT_VAR3(minLoad * 100.0f));
 5840              		.loc 2 54 45 view .LVU1627
 5841 00ac B7EEC66A 		vcvt.f64.f32	d6, s12
 5842 00b0 26EE096B 		vmul.f64	d6, d6, d9
 5843              	.LBB954:
 5844              	.LBB950:
 5845              		.loc 4 128 23 view .LVU1628
 5846 00b4 BDEEC67B 		vcvt.s32.f64	s14, d6
 5847              	.LVL435:
 5848              		.loc 4 128 23 view .LVU1629
 5849 00b8 17EE103A 		vmov	r3, s14	@ int
 5850 00bc FFF7FEFF 		bl	_ZN5daisy6LoggerILNS_17LoggerDestinationE1EE9PrintLineEPKcz
 5851              	.LVL436:
 5852              		.loc 4 128 23 view .LVU1630
 5853              	.LBE950:
 5854              	.LBE954:
  55:GrannyChordApp.cpp ****       loop_count=0;
 5855              		.loc 2 55 7 is_stmt 1 view .LVU1631
 5856              	.LBB955:
 5857              	.LBI955:
  75:/Library/DaisyToolchain/0.2.0/arm/arm-none-eabi/include/c++/10.3.1/bits/std_abs.h ****   { return __builtin_fabsf(__x); }
 5858              		.loc 17 75 3 view .LVU1632
 5859              	.LBB956:
 5860              		.loc 17 76 5 view .LVU1633
 5861              	.LBE956:
 5862              	.LBE955:
  55:GrannyChordApp.cpp ****       loop_count=0;
 5863              		.loc 2 55 45 is_stmt 0 view .LVU1634
ARM GAS  /var/folders/2p/02m_5p7958535cp2tpgps0400000gn/T//ccRuMDjw.s 			page 161


 5864 00c0 28EE0A7A 		vmul.f32	s14, s16, s20
 5865              	.LVL437:
 5866              	.LBB958:
 5867              	.LBB959:
 5868              		.loc 4 128 23 view .LVU1635
 5869 00c4 3748     		ldr	r0, .L328+28
 5870              	.LBE959:
 5871              	.LBE958:
  55:GrannyChordApp.cpp ****       loop_count=0;
 5872              		.loc 2 55 26 view .LVU1636
 5873 00c6 B5EEC07A 		vcmpe.f32	s14, #0
 5874              	.LBB963:
 5875              	.LBB957:
 5876              		.loc 17 76 31 view .LVU1637
 5877 00ca B0EEC77A 		vabs.f32	s14, s14
 5878              	.LVL438:
 5879              		.loc 17 76 31 view .LVU1638
 5880              	.LBE957:
 5881              	.LBE963:
  55:GrannyChordApp.cpp ****       loop_count=0;
 5882              		.loc 2 55 26 view .LVU1639
 5883 00ce F1EE10FA 		vmrs	APSR_nzcv, FPSCR
 5884 00d2 FDEEC76A 		vcvt.s32.f32	s13, s14
 5885              	.LVL439:
  55:GrannyChordApp.cpp ****       loop_count=0;
 5886              		.loc 2 55 26 view .LVU1640
 5887              	.LBE968:
 5888              	.LBE971:
 5889              	.LBE982:
 5890              		.loc 17 76 5 is_stmt 1 view .LVU1641
 5891              		.loc 17 76 5 view .LVU1642
 5892              	.LBB983:
 5893              	.LBB972:
 5894              	.LBB969:
 5895              	.LBB964:
 5896              	.LBI958:
 126:../libDaisy/src/daisy_seed.h ****     {
 5897              		.loc 4 126 17 view .LVU1643
 5898              	.LBB960:
 5899              		.loc 4 128 23 is_stmt 0 view .LVU1644
 5900 00d6 4CBF     		ite	mi
 5901 00d8 2D21     		movmi	r1, #45
 5902 00da 2021     		movpl	r1, #32
 5903              	.LBE960:
 5904              	.LBE964:
  55:GrannyChordApp.cpp ****       loop_count=0;
 5905              		.loc 2 55 45 view .LVU1645
 5906 00dc F8EEE67A 		vcvt.f32.s32	s15, s13
 5907              	.LVL440:
 5908              	.LBB965:
 5909              	.LBB961:
 5910              		.loc 4 128 23 view .LVU1646
 5911 00e0 16EE902A 		vmov	r2, s13	@ int
 5912              	.LBE961:
 5913              	.LBE965:
  55:GrannyChordApp.cpp ****       loop_count=0;
 5914              		.loc 2 55 45 view .LVU1647
ARM GAS  /var/folders/2p/02m_5p7958535cp2tpgps0400000gn/T//ccRuMDjw.s 			page 162


 5915 00e4 37EE677A 		vsub.f32	s14, s14, s15
 5916              	.LVL441:
  55:GrannyChordApp.cpp ****       loop_count=0;
 5917              		.loc 2 55 45 view .LVU1648
 5918 00e8 B7EEC77A 		vcvt.f64.f32	d7, s14
 5919 00ec 27EE097B 		vmul.f64	d7, d7, d9
 5920              	.LBB966:
 5921              	.LBB962:
 5922              		.loc 4 128 23 view .LVU1649
 5923 00f0 FDEEC77B 		vcvt.s32.f64	s15, d7
 5924              	.LVL442:
 5925              		.loc 4 128 23 view .LVU1650
 5926 00f4 17EE903A 		vmov	r3, s15	@ int
 5927 00f8 FFF7FEFF 		bl	_ZN5daisy6LoggerILNS_17LoggerDestinationE1EE9PrintLineEPKcz
 5928              	.LVL443:
 5929              		.loc 4 128 23 view .LVU1651
 5930              	.LBE962:
 5931              	.LBE966:
  56:GrannyChordApp.cpp ****       System::Delay(500);
 5932              		.loc 2 56 7 is_stmt 1 view .LVU1652
  57:GrannyChordApp.cpp ****     }
 5933              		.loc 2 57 20 is_stmt 0 view .LVU1653
 5934 00fc 4FF4FA70 		mov	r0, #500
  56:GrannyChordApp.cpp ****       System::Delay(500);
 5935              		.loc 2 56 17 view .LVU1654
 5936 0100 C5F83468 		str	r6, [r5, #2100]
  57:GrannyChordApp.cpp ****     }
 5937              		.loc 2 57 7 is_stmt 1 view .LVU1655
  57:GrannyChordApp.cpp ****     }
 5938              		.loc 2 57 20 is_stmt 0 view .LVU1656
 5939 0104 FFF7FEFF 		bl	_ZN5daisy6System5DelayEm
 5940              	.LVL444:
 5941              	.L306:
  57:GrannyChordApp.cpp ****     }
 5942              		.loc 2 57 20 view .LVU1657
 5943              	.LBE969:
 5944              	.LBE972:
  59:GrannyChordApp.cpp ****       sd_writer_.Write();
 5945              		.loc 2 59 5 is_stmt 1 view .LVU1658
 5946 0108 95F82C38 		ldrb	r3, [r5, #2092]	@ zero_extendqisi2
 5947 010c 93B3     		cbz	r3, .L311
 5948              	.LBB973:
 5949              	.LBB974:
 128:../libDaisy/src/util/WavWriter.h ****         {
 5950              		.loc 6 128 12 is_stmt 0 view .LVU1659
 5951 010e D5F8F025 		ldr	r2, [r5, #1520]
 5952              	.LBE974:
 5953              	.LBE973:
  60:GrannyChordApp.cpp ****       if (sd_writer_.GetLengthSeconds()>120){
 5954              		.loc 2 60 23 view .LVU1660
 5955 0112 04F5B666 		add	r6, r4, #1456
  60:GrannyChordApp.cpp ****       if (sd_writer_.GetLengthSeconds()>120){
 5956              		.loc 2 60 7 is_stmt 1 view .LVU1661
 5957              	.LVL445:
 5958              	.LBB978:
 5959              	.LBI973:
 126:../libDaisy/src/util/WavWriter.h ****     {
ARM GAS  /var/folders/2p/02m_5p7958535cp2tpgps0400000gn/T//ccRuMDjw.s 			page 163


 5960              		.loc 6 126 10 view .LVU1662
 5961              	.LBB977:
 128:../libDaisy/src/util/WavWriter.h ****         {
 5962              		.loc 6 128 41 is_stmt 0 view .LVU1663
 5963 0116 B2B1     		cbz	r2, .L312
 5964              	.LVL446:
 5965              	.LBB975:
 5966              	.LBI975:
 169:../libDaisy/src/util/WavWriter.h **** 
 5967              		.loc 6 169 17 is_stmt 1 view .LVU1664
 169:../libDaisy/src/util/WavWriter.h **** 
 5968              		.loc 6 169 17 is_stmt 0 view .LVU1665
 5969              	.LBE975:
 128:../libDaisy/src/util/WavWriter.h ****         {
 5970              		.loc 6 128 41 view .LVU1666
 5971 0118 95F8F435 		ldrb	r3, [r5, #1524]	@ zero_extendqisi2
 5972 011c 9BB1     		cbz	r3, .L312
 5973              	.LBB976:
 131:../libDaisy/src/util/WavWriter.h ****             //offset          = bstate_ == BufferState::FLUSH0 ? 0 : transfer_size;
 5974              		.loc 6 131 26 view .LVU1667
 5975 011e 0023     		movs	r3, #0
 133:../libDaisy/src/util/WavWriter.h ****             bstate_ = BufferState::IDLE;
 5976              		.loc 6 133 54 view .LVU1668
 5977 0120 012A     		cmp	r2, #1
 135:../libDaisy/src/util/WavWriter.h ****         }
 5978              		.loc 6 135 20 view .LVU1669
 5979 0122 06F50040 		add	r0, r6, #32768
 5980 0126 4FF48042 		mov	r2, #16384
 133:../libDaisy/src/util/WavWriter.h ****             bstate_ = BufferState::IDLE;
 5981              		.loc 6 133 54 view .LVU1670
 5982 012a 0CBF     		ite	eq
 5983 012c 1946     		moveq	r1, r3
 5984 012e 4FF48051 		movne	r1, #4096
 5985              	.LVL447:
 131:../libDaisy/src/util/WavWriter.h ****             //offset          = bstate_ == BufferState::FLUSH0 ? 0 : transfer_size;
 5986              		.loc 6 131 26 view .LVU1671
 5987 0132 0193     		str	r3, [sp, #4]
 135:../libDaisy/src/util/WavWriter.h ****         }
 5988              		.loc 6 135 20 view .LVU1672
 5989 0134 4830     		adds	r0, r0, #72
 135:../libDaisy/src/util/WavWriter.h ****         }
 5990              		.loc 6 135 41 view .LVU1673
 5991 0136 1031     		adds	r1, r1, #16
 5992              	.LVL448:
 134:../libDaisy/src/util/WavWriter.h ****             f_write(&fp_, &transfer_buff[offset], transfer_size, &bw);
 5993              		.loc 6 134 21 view .LVU1674
 5994 0138 C5F8F035 		str	r3, [r5, #1520]
 135:../libDaisy/src/util/WavWriter.h ****         }
 5995              		.loc 6 135 20 view .LVU1675
 5996 013c 01AB     		add	r3, sp, #4
 5997 013e 06EB8101 		add	r1, r6, r1, lsl #2
 5998              	.LVL449:
 135:../libDaisy/src/util/WavWriter.h ****         }
 5999              		.loc 6 135 20 view .LVU1676
 6000 0142 FFF7FEFF 		bl	f_write
 6001              	.LVL450:
 6002              	.L312:
ARM GAS  /var/folders/2p/02m_5p7958535cp2tpgps0400000gn/T//ccRuMDjw.s 			page 164


 135:../libDaisy/src/util/WavWriter.h ****         }
 6003              		.loc 6 135 20 view .LVU1677
 6004              	.LBE976:
 6005              	.LBE977:
 6006              	.LBE978:
  61:GrannyChordApp.cpp ****         sd_writer_.SaveFile();
 6007              		.loc 2 61 7 is_stmt 1 view .LVU1678
 6008              	.LBB979:
 6009              	.LBI979:
 175:../libDaisy/src/util/WavWriter.h ****     {
 6010              		.loc 6 175 18 view .LVU1679
 6011              	.LBB980:
 177:../libDaisy/src/util/WavWriter.h ****     }
 6012              		.loc 6 177 16 is_stmt 0 view .LVU1680
 6013 0146 D4F8DC35 		ldr	r3, [r4, #1500]
 177:../libDaisy/src/util/WavWriter.h ****     }
 6014              		.loc 6 177 48 view .LVU1681
 6015 014a D6ED0D6A 		vldr.32	s13, [r6, #52]
 177:../libDaisy/src/util/WavWriter.h ****     }
 6016              		.loc 6 177 16 view .LVU1682
 6017 014e 07EE903A 		vmov	s15, r3	@ int
 6018 0152 F8EE677A 		vcvt.f32.u32	s15, s15
 177:../libDaisy/src/util/WavWriter.h ****     }
 6019              		.loc 6 177 48 view .LVU1683
 6020 0156 87EEA67A 		vdiv.f32	s14, s15, s13
 6021              	.LBE980:
 6022              	.LBE979:
  61:GrannyChordApp.cpp ****         sd_writer_.SaveFile();
 6023              		.loc 2 61 7 view .LVU1684
 6024 015a DFED137A 		vldr.32	s15, .L328+32
 6025 015e B4EEE77A 		vcmpe.f32	s14, s15
 6026 0162 F1EE10FA 		vmrs	APSR_nzcv, FPSCR
 6027 0166 05DD     		ble	.L311
  62:GrannyChordApp.cpp ****         recording_out_ = 0;
 6028              		.loc 2 62 9 is_stmt 1 view .LVU1685
  62:GrannyChordApp.cpp ****         recording_out_ = 0;
 6029              		.loc 2 62 28 is_stmt 0 view .LVU1686
 6030 0168 3046     		mov	r0, r6
 6031 016a FFF7FEFF 		bl	_ZN5daisy9WavWriterILj16384EE8SaveFileEv
 6032              	.LVL451:
  63:GrannyChordApp.cpp ****       }
 6033              		.loc 2 63 9 is_stmt 1 view .LVU1687
  63:GrannyChordApp.cpp ****       }
 6034              		.loc 2 63 24 is_stmt 0 view .LVU1688
 6035 016e 0023     		movs	r3, #0
 6036 0170 85F82C38 		strb	r3, [r5, #2092]
 6037              	.L311:
  66:GrannyChordApp.cpp ****     UpdateSynthParams();
 6038              		.loc 2 66 5 is_stmt 1 view .LVU1689
  66:GrannyChordApp.cpp ****     UpdateSynthParams();
 6039              		.loc 2 66 13 is_stmt 0 view .LVU1690
 6040 0174 2046     		mov	r0, r4
 6041 0176 FFF7FEFF 		bl	_ZN14GrannyChordApp8UpdateUIEv
 6042              	.LVL452:
  67:GrannyChordApp.cpp ****     System::Delay(5);
 6043              		.loc 2 67 5 is_stmt 1 view .LVU1691
  67:GrannyChordApp.cpp ****     System::Delay(5);
ARM GAS  /var/folders/2p/02m_5p7958535cp2tpgps0400000gn/T//ccRuMDjw.s 			page 165


 6044              		.loc 2 67 22 is_stmt 0 view .LVU1692
 6045 017a 2046     		mov	r0, r4
 6046 017c FFF7FEFF 		bl	_ZN14GrannyChordApp17UpdateSynthParamsEv
 6047              	.LVL453:
  68:GrannyChordApp.cpp ****   }
 6048              		.loc 2 68 5 is_stmt 1 view .LVU1693
  68:GrannyChordApp.cpp ****   }
 6049              		.loc 2 68 18 is_stmt 0 view .LVU1694
 6050 0180 0520     		movs	r0, #5
 6051 0182 FFF7FEFF 		bl	_ZN5daisy6System5DelayEm
 6052              	.LVL454:
 6053              	.LBE983:
  42:GrannyChordApp.cpp ****     loop_count++;
 6054              		.loc 2 42 3 is_stmt 1 view .LVU1695
  69:GrannyChordApp.cpp **** }
 6055              		.loc 2 69 3 is_stmt 0 view .LVU1696
 6056 0186 43E7     		b	.L316
 6057              	.L329:
 6058              		.align	3
 6059              	.L328:
 6060 0188 00000000 		.word	0
 6061 018c 00408F40 		.word	1083129856
 6062 0190 00000000 		.word	.LC29
 6063 0194 0000C842 		.word	1120403456
 6064 0198 0F000000 		.word	.LC30
 6065 019c 22000000 		.word	.LC31
 6066 01a0 31000000 		.word	.LC32
 6067 01a4 40000000 		.word	.LC33
 6068 01a8 0000F042 		.word	1123024896
 6069              		.cfi_endproc
 6070              	.LFE4904:
 6072              		.section	.text._ZN14GrannyChordApp15FinishRecordingEv,"ax",%progbits
 6073              		.align	1
 6074              		.global	_ZN14GrannyChordApp15FinishRecordingEv
 6075              		.syntax unified
 6076              		.thumb
 6077              		.thumb_func
 6079              	_ZN14GrannyChordApp15FinishRecordingEv:
 6080              	.LVL455:
 6081              	.LFB4933:
 488:GrannyChordApp.cpp ****   sd_writer_.SaveFile();
 6082              		.loc 2 488 39 is_stmt 1 view -0
 6083              		.cfi_startproc
 6084              		@ args = 0, pretend = 0, frame = 0
 6085              		@ frame_needed = 0, uses_anonymous_args = 0
 489:GrannyChordApp.cpp **** }
 6086              		.loc 2 489 3 view .LVU1698
 489:GrannyChordApp.cpp **** }
 6087              		.loc 2 489 22 is_stmt 0 view .LVU1699
 6088 0000 00F5B660 		add	r0, r0, #1456
 6089              	.LVL456:
 488:GrannyChordApp.cpp ****   sd_writer_.SaveFile();
 6090              		.loc 2 488 39 view .LVU1700
 6091 0004 08B5     		push	{r3, lr}
 6092              		.cfi_def_cfa_offset 8
 6093              		.cfi_offset 3, -8
 6094              		.cfi_offset 14, -4
ARM GAS  /var/folders/2p/02m_5p7958535cp2tpgps0400000gn/T//ccRuMDjw.s 			page 166


 489:GrannyChordApp.cpp **** }
 6095              		.loc 2 489 22 view .LVU1701
 6096 0006 FFF7FEFF 		bl	_ZN5daisy9WavWriterILj16384EE8SaveFileEv
 6097              	.LVL457:
 490:GrannyChordApp.cpp **** 
 6098              		.loc 2 490 1 view .LVU1702
 6099 000a 08BD     		pop	{r3, pc}
 6100              		.cfi_endproc
 6101              	.LFE4933:
 6103              		.global	_ZN14GrannyChordApp9instance_E
 6104              		.section	.bss._ZN14GrannyChordApp9instance_E,"aw",%nobits
 6105              		.align	2
 6106              		.set	.LANCHOR0,. + 0
 6109              	_ZN14GrannyChordApp9instance_E:
 6110 0000 00000000 		.space	4
 6111              		.text
 6112              	.Letext0:
 6113              		.file 18 "/Library/DaisyToolchain/0.2.0/arm/arm-none-eabi/include/machine/_default_types.h"
 6114              		.file 19 "/Library/DaisyToolchain/0.2.0/arm/arm-none-eabi/include/sys/_stdint.h"
 6115              		.file 20 "/Library/DaisyToolchain/0.2.0/arm/arm-none-eabi/include/stdint.h"
 6116              		.file 21 "/Library/DaisyToolchain/0.2.0/arm/lib/gcc/arm-none-eabi/10.3.1/include/stddef.h"
 6117              		.file 22 "/Library/DaisyToolchain/0.2.0/arm/arm-none-eabi/include/c++/10.3.1/cmath"
 6118              		.file 23 "/Library/DaisyToolchain/0.2.0/arm/arm-none-eabi/include/c++/10.3.1/cstdlib"
 6119              		.file 24 "/Library/DaisyToolchain/0.2.0/arm/arm-none-eabi/include/c++/10.3.1/cstdint"
 6120              		.file 25 "/Library/DaisyToolchain/0.2.0/arm/arm-none-eabi/include/c++/10.3.1/arm-none-eabi/thumb/v
 6121              		.file 26 "/Library/DaisyToolchain/0.2.0/arm/arm-none-eabi/include/c++/10.3.1/type_traits"
 6122              		.file 27 "/Library/DaisyToolchain/0.2.0/arm/arm-none-eabi/include/c++/10.3.1/debug/debug.h"
 6123              		.file 28 "/Library/DaisyToolchain/0.2.0/arm/arm-none-eabi/include/c++/10.3.1/bits/algorithmfwd.h"
 6124              		.file 29 "/Library/DaisyToolchain/0.2.0/arm/arm-none-eabi/include/c++/10.3.1/bits/stl_pair.h"
 6125              		.file 30 "/Library/DaisyToolchain/0.2.0/arm/arm-none-eabi/include/c++/10.3.1/bits/exception_ptr.h"
 6126              		.file 31 "/Library/DaisyToolchain/0.2.0/arm/arm-none-eabi/include/c++/10.3.1/initializer_list"
 6127              		.file 32 "/Library/DaisyToolchain/0.2.0/arm/arm-none-eabi/include/c++/10.3.1/cstdarg"
 6128              		.file 33 "/Library/DaisyToolchain/0.2.0/arm/arm-none-eabi/include/c++/10.3.1/cstdio"
 6129              		.file 34 "/Library/DaisyToolchain/0.2.0/arm/arm-none-eabi/include/c++/10.3.1/cstring"
 6130              		.file 35 "/Library/DaisyToolchain/0.2.0/arm/arm-none-eabi/include/c++/10.3.1/cwchar"
 6131              		.file 36 "/Library/DaisyToolchain/0.2.0/arm/arm-none-eabi/include/c++/10.3.1/clocale"
 6132              		.file 37 "/Library/DaisyToolchain/0.2.0/arm/arm-none-eabi/include/c++/10.3.1/bits/basic_string.h"
 6133              		.file 38 "/Library/DaisyToolchain/0.2.0/arm/arm-none-eabi/include/c++/10.3.1/bits/stl_iterator.h"
 6134              		.file 39 "/Library/DaisyToolchain/0.2.0/arm/arm-none-eabi/include/c++/10.3.1/bits/predefined_ops.h
 6135              		.file 40 "/Library/DaisyToolchain/0.2.0/arm/arm-none-eabi/include/sys/_types.h"
 6136              		.file 41 "/Library/DaisyToolchain/0.2.0/arm/arm-none-eabi/include/sys/reent.h"
 6137              		.file 42 "/Library/DaisyToolchain/0.2.0/arm/arm-none-eabi/include/sys/lock.h"
 6138              		.file 43 "/Library/DaisyToolchain/0.2.0/arm/arm-none-eabi/include/math.h"
 6139              		.file 44 "/Library/DaisyToolchain/0.2.0/arm/arm-none-eabi/include/stdlib.h"
 6140              		.file 45 "/Library/DaisyToolchain/0.2.0/arm/arm-none-eabi/include/c++/10.3.1/math.h"
 6141              		.file 46 "/Library/DaisyToolchain/0.2.0/arm/arm-none-eabi/include/c++/10.3.1/stdlib.h"
 6142              		.file 47 "../libDaisy/src/sys/system.h"
 6143              		.file 48 "../libDaisy/src/per/qspi.h"
 6144              		.file 49 "../libDaisy/src/per/dac.h"
 6145              		.file 50 "../libDaisy/src/per/sai.h"
 6146              		.file 51 "../libDaisy/src/hid/audio.h"
 6147              		.file 52 "../libDaisy/src/per/adc.h"
 6148              		.file 53 "../libDaisy/src/per/uart.h"
 6149              		.file 54 "../libDaisy/src/hid/MidiEvent.h"
 6150              		.file 55 "../libDaisy/src/hid/midi_parser.h"
 6151              		.file 56 "../libDaisy/src/hid/usb.h"
 6152              		.file 57 "../libDaisy/src/hid/midi.h"
ARM GAS  /var/folders/2p/02m_5p7958535cp2tpgps0400000gn/T//ccRuMDjw.s 			page 167


 6153              		.file 58 "../libDaisy/src/util/FIFO.h"
 6154              		.file 59 "../libDaisy/src/hid/ctrl.h"
 6155              		.file 60 "../libDaisy/src/hid/logger_impl.h"
 6156              		.file 61 "../libDaisy/src/per/sdmmc.h"
 6157              		.file 62 "../libDaisy/src/util/wav_format.h"
 6158              		.file 63 "../libDaisy/src/hid/led.h"
 6159              		.file 64 "../libDaisy/src/util/color.h"
 6160              		.file 65 "../libDaisy/src/hid/rgb_led.h"
 6161              		.file 66 "../libDaisy/src/dev/max11300.h"
 6162              		.file 67 "../libDaisy/src/sys/fatfs.h"
 6163              		.file 68 "../libDaisy/src/hid/logger.h"
 6164              		.file 69 "../libDaisy/src/daisy_pod.h"
 6165              		.file 70 "../libDaisy/src/per/gpio.h"
 6166              		.file 71 "../libDaisy/src/dev/sdram.h"
 6167              		.file 72 "/Library/DaisyToolchain/0.2.0/arm/lib/gcc/arm-none-eabi/10.3.1/include/stdarg.h"
 6168              		.file 73 "/Library/DaisyToolchain/0.2.0/arm/arm-none-eabi/include/stdio.h"
 6169              		.file 74 "../libDaisy/Middlewares/Third_Party/FatFs/src/integer.h"
 6170              		.file 75 "../libDaisy/Middlewares/Third_Party/FatFs/src/ff.h"
 6171              		.file 76 "/Library/DaisyToolchain/0.2.0/arm/arm-none-eabi/include/string.h"
 6172              		.file 77 "../DaisySP/Source/Control/adenv.h"
 6173              		.file 78 "../DaisySP/Source/../DaisySP-LGPL/Source/Dynamics/compressor.h"
 6174              		.file 79 "/Library/DaisyToolchain/0.2.0/arm/arm-none-eabi/include/wchar.h"
 6175              		.file 80 "/Library/DaisyToolchain/0.2.0/arm/arm-none-eabi/include/time.h"
 6176              		.file 81 "/Library/DaisyToolchain/0.2.0/arm/arm-none-eabi/include/locale.h"
 6177              		.file 82 "sample.h"
 6178              		.file 83 "../libDaisy/src/dev/sr_595.h"
 6179              		.file 84 "GrainPhasor.h"
 6180              		.file 85 "Grain.h"
 6181              		.file 86 "AppState.h"
 6182              		.file 87 "<built-in>"
ARM GAS  /var/folders/2p/02m_5p7958535cp2tpgps0400000gn/T//ccRuMDjw.s 			page 168


DEFINED SYMBOLS
                            *ABS*:0000000000000000 GrannyChordApp.cpp
/var/folders/2p/02m_5p7958535cp2tpgps0400000gn/T//ccRuMDjw.s:19     .text._ZNK5daisy6Switch10TimeHeldMsEv:0000000000000000 $t
/var/folders/2p/02m_5p7958535cp2tpgps0400000gn/T//ccRuMDjw.s:25     .text._ZNK5daisy6Switch10TimeHeldMsEv:0000000000000000 _ZNK5daisy6Switch10TimeHeldMsEv
/var/folders/2p/02m_5p7958535cp2tpgps0400000gn/T//ccRuMDjw.s:84     .text._ZNK5daisy6Switch10TimeHeldMsEv:0000000000000028 $d
/var/folders/2p/02m_5p7958535cp2tpgps0400000gn/T//ccRuMDjw.s:89     .text._ZN14GrannyChordApp20HandleEncoderPressedEv:0000000000000000 $t
/var/folders/2p/02m_5p7958535cp2tpgps0400000gn/T//ccRuMDjw.s:95     .text._ZN14GrannyChordApp20HandleEncoderPressedEv:0000000000000000 _ZN14GrannyChordApp20HandleEncoderPressedEv
/var/folders/2p/02m_5p7958535cp2tpgps0400000gn/T//ccRuMDjw.s:146    .text._ZN14GrannyChordApp22HandleEncoderLongPressEv:0000000000000000 $t
/var/folders/2p/02m_5p7958535cp2tpgps0400000gn/T//ccRuMDjw.s:152    .text._ZN14GrannyChordApp22HandleEncoderLongPressEv:0000000000000000 _ZN14GrannyChordApp22HandleEncoderLongPressEv
/var/folders/2p/02m_5p7958535cp2tpgps0400000gn/T//ccRuMDjw.s:259    .text._ZN14GrannyChordApp22HandleEncoderLongPressEv:000000000000004c $d
/var/folders/2p/02m_5p7958535cp2tpgps0400000gn/T//ccRuMDjw.s:267    .text._ZN14GrannyChordApp19HandleFileSelectionEl:0000000000000000 $t
/var/folders/2p/02m_5p7958535cp2tpgps0400000gn/T//ccRuMDjw.s:273    .text._ZN14GrannyChordApp19HandleFileSelectionEl:0000000000000000 _ZN14GrannyChordApp19HandleFileSelectionEl
/var/folders/2p/02m_5p7958535cp2tpgps0400000gn/T//ccRuMDjw.s:388    .text._ZN14GrannyChordApp19HandleFileSelectionEl:0000000000000040 $d
/var/folders/2p/02m_5p7958535cp2tpgps0400000gn/T//ccRuMDjw.s:398    .text._ZN14GrannyChordApp15UpdateSynthModeEv:0000000000000000 $t
/var/folders/2p/02m_5p7958535cp2tpgps0400000gn/T//ccRuMDjw.s:404    .text._ZN14GrannyChordApp15UpdateSynthModeEv:0000000000000000 _ZN14GrannyChordApp15UpdateSynthModeEv
/var/folders/2p/02m_5p7958535cp2tpgps0400000gn/T//ccRuMDjw.s:441    .text._ZN14GrannyChordApp15UpdateSynthModeEv:0000000000000016 $d
/var/folders/2p/02m_5p7958535cp2tpgps0400000gn/T//ccRuMDjw.s:483    .text._ZN14GrannyChordApp15UpdateSynthModeEv:0000000000000034 $d
/var/folders/2p/02m_5p7958535cp2tpgps0400000gn/T//ccRuMDjw.s:488    .text._ZN14GrannyChordApp13HandleButton1Ev:0000000000000000 $t
/var/folders/2p/02m_5p7958535cp2tpgps0400000gn/T//ccRuMDjw.s:494    .text._ZN14GrannyChordApp13HandleButton1Ev:0000000000000000 _ZN14GrannyChordApp13HandleButton1Ev
/var/folders/2p/02m_5p7958535cp2tpgps0400000gn/T//ccRuMDjw.s:517    .text._ZN14GrannyChordApp24ToggleRandomnessControlsEv:0000000000000000 $t
/var/folders/2p/02m_5p7958535cp2tpgps0400000gn/T//ccRuMDjw.s:523    .text._ZN14GrannyChordApp24ToggleRandomnessControlsEv:0000000000000000 _ZN14GrannyChordApp24ToggleRandomnessControlsEv
/var/folders/2p/02m_5p7958535cp2tpgps0400000gn/T//ccRuMDjw.s:548    .text._ZN14GrannyChordApp13HandleButton2Ev:0000000000000000 $t
/var/folders/2p/02m_5p7958535cp2tpgps0400000gn/T//ccRuMDjw.s:554    .text._ZN14GrannyChordApp13HandleButton2Ev:0000000000000000 _ZN14GrannyChordApp13HandleButton2Ev
/var/folders/2p/02m_5p7958535cp2tpgps0400000gn/T//ccRuMDjw.s:577    .text._ZN14GrannyChordApp8ToggleFXEb:0000000000000000 $t
/var/folders/2p/02m_5p7958535cp2tpgps0400000gn/T//ccRuMDjw.s:583    .text._ZN14GrannyChordApp8ToggleFXEb:0000000000000000 _ZN14GrannyChordApp8ToggleFXEb
/var/folders/2p/02m_5p7958535cp2tpgps0400000gn/T//ccRuMDjw.s:621    .text._ZN14GrannyChordApp22HandleButton1LongPressEv:0000000000000000 $t
/var/folders/2p/02m_5p7958535cp2tpgps0400000gn/T//ccRuMDjw.s:627    .text._ZN14GrannyChordApp22HandleButton1LongPressEv:0000000000000000 _ZN14GrannyChordApp22HandleButton1LongPressEv
/var/folders/2p/02m_5p7958535cp2tpgps0400000gn/T//ccRuMDjw.s:651    .text._ZN14GrannyChordApp22HandleButton2LongPressEv:0000000000000000 $t
/var/folders/2p/02m_5p7958535cp2tpgps0400000gn/T//ccRuMDjw.s:657    .text._ZN14GrannyChordApp22HandleButton2LongPressEv:0000000000000000 _ZN14GrannyChordApp22HandleButton2LongPressEv
/var/folders/2p/02m_5p7958535cp2tpgps0400000gn/T//ccRuMDjw.s:684    .text._ZN14GrannyChordApp11InitFileMgrEv:0000000000000000 $t
/var/folders/2p/02m_5p7958535cp2tpgps0400000gn/T//ccRuMDjw.s:690    .text._ZN14GrannyChordApp11InitFileMgrEv:0000000000000000 _ZN14GrannyChordApp11InitFileMgrEv
/var/folders/2p/02m_5p7958535cp2tpgps0400000gn/T//ccRuMDjw.s:767    .text._ZN14GrannyChordApp11InitFileMgrEv:0000000000000030 $d
/var/folders/2p/02m_5p7958535cp2tpgps0400000gn/T//ccRuMDjw.s:775    .text._ZN14GrannyChordApp9InitSynthEv:0000000000000000 $t
/var/folders/2p/02m_5p7958535cp2tpgps0400000gn/T//ccRuMDjw.s:781    .text._ZN14GrannyChordApp9InitSynthEv:0000000000000000 _ZN14GrannyChordApp9InitSynthEv
/var/folders/2p/02m_5p7958535cp2tpgps0400000gn/T//ccRuMDjw.s:872    .text._ZN14GrannyChordApp9InitSynthEv:0000000000000040 $d
/var/folders/2p/02m_5p7958535cp2tpgps0400000gn/T//ccRuMDjw.s:888    .text._ZN14GrannyChordApp12InitPlaybackEv:0000000000000000 $t
/var/folders/2p/02m_5p7958535cp2tpgps0400000gn/T//ccRuMDjw.s:894    .text._ZN14GrannyChordApp12InitPlaybackEv:0000000000000000 _ZN14GrannyChordApp12InitPlaybackEv
/var/folders/2p/02m_5p7958535cp2tpgps0400000gn/T//ccRuMDjw.s:1014   .text._ZN14GrannyChordApp12InitPlaybackEv:0000000000000054 $d
/var/folders/2p/02m_5p7958535cp2tpgps0400000gn/T//ccRuMDjw.s:2938   .text._ZN14GrannyChordApp13AudioCallbackEPKPKfPPfj:0000000000000000 _ZN14GrannyChordApp13AudioCallbackEPKPKfPPfj
/var/folders/2p/02m_5p7958535cp2tpgps0400000gn/T//ccRuMDjw.s:1025   .text._ZN14GrannyChordApp12InitRecordInEv:0000000000000000 $t
/var/folders/2p/02m_5p7958535cp2tpgps0400000gn/T//ccRuMDjw.s:1031   .text._ZN14GrannyChordApp12InitRecordInEv:0000000000000000 _ZN14GrannyChordApp12InitRecordInEv
/var/folders/2p/02m_5p7958535cp2tpgps0400000gn/T//ccRuMDjw.s:1080   .text._ZN14GrannyChordApp17HandleStateChangeEv:0000000000000000 $t
/var/folders/2p/02m_5p7958535cp2tpgps0400000gn/T//ccRuMDjw.s:1086   .text._ZN14GrannyChordApp17HandleStateChangeEv:0000000000000000 _ZN14GrannyChordApp17HandleStateChangeEv
/var/folders/2p/02m_5p7958535cp2tpgps0400000gn/T//ccRuMDjw.s:1107   .text._ZN14GrannyChordApp17HandleStateChangeEv:0000000000000010 $d
/var/folders/2p/02m_5p7958535cp2tpgps0400000gn/T//ccRuMDjw.s:1233   .text._ZN14GrannyChordApp17HandleStateChangeEv:000000000000006c $d
/var/folders/2p/02m_5p7958535cp2tpgps0400000gn/T//ccRuMDjw.s:1239   .text._ZN14GrannyChordApp13InitWavWriterEv:0000000000000000 $t
/var/folders/2p/02m_5p7958535cp2tpgps0400000gn/T//ccRuMDjw.s:1245   .text._ZN14GrannyChordApp13InitWavWriterEv:0000000000000000 _ZN14GrannyChordApp13InitWavWriterEv
/var/folders/2p/02m_5p7958535cp2tpgps0400000gn/T//ccRuMDjw.s:1445   .text._ZN14GrannyChordApp13InitWavWriterEv:00000000000000ac $d
/var/folders/2p/02m_5p7958535cp2tpgps0400000gn/T//ccRuMDjw.s:1452   .text._ZN14GrannyChordApp6InitFXEv:0000000000000000 $t
/var/folders/2p/02m_5p7958535cp2tpgps0400000gn/T//ccRuMDjw.s:1458   .text._ZN14GrannyChordApp6InitFXEv:0000000000000000 _ZN14GrannyChordApp6InitFXEv
/var/folders/2p/02m_5p7958535cp2tpgps0400000gn/T//ccRuMDjw.s:1608   .text._ZN14GrannyChordApp6InitFXEv:0000000000000054 $d
/var/folders/2p/02m_5p7958535cp2tpgps0400000gn/T//ccRuMDjw.s:1615   .text._ZN14GrannyChordApp17InitPrevParamValsEv:0000000000000000 $t
/var/folders/2p/02m_5p7958535cp2tpgps0400000gn/T//ccRuMDjw.s:1621   .text._ZN14GrannyChordApp17InitPrevParamValsEv:0000000000000000 _ZN14GrannyChordApp17InitPrevParamValsEv
/var/folders/2p/02m_5p7958535cp2tpgps0400000gn/T//ccRuMDjw.s:1658   .text._ZN14GrannyChordApp4InitEPsS0_S0_:0000000000000000 $t
/var/folders/2p/02m_5p7958535cp2tpgps0400000gn/T//ccRuMDjw.s:1664   .text._ZN14GrannyChordApp4InitEPsS0_S0_:0000000000000000 _ZN14GrannyChordApp4InitEPsS0_S0_
/var/folders/2p/02m_5p7958535cp2tpgps0400000gn/T//ccRuMDjw.s:1940   .text._ZN14GrannyChordApp4InitEPsS0_S0_:00000000000000f4 $d
/var/folders/2p/02m_5p7958535cp2tpgps0400000gn/T//ccRuMDjw.s:1948   .text._ZN14GrannyChordApp18ProcessWAVPlaybackEPPfj:0000000000000000 $t
ARM GAS  /var/folders/2p/02m_5p7958535cp2tpgps0400000gn/T//ccRuMDjw.s 			page 169


/var/folders/2p/02m_5p7958535cp2tpgps0400000gn/T//ccRuMDjw.s:1954   .text._ZN14GrannyChordApp18ProcessWAVPlaybackEPPfj:0000000000000000 _ZN14GrannyChordApp18ProcessWAVPlaybackEPPfj
/var/folders/2p/02m_5p7958535cp2tpgps0400000gn/T//ccRuMDjw.s:2219   .text._ZN14GrannyChordApp18ProcessWAVPlaybackEPPfj:00000000000000e4 $d
/var/folders/2p/02m_5p7958535cp2tpgps0400000gn/T//ccRuMDjw.s:2224   .text._ZN14GrannyChordApp15ProcessRecordInEPKPKfPPfj:0000000000000000 $t
/var/folders/2p/02m_5p7958535cp2tpgps0400000gn/T//ccRuMDjw.s:2230   .text._ZN14GrannyChordApp15ProcessRecordInEPKPKfPPfj:0000000000000000 _ZN14GrannyChordApp15ProcessRecordInEPKPKfPPfj
/var/folders/2p/02m_5p7958535cp2tpgps0400000gn/T//ccRuMDjw.s:2325   .text._ZN14GrannyChordApp15ProcessRecordInEPKPKfPPfj:0000000000000070 $d
/var/folders/2p/02m_5p7958535cp2tpgps0400000gn/T//ccRuMDjw.s:2330   .text._ZN14GrannyChordApp16ProcessSynthesisEPPfj:0000000000000000 $t
/var/folders/2p/02m_5p7958535cp2tpgps0400000gn/T//ccRuMDjw.s:2336   .text._ZN14GrannyChordApp16ProcessSynthesisEPPfj:0000000000000000 _ZN14GrannyChordApp16ProcessSynthesisEPPfj
/var/folders/2p/02m_5p7958535cp2tpgps0400000gn/T//ccRuMDjw.s:2722   .text._ZN14GrannyChordApp16ProcessSynthesisEPPfj:00000000000001b8 $d
/var/folders/2p/02m_5p7958535cp2tpgps0400000gn/T//ccRuMDjw.s:2733   .text._ZN14GrannyChordApp12ProcessAudioEPKPKfPPfj:0000000000000000 $t
/var/folders/2p/02m_5p7958535cp2tpgps0400000gn/T//ccRuMDjw.s:2739   .text._ZN14GrannyChordApp12ProcessAudioEPKPKfPPfj:0000000000000000 _ZN14GrannyChordApp12ProcessAudioEPKPKfPPfj
/var/folders/2p/02m_5p7958535cp2tpgps0400000gn/T//ccRuMDjw.s:2926   .text._ZN14GrannyChordApp12ProcessAudioEPKPKfPPfj:000000000000006c $d
/var/folders/2p/02m_5p7958535cp2tpgps0400000gn/T//ccRuMDjw.s:2932   .text._ZN14GrannyChordApp13AudioCallbackEPKPKfPPfj:0000000000000000 $t
/var/folders/2p/02m_5p7958535cp2tpgps0400000gn/T//ccRuMDjw.s:2966   .text._ZN14GrannyChordApp13AudioCallbackEPKPKfPPfj:0000000000000010 $d
/var/folders/2p/02m_5p7958535cp2tpgps0400000gn/T//ccRuMDjw.s:2974   .text._ZN14GrannyChordApp13RecordOutToSDEPPfj:0000000000000000 $t
/var/folders/2p/02m_5p7958535cp2tpgps0400000gn/T//ccRuMDjw.s:2980   .text._ZN14GrannyChordApp13RecordOutToSDEPPfj:0000000000000000 _ZN14GrannyChordApp13RecordOutToSDEPPfj
/var/folders/2p/02m_5p7958535cp2tpgps0400000gn/T//ccRuMDjw.s:3093   .text._ZN14GrannyChordApp13RecordOutToSDEPPfj:0000000000000060 $d
/var/folders/2p/02m_5p7958535cp2tpgps0400000gn/T//ccRuMDjw.s:3098   .text._ZN14GrannyChordApp15ToggleRecordOutEv:0000000000000000 $t
/var/folders/2p/02m_5p7958535cp2tpgps0400000gn/T//ccRuMDjw.s:3104   .text._ZN14GrannyChordApp15ToggleRecordOutEv:0000000000000000 _ZN14GrannyChordApp15ToggleRecordOutEv
/var/folders/2p/02m_5p7958535cp2tpgps0400000gn/T//ccRuMDjw.s:3127   .text._ZN14GrannyChordApp17UpdateKnob1ParamsEf9SynthMode:0000000000000000 $t
/var/folders/2p/02m_5p7958535cp2tpgps0400000gn/T//ccRuMDjw.s:3133   .text._ZN14GrannyChordApp17UpdateKnob1ParamsEf9SynthMode:0000000000000000 _ZN14GrannyChordApp17UpdateKnob1ParamsEf9SynthMode
/var/folders/2p/02m_5p7958535cp2tpgps0400000gn/T//ccRuMDjw.s:3146   .text._ZN14GrannyChordApp17UpdateKnob1ParamsEf9SynthMode:0000000000000008 $d
/var/folders/2p/02m_5p7958535cp2tpgps0400000gn/T//ccRuMDjw.s:3449   .text._ZN14GrannyChordApp17UpdateKnob1ParamsEf9SynthMode:0000000000000094 $d
/var/folders/2p/02m_5p7958535cp2tpgps0400000gn/T//ccRuMDjw.s:3456   .text._ZN14GrannyChordApp17UpdateKnob2ParamsEf9SynthMode:0000000000000000 $t
/var/folders/2p/02m_5p7958535cp2tpgps0400000gn/T//ccRuMDjw.s:3462   .text._ZN14GrannyChordApp17UpdateKnob2ParamsEf9SynthMode:0000000000000000 _ZN14GrannyChordApp17UpdateKnob2ParamsEf9SynthMode
/var/folders/2p/02m_5p7958535cp2tpgps0400000gn/T//ccRuMDjw.s:3482   .text._ZN14GrannyChordApp17UpdateKnob2ParamsEf9SynthMode:000000000000000c $d
/var/folders/2p/02m_5p7958535cp2tpgps0400000gn/T//ccRuMDjw.s:3846   .text._ZN14GrannyChordApp17UpdateKnob2ParamsEf9SynthMode:00000000000000d4 $d
/var/folders/2p/02m_5p7958535cp2tpgps0400000gn/T//ccRuMDjw.s:3857   .text._ZN14GrannyChordApp17UpdateSynthParamsEv:0000000000000000 $t
/var/folders/2p/02m_5p7958535cp2tpgps0400000gn/T//ccRuMDjw.s:3863   .text._ZN14GrannyChordApp17UpdateSynthParamsEv:0000000000000000 _ZN14GrannyChordApp17UpdateSynthParamsEv
/var/folders/2p/02m_5p7958535cp2tpgps0400000gn/T//ccRuMDjw.s:4066   .text._ZN14GrannyChordApp17UpdateSynthParamsEv:00000000000000d4 $d
/var/folders/2p/02m_5p7958535cp2tpgps0400000gn/T//ccRuMDjw.s:4088   .text._ZN14GrannyChordApp15DebugPrintStateE8AppState:0000000000000000 $t
/var/folders/2p/02m_5p7958535cp2tpgps0400000gn/T//ccRuMDjw.s:4094   .text._ZN14GrannyChordApp15DebugPrintStateE8AppState:0000000000000000 _ZN14GrannyChordApp15DebugPrintStateE8AppState
/var/folders/2p/02m_5p7958535cp2tpgps0400000gn/T//ccRuMDjw.s:4107   .text._ZN14GrannyChordApp15DebugPrintStateE8AppState:0000000000000008 $d
/var/folders/2p/02m_5p7958535cp2tpgps0400000gn/T//ccRuMDjw.s:4111   .text._ZN14GrannyChordApp15DebugPrintStateE8AppState:000000000000000c $t
/var/folders/2p/02m_5p7958535cp2tpgps0400000gn/T//ccRuMDjw.s:4203   .text._ZN14GrannyChordApp15DebugPrintStateE8AppState:0000000000000024 $d
/var/folders/2p/02m_5p7958535cp2tpgps0400000gn/T//ccRuMDjw.s:4217   .text._ZN14GrannyChordApp8UpdateUIEv:0000000000000000 $t
/var/folders/2p/02m_5p7958535cp2tpgps0400000gn/T//ccRuMDjw.s:4223   .text._ZN14GrannyChordApp8UpdateUIEv:0000000000000000 _ZN14GrannyChordApp8UpdateUIEv
/var/folders/2p/02m_5p7958535cp2tpgps0400000gn/T//ccRuMDjw.s:4513   .text._ZN14GrannyChordApp8UpdateUIEv:0000000000000118 $d
/var/folders/2p/02m_5p7958535cp2tpgps0400000gn/T//ccRuMDjw.s:4538   .text._ZN14GrannyChordApp14DebugPrintModeE9SynthMode:0000000000000000 $t
/var/folders/2p/02m_5p7958535cp2tpgps0400000gn/T//ccRuMDjw.s:4544   .text._ZN14GrannyChordApp14DebugPrintModeE9SynthMode:0000000000000000 _ZN14GrannyChordApp14DebugPrintModeE9SynthMode
/var/folders/2p/02m_5p7958535cp2tpgps0400000gn/T//ccRuMDjw.s:4562   .text._ZN14GrannyChordApp14DebugPrintModeE9SynthMode:000000000000000a $d
/var/folders/2p/02m_5p7958535cp2tpgps0400000gn/T//ccRuMDjw.s:4743   .text._ZN14GrannyChordApp14DebugPrintModeE9SynthMode:0000000000000044 $d
/var/folders/2p/02m_5p7958535cp2tpgps0400000gn/T//ccRuMDjw.s:4756   .text._ZN14GrannyChordApp10SetupTimerEv:0000000000000000 $t
/var/folders/2p/02m_5p7958535cp2tpgps0400000gn/T//ccRuMDjw.s:4762   .text._ZN14GrannyChordApp10SetupTimerEv:0000000000000000 _ZN14GrannyChordApp10SetupTimerEv
/var/folders/2p/02m_5p7958535cp2tpgps0400000gn/T//ccRuMDjw.s:4836   .text._ZN14GrannyChordApp10SetupTimerEv:0000000000000040 $d
/var/folders/2p/02m_5p7958535cp2tpgps0400000gn/T//ccRuMDjw.s:4939   .text._ZN14GrannyChordApp17StaticLedCallbackEPv:0000000000000000 _ZN14GrannyChordApp17StaticLedCallbackEPv
/var/folders/2p/02m_5p7958535cp2tpgps0400000gn/T//ccRuMDjw.s:4841   .text._ZN14GrannyChordApp11LedCallbackEPv:0000000000000000 $t
/var/folders/2p/02m_5p7958535cp2tpgps0400000gn/T//ccRuMDjw.s:4847   .text._ZN14GrannyChordApp11LedCallbackEPv:0000000000000000 _ZN14GrannyChordApp11LedCallbackEPv
/var/folders/2p/02m_5p7958535cp2tpgps0400000gn/T//ccRuMDjw.s:4927   .text._ZN14GrannyChordApp11LedCallbackEPv:0000000000000058 $d
/var/folders/2p/02m_5p7958535cp2tpgps0400000gn/T//ccRuMDjw.s:4933   .text._ZN14GrannyChordApp17StaticLedCallbackEPv:0000000000000000 $t
/var/folders/2p/02m_5p7958535cp2tpgps0400000gn/T//ccRuMDjw.s:4963   .text._ZN14GrannyChordApp17StaticLedCallbackEPv:000000000000000c $d
/var/folders/2p/02m_5p7958535cp2tpgps0400000gn/T//ccRuMDjw.s:4968   .text._ZN14GrannyChordApp14SetLedAppStateEv:0000000000000000 $t
/var/folders/2p/02m_5p7958535cp2tpgps0400000gn/T//ccRuMDjw.s:4974   .text._ZN14GrannyChordApp14SetLedAppStateEv:0000000000000000 _ZN14GrannyChordApp14SetLedAppStateEv
/var/folders/2p/02m_5p7958535cp2tpgps0400000gn/T//ccRuMDjw.s:4988   .text._ZN14GrannyChordApp14SetLedAppStateEv:000000000000000c $d
/var/folders/2p/02m_5p7958535cp2tpgps0400000gn/T//ccRuMDjw.s:5179   .text._ZN14GrannyChordApp14SetLedAppStateEv:00000000000000a4 $d
/var/folders/2p/02m_5p7958535cp2tpgps0400000gn/T//ccRuMDjw.s:5184   .text._ZN14GrannyChordApp15SetLedSynthModeEv:0000000000000000 $t
/var/folders/2p/02m_5p7958535cp2tpgps0400000gn/T//ccRuMDjw.s:5190   .text._ZN14GrannyChordApp15SetLedSynthModeEv:0000000000000000 _ZN14GrannyChordApp15SetLedSynthModeEv
/var/folders/2p/02m_5p7958535cp2tpgps0400000gn/T//ccRuMDjw.s:5208   .text._ZN14GrannyChordApp15SetLedSynthModeEv:0000000000000014 $d
ARM GAS  /var/folders/2p/02m_5p7958535cp2tpgps0400000gn/T//ccRuMDjw.s 			page 170


/var/folders/2p/02m_5p7958535cp2tpgps0400000gn/T//ccRuMDjw.s:5352   .text._ZN14GrannyChordApp15SetLedSynthModeEv:0000000000000084 $d
/var/folders/2p/02m_5p7958535cp2tpgps0400000gn/T//ccRuMDjw.s:5359   .text._ZN14GrannyChordApp7SetRgb1Efff:0000000000000000 $t
/var/folders/2p/02m_5p7958535cp2tpgps0400000gn/T//ccRuMDjw.s:5365   .text._ZN14GrannyChordApp7SetRgb1Efff:0000000000000000 _ZN14GrannyChordApp7SetRgb1Efff
/var/folders/2p/02m_5p7958535cp2tpgps0400000gn/T//ccRuMDjw.s:5397   .text._ZN14GrannyChordApp7SetRgb2Efff:0000000000000000 $t
/var/folders/2p/02m_5p7958535cp2tpgps0400000gn/T//ccRuMDjw.s:5403   .text._ZN14GrannyChordApp7SetRgb2Efff:0000000000000000 _ZN14GrannyChordApp7SetRgb2Efff
/var/folders/2p/02m_5p7958535cp2tpgps0400000gn/T//ccRuMDjw.s:5435   .text._ZN14GrannyChordApp12SetLedFXModeEv:0000000000000000 $t
/var/folders/2p/02m_5p7958535cp2tpgps0400000gn/T//ccRuMDjw.s:5441   .text._ZN14GrannyChordApp12SetLedFXModeEv:0000000000000000 _ZN14GrannyChordApp12SetLedFXModeEv
/var/folders/2p/02m_5p7958535cp2tpgps0400000gn/T//ccRuMDjw.s:5452   .text._ZN14GrannyChordApp16SetLedRandomModeEv:0000000000000000 $t
/var/folders/2p/02m_5p7958535cp2tpgps0400000gn/T//ccRuMDjw.s:5458   .text._ZN14GrannyChordApp16SetLedRandomModeEv:0000000000000000 _ZN14GrannyChordApp16SetLedRandomModeEv
/var/folders/2p/02m_5p7958535cp2tpgps0400000gn/T//ccRuMDjw.s:5472   .text._ZN5daisy9WavWriterILj16384EE8SaveFileEv:0000000000000000 $t
/var/folders/2p/02m_5p7958535cp2tpgps0400000gn/T//ccRuMDjw.s:5478   .text._ZN5daisy9WavWriterILj16384EE8SaveFileEv:0000000000000000 _ZN5daisy9WavWriterILj16384EE8SaveFileEv
/var/folders/2p/02m_5p7958535cp2tpgps0400000gn/T//ccRuMDjw.s:5566   .text._ZN14GrannyChordApp3RunEv:0000000000000000 $t
/var/folders/2p/02m_5p7958535cp2tpgps0400000gn/T//ccRuMDjw.s:5572   .text._ZN14GrannyChordApp3RunEv:0000000000000000 _ZN14GrannyChordApp3RunEv
/var/folders/2p/02m_5p7958535cp2tpgps0400000gn/T//ccRuMDjw.s:6060   .text._ZN14GrannyChordApp3RunEv:0000000000000188 $d
/var/folders/2p/02m_5p7958535cp2tpgps0400000gn/T//ccRuMDjw.s:6073   .text._ZN14GrannyChordApp15FinishRecordingEv:0000000000000000 $t
/var/folders/2p/02m_5p7958535cp2tpgps0400000gn/T//ccRuMDjw.s:6079   .text._ZN14GrannyChordApp15FinishRecordingEv:0000000000000000 _ZN14GrannyChordApp15FinishRecordingEv
/var/folders/2p/02m_5p7958535cp2tpgps0400000gn/T//ccRuMDjw.s:6109   .bss._ZN14GrannyChordApp9instance_E:0000000000000000 _ZN14GrannyChordApp9instance_E
/var/folders/2p/02m_5p7958535cp2tpgps0400000gn/T//ccRuMDjw.s:6105   .bss._ZN14GrannyChordApp9instance_E:0000000000000000 $d
/var/folders/2p/02m_5p7958535cp2tpgps0400000gn/T//ccRuMDjw.s:448    .text._ZN14GrannyChordApp15UpdateSynthModeEv:000000000000001d $d
/var/folders/2p/02m_5p7958535cp2tpgps0400000gn/T//ccRuMDjw.s:448    .text._ZN14GrannyChordApp15UpdateSynthModeEv:000000000000001e $t
/var/folders/2p/02m_5p7958535cp2tpgps0400000gn/T//ccRuMDjw.s:1112   .text._ZN14GrannyChordApp17HandleStateChangeEv:0000000000000015 $d
/var/folders/2p/02m_5p7958535cp2tpgps0400000gn/T//ccRuMDjw.s:1112   .text._ZN14GrannyChordApp17HandleStateChangeEv:0000000000000016 $t
/var/folders/2p/02m_5p7958535cp2tpgps0400000gn/T//ccRuMDjw.s:3155   .text._ZN14GrannyChordApp17UpdateKnob1ParamsEf9SynthMode:0000000000000011 $d
/var/folders/2p/02m_5p7958535cp2tpgps0400000gn/T//ccRuMDjw.s:3155   .text._ZN14GrannyChordApp17UpdateKnob1ParamsEf9SynthMode:0000000000000012 $t
/var/folders/2p/02m_5p7958535cp2tpgps0400000gn/T//ccRuMDjw.s:3491   .text._ZN14GrannyChordApp17UpdateKnob2ParamsEf9SynthMode:0000000000000015 $d
/var/folders/2p/02m_5p7958535cp2tpgps0400000gn/T//ccRuMDjw.s:3491   .text._ZN14GrannyChordApp17UpdateKnob2ParamsEf9SynthMode:0000000000000016 $t
/var/folders/2p/02m_5p7958535cp2tpgps0400000gn/T//ccRuMDjw.s:4571   .text._ZN14GrannyChordApp14DebugPrintModeE9SynthMode:0000000000000013 $d
/var/folders/2p/02m_5p7958535cp2tpgps0400000gn/T//ccRuMDjw.s:4571   .text._ZN14GrannyChordApp14DebugPrintModeE9SynthMode:0000000000000014 $t
/var/folders/2p/02m_5p7958535cp2tpgps0400000gn/T//ccRuMDjw.s:4993   .text._ZN14GrannyChordApp14SetLedAppStateEv:0000000000000011 $d
/var/folders/2p/02m_5p7958535cp2tpgps0400000gn/T//ccRuMDjw.s:4993   .text._ZN14GrannyChordApp14SetLedAppStateEv:0000000000000012 $t
/var/folders/2p/02m_5p7958535cp2tpgps0400000gn/T//ccRuMDjw.s:5215   .text._ZN14GrannyChordApp15SetLedSynthModeEv:000000000000001b $d
/var/folders/2p/02m_5p7958535cp2tpgps0400000gn/T//ccRuMDjw.s:5215   .text._ZN14GrannyChordApp15SetLedSynthModeEv:000000000000001c $t

UNDEFINED SYMBOLS
_ZN5daisy6System6GetNowEv
_ZN5daisy7Encoder8DebounceEv
_ZN5daisy6LoggerILNS_17LoggerDestinationE1EE9PrintLineEPKcz
strcpy
_ZN16AudioFileManager10SetBuffersEPsS0_S0_
_ZN16AudioFileManager4InitEv
_ZN16AudioFileManager12ScanWavFilesEv
_ZN13GranularSynth4InitEPsS0_j
_ZN16AudioFileManager8LoadFileEt
_ZN5daisy8DaisyPod10StartAudioEPFvPKPKfPPfjE
memset
_ZN5daisy8DaisyPod9StopAudioEv
_ZN5daisy6RgbLed6SetRedEf
_ZN5daisy8DaisyPod15AudioSampleRateEv
_ZN7daisysp10Compressor4InitEf
_ZN7daisysp8ReverbSc4InitEf
_ZN7daisysp10MoogLadder4InitEf
_ZN5daisy8DaisyPod17SetAudioBlockSizeEj
_ZN5daisy8DaisyPod18SetAudioSampleRateENS_9SaiHandle6Config10SampleRateE
_ZN5daisy8DaisyPod10UpdateLedsEv
_ZN5daisy8DaisyPod14AudioBlockSizeEv
_ZN5daisy6System11GetTickFreqEv
time
ARM GAS  /var/folders/2p/02m_5p7958535cp2tpgps0400000gn/T//ccRuMDjw.s 			page 171


_ZN5daisy8DaisyPod8StartAdcEv
rng_state
_ZN5daisy6System7GetTickEv
_ZN13GranularSynth13ProcessGrainsEv
_ZN7daisysp10Compressor7ProcessEf
_ZN7daisysp8ReverbSc10ProcessMixERKfS2_PfS3_
sprintf
f_open
f_write
_ZN13GranularSynth12SetGrainSizeEf
_ZN13GranularSynth13SetPitchRatioEf
_ZN13GranularSynth6SetPanEf
_ZN13GranularSynth13SetPhasorModeEN11GrainPhasor4ModeE
_ZN13GranularSynth11SetSpawnPosEf
_ZN13GranularSynth15SetActiveGrainsEf
_ZN13GranularSynth15SetEnvelopeTypeEN5Grain12EnvelopeTypeE
tanf
_ZN5daisy13AnalogControl7ProcessEv
_ZN5daisy8DaisyPod22ProcessDigitalControlsEv
_ZN5daisy11TimerHandle4InitERKNS0_6ConfigE
_ZN5daisy11TimerHandle12SetPrescalerEm
_ZN5daisy11TimerHandle11SetCallbackEPFvPvES1_
_ZN5daisy6RgbLed3SetEfff
f_lseek
f_close
_ZN5daisy6System5DelayEm
