ARM GAS  /var/folders/2p/02m_5p7958535cp2tpgps0400000gn/T//ccAOujCh.s 			page 1


   1              		.cpu cortex-m7
   2              		.arch armv7e-m
   3              		.fpu fpv5-d16
   4              		.eabi_attribute 28, 1
   5              		.eabi_attribute 20, 1
   6              		.eabi_attribute 21, 1
   7              		.eabi_attribute 23, 3
   8              		.eabi_attribute 24, 1
   9              		.eabi_attribute 25, 1
  10              		.eabi_attribute 26, 1
  11              		.eabi_attribute 30, 4
  12              		.eabi_attribute 34, 1
  13              		.eabi_attribute 18, 4
  14              		.file	"GrannyChordApp.cpp"
  15              		.text
  16              	.Ltext0:
  17              		.cfi_sections	.debug_frame
  18              		.section	.text._ZNK5daisy6Switch10TimeHeldMsEv,"axG",%progbits,_ZNK5daisy6Switch10TimeHeldMsEv,com
  19              		.align	1
  20              		.weak	_ZNK5daisy6Switch10TimeHeldMsEv
  21              		.syntax unified
  22              		.thumb
  23              		.thumb_func
  25              	_ZNK5daisy6Switch10TimeHeldMsEv:
  26              	.LVL0:
  27              	.LFB1646:
  28              		.file 1 "../libDaisy/src/hid/switch.h"
   1:../libDaisy/src/hid/switch.h **** #pragma once
   2:../libDaisy/src/hid/switch.h **** #ifndef DSY_SWITCH_H
   3:../libDaisy/src/hid/switch.h **** #define DSY_SWITCH_H
   4:../libDaisy/src/hid/switch.h **** #include "daisy_core.h"
   5:../libDaisy/src/hid/switch.h **** #include "per/gpio.h"
   6:../libDaisy/src/hid/switch.h **** #include "sys/system.h"
   7:../libDaisy/src/hid/switch.h **** 
   8:../libDaisy/src/hid/switch.h **** namespace daisy
   9:../libDaisy/src/hid/switch.h **** {
  10:../libDaisy/src/hid/switch.h **** /** 
  11:../libDaisy/src/hid/switch.h ****     Generic Class for handling momentary/latching switches \n 
  12:../libDaisy/src/hid/switch.h ****     Inspired/influenced by Mutable Instruments (pichenettes) Switch classes
  13:../libDaisy/src/hid/switch.h ****     @author Stephen Hensley
  14:../libDaisy/src/hid/switch.h ****     @date December 2019
  15:../libDaisy/src/hid/switch.h ****     @ingroup controls
  16:../libDaisy/src/hid/switch.h **** */
  17:../libDaisy/src/hid/switch.h **** class Switch
  18:../libDaisy/src/hid/switch.h **** {
  19:../libDaisy/src/hid/switch.h ****   public:
  20:../libDaisy/src/hid/switch.h ****     /** Specifies the expected behavior of the switch */
  21:../libDaisy/src/hid/switch.h ****     enum Type
  22:../libDaisy/src/hid/switch.h ****     {
  23:../libDaisy/src/hid/switch.h ****         TYPE_TOGGLE,    /**< & */
  24:../libDaisy/src/hid/switch.h ****         TYPE_MOMENTARY, /**< & */
  25:../libDaisy/src/hid/switch.h ****     };
  26:../libDaisy/src/hid/switch.h ****     /** Specifies whether the pressed is HIGH or LOW. */
  27:../libDaisy/src/hid/switch.h ****     enum Polarity
  28:../libDaisy/src/hid/switch.h ****     {
  29:../libDaisy/src/hid/switch.h ****         POLARITY_NORMAL,   /**< & */
  30:../libDaisy/src/hid/switch.h ****         POLARITY_INVERTED, /**< & */
ARM GAS  /var/folders/2p/02m_5p7958535cp2tpgps0400000gn/T//ccAOujCh.s 			page 2


  31:../libDaisy/src/hid/switch.h ****     };
  32:../libDaisy/src/hid/switch.h **** 
  33:../libDaisy/src/hid/switch.h ****     /** Specifies whether to use built-in Pull Up/Down resistors to hold button at a given state wh
  34:../libDaisy/src/hid/switch.h ****     enum Pull
  35:../libDaisy/src/hid/switch.h ****     {
  36:../libDaisy/src/hid/switch.h ****         PULL_UP,   /**< & */
  37:../libDaisy/src/hid/switch.h ****         PULL_DOWN, /**< & */
  38:../libDaisy/src/hid/switch.h ****         PULL_NONE, /**< & */
  39:../libDaisy/src/hid/switch.h ****     };
  40:../libDaisy/src/hid/switch.h **** 
  41:../libDaisy/src/hid/switch.h ****     Switch() {}
  42:../libDaisy/src/hid/switch.h ****     ~Switch() {}
  43:../libDaisy/src/hid/switch.h **** 
  44:../libDaisy/src/hid/switch.h ****     /** 
  45:../libDaisy/src/hid/switch.h ****     Initializes the switch object with a given port/pin combo.
  46:../libDaisy/src/hid/switch.h ****     \param pin port/pin object to tell the switch which hardware pin to use.
  47:../libDaisy/src/hid/switch.h ****     \param update_rate Does nothing. Backwards compatibility until next breaking update.
  48:../libDaisy/src/hid/switch.h ****     \param t switch type -- Default: TYPE_MOMENTARY
  49:../libDaisy/src/hid/switch.h ****     \param pol switch polarity -- Default: POLARITY_INVERTED
  50:../libDaisy/src/hid/switch.h ****     \param pu switch pull up/down -- Default: PULL_UP
  51:../libDaisy/src/hid/switch.h ****     */
  52:../libDaisy/src/hid/switch.h ****     void
  53:../libDaisy/src/hid/switch.h ****     Init(dsy_gpio_pin pin, float update_rate, Type t, Polarity pol, Pull pu);
  54:../libDaisy/src/hid/switch.h **** 
  55:../libDaisy/src/hid/switch.h ****     /**
  56:../libDaisy/src/hid/switch.h ****        Simplified Init.
  57:../libDaisy/src/hid/switch.h ****        \param pin port/pin object to tell the switch which hardware pin to use.
  58:../libDaisy/src/hid/switch.h ****        \param update_rate Left for backwards compatibility until next breaking change.
  59:../libDaisy/src/hid/switch.h ****     */
  60:../libDaisy/src/hid/switch.h ****     void Init(dsy_gpio_pin pin, float update_rate = 0.f);
  61:../libDaisy/src/hid/switch.h **** 
  62:../libDaisy/src/hid/switch.h ****     /** 
  63:../libDaisy/src/hid/switch.h ****     Called at update_rate to debounce and handle timing for the switch.
  64:../libDaisy/src/hid/switch.h ****     In order for events not to be missed, its important that the Edge/Pressed checks
  65:../libDaisy/src/hid/switch.h ****     be made at the same rate as the debounce function is being called.
  66:../libDaisy/src/hid/switch.h ****     */
  67:../libDaisy/src/hid/switch.h ****     void Debounce();
  68:../libDaisy/src/hid/switch.h **** 
  69:../libDaisy/src/hid/switch.h ****     /** \return true if a button was just pressed. */
  70:../libDaisy/src/hid/switch.h ****     inline bool RisingEdge() const { return updated_ ? state_ == 0x7f : false; }
  71:../libDaisy/src/hid/switch.h **** 
  72:../libDaisy/src/hid/switch.h ****     /** \return true if the button was just released */
  73:../libDaisy/src/hid/switch.h ****     inline bool FallingEdge() const
  74:../libDaisy/src/hid/switch.h ****     {
  75:../libDaisy/src/hid/switch.h ****         return updated_ ? state_ == 0x80 : false;
  76:../libDaisy/src/hid/switch.h ****     }
  77:../libDaisy/src/hid/switch.h **** 
  78:../libDaisy/src/hid/switch.h ****     /** \return true if the button is held down (or if the toggle is on) */
  79:../libDaisy/src/hid/switch.h ****     inline bool Pressed() const { return state_ == 0xff; }
  80:../libDaisy/src/hid/switch.h **** 
  81:../libDaisy/src/hid/switch.h ****     /** \return true if the button is held down, without debouncing */
  82:../libDaisy/src/hid/switch.h ****     inline bool RawState()
  83:../libDaisy/src/hid/switch.h ****     {
  84:../libDaisy/src/hid/switch.h ****         return flip_ ? !dsy_gpio_read(&hw_gpio_) : dsy_gpio_read(&hw_gpio_);
  85:../libDaisy/src/hid/switch.h ****     }
  86:../libDaisy/src/hid/switch.h **** 
  87:../libDaisy/src/hid/switch.h ****     /** \return the time in milliseconds that the button has been held (or toggle has been on) */
ARM GAS  /var/folders/2p/02m_5p7958535cp2tpgps0400000gn/T//ccAOujCh.s 			page 3


  88:../libDaisy/src/hid/switch.h ****     inline float TimeHeldMs() const
  29              		.loc 1 88 18 view -0
  30              		.cfi_startproc
  31              		@ args = 0, pretend = 0, frame = 0
  32              		@ frame_needed = 0, uses_anonymous_args = 0
  89:../libDaisy/src/hid/switch.h ****     {
  90:../libDaisy/src/hid/switch.h ****         return Pressed() ? System::GetNow() - rising_edge_time_ : 0;
  33              		.loc 1 90 9 view .LVU1
  34              	.LBB227:
  35              	.LBI227:
  79:../libDaisy/src/hid/switch.h **** 
  36              		.loc 1 79 17 view .LVU2
  37              	.LBB228:
  79:../libDaisy/src/hid/switch.h **** 
  38              		.loc 1 79 35 view .LVU3
  79:../libDaisy/src/hid/switch.h **** 
  39              		.loc 1 79 35 is_stmt 0 view .LVU4
  40              	.LBE228:
  41              	.LBE227:
  88:../libDaisy/src/hid/switch.h ****     {
  42              		.loc 1 88 18 view .LVU5
  43 0000 10B5     		push	{r4, lr}
  44              		.cfi_def_cfa_offset 8
  45              		.cfi_offset 4, -8
  46              		.cfi_offset 14, -4
  47              		.loc 1 90 26 view .LVU6
  48 0002 837A     		ldrb	r3, [r0, #10]	@ zero_extendqisi2
  88:../libDaisy/src/hid/switch.h ****     {
  49              		.loc 1 88 18 view .LVU7
  50 0004 0446     		mov	r4, r0
  51              		.loc 1 90 26 view .LVU8
  52 0006 FF2B     		cmp	r3, #255
  53 0008 0AD1     		bne	.L3
  54              	.LVL1:
  55              	.LBB229:
  56              	.LBI229:
  88:../libDaisy/src/hid/switch.h ****     {
  57              		.loc 1 88 18 is_stmt 1 view .LVU9
  58              	.LBB230:
  59              		.loc 1 90 42 is_stmt 0 view .LVU10
  60 000a FFF7FEFF 		bl	_ZN5daisy6System6GetNowEv
  61              	.LVL2:
  62              		.loc 1 90 45 view .LVU11
  63 000e 07EE900A 		vmov	s15, r0	@ int
  64 0012 B8EE670A 		vcvt.f32.u32	s0, s15
  65              		.loc 1 90 26 view .LVU12
  66 0016 D4ED037A 		vldr.32	s15, [r4, #12]
  67 001a 30EE670A 		vsub.f32	s0, s0, s15
  68              	.LVL3:
  69              	.L1:
  70              		.loc 1 90 26 view .LVU13
  71              	.LBE230:
  72              	.LBE229:
  91:../libDaisy/src/hid/switch.h ****     }
  73              		.loc 1 91 5 view .LVU14
  74 001e 10BD     		pop	{r4, pc}
  75              	.LVL4:
ARM GAS  /var/folders/2p/02m_5p7958535cp2tpgps0400000gn/T//ccAOujCh.s 			page 4


  76              	.L3:
  90:../libDaisy/src/hid/switch.h ****     }
  77              		.loc 1 90 26 view .LVU15
  78 0020 9FED010A 		vldr.32	s0, .L4
  90:../libDaisy/src/hid/switch.h ****     }
  79              		.loc 1 90 67 view .LVU16
  80 0024 FBE7     		b	.L1
  81              	.L5:
  82 0026 00BF     		.align	2
  83              	.L4:
  84 0028 00000000 		.word	0
  85              		.cfi_endproc
  86              	.LFE1646:
  88              		.section	.text._ZN7daisysp7OnePole7ProcessEf,"axG",%progbits,_ZN7daisysp7OnePole7ProcessEf,comdat
  89              		.align	1
  90              		.weak	_ZN7daisysp7OnePole7ProcessEf
  91              		.syntax unified
  92              		.thumb
  93              		.thumb_func
  95              	_ZN7daisysp7OnePole7ProcessEf:
  96              	.LVL5:
  97              	.LFB4466:
  98              		.file 2 "../DaisySP/Source/Filters/onepole.h"
   1:../DaisySP/Source/Filters/onepole.h **** /*
   2:../DaisySP/Source/Filters/onepole.h **** Copyright (c) 2020 Electrosmith, Corp, Emilie Gillet
   3:../DaisySP/Source/Filters/onepole.h **** 
   4:../DaisySP/Source/Filters/onepole.h **** Use of this source code is governed by an MIT-style
   5:../DaisySP/Source/Filters/onepole.h **** license that can be found in the LICENSE file or at
   6:../DaisySP/Source/Filters/onepole.h **** https://opensource.org/licenses/MIT.
   7:../DaisySP/Source/Filters/onepole.h **** */
   8:../DaisySP/Source/Filters/onepole.h **** 
   9:../DaisySP/Source/Filters/onepole.h **** #ifndef DSY_ONEPOLE_H
  10:../DaisySP/Source/Filters/onepole.h **** #define DSY_ONEPOLE_H
  11:../DaisySP/Source/Filters/onepole.h **** 
  12:../DaisySP/Source/Filters/onepole.h **** #include "Utility/dsp.h"
  13:../DaisySP/Source/Filters/onepole.h **** #include <cmath>
  14:../DaisySP/Source/Filters/onepole.h **** #include <algorithm>
  15:../DaisySP/Source/Filters/onepole.h **** 
  16:../DaisySP/Source/Filters/onepole.h **** namespace daisysp
  17:../DaisySP/Source/Filters/onepole.h **** {
  18:../DaisySP/Source/Filters/onepole.h **** /**         
  19:../DaisySP/Source/Filters/onepole.h ****     @brief One Pole Lowpass / Highpass Filter
  20:../DaisySP/Source/Filters/onepole.h ****     @author beserge
  21:../DaisySP/Source/Filters/onepole.h ****     @date Dec 2023 
  22:../DaisySP/Source/Filters/onepole.h ****     Ported from pichenettes/stmlib/dsp/filter.h \n 
  23:../DaisySP/Source/Filters/onepole.h ****     \n to an independent module. \n
  24:../DaisySP/Source/Filters/onepole.h ****     Original code written by Emilie Gillet. \n
  25:../DaisySP/Source/Filters/onepole.h **** */
  26:../DaisySP/Source/Filters/onepole.h **** class OnePole
  27:../DaisySP/Source/Filters/onepole.h **** {
  28:../DaisySP/Source/Filters/onepole.h ****   public:
  29:../DaisySP/Source/Filters/onepole.h ****     OnePole() {}
  30:../DaisySP/Source/Filters/onepole.h ****     ~OnePole() {}
  31:../DaisySP/Source/Filters/onepole.h **** 
  32:../DaisySP/Source/Filters/onepole.h ****     /**
  33:../DaisySP/Source/Filters/onepole.h ****      * @brief Operational modes of the filter
  34:../DaisySP/Source/Filters/onepole.h ****      * - LOW_PASS = cuts out high frequency sound, lets low frequency sound pass through
ARM GAS  /var/folders/2p/02m_5p7958535cp2tpgps0400000gn/T//ccAOujCh.s 			page 5


  35:../DaisySP/Source/Filters/onepole.h ****      * - HIGH_PASS = cuts out low frequency sound, lets high frequency sound pass through
  36:../DaisySP/Source/Filters/onepole.h ****      */
  37:../DaisySP/Source/Filters/onepole.h ****     enum FilterMode
  38:../DaisySP/Source/Filters/onepole.h ****     {
  39:../DaisySP/Source/Filters/onepole.h ****         FILTER_MODE_LOW_PASS,
  40:../DaisySP/Source/Filters/onepole.h ****         FILTER_MODE_HIGH_PASS
  41:../DaisySP/Source/Filters/onepole.h ****     };
  42:../DaisySP/Source/Filters/onepole.h **** 
  43:../DaisySP/Source/Filters/onepole.h ****     /** Initializes the module */
  44:../DaisySP/Source/Filters/onepole.h ****     void Init()
  45:../DaisySP/Source/Filters/onepole.h ****     {
  46:../DaisySP/Source/Filters/onepole.h ****         Reset();
  47:../DaisySP/Source/Filters/onepole.h ****         mode_ = FILTER_MODE_LOW_PASS;
  48:../DaisySP/Source/Filters/onepole.h ****     }
  49:../DaisySP/Source/Filters/onepole.h **** 
  50:../DaisySP/Source/Filters/onepole.h ****     /** Reset the module to its default state */
  51:../DaisySP/Source/Filters/onepole.h ****     inline void Reset() { state_ = 0.0f; }
  52:../DaisySP/Source/Filters/onepole.h **** 
  53:../DaisySP/Source/Filters/onepole.h ****     /** Set the filter cutoff frequency
  54:../DaisySP/Source/Filters/onepole.h ****     *   \param freq Cutoff frequency. Valid range from 0 to .497f
  55:../DaisySP/Source/Filters/onepole.h ****     */
  56:../DaisySP/Source/Filters/onepole.h ****     inline void SetFrequency(float freq)
  57:../DaisySP/Source/Filters/onepole.h ****     {
  58:../DaisySP/Source/Filters/onepole.h ****         // Clip coefficient to about 100.
  59:../DaisySP/Source/Filters/onepole.h ****         freq = freq < 0.497f ? freq : 0.497f;
  60:../DaisySP/Source/Filters/onepole.h **** 
  61:../DaisySP/Source/Filters/onepole.h ****         g_  = tanf(PI_F * freq);
  62:../DaisySP/Source/Filters/onepole.h ****         gi_ = 1.f / (1.f + g_);
  63:../DaisySP/Source/Filters/onepole.h ****     }
  64:../DaisySP/Source/Filters/onepole.h **** 
  65:../DaisySP/Source/Filters/onepole.h ****     /** Set the filter mode
  66:../DaisySP/Source/Filters/onepole.h ****     *   \param mode Filter mode. Can be lowpass or highpass
  67:../DaisySP/Source/Filters/onepole.h ****     */
  68:../DaisySP/Source/Filters/onepole.h ****     inline void SetFilterMode(FilterMode mode) { mode_ = mode; }
  69:../DaisySP/Source/Filters/onepole.h **** 
  70:../DaisySP/Source/Filters/onepole.h ****     /** Process audio through the filter
  71:../DaisySP/Source/Filters/onepole.h ****     *   \param in The next sample to be processed
  72:../DaisySP/Source/Filters/onepole.h ****     */
  73:../DaisySP/Source/Filters/onepole.h ****     inline float Process(float in)
  99              		.loc 2 73 18 is_stmt 1 view -0
 100              		.cfi_startproc
 101              		@ args = 0, pretend = 0, frame = 0
 102              		@ frame_needed = 0, uses_anonymous_args = 0
 103              		@ link register save eliminated.
  74:../DaisySP/Source/Filters/onepole.h ****     {
  75:../DaisySP/Source/Filters/onepole.h ****         float lp;
 104              		.loc 2 75 9 view .LVU18
  76:../DaisySP/Source/Filters/onepole.h ****         lp     = (g_ * in + state_) * gi_;
 105              		.loc 2 76 9 view .LVU19
 106              		.loc 2 76 19 is_stmt 0 view .LVU20
 107 0000 D0ED006A 		vldr.32	s13, [r0]
  73:../DaisySP/Source/Filters/onepole.h ****     {
 108              		.loc 2 73 18 view .LVU21
 109 0004 B0EE407A 		vmov.f32	s14, s0
 110              		.loc 2 76 27 view .LVU22
 111 0008 D0ED027A 		vldr.32	s15, [r0, #8]
  77:../DaisySP/Source/Filters/onepole.h ****         state_ = g_ * (in - lp) + lp;
ARM GAS  /var/folders/2p/02m_5p7958535cp2tpgps0400000gn/T//ccAOujCh.s 			page 6


  78:../DaisySP/Source/Filters/onepole.h **** 
  79:../DaisySP/Source/Filters/onepole.h ****         switch(mode_)
 112              		.loc 2 79 16 view .LVU23
 113 000c 037B     		ldrb	r3, [r0, #12]	@ zero_extendqisi2
  76:../DaisySP/Source/Filters/onepole.h ****         state_ = g_ * (in - lp) + lp;
 114              		.loc 2 76 27 view .LVU24
 115 000e E6EE807A 		vfma.f32	s15, s13, s0
  76:../DaisySP/Source/Filters/onepole.h ****         state_ = g_ * (in - lp) + lp;
 116              		.loc 2 76 16 view .LVU25
 117 0012 90ED010A 		vldr.32	s0, [r0, #4]
 118              	.LVL6:
  76:../DaisySP/Source/Filters/onepole.h ****         state_ = g_ * (in - lp) + lp;
 119              		.loc 2 76 16 view .LVU26
 120 0016 27EE800A 		vmul.f32	s0, s15, s0
 121              	.LVL7:
  77:../DaisySP/Source/Filters/onepole.h ****         state_ = g_ * (in - lp) + lp;
 122              		.loc 2 77 9 is_stmt 1 view .LVU27
  77:../DaisySP/Source/Filters/onepole.h ****         state_ = g_ * (in - lp) + lp;
 123              		.loc 2 77 27 is_stmt 0 view .LVU28
 124 001a 77EE407A 		vsub.f32	s15, s14, s0
  77:../DaisySP/Source/Filters/onepole.h ****         state_ = g_ * (in - lp) + lp;
 125              		.loc 2 77 33 view .LVU29
 126 001e B0EE407A 		vmov.f32	s14, s0
 127              	.LVL8:
  77:../DaisySP/Source/Filters/onepole.h ****         state_ = g_ * (in - lp) + lp;
 128              		.loc 2 77 33 view .LVU30
 129 0022 A6EEA77A 		vfma.f32	s14, s13, s15
  77:../DaisySP/Source/Filters/onepole.h ****         state_ = g_ * (in - lp) + lp;
 130              		.loc 2 77 16 view .LVU31
 131 0026 80ED027A 		vstr.32	s14, [r0, #8]
 132              		.loc 2 79 9 is_stmt 1 view .LVU32
 133 002a 23B1     		cbz	r3, .L6
 134 002c 012B     		cmp	r3, #1
 135 002e 9FED020A 		vldr.32	s0, .L12
 136              	.LVL9:
 137              		.loc 2 79 9 is_stmt 0 view .LVU33
 138 0032 07FE800A 		vseleq.f32	s0, s15, s0
 139              	.L6:
  80:../DaisySP/Source/Filters/onepole.h ****         {
  81:../DaisySP/Source/Filters/onepole.h ****             case FILTER_MODE_LOW_PASS: return lp;
  82:../DaisySP/Source/Filters/onepole.h ****             case FILTER_MODE_HIGH_PASS: return in - lp;
  83:../DaisySP/Source/Filters/onepole.h ****         }
  84:../DaisySP/Source/Filters/onepole.h **** 
  85:../DaisySP/Source/Filters/onepole.h ****         return 0.0f;
  86:../DaisySP/Source/Filters/onepole.h ****     }
 140              		.loc 2 86 5 view .LVU34
 141 0036 7047     		bx	lr
 142              	.L13:
 143              		.align	2
 144              	.L12:
 145 0038 00000000 		.word	0
 146              		.cfi_endproc
 147              	.LFE4466:
 149              		.section	.rodata._ZN14GrannyChordApp12PrintCPULoadEv.str1.1,"aMS",%progbits,1
 150              	.LC0:
 151 0000 50726F63 		.ascii	"Processing Load %:\000"
 151      65737369 
ARM GAS  /var/folders/2p/02m_5p7958535cp2tpgps0400000gn/T//ccAOujCh.s 			page 7


 151      6E67204C 
 151      6F616420 
 151      253A00
 152              	.LC1:
 153 0013 4D61783A 		.ascii	"Max: %c%d.%03d\000"
 153      20256325 
 153      642E2530 
 153      336400
 154              	.LC2:
 155 0022 4176673A 		.ascii	"Avg: %c%d.%03d\000"
 155      20256325 
 155      642E2530 
 155      336400
 156              	.LC3:
 157 0031 4D696E3A 		.ascii	"Min: %c%d.%03d\000"
 157      20256325 
 157      642E2530 
 157      336400
 158              		.section	.text._ZN14GrannyChordApp12PrintCPULoadEv,"ax",%progbits
 159              		.align	1
 160              		.global	_ZN14GrannyChordApp12PrintCPULoadEv
 161              		.syntax unified
 162              		.thumb
 163              		.thumb_func
 165              	_ZN14GrannyChordApp12PrintCPULoadEv:
 166              	.LVL10:
 167              	.LFB4911:
 168              		.file 3 "GrannyChordApp.cpp"
   1:GrannyChordApp.cpp **** #ifdef DEBUG_MODE // TODO: remove
   2:GrannyChordApp.cpp **** #pragma message("Debug mode is ON")
   3:GrannyChordApp.cpp **** #else
   4:GrannyChordApp.cpp **** #pragma message("Debug mode is OFF")
   5:GrannyChordApp.cpp **** #endif
   6:GrannyChordApp.cpp **** 
   7:GrannyChordApp.cpp **** #include "GrannyChordApp.h"
   8:GrannyChordApp.cpp **** 
   9:GrannyChordApp.cpp **** /* this is required for AudioCallback as it needs a static object */
  10:GrannyChordApp.cpp **** GrannyChordApp* GrannyChordApp::instance_ = nullptr;
  11:GrannyChordApp.cpp **** 
  12:GrannyChordApp.cpp **** 
  13:GrannyChordApp.cpp **** /// @brief Initialises app state and members and goes through app startup process
  14:GrannyChordApp.cpp **** /// @param left Left channel audio data buffer
  15:GrannyChordApp.cpp **** /// @param right Right channel audio data buffer
  16:GrannyChordApp.cpp **** void GrannyChordApp::Init(int16_t *left, int16_t *right){
  17:GrannyChordApp.cpp ****   left_buf_ = left, right_buf_ = right;
  18:GrannyChordApp.cpp ****   pod_.SetAudioBlockSize(2);
  19:GrannyChordApp.cpp ****   pod_.SetAudioSampleRate(SaiHandle::Config::SampleRate::SAI_48KHZ);
  20:GrannyChordApp.cpp **** 
  21:GrannyChordApp.cpp ****   curr_state_ = AppState::SelectFile;
  22:GrannyChordApp.cpp ****   // SetupTimer();
  23:GrannyChordApp.cpp ****   if (!InitFileMgr()){
  24:GrannyChordApp.cpp ****     DebugPrint(pod_,"File manager failed to init");
  25:GrannyChordApp.cpp ****     pod_.led1.SetRed(1);
  26:GrannyChordApp.cpp ****     pod_.led2.SetRed(1);
  27:GrannyChordApp.cpp ****     pod_.UpdateLeds();
  28:GrannyChordApp.cpp ****     return;
  29:GrannyChordApp.cpp ****   }
ARM GAS  /var/folders/2p/02m_5p7958535cp2tpgps0400000gn/T//ccAOujCh.s 			page 8


  30:GrannyChordApp.cpp ****   loadmeter.Init(pod_.AudioSampleRate(), pod_.AudioBlockSize());
  31:GrannyChordApp.cpp ****   InitFX();
  32:GrannyChordApp.cpp ****   InitPrevParamVals();
  33:GrannyChordApp.cpp ****   SeedRng();
  34:GrannyChordApp.cpp ****   synth_.Init(left_buf_, right_buf_, 0);
  35:GrannyChordApp.cpp ****   pod_.StartAdc();
  36:GrannyChordApp.cpp **** }
  37:GrannyChordApp.cpp **** 
  38:GrannyChordApp.cpp **** #ifdef DEBUG_MODE
  39:GrannyChordApp.cpp **** void GrannyChordApp::PrintCPULoad(){
 169              		.loc 3 39 36 is_stmt 1 view -0
 170              		.cfi_startproc
 171              		@ args = 0, pretend = 0, frame = 0
 172              		@ frame_needed = 0, uses_anonymous_args = 0
  40:GrannyChordApp.cpp ****   const float avgLoad = loadmeter.GetAvgCpuLoad();
 173              		.loc 3 40 3 view .LVU36
 174              	.LBB231:
 175              	.LBI231:
 176              		.file 4 "../libDaisy/src/util/CpuLoadMeter.h"
   1:../libDaisy/src/util/CpuLoadMeter.h **** #pragma once
   2:../libDaisy/src/util/CpuLoadMeter.h **** 
   3:../libDaisy/src/util/CpuLoadMeter.h **** #include "sys/system.h"
   4:../libDaisy/src/util/CpuLoadMeter.h **** #include <cmath>
   5:../libDaisy/src/util/CpuLoadMeter.h **** 
   6:../libDaisy/src/util/CpuLoadMeter.h **** namespace daisy
   7:../libDaisy/src/util/CpuLoadMeter.h **** {
   8:../libDaisy/src/util/CpuLoadMeter.h **** /** @brief CPU load metering
   9:../libDaisy/src/util/CpuLoadMeter.h ****  *  @author jelliesen
  10:../libDaisy/src/util/CpuLoadMeter.h ****  *  @addtogroup utility
  11:../libDaisy/src/util/CpuLoadMeter.h ****  * 
  12:../libDaisy/src/util/CpuLoadMeter.h ****  *  To measure the CPU load of your audio processing, create a CpuLoadMeter
  13:../libDaisy/src/util/CpuLoadMeter.h ****  *  and initialize it with your block size and sample rate.
  14:../libDaisy/src/util/CpuLoadMeter.h ****  *  Then at the beginning of the audio callback, call `OnBlockStart()`, 
  15:../libDaisy/src/util/CpuLoadMeter.h ****  *  and at the end of the audio callback, call `OnBlockEnd()`.
  16:../libDaisy/src/util/CpuLoadMeter.h ****  *  You can then read out the minimum, maximum and average CPU load.
  17:../libDaisy/src/util/CpuLoadMeter.h ****  */
  18:../libDaisy/src/util/CpuLoadMeter.h **** class CpuLoadMeter
  19:../libDaisy/src/util/CpuLoadMeter.h **** {
  20:../libDaisy/src/util/CpuLoadMeter.h ****   public:
  21:../libDaisy/src/util/CpuLoadMeter.h ****     CpuLoadMeter(){};
  22:../libDaisy/src/util/CpuLoadMeter.h **** 
  23:../libDaisy/src/util/CpuLoadMeter.h ****     /** Initializes the CpuLoadMeter for a particular sample rate and block size.
  24:../libDaisy/src/util/CpuLoadMeter.h ****      *  @param sampleRateInHz           The sample rate in Hz
  25:../libDaisy/src/util/CpuLoadMeter.h ****      *  @param blockSizeInSamples       The block size in samples
  26:../libDaisy/src/util/CpuLoadMeter.h ****      *  @param smoothingFilterCutoffHz  The cutoff frequency of the smoothing filter that's used to
  27:../libDaisy/src/util/CpuLoadMeter.h ****      *                                  create the average CPU load reading.
  28:../libDaisy/src/util/CpuLoadMeter.h ****      */
  29:../libDaisy/src/util/CpuLoadMeter.h ****     void Init(float sampleRateInHz,
  30:../libDaisy/src/util/CpuLoadMeter.h ****               int   blockSizeInSamples,
  31:../libDaisy/src/util/CpuLoadMeter.h ****               float smoothingFilterCutoffHz = 1.0f)
  32:../libDaisy/src/util/CpuLoadMeter.h ****     {
  33:../libDaisy/src/util/CpuLoadMeter.h ****         const auto secPerBlock = float(blockSizeInSamples) / sampleRateInHz;
  34:../libDaisy/src/util/CpuLoadMeter.h ****         const auto ticksPerS   = float(System::GetTickFreq());
  35:../libDaisy/src/util/CpuLoadMeter.h ****         ticksPerBlockInv_      = 1.0f / (ticksPerS * secPerBlock);
  36:../libDaisy/src/util/CpuLoadMeter.h **** 
  37:../libDaisy/src/util/CpuLoadMeter.h ****         // update filter coefficient for smoothing filter (1pole lowpass)
  38:../libDaisy/src/util/CpuLoadMeter.h ****         const auto blockRateInHz = sampleRateInHz / float(blockSizeInSamples);
ARM GAS  /var/folders/2p/02m_5p7958535cp2tpgps0400000gn/T//ccAOujCh.s 			page 9


  39:../libDaisy/src/util/CpuLoadMeter.h ****         const auto cutoffNormalized
  40:../libDaisy/src/util/CpuLoadMeter.h ****             = smoothingFilterCutoffHz * 2.0f * 3.141592653f / blockRateInHz;
  41:../libDaisy/src/util/CpuLoadMeter.h ****         // according to
  42:../libDaisy/src/util/CpuLoadMeter.h ****         // https://en.wikipedia.org/wiki/Low-pass_filter#Simple_infinite_impulse_response_filter
  43:../libDaisy/src/util/CpuLoadMeter.h ****         smoothingConstant_ = cutoffNormalized / (cutoffNormalized + 1.0f);
  44:../libDaisy/src/util/CpuLoadMeter.h **** 
  45:../libDaisy/src/util/CpuLoadMeter.h ****         Reset();
  46:../libDaisy/src/util/CpuLoadMeter.h ****     }
  47:../libDaisy/src/util/CpuLoadMeter.h **** 
  48:../libDaisy/src/util/CpuLoadMeter.h ****     /** Call this at the beginning of your audio callback */
  49:../libDaisy/src/util/CpuLoadMeter.h ****     void OnBlockStart() { currentBlockStartTicks_ = System::GetTick(); }
  50:../libDaisy/src/util/CpuLoadMeter.h **** 
  51:../libDaisy/src/util/CpuLoadMeter.h ****     /** Call this at the end of your audio callback */
  52:../libDaisy/src/util/CpuLoadMeter.h ****     void OnBlockEnd()
  53:../libDaisy/src/util/CpuLoadMeter.h ****     {
  54:../libDaisy/src/util/CpuLoadMeter.h ****         const auto end         = System::GetTick();
  55:../libDaisy/src/util/CpuLoadMeter.h ****         const auto ticksPassed = end - currentBlockStartTicks_;
  56:../libDaisy/src/util/CpuLoadMeter.h ****         const auto currentBlockLoad
  57:../libDaisy/src/util/CpuLoadMeter.h ****             = float(ticksPassed) * ticksPerBlockInv_; // usPassed / usPerBlock
  58:../libDaisy/src/util/CpuLoadMeter.h **** 
  59:../libDaisy/src/util/CpuLoadMeter.h ****         if(firstCycle_)
  60:../libDaisy/src/util/CpuLoadMeter.h ****         {
  61:../libDaisy/src/util/CpuLoadMeter.h ****             max_ = min_ = avg_ = currentBlockLoad;
  62:../libDaisy/src/util/CpuLoadMeter.h ****             firstCycle_        = false;
  63:../libDaisy/src/util/CpuLoadMeter.h ****         }
  64:../libDaisy/src/util/CpuLoadMeter.h ****         else
  65:../libDaisy/src/util/CpuLoadMeter.h ****         {
  66:../libDaisy/src/util/CpuLoadMeter.h ****             if(currentBlockLoad > max_)
  67:../libDaisy/src/util/CpuLoadMeter.h ****                 max_ = currentBlockLoad;
  68:../libDaisy/src/util/CpuLoadMeter.h ****             if(currentBlockLoad < min_)
  69:../libDaisy/src/util/CpuLoadMeter.h ****                 min_ = currentBlockLoad;
  70:../libDaisy/src/util/CpuLoadMeter.h **** 
  71:../libDaisy/src/util/CpuLoadMeter.h ****             avg_ = smoothingConstant_ * currentBlockLoad
  72:../libDaisy/src/util/CpuLoadMeter.h ****                    + (1.0f - smoothingConstant_) * avg_;
  73:../libDaisy/src/util/CpuLoadMeter.h ****         }
  74:../libDaisy/src/util/CpuLoadMeter.h ****     }
  75:../libDaisy/src/util/CpuLoadMeter.h **** 
  76:../libDaisy/src/util/CpuLoadMeter.h ****     /** Returns the smoothed average CPU load in the range 0..1 */
  77:../libDaisy/src/util/CpuLoadMeter.h ****     float GetAvgCpuLoad() const { return avg_; }
 177              		.loc 4 77 11 view .LVU37
 178              	.LBB232:
 179              		.loc 4 77 35 view .LVU38
 180              	.LBE232:
 181              	.LBE231:
  39:GrannyChordApp.cpp ****   const float avgLoad = loadmeter.GetAvgCpuLoad();
 182              		.loc 3 39 36 is_stmt 0 view .LVU39
 183 0000 10B5     		push	{r4, lr}
 184              		.cfi_def_cfa_offset 8
 185              		.cfi_offset 4, -8
 186              		.cfi_offset 14, -4
 187 0002 2DED068B 		vpush.64	{d8, d9, d10}
 188              		.cfi_def_cfa_offset 32
 189              		.cfi_offset 80, -32
 190              		.cfi_offset 81, -28
 191              		.cfi_offset 82, -24
 192              		.cfi_offset 83, -20
 193              		.cfi_offset 84, -16
ARM GAS  /var/folders/2p/02m_5p7958535cp2tpgps0400000gn/T//ccAOujCh.s 			page 10


 194              		.cfi_offset 85, -12
 195              	.LBB234:
 196              	.LBB235:
  78:../libDaisy/src/util/CpuLoadMeter.h ****     /** Returns the minimun CPU load observed since the last call to Reset(). */
  79:../libDaisy/src/util/CpuLoadMeter.h ****     float GetMinCpuLoad() const { return min_; }
  80:../libDaisy/src/util/CpuLoadMeter.h ****     /** Returns the maximum CPU load observed since the last call to Reset(). */
  81:../libDaisy/src/util/CpuLoadMeter.h ****     float GetMaxCpuLoad() const { return max_; }
 197              		.loc 4 81 42 view .LVU40
 198 0006 90ED049A 		vldr.32	s18, [r0, #16]
 199              	.LBE235:
 200              	.LBE234:
  41:GrannyChordApp.cpp ****   const float maxLoad = loadmeter.GetMaxCpuLoad();
  42:GrannyChordApp.cpp ****   const float minLoad = loadmeter.GetMinCpuLoad();
  43:GrannyChordApp.cpp ****   pod_.seed.PrintLine("Processing Load %:");
  44:GrannyChordApp.cpp ****   pod_.seed.PrintLine("Max: " FLT_FMT3, FLT_VAR3(maxLoad * 100.0f));
 201              		.loc 3 44 41 view .LVU41
 202 000a DFED37AA 		vldr.32	s21, .L21+8
 203              	.LBB237:
 204              	.LBB233:
  77:../libDaisy/src/util/CpuLoadMeter.h ****     /** Returns the minimun CPU load observed since the last call to Reset(). */
 205              		.loc 4 77 42 view .LVU42
 206 000e D0ED058A 		vldr.32	s17, [r0, #20]
 207              	.LVL11:
  77:../libDaisy/src/util/CpuLoadMeter.h ****     /** Returns the minimun CPU load observed since the last call to Reset(). */
 208              		.loc 4 77 42 view .LVU43
 209              	.LBE233:
 210              	.LBE237:
  41:GrannyChordApp.cpp ****   const float maxLoad = loadmeter.GetMaxCpuLoad();
 211              		.loc 3 41 3 is_stmt 1 view .LVU44
 212              	.LBB238:
 213              	.LBI234:
 214              		.loc 4 81 11 view .LVU45
 215              	.LBB236:
 216              		.loc 4 81 35 view .LVU46
 217              		.loc 4 81 35 is_stmt 0 view .LVU47
 218              	.LBE236:
 219              	.LBE238:
  42:GrannyChordApp.cpp ****   pod_.seed.PrintLine("Processing Load %:");
 220              		.loc 3 42 3 is_stmt 1 view .LVU48
 221              	.LBB239:
 222              	.LBI239:
  79:../libDaisy/src/util/CpuLoadMeter.h ****     /** Returns the maximum CPU load observed since the last call to Reset(). */
 223              		.loc 4 79 11 view .LVU49
 224              	.LBB240:
  79:../libDaisy/src/util/CpuLoadMeter.h ****     /** Returns the maximum CPU load observed since the last call to Reset(). */
 225              		.loc 4 79 35 view .LVU50
  79:../libDaisy/src/util/CpuLoadMeter.h ****     /** Returns the maximum CPU load observed since the last call to Reset(). */
 226              		.loc 4 79 42 is_stmt 0 view .LVU51
 227 0012 90ED038A 		vldr.32	s16, [r0, #12]
 228              	.LVL12:
  79:../libDaisy/src/util/CpuLoadMeter.h ****     /** Returns the maximum CPU load observed since the last call to Reset(). */
 229              		.loc 4 79 42 view .LVU52
 230              	.LBE240:
 231              	.LBE239:
  43:GrannyChordApp.cpp ****   pod_.seed.PrintLine("Max: " FLT_FMT3, FLT_VAR3(maxLoad * 100.0f));
 232              		.loc 3 43 3 is_stmt 1 view .LVU53
 233              	.LBB241:
ARM GAS  /var/folders/2p/02m_5p7958535cp2tpgps0400000gn/T//ccAOujCh.s 			page 11


 234              	.LBI241:
 235              		.file 5 "../libDaisy/src/daisy_seed.h"
   1:../libDaisy/src/daisy_seed.h **** #pragma once
   2:../libDaisy/src/daisy_seed.h **** #ifndef DSY_SEED_H
   3:../libDaisy/src/daisy_seed.h **** #define DSY_SEED_H
   4:../libDaisy/src/daisy_seed.h **** 
   5:../libDaisy/src/daisy_seed.h **** #include "daisy.h"
   6:../libDaisy/src/daisy_seed.h **** 
   7:../libDaisy/src/daisy_seed.h **** //Uncomment this out if you're still using the rev2 hardware
   8:../libDaisy/src/daisy_seed.h **** //#define SEED_REV2
   9:../libDaisy/src/daisy_seed.h **** 
  10:../libDaisy/src/daisy_seed.h **** namespace daisy
  11:../libDaisy/src/daisy_seed.h **** {
  12:../libDaisy/src/daisy_seed.h **** /**
  13:../libDaisy/src/daisy_seed.h ****    @brief This is the higher-level interface for the Daisy board. \n 
  14:../libDaisy/src/daisy_seed.h ****     All basic peripheral configuration/initialization is setup here. \n
  15:../libDaisy/src/daisy_seed.h **** 
  16:../libDaisy/src/daisy_seed.h ****    @ingroup boards
  17:../libDaisy/src/daisy_seed.h **** */
  18:../libDaisy/src/daisy_seed.h **** class DaisySeed
  19:../libDaisy/src/daisy_seed.h **** {
  20:../libDaisy/src/daisy_seed.h ****   public:
  21:../libDaisy/src/daisy_seed.h ****     DaisySeed() {}
  22:../libDaisy/src/daisy_seed.h ****     ~DaisySeed() {}
  23:../libDaisy/src/daisy_seed.h **** 
  24:../libDaisy/src/daisy_seed.h ****     /** This function used to provide a pre-initialization configuraiton 
  25:../libDaisy/src/daisy_seed.h ****      *  it has since been deprecated, and does nothing.
  26:../libDaisy/src/daisy_seed.h ****      */
  27:../libDaisy/src/daisy_seed.h ****     void Configure();
  28:../libDaisy/src/daisy_seed.h **** 
  29:../libDaisy/src/daisy_seed.h ****     /** 
  30:../libDaisy/src/daisy_seed.h ****     Initializes the Daisy Seed and the following peripherals:
  31:../libDaisy/src/daisy_seed.h ****     SDRAM, QSPI, 24-bit 48kHz Audio via AK4556, Internal USB,
  32:../libDaisy/src/daisy_seed.h ****     as well as the built-in LED and Testpoint.
  33:../libDaisy/src/daisy_seed.h **** 
  34:../libDaisy/src/daisy_seed.h ****     ADCs, DACs, and other special peripherals (such as I2C, SPI, etc.)
  35:../libDaisy/src/daisy_seed.h ****     can be initialized using their specific initializers within libdaisy
  36:../libDaisy/src/daisy_seed.h ****     for a specific application.
  37:../libDaisy/src/daisy_seed.h ****     */
  38:../libDaisy/src/daisy_seed.h ****     void Init(bool boost = false);
  39:../libDaisy/src/daisy_seed.h **** 
  40:../libDaisy/src/daisy_seed.h ****     /** 
  41:../libDaisy/src/daisy_seed.h ****     Deinitializes all peripherals automatically handled by `Init`.
  42:../libDaisy/src/daisy_seed.h ****     */
  43:../libDaisy/src/daisy_seed.h ****     void DeInit();
  44:../libDaisy/src/daisy_seed.h **** 
  45:../libDaisy/src/daisy_seed.h ****     /** 
  46:../libDaisy/src/daisy_seed.h ****     Wait some ms before going on.
  47:../libDaisy/src/daisy_seed.h ****     \param del Delay time in ms.
  48:../libDaisy/src/daisy_seed.h ****     */
  49:../libDaisy/src/daisy_seed.h ****     void DelayMs(size_t del);
  50:../libDaisy/src/daisy_seed.h **** 
  51:../libDaisy/src/daisy_seed.h ****     /** 
  52:../libDaisy/src/daisy_seed.h ****     Returns the gpio_pin corresponding to the index 0-31.
  53:../libDaisy/src/daisy_seed.h ****     For the given GPIO on the Daisy Seed (labeled 1-32 in docs).
  54:../libDaisy/src/daisy_seed.h ****     */
  55:../libDaisy/src/daisy_seed.h ****     static dsy_gpio_pin GetPin(uint8_t pin_idx);
ARM GAS  /var/folders/2p/02m_5p7958535cp2tpgps0400000gn/T//ccAOujCh.s 			page 12


  56:../libDaisy/src/daisy_seed.h **** 
  57:../libDaisy/src/daisy_seed.h ****     /** Begins the audio for the seeds builtin audio.
  58:../libDaisy/src/daisy_seed.h ****     the specified callback will get called whenever
  59:../libDaisy/src/daisy_seed.h ****     new data is ready to be prepared.
  60:../libDaisy/src/daisy_seed.h ****     */
  61:../libDaisy/src/daisy_seed.h ****     void StartAudio(AudioHandle::InterleavingAudioCallback cb);
  62:../libDaisy/src/daisy_seed.h **** 
  63:../libDaisy/src/daisy_seed.h ****     /** Begins the audio for the seeds builtin audio.
  64:../libDaisy/src/daisy_seed.h ****     the specified callback will get called whenever
  65:../libDaisy/src/daisy_seed.h ****     new data is ready to be prepared.
  66:../libDaisy/src/daisy_seed.h ****     This will use the newer non-interleaved callback.
  67:../libDaisy/src/daisy_seed.h ****     */
  68:../libDaisy/src/daisy_seed.h ****     void StartAudio(AudioHandle::AudioCallback cb);
  69:../libDaisy/src/daisy_seed.h **** 
  70:../libDaisy/src/daisy_seed.h ****     /** Changes to a new interleaved callback
  71:../libDaisy/src/daisy_seed.h ****      */
  72:../libDaisy/src/daisy_seed.h ****     void ChangeAudioCallback(AudioHandle::InterleavingAudioCallback cb);
  73:../libDaisy/src/daisy_seed.h **** 
  74:../libDaisy/src/daisy_seed.h ****     /** Changes to a new multichannel callback
  75:../libDaisy/src/daisy_seed.h ****      */
  76:../libDaisy/src/daisy_seed.h ****     void ChangeAudioCallback(AudioHandle::AudioCallback cb);
  77:../libDaisy/src/daisy_seed.h **** 
  78:../libDaisy/src/daisy_seed.h ****     /** Stops the audio if it is running. */
  79:../libDaisy/src/daisy_seed.h ****     void StopAudio();
  80:../libDaisy/src/daisy_seed.h **** 
  81:../libDaisy/src/daisy_seed.h ****     /** Updates the Audio Sample Rate, and reinitializes.
  82:../libDaisy/src/daisy_seed.h ****      ** Audio must be stopped for this to work.
  83:../libDaisy/src/daisy_seed.h ****      */
  84:../libDaisy/src/daisy_seed.h ****     void SetAudioSampleRate(SaiHandle::Config::SampleRate samplerate);
  85:../libDaisy/src/daisy_seed.h **** 
  86:../libDaisy/src/daisy_seed.h ****     /** Returns the audio sample rate in Hz as a floating point number.
  87:../libDaisy/src/daisy_seed.h ****      */
  88:../libDaisy/src/daisy_seed.h ****     float AudioSampleRate();
  89:../libDaisy/src/daisy_seed.h **** 
  90:../libDaisy/src/daisy_seed.h ****     /** Sets the number of samples processed per channel by the audio callback.
  91:../libDaisy/src/daisy_seed.h ****      */
  92:../libDaisy/src/daisy_seed.h ****     void SetAudioBlockSize(size_t blocksize);
  93:../libDaisy/src/daisy_seed.h **** 
  94:../libDaisy/src/daisy_seed.h ****     /** Returns the number of samples per channel in a block of audio. */
  95:../libDaisy/src/daisy_seed.h ****     size_t AudioBlockSize();
  96:../libDaisy/src/daisy_seed.h **** 
  97:../libDaisy/src/daisy_seed.h ****     /** Returns the rate in Hz that the Audio callback is called */
  98:../libDaisy/src/daisy_seed.h ****     float AudioCallbackRate() const;
  99:../libDaisy/src/daisy_seed.h **** 
 100:../libDaisy/src/daisy_seed.h ****     /** Returns the SAI Handle for the Daisy Seed 
 101:../libDaisy/src/daisy_seed.h ****      *  This can be useful when adding a secondary codec,
 102:../libDaisy/src/daisy_seed.h ****      *  the result of this function can be passed to the audio reinit 
 103:../libDaisy/src/daisy_seed.h ****      *  with an SAI2 configuration
 104:../libDaisy/src/daisy_seed.h ****      */
 105:../libDaisy/src/daisy_seed.h ****     const SaiHandle& AudioSaiHandle() const;
 106:../libDaisy/src/daisy_seed.h **** 
 107:../libDaisy/src/daisy_seed.h ****     /** Sets the state of the built in LED
 108:../libDaisy/src/daisy_seed.h ****      */
 109:../libDaisy/src/daisy_seed.h ****     void SetLed(bool state);
 110:../libDaisy/src/daisy_seed.h **** 
 111:../libDaisy/src/daisy_seed.h ****     /** Sets the state of the test point near pin 10
 112:../libDaisy/src/daisy_seed.h ****      */
ARM GAS  /var/folders/2p/02m_5p7958535cp2tpgps0400000gn/T//ccAOujCh.s 			page 13


 113:../libDaisy/src/daisy_seed.h ****     void SetTestPoint(bool state);
 114:../libDaisy/src/daisy_seed.h **** 
 115:../libDaisy/src/daisy_seed.h ****     /** Print formatted debug log message
 116:../libDaisy/src/daisy_seed.h ****      */
 117:../libDaisy/src/daisy_seed.h ****     template <typename... VA>
 118:../libDaisy/src/daisy_seed.h ****     static void Print(const char* format, VA... va)
 119:../libDaisy/src/daisy_seed.h ****     {
 120:../libDaisy/src/daisy_seed.h ****         Log::Print(format, va...);
 121:../libDaisy/src/daisy_seed.h ****     }
 122:../libDaisy/src/daisy_seed.h **** 
 123:../libDaisy/src/daisy_seed.h ****     /** Print formatted debug log message with automatic line termination
 124:../libDaisy/src/daisy_seed.h ****     */
 125:../libDaisy/src/daisy_seed.h ****     template <typename... VA>
 126:../libDaisy/src/daisy_seed.h ****     static void PrintLine(const char* format, VA... va)
 236              		.loc 5 126 17 view .LVU54
 237              	.LBB242:
 127:../libDaisy/src/daisy_seed.h ****     {
 128:../libDaisy/src/daisy_seed.h ****         Log::PrintLine(format, va...);
 238              		.loc 5 128 23 is_stmt 0 view .LVU55
 239 0016 3548     		ldr	r0, .L21+12
 240              	.LVL13:
 241              		.loc 5 128 23 view .LVU56
 242 0018 FFF7FEFF 		bl	_ZN5daisy6LoggerILNS_17LoggerDestinationE1EE9PrintLineEPKcz
 243              	.LVL14:
 244              		.loc 5 128 23 view .LVU57
 245              	.LBE242:
 246              	.LBE241:
 247              		.loc 3 44 3 is_stmt 1 view .LVU58
 248              	.LBB243:
 249              	.LBI243:
 250              		.file 6 "/Library/DaisyToolchain/0.2.0/arm/arm-none-eabi/include/c++/10.3.1/bits/std_abs.h"
   1:/Library/DaisyToolchain/0.2.0/arm/arm-none-eabi/include/c++/10.3.1/bits/std_abs.h **** // -*- C++ -*- C library enhancements header.
   2:/Library/DaisyToolchain/0.2.0/arm/arm-none-eabi/include/c++/10.3.1/bits/std_abs.h **** 
   3:/Library/DaisyToolchain/0.2.0/arm/arm-none-eabi/include/c++/10.3.1/bits/std_abs.h **** // Copyright (C) 2016-2020 Free Software Foundation, Inc.
   4:/Library/DaisyToolchain/0.2.0/arm/arm-none-eabi/include/c++/10.3.1/bits/std_abs.h **** //
   5:/Library/DaisyToolchain/0.2.0/arm/arm-none-eabi/include/c++/10.3.1/bits/std_abs.h **** // This file is part of the GNU ISO C++ Library.  This library is free
   6:/Library/DaisyToolchain/0.2.0/arm/arm-none-eabi/include/c++/10.3.1/bits/std_abs.h **** // software; you can redistribute it and/or modify it under the
   7:/Library/DaisyToolchain/0.2.0/arm/arm-none-eabi/include/c++/10.3.1/bits/std_abs.h **** // terms of the GNU General Public License as published by the
   8:/Library/DaisyToolchain/0.2.0/arm/arm-none-eabi/include/c++/10.3.1/bits/std_abs.h **** // Free Software Foundation; either version 3, or (at your option)
   9:/Library/DaisyToolchain/0.2.0/arm/arm-none-eabi/include/c++/10.3.1/bits/std_abs.h **** // any later version.
  10:/Library/DaisyToolchain/0.2.0/arm/arm-none-eabi/include/c++/10.3.1/bits/std_abs.h **** 
  11:/Library/DaisyToolchain/0.2.0/arm/arm-none-eabi/include/c++/10.3.1/bits/std_abs.h **** // This library is distributed in the hope that it will be useful,
  12:/Library/DaisyToolchain/0.2.0/arm/arm-none-eabi/include/c++/10.3.1/bits/std_abs.h **** // but WITHOUT ANY WARRANTY; without even the implied warranty of
  13:/Library/DaisyToolchain/0.2.0/arm/arm-none-eabi/include/c++/10.3.1/bits/std_abs.h **** // MERCHANTABILITY or FITNESS FOR A PARTICULAR PURPOSE.  See the
  14:/Library/DaisyToolchain/0.2.0/arm/arm-none-eabi/include/c++/10.3.1/bits/std_abs.h **** // GNU General Public License for more details.
  15:/Library/DaisyToolchain/0.2.0/arm/arm-none-eabi/include/c++/10.3.1/bits/std_abs.h **** 
  16:/Library/DaisyToolchain/0.2.0/arm/arm-none-eabi/include/c++/10.3.1/bits/std_abs.h **** // Under Section 7 of GPL version 3, you are granted additional
  17:/Library/DaisyToolchain/0.2.0/arm/arm-none-eabi/include/c++/10.3.1/bits/std_abs.h **** // permissions described in the GCC Runtime Library Exception, version
  18:/Library/DaisyToolchain/0.2.0/arm/arm-none-eabi/include/c++/10.3.1/bits/std_abs.h **** // 3.1, as published by the Free Software Foundation.
  19:/Library/DaisyToolchain/0.2.0/arm/arm-none-eabi/include/c++/10.3.1/bits/std_abs.h **** 
  20:/Library/DaisyToolchain/0.2.0/arm/arm-none-eabi/include/c++/10.3.1/bits/std_abs.h **** // You should have received a copy of the GNU General Public License and
  21:/Library/DaisyToolchain/0.2.0/arm/arm-none-eabi/include/c++/10.3.1/bits/std_abs.h **** // a copy of the GCC Runtime Library Exception along with this program;
  22:/Library/DaisyToolchain/0.2.0/arm/arm-none-eabi/include/c++/10.3.1/bits/std_abs.h **** // see the files COPYING3 and COPYING.RUNTIME respectively.  If not, see
  23:/Library/DaisyToolchain/0.2.0/arm/arm-none-eabi/include/c++/10.3.1/bits/std_abs.h **** // <http://www.gnu.org/licenses/>.
  24:/Library/DaisyToolchain/0.2.0/arm/arm-none-eabi/include/c++/10.3.1/bits/std_abs.h **** 
  25:/Library/DaisyToolchain/0.2.0/arm/arm-none-eabi/include/c++/10.3.1/bits/std_abs.h **** /** @file include/bits/std_abs.h
  26:/Library/DaisyToolchain/0.2.0/arm/arm-none-eabi/include/c++/10.3.1/bits/std_abs.h ****  *  This is an internal header file, included by other library headers.
ARM GAS  /var/folders/2p/02m_5p7958535cp2tpgps0400000gn/T//ccAOujCh.s 			page 14


  27:/Library/DaisyToolchain/0.2.0/arm/arm-none-eabi/include/c++/10.3.1/bits/std_abs.h ****  *  Do not attempt to use it directly. @headername{cmath, cstdlib}
  28:/Library/DaisyToolchain/0.2.0/arm/arm-none-eabi/include/c++/10.3.1/bits/std_abs.h ****  */
  29:/Library/DaisyToolchain/0.2.0/arm/arm-none-eabi/include/c++/10.3.1/bits/std_abs.h **** 
  30:/Library/DaisyToolchain/0.2.0/arm/arm-none-eabi/include/c++/10.3.1/bits/std_abs.h **** #ifndef _GLIBCXX_BITS_STD_ABS_H
  31:/Library/DaisyToolchain/0.2.0/arm/arm-none-eabi/include/c++/10.3.1/bits/std_abs.h **** #define _GLIBCXX_BITS_STD_ABS_H
  32:/Library/DaisyToolchain/0.2.0/arm/arm-none-eabi/include/c++/10.3.1/bits/std_abs.h **** 
  33:/Library/DaisyToolchain/0.2.0/arm/arm-none-eabi/include/c++/10.3.1/bits/std_abs.h **** #pragma GCC system_header
  34:/Library/DaisyToolchain/0.2.0/arm/arm-none-eabi/include/c++/10.3.1/bits/std_abs.h **** 
  35:/Library/DaisyToolchain/0.2.0/arm/arm-none-eabi/include/c++/10.3.1/bits/std_abs.h **** #include <bits/c++config.h>
  36:/Library/DaisyToolchain/0.2.0/arm/arm-none-eabi/include/c++/10.3.1/bits/std_abs.h **** 
  37:/Library/DaisyToolchain/0.2.0/arm/arm-none-eabi/include/c++/10.3.1/bits/std_abs.h **** #define _GLIBCXX_INCLUDE_NEXT_C_HEADERS
  38:/Library/DaisyToolchain/0.2.0/arm/arm-none-eabi/include/c++/10.3.1/bits/std_abs.h **** #include_next <stdlib.h>
  39:/Library/DaisyToolchain/0.2.0/arm/arm-none-eabi/include/c++/10.3.1/bits/std_abs.h **** #ifdef __CORRECT_ISO_CPP_MATH_H_PROTO
  40:/Library/DaisyToolchain/0.2.0/arm/arm-none-eabi/include/c++/10.3.1/bits/std_abs.h **** # include_next <math.h>
  41:/Library/DaisyToolchain/0.2.0/arm/arm-none-eabi/include/c++/10.3.1/bits/std_abs.h **** #endif
  42:/Library/DaisyToolchain/0.2.0/arm/arm-none-eabi/include/c++/10.3.1/bits/std_abs.h **** #undef _GLIBCXX_INCLUDE_NEXT_C_HEADERS
  43:/Library/DaisyToolchain/0.2.0/arm/arm-none-eabi/include/c++/10.3.1/bits/std_abs.h **** 
  44:/Library/DaisyToolchain/0.2.0/arm/arm-none-eabi/include/c++/10.3.1/bits/std_abs.h **** #undef abs
  45:/Library/DaisyToolchain/0.2.0/arm/arm-none-eabi/include/c++/10.3.1/bits/std_abs.h **** 
  46:/Library/DaisyToolchain/0.2.0/arm/arm-none-eabi/include/c++/10.3.1/bits/std_abs.h **** extern "C++"
  47:/Library/DaisyToolchain/0.2.0/arm/arm-none-eabi/include/c++/10.3.1/bits/std_abs.h **** {
  48:/Library/DaisyToolchain/0.2.0/arm/arm-none-eabi/include/c++/10.3.1/bits/std_abs.h **** namespace std _GLIBCXX_VISIBILITY(default)
  49:/Library/DaisyToolchain/0.2.0/arm/arm-none-eabi/include/c++/10.3.1/bits/std_abs.h **** {
  50:/Library/DaisyToolchain/0.2.0/arm/arm-none-eabi/include/c++/10.3.1/bits/std_abs.h **** _GLIBCXX_BEGIN_NAMESPACE_VERSION
  51:/Library/DaisyToolchain/0.2.0/arm/arm-none-eabi/include/c++/10.3.1/bits/std_abs.h **** 
  52:/Library/DaisyToolchain/0.2.0/arm/arm-none-eabi/include/c++/10.3.1/bits/std_abs.h ****   using ::abs;
  53:/Library/DaisyToolchain/0.2.0/arm/arm-none-eabi/include/c++/10.3.1/bits/std_abs.h **** 
  54:/Library/DaisyToolchain/0.2.0/arm/arm-none-eabi/include/c++/10.3.1/bits/std_abs.h **** #ifndef __CORRECT_ISO_CPP_STDLIB_H_PROTO
  55:/Library/DaisyToolchain/0.2.0/arm/arm-none-eabi/include/c++/10.3.1/bits/std_abs.h ****   inline long
  56:/Library/DaisyToolchain/0.2.0/arm/arm-none-eabi/include/c++/10.3.1/bits/std_abs.h ****   abs(long __i) { return __builtin_labs(__i); }
  57:/Library/DaisyToolchain/0.2.0/arm/arm-none-eabi/include/c++/10.3.1/bits/std_abs.h **** #endif
  58:/Library/DaisyToolchain/0.2.0/arm/arm-none-eabi/include/c++/10.3.1/bits/std_abs.h **** 
  59:/Library/DaisyToolchain/0.2.0/arm/arm-none-eabi/include/c++/10.3.1/bits/std_abs.h **** #ifdef _GLIBCXX_USE_LONG_LONG
  60:/Library/DaisyToolchain/0.2.0/arm/arm-none-eabi/include/c++/10.3.1/bits/std_abs.h ****   inline long long
  61:/Library/DaisyToolchain/0.2.0/arm/arm-none-eabi/include/c++/10.3.1/bits/std_abs.h ****   abs(long long __x) { return __builtin_llabs (__x); }
  62:/Library/DaisyToolchain/0.2.0/arm/arm-none-eabi/include/c++/10.3.1/bits/std_abs.h **** #endif
  63:/Library/DaisyToolchain/0.2.0/arm/arm-none-eabi/include/c++/10.3.1/bits/std_abs.h **** 
  64:/Library/DaisyToolchain/0.2.0/arm/arm-none-eabi/include/c++/10.3.1/bits/std_abs.h **** // _GLIBCXX_RESOLVE_LIB_DEFECTS
  65:/Library/DaisyToolchain/0.2.0/arm/arm-none-eabi/include/c++/10.3.1/bits/std_abs.h **** // 2192. Validity and return type of std::abs(0u) is unclear
  66:/Library/DaisyToolchain/0.2.0/arm/arm-none-eabi/include/c++/10.3.1/bits/std_abs.h **** // 2294. <cstdlib> should declare abs(double)
  67:/Library/DaisyToolchain/0.2.0/arm/arm-none-eabi/include/c++/10.3.1/bits/std_abs.h **** // 2735. std::abs(short), std::abs(signed char) and others should return int
  68:/Library/DaisyToolchain/0.2.0/arm/arm-none-eabi/include/c++/10.3.1/bits/std_abs.h **** 
  69:/Library/DaisyToolchain/0.2.0/arm/arm-none-eabi/include/c++/10.3.1/bits/std_abs.h **** #ifndef __CORRECT_ISO_CPP_MATH_H_PROTO
  70:/Library/DaisyToolchain/0.2.0/arm/arm-none-eabi/include/c++/10.3.1/bits/std_abs.h ****   inline _GLIBCXX_CONSTEXPR double
  71:/Library/DaisyToolchain/0.2.0/arm/arm-none-eabi/include/c++/10.3.1/bits/std_abs.h ****   abs(double __x)
  72:/Library/DaisyToolchain/0.2.0/arm/arm-none-eabi/include/c++/10.3.1/bits/std_abs.h ****   { return __builtin_fabs(__x); }
  73:/Library/DaisyToolchain/0.2.0/arm/arm-none-eabi/include/c++/10.3.1/bits/std_abs.h **** 
  74:/Library/DaisyToolchain/0.2.0/arm/arm-none-eabi/include/c++/10.3.1/bits/std_abs.h ****   inline _GLIBCXX_CONSTEXPR float
  75:/Library/DaisyToolchain/0.2.0/arm/arm-none-eabi/include/c++/10.3.1/bits/std_abs.h ****   abs(float __x)
 251              		.loc 6 75 3 view .LVU59
 252              	.LBB244:
  76:/Library/DaisyToolchain/0.2.0/arm/arm-none-eabi/include/c++/10.3.1/bits/std_abs.h ****   { return __builtin_fabsf(__x); }
 253              		.loc 6 76 5 view .LVU60
 254              	.LBE244:
 255              	.LBE243:
 256              		.loc 3 44 41 is_stmt 0 view .LVU61
 257 001c 29EE2A6A 		vmul.f32	s12, s18, s21
ARM GAS  /var/folders/2p/02m_5p7958535cp2tpgps0400000gn/T//ccAOujCh.s 			page 15


 258              	.LVL15:
 259              		.loc 3 44 22 view .LVU62
 260 0020 9FED33AA 		vldr.32	s20, .L21+16
 261              	.LBB246:
 262              	.LBB247:
 263              		.loc 5 128 23 view .LVU63
 264 0024 3348     		ldr	r0, .L21+20
 265              	.LBE247:
 266              	.LBE246:
 267              		.loc 3 44 22 view .LVU64
 268 0026 B4EECA6A 		vcmpe.f32	s12, s20
 269              	.LBB250:
 270              	.LBB245:
 271              		.loc 6 76 31 view .LVU65
 272 002a B0EEC66A 		vabs.f32	s12, s12
 273              	.LVL16:
 274              		.loc 6 76 31 view .LVU66
 275              	.LBE245:
 276              	.LBE250:
 277              		.loc 3 44 41 view .LVU67
 278 002e 9FED2C9B 		vldr.64	d9, .L21
 279              	.LVL17:
 280              		.loc 3 44 22 view .LVU68
 281 0032 FDEEC67A 		vcvt.s32.f32	s15, s12
 282              	.LVL18:
 283              		.loc 6 76 5 is_stmt 1 view .LVU69
 284              		.loc 6 76 5 view .LVU70
 285              		.loc 3 44 22 is_stmt 0 view .LVU71
 286 0036 F1EE10FA 		vmrs	APSR_nzcv, FPSCR
 287              	.LVL19:
 288              	.LBB251:
 289              	.LBI246:
 126:../libDaisy/src/daisy_seed.h ****     {
 290              		.loc 5 126 17 is_stmt 1 view .LVU72
 291              	.LBE251:
 292              		.loc 3 44 41 is_stmt 0 view .LVU73
 293 003a B8EEE77A 		vcvt.f32.s32	s14, s15
 294              	.LVL20:
 295              	.LBB252:
 296              	.LBB248:
 297              		.loc 5 128 23 view .LVU74
 298 003e 17EE902A 		vmov	r2, s15	@ int
 299 0042 4CBF     		ite	mi
 300 0044 2D21     		movmi	r1, #45
 301 0046 2021     		movpl	r1, #32
 302              	.LBE248:
 303              	.LBE252:
 304              		.loc 3 44 41 view .LVU75
 305 0048 36EE476A 		vsub.f32	s12, s12, s14
 306              	.LVL21:
 307              		.loc 3 44 41 view .LVU76
 308 004c B7EEC66A 		vcvt.f64.f32	d6, s12
 309 0050 26EE096B 		vmul.f64	d6, d6, d9
 310              	.LBB253:
 311              	.LBB249:
 312              		.loc 5 128 23 view .LVU77
 313 0054 BDEEC67B 		vcvt.s32.f64	s14, d6
ARM GAS  /var/folders/2p/02m_5p7958535cp2tpgps0400000gn/T//ccAOujCh.s 			page 16


 314 0058 17EE103A 		vmov	r3, s14	@ int
 315 005c FFF7FEFF 		bl	_ZN5daisy6LoggerILNS_17LoggerDestinationE1EE9PrintLineEPKcz
 316              	.LVL22:
 317              		.loc 5 128 23 view .LVU78
 318              	.LBE249:
 319              	.LBE253:
  45:GrannyChordApp.cpp ****   pod_.seed.PrintLine("Avg: " FLT_FMT3, FLT_VAR3(avgLoad * 100.0f));
 320              		.loc 3 45 3 is_stmt 1 view .LVU79
 321              	.LBB254:
 322              	.LBI254:
  75:/Library/DaisyToolchain/0.2.0/arm/arm-none-eabi/include/c++/10.3.1/bits/std_abs.h ****   { return __builtin_fabsf(__x); }
 323              		.loc 6 75 3 view .LVU80
 324              	.LBB255:
 325              		.loc 6 76 5 view .LVU81
 326              	.LBE255:
 327              	.LBE254:
 328              		.loc 3 45 41 is_stmt 0 view .LVU82
 329 0060 28EEAA6A 		vmul.f32	s12, s17, s21
 330              	.LVL23:
 331              	.LBB257:
 332              	.LBB258:
 333              		.loc 5 128 23 view .LVU83
 334 0064 2448     		ldr	r0, .L21+24
 335              	.LBE258:
 336              	.LBE257:
 337              		.loc 3 45 22 view .LVU84
 338 0066 B4EECA6A 		vcmpe.f32	s12, s20
 339              	.LBB262:
 340              	.LBB256:
 341              		.loc 6 76 31 view .LVU85
 342 006a B0EEC66A 		vabs.f32	s12, s12
 343              	.LVL24:
 344              		.loc 6 76 31 view .LVU86
 345              	.LBE256:
 346              	.LBE262:
 347              		.loc 3 45 22 view .LVU87
 348 006e F1EE10FA 		vmrs	APSR_nzcv, FPSCR
 349 0072 FDEEC67A 		vcvt.s32.f32	s15, s12
 350              	.LVL25:
 351              		.loc 6 76 5 is_stmt 1 view .LVU88
 352              		.loc 6 76 5 view .LVU89
 353              	.LBB263:
 354              	.LBI257:
 126:../libDaisy/src/daisy_seed.h ****     {
 355              		.loc 5 126 17 view .LVU90
 356              	.LBB259:
 357              		.loc 5 128 23 is_stmt 0 view .LVU91
 358 0076 4CBF     		ite	mi
 359 0078 2D21     		movmi	r1, #45
 360 007a 2021     		movpl	r1, #32
 361              	.LBE259:
 362              	.LBE263:
 363              		.loc 3 45 41 view .LVU92
 364 007c B8EEE77A 		vcvt.f32.s32	s14, s15
 365              	.LVL26:
 366              	.LBB264:
 367              	.LBB260:
ARM GAS  /var/folders/2p/02m_5p7958535cp2tpgps0400000gn/T//ccAOujCh.s 			page 17


 368              		.loc 5 128 23 view .LVU93
 369 0080 17EE902A 		vmov	r2, s15	@ int
 370              	.LBE260:
 371              	.LBE264:
 372              		.loc 3 45 41 view .LVU94
 373 0084 36EE476A 		vsub.f32	s12, s12, s14
 374              	.LVL27:
 375              		.loc 3 45 41 view .LVU95
 376 0088 B7EEC66A 		vcvt.f64.f32	d6, s12
 377 008c 26EE096B 		vmul.f64	d6, d6, d9
 378              	.LBB265:
 379              	.LBB261:
 380              		.loc 5 128 23 view .LVU96
 381 0090 BDEEC67B 		vcvt.s32.f64	s14, d6
 382              	.LVL28:
 383              		.loc 5 128 23 view .LVU97
 384 0094 17EE103A 		vmov	r3, s14	@ int
 385 0098 FFF7FEFF 		bl	_ZN5daisy6LoggerILNS_17LoggerDestinationE1EE9PrintLineEPKcz
 386              	.LVL29:
 387              		.loc 5 128 23 view .LVU98
 388              	.LBE261:
 389              	.LBE265:
  46:GrannyChordApp.cpp ****   pod_.seed.PrintLine("Min: " FLT_FMT3, FLT_VAR3(minLoad * 100.0f));
 390              		.loc 3 46 3 is_stmt 1 view .LVU99
 391              	.LBB266:
 392              	.LBI266:
  75:/Library/DaisyToolchain/0.2.0/arm/arm-none-eabi/include/c++/10.3.1/bits/std_abs.h ****   { return __builtin_fabsf(__x); }
 393              		.loc 6 75 3 view .LVU100
 394              	.LBB267:
 395              		.loc 6 76 5 view .LVU101
 396              	.LBE267:
 397              	.LBE266:
 398              		.loc 3 46 41 is_stmt 0 view .LVU102
 399 009c 28EE2A7A 		vmul.f32	s14, s16, s21
 400              	.LVL30:
 401              	.LBB269:
 402              	.LBB270:
 403              		.loc 5 128 23 view .LVU103
 404 00a0 1648     		ldr	r0, .L21+28
 405              	.LBE270:
 406              	.LBE269:
 407              		.loc 3 46 22 view .LVU104
 408 00a2 B4EECA7A 		vcmpe.f32	s14, s20
 409              	.LBB275:
 410              	.LBB268:
 411              		.loc 6 76 31 view .LVU105
 412 00a6 B0EEC77A 		vabs.f32	s14, s14
 413              	.LVL31:
 414              		.loc 6 76 31 view .LVU106
 415              	.LBE268:
 416              	.LBE275:
 417              		.loc 3 46 22 view .LVU107
 418 00aa F1EE10FA 		vmrs	APSR_nzcv, FPSCR
 419 00ae FDEEC76A 		vcvt.s32.f32	s13, s14
 420              	.LVL32:
 421              		.loc 6 76 5 is_stmt 1 view .LVU108
 422              		.loc 6 76 5 view .LVU109
ARM GAS  /var/folders/2p/02m_5p7958535cp2tpgps0400000gn/T//ccAOujCh.s 			page 18


 423              	.LBB276:
 424              	.LBI269:
 126:../libDaisy/src/daisy_seed.h ****     {
 425              		.loc 5 126 17 view .LVU110
 426              	.LBB271:
 427              		.loc 5 128 23 is_stmt 0 view .LVU111
 428 00b2 4CBF     		ite	mi
 429 00b4 2D21     		movmi	r1, #45
 430 00b6 2021     		movpl	r1, #32
 431              	.LBE271:
 432              	.LBE276:
 433              		.loc 3 46 41 view .LVU112
 434 00b8 F8EEE67A 		vcvt.f32.s32	s15, s13
 435              	.LVL33:
 436              	.LBB277:
 437              	.LBB272:
 438              		.loc 5 128 23 view .LVU113
 439 00bc 16EE902A 		vmov	r2, s13	@ int
 440              	.LBE272:
 441              	.LBE277:
 442              		.loc 3 46 41 view .LVU114
 443 00c0 37EE677A 		vsub.f32	s14, s14, s15
 444              	.LVL34:
 445              		.loc 3 46 41 view .LVU115
 446 00c4 B7EEC77A 		vcvt.f64.f32	d7, s14
 447 00c8 27EE097B 		vmul.f64	d7, d7, d9
  47:GrannyChordApp.cpp **** }
 448              		.loc 3 47 1 view .LVU116
 449 00cc BDEC068B 		vldm	sp!, {d8-d10}
 450              		.cfi_restore 84
 451              		.cfi_restore 85
 452              		.cfi_restore 82
 453              		.cfi_restore 83
 454              		.cfi_restore 80
 455              		.cfi_restore 81
 456              		.cfi_def_cfa_offset 8
 457              	.LVL35:
 458              	.LBB278:
 459              	.LBB273:
 460              		.loc 5 128 23 view .LVU117
 461 00d0 FDEEC77B 		vcvt.s32.f64	s15, d7
 462              	.LBE273:
 463              	.LBE278:
 464              		.loc 3 47 1 view .LVU118
 465 00d4 BDE81040 		pop	{r4, lr}
 466              		.cfi_restore 14
 467              		.cfi_restore 4
 468              		.cfi_def_cfa_offset 0
 469              	.LBB279:
 470              	.LBB274:
 471              		.loc 5 128 23 view .LVU119
 472 00d8 17EE903A 		vmov	r3, s15	@ int
 473 00dc FFF7FEBF 		b	_ZN5daisy6LoggerILNS_17LoggerDestinationE1EE9PrintLineEPKcz
 474              	.LVL36:
 475              	.L22:
 476              		.loc 5 128 23 view .LVU120
 477              		.align	3
ARM GAS  /var/folders/2p/02m_5p7958535cp2tpgps0400000gn/T//ccAOujCh.s 			page 19


 478              	.L21:
 479 00e0 00000000 		.word	0
 480 00e4 00408F40 		.word	1083129856
 481 00e8 0000C842 		.word	1120403456
 482 00ec 00000000 		.word	.LC0
 483 00f0 00000000 		.word	0
 484 00f4 13000000 		.word	.LC1
 485 00f8 22000000 		.word	.LC2
 486 00fc 31000000 		.word	.LC3
 487              	.LBE274:
 488              	.LBE279:
 489              		.cfi_endproc
 490              	.LFE4911:
 492              		.section	.text._ZN14GrannyChordApp20HandleEncoderPressedEv,"ax",%progbits
 493              		.align	1
 494              		.global	_ZN14GrannyChordApp20HandleEncoderPressedEv
 495              		.syntax unified
 496              		.thumb
 497              		.thumb_func
 499              	_ZN14GrannyChordApp20HandleEncoderPressedEv:
 500              	.LVL37:
 501              	.LFB4917:
  48:GrannyChordApp.cpp **** #endif
  49:GrannyChordApp.cpp **** 
  50:GrannyChordApp.cpp **** /// @brief Loops whilst app is running, updating state and UI, handling 
  51:GrannyChordApp.cpp **** ///        state transitions, updating parameters and managing audio recordings
  52:GrannyChordApp.cpp **** void GrannyChordApp::Run(){
  53:GrannyChordApp.cpp ****   pod_.seed.PrintLine("app is running");
  54:GrannyChordApp.cpp ****   while(true){
  55:GrannyChordApp.cpp ****     // #ifdef DEBUG_MODE
  56:GrannyChordApp.cpp ****     // loop_count++;
  57:GrannyChordApp.cpp ****     // if (loop_count%2000000==0){
  58:GrannyChordApp.cpp ****     //   PrintCPULoad();
  59:GrannyChordApp.cpp ****     //   loop_count=0;
  60:GrannyChordApp.cpp ****     //   // System::Delay(500);
  61:GrannyChordApp.cpp ****     // }
  62:GrannyChordApp.cpp ****     // #endif
  63:GrannyChordApp.cpp **** 
  64:GrannyChordApp.cpp ****     if (recording_out_) {
  65:GrannyChordApp.cpp ****       sd_writer_.Write();
  66:GrannyChordApp.cpp ****       if (sd_writer_.GetLengthSeconds()>120){
  67:GrannyChordApp.cpp ****         sd_writer_.SaveFile();
  68:GrannyChordApp.cpp ****         recording_out_ = false;
  69:GrannyChordApp.cpp ****       }
  70:GrannyChordApp.cpp ****     }
  71:GrannyChordApp.cpp ****     UpdateUI();
  72:GrannyChordApp.cpp ****     UpdateSynthParams();
  73:GrannyChordApp.cpp ****     // System::Delay(1);
  74:GrannyChordApp.cpp ****   }
  75:GrannyChordApp.cpp **** }
  76:GrannyChordApp.cpp **** 
  77:GrannyChordApp.cpp **** /// @brief Handles hardware control inputs and calls state change methods
  78:GrannyChordApp.cpp **** void GrannyChordApp::UpdateUI(){
  79:GrannyChordApp.cpp ****   pod_.ProcessDigitalControls();
  80:GrannyChordApp.cpp **** 
  81:GrannyChordApp.cpp ****   if (pod_.encoder.TimeHeldMs() > 1000.0f) HandleEncoderLongPress();
  82:GrannyChordApp.cpp ****   else if (pod_.encoder.FallingEdge()) HandleEncoderPressed();
ARM GAS  /var/folders/2p/02m_5p7958535cp2tpgps0400000gn/T//ccAOujCh.s 			page 20


  83:GrannyChordApp.cpp **** 
  84:GrannyChordApp.cpp ****   if (curr_state_==AppState::Synthesis){
  85:GrannyChordApp.cpp ****     ButtonHandler();
  86:GrannyChordApp.cpp ****   }
  87:GrannyChordApp.cpp **** 
  88:GrannyChordApp.cpp ****   int32_t encoder_inc = pod_.encoder.Increment();
  89:GrannyChordApp.cpp ****   if (encoder_inc!=0){
  90:GrannyChordApp.cpp ****     HandleEncoderIncrement(encoder_inc);
  91:GrannyChordApp.cpp ****   }
  92:GrannyChordApp.cpp ****   if (curr_state_ != next_state_){
  93:GrannyChordApp.cpp ****     #ifdef DEBUG_MODE
  94:GrannyChordApp.cpp ****     DebugPrintState(curr_state_);
  95:GrannyChordApp.cpp ****     DebugPrint(pod_, "switching states");
  96:GrannyChordApp.cpp ****     DebugPrintState(next_state_);
  97:GrannyChordApp.cpp ****     #endif
  98:GrannyChordApp.cpp ****     HandleStateChange();
  99:GrannyChordApp.cpp ****   }
 100:GrannyChordApp.cpp **** }
 101:GrannyChordApp.cpp **** 
 102:GrannyChordApp.cpp **** /// @brief handles transitions between states and prepares for next state
 103:GrannyChordApp.cpp **** void GrannyChordApp::HandleStateChange(){
 104:GrannyChordApp.cpp ****   switch(next_state_){
 105:GrannyChordApp.cpp ****     case AppState::SelectFile:
 106:GrannyChordApp.cpp ****       pod_.StopAudio();
 107:GrannyChordApp.cpp ****       DebugPrint(pod_, "stopped audio for select file");
 108:GrannyChordApp.cpp ****       curr_state_ = AppState::SelectFile;
 109:GrannyChordApp.cpp ****       break; 
 110:GrannyChordApp.cpp ****     case AppState::RecordIn:
 111:GrannyChordApp.cpp ****       InitRecordIn();
 112:GrannyChordApp.cpp ****       DebugPrint(pod_, "Recording in");
 113:GrannyChordApp.cpp ****       curr_state_ = AppState::RecordIn;  
 114:GrannyChordApp.cpp ****       break;
 115:GrannyChordApp.cpp ****     case AppState::PlayWAV:
 116:GrannyChordApp.cpp ****       InitPlayback(); 
 117:GrannyChordApp.cpp ****       curr_state_ = AppState::PlayWAV;
 118:GrannyChordApp.cpp ****       break;
 119:GrannyChordApp.cpp ****     case AppState::Synthesis:
 120:GrannyChordApp.cpp ****       InitSynth();
 121:GrannyChordApp.cpp ****       curr_state_ = AppState::Synthesis;
 122:GrannyChordApp.cpp ****       DebugPrint(pod_, "started audiocallback");
 123:GrannyChordApp.cpp ****       break;
 124:GrannyChordApp.cpp ****     case AppState::Error: 
 125:GrannyChordApp.cpp ****       curr_state_ = AppState::Error;
 126:GrannyChordApp.cpp ****       break;
 127:GrannyChordApp.cpp ****     default: 
 128:GrannyChordApp.cpp ****       break;
 129:GrannyChordApp.cpp ****   }
 130:GrannyChordApp.cpp ****   SetLed1AppState();
 131:GrannyChordApp.cpp **** }
 132:GrannyChordApp.cpp **** 
 133:GrannyChordApp.cpp **** /// @brief Handles when encoder is scrolled to select a file 
 134:GrannyChordApp.cpp **** /// @param encoder_inc amount the encoder has been scrolled/incremented
 135:GrannyChordApp.cpp **** void GrannyChordApp::HandleEncoderIncrement(int encoder_inc){
 136:GrannyChordApp.cpp ****   if (next_state_== AppState::SelectFile){
 137:GrannyChordApp.cpp ****     recorded_in_ = false;
 138:GrannyChordApp.cpp ****     HandleFileSelection(encoder_inc);
 139:GrannyChordApp.cpp ****   }
ARM GAS  /var/folders/2p/02m_5p7958535cp2tpgps0400000gn/T//ccAOujCh.s 			page 21


 140:GrannyChordApp.cpp ****   else if (curr_state_==AppState::PlayWAV){
 141:GrannyChordApp.cpp ****     recorded_in_ = false;
 142:GrannyChordApp.cpp ****     next_state_ = AppState::SelectFile;
 143:GrannyChordApp.cpp ****   }
 144:GrannyChordApp.cpp **** }
 145:GrannyChordApp.cpp **** 
 146:GrannyChordApp.cpp **** /// @brief handles when the encoder is pressed down (not held)
 147:GrannyChordApp.cpp **** void GrannyChordApp::HandleEncoderPressed(){
 502              		.loc 3 147 44 is_stmt 1 view -0
 503              		.cfi_startproc
 504              		@ args = 0, pretend = 0, frame = 0
 505              		@ frame_needed = 0, uses_anonymous_args = 0
 506              		@ link register save eliminated.
 148:GrannyChordApp.cpp ****   switch(curr_state_){
 507              		.loc 3 148 3 view .LVU122
 508              		.loc 3 148 10 is_stmt 0 view .LVU123
 509 0000 D0F87832 		ldr	r3, [r0, #632]
 510              		.loc 3 148 3 view .LVU124
 511 0004 012B     		cmp	r3, #1
 512 0006 0CD0     		beq	.L24
 513 0008 032B     		cmp	r3, #3
 514 000a 04D0     		beq	.L25
 515 000c 13B9     		cbnz	r3, .L23
 149:GrannyChordApp.cpp ****     case AppState::SelectFile:
 516              		.loc 3 149 5 is_stmt 1 view .LVU125
 150:GrannyChordApp.cpp ****       next_state_ = AppState::PlayWAV;
 517              		.loc 3 150 7 view .LVU126
 518              		.loc 3 150 19 is_stmt 0 view .LVU127
 519 000e 0123     		movs	r3, #1
 520              	.L27:
 151:GrannyChordApp.cpp ****       return;
 152:GrannyChordApp.cpp ****     case AppState::RecordIn: 
 153:GrannyChordApp.cpp ****       recorded_in_ = true;
 154:GrannyChordApp.cpp ****       next_state_ = AppState::PlayWAV; 
 155:GrannyChordApp.cpp ****       return;
 156:GrannyChordApp.cpp ****     case AppState::PlayWAV:
 157:GrannyChordApp.cpp ****       next_state_ = AppState::Synthesis;
 521              		.loc 3 157 19 view .LVU128
 522 0010 C0F87C32 		str	r3, [r0, #636]
 158:GrannyChordApp.cpp ****       return;
 523              		.loc 3 158 7 is_stmt 1 view .LVU129
 524              	.L23:
 159:GrannyChordApp.cpp ****     default:
 160:GrannyChordApp.cpp ****       return;
 161:GrannyChordApp.cpp ****   }
 162:GrannyChordApp.cpp **** }
 525              		.loc 3 162 1 is_stmt 0 view .LVU130
 526 0014 7047     		bx	lr
 527              	.L25:
 152:GrannyChordApp.cpp ****       recorded_in_ = true;
 528              		.loc 3 152 5 is_stmt 1 view .LVU131
 153:GrannyChordApp.cpp ****       next_state_ = AppState::PlayWAV; 
 529              		.loc 3 153 7 view .LVU132
 153:GrannyChordApp.cpp ****       next_state_ = AppState::PlayWAV; 
 530              		.loc 3 153 20 is_stmt 0 view .LVU133
 531 0016 00F55042 		add	r2, r0, #53248
 532 001a 0123     		movs	r3, #1
ARM GAS  /var/folders/2p/02m_5p7958535cp2tpgps0400000gn/T//ccAOujCh.s 			page 22


 533 001c 82F8E431 		strb	r3, [r2, #484]
 154:GrannyChordApp.cpp ****       return;
 534              		.loc 3 154 7 is_stmt 1 view .LVU134
 535 0020 F6E7     		b	.L27
 536              	.L24:
 156:GrannyChordApp.cpp ****       next_state_ = AppState::Synthesis;
 537              		.loc 3 156 5 view .LVU135
 157:GrannyChordApp.cpp ****       return;
 538              		.loc 3 157 7 view .LVU136
 157:GrannyChordApp.cpp ****       return;
 539              		.loc 3 157 19 is_stmt 0 view .LVU137
 540 0022 0223     		movs	r3, #2
 541 0024 F4E7     		b	.L27
 542              		.cfi_endproc
 543              	.LFE4917:
 545              		.section	.text._ZN14GrannyChordApp22HandleEncoderLongPressEv,"ax",%progbits
 546              		.align	1
 547              		.global	_ZN14GrannyChordApp22HandleEncoderLongPressEv
 548              		.syntax unified
 549              		.thumb
 550              		.thumb_func
 552              	_ZN14GrannyChordApp22HandleEncoderLongPressEv:
 553              	.LVL38:
 554              	.LFB4918:
 163:GrannyChordApp.cpp **** 
 164:GrannyChordApp.cpp **** /// @brief switch between states by long pressing encoder.
 165:GrannyChordApp.cpp **** ///        much simpler than below!
 166:GrannyChordApp.cpp **** void GrannyChordApp::HandleEncoderLongPress(){
 555              		.loc 3 166 46 is_stmt 1 view -0
 556              		.cfi_startproc
 557              		@ args = 0, pretend = 0, frame = 0
 558              		@ frame_needed = 0, uses_anonymous_args = 0
 559              		.loc 3 166 46 is_stmt 0 view .LVU139
 560 0000 10B5     		push	{r4, lr}
 561              		.cfi_def_cfa_offset 8
 562              		.cfi_offset 4, -8
 563              		.cfi_offset 14, -4
 564 0002 0446     		mov	r4, r0
 565              	.LVL39:
 566              	.L34:
 167:GrannyChordApp.cpp ****   do { pod_.encoder.Debounce();  }
 567              		.loc 3 167 3 is_stmt 1 view .LVU140
 568              		.loc 3 167 8 view .LVU141
 569              		.loc 3 167 29 is_stmt 0 view .LVU142
 570 0004 E069     		ldr	r0, [r4, #28]
 571 0006 4030     		adds	r0, r0, #64
 572 0008 FFF7FEFF 		bl	_ZN5daisy7Encoder8DebounceEv
 573              	.LVL40:
 168:GrannyChordApp.cpp ****   while(!pod_.encoder.FallingEdge());
 574              		.loc 3 168 9 is_stmt 1 view .LVU143
 575              		.loc 3 168 10 is_stmt 0 view .LVU144
 576 000c E369     		ldr	r3, [r4, #28]
 577              	.LVL41:
 578              	.LBB284:
 579              	.LBI284:
 580              		.file 7 "../libDaisy/src/hid/encoder.h"
   1:../libDaisy/src/hid/encoder.h **** #pragma once
ARM GAS  /var/folders/2p/02m_5p7958535cp2tpgps0400000gn/T//ccAOujCh.s 			page 23


   2:../libDaisy/src/hid/encoder.h **** #ifndef DSY_ENCODER_H
   3:../libDaisy/src/hid/encoder.h **** #define DSY_ENCODER_H
   4:../libDaisy/src/hid/encoder.h **** #include "daisy_core.h"
   5:../libDaisy/src/hid/encoder.h **** #include "per/gpio.h"
   6:../libDaisy/src/hid/encoder.h **** #include "hid/switch.h"
   7:../libDaisy/src/hid/encoder.h **** 
   8:../libDaisy/src/hid/encoder.h **** namespace daisy
   9:../libDaisy/src/hid/encoder.h **** {
  10:../libDaisy/src/hid/encoder.h **** /** 
  11:../libDaisy/src/hid/encoder.h ****     @brief Generic Class for handling Quadrature Encoders \n 
  12:../libDaisy/src/hid/encoder.h ****     Inspired/influenced by Mutable Instruments (pichenettes) Encoder classes
  13:../libDaisy/src/hid/encoder.h ****     @author Stephen Hensley
  14:../libDaisy/src/hid/encoder.h ****     @date December 2019
  15:../libDaisy/src/hid/encoder.h ****     @ingroup controls
  16:../libDaisy/src/hid/encoder.h **** */
  17:../libDaisy/src/hid/encoder.h **** class Encoder
  18:../libDaisy/src/hid/encoder.h **** {
  19:../libDaisy/src/hid/encoder.h ****   public:
  20:../libDaisy/src/hid/encoder.h ****     Encoder() {}
  21:../libDaisy/src/hid/encoder.h ****     ~Encoder() {}
  22:../libDaisy/src/hid/encoder.h **** 
  23:../libDaisy/src/hid/encoder.h ****     /** Initializes the encoder with the specified hardware pins.
  24:../libDaisy/src/hid/encoder.h ****      * Update rate is to be deprecated in a future release
  25:../libDaisy/src/hid/encoder.h ****      */
  26:../libDaisy/src/hid/encoder.h ****     void Init(dsy_gpio_pin a,
  27:../libDaisy/src/hid/encoder.h ****               dsy_gpio_pin b,
  28:../libDaisy/src/hid/encoder.h ****               dsy_gpio_pin click,
  29:../libDaisy/src/hid/encoder.h ****               float        update_rate = 0.f);
  30:../libDaisy/src/hid/encoder.h ****     /** Called at update_rate to debounce and handle timing for the switch.
  31:../libDaisy/src/hid/encoder.h ****      * In order for events not to be missed, its important that the Edge/Pressed checks be made at 
  32:../libDaisy/src/hid/encoder.h ****      */
  33:../libDaisy/src/hid/encoder.h ****     void Debounce();
  34:../libDaisy/src/hid/encoder.h **** 
  35:../libDaisy/src/hid/encoder.h ****     /** Returns +1 if the encoder was turned clockwise, -1 if it was turned counter-clockwise, or 0
  36:../libDaisy/src/hid/encoder.h ****     inline int32_t Increment() const { return updated_ ? inc_ : 0; }
  37:../libDaisy/src/hid/encoder.h **** 
  38:../libDaisy/src/hid/encoder.h ****     /** Returns true if the encoder was just pressed. */
  39:../libDaisy/src/hid/encoder.h ****     inline bool RisingEdge() const { return sw_.RisingEdge(); }
  40:../libDaisy/src/hid/encoder.h **** 
  41:../libDaisy/src/hid/encoder.h ****     /** Returns true if the encoder was just released. */
  42:../libDaisy/src/hid/encoder.h ****     inline bool FallingEdge() const { return sw_.FallingEdge(); }
 581              		.loc 7 42 17 is_stmt 1 view .LVU145
 582              	.LBE284:
 583              		.loc 7 42 39 view .LVU146
 584              	.LBB287:
 585              	.LBB285:
 586              	.LBI285:
  73:../libDaisy/src/hid/switch.h ****     {
 587              		.loc 1 73 17 view .LVU147
 588              	.LBB286:
  75:../libDaisy/src/hid/switch.h ****     }
 589              		.loc 1 75 9 view .LVU148
  75:../libDaisy/src/hid/switch.h ****     }
 590              		.loc 1 75 25 is_stmt 0 view .LVU149
 591 000e 93F84C20 		ldrb	r2, [r3, #76]	@ zero_extendqisi2
 592 0012 002A     		cmp	r2, #0
 593 0014 F6D0     		beq	.L34
ARM GAS  /var/folders/2p/02m_5p7958535cp2tpgps0400000gn/T//ccAOujCh.s 			page 24


 594              	.LVL42:
  75:../libDaisy/src/hid/switch.h ****     }
 595              		.loc 1 75 25 view .LVU150
 596              	.LBE286:
 597              	.LBE285:
 598              	.LBE287:
 599              		.loc 3 168 9 view .LVU151
 600 0016 93F85230 		ldrb	r3, [r3, #82]	@ zero_extendqisi2
 601 001a 802B     		cmp	r3, #128
 602 001c F2D1     		bne	.L34
 169:GrannyChordApp.cpp ****   switch(curr_state_){
 603              		.loc 3 169 3 is_stmt 1 view .LVU152
 604              		.loc 3 169 10 is_stmt 0 view .LVU153
 605 001e D4F87832 		ldr	r3, [r4, #632]
 606              		.loc 3 169 3 view .LVU154
 607 0022 012B     		cmp	r3, #1
 608 0024 08DC     		bgt	.L30
 609 0026 002B     		cmp	r3, #0
 610 0028 0CDB     		blt	.L28
 170:GrannyChordApp.cpp ****     case AppState::Synthesis:
 171:GrannyChordApp.cpp ****     case AppState::RecordIn:  
 172:GrannyChordApp.cpp ****       next_state_ = AppState::SelectFile;
 173:GrannyChordApp.cpp ****       return;
 174:GrannyChordApp.cpp ****     case AppState::SelectFile:
 611              		.loc 3 174 5 is_stmt 1 view .LVU155
 175:GrannyChordApp.cpp ****     case AppState::PlayWAV: 
 612              		.loc 3 175 5 view .LVU156
 176:GrannyChordApp.cpp ****       recorded_in_ = true;
 613              		.loc 3 176 7 view .LVU157
 614              		.loc 3 176 20 is_stmt 0 view .LVU158
 615 002a 04F55043 		add	r3, r4, #53248
 616 002e 0122     		movs	r2, #1
 617 0030 83F8E421 		strb	r2, [r3, #484]
 177:GrannyChordApp.cpp ****       next_state_ = AppState::RecordIn;  
 618              		.loc 3 177 7 is_stmt 1 view .LVU159
 619              		.loc 3 177 19 is_stmt 0 view .LVU160
 620 0034 0323     		movs	r3, #3
 621 0036 03E0     		b	.L36
 622              	.L30:
 169:GrannyChordApp.cpp ****     case AppState::Synthesis:
 623              		.loc 3 169 3 view .LVU161
 624 0038 023B     		subs	r3, r3, #2
 625 003a 012B     		cmp	r3, #1
 626 003c 02D8     		bhi	.L28
 170:GrannyChordApp.cpp ****     case AppState::RecordIn:  
 627              		.loc 3 170 5 is_stmt 1 view .LVU162
 171:GrannyChordApp.cpp ****       next_state_ = AppState::SelectFile;
 628              		.loc 3 171 5 view .LVU163
 172:GrannyChordApp.cpp ****       return;
 629              		.loc 3 172 7 view .LVU164
 172:GrannyChordApp.cpp ****       return;
 630              		.loc 3 172 19 is_stmt 0 view .LVU165
 631 003e 0023     		movs	r3, #0
 632              	.L36:
 633              		.loc 3 177 19 view .LVU166
 634 0040 C4F87C32 		str	r3, [r4, #636]
 178:GrannyChordApp.cpp ****       return;
ARM GAS  /var/folders/2p/02m_5p7958535cp2tpgps0400000gn/T//ccAOujCh.s 			page 25


 635              		.loc 3 178 7 is_stmt 1 view .LVU167
 636              	.L28:
 179:GrannyChordApp.cpp ****     default:
 180:GrannyChordApp.cpp ****       return;
 181:GrannyChordApp.cpp ****   }
 182:GrannyChordApp.cpp **** }
 637              		.loc 3 182 1 is_stmt 0 view .LVU168
 638 0044 10BD     		pop	{r4, pc}
 639              		.loc 3 182 1 view .LVU169
 640              		.cfi_endproc
 641              	.LFE4918:
 643              		.section	.text._ZN14GrannyChordApp22HandleButton1LongPressEv,"ax",%progbits
 644              		.align	1
 645              		.global	_ZN14GrannyChordApp22HandleButton1LongPressEv
 646              		.syntax unified
 647              		.thumb
 648              		.thumb_func
 650              	_ZN14GrannyChordApp22HandleButton1LongPressEv:
 651              	.LVL43:
 652              	.LFB4922:
 183:GrannyChordApp.cpp **** 
 184:GrannyChordApp.cpp **** /* this logic is required for button long presses:
 185:GrannyChordApp.cpp ****   the button update rate is extremely fast so without
 186:GrannyChordApp.cpp ****   a debounce delay, the method eg HandleButton1LongPress 
 187:GrannyChordApp.cpp ****   will be called many 1000s of times per second 
 188:GrannyChordApp.cpp ****   once time held > 1000ms, causing issues */
 189:GrannyChordApp.cpp **** void GrannyChordApp::ButtonHandler(){
 190:GrannyChordApp.cpp ****   unsigned long time_now = System::GetNow();
 191:GrannyChordApp.cpp ****   /* only check button events if there's been a gap between them */
 192:GrannyChordApp.cpp ****   if (time_now - last_action_time_ < DEBOUNCE_DELAY) {
 193:GrannyChordApp.cpp ****     return;
 194:GrannyChordApp.cpp ****   }
 195:GrannyChordApp.cpp **** 
 196:GrannyChordApp.cpp ****   /* store whether button 1 has been pressed down initiall*/
 197:GrannyChordApp.cpp ****   if (pod_.button1.RisingEdge()){
 198:GrannyChordApp.cpp ****     last_action_time_ = time_now;
 199:GrannyChordApp.cpp ****     btn1_long_press_fired_ = false;
 200:GrannyChordApp.cpp ****   }
 201:GrannyChordApp.cpp ****   
 202:GrannyChordApp.cpp ****   /* handle case when button 1 is held down */
 203:GrannyChordApp.cpp ****   if (pod_.button1.Pressed()){
 204:GrannyChordApp.cpp ****     float held_time = pod_.button1.TimeHeldMs();
 205:GrannyChordApp.cpp ****     if (held_time > LONG_PRESS_TIME && !btn1_long_press_fired_){
 206:GrannyChordApp.cpp ****       HandleButton1LongPress();
 207:GrannyChordApp.cpp ****       btn1_long_press_fired_ = true;
 208:GrannyChordApp.cpp ****       last_action_time_ = time_now;
 209:GrannyChordApp.cpp ****     }
 210:GrannyChordApp.cpp ****   }
 211:GrannyChordApp.cpp ****   
 212:GrannyChordApp.cpp ****   /* handle case when button 1 is released */
 213:GrannyChordApp.cpp ****   if (pod_.button1.FallingEdge()){
 214:GrannyChordApp.cpp ****     if (!btn1_long_press_fired_){
 215:GrannyChordApp.cpp ****       HandleButton1();
 216:GrannyChordApp.cpp ****     }
 217:GrannyChordApp.cpp ****     last_action_time_ = time_now;
 218:GrannyChordApp.cpp ****     btn1_long_press_fired_ = false;
 219:GrannyChordApp.cpp ****   }
ARM GAS  /var/folders/2p/02m_5p7958535cp2tpgps0400000gn/T//ccAOujCh.s 			page 26


 220:GrannyChordApp.cpp **** 
 221:GrannyChordApp.cpp ****   /* store whether button 2 has been pressed down initially */
 222:GrannyChordApp.cpp ****   if (pod_.button2.RisingEdge()){
 223:GrannyChordApp.cpp ****     last_action_time_ = time_now;
 224:GrannyChordApp.cpp ****     btn2_long_press_fired_ = false;
 225:GrannyChordApp.cpp ****   }
 226:GrannyChordApp.cpp ****   
 227:GrannyChordApp.cpp ****   /* handle case when button 2 is held */
 228:GrannyChordApp.cpp ****   if (pod_.button2.Pressed()){
 229:GrannyChordApp.cpp ****     float held_time = pod_.button2.TimeHeldMs();
 230:GrannyChordApp.cpp ****     if (held_time > LONG_PRESS_TIME && !btn2_long_press_fired_){
 231:GrannyChordApp.cpp ****       HandleButton2LongPress();
 232:GrannyChordApp.cpp ****       btn2_long_press_fired_ = true;
 233:GrannyChordApp.cpp ****       last_action_time_ = time_now;
 234:GrannyChordApp.cpp ****     }
 235:GrannyChordApp.cpp ****   }
 236:GrannyChordApp.cpp ****   
 237:GrannyChordApp.cpp ****   /* handle case when button2 is released */
 238:GrannyChordApp.cpp ****   if (pod_.button2.FallingEdge()){
 239:GrannyChordApp.cpp ****     if (!btn2_long_press_fired_){
 240:GrannyChordApp.cpp ****       HandleButton2();
 241:GrannyChordApp.cpp ****     }
 242:GrannyChordApp.cpp ****     last_action_time_ = time_now;
 243:GrannyChordApp.cpp ****     btn2_long_press_fired_ = false;
 244:GrannyChordApp.cpp ****   }
 245:GrannyChordApp.cpp **** 
 246:GrannyChordApp.cpp ****   /* handle case when both buttons are held down */
 247:GrannyChordApp.cpp ****   if (pod_.button1.Pressed() && pod_.button2.Pressed()){
 248:GrannyChordApp.cpp ****     float heldTime1 = pod_.button1.TimeHeldMs();
 249:GrannyChordApp.cpp ****     float heldTime2 = pod_.button2.TimeHeldMs();
 250:GrannyChordApp.cpp ****     if (heldTime1 > LONG_PRESS_TIME &&
 251:GrannyChordApp.cpp ****         heldTime2 > LONG_PRESS_TIME &&
 252:GrannyChordApp.cpp ****         !both_btns_long_press_fired_) 
 253:GrannyChordApp.cpp ****     {
 254:GrannyChordApp.cpp ****       if (!recording_out_){
 255:GrannyChordApp.cpp ****         recording_out_ = true;
 256:GrannyChordApp.cpp ****         DebugPrint(pod_,"now recording out!");
 257:GrannyChordApp.cpp ****         RecordOutToSD();
 258:GrannyChordApp.cpp ****       } 
 259:GrannyChordApp.cpp ****       else{
 260:GrannyChordApp.cpp ****         DebugPrint(pod_, "finished recording out: %.2fs",sd_writer_.GetLengthSeconds());
 261:GrannyChordApp.cpp ****         FinishRecording();
 262:GrannyChordApp.cpp ****       }
 263:GrannyChordApp.cpp ****       both_btns_long_press_fired_ = true;
 264:GrannyChordApp.cpp ****       last_action_time_ = time_now;
 265:GrannyChordApp.cpp ****     }
 266:GrannyChordApp.cpp ****   } 
 267:GrannyChordApp.cpp ****   else{
 268:GrannyChordApp.cpp ****     both_btns_long_press_fired_ = false;
 269:GrannyChordApp.cpp ****   }
 270:GrannyChordApp.cpp **** }
 271:GrannyChordApp.cpp **** 
 272:GrannyChordApp.cpp **** /// @brief Switch between synth parameter control modes
 273:GrannyChordApp.cpp **** void GrannyChordApp::HandleButton1(){
 274:GrannyChordApp.cpp ****   UpdateSynthModeA();
 275:GrannyChordApp.cpp **** }
 276:GrannyChordApp.cpp **** 
ARM GAS  /var/folders/2p/02m_5p7958535cp2tpgps0400000gn/T//ccAOujCh.s 			page 27


 277:GrannyChordApp.cpp **** /// @brief Toggles on/off synth parameter randomness controls
 278:GrannyChordApp.cpp **** void GrannyChordApp::HandleButton2(){
 279:GrannyChordApp.cpp ****     UpdateSynthModeB();
 280:GrannyChordApp.cpp **** }
 281:GrannyChordApp.cpp **** 
 282:GrannyChordApp.cpp **** /// @brief Toggles on/off reverb control mode 
 283:GrannyChordApp.cpp **** void GrannyChordApp::HandleButton1LongPress(){
 653              		.loc 3 283 46 is_stmt 1 view -0
 654              		.cfi_startproc
 655              		@ args = 0, pretend = 0, frame = 0
 656              		@ frame_needed = 0, uses_anonymous_args = 0
 657              		@ link register save eliminated.
 284:GrannyChordApp.cpp ****   // TODO: chord mode? 
 285:GrannyChordApp.cpp **** }
 658              		.loc 3 285 1 is_stmt 0 view .LVU171
 659 0000 7047     		bx	lr
 660              		.cfi_endproc
 661              	.LFE4922:
 663              		.section	.text._ZN14GrannyChordApp22HandleButton2LongPressEv,"ax",%progbits
 664              		.align	1
 665              		.global	_ZN14GrannyChordApp22HandleButton2LongPressEv
 666              		.syntax unified
 667              		.thumb
 668              		.thumb_func
 670              	_ZN14GrannyChordApp22HandleButton2LongPressEv:
 671              	.LFB5564:
 672              		.cfi_startproc
 673              		@ args = 0, pretend = 0, frame = 0
 674              		@ frame_needed = 0, uses_anonymous_args = 0
 675              		@ link register save eliminated.
 676 0000 7047     		bx	lr
 677              		.cfi_endproc
 678              	.LFE5564:
 680              		.section	.rodata._ZN14GrannyChordApp19HandleFileSelectionEl.str1.1,"aMS",%progbits,1
 681              	.LC4:
 682 0000 73656C65 		.ascii	"selected file %d %s\000"
 682      63746564 
 682      2066696C 
 682      65202564 
 682      20257300 
 683              		.section	.text._ZN14GrannyChordApp19HandleFileSelectionEl,"ax",%progbits
 684              		.align	1
 685              		.global	_ZN14GrannyChordApp19HandleFileSelectionEl
 686              		.syntax unified
 687              		.thumb
 688              		.thumb_func
 690              	_ZN14GrannyChordApp19HandleFileSelectionEl:
 691              	.LVL44:
 692              	.LFB4924:
 286:GrannyChordApp.cpp **** 
 287:GrannyChordApp.cpp **** /// @brief Toggles on/off filter control mode
 288:GrannyChordApp.cpp **** void GrannyChordApp::HandleButton2LongPress(){
 289:GrannyChordApp.cpp ****   // TODO: RECORD OUT? 
 290:GrannyChordApp.cpp **** }
 291:GrannyChordApp.cpp **** 
 292:GrannyChordApp.cpp **** /// @brief Scrolls through list of files for user selection
 293:GrannyChordApp.cpp **** void GrannyChordApp::HandleFileSelection(int32_t encoder_inc){
ARM GAS  /var/folders/2p/02m_5p7958535cp2tpgps0400000gn/T//ccAOujCh.s 			page 28


 693              		.loc 3 293 62 is_stmt 1 view -0
 694              		.cfi_startproc
 695              		@ args = 0, pretend = 0, frame = 0
 696              		@ frame_needed = 0, uses_anonymous_args = 0
 294:GrannyChordApp.cpp ****   int file_count = filemgr_.GetFileCount();
 697              		.loc 3 294 3 view .LVU173
 293:GrannyChordApp.cpp ****   int file_count = filemgr_.GetFileCount();
 698              		.loc 3 293 62 is_stmt 0 view .LVU174
 699 0000 38B5     		push	{r3, r4, r5, lr}
 700              		.cfi_def_cfa_offset 16
 701              		.cfi_offset 3, -16
 702              		.cfi_offset 4, -12
 703              		.cfi_offset 5, -8
 704              		.cfi_offset 14, -4
 705              		.loc 3 294 20 view .LVU175
 706 0002 D0F87032 		ldr	r3, [r0, #624]
 707              	.LVL45:
 708              	.LBB288:
 709              	.LBI288:
 710              		.file 8 "AudioFileManager.h"
   1:AudioFileManager.h **** #pragma once
   2:AudioFileManager.h **** #include <stdio.h>
   3:AudioFileManager.h **** #include <stdint.h>
   4:AudioFileManager.h **** #include <vector>
   5:AudioFileManager.h **** #include "daisy_pod.h"
   6:AudioFileManager.h **** #include "constants_utils.h"
   7:AudioFileManager.h **** #include "debug_print.h"
   8:AudioFileManager.h **** 
   9:AudioFileManager.h **** using namespace daisy; 
  10:AudioFileManager.h **** 
  11:AudioFileManager.h **** class AudioFileManager {
  12:AudioFileManager.h ****   public:
  13:AudioFileManager.h ****     AudioFileManager(SdmmcHandler &sd, FatFSInterface &fsi, DaisyPod &pod, FIL *file)
  14:AudioFileManager.h ****       : sd_(sd), fsi_(fsi), pod_(pod), curr_file_(file), 
  15:AudioFileManager.h ****         left_buf_(nullptr), right_buf_(nullptr) {};
  16:AudioFileManager.h ****     
  17:AudioFileManager.h ****     bool Init();
  18:AudioFileManager.h ****     bool ScanWavFiles();
  19:AudioFileManager.h ****     void SetBuffers(int16_t *left, int16_t *right);
  20:AudioFileManager.h ****     bool LoadFile(uint16_t file_idx);
  21:AudioFileManager.h ****     
  22:AudioFileManager.h ****     bool CloseFile();
  23:AudioFileManager.h ****     bool GetWavHeader(FIL *file);
  24:AudioFileManager.h **** 
  25:AudioFileManager.h ****     int16_t* GetLeftBuffer() const { return left_buf_; }
  26:AudioFileManager.h ****     int16_t* GetRightBuffer() const { return right_buf_; }
  27:AudioFileManager.h ****     size_t GetSamplesPerChannel() const { return header_.total_samples / header_.channels; }
  28:AudioFileManager.h ****     size_t GetTotalSamples() const { return header_.total_samples; }
  29:AudioFileManager.h ****     int16_t GetNumChannels() const { return header_.channels; }
  30:AudioFileManager.h ****     uint16_t GetFileCount() const { return file_count_; }
 711              		.loc 8 30 14 is_stmt 1 view .LVU176
 712              	.LBB289:
 713              		.loc 8 30 37 view .LVU177
 714              		.loc 8 30 37 is_stmt 0 view .LVU178
 715              	.LBE289:
 716              	.LBE288:
 295:GrannyChordApp.cpp ****   file_idx_ = (file_idx_ + encoder_inc + file_count) % file_count;
ARM GAS  /var/folders/2p/02m_5p7958535cp2tpgps0400000gn/T//ccAOujCh.s 			page 29


 717              		.loc 3 295 16 view .LVU179
 718 0006 00F58045 		add	r5, r0, #16384
 719              	.LBB291:
 720              	.LBB290:
 721              		.loc 8 30 44 view .LVU180
 722 000a 03F58052 		add	r2, r3, #4096
 723              	.LBE290:
 724              	.LBE291:
 725              		.loc 3 295 26 view .LVU181
 726 000e D5F8A44E 		ldr	r4, [r5, #3748]
 294:GrannyChordApp.cpp ****   file_idx_ = (file_idx_ + encoder_inc + file_count) % file_count;
 727              		.loc 3 294 42 view .LVU182
 728 0012 D28B     		ldrh	r2, [r2, #30]
 729              	.LVL46:
 730              		.loc 3 295 3 is_stmt 1 view .LVU183
 731              		.loc 3 295 26 is_stmt 0 view .LVU184
 732 0014 2144     		add	r1, r1, r4
 733              	.LVL47:
 734              		.loc 3 295 40 view .LVU185
 735 0016 8C18     		adds	r4, r1, r2
 736              		.loc 3 295 54 view .LVU186
 737 0018 94FBF2F1 		sdiv	r1, r4, r2
 738 001c 02FB1144 		mls	r4, r2, r1, r4
 296:GrannyChordApp.cpp ****   filemgr_.GetName(file_idx_,fname_);
 739              		.loc 3 296 30 view .LVU187
 740 0020 00F59D42 		add	r2, r0, #20096
 741              	.LVL48:
 742              	.LBB292:
 743              	.LBB293:
  31:AudioFileManager.h ****     void GetName(uint16_t idx, char* name) const { strcpy(name, names_[idx]); }
 744              		.loc 8 31 75 view .LVU188
 745 0024 A1B2     		uxth	r1, r4
 746              	.LBE293:
 747              	.LBE292:
 748              		.loc 3 296 30 view .LVU189
 749 0026 3032     		adds	r2, r2, #48
 295:GrannyChordApp.cpp ****   filemgr_.GetName(file_idx_,fname_);
 750              		.loc 3 295 13 view .LVU190
 751 0028 C5F8A44E 		str	r4, [r5, #3748]
 752              		.loc 3 296 3 is_stmt 1 view .LVU191
 753              	.LVL49:
 754              	.LBB296:
 755              	.LBI292:
 756              		.loc 8 31 10 view .LVU192
 757              	.LBB294:
 758              		.loc 8 31 52 view .LVU193
 759              		.loc 8 31 75 is_stmt 0 view .LVU194
 760 002c 03EBC111 		add	r1, r3, r1, lsl #7
 761              		.loc 8 31 58 view .LVU195
 762 0030 1046     		mov	r0, r2
 763              	.LVL50:
 764              		.loc 8 31 58 view .LVU196
 765 0032 1C31     		adds	r1, r1, #28
 766 0034 FFF7FEFF 		bl	strcpy
 767              	.LVL51:
 768              		.loc 8 31 58 view .LVU197
 769              	.LBE294:
ARM GAS  /var/folders/2p/02m_5p7958535cp2tpgps0400000gn/T//ccAOujCh.s 			page 30


 770              	.LBE296:
 771              	.LBB297:
 772              	.LBB298:
 773              		.loc 5 128 23 view .LVU198
 774 0038 2146     		mov	r1, r4
 775              	.LBE298:
 776              	.LBE297:
 777              	.LBB301:
 778              	.LBB295:
 779              		.loc 8 31 58 view .LVU199
 780 003a 0246     		mov	r2, r0
 781              	.LVL52:
 782              		.loc 8 31 58 view .LVU200
 783              	.LBE295:
 784              	.LBE301:
 297:GrannyChordApp.cpp ****   DebugPrint(pod_, "selected file %d %s",file_idx_,fname_);
 785              		.loc 3 297 3 is_stmt 1 view .LVU201
 786              		.loc 3 297 3 view .LVU202
 787              	.LBB302:
 788              	.LBI297:
 126:../libDaisy/src/daisy_seed.h ****     {
 789              		.loc 5 126 17 view .LVU203
 790              	.LBB299:
 791              		.loc 5 128 23 is_stmt 0 view .LVU204
 792 003c 0248     		ldr	r0, .L40
 793              	.LVL53:
 794              		.loc 5 128 23 view .LVU205
 795              	.LBE299:
 796              	.LBE302:
 298:GrannyChordApp.cpp **** }
 797              		.loc 3 298 1 view .LVU206
 798 003e BDE83840 		pop	{r3, r4, r5, lr}
 799              		.cfi_restore 14
 800              		.cfi_restore 5
 801              		.cfi_restore 4
 802              		.cfi_restore 3
 803              		.cfi_def_cfa_offset 0
 804              	.LVL54:
 805              	.LBB303:
 806              	.LBB300:
 807              		.loc 5 128 23 view .LVU207
 808 0042 FFF7FEBF 		b	_ZN5daisy6LoggerILNS_17LoggerDestinationE1EE9PrintLineEPKcz
 809              	.LVL55:
 810              	.L41:
 811              		.loc 5 128 23 view .LVU208
 812 0046 00BF     		.align	2
 813              	.L40:
 814 0048 00000000 		.word	.LC4
 815              	.LBE300:
 816              	.LBE303:
 817              		.cfi_endproc
 818              	.LFE4924:
 820              		.section	.text._ZN14GrannyChordApp22HandleEncoderIncrementEi,"ax",%progbits
 821              		.align	1
 822              		.global	_ZN14GrannyChordApp22HandleEncoderIncrementEi
 823              		.syntax unified
 824              		.thumb
ARM GAS  /var/folders/2p/02m_5p7958535cp2tpgps0400000gn/T//ccAOujCh.s 			page 31


 825              		.thumb_func
 827              	_ZN14GrannyChordApp22HandleEncoderIncrementEi:
 828              	.LVL56:
 829              	.LFB4916:
 135:GrannyChordApp.cpp ****   if (next_state_== AppState::SelectFile){
 830              		.loc 3 135 61 is_stmt 1 view -0
 831              		.cfi_startproc
 832              		@ args = 0, pretend = 0, frame = 0
 833              		@ frame_needed = 0, uses_anonymous_args = 0
 834              		@ link register save eliminated.
 136:GrannyChordApp.cpp ****     recorded_in_ = false;
 835              		.loc 3 136 3 view .LVU210
 836 0000 D0F87C22 		ldr	r2, [r0, #636]
 837 0004 2AB9     		cbnz	r2, .L43
 137:GrannyChordApp.cpp ****     HandleFileSelection(encoder_inc);
 838              		.loc 3 137 5 view .LVU211
 137:GrannyChordApp.cpp ****     HandleFileSelection(encoder_inc);
 839              		.loc 3 137 18 is_stmt 0 view .LVU212
 840 0006 00F55043 		add	r3, r0, #53248
 841 000a 83F8E421 		strb	r2, [r3, #484]
 138:GrannyChordApp.cpp ****   }
 842              		.loc 3 138 5 is_stmt 1 view .LVU213
 138:GrannyChordApp.cpp ****   }
 843              		.loc 3 138 24 is_stmt 0 view .LVU214
 844 000e FFF7FEBF 		b	_ZN14GrannyChordApp19HandleFileSelectionEl
 845              	.LVL57:
 846              	.L43:
 847              	.LBB306:
 848              	.LBI306:
 135:GrannyChordApp.cpp ****   if (next_state_== AppState::SelectFile){
 849              		.loc 3 135 6 is_stmt 1 view .LVU215
 850              	.LBB307:
 140:GrannyChordApp.cpp ****     recorded_in_ = false;
 851              		.loc 3 140 8 view .LVU216
 852 0012 D0F87822 		ldr	r2, [r0, #632]
 853 0016 012A     		cmp	r2, #1
 141:GrannyChordApp.cpp ****     next_state_ = AppState::SelectFile;
 854              		.loc 3 141 5 view .LVU217
 141:GrannyChordApp.cpp ****     next_state_ = AppState::SelectFile;
 855              		.loc 3 141 18 is_stmt 0 view .LVU218
 856 0018 01BF     		itttt	eq
 857 001a 0022     		moveq	r2, #0
 858 001c 00F55041 		addeq	r1, r0, #53248
 859              	.LVL58:
 141:GrannyChordApp.cpp ****     next_state_ = AppState::SelectFile;
 860              		.loc 3 141 18 view .LVU219
 861 0020 81F8E421 		strbeq	r2, [r1, #484]
 142:GrannyChordApp.cpp ****   }
 862              		.loc 3 142 5 is_stmt 1 view .LVU220
 142:GrannyChordApp.cpp ****   }
 863              		.loc 3 142 17 is_stmt 0 view .LVU221
 864 0024 C0F87C22 		streq	r2, [r0, #636]
 865              	.LVL59:
 142:GrannyChordApp.cpp ****   }
 866              		.loc 3 142 17 view .LVU222
 867              	.LBE307:
 868              	.LBE306:
ARM GAS  /var/folders/2p/02m_5p7958535cp2tpgps0400000gn/T//ccAOujCh.s 			page 32


 144:GrannyChordApp.cpp **** 
 869              		.loc 3 144 1 view .LVU223
 870 0028 7047     		bx	lr
 871              		.cfi_endproc
 872              	.LFE4916:
 874              		.section	.text._ZN14GrannyChordApp11InitFileMgrEv,"ax",%progbits
 875              		.align	1
 876              		.global	_ZN14GrannyChordApp11InitFileMgrEv
 877              		.syntax unified
 878              		.thumb
 879              		.thumb_func
 881              	_ZN14GrannyChordApp11InitFileMgrEv:
 882              	.LVL60:
 883              	.LFB4928:
 299:GrannyChordApp.cpp **** 
 300:GrannyChordApp.cpp **** /// @brief iterates through synth parameter control modes when button 1 pressed
 301:GrannyChordApp.cpp **** /// if we are in an 'even' mode, go to the next 'eveb' mode. 
 302:GrannyChordApp.cpp **** /// if we are in an 'odd' mode, go to the corresponding 'even' mode
 303:GrannyChordApp.cpp **** void GrannyChordApp::UpdateSynthModeA(){
 304:GrannyChordApp.cpp ****   DebugPrint(pod_, "next synth mode");
 305:GrannyChordApp.cpp ****   int mode_idx = static_cast<int>(curr_synth_mode_);
 306:GrannyChordApp.cpp ****   if (mode_idx%2 == 0){
 307:GrannyChordApp.cpp ****     mode_idx = (mode_idx + 2) % 8;
 308:GrannyChordApp.cpp ****   }
 309:GrannyChordApp.cpp ****   else {
 310:GrannyChordApp.cpp ****     /* XOR the enum value to get corresponding mode index */
 311:GrannyChordApp.cpp ****     mode_idx = mode_idx ^ 1;
 312:GrannyChordApp.cpp ****   }
 313:GrannyChordApp.cpp **** 
 314:GrannyChordApp.cpp ****   curr_synth_mode_ = static_cast<SynthMode>(mode_idx);
 315:GrannyChordApp.cpp ****   DebugPrintMode(curr_synth_mode_);
 316:GrannyChordApp.cpp ****   // ResetPassThru();
 317:GrannyChordApp.cpp ****   SetLed1SynthMode();
 318:GrannyChordApp.cpp ****   SetLed2();
 319:GrannyChordApp.cpp ****   knob1_latched = true;
 320:GrannyChordApp.cpp ****   knob2_latched = true;
 321:GrannyChordApp.cpp **** }
 322:GrannyChordApp.cpp **** 
 323:GrannyChordApp.cpp **** /// @brief iterates through synth parameter control modes when button 2 pressed
 324:GrannyChordApp.cpp **** /// if we are in an 'even' mode, go to the corresponding 'odd' mode. 
 325:GrannyChordApp.cpp **** /// if we are in an 'odd' mode, go to the next 'odd' mode
 326:GrannyChordApp.cpp **** void GrannyChordApp::UpdateSynthModeB(){
 327:GrannyChordApp.cpp ****   DebugPrint(pod_, "next synth mode");
 328:GrannyChordApp.cpp ****   int mode_idx = static_cast<int>(curr_synth_mode_);
 329:GrannyChordApp.cpp ****   if (mode_idx %2 != 0){
 330:GrannyChordApp.cpp ****     mode_idx = (mode_idx + 2) % 8;
 331:GrannyChordApp.cpp ****   }
 332:GrannyChordApp.cpp ****   else {
 333:GrannyChordApp.cpp ****     mode_idx = mode_idx ^ 1;
 334:GrannyChordApp.cpp ****   }
 335:GrannyChordApp.cpp **** 
 336:GrannyChordApp.cpp ****   curr_synth_mode_ = static_cast<SynthMode>(mode_idx);
 337:GrannyChordApp.cpp ****   DebugPrintMode(curr_synth_mode_);
 338:GrannyChordApp.cpp ****   // ResetPassThru();
 339:GrannyChordApp.cpp ****   SetLed1SynthMode();
 340:GrannyChordApp.cpp ****   SetLed2();
 341:GrannyChordApp.cpp ****   knob1_latched = true;
ARM GAS  /var/folders/2p/02m_5p7958535cp2tpgps0400000gn/T//ccAOujCh.s 			page 33


 342:GrannyChordApp.cpp ****   knob2_latched = true;
 343:GrannyChordApp.cpp **** }
 344:GrannyChordApp.cpp **** 
 345:GrannyChordApp.cpp **** /// @brief Updates synth parameters based on current synth mode and adjusts
 346:GrannyChordApp.cpp **** ///        knob input values to account for knob jitter and deadzones around 0/1
 347:GrannyChordApp.cpp **** void GrannyChordApp::UpdateSynthParams(){
 348:GrannyChordApp.cpp ****   if (curr_state_!=AppState::Synthesis) return;
 349:GrannyChordApp.cpp ****   int mode_idx = static_cast<int>(curr_synth_mode_);
 350:GrannyChordApp.cpp **** 
 351:GrannyChordApp.cpp ****   /* set to 0 or 1 if very close to these bounds */
 352:GrannyChordApp.cpp ****   float knob1_val = MapKnobDeadzone(pod_.knob1.Process());
 353:GrannyChordApp.cpp ****   float knob2_val = MapKnobDeadzone(pod_.knob2.Process());
 354:GrannyChordApp.cpp ****   
 355:GrannyChordApp.cpp ****   counter++;
 356:GrannyChordApp.cpp **** 
 357:GrannyChordApp.cpp ****   /* only update parameter if knob has passed through previous value in this mode */
 358:GrannyChordApp.cpp ****   if (UpdateKnobPassThru(&knob1_latched, knob1_val,prev_param_k1[mode_idx])){
 359:GrannyChordApp.cpp ****     UpdateKnob1Params(knob1_val,curr_synth_mode_);
 360:GrannyChordApp.cpp ****     prev_param_k1[mode_idx] = knob1_val;
 361:GrannyChordApp.cpp ****     if (counter%96000==0){
 362:GrannyChordApp.cpp ****       DebugPrint(pod_, "new k1v: %f",knob1_val);
 363:GrannyChordApp.cpp ****     }
 364:GrannyChordApp.cpp ****   }
 365:GrannyChordApp.cpp **** 
 366:GrannyChordApp.cpp ****   if (UpdateKnobPassThru(&knob2_latched, knob2_val,prev_param_k2[mode_idx])){
 367:GrannyChordApp.cpp ****     UpdateKnob2Params(knob2_val, curr_synth_mode_);
 368:GrannyChordApp.cpp ****     prev_param_k2[mode_idx] = knob2_val;
 369:GrannyChordApp.cpp ****     if (counter%96000==0){
 370:GrannyChordApp.cpp ****       DebugPrint(pod_, "new k2v: %f",knob2_val);
 371:GrannyChordApp.cpp ****     }
 372:GrannyChordApp.cpp ****   }
 373:GrannyChordApp.cpp **** }
 374:GrannyChordApp.cpp **** 
 375:GrannyChordApp.cpp **** /// @brief Initialises file manager, sets audio data buffers and scans SD card for WAV files
 376:GrannyChordApp.cpp **** /// @return True on successful initialisation, false if init fails or no WAV files found
 377:GrannyChordApp.cpp **** bool GrannyChordApp::InitFileMgr(){
 884              		.loc 3 377 35 is_stmt 1 view -0
 885              		.cfi_startproc
 886              		@ args = 0, pretend = 0, frame = 0
 887              		@ frame_needed = 0, uses_anonymous_args = 0
 378:GrannyChordApp.cpp ****   filemgr_.SetBuffers(left_buf_,right_buf_);
 888              		.loc 3 378 3 view .LVU225
 889              		.loc 3 378 22 is_stmt 0 view .LVU226
 890 0000 00F58043 		add	r3, r0, #16384
 377:GrannyChordApp.cpp ****   filemgr_.SetBuffers(left_buf_,right_buf_);
 891              		.loc 3 377 35 view .LVU227
 892 0004 10B5     		push	{r4, lr}
 893              		.cfi_def_cfa_offset 8
 894              		.cfi_offset 4, -8
 895              		.cfi_offset 14, -4
 377:GrannyChordApp.cpp ****   filemgr_.SetBuffers(left_buf_,right_buf_);
 896              		.loc 3 377 35 view .LVU228
 897 0006 0446     		mov	r4, r0
 898              		.loc 3 378 22 view .LVU229
 899 0008 D3F8A02E 		ldr	r2, [r3, #3744]
 900 000c D0F87002 		ldr	r0, [r0, #624]
 901              	.LVL61:
ARM GAS  /var/folders/2p/02m_5p7958535cp2tpgps0400000gn/T//ccAOujCh.s 			page 34


 902              		.loc 3 378 22 view .LVU230
 903 0010 D3F89C1E 		ldr	r1, [r3, #3740]
 904 0014 FFF7FEFF 		bl	_ZN16AudioFileManager10SetBuffersEPsS0_
 905              	.LVL62:
 379:GrannyChordApp.cpp ****   if (!filemgr_.Init())return false;
 906              		.loc 3 379 3 is_stmt 1 view .LVU231
 907              		.loc 3 379 21 is_stmt 0 view .LVU232
 908 0018 D4F87002 		ldr	r0, [r4, #624]
 909 001c FFF7FEFF 		bl	_ZN16AudioFileManager4InitEv
 910              	.LVL63:
 911              		.loc 3 379 3 view .LVU233
 912 0020 28B1     		cbz	r0, .L46
 913              	.LBB310:
 914              	.LBI310:
 377:GrannyChordApp.cpp ****   filemgr_.SetBuffers(left_buf_,right_buf_);
 915              		.loc 3 377 6 is_stmt 1 view .LVU234
 916              	.LVL64:
 917              	.LBB311:
 380:GrannyChordApp.cpp **** 
 381:GrannyChordApp.cpp ****   return filemgr_.ScanWavFiles();
 918              		.loc 3 381 3 view .LVU235
 919              		.loc 3 381 31 is_stmt 0 view .LVU236
 920 0022 D4F87002 		ldr	r0, [r4, #624]
 921              	.LBE311:
 922              	.LBE310:
 382:GrannyChordApp.cpp **** }
 923              		.loc 3 382 1 view .LVU237
 924 0026 BDE81040 		pop	{r4, lr}
 925              		.cfi_remember_state
 926              		.cfi_restore 14
 927              		.cfi_restore 4
 928              		.cfi_def_cfa_offset 0
 929              	.LVL65:
 930              	.LBB313:
 931              	.LBB312:
 381:GrannyChordApp.cpp **** }
 932              		.loc 3 381 31 view .LVU238
 933 002a FFF7FEBF 		b	_ZN16AudioFileManager12ScanWavFilesEv
 934              	.LVL66:
 935              	.L46:
 936              		.cfi_restore_state
 381:GrannyChordApp.cpp **** }
 937              		.loc 3 381 31 view .LVU239
 938              	.LBE312:
 939              	.LBE313:
 940              		.loc 3 382 1 view .LVU240
 941 002e 10BD     		pop	{r4, pc}
 942              		.loc 3 382 1 view .LVU241
 943              		.cfi_endproc
 944              	.LFE4928:
 946              		.section	.rodata._ZN14GrannyChordApp12InitPlaybackEv.str1.1,"aMS",%progbits,1
 947              	.LC5:
 948 0000 6661696C 		.ascii	"failed to load file\000"
 948      65642074 
 948      6F206C6F 
 948      61642066 
 948      696C6500 
ARM GAS  /var/folders/2p/02m_5p7958535cp2tpgps0400000gn/T//ccAOujCh.s 			page 35


 949              	.LC6:
 950 0014 6C6F6164 		.ascii	"loaded file\000"
 950      65642066 
 950      696C6500 
 951              		.section	.text._ZN14GrannyChordApp12InitPlaybackEv,"ax",%progbits
 952              		.align	1
 953              		.global	_ZN14GrannyChordApp12InitPlaybackEv
 954              		.syntax unified
 955              		.thumb
 956              		.thumb_func
 958              	_ZN14GrannyChordApp12InitPlaybackEv:
 959              	.LVL67:
 960              	.LFB4930:
 383:GrannyChordApp.cpp **** 
 384:GrannyChordApp.cpp **** /// @brief Calls synth initialisation function, passes audio data buffers and audio length
 385:GrannyChordApp.cpp **** void GrannyChordApp::InitSynth(){
 386:GrannyChordApp.cpp ****   synth_.Init(left_buf_, right_buf_, filemgr_.GetSamplesPerChannel());
 387:GrannyChordApp.cpp ****   InitPrevParamVals();
 388:GrannyChordApp.cpp ****   DebugPrint(pod_,"synth init ok - samples %u",filemgr_.GetSamplesPerChannel());
 389:GrannyChordApp.cpp **** }
 390:GrannyChordApp.cpp **** 
 391:GrannyChordApp.cpp **** /// @brief Initialises WAV playback state, resets playhead, sets current file audio length
 392:GrannyChordApp.cpp **** void GrannyChordApp::InitPlayback(){
 961              		.loc 3 392 36 is_stmt 1 view -0
 962              		.cfi_startproc
 963              		@ args = 0, pretend = 0, frame = 0
 964              		@ frame_needed = 0, uses_anonymous_args = 0
 393:GrannyChordApp.cpp ****   wav_playhead_ = 0;
 965              		.loc 3 393 3 view .LVU243
 966              		.loc 3 393 17 is_stmt 0 view .LVU244
 967 0000 0021     		movs	r1, #0
 394:GrannyChordApp.cpp ****   record_in_pos_  = 0;
 968              		.loc 3 394 19 view .LVU245
 969 0002 00F55042 		add	r2, r0, #53248
 393:GrannyChordApp.cpp ****   wav_playhead_ = 0;
 970              		.loc 3 393 17 view .LVU246
 971 0006 00F58043 		add	r3, r0, #16384
 392:GrannyChordApp.cpp ****   wav_playhead_ = 0;
 972              		.loc 3 392 36 view .LVU247
 973 000a 10B5     		push	{r4, lr}
 974              		.cfi_def_cfa_offset 8
 975              		.cfi_offset 4, -8
 976              		.cfi_offset 14, -4
 393:GrannyChordApp.cpp ****   wav_playhead_ = 0;
 977              		.loc 3 393 17 view .LVU248
 978 000c C3F8A81E 		str	r1, [r3, #3752]
 979              		.loc 3 394 3 is_stmt 1 view .LVU249
 392:GrannyChordApp.cpp ****   wav_playhead_ = 0;
 980              		.loc 3 392 36 is_stmt 0 view .LVU250
 981 0010 0446     		mov	r4, r0
 982              		.loc 3 394 19 view .LVU251
 983 0012 C2F8E811 		str	r1, [r2, #488]
 395:GrannyChordApp.cpp ****   if (!recorded_in_){
 984              		.loc 3 395 3 is_stmt 1 view .LVU252
 985 0016 92F8E421 		ldrb	r2, [r2, #484]	@ zero_extendqisi2
 986 001a 6AB9     		cbnz	r2, .L48
 396:GrannyChordApp.cpp ****     if (!filemgr_.LoadFile(file_idx_)) {
ARM GAS  /var/folders/2p/02m_5p7958535cp2tpgps0400000gn/T//ccAOujCh.s 			page 36


 987              		.loc 3 396 5 view .LVU253
 988              		.loc 3 396 27 is_stmt 0 view .LVU254
 989 001c B3F8A41E 		ldrh	r1, [r3, #3748]
 990 0020 D0F87002 		ldr	r0, [r0, #624]
 991              	.LVL68:
 992              		.loc 3 396 27 view .LVU255
 993 0024 FFF7FEFF 		bl	_ZN16AudioFileManager8LoadFileEt
 994              	.LVL69:
 995              		.loc 3 396 5 view .LVU256
 996 0028 30B9     		cbnz	r0, .L48
 397:GrannyChordApp.cpp ****       DebugPrint(pod_,"failed to load file");
 997              		.loc 3 397 7 is_stmt 1 view .LVU257
 998              		.loc 3 397 7 view .LVU258
 999              	.LVL70:
 1000              	.LBB314:
 1001              	.LBI314:
 126:../libDaisy/src/daisy_seed.h ****     {
 1002              		.loc 5 126 17 view .LVU259
 1003              	.LBB315:
 1004              		.loc 5 128 23 is_stmt 0 view .LVU260
 1005 002a 0848     		ldr	r0, .L51
 1006 002c FFF7FEFF 		bl	_ZN5daisy6LoggerILNS_17LoggerDestinationE1EE9PrintLineEPKcz
 1007              	.LVL71:
 1008              		.loc 5 128 23 view .LVU261
 1009              	.LBE315:
 1010              	.LBE314:
 398:GrannyChordApp.cpp ****       curr_state_=AppState::Error;
 1011              		.loc 3 398 7 is_stmt 1 view .LVU262
 1012              		.loc 3 398 18 is_stmt 0 view .LVU263
 1013 0030 0523     		movs	r3, #5
 1014 0032 C4F87832 		str	r3, [r4, #632]
 399:GrannyChordApp.cpp ****       return;
 1015              		.loc 3 399 7 is_stmt 1 view .LVU264
 400:GrannyChordApp.cpp ****     }
 401:GrannyChordApp.cpp ****   }
 402:GrannyChordApp.cpp ****   DebugPrint(pod_, "loaded file");
 403:GrannyChordApp.cpp ****   pod_.StartAudio(AudioCallback);
 404:GrannyChordApp.cpp **** }
 1016              		.loc 3 404 1 is_stmt 0 view .LVU265
 1017 0036 10BD     		pop	{r4, pc}
 1018              	.LVL72:
 1019              	.L48:
 402:GrannyChordApp.cpp ****   pod_.StartAudio(AudioCallback);
 1020              		.loc 3 402 3 is_stmt 1 view .LVU266
 402:GrannyChordApp.cpp ****   pod_.StartAudio(AudioCallback);
 1021              		.loc 3 402 3 view .LVU267
 1022              	.LBB316:
 1023              	.LBI316:
 126:../libDaisy/src/daisy_seed.h ****     {
 1024              		.loc 5 126 17 view .LVU268
 1025              	.LBB317:
 1026              		.loc 5 128 23 is_stmt 0 view .LVU269
 1027 0038 0548     		ldr	r0, .L51+4
 1028 003a FFF7FEFF 		bl	_ZN5daisy6LoggerILNS_17LoggerDestinationE1EE9PrintLineEPKcz
 1029              	.LVL73:
 1030              		.loc 5 128 23 view .LVU270
 1031              	.LBE317:
ARM GAS  /var/folders/2p/02m_5p7958535cp2tpgps0400000gn/T//ccAOujCh.s 			page 37


 1032              	.LBE316:
 403:GrannyChordApp.cpp **** }
 1033              		.loc 3 403 3 is_stmt 1 view .LVU271
 403:GrannyChordApp.cpp **** }
 1034              		.loc 3 403 18 is_stmt 0 view .LVU272
 1035 003e E069     		ldr	r0, [r4, #28]
 1036 0040 0449     		ldr	r1, .L51+8
 1037              		.loc 3 404 1 view .LVU273
 1038 0042 BDE81040 		pop	{r4, lr}
 1039              		.cfi_restore 14
 1040              		.cfi_restore 4
 1041              		.cfi_def_cfa_offset 0
 1042              	.LVL74:
 403:GrannyChordApp.cpp **** }
 1043              		.loc 3 403 18 view .LVU274
 1044 0046 FFF7FEBF 		b	_ZN5daisy8DaisyPod10StartAudioEPFvPKPKfPPfjE
 1045              	.LVL75:
 1046              	.L52:
 1047 004a 00BF     		.align	2
 1048              	.L51:
 1049 004c 00000000 		.word	.LC5
 1050 0050 14000000 		.word	.LC6
 1051 0054 00000000 		.word	_ZN14GrannyChordApp13AudioCallbackEPKPKfPPfj
 1052              		.cfi_endproc
 1053              	.LFE4930:
 1055              		.section	.text._ZN14GrannyChordApp12InitRecordInEv,"ax",%progbits
 1056              		.align	1
 1057              		.global	_ZN14GrannyChordApp12InitRecordInEv
 1058              		.syntax unified
 1059              		.thumb
 1060              		.thumb_func
 1062              	_ZN14GrannyChordApp12InitRecordInEv:
 1063              	.LVL76:
 1064              	.LFB4931:
 405:GrannyChordApp.cpp **** 
 406:GrannyChordApp.cpp **** /// @brief Initialises RecordIn state, clears audio buffers
 407:GrannyChordApp.cpp **** void GrannyChordApp::InitRecordIn(){
 1065              		.loc 3 407 36 is_stmt 1 view -0
 1066              		.cfi_startproc
 1067              		@ args = 0, pretend = 0, frame = 0
 1068              		@ frame_needed = 0, uses_anonymous_args = 0
 408:GrannyChordApp.cpp ****   memset(left_buf_, 0, CHNL_BUF_SIZE_ABS);
 1069              		.loc 3 408 3 view .LVU276
 407:GrannyChordApp.cpp ****   memset(left_buf_, 0, CHNL_BUF_SIZE_ABS);
 1070              		.loc 3 407 36 is_stmt 0 view .LVU277
 1071 0000 38B5     		push	{r3, r4, r5, lr}
 1072              		.cfi_def_cfa_offset 16
 1073              		.cfi_offset 3, -16
 1074              		.cfi_offset 4, -12
 1075              		.cfi_offset 5, -8
 1076              		.cfi_offset 14, -4
 1077              		.loc 3 408 10 view .LVU278
 1078 0002 00F58045 		add	r5, r0, #16384
 407:GrannyChordApp.cpp ****   memset(left_buf_, 0, CHNL_BUF_SIZE_ABS);
 1079              		.loc 3 407 36 view .LVU279
 1080 0006 0446     		mov	r4, r0
 1081              		.loc 3 408 9 view .LVU280
ARM GAS  /var/folders/2p/02m_5p7958535cp2tpgps0400000gn/T//ccAOujCh.s 			page 38


 1082 0008 4FF08072 		mov	r2, #16777216
 1083 000c 0021     		movs	r1, #0
 1084 000e D5F89C0E 		ldr	r0, [r5, #3740]
 1085              	.LVL77:
 409:GrannyChordApp.cpp ****   memset(right_buf_, 0, CHNL_BUF_SIZE_ABS);
 410:GrannyChordApp.cpp ****   record_in_pos_ = 0;
 1086              		.loc 3 410 18 view .LVU281
 1087 0012 04F55044 		add	r4, r4, #53248
 1088              	.LVL78:
 408:GrannyChordApp.cpp ****   memset(right_buf_, 0, CHNL_BUF_SIZE_ABS);
 1089              		.loc 3 408 9 view .LVU282
 1090 0016 FFF7FEFF 		bl	memset
 1091              	.LVL79:
 409:GrannyChordApp.cpp ****   memset(right_buf_, 0, CHNL_BUF_SIZE_ABS);
 1092              		.loc 3 409 3 is_stmt 1 view .LVU283
 409:GrannyChordApp.cpp ****   memset(right_buf_, 0, CHNL_BUF_SIZE_ABS);
 1093              		.loc 3 409 9 is_stmt 0 view .LVU284
 1094 001a 4FF08072 		mov	r2, #16777216
 1095 001e 0021     		movs	r1, #0
 1096 0020 D5F8A00E 		ldr	r0, [r5, #3744]
 1097 0024 FFF7FEFF 		bl	memset
 1098              	.LVL80:
 1099              		.loc 3 410 3 is_stmt 1 view .LVU285
 1100              		.loc 3 410 18 is_stmt 0 view .LVU286
 1101 0028 0023     		movs	r3, #0
 1102 002a C4F8E831 		str	r3, [r4, #488]
 411:GrannyChordApp.cpp **** }
 1103              		.loc 3 411 1 view .LVU287
 1104 002e 38BD     		pop	{r3, r4, r5, pc}
 1105              		.loc 3 411 1 view .LVU288
 1106              		.cfi_endproc
 1107              	.LFE4931:
 1109              		.section	.text._ZN14GrannyChordApp13InitWavWriterEv,"ax",%progbits
 1110              		.align	1
 1111              		.global	_ZN14GrannyChordApp13InitWavWriterEv
 1112              		.syntax unified
 1113              		.thumb
 1114              		.thumb_func
 1116              	_ZN14GrannyChordApp13InitWavWriterEv:
 1117              	.LVL81:
 1118              	.LFB4932:
 412:GrannyChordApp.cpp **** 
 413:GrannyChordApp.cpp **** // /// @brief Initialise object for recording out to SD card
 414:GrannyChordApp.cpp **** void GrannyChordApp::InitWavWriter(){
 1119              		.loc 3 414 37 is_stmt 1 view -0
 1120              		.cfi_startproc
 1121              		@ args = 0, pretend = 0, frame = 0
 1122              		@ frame_needed = 0, uses_anonymous_args = 0
 1123              		@ link register save eliminated.
 415:GrannyChordApp.cpp ****   WavWriter<16384>::Config cfg;
 1124              		.loc 3 415 3 view .LVU290
 416:GrannyChordApp.cpp ****   cfg.bitspersample = BIT_DEPTH;
 1125              		.loc 3 416 3 view .LVU291
 417:GrannyChordApp.cpp ****   cfg.channels = filemgr_.GetNumChannels();
 1126              		.loc 3 417 3 view .LVU292
 1127              	.LBB326:
 1128              	.LBI326:
ARM GAS  /var/folders/2p/02m_5p7958535cp2tpgps0400000gn/T//ccAOujCh.s 			page 39


  29:AudioFileManager.h ****     uint16_t GetFileCount() const { return file_count_; }
 1129              		.loc 8 29 13 view .LVU293
 1130              	.LBB327:
  29:AudioFileManager.h ****     uint16_t GetFileCount() const { return file_count_; }
 1131              		.loc 8 29 38 view .LVU294
  29:AudioFileManager.h ****     uint16_t GetFileCount() const { return file_count_; }
 1132              		.loc 8 29 53 is_stmt 0 view .LVU295
 1133 0000 D0F87032 		ldr	r3, [r0, #624]
 1134              	.LBE327:
 1135              	.LBE326:
 1136              	.LBB330:
 1137              	.LBB331:
 1138              		.file 9 "../libDaisy/src/util/WavWriter.h"
   1:../libDaisy/src/util/WavWriter.h **** #pragma once
   2:../libDaisy/src/util/WavWriter.h **** #pragma once
   3:../libDaisy/src/util/WavWriter.h **** #include "fatfs.h"
   4:../libDaisy/src/util/WavWriter.h **** 
   5:../libDaisy/src/util/WavWriter.h **** namespace daisy
   6:../libDaisy/src/util/WavWriter.h **** {
   7:../libDaisy/src/util/WavWriter.h **** /** Audio Recording Module
   8:../libDaisy/src/util/WavWriter.h ****  ** 
   9:../libDaisy/src/util/WavWriter.h ****  ** Record audio into a working buffer that is gradually written to a WAV file on an SD Card. 
  10:../libDaisy/src/util/WavWriter.h ****  **
  11:../libDaisy/src/util/WavWriter.h ****  ** Recordings are made with floating point input, and will be converted to the 
  12:../libDaisy/src/util/WavWriter.h ****  ** specified bits per sample internally 
  13:../libDaisy/src/util/WavWriter.h ****  **
  14:../libDaisy/src/util/WavWriter.h ****  ** For now only 16-bit and 32-bit (signed int) formats are supported
  15:../libDaisy/src/util/WavWriter.h ****  ** f32 and s24 formats will be added next
  16:../libDaisy/src/util/WavWriter.h ****  **
  17:../libDaisy/src/util/WavWriter.h ****  ** The transfer size determines the amount of internal memory used, and can have an
  18:../libDaisy/src/util/WavWriter.h ****  ** effect on the performance of the streaming behavior of the WavWriter.
  19:../libDaisy/src/util/WavWriter.h ****  ** Memory use can be calculated as: (2 * transfer_size) bytes
  20:../libDaisy/src/util/WavWriter.h ****  ** Performance optimal with sizes: 16384, 32768
  21:../libDaisy/src/util/WavWriter.h ****  ** 
  22:../libDaisy/src/util/WavWriter.h ****  ** To use:
  23:../libDaisy/src/util/WavWriter.h ****  ** 1. Create a WavWriter<size> object (e.g. WavWriter<32768> writer)
  24:../libDaisy/src/util/WavWriter.h ****  ** 2. Configure the settings as desired by creating a WavWriter<32768>::Config struct and setting 
  25:../libDaisy/src/util/WavWriter.h ****  ** 3. Initialize the object with the configuration struct.
  26:../libDaisy/src/util/WavWriter.h ****  ** 4. Open a new file for writing with: writer.OpenFile("FileName.wav")
  27:../libDaisy/src/util/WavWriter.h ****  ** 5. Write to it within your audio callback using: writer.Sample(value)
  28:../libDaisy/src/util/WavWriter.h ****  ** 6. Fill the Wav File on the SD Card with data from your main loop by running: writer.Write()
  29:../libDaisy/src/util/WavWriter.h ****  ** 7. When finished with the recording finalize, and close the file with: writer.SaveFile();
  30:../libDaisy/src/util/WavWriter.h ****  ** 
  31:../libDaisy/src/util/WavWriter.h ****  ** */
  32:../libDaisy/src/util/WavWriter.h **** template <size_t transfer_size>
  33:../libDaisy/src/util/WavWriter.h **** class WavWriter
  34:../libDaisy/src/util/WavWriter.h **** {
  35:../libDaisy/src/util/WavWriter.h ****   public:
  36:../libDaisy/src/util/WavWriter.h ****     WavWriter() {}
  37:../libDaisy/src/util/WavWriter.h ****     ~WavWriter() {}
  38:../libDaisy/src/util/WavWriter.h **** 
  39:../libDaisy/src/util/WavWriter.h ****     /** Return values for write related functions */
  40:../libDaisy/src/util/WavWriter.h ****     enum class Result
  41:../libDaisy/src/util/WavWriter.h ****     {
  42:../libDaisy/src/util/WavWriter.h ****         OK,
  43:../libDaisy/src/util/WavWriter.h ****         ERROR,
  44:../libDaisy/src/util/WavWriter.h ****     };
ARM GAS  /var/folders/2p/02m_5p7958535cp2tpgps0400000gn/T//ccAOujCh.s 			page 40


  45:../libDaisy/src/util/WavWriter.h **** 
  46:../libDaisy/src/util/WavWriter.h ****     /** Configuration structure for the wave writer.
  47:../libDaisy/src/util/WavWriter.h **** 	 ** */
  48:../libDaisy/src/util/WavWriter.h ****     struct Config
  49:../libDaisy/src/util/WavWriter.h ****     {
  50:../libDaisy/src/util/WavWriter.h ****         float   samplerate;
  51:../libDaisy/src/util/WavWriter.h ****         int32_t channels;
  52:../libDaisy/src/util/WavWriter.h ****         int32_t bitspersample;
  53:../libDaisy/src/util/WavWriter.h ****     };
  54:../libDaisy/src/util/WavWriter.h **** 
  55:../libDaisy/src/util/WavWriter.h ****     /** State of the internal Writing mechanism. 
  56:../libDaisy/src/util/WavWriter.h **** 	 ** When the buffer is a certain amount full one section will write its contents
  57:../libDaisy/src/util/WavWriter.h **** 	 ** while the other is still being written to. This is performed circularly
  58:../libDaisy/src/util/WavWriter.h **** 	 ** so that audio will be uninterrupted during writing. */
  59:../libDaisy/src/util/WavWriter.h ****     enum class BufferState
  60:../libDaisy/src/util/WavWriter.h ****     {
  61:../libDaisy/src/util/WavWriter.h ****         IDLE,
  62:../libDaisy/src/util/WavWriter.h ****         FLUSH0,
  63:../libDaisy/src/util/WavWriter.h ****         FLUSH1,
  64:../libDaisy/src/util/WavWriter.h ****     };
  65:../libDaisy/src/util/WavWriter.h **** 
  66:../libDaisy/src/util/WavWriter.h ****     /**  Initializes the WavFile header, and prepares the object for recording. */
  67:../libDaisy/src/util/WavWriter.h ****     void Init(const Config &cfg)
  68:../libDaisy/src/util/WavWriter.h ****     {
  69:../libDaisy/src/util/WavWriter.h ****         cfg_       = cfg;
 1139              		.loc 9 69 9 view .LVU296
 1140 0004 00F58040 		add	r0, r0, #16384
 1141              	.LVL82:
 1142              		.loc 9 69 9 view .LVU297
 1143 0008 9FED2A7A 		vldr.32	s14, .L56
  70:../libDaisy/src/util/WavWriter.h ****         num_samps_ = 0;
 1144              		.loc 9 70 20 view .LVU298
 1145 000c 0021     		movs	r1, #0
 1146              	.LBE331:
 1147              	.LBE330:
 1148              	.LBB360:
 1149              	.LBB328:
  29:AudioFileManager.h ****     uint16_t GetFileCount() const { return file_count_; }
 1150              		.loc 8 29 53 view .LVU299
 1151 000e 03F58053 		add	r3, r3, #4096
 1152              	.LVL83:
  29:AudioFileManager.h ****     uint16_t GetFileCount() const { return file_count_; }
 1153              		.loc 8 29 53 view .LVU300
 1154              	.LBE328:
 1155              	.LBE360:
 1156              	.LBB361:
 1157              	.LBB357:
  69:../libDaisy/src/util/WavWriter.h ****         num_samps_ = 0;
 1158              		.loc 9 69 9 view .LVU301
 1159 0012 00F57762 		add	r2, r0, #3952
 1160              	.LBE357:
 1161              	.LBE361:
 1162              	.LBB362:
 1163              	.LBB329:
  29:AudioFileManager.h ****     uint16_t GetFileCount() const { return file_count_; }
 1164              		.loc 8 29 53 view .LVU302
 1165 0016 B3F92830 		ldrsh	r3, [r3, #40]
ARM GAS  /var/folders/2p/02m_5p7958535cp2tpgps0400000gn/T//ccAOujCh.s 			page 41


 1166              	.LVL84:
  29:AudioFileManager.h ****     uint16_t GetFileCount() const { return file_count_; }
 1167              		.loc 8 29 53 view .LVU303
 1168              	.LBE329:
 1169              	.LBE362:
 418:GrannyChordApp.cpp ****   cfg.samplerate = SAMPLE_RATE;
 1170              		.loc 3 418 3 is_stmt 1 view .LVU304
 419:GrannyChordApp.cpp ****   sd_writer_.Init(cfg);
 1171              		.loc 3 419 3 view .LVU305
 1172              	.LBB363:
 1173              	.LBI330:
  67:../libDaisy/src/util/WavWriter.h ****     {
 1174              		.loc 9 67 10 view .LVU306
 1175              	.LBB358:
  69:../libDaisy/src/util/WavWriter.h ****         num_samps_ = 0;
 1176              		.loc 9 69 9 is_stmt 0 view .LVU307
 1177 001a 82ED0D7A 		vstr.32	s14, [r2, #52]
 1178 001e 1022     		movs	r2, #16
 1179              	.LBB332:
 1180              	.LBB333:
  71:../libDaisy/src/util/WavWriter.h ****         // Prep the wav header according to config.
  72:../libDaisy/src/util/WavWriter.h ****         // Certain things (i.e. Size, etc. will have to wait until the finalization of the file, or
  73:../libDaisy/src/util/WavWriter.h ****         wavheader_.ChunkId       = kWavFileChunkId;     /** "RIFF" */
  74:../libDaisy/src/util/WavWriter.h ****         wavheader_.FileFormat    = kWavFileWaveId;      /** "WAVE" */
  75:../libDaisy/src/util/WavWriter.h ****         wavheader_.SubChunk1ID   = kWavFileSubChunk1Id; /** "fmt " */
  76:../libDaisy/src/util/WavWriter.h ****         wavheader_.SubChunk1Size = 16;                  // for PCM
  77:../libDaisy/src/util/WavWriter.h ****         wavheader_.AudioFormat   = WAVE_FORMAT_PCM;
  78:../libDaisy/src/util/WavWriter.h ****         wavheader_.NbrChannels   = cfg.channels;
  79:../libDaisy/src/util/WavWriter.h ****         wavheader_.SampleRate    = static_cast<int>(cfg.samplerate);
  80:../libDaisy/src/util/WavWriter.h ****         wavheader_.ByteRate      = CalcByteRate();
  81:../libDaisy/src/util/WavWriter.h ****         wavheader_.BlockAlign    = cfg_.channels * cfg_.bitspersample / 8;
  82:../libDaisy/src/util/WavWriter.h ****         wavheader_.BitPerSample  = cfg_.bitspersample;
  83:../libDaisy/src/util/WavWriter.h ****         wavheader_.SubChunk2ID   = kWavFileSubChunk2Id; /** "data" */
  84:../libDaisy/src/util/WavWriter.h ****         /** Also calcs SubChunk2Size */
  85:../libDaisy/src/util/WavWriter.h ****         wavheader_.FileSize = CalcFileSize();
  86:../libDaisy/src/util/WavWriter.h ****         // This is calculated as part of the subchunk size
  87:../libDaisy/src/util/WavWriter.h ****     }
  88:../libDaisy/src/util/WavWriter.h **** 
  89:../libDaisy/src/util/WavWriter.h ****     /** Records the current sample into the working buffer,
  90:../libDaisy/src/util/WavWriter.h ****      ** queues writes to media when necessary. 
  91:../libDaisy/src/util/WavWriter.h ****      ** 
  92:../libDaisy/src/util/WavWriter.h ****      ** \param in should be a pointer to an array of samples */
  93:../libDaisy/src/util/WavWriter.h ****     void Sample(const float *in)
  94:../libDaisy/src/util/WavWriter.h ****     {
  95:../libDaisy/src/util/WavWriter.h ****         for(int32_t i = 0; i < cfg_.channels; i++)
  96:../libDaisy/src/util/WavWriter.h ****         {
  97:../libDaisy/src/util/WavWriter.h ****             switch(cfg_.bitspersample)
  98:../libDaisy/src/util/WavWriter.h ****             {
  99:../libDaisy/src/util/WavWriter.h ****                 case 16:
 100:../libDaisy/src/util/WavWriter.h ****                 {
 101:../libDaisy/src/util/WavWriter.h ****                     int16_t *tp;
 102:../libDaisy/src/util/WavWriter.h ****                     tp            = (int16_t *)transfer_buff;
 103:../libDaisy/src/util/WavWriter.h ****                     tp[wptr_ + i] = f2s16(in[i]);
 104:../libDaisy/src/util/WavWriter.h ****                 }
 105:../libDaisy/src/util/WavWriter.h ****                 break;
 106:../libDaisy/src/util/WavWriter.h ****                 case 32: transfer_buff[wptr_ + i] = f2s32(in[i]); break;
 107:../libDaisy/src/util/WavWriter.h ****                 default: break;
ARM GAS  /var/folders/2p/02m_5p7958535cp2tpgps0400000gn/T//ccAOujCh.s 			page 42


 108:../libDaisy/src/util/WavWriter.h ****             }
 109:../libDaisy/src/util/WavWriter.h ****         }
 110:../libDaisy/src/util/WavWriter.h ****         num_samps_++;
 111:../libDaisy/src/util/WavWriter.h ****         wptr_ += cfg_.channels;
 112:../libDaisy/src/util/WavWriter.h ****         size_t cap_point
 113:../libDaisy/src/util/WavWriter.h ****             = cfg_.bitspersample == 16 ? kTransferSamps * 2 : kTransferSamps;
 114:../libDaisy/src/util/WavWriter.h ****         if(wptr_ == cap_point)
 115:../libDaisy/src/util/WavWriter.h ****         {
 116:../libDaisy/src/util/WavWriter.h ****             bstate_ = BufferState::FLUSH0;
 117:../libDaisy/src/util/WavWriter.h ****         }
 118:../libDaisy/src/util/WavWriter.h ****         if(wptr_ >= cap_point * 2)
 119:../libDaisy/src/util/WavWriter.h ****         {
 120:../libDaisy/src/util/WavWriter.h ****             wptr_   = 0;
 121:../libDaisy/src/util/WavWriter.h ****             bstate_ = BufferState::FLUSH1;
 122:../libDaisy/src/util/WavWriter.h ****         }
 123:../libDaisy/src/util/WavWriter.h ****     }
 124:../libDaisy/src/util/WavWriter.h **** 
 125:../libDaisy/src/util/WavWriter.h ****     /** Check buffer state and write */
 126:../libDaisy/src/util/WavWriter.h ****     void Write()
 127:../libDaisy/src/util/WavWriter.h ****     {
 128:../libDaisy/src/util/WavWriter.h ****         if(bstate_ != BufferState::IDLE && IsRecording())
 129:../libDaisy/src/util/WavWriter.h ****         {
 130:../libDaisy/src/util/WavWriter.h ****             uint32_t     offset;
 131:../libDaisy/src/util/WavWriter.h ****             unsigned int bw = 0;
 132:../libDaisy/src/util/WavWriter.h ****             //offset          = bstate_ == BufferState::FLUSH0 ? 0 : transfer_size;
 133:../libDaisy/src/util/WavWriter.h ****             offset  = bstate_ == BufferState::FLUSH0 ? 0 : kTransferSamps;
 134:../libDaisy/src/util/WavWriter.h ****             bstate_ = BufferState::IDLE;
 135:../libDaisy/src/util/WavWriter.h ****             f_write(&fp_, &transfer_buff[offset], transfer_size, &bw);
 136:../libDaisy/src/util/WavWriter.h ****         }
 137:../libDaisy/src/util/WavWriter.h ****     }
 138:../libDaisy/src/util/WavWriter.h **** 
 139:../libDaisy/src/util/WavWriter.h ****     /** Finalizes the writing of the WAV file.
 140:../libDaisy/src/util/WavWriter.h **** 	 ** This overwrites the WAV Header with the correct
 141:../libDaisy/src/util/WavWriter.h **** 	 ** final size, and closes the fptr. */
 142:../libDaisy/src/util/WavWriter.h ****     void SaveFile()
 143:../libDaisy/src/util/WavWriter.h ****     {
 144:../libDaisy/src/util/WavWriter.h ****         unsigned int bw = 0;
 145:../libDaisy/src/util/WavWriter.h ****         recording_      = false;
 146:../libDaisy/src/util/WavWriter.h ****         // We _should_ flush whatever's left in the transfer buff
 147:../libDaisy/src/util/WavWriter.h ****         // TODO: that.
 148:../libDaisy/src/util/WavWriter.h ****         wavheader_.FileSize = CalcFileSize();
 149:../libDaisy/src/util/WavWriter.h ****         f_lseek(&fp_, 0);
 150:../libDaisy/src/util/WavWriter.h ****         f_write(&fp_, &wavheader_, sizeof(wavheader_), &bw);
 151:../libDaisy/src/util/WavWriter.h ****         f_close(&fp_);
 152:../libDaisy/src/util/WavWriter.h ****     }
 153:../libDaisy/src/util/WavWriter.h **** 
 154:../libDaisy/src/util/WavWriter.h ****     /** Opens a file for writing. Writes the initial WAV Header, and gets ready for stream-based re
 155:../libDaisy/src/util/WavWriter.h ****     void OpenFile(const char *name)
 156:../libDaisy/src/util/WavWriter.h ****     {
 157:../libDaisy/src/util/WavWriter.h ****         if(f_open(&fp_, name, FA_WRITE | FA_CREATE_ALWAYS) == FR_OK)
 158:../libDaisy/src/util/WavWriter.h ****         {
 159:../libDaisy/src/util/WavWriter.h ****             unsigned int bw = 0;
 160:../libDaisy/src/util/WavWriter.h ****             if(f_write(&fp_, &wavheader_, sizeof(wavheader_), &bw) == FR_OK)
 161:../libDaisy/src/util/WavWriter.h ****             {
 162:../libDaisy/src/util/WavWriter.h ****                 recording_ = true;
 163:../libDaisy/src/util/WavWriter.h ****                 num_samps_ = 0;
 164:../libDaisy/src/util/WavWriter.h ****             }
ARM GAS  /var/folders/2p/02m_5p7958535cp2tpgps0400000gn/T//ccAOujCh.s 			page 43


 165:../libDaisy/src/util/WavWriter.h ****         }
 166:../libDaisy/src/util/WavWriter.h ****     }
 167:../libDaisy/src/util/WavWriter.h **** 
 168:../libDaisy/src/util/WavWriter.h ****     /** Returns whether recording is currently active or not. */
 169:../libDaisy/src/util/WavWriter.h ****     inline bool IsRecording() const { return recording_; }
 170:../libDaisy/src/util/WavWriter.h **** 
 171:../libDaisy/src/util/WavWriter.h ****     /** Returns the current length in samples of the recording. */
 172:../libDaisy/src/util/WavWriter.h ****     inline uint32_t GetLengthSamps() { return num_samps_; }
 173:../libDaisy/src/util/WavWriter.h **** 
 174:../libDaisy/src/util/WavWriter.h ****     /** Returns the current length of the recording in seconds. */
 175:../libDaisy/src/util/WavWriter.h ****     inline float GetLengthSeconds()
 176:../libDaisy/src/util/WavWriter.h ****     {
 177:../libDaisy/src/util/WavWriter.h ****         return (float)num_samps_ / (float)cfg_.samplerate;
 178:../libDaisy/src/util/WavWriter.h ****     }
 179:../libDaisy/src/util/WavWriter.h **** 
 180:../libDaisy/src/util/WavWriter.h ****   private:
 181:../libDaisy/src/util/WavWriter.h ****     /** Calculate the file size based on current recording */
 182:../libDaisy/src/util/WavWriter.h ****     inline uint32_t CalcFileSize()
 183:../libDaisy/src/util/WavWriter.h ****     {
 184:../libDaisy/src/util/WavWriter.h ****         wavheader_.SubCHunk2Size
 185:../libDaisy/src/util/WavWriter.h ****             = num_samps_ * cfg_.channels * cfg_.bitspersample / 8;
 186:../libDaisy/src/util/WavWriter.h ****         return 36 + wavheader_.SubCHunk2Size;
 187:../libDaisy/src/util/WavWriter.h ****     }
 188:../libDaisy/src/util/WavWriter.h **** 
 189:../libDaisy/src/util/WavWriter.h ****     /** Compute the byte rate given the user settings. */
 190:../libDaisy/src/util/WavWriter.h ****     inline uint32_t CalcByteRate()
 191:../libDaisy/src/util/WavWriter.h ****     {
 192:../libDaisy/src/util/WavWriter.h ****         return cfg_.samplerate * cfg_.channels * cfg_.bitspersample / 8;
 1181              		.loc 9 192 32 view .LVU308
 1182 0020 07EE903A 		vmov	s15, r3	@ int
 1183              	.LBE333:
 1184              	.LBE332:
 1185              	.LBE358:
 1186              	.LBE363:
 417:GrannyChordApp.cpp ****   cfg.samplerate = SAMPLE_RATE;
 1187              		.loc 3 417 41 view .LVU309
 1188 0024 C0F8A83F 		str	r3, [r0, #4008]
 1189              	.LBB364:
 1190              	.LBB359:
  78:../libDaisy/src/util/WavWriter.h ****         wavheader_.SampleRate    = static_cast<int>(cfg.samplerate);
 1191              		.loc 9 78 34 view .LVU310
 1192 0028 A0F8863F 		strh	r3, [r0, #3974]	@ movhi
  81:../libDaisy/src/util/WavWriter.h ****         wavheader_.BitPerSample  = cfg_.bitspersample;
 1193              		.loc 9 81 71 view .LVU311
 1194 002c 1B01     		lsls	r3, r3, #4
 1195              	.LVL85:
 1196              	.LBB343:
 1197              	.LBB334:
 1198              		.loc 9 192 32 view .LVU312
 1199 002e F8EEE77A 		vcvt.f32.s32	s15, s15
 1200              	.LBE334:
 1201              	.LBE343:
  70:../libDaisy/src/util/WavWriter.h ****         // Prep the wav header according to config.
 1202              		.loc 9 70 20 view .LVU313
 1203 0032 C0F89C1F 		str	r1, [r0, #3996]
  81:../libDaisy/src/util/WavWriter.h ****         wavheader_.BitPerSample  = cfg_.bitspersample;
 1204              		.loc 9 81 71 view .LVU314
ARM GAS  /var/folders/2p/02m_5p7958535cp2tpgps0400000gn/T//ccAOujCh.s 			page 44


 1205 0036 48BF     		it	mi
 1206 0038 0733     		addmi	r3, r3, #7
  73:../libDaisy/src/util/WavWriter.h ****         wavheader_.FileFormat    = kWavFileWaveId;      /** "WAVE" */
 1207              		.loc 9 73 34 view .LVU315
 1208 003a 1F49     		ldr	r1, .L56+4
  69:../libDaisy/src/util/WavWriter.h ****         num_samps_ = 0;
 1209              		.loc 9 69 9 view .LVU316
 1210 003c C0F8AC2F 		str	r2, [r0, #4012]
 1211              	.LBB344:
 1212              	.LBB335:
 1213              		.loc 9 192 32 view .LVU317
 1214 0040 67EE877A 		vmul.f32	s15, s15, s14
 1215              	.LBE335:
 1216              	.LBE344:
  81:../libDaisy/src/util/WavWriter.h ****         wavheader_.BitPerSample  = cfg_.bitspersample;
 1217              		.loc 9 81 71 view .LVU318
 1218 0044 DB10     		asrs	r3, r3, #3
 1219              	.LBB345:
 1220              	.LBB336:
 1221              		.loc 9 192 48 view .LVU319
 1222 0046 B3EE007A 		vmov.f32	s14, #1.6e+1
 1223              	.LBE336:
 1224              	.LBE345:
  73:../libDaisy/src/util/WavWriter.h ****         wavheader_.FileFormat    = kWavFileWaveId;      /** "WAVE" */
 1225              		.loc 9 73 34 view .LVU320
 1226 004a C0F8701F 		str	r1, [r0, #3952]
  74:../libDaisy/src/util/WavWriter.h ****         wavheader_.SubChunk1ID   = kWavFileSubChunk1Id; /** "fmt " */
 1227              		.loc 9 74 34 view .LVU321
 1228 004e A1F57001 		sub	r1, r1, #15728640
  81:../libDaisy/src/util/WavWriter.h ****         wavheader_.BitPerSample  = cfg_.bitspersample;
 1229              		.loc 9 81 34 view .LVU322
 1230 0052 A0F8903F 		strh	r3, [r0, #3984]	@ movhi
  82:../libDaisy/src/util/WavWriter.h ****         wavheader_.SubChunk2ID   = kWavFileSubChunk2Id; /** "data" */
 1231              		.loc 9 82 34 view .LVU323
 1232 0056 1023     		movs	r3, #16
  76:../libDaisy/src/util/WavWriter.h ****         wavheader_.AudioFormat   = WAVE_FORMAT_PCM;
 1233              		.loc 9 76 34 view .LVU324
 1234 0058 C0F8802F 		str	r2, [r0, #3968]
 1235              	.LBB346:
 1236              	.LBB337:
 1237              		.loc 9 192 48 view .LVU325
 1238 005c 67EE877A 		vmul.f32	s15, s15, s14
 1239              	.LBE337:
 1240              	.LBE346:
  74:../libDaisy/src/util/WavWriter.h ****         wavheader_.SubChunk1ID   = kWavFileSubChunk1Id; /** "fmt " */
 1241              		.loc 9 74 34 view .LVU326
 1242 0060 A1F2FB71 		subw	r1, r1, #2043
 1243              	.LBB347:
 1244              	.LBB338:
 1245              		.loc 9 192 69 view .LVU327
 1246 0064 B4EE007A 		vmov.f32	s14, #1.25e-1
 1247              	.LBE338:
 1248              	.LBE347:
  77:../libDaisy/src/util/WavWriter.h ****         wavheader_.NbrChannels   = cfg.channels;
 1249              		.loc 9 77 34 view .LVU328
 1250 0068 0122     		movs	r2, #1
  74:../libDaisy/src/util/WavWriter.h ****         wavheader_.SubChunk1ID   = kWavFileSubChunk1Id; /** "fmt " */
ARM GAS  /var/folders/2p/02m_5p7958535cp2tpgps0400000gn/T//ccAOujCh.s 			page 45


 1251              		.loc 9 74 34 view .LVU329
 1252 006a C0F8781F 		str	r1, [r0, #3960]
  75:../libDaisy/src/util/WavWriter.h ****         wavheader_.SubChunk1Size = 16;                  // for PCM
 1253              		.loc 9 75 34 view .LVU330
 1254 006e 01F15B41 		add	r1, r1, #-620756992
  82:../libDaisy/src/util/WavWriter.h ****         wavheader_.SubChunk2ID   = kWavFileSubChunk2Id; /** "data" */
 1255              		.loc 9 82 34 view .LVU331
 1256 0072 A0F8923F 		strh	r3, [r0, #3986]	@ movhi
 1257              	.LBB348:
 1258              	.LBB339:
 1259              		.loc 9 192 69 view .LVU332
 1260 0076 67EE877A 		vmul.f32	s15, s15, s14
 1261              	.LBE339:
 1262              	.LBE348:
  83:../libDaisy/src/util/WavWriter.h ****         /** Also calcs SubChunk2Size */
 1263              		.loc 9 83 34 view .LVU333
 1264 007a 104B     		ldr	r3, .L56+8
  75:../libDaisy/src/util/WavWriter.h ****         wavheader_.SubChunk1Size = 16;                  // for PCM
 1265              		.loc 9 75 34 view .LVU334
 1266 007c 01F5F111 		add	r1, r1, #1974272
  77:../libDaisy/src/util/WavWriter.h ****         wavheader_.NbrChannels   = cfg.channels;
 1267              		.loc 9 77 34 view .LVU335
 1268 0080 A0F8842F 		strh	r2, [r0, #3972]	@ movhi
  83:../libDaisy/src/util/WavWriter.h ****         /** Also calcs SubChunk2Size */
 1269              		.loc 9 83 34 view .LVU336
 1270 0084 C0F8943F 		str	r3, [r0, #3988]
  79:../libDaisy/src/util/WavWriter.h ****         wavheader_.ByteRate      = CalcByteRate();
 1271              		.loc 9 79 34 view .LVU337
 1272 0088 4BF68032 		movw	r2, #48000
 1273              	.LBB349:
 1274              	.LBB340:
 1275              		.loc 9 192 71 view .LVU338
 1276 008c FCEEE77A 		vcvt.u32.f32	s15, s15
 1277              	.LBE340:
 1278              	.LBE349:
 1279              	.LBB350:
 1280              	.LBB351:
 185:../libDaisy/src/util/WavWriter.h ****         return 36 + wavheader_.SubCHunk2Size;
 1281              		.loc 9 185 13 view .LVU339
 1282 0090 0023     		movs	r3, #0
 1283              	.LBE351:
 1284              	.LBE350:
  75:../libDaisy/src/util/WavWriter.h ****         wavheader_.SubChunk1Size = 16;                  // for PCM
 1285              		.loc 9 75 34 view .LVU340
 1286 0092 01F60F41 		addw	r1, r1, #3087
  79:../libDaisy/src/util/WavWriter.h ****         wavheader_.ByteRate      = CalcByteRate();
 1287              		.loc 9 79 34 view .LVU341
 1288 0096 C0F8882F 		str	r2, [r0, #3976]
 1289              	.LVL86:
 1290              	.LBB353:
 1291              	.LBI332:
 190:../libDaisy/src/util/WavWriter.h ****     {
 1292              		.loc 9 190 21 is_stmt 1 view .LVU342
 190:../libDaisy/src/util/WavWriter.h ****     {
 1293              		.loc 9 190 21 is_stmt 0 view .LVU343
 1294              	.LBE353:
 1295              	.LBB354:
ARM GAS  /var/folders/2p/02m_5p7958535cp2tpgps0400000gn/T//ccAOujCh.s 			page 46


 1296              	.LBI350:
 182:../libDaisy/src/util/WavWriter.h ****     {
 1297              		.loc 9 182 21 is_stmt 1 view .LVU344
 1298              	.LBB352:
 185:../libDaisy/src/util/WavWriter.h ****         return 36 + wavheader_.SubCHunk2Size;
 1299              		.loc 9 185 13 is_stmt 0 view .LVU345
 1300 009a C0F8983F 		str	r3, [r0, #3992]
 185:../libDaisy/src/util/WavWriter.h ****         return 36 + wavheader_.SubCHunk2Size;
 1301              		.loc 9 185 13 view .LVU346
 1302              	.LBE352:
 1303              	.LBE354:
  85:../libDaisy/src/util/WavWriter.h ****         // This is calculated as part of the subchunk size
 1304              		.loc 9 85 29 view .LVU347
 1305 009e 2423     		movs	r3, #36
 1306              	.LBB355:
 1307              	.LBB341:
 1308              		.loc 9 192 71 view .LVU348
 1309 00a0 17EE902A 		vmov	r2, s15	@ int
 1310              	.LBE341:
 1311              	.LBE355:
  75:../libDaisy/src/util/WavWriter.h ****         wavheader_.SubChunk1Size = 16;                  // for PCM
 1312              		.loc 9 75 34 view .LVU349
 1313 00a4 C0F87C1F 		str	r1, [r0, #3964]
  85:../libDaisy/src/util/WavWriter.h ****         // This is calculated as part of the subchunk size
 1314              		.loc 9 85 29 view .LVU350
 1315 00a8 C0F8743F 		str	r3, [r0, #3956]
 1316              	.LVL87:
 1317              	.LBB356:
 1318              	.LBB342:
 1319              		.loc 9 192 71 view .LVU351
 1320 00ac C0F88C2F 		str	r2, [r0, #3980]
 1321              	.LBE342:
 1322              	.LBE356:
 1323              	.LBE359:
 1324              	.LBE364:
 420:GrannyChordApp.cpp **** }
 1325              		.loc 3 420 1 view .LVU352
 1326 00b0 7047     		bx	lr
 1327              	.L57:
 1328 00b2 00BF     		.align	2
 1329              	.L56:
 1330 00b4 00803B47 		.word	1195081728
 1331 00b8 52494646 		.word	1179011410
 1332 00bc 64617461 		.word	1635017060
 1333              		.cfi_endproc
 1334              	.LFE4932:
 1336              		.section	.text._ZN14GrannyChordApp6InitFXEv,"ax",%progbits
 1337              		.align	1
 1338              		.global	_ZN14GrannyChordApp6InitFXEv
 1339              		.syntax unified
 1340              		.thumb
 1341              		.thumb_func
 1343              	_ZN14GrannyChordApp6InitFXEv:
 1344              	.LVL88:
 1345              	.LFB4933:
 421:GrannyChordApp.cpp **** 
 422:GrannyChordApp.cpp **** /// @brief initialise reverb, compressor, filter configs for FX section 
ARM GAS  /var/folders/2p/02m_5p7958535cp2tpgps0400000gn/T//ccAOujCh.s 			page 47


 423:GrannyChordApp.cpp **** void GrannyChordApp::InitFX(){
 1346              		.loc 3 423 30 is_stmt 1 view -0
 1347              		.cfi_startproc
 1348              		@ args = 0, pretend = 0, frame = 8
 1349              		@ frame_needed = 0, uses_anonymous_args = 0
 424:GrannyChordApp.cpp ****   comp_.Init(SAMPLE_RATE_FLOAT);
 1350              		.loc 3 424 3 view .LVU354
 423:GrannyChordApp.cpp ****   comp_.Init(SAMPLE_RATE_FLOAT);
 1351              		.loc 3 423 30 is_stmt 0 view .LVU355
 1352 0000 13B5     		push	{r0, r1, r4, lr}
 1353              		.cfi_def_cfa_offset 16
 1354              		.cfi_offset 4, -8
 1355              		.cfi_offset 14, -4
 1356              		.loc 3 424 13 view .LVU356
 1357 0002 9FED1E0A 		vldr.32	s0, .L59
 423:GrannyChordApp.cpp ****   comp_.Init(SAMPLE_RATE_FLOAT);
 1358              		.loc 3 423 30 view .LVU357
 1359 0006 0446     		mov	r4, r0
 1360              		.loc 3 424 13 view .LVU358
 1361 0008 00F52370 		add	r0, r0, #652
 1362              	.LVL89:
 1363              		.loc 3 424 13 view .LVU359
 1364 000c 8DED010A 		vstr.32	s0, [sp, #4]	@ int
 1365 0010 FFF7FEFF 		bl	_ZN7daisysp10Compressor4InitEf
 1366              	.LVL90:
 425:GrannyChordApp.cpp ****   limiter_.Init();
 1367              		.loc 3 425 3 is_stmt 1 view .LVU360
 1368              		.loc 3 425 16 is_stmt 0 view .LVU361
 1369 0014 04F53370 		add	r0, r4, #716
 1370 0018 FFF7FEFF 		bl	_ZN7daisysp7Limiter4InitEv
 1371              	.LVL91:
 426:GrannyChordApp.cpp ****   
 427:GrannyChordApp.cpp ****   chorus_.Init(SAMPLE_RATE_FLOAT);
 1372              		.loc 3 427 3 is_stmt 1 view .LVU362
 1373              		.loc 3 427 15 is_stmt 0 view .LVU363
 1374 001c 9DED010A 		vldr.32	s0, [sp, #4]	@ int
 1375 0020 04F53570 		add	r0, r4, #724
 1376 0024 FFF7FEFF 		bl	_ZN7daisysp6Chorus4InitEf
 1377              	.LVL92:
 428:GrannyChordApp.cpp ****   reverb_.Init(SAMPLE_RATE_FLOAT);
 1378              		.loc 3 428 3 is_stmt 1 view .LVU364
 1379              		.loc 3 428 15 is_stmt 0 view .LVU365
 1380 0028 9DED010A 		vldr.32	s0, [sp, #4]	@ int
 1381 002c D4F8D002 		ldr	r0, [r4, #720]
 1382 0030 FFF7FEFF 		bl	_ZN7daisysp8ReverbSc4InitEf
 1383              	.LVL93:
 429:GrannyChordApp.cpp ****   
 430:GrannyChordApp.cpp ****   lowpass_moog_.Init(SAMPLE_RATE_FLOAT);
 1384              		.loc 3 430 3 is_stmt 1 view .LVU366
 1385              		.loc 3 430 21 is_stmt 0 view .LVU367
 1386 0034 04F59C40 		add	r0, r4, #19968
 1387              	.LBB380:
 1388              	.LBB381:
 1389              		.file 10 "../DaisySP/Source/../DaisySP-LGPL/Source/Filters/moogladder.h"
   1:../DaisySP/Source/../DaisySP-LGPL/Source/Filters/moogladder.h **** /*
   2:../DaisySP/Source/../DaisySP-LGPL/Source/Filters/moogladder.h **** Copyright (c) 2023 Electrosmith, Corp, Victor Lazzarini, John ffitch (fast tanh), Bob Moog
   3:../DaisySP/Source/../DaisySP-LGPL/Source/Filters/moogladder.h **** 
ARM GAS  /var/folders/2p/02m_5p7958535cp2tpgps0400000gn/T//ccAOujCh.s 			page 48


   4:../DaisySP/Source/../DaisySP-LGPL/Source/Filters/moogladder.h **** Use of this source code is governed by the LGPL V2.1
   5:../DaisySP/Source/../DaisySP-LGPL/Source/Filters/moogladder.h **** license that can be found in the LICENSE file or at
   6:../DaisySP/Source/../DaisySP-LGPL/Source/Filters/moogladder.h **** https://opensource.org/license/lgpl-2-1/
   7:../DaisySP/Source/../DaisySP-LGPL/Source/Filters/moogladder.h **** */
   8:../DaisySP/Source/../DaisySP-LGPL/Source/Filters/moogladder.h **** 
   9:../DaisySP/Source/../DaisySP-LGPL/Source/Filters/moogladder.h **** #pragma once
  10:../DaisySP/Source/../DaisySP-LGPL/Source/Filters/moogladder.h **** #ifndef DSY_MOOGLADDER_H
  11:../DaisySP/Source/../DaisySP-LGPL/Source/Filters/moogladder.h **** #define DSY_MOOGLADDER_H
  12:../DaisySP/Source/../DaisySP-LGPL/Source/Filters/moogladder.h **** 
  13:../DaisySP/Source/../DaisySP-LGPL/Source/Filters/moogladder.h **** #include <stdint.h>
  14:../DaisySP/Source/../DaisySP-LGPL/Source/Filters/moogladder.h **** #ifdef __cplusplus
  15:../DaisySP/Source/../DaisySP-LGPL/Source/Filters/moogladder.h **** 
  16:../DaisySP/Source/../DaisySP-LGPL/Source/Filters/moogladder.h **** namespace daisysp
  17:../DaisySP/Source/../DaisySP-LGPL/Source/Filters/moogladder.h **** {
  18:../DaisySP/Source/../DaisySP-LGPL/Source/Filters/moogladder.h **** /** Moog ladder filter module*/
  19:../DaisySP/Source/../DaisySP-LGPL/Source/Filters/moogladder.h **** class MoogLadder
  20:../DaisySP/Source/../DaisySP-LGPL/Source/Filters/moogladder.h **** {
  21:../DaisySP/Source/../DaisySP-LGPL/Source/Filters/moogladder.h ****   public:
  22:../DaisySP/Source/../DaisySP-LGPL/Source/Filters/moogladder.h ****     MoogLadder() {}
  23:../DaisySP/Source/../DaisySP-LGPL/Source/Filters/moogladder.h ****     ~MoogLadder() {}
  24:../DaisySP/Source/../DaisySP-LGPL/Source/Filters/moogladder.h ****     /** Initializes the MoogLadder module.
  25:../DaisySP/Source/../DaisySP-LGPL/Source/Filters/moogladder.h ****         sample_rate - The sample rate of the audio engine being run. 
  26:../DaisySP/Source/../DaisySP-LGPL/Source/Filters/moogladder.h ****     */
  27:../DaisySP/Source/../DaisySP-LGPL/Source/Filters/moogladder.h ****     void Init(float sample_rate);
  28:../DaisySP/Source/../DaisySP-LGPL/Source/Filters/moogladder.h **** 
  29:../DaisySP/Source/../DaisySP-LGPL/Source/Filters/moogladder.h **** 
  30:../DaisySP/Source/../DaisySP-LGPL/Source/Filters/moogladder.h ****     /** Processes the lowpass filter
  31:../DaisySP/Source/../DaisySP-LGPL/Source/Filters/moogladder.h ****     */
  32:../DaisySP/Source/../DaisySP-LGPL/Source/Filters/moogladder.h ****     float Process(float in);
  33:../DaisySP/Source/../DaisySP-LGPL/Source/Filters/moogladder.h **** 
  34:../DaisySP/Source/../DaisySP-LGPL/Source/Filters/moogladder.h ****     /** 
  35:../DaisySP/Source/../DaisySP-LGPL/Source/Filters/moogladder.h ****         Sets the cutoff frequency or half-way point of the filter.
  36:../DaisySP/Source/../DaisySP-LGPL/Source/Filters/moogladder.h ****         Arguments
  37:../DaisySP/Source/../DaisySP-LGPL/Source/Filters/moogladder.h ****         - freq - frequency value in Hz. Range: Any positive value.
  38:../DaisySP/Source/../DaisySP-LGPL/Source/Filters/moogladder.h ****     */
  39:../DaisySP/Source/../DaisySP-LGPL/Source/Filters/moogladder.h ****     inline void SetFreq(float freq) { freq_ = freq; }
 1390              		.loc 10 39 45 view .LVU368
 1391 0038 04F58044 		add	r4, r4, #16384
 1392              	.LVL94:
 1393              		.loc 10 39 45 view .LVU369
 1394              	.LBE381:
 1395              	.LBE380:
 1396              		.loc 3 430 21 view .LVU370
 1397 003c 9DED010A 		vldr.32	s0, [sp, #4]	@ int
 1398 0040 3030     		adds	r0, r0, #48
 1399 0042 FFF7FEFF 		bl	_ZN7daisysp10MoogLadder4InitEf
 1400              	.LVL95:
 431:GrannyChordApp.cpp ****   lowpass_moog_.SetFreq(LOPASS_UPPER_BOUND);
 1401              		.loc 3 431 3 is_stmt 1 view .LVU371
 1402              	.LBB383:
 1403              	.LBI380:
 1404              		.loc 10 39 17 view .LVU372
 1405              	.LBB382:
 1406              		.loc 10 39 39 view .LVU373
 1407              		.loc 10 39 45 is_stmt 0 view .LVU374
 1408 0046 04F56363 		add	r3, r4, #3632
 1409 004a 0D4A     		ldr	r2, .L59+4
ARM GAS  /var/folders/2p/02m_5p7958535cp2tpgps0400000gn/T//ccAOujCh.s 			page 49


 1410 004c 9A60     		str	r2, [r3, #8]	@ float
 1411              	.LVL96:
 1412              		.loc 10 39 45 view .LVU375
 1413              	.LBE382:
 1414              	.LBE383:
 432:GrannyChordApp.cpp ****   lowpass_moog_.SetRes(0.7f);
 1415              		.loc 3 432 3 is_stmt 1 view .LVU376
 1416              	.LBB384:
 1417              	.LBI384:
  40:../DaisySP/Source/../DaisySP-LGPL/Source/Filters/moogladder.h ****     /** 
  41:../DaisySP/Source/../DaisySP-LGPL/Source/Filters/moogladder.h ****         Sets the resonance of the filter.
  42:../DaisySP/Source/../DaisySP-LGPL/Source/Filters/moogladder.h ****     */
  43:../DaisySP/Source/../DaisySP-LGPL/Source/Filters/moogladder.h ****     inline void SetRes(float res) { res_ = res; }
 1418              		.loc 10 43 17 view .LVU377
 1419              	.LBB385:
 1420              		.loc 10 43 37 view .LVU378
 1421              		.loc 10 43 42 is_stmt 0 view .LVU379
 1422 004e 0D4A     		ldr	r2, .L59+8
 1423 0050 5A60     		str	r2, [r3, #4]	@ float
 1424              	.LVL97:
 1425              		.loc 10 43 42 view .LVU380
 1426              	.LBE385:
 1427              	.LBE384:
 433:GrannyChordApp.cpp ****   
 434:GrannyChordApp.cpp ****   hipass_.Init();
 1428              		.loc 3 434 3 is_stmt 1 view .LVU381
 1429              	.LBB386:
 1430              	.LBI386:
  44:../DaisySP/Source/Filters/onepole.h ****     {
 1431              		.loc 2 44 10 view .LVU382
 1432              	.LBE386:
  46:../DaisySP/Source/Filters/onepole.h ****         mode_ = FILTER_MODE_LOW_PASS;
 1433              		.loc 2 46 9 view .LVU383
 1434              	.LBB391:
 1435              	.LBB387:
 1436              	.LBI387:
  51:../DaisySP/Source/Filters/onepole.h **** 
 1437              		.loc 2 51 17 view .LVU384
 1438              	.LBB388:
  51:../DaisySP/Source/Filters/onepole.h **** 
 1439              		.loc 2 51 27 view .LVU385
  51:../DaisySP/Source/Filters/onepole.h **** 
 1440              		.loc 2 51 34 is_stmt 0 view .LVU386
 1441 0052 04F67463 		addw	r3, r4, #3700
 1442 0056 0022     		movs	r2, #0
 1443              	.LBE388:
 1444              	.LBE387:
 1445              	.LBE391:
 1446              	.LBB392:
 1447              	.LBB393:
  61:../DaisySP/Source/Filters/onepole.h ****         gi_ = 1.f / (1.f + g_);
 1448              		.loc 2 61 13 view .LVU387
 1449 0058 04F68C64 		addw	r4, r4, #3724
 1450              	.LVL98:
  61:../DaisySP/Source/Filters/onepole.h ****         gi_ = 1.f / (1.f + g_);
 1451              		.loc 2 61 13 view .LVU388
 1452              	.LBE393:
ARM GAS  /var/folders/2p/02m_5p7958535cp2tpgps0400000gn/T//ccAOujCh.s 			page 50


 1453              	.LBE392:
 1454              	.LBB395:
 1455              	.LBB390:
 1456              	.LBB389:
  51:../DaisySP/Source/Filters/onepole.h **** 
 1457              		.loc 2 51 34 view .LVU389
 1458 005c 9A60     		str	r2, [r3, #8]	@ float
  51:../DaisySP/Source/Filters/onepole.h **** 
 1459              		.loc 2 51 34 view .LVU390
 1460              	.LBE389:
 1461              	.LBE390:
 1462              	.LBE395:
  47:../DaisySP/Source/Filters/onepole.h ****     }
 1463              		.loc 2 47 9 is_stmt 1 view .LVU391
 435:GrannyChordApp.cpp ****   hipass_.SetFilterMode(daisysp::OnePole::FilterMode::FILTER_MODE_HIGH_PASS);
 1464              		.loc 3 435 3 view .LVU392
 1465              	.LVL99:
 1466              	.LBB396:
 1467              	.LBI396:
  68:../DaisySP/Source/Filters/onepole.h **** 
 1468              		.loc 2 68 17 view .LVU393
 1469              	.LBB397:
  68:../DaisySP/Source/Filters/onepole.h **** 
 1470              		.loc 2 68 50 view .LVU394
  68:../DaisySP/Source/Filters/onepole.h **** 
 1471              		.loc 2 68 56 is_stmt 0 view .LVU395
 1472 005e 0122     		movs	r2, #1
 1473 0060 04F80C2C 		strb	r2, [r4, #-12]
 1474              	.LVL100:
  68:../DaisySP/Source/Filters/onepole.h **** 
 1475              		.loc 2 68 56 view .LVU396
 1476              	.LBE397:
 1477              	.LBE396:
 436:GrannyChordApp.cpp ****   hipass_.SetFrequency(HIPASS_LOWER_BOUND);
 1478              		.loc 3 436 3 is_stmt 1 view .LVU397
 1479              	.LBB398:
 1480              	.LBI398:
  56:../DaisySP/Source/Filters/onepole.h ****     {
 1481              		.loc 2 56 17 view .LVU398
 1482              	.LBB399:
  59:../DaisySP/Source/Filters/onepole.h **** 
 1483              		.loc 2 59 9 view .LVU399
  61:../DaisySP/Source/Filters/onepole.h ****         gi_ = 1.f / (1.f + g_);
 1484              		.loc 2 61 9 view .LVU400
  61:../DaisySP/Source/Filters/onepole.h ****         gi_ = 1.f / (1.f + g_);
 1485              		.loc 2 61 13 is_stmt 0 view .LVU401
 1486 0064 084A     		ldr	r2, .L59+12
 1487 0066 1A60     		str	r2, [r3]	@ float
  62:../DaisySP/Source/Filters/onepole.h ****     }
 1488              		.loc 2 62 9 is_stmt 1 view .LVU402
  62:../DaisySP/Source/Filters/onepole.h ****     }
 1489              		.loc 2 62 13 is_stmt 0 view .LVU403
 1490 0068 084A     		ldr	r2, .L59+16
 1491 006a 5A60     		str	r2, [r3, #4]	@ float
 1492              	.LVL101:
  62:../DaisySP/Source/Filters/onepole.h ****     }
 1493              		.loc 2 62 13 view .LVU404
ARM GAS  /var/folders/2p/02m_5p7958535cp2tpgps0400000gn/T//ccAOujCh.s 			page 51


 1494              	.LBE399:
 1495              	.LBE398:
 437:GrannyChordApp.cpp **** 
 438:GrannyChordApp.cpp ****   hicut_.SetFilterMode(daisysp::OnePole::FilterMode::FILTER_MODE_LOW_PASS);
 1496              		.loc 3 438 3 is_stmt 1 view .LVU405
 1497              	.LBB400:
 1498              	.LBI400:
  68:../DaisySP/Source/Filters/onepole.h **** 
 1499              		.loc 2 68 17 view .LVU406
 1500              	.LBB401:
  68:../DaisySP/Source/Filters/onepole.h **** 
 1501              		.loc 2 68 50 view .LVU407
  68:../DaisySP/Source/Filters/onepole.h **** 
 1502              		.loc 2 68 56 is_stmt 0 view .LVU408
 1503 006c 0023     		movs	r3, #0
 1504 006e 2373     		strb	r3, [r4, #12]
 1505              	.LVL102:
  68:../DaisySP/Source/Filters/onepole.h **** 
 1506              		.loc 2 68 56 view .LVU409
 1507              	.LBE401:
 1508              	.LBE400:
 439:GrannyChordApp.cpp ****   hicut_.SetFrequency(HICUT_FREQ);
 1509              		.loc 3 439 3 is_stmt 1 view .LVU410
 1510              	.LBB402:
 1511              	.LBI392:
  56:../DaisySP/Source/Filters/onepole.h ****     {
 1512              		.loc 2 56 17 view .LVU411
 1513              	.LBB394:
  59:../DaisySP/Source/Filters/onepole.h **** 
 1514              		.loc 2 59 9 view .LVU412
  61:../DaisySP/Source/Filters/onepole.h ****         gi_ = 1.f / (1.f + g_);
 1515              		.loc 2 61 9 view .LVU413
  61:../DaisySP/Source/Filters/onepole.h ****         gi_ = 1.f / (1.f + g_);
 1516              		.loc 2 61 13 is_stmt 0 view .LVU414
 1517 0070 074B     		ldr	r3, .L59+20
 1518 0072 2360     		str	r3, [r4]	@ float
  62:../DaisySP/Source/Filters/onepole.h ****     }
 1519              		.loc 2 62 9 is_stmt 1 view .LVU415
  62:../DaisySP/Source/Filters/onepole.h ****     }
 1520              		.loc 2 62 13 is_stmt 0 view .LVU416
 1521 0074 074B     		ldr	r3, .L59+24
 1522 0076 6360     		str	r3, [r4, #4]	@ float
 1523              	.LVL103:
  62:../DaisySP/Source/Filters/onepole.h ****     }
 1524              		.loc 2 62 13 view .LVU417
 1525              	.LBE394:
 1526              	.LBE402:
 440:GrannyChordApp.cpp **** }
 1527              		.loc 3 440 1 view .LVU418
 1528 0078 02B0     		add	sp, sp, #8
 1529              		.cfi_def_cfa_offset 8
 1530              		@ sp needed
 1531 007a 10BD     		pop	{r4, pc}
 1532              	.LVL104:
 1533              	.L60:
 1534              		.loc 3 440 1 view .LVU419
 1535              		.align	2
ARM GAS  /var/folders/2p/02m_5p7958535cp2tpgps0400000gn/T//ccAOujCh.s 			page 52


 1536              	.L59:
 1537 007c 00803B47 		.word	1195081728
 1538 0080 00A08C46 		.word	1183621120
 1539 0084 3333333F 		.word	1060320051
 1540 0088 C4B5A43A 		.word	983872964
 1541 008c C0AD7F3F 		.word	1065332160
 1542 0090 A178EF3F 		.word	1072658593
 1543 0094 DE57B23E 		.word	1051875294
 1544              		.cfi_endproc
 1545              	.LFE4933:
 1547              		.section	.text._ZN14GrannyChordApp17InitPrevParamValsEv,"ax",%progbits
 1548              		.align	1
 1549              		.global	_ZN14GrannyChordApp17InitPrevParamValsEv
 1550              		.syntax unified
 1551              		.thumb
 1552              		.thumb_func
 1554              	_ZN14GrannyChordApp17InitPrevParamValsEv:
 1555              	.LVL105:
 1556              	.LFB4934:
 441:GrannyChordApp.cpp **** 
 442:GrannyChordApp.cpp **** /// @brief Initialise previous parameter value arrays to defaults
 443:GrannyChordApp.cpp **** void GrannyChordApp::InitPrevParamVals(){
 1557              		.loc 3 443 41 is_stmt 1 view -0
 1558              		.cfi_startproc
 1559              		@ args = 0, pretend = 0, frame = 0
 1560              		@ frame_needed = 0, uses_anonymous_args = 0
 1561              		@ link register save eliminated.
 444:GrannyChordApp.cpp ****   for (int i=0; i < NUM_SYNTH_MODES;i++){
 1562              		.loc 3 444 3 view .LVU421
 1563              	.LBB403:
 1564              		.loc 3 444 19 view .LVU422
 1565 0000 00F59E43 		add	r3, r0, #20224
 1566 0004 00F59E40 		add	r0, r0, #20224
 1567              	.LVL106:
 1568              		.loc 3 444 19 is_stmt 0 view .LVU423
 1569 0008 3033     		adds	r3, r3, #48
 1570 000a 5030     		adds	r0, r0, #80
 1571              	.LVL107:
 1572              	.L62:
 445:GrannyChordApp.cpp ****     prev_param_k1[i] = 0.5f;
 1573              		.loc 3 445 5 is_stmt 1 discriminator 2 view .LVU424
 1574              		.loc 3 445 22 is_stmt 0 discriminator 2 view .LVU425
 1575 000c 4FF07C52 		mov	r2, #1056964608
 1576 0010 43F8042B 		str	r2, [r3], #4	@ float
 446:GrannyChordApp.cpp ****     prev_param_k2[i] = 0.5f;
 1577              		.loc 3 446 5 is_stmt 1 discriminator 2 view .LVU426
 444:GrannyChordApp.cpp ****   for (int i=0; i < NUM_SYNTH_MODES;i++){
 1578              		.loc 3 444 19 is_stmt 0 discriminator 2 view .LVU427
 1579 0014 8342     		cmp	r3, r0
 1580              		.loc 3 446 22 discriminator 2 view .LVU428
 1581 0016 DA61     		str	r2, [r3, #28]	@ float
 444:GrannyChordApp.cpp ****   for (int i=0; i < NUM_SYNTH_MODES;i++){
 1582              		.loc 3 444 3 is_stmt 1 discriminator 2 view .LVU429
 444:GrannyChordApp.cpp ****   for (int i=0; i < NUM_SYNTH_MODES;i++){
 1583              		.loc 3 444 19 discriminator 2 view .LVU430
 1584 0018 F8D1     		bne	.L62
 1585              	.LBE403:
ARM GAS  /var/folders/2p/02m_5p7958535cp2tpgps0400000gn/T//ccAOujCh.s 			page 53


 447:GrannyChordApp.cpp ****   } 
 448:GrannyChordApp.cpp **** }
 1586              		.loc 3 448 1 is_stmt 0 view .LVU431
 1587 001a 7047     		bx	lr
 1588              		.cfi_endproc
 1589              	.LFE4934:
 1591              		.section	.rodata._ZN14GrannyChordApp4InitEPsS0_.str1.1,"aMS",%progbits,1
 1592              	.LC7:
 1593 0000 46696C65 		.ascii	"File manager failed to init\000"
 1593      206D616E 
 1593      61676572 
 1593      20666169 
 1593      6C656420 
 1594              		.section	.text._ZN14GrannyChordApp4InitEPsS0_,"ax",%progbits
 1595              		.align	1
 1596              		.global	_ZN14GrannyChordApp4InitEPsS0_
 1597              		.syntax unified
 1598              		.thumb
 1599              		.thumb_func
 1601              	_ZN14GrannyChordApp4InitEPsS0_:
 1602              	.LVL108:
 1603              	.LFB4910:
  16:GrannyChordApp.cpp ****   left_buf_ = left, right_buf_ = right;
 1604              		.loc 3 16 57 is_stmt 1 view -0
 1605              		.cfi_startproc
 1606              		@ args = 0, pretend = 0, frame = 0
 1607              		@ frame_needed = 0, uses_anonymous_args = 0
  17:GrannyChordApp.cpp ****   pod_.SetAudioBlockSize(2);
 1608              		.loc 3 17 3 view .LVU433
  16:GrannyChordApp.cpp ****   left_buf_ = left, right_buf_ = right;
 1609              		.loc 3 16 57 is_stmt 0 view .LVU434
 1610 0000 70B5     		push	{r4, r5, r6, lr}
 1611              		.cfi_def_cfa_offset 16
 1612              		.cfi_offset 4, -16
 1613              		.cfi_offset 5, -12
 1614              		.cfi_offset 6, -8
 1615              		.cfi_offset 14, -4
  17:GrannyChordApp.cpp ****   pod_.SetAudioBlockSize(2);
 1616              		.loc 3 17 13 view .LVU435
 1617 0002 00F58045 		add	r5, r0, #16384
  16:GrannyChordApp.cpp ****   left_buf_ = left, right_buf_ = right;
 1618              		.loc 3 16 57 view .LVU436
 1619 0006 0446     		mov	r4, r0
  21:GrannyChordApp.cpp ****   // SetupTimer();
 1620              		.loc 3 21 15 view .LVU437
 1621 0008 0026     		movs	r6, #0
  18:GrannyChordApp.cpp ****   pod_.SetAudioSampleRate(SaiHandle::Config::SampleRate::SAI_48KHZ);
 1622              		.loc 3 18 25 view .LVU438
 1623 000a C069     		ldr	r0, [r0, #28]
 1624              	.LVL109:
  16:GrannyChordApp.cpp ****   left_buf_ = left, right_buf_ = right;
 1625              		.loc 3 16 57 view .LVU439
 1626 000c 2DED048B 		vpush.64	{d8, d9}
 1627              		.cfi_def_cfa_offset 32
 1628              		.cfi_offset 80, -32
 1629              		.cfi_offset 81, -28
 1630              		.cfi_offset 82, -24
ARM GAS  /var/folders/2p/02m_5p7958535cp2tpgps0400000gn/T//ccAOujCh.s 			page 54


 1631              		.cfi_offset 83, -20
  17:GrannyChordApp.cpp ****   pod_.SetAudioBlockSize(2);
 1632              		.loc 3 17 13 view .LVU440
 1633 0010 C5F89C1E 		str	r1, [r5, #3740]
  18:GrannyChordApp.cpp ****   pod_.SetAudioSampleRate(SaiHandle::Config::SampleRate::SAI_48KHZ);
 1634              		.loc 3 18 25 view .LVU441
 1635 0014 0221     		movs	r1, #2
 1636              	.LVL110:
  17:GrannyChordApp.cpp ****   pod_.SetAudioBlockSize(2);
 1637              		.loc 3 17 32 view .LVU442
 1638 0016 C5F8A02E 		str	r2, [r5, #3744]
  18:GrannyChordApp.cpp ****   pod_.SetAudioSampleRate(SaiHandle::Config::SampleRate::SAI_48KHZ);
 1639              		.loc 3 18 3 is_stmt 1 view .LVU443
  18:GrannyChordApp.cpp ****   pod_.SetAudioSampleRate(SaiHandle::Config::SampleRate::SAI_48KHZ);
 1640              		.loc 3 18 25 is_stmt 0 view .LVU444
 1641 001a FFF7FEFF 		bl	_ZN5daisy8DaisyPod17SetAudioBlockSizeEj
 1642              	.LVL111:
  19:GrannyChordApp.cpp **** 
 1643              		.loc 3 19 3 is_stmt 1 view .LVU445
  19:GrannyChordApp.cpp **** 
 1644              		.loc 3 19 26 is_stmt 0 view .LVU446
 1645 001e E069     		ldr	r0, [r4, #28]
 1646 0020 0321     		movs	r1, #3
 1647 0022 FFF7FEFF 		bl	_ZN5daisy8DaisyPod18SetAudioSampleRateENS_9SaiHandle6Config10SampleRateE
 1648              	.LVL112:
  21:GrannyChordApp.cpp ****   // SetupTimer();
 1649              		.loc 3 21 3 is_stmt 1 view .LVU447
  23:GrannyChordApp.cpp ****     DebugPrint(pod_,"File manager failed to init");
 1650              		.loc 3 23 19 is_stmt 0 view .LVU448
 1651 0026 2046     		mov	r0, r4
  21:GrannyChordApp.cpp ****   // SetupTimer();
 1652              		.loc 3 21 15 view .LVU449
 1653 0028 C4F87862 		str	r6, [r4, #632]
  23:GrannyChordApp.cpp ****     DebugPrint(pod_,"File manager failed to init");
 1654              		.loc 3 23 3 is_stmt 1 view .LVU450
  23:GrannyChordApp.cpp ****     DebugPrint(pod_,"File manager failed to init");
 1655              		.loc 3 23 19 is_stmt 0 view .LVU451
 1656 002c FFF7FEFF 		bl	_ZN14GrannyChordApp11InitFileMgrEv
 1657              	.LVL113:
  23:GrannyChordApp.cpp ****     DebugPrint(pod_,"File manager failed to init");
 1658              		.loc 3 23 3 view .LVU452
 1659 0030 B0B9     		cbnz	r0, .L65
  24:GrannyChordApp.cpp ****     pod_.led1.SetRed(1);
 1660              		.loc 3 24 5 is_stmt 1 view .LVU453
  24:GrannyChordApp.cpp ****     pod_.led1.SetRed(1);
 1661              		.loc 3 24 5 view .LVU454
 1662              	.LVL114:
 1663              	.LBB412:
 1664              	.LBI412:
 126:../libDaisy/src/daisy_seed.h ****     {
 1665              		.loc 5 126 17 view .LVU455
 1666              	.LBB413:
 1667              		.loc 5 128 23 is_stmt 0 view .LVU456
 1668 0032 3048     		ldr	r0, .L66
 1669 0034 FFF7FEFF 		bl	_ZN5daisy6LoggerILNS_17LoggerDestinationE1EE9PrintLineEPKcz
 1670              	.LVL115:
 1671              		.loc 5 128 23 view .LVU457
ARM GAS  /var/folders/2p/02m_5p7958535cp2tpgps0400000gn/T//ccAOujCh.s 			page 55


 1672              	.LBE413:
 1673              	.LBE412:
  25:GrannyChordApp.cpp ****     pod_.led2.SetRed(1);
 1674              		.loc 3 25 5 is_stmt 1 view .LVU458
  25:GrannyChordApp.cpp ****     pod_.led2.SetRed(1);
 1675              		.loc 3 25 21 is_stmt 0 view .LVU459
 1676 0038 E069     		ldr	r0, [r4, #28]
 1677 003a B7EE000A 		vmov.f32	s0, #1.0e+0
 1678 003e D830     		adds	r0, r0, #216
 1679 0040 FFF7FEFF 		bl	_ZN5daisy6RgbLed6SetRedEf
 1680              	.LVL116:
  26:GrannyChordApp.cpp ****     pod_.UpdateLeds();
 1681              		.loc 3 26 5 is_stmt 1 view .LVU460
  26:GrannyChordApp.cpp ****     pod_.UpdateLeds();
 1682              		.loc 3 26 21 is_stmt 0 view .LVU461
 1683 0044 E069     		ldr	r0, [r4, #28]
 1684 0046 B7EE000A 		vmov.f32	s0, #1.0e+0
 1685 004a 00F59670 		add	r0, r0, #300
 1686 004e FFF7FEFF 		bl	_ZN5daisy6RgbLed6SetRedEf
 1687              	.LVL117:
  27:GrannyChordApp.cpp ****     return;
 1688              		.loc 3 27 5 is_stmt 1 view .LVU462
  27:GrannyChordApp.cpp ****     return;
 1689              		.loc 3 27 20 is_stmt 0 view .LVU463
 1690 0052 E069     		ldr	r0, [r4, #28]
  36:GrannyChordApp.cpp **** 
 1691              		.loc 3 36 1 view .LVU464
 1692 0054 BDEC048B 		vldm	sp!, {d8-d9}
 1693              		.cfi_remember_state
 1694              		.cfi_restore 82
 1695              		.cfi_restore 83
 1696              		.cfi_restore 80
 1697              		.cfi_restore 81
 1698              		.cfi_def_cfa_offset 16
 1699 0058 BDE87040 		pop	{r4, r5, r6, lr}
 1700              		.cfi_restore 14
 1701              		.cfi_restore 6
 1702              		.cfi_restore 5
 1703              		.cfi_restore 4
 1704              		.cfi_def_cfa_offset 0
 1705              	.LVL118:
  27:GrannyChordApp.cpp ****     return;
 1706              		.loc 3 27 20 view .LVU465
 1707 005c FFF7FEBF 		b	_ZN5daisy8DaisyPod10UpdateLedsEv
 1708              	.LVL119:
 1709              	.L65:
 1710              		.cfi_restore_state
  30:GrannyChordApp.cpp ****   InitFX();
 1711              		.loc 3 30 3 is_stmt 1 view .LVU466
  30:GrannyChordApp.cpp ****   InitFX();
 1712              		.loc 3 30 17 is_stmt 0 view .LVU467
 1713 0060 E069     		ldr	r0, [r4, #28]
 1714 0062 FFF7FEFF 		bl	_ZN5daisy8DaisyPod15AudioSampleRateEv
 1715              	.LVL120:
  30:GrannyChordApp.cpp ****   InitFX();
 1716              		.loc 3 30 61 view .LVU468
 1717 0066 E069     		ldr	r0, [r4, #28]
ARM GAS  /var/folders/2p/02m_5p7958535cp2tpgps0400000gn/T//ccAOujCh.s 			page 56


  30:GrannyChordApp.cpp ****   InitFX();
 1718              		.loc 3 30 17 view .LVU469
 1719 0068 F0EE408A 		vmov.f32	s17, s0
  30:GrannyChordApp.cpp ****   InitFX();
 1720              		.loc 3 30 61 view .LVU470
 1721 006c FFF7FEFF 		bl	_ZN5daisy8DaisyPod14AudioBlockSizeEv
 1722              	.LVL121:
 1723              	.LBB414:
 1724              	.LBI414:
  29:../libDaisy/src/util/CpuLoadMeter.h ****               int   blockSizeInSamples,
 1725              		.loc 4 29 10 is_stmt 1 view .LVU471
 1726              	.LBB415:
  33:../libDaisy/src/util/CpuLoadMeter.h ****         const auto ticksPerS   = float(System::GetTickFreq());
 1727              		.loc 4 33 9 view .LVU472
  33:../libDaisy/src/util/CpuLoadMeter.h ****         const auto ticksPerS   = float(System::GetTickFreq());
 1728              		.loc 4 33 34 is_stmt 0 view .LVU473
 1729 0070 07EE900A 		vmov	s15, r0	@ int
 1730 0074 B8EEE78A 		vcvt.f32.s32	s16, s15
  34:../libDaisy/src/util/CpuLoadMeter.h ****         ticksPerBlockInv_      = 1.0f / (ticksPerS * secPerBlock);
 1731              		.loc 4 34 59 view .LVU474
 1732 0078 FFF7FEFF 		bl	_ZN5daisy6System11GetTickFreqEv
 1733              	.LVL122:
  34:../libDaisy/src/util/CpuLoadMeter.h ****         ticksPerBlockInv_      = 1.0f / (ticksPerS * secPerBlock);
 1734              		.loc 4 34 61 view .LVU475
 1735 007c 07EE900A 		vmov	s15, r0	@ int
  35:../libDaisy/src/util/CpuLoadMeter.h **** 
 1736              		.loc 4 35 39 view .LVU476
 1737 0080 B7EE007A 		vmov.f32	s14, #1.0e+0
  39:../libDaisy/src/util/CpuLoadMeter.h ****             = smoothingFilterCutoffHz * 2.0f * 3.141592653f / blockRateInHz;
 1738              		.loc 4 39 20 view .LVU477
 1739 0084 9FED1C6A 		vldr.32	s12, .L66+4
 1740              	.LBB416:
 1741              	.LBB417:
  82:../libDaisy/src/util/CpuLoadMeter.h **** 
  83:../libDaisy/src/util/CpuLoadMeter.h ****     /** Resets the minimun, maximum and average load readings. */
  84:../libDaisy/src/util/CpuLoadMeter.h ****     void Reset()
  85:../libDaisy/src/util/CpuLoadMeter.h ****     {
  86:../libDaisy/src/util/CpuLoadMeter.h ****         firstCycle_ = true;
 1742              		.loc 4 86 21 view .LVU478
 1743 0088 0123     		movs	r3, #1
 1744              	.LBE417:
 1745              	.LBE416:
  33:../libDaisy/src/util/CpuLoadMeter.h ****         const auto ticksPerS   = float(System::GetTickFreq());
 1746              		.loc 4 33 20 view .LVU479
 1747 008a 88EE289A 		vdiv.f32	s18, s16, s17
 1748              	.LVL123:
  34:../libDaisy/src/util/CpuLoadMeter.h ****         ticksPerBlockInv_      = 1.0f / (ticksPerS * secPerBlock);
 1749              		.loc 4 34 9 is_stmt 1 view .LVU480
  35:../libDaisy/src/util/CpuLoadMeter.h **** 
 1750              		.loc 4 35 9 view .LVU481
 1751              	.LBE415:
 1752              	.LBE414:
  31:GrannyChordApp.cpp ****   InitPrevParamVals();
 1753              		.loc 3 31 9 is_stmt 0 view .LVU482
 1754 008e 2046     		mov	r0, r4
 1755              	.LVL124:
 1756              	.LBB425:
ARM GAS  /var/folders/2p/02m_5p7958535cp2tpgps0400000gn/T//ccAOujCh.s 			page 57


 1757              	.LBB424:
 1758              	.LBB421:
 1759              	.LBB418:
 1760              		.loc 4 86 21 view .LVU483
 1761 0090 2370     		strb	r3, [r4]
  87:../libDaisy/src/util/CpuLoadMeter.h ****         avg_ = max_ = min_ = NAN;
 1762              		.loc 4 87 28 view .LVU484
 1763 0092 1A4B     		ldr	r3, .L66+8
 1764 0094 E360     		str	r3, [r4, #12]	@ float
 1765              	.LBE418:
 1766              	.LBE421:
  34:../libDaisy/src/util/CpuLoadMeter.h ****         ticksPerBlockInv_      = 1.0f / (ticksPerS * secPerBlock);
 1767              		.loc 4 34 61 view .LVU485
 1768 0096 F8EE677A 		vcvt.f32.u32	s15, s15
 1769              	.LVL125:
 1770              	.LBB422:
 1771              	.LBB419:
 1772              		.loc 4 87 21 view .LVU486
 1773 009a 2361     		str	r3, [r4, #16]	@ float
 1774              		.loc 4 87 14 view .LVU487
 1775 009c 6361     		str	r3, [r4, #20]	@ float
 1776              	.LBE419:
 1777              	.LBE422:
  35:../libDaisy/src/util/CpuLoadMeter.h **** 
 1778              		.loc 4 35 52 view .LVU488
 1779 009e 67EE897A 		vmul.f32	s15, s15, s18
 1780              	.LVL126:
  35:../libDaisy/src/util/CpuLoadMeter.h **** 
 1781              		.loc 4 35 39 view .LVU489
 1782 00a2 C7EE276A 		vdiv.f32	s13, s14, s15
  35:../libDaisy/src/util/CpuLoadMeter.h **** 
 1783              		.loc 4 35 32 view .LVU490
 1784 00a6 C4ED016A 		vstr.32	s13, [r4, #4]
  38:../libDaisy/src/util/CpuLoadMeter.h ****         const auto cutoffNormalized
 1785              		.loc 4 38 9 is_stmt 1 view .LVU491
 1786              	.LVL127:
  39:../libDaisy/src/util/CpuLoadMeter.h ****             = smoothingFilterCutoffHz * 2.0f * 3.141592653f / blockRateInHz;
 1787              		.loc 4 39 9 view .LVU492
  38:../libDaisy/src/util/CpuLoadMeter.h ****         const auto cutoffNormalized
 1788              		.loc 4 38 20 is_stmt 0 view .LVU493
 1789 00aa C8EE886A 		vdiv.f32	s13, s17, s16
 1790              	.LVL128:
  39:../libDaisy/src/util/CpuLoadMeter.h ****             = smoothingFilterCutoffHz * 2.0f * 3.141592653f / blockRateInHz;
 1791              		.loc 4 39 20 view .LVU494
 1792 00ae C6EE267A 		vdiv.f32	s15, s12, s13
 1793              	.LVL129:
  43:../libDaisy/src/util/CpuLoadMeter.h **** 
 1794              		.loc 4 43 9 is_stmt 1 view .LVU495
  43:../libDaisy/src/util/CpuLoadMeter.h **** 
 1795              		.loc 4 43 67 is_stmt 0 view .LVU496
 1796 00b2 37EE877A 		vadd.f32	s14, s15, s14
  43:../libDaisy/src/util/CpuLoadMeter.h **** 
 1797              		.loc 4 43 47 view .LVU497
 1798 00b6 C7EE876A 		vdiv.f32	s13, s15, s14
 1799              	.LVL130:
  43:../libDaisy/src/util/CpuLoadMeter.h **** 
 1800              		.loc 4 43 28 view .LVU498
ARM GAS  /var/folders/2p/02m_5p7958535cp2tpgps0400000gn/T//ccAOujCh.s 			page 58


 1801 00ba C4ED066A 		vstr.32	s13, [r4, #24]
  45:../libDaisy/src/util/CpuLoadMeter.h ****     }
 1802              		.loc 4 45 9 is_stmt 1 view .LVU499
 1803              	.LVL131:
 1804              	.LBB423:
 1805              	.LBI416:
  84:../libDaisy/src/util/CpuLoadMeter.h ****     {
 1806              		.loc 4 84 10 view .LVU500
 1807              	.LBB420:
  86:../libDaisy/src/util/CpuLoadMeter.h ****         avg_ = max_ = min_ = NAN;
 1808              		.loc 4 86 9 view .LVU501
 1809              		.loc 4 87 9 view .LVU502
 1810              		.loc 4 87 9 is_stmt 0 view .LVU503
 1811              	.LBE420:
 1812              	.LBE423:
 1813              	.LBE424:
 1814              	.LBE425:
  31:GrannyChordApp.cpp ****   InitPrevParamVals();
 1815              		.loc 3 31 3 is_stmt 1 view .LVU504
  31:GrannyChordApp.cpp ****   InitPrevParamVals();
 1816              		.loc 3 31 9 is_stmt 0 view .LVU505
 1817 00be FFF7FEFF 		bl	_ZN14GrannyChordApp6InitFXEv
 1818              	.LVL132:
  32:GrannyChordApp.cpp ****   SeedRng();
 1819              		.loc 3 32 3 is_stmt 1 view .LVU506
  32:GrannyChordApp.cpp ****   SeedRng();
 1820              		.loc 3 32 20 is_stmt 0 view .LVU507
 1821 00c2 2046     		mov	r0, r4
 1822 00c4 FFF7FEFF 		bl	_ZN14GrannyChordApp17InitPrevParamValsEv
 1823              	.LVL133:
  33:GrannyChordApp.cpp ****   synth_.Init(left_buf_, right_buf_, 0);
 1824              		.loc 3 33 3 is_stmt 1 view .LVU508
 1825              	.LBB426:
 1826              	.LBI426:
 1827              		.file 11 "constants_utils.h"
   1:constants_utils.h **** #pragma once
   2:constants_utils.h **** #include "stddef.h"
   3:constants_utils.h **** #include <time.h>
   4:constants_utils.h **** 
   5:constants_utils.h **** /* audio constants */
   6:constants_utils.h **** constexpr int SAMPLE_RATE = 48000;
   7:constants_utils.h **** constexpr float SAMPLE_RATE_FLOAT = 48000.f;
   8:constants_utils.h **** constexpr int BIT_DEPTH = 16;
   9:constants_utils.h **** 
  10:constants_utils.h **** /* delay line buffer size (2s @ 48kHz) */
  11:constants_utils.h **** constexpr size_t DELAY_TIME = 96000;
  12:constants_utils.h **** 
  13:constants_utils.h **** /* maximum length of recording to SD card */
  14:constants_utils.h **** constexpr size_t MAX_REC_OUT_LEN = 120;
  15:constants_utils.h **** 
  16:constants_utils.h **** /* 16mb - max size of one stereo channel to be loaded into buffers */
  17:constants_utils.h **** constexpr size_t CHNL_BUF_SIZE_ABS = 16*1024*1024;
  18:constants_utils.h **** /* above is absolute size - each sample needs an int16 (2 bytes) so we do (abs_size)/2 */
  19:constants_utils.h **** constexpr size_t CHNL_BUF_SIZE_SAMPS = 8*1024*1024;
  20:constants_utils.h **** 
  21:constants_utils.h **** /* chunk size for reading audio into temporary buffer */
  22:constants_utils.h **** const size_t BUF_CHUNK_SZ = 16384;
ARM GAS  /var/folders/2p/02m_5p7958535cp2tpgps0400000gn/T//ccAOujCh.s 			page 59


  23:constants_utils.h **** 
  24:constants_utils.h **** /* file reading constants*/
  25:constants_utils.h **** static const uint16_t MAX_FILES = 32;                      
  26:constants_utils.h **** static const uint16_t MAX_FNAME_LEN = 128;
  27:constants_utils.h **** 
  28:constants_utils.h **** /* granular synth parameter constants */
  29:constants_utils.h **** constexpr int MIN_GRAINS = 1;
  30:constants_utils.h **** constexpr int MAX_GRAINS = 10;
  31:constants_utils.h **** static constexpr int NUM_SYNTH_MODES = 8;
  32:constants_utils.h **** constexpr float PARAM_CHANGE_THRESHOLD = 0.01f;
  33:constants_utils.h **** constexpr float MIN_GRAIN_SIZE_MS = 100.0f;
  34:constants_utils.h **** constexpr float MAX_GRAIN_SIZE_MS = 3000.0f;
  35:constants_utils.h **** constexpr size_t MIN_GRAIN_SIZE_SAMPLES = 4800; /* 100ms at 48kHz */
  36:constants_utils.h **** constexpr size_t MAX_GRAIN_SIZE_SAMPLES = 144000; /* 3s at 48kHz */
  37:constants_utils.h **** constexpr float MIN_PITCH = 0.5f;
  38:constants_utils.h **** constexpr float MAX_PITCH = 3.0f;
  39:constants_utils.h **** 
  40:constants_utils.h **** /* button event constants */
  41:constants_utils.h **** const unsigned long DEBOUNCE_DELAY = 50; 
  42:constants_utils.h **** const unsigned long LONG_PRESS_TIME = 1000;
  43:constants_utils.h **** 
  44:constants_utils.h **** /* hipass filter frequency range */
  45:constants_utils.h **** const float HIPASS_LOWER_BOUND = 0.0004f;
  46:constants_utils.h **** const float HIPASS_UPPER_BOUND = 0.01f;
  47:constants_utils.h **** 
  48:constants_utils.h **** /* lowpass filter frequency range */
  49:constants_utils.h **** const float LOPASS_LOWER_BOUND = 20.0f;
  50:constants_utils.h **** const float LOPASS_UPPER_BOUND = 18000.0f;
  51:constants_utils.h **** 
  52:constants_utils.h **** // const float HICUT_FREQ = 0.3125f; /* 15000Hz @ 48kHz sample rate */
  53:constants_utils.h **** const float HICUT_FREQ = 0.34375; /* 16500Hz @ 48kHz sample rate */
  54:constants_utils.h **** 
  55:constants_utils.h **** /* random number generator variables and helper functions */
  56:constants_utils.h **** extern uint32_t rng_state;
  57:constants_utils.h **** inline void SeedRng(){
 1828              		.loc 11 57 13 view .LVU509
 1829              	.LBB427:
  58:constants_utils.h ****   rng_state = static_cast<uint32_t>(time(nullptr));
 1830              		.loc 11 58 3 view .LVU510
 1831              		.loc 11 58 41 is_stmt 0 view .LVU511
 1832 00c8 3046     		mov	r0, r6
 1833 00ca FFF7FEFF 		bl	time
 1834              	.LVL134:
 1835              		.loc 11 58 13 view .LVU512
 1836 00ce 0C4B     		ldr	r3, .L66+12
 1837              	.LBE427:
 1838              	.LBE426:
  34:GrannyChordApp.cpp ****   pod_.StartAdc();
 1839              		.loc 3 34 14 view .LVU513
 1840 00d0 D5F8A02E 		ldr	r2, [r5, #3744]
 1841              	.LBB429:
 1842              	.LBB428:
 1843              		.loc 11 58 13 view .LVU514
 1844 00d4 1860     		str	r0, [r3]
 1845              	.LBE428:
 1846              	.LBE429:
  34:GrannyChordApp.cpp ****   pod_.StartAdc();
ARM GAS  /var/folders/2p/02m_5p7958535cp2tpgps0400000gn/T//ccAOujCh.s 			page 60


 1847              		.loc 3 34 3 is_stmt 1 view .LVU515
  34:GrannyChordApp.cpp ****   pod_.StartAdc();
 1848              		.loc 3 34 14 is_stmt 0 view .LVU516
 1849 00d6 04F12000 		add	r0, r4, #32
 1850 00da 3346     		mov	r3, r6
 1851 00dc D5F89C1E 		ldr	r1, [r5, #3740]
 1852 00e0 FFF7FEFF 		bl	_ZN13GranularSynth4InitEPsS0_j
 1853              	.LVL135:
  35:GrannyChordApp.cpp **** }
 1854              		.loc 3 35 3 is_stmt 1 view .LVU517
  35:GrannyChordApp.cpp **** }
 1855              		.loc 3 35 16 is_stmt 0 view .LVU518
 1856 00e4 E069     		ldr	r0, [r4, #28]
  36:GrannyChordApp.cpp **** 
 1857              		.loc 3 36 1 view .LVU519
 1858 00e6 BDEC048B 		vldm	sp!, {d8-d9}
 1859              		.cfi_restore 82
 1860              		.cfi_restore 83
 1861              		.cfi_restore 80
 1862              		.cfi_restore 81
 1863              		.cfi_def_cfa_offset 16
 1864 00ea BDE87040 		pop	{r4, r5, r6, lr}
 1865              		.cfi_restore 14
 1866              		.cfi_restore 6
 1867              		.cfi_restore 5
 1868              		.cfi_restore 4
 1869              		.cfi_def_cfa_offset 0
 1870              	.LVL136:
  35:GrannyChordApp.cpp **** }
 1871              		.loc 3 35 16 view .LVU520
 1872 00ee FFF7FEBF 		b	_ZN5daisy8DaisyPod8StartAdcEv
 1873              	.LVL137:
 1874              	.L67:
 1875 00f2 00BF     		.align	2
 1876              	.L66:
 1877 00f4 00000000 		.word	.LC7
 1878 00f8 DB0FC940 		.word	1086918619
 1879 00fc 0000C07F 		.word	2143289344
 1880 0100 00000000 		.word	rng_state
 1881              		.cfi_endproc
 1882              	.LFE4910:
 1884              		.section	.rodata._ZN14GrannyChordApp9InitSynthEv.str1.1,"aMS",%progbits,1
 1885              	.LC8:
 1886 0000 73796E74 		.ascii	"synth init ok - samples %u\000"
 1886      6820696E 
 1886      6974206F 
 1886      6B202D20 
 1886      73616D70 
 1887              		.section	.text._ZN14GrannyChordApp9InitSynthEv,"ax",%progbits
 1888              		.align	1
 1889              		.global	_ZN14GrannyChordApp9InitSynthEv
 1890              		.syntax unified
 1891              		.thumb
 1892              		.thumb_func
 1894              	_ZN14GrannyChordApp9InitSynthEv:
 1895              	.LVL138:
 1896              	.LFB4929:
ARM GAS  /var/folders/2p/02m_5p7958535cp2tpgps0400000gn/T//ccAOujCh.s 			page 61


 385:GrannyChordApp.cpp ****   synth_.Init(left_buf_, right_buf_, filemgr_.GetSamplesPerChannel());
 1897              		.loc 3 385 33 is_stmt 1 view -0
 1898              		.cfi_startproc
 1899              		@ args = 0, pretend = 0, frame = 0
 1900              		@ frame_needed = 0, uses_anonymous_args = 0
 386:GrannyChordApp.cpp ****   InitPrevParamVals();
 1901              		.loc 3 386 3 view .LVU522
 386:GrannyChordApp.cpp ****   InitPrevParamVals();
 1902              		.loc 3 386 38 is_stmt 0 view .LVU523
 1903 0000 D0F87022 		ldr	r2, [r0, #624]
 1904              	.LVL139:
 1905              	.LBB430:
 1906              	.LBI430:
  27:AudioFileManager.h ****     size_t GetTotalSamples() const { return header_.total_samples; }
 1907              		.loc 8 27 12 is_stmt 1 view .LVU524
 1908              	.LBB431:
  27:AudioFileManager.h ****     size_t GetTotalSamples() const { return header_.total_samples; }
 1909              		.loc 8 27 43 view .LVU525
  27:AudioFileManager.h ****     size_t GetTotalSamples() const { return header_.total_samples; }
 1910              		.loc 8 27 43 is_stmt 0 view .LVU526
 1911              	.LBE431:
 1912              	.LBE430:
 386:GrannyChordApp.cpp ****   InitPrevParamVals();
 1913              		.loc 3 386 14 view .LVU527
 1914 0004 00F58041 		add	r1, r0, #16384
 1915              	.LBB433:
 1916              	.LBB432:
  27:AudioFileManager.h ****     size_t GetTotalSamples() const { return header_.total_samples; }
 1917              		.loc 8 27 58 view .LVU528
 1918 0008 02F58052 		add	r2, r2, #4096
  27:AudioFileManager.h ****     size_t GetTotalSamples() const { return header_.total_samples; }
 1919              		.loc 8 27 82 view .LVU529
 1920 000c B2F92830 		ldrsh	r3, [r2, #40]
 1921 0010 D26A     		ldr	r2, [r2, #44]
 1922              	.LBE432:
 1923              	.LBE433:
 385:GrannyChordApp.cpp ****   synth_.Init(left_buf_, right_buf_, filemgr_.GetSamplesPerChannel());
 1924              		.loc 3 385 33 view .LVU530
 1925 0012 10B5     		push	{r4, lr}
 1926              		.cfi_def_cfa_offset 8
 1927              		.cfi_offset 4, -8
 1928              		.cfi_offset 14, -4
 385:GrannyChordApp.cpp ****   synth_.Init(left_buf_, right_buf_, filemgr_.GetSamplesPerChannel());
 1929              		.loc 3 385 33 view .LVU531
 1930 0014 0446     		mov	r4, r0
 386:GrannyChordApp.cpp ****   InitPrevParamVals();
 1931              		.loc 3 386 14 view .LVU532
 1932 0016 2030     		adds	r0, r0, #32
 1933              	.LVL140:
 386:GrannyChordApp.cpp ****   InitPrevParamVals();
 1934              		.loc 3 386 14 view .LVU533
 1935 0018 B2FBF3F3 		udiv	r3, r2, r3
 1936 001c D1F8A02E 		ldr	r2, [r1, #3744]
 1937 0020 D1F89C1E 		ldr	r1, [r1, #3740]
 1938 0024 FFF7FEFF 		bl	_ZN13GranularSynth4InitEPsS0_j
 1939              	.LVL141:
 387:GrannyChordApp.cpp ****   DebugPrint(pod_,"synth init ok - samples %u",filemgr_.GetSamplesPerChannel());
ARM GAS  /var/folders/2p/02m_5p7958535cp2tpgps0400000gn/T//ccAOujCh.s 			page 62


 1940              		.loc 3 387 3 is_stmt 1 view .LVU534
 387:GrannyChordApp.cpp ****   DebugPrint(pod_,"synth init ok - samples %u",filemgr_.GetSamplesPerChannel());
 1941              		.loc 3 387 20 is_stmt 0 view .LVU535
 1942 0028 2046     		mov	r0, r4
 1943 002a FFF7FEFF 		bl	_ZN14GrannyChordApp17InitPrevParamValsEv
 1944              	.LVL142:
 388:GrannyChordApp.cpp **** }
 1945              		.loc 3 388 3 is_stmt 1 view .LVU536
 388:GrannyChordApp.cpp **** }
 1946              		.loc 3 388 3 view .LVU537
 1947 002e D4F87032 		ldr	r3, [r4, #624]
 1948              	.LVL143:
 1949              	.LBB434:
 1950              	.LBI434:
  27:AudioFileManager.h ****     size_t GetTotalSamples() const { return header_.total_samples; }
 1951              		.loc 8 27 12 view .LVU538
 1952              	.LBB435:
  27:AudioFileManager.h ****     size_t GetTotalSamples() const { return header_.total_samples; }
 1953              		.loc 8 27 43 view .LVU539
  27:AudioFileManager.h ****     size_t GetTotalSamples() const { return header_.total_samples; }
 1954              		.loc 8 27 43 is_stmt 0 view .LVU540
 1955              	.LBE435:
 1956              	.LBE434:
 1957              	.LBB437:
 1958              	.LBI437:
 126:../libDaisy/src/daisy_seed.h ****     {
 1959              		.loc 5 126 17 is_stmt 1 view .LVU541
 1960              	.LBB438:
 1961              		.loc 5 128 23 is_stmt 0 view .LVU542
 1962 0032 0648     		ldr	r0, .L69
 1963              	.LBE438:
 1964              	.LBE437:
 1965              	.LBB440:
 1966              	.LBB436:
  27:AudioFileManager.h ****     size_t GetTotalSamples() const { return header_.total_samples; }
 1967              		.loc 8 27 58 view .LVU543
 1968 0034 03F58053 		add	r3, r3, #4096
 1969              	.LVL144:
  27:AudioFileManager.h ****     size_t GetTotalSamples() const { return header_.total_samples; }
 1970              		.loc 8 27 82 view .LVU544
 1971 0038 B3F92820 		ldrsh	r2, [r3, #40]
 1972 003c D96A     		ldr	r1, [r3, #44]
 1973              	.LBE436:
 1974              	.LBE440:
 389:GrannyChordApp.cpp **** 
 1975              		.loc 3 389 1 view .LVU545
 1976 003e BDE81040 		pop	{r4, lr}
 1977              		.cfi_restore 14
 1978              		.cfi_restore 4
 1979              		.cfi_def_cfa_offset 0
 1980              	.LVL145:
 1981              	.LBB441:
 1982              	.LBB439:
 1983              		.loc 5 128 23 view .LVU546
 1984 0042 B1FBF2F1 		udiv	r1, r1, r2
 1985 0046 FFF7FEBF 		b	_ZN5daisy6LoggerILNS_17LoggerDestinationE1EE9PrintLineEPKcz
 1986              	.LVL146:
ARM GAS  /var/folders/2p/02m_5p7958535cp2tpgps0400000gn/T//ccAOujCh.s 			page 63


 1987              	.L70:
 1988              		.loc 5 128 23 view .LVU547
 1989 004a 00BF     		.align	2
 1990              	.L69:
 1991 004c 00000000 		.word	.LC8
 1992              	.LBE439:
 1993              	.LBE441:
 1994              		.cfi_endproc
 1995              	.LFE4929:
 1997              		.section	.rodata._ZN14GrannyChordApp18ProcessWAVPlaybackEPPfj.str1.1,"aMS",%progbits,1
 1998              	.LC9:
 1999 0000 6C3A2025 		.ascii	"l: %f, r: %f\000"
 1999      662C2072 
 1999      3A202566 
 1999      00
 2000              		.section	.text._ZN14GrannyChordApp18ProcessWAVPlaybackEPPfj,"ax",%progbits
 2001              		.align	1
 2002              		.global	_ZN14GrannyChordApp18ProcessWAVPlaybackEPPfj
 2003              		.syntax unified
 2004              		.thumb
 2005              		.thumb_func
 2007              	_ZN14GrannyChordApp18ProcessWAVPlaybackEPPfj:
 2008              	.LVL147:
 2009              	.LFB4937:
 449:GrannyChordApp.cpp **** 
 450:GrannyChordApp.cpp **** // void GrannyChordApp::ResetPassThru(){
 451:GrannyChordApp.cpp **** //     int mode_idx = static_cast<int>(curr_synth_mode_);
 452:GrannyChordApp.cpp **** //     stored_k1[mode_idx] = pod_.knob1.Process();
 453:GrannyChordApp.cpp **** //     stored_k2[mode_idx] = pod_.knob2.Process();
 454:GrannyChordApp.cpp **** //     pass_thru_k1 = false;
 455:GrannyChordApp.cpp **** //     pass_thru_k2 = false;
 456:GrannyChordApp.cpp **** // }
 457:GrannyChordApp.cpp **** 
 458:GrannyChordApp.cpp **** /// @brief Master audio callback, called at audio rate, calls all audio processing methods
 459:GrannyChordApp.cpp **** /// @param in Audio input buffer
 460:GrannyChordApp.cpp **** /// @param out Audio output buffer
 461:GrannyChordApp.cpp **** /// @param size Number of samples to process in this call
 462:GrannyChordApp.cpp **** void GrannyChordApp::AudioCallback(AudioHandle::InputBuffer in, AudioHandle::OutputBuffer out, size
 463:GrannyChordApp.cpp ****   instance_->ProcessAudio(in,out,size);
 464:GrannyChordApp.cpp **** }
 465:GrannyChordApp.cpp **** 
 466:GrannyChordApp.cpp **** void GrannyChordApp::ProcessAudio(AudioHandle::InputBuffer in, AudioHandle::OutputBuffer out, size_
 467:GrannyChordApp.cpp ****   switch(curr_state_){
 468:GrannyChordApp.cpp ****     case AppState::PlayWAV:
 469:GrannyChordApp.cpp ****       if (wav_playhead_>= filemgr_.GetSamplesPerChannel() -1){
 470:GrannyChordApp.cpp ****         instance_->pod_.StopAudio();
 471:GrannyChordApp.cpp ****         DebugPrint(pod_, "stopped audio > len"); 
 472:GrannyChordApp.cpp ****         return;
 473:GrannyChordApp.cpp ****       }
 474:GrannyChordApp.cpp ****       ProcessWAVPlayback(out,size);
 475:GrannyChordApp.cpp ****       // ProcessSynthesis(out,size);
 476:GrannyChordApp.cpp ****       return;  
 477:GrannyChordApp.cpp ****     case AppState::RecordIn:
 478:GrannyChordApp.cpp ****       ProcessRecordIn(in, out, size);
 479:GrannyChordApp.cpp ****       return;
 480:GrannyChordApp.cpp ****     case AppState::Synthesis:
 481:GrannyChordApp.cpp ****       ProcessSynthesis(out,size);
ARM GAS  /var/folders/2p/02m_5p7958535cp2tpgps0400000gn/T//ccAOujCh.s 			page 64


 482:GrannyChordApp.cpp ****       return;
 483:GrannyChordApp.cpp ****     // case AppState::ChordMode:
 484:GrannyChordApp.cpp ****     // return;
 485:GrannyChordApp.cpp ****     default:
 486:GrannyChordApp.cpp ****       return;
 487:GrannyChordApp.cpp ****   }
 488:GrannyChordApp.cpp **** }
 489:GrannyChordApp.cpp **** 
 490:GrannyChordApp.cpp **** /// @brief Process audio for WAV playback mode and increment playback position
 491:GrannyChordApp.cpp **** /// @param out Output audio buffer
 492:GrannyChordApp.cpp **** /// @param size Number of samples to process in this call
 493:GrannyChordApp.cpp **** void GrannyChordApp::ProcessWAVPlayback(AudioHandle::OutputBuffer out, size_t size){
 2010              		.loc 3 493 84 is_stmt 1 view -0
 2011              		.cfi_startproc
 2012              		@ args = 0, pretend = 0, frame = 0
 2013              		@ frame_needed = 0, uses_anonymous_args = 0
 494:GrannyChordApp.cpp ****   for (size_t i=0; i<size; i++){
 2014              		.loc 3 494 3 view .LVU549
 493:GrannyChordApp.cpp ****   for (size_t i=0; i<size; i++){
 2015              		.loc 3 493 84 is_stmt 0 view .LVU550
 2016 0000 2DE9F341 		push	{r0, r1, r4, r5, r6, r7, r8, lr}
 2017              		.cfi_def_cfa_offset 32
 2018              		.cfi_offset 4, -24
 2019              		.cfi_offset 5, -20
 2020              		.cfi_offset 6, -16
 2021              		.cfi_offset 7, -12
 2022              		.cfi_offset 8, -8
 2023              		.cfi_offset 14, -4
 493:GrannyChordApp.cpp ****   for (size_t i=0; i<size; i++){
 2024              		.loc 3 493 84 view .LVU551
 2025 0004 0646     		mov	r6, r0
 2026 0006 0D46     		mov	r5, r1
 2027 0008 9046     		mov	r8, r2
 2028              	.LBB451:
 2029              		.loc 3 494 15 view .LVU552
 2030 000a 0024     		movs	r4, #0
 2031              	.LVL148:
 2032              	.L75:
 2033              		.loc 3 494 21 is_stmt 1 discriminator 1 view .LVU553
 2034 000c 4445     		cmp	r4, r8
 2035 000e 5ED0     		beq	.L71
 495:GrannyChordApp.cpp ****     counter++;
 2036              		.loc 3 495 5 view .LVU554
 2037 0010 06F5504C 		add	ip, r6, #53248
 496:GrannyChordApp.cpp ****     if (wav_playhead_ < filemgr_.GetSamplesPerChannel()){
 2038              		.loc 3 496 25 is_stmt 0 view .LVU555
 2039 0014 D6F87072 		ldr	r7, [r6, #624]
 2040              		.loc 3 496 9 view .LVU556
 2041 0018 06F58040 		add	r0, r6, #16384
 495:GrannyChordApp.cpp ****     counter++;
 2042              		.loc 3 495 12 view .LVU557
 2043 001c DCF83032 		ldr	r3, [ip, #560]
 2044              	.LBB452:
 2045              	.LBB453:
  27:AudioFileManager.h ****     size_t GetTotalSamples() const { return header_.total_samples; }
 2046              		.loc 8 27 58 view .LVU558
 2047 0020 07F58057 		add	r7, r7, #4096
ARM GAS  /var/folders/2p/02m_5p7958535cp2tpgps0400000gn/T//ccAOujCh.s 			page 65


 2048              	.LBE453:
 2049              	.LBE452:
 495:GrannyChordApp.cpp ****     counter++;
 2050              		.loc 3 495 12 view .LVU559
 2051 0024 0133     		adds	r3, r3, #1
 2052              	.LBB457:
 2053              	.LBB454:
  27:AudioFileManager.h ****     size_t GetTotalSamples() const { return header_.total_samples; }
 2054              		.loc 8 27 82 view .LVU560
 2055 0026 B7F928E0 		ldrsh	lr, [r7, #40]
 2056              	.LBE454:
 2057              	.LBE457:
 495:GrannyChordApp.cpp ****     counter++;
 2058              		.loc 3 495 12 view .LVU561
 2059 002a CCF83032 		str	r3, [ip, #560]
 2060              		.loc 3 496 5 is_stmt 1 view .LVU562
 2061              	.LBB458:
 2062              	.LBI452:
  27:AudioFileManager.h ****     size_t GetTotalSamples() const { return header_.total_samples; }
 2063              		.loc 8 27 12 view .LVU563
 2064              	.LBB455:
  27:AudioFileManager.h ****     size_t GetTotalSamples() const { return header_.total_samples; }
 2065              		.loc 8 27 43 view .LVU564
  27:AudioFileManager.h ****     size_t GetTotalSamples() const { return header_.total_samples; }
 2066              		.loc 8 27 82 is_stmt 0 view .LVU565
 2067 002e FA6A     		ldr	r2, [r7, #44]
 2068              	.LBE455:
 2069              	.LBE458:
 2070              		.loc 3 496 9 view .LVU566
 2071 0030 D0F8A81E 		ldr	r1, [r0, #3752]
 2072              	.LBB459:
 2073              	.LBB456:
  27:AudioFileManager.h ****     size_t GetTotalSamples() const { return header_.total_samples; }
 2074              		.loc 8 27 82 view .LVU567
 2075 0034 B2FBFEF2 		udiv	r2, r2, lr
 2076              	.LBE456:
 2077              	.LBE459:
 2078              		.loc 3 496 5 view .LVU568
 2079 0038 9142     		cmp	r1, r2
 2080 003a 28D2     		bcs	.L73
 497:GrannyChordApp.cpp ****       out[0][i] = s162f(left_buf_[wav_playhead_]) * 0.5f;
 2081              		.loc 3 497 7 is_stmt 1 view .LVU569
 2082              	.LBB460:
 2083              	.LBI460:
 2084              		.file 12 "../libDaisy/src/daisy_core.h"
   1:../libDaisy/src/daisy_core.h **** #pragma once
   2:../libDaisy/src/daisy_core.h **** #ifndef DSY_CORE_HW_H
   3:../libDaisy/src/daisy_core.h **** #define DSY_CORE_HW_H /**< & */
   4:../libDaisy/src/daisy_core.h **** #include <stdint.h>
   5:../libDaisy/src/daisy_core.h **** #include <stdlib.h>
   6:../libDaisy/src/daisy_core.h **** 
   7:../libDaisy/src/daisy_core.h **** #if defined(_MSC_VER)
   8:../libDaisy/src/daisy_core.h **** #define FORCE_INLINE __forceinline /**< & */
   9:../libDaisy/src/daisy_core.h **** #elif defined(__clang__)
  10:../libDaisy/src/daisy_core.h **** #define FORCE_INLINE inline __attribute__((always_inline)) /**< & */
  11:../libDaisy/src/daisy_core.h **** #pragma clang diagnostic ignored "-Wduplicate-decl-specifier"
  12:../libDaisy/src/daisy_core.h **** #elif defined(__GNUC__)
ARM GAS  /var/folders/2p/02m_5p7958535cp2tpgps0400000gn/T//ccAOujCh.s 			page 66


  13:../libDaisy/src/daisy_core.h **** #define FORCE_INLINE inline __attribute__((always_inline)) /**< & */
  14:../libDaisy/src/daisy_core.h **** #else
  15:../libDaisy/src/daisy_core.h **** #error unknown compiler
  16:../libDaisy/src/daisy_core.h **** #endif
  17:../libDaisy/src/daisy_core.h **** 
  18:../libDaisy/src/daisy_core.h **** /** @addtogroup utility
  19:../libDaisy/src/daisy_core.h ****     @{
  20:../libDaisy/src/daisy_core.h **** */
  21:../libDaisy/src/daisy_core.h **** 
  22:../libDaisy/src/daisy_core.h **** /** Macro for area of memory that is configured as cacheless
  23:../libDaisy/src/daisy_core.h **** This should be used primarily for DMA buffers, and the like.
  24:../libDaisy/src/daisy_core.h **** */
  25:../libDaisy/src/daisy_core.h **** #define DMA_BUFFER_MEM_SECTION __attribute__((section(".sram1_bss")))
  26:../libDaisy/src/daisy_core.h **** /** 
  27:../libDaisy/src/daisy_core.h **** THE DTCM RAM section is also non-cached. However, is not suitable 
  28:../libDaisy/src/daisy_core.h **** for DMA transfers. Performance is on par with internal SRAM w/ 
  29:../libDaisy/src/daisy_core.h **** cache enabled.
  30:../libDaisy/src/daisy_core.h **** */
  31:../libDaisy/src/daisy_core.h **** #define DTCM_MEM_SECTION __attribute__((section(".dtcmram_bss")))
  32:../libDaisy/src/daisy_core.h **** 
  33:../libDaisy/src/daisy_core.h **** #define FBIPMAX 0.999985f             /**< close to 1.0f-LSB at 16 bit */
  34:../libDaisy/src/daisy_core.h **** #define FBIPMIN (-FBIPMAX)            /**< - (1 - LSB) */
  35:../libDaisy/src/daisy_core.h **** #define U82F_SCALE 0.0078740f         /**< 1 / 127 */
  36:../libDaisy/src/daisy_core.h **** #define F2U8_SCALE 127.0f             /**< 128 - 1 */
  37:../libDaisy/src/daisy_core.h **** #define S82F_SCALE 0.0078125f         /**< 1 / (2**7) */
  38:../libDaisy/src/daisy_core.h **** #define F2S8_SCALE 127.0f             /**< (2 ** 7) - 1 */
  39:../libDaisy/src/daisy_core.h **** #define S162F_SCALE 3.0517578125e-05f /**< 1 / (2** 15) */
  40:../libDaisy/src/daisy_core.h **** #define F2S16_SCALE 32767.0f          /**< (2 ** 15) - 1 */
  41:../libDaisy/src/daisy_core.h **** #define F2S24_SCALE 8388608.0f        /**< 2 ** 23 */
  42:../libDaisy/src/daisy_core.h **** #define S242F_SCALE 1.192092896e-07f  /**< 1 / (2 ** 23) */
  43:../libDaisy/src/daisy_core.h **** #define S24SIGN 0x800000              /**< 2 ** 23 */
  44:../libDaisy/src/daisy_core.h **** #define S322F_SCALE 4.6566129e-10f    /**< 1 / (2** 31) */
  45:../libDaisy/src/daisy_core.h **** #define F2S32_SCALE 2147483647.f      /**< (2 ** 31) - 1 */
  46:../libDaisy/src/daisy_core.h **** 
  47:../libDaisy/src/daisy_core.h **** 
  48:../libDaisy/src/daisy_core.h **** /** shorthand macro for simplifying the reading of the left 
  49:../libDaisy/src/daisy_core.h ****  *  channel of a non-interleaved output buffer named out */
  50:../libDaisy/src/daisy_core.h **** #define OUT_L out[0]
  51:../libDaisy/src/daisy_core.h **** 
  52:../libDaisy/src/daisy_core.h **** /** shorthand macro for simplifying the reading of the right 
  53:../libDaisy/src/daisy_core.h ****  *  channel of a non-interleaved output buffer named out */
  54:../libDaisy/src/daisy_core.h **** #define OUT_R out[1]
  55:../libDaisy/src/daisy_core.h **** 
  56:../libDaisy/src/daisy_core.h **** /** shorthand macro for simplifying the reading of the left 
  57:../libDaisy/src/daisy_core.h ****  *  channel of a non-interleaved input buffer named in */
  58:../libDaisy/src/daisy_core.h **** #define IN_L in[0]
  59:../libDaisy/src/daisy_core.h **** 
  60:../libDaisy/src/daisy_core.h **** /** shorthand macro for simplifying the reading of the right 
  61:../libDaisy/src/daisy_core.h ****  *  channel of a non-interleaved input buffer named in */
  62:../libDaisy/src/daisy_core.h **** #define IN_R in[1]
  63:../libDaisy/src/daisy_core.h **** 
  64:../libDaisy/src/daisy_core.h **** /** 
  65:../libDaisy/src/daisy_core.h ****     Computes cube.
  66:../libDaisy/src/daisy_core.h ****     \param x Number to be cubed
  67:../libDaisy/src/daisy_core.h ****     \return x ^ 3
  68:../libDaisy/src/daisy_core.h **** */
  69:../libDaisy/src/daisy_core.h **** FORCE_INLINE float cube(float x)
ARM GAS  /var/folders/2p/02m_5p7958535cp2tpgps0400000gn/T//ccAOujCh.s 			page 67


  70:../libDaisy/src/daisy_core.h **** {
  71:../libDaisy/src/daisy_core.h ****     return (x * x) * x;
  72:../libDaisy/src/daisy_core.h **** }
  73:../libDaisy/src/daisy_core.h **** 
  74:../libDaisy/src/daisy_core.h **** /** 
  75:../libDaisy/src/daisy_core.h ****     Converts unsigned 8-bit to float
  76:../libDaisy/src/daisy_core.h ****     \param x Number to be scaled.
  77:../libDaisy/src/daisy_core.h ****     \return Scaled number.
  78:../libDaisy/src/daisy_core.h **** */
  79:../libDaisy/src/daisy_core.h **** FORCE_INLINE float u82f(uint8_t x)
  80:../libDaisy/src/daisy_core.h **** {
  81:../libDaisy/src/daisy_core.h ****     return ((float)x - 127.f) * U82F_SCALE;
  82:../libDaisy/src/daisy_core.h **** }
  83:../libDaisy/src/daisy_core.h **** 
  84:../libDaisy/src/daisy_core.h **** /**
  85:../libDaisy/src/daisy_core.h ****     Converts float to unsigned 8-bit
  86:../libDaisy/src/daisy_core.h **** */
  87:../libDaisy/src/daisy_core.h **** FORCE_INLINE uint8_t f2u8(float x)
  88:../libDaisy/src/daisy_core.h **** {
  89:../libDaisy/src/daisy_core.h ****     x = x <= FBIPMIN ? FBIPMIN : x;
  90:../libDaisy/src/daisy_core.h ****     x = x >= FBIPMAX ? FBIPMAX : x;
  91:../libDaisy/src/daisy_core.h ****     return (uint8_t)((x * F2U8_SCALE) + F2U8_SCALE);
  92:../libDaisy/src/daisy_core.h **** }
  93:../libDaisy/src/daisy_core.h **** 
  94:../libDaisy/src/daisy_core.h **** 
  95:../libDaisy/src/daisy_core.h **** /** 
  96:../libDaisy/src/daisy_core.h ****     Converts Signed 8-bit to float
  97:../libDaisy/src/daisy_core.h ****     \param x Number to be scaled.
  98:../libDaisy/src/daisy_core.h ****     \return Scaled number.
  99:../libDaisy/src/daisy_core.h **** */
 100:../libDaisy/src/daisy_core.h **** FORCE_INLINE float s82f(int8_t x)
 101:../libDaisy/src/daisy_core.h **** {
 102:../libDaisy/src/daisy_core.h ****     return (float)x * S82F_SCALE;
 103:../libDaisy/src/daisy_core.h **** }
 104:../libDaisy/src/daisy_core.h **** 
 105:../libDaisy/src/daisy_core.h **** /**
 106:../libDaisy/src/daisy_core.h ****     Converts float to Signed 8-bit
 107:../libDaisy/src/daisy_core.h **** */
 108:../libDaisy/src/daisy_core.h **** FORCE_INLINE int8_t f2s8(float x)
 109:../libDaisy/src/daisy_core.h **** {
 110:../libDaisy/src/daisy_core.h ****     x = x <= FBIPMIN ? FBIPMIN : x;
 111:../libDaisy/src/daisy_core.h ****     x = x >= FBIPMAX ? FBIPMAX : x;
 112:../libDaisy/src/daisy_core.h ****     return (int32_t)(x * F2S8_SCALE);
 113:../libDaisy/src/daisy_core.h **** }
 114:../libDaisy/src/daisy_core.h **** 
 115:../libDaisy/src/daisy_core.h **** /** 
 116:../libDaisy/src/daisy_core.h ****     Converts Signed 16-bit to float
 117:../libDaisy/src/daisy_core.h ****     \param x Number to be scaled.
 118:../libDaisy/src/daisy_core.h ****     \return Scaled number.
 119:../libDaisy/src/daisy_core.h **** */
 120:../libDaisy/src/daisy_core.h **** FORCE_INLINE float s162f(int16_t x)
 2085              		.loc 12 120 20 view .LVU570
 2086              	.LBB461:
 121:../libDaisy/src/daisy_core.h **** {
 122:../libDaisy/src/daisy_core.h ****     return (float)x * S162F_SCALE;
 2087              		.loc 12 122 5 view .LVU571
 2088              	.LBE461:
ARM GAS  /var/folders/2p/02m_5p7958535cp2tpgps0400000gn/T//ccAOujCh.s 			page 68


 2089              	.LBE460:
 2090              		.loc 3 497 24 is_stmt 0 view .LVU572
 2091 003c D0F89C7E 		ldr	r7, [r0, #3740]
 2092              		.loc 3 497 51 view .LVU573
 2093 0040 F6EE006A 		vmov.f32	s13, #5.0e-1
 2094              	.LBB466:
 2095              	.LBB462:
 2096              		.loc 12 122 23 view .LVU574
 2097 0044 9FED236A 		vldr.32	s12, .L76
 2098              		.loc 12 122 12 view .LVU575
 2099 0048 37F91170 		ldrsh	r7, [r7, r1, lsl #1]
 2100              	.LBE462:
 2101              	.LBE466:
 2102              		.loc 3 497 17 view .LVU576
 2103 004c 2A68     		ldr	r2, [r5]
 2104              	.LBB467:
 2105              	.LBB463:
 2106              		.loc 12 122 12 view .LVU577
 2107 004e 07EE107A 		vmov	s14, r7	@ int
 2108              	.LBE463:
 2109              	.LBE467:
 498:GrannyChordApp.cpp ****       out[1][i] = s162f(right_buf_[wav_playhead_]) * 0.5f;
 2110              		.loc 3 498 24 view .LVU578
 2111 0052 D0F8A07E 		ldr	r7, [r0, #3744]
 497:GrannyChordApp.cpp ****       out[1][i] = s162f(right_buf_[wav_playhead_]) * 0.5f;
 2112              		.loc 3 497 17 view .LVU579
 2113 0056 02EB8402 		add	r2, r2, r4, lsl #2
 2114              	.LBB468:
 2115              	.LBB469:
 2116              		.loc 12 122 12 view .LVU580
 2117 005a 37F91170 		ldrsh	r7, [r7, r1, lsl #1]
 2118              	.LBE469:
 2119              	.LBE468:
 2120              	.LBB474:
 2121              	.LBB464:
 2122 005e B8EEC77A 		vcvt.f32.s32	s14, s14
 2123              	.LBE464:
 2124              	.LBE474:
 499:GrannyChordApp.cpp ****       wav_playhead_++;
 2125              		.loc 3 499 20 view .LVU581
 2126 0062 0131     		adds	r1, r1, #1
 2127              	.LBB475:
 2128              	.LBB470:
 2129              		.loc 12 122 12 view .LVU582
 2130 0064 07EE907A 		vmov	s15, r7	@ int
 2131              	.LBE470:
 2132              	.LBE475:
 2133              	.LBB476:
 2134              	.LBB465:
 2135              		.loc 12 122 23 view .LVU583
 2136 0068 27EE067A 		vmul.f32	s14, s14, s12
 2137              	.LBE465:
 2138              	.LBE476:
 2139              	.LBB477:
 2140              	.LBB471:
 2141              		.loc 12 122 12 view .LVU584
 2142 006c F8EEE77A 		vcvt.f32.s32	s15, s15
ARM GAS  /var/folders/2p/02m_5p7958535cp2tpgps0400000gn/T//ccAOujCh.s 			page 69


 2143              	.LBE471:
 2144              	.LBE477:
 497:GrannyChordApp.cpp ****       out[1][i] = s162f(right_buf_[wav_playhead_]) * 0.5f;
 2145              		.loc 3 497 51 view .LVU585
 2146 0070 27EE267A 		vmul.f32	s14, s14, s13
 2147              	.LBB478:
 2148              	.LBB472:
 2149              		.loc 12 122 23 view .LVU586
 2150 0074 67EE867A 		vmul.f32	s15, s15, s12
 2151              	.LBE472:
 2152              	.LBE478:
 497:GrannyChordApp.cpp ****       out[1][i] = s162f(right_buf_[wav_playhead_]) * 0.5f;
 2153              		.loc 3 497 17 view .LVU587
 2154 0078 82ED007A 		vstr.32	s14, [r2]
 498:GrannyChordApp.cpp ****       out[1][i] = s162f(right_buf_[wav_playhead_]) * 0.5f;
 2155              		.loc 3 498 7 is_stmt 1 view .LVU588
 2156              	.LBB479:
 2157              	.LBI468:
 120:../libDaisy/src/daisy_core.h **** {
 2158              		.loc 12 120 20 view .LVU589
 2159              	.LBB473:
 2160              		.loc 12 122 5 view .LVU590
 2161              	.LBE473:
 2162              	.LBE479:
 498:GrannyChordApp.cpp ****       wav_playhead_++;
 2163              		.loc 3 498 17 is_stmt 0 view .LVU591
 2164 007c 6A68     		ldr	r2, [r5, #4]
 498:GrannyChordApp.cpp ****       wav_playhead_++;
 2165              		.loc 3 498 52 view .LVU592
 2166 007e 67EEA67A 		vmul.f32	s15, s15, s13
 498:GrannyChordApp.cpp ****       wav_playhead_++;
 2167              		.loc 3 498 17 view .LVU593
 2168 0082 02EB8402 		add	r2, r2, r4, lsl #2
 2169 0086 C2ED007A 		vstr.32	s15, [r2]
 2170              		.loc 3 499 7 is_stmt 1 view .LVU594
 2171              		.loc 3 499 20 is_stmt 0 view .LVU595
 2172 008a C0F8A81E 		str	r1, [r0, #3752]
 2173              	.L73:
 500:GrannyChordApp.cpp ****     }
 501:GrannyChordApp.cpp ****     if (counter%128000==0){
 2174              		.loc 3 501 5 is_stmt 1 view .LVU596
 2175 008e 4FF4FA32 		mov	r2, #128000
 2176 0092 B3FBF2F1 		udiv	r1, r3, r2
 2177 0096 02FB1133 		mls	r3, r2, r1, r3
 2178 009a B3B9     		cbnz	r3, .L74
 502:GrannyChordApp.cpp ****       counter=0;
 2179              		.loc 3 502 7 view .LVU597
 2180              		.loc 3 502 14 is_stmt 0 view .LVU598
 2181 009c CCF83032 		str	r3, [ip, #560]
 503:GrannyChordApp.cpp ****       DebugPrint(pod_, "l: %f, r: %f", out[0][i],out[1][i]);
 2182              		.loc 3 503 7 is_stmt 1 view .LVU599
 2183              		.loc 3 503 7 view .LVU600
 2184              	.LVL149:
 2185              	.LBB480:
 2186              	.LBI480:
 126:../libDaisy/src/daisy_seed.h ****     {
 2187              		.loc 5 126 17 view .LVU601
ARM GAS  /var/folders/2p/02m_5p7958535cp2tpgps0400000gn/T//ccAOujCh.s 			page 70


 2188              	.LBE480:
 2189              		.loc 3 503 7 is_stmt 0 view .LVU602
 2190 00a0 2B68     		ldr	r3, [r5]
 2191              	.LBB484:
 2192              	.LBB481:
 2193              		.loc 5 128 23 view .LVU603
 2194 00a2 0D48     		ldr	r0, .L76+4
 2195              	.LBE481:
 2196              	.LBE484:
 2197              		.loc 3 503 7 view .LVU604
 2198 00a4 03EB8403 		add	r3, r3, r4, lsl #2
 2199              	.LVL150:
 2200              	.LBB485:
 2201              	.LBB482:
 2202              		.loc 5 128 23 view .LVU605
 2203 00a8 D3ED006A 		vldr.32	s13, [r3]
 2204              	.LBE482:
 2205              	.LBE485:
 2206              		.loc 3 503 7 view .LVU606
 2207 00ac 6B68     		ldr	r3, [r5, #4]
 2208              	.LVL151:
 2209              		.loc 3 503 7 view .LVU607
 2210 00ae 03EB8403 		add	r3, r3, r4, lsl #2
 2211              	.LVL152:
 2212              	.LBB486:
 2213              	.LBB483:
 2214              		.loc 5 128 23 view .LVU608
 2215 00b2 93ED007A 		vldr.32	s14, [r3]
 2216 00b6 B7EEC77A 		vcvt.f64.f32	d7, s14
 2217 00ba 8DED007B 		vstr.64	d7, [sp]
 2218              	.LVL153:
 2219              		.loc 5 128 23 view .LVU609
 2220 00be B7EEE67A 		vcvt.f64.f32	d7, s13
 2221 00c2 53EC172B 		vmov	r2, r3, d7
 2222 00c6 FFF7FEFF 		bl	_ZN5daisy6LoggerILNS_17LoggerDestinationE1EE9PrintLineEPKcz
 2223              	.LVL154:
 2224              	.L74:
 2225              		.loc 5 128 23 view .LVU610
 2226              	.LBE483:
 2227              	.LBE486:
 494:GrannyChordApp.cpp ****     counter++;
 2228              		.loc 3 494 3 is_stmt 1 discriminator 2 view .LVU611
 2229 00ca 0134     		adds	r4, r4, #1
 2230              	.LVL155:
 494:GrannyChordApp.cpp ****     counter++;
 2231              		.loc 3 494 3 is_stmt 0 discriminator 2 view .LVU612
 2232 00cc 9EE7     		b	.L75
 2233              	.L71:
 494:GrannyChordApp.cpp ****     counter++;
 2234              		.loc 3 494 3 discriminator 2 view .LVU613
 2235              	.LBE451:
 504:GrannyChordApp.cpp ****     }
 505:GrannyChordApp.cpp ****   }
 506:GrannyChordApp.cpp **** }
 2236              		.loc 3 506 1 view .LVU614
 2237 00ce 02B0     		add	sp, sp, #8
 2238              		.cfi_def_cfa_offset 24
ARM GAS  /var/folders/2p/02m_5p7958535cp2tpgps0400000gn/T//ccAOujCh.s 			page 71


 2239              		@ sp needed
 2240 00d0 BDE8F081 		pop	{r4, r5, r6, r7, r8, pc}
 2241              	.LVL156:
 2242              	.L77:
 2243              		.loc 3 506 1 view .LVU615
 2244              		.align	2
 2245              	.L76:
 2246 00d4 00000038 		.word	939524096
 2247 00d8 00000000 		.word	.LC9
 2248              		.cfi_endproc
 2249              	.LFE4937:
 2251              		.section	.text._ZN14GrannyChordApp15ProcessRecordInEPKPKfPPfj,"ax",%progbits
 2252              		.align	1
 2253              		.global	_ZN14GrannyChordApp15ProcessRecordInEPKPKfPPfj
 2254              		.syntax unified
 2255              		.thumb
 2256              		.thumb_func
 2258              	_ZN14GrannyChordApp15ProcessRecordInEPKPKfPPfj:
 2259              	.LVL157:
 2260              	.LFB4938:
 507:GrannyChordApp.cpp **** 
 508:GrannyChordApp.cpp **** /// @brief Process input audio when app is in RecordIn state
 509:GrannyChordApp.cpp **** /// @param in Input audio buffer
 510:GrannyChordApp.cpp **** /// @param out Output audio buffer
 511:GrannyChordApp.cpp **** /// @param size Number of samples to process in this call
 512:GrannyChordApp.cpp **** void GrannyChordApp::ProcessRecordIn(AudioHandle::InputBuffer in, AudioHandle::OutputBuffer out, si
 2261              		.loc 3 512 110 is_stmt 1 view -0
 2262              		.cfi_startproc
 2263              		@ args = 0, pretend = 0, frame = 0
 2264              		@ frame_needed = 0, uses_anonymous_args = 0
 513:GrannyChordApp.cpp ****   const size_t MAX_RECORDING_LEN = 120*48000; /* 120s @ 48kHZ */
 2265              		.loc 3 513 3 view .LVU617
 514:GrannyChordApp.cpp ****   for (size_t i=0; i<size;i++){
 2266              		.loc 3 514 3 view .LVU618
 512:GrannyChordApp.cpp ****   const size_t MAX_RECORDING_LEN = 120*48000; /* 120s @ 48kHZ */
 2267              		.loc 3 512 110 is_stmt 0 view .LVU619
 2268 0000 F0B5     		push	{r4, r5, r6, r7, lr}
 2269              		.cfi_def_cfa_offset 20
 2270              		.cfi_offset 4, -20
 2271              		.cfi_offset 5, -16
 2272              		.cfi_offset 6, -12
 2273              		.cfi_offset 7, -8
 2274              		.cfi_offset 14, -4
 2275              	.LBB487:
 2276              		.loc 3 514 15 view .LVU620
 2277 0002 0025     		movs	r5, #0
 2278              	.LVL158:
 2279              	.L80:
 2280              		.loc 3 514 21 is_stmt 1 discriminator 3 view .LVU621
 2281 0004 9D42     		cmp	r5, r3
 2282 0006 33D0     		beq	.L78
 515:GrannyChordApp.cpp ****     /* send audio in straight to output for monitoring */
 516:GrannyChordApp.cpp ****     out[0][i]=in[0][i];
 2283              		.loc 3 516 5 discriminator 2 view .LVU622
 2284              		.loc 3 516 22 is_stmt 0 discriminator 2 view .LVU623
 2285 0008 0E68     		ldr	r6, [r1]
 517:GrannyChordApp.cpp ****     out[1][i]=in[1][i];
ARM GAS  /var/folders/2p/02m_5p7958535cp2tpgps0400000gn/T//ccAOujCh.s 			page 72


 518:GrannyChordApp.cpp ****     /* record audio in to SDRAM buffers */
 519:GrannyChordApp.cpp ****     left_buf_[record_in_pos_] = in[0][i];
 2286              		.loc 3 519 15 discriminator 2 view .LVU624
 2287 000a 00F5504C 		add	ip, r0, #53248
 516:GrannyChordApp.cpp ****     out[1][i]=in[1][i];
 2288              		.loc 3 516 14 discriminator 2 view .LVU625
 2289 000e 1468     		ldr	r4, [r2]
 2290              		.loc 3 519 31 discriminator 2 view .LVU626
 2291 0010 00F5804E 		add	lr, r0, #16384
 516:GrannyChordApp.cpp ****     out[1][i]=in[1][i];
 2292              		.loc 3 516 22 discriminator 2 view .LVU627
 2293 0014 06EB8506 		add	r6, r6, r5, lsl #2
 516:GrannyChordApp.cpp ****     out[1][i]=in[1][i];
 2294              		.loc 3 516 14 discriminator 2 view .LVU628
 2295 0018 04EB8504 		add	r4, r4, r5, lsl #2
 516:GrannyChordApp.cpp ****     out[1][i]=in[1][i];
 2296              		.loc 3 516 22 discriminator 2 view .LVU629
 2297 001c 3768     		ldr	r7, [r6]	@ float
 516:GrannyChordApp.cpp ****     out[1][i]=in[1][i];
 2298              		.loc 3 516 14 discriminator 2 view .LVU630
 2299 001e 2760     		str	r7, [r4]	@ float
 517:GrannyChordApp.cpp ****     out[1][i]=in[1][i];
 2300              		.loc 3 517 5 is_stmt 1 discriminator 2 view .LVU631
 517:GrannyChordApp.cpp ****     out[1][i]=in[1][i];
 2301              		.loc 3 517 22 is_stmt 0 discriminator 2 view .LVU632
 2302 0020 4C68     		ldr	r4, [r1, #4]
 2303              		.loc 3 519 31 discriminator 2 view .LVU633
 2304 0022 DEF89C7E 		ldr	r7, [lr, #3740]
 517:GrannyChordApp.cpp ****     out[1][i]=in[1][i];
 2305              		.loc 3 517 22 discriminator 2 view .LVU634
 2306 0026 04EB8504 		add	r4, r4, r5, lsl #2
 2307 002a D4ED007A 		vldr.32	s15, [r4]
 517:GrannyChordApp.cpp ****     out[1][i]=in[1][i];
 2308              		.loc 3 517 14 discriminator 2 view .LVU635
 2309 002e 5468     		ldr	r4, [r2, #4]
 2310 0030 04EB8504 		add	r4, r4, r5, lsl #2
 514:GrannyChordApp.cpp ****     /* send audio in straight to output for monitoring */
 2311              		.loc 3 514 3 discriminator 2 view .LVU636
 2312 0034 0135     		adds	r5, r5, #1
 2313              	.LVL159:
 517:GrannyChordApp.cpp ****     out[1][i]=in[1][i];
 2314              		.loc 3 517 14 discriminator 2 view .LVU637
 2315 0036 C4ED007A 		vstr.32	s15, [r4]
 2316              		.loc 3 519 5 is_stmt 1 discriminator 2 view .LVU638
 520:GrannyChordApp.cpp ****     right_buf_[record_in_pos_] = in[1][i];
 2317              		.loc 3 520 32 is_stmt 0 discriminator 2 view .LVU639
 2318 003a FDEEE77A 		vcvt.s32.f32	s15, s15
 519:GrannyChordApp.cpp ****     right_buf_[record_in_pos_] = in[1][i];
 2319              		.loc 3 519 31 discriminator 2 view .LVU640
 2320 003e 96ED007A 		vldr.32	s14, [r6]
 519:GrannyChordApp.cpp ****     right_buf_[record_in_pos_] = in[1][i];
 2321              		.loc 3 519 15 discriminator 2 view .LVU641
 2322 0042 DCF8E841 		ldr	r4, [ip, #488]
 519:GrannyChordApp.cpp ****     right_buf_[record_in_pos_] = in[1][i];
 2323              		.loc 3 519 31 discriminator 2 view .LVU642
 2324 0046 BDEEC77A 		vcvt.s32.f32	s14, s14
 2325 004a 17EE106A 		vmov	r6, s14	@ int
ARM GAS  /var/folders/2p/02m_5p7958535cp2tpgps0400000gn/T//ccAOujCh.s 			page 73


 2326 004e 27F81460 		strh	r6, [r7, r4, lsl #1]	@ movhi
 2327              		.loc 3 520 5 is_stmt 1 discriminator 2 view .LVU643
 2328              		.loc 3 520 32 is_stmt 0 discriminator 2 view .LVU644
 2329 0052 17EE907A 		vmov	r7, s15	@ int
 2330 0056 DEF8A06E 		ldr	r6, [lr, #3744]
 2331 005a 26F81470 		strh	r7, [r6, r4, lsl #1]	@ movhi
 521:GrannyChordApp.cpp ****     /* wrap around recording length - if it exceeds 120s,
 522:GrannyChordApp.cpp ****       the start of the recording will be overwritten */
 523:GrannyChordApp.cpp ****     record_in_pos_ = (record_in_pos_+1)%MAX_RECORDING_LEN;
 2332              		.loc 3 523 5 is_stmt 1 discriminator 2 view .LVU645
 2333              		.loc 3 523 37 is_stmt 0 discriminator 2 view .LVU646
 2334 005e 0134     		adds	r4, r4, #1
 2335              		.loc 3 523 40 discriminator 2 view .LVU647
 2336 0060 044E     		ldr	r6, .L82
 2337 0062 B4FBF6F7 		udiv	r7, r4, r6
 2338 0066 06FB1744 		mls	r4, r6, r7, r4
 2339              		.loc 3 523 20 discriminator 2 view .LVU648
 2340 006a CCF8E841 		str	r4, [ip, #488]
 514:GrannyChordApp.cpp ****     /* send audio in straight to output for monitoring */
 2341              		.loc 3 514 3 is_stmt 1 discriminator 2 view .LVU649
 2342              	.LVL160:
 514:GrannyChordApp.cpp ****     /* send audio in straight to output for monitoring */
 2343              		.loc 3 514 3 is_stmt 0 discriminator 2 view .LVU650
 2344 006e C9E7     		b	.L80
 2345              	.L78:
 514:GrannyChordApp.cpp ****     /* send audio in straight to output for monitoring */
 2346              		.loc 3 514 3 discriminator 2 view .LVU651
 2347              	.LBE487:
 524:GrannyChordApp.cpp ****   }
 525:GrannyChordApp.cpp **** }
 2348              		.loc 3 525 1 view .LVU652
 2349 0070 F0BD     		pop	{r4, r5, r6, r7, pc}
 2350              	.LVL161:
 2351              	.L83:
 2352              		.loc 3 525 1 view .LVU653
 2353 0072 00BF     		.align	2
 2354              	.L82:
 2355 0074 00E45700 		.word	5760000
 2356              		.cfi_endproc
 2357              	.LFE4938:
 2359              		.section	.text._ZN14GrannyChordApp16ProcessSynthesisEPPfj,"ax",%progbits
 2360              		.align	1
 2361              		.global	_ZN14GrannyChordApp16ProcessSynthesisEPPfj
 2362              		.syntax unified
 2363              		.thumb
 2364              		.thumb_func
 2366              	_ZN14GrannyChordApp16ProcessSynthesisEPPfj:
 2367              	.LVL162:
 2368              	.LFB4939:
 526:GrannyChordApp.cpp **** 
 527:GrannyChordApp.cpp **** /// @brief Process audio through granular synth and mix to output buffer
 528:GrannyChordApp.cpp **** /// @param out Output audio buffer
 529:GrannyChordApp.cpp **** /// @param size Number of samples to process in this call
 530:GrannyChordApp.cpp **** void GrannyChordApp::ProcessSynthesis(AudioHandle::OutputBuffer out, size_t size){
 2369              		.loc 3 530 82 is_stmt 1 view -0
 2370              		.cfi_startproc
 2371              		@ args = 0, pretend = 0, frame = 16
ARM GAS  /var/folders/2p/02m_5p7958535cp2tpgps0400000gn/T//ccAOujCh.s 			page 74


 2372              		@ frame_needed = 0, uses_anonymous_args = 0
 531:GrannyChordApp.cpp ****   // Sample samp;
 532:GrannyChordApp.cpp ****   for (size_t i=0; i<size; i++){ 
 2373              		.loc 3 532 3 view .LVU655
 530:GrannyChordApp.cpp ****   // Sample samp;
 2374              		.loc 3 530 82 is_stmt 0 view .LVU656
 2375 0000 2DE9F041 		push	{r4, r5, r6, r7, r8, lr}
 2376              		.cfi_def_cfa_offset 24
 2377              		.cfi_offset 4, -24
 2378              		.cfi_offset 5, -20
 2379              		.cfi_offset 6, -16
 2380              		.cfi_offset 7, -12
 2381              		.cfi_offset 8, -8
 2382              		.cfi_offset 14, -4
 2383 0004 0546     		mov	r5, r0
 2384 0006 86B0     		sub	sp, sp, #24
 2385              		.cfi_def_cfa_offset 48
 530:GrannyChordApp.cpp ****   // Sample samp;
 2386              		.loc 3 530 82 view .LVU657
 2387 0008 0E46     		mov	r6, r1
 2388 000a 9046     		mov	r8, r2
 2389              	.LBB492:
 2390              		.loc 3 532 15 view .LVU658
 2391 000c 0024     		movs	r4, #0
 2392              	.LVL163:
 2393              	.L87:
 2394              		.loc 3 532 21 is_stmt 1 discriminator 1 view .LVU659
 2395 000e 4445     		cmp	r4, r8
 2396 0010 44D0     		beq	.L84
 2397              	.LBB493:
 533:GrannyChordApp.cpp ****     Sample samp = synth_.ProcessGrains();
 2398              		.loc 3 533 5 view .LVU660
 534:GrannyChordApp.cpp ****     counter++;
 2399              		.loc 3 534 12 is_stmt 0 view .LVU661
 2400 0012 05F55047 		add	r7, r5, #53248
 533:GrannyChordApp.cpp ****     Sample samp = synth_.ProcessGrains();
 2401              		.loc 3 533 40 view .LVU662
 2402 0016 05F12000 		add	r0, r5, #32
 2403 001a FFF7FEFF 		bl	_ZN13GranularSynth13ProcessGrainsEv
 2404              	.LVL164:
 535:GrannyChordApp.cpp **** 
 536:GrannyChordApp.cpp ****     // samp = ProcessFX(samp);
 537:GrannyChordApp.cpp ****     // out[0][i] = samp.left;
 538:GrannyChordApp.cpp ****     // out[1][i] = samp.right;
 539:GrannyChordApp.cpp ****     limiter_.ProcessBlock(&samp.left, 1, 1.0f);
 2405              		.loc 3 539 26 view .LVU663
 2406 001e 05F53370 		add	r0, r5, #716
 534:GrannyChordApp.cpp ****     counter++;
 2407              		.loc 3 534 12 view .LVU664
 2408 0022 D7F83032 		ldr	r3, [r7, #560]
 2409              		.loc 3 539 26 view .LVU665
 2410 0026 0122     		movs	r2, #1
 2411 0028 04A9     		add	r1, sp, #16
 533:GrannyChordApp.cpp ****     counter++;
 2412              		.loc 3 533 40 view .LVU666
 2413 002a 8DED040A 		vstr.32	s0, [sp, #16]
 534:GrannyChordApp.cpp ****     counter++;
ARM GAS  /var/folders/2p/02m_5p7958535cp2tpgps0400000gn/T//ccAOujCh.s 			page 75


 2414              		.loc 3 534 12 view .LVU667
 2415 002e 0133     		adds	r3, r3, #1
 2416              		.loc 3 539 26 view .LVU668
 2417 0030 B7EE000A 		vmov.f32	s0, #1.0e+0
 533:GrannyChordApp.cpp ****     counter++;
 2418              		.loc 3 533 40 view .LVU669
 2419 0034 CDED050A 		vstr.32	s1, [sp, #20]
 534:GrannyChordApp.cpp ****     counter++;
 2420              		.loc 3 534 5 is_stmt 1 view .LVU670
 534:GrannyChordApp.cpp ****     counter++;
 2421              		.loc 3 534 12 is_stmt 0 view .LVU671
 2422 0038 C7F83032 		str	r3, [r7, #560]
 2423              		.loc 3 539 5 is_stmt 1 view .LVU672
 2424              		.loc 3 539 26 is_stmt 0 view .LVU673
 2425 003c 0390     		str	r0, [sp, #12]
 2426 003e FFF7FEFF 		bl	_ZN7daisysp7Limiter12ProcessBlockEPfjf
 2427              	.LVL165:
 540:GrannyChordApp.cpp ****     limiter_.ProcessBlock(&samp.right, 1, 1.0f);
 2428              		.loc 3 540 5 is_stmt 1 view .LVU674
 2429              		.loc 3 540 26 is_stmt 0 view .LVU675
 2430 0042 0122     		movs	r2, #1
 2431 0044 05A9     		add	r1, sp, #20
 2432 0046 B7EE000A 		vmov.f32	s0, #1.0e+0
 2433 004a 0398     		ldr	r0, [sp, #12]
 2434 004c FFF7FEFF 		bl	_ZN7daisysp7Limiter12ProcessBlockEPfjf
 2435              	.LVL166:
 541:GrannyChordApp.cpp ****     if (counter%128000==0){
 2436              		.loc 3 541 5 is_stmt 1 view .LVU676
 540:GrannyChordApp.cpp ****     limiter_.ProcessBlock(&samp.right, 1, 1.0f);
 2437              		.loc 3 540 26 is_stmt 0 view .LVU677
 2438 0050 D7F83032 		ldr	r3, [r7, #560]
 2439 0054 4FF4FA32 		mov	r2, #128000
 2440 0058 B3FBF2F1 		udiv	r1, r3, r2
 2441 005c 02FB1133 		mls	r3, r2, r1, r3
 2442              		.loc 3 541 5 view .LVU678
 2443 0060 83B9     		cbnz	r3, .L86
 542:GrannyChordApp.cpp ****       counter=0;
 2444              		.loc 3 542 7 is_stmt 1 view .LVU679
 2445              	.LBB494:
 2446              	.LBB495:
 2447              		.loc 5 128 23 is_stmt 0 view .LVU680
 2448 0062 9DED057A 		vldr.32	s14, [sp, #20]
 2449              	.LBE495:
 2450              	.LBE494:
 2451              		.loc 3 542 14 view .LVU681
 2452 0066 C7F83032 		str	r3, [r7, #560]
 543:GrannyChordApp.cpp ****       DebugPrint(pod_, "l: %f, r: %f", samp.left, samp.right);
 2453              		.loc 3 543 7 is_stmt 1 view .LVU682
 2454              		.loc 3 543 7 view .LVU683
 2455              	.LVL167:
 2456              	.LBB497:
 2457              	.LBI494:
 126:../libDaisy/src/daisy_seed.h ****     {
 2458              		.loc 5 126 17 view .LVU684
 2459              	.LBB496:
 2460              		.loc 5 128 23 is_stmt 0 view .LVU685
 2461 006a B7EEC77A 		vcvt.f64.f32	d7, s14
ARM GAS  /var/folders/2p/02m_5p7958535cp2tpgps0400000gn/T//ccAOujCh.s 			page 76


 2462              	.LVL168:
 2463              		.loc 5 128 23 view .LVU686
 2464 006e 0D48     		ldr	r0, .L88
 2465 0070 8DED007B 		vstr.64	d7, [sp]
 2466 0074 DDED047A 		vldr.32	s15, [sp, #16]
 2467 0078 B7EEE77A 		vcvt.f64.f32	d7, s15
 2468 007c 53EC172B 		vmov	r2, r3, d7
 2469 0080 FFF7FEFF 		bl	_ZN5daisy6LoggerILNS_17LoggerDestinationE1EE9PrintLineEPKcz
 2470              	.LVL169:
 2471              	.L86:
 2472              		.loc 5 128 23 view .LVU687
 2473              	.LBE496:
 2474              	.LBE497:
 544:GrannyChordApp.cpp ****     }
 545:GrannyChordApp.cpp ****     out[0][i] = samp.left;
 2475              		.loc 3 545 5 is_stmt 1 discriminator 2 view .LVU688
 2476              		.loc 3 545 15 is_stmt 0 discriminator 2 view .LVU689
 2477 0084 3368     		ldr	r3, [r6]
 2478 0086 049A     		ldr	r2, [sp, #16]	@ float
 2479 0088 03EB8403 		add	r3, r3, r4, lsl #2
 2480 008c 1A60     		str	r2, [r3]	@ float
 546:GrannyChordApp.cpp ****     out[1][i] = samp.right;
 2481              		.loc 3 546 5 is_stmt 1 discriminator 2 view .LVU690
 2482              		.loc 3 546 15 is_stmt 0 discriminator 2 view .LVU691
 2483 008e 7368     		ldr	r3, [r6, #4]
 2484 0090 059A     		ldr	r2, [sp, #20]	@ float
 2485 0092 03EB8403 		add	r3, r3, r4, lsl #2
 2486              	.LBE493:
 532:GrannyChordApp.cpp ****     Sample samp = synth_.ProcessGrains();
 2487              		.loc 3 532 3 discriminator 2 view .LVU692
 2488 0096 0134     		adds	r4, r4, #1
 2489              	.LVL170:
 2490              	.LBB498:
 2491              		.loc 3 546 15 discriminator 2 view .LVU693
 2492 0098 1A60     		str	r2, [r3]	@ float
 2493              	.LBE498:
 532:GrannyChordApp.cpp ****     Sample samp = synth_.ProcessGrains();
 2494              		.loc 3 532 3 is_stmt 1 discriminator 2 view .LVU694
 2495              	.LVL171:
 532:GrannyChordApp.cpp ****     Sample samp = synth_.ProcessGrains();
 2496              		.loc 3 532 3 is_stmt 0 discriminator 2 view .LVU695
 2497 009a B8E7     		b	.L87
 2498              	.L84:
 532:GrannyChordApp.cpp ****     Sample samp = synth_.ProcessGrains();
 2499              		.loc 3 532 3 discriminator 2 view .LVU696
 2500              	.LBE492:
 547:GrannyChordApp.cpp **** 
 548:GrannyChordApp.cpp ****     //NOTE: TURN BACK ON 
 549:GrannyChordApp.cpp ****     // if (recording_out_ && sd_writer_.GetLengthSeconds()<MAX_REC_OUT_LEN){
 550:GrannyChordApp.cpp ****     //   temp_interleaved_buf_[0]=out[0][i];
 551:GrannyChordApp.cpp ****     //   temp_interleaved_buf_[1]=out[1][i];
 552:GrannyChordApp.cpp ****     //   sd_writer_.Sample(temp_interleaved_buf_);
 553:GrannyChordApp.cpp ****     // }
 554:GrannyChordApp.cpp ****   } 
 555:GrannyChordApp.cpp **** }
 2501              		.loc 3 555 1 view .LVU697
 2502 009c 06B0     		add	sp, sp, #24
ARM GAS  /var/folders/2p/02m_5p7958535cp2tpgps0400000gn/T//ccAOujCh.s 			page 77


 2503              		.cfi_def_cfa_offset 24
 2504              		@ sp needed
 2505 009e BDE8F081 		pop	{r4, r5, r6, r7, r8, pc}
 2506              	.LVL172:
 2507              	.L89:
 2508              		.loc 3 555 1 view .LVU698
 2509 00a2 00BF     		.align	2
 2510              	.L88:
 2511 00a4 00000000 		.word	.LC9
 2512              		.cfi_endproc
 2513              	.LFE4939:
 2515              		.section	.rodata._ZN14GrannyChordApp12ProcessAudioEPKPKfPPfj.str1.1,"aMS",%progbits,1
 2516              	.LC10:
 2517 0000 73746F70 		.ascii	"stopped audio > len\000"
 2517      70656420 
 2517      61756469 
 2517      6F203E20 
 2517      6C656E00 
 2518              		.section	.text._ZN14GrannyChordApp12ProcessAudioEPKPKfPPfj,"ax",%progbits
 2519              		.align	1
 2520              		.global	_ZN14GrannyChordApp12ProcessAudioEPKPKfPPfj
 2521              		.syntax unified
 2522              		.thumb
 2523              		.thumb_func
 2525              	_ZN14GrannyChordApp12ProcessAudioEPKPKfPPfj:
 2526              	.LVL173:
 2527              	.LFB4936:
 466:GrannyChordApp.cpp ****   switch(curr_state_){
 2528              		.loc 3 466 107 is_stmt 1 view -0
 2529              		.cfi_startproc
 2530              		@ args = 0, pretend = 0, frame = 0
 2531              		@ frame_needed = 0, uses_anonymous_args = 0
 467:GrannyChordApp.cpp ****     case AppState::PlayWAV:
 2532              		.loc 3 467 3 view .LVU700
 466:GrannyChordApp.cpp ****   switch(curr_state_){
 2533              		.loc 3 466 107 is_stmt 0 view .LVU701
 2534 0000 2DE9F041 		push	{r4, r5, r6, r7, r8, lr}
 2535              		.cfi_def_cfa_offset 24
 2536              		.cfi_offset 4, -24
 2537              		.cfi_offset 5, -20
 2538              		.cfi_offset 6, -16
 2539              		.cfi_offset 7, -12
 2540              		.cfi_offset 8, -8
 2541              		.cfi_offset 14, -4
 467:GrannyChordApp.cpp ****     case AppState::PlayWAV:
 2542              		.loc 3 467 10 view .LVU702
 2543 0004 D0F87852 		ldr	r5, [r0, #632]
 466:GrannyChordApp.cpp ****   switch(curr_state_){
 2544              		.loc 3 466 107 view .LVU703
 2545 0008 1646     		mov	r6, r2
 2546 000a 1F46     		mov	r7, r3
 467:GrannyChordApp.cpp ****     case AppState::PlayWAV:
 2547              		.loc 3 467 3 view .LVU704
 2548 000c 022D     		cmp	r5, #2
 2549 000e 27D0     		beq	.L91
 2550 0010 032D     		cmp	r5, #3
 2551 0012 21D0     		beq	.L92
ARM GAS  /var/folders/2p/02m_5p7958535cp2tpgps0400000gn/T//ccAOujCh.s 			page 78


 2552 0014 012D     		cmp	r5, #1
 2553 0016 29D1     		bne	.L90
 2554              	.LVL174:
 2555              	.LBB505:
 2556              	.LBI505:
 466:GrannyChordApp.cpp ****   switch(curr_state_){
 2557              		.loc 3 466 6 is_stmt 1 view .LVU705
 2558              	.LBB506:
 468:GrannyChordApp.cpp ****       if (wav_playhead_>= filemgr_.GetSamplesPerChannel() -1){
 2559              		.loc 3 468 5 view .LVU706
 469:GrannyChordApp.cpp ****         instance_->pod_.StopAudio();
 2560              		.loc 3 469 7 view .LVU707
 469:GrannyChordApp.cpp ****         instance_->pod_.StopAudio();
 2561              		.loc 3 469 27 is_stmt 0 view .LVU708
 2562 0018 D0F87032 		ldr	r3, [r0, #624]
 2563              	.LVL175:
 2564              	.LBB507:
 2565              	.LBI507:
  27:AudioFileManager.h ****     size_t GetTotalSamples() const { return header_.total_samples; }
 2566              		.loc 8 27 12 is_stmt 1 view .LVU709
 2567              	.LBB508:
  27:AudioFileManager.h ****     size_t GetTotalSamples() const { return header_.total_samples; }
 2568              		.loc 8 27 43 view .LVU710
  27:AudioFileManager.h ****     size_t GetTotalSamples() const { return header_.total_samples; }
 2569              		.loc 8 27 43 is_stmt 0 view .LVU711
 2570              	.LBE508:
 2571              	.LBE507:
 469:GrannyChordApp.cpp ****         instance_->pod_.StopAudio();
 2572              		.loc 3 469 11 view .LVU712
 2573 001c 00F58044 		add	r4, r0, #16384
 2574              	.LBB511:
 2575              	.LBB509:
  27:AudioFileManager.h ****     size_t GetTotalSamples() const { return header_.total_samples; }
 2576              		.loc 8 27 58 view .LVU713
 2577 0020 03F58053 		add	r3, r3, #4096
  27:AudioFileManager.h ****     size_t GetTotalSamples() const { return header_.total_samples; }
 2578              		.loc 8 27 82 view .LVU714
 2579 0024 B3F92820 		ldrsh	r2, [r3, #40]
 2580              	.LVL176:
  27:AudioFileManager.h ****     size_t GetTotalSamples() const { return header_.total_samples; }
 2581              		.loc 8 27 82 view .LVU715
 2582 0028 DD6A     		ldr	r5, [r3, #44]
 2583              	.LBE509:
 2584              	.LBE511:
 469:GrannyChordApp.cpp ****         instance_->pod_.StopAudio();
 2585              		.loc 3 469 7 view .LVU716
 2586 002a D4F8A83E 		ldr	r3, [r4, #3752]
 2587              	.LBB512:
 2588              	.LBB510:
  27:AudioFileManager.h ****     size_t GetTotalSamples() const { return header_.total_samples; }
 2589              		.loc 8 27 82 view .LVU717
 2590 002e B5FBF2F5 		udiv	r5, r5, r2
 2591              	.LBE510:
 2592              	.LBE512:
 469:GrannyChordApp.cpp ****         instance_->pod_.StopAudio();
 2593              		.loc 3 469 59 view .LVU718
 2594 0032 013D     		subs	r5, r5, #1
ARM GAS  /var/folders/2p/02m_5p7958535cp2tpgps0400000gn/T//ccAOujCh.s 			page 79


 469:GrannyChordApp.cpp ****         instance_->pod_.StopAudio();
 2595              		.loc 3 469 7 view .LVU719
 2596 0034 AB42     		cmp	r3, r5
 2597 0036 09D3     		bcc	.L94
 470:GrannyChordApp.cpp ****         DebugPrint(pod_, "stopped audio > len"); 
 2598              		.loc 3 470 9 is_stmt 1 view .LVU720
 470:GrannyChordApp.cpp ****         DebugPrint(pod_, "stopped audio > len"); 
 2599              		.loc 3 470 34 is_stmt 0 view .LVU721
 2600 0038 0D4B     		ldr	r3, .L95
 470:GrannyChordApp.cpp ****         DebugPrint(pod_, "stopped audio > len"); 
 2601              		.loc 3 470 20 view .LVU722
 2602 003a 1B68     		ldr	r3, [r3]
 470:GrannyChordApp.cpp ****         DebugPrint(pod_, "stopped audio > len"); 
 2603              		.loc 3 470 34 view .LVU723
 2604 003c D869     		ldr	r0, [r3, #28]
 2605              	.LVL177:
 470:GrannyChordApp.cpp ****         DebugPrint(pod_, "stopped audio > len"); 
 2606              		.loc 3 470 34 view .LVU724
 2607 003e FFF7FEFF 		bl	_ZN5daisy8DaisyPod9StopAudioEv
 2608              	.LVL178:
 471:GrannyChordApp.cpp ****         return;
 2609              		.loc 3 471 9 is_stmt 1 view .LVU725
 471:GrannyChordApp.cpp ****         return;
 2610              		.loc 3 471 9 view .LVU726
 2611              	.LBB513:
 2612              	.LBI513:
 126:../libDaisy/src/daisy_seed.h ****     {
 2613              		.loc 5 126 17 view .LVU727
 2614              	.LBB514:
 2615              		.loc 5 128 23 is_stmt 0 view .LVU728
 2616 0042 0C48     		ldr	r0, .L95+4
 2617              	.LBE514:
 2618              	.LBE513:
 2619              	.LBE506:
 2620              	.LBE505:
 488:GrannyChordApp.cpp **** 
 2621              		.loc 3 488 1 view .LVU729
 2622 0044 BDE8F041 		pop	{r4, r5, r6, r7, r8, lr}
 2623              		.cfi_remember_state
 2624              		.cfi_restore 14
 2625              		.cfi_restore 8
 2626              		.cfi_restore 7
 2627              		.cfi_restore 6
 2628              		.cfi_restore 5
 2629              		.cfi_restore 4
 2630              		.cfi_def_cfa_offset 0
 2631              	.LVL179:
 2632              	.LBB519:
 2633              	.LBB517:
 2634              	.LBB516:
 2635              	.LBB515:
 2636              		.loc 5 128 23 view .LVU730
 2637 0048 FFF7FEBF 		b	_ZN5daisy6LoggerILNS_17LoggerDestinationE1EE9PrintLineEPKcz
 2638              	.LVL180:
 2639              	.L94:
 2640              		.cfi_restore_state
 2641              		.loc 5 128 23 view .LVU731
ARM GAS  /var/folders/2p/02m_5p7958535cp2tpgps0400000gn/T//ccAOujCh.s 			page 80


 2642              	.LBE515:
 2643              	.LBE516:
 474:GrannyChordApp.cpp ****       // ProcessSynthesis(out,size);
 2644              		.loc 3 474 7 is_stmt 1 view .LVU732
 474:GrannyChordApp.cpp ****       // ProcessSynthesis(out,size);
 2645              		.loc 3 474 25 is_stmt 0 view .LVU733
 2646 004c 3A46     		mov	r2, r7
 2647 004e 3146     		mov	r1, r6
 2648              	.LVL181:
 474:GrannyChordApp.cpp ****       // ProcessSynthesis(out,size);
 2649              		.loc 3 474 25 view .LVU734
 2650              	.LBE517:
 2651              	.LBE519:
 488:GrannyChordApp.cpp **** 
 2652              		.loc 3 488 1 view .LVU735
 2653 0050 BDE8F041 		pop	{r4, r5, r6, r7, r8, lr}
 2654              		.cfi_remember_state
 2655              		.cfi_restore 14
 2656              		.cfi_restore 8
 2657              		.cfi_restore 7
 2658              		.cfi_restore 6
 2659              		.cfi_restore 5
 2660              		.cfi_restore 4
 2661              		.cfi_def_cfa_offset 0
 2662              	.LVL182:
 2663              	.LBB520:
 2664              	.LBB518:
 474:GrannyChordApp.cpp ****       // ProcessSynthesis(out,size);
 2665              		.loc 3 474 25 view .LVU736
 2666 0054 FFF7FEBF 		b	_ZN14GrannyChordApp18ProcessWAVPlaybackEPPfj
 2667              	.LVL183:
 2668              	.L92:
 2669              		.cfi_restore_state
 474:GrannyChordApp.cpp ****       // ProcessSynthesis(out,size);
 2670              		.loc 3 474 25 view .LVU737
 2671              	.LBE518:
 2672              	.LBE520:
 477:GrannyChordApp.cpp ****       ProcessRecordIn(in, out, size);
 2673              		.loc 3 477 5 is_stmt 1 view .LVU738
 478:GrannyChordApp.cpp ****       return;
 2674              		.loc 3 478 7 view .LVU739
 488:GrannyChordApp.cpp **** 
 2675              		.loc 3 488 1 is_stmt 0 view .LVU740
 2676 0058 BDE8F041 		pop	{r4, r5, r6, r7, r8, lr}
 2677              		.cfi_remember_state
 2678              		.cfi_restore 14
 2679              		.cfi_restore 8
 2680              		.cfi_restore 7
 2681              		.cfi_restore 6
 2682              		.cfi_restore 5
 2683              		.cfi_restore 4
 2684              		.cfi_def_cfa_offset 0
 478:GrannyChordApp.cpp ****       return;
 2685              		.loc 3 478 22 view .LVU741
 2686 005c FFF7FEBF 		b	_ZN14GrannyChordApp15ProcessRecordInEPKPKfPPfj
 2687              	.LVL184:
 2688              	.L91:
ARM GAS  /var/folders/2p/02m_5p7958535cp2tpgps0400000gn/T//ccAOujCh.s 			page 81


 2689              		.cfi_restore_state
 480:GrannyChordApp.cpp ****       ProcessSynthesis(out,size);
 2690              		.loc 3 480 5 is_stmt 1 view .LVU742
 481:GrannyChordApp.cpp ****       return;
 2691              		.loc 3 481 7 view .LVU743
 481:GrannyChordApp.cpp ****       return;
 2692              		.loc 3 481 23 is_stmt 0 view .LVU744
 2693 0060 3146     		mov	r1, r6
 2694              	.LVL185:
 481:GrannyChordApp.cpp ****       return;
 2695              		.loc 3 481 23 view .LVU745
 2696 0062 1A46     		mov	r2, r3
 2697              	.LVL186:
 488:GrannyChordApp.cpp **** 
 2698              		.loc 3 488 1 view .LVU746
 2699 0064 BDE8F041 		pop	{r4, r5, r6, r7, r8, lr}
 2700              		.cfi_remember_state
 2701              		.cfi_restore 14
 2702              		.cfi_restore 8
 2703              		.cfi_restore 7
 2704              		.cfi_restore 6
 2705              		.cfi_restore 5
 2706              		.cfi_restore 4
 2707              		.cfi_def_cfa_offset 0
 2708              	.LVL187:
 481:GrannyChordApp.cpp ****       return;
 2709              		.loc 3 481 23 view .LVU747
 2710 0068 FFF7FEBF 		b	_ZN14GrannyChordApp16ProcessSynthesisEPPfj
 2711              	.LVL188:
 2712              	.L90:
 2713              		.cfi_restore_state
 488:GrannyChordApp.cpp **** 
 2714              		.loc 3 488 1 view .LVU748
 2715 006c BDE8F081 		pop	{r4, r5, r6, r7, r8, pc}
 2716              	.L96:
 2717              		.align	2
 2718              	.L95:
 2719 0070 00000000 		.word	.LANCHOR0
 2720 0074 00000000 		.word	.LC10
 2721              		.cfi_endproc
 2722              	.LFE4936:
 2724              		.section	.text._ZN14GrannyChordApp13AudioCallbackEPKPKfPPfj,"ax",%progbits
 2725              		.align	1
 2726              		.global	_ZN14GrannyChordApp13AudioCallbackEPKPKfPPfj
 2727              		.syntax unified
 2728              		.thumb
 2729              		.thumb_func
 2731              	_ZN14GrannyChordApp13AudioCallbackEPKPKfPPfj:
 2732              	.LVL189:
 2733              	.LFB4935:
 462:GrannyChordApp.cpp ****   instance_->ProcessAudio(in,out,size);
 2734              		.loc 3 462 108 is_stmt 1 view -0
 2735              		.cfi_startproc
 2736              		@ args = 0, pretend = 0, frame = 0
 2737              		@ frame_needed = 0, uses_anonymous_args = 0
 2738              		@ link register save eliminated.
 463:GrannyChordApp.cpp **** }
ARM GAS  /var/folders/2p/02m_5p7958535cp2tpgps0400000gn/T//ccAOujCh.s 			page 82


 2739              		.loc 3 463 3 view .LVU750
 462:GrannyChordApp.cpp ****   instance_->ProcessAudio(in,out,size);
 2740              		.loc 3 462 108 is_stmt 0 view .LVU751
 2741 0000 1346     		mov	r3, r2
 463:GrannyChordApp.cpp **** }
 2742              		.loc 3 463 26 view .LVU752
 2743 0002 0A46     		mov	r2, r1
 2744              	.LVL190:
 463:GrannyChordApp.cpp **** }
 2745              		.loc 3 463 26 view .LVU753
 2746 0004 0146     		mov	r1, r0
 2747              	.LVL191:
 463:GrannyChordApp.cpp **** }
 2748              		.loc 3 463 26 view .LVU754
 2749 0006 0248     		ldr	r0, .L98
 2750              	.LVL192:
 463:GrannyChordApp.cpp **** }
 2751              		.loc 3 463 26 view .LVU755
 2752 0008 0068     		ldr	r0, [r0]
 2753 000a FFF7FEBF 		b	_ZN14GrannyChordApp12ProcessAudioEPKPKfPPfj
 2754              	.LVL193:
 2755              	.L99:
 463:GrannyChordApp.cpp **** }
 2756              		.loc 3 463 26 view .LVU756
 2757 000e 00BF     		.align	2
 2758              	.L98:
 2759 0010 00000000 		.word	.LANCHOR0
 2760              		.cfi_endproc
 2761              	.LFE4935:
 2763              		.section	.text._ZN14GrannyChordApp9ProcessFXE6Sample,"ax",%progbits
 2764              		.align	1
 2765              		.global	_ZN14GrannyChordApp9ProcessFXE6Sample
 2766              		.syntax unified
 2767              		.thumb
 2768              		.thumb_func
 2770              	_ZN14GrannyChordApp9ProcessFXE6Sample:
 2771              	.LVL194:
 2772              	.LFB4940:
 556:GrannyChordApp.cpp **** 
 557:GrannyChordApp.cpp **** Sample GrannyChordApp::ProcessFX(Sample in){
 2773              		.loc 3 557 44 is_stmt 1 view -0
 2774              		.cfi_startproc
 2775              		@ args = 0, pretend = 0, frame = 24
 2776              		@ frame_needed = 0, uses_anonymous_args = 0
 558:GrannyChordApp.cpp ****   Sample out;
 2777              		.loc 3 558 3 view .LVU758
 559:GrannyChordApp.cpp ****   /* hipass: remove rumble */
 560:GrannyChordApp.cpp ****   out.left = hipass_.Process(in.left);
 2778              		.loc 3 560 3 view .LVU759
 557:GrannyChordApp.cpp ****   Sample out;
 2779              		.loc 3 557 44 is_stmt 0 view .LVU760
 2780 0000 30B5     		push	{r4, r5, lr}
 2781              		.cfi_def_cfa_offset 12
 2782              		.cfi_offset 4, -12
 2783              		.cfi_offset 5, -8
 2784              		.cfi_offset 14, -4
 2785              		.loc 3 560 29 view .LVU761
ARM GAS  /var/folders/2p/02m_5p7958535cp2tpgps0400000gn/T//ccAOujCh.s 			page 83


 2786 0002 00F59C45 		add	r5, r0, #19968
 557:GrannyChordApp.cpp ****   Sample out;
 2787              		.loc 3 557 44 view .LVU762
 2788 0006 0446     		mov	r4, r0
 2789              		.loc 3 560 29 view .LVU763
 2790 0008 7435     		adds	r5, r5, #116
 561:GrannyChordApp.cpp ****   out.right = hipass_.Process(in.right);
 562:GrannyChordApp.cpp **** 
 563:GrannyChordApp.cpp ****   // /* apply compression to reduce gain changes */
 564:GrannyChordApp.cpp ****   // out.left = comp_.Process(out.left);
 565:GrannyChordApp.cpp ****   // out.right = comp_.Process(out.right);
 566:GrannyChordApp.cpp **** 
 567:GrannyChordApp.cpp ****   /* apply lowpass filter */
 568:GrannyChordApp.cpp ****   out.left = lowpass_moog_.Process(out.left);
 2791              		.loc 3 568 35 view .LVU764
 2792 000a 04F59C44 		add	r4, r4, #19968
 557:GrannyChordApp.cpp ****   Sample out;
 2793              		.loc 3 557 44 view .LVU765
 2794 000e 2DED028B 		vpush.64	{d8}
 2795              		.cfi_def_cfa_offset 20
 2796              		.cfi_offset 80, -20
 2797              		.cfi_offset 81, -16
 2798 0012 87B0     		sub	sp, sp, #28
 2799              		.cfi_def_cfa_offset 48
 560:GrannyChordApp.cpp ****   out.right = hipass_.Process(in.right);
 2800              		.loc 3 560 29 view .LVU766
 2801 0014 2846     		mov	r0, r5
 2802              	.LVL195:
 2803              		.loc 3 568 35 view .LVU767
 2804 0016 3034     		adds	r4, r4, #48
 2805              	.LVL196:
 557:GrannyChordApp.cpp ****   Sample out;
 2806              		.loc 3 557 44 view .LVU768
 2807 0018 CDED030A 		vstr.32	s1, [sp, #12]
 560:GrannyChordApp.cpp ****   out.right = hipass_.Process(in.right);
 2808              		.loc 3 560 29 view .LVU769
 2809 001c FFF7FEFF 		bl	_ZN7daisysp7OnePole7ProcessEf
 2810              	.LVL197:
 2811 0020 B0EE408A 		vmov.f32	s16, s0
 2812              	.LVL198:
 561:GrannyChordApp.cpp ****   out.right = hipass_.Process(in.right);
 2813              		.loc 3 561 3 is_stmt 1 view .LVU770
 561:GrannyChordApp.cpp ****   out.right = hipass_.Process(in.right);
 2814              		.loc 3 561 30 is_stmt 0 view .LVU771
 2815 0024 2846     		mov	r0, r5
 2816 0026 9DED030A 		vldr.32	s0, [sp, #12]
 2817              	.LVL199:
 561:GrannyChordApp.cpp ****   out.right = hipass_.Process(in.right);
 2818              		.loc 3 561 30 view .LVU772
 2819 002a FFF7FEFF 		bl	_ZN7daisysp7OnePole7ProcessEf
 2820              	.LVL200:
 2821              		.loc 3 568 35 view .LVU773
 2822 002e 2046     		mov	r0, r4
 561:GrannyChordApp.cpp ****   out.right = hipass_.Process(in.right);
 2823              		.loc 3 561 30 view .LVU774
 2824 0030 F0EE408A 		vmov.f32	s17, s0
 2825              	.LVL201:
ARM GAS  /var/folders/2p/02m_5p7958535cp2tpgps0400000gn/T//ccAOujCh.s 			page 84


 2826              		.loc 3 568 3 is_stmt 1 view .LVU775
 2827              		.loc 3 568 35 is_stmt 0 view .LVU776
 2828 0034 B0EE480A 		vmov.f32	s0, s16
 2829              	.LVL202:
 2830              		.loc 3 568 35 view .LVU777
 2831 0038 FFF7FEFF 		bl	_ZN7daisysp10MoogLadder7ProcessEf
 2832              	.LVL203:
 2833 003c B0EE408A 		vmov.f32	s16, s0
 2834              	.LVL204:
 569:GrannyChordApp.cpp ****   out.right = lowpass_moog_.Process(out.right);
 2835              		.loc 3 569 3 is_stmt 1 view .LVU778
 2836              		.loc 3 569 36 is_stmt 0 view .LVU779
 2837 0040 2046     		mov	r0, r4
 2838 0042 B0EE680A 		vmov.f32	s0, s17
 2839              	.LVL205:
 2840              		.loc 3 569 36 view .LVU780
 2841 0046 FFF7FEFF 		bl	_ZN7daisysp10MoogLadder7ProcessEf
 2842              	.LVL206:
 2843 004a F0EE400A 		vmov.f32	s1, s0
 2844              	.LVL207:
 570:GrannyChordApp.cpp **** 
 571:GrannyChordApp.cpp ****   /* apply stereo rotation */
 572:GrannyChordApp.cpp ****   // out = rotator_.Process(out);
 573:GrannyChordApp.cpp **** 
 574:GrannyChordApp.cpp ****   /* apply chorus */
 575:GrannyChordApp.cpp ****   // out.left = chorus_.Process(out.left);
 576:GrannyChordApp.cpp ****   // out.right = chorus_.Process(out.right);
 577:GrannyChordApp.cpp **** 
 578:GrannyChordApp.cpp ****   /* apply reverb */
 579:GrannyChordApp.cpp ****   // reverb_.ProcessMix(out.left, out.right, &out.left, &out.right);
 580:GrannyChordApp.cpp **** 
 581:GrannyChordApp.cpp ****   // out.left = hicut_.Process(out.left);
 582:GrannyChordApp.cpp ****   // out.right = hicut_.Process(out.right);
 583:GrannyChordApp.cpp ****   return out;
 2845              		.loc 3 583 3 is_stmt 1 view .LVU781
 584:GrannyChordApp.cpp **** }
 2846              		.loc 3 584 1 is_stmt 0 view .LVU782
 2847 004e B0EE480A 		vmov.f32	s0, s16
 2848 0052 07B0     		add	sp, sp, #28
 2849              		.cfi_def_cfa_offset 20
 2850              		@ sp needed
 2851 0054 BDEC028B 		vldm	sp!, {d8}
 2852              		.cfi_restore 80
 2853              		.cfi_restore 81
 2854              		.cfi_def_cfa_offset 12
 2855 0058 30BD     		pop	{r4, r5, pc}
 2856              		.loc 3 584 1 view .LVU783
 2857              		.cfi_endproc
 2858              	.LFE4940:
 2860              		.section	.rodata._ZN14GrannyChordApp13RecordOutToSDEv.str1.1,"aMS",%progbits,1
 2861              	.LC11:
 2862 0000 7265636F 		.ascii	"recording_%d\000"
 2862      7264696E 
 2862      675F2564 
 2862      00
 2863              		.section	.text._ZN14GrannyChordApp13RecordOutToSDEv,"ax",%progbits
 2864              		.align	1
ARM GAS  /var/folders/2p/02m_5p7958535cp2tpgps0400000gn/T//ccAOujCh.s 			page 85


 2865              		.global	_ZN14GrannyChordApp13RecordOutToSDEv
 2866              		.syntax unified
 2867              		.thumb
 2868              		.thumb_func
 2870              	_ZN14GrannyChordApp13RecordOutToSDEv:
 2871              	.LVL208:
 2872              	.LFB4941:
 585:GrannyChordApp.cpp **** 
 586:GrannyChordApp.cpp **** /// @brief Process audio from chord mode and mix to output buffer
 587:GrannyChordApp.cpp **** /// @param out Output audio buffer
 588:GrannyChordApp.cpp **** /// @param size Number of samples to process in this call
 589:GrannyChordApp.cpp **** // void GrannyChordApp::ProcessChordMode(AudioHandle::OutputBuffer out, size_t size){
 590:GrannyChordApp.cpp **** //   // if (UserTriggeredChord()) {
 591:GrannyChordApp.cpp **** //   //   synth_.TriggerChord(out[0], out[1], size);
 592:GrannyChordApp.cpp **** //   // } else {
 593:GrannyChordApp.cpp **** //   //     std::memset(out[0], 0, size * sizeof(float));
 594:GrannyChordApp.cpp **** //   //     std::memset(out[1], 0, size * sizeof(float));
 595:GrannyChordApp.cpp **** //   // }
 596:GrannyChordApp.cpp **** // }
 597:GrannyChordApp.cpp **** 
 598:GrannyChordApp.cpp **** /// @brief Record granular synth or chord output audio to SD card
 599:GrannyChordApp.cpp **** /// @param out Output audio buffer
 600:GrannyChordApp.cpp **** /// @param size Number of samples to process in this call
 601:GrannyChordApp.cpp **** void GrannyChordApp::RecordOutToSD(){
 2873              		.loc 3 601 37 is_stmt 1 view -0
 2874              		.cfi_startproc
 2875              		@ args = 0, pretend = 0, frame = 40
 2876              		@ frame_needed = 0, uses_anonymous_args = 0
 602:GrannyChordApp.cpp ****   InitWavWriter();
 2877              		.loc 3 602 3 view .LVU785
 601:GrannyChordApp.cpp ****   InitWavWriter();
 2878              		.loc 3 601 37 is_stmt 0 view .LVU786
 2879 0000 F0B5     		push	{r4, r5, r6, r7, lr}
 2880              		.cfi_def_cfa_offset 20
 2881              		.cfi_offset 4, -20
 2882              		.cfi_offset 5, -16
 2883              		.cfi_offset 6, -12
 2884              		.cfi_offset 7, -8
 2885              		.cfi_offset 14, -4
 2886 0002 0446     		mov	r4, r0
 2887 0004 8BB0     		sub	sp, sp, #44
 2888              		.cfi_def_cfa_offset 64
 2889              		.loc 3 602 16 view .LVU787
 2890 0006 FFF7FEFF 		bl	_ZN14GrannyChordApp13InitWavWriterEv
 2891              	.LVL209:
 603:GrannyChordApp.cpp ****   char name[32];
 2892              		.loc 3 603 3 is_stmt 1 view .LVU788
 604:GrannyChordApp.cpp ****   sprintf(name,"recording_%d",recording_count_);
 2893              		.loc 3 604 3 view .LVU789
 2894              		.loc 3 604 10 is_stmt 0 view .LVU790
 2895 000a 1749     		ldr	r1, .L104
 2896 000c 04F55045 		add	r5, r4, #53248
 2897 0010 02A8     		add	r0, sp, #8
 2898              	.LBB525:
 2899              	.LBB526:
 157:../libDaisy/src/util/WavWriter.h ****         {
 2900              		.loc 9 157 18 view .LVU791
ARM GAS  /var/folders/2p/02m_5p7958535cp2tpgps0400000gn/T//ccAOujCh.s 			page 86


 2901 0012 04F54F46 		add	r6, r4, #52992
 2902 0016 04F59E47 		add	r7, r4, #20224
 2903              	.LBE526:
 2904              	.LBE525:
 2905              		.loc 3 604 10 view .LVU792
 2906 001a D5F8F021 		ldr	r2, [r5, #496]
 2907 001e FFF7FEFF 		bl	sprintf
 2908              	.LVL210:
 605:GrannyChordApp.cpp ****   recording_count_++;
 2909              		.loc 3 605 3 is_stmt 1 view .LVU793
 2910              		.loc 3 605 19 is_stmt 0 view .LVU794
 2911 0022 D5F8F031 		ldr	r3, [r5, #496]
 2912              	.LBB531:
 2913              	.LBB528:
 157:../libDaisy/src/util/WavWriter.h ****         {
 2914              		.loc 9 157 18 view .LVU795
 2915 0026 B836     		adds	r6, r6, #184
 2916 0028 0A22     		movs	r2, #10
 2917              	.LBE528:
 2918              	.LBE531:
 2919              		.loc 3 605 19 view .LVU796
 2920 002a 0133     		adds	r3, r3, #1
 2921              	.LBB532:
 2922              	.LBB529:
 157:../libDaisy/src/util/WavWriter.h ****         {
 2923              		.loc 9 157 18 view .LVU797
 2924 002c 02A9     		add	r1, sp, #8
 2925 002e 3046     		mov	r0, r6
 2926 0030 7037     		adds	r7, r7, #112
 2927              	.LBE529:
 2928              	.LBE532:
 2929              		.loc 3 605 19 view .LVU798
 2930 0032 C5F8F031 		str	r3, [r5, #496]
 606:GrannyChordApp.cpp ****   sd_writer_.OpenFile(name);
 2931              		.loc 3 606 3 is_stmt 1 view .LVU799
 2932              	.LVL211:
 2933              	.LBB533:
 2934              	.LBI525:
 155:../libDaisy/src/util/WavWriter.h ****     {
 2935              		.loc 9 155 10 view .LVU800
 2936              	.LBB530:
 157:../libDaisy/src/util/WavWriter.h ****         {
 2937              		.loc 9 157 18 is_stmt 0 view .LVU801
 2938 0036 FFF7FEFF 		bl	f_open
 2939              	.LVL212:
 157:../libDaisy/src/util/WavWriter.h ****         {
 2940              		.loc 9 157 9 view .LVU802
 2941 003a 80B9     		cbnz	r0, .L102
 2942              	.LBB527:
 159:../libDaisy/src/util/WavWriter.h ****             if(f_write(&fp_, &wavheader_, sizeof(wavheader_), &bw) == FR_OK)
 2943              		.loc 9 159 26 view .LVU803
 2944 003c 0190     		str	r0, [sp, #4]
 160:../libDaisy/src/util/WavWriter.h ****             {
 2945              		.loc 9 160 23 view .LVU804
 2946 003e 01AB     		add	r3, sp, #4
 2947 0040 2C22     		movs	r2, #44
 2948 0042 3946     		mov	r1, r7
ARM GAS  /var/folders/2p/02m_5p7958535cp2tpgps0400000gn/T//ccAOujCh.s 			page 87


 2949 0044 3046     		mov	r0, r6
 2950 0046 FFF7FEFF 		bl	f_write
 2951              	.LVL213:
 160:../libDaisy/src/util/WavWriter.h ****             {
 2952              		.loc 9 160 13 view .LVU805
 2953 004a 40B9     		cbnz	r0, .L102
 162:../libDaisy/src/util/WavWriter.h ****                 num_samps_ = 0;
 2954              		.loc 9 162 28 view .LVU806
 2955 004c 04F58043 		add	r3, r4, #16384
 2956 0050 0122     		movs	r2, #1
 2957 0052 04F54044 		add	r4, r4, #49152
 2958              	.LVL214:
 162:../libDaisy/src/util/WavWriter.h ****                 num_samps_ = 0;
 2959              		.loc 9 162 28 view .LVU807
 2960 0056 84F8B42F 		strb	r2, [r4, #4020]
 163:../libDaisy/src/util/WavWriter.h ****             }
 2961              		.loc 9 163 28 view .LVU808
 2962 005a C3F89C0F 		str	r0, [r3, #3996]
 2963              	.LVL215:
 2964              	.L102:
 163:../libDaisy/src/util/WavWriter.h ****             }
 2965              		.loc 9 163 28 view .LVU809
 2966              	.LBE527:
 2967              	.LBE530:
 2968              	.LBE533:
 607:GrannyChordApp.cpp ****   recording_out_ = true;
 2969              		.loc 3 607 3 is_stmt 1 view .LVU810
 2970              		.loc 3 607 18 is_stmt 0 view .LVU811
 2971 005e 0123     		movs	r3, #1
 2972 0060 85F8EC31 		strb	r3, [r5, #492]
 608:GrannyChordApp.cpp **** }
 2973              		.loc 3 608 1 view .LVU812
 2974 0064 0BB0     		add	sp, sp, #44
 2975              		.cfi_def_cfa_offset 20
 2976              		@ sp needed
 2977 0066 F0BD     		pop	{r4, r5, r6, r7, pc}
 2978              	.LVL216:
 2979              	.L105:
 2980              		.loc 3 608 1 view .LVU813
 2981              		.align	2
 2982              	.L104:
 2983 0068 00000000 		.word	.LC11
 2984              		.cfi_endproc
 2985              	.LFE4941:
 2987              		.section	.text._ZN14GrannyChordApp17UpdateKnob1ParamsEf9SynthMode,"ax",%progbits
 2988              		.align	1
 2989              		.global	_ZN14GrannyChordApp17UpdateKnob1ParamsEf9SynthMode
 2990              		.syntax unified
 2991              		.thumb
 2992              		.thumb_func
 2994              	_ZN14GrannyChordApp17UpdateKnob1ParamsEf9SynthMode:
 2995              	.LVL217:
 2996              	.LFB4943:
 609:GrannyChordApp.cpp **** 
 610:GrannyChordApp.cpp **** /// @brief cleans up after recording to SD card is finished
 611:GrannyChordApp.cpp **** void GrannyChordApp::FinishRecording(){
 612:GrannyChordApp.cpp ****   sd_writer_.SaveFile();
ARM GAS  /var/folders/2p/02m_5p7958535cp2tpgps0400000gn/T//ccAOujCh.s 			page 88


 613:GrannyChordApp.cpp ****   recording_out_=false;
 614:GrannyChordApp.cpp **** }
 615:GrannyChordApp.cpp **** 
 616:GrannyChordApp.cpp **** /// @brief Updates synth parameters from hardware knob 1 input
 617:GrannyChordApp.cpp **** /// @param knob1_val float between 0-1 from knob input
 618:GrannyChordApp.cpp **** /// @param mode current synth mode that determines which parameters to update
 619:GrannyChordApp.cpp **** void GrannyChordApp::UpdateKnob1Params(float knob1_val, SynthMode mode){
 2997              		.loc 3 619 72 is_stmt 1 view -0
 2998              		.cfi_startproc
 2999              		@ args = 0, pretend = 0, frame = 0
 3000              		@ frame_needed = 0, uses_anonymous_args = 0
 3001              		@ link register save eliminated.
 620:GrannyChordApp.cpp ****   switch (mode){
 3002              		.loc 3 620 3 view .LVU815
 3003 0000 11B1     		cbz	r1, .L107
 3004 0002 0229     		cmp	r1, #2
 3005 0004 03D0     		beq	.L108
 3006 0006 7047     		bx	lr
 3007              	.L107:
 621:GrannyChordApp.cpp ****     case SynthMode::Size_Position:
 3008              		.loc 3 621 5 view .LVU816
 622:GrannyChordApp.cpp ****       synth_.SetGrainSize(knob1_val);
 3009              		.loc 3 622 7 view .LVU817
 3010              		.loc 3 622 26 is_stmt 0 view .LVU818
 3011 0008 2030     		adds	r0, r0, #32
 3012              	.LVL218:
 3013              		.loc 3 622 26 view .LVU819
 3014 000a FFF7FEBF 		b	_ZN13GranularSynth12SetGrainSizeEf
 3015              	.LVL219:
 3016              	.L108:
 623:GrannyChordApp.cpp ****       if (counter%128000==0){
 624:GrannyChordApp.cpp ****         // DebugPrint(pod_, "set grain size to %u",synth_.GetSize());
 625:GrannyChordApp.cpp ****       }
 626:GrannyChordApp.cpp ****       return;
 627:GrannyChordApp.cpp ****     case SynthMode::Pitch_ActiveGrains:
 3017              		.loc 3 627 5 is_stmt 1 view .LVU820
 628:GrannyChordApp.cpp ****       synth_.SetPitchRatio(knob1_val);
 3018              		.loc 3 628 7 view .LVU821
 3019              		.loc 3 628 27 is_stmt 0 view .LVU822
 3020 000e 2030     		adds	r0, r0, #32
 3021              	.LVL220:
 3022              		.loc 3 628 27 view .LVU823
 3023 0010 FFF7FEBF 		b	_ZN13GranularSynth13SetPitchRatioEf
 3024              	.LVL221:
 3025              		.loc 3 628 27 view .LVU824
 3026              		.cfi_endproc
 3027              	.LFE4943:
 3029              		.section	.text._ZN14GrannyChordApp17UpdateKnob2ParamsEf9SynthMode,"ax",%progbits
 3030              		.align	1
 3031              		.global	_ZN14GrannyChordApp17UpdateKnob2ParamsEf9SynthMode
 3032              		.syntax unified
 3033              		.thumb
 3034              		.thumb_func
 3036              	_ZN14GrannyChordApp17UpdateKnob2ParamsEf9SynthMode:
 3037              	.LVL222:
 3038              	.LFB4944:
 629:GrannyChordApp.cpp ****       if (counter%128000==0){
ARM GAS  /var/folders/2p/02m_5p7958535cp2tpgps0400000gn/T//ccAOujCh.s 			page 89


 630:GrannyChordApp.cpp ****         // DebugPrint(pod_, "set pitch to %f",synth_.GetPitch());
 631:GrannyChordApp.cpp ****       }
 632:GrannyChordApp.cpp ****       return;
 633:GrannyChordApp.cpp ****     case SynthMode::Pan_Direction:
 634:GrannyChordApp.cpp ****       // synth_.SetPan(knob1_val);
 635:GrannyChordApp.cpp ****       return;
 636:GrannyChordApp.cpp ****     case SynthMode::Reverb:
 637:GrannyChordApp.cpp ****        /* set reverb feedback ie tail length */
 638:GrannyChordApp.cpp ****       // reverb_.SetFeedback(knob1_val); // NOTE check it doesn't clip
 639:GrannyChordApp.cpp ****       return;
 640:GrannyChordApp.cpp ****     case SynthMode::Size_Position_Rnd:
 641:GrannyChordApp.cpp ****       // synth_.SetSizeRnd(knob1_val);
 642:GrannyChordApp.cpp ****       return;
 643:GrannyChordApp.cpp ****     case SynthMode::Pitch_ActiveGrains_Rnd:
 644:GrannyChordApp.cpp ****       // synth_.SetPitchRnd(knob1_val);
 645:GrannyChordApp.cpp ****       return;
 646:GrannyChordApp.cpp ****     case SynthMode::PanRnd_Chorus:
 647:GrannyChordApp.cpp ****       // rotator_.SetFreq(knob1_val*2.0f);
 648:GrannyChordApp.cpp ****       return;     
 649:GrannyChordApp.cpp ****     case SynthMode::Filter:
 650:GrannyChordApp.cpp ****       /* map knob value to frequency range with an exponential curve */
 651:GrannyChordApp.cpp ****       // knob1_val = fmap(knob1_val, LOPASS_LOWER_BOUND, LOPASS_UPPER_BOUND, daisysp::Mapping::EXP)
 652:GrannyChordApp.cpp ****       /* set cutoff frequency of low pass moog filter */
 653:GrannyChordApp.cpp ****       // lowpass_moog_.SetFreq(knob1_val);
 654:GrannyChordApp.cpp ****       return;
 655:GrannyChordApp.cpp ****   }
 656:GrannyChordApp.cpp **** }
 657:GrannyChordApp.cpp **** 
 658:GrannyChordApp.cpp **** /// @brief Updates synth parameters from hardware knob 2 input
 659:GrannyChordApp.cpp **** /// @param knob1_val float between 0-1 from knob input
 660:GrannyChordApp.cpp **** /// @param mode current synth mode that determines which parameters to update
 661:GrannyChordApp.cpp **** void GrannyChordApp::UpdateKnob2Params(float knob2_val, SynthMode mode){
 3039              		.loc 3 661 72 is_stmt 1 view -0
 3040              		.cfi_startproc
 3041              		@ args = 0, pretend = 0, frame = 0
 3042              		@ frame_needed = 0, uses_anonymous_args = 0
 3043              		@ link register save eliminated.
 662:GrannyChordApp.cpp ****   switch (mode){
 3044              		.loc 3 662 3 view .LVU826
 3045 0000 0229     		cmp	r1, #2
 3046 0002 05D0     		beq	.L112
 3047 0004 0429     		cmp	r1, #4
 3048 0006 06D0     		beq	.L113
 3049 0008 41B9     		cbnz	r1, .L111
 663:GrannyChordApp.cpp ****     case SynthMode::Size_Position:
 3050              		.loc 3 663 5 view .LVU827
 664:GrannyChordApp.cpp ****       synth_.SetSpawnPos(knob2_val);
 3051              		.loc 3 664 7 view .LVU828
 3052              		.loc 3 664 25 is_stmt 0 view .LVU829
 3053 000a 2030     		adds	r0, r0, #32
 3054              	.LVL223:
 3055              		.loc 3 664 25 view .LVU830
 3056 000c FFF7FEBF 		b	_ZN13GranularSynth11SetSpawnPosEf
 3057              	.LVL224:
 3058              	.L112:
 665:GrannyChordApp.cpp ****       // if (counter%128000==0){
 666:GrannyChordApp.cpp ****       //   // DebugPrint(pod_, "set pos to %u",synth_.GetPos());
ARM GAS  /var/folders/2p/02m_5p7958535cp2tpgps0400000gn/T//ccAOujCh.s 			page 90


 667:GrannyChordApp.cpp ****       // }
 668:GrannyChordApp.cpp ****       return;
 669:GrannyChordApp.cpp ****     case SynthMode::Pitch_ActiveGrains:
 3059              		.loc 3 669 5 is_stmt 1 view .LVU831
 670:GrannyChordApp.cpp ****       synth_.SetActiveGrains(knob2_val);
 3060              		.loc 3 670 7 view .LVU832
 3061              		.loc 3 670 29 is_stmt 0 view .LVU833
 3062 0010 2030     		adds	r0, r0, #32
 3063              	.LVL225:
 3064              		.loc 3 670 29 view .LVU834
 3065 0012 FFF7FEBF 		b	_ZN13GranularSynth15SetActiveGrainsEf
 3066              	.LVL226:
 3067              	.L113:
 671:GrannyChordApp.cpp ****       // if (counter%128000==0){
 672:GrannyChordApp.cpp ****       //   // DebugPrint(pod_, "set active grains to %u",synth_.GetCount());
 673:GrannyChordApp.cpp ****       // }
 674:GrannyChordApp.cpp ****       return;
 675:GrannyChordApp.cpp ****     case SynthMode::Pan_Direction:
 3068              		.loc 3 675 5 is_stmt 1 view .LVU835
 676:GrannyChordApp.cpp ****       synth_.SetDirection(knob2_val);
 3069              		.loc 3 676 7 view .LVU836
 3070              		.loc 3 676 26 is_stmt 0 view .LVU837
 3071 0016 2030     		adds	r0, r0, #32
 3072              	.LVL227:
 3073              		.loc 3 676 26 view .LVU838
 3074 0018 FFF7FEBF 		b	_ZN13GranularSynth12SetDirectionEf
 3075              	.LVL228:
 3076              	.L111:
 677:GrannyChordApp.cpp ****       return;
 678:GrannyChordApp.cpp ****     case SynthMode::Reverb:
 679:GrannyChordApp.cpp ****         // reverb_.SetMix(knob2_val);
 680:GrannyChordApp.cpp ****         return;
 681:GrannyChordApp.cpp ****     case SynthMode::Size_Position_Rnd:
 682:GrannyChordApp.cpp ****       // synth_.SetPositionRnd(knob2_val);
 683:GrannyChordApp.cpp ****       return;
 684:GrannyChordApp.cpp ****     case SynthMode::Pitch_ActiveGrains_Rnd:
 685:GrannyChordApp.cpp ****       // synth_.SetCountRnd(knob2_val);
 686:GrannyChordApp.cpp ****       return;
 687:GrannyChordApp.cpp ****     case SynthMode::PanRnd_Chorus:
 688:GrannyChordApp.cpp ****       /* set chorus left/right channel to (synth pan +/- 10%) */
 689:GrannyChordApp.cpp ****       // chorus_.SetPan(fclamp(synth_.GetPan()+0.1f,0,1), (fclamp(synth_.GetPan()-0.1f,0,1)));
 690:GrannyChordApp.cpp ****       // chorus_.SetLfoDepth(knob2_val);
 691:GrannyChordApp.cpp ****       return;
 692:GrannyChordApp.cpp ****     case SynthMode::Filter:
 693:GrannyChordApp.cpp ****       /* map knob value to frequency range with linear curve */
 694:GrannyChordApp.cpp ****       // knob2_val = fmap(knob2_val, HIPASS_LOWER_BOUND, HIPASS_UPPER_BOUND, daisysp::Mapping::EXP)
 695:GrannyChordApp.cpp ****       /* set cutoff frequency for high pass filter */
 696:GrannyChordApp.cpp ****       // hipass_.SetFrequency(knob2_val);
 697:GrannyChordApp.cpp ****       return;
 698:GrannyChordApp.cpp ****   }
 699:GrannyChordApp.cpp **** }
 3077              		.loc 3 699 1 view .LVU839
 3078 001c 7047     		bx	lr
 3079              		.cfi_endproc
 3080              	.LFE4944:
 3082              		.section	.rodata._ZN14GrannyChordApp17UpdateSynthParamsEv.str1.1,"aMS",%progbits,1
 3083              	.LC12:
ARM GAS  /var/folders/2p/02m_5p7958535cp2tpgps0400000gn/T//ccAOujCh.s 			page 91


 3084 0000 6E657720 		.ascii	"new k1v: %f\000"
 3084      6B31763A 
 3084      20256600 
 3085              	.LC13:
 3086 000c 6E657720 		.ascii	"new k2v: %f\000"
 3086      6B32763A 
 3086      20256600 
 3087              		.section	.text._ZN14GrannyChordApp17UpdateSynthParamsEv,"ax",%progbits
 3088              		.align	1
 3089              		.global	_ZN14GrannyChordApp17UpdateSynthParamsEv
 3090              		.syntax unified
 3091              		.thumb
 3092              		.thumb_func
 3094              	_ZN14GrannyChordApp17UpdateSynthParamsEv:
 3095              	.LVL229:
 3096              	.LFB4927:
 347:GrannyChordApp.cpp ****   if (curr_state_!=AppState::Synthesis) return;
 3097              		.loc 3 347 41 is_stmt 1 view -0
 3098              		.cfi_startproc
 3099              		@ args = 0, pretend = 0, frame = 0
 3100              		@ frame_needed = 0, uses_anonymous_args = 0
 348:GrannyChordApp.cpp ****   int mode_idx = static_cast<int>(curr_synth_mode_);
 3101              		.loc 3 348 3 view .LVU841
 3102 0000 D0F87832 		ldr	r3, [r0, #632]
 3103 0004 022B     		cmp	r3, #2
 347:GrannyChordApp.cpp ****   if (curr_state_!=AppState::Synthesis) return;
 3104              		.loc 3 347 41 is_stmt 0 view .LVU842
 3105 0006 2DE9F041 		push	{r4, r5, r6, r7, r8, lr}
 3106              		.cfi_def_cfa_offset 24
 3107              		.cfi_offset 4, -24
 3108              		.cfi_offset 5, -20
 3109              		.cfi_offset 6, -16
 3110              		.cfi_offset 7, -12
 3111              		.cfi_offset 8, -8
 3112              		.cfi_offset 14, -4
 3113 000a 0446     		mov	r4, r0
 3114 000c 2DED048B 		vpush.64	{d8, d9}
 3115              		.cfi_def_cfa_offset 40
 3116              		.cfi_offset 80, -40
 3117              		.cfi_offset 81, -36
 3118              		.cfi_offset 82, -32
 3119              		.cfi_offset 83, -28
 348:GrannyChordApp.cpp ****   int mode_idx = static_cast<int>(curr_synth_mode_);
 3120              		.loc 3 348 3 view .LVU843
 3121 0010 40F0A780 		bne	.L115
 3122              	.LVL230:
 3123              	.LBB552:
 3124              	.LBI552:
 347:GrannyChordApp.cpp ****   if (curr_state_!=AppState::Synthesis) return;
 3125              		.loc 3 347 6 is_stmt 1 view .LVU844
 3126              	.LBB553:
 349:GrannyChordApp.cpp **** 
 3127              		.loc 3 349 3 view .LVU845
 349:GrannyChordApp.cpp **** 
 3128              		.loc 3 349 7 is_stmt 0 view .LVU846
 3129 0014 D0F88052 		ldr	r5, [r0, #640]
 3130              	.LVL231:
ARM GAS  /var/folders/2p/02m_5p7958535cp2tpgps0400000gn/T//ccAOujCh.s 			page 92


 352:GrannyChordApp.cpp ****   float knob2_val = MapKnobDeadzone(pod_.knob2.Process());
 3131              		.loc 3 352 3 is_stmt 1 view .LVU847
 352:GrannyChordApp.cpp ****   float knob2_val = MapKnobDeadzone(pod_.knob2.Process());
 3132              		.loc 3 352 36 is_stmt 0 view .LVU848
 3133 0018 C069     		ldr	r0, [r0, #28]
 3134              	.LVL232:
 3135              	.LBB554:
 3136              	.LBB555:
 700:GrannyChordApp.cpp **** 
 701:GrannyChordApp.cpp **** /* knobs on the Pod have deadzones around 0 and 1 so we adjust for this */
 702:GrannyChordApp.cpp **** inline float GrannyChordApp::MapKnobDeadzone(float knob_val ){
 703:GrannyChordApp.cpp ****   if (knob_val<=0.01f) return 0.0f;
 3137              		.loc 3 703 3 view .LVU849
 3138 001a 9FED579A 		vldr.32	s18, .L140+8
 3139              	.LBE555:
 3140              	.LBE554:
 352:GrannyChordApp.cpp ****   float knob2_val = MapKnobDeadzone(pod_.knob2.Process());
 3141              		.loc 3 352 36 view .LVU850
 3142 001e 6830     		adds	r0, r0, #104
 3143 0020 FFF7FEFF 		bl	_ZN5daisy13AnalogControl7ProcessEv
 3144              	.LVL233:
 3145              	.LBB558:
 3146              	.LBI554:
 702:GrannyChordApp.cpp ****   if (knob_val<=0.01f) return 0.0f;
 3147              		.loc 3 702 14 is_stmt 1 view .LVU851
 3148              	.LBB556:
 3149              		.loc 3 703 3 view .LVU852
 3150 0024 B4EEC90A 		vcmpe.f32	s0, s18
 3151 0028 F1EE10FA 		vmrs	APSR_nzcv, FPSCR
 3152 002c 40F29380 		bls	.L129
 704:GrannyChordApp.cpp ****   if (knob_val>=0.99f) return 1.0f;
 3153              		.loc 3 704 3 view .LVU853
 3154              		.loc 3 704 31 is_stmt 0 view .LVU854
 3155 0030 DFED527A 		vldr.32	s15, .L140+12
 3156 0034 B4EE670A 		vcmp.f32	s0, s15
 3157 0038 F7EE007A 		vmov.f32	s15, #1.0e+0
 3158 003c F1EE10FA 		vmrs	APSR_nzcv, FPSCR
 3159 0040 67FE808A 		vselge.f32	s17, s15, s0
 3160              	.L118:
 3161              	.LVL234:
 3162              		.loc 3 704 31 view .LVU855
 3163              	.LBE556:
 3164              	.LBE558:
 353:GrannyChordApp.cpp ****   
 3165              		.loc 3 353 3 is_stmt 1 view .LVU856
 353:GrannyChordApp.cpp ****   
 3166              		.loc 3 353 36 is_stmt 0 view .LVU857
 3167 0044 E069     		ldr	r0, [r4, #28]
 3168 0046 8830     		adds	r0, r0, #136
 3169 0048 FFF7FEFF 		bl	_ZN5daisy13AnalogControl7ProcessEv
 3170              	.LVL235:
 3171              	.LBB559:
 3172              	.LBI559:
 702:GrannyChordApp.cpp ****   if (knob_val<=0.01f) return 0.0f;
 3173              		.loc 3 702 14 is_stmt 1 view .LVU858
 3174              	.LBB560:
 703:GrannyChordApp.cpp ****   if (knob_val>=0.99f) return 1.0f;
ARM GAS  /var/folders/2p/02m_5p7958535cp2tpgps0400000gn/T//ccAOujCh.s 			page 93


 3175              		.loc 3 703 3 view .LVU859
 3176 004c B4EEC90A 		vcmpe.f32	s0, s18
 3177 0050 F1EE10FA 		vmrs	APSR_nzcv, FPSCR
 3178 0054 40F28280 		bls	.L130
 3179              		.loc 3 704 3 view .LVU860
 3180              		.loc 3 704 31 is_stmt 0 view .LVU861
 3181 0058 DFED487A 		vldr.32	s15, .L140+12
 3182 005c B4EE670A 		vcmp.f32	s0, s15
 3183 0060 F7EE007A 		vmov.f32	s15, #1.0e+0
 3184 0064 F1EE10FA 		vmrs	APSR_nzcv, FPSCR
 3185 0068 27FE808A 		vselge.f32	s16, s15, s0
 3186              	.L120:
 3187              	.LVL236:
 3188              		.loc 3 704 31 view .LVU862
 3189              	.LBE560:
 3190              	.LBE559:
 355:GrannyChordApp.cpp **** 
 3191              		.loc 3 355 3 is_stmt 1 view .LVU863
 355:GrannyChordApp.cpp **** 
 3192              		.loc 3 355 10 is_stmt 0 view .LVU864
 3193 006c 04F55047 		add	r7, r4, #53248
 3194 0070 05F59E56 		add	r6, r5, #5056
 3195 0074 D7F83032 		ldr	r3, [r7, #560]
 3196 0078 0C36     		adds	r6, r6, #12
 3197 007a 0133     		adds	r3, r3, #1
 3198 007c C7F83032 		str	r3, [r7, #560]
 358:GrannyChordApp.cpp ****     UpdateKnob1Params(knob1_val,curr_synth_mode_);
 3199              		.loc 3 358 3 is_stmt 1 view .LVU865
 3200              	.LVL237:
 3201              	.LBB562:
 3202              	.LBI562:
 705:GrannyChordApp.cpp ****   return knob_val;
 706:GrannyChordApp.cpp **** }
 707:GrannyChordApp.cpp **** 
 708:GrannyChordApp.cpp **** inline bool GrannyChordApp::UpdateKnobPassThru(bool *knob_latched, float curr_knob_val, float prev_
 3203              		.loc 3 708 13 view .LVU866
 3204              	.LBB563:
 709:GrannyChordApp.cpp ****   if ((*knob_latched)){
 3205              		.loc 3 709 3 view .LVU867
 3206 0080 94F88832 		ldrb	r3, [r4, #648]	@ zero_extendqisi2
 3207 0084 9BB1     		cbz	r3, .L122
 710:GrannyChordApp.cpp ****     if (fabs(curr_knob_val - prev_param)<0.0001){
 3208              		.loc 3 710 5 view .LVU868
 3209              	.LVL238:
 3210              	.LBB564:
 3211              	.LBI564:
 3212              		.file 13 "/Library/DaisyToolchain/0.2.0/arm/arm-none-eabi/include/c++/10.3.1/cmath"
   1:/Library/DaisyToolchain/0.2.0/arm/arm-none-eabi/include/c++/10.3.1/cmath **** // -*- C++ -*- C forwarding header.
   2:/Library/DaisyToolchain/0.2.0/arm/arm-none-eabi/include/c++/10.3.1/cmath **** 
   3:/Library/DaisyToolchain/0.2.0/arm/arm-none-eabi/include/c++/10.3.1/cmath **** // Copyright (C) 1997-2020 Free Software Foundation, Inc.
   4:/Library/DaisyToolchain/0.2.0/arm/arm-none-eabi/include/c++/10.3.1/cmath **** //
   5:/Library/DaisyToolchain/0.2.0/arm/arm-none-eabi/include/c++/10.3.1/cmath **** // This file is part of the GNU ISO C++ Library.  This library is free
   6:/Library/DaisyToolchain/0.2.0/arm/arm-none-eabi/include/c++/10.3.1/cmath **** // software; you can redistribute it and/or modify it under the
   7:/Library/DaisyToolchain/0.2.0/arm/arm-none-eabi/include/c++/10.3.1/cmath **** // terms of the GNU General Public License as published by the
   8:/Library/DaisyToolchain/0.2.0/arm/arm-none-eabi/include/c++/10.3.1/cmath **** // Free Software Foundation; either version 3, or (at your option)
   9:/Library/DaisyToolchain/0.2.0/arm/arm-none-eabi/include/c++/10.3.1/cmath **** // any later version.
  10:/Library/DaisyToolchain/0.2.0/arm/arm-none-eabi/include/c++/10.3.1/cmath **** 
ARM GAS  /var/folders/2p/02m_5p7958535cp2tpgps0400000gn/T//ccAOujCh.s 			page 94


  11:/Library/DaisyToolchain/0.2.0/arm/arm-none-eabi/include/c++/10.3.1/cmath **** // This library is distributed in the hope that it will be useful,
  12:/Library/DaisyToolchain/0.2.0/arm/arm-none-eabi/include/c++/10.3.1/cmath **** // but WITHOUT ANY WARRANTY; without even the implied warranty of
  13:/Library/DaisyToolchain/0.2.0/arm/arm-none-eabi/include/c++/10.3.1/cmath **** // MERCHANTABILITY or FITNESS FOR A PARTICULAR PURPOSE.  See the
  14:/Library/DaisyToolchain/0.2.0/arm/arm-none-eabi/include/c++/10.3.1/cmath **** // GNU General Public License for more details.
  15:/Library/DaisyToolchain/0.2.0/arm/arm-none-eabi/include/c++/10.3.1/cmath **** 
  16:/Library/DaisyToolchain/0.2.0/arm/arm-none-eabi/include/c++/10.3.1/cmath **** // Under Section 7 of GPL version 3, you are granted additional
  17:/Library/DaisyToolchain/0.2.0/arm/arm-none-eabi/include/c++/10.3.1/cmath **** // permissions described in the GCC Runtime Library Exception, version
  18:/Library/DaisyToolchain/0.2.0/arm/arm-none-eabi/include/c++/10.3.1/cmath **** // 3.1, as published by the Free Software Foundation.
  19:/Library/DaisyToolchain/0.2.0/arm/arm-none-eabi/include/c++/10.3.1/cmath **** 
  20:/Library/DaisyToolchain/0.2.0/arm/arm-none-eabi/include/c++/10.3.1/cmath **** // You should have received a copy of the GNU General Public License and
  21:/Library/DaisyToolchain/0.2.0/arm/arm-none-eabi/include/c++/10.3.1/cmath **** // a copy of the GCC Runtime Library Exception along with this program;
  22:/Library/DaisyToolchain/0.2.0/arm/arm-none-eabi/include/c++/10.3.1/cmath **** // see the files COPYING3 and COPYING.RUNTIME respectively.  If not, see
  23:/Library/DaisyToolchain/0.2.0/arm/arm-none-eabi/include/c++/10.3.1/cmath **** // <http://www.gnu.org/licenses/>.
  24:/Library/DaisyToolchain/0.2.0/arm/arm-none-eabi/include/c++/10.3.1/cmath **** 
  25:/Library/DaisyToolchain/0.2.0/arm/arm-none-eabi/include/c++/10.3.1/cmath **** /** @file include/cmath
  26:/Library/DaisyToolchain/0.2.0/arm/arm-none-eabi/include/c++/10.3.1/cmath ****  *  This is a Standard C++ Library file.  You should @c \#include this file
  27:/Library/DaisyToolchain/0.2.0/arm/arm-none-eabi/include/c++/10.3.1/cmath ****  *  in your programs, rather than any of the @a *.h implementation files.
  28:/Library/DaisyToolchain/0.2.0/arm/arm-none-eabi/include/c++/10.3.1/cmath ****  *
  29:/Library/DaisyToolchain/0.2.0/arm/arm-none-eabi/include/c++/10.3.1/cmath ****  *  This is the C++ version of the Standard C Library header @c math.h,
  30:/Library/DaisyToolchain/0.2.0/arm/arm-none-eabi/include/c++/10.3.1/cmath ****  *  and its contents are (mostly) the same as that header, but are all
  31:/Library/DaisyToolchain/0.2.0/arm/arm-none-eabi/include/c++/10.3.1/cmath ****  *  contained in the namespace @c std (except for names which are defined
  32:/Library/DaisyToolchain/0.2.0/arm/arm-none-eabi/include/c++/10.3.1/cmath ****  *  as macros in C).
  33:/Library/DaisyToolchain/0.2.0/arm/arm-none-eabi/include/c++/10.3.1/cmath ****  */
  34:/Library/DaisyToolchain/0.2.0/arm/arm-none-eabi/include/c++/10.3.1/cmath **** 
  35:/Library/DaisyToolchain/0.2.0/arm/arm-none-eabi/include/c++/10.3.1/cmath **** //
  36:/Library/DaisyToolchain/0.2.0/arm/arm-none-eabi/include/c++/10.3.1/cmath **** // ISO C++ 14882: 26.5  C library
  37:/Library/DaisyToolchain/0.2.0/arm/arm-none-eabi/include/c++/10.3.1/cmath **** //
  38:/Library/DaisyToolchain/0.2.0/arm/arm-none-eabi/include/c++/10.3.1/cmath **** 
  39:/Library/DaisyToolchain/0.2.0/arm/arm-none-eabi/include/c++/10.3.1/cmath **** #pragma GCC system_header
  40:/Library/DaisyToolchain/0.2.0/arm/arm-none-eabi/include/c++/10.3.1/cmath **** 
  41:/Library/DaisyToolchain/0.2.0/arm/arm-none-eabi/include/c++/10.3.1/cmath **** #include <bits/c++config.h>
  42:/Library/DaisyToolchain/0.2.0/arm/arm-none-eabi/include/c++/10.3.1/cmath **** #include <bits/cpp_type_traits.h>
  43:/Library/DaisyToolchain/0.2.0/arm/arm-none-eabi/include/c++/10.3.1/cmath **** #include <ext/type_traits.h>
  44:/Library/DaisyToolchain/0.2.0/arm/arm-none-eabi/include/c++/10.3.1/cmath **** #define _GLIBCXX_INCLUDE_NEXT_C_HEADERS
  45:/Library/DaisyToolchain/0.2.0/arm/arm-none-eabi/include/c++/10.3.1/cmath **** #include_next <math.h>
  46:/Library/DaisyToolchain/0.2.0/arm/arm-none-eabi/include/c++/10.3.1/cmath **** #undef _GLIBCXX_INCLUDE_NEXT_C_HEADERS
  47:/Library/DaisyToolchain/0.2.0/arm/arm-none-eabi/include/c++/10.3.1/cmath **** #include <bits/std_abs.h>
  48:/Library/DaisyToolchain/0.2.0/arm/arm-none-eabi/include/c++/10.3.1/cmath **** 
  49:/Library/DaisyToolchain/0.2.0/arm/arm-none-eabi/include/c++/10.3.1/cmath **** #ifndef _GLIBCXX_CMATH
  50:/Library/DaisyToolchain/0.2.0/arm/arm-none-eabi/include/c++/10.3.1/cmath **** #define _GLIBCXX_CMATH 1
  51:/Library/DaisyToolchain/0.2.0/arm/arm-none-eabi/include/c++/10.3.1/cmath **** 
  52:/Library/DaisyToolchain/0.2.0/arm/arm-none-eabi/include/c++/10.3.1/cmath **** // Get rid of those macros defined in <math.h> in lieu of real functions.
  53:/Library/DaisyToolchain/0.2.0/arm/arm-none-eabi/include/c++/10.3.1/cmath **** #undef div
  54:/Library/DaisyToolchain/0.2.0/arm/arm-none-eabi/include/c++/10.3.1/cmath **** #undef acos
  55:/Library/DaisyToolchain/0.2.0/arm/arm-none-eabi/include/c++/10.3.1/cmath **** #undef asin
  56:/Library/DaisyToolchain/0.2.0/arm/arm-none-eabi/include/c++/10.3.1/cmath **** #undef atan
  57:/Library/DaisyToolchain/0.2.0/arm/arm-none-eabi/include/c++/10.3.1/cmath **** #undef atan2
  58:/Library/DaisyToolchain/0.2.0/arm/arm-none-eabi/include/c++/10.3.1/cmath **** #undef ceil
  59:/Library/DaisyToolchain/0.2.0/arm/arm-none-eabi/include/c++/10.3.1/cmath **** #undef cos
  60:/Library/DaisyToolchain/0.2.0/arm/arm-none-eabi/include/c++/10.3.1/cmath **** #undef cosh
  61:/Library/DaisyToolchain/0.2.0/arm/arm-none-eabi/include/c++/10.3.1/cmath **** #undef exp
  62:/Library/DaisyToolchain/0.2.0/arm/arm-none-eabi/include/c++/10.3.1/cmath **** #undef fabs
  63:/Library/DaisyToolchain/0.2.0/arm/arm-none-eabi/include/c++/10.3.1/cmath **** #undef floor
  64:/Library/DaisyToolchain/0.2.0/arm/arm-none-eabi/include/c++/10.3.1/cmath **** #undef fmod
  65:/Library/DaisyToolchain/0.2.0/arm/arm-none-eabi/include/c++/10.3.1/cmath **** #undef frexp
  66:/Library/DaisyToolchain/0.2.0/arm/arm-none-eabi/include/c++/10.3.1/cmath **** #undef ldexp
  67:/Library/DaisyToolchain/0.2.0/arm/arm-none-eabi/include/c++/10.3.1/cmath **** #undef log
ARM GAS  /var/folders/2p/02m_5p7958535cp2tpgps0400000gn/T//ccAOujCh.s 			page 95


  68:/Library/DaisyToolchain/0.2.0/arm/arm-none-eabi/include/c++/10.3.1/cmath **** #undef log10
  69:/Library/DaisyToolchain/0.2.0/arm/arm-none-eabi/include/c++/10.3.1/cmath **** #undef modf
  70:/Library/DaisyToolchain/0.2.0/arm/arm-none-eabi/include/c++/10.3.1/cmath **** #undef pow
  71:/Library/DaisyToolchain/0.2.0/arm/arm-none-eabi/include/c++/10.3.1/cmath **** #undef sin
  72:/Library/DaisyToolchain/0.2.0/arm/arm-none-eabi/include/c++/10.3.1/cmath **** #undef sinh
  73:/Library/DaisyToolchain/0.2.0/arm/arm-none-eabi/include/c++/10.3.1/cmath **** #undef sqrt
  74:/Library/DaisyToolchain/0.2.0/arm/arm-none-eabi/include/c++/10.3.1/cmath **** #undef tan
  75:/Library/DaisyToolchain/0.2.0/arm/arm-none-eabi/include/c++/10.3.1/cmath **** #undef tanh
  76:/Library/DaisyToolchain/0.2.0/arm/arm-none-eabi/include/c++/10.3.1/cmath **** 
  77:/Library/DaisyToolchain/0.2.0/arm/arm-none-eabi/include/c++/10.3.1/cmath **** extern "C++"
  78:/Library/DaisyToolchain/0.2.0/arm/arm-none-eabi/include/c++/10.3.1/cmath **** {
  79:/Library/DaisyToolchain/0.2.0/arm/arm-none-eabi/include/c++/10.3.1/cmath **** namespace std _GLIBCXX_VISIBILITY(default)
  80:/Library/DaisyToolchain/0.2.0/arm/arm-none-eabi/include/c++/10.3.1/cmath **** {
  81:/Library/DaisyToolchain/0.2.0/arm/arm-none-eabi/include/c++/10.3.1/cmath **** _GLIBCXX_BEGIN_NAMESPACE_VERSION
  82:/Library/DaisyToolchain/0.2.0/arm/arm-none-eabi/include/c++/10.3.1/cmath **** 
  83:/Library/DaisyToolchain/0.2.0/arm/arm-none-eabi/include/c++/10.3.1/cmath ****   using ::acos;
  84:/Library/DaisyToolchain/0.2.0/arm/arm-none-eabi/include/c++/10.3.1/cmath **** 
  85:/Library/DaisyToolchain/0.2.0/arm/arm-none-eabi/include/c++/10.3.1/cmath **** #ifndef __CORRECT_ISO_CPP_MATH_H_PROTO
  86:/Library/DaisyToolchain/0.2.0/arm/arm-none-eabi/include/c++/10.3.1/cmath ****   inline _GLIBCXX_CONSTEXPR float
  87:/Library/DaisyToolchain/0.2.0/arm/arm-none-eabi/include/c++/10.3.1/cmath ****   acos(float __x)
  88:/Library/DaisyToolchain/0.2.0/arm/arm-none-eabi/include/c++/10.3.1/cmath ****   { return __builtin_acosf(__x); }
  89:/Library/DaisyToolchain/0.2.0/arm/arm-none-eabi/include/c++/10.3.1/cmath **** 
  90:/Library/DaisyToolchain/0.2.0/arm/arm-none-eabi/include/c++/10.3.1/cmath ****   inline _GLIBCXX_CONSTEXPR long double
  91:/Library/DaisyToolchain/0.2.0/arm/arm-none-eabi/include/c++/10.3.1/cmath ****   acos(long double __x)
  92:/Library/DaisyToolchain/0.2.0/arm/arm-none-eabi/include/c++/10.3.1/cmath ****   { return __builtin_acosl(__x); }
  93:/Library/DaisyToolchain/0.2.0/arm/arm-none-eabi/include/c++/10.3.1/cmath **** #endif
  94:/Library/DaisyToolchain/0.2.0/arm/arm-none-eabi/include/c++/10.3.1/cmath **** 
  95:/Library/DaisyToolchain/0.2.0/arm/arm-none-eabi/include/c++/10.3.1/cmath ****   template<typename _Tp>
  96:/Library/DaisyToolchain/0.2.0/arm/arm-none-eabi/include/c++/10.3.1/cmath ****     inline _GLIBCXX_CONSTEXPR
  97:/Library/DaisyToolchain/0.2.0/arm/arm-none-eabi/include/c++/10.3.1/cmath ****     typename __gnu_cxx::__enable_if<__is_integer<_Tp>::__value, 
  98:/Library/DaisyToolchain/0.2.0/arm/arm-none-eabi/include/c++/10.3.1/cmath ****                                     double>::__type
  99:/Library/DaisyToolchain/0.2.0/arm/arm-none-eabi/include/c++/10.3.1/cmath ****     acos(_Tp __x)
 100:/Library/DaisyToolchain/0.2.0/arm/arm-none-eabi/include/c++/10.3.1/cmath ****     { return __builtin_acos(__x); }
 101:/Library/DaisyToolchain/0.2.0/arm/arm-none-eabi/include/c++/10.3.1/cmath **** 
 102:/Library/DaisyToolchain/0.2.0/arm/arm-none-eabi/include/c++/10.3.1/cmath ****   using ::asin;
 103:/Library/DaisyToolchain/0.2.0/arm/arm-none-eabi/include/c++/10.3.1/cmath **** 
 104:/Library/DaisyToolchain/0.2.0/arm/arm-none-eabi/include/c++/10.3.1/cmath **** #ifndef __CORRECT_ISO_CPP_MATH_H_PROTO
 105:/Library/DaisyToolchain/0.2.0/arm/arm-none-eabi/include/c++/10.3.1/cmath ****   inline _GLIBCXX_CONSTEXPR float
 106:/Library/DaisyToolchain/0.2.0/arm/arm-none-eabi/include/c++/10.3.1/cmath ****   asin(float __x)
 107:/Library/DaisyToolchain/0.2.0/arm/arm-none-eabi/include/c++/10.3.1/cmath ****   { return __builtin_asinf(__x); }
 108:/Library/DaisyToolchain/0.2.0/arm/arm-none-eabi/include/c++/10.3.1/cmath **** 
 109:/Library/DaisyToolchain/0.2.0/arm/arm-none-eabi/include/c++/10.3.1/cmath ****   inline _GLIBCXX_CONSTEXPR long double
 110:/Library/DaisyToolchain/0.2.0/arm/arm-none-eabi/include/c++/10.3.1/cmath ****   asin(long double __x)
 111:/Library/DaisyToolchain/0.2.0/arm/arm-none-eabi/include/c++/10.3.1/cmath ****   { return __builtin_asinl(__x); }
 112:/Library/DaisyToolchain/0.2.0/arm/arm-none-eabi/include/c++/10.3.1/cmath **** #endif
 113:/Library/DaisyToolchain/0.2.0/arm/arm-none-eabi/include/c++/10.3.1/cmath **** 
 114:/Library/DaisyToolchain/0.2.0/arm/arm-none-eabi/include/c++/10.3.1/cmath ****   template<typename _Tp>
 115:/Library/DaisyToolchain/0.2.0/arm/arm-none-eabi/include/c++/10.3.1/cmath ****     inline _GLIBCXX_CONSTEXPR
 116:/Library/DaisyToolchain/0.2.0/arm/arm-none-eabi/include/c++/10.3.1/cmath ****     typename __gnu_cxx::__enable_if<__is_integer<_Tp>::__value,
 117:/Library/DaisyToolchain/0.2.0/arm/arm-none-eabi/include/c++/10.3.1/cmath ****                                     double>::__type
 118:/Library/DaisyToolchain/0.2.0/arm/arm-none-eabi/include/c++/10.3.1/cmath ****     asin(_Tp __x)
 119:/Library/DaisyToolchain/0.2.0/arm/arm-none-eabi/include/c++/10.3.1/cmath ****     { return __builtin_asin(__x); }
 120:/Library/DaisyToolchain/0.2.0/arm/arm-none-eabi/include/c++/10.3.1/cmath **** 
 121:/Library/DaisyToolchain/0.2.0/arm/arm-none-eabi/include/c++/10.3.1/cmath ****   using ::atan;
 122:/Library/DaisyToolchain/0.2.0/arm/arm-none-eabi/include/c++/10.3.1/cmath **** 
 123:/Library/DaisyToolchain/0.2.0/arm/arm-none-eabi/include/c++/10.3.1/cmath **** #ifndef __CORRECT_ISO_CPP_MATH_H_PROTO
 124:/Library/DaisyToolchain/0.2.0/arm/arm-none-eabi/include/c++/10.3.1/cmath ****   inline _GLIBCXX_CONSTEXPR float
ARM GAS  /var/folders/2p/02m_5p7958535cp2tpgps0400000gn/T//ccAOujCh.s 			page 96


 125:/Library/DaisyToolchain/0.2.0/arm/arm-none-eabi/include/c++/10.3.1/cmath ****   atan(float __x)
 126:/Library/DaisyToolchain/0.2.0/arm/arm-none-eabi/include/c++/10.3.1/cmath ****   { return __builtin_atanf(__x); }
 127:/Library/DaisyToolchain/0.2.0/arm/arm-none-eabi/include/c++/10.3.1/cmath **** 
 128:/Library/DaisyToolchain/0.2.0/arm/arm-none-eabi/include/c++/10.3.1/cmath ****   inline _GLIBCXX_CONSTEXPR long double
 129:/Library/DaisyToolchain/0.2.0/arm/arm-none-eabi/include/c++/10.3.1/cmath ****   atan(long double __x)
 130:/Library/DaisyToolchain/0.2.0/arm/arm-none-eabi/include/c++/10.3.1/cmath ****   { return __builtin_atanl(__x); }
 131:/Library/DaisyToolchain/0.2.0/arm/arm-none-eabi/include/c++/10.3.1/cmath **** #endif
 132:/Library/DaisyToolchain/0.2.0/arm/arm-none-eabi/include/c++/10.3.1/cmath **** 
 133:/Library/DaisyToolchain/0.2.0/arm/arm-none-eabi/include/c++/10.3.1/cmath ****   template<typename _Tp>
 134:/Library/DaisyToolchain/0.2.0/arm/arm-none-eabi/include/c++/10.3.1/cmath ****     inline _GLIBCXX_CONSTEXPR
 135:/Library/DaisyToolchain/0.2.0/arm/arm-none-eabi/include/c++/10.3.1/cmath ****     typename __gnu_cxx::__enable_if<__is_integer<_Tp>::__value,
 136:/Library/DaisyToolchain/0.2.0/arm/arm-none-eabi/include/c++/10.3.1/cmath ****                                     double>::__type
 137:/Library/DaisyToolchain/0.2.0/arm/arm-none-eabi/include/c++/10.3.1/cmath ****     atan(_Tp __x)
 138:/Library/DaisyToolchain/0.2.0/arm/arm-none-eabi/include/c++/10.3.1/cmath ****     { return __builtin_atan(__x); }
 139:/Library/DaisyToolchain/0.2.0/arm/arm-none-eabi/include/c++/10.3.1/cmath **** 
 140:/Library/DaisyToolchain/0.2.0/arm/arm-none-eabi/include/c++/10.3.1/cmath ****   using ::atan2;
 141:/Library/DaisyToolchain/0.2.0/arm/arm-none-eabi/include/c++/10.3.1/cmath **** 
 142:/Library/DaisyToolchain/0.2.0/arm/arm-none-eabi/include/c++/10.3.1/cmath **** #ifndef __CORRECT_ISO_CPP_MATH_H_PROTO
 143:/Library/DaisyToolchain/0.2.0/arm/arm-none-eabi/include/c++/10.3.1/cmath ****   inline _GLIBCXX_CONSTEXPR float
 144:/Library/DaisyToolchain/0.2.0/arm/arm-none-eabi/include/c++/10.3.1/cmath ****   atan2(float __y, float __x)
 145:/Library/DaisyToolchain/0.2.0/arm/arm-none-eabi/include/c++/10.3.1/cmath ****   { return __builtin_atan2f(__y, __x); }
 146:/Library/DaisyToolchain/0.2.0/arm/arm-none-eabi/include/c++/10.3.1/cmath **** 
 147:/Library/DaisyToolchain/0.2.0/arm/arm-none-eabi/include/c++/10.3.1/cmath ****   inline _GLIBCXX_CONSTEXPR long double
 148:/Library/DaisyToolchain/0.2.0/arm/arm-none-eabi/include/c++/10.3.1/cmath ****   atan2(long double __y, long double __x)
 149:/Library/DaisyToolchain/0.2.0/arm/arm-none-eabi/include/c++/10.3.1/cmath ****   { return __builtin_atan2l(__y, __x); }
 150:/Library/DaisyToolchain/0.2.0/arm/arm-none-eabi/include/c++/10.3.1/cmath **** #endif
 151:/Library/DaisyToolchain/0.2.0/arm/arm-none-eabi/include/c++/10.3.1/cmath **** 
 152:/Library/DaisyToolchain/0.2.0/arm/arm-none-eabi/include/c++/10.3.1/cmath ****   template<typename _Tp, typename _Up>
 153:/Library/DaisyToolchain/0.2.0/arm/arm-none-eabi/include/c++/10.3.1/cmath ****     inline _GLIBCXX_CONSTEXPR
 154:/Library/DaisyToolchain/0.2.0/arm/arm-none-eabi/include/c++/10.3.1/cmath ****     typename __gnu_cxx::__promote_2<_Tp, _Up>::__type
 155:/Library/DaisyToolchain/0.2.0/arm/arm-none-eabi/include/c++/10.3.1/cmath ****     atan2(_Tp __y, _Up __x)
 156:/Library/DaisyToolchain/0.2.0/arm/arm-none-eabi/include/c++/10.3.1/cmath ****     {
 157:/Library/DaisyToolchain/0.2.0/arm/arm-none-eabi/include/c++/10.3.1/cmath ****       typedef typename __gnu_cxx::__promote_2<_Tp, _Up>::__type __type;
 158:/Library/DaisyToolchain/0.2.0/arm/arm-none-eabi/include/c++/10.3.1/cmath ****       return atan2(__type(__y), __type(__x));
 159:/Library/DaisyToolchain/0.2.0/arm/arm-none-eabi/include/c++/10.3.1/cmath ****     }
 160:/Library/DaisyToolchain/0.2.0/arm/arm-none-eabi/include/c++/10.3.1/cmath **** 
 161:/Library/DaisyToolchain/0.2.0/arm/arm-none-eabi/include/c++/10.3.1/cmath ****   using ::ceil;
 162:/Library/DaisyToolchain/0.2.0/arm/arm-none-eabi/include/c++/10.3.1/cmath **** 
 163:/Library/DaisyToolchain/0.2.0/arm/arm-none-eabi/include/c++/10.3.1/cmath **** #ifndef __CORRECT_ISO_CPP_MATH_H_PROTO
 164:/Library/DaisyToolchain/0.2.0/arm/arm-none-eabi/include/c++/10.3.1/cmath ****   inline _GLIBCXX_CONSTEXPR float
 165:/Library/DaisyToolchain/0.2.0/arm/arm-none-eabi/include/c++/10.3.1/cmath ****   ceil(float __x)
 166:/Library/DaisyToolchain/0.2.0/arm/arm-none-eabi/include/c++/10.3.1/cmath ****   { return __builtin_ceilf(__x); }
 167:/Library/DaisyToolchain/0.2.0/arm/arm-none-eabi/include/c++/10.3.1/cmath **** 
 168:/Library/DaisyToolchain/0.2.0/arm/arm-none-eabi/include/c++/10.3.1/cmath ****   inline _GLIBCXX_CONSTEXPR long double
 169:/Library/DaisyToolchain/0.2.0/arm/arm-none-eabi/include/c++/10.3.1/cmath ****   ceil(long double __x)
 170:/Library/DaisyToolchain/0.2.0/arm/arm-none-eabi/include/c++/10.3.1/cmath ****   { return __builtin_ceill(__x); }
 171:/Library/DaisyToolchain/0.2.0/arm/arm-none-eabi/include/c++/10.3.1/cmath **** #endif
 172:/Library/DaisyToolchain/0.2.0/arm/arm-none-eabi/include/c++/10.3.1/cmath **** 
 173:/Library/DaisyToolchain/0.2.0/arm/arm-none-eabi/include/c++/10.3.1/cmath ****   template<typename _Tp>
 174:/Library/DaisyToolchain/0.2.0/arm/arm-none-eabi/include/c++/10.3.1/cmath ****     inline _GLIBCXX_CONSTEXPR
 175:/Library/DaisyToolchain/0.2.0/arm/arm-none-eabi/include/c++/10.3.1/cmath ****     typename __gnu_cxx::__enable_if<__is_integer<_Tp>::__value, 
 176:/Library/DaisyToolchain/0.2.0/arm/arm-none-eabi/include/c++/10.3.1/cmath ****                                     double>::__type
 177:/Library/DaisyToolchain/0.2.0/arm/arm-none-eabi/include/c++/10.3.1/cmath ****     ceil(_Tp __x)
 178:/Library/DaisyToolchain/0.2.0/arm/arm-none-eabi/include/c++/10.3.1/cmath ****     { return __builtin_ceil(__x); }
 179:/Library/DaisyToolchain/0.2.0/arm/arm-none-eabi/include/c++/10.3.1/cmath **** 
 180:/Library/DaisyToolchain/0.2.0/arm/arm-none-eabi/include/c++/10.3.1/cmath ****   using ::cos;
 181:/Library/DaisyToolchain/0.2.0/arm/arm-none-eabi/include/c++/10.3.1/cmath **** 
ARM GAS  /var/folders/2p/02m_5p7958535cp2tpgps0400000gn/T//ccAOujCh.s 			page 97


 182:/Library/DaisyToolchain/0.2.0/arm/arm-none-eabi/include/c++/10.3.1/cmath **** #ifndef __CORRECT_ISO_CPP_MATH_H_PROTO
 183:/Library/DaisyToolchain/0.2.0/arm/arm-none-eabi/include/c++/10.3.1/cmath ****   inline _GLIBCXX_CONSTEXPR float
 184:/Library/DaisyToolchain/0.2.0/arm/arm-none-eabi/include/c++/10.3.1/cmath ****   cos(float __x)
 185:/Library/DaisyToolchain/0.2.0/arm/arm-none-eabi/include/c++/10.3.1/cmath ****   { return __builtin_cosf(__x); }
 186:/Library/DaisyToolchain/0.2.0/arm/arm-none-eabi/include/c++/10.3.1/cmath **** 
 187:/Library/DaisyToolchain/0.2.0/arm/arm-none-eabi/include/c++/10.3.1/cmath ****   inline _GLIBCXX_CONSTEXPR long double
 188:/Library/DaisyToolchain/0.2.0/arm/arm-none-eabi/include/c++/10.3.1/cmath ****   cos(long double __x)
 189:/Library/DaisyToolchain/0.2.0/arm/arm-none-eabi/include/c++/10.3.1/cmath ****   { return __builtin_cosl(__x); }
 190:/Library/DaisyToolchain/0.2.0/arm/arm-none-eabi/include/c++/10.3.1/cmath **** #endif
 191:/Library/DaisyToolchain/0.2.0/arm/arm-none-eabi/include/c++/10.3.1/cmath **** 
 192:/Library/DaisyToolchain/0.2.0/arm/arm-none-eabi/include/c++/10.3.1/cmath ****   template<typename _Tp>
 193:/Library/DaisyToolchain/0.2.0/arm/arm-none-eabi/include/c++/10.3.1/cmath ****     inline _GLIBCXX_CONSTEXPR
 194:/Library/DaisyToolchain/0.2.0/arm/arm-none-eabi/include/c++/10.3.1/cmath ****     typename __gnu_cxx::__enable_if<__is_integer<_Tp>::__value,
 195:/Library/DaisyToolchain/0.2.0/arm/arm-none-eabi/include/c++/10.3.1/cmath ****                                     double>::__type
 196:/Library/DaisyToolchain/0.2.0/arm/arm-none-eabi/include/c++/10.3.1/cmath ****     cos(_Tp __x)
 197:/Library/DaisyToolchain/0.2.0/arm/arm-none-eabi/include/c++/10.3.1/cmath ****     { return __builtin_cos(__x); }
 198:/Library/DaisyToolchain/0.2.0/arm/arm-none-eabi/include/c++/10.3.1/cmath **** 
 199:/Library/DaisyToolchain/0.2.0/arm/arm-none-eabi/include/c++/10.3.1/cmath ****   using ::cosh;
 200:/Library/DaisyToolchain/0.2.0/arm/arm-none-eabi/include/c++/10.3.1/cmath **** 
 201:/Library/DaisyToolchain/0.2.0/arm/arm-none-eabi/include/c++/10.3.1/cmath **** #ifndef __CORRECT_ISO_CPP_MATH_H_PROTO
 202:/Library/DaisyToolchain/0.2.0/arm/arm-none-eabi/include/c++/10.3.1/cmath ****   inline _GLIBCXX_CONSTEXPR float
 203:/Library/DaisyToolchain/0.2.0/arm/arm-none-eabi/include/c++/10.3.1/cmath ****   cosh(float __x)
 204:/Library/DaisyToolchain/0.2.0/arm/arm-none-eabi/include/c++/10.3.1/cmath ****   { return __builtin_coshf(__x); }
 205:/Library/DaisyToolchain/0.2.0/arm/arm-none-eabi/include/c++/10.3.1/cmath **** 
 206:/Library/DaisyToolchain/0.2.0/arm/arm-none-eabi/include/c++/10.3.1/cmath ****   inline _GLIBCXX_CONSTEXPR long double
 207:/Library/DaisyToolchain/0.2.0/arm/arm-none-eabi/include/c++/10.3.1/cmath ****   cosh(long double __x)
 208:/Library/DaisyToolchain/0.2.0/arm/arm-none-eabi/include/c++/10.3.1/cmath ****   { return __builtin_coshl(__x); }
 209:/Library/DaisyToolchain/0.2.0/arm/arm-none-eabi/include/c++/10.3.1/cmath **** #endif
 210:/Library/DaisyToolchain/0.2.0/arm/arm-none-eabi/include/c++/10.3.1/cmath **** 
 211:/Library/DaisyToolchain/0.2.0/arm/arm-none-eabi/include/c++/10.3.1/cmath ****   template<typename _Tp>
 212:/Library/DaisyToolchain/0.2.0/arm/arm-none-eabi/include/c++/10.3.1/cmath ****     inline _GLIBCXX_CONSTEXPR
 213:/Library/DaisyToolchain/0.2.0/arm/arm-none-eabi/include/c++/10.3.1/cmath ****     typename __gnu_cxx::__enable_if<__is_integer<_Tp>::__value,
 214:/Library/DaisyToolchain/0.2.0/arm/arm-none-eabi/include/c++/10.3.1/cmath ****                                     double>::__type
 215:/Library/DaisyToolchain/0.2.0/arm/arm-none-eabi/include/c++/10.3.1/cmath ****     cosh(_Tp __x)
 216:/Library/DaisyToolchain/0.2.0/arm/arm-none-eabi/include/c++/10.3.1/cmath ****     { return __builtin_cosh(__x); }
 217:/Library/DaisyToolchain/0.2.0/arm/arm-none-eabi/include/c++/10.3.1/cmath **** 
 218:/Library/DaisyToolchain/0.2.0/arm/arm-none-eabi/include/c++/10.3.1/cmath ****   using ::exp;
 219:/Library/DaisyToolchain/0.2.0/arm/arm-none-eabi/include/c++/10.3.1/cmath **** 
 220:/Library/DaisyToolchain/0.2.0/arm/arm-none-eabi/include/c++/10.3.1/cmath **** #ifndef __CORRECT_ISO_CPP_MATH_H_PROTO
 221:/Library/DaisyToolchain/0.2.0/arm/arm-none-eabi/include/c++/10.3.1/cmath ****   inline _GLIBCXX_CONSTEXPR float
 222:/Library/DaisyToolchain/0.2.0/arm/arm-none-eabi/include/c++/10.3.1/cmath ****   exp(float __x)
 223:/Library/DaisyToolchain/0.2.0/arm/arm-none-eabi/include/c++/10.3.1/cmath ****   { return __builtin_expf(__x); }
 224:/Library/DaisyToolchain/0.2.0/arm/arm-none-eabi/include/c++/10.3.1/cmath **** 
 225:/Library/DaisyToolchain/0.2.0/arm/arm-none-eabi/include/c++/10.3.1/cmath ****   inline _GLIBCXX_CONSTEXPR long double
 226:/Library/DaisyToolchain/0.2.0/arm/arm-none-eabi/include/c++/10.3.1/cmath ****   exp(long double __x)
 227:/Library/DaisyToolchain/0.2.0/arm/arm-none-eabi/include/c++/10.3.1/cmath ****   { return __builtin_expl(__x); }
 228:/Library/DaisyToolchain/0.2.0/arm/arm-none-eabi/include/c++/10.3.1/cmath **** #endif
 229:/Library/DaisyToolchain/0.2.0/arm/arm-none-eabi/include/c++/10.3.1/cmath **** 
 230:/Library/DaisyToolchain/0.2.0/arm/arm-none-eabi/include/c++/10.3.1/cmath ****   template<typename _Tp>
 231:/Library/DaisyToolchain/0.2.0/arm/arm-none-eabi/include/c++/10.3.1/cmath ****     inline _GLIBCXX_CONSTEXPR
 232:/Library/DaisyToolchain/0.2.0/arm/arm-none-eabi/include/c++/10.3.1/cmath ****     typename __gnu_cxx::__enable_if<__is_integer<_Tp>::__value,
 233:/Library/DaisyToolchain/0.2.0/arm/arm-none-eabi/include/c++/10.3.1/cmath ****                                     double>::__type
 234:/Library/DaisyToolchain/0.2.0/arm/arm-none-eabi/include/c++/10.3.1/cmath ****     exp(_Tp __x)
 235:/Library/DaisyToolchain/0.2.0/arm/arm-none-eabi/include/c++/10.3.1/cmath ****     { return __builtin_exp(__x); }
 236:/Library/DaisyToolchain/0.2.0/arm/arm-none-eabi/include/c++/10.3.1/cmath **** 
 237:/Library/DaisyToolchain/0.2.0/arm/arm-none-eabi/include/c++/10.3.1/cmath ****   using ::fabs;
 238:/Library/DaisyToolchain/0.2.0/arm/arm-none-eabi/include/c++/10.3.1/cmath **** 
ARM GAS  /var/folders/2p/02m_5p7958535cp2tpgps0400000gn/T//ccAOujCh.s 			page 98


 239:/Library/DaisyToolchain/0.2.0/arm/arm-none-eabi/include/c++/10.3.1/cmath **** #ifndef __CORRECT_ISO_CPP_MATH_H_PROTO
 240:/Library/DaisyToolchain/0.2.0/arm/arm-none-eabi/include/c++/10.3.1/cmath ****   inline _GLIBCXX_CONSTEXPR float
 241:/Library/DaisyToolchain/0.2.0/arm/arm-none-eabi/include/c++/10.3.1/cmath ****   fabs(float __x)
 3213              		.loc 13 241 3 view .LVU869
 3214              	.LBB565:
 242:/Library/DaisyToolchain/0.2.0/arm/arm-none-eabi/include/c++/10.3.1/cmath ****   { return __builtin_fabsf(__x); }
 3215              		.loc 13 242 5 view .LVU870
 3216              		.loc 13 242 5 is_stmt 0 view .LVU871
 3217              	.LBE565:
 3218              	.LBE564:
 3219              	.LBE563:
 3220              	.LBE562:
 358:GrannyChordApp.cpp ****     UpdateKnob1Params(knob1_val,curr_synth_mode_);
 3221              		.loc 3 358 25 view .LVU872
 3222 0086 04EB8603 		add	r3, r4, r6, lsl #2
 3223              	.LBB569:
 3224              	.LBB568:
 3225              		.loc 3 710 13 view .LVU873
 3226 008a 93ED007A 		vldr.32	s14, [r3]
 3227 008e 38EEC77A 		vsub.f32	s14, s17, s14
 3228              		.loc 3 710 5 view .LVU874
 3229 0092 9FED376B 		vldr.64	d6, .L140
 3230              	.LBB567:
 3231              	.LBB566:
 3232              		.loc 13 242 31 view .LVU875
 3233 0096 B0EEC77A 		vabs.f32	s14, s14
 3234              	.LBE566:
 3235              	.LBE567:
 3236              		.loc 3 710 13 view .LVU876
 3237 009a B7EEC77A 		vcvt.f64.f32	d7, s14
 3238              		.loc 3 710 5 view .LVU877
 3239 009e B4EEC67B 		vcmpe.f64	d7, d6
 3240 00a2 F1EE10FA 		vmrs	APSR_nzcv, FPSCR
 3241 00a6 1DD5     		bpl	.L124
 711:GrannyChordApp.cpp ****       (*knob_latched) = false;
 3242              		.loc 3 711 7 is_stmt 1 view .LVU878
 3243              		.loc 3 711 23 is_stmt 0 view .LVU879
 3244 00a8 0023     		movs	r3, #0
 3245 00aa 84F88832 		strb	r3, [r4, #648]
 712:GrannyChordApp.cpp ****       return true;
 3246              		.loc 3 712 7 is_stmt 1 view .LVU880
 3247              	.LVL239:
 3248              	.L122:
 3249              		.loc 3 712 7 is_stmt 0 view .LVU881
 3250              	.LBE568:
 3251              	.LBE569:
 359:GrannyChordApp.cpp ****     prev_param_k1[mode_idx] = knob1_val;
 3252              		.loc 3 359 5 is_stmt 1 view .LVU882
 359:GrannyChordApp.cpp ****     prev_param_k1[mode_idx] = knob1_val;
 3253              		.loc 3 359 22 is_stmt 0 view .LVU883
 3254 00ae B0EE680A 		vmov.f32	s0, s17
 3255 00b2 D4F88012 		ldr	r1, [r4, #640]
 3256 00b6 2046     		mov	r0, r4
 360:GrannyChordApp.cpp ****     if (counter%96000==0){
 3257              		.loc 3 360 29 view .LVU884
 3258 00b8 04EB8606 		add	r6, r4, r6, lsl #2
 359:GrannyChordApp.cpp ****     prev_param_k1[mode_idx] = knob1_val;
ARM GAS  /var/folders/2p/02m_5p7958535cp2tpgps0400000gn/T//ccAOujCh.s 			page 99


 3259              		.loc 3 359 22 view .LVU885
 3260 00bc FFF7FEFF 		bl	_ZN14GrannyChordApp17UpdateKnob1ParamsEf9SynthMode
 3261              	.LVL240:
 360:GrannyChordApp.cpp ****     if (counter%96000==0){
 3262              		.loc 3 360 5 is_stmt 1 view .LVU886
 360:GrannyChordApp.cpp ****     if (counter%96000==0){
 3263              		.loc 3 360 29 is_stmt 0 view .LVU887
 3264 00c0 2F4A     		ldr	r2, .L140+16
 3265 00c2 D7F83032 		ldr	r3, [r7, #560]
 3266 00c6 C6ED008A 		vstr.32	s17, [r6]
 361:GrannyChordApp.cpp ****       DebugPrint(pod_, "new k1v: %f",knob1_val);
 3267              		.loc 3 361 5 is_stmt 1 view .LVU888
 360:GrannyChordApp.cpp ****     if (counter%96000==0){
 3268              		.loc 3 360 29 is_stmt 0 view .LVU889
 3269 00ca 5343     		muls	r3, r2, r3
 361:GrannyChordApp.cpp ****       DebugPrint(pod_, "new k1v: %f",knob1_val);
 3270              		.loc 3 361 5 view .LVU890
 3271 00cc 4AF6C362 		movw	r2, #44739
 3272 00d0 B2EB332F 		cmp	r2, r3, ror #8
 3273 00d4 06D3     		bcc	.L124
 362:GrannyChordApp.cpp ****     }
 3274              		.loc 3 362 7 is_stmt 1 view .LVU891
 362:GrannyChordApp.cpp ****     }
 3275              		.loc 3 362 7 view .LVU892
 3276              	.LVL241:
 3277              	.LBB570:
 3278              	.LBI570:
 126:../libDaisy/src/daisy_seed.h ****     {
 3279              		.loc 5 126 17 view .LVU893
 3280              	.LBB571:
 3281              		.loc 5 128 23 is_stmt 0 view .LVU894
 3282 00d6 B7EEE87A 		vcvt.f64.f32	d7, s17
 3283 00da 2A48     		ldr	r0, .L140+20
 3284 00dc 53EC172B 		vmov	r2, r3, d7
 3285 00e0 FFF7FEFF 		bl	_ZN5daisy6LoggerILNS_17LoggerDestinationE1EE9PrintLineEPKcz
 3286              	.LVL242:
 3287              	.L124:
 3288              		.loc 5 128 23 view .LVU895
 3289              	.LBE571:
 3290              	.LBE570:
 366:GrannyChordApp.cpp ****     UpdateKnob2Params(knob2_val, curr_synth_mode_);
 3291              		.loc 3 366 3 is_stmt 1 view .LVU896
 3292              	.LBB572:
 3293              	.LBI572:
 708:GrannyChordApp.cpp ****   if ((*knob_latched)){
 3294              		.loc 3 708 13 view .LVU897
 3295              	.LBB573:
 709:GrannyChordApp.cpp ****     if (fabs(curr_knob_val - prev_param)<0.0001){
 3296              		.loc 3 709 3 view .LVU898
 3297 00e4 05F59E55 		add	r5, r5, #5056
 3298              	.LVL243:
 709:GrannyChordApp.cpp ****     if (fabs(curr_knob_val - prev_param)<0.0001){
 3299              		.loc 3 709 3 is_stmt 0 view .LVU899
 3300 00e8 94F88932 		ldrb	r3, [r4, #649]	@ zero_extendqisi2
 3301 00ec 1435     		adds	r5, r5, #20
 3302              	.LVL244:
 709:GrannyChordApp.cpp ****     if (fabs(curr_knob_val - prev_param)<0.0001){
ARM GAS  /var/folders/2p/02m_5p7958535cp2tpgps0400000gn/T//ccAOujCh.s 			page 100


 3303              		.loc 3 709 3 view .LVU900
 3304 00ee 9BB1     		cbz	r3, .L126
 710:GrannyChordApp.cpp ****       (*knob_latched) = false;
 3305              		.loc 3 710 5 is_stmt 1 view .LVU901
 3306              	.LVL245:
 3307              	.LBB574:
 3308              	.LBI574:
 241:/Library/DaisyToolchain/0.2.0/arm/arm-none-eabi/include/c++/10.3.1/cmath ****   { return __builtin_fabsf(__x); }
 3309              		.loc 13 241 3 view .LVU902
 3310              	.LBB575:
 3311              		.loc 13 242 5 view .LVU903
 3312              		.loc 13 242 5 is_stmt 0 view .LVU904
 3313              	.LBE575:
 3314              	.LBE574:
 3315              	.LBE573:
 3316              	.LBE572:
 366:GrannyChordApp.cpp ****     UpdateKnob2Params(knob2_val, curr_synth_mode_);
 3317              		.loc 3 366 25 view .LVU905
 3318 00f0 04EB8503 		add	r3, r4, r5, lsl #2
 3319              	.LBB579:
 3320              	.LBB578:
 710:GrannyChordApp.cpp ****       (*knob_latched) = false;
 3321              		.loc 3 710 13 view .LVU906
 3322 00f4 93ED007A 		vldr.32	s14, [r3]
 3323 00f8 38EE477A 		vsub.f32	s14, s16, s14
 710:GrannyChordApp.cpp ****       (*knob_latched) = false;
 3324              		.loc 3 710 5 view .LVU907
 3325 00fc 9FED1C6B 		vldr.64	d6, .L140
 3326              	.LBB577:
 3327              	.LBB576:
 3328              		.loc 13 242 31 view .LVU908
 3329 0100 B0EEC77A 		vabs.f32	s14, s14
 3330              	.LBE576:
 3331              	.LBE577:
 710:GrannyChordApp.cpp ****       (*knob_latched) = false;
 3332              		.loc 3 710 13 view .LVU909
 3333 0104 B7EEC77A 		vcvt.f64.f32	d7, s14
 710:GrannyChordApp.cpp ****       (*knob_latched) = false;
 3334              		.loc 3 710 5 view .LVU910
 3335 0108 B4EEC67B 		vcmpe.f64	d7, d6
 3336 010c F1EE10FA 		vmrs	APSR_nzcv, FPSCR
 3337 0110 27D5     		bpl	.L115
 711:GrannyChordApp.cpp ****       return true;
 3338              		.loc 3 711 7 is_stmt 1 view .LVU911
 711:GrannyChordApp.cpp ****       return true;
 3339              		.loc 3 711 23 is_stmt 0 view .LVU912
 3340 0112 0023     		movs	r3, #0
 3341 0114 84F88932 		strb	r3, [r4, #649]
 3342              		.loc 3 712 7 is_stmt 1 view .LVU913
 3343              	.LVL246:
 3344              	.L126:
 3345              		.loc 3 712 7 is_stmt 0 view .LVU914
 3346              	.LBE578:
 3347              	.LBE579:
 367:GrannyChordApp.cpp ****     prev_param_k2[mode_idx] = knob2_val;
 3348              		.loc 3 367 5 is_stmt 1 view .LVU915
 367:GrannyChordApp.cpp ****     prev_param_k2[mode_idx] = knob2_val;
ARM GAS  /var/folders/2p/02m_5p7958535cp2tpgps0400000gn/T//ccAOujCh.s 			page 101


 3349              		.loc 3 367 22 is_stmt 0 view .LVU916
 3350 0118 D4F88012 		ldr	r1, [r4, #640]
 3351 011c 2046     		mov	r0, r4
 3352 011e B0EE480A 		vmov.f32	s0, s16
 368:GrannyChordApp.cpp ****     if (counter%96000==0){
 3353              		.loc 3 368 29 view .LVU917
 3354 0122 04EB8504 		add	r4, r4, r5, lsl #2
 3355              	.LVL247:
 367:GrannyChordApp.cpp ****     prev_param_k2[mode_idx] = knob2_val;
 3356              		.loc 3 367 22 view .LVU918
 3357 0126 FFF7FEFF 		bl	_ZN14GrannyChordApp17UpdateKnob2ParamsEf9SynthMode
 3358              	.LVL248:
 368:GrannyChordApp.cpp ****     if (counter%96000==0){
 3359              		.loc 3 368 5 is_stmt 1 view .LVU919
 368:GrannyChordApp.cpp ****     if (counter%96000==0){
 3360              		.loc 3 368 29 is_stmt 0 view .LVU920
 3361 012a 154A     		ldr	r2, .L140+16
 3362 012c D7F83032 		ldr	r3, [r7, #560]
 3363 0130 84ED008A 		vstr.32	s16, [r4]
 369:GrannyChordApp.cpp ****       DebugPrint(pod_, "new k2v: %f",knob2_val);
 3364              		.loc 3 369 5 is_stmt 1 view .LVU921
 368:GrannyChordApp.cpp ****     if (counter%96000==0){
 3365              		.loc 3 368 29 is_stmt 0 view .LVU922
 3366 0134 5343     		muls	r3, r2, r3
 369:GrannyChordApp.cpp ****       DebugPrint(pod_, "new k2v: %f",knob2_val);
 3367              		.loc 3 369 5 view .LVU923
 3368 0136 4AF6C362 		movw	r2, #44739
 3369 013a B2EB332F 		cmp	r2, r3, ror #8
 3370 013e 10D3     		bcc	.L115
 370:GrannyChordApp.cpp ****     }
 3371              		.loc 3 370 7 is_stmt 1 view .LVU924
 370:GrannyChordApp.cpp ****     }
 3372              		.loc 3 370 7 view .LVU925
 3373              	.LVL249:
 3374              	.LBB580:
 3375              	.LBI580:
 126:../libDaisy/src/daisy_seed.h ****     {
 3376              		.loc 5 126 17 view .LVU926
 3377              	.LBB581:
 3378              		.loc 5 128 23 is_stmt 0 view .LVU927
 3379 0140 B7EEC87A 		vcvt.f64.f32	d7, s16
 3380 0144 1048     		ldr	r0, .L140+24
 3381              	.LBE581:
 3382              	.LBE580:
 3383              	.LBE553:
 3384              	.LBE552:
 373:GrannyChordApp.cpp **** 
 3385              		.loc 3 373 1 view .LVU928
 3386 0146 BDEC048B 		vldm	sp!, {d8-d9}
 3387              		.cfi_remember_state
 3388              		.cfi_restore 82
 3389              		.cfi_restore 83
 3390              		.cfi_restore 80
 3391              		.cfi_restore 81
 3392              		.cfi_def_cfa_offset 24
 3393              	.LVL250:
 3394              	.LBB590:
ARM GAS  /var/folders/2p/02m_5p7958535cp2tpgps0400000gn/T//ccAOujCh.s 			page 102


 3395              	.LBB588:
 3396              	.LBB584:
 3397              	.LBB582:
 3398              		.loc 5 128 23 view .LVU929
 3399 014a 53EC172B 		vmov	r2, r3, d7
 3400              	.LBE582:
 3401              	.LBE584:
 3402              	.LBE588:
 3403              	.LBE590:
 373:GrannyChordApp.cpp **** 
 3404              		.loc 3 373 1 view .LVU930
 3405 014e BDE8F041 		pop	{r4, r5, r6, r7, r8, lr}
 3406              		.cfi_restore 14
 3407              		.cfi_restore 8
 3408              		.cfi_restore 7
 3409              		.cfi_restore 6
 3410              		.cfi_restore 5
 3411              		.cfi_restore 4
 3412              		.cfi_def_cfa_offset 0
 3413              	.LVL251:
 3414              	.LBB591:
 3415              	.LBB589:
 3416              	.LBB585:
 3417              	.LBB583:
 3418              		.loc 5 128 23 view .LVU931
 3419 0152 FFF7FEBF 		b	_ZN5daisy6LoggerILNS_17LoggerDestinationE1EE9PrintLineEPKcz
 3420              	.LVL252:
 3421              	.L129:
 3422              		.cfi_restore_state
 3423              		.loc 5 128 23 view .LVU932
 3424              	.LBE583:
 3425              	.LBE585:
 3426              	.LBB586:
 3427              	.LBB557:
 703:GrannyChordApp.cpp ****   if (knob_val>=0.99f) return 1.0f;
 3428              		.loc 3 703 31 view .LVU933
 3429 0156 DFED0D8A 		vldr.32	s17, .L140+28
 3430 015a 73E7     		b	.L118
 3431              	.LVL253:
 3432              	.L130:
 703:GrannyChordApp.cpp ****   if (knob_val>=0.99f) return 1.0f;
 3433              		.loc 3 703 31 view .LVU934
 3434              	.LBE557:
 3435              	.LBE586:
 3436              	.LBB587:
 3437              	.LBB561:
 3438 015c 9FED0B8A 		vldr.32	s16, .L140+28
 3439 0160 84E7     		b	.L120
 3440              	.LVL254:
 3441              	.L115:
 703:GrannyChordApp.cpp ****   if (knob_val>=0.99f) return 1.0f;
 3442              		.loc 3 703 31 view .LVU935
 3443              	.LBE561:
 3444              	.LBE587:
 3445              	.LBE589:
 3446              	.LBE591:
 373:GrannyChordApp.cpp **** 
ARM GAS  /var/folders/2p/02m_5p7958535cp2tpgps0400000gn/T//ccAOujCh.s 			page 103


 3447              		.loc 3 373 1 view .LVU936
 3448 0162 BDEC048B 		vldm	sp!, {d8-d9}
 3449              		.cfi_restore 82
 3450              		.cfi_restore 83
 3451              		.cfi_restore 80
 3452              		.cfi_restore 81
 3453              		.cfi_def_cfa_offset 24
 3454 0166 BDE8F081 		pop	{r4, r5, r6, r7, r8, pc}
 3455              	.L141:
 3456 016a 00BFAFF3 		.align	3
 3456      0080
 3457              	.L140:
 3458 0170 2D431CEB 		.word	-350469331
 3459 0174 E2361A3F 		.word	1058682594
 3460 0178 0AD7233C 		.word	1008981770
 3461 017c A4707D3F 		.word	1065185444
 3462 0180 4728A3B7 		.word	-1214044089
 3463 0184 00000000 		.word	.LC12
 3464 0188 0C000000 		.word	.LC13
 3465 018c 00000000 		.word	0
 3466              		.cfi_endproc
 3467              	.LFE4927:
 3469              		.section	.rodata._ZN14GrannyChordApp15DebugPrintStateE8AppState.str1.1,"aMS",%progbits,1
 3470              	.LC14:
 3471 0000 53746174 		.ascii	"State now in: SelectFile\000"
 3471      65206E6F 
 3471      7720696E 
 3471      3A205365 
 3471      6C656374 
 3472              	.LC15:
 3473 0019 53746174 		.ascii	"State now in: RecordIn\000"
 3473      65206E6F 
 3473      7720696E 
 3473      3A205265 
 3473      636F7264 
 3474              	.LC16:
 3475 0030 53746174 		.ascii	"State now in: PlayWAV\000"
 3475      65206E6F 
 3475      7720696E 
 3475      3A20506C 
 3475      61795741 
 3476              	.LC17:
 3477 0046 53746174 		.ascii	"State now in: Synthesis\000"
 3477      65206E6F 
 3477      7720696E 
 3477      3A205379 
 3477      6E746865 
 3478              	.LC18:
 3479 005e 53746174 		.ascii	"State now in: Error\000"
 3479      65206E6F 
 3479      7720696E 
 3479      3A204572 
 3479      726F7200 
 3480              		.section	.text._ZN14GrannyChordApp15DebugPrintStateE8AppState,"ax",%progbits
 3481              		.align	1
 3482              		.global	_ZN14GrannyChordApp15DebugPrintStateE8AppState
 3483              		.syntax unified
ARM GAS  /var/folders/2p/02m_5p7958535cp2tpgps0400000gn/T//ccAOujCh.s 			page 104


 3484              		.thumb
 3485              		.thumb_func
 3487              	_ZN14GrannyChordApp15DebugPrintStateE8AppState:
 3488              	.LVL255:
 3489              	.LFB4947:
 713:GrannyChordApp.cpp ****     }
 714:GrannyChordApp.cpp ****     else return false;
 715:GrannyChordApp.cpp ****   }
 716:GrannyChordApp.cpp ****   else return true;
 717:GrannyChordApp.cpp **** }
 718:GrannyChordApp.cpp **** 
 719:GrannyChordApp.cpp **** 
 720:GrannyChordApp.cpp **** 
 721:GrannyChordApp.cpp **** void GrannyChordApp::DebugPrintState(AppState state){
 3490              		.loc 3 721 53 is_stmt 1 view -0
 3491              		.cfi_startproc
 3492              		@ args = 0, pretend = 0, frame = 0
 3493              		@ frame_needed = 0, uses_anonymous_args = 0
 3494              		@ link register save eliminated.
 722:GrannyChordApp.cpp ****   switch(state){
 3495              		.loc 3 722 3 view .LVU938
 3496 0000 0329     		cmp	r1, #3
 3497 0002 0CD8     		bhi	.L143
 3498 0004 DFE801F0 		tbb	[pc, r1]
 3499              	.L145:
 3500 0008 02       		.byte	(.L148-.L145)/2
 3501 0009 07       		.byte	(.L147-.L145)/2
 3502 000a 09       		.byte	(.L146-.L145)/2
 3503 000b 05       		.byte	(.L144-.L145)/2
 3504              		.p2align 1
 3505              	.L148:
 723:GrannyChordApp.cpp ****     case AppState::SelectFile:
 3506              		.loc 3 723 5 view .LVU939
 724:GrannyChordApp.cpp ****       DebugPrint(pod_, "State now in: SelectFile");
 3507              		.loc 3 724 7 view .LVU940
 3508              		.loc 3 724 7 view .LVU941
 3509              	.LVL256:
 3510              	.LBB592:
 3511              	.LBI592:
 126:../libDaisy/src/daisy_seed.h ****     {
 3512              		.loc 5 126 17 view .LVU942
 3513              	.LBB593:
 3514              		.loc 5 128 23 is_stmt 0 view .LVU943
 3515 000c 0548     		ldr	r0, .L150
 3516              	.LVL257:
 3517              	.L149:
 3518              		.loc 5 128 23 view .LVU944
 3519              	.LBE593:
 3520              	.LBE592:
 3521              	.LBB594:
 3522              	.LBB595:
 3523 000e FFF7FEBF 		b	_ZN5daisy6LoggerILNS_17LoggerDestinationE1EE9PrintLineEPKcz
 3524              	.LVL258:
 3525              	.L144:
 3526              		.loc 5 128 23 view .LVU945
 3527              	.LBE595:
 3528              	.LBE594:
ARM GAS  /var/folders/2p/02m_5p7958535cp2tpgps0400000gn/T//ccAOujCh.s 			page 105


 725:GrannyChordApp.cpp ****       return;
 726:GrannyChordApp.cpp ****     case AppState::RecordIn:
 3529              		.loc 3 726 5 is_stmt 1 view .LVU946
 727:GrannyChordApp.cpp ****       DebugPrint(pod_, "State now in: RecordIn");
 3530              		.loc 3 727 7 view .LVU947
 3531              		.loc 3 727 7 view .LVU948
 3532              	.LBB597:
 3533              	.LBI597:
 126:../libDaisy/src/daisy_seed.h ****     {
 3534              		.loc 5 126 17 view .LVU949
 3535              	.LBB598:
 3536              		.loc 5 128 23 is_stmt 0 view .LVU950
 3537 0012 0548     		ldr	r0, .L150+4
 3538              	.LVL259:
 3539              		.loc 5 128 23 view .LVU951
 3540 0014 FBE7     		b	.L149
 3541              	.LVL260:
 3542              	.L147:
 3543              		.loc 5 128 23 view .LVU952
 3544              	.LBE598:
 3545              	.LBE597:
 728:GrannyChordApp.cpp ****       return;
 729:GrannyChordApp.cpp ****     case AppState::PlayWAV:
 3546              		.loc 3 729 5 is_stmt 1 view .LVU953
 730:GrannyChordApp.cpp ****       DebugPrint(pod_, "State now in: PlayWAV");
 3547              		.loc 3 730 7 view .LVU954
 3548              		.loc 3 730 7 view .LVU955
 3549              	.LBB599:
 3550              	.LBI599:
 126:../libDaisy/src/daisy_seed.h ****     {
 3551              		.loc 5 126 17 view .LVU956
 3552              	.LBB600:
 3553              		.loc 5 128 23 is_stmt 0 view .LVU957
 3554 0016 0548     		ldr	r0, .L150+8
 3555              	.LVL261:
 3556              		.loc 5 128 23 view .LVU958
 3557 0018 F9E7     		b	.L149
 3558              	.LVL262:
 3559              	.L146:
 3560              		.loc 5 128 23 view .LVU959
 3561              	.LBE600:
 3562              	.LBE599:
 731:GrannyChordApp.cpp ****       return;
 732:GrannyChordApp.cpp ****     case AppState::Synthesis:
 3563              		.loc 3 732 5 is_stmt 1 view .LVU960
 733:GrannyChordApp.cpp ****       DebugPrint(pod_, "State now in: Synthesis");
 3564              		.loc 3 733 7 view .LVU961
 3565              		.loc 3 733 7 view .LVU962
 3566              	.LBB601:
 3567              	.LBI601:
 126:../libDaisy/src/daisy_seed.h ****     {
 3568              		.loc 5 126 17 view .LVU963
 3569              	.LBB602:
 3570              		.loc 5 128 23 is_stmt 0 view .LVU964
 3571 001a 0548     		ldr	r0, .L150+12
 3572              	.LVL263:
 3573              		.loc 5 128 23 view .LVU965
ARM GAS  /var/folders/2p/02m_5p7958535cp2tpgps0400000gn/T//ccAOujCh.s 			page 106


 3574 001c F7E7     		b	.L149
 3575              	.LVL264:
 3576              	.L143:
 3577              		.loc 5 128 23 view .LVU966
 3578              	.LBE602:
 3579              	.LBE601:
 734:GrannyChordApp.cpp ****       return;
 735:GrannyChordApp.cpp ****     // case AppState::ChordMode:
 736:GrannyChordApp.cpp ****       DebugPrint(pod_, "State now in: ChordMode");
 737:GrannyChordApp.cpp ****     case AppState::Error:
 3580              		.loc 3 737 5 is_stmt 1 view .LVU967
 738:GrannyChordApp.cpp ****     default:
 3581              		.loc 3 738 5 view .LVU968
 739:GrannyChordApp.cpp ****       DebugPrint(pod_, "State now in: Error");
 3582              		.loc 3 739 7 view .LVU969
 3583              		.loc 3 739 7 view .LVU970
 3584              	.LBB603:
 3585              	.LBI594:
 126:../libDaisy/src/daisy_seed.h ****     {
 3586              		.loc 5 126 17 view .LVU971
 3587              	.LBB596:
 3588              		.loc 5 128 23 is_stmt 0 view .LVU972
 3589 001e 0548     		ldr	r0, .L150+16
 3590              	.LVL265:
 3591              		.loc 5 128 23 view .LVU973
 3592 0020 F5E7     		b	.L149
 3593              	.L151:
 3594 0022 00BF     		.align	2
 3595              	.L150:
 3596 0024 00000000 		.word	.LC14
 3597 0028 19000000 		.word	.LC15
 3598 002c 30000000 		.word	.LC16
 3599 0030 46000000 		.word	.LC17
 3600 0034 5E000000 		.word	.LC18
 3601              	.LBE596:
 3602              	.LBE603:
 3603              		.cfi_endproc
 3604              	.LFE4947:
 3606              		.section	.rodata._ZN14GrannyChordApp14DebugPrintModeE9SynthMode.str1.1,"aMS",%progbits,1
 3607              	.LC19:
 3608 0000 53746174 		.ascii	"State now in: SizePos\000"
 3608      65206E6F 
 3608      7720696E 
 3608      3A205369 
 3608      7A65506F 
 3609              	.LC20:
 3610 0016 53746174 		.ascii	"State now in: SizePosRnd\000"
 3610      65206E6F 
 3610      7720696E 
 3610      3A205369 
 3610      7A65506F 
 3611              	.LC21:
 3612 002f 53746174 		.ascii	"State now in: PitchGrains\000"
 3612      65206E6F 
 3612      7720696E 
 3612      3A205069 
 3612      74636847 
ARM GAS  /var/folders/2p/02m_5p7958535cp2tpgps0400000gn/T//ccAOujCh.s 			page 107


 3613              	.LC22:
 3614 0049 53746174 		.ascii	"State now in: PitchGrainsRnd\000"
 3614      65206E6F 
 3614      7720696E 
 3614      3A205069 
 3614      74636847 
 3615              	.LC23:
 3616 0066 53746174 		.ascii	"State now in: PanDirection\000"
 3616      65206E6F 
 3616      7720696E 
 3616      3A205061 
 3616      6E446972 
 3617              	.LC24:
 3618 0081 53746174 		.ascii	"State now in: Rotator_Chorus\000"
 3618      65206E6F 
 3618      7720696E 
 3618      3A20526F 
 3618      7461746F 
 3619              	.LC25:
 3620 009e 53746174 		.ascii	"State now in: Reverb\000"
 3620      65206E6F 
 3620      7720696E 
 3620      3A205265 
 3620      76657262 
 3621              	.LC26:
 3622 00b3 53746174 		.ascii	"State now in: Filter\000"
 3622      65206E6F 
 3622      7720696E 
 3622      3A204669 
 3622      6C746572 
 3623              		.section	.text._ZN14GrannyChordApp14DebugPrintModeE9SynthMode,"ax",%progbits
 3624              		.align	1
 3625              		.global	_ZN14GrannyChordApp14DebugPrintModeE9SynthMode
 3626              		.syntax unified
 3627              		.thumb
 3628              		.thumb_func
 3630              	_ZN14GrannyChordApp14DebugPrintModeE9SynthMode:
 3631              	.LVL266:
 3632              	.LFB4948:
 740:GrannyChordApp.cpp ****       return;
 741:GrannyChordApp.cpp ****   }
 742:GrannyChordApp.cpp **** };
 743:GrannyChordApp.cpp **** 
 744:GrannyChordApp.cpp **** void GrannyChordApp::DebugPrintMode(SynthMode mode){
 3633              		.loc 3 744 52 is_stmt 1 view -0
 3634              		.cfi_startproc
 3635              		@ args = 0, pretend = 0, frame = 0
 3636              		@ frame_needed = 0, uses_anonymous_args = 0
 3637              		@ link register save eliminated.
 745:GrannyChordApp.cpp ****   switch(mode){
 3638              		.loc 3 745 3 view .LVU975
 3639 0000 0729     		cmp	r1, #7
 3640 0002 16D8     		bhi	.L152
 3641 0004 DFE801F0 		tbb	[pc, r1]
 3642              	.L155:
 3643 0008 04       		.byte	(.L162-.L155)/2
 3644 0009 07       		.byte	(.L161-.L155)/2
ARM GAS  /var/folders/2p/02m_5p7958535cp2tpgps0400000gn/T//ccAOujCh.s 			page 108


 3645 000a 09       		.byte	(.L160-.L155)/2
 3646 000b 0B       		.byte	(.L159-.L155)/2
 3647 000c 0D       		.byte	(.L158-.L155)/2
 3648 000d 0F       		.byte	(.L157-.L155)/2
 3649 000e 11       		.byte	(.L156-.L155)/2
 3650 000f 13       		.byte	(.L154-.L155)/2
 3651              		.p2align 1
 3652              	.L162:
 746:GrannyChordApp.cpp ****     case SynthMode::Size_Position:
 3653              		.loc 3 746 5 view .LVU976
 747:GrannyChordApp.cpp ****       DebugPrint(pod_, "State now in: SizePos");
 3654              		.loc 3 747 7 view .LVU977
 3655              		.loc 3 747 7 view .LVU978
 3656              	.LVL267:
 3657              	.LBB604:
 3658              	.LBI604:
 126:../libDaisy/src/daisy_seed.h ****     {
 3659              		.loc 5 126 17 view .LVU979
 3660              	.LBB605:
 3661              		.loc 5 128 23 is_stmt 0 view .LVU980
 3662 0010 0848     		ldr	r0, .L164
 3663              	.LVL268:
 3664              	.L163:
 3665              		.loc 5 128 23 view .LVU981
 3666              	.LBE605:
 3667              	.LBE604:
 3668              	.LBB606:
 3669              	.LBB607:
 3670 0012 FFF7FEBF 		b	_ZN5daisy6LoggerILNS_17LoggerDestinationE1EE9PrintLineEPKcz
 3671              	.LVL269:
 3672              	.L161:
 3673              		.loc 5 128 23 view .LVU982
 3674              	.LBE607:
 3675              	.LBE606:
 748:GrannyChordApp.cpp ****       return;
 749:GrannyChordApp.cpp ****     case SynthMode::Size_Position_Rnd:
 3676              		.loc 3 749 5 is_stmt 1 view .LVU983
 750:GrannyChordApp.cpp ****       DebugPrint(pod_, "State now in: SizePosRnd");
 3677              		.loc 3 750 7 view .LVU984
 3678              		.loc 3 750 7 view .LVU985
 3679              	.LBB609:
 3680              	.LBI609:
 126:../libDaisy/src/daisy_seed.h ****     {
 3681              		.loc 5 126 17 view .LVU986
 3682              	.LBB610:
 3683              		.loc 5 128 23 is_stmt 0 view .LVU987
 3684 0016 0848     		ldr	r0, .L164+4
 3685              	.LVL270:
 3686              		.loc 5 128 23 view .LVU988
 3687 0018 FBE7     		b	.L163
 3688              	.LVL271:
 3689              	.L160:
 3690              		.loc 5 128 23 view .LVU989
 3691              	.LBE610:
 3692              	.LBE609:
 751:GrannyChordApp.cpp ****       return;
 752:GrannyChordApp.cpp ****     case SynthMode::Pitch_ActiveGrains:
ARM GAS  /var/folders/2p/02m_5p7958535cp2tpgps0400000gn/T//ccAOujCh.s 			page 109


 3693              		.loc 3 752 5 is_stmt 1 view .LVU990
 753:GrannyChordApp.cpp ****       DebugPrint(pod_, "State now in: PitchGrains");
 3694              		.loc 3 753 7 view .LVU991
 3695              		.loc 3 753 7 view .LVU992
 3696              	.LBB611:
 3697              	.LBI611:
 126:../libDaisy/src/daisy_seed.h ****     {
 3698              		.loc 5 126 17 view .LVU993
 3699              	.LBB612:
 3700              		.loc 5 128 23 is_stmt 0 view .LVU994
 3701 001a 0848     		ldr	r0, .L164+8
 3702              	.LVL272:
 3703              		.loc 5 128 23 view .LVU995
 3704 001c F9E7     		b	.L163
 3705              	.LVL273:
 3706              	.L159:
 3707              		.loc 5 128 23 view .LVU996
 3708              	.LBE612:
 3709              	.LBE611:
 754:GrannyChordApp.cpp ****       return;
 755:GrannyChordApp.cpp ****     case SynthMode::Pitch_ActiveGrains_Rnd:
 3710              		.loc 3 755 5 is_stmt 1 view .LVU997
 756:GrannyChordApp.cpp ****       DebugPrint(pod_, "State now in: PitchGrainsRnd");
 3711              		.loc 3 756 7 view .LVU998
 3712              		.loc 3 756 7 view .LVU999
 3713              	.LBB613:
 3714              	.LBI613:
 126:../libDaisy/src/daisy_seed.h ****     {
 3715              		.loc 5 126 17 view .LVU1000
 3716              	.LBB614:
 3717              		.loc 5 128 23 is_stmt 0 view .LVU1001
 3718 001e 0848     		ldr	r0, .L164+12
 3719              	.LVL274:
 3720              		.loc 5 128 23 view .LVU1002
 3721 0020 F7E7     		b	.L163
 3722              	.LVL275:
 3723              	.L158:
 3724              		.loc 5 128 23 view .LVU1003
 3725              	.LBE614:
 3726              	.LBE613:
 757:GrannyChordApp.cpp ****       return;
 758:GrannyChordApp.cpp ****     case SynthMode::Pan_Direction:
 3727              		.loc 3 758 5 is_stmt 1 view .LVU1004
 759:GrannyChordApp.cpp ****       DebugPrint(pod_, "State now in: PanDirection");
 3728              		.loc 3 759 7 view .LVU1005
 3729              		.loc 3 759 7 view .LVU1006
 3730              	.LBB615:
 3731              	.LBI615:
 126:../libDaisy/src/daisy_seed.h ****     {
 3732              		.loc 5 126 17 view .LVU1007
 3733              	.LBB616:
 3734              		.loc 5 128 23 is_stmt 0 view .LVU1008
 3735 0022 0848     		ldr	r0, .L164+16
 3736              	.LVL276:
 3737              		.loc 5 128 23 view .LVU1009
 3738 0024 F5E7     		b	.L163
 3739              	.LVL277:
ARM GAS  /var/folders/2p/02m_5p7958535cp2tpgps0400000gn/T//ccAOujCh.s 			page 110


 3740              	.L157:
 3741              		.loc 5 128 23 view .LVU1010
 3742              	.LBE616:
 3743              	.LBE615:
 760:GrannyChordApp.cpp ****       return;
 761:GrannyChordApp.cpp ****     case SynthMode::PanRnd_Chorus:
 3744              		.loc 3 761 5 is_stmt 1 view .LVU1011
 762:GrannyChordApp.cpp ****       DebugPrint(pod_, "State now in: Rotator_Chorus");
 3745              		.loc 3 762 7 view .LVU1012
 3746              		.loc 3 762 7 view .LVU1013
 3747              	.LBB617:
 3748              	.LBI617:
 126:../libDaisy/src/daisy_seed.h ****     {
 3749              		.loc 5 126 17 view .LVU1014
 3750              	.LBB618:
 3751              		.loc 5 128 23 is_stmt 0 view .LVU1015
 3752 0026 0848     		ldr	r0, .L164+20
 3753              	.LVL278:
 3754              		.loc 5 128 23 view .LVU1016
 3755 0028 F3E7     		b	.L163
 3756              	.LVL279:
 3757              	.L156:
 3758              		.loc 5 128 23 view .LVU1017
 3759              	.LBE618:
 3760              	.LBE617:
 763:GrannyChordApp.cpp ****       return;
 764:GrannyChordApp.cpp ****     case SynthMode::Reverb:
 3761              		.loc 3 764 5 is_stmt 1 view .LVU1018
 765:GrannyChordApp.cpp ****       DebugPrint(pod_, "State now in: Reverb");
 3762              		.loc 3 765 7 view .LVU1019
 3763              		.loc 3 765 7 view .LVU1020
 3764              	.LBB619:
 3765              	.LBI619:
 126:../libDaisy/src/daisy_seed.h ****     {
 3766              		.loc 5 126 17 view .LVU1021
 3767              	.LBB620:
 3768              		.loc 5 128 23 is_stmt 0 view .LVU1022
 3769 002a 0848     		ldr	r0, .L164+24
 3770              	.LVL280:
 3771              		.loc 5 128 23 view .LVU1023
 3772 002c F1E7     		b	.L163
 3773              	.LVL281:
 3774              	.L154:
 3775              		.loc 5 128 23 view .LVU1024
 3776              	.LBE620:
 3777              	.LBE619:
 766:GrannyChordApp.cpp ****       return;
 767:GrannyChordApp.cpp ****     case SynthMode::Filter:
 3778              		.loc 3 767 5 is_stmt 1 view .LVU1025
 768:GrannyChordApp.cpp ****       DebugPrint(pod_, "State now in: Filter");
 3779              		.loc 3 768 7 view .LVU1026
 3780              		.loc 3 768 7 view .LVU1027
 3781              	.LBB621:
 3782              	.LBI606:
 126:../libDaisy/src/daisy_seed.h ****     {
 3783              		.loc 5 126 17 view .LVU1028
 3784              	.LBB608:
ARM GAS  /var/folders/2p/02m_5p7958535cp2tpgps0400000gn/T//ccAOujCh.s 			page 111


 3785              		.loc 5 128 23 is_stmt 0 view .LVU1029
 3786 002e 0848     		ldr	r0, .L164+28
 3787              	.LVL282:
 3788              		.loc 5 128 23 view .LVU1030
 3789 0030 EFE7     		b	.L163
 3790              	.LVL283:
 3791              	.L152:
 3792              		.loc 5 128 23 view .LVU1031
 3793              	.LBE608:
 3794              	.LBE621:
 769:GrannyChordApp.cpp ****       return;
 770:GrannyChordApp.cpp ****   }
 771:GrannyChordApp.cpp **** };
 3795              		.loc 3 771 1 view .LVU1032
 3796 0032 7047     		bx	lr
 3797              	.L165:
 3798              		.align	2
 3799              	.L164:
 3800 0034 00000000 		.word	.LC19
 3801 0038 16000000 		.word	.LC20
 3802 003c 2F000000 		.word	.LC21
 3803 0040 49000000 		.word	.LC22
 3804 0044 66000000 		.word	.LC23
 3805 0048 81000000 		.word	.LC24
 3806 004c 9E000000 		.word	.LC25
 3807 0050 B3000000 		.word	.LC26
 3808              		.cfi_endproc
 3809              	.LFE4948:
 3811              		.section	.text._ZN14GrannyChordApp11LedCallbackEv,"ax",%progbits
 3812              		.align	1
 3813              		.global	_ZN14GrannyChordApp11LedCallbackEv
 3814              		.syntax unified
 3815              		.thumb
 3816              		.thumb_func
 3818              	_ZN14GrannyChordApp11LedCallbackEv:
 3819              	.LVL284:
 3820              	.LFB4950:
 772:GrannyChordApp.cpp **** 
 773:GrannyChordApp.cpp **** /// @brief sets up hardware timer peripheral, used for
 774:GrannyChordApp.cpp **** ///        timing led flashes on state/mode changes
 775:GrannyChordApp.cpp **** ///        (internal system delay is blocking so not used)
 776:GrannyChordApp.cpp **** void GrannyChordApp::SetupTimer(){
 777:GrannyChordApp.cpp ****   TimerHandle::Config cfg;
 778:GrannyChordApp.cpp ****   cfg.periph = TimerHandle::Config::Peripheral::TIM_5;
 779:GrannyChordApp.cpp ****   cfg.period = 4000;
 780:GrannyChordApp.cpp ****   cfg.enable_irq = true;
 781:GrannyChordApp.cpp ****   timer_.Init(cfg);
 782:GrannyChordApp.cpp ****   timer_.SetPrescaler(9999);
 783:GrannyChordApp.cpp ****   timer_.SetCallback(StaticLedCallback, nullptr);
 784:GrannyChordApp.cpp ****   SetLed1AppState();
 785:GrannyChordApp.cpp ****   timer_.Start();
 786:GrannyChordApp.cpp **** }
 787:GrannyChordApp.cpp **** 
 788:GrannyChordApp.cpp **** /// @brief callback function called every timer period 
 789:GrannyChordApp.cpp **** void GrannyChordApp::LedCallback(){
 3821              		.loc 3 789 35 is_stmt 1 view -0
 3822              		.cfi_startproc
ARM GAS  /var/folders/2p/02m_5p7958535cp2tpgps0400000gn/T//ccAOujCh.s 			page 112


 3823              		@ args = 0, pretend = 0, frame = 0
 3824              		@ frame_needed = 0, uses_anonymous_args = 0
 790:GrannyChordApp.cpp ****   if (led1_flash_count_ < 7) {
 3825              		.loc 3 790 3 view .LVU1034
 789:GrannyChordApp.cpp ****   if (led1_flash_count_ < 7) {
 3826              		.loc 3 789 35 is_stmt 0 view .LVU1035
 3827 0000 38B5     		push	{r3, r4, r5, lr}
 3828              		.cfi_def_cfa_offset 16
 3829              		.cfi_offset 3, -16
 3830              		.cfi_offset 4, -12
 3831              		.cfi_offset 5, -8
 3832              		.cfi_offset 14, -4
 3833              		.loc 3 790 7 view .LVU1036
 3834 0002 00F55044 		add	r4, r0, #53248
 789:GrannyChordApp.cpp ****   if (led1_flash_count_ < 7) {
 3835              		.loc 3 789 35 view .LVU1037
 3836 0006 0546     		mov	r5, r0
 791:GrannyChordApp.cpp ****       /* flash on/off for the first 6 callbacks (3 cycles) */
 792:GrannyChordApp.cpp ****       if (led1_flash_count_%2==0) { pod_.led1.Set(rgb1_[0],rgb1_[1],rgb1_[2]); }
 3837              		.loc 3 792 50 view .LVU1038
 3838 0008 C069     		ldr	r0, [r0, #28]
 3839              	.LVL285:
 790:GrannyChordApp.cpp ****       /* flash on/off for the first 6 callbacks (3 cycles) */
 3840              		.loc 3 790 7 view .LVU1039
 3841 000a D4F82432 		ldr	r3, [r4, #548]
 3842              		.loc 3 792 50 view .LVU1040
 3843 000e D830     		adds	r0, r0, #216
 790:GrannyChordApp.cpp ****       /* flash on/off for the first 6 callbacks (3 cycles) */
 3844              		.loc 3 790 3 view .LVU1041
 3845 0010 062B     		cmp	r3, #6
 3846 0012 49DC     		bgt	.L167
 3847              		.loc 3 792 7 is_stmt 1 view .LVU1042
 3848 0014 DA07     		lsls	r2, r3, #31
 3849              		.loc 3 792 37 view .LVU1043
 793:GrannyChordApp.cpp ****       else { pod_.led1.Set(0,0,0);}
 3850              		.loc 3 793 27 is_stmt 0 view .LVU1044
 3851 0016 4BBF     		itete	mi
 3852 0018 9FED2E1A 		vldrmi.32	s2, .L180
 792:GrannyChordApp.cpp ****       else { pod_.led1.Set(0,0,0);}
 3853              		.loc 3 792 50 view .LVU1045
 3854 001c 94ED851A 		vldrpl.32	s2, [r4, #532]
 3855              		.loc 3 793 27 view .LVU1046
 3856 0020 F0EE410A 		vmovmi.f32	s1, s2
 792:GrannyChordApp.cpp ****       else { pod_.led1.Set(0,0,0);}
 3857              		.loc 3 792 50 view .LVU1047
 3858 0024 D4ED840A 		vldrpl.32	s1, [r4, #528]
 3859              		.loc 3 793 27 view .LVU1048
 3860 0028 4CBF     		ite	mi
 3861 002a B0EE410A 		vmovmi.f32	s0, s2
 792:GrannyChordApp.cpp ****       else { pod_.led1.Set(0,0,0);}
 3862              		.loc 3 792 50 view .LVU1049
 3863 002e 94ED830A 		vldrpl.32	s0, [r4, #524]
 3864              		.loc 3 793 14 is_stmt 1 view .LVU1050
 3865              		.loc 3 793 27 is_stmt 0 view .LVU1051
 3866 0032 FFF7FEFF 		bl	_ZN5daisy6RgbLed3SetEfff
 3867              	.LVL286:
 794:GrannyChordApp.cpp ****       led1_flash_count_++;
ARM GAS  /var/folders/2p/02m_5p7958535cp2tpgps0400000gn/T//ccAOujCh.s 			page 113


 3868              		.loc 3 794 7 is_stmt 1 view .LVU1052
 3869              		.loc 3 794 24 is_stmt 0 view .LVU1053
 3870 0036 D4F82432 		ldr	r3, [r4, #548]
 3871 003a 0133     		adds	r3, r3, #1
 3872 003c C4F82432 		str	r3, [r4, #548]
 3873              	.L170:
 795:GrannyChordApp.cpp ****   }
 796:GrannyChordApp.cpp ****   else pod_.led1.Set(rgb1_[0],rgb1_[1],rgb1_[2]); /* stay solid after 3 flashes */
 797:GrannyChordApp.cpp **** 
 798:GrannyChordApp.cpp ****   if (led2_flash_count_ <7){
 3874              		.loc 3 798 3 is_stmt 1 view .LVU1054
 3875              		.loc 3 798 7 is_stmt 0 view .LVU1055
 3876 0040 D4F82832 		ldr	r3, [r4, #552]
 799:GrannyChordApp.cpp ****     if (led2_flash_count_%2==0) { pod_.led2.Set(rgb2_[0],rgb2_[1],rgb2_[2]); }
 3877              		.loc 3 799 48 view .LVU1056
 3878 0044 E869     		ldr	r0, [r5, #28]
 798:GrannyChordApp.cpp ****     if (led2_flash_count_%2==0) { pod_.led2.Set(rgb2_[0],rgb2_[1],rgb2_[2]); }
 3879              		.loc 3 798 3 view .LVU1057
 3880 0046 062B     		cmp	r3, #6
 3881              		.loc 3 799 48 view .LVU1058
 3882 0048 00F59670 		add	r0, r0, #300
 798:GrannyChordApp.cpp ****     if (led2_flash_count_%2==0) { pod_.led2.Set(rgb2_[0],rgb2_[1],rgb2_[2]); }
 3883              		.loc 3 798 3 view .LVU1059
 3884 004c 35DC     		bgt	.L171
 3885              		.loc 3 799 5 is_stmt 1 view .LVU1060
 3886 004e DB07     		lsls	r3, r3, #31
 3887              		.loc 3 799 35 view .LVU1061
 800:GrannyChordApp.cpp ****     else { pod_.led2.Set(0,0,0); }
 3888              		.loc 3 800 25 is_stmt 0 view .LVU1062
 3889 0050 4BBF     		itete	mi
 3890 0052 9FED201A 		vldrmi.32	s2, .L180
 799:GrannyChordApp.cpp ****     if (led2_flash_count_%2==0) { pod_.led2.Set(rgb2_[0],rgb2_[1],rgb2_[2]); }
 3891              		.loc 3 799 48 view .LVU1063
 3892 0056 94ED881A 		vldrpl.32	s2, [r4, #544]
 3893              		.loc 3 800 25 view .LVU1064
 3894 005a F0EE410A 		vmovmi.f32	s1, s2
 799:GrannyChordApp.cpp ****     if (led2_flash_count_%2==0) { pod_.led2.Set(rgb2_[0],rgb2_[1],rgb2_[2]); }
 3895              		.loc 3 799 48 view .LVU1065
 3896 005e D4ED870A 		vldrpl.32	s1, [r4, #540]
 3897              		.loc 3 800 25 view .LVU1066
 3898 0062 4CBF     		ite	mi
 3899 0064 B0EE410A 		vmovmi.f32	s0, s2
 799:GrannyChordApp.cpp ****     if (led2_flash_count_%2==0) { pod_.led2.Set(rgb2_[0],rgb2_[1],rgb2_[2]); }
 3900              		.loc 3 799 48 view .LVU1067
 3901 0068 94ED860A 		vldrpl.32	s0, [r4, #536]
 3902              		.loc 3 800 12 is_stmt 1 view .LVU1068
 3903              		.loc 3 800 25 is_stmt 0 view .LVU1069
 3904 006c FFF7FEFF 		bl	_ZN5daisy6RgbLed3SetEfff
 3905              	.LVL287:
 801:GrannyChordApp.cpp ****     led2_flash_count_++;
 3906              		.loc 3 801 5 is_stmt 1 view .LVU1070
 3907              		.loc 3 801 22 is_stmt 0 view .LVU1071
 3908 0070 D4F82832 		ldr	r3, [r4, #552]
 3909 0074 0133     		adds	r3, r3, #1
 3910 0076 C4F82832 		str	r3, [r4, #552]
 3911              	.L174:
 802:GrannyChordApp.cpp ****   } 
ARM GAS  /var/folders/2p/02m_5p7958535cp2tpgps0400000gn/T//ccAOujCh.s 			page 114


 803:GrannyChordApp.cpp ****   else pod_.led2.Set(rgb2_[0],rgb2_[1],rgb2_[2]);
 804:GrannyChordApp.cpp **** 
 805:GrannyChordApp.cpp ****   if (recording_out_ || curr_state_ == AppState::RecordIn){
 3912              		.loc 3 805 3 is_stmt 1 view .LVU1072
 3913 007a 94F8EC11 		ldrb	r1, [r4, #492]	@ zero_extendqisi2
 806:GrannyChordApp.cpp ****     pod_.seed.SetLed(seed_led_state_);
 807:GrannyChordApp.cpp ****     seed_led_state_ = !seed_led_state_;
 808:GrannyChordApp.cpp ****   }
 809:GrannyChordApp.cpp ****   else pod_.seed.SetLed(0); /* turn off seed led when not recording out */
 3914              		.loc 3 809 24 is_stmt 0 view .LVU1073
 3915 007e E869     		ldr	r0, [r5, #28]
 805:GrannyChordApp.cpp ****     pod_.seed.SetLed(seed_led_state_);
 3916              		.loc 3 805 3 view .LVU1074
 3917 0080 19B9     		cbnz	r1, .L175
 805:GrannyChordApp.cpp ****     pod_.seed.SetLed(seed_led_state_);
 3918              		.loc 3 805 22 discriminator 1 view .LVU1075
 3919 0082 D5F87832 		ldr	r3, [r5, #632]
 3920 0086 032B     		cmp	r3, #3
 3921 0088 20D1     		bne	.L176
 3922              	.L175:
 806:GrannyChordApp.cpp ****     pod_.seed.SetLed(seed_led_state_);
 3923              		.loc 3 806 5 is_stmt 1 view .LVU1076
 806:GrannyChordApp.cpp ****     pod_.seed.SetLed(seed_led_state_);
 3924              		.loc 3 806 21 is_stmt 0 view .LVU1077
 3925 008a 94F82C12 		ldrb	r1, [r4, #556]	@ zero_extendqisi2
 3926 008e FFF7FEFF 		bl	_ZN5daisy9DaisySeed6SetLedEb
 3927              	.LVL288:
 807:GrannyChordApp.cpp ****   }
 3928              		.loc 3 807 5 is_stmt 1 view .LVU1078
 807:GrannyChordApp.cpp ****   }
 3929              		.loc 3 807 23 is_stmt 0 view .LVU1079
 3930 0092 94F82C32 		ldrb	r3, [r4, #556]	@ zero_extendqisi2
 3931 0096 83F00103 		eor	r3, r3, #1
 807:GrannyChordApp.cpp ****   }
 3932              		.loc 3 807 21 view .LVU1080
 3933 009a 84F82C32 		strb	r3, [r4, #556]
 3934              	.L177:
 810:GrannyChordApp.cpp ****   pod_.UpdateLeds();
 3935              		.loc 3 810 3 is_stmt 1 view .LVU1081
 3936              		.loc 3 810 18 is_stmt 0 view .LVU1082
 3937 009e E869     		ldr	r0, [r5, #28]
 811:GrannyChordApp.cpp **** }
 3938              		.loc 3 811 1 view .LVU1083
 3939 00a0 BDE83840 		pop	{r3, r4, r5, lr}
 3940              		.cfi_remember_state
 3941              		.cfi_restore 14
 3942              		.cfi_restore 5
 3943              		.cfi_restore 4
 3944              		.cfi_restore 3
 3945              		.cfi_def_cfa_offset 0
 3946              	.LVL289:
 810:GrannyChordApp.cpp ****   pod_.UpdateLeds();
 3947              		.loc 3 810 18 view .LVU1084
 3948 00a4 FFF7FEBF 		b	_ZN5daisy8DaisyPod10UpdateLedsEv
 3949              	.LVL290:
 3950              	.L167:
 3951              		.cfi_restore_state
ARM GAS  /var/folders/2p/02m_5p7958535cp2tpgps0400000gn/T//ccAOujCh.s 			page 115


 796:GrannyChordApp.cpp **** 
 3952              		.loc 3 796 8 is_stmt 1 view .LVU1085
 796:GrannyChordApp.cpp **** 
 3953              		.loc 3 796 21 is_stmt 0 view .LVU1086
 3954 00a8 94ED851A 		vldr.32	s2, [r4, #532]
 3955 00ac D4ED840A 		vldr.32	s1, [r4, #528]
 3956 00b0 94ED830A 		vldr.32	s0, [r4, #524]
 3957 00b4 FFF7FEFF 		bl	_ZN5daisy6RgbLed3SetEfff
 3958              	.LVL291:
 3959 00b8 C2E7     		b	.L170
 3960              	.L171:
 803:GrannyChordApp.cpp **** 
 3961              		.loc 3 803 8 is_stmt 1 view .LVU1087
 803:GrannyChordApp.cpp **** 
 3962              		.loc 3 803 21 is_stmt 0 view .LVU1088
 3963 00ba 94ED881A 		vldr.32	s2, [r4, #544]
 3964 00be D4ED870A 		vldr.32	s1, [r4, #540]
 3965 00c2 94ED860A 		vldr.32	s0, [r4, #536]
 3966 00c6 FFF7FEFF 		bl	_ZN5daisy6RgbLed3SetEfff
 3967              	.LVL292:
 3968 00ca D6E7     		b	.L174
 3969              	.L176:
 809:GrannyChordApp.cpp ****   pod_.UpdateLeds();
 3970              		.loc 3 809 8 is_stmt 1 view .LVU1089
 809:GrannyChordApp.cpp ****   pod_.UpdateLeds();
 3971              		.loc 3 809 24 is_stmt 0 view .LVU1090
 3972 00cc FFF7FEFF 		bl	_ZN5daisy9DaisySeed6SetLedEb
 3973              	.LVL293:
 3974 00d0 E5E7     		b	.L177
 3975              	.L181:
 3976 00d2 00BF     		.align	2
 3977              	.L180:
 3978 00d4 00000000 		.word	0
 3979              		.cfi_endproc
 3980              	.LFE4950:
 3982              		.section	.text._ZN14GrannyChordApp17StaticLedCallbackEPv,"axG",%progbits,_ZN14GrannyChordApp17Stat
 3983              		.align	1
 3984              		.weak	_ZN14GrannyChordApp17StaticLedCallbackEPv
 3985              		.syntax unified
 3986              		.thumb
 3987              		.thumb_func
 3989              	_ZN14GrannyChordApp17StaticLedCallbackEPv:
 3990              	.LVL294:
 3991              	.LFB4909:
 3992              		.file 14 "GrannyChordApp.h"
   1:GrannyChordApp.h **** #pragma once 
   2:GrannyChordApp.h **** #include "daisy_pod.h"
   3:GrannyChordApp.h **** #include "daisysp.h"
   4:GrannyChordApp.h **** #include "GranularSynth.h"
   5:GrannyChordApp.h **** #include "AudioFileManager.h"
   6:GrannyChordApp.h **** #include "constants_utils.h"
   7:GrannyChordApp.h **** #include "debug_print.h"
   8:GrannyChordApp.h **** #include "DaisySP-LGPL-FX/reverb.h"
   9:GrannyChordApp.h **** #include "DaisySP-LGPL-FX/compressor.h"
  10:GrannyChordApp.h **** #include "DaisySP-LGPL-FX/moogladder.h"
  11:GrannyChordApp.h **** #include "StereoRotator.h"
  12:GrannyChordApp.h **** #include "AppState.h"
ARM GAS  /var/folders/2p/02m_5p7958535cp2tpgps0400000gn/T//ccAOujCh.s 			page 116


  13:GrannyChordApp.h **** 
  14:GrannyChordApp.h **** using namespace daisy;
  15:GrannyChordApp.h **** using namespace daisysp;
  16:GrannyChordApp.h **** 
  17:GrannyChordApp.h **** class GrannyChordApp {
  18:GrannyChordApp.h ****   public:
  19:GrannyChordApp.h ****   GrannyChordApp(DaisyPod& pod, GranularSynth& synth, AudioFileManager& filemgr, ReverbSc &reverb)
  20:GrannyChordApp.h ****         : pod_(pod), synth_(synth), 
  21:GrannyChordApp.h ****           filemgr_(filemgr), reverb_(reverb){
  22:GrannyChordApp.h ****             instance_ = this;
  23:GrannyChordApp.h ****           };
  24:GrannyChordApp.h **** 
  25:GrannyChordApp.h ****     void Init(int16_t *left, int16_t *right);
  26:GrannyChordApp.h ****     void Run();
  27:GrannyChordApp.h **** 
  28:GrannyChordApp.h ****     CpuLoadMeter loadmeter;
  29:GrannyChordApp.h **** 
  30:GrannyChordApp.h ****     static void AudioCallback(AudioHandle::InputBuffer in, AudioHandle::OutputBuffer out, size_t si
  31:GrannyChordApp.h ****     void ProcessAudio(AudioHandle::InputBuffer in, AudioHandle::OutputBuffer out, size_t size);
  32:GrannyChordApp.h ****     static GrannyChordApp* instance_;
  33:GrannyChordApp.h **** 
  34:GrannyChordApp.h ****   private:
  35:GrannyChordApp.h ****     DaisyPod &pod_;
  36:GrannyChordApp.h ****     GranularSynth synth_;
  37:GrannyChordApp.h ****     AudioFileManager &filemgr_;
  38:GrannyChordApp.h ****     FIL *file_;
  39:GrannyChordApp.h **** 
  40:GrannyChordApp.h ****     /* UI and state objects */
  41:GrannyChordApp.h ****     AppState curr_state_;
  42:GrannyChordApp.h ****     AppState next_state_;
  43:GrannyChordApp.h ****     SynthMode curr_synth_mode_;
  44:GrannyChordApp.h ****     SynthMode prev_synth_mode_;
  45:GrannyChordApp.h ****     bool knob1_latched;
  46:GrannyChordApp.h ****     bool knob2_latched;
  47:GrannyChordApp.h **** 
  48:GrannyChordApp.h **** 
  49:GrannyChordApp.h ****     /* audio FX and filters */
  50:GrannyChordApp.h ****     Compressor comp_;
  51:GrannyChordApp.h ****     Limiter limiter_;
  52:GrannyChordApp.h ****     ReverbSc& reverb_;
  53:GrannyChordApp.h ****     Chorus chorus_;
  54:GrannyChordApp.h ****     MoogLadder lowpass_moog_;
  55:GrannyChordApp.h ****     OnePole hipass_;
  56:GrannyChordApp.h ****     StereoRotator rotator_;
  57:GrannyChordApp.h ****     /* filter to reduce high end noise */
  58:GrannyChordApp.h ****     OnePole hicut_;
  59:GrannyChordApp.h **** 
  60:GrannyChordApp.h ****     /* audio data channel buffers */
  61:GrannyChordApp.h ****     int16_t *left_buf_;
  62:GrannyChordApp.h ****     int16_t *right_buf_;
  63:GrannyChordApp.h **** 
  64:GrannyChordApp.h ****     int file_idx_ = 0;
  65:GrannyChordApp.h ****     size_t wav_playhead_ = 0;
  66:GrannyChordApp.h ****     uint32_t audio_len_ = 0;
  67:GrannyChordApp.h ****     char fname_[MAX_FNAME_LEN];
  68:GrannyChordApp.h **** 
  69:GrannyChordApp.h ****     /* previous values for parameters controlled by knob 1*/
ARM GAS  /var/folders/2p/02m_5p7958535cp2tpgps0400000gn/T//ccAOujCh.s 			page 117


  70:GrannyChordApp.h ****     float prev_param_k1[NUM_SYNTH_MODES] = {0};
  71:GrannyChordApp.h ****     float prev_param_k2[NUM_SYNTH_MODES] = {0};
  72:GrannyChordApp.h **** 
  73:GrannyChordApp.h ****     /* stored previous knob values for passthru mode */
  74:GrannyChordApp.h ****     // float stored_k1[NUM_SYNTH_MODES] = {0.5f};
  75:GrannyChordApp.h ****     // float stored_k2[NUM_SYNTH_MODES] = {0.5f};
  76:GrannyChordApp.h ****     // bool pass_thru_k1 = false;
  77:GrannyChordApp.h ****     // bool pass_thru_k2 = false;
  78:GrannyChordApp.h **** 
  79:GrannyChordApp.h ****     /* objects/variables for recording in and out */
  80:GrannyChordApp.h ****     WavWriter<16384> sd_writer_;
  81:GrannyChordApp.h ****     bool recorded_in_ = false;
  82:GrannyChordApp.h ****     size_t record_in_pos_ = 0;
  83:GrannyChordApp.h ****     bool recording_out_ = false;
  84:GrannyChordApp.h ****     size_t recording_count_ = 0;
  85:GrannyChordApp.h ****     size_t loop_count=0;
  86:GrannyChordApp.h ****     float temp_interleaved_buf_[2];
  87:GrannyChordApp.h **** 
  88:GrannyChordApp.h ****     /* hardware input handler variables */
  89:GrannyChordApp.h ****     size_t last_action_time_ = 0;
  90:GrannyChordApp.h ****     /* these bools track whether the button has just been long pressed
  91:GrannyChordApp.h ****       vs whether it's already known to be pressed down */
  92:GrannyChordApp.h ****     bool btn1_long_press_fired_ = false;
  93:GrannyChordApp.h ****     bool btn2_long_press_fired_ = false;
  94:GrannyChordApp.h ****     bool both_btns_long_press_fired_ = false;
  95:GrannyChordApp.h **** 
  96:GrannyChordApp.h ****     /* timer object and led callback variables */
  97:GrannyChordApp.h ****     TimerHandle timer_;
  98:GrannyChordApp.h ****     float rgb1_[3] = {0};
  99:GrannyChordApp.h ****     float rgb2_[3] = {0};
 100:GrannyChordApp.h ****     int led1_flash_count_=0;
 101:GrannyChordApp.h ****     int led2_flash_count_=0;
 102:GrannyChordApp.h ****     bool seed_led_state_=false;
 103:GrannyChordApp.h **** 
 104:GrannyChordApp.h ****     /* methods to init / prepare for state change */
 105:GrannyChordApp.h ****     bool InitFileMgr();
 106:GrannyChordApp.h ****     void InitPlayback();
 107:GrannyChordApp.h ****     void InitSynth();
 108:GrannyChordApp.h ****     void InitFX();
 109:GrannyChordApp.h ****     void InitRecordIn();
 110:GrannyChordApp.h ****     void InitWavWriter();
 111:GrannyChordApp.h ****     void InitPrevParamVals();
 112:GrannyChordApp.h ****     // void ResetPassThru();
 113:GrannyChordApp.h **** 
 114:GrannyChordApp.h ****     /* state change handlers */
 115:GrannyChordApp.h ****     void UpdateUI();
 116:GrannyChordApp.h ****     void UpdateSynthModeA();
 117:GrannyChordApp.h ****     void UpdateSynthModeB();
 118:GrannyChordApp.h ****     void HandleStateChange();
 119:GrannyChordApp.h ****     void HandleFileSelection(int32_t encoder_inc);
 120:GrannyChordApp.h **** 
 121:GrannyChordApp.h ****     /* audio input/output/recording methods based on state */
 122:GrannyChordApp.h ****     void ProcessWAVPlayback(AudioHandle::OutputBuffer out, size_t size);
 123:GrannyChordApp.h ****     void ProcessRecordIn(AudioHandle::InputBuffer in, AudioHandle::OutputBuffer out, size_t size);
 124:GrannyChordApp.h ****     void ProcessSynthesis(AudioHandle::OutputBuffer out, size_t size);
 125:GrannyChordApp.h ****     Sample ProcessFX(Sample in);
 126:GrannyChordApp.h ****     void ProcessChordMode(AudioHandle::OutputBuffer out, size_t size);
ARM GAS  /var/folders/2p/02m_5p7958535cp2tpgps0400000gn/T//ccAOujCh.s 			page 118


 127:GrannyChordApp.h ****     void RecordOutToSD();
 128:GrannyChordApp.h ****     void FinishRecording();
 129:GrannyChordApp.h **** 
 130:GrannyChordApp.h ****     /* hardware input handler methods */
 131:GrannyChordApp.h ****     void ButtonHandler();
 132:GrannyChordApp.h ****     void HandleEncoderIncrement(int encoder_inc);
 133:GrannyChordApp.h ****     void HandleEncoderPressed();
 134:GrannyChordApp.h ****     void HandleEncoderLongPress();
 135:GrannyChordApp.h ****     void HandleButton1();
 136:GrannyChordApp.h ****     void HandleButton2();
 137:GrannyChordApp.h ****     void HandleButton1LongPress();
 138:GrannyChordApp.h ****     void HandleButton2LongPress();
 139:GrannyChordApp.h **** 
 140:GrannyChordApp.h ****     /* methods to update/init synth parameters */
 141:GrannyChordApp.h ****     void UpdateSynthParams();
 142:GrannyChordApp.h ****     void UpdateKnob1Params(float knob1_val, SynthMode mode);
 143:GrannyChordApp.h ****     void UpdateKnob2Params(float knob2_val, SynthMode mode);
 144:GrannyChordApp.h ****     // void UpdateChordParams();
 145:GrannyChordApp.h ****     inline float MapKnobDeadzone(float knob_val);
 146:GrannyChordApp.h ****     inline bool UpdateKnobPassThru(bool *knob_latched, float curr_knob_val, float prev_param);
 147:GrannyChordApp.h **** 
 148:GrannyChordApp.h ****     /* timer and led methods */
 149:GrannyChordApp.h ****     void SetupTimer();
 150:GrannyChordApp.h ****     /* has to be static - timer won't take class member function in callback */
 151:GrannyChordApp.h ****     static void StaticLedCallback(void* data){
 3993              		.loc 14 151 17 is_stmt 1 view -0
 3994              		.cfi_startproc
 3995              		@ args = 0, pretend = 0, frame = 0
 3996              		@ frame_needed = 0, uses_anonymous_args = 0
 3997              		@ link register save eliminated.
 152:GrannyChordApp.h ****       instance_ -> LedCallback();
 3998              		.loc 14 152 7 view .LVU1092
 3999              		.loc 14 152 31 is_stmt 0 view .LVU1093
 4000 0000 014B     		ldr	r3, .L183
 4001 0002 1868     		ldr	r0, [r3]
 4002              	.LVL295:
 4003              		.loc 14 152 31 view .LVU1094
 4004 0004 FFF7FEBF 		b	_ZN14GrannyChordApp11LedCallbackEv
 4005              	.LVL296:
 4006              	.L184:
 4007              		.align	2
 4008              	.L183:
 4009 0008 00000000 		.word	.LANCHOR0
 4010              		.cfi_endproc
 4011              	.LFE4909:
 4013              		.section	.text._ZN14GrannyChordApp7SetRgb1Efff,"ax",%progbits
 4014              		.align	1
 4015              		.global	_ZN14GrannyChordApp7SetRgb1Efff
 4016              		.syntax unified
 4017              		.thumb
 4018              		.thumb_func
 4020              	_ZN14GrannyChordApp7SetRgb1Efff:
 4021              	.LVL297:
 4022              	.LFB4951:
 812:GrannyChordApp.cpp **** 
 813:GrannyChordApp.cpp **** /// @brief helper function to set led1 colours
 814:GrannyChordApp.cpp **** void GrannyChordApp::SetRgb1(float r, float g, float b){  
ARM GAS  /var/folders/2p/02m_5p7958535cp2tpgps0400000gn/T//ccAOujCh.s 			page 119


 4023              		.loc 3 814 56 is_stmt 1 view -0
 4024              		.cfi_startproc
 4025              		@ args = 0, pretend = 0, frame = 0
 4026              		@ frame_needed = 0, uses_anonymous_args = 0
 4027              		@ link register save eliminated.
 815:GrannyChordApp.cpp ****   rgb1_[0]= r;
 4028              		.loc 3 815 3 view .LVU1096
 4029              		.loc 3 815 11 is_stmt 0 view .LVU1097
 4030 0000 00F55040 		add	r0, r0, #53248
 4031              	.LVL298:
 4032              		.loc 3 815 11 view .LVU1098
 4033 0004 80ED830A 		vstr.32	s0, [r0, #524]
 816:GrannyChordApp.cpp ****   rgb1_[1]= g;
 4034              		.loc 3 816 3 is_stmt 1 view .LVU1099
 4035              		.loc 3 816 11 is_stmt 0 view .LVU1100
 4036 0008 C0ED840A 		vstr.32	s1, [r0, #528]
 817:GrannyChordApp.cpp ****   rgb1_[2]= b;
 4037              		.loc 3 817 3 is_stmt 1 view .LVU1101
 4038              		.loc 3 817 11 is_stmt 0 view .LVU1102
 4039 000c 80ED851A 		vstr.32	s2, [r0, #532]
 818:GrannyChordApp.cpp **** }
 4040              		.loc 3 818 1 view .LVU1103
 4041 0010 7047     		bx	lr
 4042              		.cfi_endproc
 4043              	.LFE4951:
 4045              		.section	.text._ZN14GrannyChordApp7SetRgb2Efff,"ax",%progbits
 4046              		.align	1
 4047              		.global	_ZN14GrannyChordApp7SetRgb2Efff
 4048              		.syntax unified
 4049              		.thumb
 4050              		.thumb_func
 4052              	_ZN14GrannyChordApp7SetRgb2Efff:
 4053              	.LVL299:
 4054              	.LFB4952:
 819:GrannyChordApp.cpp **** 
 820:GrannyChordApp.cpp **** /// @brief helper function to set led2 colours
 821:GrannyChordApp.cpp **** void GrannyChordApp::SetRgb2(float r, float g, float b){
 4055              		.loc 3 821 56 is_stmt 1 view -0
 4056              		.cfi_startproc
 4057              		@ args = 0, pretend = 0, frame = 0
 4058              		@ frame_needed = 0, uses_anonymous_args = 0
 4059              		@ link register save eliminated.
 822:GrannyChordApp.cpp ****   rgb2_[0]= r;
 4060              		.loc 3 822 3 view .LVU1105
 4061              		.loc 3 822 11 is_stmt 0 view .LVU1106
 4062 0000 00F55040 		add	r0, r0, #53248
 4063              	.LVL300:
 4064              		.loc 3 822 11 view .LVU1107
 4065 0004 80ED860A 		vstr.32	s0, [r0, #536]
 823:GrannyChordApp.cpp ****   rgb2_[1]= g;
 4066              		.loc 3 823 3 is_stmt 1 view .LVU1108
 4067              		.loc 3 823 11 is_stmt 0 view .LVU1109
 4068 0008 C0ED870A 		vstr.32	s1, [r0, #540]
 824:GrannyChordApp.cpp ****   rgb2_[2]= b;
 4069              		.loc 3 824 3 is_stmt 1 view .LVU1110
 4070              		.loc 3 824 11 is_stmt 0 view .LVU1111
 4071 000c 80ED881A 		vstr.32	s2, [r0, #544]
ARM GAS  /var/folders/2p/02m_5p7958535cp2tpgps0400000gn/T//ccAOujCh.s 			page 120


 825:GrannyChordApp.cpp **** }
 4072              		.loc 3 825 1 view .LVU1112
 4073 0010 7047     		bx	lr
 4074              		.cfi_endproc
 4075              	.LFE4952:
 4077              		.section	.text._ZN14GrannyChordApp15SetLed1AppStateEv,"ax",%progbits
 4078              		.align	1
 4079              		.global	_ZN14GrannyChordApp15SetLed1AppStateEv
 4080              		.syntax unified
 4081              		.thumb
 4082              		.thumb_func
 4084              	_ZN14GrannyChordApp15SetLed1AppStateEv:
 4085              	.LVL301:
 4086              	.LFB4953:
 826:GrannyChordApp.cpp **** 
 827:GrannyChordApp.cpp **** /// @brief sets led colours based on app state
 828:GrannyChordApp.cpp **** void GrannyChordApp::SetLed1AppState(){
 4087              		.loc 3 828 39 is_stmt 1 view -0
 4088              		.cfi_startproc
 4089              		@ args = 0, pretend = 0, frame = 0
 4090              		@ frame_needed = 0, uses_anonymous_args = 0
 829:GrannyChordApp.cpp ****   switch(curr_state_){
 4091              		.loc 3 829 3 view .LVU1114
 828:GrannyChordApp.cpp ****   switch(curr_state_){
 4092              		.loc 3 828 39 is_stmt 0 view .LVU1115
 4093 0000 38B5     		push	{r3, r4, r5, lr}
 4094              		.cfi_def_cfa_offset 16
 4095              		.cfi_offset 3, -16
 4096              		.cfi_offset 4, -12
 4097              		.cfi_offset 5, -8
 4098              		.cfi_offset 14, -4
 4099              		.loc 3 829 3 view .LVU1116
 4100 0002 D0F87832 		ldr	r3, [r0, #632]
 828:GrannyChordApp.cpp ****   switch(curr_state_){
 4101              		.loc 3 828 39 view .LVU1117
 4102 0006 0546     		mov	r5, r0
 4103 0008 00F55044 		add	r4, r0, #53248
 4104              		.loc 3 829 3 view .LVU1118
 4105 000c 052B     		cmp	r3, #5
 4106 000e 0CD8     		bhi	.L188
 4107 0010 DFE803F0 		tbb	[pc, r3]
 4108              	.L190:
 4109 0014 03       		.byte	(.L194-.L190)/2
 4110 0015 1A       		.byte	(.L193-.L190)/2
 4111 0016 21       		.byte	(.L192-.L190)/2
 4112 0017 28       		.byte	(.L191-.L190)/2
 4113 0018 2F       		.byte	(.L189-.L190)/2
 4114 0019 2F       		.byte	(.L189-.L190)/2
 4115              		.p2align 1
 4116              	.L194:
 830:GrannyChordApp.cpp ****     case AppState::SelectFile:
 4117              		.loc 3 830 5 is_stmt 1 view .LVU1119
 831:GrannyChordApp.cpp ****       SetRgb1(0, 0, 0.7f); /* blue ? */
 4118              		.loc 3 831 7 view .LVU1120
 4119              	.LVL302:
 4120              	.LBB622:
 4121              	.LBI622:
ARM GAS  /var/folders/2p/02m_5p7958535cp2tpgps0400000gn/T//ccAOujCh.s 			page 121


 814:GrannyChordApp.cpp ****   rgb1_[0]= r;
 4122              		.loc 3 814 6 view .LVU1121
 4123              	.LBB623:
 815:GrannyChordApp.cpp ****   rgb1_[1]= g;
 4124              		.loc 3 815 3 view .LVU1122
 815:GrannyChordApp.cpp ****   rgb1_[1]= g;
 4125              		.loc 3 815 11 is_stmt 0 view .LVU1123
 4126 001a 0023     		movs	r3, #0
 4127 001c C4F80C32 		str	r3, [r4, #524]	@ float
 816:GrannyChordApp.cpp ****   rgb1_[2]= b;
 4128              		.loc 3 816 3 is_stmt 1 view .LVU1124
 816:GrannyChordApp.cpp ****   rgb1_[2]= b;
 4129              		.loc 3 816 11 is_stmt 0 view .LVU1125
 4130 0020 C4F81032 		str	r3, [r4, #528]	@ float
 817:GrannyChordApp.cpp **** }
 4131              		.loc 3 817 3 is_stmt 1 view .LVU1126
 817:GrannyChordApp.cpp **** }
 4132              		.loc 3 817 11 is_stmt 0 view .LVU1127
 4133 0024 1A4B     		ldr	r3, .L200
 4134              	.LVL303:
 4135              	.L199:
 817:GrannyChordApp.cpp **** }
 4136              		.loc 3 817 11 view .LVU1128
 4137              	.LBE623:
 4138              	.LBE622:
 4139              	.LBB624:
 4140              	.LBB625:
 817:GrannyChordApp.cpp **** }
 4141              		.loc 3 817 3 is_stmt 1 view .LVU1129
 817:GrannyChordApp.cpp **** }
 4142              		.loc 3 817 11 is_stmt 0 view .LVU1130
 4143 0026 C4F81432 		str	r3, [r4, #532]	@ float
 4144              	.LVL304:
 4145              	.L188:
 817:GrannyChordApp.cpp **** }
 4146              		.loc 3 817 11 view .LVU1131
 4147              	.LBE625:
 4148              	.LBE624:
 832:GrannyChordApp.cpp ****       break;
 833:GrannyChordApp.cpp ****     case AppState::PlayWAV:
 834:GrannyChordApp.cpp ****       SetRgb1(0, 0.7f, 0.7f); /* cyan */
 835:GrannyChordApp.cpp ****       break;
 836:GrannyChordApp.cpp ****     case AppState::Synthesis:
 837:GrannyChordApp.cpp ****       SetRgb1(0, 0.7f, 0); /* green */
 838:GrannyChordApp.cpp ****       break;
 839:GrannyChordApp.cpp ****     case AppState::RecordIn:
 840:GrannyChordApp.cpp ****       SetRgb1(0.7f,0.7f,0);  /* yellow? */
 841:GrannyChordApp.cpp ****       break;
 842:GrannyChordApp.cpp ****     case AppState::ChordMode:
 843:GrannyChordApp.cpp ****       SetRgb1(0.7f,0,1); /* violet/purple */
 844:GrannyChordApp.cpp ****       // break;
 845:GrannyChordApp.cpp ****     case AppState::Error:
 846:GrannyChordApp.cpp ****       SetRgb1(1, 0, 0); /* red */
 847:GrannyChordApp.cpp ****       pod_.led2.SetRed(1);
 848:GrannyChordApp.cpp ****       break;
 849:GrannyChordApp.cpp ****     default:
 850:GrannyChordApp.cpp ****       break;
ARM GAS  /var/folders/2p/02m_5p7958535cp2tpgps0400000gn/T//ccAOujCh.s 			page 122


 851:GrannyChordApp.cpp ****   }
 852:GrannyChordApp.cpp ****   if (curr_state_ != AppState::Synthesis) SetRgb2(0,0,0); /* turn off led2 */
 4149              		.loc 3 852 3 is_stmt 1 view .LVU1132
 4150 002a D5F87832 		ldr	r3, [r5, #632]
 4151 002e 022B     		cmp	r3, #2
 4152              		.loc 3 852 43 view .LVU1133
 4153              	.LVL305:
 4154              	.LBB627:
 4155              	.LBI627:
 821:GrannyChordApp.cpp ****   rgb2_[0]= r;
 4156              		.loc 3 821 6 view .LVU1134
 4157              	.LBB628:
 822:GrannyChordApp.cpp ****   rgb2_[1]= g;
 4158              		.loc 3 822 3 view .LVU1135
 822:GrannyChordApp.cpp ****   rgb2_[1]= g;
 4159              		.loc 3 822 11 is_stmt 0 view .LVU1136
 4160 0030 1FBF     		itttt	ne
 4161 0032 0023     		movne	r3, #0
 4162 0034 C4F81832 		strne	r3, [r4, #536]	@ float
 823:GrannyChordApp.cpp ****   rgb2_[2]= b;
 4163              		.loc 3 823 3 is_stmt 1 view .LVU1137
 823:GrannyChordApp.cpp ****   rgb2_[2]= b;
 4164              		.loc 3 823 11 is_stmt 0 view .LVU1138
 4165 0038 C4F81C32 		strne	r3, [r4, #540]	@ float
 824:GrannyChordApp.cpp **** }
 4166              		.loc 3 824 3 is_stmt 1 view .LVU1139
 824:GrannyChordApp.cpp **** }
 4167              		.loc 3 824 11 is_stmt 0 view .LVU1140
 4168 003c C4F82032 		strne	r3, [r4, #544]	@ float
 4169              	.LVL306:
 824:GrannyChordApp.cpp **** }
 4170              		.loc 3 824 11 view .LVU1141
 4171              	.LBE628:
 4172              	.LBE627:
 853:GrannyChordApp.cpp ****   led1_flash_count_=0;
 4173              		.loc 3 853 3 is_stmt 1 view .LVU1142
 4174              		.loc 3 853 20 is_stmt 0 view .LVU1143
 4175 0040 0023     		movs	r3, #0
 4176 0042 C4F82432 		str	r3, [r4, #548]
 854:GrannyChordApp.cpp **** }
 4177              		.loc 3 854 1 view .LVU1144
 4178 0046 38BD     		pop	{r3, r4, r5, pc}
 4179              	.LVL307:
 4180              	.L193:
 833:GrannyChordApp.cpp ****       SetRgb1(0, 0.7f, 0.7f); /* cyan */
 4181              		.loc 3 833 5 is_stmt 1 view .LVU1145
 834:GrannyChordApp.cpp ****       break;
 4182              		.loc 3 834 7 view .LVU1146
 4183              	.LBB629:
 4184              	.LBI624:
 814:GrannyChordApp.cpp ****   rgb1_[0]= r;
 4185              		.loc 3 814 6 view .LVU1147
 4186              	.LBB626:
 815:GrannyChordApp.cpp ****   rgb1_[1]= g;
 4187              		.loc 3 815 3 view .LVU1148
 815:GrannyChordApp.cpp ****   rgb1_[1]= g;
 4188              		.loc 3 815 11 is_stmt 0 view .LVU1149
ARM GAS  /var/folders/2p/02m_5p7958535cp2tpgps0400000gn/T//ccAOujCh.s 			page 123


 4189 0048 0023     		movs	r3, #0
 4190 004a C4F80C32 		str	r3, [r4, #524]	@ float
 816:GrannyChordApp.cpp ****   rgb1_[2]= b;
 4191              		.loc 3 816 3 is_stmt 1 view .LVU1150
 816:GrannyChordApp.cpp ****   rgb1_[2]= b;
 4192              		.loc 3 816 11 is_stmt 0 view .LVU1151
 4193 004e 104B     		ldr	r3, .L200
 4194 0050 C4F81032 		str	r3, [r4, #528]	@ float
 4195 0054 E7E7     		b	.L199
 4196              	.LVL308:
 4197              	.L192:
 816:GrannyChordApp.cpp ****   rgb1_[2]= b;
 4198              		.loc 3 816 11 view .LVU1152
 4199              	.LBE626:
 4200              	.LBE629:
 836:GrannyChordApp.cpp ****       SetRgb1(0, 0.7f, 0); /* green */
 4201              		.loc 3 836 5 is_stmt 1 view .LVU1153
 837:GrannyChordApp.cpp ****       break;
 4202              		.loc 3 837 7 view .LVU1154
 4203              	.LBB630:
 4204              	.LBI630:
 814:GrannyChordApp.cpp ****   rgb1_[0]= r;
 4205              		.loc 3 814 6 view .LVU1155
 4206              	.LBB631:
 815:GrannyChordApp.cpp ****   rgb1_[1]= g;
 4207              		.loc 3 815 3 view .LVU1156
 815:GrannyChordApp.cpp ****   rgb1_[1]= g;
 4208              		.loc 3 815 11 is_stmt 0 view .LVU1157
 4209 0056 0023     		movs	r3, #0
 816:GrannyChordApp.cpp ****   rgb1_[2]= b;
 4210              		.loc 3 816 11 view .LVU1158
 4211 0058 0D4A     		ldr	r2, .L200
 815:GrannyChordApp.cpp ****   rgb1_[1]= g;
 4212              		.loc 3 815 11 view .LVU1159
 4213 005a C4F80C32 		str	r3, [r4, #524]	@ float
 816:GrannyChordApp.cpp ****   rgb1_[2]= b;
 4214              		.loc 3 816 3 is_stmt 1 view .LVU1160
 816:GrannyChordApp.cpp ****   rgb1_[2]= b;
 4215              		.loc 3 816 11 is_stmt 0 view .LVU1161
 4216 005e C4F81022 		str	r2, [r4, #528]	@ float
 817:GrannyChordApp.cpp **** }
 4217              		.loc 3 817 3 is_stmt 1 view .LVU1162
 4218 0062 E0E7     		b	.L199
 4219              	.LVL309:
 4220              	.L191:
 817:GrannyChordApp.cpp **** }
 4221              		.loc 3 817 3 is_stmt 0 view .LVU1163
 4222              	.LBE631:
 4223              	.LBE630:
 839:GrannyChordApp.cpp ****       SetRgb1(0.7f,0.7f,0);  /* yellow? */
 4224              		.loc 3 839 5 is_stmt 1 view .LVU1164
 840:GrannyChordApp.cpp ****       break;
 4225              		.loc 3 840 7 view .LVU1165
 4226              	.LBB632:
 4227              	.LBI632:
 814:GrannyChordApp.cpp ****   rgb1_[0]= r;
 4228              		.loc 3 814 6 view .LVU1166
ARM GAS  /var/folders/2p/02m_5p7958535cp2tpgps0400000gn/T//ccAOujCh.s 			page 124


 4229              	.LBB633:
 815:GrannyChordApp.cpp ****   rgb1_[1]= g;
 4230              		.loc 3 815 3 view .LVU1167
 815:GrannyChordApp.cpp ****   rgb1_[1]= g;
 4231              		.loc 3 815 11 is_stmt 0 view .LVU1168
 4232 0064 0A4B     		ldr	r3, .L200
 4233 0066 C4F80C32 		str	r3, [r4, #524]	@ float
 816:GrannyChordApp.cpp ****   rgb1_[2]= b;
 4234              		.loc 3 816 3 is_stmt 1 view .LVU1169
 816:GrannyChordApp.cpp ****   rgb1_[2]= b;
 4235              		.loc 3 816 11 is_stmt 0 view .LVU1170
 4236 006a C4F81032 		str	r3, [r4, #528]	@ float
 817:GrannyChordApp.cpp **** }
 4237              		.loc 3 817 3 is_stmt 1 view .LVU1171
 817:GrannyChordApp.cpp **** }
 4238              		.loc 3 817 11 is_stmt 0 view .LVU1172
 4239 006e 0023     		movs	r3, #0
 4240 0070 D9E7     		b	.L199
 4241              	.LVL310:
 4242              	.L189:
 817:GrannyChordApp.cpp **** }
 4243              		.loc 3 817 11 view .LVU1173
 4244              	.LBE633:
 4245              	.LBE632:
 845:GrannyChordApp.cpp ****       SetRgb1(1, 0, 0); /* red */
 4246              		.loc 3 845 5 is_stmt 1 view .LVU1174
 846:GrannyChordApp.cpp ****       pod_.led2.SetRed(1);
 4247              		.loc 3 846 7 view .LVU1175
 4248              	.LBB634:
 4249              	.LBI634:
 814:GrannyChordApp.cpp ****   rgb1_[0]= r;
 4250              		.loc 3 814 6 view .LVU1176
 4251              	.LBB635:
 815:GrannyChordApp.cpp ****   rgb1_[1]= g;
 4252              		.loc 3 815 3 view .LVU1177
 815:GrannyChordApp.cpp ****   rgb1_[1]= g;
 4253              		.loc 3 815 11 is_stmt 0 view .LVU1178
 4254 0072 B7EE000A 		vmov.f32	s0, #1.0e+0
 816:GrannyChordApp.cpp ****   rgb1_[2]= b;
 4255              		.loc 3 816 11 view .LVU1179
 4256 0076 0023     		movs	r3, #0
 4257              	.LBE635:
 4258              	.LBE634:
 847:GrannyChordApp.cpp ****       break;
 4259              		.loc 3 847 23 view .LVU1180
 4260 0078 C069     		ldr	r0, [r0, #28]
 4261              	.LVL311:
 4262              	.LBB638:
 4263              	.LBB636:
 816:GrannyChordApp.cpp ****   rgb1_[2]= b;
 4264              		.loc 3 816 11 view .LVU1181
 4265 007a C4F81032 		str	r3, [r4, #528]	@ float
 4266              	.LBE636:
 4267              	.LBE638:
 847:GrannyChordApp.cpp ****       break;
 4268              		.loc 3 847 23 view .LVU1182
 4269 007e 00F59670 		add	r0, r0, #300
ARM GAS  /var/folders/2p/02m_5p7958535cp2tpgps0400000gn/T//ccAOujCh.s 			page 125


 4270              	.LBB639:
 4271              	.LBB637:
 815:GrannyChordApp.cpp ****   rgb1_[1]= g;
 4272              		.loc 3 815 11 view .LVU1183
 4273 0082 84ED830A 		vstr.32	s0, [r4, #524]
 816:GrannyChordApp.cpp ****   rgb1_[2]= b;
 4274              		.loc 3 816 3 is_stmt 1 view .LVU1184
 817:GrannyChordApp.cpp **** }
 4275              		.loc 3 817 3 view .LVU1185
 817:GrannyChordApp.cpp **** }
 4276              		.loc 3 817 11 is_stmt 0 view .LVU1186
 4277 0086 C4F81432 		str	r3, [r4, #532]	@ float
 4278              	.LVL312:
 817:GrannyChordApp.cpp **** }
 4279              		.loc 3 817 11 view .LVU1187
 4280              	.LBE637:
 4281              	.LBE639:
 847:GrannyChordApp.cpp ****       break;
 4282              		.loc 3 847 7 is_stmt 1 view .LVU1188
 847:GrannyChordApp.cpp ****       break;
 4283              		.loc 3 847 23 is_stmt 0 view .LVU1189
 4284 008a FFF7FEFF 		bl	_ZN5daisy6RgbLed6SetRedEf
 4285              	.LVL313:
 848:GrannyChordApp.cpp ****     default:
 4286              		.loc 3 848 7 is_stmt 1 view .LVU1190
 4287 008e CCE7     		b	.L188
 4288              	.L201:
 4289              		.align	2
 4290              	.L200:
 4291 0090 3333333F 		.word	1060320051
 4292              		.cfi_endproc
 4293              	.LFE4953:
 4295              		.section	.text._ZN14GrannyChordApp10SetupTimerEv,"ax",%progbits
 4296              		.align	1
 4297              		.global	_ZN14GrannyChordApp10SetupTimerEv
 4298              		.syntax unified
 4299              		.thumb
 4300              		.thumb_func
 4302              	_ZN14GrannyChordApp10SetupTimerEv:
 4303              	.LVL314:
 4304              	.LFB4949:
 776:GrannyChordApp.cpp ****   TimerHandle::Config cfg;
 4305              		.loc 3 776 34 view -0
 4306              		.cfi_startproc
 4307              		@ args = 0, pretend = 0, frame = 16
 4308              		@ frame_needed = 0, uses_anonymous_args = 0
 777:GrannyChordApp.cpp ****   cfg.periph = TimerHandle::Config::Peripheral::TIM_5;
 4309              		.loc 3 777 3 view .LVU1192
 776:GrannyChordApp.cpp ****   TimerHandle::Config cfg;
 4310              		.loc 3 776 34 is_stmt 0 view .LVU1193
 4311 0000 7FB5     		push	{r0, r1, r2, r3, r4, r5, r6, lr}
 4312              		.cfi_def_cfa_offset 32
 4313              		.cfi_offset 4, -16
 4314              		.cfi_offset 5, -12
 4315              		.cfi_offset 6, -8
 4316              		.cfi_offset 14, -4
 4317              	.LVL315:
ARM GAS  /var/folders/2p/02m_5p7958535cp2tpgps0400000gn/T//ccAOujCh.s 			page 126


 4318              	.LBB640:
 4319              	.LBI640:
 4320              		.file 15 "../libDaisy/src/per/tim.h"
   1:../libDaisy/src/per/tim.h **** #pragma once
   2:../libDaisy/src/per/tim.h **** #ifndef DSY_TIM_H
   3:../libDaisy/src/per/tim.h **** #define DSY_TIM_H
   4:../libDaisy/src/per/tim.h **** 
   5:../libDaisy/src/per/tim.h **** #include <cstdint>
   6:../libDaisy/src/per/tim.h **** 
   7:../libDaisy/src/per/tim.h **** namespace daisy
   8:../libDaisy/src/per/tim.h **** {
   9:../libDaisy/src/per/tim.h **** /** @brief Hardare timer peripheral support.
  10:../libDaisy/src/per/tim.h ****  ** 
  11:../libDaisy/src/per/tim.h ****  ** Supports general-function TIM peripherals:
  12:../libDaisy/src/per/tim.h ****  ** - TIM2, TIM3, TIM4, TIM5
  13:../libDaisy/src/per/tim.h ****  **
  14:../libDaisy/src/per/tim.h ****  ** DaisySeed, and many internal peripherals utilize TIM2 for timing/delay purposes.
  15:../libDaisy/src/per/tim.h ****  ** It is configured to be at the maximum frequency: typically 200MHz or 240MHz (boost) 
  16:../libDaisy/src/per/tim.h ****  ** for measuring/delaying for very short periods. 
  17:../libDaisy/src/per/tim.h ****  **
  18:../libDaisy/src/per/tim.h ****  ** The GetUs/GetMs functions are available for convenience (and backwards compatibility),
  19:../libDaisy/src/per/tim.h ****  ** but to avoid wrapping errors on math when doing time-delta calculations, using ticks is 
  20:../libDaisy/src/per/tim.h ****  ** recommended. The data can be converted to the final time-base after getting the difference in t
  21:../libDaisy/src/per/tim.h ****  ** (Using GetFreq() can be used for these time-base calculations).
  22:../libDaisy/src/per/tim.h ****  **
  23:../libDaisy/src/per/tim.h ****  ** User callbacks can be set, and changed at any point during operation. However,
  24:../libDaisy/src/per/tim.h ****  ** the Config::enable_irq must be set to true when initializing for the interrupts
  25:../libDaisy/src/per/tim.h ****  ** to turn on and function.
  26:../libDaisy/src/per/tim.h ****  **
  27:../libDaisy/src/per/tim.h ****  ** @todo Fix issues with realtime getters, and wrapping of the timer(s).
  28:../libDaisy/src/per/tim.h ****  **     - This very noticeable with default settings for the 16-bit counters.
  29:../libDaisy/src/per/tim.h ****  ** @todo Other General purpose timers
  30:../libDaisy/src/per/tim.h ****  ** @todo Non-internal clock sources
  31:../libDaisy/src/per/tim.h ****  ** @todo Use of the four-tim channels per tim
  32:../libDaisy/src/per/tim.h ****  **     - PWM, etc.
  33:../libDaisy/src/per/tim.h ****  **     - InputCapture/OutputCompare, etc.
  34:../libDaisy/src/per/tim.h ****  ** @todo HRTIM
  35:../libDaisy/src/per/tim.h ****  ** @todo Advanced timers (TIM1/TIM8)
  36:../libDaisy/src/per/tim.h ****  ** */
  37:../libDaisy/src/per/tim.h **** class TimerHandle
  38:../libDaisy/src/per/tim.h **** {
  39:../libDaisy/src/per/tim.h ****   public:
  40:../libDaisy/src/per/tim.h ****     /** @brief Configuration struct for the Peripheral
  41:../libDaisy/src/per/tim.h ****      *  @note These settings are used during initialization
  42:../libDaisy/src/per/tim.h ****      *   and changing them afterwards may not have the desired effect.
  43:../libDaisy/src/per/tim.h ****      */
  44:../libDaisy/src/per/tim.h ****     struct Config
  45:../libDaisy/src/per/tim.h ****     {
  46:../libDaisy/src/per/tim.h ****         /** @brief Hardware Timer to configure, and use. */
  47:../libDaisy/src/per/tim.h ****         enum class Peripheral
  48:../libDaisy/src/per/tim.h ****         {
  49:../libDaisy/src/per/tim.h ****             TIM_2 = 0, /**< 32-bit counter */
  50:../libDaisy/src/per/tim.h ****             TIM_3,     /**< 16-bit counter */
  51:../libDaisy/src/per/tim.h ****             TIM_4,     /**< 16-bit counter */
  52:../libDaisy/src/per/tim.h ****             TIM_5,     /**< 32-bit counter*/
  53:../libDaisy/src/per/tim.h ****         };
  54:../libDaisy/src/per/tim.h **** 
ARM GAS  /var/folders/2p/02m_5p7958535cp2tpgps0400000gn/T//ccAOujCh.s 			page 127


  55:../libDaisy/src/per/tim.h ****         /** @brief Direction of the auto-reload counter. 
  56:../libDaisy/src/per/tim.h ****          ** @todo Add support for the various  
  57:../libDaisy/src/per/tim.h ****          ** versions of Up/Down counters.
  58:../libDaisy/src/per/tim.h ****          ** */
  59:../libDaisy/src/per/tim.h ****         enum class CounterDir
  60:../libDaisy/src/per/tim.h ****         {
  61:../libDaisy/src/per/tim.h ****             UP = 0,
  62:../libDaisy/src/per/tim.h ****             DOWN,
  63:../libDaisy/src/per/tim.h ****         };
  64:../libDaisy/src/per/tim.h **** 
  65:../libDaisy/src/per/tim.h ****         Peripheral periph; /**< Hardware Peripheral */
  66:../libDaisy/src/per/tim.h ****         CounterDir dir;    /**< Counter direction */
  67:../libDaisy/src/per/tim.h **** 
  68:../libDaisy/src/per/tim.h ****         /** @brief period in ticks at TIM frequency that counter will reset based on dir
  69:../libDaisy/src/per/tim.h ****          *  @note TIM3 and TIM4 are both 16-bit timers. So the period maximum is 0xffff.
  70:../libDaisy/src/per/tim.h ****         */
  71:../libDaisy/src/per/tim.h ****         uint32_t period;
  72:../libDaisy/src/per/tim.h ****         bool     enable_irq; /**< Enable interrupt for user based callback */
  73:../libDaisy/src/per/tim.h **** 
  74:../libDaisy/src/per/tim.h ****         /* @brief Constructor for default states */
  75:../libDaisy/src/per/tim.h ****         Config()
 4321              		.loc 15 75 9 is_stmt 1 view .LVU1194
 4322              	.LBE640:
 778:GrannyChordApp.cpp ****   cfg.period = 4000;
 4323              		.loc 3 778 14 is_stmt 0 view .LVU1195
 4324 0002 0026     		movs	r6, #0
 4325 0004 0323     		movs	r3, #3
 781:GrannyChordApp.cpp ****   timer_.SetPrescaler(9999);
 4326              		.loc 3 781 14 view .LVU1196
 4327 0006 00F55244 		add	r4, r0, #53760
 776:GrannyChordApp.cpp ****   TimerHandle::Config cfg;
 4328              		.loc 3 776 34 view .LVU1197
 4329 000a 0546     		mov	r5, r0
 781:GrannyChordApp.cpp ****   timer_.SetPrescaler(9999);
 4330              		.loc 3 781 14 view .LVU1198
 4331 000c 6946     		mov	r1, sp
 4332 000e 0834     		adds	r4, r4, #8
 778:GrannyChordApp.cpp ****   cfg.period = 4000;
 4333              		.loc 3 778 14 view .LVU1199
 4334 0010 CDE90036 		strd	r3, r6, [sp]
 779:GrannyChordApp.cpp ****   cfg.enable_irq = true;
 4335              		.loc 3 779 3 is_stmt 1 view .LVU1200
 779:GrannyChordApp.cpp ****   cfg.enable_irq = true;
 4336              		.loc 3 779 14 is_stmt 0 view .LVU1201
 4337 0014 4FF47A63 		mov	r3, #4000
 781:GrannyChordApp.cpp ****   timer_.SetPrescaler(9999);
 4338              		.loc 3 781 14 view .LVU1202
 4339 0018 2046     		mov	r0, r4
 4340              	.LVL316:
 779:GrannyChordApp.cpp ****   cfg.enable_irq = true;
 4341              		.loc 3 779 14 view .LVU1203
 4342 001a 0293     		str	r3, [sp, #8]
 780:GrannyChordApp.cpp ****   timer_.Init(cfg);
 4343              		.loc 3 780 3 is_stmt 1 view .LVU1204
 780:GrannyChordApp.cpp ****   timer_.Init(cfg);
 4344              		.loc 3 780 18 is_stmt 0 view .LVU1205
 4345 001c 0123     		movs	r3, #1
ARM GAS  /var/folders/2p/02m_5p7958535cp2tpgps0400000gn/T//ccAOujCh.s 			page 128


 4346 001e 8DF80C30 		strb	r3, [sp, #12]
 781:GrannyChordApp.cpp ****   timer_.SetPrescaler(9999);
 4347              		.loc 3 781 3 is_stmt 1 view .LVU1206
 781:GrannyChordApp.cpp ****   timer_.SetPrescaler(9999);
 4348              		.loc 3 781 14 is_stmt 0 view .LVU1207
 4349 0022 FFF7FEFF 		bl	_ZN5daisy11TimerHandle4InitERKNS0_6ConfigE
 4350              	.LVL317:
 782:GrannyChordApp.cpp ****   timer_.SetCallback(StaticLedCallback, nullptr);
 4351              		.loc 3 782 3 is_stmt 1 view .LVU1208
 782:GrannyChordApp.cpp ****   timer_.SetCallback(StaticLedCallback, nullptr);
 4352              		.loc 3 782 22 is_stmt 0 view .LVU1209
 4353 0026 42F20F71 		movw	r1, #9999
 4354 002a 2046     		mov	r0, r4
 4355 002c FFF7FEFF 		bl	_ZN5daisy11TimerHandle12SetPrescalerEm
 4356              	.LVL318:
 783:GrannyChordApp.cpp ****   SetLed1AppState();
 4357              		.loc 3 783 3 is_stmt 1 view .LVU1210
 783:GrannyChordApp.cpp ****   SetLed1AppState();
 4358              		.loc 3 783 21 is_stmt 0 view .LVU1211
 4359 0030 3246     		mov	r2, r6
 4360 0032 0649     		ldr	r1, .L203
 4361 0034 2046     		mov	r0, r4
 4362 0036 FFF7FEFF 		bl	_ZN5daisy11TimerHandle11SetCallbackEPFvPvES1_
 4363              	.LVL319:
 784:GrannyChordApp.cpp ****   timer_.Start();
 4364              		.loc 3 784 3 is_stmt 1 view .LVU1212
 784:GrannyChordApp.cpp ****   timer_.Start();
 4365              		.loc 3 784 18 is_stmt 0 view .LVU1213
 4366 003a 2846     		mov	r0, r5
 4367 003c FFF7FEFF 		bl	_ZN14GrannyChordApp15SetLed1AppStateEv
 4368              	.LVL320:
 785:GrannyChordApp.cpp **** }
 4369              		.loc 3 785 3 is_stmt 1 view .LVU1214
 785:GrannyChordApp.cpp **** }
 4370              		.loc 3 785 15 is_stmt 0 view .LVU1215
 4371 0040 2046     		mov	r0, r4
 4372 0042 FFF7FEFF 		bl	_ZN5daisy11TimerHandle5StartEv
 4373              	.LVL321:
 786:GrannyChordApp.cpp **** 
 4374              		.loc 3 786 1 view .LVU1216
 4375 0046 04B0     		add	sp, sp, #16
 4376              		.cfi_def_cfa_offset 16
 4377              	.LVL322:
 786:GrannyChordApp.cpp **** 
 4378              		.loc 3 786 1 view .LVU1217
 4379              		@ sp needed
 4380 0048 70BD     		pop	{r4, r5, r6, pc}
 4381              	.LVL323:
 4382              	.L204:
 786:GrannyChordApp.cpp **** 
 4383              		.loc 3 786 1 view .LVU1218
 4384 004a 00BF     		.align	2
 4385              	.L203:
 4386 004c 00000000 		.word	_ZN14GrannyChordApp17StaticLedCallbackEPv
 4387              		.cfi_endproc
 4388              	.LFE4949:
 4390              		.section	.rodata._ZN14GrannyChordApp17HandleStateChangeEv.str1.1,"aMS",%progbits,1
ARM GAS  /var/folders/2p/02m_5p7958535cp2tpgps0400000gn/T//ccAOujCh.s 			page 129


 4391              	.LC27:
 4392 0000 73746F70 		.ascii	"stopped audio for select file\000"
 4392      70656420 
 4392      61756469 
 4392      6F20666F 
 4392      72207365 
 4393              	.LC28:
 4394 001e 5265636F 		.ascii	"Recording in\000"
 4394      7264696E 
 4394      6720696E 
 4394      00
 4395              	.LC29:
 4396 002b 73746172 		.ascii	"started audiocallback\000"
 4396      74656420 
 4396      61756469 
 4396      6F63616C 
 4396      6C626163 
 4397              		.section	.text._ZN14GrannyChordApp17HandleStateChangeEv,"ax",%progbits
 4398              		.align	1
 4399              		.global	_ZN14GrannyChordApp17HandleStateChangeEv
 4400              		.syntax unified
 4401              		.thumb
 4402              		.thumb_func
 4404              	_ZN14GrannyChordApp17HandleStateChangeEv:
 4405              	.LVL324:
 4406              	.LFB4915:
 103:GrannyChordApp.cpp ****   switch(next_state_){
 4407              		.loc 3 103 41 is_stmt 1 view -0
 4408              		.cfi_startproc
 4409              		@ args = 0, pretend = 0, frame = 0
 4410              		@ frame_needed = 0, uses_anonymous_args = 0
 104:GrannyChordApp.cpp ****     case AppState::SelectFile:
 4411              		.loc 3 104 3 view .LVU1220
 4412 0000 D0F87C32 		ldr	r3, [r0, #636]
 103:GrannyChordApp.cpp ****   switch(next_state_){
 4413              		.loc 3 103 41 is_stmt 0 view .LVU1221
 4414 0004 10B5     		push	{r4, lr}
 4415              		.cfi_def_cfa_offset 8
 4416              		.cfi_offset 4, -8
 4417              		.cfi_offset 14, -4
 103:GrannyChordApp.cpp ****   switch(next_state_){
 4418              		.loc 3 103 41 view .LVU1222
 4419 0006 0446     		mov	r4, r0
 104:GrannyChordApp.cpp ****     case AppState::SelectFile:
 4420              		.loc 3 104 3 view .LVU1223
 4421 0008 052B     		cmp	r3, #5
 4422 000a 21D8     		bhi	.L206
 4423 000c DFE803F0 		tbb	[pc, r3]
 4424              	.L208:
 4425 0010 03       		.byte	(.L212-.L208)/2
 4426 0011 14       		.byte	(.L211-.L208)/2
 4427 0012 18       		.byte	(.L210-.L208)/2
 4428 0013 0D       		.byte	(.L209-.L208)/2
 4429 0014 20       		.byte	(.L206-.L208)/2
 4430 0015 25       		.byte	(.L207-.L208)/2
 4431              		.p2align 1
 4432              	.L212:
ARM GAS  /var/folders/2p/02m_5p7958535cp2tpgps0400000gn/T//ccAOujCh.s 			page 130


 105:GrannyChordApp.cpp ****       pod_.StopAudio();
 4433              		.loc 3 105 5 is_stmt 1 view .LVU1224
 106:GrannyChordApp.cpp ****       DebugPrint(pod_, "stopped audio for select file");
 4434              		.loc 3 106 7 view .LVU1225
 106:GrannyChordApp.cpp ****       DebugPrint(pod_, "stopped audio for select file");
 4435              		.loc 3 106 21 is_stmt 0 view .LVU1226
 4436 0016 C069     		ldr	r0, [r0, #28]
 4437              	.LVL325:
 106:GrannyChordApp.cpp ****       DebugPrint(pod_, "stopped audio for select file");
 4438              		.loc 3 106 21 view .LVU1227
 4439 0018 FFF7FEFF 		bl	_ZN5daisy8DaisyPod9StopAudioEv
 4440              	.LVL326:
 107:GrannyChordApp.cpp ****       curr_state_ = AppState::SelectFile;
 4441              		.loc 3 107 7 is_stmt 1 view .LVU1228
 107:GrannyChordApp.cpp ****       curr_state_ = AppState::SelectFile;
 4442              		.loc 3 107 7 view .LVU1229
 4443              	.LBB641:
 4444              	.LBI641:
 126:../libDaisy/src/daisy_seed.h ****     {
 4445              		.loc 5 126 17 view .LVU1230
 4446              	.LBB642:
 4447              		.loc 5 128 23 is_stmt 0 view .LVU1231
 4448 001c 1048     		ldr	r0, .L214
 4449 001e FFF7FEFF 		bl	_ZN5daisy6LoggerILNS_17LoggerDestinationE1EE9PrintLineEPKcz
 4450              	.LVL327:
 4451              		.loc 5 128 23 view .LVU1232
 4452              	.LBE642:
 4453              	.LBE641:
 108:GrannyChordApp.cpp ****       break; 
 4454              		.loc 3 108 7 is_stmt 1 view .LVU1233
 108:GrannyChordApp.cpp ****       break; 
 4455              		.loc 3 108 19 is_stmt 0 view .LVU1234
 4456 0022 0023     		movs	r3, #0
 4457              	.L213:
 125:GrannyChordApp.cpp ****       break;
 4458              		.loc 3 125 19 view .LVU1235
 4459 0024 C4F87832 		str	r3, [r4, #632]
 126:GrannyChordApp.cpp ****     default: 
 4460              		.loc 3 126 7 is_stmt 1 view .LVU1236
 4461 0028 12E0     		b	.L206
 4462              	.LVL328:
 4463              	.L209:
 110:GrannyChordApp.cpp ****       InitRecordIn();
 4464              		.loc 3 110 5 view .LVU1237
 111:GrannyChordApp.cpp ****       DebugPrint(pod_, "Recording in");
 4465              		.loc 3 111 7 view .LVU1238
 111:GrannyChordApp.cpp ****       DebugPrint(pod_, "Recording in");
 4466              		.loc 3 111 19 is_stmt 0 view .LVU1239
 4467 002a FFF7FEFF 		bl	_ZN14GrannyChordApp12InitRecordInEv
 4468              	.LVL329:
 112:GrannyChordApp.cpp ****       curr_state_ = AppState::RecordIn;  
 4469              		.loc 3 112 7 is_stmt 1 view .LVU1240
 112:GrannyChordApp.cpp ****       curr_state_ = AppState::RecordIn;  
 4470              		.loc 3 112 7 view .LVU1241
 4471              	.LBB643:
 4472              	.LBI643:
 126:../libDaisy/src/daisy_seed.h ****     {
ARM GAS  /var/folders/2p/02m_5p7958535cp2tpgps0400000gn/T//ccAOujCh.s 			page 131


 4473              		.loc 5 126 17 view .LVU1242
 4474              	.LBB644:
 4475              		.loc 5 128 23 is_stmt 0 view .LVU1243
 4476 002e 0D48     		ldr	r0, .L214+4
 4477 0030 FFF7FEFF 		bl	_ZN5daisy6LoggerILNS_17LoggerDestinationE1EE9PrintLineEPKcz
 4478              	.LVL330:
 4479              		.loc 5 128 23 view .LVU1244
 4480              	.LBE644:
 4481              	.LBE643:
 113:GrannyChordApp.cpp ****       break;
 4482              		.loc 3 113 7 is_stmt 1 view .LVU1245
 113:GrannyChordApp.cpp ****       break;
 4483              		.loc 3 113 19 is_stmt 0 view .LVU1246
 4484 0034 0323     		movs	r3, #3
 4485 0036 F5E7     		b	.L213
 4486              	.LVL331:
 4487              	.L211:
 115:GrannyChordApp.cpp ****       InitPlayback(); 
 4488              		.loc 3 115 5 is_stmt 1 view .LVU1247
 116:GrannyChordApp.cpp ****       curr_state_ = AppState::PlayWAV;
 4489              		.loc 3 116 7 view .LVU1248
 116:GrannyChordApp.cpp ****       curr_state_ = AppState::PlayWAV;
 4490              		.loc 3 116 19 is_stmt 0 view .LVU1249
 4491 0038 FFF7FEFF 		bl	_ZN14GrannyChordApp12InitPlaybackEv
 4492              	.LVL332:
 117:GrannyChordApp.cpp ****       break;
 4493              		.loc 3 117 7 is_stmt 1 view .LVU1250
 117:GrannyChordApp.cpp ****       break;
 4494              		.loc 3 117 19 is_stmt 0 view .LVU1251
 4495 003c 0123     		movs	r3, #1
 4496 003e F1E7     		b	.L213
 4497              	.LVL333:
 4498              	.L210:
 119:GrannyChordApp.cpp ****       InitSynth();
 4499              		.loc 3 119 5 is_stmt 1 view .LVU1252
 120:GrannyChordApp.cpp ****       curr_state_ = AppState::Synthesis;
 4500              		.loc 3 120 7 view .LVU1253
 120:GrannyChordApp.cpp ****       curr_state_ = AppState::Synthesis;
 4501              		.loc 3 120 16 is_stmt 0 view .LVU1254
 4502 0040 FFF7FEFF 		bl	_ZN14GrannyChordApp9InitSynthEv
 4503              	.LVL334:
 121:GrannyChordApp.cpp ****       DebugPrint(pod_, "started audiocallback");
 4504              		.loc 3 121 7 is_stmt 1 view .LVU1255
 121:GrannyChordApp.cpp ****       DebugPrint(pod_, "started audiocallback");
 4505              		.loc 3 121 19 is_stmt 0 view .LVU1256
 4506 0044 0223     		movs	r3, #2
 4507              	.LBB645:
 4508              	.LBB646:
 4509              		.loc 5 128 23 view .LVU1257
 4510 0046 0848     		ldr	r0, .L214+8
 4511              	.LBE646:
 4512              	.LBE645:
 121:GrannyChordApp.cpp ****       DebugPrint(pod_, "started audiocallback");
 4513              		.loc 3 121 19 view .LVU1258
 4514 0048 C4F87832 		str	r3, [r4, #632]
 122:GrannyChordApp.cpp ****       break;
 4515              		.loc 3 122 7 is_stmt 1 view .LVU1259
ARM GAS  /var/folders/2p/02m_5p7958535cp2tpgps0400000gn/T//ccAOujCh.s 			page 132


 122:GrannyChordApp.cpp ****       break;
 4516              		.loc 3 122 7 view .LVU1260
 4517              	.LVL335:
 4518              	.LBB648:
 4519              	.LBI645:
 126:../libDaisy/src/daisy_seed.h ****     {
 4520              		.loc 5 126 17 view .LVU1261
 4521              	.LBB647:
 4522              		.loc 5 128 23 is_stmt 0 view .LVU1262
 4523 004c FFF7FEFF 		bl	_ZN5daisy6LoggerILNS_17LoggerDestinationE1EE9PrintLineEPKcz
 4524              	.LVL336:
 4525              	.L206:
 4526              		.loc 5 128 23 view .LVU1263
 4527              	.LBE647:
 4528              	.LBE648:
 130:GrannyChordApp.cpp **** }
 4529              		.loc 3 130 3 is_stmt 1 view .LVU1264
 130:GrannyChordApp.cpp **** }
 4530              		.loc 3 130 18 is_stmt 0 view .LVU1265
 4531 0050 2046     		mov	r0, r4
 131:GrannyChordApp.cpp **** 
 4532              		.loc 3 131 1 view .LVU1266
 4533 0052 BDE81040 		pop	{r4, lr}
 4534              		.cfi_remember_state
 4535              		.cfi_restore 14
 4536              		.cfi_restore 4
 4537              		.cfi_def_cfa_offset 0
 4538              	.LVL337:
 130:GrannyChordApp.cpp **** }
 4539              		.loc 3 130 18 view .LVU1267
 4540 0056 FFF7FEBF 		b	_ZN14GrannyChordApp15SetLed1AppStateEv
 4541              	.LVL338:
 4542              	.L207:
 4543              		.cfi_restore_state
 124:GrannyChordApp.cpp ****       curr_state_ = AppState::Error;
 4544              		.loc 3 124 5 is_stmt 1 view .LVU1268
 125:GrannyChordApp.cpp ****       break;
 4545              		.loc 3 125 7 view .LVU1269
 125:GrannyChordApp.cpp ****       break;
 4546              		.loc 3 125 19 is_stmt 0 view .LVU1270
 4547 005a 0523     		movs	r3, #5
 4548 005c E2E7     		b	.L213
 4549              	.L215:
 4550 005e 00BF     		.align	2
 4551              	.L214:
 4552 0060 00000000 		.word	.LC27
 4553 0064 1E000000 		.word	.LC28
 4554 0068 2B000000 		.word	.LC29
 4555              		.cfi_endproc
 4556              	.LFE4915:
 4558              		.section	.text._ZN14GrannyChordApp16SetLed1SynthModeEv,"ax",%progbits
 4559              		.align	1
 4560              		.global	_ZN14GrannyChordApp16SetLed1SynthModeEv
 4561              		.syntax unified
 4562              		.thumb
 4563              		.thumb_func
 4565              	_ZN14GrannyChordApp16SetLed1SynthModeEv:
ARM GAS  /var/folders/2p/02m_5p7958535cp2tpgps0400000gn/T//ccAOujCh.s 			page 133


 4566              	.LVL339:
 4567              	.LFB4954:
 855:GrannyChordApp.cpp **** 
 856:GrannyChordApp.cpp **** /// @brief sets led 1 colours based on synth mode (regular param controls)
 857:GrannyChordApp.cpp **** void GrannyChordApp::SetLed1SynthMode(){
 4568              		.loc 3 857 40 is_stmt 1 view -0
 4569              		.cfi_startproc
 4570              		@ args = 0, pretend = 0, frame = 0
 4571              		@ frame_needed = 0, uses_anonymous_args = 0
 4572              		@ link register save eliminated.
 858:GrannyChordApp.cpp ****   if (curr_state_ == AppState::Synthesis){
 4573              		.loc 3 858 3 view .LVU1272
 4574 0000 D0F87832 		ldr	r3, [r0, #632]
 4575 0004 022B     		cmp	r3, #2
 4576 0006 00F55043 		add	r3, r0, #53248
 4577 000a 11D1     		bne	.L217
 859:GrannyChordApp.cpp ****     switch(curr_synth_mode_){
 4578              		.loc 3 859 5 view .LVU1273
 4579 000c D0F88022 		ldr	r2, [r0, #640]
 4580 0010 062A     		cmp	r2, #6
 4581 0012 0DD8     		bhi	.L217
 4582 0014 DFE802F0 		tbb	[pc, r2]
 4583              	.L219:
 4584 0018 04       		.byte	(.L222-.L219)/2
 4585 0019 0C       		.byte	(.L217-.L219)/2
 4586 001a 10       		.byte	(.L221-.L219)/2
 4587 001b 0C       		.byte	(.L217-.L219)/2
 4588 001c 18       		.byte	(.L220-.L219)/2
 4589 001d 0C       		.byte	(.L217-.L219)/2
 4590 001e 1F       		.byte	(.L218-.L219)/2
 4591 001f 00       		.p2align 1
 4592              	.L222:
 860:GrannyChordApp.cpp ****       case SynthMode::Size_Position:
 4593              		.loc 3 860 7 view .LVU1274
 861:GrannyChordApp.cpp ****         SetRgb1(0, 0.7f, 0); /* green */
 4594              		.loc 3 861 9 view .LVU1275
 4595              	.LVL340:
 4596              	.LBB649:
 4597              	.LBI649:
 814:GrannyChordApp.cpp ****   rgb1_[0]= r;
 4598              		.loc 3 814 6 view .LVU1276
 4599              	.LBB650:
 815:GrannyChordApp.cpp ****   rgb1_[1]= g;
 4600              		.loc 3 815 3 view .LVU1277
 815:GrannyChordApp.cpp ****   rgb1_[1]= g;
 4601              		.loc 3 815 11 is_stmt 0 view .LVU1278
 4602 0020 0022     		movs	r2, #0
 816:GrannyChordApp.cpp ****   rgb1_[2]= b;
 4603              		.loc 3 816 11 view .LVU1279
 4604 0022 1149     		ldr	r1, .L224
 815:GrannyChordApp.cpp ****   rgb1_[1]= g;
 4605              		.loc 3 815 11 view .LVU1280
 4606 0024 C3F80C22 		str	r2, [r3, #524]	@ float
 816:GrannyChordApp.cpp ****   rgb1_[2]= b;
 4607              		.loc 3 816 3 is_stmt 1 view .LVU1281
 816:GrannyChordApp.cpp ****   rgb1_[2]= b;
 4608              		.loc 3 816 11 is_stmt 0 view .LVU1282
ARM GAS  /var/folders/2p/02m_5p7958535cp2tpgps0400000gn/T//ccAOujCh.s 			page 134


 4609 0028 C3F81012 		str	r1, [r3, #528]	@ float
 817:GrannyChordApp.cpp **** }
 4610              		.loc 3 817 3 is_stmt 1 view .LVU1283
 4611              	.LVL341:
 4612              	.L223:
 817:GrannyChordApp.cpp **** }
 4613              		.loc 3 817 3 is_stmt 0 view .LVU1284
 4614              	.LBE650:
 4615              	.LBE649:
 4616              	.LBB651:
 4617              	.LBB652:
 817:GrannyChordApp.cpp **** }
 4618              		.loc 3 817 11 view .LVU1285
 4619 002c C3F81422 		str	r2, [r3, #532]	@ float
 4620              	.L217:
 4621              	.LBE652:
 4622              	.LBE651:
 862:GrannyChordApp.cpp ****         break;
 863:GrannyChordApp.cpp ****       case SynthMode::Pitch_ActiveGrains:
 864:GrannyChordApp.cpp ****         SetRgb1(0.9f, 0.6f, 0); /* orange */
 865:GrannyChordApp.cpp ****         break;
 866:GrannyChordApp.cpp ****       case SynthMode::Pan_Direction:
 867:GrannyChordApp.cpp ****         SetRgb1(0,0.7f,0.7f); /* cyan */
 868:GrannyChordApp.cpp ****         break;
 869:GrannyChordApp.cpp ****       case SynthMode::Reverb:
 870:GrannyChordApp.cpp ****         SetRgb1(0.8f, 0, 0.7f); /* pink */
 871:GrannyChordApp.cpp ****         break;
 872:GrannyChordApp.cpp ****       default:
 873:GrannyChordApp.cpp ****         break;
 874:GrannyChordApp.cpp ****     }
 875:GrannyChordApp.cpp ****   }
 876:GrannyChordApp.cpp ****   led2_flash_count_=0;
 4623              		.loc 3 876 3 is_stmt 1 view .LVU1286
 4624              		.loc 3 876 20 is_stmt 0 view .LVU1287
 4625 0030 0022     		movs	r2, #0
 4626 0032 C3F82822 		str	r2, [r3, #552]
 877:GrannyChordApp.cpp **** }
 4627              		.loc 3 877 1 view .LVU1288
 4628 0036 7047     		bx	lr
 4629              	.L221:
 863:GrannyChordApp.cpp ****         SetRgb1(0.9f, 0.6f, 0); /* orange */
 4630              		.loc 3 863 7 is_stmt 1 view .LVU1289
 864:GrannyChordApp.cpp ****         break;
 4631              		.loc 3 864 9 view .LVU1290
 4632              	.LVL342:
 4633              	.LBB654:
 4634              	.LBI654:
 814:GrannyChordApp.cpp ****   rgb1_[0]= r;
 4635              		.loc 3 814 6 view .LVU1291
 4636              	.LBB655:
 815:GrannyChordApp.cpp ****   rgb1_[1]= g;
 4637              		.loc 3 815 3 view .LVU1292
 815:GrannyChordApp.cpp ****   rgb1_[1]= g;
 4638              		.loc 3 815 11 is_stmt 0 view .LVU1293
 4639 0038 0C4A     		ldr	r2, .L224+4
 4640 003a C3F80C22 		str	r2, [r3, #524]	@ float
 816:GrannyChordApp.cpp ****   rgb1_[2]= b;
ARM GAS  /var/folders/2p/02m_5p7958535cp2tpgps0400000gn/T//ccAOujCh.s 			page 135


 4641              		.loc 3 816 3 is_stmt 1 view .LVU1294
 816:GrannyChordApp.cpp ****   rgb1_[2]= b;
 4642              		.loc 3 816 11 is_stmt 0 view .LVU1295
 4643 003e 0C4A     		ldr	r2, .L224+8
 4644 0040 C3F81022 		str	r2, [r3, #528]	@ float
 817:GrannyChordApp.cpp **** }
 4645              		.loc 3 817 3 is_stmt 1 view .LVU1296
 817:GrannyChordApp.cpp **** }
 4646              		.loc 3 817 11 is_stmt 0 view .LVU1297
 4647 0044 0022     		movs	r2, #0
 4648 0046 F1E7     		b	.L223
 4649              	.LVL343:
 4650              	.L220:
 817:GrannyChordApp.cpp **** }
 4651              		.loc 3 817 11 view .LVU1298
 4652              	.LBE655:
 4653              	.LBE654:
 866:GrannyChordApp.cpp ****         SetRgb1(0,0.7f,0.7f); /* cyan */
 4654              		.loc 3 866 7 is_stmt 1 view .LVU1299
 867:GrannyChordApp.cpp ****         break;
 4655              		.loc 3 867 9 view .LVU1300
 4656              	.LBB656:
 4657              	.LBI656:
 814:GrannyChordApp.cpp ****   rgb1_[0]= r;
 4658              		.loc 3 814 6 view .LVU1301
 4659              	.LBB657:
 815:GrannyChordApp.cpp ****   rgb1_[1]= g;
 4660              		.loc 3 815 3 view .LVU1302
 815:GrannyChordApp.cpp ****   rgb1_[1]= g;
 4661              		.loc 3 815 11 is_stmt 0 view .LVU1303
 4662 0048 0022     		movs	r2, #0
 4663 004a C3F80C22 		str	r2, [r3, #524]	@ float
 816:GrannyChordApp.cpp ****   rgb1_[2]= b;
 4664              		.loc 3 816 3 is_stmt 1 view .LVU1304
 816:GrannyChordApp.cpp ****   rgb1_[2]= b;
 4665              		.loc 3 816 11 is_stmt 0 view .LVU1305
 4666 004e 064A     		ldr	r2, .L224
 4667 0050 C3F81022 		str	r2, [r3, #528]	@ float
 817:GrannyChordApp.cpp **** }
 4668              		.loc 3 817 3 is_stmt 1 view .LVU1306
 4669 0054 EAE7     		b	.L223
 4670              	.LVL344:
 4671              	.L218:
 817:GrannyChordApp.cpp **** }
 4672              		.loc 3 817 3 is_stmt 0 view .LVU1307
 4673              	.LBE657:
 4674              	.LBE656:
 869:GrannyChordApp.cpp ****         SetRgb1(0.8f, 0, 0.7f); /* pink */
 4675              		.loc 3 869 7 is_stmt 1 view .LVU1308
 870:GrannyChordApp.cpp ****         break;
 4676              		.loc 3 870 9 view .LVU1309
 4677              	.LBB658:
 4678              	.LBI651:
 814:GrannyChordApp.cpp ****   rgb1_[0]= r;
 4679              		.loc 3 814 6 view .LVU1310
 4680              	.LBB653:
 815:GrannyChordApp.cpp ****   rgb1_[1]= g;
ARM GAS  /var/folders/2p/02m_5p7958535cp2tpgps0400000gn/T//ccAOujCh.s 			page 136


 4681              		.loc 3 815 3 view .LVU1311
 815:GrannyChordApp.cpp ****   rgb1_[1]= g;
 4682              		.loc 3 815 11 is_stmt 0 view .LVU1312
 4683 0056 074A     		ldr	r2, .L224+12
 4684 0058 C3F80C22 		str	r2, [r3, #524]	@ float
 816:GrannyChordApp.cpp ****   rgb1_[2]= b;
 4685              		.loc 3 816 3 is_stmt 1 view .LVU1313
 816:GrannyChordApp.cpp ****   rgb1_[2]= b;
 4686              		.loc 3 816 11 is_stmt 0 view .LVU1314
 4687 005c 0022     		movs	r2, #0
 4688 005e C3F81022 		str	r2, [r3, #528]	@ float
 817:GrannyChordApp.cpp **** }
 4689              		.loc 3 817 3 is_stmt 1 view .LVU1315
 817:GrannyChordApp.cpp **** }
 4690              		.loc 3 817 11 is_stmt 0 view .LVU1316
 4691 0062 014A     		ldr	r2, .L224
 4692 0064 E2E7     		b	.L223
 4693              	.L225:
 4694 0066 00BF     		.align	2
 4695              	.L224:
 4696 0068 3333333F 		.word	1060320051
 4697 006c 6666663F 		.word	1063675494
 4698 0070 9A99193F 		.word	1058642330
 4699 0074 CDCC4C3F 		.word	1061997773
 4700              	.LBE653:
 4701              	.LBE658:
 4702              		.cfi_endproc
 4703              	.LFE4954:
 4705              		.section	.text._ZN14GrannyChordApp7SetLed2Ev,"ax",%progbits
 4706              		.align	1
 4707              		.global	_ZN14GrannyChordApp7SetLed2Ev
 4708              		.syntax unified
 4709              		.thumb
 4710              		.thumb_func
 4712              	_ZN14GrannyChordApp7SetLed2Ev:
 4713              	.LVL345:
 4714              	.LFB4955:
 878:GrannyChordApp.cpp ****         // SetRgb2(0.9f,0.9f,0); /* yellow */
 879:GrannyChordApp.cpp **** 
 880:GrannyChordApp.cpp **** /// @brief sets led 2 colours based on synth mode (random, regular or FX)
 881:GrannyChordApp.cpp **** void GrannyChordApp::SetLed2(){
 4715              		.loc 3 881 31 is_stmt 1 view -0
 4716              		.cfi_startproc
 4717              		@ args = 0, pretend = 0, frame = 0
 4718              		@ frame_needed = 0, uses_anonymous_args = 0
 4719              		@ link register save eliminated.
 882:GrannyChordApp.cpp ****   if (curr_state_==AppState::Synthesis){
 4720              		.loc 3 882 3 view .LVU1318
 4721 0000 D0F87832 		ldr	r3, [r0, #632]
 4722 0004 022B     		cmp	r3, #2
 4723 0006 00F55043 		add	r3, r0, #53248
 4724 000a 17D1     		bne	.L227
 883:GrannyChordApp.cpp ****     switch(curr_synth_mode_){
 4725              		.loc 3 883 5 view .LVU1319
 4726 000c D0F88022 		ldr	r2, [r0, #640]
 4727 0010 072A     		cmp	r2, #7
 4728 0012 13D8     		bhi	.L227
ARM GAS  /var/folders/2p/02m_5p7958535cp2tpgps0400000gn/T//ccAOujCh.s 			page 137


 4729 0014 DFE802F0 		tbb	[pc, r2]
 4730              	.L229:
 4731 0018 04       		.byte	(.L230-.L229)/2
 4732 0019 0A       		.byte	(.L232-.L229)/2
 4733 001a 04       		.byte	(.L230-.L229)/2
 4734 001b 16       		.byte	(.L231-.L229)/2
 4735 001c 04       		.byte	(.L230-.L229)/2
 4736 001d 1E       		.byte	(.L228-.L229)/2
 4737 001e 04       		.byte	(.L230-.L229)/2
 4738 001f 1E       		.byte	(.L228-.L229)/2
 4739              		.p2align 1
 4740              	.L230:
 884:GrannyChordApp.cpp ****       case SynthMode::Size_Position:
 4741              		.loc 3 884 7 view .LVU1320
 885:GrannyChordApp.cpp ****       case SynthMode::Pitch_ActiveGrains:
 4742              		.loc 3 885 7 view .LVU1321
 886:GrannyChordApp.cpp ****       case SynthMode::Pan_Direction:
 4743              		.loc 3 886 7 view .LVU1322
 887:GrannyChordApp.cpp ****       case SynthMode::Reverb:
 4744              		.loc 3 887 7 view .LVU1323
 888:GrannyChordApp.cpp ****         SetRgb2(0, 0, 0); /* off in even mode */
 4745              		.loc 3 888 9 view .LVU1324
 4746              	.LVL346:
 4747              	.LBB659:
 4748              	.LBI659:
 821:GrannyChordApp.cpp ****   rgb2_[0]= r;
 4749              		.loc 3 821 6 view .LVU1325
 4750              	.LBB660:
 822:GrannyChordApp.cpp ****   rgb2_[1]= g;
 4751              		.loc 3 822 3 view .LVU1326
 822:GrannyChordApp.cpp ****   rgb2_[1]= g;
 4752              		.loc 3 822 11 is_stmt 0 view .LVU1327
 4753 0020 0022     		movs	r2, #0
 4754 0022 C3F81822 		str	r2, [r3, #536]	@ float
 823:GrannyChordApp.cpp ****   rgb2_[2]= b;
 4755              		.loc 3 823 3 is_stmt 1 view .LVU1328
 4756              	.LVL347:
 4757              	.L234:
 823:GrannyChordApp.cpp ****   rgb2_[2]= b;
 4758              		.loc 3 823 3 is_stmt 0 view .LVU1329
 4759              	.LBE660:
 4760              	.LBE659:
 4761              	.LBB661:
 4762              	.LBB662:
 823:GrannyChordApp.cpp ****   rgb2_[2]= b;
 4763              		.loc 3 823 11 view .LVU1330
 4764 0026 C3F81C22 		str	r2, [r3, #540]	@ float
 4765 002a 05E0     		b	.L233
 4766              	.L232:
 4767              	.LBE662:
 4768              	.LBE661:
 889:GrannyChordApp.cpp ****         break;
 890:GrannyChordApp.cpp ****       case SynthMode::Size_Position_Rnd:
 4769              		.loc 3 890 7 is_stmt 1 view .LVU1331
 891:GrannyChordApp.cpp ****         SetRgb2(0, 0.7f, 0); /* green */
 4770              		.loc 3 891 9 view .LVU1332
 4771              	.LVL348:
ARM GAS  /var/folders/2p/02m_5p7958535cp2tpgps0400000gn/T//ccAOujCh.s 			page 138


 4772              	.LBB665:
 4773              	.LBI665:
 821:GrannyChordApp.cpp ****   rgb2_[0]= r;
 4774              		.loc 3 821 6 view .LVU1333
 4775              	.LBB666:
 822:GrannyChordApp.cpp ****   rgb2_[1]= g;
 4776              		.loc 3 822 3 view .LVU1334
 822:GrannyChordApp.cpp ****   rgb2_[1]= g;
 4777              		.loc 3 822 11 is_stmt 0 view .LVU1335
 4778 002c 0022     		movs	r2, #0
 823:GrannyChordApp.cpp ****   rgb2_[2]= b;
 4779              		.loc 3 823 11 view .LVU1336
 4780 002e 0C49     		ldr	r1, .L235
 822:GrannyChordApp.cpp ****   rgb2_[1]= g;
 4781              		.loc 3 822 11 view .LVU1337
 4782 0030 C3F81822 		str	r2, [r3, #536]	@ float
 823:GrannyChordApp.cpp ****   rgb2_[2]= b;
 4783              		.loc 3 823 3 is_stmt 1 view .LVU1338
 823:GrannyChordApp.cpp ****   rgb2_[2]= b;
 4784              		.loc 3 823 11 is_stmt 0 view .LVU1339
 4785 0034 C3F81C12 		str	r1, [r3, #540]	@ float
 824:GrannyChordApp.cpp **** }
 4786              		.loc 3 824 3 is_stmt 1 view .LVU1340
 4787              	.LVL349:
 4788              	.L233:
 824:GrannyChordApp.cpp **** }
 4789              		.loc 3 824 3 is_stmt 0 view .LVU1341
 4790              	.LBE666:
 4791              	.LBE665:
 4792              	.LBB667:
 4793              	.LBB663:
 824:GrannyChordApp.cpp **** }
 4794              		.loc 3 824 3 is_stmt 1 view .LVU1342
 824:GrannyChordApp.cpp **** }
 4795              		.loc 3 824 11 is_stmt 0 view .LVU1343
 4796 0038 C3F82022 		str	r2, [r3, #544]	@ float
 4797              	.L227:
 4798              	.LBE663:
 4799              	.LBE667:
 892:GrannyChordApp.cpp ****         break;
 893:GrannyChordApp.cpp ****       case SynthMode::Pitch_ActiveGrains_Rnd:
 894:GrannyChordApp.cpp ****         SetRgb2(0.9f, 0.6f, 0); /* orange */
 895:GrannyChordApp.cpp ****         break;
 896:GrannyChordApp.cpp ****       case SynthMode::PanRnd_Chorus:
 897:GrannyChordApp.cpp ****          SetRgb2(0,0.7f,0.7f); /* cyan */
 898:GrannyChordApp.cpp ****         break;
 899:GrannyChordApp.cpp ****       case SynthMode::Filter:
 900:GrannyChordApp.cpp ****         SetRgb2(0,0.7f,0.7f); /* cyan for reverb */
 901:GrannyChordApp.cpp ****         break;
 902:GrannyChordApp.cpp ****       default:
 903:GrannyChordApp.cpp ****         break;
 904:GrannyChordApp.cpp ****     }
 905:GrannyChordApp.cpp ****   }
 906:GrannyChordApp.cpp ****   led2_flash_count_=0;
 4800              		.loc 3 906 3 is_stmt 1 view .LVU1344
 4801              		.loc 3 906 20 is_stmt 0 view .LVU1345
 4802 003c 0022     		movs	r2, #0
ARM GAS  /var/folders/2p/02m_5p7958535cp2tpgps0400000gn/T//ccAOujCh.s 			page 139


 4803 003e C3F82822 		str	r2, [r3, #552]
 907:GrannyChordApp.cpp **** }
 4804              		.loc 3 907 1 view .LVU1346
 4805 0042 7047     		bx	lr
 4806              	.L231:
 893:GrannyChordApp.cpp ****         SetRgb2(0.9f, 0.6f, 0); /* orange */
 4807              		.loc 3 893 7 is_stmt 1 view .LVU1347
 894:GrannyChordApp.cpp ****         break;
 4808              		.loc 3 894 9 view .LVU1348
 4809              	.LVL350:
 4810              	.LBB668:
 4811              	.LBI668:
 821:GrannyChordApp.cpp ****   rgb2_[0]= r;
 4812              		.loc 3 821 6 view .LVU1349
 4813              	.LBB669:
 822:GrannyChordApp.cpp ****   rgb2_[1]= g;
 4814              		.loc 3 822 3 view .LVU1350
 822:GrannyChordApp.cpp ****   rgb2_[1]= g;
 4815              		.loc 3 822 11 is_stmt 0 view .LVU1351
 4816 0044 074A     		ldr	r2, .L235+4
 4817 0046 C3F81822 		str	r2, [r3, #536]	@ float
 823:GrannyChordApp.cpp ****   rgb2_[2]= b;
 4818              		.loc 3 823 3 is_stmt 1 view .LVU1352
 823:GrannyChordApp.cpp ****   rgb2_[2]= b;
 4819              		.loc 3 823 11 is_stmt 0 view .LVU1353
 4820 004a 074A     		ldr	r2, .L235+8
 4821 004c C3F81C22 		str	r2, [r3, #540]	@ float
 824:GrannyChordApp.cpp **** }
 4822              		.loc 3 824 3 is_stmt 1 view .LVU1354
 824:GrannyChordApp.cpp **** }
 4823              		.loc 3 824 11 is_stmt 0 view .LVU1355
 4824 0050 0022     		movs	r2, #0
 4825 0052 F1E7     		b	.L233
 4826              	.LVL351:
 4827              	.L228:
 824:GrannyChordApp.cpp **** }
 4828              		.loc 3 824 11 view .LVU1356
 4829              	.LBE669:
 4830              	.LBE668:
 896:GrannyChordApp.cpp ****          SetRgb2(0,0.7f,0.7f); /* cyan */
 4831              		.loc 3 896 7 is_stmt 1 view .LVU1357
 897:GrannyChordApp.cpp ****         break;
 4832              		.loc 3 897 10 view .LVU1358
 4833              	.LBB670:
 4834              	.LBI661:
 821:GrannyChordApp.cpp ****   rgb2_[0]= r;
 4835              		.loc 3 821 6 view .LVU1359
 4836              	.LBB664:
 822:GrannyChordApp.cpp ****   rgb2_[1]= g;
 4837              		.loc 3 822 3 view .LVU1360
 822:GrannyChordApp.cpp ****   rgb2_[1]= g;
 4838              		.loc 3 822 11 is_stmt 0 view .LVU1361
 4839 0054 0022     		movs	r2, #0
 4840 0056 C3F81822 		str	r2, [r3, #536]	@ float
 823:GrannyChordApp.cpp ****   rgb2_[2]= b;
 4841              		.loc 3 823 3 is_stmt 1 view .LVU1362
 823:GrannyChordApp.cpp ****   rgb2_[2]= b;
ARM GAS  /var/folders/2p/02m_5p7958535cp2tpgps0400000gn/T//ccAOujCh.s 			page 140


 4842              		.loc 3 823 11 is_stmt 0 view .LVU1363
 4843 005a 014A     		ldr	r2, .L235
 4844 005c E3E7     		b	.L234
 4845              	.L236:
 4846 005e 00BF     		.align	2
 4847              	.L235:
 4848 0060 3333333F 		.word	1060320051
 4849 0064 6666663F 		.word	1063675494
 4850 0068 9A99193F 		.word	1058642330
 4851              	.LBE664:
 4852              	.LBE670:
 4853              		.cfi_endproc
 4854              	.LFE4955:
 4856              		.section	.rodata._ZN14GrannyChordApp16UpdateSynthModeAEv.str1.1,"aMS",%progbits,1
 4857              	.LC30:
 4858 0000 6E657874 		.ascii	"next synth mode\000"
 4858      2073796E 
 4858      7468206D 
 4858      6F646500 
 4859              		.section	.text._ZN14GrannyChordApp16UpdateSynthModeAEv,"ax",%progbits
 4860              		.align	1
 4861              		.global	_ZN14GrannyChordApp16UpdateSynthModeAEv
 4862              		.syntax unified
 4863              		.thumb
 4864              		.thumb_func
 4866              	_ZN14GrannyChordApp16UpdateSynthModeAEv:
 4867              	.LVL352:
 4868              	.LFB4925:
 303:GrannyChordApp.cpp ****   DebugPrint(pod_, "next synth mode");
 4869              		.loc 3 303 40 is_stmt 1 view -0
 4870              		.cfi_startproc
 4871              		@ args = 0, pretend = 0, frame = 0
 4872              		@ frame_needed = 0, uses_anonymous_args = 0
 304:GrannyChordApp.cpp ****   int mode_idx = static_cast<int>(curr_synth_mode_);
 4873              		.loc 3 304 3 view .LVU1365
 304:GrannyChordApp.cpp ****   int mode_idx = static_cast<int>(curr_synth_mode_);
 4874              		.loc 3 304 3 view .LVU1366
 4875              	.LBB671:
 4876              	.LBI671:
 126:../libDaisy/src/daisy_seed.h ****     {
 4877              		.loc 5 126 17 view .LVU1367
 4878              	.LBE671:
 303:GrannyChordApp.cpp ****   DebugPrint(pod_, "next synth mode");
 4879              		.loc 3 303 40 is_stmt 0 view .LVU1368
 4880 0000 10B5     		push	{r4, lr}
 4881              		.cfi_def_cfa_offset 8
 4882              		.cfi_offset 4, -8
 4883              		.cfi_offset 14, -4
 303:GrannyChordApp.cpp ****   DebugPrint(pod_, "next synth mode");
 4884              		.loc 3 303 40 view .LVU1369
 4885 0002 0446     		mov	r4, r0
 4886              	.LBB673:
 4887              	.LBB672:
 4888              		.loc 5 128 23 view .LVU1370
 4889 0004 1048     		ldr	r0, .L240
 4890              	.LVL353:
 4891              		.loc 5 128 23 view .LVU1371
ARM GAS  /var/folders/2p/02m_5p7958535cp2tpgps0400000gn/T//ccAOujCh.s 			page 141


 4892 0006 FFF7FEFF 		bl	_ZN5daisy6LoggerILNS_17LoggerDestinationE1EE9PrintLineEPKcz
 4893              	.LVL354:
 4894              		.loc 5 128 23 view .LVU1372
 4895              	.LBE672:
 4896              	.LBE673:
 305:GrannyChordApp.cpp ****   if (mode_idx%2 == 0){
 4897              		.loc 3 305 3 is_stmt 1 view .LVU1373
 305:GrannyChordApp.cpp ****   if (mode_idx%2 == 0){
 4898              		.loc 3 305 7 is_stmt 0 view .LVU1374
 4899 000a D4F88012 		ldr	r1, [r4, #640]
 4900              	.LVL355:
 306:GrannyChordApp.cpp ****     mode_idx = (mode_idx + 2) % 8;
 4901              		.loc 3 306 3 is_stmt 1 view .LVU1375
 4902 000e CB07     		lsls	r3, r1, #31
 4903 0010 16D4     		bmi	.L238
 307:GrannyChordApp.cpp ****   }
 4904              		.loc 3 307 5 view .LVU1376
 307:GrannyChordApp.cpp ****   }
 4905              		.loc 3 307 26 is_stmt 0 view .LVU1377
 4906 0012 0231     		adds	r1, r1, #2
 4907              	.LVL356:
 307:GrannyChordApp.cpp ****   }
 4908              		.loc 3 307 14 view .LVU1378
 4909 0014 4B42     		rsbs	r3, r1, #0
 4910 0016 01F00701 		and	r1, r1, #7
 4911 001a 03F00703 		and	r3, r3, #7
 4912 001e 58BF     		it	pl
 4913 0020 5942     		rsbpl	r1, r3, #0
 4914              	.LVL357:
 4915              	.L239:
 314:GrannyChordApp.cpp ****   DebugPrintMode(curr_synth_mode_);
 4916              		.loc 3 314 3 is_stmt 1 view .LVU1379
 314:GrannyChordApp.cpp ****   DebugPrintMode(curr_synth_mode_);
 4917              		.loc 3 314 20 is_stmt 0 view .LVU1380
 4918 0022 C4F88012 		str	r1, [r4, #640]
 315:GrannyChordApp.cpp ****   // ResetPassThru();
 4919              		.loc 3 315 3 is_stmt 1 view .LVU1381
 315:GrannyChordApp.cpp ****   // ResetPassThru();
 4920              		.loc 3 315 17 is_stmt 0 view .LVU1382
 4921 0026 2046     		mov	r0, r4
 4922 0028 FFF7FEFF 		bl	_ZN14GrannyChordApp14DebugPrintModeE9SynthMode
 4923              	.LVL358:
 317:GrannyChordApp.cpp ****   SetLed2();
 4924              		.loc 3 317 3 is_stmt 1 view .LVU1383
 317:GrannyChordApp.cpp ****   SetLed2();
 4925              		.loc 3 317 19 is_stmt 0 view .LVU1384
 4926 002c 2046     		mov	r0, r4
 4927 002e FFF7FEFF 		bl	_ZN14GrannyChordApp16SetLed1SynthModeEv
 4928              	.LVL359:
 318:GrannyChordApp.cpp ****   knob1_latched = true;
 4929              		.loc 3 318 3 is_stmt 1 view .LVU1385
 318:GrannyChordApp.cpp ****   knob1_latched = true;
 4930              		.loc 3 318 10 is_stmt 0 view .LVU1386
 4931 0032 FFF7FEFF 		bl	_ZN14GrannyChordApp7SetLed2Ev
 4932              	.LVL360:
 319:GrannyChordApp.cpp ****   knob2_latched = true;
 4933              		.loc 3 319 3 is_stmt 1 view .LVU1387
ARM GAS  /var/folders/2p/02m_5p7958535cp2tpgps0400000gn/T//ccAOujCh.s 			page 142


 320:GrannyChordApp.cpp **** }
 4934              		.loc 3 320 3 view .LVU1388
 319:GrannyChordApp.cpp ****   knob2_latched = true;
 4935              		.loc 3 319 17 is_stmt 0 view .LVU1389
 4936 0036 40F20113 		movw	r3, #257
 4937 003a A4F88832 		strh	r3, [r4, #648]	@ movhi
 321:GrannyChordApp.cpp **** 
 4938              		.loc 3 321 1 view .LVU1390
 4939 003e 10BD     		pop	{r4, pc}
 4940              	.LVL361:
 4941              	.L238:
 311:GrannyChordApp.cpp ****   }
 4942              		.loc 3 311 5 is_stmt 1 view .LVU1391
 311:GrannyChordApp.cpp ****   }
 4943              		.loc 3 311 14 is_stmt 0 view .LVU1392
 4944 0040 81F00101 		eor	r1, r1, #1
 4945              	.LVL362:
 311:GrannyChordApp.cpp ****   }
 4946              		.loc 3 311 14 view .LVU1393
 4947 0044 EDE7     		b	.L239
 4948              	.L241:
 4949 0046 00BF     		.align	2
 4950              	.L240:
 4951 0048 00000000 		.word	.LC30
 4952              		.cfi_endproc
 4953              	.LFE4925:
 4955              		.section	.text._ZN14GrannyChordApp13HandleButton1Ev,"ax",%progbits
 4956              		.align	1
 4957              		.global	_ZN14GrannyChordApp13HandleButton1Ev
 4958              		.syntax unified
 4959              		.thumb
 4960              		.thumb_func
 4962              	_ZN14GrannyChordApp13HandleButton1Ev:
 4963              	.LVL363:
 4964              	.LFB4920:
 273:GrannyChordApp.cpp ****   UpdateSynthModeA();
 4965              		.loc 3 273 37 is_stmt 1 view -0
 4966              		.cfi_startproc
 4967              		@ args = 0, pretend = 0, frame = 0
 4968              		@ frame_needed = 0, uses_anonymous_args = 0
 4969              		@ link register save eliminated.
 274:GrannyChordApp.cpp **** }
 4970              		.loc 3 274 3 view .LVU1395
 274:GrannyChordApp.cpp **** }
 4971              		.loc 3 274 19 is_stmt 0 view .LVU1396
 4972 0000 FFF7FEBF 		b	_ZN14GrannyChordApp16UpdateSynthModeAEv
 4973              	.LVL364:
 274:GrannyChordApp.cpp **** }
 4974              		.loc 3 274 19 view .LVU1397
 4975              		.cfi_endproc
 4976              	.LFE4920:
 4978              		.section	.text._ZN14GrannyChordApp16UpdateSynthModeBEv,"ax",%progbits
 4979              		.align	1
 4980              		.global	_ZN14GrannyChordApp16UpdateSynthModeBEv
 4981              		.syntax unified
 4982              		.thumb
 4983              		.thumb_func
ARM GAS  /var/folders/2p/02m_5p7958535cp2tpgps0400000gn/T//ccAOujCh.s 			page 143


 4985              	_ZN14GrannyChordApp16UpdateSynthModeBEv:
 4986              	.LVL365:
 4987              	.LFB4926:
 326:GrannyChordApp.cpp ****   DebugPrint(pod_, "next synth mode");
 4988              		.loc 3 326 40 is_stmt 1 view -0
 4989              		.cfi_startproc
 4990              		@ args = 0, pretend = 0, frame = 0
 4991              		@ frame_needed = 0, uses_anonymous_args = 0
 327:GrannyChordApp.cpp ****   int mode_idx = static_cast<int>(curr_synth_mode_);
 4992              		.loc 3 327 3 view .LVU1399
 327:GrannyChordApp.cpp ****   int mode_idx = static_cast<int>(curr_synth_mode_);
 4993              		.loc 3 327 3 view .LVU1400
 4994              	.LBB674:
 4995              	.LBI674:
 126:../libDaisy/src/daisy_seed.h ****     {
 4996              		.loc 5 126 17 view .LVU1401
 4997              	.LBE674:
 326:GrannyChordApp.cpp ****   DebugPrint(pod_, "next synth mode");
 4998              		.loc 3 326 40 is_stmt 0 view .LVU1402
 4999 0000 10B5     		push	{r4, lr}
 5000              		.cfi_def_cfa_offset 8
 5001              		.cfi_offset 4, -8
 5002              		.cfi_offset 14, -4
 326:GrannyChordApp.cpp ****   DebugPrint(pod_, "next synth mode");
 5003              		.loc 3 326 40 view .LVU1403
 5004 0002 0446     		mov	r4, r0
 5005              	.LBB676:
 5006              	.LBB675:
 5007              		.loc 5 128 23 view .LVU1404
 5008 0004 1048     		ldr	r0, .L246
 5009              	.LVL366:
 5010              		.loc 5 128 23 view .LVU1405
 5011 0006 FFF7FEFF 		bl	_ZN5daisy6LoggerILNS_17LoggerDestinationE1EE9PrintLineEPKcz
 5012              	.LVL367:
 5013              		.loc 5 128 23 view .LVU1406
 5014              	.LBE675:
 5015              	.LBE676:
 328:GrannyChordApp.cpp ****   if (mode_idx %2 != 0){
 5016              		.loc 3 328 3 is_stmt 1 view .LVU1407
 328:GrannyChordApp.cpp ****   if (mode_idx %2 != 0){
 5017              		.loc 3 328 7 is_stmt 0 view .LVU1408
 5018 000a D4F88012 		ldr	r1, [r4, #640]
 5019              	.LVL368:
 329:GrannyChordApp.cpp ****     mode_idx = (mode_idx + 2) % 8;
 5020              		.loc 3 329 3 is_stmt 1 view .LVU1409
 5021 000e CB07     		lsls	r3, r1, #31
 5022 0010 16D5     		bpl	.L244
 330:GrannyChordApp.cpp ****   }
 5023              		.loc 3 330 5 view .LVU1410
 330:GrannyChordApp.cpp ****   }
 5024              		.loc 3 330 26 is_stmt 0 view .LVU1411
 5025 0012 0231     		adds	r1, r1, #2
 5026              	.LVL369:
 330:GrannyChordApp.cpp ****   }
 5027              		.loc 3 330 14 view .LVU1412
 5028 0014 4B42     		rsbs	r3, r1, #0
 5029 0016 01F00701 		and	r1, r1, #7
ARM GAS  /var/folders/2p/02m_5p7958535cp2tpgps0400000gn/T//ccAOujCh.s 			page 144


 5030 001a 03F00703 		and	r3, r3, #7
 5031 001e 58BF     		it	pl
 5032 0020 5942     		rsbpl	r1, r3, #0
 5033              	.LVL370:
 5034              	.L245:
 336:GrannyChordApp.cpp ****   DebugPrintMode(curr_synth_mode_);
 5035              		.loc 3 336 3 is_stmt 1 view .LVU1413
 336:GrannyChordApp.cpp ****   DebugPrintMode(curr_synth_mode_);
 5036              		.loc 3 336 20 is_stmt 0 view .LVU1414
 5037 0022 C4F88012 		str	r1, [r4, #640]
 337:GrannyChordApp.cpp ****   // ResetPassThru();
 5038              		.loc 3 337 3 is_stmt 1 view .LVU1415
 337:GrannyChordApp.cpp ****   // ResetPassThru();
 5039              		.loc 3 337 17 is_stmt 0 view .LVU1416
 5040 0026 2046     		mov	r0, r4
 5041 0028 FFF7FEFF 		bl	_ZN14GrannyChordApp14DebugPrintModeE9SynthMode
 5042              	.LVL371:
 339:GrannyChordApp.cpp ****   SetLed2();
 5043              		.loc 3 339 3 is_stmt 1 view .LVU1417
 339:GrannyChordApp.cpp ****   SetLed2();
 5044              		.loc 3 339 19 is_stmt 0 view .LVU1418
 5045 002c 2046     		mov	r0, r4
 5046 002e FFF7FEFF 		bl	_ZN14GrannyChordApp16SetLed1SynthModeEv
 5047              	.LVL372:
 340:GrannyChordApp.cpp ****   knob1_latched = true;
 5048              		.loc 3 340 3 is_stmt 1 view .LVU1419
 340:GrannyChordApp.cpp ****   knob1_latched = true;
 5049              		.loc 3 340 10 is_stmt 0 view .LVU1420
 5050 0032 FFF7FEFF 		bl	_ZN14GrannyChordApp7SetLed2Ev
 5051              	.LVL373:
 341:GrannyChordApp.cpp ****   knob2_latched = true;
 5052              		.loc 3 341 3 is_stmt 1 view .LVU1421
 342:GrannyChordApp.cpp **** }
 5053              		.loc 3 342 3 view .LVU1422
 341:GrannyChordApp.cpp ****   knob2_latched = true;
 5054              		.loc 3 341 17 is_stmt 0 view .LVU1423
 5055 0036 40F20113 		movw	r3, #257
 5056 003a A4F88832 		strh	r3, [r4, #648]	@ movhi
 343:GrannyChordApp.cpp **** 
 5057              		.loc 3 343 1 view .LVU1424
 5058 003e 10BD     		pop	{r4, pc}
 5059              	.LVL374:
 5060              	.L244:
 333:GrannyChordApp.cpp ****   }
 5061              		.loc 3 333 5 is_stmt 1 view .LVU1425
 333:GrannyChordApp.cpp ****   }
 5062              		.loc 3 333 14 is_stmt 0 view .LVU1426
 5063 0040 81F00101 		eor	r1, r1, #1
 5064              	.LVL375:
 333:GrannyChordApp.cpp ****   }
 5065              		.loc 3 333 14 view .LVU1427
 5066 0044 EDE7     		b	.L245
 5067              	.L247:
 5068 0046 00BF     		.align	2
 5069              	.L246:
 5070 0048 00000000 		.word	.LC30
 5071              		.cfi_endproc
ARM GAS  /var/folders/2p/02m_5p7958535cp2tpgps0400000gn/T//ccAOujCh.s 			page 145


 5072              	.LFE4926:
 5074              		.section	.text._ZN14GrannyChordApp13HandleButton2Ev,"ax",%progbits
 5075              		.align	1
 5076              		.global	_ZN14GrannyChordApp13HandleButton2Ev
 5077              		.syntax unified
 5078              		.thumb
 5079              		.thumb_func
 5081              	_ZN14GrannyChordApp13HandleButton2Ev:
 5082              	.LVL376:
 5083              	.LFB4921:
 278:GrannyChordApp.cpp ****     UpdateSynthModeB();
 5084              		.loc 3 278 37 is_stmt 1 view -0
 5085              		.cfi_startproc
 5086              		@ args = 0, pretend = 0, frame = 0
 5087              		@ frame_needed = 0, uses_anonymous_args = 0
 5088              		@ link register save eliminated.
 279:GrannyChordApp.cpp **** }
 5089              		.loc 3 279 5 view .LVU1429
 279:GrannyChordApp.cpp **** }
 5090              		.loc 3 279 21 is_stmt 0 view .LVU1430
 5091 0000 FFF7FEBF 		b	_ZN14GrannyChordApp16UpdateSynthModeBEv
 5092              	.LVL377:
 279:GrannyChordApp.cpp **** }
 5093              		.loc 3 279 21 view .LVU1431
 5094              		.cfi_endproc
 5095              	.LFE4921:
 5097              		.section	.text._ZN5daisy9WavWriterILj16384EE8SaveFileEv,"axG",%progbits,_ZN5daisy9WavWriterILj1638
 5098              		.align	1
 5099              		.weak	_ZN5daisy9WavWriterILj16384EE8SaveFileEv
 5100              		.syntax unified
 5101              		.thumb
 5102              		.thumb_func
 5104              	_ZN5daisy9WavWriterILj16384EE8SaveFileEv:
 5105              	.LVL378:
 5106              	.LFB5283:
 142:../libDaisy/src/util/WavWriter.h ****     {
 5107              		.loc 9 142 10 is_stmt 1 view -0
 5108              		.cfi_startproc
 5109              		@ args = 0, pretend = 0, frame = 8
 5110              		@ frame_needed = 0, uses_anonymous_args = 0
 142:../libDaisy/src/util/WavWriter.h ****     {
 5111              		.loc 9 142 10 is_stmt 0 view .LVU1433
 5112 0000 37B5     		push	{r0, r1, r2, r4, r5, lr}
 5113              		.cfi_def_cfa_offset 24
 5114              		.cfi_offset 4, -12
 5115              		.cfi_offset 5, -8
 5116              		.cfi_offset 14, -4
 145:../libDaisy/src/util/WavWriter.h ****         // We _should_ flush whatever's left in the transfer buff
 5117              		.loc 9 145 25 view .LVU1434
 5118 0002 00F50043 		add	r3, r0, #32768
 144:../libDaisy/src/util/WavWriter.h ****         recording_      = false;
 5119              		.loc 9 144 22 view .LVU1435
 5120 0006 0021     		movs	r1, #0
 149:../libDaisy/src/util/WavWriter.h ****         f_write(&fp_, &wavheader_, sizeof(wavheader_), &bw);
 5121              		.loc 9 149 16 view .LVU1436
 5122 0008 00F50045 		add	r5, r0, #32768
 142:../libDaisy/src/util/WavWriter.h ****     {
ARM GAS  /var/folders/2p/02m_5p7958535cp2tpgps0400000gn/T//ccAOujCh.s 			page 146


 5123              		.loc 9 142 10 view .LVU1437
 5124 000c 0446     		mov	r4, r0
 145:../libDaisy/src/util/WavWriter.h ****         // We _should_ flush whatever's left in the transfer buff
 5125              		.loc 9 145 25 view .LVU1438
 5126 000e 83F84410 		strb	r1, [r3, #68]
 5127              	.LVL379:
 5128              	.LBB679:
 5129              	.LBI679:
 182:../libDaisy/src/util/WavWriter.h ****     {
 5130              		.loc 9 182 21 is_stmt 1 view .LVU1439
 5131              	.LBE679:
 149:../libDaisy/src/util/WavWriter.h ****         f_write(&fp_, &wavheader_, sizeof(wavheader_), &bw);
 5132              		.loc 9 149 16 is_stmt 0 view .LVU1440
 5133 0012 4835     		adds	r5, r5, #72
 144:../libDaisy/src/util/WavWriter.h ****         recording_      = false;
 5134              		.loc 9 144 22 view .LVU1441
 5135 0014 0191     		str	r1, [sp, #4]
 5136              	.LBB681:
 5137              	.LBB680:
 185:../libDaisy/src/util/WavWriter.h ****         return 36 + wavheader_.SubCHunk2Size;
 5138              		.loc 9 185 42 view .LVU1442
 5139 0016 D0E90E32 		ldrd	r3, r2, [r0, #56]
 5140 001a 5343     		muls	r3, r2, r3
 5141 001c C26A     		ldr	r2, [r0, #44]
 5142 001e 5343     		muls	r3, r2, r3
 185:../libDaisy/src/util/WavWriter.h ****         return 36 + wavheader_.SubCHunk2Size;
 5143              		.loc 9 185 63 view .LVU1443
 5144 0020 DB08     		lsrs	r3, r3, #3
 185:../libDaisy/src/util/WavWriter.h ****         return 36 + wavheader_.SubCHunk2Size;
 5145              		.loc 9 185 13 view .LVU1444
 5146 0022 8362     		str	r3, [r0, #40]
 5147              	.LVL380:
 186:../libDaisy/src/util/WavWriter.h ****     }
 5148              		.loc 9 186 32 view .LVU1445
 5149 0024 2433     		adds	r3, r3, #36
 5150              	.LBE680:
 5151              	.LBE681:
 148:../libDaisy/src/util/WavWriter.h ****         f_lseek(&fp_, 0);
 5152              		.loc 9 148 29 view .LVU1446
 5153 0026 4360     		str	r3, [r0, #4]
 149:../libDaisy/src/util/WavWriter.h ****         f_write(&fp_, &wavheader_, sizeof(wavheader_), &bw);
 5154              		.loc 9 149 16 view .LVU1447
 5155 0028 2846     		mov	r0, r5
 5156              	.LVL381:
 149:../libDaisy/src/util/WavWriter.h ****         f_write(&fp_, &wavheader_, sizeof(wavheader_), &bw);
 5157              		.loc 9 149 16 view .LVU1448
 5158 002a FFF7FEFF 		bl	f_lseek
 5159              	.LVL382:
 150:../libDaisy/src/util/WavWriter.h ****         f_close(&fp_);
 5160              		.loc 9 150 16 view .LVU1449
 5161 002e 01AB     		add	r3, sp, #4
 5162 0030 2C22     		movs	r2, #44
 5163 0032 2146     		mov	r1, r4
 5164 0034 2846     		mov	r0, r5
 5165 0036 FFF7FEFF 		bl	f_write
 5166              	.LVL383:
 151:../libDaisy/src/util/WavWriter.h ****     }
ARM GAS  /var/folders/2p/02m_5p7958535cp2tpgps0400000gn/T//ccAOujCh.s 			page 147


 5167              		.loc 9 151 16 view .LVU1450
 5168 003a 2846     		mov	r0, r5
 5169 003c FFF7FEFF 		bl	f_close
 5170              	.LVL384:
 152:../libDaisy/src/util/WavWriter.h **** 
 5171              		.loc 9 152 5 view .LVU1451
 5172 0040 03B0     		add	sp, sp, #12
 5173              		.cfi_def_cfa_offset 12
 5174              		@ sp needed
 5175 0042 30BD     		pop	{r4, r5, pc}
 152:../libDaisy/src/util/WavWriter.h **** 
 5176              		.loc 9 152 5 view .LVU1452
 5177              		.cfi_endproc
 5178              	.LFE5283:
 5180              		.section	.text._ZN14GrannyChordApp15FinishRecordingEv,"ax",%progbits
 5181              		.align	1
 5182              		.global	_ZN14GrannyChordApp15FinishRecordingEv
 5183              		.syntax unified
 5184              		.thumb
 5185              		.thumb_func
 5187              	_ZN14GrannyChordApp15FinishRecordingEv:
 5188              	.LVL385:
 5189              	.LFB4942:
 611:GrannyChordApp.cpp ****   sd_writer_.SaveFile();
 5190              		.loc 3 611 39 is_stmt 1 view -0
 5191              		.cfi_startproc
 5192              		@ args = 0, pretend = 0, frame = 0
 5193              		@ frame_needed = 0, uses_anonymous_args = 0
 612:GrannyChordApp.cpp ****   recording_out_=false;
 5194              		.loc 3 612 3 view .LVU1454
 611:GrannyChordApp.cpp ****   sd_writer_.SaveFile();
 5195              		.loc 3 611 39 is_stmt 0 view .LVU1455
 5196 0000 10B5     		push	{r4, lr}
 5197              		.cfi_def_cfa_offset 8
 5198              		.cfi_offset 4, -8
 5199              		.cfi_offset 14, -4
 611:GrannyChordApp.cpp ****   sd_writer_.SaveFile();
 5200              		.loc 3 611 39 view .LVU1456
 5201 0002 0446     		mov	r4, r0
 612:GrannyChordApp.cpp ****   recording_out_=false;
 5202              		.loc 3 612 22 view .LVU1457
 5203 0004 00F59E40 		add	r0, r0, #20224
 5204              	.LVL386:
 612:GrannyChordApp.cpp ****   recording_out_=false;
 5205              		.loc 3 612 22 view .LVU1458
 5206 0008 7030     		adds	r0, r0, #112
 613:GrannyChordApp.cpp **** }
 5207              		.loc 3 613 17 view .LVU1459
 5208 000a 04F55044 		add	r4, r4, #53248
 5209              	.LVL387:
 612:GrannyChordApp.cpp ****   recording_out_=false;
 5210              		.loc 3 612 22 view .LVU1460
 5211 000e FFF7FEFF 		bl	_ZN5daisy9WavWriterILj16384EE8SaveFileEv
 5212              	.LVL388:
 613:GrannyChordApp.cpp **** }
 5213              		.loc 3 613 3 is_stmt 1 view .LVU1461
 613:GrannyChordApp.cpp **** }
ARM GAS  /var/folders/2p/02m_5p7958535cp2tpgps0400000gn/T//ccAOujCh.s 			page 148


 5214              		.loc 3 613 17 is_stmt 0 view .LVU1462
 5215 0012 0023     		movs	r3, #0
 5216 0014 84F8EC31 		strb	r3, [r4, #492]
 614:GrannyChordApp.cpp **** 
 5217              		.loc 3 614 1 view .LVU1463
 5218 0018 10BD     		pop	{r4, pc}
 614:GrannyChordApp.cpp **** 
 5219              		.loc 3 614 1 view .LVU1464
 5220              		.cfi_endproc
 5221              	.LFE4942:
 5223              		.section	.rodata._ZN14GrannyChordApp13ButtonHandlerEv.str1.1,"aMS",%progbits,1
 5224              	.LC31:
 5225 0000 6E6F7720 		.ascii	"now recording out!\000"
 5225      7265636F 
 5225      7264696E 
 5225      67206F75 
 5225      742100
 5226              	.LC32:
 5227 0013 66696E69 		.ascii	"finished recording out: %.2fs\000"
 5227      73686564 
 5227      20726563 
 5227      6F726469 
 5227      6E67206F 
 5228              		.section	.text._ZN14GrannyChordApp13ButtonHandlerEv,"ax",%progbits
 5229              		.align	1
 5230              		.global	_ZN14GrannyChordApp13ButtonHandlerEv
 5231              		.syntax unified
 5232              		.thumb
 5233              		.thumb_func
 5235              	_ZN14GrannyChordApp13ButtonHandlerEv:
 5236              	.LVL389:
 5237              	.LFB4919:
 189:GrannyChordApp.cpp ****   unsigned long time_now = System::GetNow();
 5238              		.loc 3 189 37 is_stmt 1 view -0
 5239              		.cfi_startproc
 5240              		@ args = 0, pretend = 0, frame = 0
 5241              		@ frame_needed = 0, uses_anonymous_args = 0
 190:GrannyChordApp.cpp ****   /* only check button events if there's been a gap between them */
 5242              		.loc 3 190 3 view .LVU1466
 189:GrannyChordApp.cpp ****   unsigned long time_now = System::GetNow();
 5243              		.loc 3 189 37 is_stmt 0 view .LVU1467
 5244 0000 70B5     		push	{r4, r5, r6, lr}
 5245              		.cfi_def_cfa_offset 16
 5246              		.cfi_offset 4, -16
 5247              		.cfi_offset 5, -12
 5248              		.cfi_offset 6, -8
 5249              		.cfi_offset 14, -4
 5250 0002 0546     		mov	r5, r0
 192:GrannyChordApp.cpp ****     return;
 5251              		.loc 3 192 18 view .LVU1468
 5252 0004 05F55044 		add	r4, r5, #53248
 189:GrannyChordApp.cpp ****   unsigned long time_now = System::GetNow();
 5253              		.loc 3 189 37 view .LVU1469
 5254 0008 2DED028B 		vpush.64	{d8}
 5255              		.cfi_def_cfa_offset 24
 5256              		.cfi_offset 80, -24
 5257              		.cfi_offset 81, -20
ARM GAS  /var/folders/2p/02m_5p7958535cp2tpgps0400000gn/T//ccAOujCh.s 			page 149


 190:GrannyChordApp.cpp ****   /* only check button events if there's been a gap between them */
 5258              		.loc 3 190 42 view .LVU1470
 5259 000c FFF7FEFF 		bl	_ZN5daisy6System6GetNowEv
 5260              	.LVL390:
 192:GrannyChordApp.cpp ****     return;
 5261              		.loc 3 192 16 view .LVU1471
 5262 0010 D4F80032 		ldr	r3, [r4, #512]
 190:GrannyChordApp.cpp ****   /* only check button events if there's been a gap between them */
 5263              		.loc 3 190 42 view .LVU1472
 5264 0014 0646     		mov	r6, r0
 5265              	.LVL391:
 192:GrannyChordApp.cpp ****     return;
 5266              		.loc 3 192 3 is_stmt 1 view .LVU1473
 192:GrannyChordApp.cpp ****     return;
 5267              		.loc 3 192 16 is_stmt 0 view .LVU1474
 5268 0016 C31A     		subs	r3, r0, r3
 192:GrannyChordApp.cpp ****     return;
 5269              		.loc 3 192 3 view .LVU1475
 5270 0018 312B     		cmp	r3, #49
 5271 001a 40F28580 		bls	.L251
 197:GrannyChordApp.cpp ****     last_action_time_ = time_now;
 5272              		.loc 3 197 3 is_stmt 1 view .LVU1476
 197:GrannyChordApp.cpp ****     last_action_time_ = time_now;
 5273              		.loc 3 197 7 is_stmt 0 view .LVU1477
 5274 001e E869     		ldr	r0, [r5, #28]
 5275              	.LVL392:
 5276              	.LBB714:
 5277              	.LBI714:
  70:../libDaisy/src/hid/switch.h **** 
 5278              		.loc 1 70 17 is_stmt 1 view .LVU1478
 5279              	.LBB715:
  70:../libDaisy/src/hid/switch.h **** 
 5280              		.loc 1 70 38 view .LVU1479
  70:../libDaisy/src/hid/switch.h **** 
 5281              		.loc 1 70 54 is_stmt 0 view .LVU1480
 5282 0020 90F8B430 		ldrb	r3, [r0, #180]	@ zero_extendqisi2
 5283 0024 43B1     		cbz	r3, .L254
 5284              	.LVL393:
  70:../libDaisy/src/hid/switch.h **** 
 5285              		.loc 1 70 54 view .LVU1481
 5286              	.LBE715:
 5287              	.LBE714:
 197:GrannyChordApp.cpp ****     last_action_time_ = time_now;
 5288              		.loc 3 197 3 view .LVU1482
 5289 0026 90F8BA30 		ldrb	r3, [r0, #186]	@ zero_extendqisi2
 5290 002a 7F2B     		cmp	r3, #127
 198:GrannyChordApp.cpp ****     btn1_long_press_fired_ = false;
 5291              		.loc 3 198 5 is_stmt 1 view .LVU1483
 199:GrannyChordApp.cpp ****   }
 5292              		.loc 3 199 28 is_stmt 0 view .LVU1484
 5293 002c 02BF     		ittt	eq
 5294 002e 0023     		moveq	r3, #0
 198:GrannyChordApp.cpp ****     btn1_long_press_fired_ = false;
 5295              		.loc 3 198 23 view .LVU1485
 5296 0030 C4F80062 		streq	r6, [r4, #512]
 199:GrannyChordApp.cpp ****   }
 5297              		.loc 3 199 5 is_stmt 1 view .LVU1486
ARM GAS  /var/folders/2p/02m_5p7958535cp2tpgps0400000gn/T//ccAOujCh.s 			page 150


 199:GrannyChordApp.cpp ****   }
 5298              		.loc 3 199 28 is_stmt 0 view .LVU1487
 5299 0034 84F80432 		strbeq	r3, [r4, #516]
 5300              	.L254:
 203:GrannyChordApp.cpp ****     float held_time = pod_.button1.TimeHeldMs();
 5301              		.loc 3 203 3 is_stmt 1 view .LVU1488
 5302              	.LVL394:
 5303              	.LBB716:
 5304              	.LBB717:
 5305              	.LBI717:
  79:../libDaisy/src/hid/switch.h **** 
 5306              		.loc 1 79 17 view .LVU1489
 5307              	.LBB718:
  79:../libDaisy/src/hid/switch.h **** 
 5308              		.loc 1 79 35 view .LVU1490
  79:../libDaisy/src/hid/switch.h **** 
 5309              		.loc 1 79 35 is_stmt 0 view .LVU1491
 5310              	.LBE718:
 5311              	.LBE717:
 203:GrannyChordApp.cpp ****     float held_time = pod_.button1.TimeHeldMs();
 5312              		.loc 3 203 3 view .LVU1492
 5313 0038 90F8BA30 		ldrb	r3, [r0, #186]	@ zero_extendqisi2
 5314 003c FF2B     		cmp	r3, #255
 5315 003e 11D1     		bne	.L256
 5316              	.LBB719:
 204:GrannyChordApp.cpp ****     if (held_time > LONG_PRESS_TIME && !btn1_long_press_fired_){
 5317              		.loc 3 204 5 is_stmt 1 view .LVU1493
 204:GrannyChordApp.cpp ****     if (held_time > LONG_PRESS_TIME && !btn1_long_press_fired_){
 5318              		.loc 3 204 46 is_stmt 0 view .LVU1494
 5319 0040 B030     		adds	r0, r0, #176
 5320 0042 FFF7FEFF 		bl	_ZNK5daisy6Switch10TimeHeldMsEv
 5321              	.LVL395:
 205:GrannyChordApp.cpp ****       HandleButton1LongPress();
 5322              		.loc 3 205 5 is_stmt 1 view .LVU1495
 5323 0046 DFED567A 		vldr.32	s15, .L289
 5324 004a B4EEE70A 		vcmpe.f32	s0, s15
 5325 004e F1EE10FA 		vmrs	APSR_nzcv, FPSCR
 5326 0052 07DD     		ble	.L256
 205:GrannyChordApp.cpp ****       HandleButton1LongPress();
 5327              		.loc 3 205 37 is_stmt 0 discriminator 1 view .LVU1496
 5328 0054 94F80432 		ldrb	r3, [r4, #516]	@ zero_extendqisi2
 5329 0058 23B9     		cbnz	r3, .L256
 206:GrannyChordApp.cpp ****       btn1_long_press_fired_ = true;
 5330              		.loc 3 206 7 is_stmt 1 view .LVU1497
 207:GrannyChordApp.cpp ****       last_action_time_ = time_now;
 5331              		.loc 3 207 7 view .LVU1498
 207:GrannyChordApp.cpp ****       last_action_time_ = time_now;
 5332              		.loc 3 207 30 is_stmt 0 view .LVU1499
 5333 005a 0123     		movs	r3, #1
 208:GrannyChordApp.cpp ****     }
 5334              		.loc 3 208 25 view .LVU1500
 5335 005c C4F80062 		str	r6, [r4, #512]
 207:GrannyChordApp.cpp ****       last_action_time_ = time_now;
 5336              		.loc 3 207 30 view .LVU1501
 5337 0060 84F80432 		strb	r3, [r4, #516]
 208:GrannyChordApp.cpp ****     }
 5338              		.loc 3 208 7 is_stmt 1 view .LVU1502
ARM GAS  /var/folders/2p/02m_5p7958535cp2tpgps0400000gn/T//ccAOujCh.s 			page 151


 5339              	.LVL396:
 5340              	.L256:
 208:GrannyChordApp.cpp ****     }
 5341              		.loc 3 208 7 is_stmt 0 view .LVU1503
 5342              	.LBE719:
 5343              	.LBE716:
 213:GrannyChordApp.cpp ****     if (!btn1_long_press_fired_){
 5344              		.loc 3 213 3 is_stmt 1 view .LVU1504
 213:GrannyChordApp.cpp ****     if (!btn1_long_press_fired_){
 5345              		.loc 3 213 7 is_stmt 0 view .LVU1505
 5346 0064 EB69     		ldr	r3, [r5, #28]
 5347              	.LVL397:
 5348              	.LBB720:
 5349              	.LBI720:
  73:../libDaisy/src/hid/switch.h ****     {
 5350              		.loc 1 73 17 is_stmt 1 view .LVU1506
 5351              	.LBB721:
  75:../libDaisy/src/hid/switch.h ****     }
 5352              		.loc 1 75 9 view .LVU1507
  75:../libDaisy/src/hid/switch.h ****     }
 5353              		.loc 1 75 25 is_stmt 0 view .LVU1508
 5354 0066 93F8B420 		ldrb	r2, [r3, #180]	@ zero_extendqisi2
 5355 006a 72B1     		cbz	r2, .L259
 5356              	.LVL398:
  75:../libDaisy/src/hid/switch.h ****     }
 5357              		.loc 1 75 25 view .LVU1509
 5358              	.LBE721:
 5359              	.LBE720:
 213:GrannyChordApp.cpp ****     if (!btn1_long_press_fired_){
 5360              		.loc 3 213 3 view .LVU1510
 5361 006c 93F8BA30 		ldrb	r3, [r3, #186]	@ zero_extendqisi2
 5362 0070 802B     		cmp	r3, #128
 5363 0072 0AD1     		bne	.L259
 214:GrannyChordApp.cpp ****       HandleButton1();
 5364              		.loc 3 214 5 is_stmt 1 view .LVU1511
 5365 0074 94F80432 		ldrb	r3, [r4, #516]	@ zero_extendqisi2
 5366 0078 13B9     		cbnz	r3, .L260
 215:GrannyChordApp.cpp ****     }
 5367              		.loc 3 215 7 view .LVU1512
 5368              	.LVL399:
 5369              	.LBB722:
 5370              	.LBI722:
 273:GrannyChordApp.cpp ****   UpdateSynthModeA();
 5371              		.loc 3 273 6 view .LVU1513
 5372              	.LBB723:
 274:GrannyChordApp.cpp **** }
 5373              		.loc 3 274 3 view .LVU1514
 274:GrannyChordApp.cpp **** }
 5374              		.loc 3 274 19 is_stmt 0 view .LVU1515
 5375 007a 2846     		mov	r0, r5
 5376 007c FFF7FEFF 		bl	_ZN14GrannyChordApp16UpdateSynthModeAEv
 5377              	.LVL400:
 5378              	.L260:
 274:GrannyChordApp.cpp **** }
 5379              		.loc 3 274 19 view .LVU1516
 5380              	.LBE723:
 5381              	.LBE722:
ARM GAS  /var/folders/2p/02m_5p7958535cp2tpgps0400000gn/T//ccAOujCh.s 			page 152


 217:GrannyChordApp.cpp ****     btn1_long_press_fired_ = false;
 5382              		.loc 3 217 5 is_stmt 1 view .LVU1517
 218:GrannyChordApp.cpp ****   }
 5383              		.loc 3 218 28 is_stmt 0 view .LVU1518
 5384 0080 0023     		movs	r3, #0
 217:GrannyChordApp.cpp ****     btn1_long_press_fired_ = false;
 5385              		.loc 3 217 23 view .LVU1519
 5386 0082 C4F80062 		str	r6, [r4, #512]
 218:GrannyChordApp.cpp ****   }
 5387              		.loc 3 218 5 is_stmt 1 view .LVU1520
 218:GrannyChordApp.cpp ****   }
 5388              		.loc 3 218 28 is_stmt 0 view .LVU1521
 5389 0086 84F80432 		strb	r3, [r4, #516]
 5390              	.L259:
 222:GrannyChordApp.cpp ****     last_action_time_ = time_now;
 5391              		.loc 3 222 3 is_stmt 1 view .LVU1522
 222:GrannyChordApp.cpp ****     last_action_time_ = time_now;
 5392              		.loc 3 222 7 is_stmt 0 view .LVU1523
 5393 008a E869     		ldr	r0, [r5, #28]
 5394              	.LVL401:
 5395              	.LBB724:
 5396              	.LBI724:
  70:../libDaisy/src/hid/switch.h **** 
 5397              		.loc 1 70 17 is_stmt 1 view .LVU1524
 5398              	.LBB725:
  70:../libDaisy/src/hid/switch.h **** 
 5399              		.loc 1 70 38 view .LVU1525
  70:../libDaisy/src/hid/switch.h **** 
 5400              		.loc 1 70 54 is_stmt 0 view .LVU1526
 5401 008c 90F8C430 		ldrb	r3, [r0, #196]	@ zero_extendqisi2
 5402 0090 43B1     		cbz	r3, .L261
 5403              	.LVL402:
  70:../libDaisy/src/hid/switch.h **** 
 5404              		.loc 1 70 54 view .LVU1527
 5405              	.LBE725:
 5406              	.LBE724:
 222:GrannyChordApp.cpp ****     last_action_time_ = time_now;
 5407              		.loc 3 222 3 view .LVU1528
 5408 0092 90F8CA30 		ldrb	r3, [r0, #202]	@ zero_extendqisi2
 5409 0096 7F2B     		cmp	r3, #127
 223:GrannyChordApp.cpp ****     btn2_long_press_fired_ = false;
 5410              		.loc 3 223 5 is_stmt 1 view .LVU1529
 224:GrannyChordApp.cpp ****   }
 5411              		.loc 3 224 28 is_stmt 0 view .LVU1530
 5412 0098 02BF     		ittt	eq
 5413 009a 0023     		moveq	r3, #0
 223:GrannyChordApp.cpp ****     btn2_long_press_fired_ = false;
 5414              		.loc 3 223 23 view .LVU1531
 5415 009c C4F80062 		streq	r6, [r4, #512]
 224:GrannyChordApp.cpp ****   }
 5416              		.loc 3 224 5 is_stmt 1 view .LVU1532
 224:GrannyChordApp.cpp ****   }
 5417              		.loc 3 224 28 is_stmt 0 view .LVU1533
 5418 00a0 84F80532 		strbeq	r3, [r4, #517]
 5419              	.L261:
 228:GrannyChordApp.cpp ****     float held_time = pod_.button2.TimeHeldMs();
 5420              		.loc 3 228 3 is_stmt 1 view .LVU1534
ARM GAS  /var/folders/2p/02m_5p7958535cp2tpgps0400000gn/T//ccAOujCh.s 			page 153


 5421              	.LVL403:
 5422              	.LBB726:
 5423              	.LBB727:
 5424              	.LBI727:
  79:../libDaisy/src/hid/switch.h **** 
 5425              		.loc 1 79 17 view .LVU1535
 5426              	.LBB728:
  79:../libDaisy/src/hid/switch.h **** 
 5427              		.loc 1 79 35 view .LVU1536
  79:../libDaisy/src/hid/switch.h **** 
 5428              		.loc 1 79 35 is_stmt 0 view .LVU1537
 5429              	.LBE728:
 5430              	.LBE727:
 228:GrannyChordApp.cpp ****     float held_time = pod_.button2.TimeHeldMs();
 5431              		.loc 3 228 3 view .LVU1538
 5432 00a4 90F8CA30 		ldrb	r3, [r0, #202]	@ zero_extendqisi2
 5433 00a8 FF2B     		cmp	r3, #255
 5434 00aa 11D1     		bne	.L263
 5435              	.LBB729:
 229:GrannyChordApp.cpp ****     if (held_time > LONG_PRESS_TIME && !btn2_long_press_fired_){
 5436              		.loc 3 229 5 is_stmt 1 view .LVU1539
 229:GrannyChordApp.cpp ****     if (held_time > LONG_PRESS_TIME && !btn2_long_press_fired_){
 5437              		.loc 3 229 46 is_stmt 0 view .LVU1540
 5438 00ac C030     		adds	r0, r0, #192
 5439 00ae FFF7FEFF 		bl	_ZNK5daisy6Switch10TimeHeldMsEv
 5440              	.LVL404:
 230:GrannyChordApp.cpp ****       HandleButton2LongPress();
 5441              		.loc 3 230 5 is_stmt 1 view .LVU1541
 5442 00b2 DFED3B7A 		vldr.32	s15, .L289
 5443 00b6 B4EEE70A 		vcmpe.f32	s0, s15
 5444 00ba F1EE10FA 		vmrs	APSR_nzcv, FPSCR
 5445 00be 07DD     		ble	.L263
 230:GrannyChordApp.cpp ****       HandleButton2LongPress();
 5446              		.loc 3 230 37 is_stmt 0 discriminator 1 view .LVU1542
 5447 00c0 94F80532 		ldrb	r3, [r4, #517]	@ zero_extendqisi2
 5448 00c4 23B9     		cbnz	r3, .L263
 231:GrannyChordApp.cpp ****       btn2_long_press_fired_ = true;
 5449              		.loc 3 231 7 is_stmt 1 view .LVU1543
 232:GrannyChordApp.cpp ****       last_action_time_ = time_now;
 5450              		.loc 3 232 7 view .LVU1544
 232:GrannyChordApp.cpp ****       last_action_time_ = time_now;
 5451              		.loc 3 232 30 is_stmt 0 view .LVU1545
 5452 00c6 0123     		movs	r3, #1
 233:GrannyChordApp.cpp ****     }
 5453              		.loc 3 233 25 view .LVU1546
 5454 00c8 C4F80062 		str	r6, [r4, #512]
 232:GrannyChordApp.cpp ****       last_action_time_ = time_now;
 5455              		.loc 3 232 30 view .LVU1547
 5456 00cc 84F80532 		strb	r3, [r4, #517]
 233:GrannyChordApp.cpp ****     }
 5457              		.loc 3 233 7 is_stmt 1 view .LVU1548
 5458              	.LVL405:
 5459              	.L263:
 233:GrannyChordApp.cpp ****     }
 5460              		.loc 3 233 7 is_stmt 0 view .LVU1549
 5461              	.LBE729:
 5462              	.LBE726:
ARM GAS  /var/folders/2p/02m_5p7958535cp2tpgps0400000gn/T//ccAOujCh.s 			page 154


 238:GrannyChordApp.cpp ****     if (!btn2_long_press_fired_){
 5463              		.loc 3 238 3 is_stmt 1 view .LVU1550
 238:GrannyChordApp.cpp ****     if (!btn2_long_press_fired_){
 5464              		.loc 3 238 7 is_stmt 0 view .LVU1551
 5465 00d0 EB69     		ldr	r3, [r5, #28]
 5466              	.LVL406:
 5467              	.LBB730:
 5468              	.LBI730:
  73:../libDaisy/src/hid/switch.h ****     {
 5469              		.loc 1 73 17 is_stmt 1 view .LVU1552
 5470              	.LBB731:
  75:../libDaisy/src/hid/switch.h ****     }
 5471              		.loc 1 75 9 view .LVU1553
  75:../libDaisy/src/hid/switch.h ****     }
 5472              		.loc 1 75 25 is_stmt 0 view .LVU1554
 5473 00d2 93F8C420 		ldrb	r2, [r3, #196]	@ zero_extendqisi2
 5474 00d6 72B1     		cbz	r2, .L266
 5475              	.LVL407:
  75:../libDaisy/src/hid/switch.h ****     }
 5476              		.loc 1 75 25 view .LVU1555
 5477              	.LBE731:
 5478              	.LBE730:
 238:GrannyChordApp.cpp ****     if (!btn2_long_press_fired_){
 5479              		.loc 3 238 3 view .LVU1556
 5480 00d8 93F8CA30 		ldrb	r3, [r3, #202]	@ zero_extendqisi2
 5481 00dc 802B     		cmp	r3, #128
 5482 00de 0AD1     		bne	.L266
 239:GrannyChordApp.cpp ****       HandleButton2();
 5483              		.loc 3 239 5 is_stmt 1 view .LVU1557
 5484 00e0 94F80532 		ldrb	r3, [r4, #517]	@ zero_extendqisi2
 5485 00e4 13B9     		cbnz	r3, .L267
 240:GrannyChordApp.cpp ****     }
 5486              		.loc 3 240 7 view .LVU1558
 5487              	.LVL408:
 5488              	.LBB732:
 5489              	.LBI732:
 278:GrannyChordApp.cpp ****     UpdateSynthModeB();
 5490              		.loc 3 278 6 view .LVU1559
 5491              	.LBB733:
 279:GrannyChordApp.cpp **** }
 5492              		.loc 3 279 5 view .LVU1560
 279:GrannyChordApp.cpp **** }
 5493              		.loc 3 279 21 is_stmt 0 view .LVU1561
 5494 00e6 2846     		mov	r0, r5
 5495 00e8 FFF7FEFF 		bl	_ZN14GrannyChordApp16UpdateSynthModeBEv
 5496              	.LVL409:
 5497              	.L267:
 279:GrannyChordApp.cpp **** }
 5498              		.loc 3 279 21 view .LVU1562
 5499              	.LBE733:
 5500              	.LBE732:
 242:GrannyChordApp.cpp ****     btn2_long_press_fired_ = false;
 5501              		.loc 3 242 5 is_stmt 1 view .LVU1563
 243:GrannyChordApp.cpp ****   }
 5502              		.loc 3 243 28 is_stmt 0 view .LVU1564
 5503 00ec 0023     		movs	r3, #0
 242:GrannyChordApp.cpp ****     btn2_long_press_fired_ = false;
ARM GAS  /var/folders/2p/02m_5p7958535cp2tpgps0400000gn/T//ccAOujCh.s 			page 155


 5504              		.loc 3 242 23 view .LVU1565
 5505 00ee C4F80062 		str	r6, [r4, #512]
 243:GrannyChordApp.cpp ****   }
 5506              		.loc 3 243 5 is_stmt 1 view .LVU1566
 243:GrannyChordApp.cpp ****   }
 5507              		.loc 3 243 28 is_stmt 0 view .LVU1567
 5508 00f2 84F80532 		strb	r3, [r4, #517]
 5509              	.L266:
 247:GrannyChordApp.cpp ****     float heldTime1 = pod_.button1.TimeHeldMs();
 5510              		.loc 3 247 3 is_stmt 1 view .LVU1568
 5511              	.LBB734:
 247:GrannyChordApp.cpp ****     float heldTime1 = pod_.button1.TimeHeldMs();
 5512              		.loc 3 247 7 is_stmt 0 view .LVU1569
 5513 00f6 E869     		ldr	r0, [r5, #28]
 5514              	.LVL410:
 5515              	.LBB735:
 5516              	.LBI735:
  79:../libDaisy/src/hid/switch.h **** 
 5517              		.loc 1 79 17 is_stmt 1 view .LVU1570
 5518              	.LBB736:
  79:../libDaisy/src/hid/switch.h **** 
 5519              		.loc 1 79 35 view .LVU1571
  79:../libDaisy/src/hid/switch.h **** 
 5520              		.loc 1 79 35 is_stmt 0 view .LVU1572
 5521              	.LBE736:
 5522              	.LBE735:
 247:GrannyChordApp.cpp ****     float heldTime1 = pod_.button1.TimeHeldMs();
 5523              		.loc 3 247 30 view .LVU1573
 5524 00f8 90F8BA30 		ldrb	r3, [r0, #186]	@ zero_extendqisi2
 5525 00fc FF2B     		cmp	r3, #255
 5526 00fe 16D1     		bne	.L268
 5527              	.LVL411:
 5528              	.LBB737:
 5529              	.LBI737:
  79:../libDaisy/src/hid/switch.h **** 
 5530              		.loc 1 79 17 is_stmt 1 discriminator 1 view .LVU1574
 5531              	.LBB738:
  79:../libDaisy/src/hid/switch.h **** 
 5532              		.loc 1 79 35 discriminator 1 view .LVU1575
  79:../libDaisy/src/hid/switch.h **** 
 5533              		.loc 1 79 35 is_stmt 0 discriminator 1 view .LVU1576
 5534              	.LBE738:
 5535              	.LBE737:
 247:GrannyChordApp.cpp ****     float heldTime1 = pod_.button1.TimeHeldMs();
 5536              		.loc 3 247 30 discriminator 1 view .LVU1577
 5537 0100 90F8CA30 		ldrb	r3, [r0, #202]	@ zero_extendqisi2
 5538 0104 FF2B     		cmp	r3, #255
 5539 0106 12D1     		bne	.L268
 5540              	.LBB739:
 248:GrannyChordApp.cpp ****     float heldTime2 = pod_.button2.TimeHeldMs();
 5541              		.loc 3 248 5 is_stmt 1 view .LVU1578
 248:GrannyChordApp.cpp ****     float heldTime2 = pod_.button2.TimeHeldMs();
 5542              		.loc 3 248 46 is_stmt 0 view .LVU1579
 5543 0108 B030     		adds	r0, r0, #176
 5544 010a FFF7FEFF 		bl	_ZNK5daisy6Switch10TimeHeldMsEv
 5545              	.LVL412:
 249:GrannyChordApp.cpp ****     if (heldTime1 > LONG_PRESS_TIME &&
ARM GAS  /var/folders/2p/02m_5p7958535cp2tpgps0400000gn/T//ccAOujCh.s 			page 156


 5546              		.loc 3 249 46 view .LVU1580
 5547 010e E869     		ldr	r0, [r5, #28]
 248:GrannyChordApp.cpp ****     float heldTime2 = pod_.button2.TimeHeldMs();
 5548              		.loc 3 248 46 view .LVU1581
 5549 0110 B0EE408A 		vmov.f32	s16, s0
 5550              	.LVL413:
 249:GrannyChordApp.cpp ****     if (heldTime1 > LONG_PRESS_TIME &&
 5551              		.loc 3 249 5 is_stmt 1 view .LVU1582
 249:GrannyChordApp.cpp ****     if (heldTime1 > LONG_PRESS_TIME &&
 5552              		.loc 3 249 46 is_stmt 0 view .LVU1583
 5553 0114 C030     		adds	r0, r0, #192
 5554 0116 FFF7FEFF 		bl	_ZNK5daisy6Switch10TimeHeldMsEv
 5555              	.LVL414:
 250:GrannyChordApp.cpp ****         heldTime2 > LONG_PRESS_TIME &&
 5556              		.loc 3 250 5 is_stmt 1 view .LVU1584
 5557 011a DFED217A 		vldr.32	s15, .L289
 5558 011e B4EEE78A 		vcmpe.f32	s16, s15
 5559 0122 F1EE10FA 		vmrs	APSR_nzcv, FPSCR
 5560 0126 06DC     		bgt	.L269
 5561              	.LVL415:
 5562              	.L251:
 250:GrannyChordApp.cpp ****         heldTime2 > LONG_PRESS_TIME &&
 5563              		.loc 3 250 5 is_stmt 0 view .LVU1585
 5564              	.LBE739:
 5565              	.LBE734:
 270:GrannyChordApp.cpp **** 
 5566              		.loc 3 270 1 view .LVU1586
 5567 0128 BDEC028B 		vldm	sp!, {d8}
 5568              		.cfi_remember_state
 5569              		.cfi_restore 80
 5570              		.cfi_restore 81
 5571              		.cfi_def_cfa_offset 16
 5572 012c 70BD     		pop	{r4, r5, r6, pc}
 5573              	.LVL416:
 5574              	.L268:
 5575              		.cfi_restore_state
 5576              	.LBB755:
 268:GrannyChordApp.cpp ****   }
 5577              		.loc 3 268 5 is_stmt 1 discriminator 4 view .LVU1587
 268:GrannyChordApp.cpp ****   }
 5578              		.loc 3 268 33 is_stmt 0 discriminator 4 view .LVU1588
 5579 012e 0023     		movs	r3, #0
 5580 0130 84F80632 		strb	r3, [r4, #518]
 5581 0134 F8E7     		b	.L251
 5582              	.LVL417:
 5583              	.L269:
 5584              	.LBB754:
 250:GrannyChordApp.cpp ****         heldTime2 > LONG_PRESS_TIME &&
 5585              		.loc 3 250 37 discriminator 1 view .LVU1589
 5586 0136 B4EEE70A 		vcmpe.f32	s0, s15
 5587 013a F1EE10FA 		vmrs	APSR_nzcv, FPSCR
 5588 013e F3DD     		ble	.L251
 251:GrannyChordApp.cpp ****         !both_btns_long_press_fired_) 
 5589              		.loc 3 251 37 view .LVU1590
 5590 0140 94F80632 		ldrb	r3, [r4, #518]	@ zero_extendqisi2
 5591 0144 002B     		cmp	r3, #0
 5592 0146 EFD1     		bne	.L251
ARM GAS  /var/folders/2p/02m_5p7958535cp2tpgps0400000gn/T//ccAOujCh.s 			page 157


 254:GrannyChordApp.cpp ****         recording_out_ = true;
 5593              		.loc 3 254 7 is_stmt 1 view .LVU1591
 5594 0148 94F8EC31 		ldrb	r3, [r4, #492]	@ zero_extendqisi2
 5595 014c 73B9     		cbnz	r3, .L272
 255:GrannyChordApp.cpp ****         DebugPrint(pod_,"now recording out!");
 5596              		.loc 3 255 9 view .LVU1592
 255:GrannyChordApp.cpp ****         DebugPrint(pod_,"now recording out!");
 5597              		.loc 3 255 24 is_stmt 0 view .LVU1593
 5598 014e 0123     		movs	r3, #1
 5599              	.LBB740:
 5600              	.LBB741:
 5601              		.loc 5 128 23 view .LVU1594
 5602 0150 1448     		ldr	r0, .L289+4
 5603              	.LBE741:
 5604              	.LBE740:
 255:GrannyChordApp.cpp ****         DebugPrint(pod_,"now recording out!");
 5605              		.loc 3 255 24 view .LVU1595
 5606 0152 84F8EC31 		strb	r3, [r4, #492]
 256:GrannyChordApp.cpp ****         RecordOutToSD();
 5607              		.loc 3 256 9 is_stmt 1 view .LVU1596
 256:GrannyChordApp.cpp ****         RecordOutToSD();
 5608              		.loc 3 256 9 view .LVU1597
 5609              	.LVL418:
 5610              	.LBB743:
 5611              	.LBI740:
 126:../libDaisy/src/daisy_seed.h ****     {
 5612              		.loc 5 126 17 view .LVU1598
 5613              	.LBB742:
 5614              		.loc 5 128 23 is_stmt 0 view .LVU1599
 5615 0156 FFF7FEFF 		bl	_ZN5daisy6LoggerILNS_17LoggerDestinationE1EE9PrintLineEPKcz
 5616              	.LVL419:
 5617              		.loc 5 128 23 view .LVU1600
 5618              	.LBE742:
 5619              	.LBE743:
 257:GrannyChordApp.cpp ****       } 
 5620              		.loc 3 257 9 is_stmt 1 view .LVU1601
 257:GrannyChordApp.cpp ****       } 
 5621              		.loc 3 257 22 is_stmt 0 view .LVU1602
 5622 015a 2846     		mov	r0, r5
 5623 015c FFF7FEFF 		bl	_ZN14GrannyChordApp13RecordOutToSDEv
 5624              	.LVL420:
 5625              	.L273:
 263:GrannyChordApp.cpp ****       last_action_time_ = time_now;
 5626              		.loc 3 263 7 is_stmt 1 view .LVU1603
 263:GrannyChordApp.cpp ****       last_action_time_ = time_now;
 5627              		.loc 3 263 35 is_stmt 0 view .LVU1604
 5628 0160 0123     		movs	r3, #1
 264:GrannyChordApp.cpp ****     }
 5629              		.loc 3 264 25 view .LVU1605
 5630 0162 C4F80062 		str	r6, [r4, #512]
 263:GrannyChordApp.cpp ****       last_action_time_ = time_now;
 5631              		.loc 3 263 35 view .LVU1606
 5632 0166 84F80632 		strb	r3, [r4, #518]
 264:GrannyChordApp.cpp ****     }
 5633              		.loc 3 264 7 is_stmt 1 view .LVU1607
 5634 016a DDE7     		b	.L251
 5635              	.LVL421:
ARM GAS  /var/folders/2p/02m_5p7958535cp2tpgps0400000gn/T//ccAOujCh.s 			page 158


 5636              	.L272:
 260:GrannyChordApp.cpp ****         FinishRecording();
 5637              		.loc 3 260 9 view .LVU1608
 260:GrannyChordApp.cpp ****         FinishRecording();
 5638              		.loc 3 260 9 view .LVU1609
 5639              	.LBB744:
 5640              	.LBI744:
 175:../libDaisy/src/util/WavWriter.h ****     {
 5641              		.loc 9 175 18 view .LVU1610
 175:../libDaisy/src/util/WavWriter.h ****     {
 5642              		.loc 9 175 18 is_stmt 0 view .LVU1611
 5643              	.LBE744:
 5644              	.LBB747:
 5645              	.LBI747:
 126:../libDaisy/src/daisy_seed.h ****     {
 5646              		.loc 5 126 17 is_stmt 1 view .LVU1612
 5647              	.LBE747:
 5648              	.LBB750:
 5649              	.LBB745:
 177:../libDaisy/src/util/WavWriter.h ****     }
 5650              		.loc 9 177 23 is_stmt 0 view .LVU1613
 5651 016c 05F58043 		add	r3, r5, #16384
 5652              	.LBE745:
 5653              	.LBE750:
 5654              	.LBB751:
 5655              	.LBB748:
 5656              		.loc 5 128 23 view .LVU1614
 5657 0170 0D48     		ldr	r0, .L289+8
 5658              	.LBE748:
 5659              	.LBE751:
 5660              	.LBB752:
 5661              	.LBB746:
 177:../libDaisy/src/util/WavWriter.h ****     }
 5662              		.loc 9 177 16 view .LVU1615
 5663 0172 D3F89C2F 		ldr	r2, [r3, #3996]
 177:../libDaisy/src/util/WavWriter.h ****     }
 5664              		.loc 9 177 48 view .LVU1616
 5665 0176 03F57763 		add	r3, r3, #3952
 177:../libDaisy/src/util/WavWriter.h ****     }
 5666              		.loc 9 177 16 view .LVU1617
 5667 017a 07EE902A 		vmov	s15, r2	@ int
 177:../libDaisy/src/util/WavWriter.h ****     }
 5668              		.loc 9 177 48 view .LVU1618
 5669 017e D3ED0D6A 		vldr.32	s13, [r3, #52]
 177:../libDaisy/src/util/WavWriter.h ****     }
 5670              		.loc 9 177 16 view .LVU1619
 5671 0182 F8EE677A 		vcvt.f32.u32	s15, s15
 177:../libDaisy/src/util/WavWriter.h ****     }
 5672              		.loc 9 177 48 view .LVU1620
 5673 0186 87EEA67A 		vdiv.f32	s14, s15, s13
 5674              	.LBE746:
 5675              	.LBE752:
 5676              	.LBB753:
 5677              	.LBB749:
 5678              		.loc 5 128 23 view .LVU1621
 5679 018a B7EEC77A 		vcvt.f64.f32	d7, s14
 5680 018e 53EC172B 		vmov	r2, r3, d7
ARM GAS  /var/folders/2p/02m_5p7958535cp2tpgps0400000gn/T//ccAOujCh.s 			page 159


 5681 0192 FFF7FEFF 		bl	_ZN5daisy6LoggerILNS_17LoggerDestinationE1EE9PrintLineEPKcz
 5682              	.LVL422:
 5683              		.loc 5 128 23 view .LVU1622
 5684              	.LBE749:
 5685              	.LBE753:
 261:GrannyChordApp.cpp ****       }
 5686              		.loc 3 261 9 is_stmt 1 view .LVU1623
 261:GrannyChordApp.cpp ****       }
 5687              		.loc 3 261 24 is_stmt 0 view .LVU1624
 5688 0196 2846     		mov	r0, r5
 5689 0198 FFF7FEFF 		bl	_ZN14GrannyChordApp15FinishRecordingEv
 5690              	.LVL423:
 5691 019c E0E7     		b	.L273
 5692              	.L290:
 5693 019e 00BF     		.align	2
 5694              	.L289:
 5695 01a0 00007A44 		.word	1148846080
 5696 01a4 00000000 		.word	.LC31
 5697 01a8 13000000 		.word	.LC32
 5698              	.LBE754:
 5699              	.LBE755:
 5700              		.cfi_endproc
 5701              	.LFE4919:
 5703              		.section	.rodata._ZN14GrannyChordApp8UpdateUIEv.str1.1,"aMS",%progbits,1
 5704              	.LC33:
 5705 0000 73776974 		.ascii	"switching states\000"
 5705      6368696E 
 5705      67207374 
 5705      61746573 
 5705      00
 5706              		.section	.text._ZN14GrannyChordApp8UpdateUIEv,"ax",%progbits
 5707              		.align	1
 5708              		.global	_ZN14GrannyChordApp8UpdateUIEv
 5709              		.syntax unified
 5710              		.thumb
 5711              		.thumb_func
 5713              	_ZN14GrannyChordApp8UpdateUIEv:
 5714              	.LVL424:
 5715              	.LFB4914:
  78:GrannyChordApp.cpp ****   pod_.ProcessDigitalControls();
 5716              		.loc 3 78 32 is_stmt 1 view -0
 5717              		.cfi_startproc
 5718              		@ args = 0, pretend = 0, frame = 0
 5719              		@ frame_needed = 0, uses_anonymous_args = 0
  79:GrannyChordApp.cpp **** 
 5720              		.loc 3 79 3 view .LVU1626
  78:GrannyChordApp.cpp ****   pod_.ProcessDigitalControls();
 5721              		.loc 3 78 32 is_stmt 0 view .LVU1627
 5722 0000 10B5     		push	{r4, lr}
 5723              		.cfi_def_cfa_offset 8
 5724              		.cfi_offset 4, -8
 5725              		.cfi_offset 14, -4
  78:GrannyChordApp.cpp ****   pod_.ProcessDigitalControls();
 5726              		.loc 3 78 32 view .LVU1628
 5727 0002 0446     		mov	r4, r0
  79:GrannyChordApp.cpp **** 
 5728              		.loc 3 79 30 view .LVU1629
ARM GAS  /var/folders/2p/02m_5p7958535cp2tpgps0400000gn/T//ccAOujCh.s 			page 160


 5729 0004 C069     		ldr	r0, [r0, #28]
 5730              	.LVL425:
  79:GrannyChordApp.cpp **** 
 5731              		.loc 3 79 30 view .LVU1630
 5732 0006 FFF7FEFF 		bl	_ZN5daisy8DaisyPod22ProcessDigitalControlsEv
 5733              	.LVL426:
  81:GrannyChordApp.cpp ****   else if (pod_.encoder.FallingEdge()) HandleEncoderPressed();
 5734              		.loc 3 81 3 is_stmt 1 view .LVU1631
 5735              	.LBB766:
 5736              	.LBI766:
  43:../libDaisy/src/hid/encoder.h **** 
  44:../libDaisy/src/hid/encoder.h ****     /** Returns true while the encoder is held down.*/
  45:../libDaisy/src/hid/encoder.h ****     inline bool Pressed() const { return sw_.Pressed(); }
  46:../libDaisy/src/hid/encoder.h **** 
  47:../libDaisy/src/hid/encoder.h ****     /** Returns the time in milliseconds that the encoder has been held down. */
  48:../libDaisy/src/hid/encoder.h ****     inline float TimeHeldMs() const { return sw_.TimeHeldMs(); }
 5737              		.loc 7 48 18 view .LVU1632
 5738              	.LBB767:
 5739              		.loc 7 48 39 view .LVU1633
 5740              		.loc 7 48 60 is_stmt 0 view .LVU1634
 5741 000a E069     		ldr	r0, [r4, #28]
 5742 000c 4830     		adds	r0, r0, #72
 5743 000e FFF7FEFF 		bl	_ZNK5daisy6Switch10TimeHeldMsEv
 5744              	.LVL427:
 5745              		.loc 7 48 60 view .LVU1635
 5746              	.LBE767:
 5747              	.LBE766:
  81:GrannyChordApp.cpp ****   else if (pod_.encoder.FallingEdge()) HandleEncoderPressed();
 5748              		.loc 3 81 3 view .LVU1636
 5749 0012 DFED1E7A 		vldr.32	s15, .L309
 5750 0016 B4EEE70A 		vcmpe.f32	s0, s15
 5751 001a F1EE10FA 		vmrs	APSR_nzcv, FPSCR
 5752 001e 26DD     		ble	.L308
  81:GrannyChordApp.cpp ****   else if (pod_.encoder.FallingEdge()) HandleEncoderPressed();
 5753              		.loc 3 81 44 is_stmt 1 discriminator 1 view .LVU1637
  81:GrannyChordApp.cpp ****   else if (pod_.encoder.FallingEdge()) HandleEncoderPressed();
 5754              		.loc 3 81 66 is_stmt 0 discriminator 1 view .LVU1638
 5755 0020 2046     		mov	r0, r4
 5756 0022 FFF7FEFF 		bl	_ZN14GrannyChordApp22HandleEncoderLongPressEv
 5757              	.LVL428:
 5758              	.L294:
  84:GrannyChordApp.cpp ****     ButtonHandler();
 5759              		.loc 3 84 3 is_stmt 1 view .LVU1639
 5760 0026 D4F87832 		ldr	r3, [r4, #632]
 5761 002a 022B     		cmp	r3, #2
 5762 002c 02D1     		bne	.L295
  85:GrannyChordApp.cpp ****   }
 5763              		.loc 3 85 5 view .LVU1640
  85:GrannyChordApp.cpp ****   }
 5764              		.loc 3 85 18 is_stmt 0 view .LVU1641
 5765 002e 2046     		mov	r0, r4
 5766 0030 FFF7FEFF 		bl	_ZN14GrannyChordApp13ButtonHandlerEv
 5767              	.LVL429:
 5768              	.L295:
  88:GrannyChordApp.cpp ****   if (encoder_inc!=0){
 5769              		.loc 3 88 3 is_stmt 1 view .LVU1642
  88:GrannyChordApp.cpp ****   if (encoder_inc!=0){
ARM GAS  /var/folders/2p/02m_5p7958535cp2tpgps0400000gn/T//ccAOujCh.s 			page 161


 5770              		.loc 3 88 25 is_stmt 0 view .LVU1643
 5771 0034 E369     		ldr	r3, [r4, #28]
 5772              	.LVL430:
 5773              	.LBB768:
 5774              	.LBI768:
  36:../libDaisy/src/hid/encoder.h **** 
 5775              		.loc 7 36 20 is_stmt 1 view .LVU1644
 5776              	.LBB769:
  36:../libDaisy/src/hid/encoder.h **** 
 5777              		.loc 7 36 40 view .LVU1645
  36:../libDaisy/src/hid/encoder.h **** 
 5778              		.loc 7 36 56 is_stmt 0 view .LVU1646
 5779 0036 93F84420 		ldrb	r2, [r3, #68]	@ zero_extendqisi2
 5780 003a 22B1     		cbz	r2, .L296
 5781 003c 596E     		ldr	r1, [r3, #100]
 5782              	.LVL431:
  36:../libDaisy/src/hid/encoder.h **** 
 5783              		.loc 7 36 56 view .LVU1647
 5784              	.LBE769:
 5785              	.LBE768:
  89:GrannyChordApp.cpp ****     HandleEncoderIncrement(encoder_inc);
 5786              		.loc 3 89 3 is_stmt 1 view .LVU1648
 5787 003e 11B1     		cbz	r1, .L296
  90:GrannyChordApp.cpp ****   }
 5788              		.loc 3 90 5 view .LVU1649
  90:GrannyChordApp.cpp ****   }
 5789              		.loc 3 90 27 is_stmt 0 view .LVU1650
 5790 0040 2046     		mov	r0, r4
 5791 0042 FFF7FEFF 		bl	_ZN14GrannyChordApp22HandleEncoderIncrementEi
 5792              	.LVL432:
 5793              	.L296:
  92:GrannyChordApp.cpp ****     #ifdef DEBUG_MODE
 5794              		.loc 3 92 3 is_stmt 1 view .LVU1651
 5795 0046 D4E99E13 		ldrd	r1, r3, [r4, #632]
 5796 004a 9942     		cmp	r1, r3
 5797 004c 1CD0     		beq	.L291
  94:GrannyChordApp.cpp ****     DebugPrint(pod_, "switching states");
 5798              		.loc 3 94 5 view .LVU1652
  94:GrannyChordApp.cpp ****     DebugPrint(pod_, "switching states");
 5799              		.loc 3 94 20 is_stmt 0 view .LVU1653
 5800 004e 2046     		mov	r0, r4
 5801 0050 FFF7FEFF 		bl	_ZN14GrannyChordApp15DebugPrintStateE8AppState
 5802              	.LVL433:
  95:GrannyChordApp.cpp ****     DebugPrintState(next_state_);
 5803              		.loc 3 95 5 is_stmt 1 view .LVU1654
  95:GrannyChordApp.cpp ****     DebugPrintState(next_state_);
 5804              		.loc 3 95 5 view .LVU1655
 5805              	.LBB770:
 5806              	.LBI770:
 126:../libDaisy/src/daisy_seed.h ****     {
 5807              		.loc 5 126 17 view .LVU1656
 5808              	.LBB771:
 5809              		.loc 5 128 23 is_stmt 0 view .LVU1657
 5810 0054 0E48     		ldr	r0, .L309+4
 5811 0056 FFF7FEFF 		bl	_ZN5daisy6LoggerILNS_17LoggerDestinationE1EE9PrintLineEPKcz
 5812              	.LVL434:
 5813              		.loc 5 128 23 view .LVU1658
ARM GAS  /var/folders/2p/02m_5p7958535cp2tpgps0400000gn/T//ccAOujCh.s 			page 162


 5814              	.LBE771:
 5815              	.LBE770:
  96:GrannyChordApp.cpp ****     #endif
 5816              		.loc 3 96 5 is_stmt 1 view .LVU1659
  96:GrannyChordApp.cpp ****     #endif
 5817              		.loc 3 96 20 is_stmt 0 view .LVU1660
 5818 005a 2046     		mov	r0, r4
 5819 005c D4F87C12 		ldr	r1, [r4, #636]
 5820 0060 FFF7FEFF 		bl	_ZN14GrannyChordApp15DebugPrintStateE8AppState
 5821              	.LVL435:
  98:GrannyChordApp.cpp ****   }
 5822              		.loc 3 98 5 is_stmt 1 view .LVU1661
  98:GrannyChordApp.cpp ****   }
 5823              		.loc 3 98 22 is_stmt 0 view .LVU1662
 5824 0064 2046     		mov	r0, r4
 100:GrannyChordApp.cpp **** 
 5825              		.loc 3 100 1 view .LVU1663
 5826 0066 BDE81040 		pop	{r4, lr}
 5827              		.cfi_remember_state
 5828              		.cfi_restore 14
 5829              		.cfi_restore 4
 5830              		.cfi_def_cfa_offset 0
 5831              	.LVL436:
  98:GrannyChordApp.cpp ****   }
 5832              		.loc 3 98 22 view .LVU1664
 5833 006a FFF7FEBF 		b	_ZN14GrannyChordApp17HandleStateChangeEv
 5834              	.LVL437:
 5835              	.L308:
 5836              		.cfi_restore_state
  82:GrannyChordApp.cpp **** 
 5837              		.loc 3 82 8 is_stmt 1 view .LVU1665
  82:GrannyChordApp.cpp **** 
 5838              		.loc 3 82 12 is_stmt 0 view .LVU1666
 5839 006e E369     		ldr	r3, [r4, #28]
 5840              	.LVL438:
 5841              	.LBB772:
 5842              	.LBI772:
  42:../libDaisy/src/hid/encoder.h **** 
 5843              		.loc 7 42 17 is_stmt 1 view .LVU1667
 5844              	.LBE772:
  42:../libDaisy/src/hid/encoder.h **** 
 5845              		.loc 7 42 39 view .LVU1668
 5846              	.LBB775:
 5847              	.LBB773:
 5848              	.LBI773:
  73:../libDaisy/src/hid/switch.h ****     {
 5849              		.loc 1 73 17 view .LVU1669
 5850              	.LBB774:
  75:../libDaisy/src/hid/switch.h ****     }
 5851              		.loc 1 75 9 view .LVU1670
  75:../libDaisy/src/hid/switch.h ****     }
 5852              		.loc 1 75 25 is_stmt 0 view .LVU1671
 5853 0070 93F84C20 		ldrb	r2, [r3, #76]	@ zero_extendqisi2
 5854 0074 002A     		cmp	r2, #0
 5855 0076 D6D0     		beq	.L294
 5856              	.LVL439:
  75:../libDaisy/src/hid/switch.h ****     }
ARM GAS  /var/folders/2p/02m_5p7958535cp2tpgps0400000gn/T//ccAOujCh.s 			page 163


 5857              		.loc 1 75 25 view .LVU1672
 5858              	.LBE774:
 5859              	.LBE773:
 5860              	.LBE775:
  82:GrannyChordApp.cpp **** 
 5861              		.loc 3 82 8 view .LVU1673
 5862 0078 93F85230 		ldrb	r3, [r3, #82]	@ zero_extendqisi2
 5863 007c 802B     		cmp	r3, #128
 5864 007e D2D1     		bne	.L294
  82:GrannyChordApp.cpp **** 
 5865              		.loc 3 82 40 is_stmt 1 discriminator 1 view .LVU1674
  82:GrannyChordApp.cpp **** 
 5866              		.loc 3 82 60 is_stmt 0 discriminator 1 view .LVU1675
 5867 0080 2046     		mov	r0, r4
 5868 0082 FFF7FEFF 		bl	_ZN14GrannyChordApp20HandleEncoderPressedEv
 5869              	.LVL440:
 5870 0086 CEE7     		b	.L294
 5871              	.L291:
 100:GrannyChordApp.cpp **** 
 5872              		.loc 3 100 1 view .LVU1676
 5873 0088 10BD     		pop	{r4, pc}
 5874              	.LVL441:
 5875              	.L310:
 100:GrannyChordApp.cpp **** 
 5876              		.loc 3 100 1 view .LVU1677
 5877 008a 00BF     		.align	2
 5878              	.L309:
 5879 008c 00007A44 		.word	1148846080
 5880 0090 00000000 		.word	.LC33
 5881              		.cfi_endproc
 5882              	.LFE4914:
 5884              		.section	.rodata._ZN14GrannyChordApp3RunEv.str1.1,"aMS",%progbits,1
 5885              	.LC34:
 5886 0000 61707020 		.ascii	"app is running\000"
 5886      69732072 
 5886      756E6E69 
 5886      6E6700
 5887              		.section	.text._ZN14GrannyChordApp3RunEv,"ax",%progbits
 5888              		.align	1
 5889              		.global	_ZN14GrannyChordApp3RunEv
 5890              		.syntax unified
 5891              		.thumb
 5892              		.thumb_func
 5894              	_ZN14GrannyChordApp3RunEv:
 5895              	.LVL442:
 5896              	.LFB4913:
  52:GrannyChordApp.cpp ****   pod_.seed.PrintLine("app is running");
 5897              		.loc 3 52 27 is_stmt 1 view -0
 5898              		.cfi_startproc
 5899              		@ Volatile: function does not return.
 5900              		@ args = 0, pretend = 0, frame = 8
 5901              		@ frame_needed = 0, uses_anonymous_args = 0
  53:GrannyChordApp.cpp ****   while(true){
 5902              		.loc 3 53 3 view .LVU1679
 5903              	.LBB786:
 5904              	.LBI786:
 126:../libDaisy/src/daisy_seed.h ****     {
ARM GAS  /var/folders/2p/02m_5p7958535cp2tpgps0400000gn/T//ccAOujCh.s 			page 164


 5905              		.loc 5 126 17 view .LVU1680
 5906              	.LBE786:
  52:GrannyChordApp.cpp ****   pod_.seed.PrintLine("app is running");
 5907              		.loc 3 52 27 is_stmt 0 view .LVU1681
 5908 0000 0446     		mov	r4, r0
 5909 0002 07B5     		push	{r0, r1, r2, lr}
 5910              		.cfi_def_cfa_offset 16
 5911              		.cfi_offset 14, -4
 5912              	.LBB788:
 5913              	.LBB787:
 5914              		.loc 5 128 23 view .LVU1682
 5915 0004 2448     		ldr	r0, .L327
 5916              	.LVL443:
 5917              		.loc 5 128 23 view .LVU1683
 5918 0006 FFF7FEFF 		bl	_ZN5daisy6LoggerILNS_17LoggerDestinationE1EE9PrintLineEPKcz
 5919              	.LVL444:
 5920              	.L318:
 5921              		.loc 5 128 23 view .LVU1684
 5922              	.LBE787:
 5923              	.LBE788:
  54:GrannyChordApp.cpp ****     // #ifdef DEBUG_MODE
 5924              		.loc 3 54 3 is_stmt 1 view .LVU1685
  64:GrannyChordApp.cpp ****       sd_writer_.Write();
 5925              		.loc 3 64 5 view .LVU1686
  64:GrannyChordApp.cpp ****       sd_writer_.Write();
 5926              		.loc 3 64 9 is_stmt 0 view .LVU1687
 5927 000a 04F55046 		add	r6, r4, #53248
  64:GrannyChordApp.cpp ****       sd_writer_.Write();
 5928              		.loc 3 64 5 view .LVU1688
 5929 000e 96F8EC31 		ldrb	r3, [r6, #492]	@ zero_extendqisi2
 5930 0012 CBB3     		cbz	r3, .L313
 5931              	.LBB789:
 5932              	.LBB790:
 128:../libDaisy/src/util/WavWriter.h ****         {
 5933              		.loc 9 128 12 view .LVU1689
 5934 0014 04F54043 		add	r3, r4, #49152
 5935              	.LBE790:
 5936              	.LBE789:
  65:GrannyChordApp.cpp ****       if (sd_writer_.GetLengthSeconds()>120){
 5937              		.loc 3 65 23 view .LVU1690
 5938 0018 04F59E45 		add	r5, r4, #20224
 5939              	.LBB795:
 5940              	.LBB793:
 128:../libDaisy/src/util/WavWriter.h ****         {
 5941              		.loc 9 128 12 view .LVU1691
 5942 001c D3F8B01F 		ldr	r1, [r3, #4016]
 5943              	.LBE793:
 5944              	.LBE795:
  65:GrannyChordApp.cpp ****       if (sd_writer_.GetLengthSeconds()>120){
 5945              		.loc 3 65 23 view .LVU1692
 5946 0020 7035     		adds	r5, r5, #112
  65:GrannyChordApp.cpp ****       if (sd_writer_.GetLengthSeconds()>120){
 5947              		.loc 3 65 7 is_stmt 1 view .LVU1693
 5948              	.LVL445:
 5949              	.LBB796:
 5950              	.LBI789:
 126:../libDaisy/src/util/WavWriter.h ****     {
ARM GAS  /var/folders/2p/02m_5p7958535cp2tpgps0400000gn/T//ccAOujCh.s 			page 165


 5951              		.loc 9 126 10 view .LVU1694
 5952              	.LBB794:
 128:../libDaisy/src/util/WavWriter.h ****         {
 5953              		.loc 9 128 41 is_stmt 0 view .LVU1695
 5954 0022 B1B1     		cbz	r1, .L314
 5955              	.LVL446:
 5956              	.LBB791:
 5957              	.LBI791:
 169:../libDaisy/src/util/WavWriter.h **** 
 5958              		.loc 9 169 17 is_stmt 1 view .LVU1696
 169:../libDaisy/src/util/WavWriter.h **** 
 5959              		.loc 9 169 17 is_stmt 0 view .LVU1697
 5960              	.LBE791:
 128:../libDaisy/src/util/WavWriter.h ****         {
 5961              		.loc 9 128 41 view .LVU1698
 5962 0024 93F8B42F 		ldrb	r2, [r3, #4020]	@ zero_extendqisi2
 5963 0028 9AB1     		cbz	r2, .L314
 5964              	.LBB792:
 131:../libDaisy/src/util/WavWriter.h ****             //offset          = bstate_ == BufferState::FLUSH0 ? 0 : transfer_size;
 5965              		.loc 9 131 26 view .LVU1699
 5966 002a 0022     		movs	r2, #0
 133:../libDaisy/src/util/WavWriter.h ****             bstate_ = BufferState::IDLE;
 5967              		.loc 9 133 54 view .LVU1700
 5968 002c 0129     		cmp	r1, #1
 135:../libDaisy/src/util/WavWriter.h ****         }
 5969              		.loc 9 135 20 view .LVU1701
 5970 002e 05F50040 		add	r0, r5, #32768
 133:../libDaisy/src/util/WavWriter.h ****             bstate_ = BufferState::IDLE;
 5971              		.loc 9 133 54 view .LVU1702
 5972 0032 0CBF     		ite	eq
 5973 0034 1146     		moveq	r1, r2
 5974 0036 4FF48051 		movne	r1, #4096
 5975              	.LVL447:
 134:../libDaisy/src/util/WavWriter.h ****             f_write(&fp_, &transfer_buff[offset], transfer_size, &bw);
 5976              		.loc 9 134 21 view .LVU1703
 5977 003a C3F8B02F 		str	r2, [r3, #4016]
 135:../libDaisy/src/util/WavWriter.h ****         }
 5978              		.loc 9 135 20 view .LVU1704
 5979 003e 4830     		adds	r0, r0, #72
 135:../libDaisy/src/util/WavWriter.h ****         }
 5980              		.loc 9 135 41 view .LVU1705
 5981 0040 1031     		adds	r1, r1, #16
 5982              	.LVL448:
 131:../libDaisy/src/util/WavWriter.h ****             //offset          = bstate_ == BufferState::FLUSH0 ? 0 : transfer_size;
 5983              		.loc 9 131 26 view .LVU1706
 5984 0042 0192     		str	r2, [sp, #4]
 135:../libDaisy/src/util/WavWriter.h ****         }
 5985              		.loc 9 135 20 view .LVU1707
 5986 0044 01AB     		add	r3, sp, #4
 5987 0046 4FF48042 		mov	r2, #16384
 5988 004a 05EB8101 		add	r1, r5, r1, lsl #2
 5989              	.LVL449:
 135:../libDaisy/src/util/WavWriter.h ****         }
 5990              		.loc 9 135 20 view .LVU1708
 5991 004e FFF7FEFF 		bl	f_write
 5992              	.LVL450:
 5993              	.L314:
ARM GAS  /var/folders/2p/02m_5p7958535cp2tpgps0400000gn/T//ccAOujCh.s 			page 166


 135:../libDaisy/src/util/WavWriter.h ****         }
 5994              		.loc 9 135 20 view .LVU1709
 5995              	.LBE792:
 5996              	.LBE794:
 5997              	.LBE796:
  66:GrannyChordApp.cpp ****         sd_writer_.SaveFile();
 5998              		.loc 3 66 7 is_stmt 1 view .LVU1710
 5999              	.LBB797:
 6000              	.LBI797:
 175:../libDaisy/src/util/WavWriter.h ****     {
 6001              		.loc 9 175 18 view .LVU1711
 6002              	.LBB798:
 177:../libDaisy/src/util/WavWriter.h ****     }
 6003              		.loc 9 177 23 is_stmt 0 view .LVU1712
 6004 0052 04F58043 		add	r3, r4, #16384
 177:../libDaisy/src/util/WavWriter.h ****     }
 6005              		.loc 9 177 16 view .LVU1713
 6006 0056 D3F89C2F 		ldr	r2, [r3, #3996]
 177:../libDaisy/src/util/WavWriter.h ****     }
 6007              		.loc 9 177 48 view .LVU1714
 6008 005a 03F57763 		add	r3, r3, #3952
 177:../libDaisy/src/util/WavWriter.h ****     }
 6009              		.loc 9 177 16 view .LVU1715
 6010 005e 07EE902A 		vmov	s15, r2	@ int
 177:../libDaisy/src/util/WavWriter.h ****     }
 6011              		.loc 9 177 48 view .LVU1716
 6012 0062 D3ED0D6A 		vldr.32	s13, [r3, #52]
 177:../libDaisy/src/util/WavWriter.h ****     }
 6013              		.loc 9 177 16 view .LVU1717
 6014 0066 F8EE677A 		vcvt.f32.u32	s15, s15
 177:../libDaisy/src/util/WavWriter.h ****     }
 6015              		.loc 9 177 48 view .LVU1718
 6016 006a 87EEA67A 		vdiv.f32	s14, s15, s13
 6017              	.LBE798:
 6018              	.LBE797:
  66:GrannyChordApp.cpp ****         sd_writer_.SaveFile();
 6019              		.loc 3 66 7 view .LVU1719
 6020 006e DFED0B7A 		vldr.32	s15, .L327+4
 6021 0072 B4EEE77A 		vcmpe.f32	s14, s15
 6022 0076 F1EE10FA 		vmrs	APSR_nzcv, FPSCR
 6023 007a 05DD     		ble	.L313
  67:GrannyChordApp.cpp ****         recording_out_ = false;
 6024              		.loc 3 67 9 is_stmt 1 view .LVU1720
  67:GrannyChordApp.cpp ****         recording_out_ = false;
 6025              		.loc 3 67 28 is_stmt 0 view .LVU1721
 6026 007c 2846     		mov	r0, r5
 6027 007e FFF7FEFF 		bl	_ZN5daisy9WavWriterILj16384EE8SaveFileEv
 6028              	.LVL451:
  68:GrannyChordApp.cpp ****       }
 6029              		.loc 3 68 9 is_stmt 1 view .LVU1722
  68:GrannyChordApp.cpp ****       }
 6030              		.loc 3 68 24 is_stmt 0 view .LVU1723
 6031 0082 0023     		movs	r3, #0
 6032 0084 86F8EC31 		strb	r3, [r6, #492]
 6033              	.L313:
  71:GrannyChordApp.cpp ****     UpdateSynthParams();
 6034              		.loc 3 71 5 is_stmt 1 view .LVU1724
ARM GAS  /var/folders/2p/02m_5p7958535cp2tpgps0400000gn/T//ccAOujCh.s 			page 167


  71:GrannyChordApp.cpp ****     UpdateSynthParams();
 6035              		.loc 3 71 13 is_stmt 0 view .LVU1725
 6036 0088 2046     		mov	r0, r4
 6037 008a FFF7FEFF 		bl	_ZN14GrannyChordApp8UpdateUIEv
 6038              	.LVL452:
  72:GrannyChordApp.cpp ****     // System::Delay(1);
 6039              		.loc 3 72 5 is_stmt 1 view .LVU1726
  72:GrannyChordApp.cpp ****     // System::Delay(1);
 6040              		.loc 3 72 22 is_stmt 0 view .LVU1727
 6041 008e 2046     		mov	r0, r4
 6042 0090 FFF7FEFF 		bl	_ZN14GrannyChordApp17UpdateSynthParamsEv
 6043              	.LVL453:
  54:GrannyChordApp.cpp ****     // #ifdef DEBUG_MODE
 6044              		.loc 3 54 3 is_stmt 1 view .LVU1728
  64:GrannyChordApp.cpp ****       sd_writer_.Write();
 6045              		.loc 3 64 5 is_stmt 0 view .LVU1729
 6046 0094 B9E7     		b	.L318
 6047              	.L328:
 6048 0096 00BF     		.align	2
 6049              	.L327:
 6050 0098 00000000 		.word	.LC34
 6051 009c 0000F042 		.word	1123024896
 6052              		.cfi_endproc
 6053              	.LFE4913:
 6055              		.global	_ZN14GrannyChordApp9instance_E
 6056              		.section	.bss._ZN14GrannyChordApp9instance_E,"aw",%nobits
 6057              		.align	2
 6058              		.set	.LANCHOR0,. + 0
 6061              	_ZN14GrannyChordApp9instance_E:
 6062 0000 00000000 		.space	4
 6063              		.text
 6064              	.Letext0:
 6065              		.file 16 "/Library/DaisyToolchain/0.2.0/arm/arm-none-eabi/include/machine/_default_types.h"
 6066              		.file 17 "/Library/DaisyToolchain/0.2.0/arm/arm-none-eabi/include/sys/_stdint.h"
 6067              		.file 18 "/Library/DaisyToolchain/0.2.0/arm/arm-none-eabi/include/stdint.h"
 6068              		.file 19 "/Library/DaisyToolchain/0.2.0/arm/lib/gcc/arm-none-eabi/10.3.1/include/stddef.h"
 6069              		.file 20 "/Library/DaisyToolchain/0.2.0/arm/arm-none-eabi/include/c++/10.3.1/cstdlib"
 6070              		.file 21 "/Library/DaisyToolchain/0.2.0/arm/arm-none-eabi/include/c++/10.3.1/cstdint"
 6071              		.file 22 "/Library/DaisyToolchain/0.2.0/arm/arm-none-eabi/include/c++/10.3.1/arm-none-eabi/thumb/v
 6072              		.file 23 "/Library/DaisyToolchain/0.2.0/arm/arm-none-eabi/include/c++/10.3.1/type_traits"
 6073              		.file 24 "/Library/DaisyToolchain/0.2.0/arm/arm-none-eabi/include/c++/10.3.1/bits/cpp_type_traits.
 6074              		.file 25 "/Library/DaisyToolchain/0.2.0/arm/arm-none-eabi/include/c++/10.3.1/bits/stl_pair.h"
 6075              		.file 26 "/Library/DaisyToolchain/0.2.0/arm/arm-none-eabi/include/c++/10.3.1/debug/debug.h"
 6076              		.file 27 "/Library/DaisyToolchain/0.2.0/arm/arm-none-eabi/include/c++/10.3.1/bits/algorithmfwd.h"
 6077              		.file 28 "/Library/DaisyToolchain/0.2.0/arm/arm-none-eabi/include/c++/10.3.1/bits/exception_ptr.h"
 6078              		.file 29 "/Library/DaisyToolchain/0.2.0/arm/arm-none-eabi/include/c++/10.3.1/initializer_list"
 6079              		.file 30 "/Library/DaisyToolchain/0.2.0/arm/arm-none-eabi/include/c++/10.3.1/cstdarg"
 6080              		.file 31 "/Library/DaisyToolchain/0.2.0/arm/arm-none-eabi/include/c++/10.3.1/cstdio"
 6081              		.file 32 "/Library/DaisyToolchain/0.2.0/arm/arm-none-eabi/include/c++/10.3.1/cstring"
 6082              		.file 33 "/Library/DaisyToolchain/0.2.0/arm/arm-none-eabi/include/c++/10.3.1/cwchar"
 6083              		.file 34 "/Library/DaisyToolchain/0.2.0/arm/arm-none-eabi/include/c++/10.3.1/clocale"
 6084              		.file 35 "/Library/DaisyToolchain/0.2.0/arm/arm-none-eabi/include/c++/10.3.1/bits/basic_string.h"
 6085              		.file 36 "/Library/DaisyToolchain/0.2.0/arm/arm-none-eabi/include/c++/10.3.1/bits/stl_iterator.h"
 6086              		.file 37 "/Library/DaisyToolchain/0.2.0/arm/arm-none-eabi/include/c++/10.3.1/bits/predefined_ops.h
 6087              		.file 38 "/Library/DaisyToolchain/0.2.0/arm/arm-none-eabi/include/sys/_types.h"
 6088              		.file 39 "/Library/DaisyToolchain/0.2.0/arm/arm-none-eabi/include/sys/reent.h"
 6089              		.file 40 "/Library/DaisyToolchain/0.2.0/arm/arm-none-eabi/include/sys/lock.h"
ARM GAS  /var/folders/2p/02m_5p7958535cp2tpgps0400000gn/T//ccAOujCh.s 			page 168


 6090              		.file 41 "/Library/DaisyToolchain/0.2.0/arm/arm-none-eabi/include/math.h"
 6091              		.file 42 "/Library/DaisyToolchain/0.2.0/arm/arm-none-eabi/include/stdlib.h"
 6092              		.file 43 "/Library/DaisyToolchain/0.2.0/arm/arm-none-eabi/include/c++/10.3.1/math.h"
 6093              		.file 44 "/Library/DaisyToolchain/0.2.0/arm/arm-none-eabi/include/c++/10.3.1/stdlib.h"
 6094              		.file 45 "../libDaisy/src/sys/system.h"
 6095              		.file 46 "../libDaisy/src/per/qspi.h"
 6096              		.file 47 "../libDaisy/src/per/dac.h"
 6097              		.file 48 "../libDaisy/src/per/sai.h"
 6098              		.file 49 "../libDaisy/src/hid/audio.h"
 6099              		.file 50 "../libDaisy/src/per/adc.h"
 6100              		.file 51 "../libDaisy/src/per/uart.h"
 6101              		.file 52 "../libDaisy/src/hid/MidiEvent.h"
 6102              		.file 53 "../libDaisy/src/hid/midi_parser.h"
 6103              		.file 54 "../libDaisy/src/hid/usb.h"
 6104              		.file 55 "../libDaisy/src/hid/midi.h"
 6105              		.file 56 "../libDaisy/src/util/FIFO.h"
 6106              		.file 57 "../libDaisy/src/hid/ctrl.h"
 6107              		.file 58 "../libDaisy/src/hid/logger_impl.h"
 6108              		.file 59 "../libDaisy/src/per/sdmmc.h"
 6109              		.file 60 "../libDaisy/src/util/wav_format.h"
 6110              		.file 61 "../libDaisy/src/hid/led.h"
 6111              		.file 62 "../libDaisy/src/util/color.h"
 6112              		.file 63 "../libDaisy/src/hid/rgb_led.h"
 6113              		.file 64 "../libDaisy/src/dev/max11300.h"
 6114              		.file 65 "../libDaisy/src/sys/fatfs.h"
 6115              		.file 66 "../libDaisy/src/hid/logger.h"
 6116              		.file 67 "../libDaisy/src/daisy_pod.h"
 6117              		.file 68 "../libDaisy/src/per/gpio.h"
 6118              		.file 69 "../libDaisy/src/dev/sdram.h"
 6119              		.file 70 "/Library/DaisyToolchain/0.2.0/arm/lib/gcc/arm-none-eabi/10.3.1/include/stdarg.h"
 6120              		.file 71 "/Library/DaisyToolchain/0.2.0/arm/arm-none-eabi/include/stdio.h"
 6121              		.file 72 "../libDaisy/Middlewares/Third_Party/FatFs/src/integer.h"
 6122              		.file 73 "../libDaisy/Middlewares/Third_Party/FatFs/src/ff.h"
 6123              		.file 74 "/Library/DaisyToolchain/0.2.0/arm/arm-none-eabi/include/string.h"
 6124              		.file 75 "../DaisySP/Source/Control/adenv.h"
 6125              		.file 76 "../DaisySP/Source/Utility/dsp.h"
 6126              		.file 77 "../DaisySP/Source/Dynamics/limiter.h"
 6127              		.file 78 "../DaisySP/Source/Utility/delayline.h"
 6128              		.file 79 "../DaisySP/Source/Effects/chorus.h"
 6129              		.file 80 "../DaisySP/Source/../DaisySP-LGPL/Source/Dynamics/compressor.h"
 6130              		.file 81 "../DaisySP/Source/../DaisySP-LGPL/Source/Effects/reverbsc.h"
 6131              		.file 82 "/Library/DaisyToolchain/0.2.0/arm/arm-none-eabi/include/wchar.h"
 6132              		.file 83 "/Library/DaisyToolchain/0.2.0/arm/arm-none-eabi/include/time.h"
 6133              		.file 84 "/Library/DaisyToolchain/0.2.0/arm/arm-none-eabi/include/locale.h"
 6134              		.file 85 "sample.h"
 6135              		.file 86 "../libDaisy/src/dev/sr_595.h"
 6136              		.file 87 "GrainPhasor.h"
 6137              		.file 88 "Grain.h"
 6138              		.file 89 "GranularSynth.h"
 6139              		.file 90 "StereoRotator.h"
 6140              		.file 91 "AppState.h"
 6141              		.file 92 "<built-in>"
ARM GAS  /var/folders/2p/02m_5p7958535cp2tpgps0400000gn/T//ccAOujCh.s 			page 169


DEFINED SYMBOLS
                            *ABS*:0000000000000000 GrannyChordApp.cpp
/var/folders/2p/02m_5p7958535cp2tpgps0400000gn/T//ccAOujCh.s:19     .text._ZNK5daisy6Switch10TimeHeldMsEv:0000000000000000 $t
/var/folders/2p/02m_5p7958535cp2tpgps0400000gn/T//ccAOujCh.s:25     .text._ZNK5daisy6Switch10TimeHeldMsEv:0000000000000000 _ZNK5daisy6Switch10TimeHeldMsEv
/var/folders/2p/02m_5p7958535cp2tpgps0400000gn/T//ccAOujCh.s:84     .text._ZNK5daisy6Switch10TimeHeldMsEv:0000000000000028 $d
/var/folders/2p/02m_5p7958535cp2tpgps0400000gn/T//ccAOujCh.s:89     .text._ZN7daisysp7OnePole7ProcessEf:0000000000000000 $t
/var/folders/2p/02m_5p7958535cp2tpgps0400000gn/T//ccAOujCh.s:95     .text._ZN7daisysp7OnePole7ProcessEf:0000000000000000 _ZN7daisysp7OnePole7ProcessEf
/var/folders/2p/02m_5p7958535cp2tpgps0400000gn/T//ccAOujCh.s:145    .text._ZN7daisysp7OnePole7ProcessEf:0000000000000038 $d
/var/folders/2p/02m_5p7958535cp2tpgps0400000gn/T//ccAOujCh.s:159    .text._ZN14GrannyChordApp12PrintCPULoadEv:0000000000000000 $t
/var/folders/2p/02m_5p7958535cp2tpgps0400000gn/T//ccAOujCh.s:165    .text._ZN14GrannyChordApp12PrintCPULoadEv:0000000000000000 _ZN14GrannyChordApp12PrintCPULoadEv
/var/folders/2p/02m_5p7958535cp2tpgps0400000gn/T//ccAOujCh.s:479    .text._ZN14GrannyChordApp12PrintCPULoadEv:00000000000000e0 $d
/var/folders/2p/02m_5p7958535cp2tpgps0400000gn/T//ccAOujCh.s:493    .text._ZN14GrannyChordApp20HandleEncoderPressedEv:0000000000000000 $t
/var/folders/2p/02m_5p7958535cp2tpgps0400000gn/T//ccAOujCh.s:499    .text._ZN14GrannyChordApp20HandleEncoderPressedEv:0000000000000000 _ZN14GrannyChordApp20HandleEncoderPressedEv
/var/folders/2p/02m_5p7958535cp2tpgps0400000gn/T//ccAOujCh.s:546    .text._ZN14GrannyChordApp22HandleEncoderLongPressEv:0000000000000000 $t
/var/folders/2p/02m_5p7958535cp2tpgps0400000gn/T//ccAOujCh.s:552    .text._ZN14GrannyChordApp22HandleEncoderLongPressEv:0000000000000000 _ZN14GrannyChordApp22HandleEncoderLongPressEv
/var/folders/2p/02m_5p7958535cp2tpgps0400000gn/T//ccAOujCh.s:644    .text._ZN14GrannyChordApp22HandleButton1LongPressEv:0000000000000000 $t
/var/folders/2p/02m_5p7958535cp2tpgps0400000gn/T//ccAOujCh.s:650    .text._ZN14GrannyChordApp22HandleButton1LongPressEv:0000000000000000 _ZN14GrannyChordApp22HandleButton1LongPressEv
/var/folders/2p/02m_5p7958535cp2tpgps0400000gn/T//ccAOujCh.s:664    .text._ZN14GrannyChordApp22HandleButton2LongPressEv:0000000000000000 $t
/var/folders/2p/02m_5p7958535cp2tpgps0400000gn/T//ccAOujCh.s:670    .text._ZN14GrannyChordApp22HandleButton2LongPressEv:0000000000000000 _ZN14GrannyChordApp22HandleButton2LongPressEv
/var/folders/2p/02m_5p7958535cp2tpgps0400000gn/T//ccAOujCh.s:684    .text._ZN14GrannyChordApp19HandleFileSelectionEl:0000000000000000 $t
/var/folders/2p/02m_5p7958535cp2tpgps0400000gn/T//ccAOujCh.s:690    .text._ZN14GrannyChordApp19HandleFileSelectionEl:0000000000000000 _ZN14GrannyChordApp19HandleFileSelectionEl
/var/folders/2p/02m_5p7958535cp2tpgps0400000gn/T//ccAOujCh.s:814    .text._ZN14GrannyChordApp19HandleFileSelectionEl:0000000000000048 $d
/var/folders/2p/02m_5p7958535cp2tpgps0400000gn/T//ccAOujCh.s:821    .text._ZN14GrannyChordApp22HandleEncoderIncrementEi:0000000000000000 $t
/var/folders/2p/02m_5p7958535cp2tpgps0400000gn/T//ccAOujCh.s:827    .text._ZN14GrannyChordApp22HandleEncoderIncrementEi:0000000000000000 _ZN14GrannyChordApp22HandleEncoderIncrementEi
/var/folders/2p/02m_5p7958535cp2tpgps0400000gn/T//ccAOujCh.s:875    .text._ZN14GrannyChordApp11InitFileMgrEv:0000000000000000 $t
/var/folders/2p/02m_5p7958535cp2tpgps0400000gn/T//ccAOujCh.s:881    .text._ZN14GrannyChordApp11InitFileMgrEv:0000000000000000 _ZN14GrannyChordApp11InitFileMgrEv
/var/folders/2p/02m_5p7958535cp2tpgps0400000gn/T//ccAOujCh.s:952    .text._ZN14GrannyChordApp12InitPlaybackEv:0000000000000000 $t
/var/folders/2p/02m_5p7958535cp2tpgps0400000gn/T//ccAOujCh.s:958    .text._ZN14GrannyChordApp12InitPlaybackEv:0000000000000000 _ZN14GrannyChordApp12InitPlaybackEv
/var/folders/2p/02m_5p7958535cp2tpgps0400000gn/T//ccAOujCh.s:1049   .text._ZN14GrannyChordApp12InitPlaybackEv:000000000000004c $d
/var/folders/2p/02m_5p7958535cp2tpgps0400000gn/T//ccAOujCh.s:2731   .text._ZN14GrannyChordApp13AudioCallbackEPKPKfPPfj:0000000000000000 _ZN14GrannyChordApp13AudioCallbackEPKPKfPPfj
/var/folders/2p/02m_5p7958535cp2tpgps0400000gn/T//ccAOujCh.s:1056   .text._ZN14GrannyChordApp12InitRecordInEv:0000000000000000 $t
/var/folders/2p/02m_5p7958535cp2tpgps0400000gn/T//ccAOujCh.s:1062   .text._ZN14GrannyChordApp12InitRecordInEv:0000000000000000 _ZN14GrannyChordApp12InitRecordInEv
/var/folders/2p/02m_5p7958535cp2tpgps0400000gn/T//ccAOujCh.s:1110   .text._ZN14GrannyChordApp13InitWavWriterEv:0000000000000000 $t
/var/folders/2p/02m_5p7958535cp2tpgps0400000gn/T//ccAOujCh.s:1116   .text._ZN14GrannyChordApp13InitWavWriterEv:0000000000000000 _ZN14GrannyChordApp13InitWavWriterEv
/var/folders/2p/02m_5p7958535cp2tpgps0400000gn/T//ccAOujCh.s:1330   .text._ZN14GrannyChordApp13InitWavWriterEv:00000000000000b4 $d
/var/folders/2p/02m_5p7958535cp2tpgps0400000gn/T//ccAOujCh.s:1337   .text._ZN14GrannyChordApp6InitFXEv:0000000000000000 $t
/var/folders/2p/02m_5p7958535cp2tpgps0400000gn/T//ccAOujCh.s:1343   .text._ZN14GrannyChordApp6InitFXEv:0000000000000000 _ZN14GrannyChordApp6InitFXEv
/var/folders/2p/02m_5p7958535cp2tpgps0400000gn/T//ccAOujCh.s:1537   .text._ZN14GrannyChordApp6InitFXEv:000000000000007c $d
/var/folders/2p/02m_5p7958535cp2tpgps0400000gn/T//ccAOujCh.s:1548   .text._ZN14GrannyChordApp17InitPrevParamValsEv:0000000000000000 $t
/var/folders/2p/02m_5p7958535cp2tpgps0400000gn/T//ccAOujCh.s:1554   .text._ZN14GrannyChordApp17InitPrevParamValsEv:0000000000000000 _ZN14GrannyChordApp17InitPrevParamValsEv
/var/folders/2p/02m_5p7958535cp2tpgps0400000gn/T//ccAOujCh.s:1595   .text._ZN14GrannyChordApp4InitEPsS0_:0000000000000000 $t
/var/folders/2p/02m_5p7958535cp2tpgps0400000gn/T//ccAOujCh.s:1601   .text._ZN14GrannyChordApp4InitEPsS0_:0000000000000000 _ZN14GrannyChordApp4InitEPsS0_
/var/folders/2p/02m_5p7958535cp2tpgps0400000gn/T//ccAOujCh.s:1877   .text._ZN14GrannyChordApp4InitEPsS0_:00000000000000f4 $d
/var/folders/2p/02m_5p7958535cp2tpgps0400000gn/T//ccAOujCh.s:1888   .text._ZN14GrannyChordApp9InitSynthEv:0000000000000000 $t
/var/folders/2p/02m_5p7958535cp2tpgps0400000gn/T//ccAOujCh.s:1894   .text._ZN14GrannyChordApp9InitSynthEv:0000000000000000 _ZN14GrannyChordApp9InitSynthEv
/var/folders/2p/02m_5p7958535cp2tpgps0400000gn/T//ccAOujCh.s:1991   .text._ZN14GrannyChordApp9InitSynthEv:000000000000004c $d
/var/folders/2p/02m_5p7958535cp2tpgps0400000gn/T//ccAOujCh.s:2001   .text._ZN14GrannyChordApp18ProcessWAVPlaybackEPPfj:0000000000000000 $t
/var/folders/2p/02m_5p7958535cp2tpgps0400000gn/T//ccAOujCh.s:2007   .text._ZN14GrannyChordApp18ProcessWAVPlaybackEPPfj:0000000000000000 _ZN14GrannyChordApp18ProcessWAVPlaybackEPPfj
/var/folders/2p/02m_5p7958535cp2tpgps0400000gn/T//ccAOujCh.s:2246   .text._ZN14GrannyChordApp18ProcessWAVPlaybackEPPfj:00000000000000d4 $d
/var/folders/2p/02m_5p7958535cp2tpgps0400000gn/T//ccAOujCh.s:2252   .text._ZN14GrannyChordApp15ProcessRecordInEPKPKfPPfj:0000000000000000 $t
/var/folders/2p/02m_5p7958535cp2tpgps0400000gn/T//ccAOujCh.s:2258   .text._ZN14GrannyChordApp15ProcessRecordInEPKPKfPPfj:0000000000000000 _ZN14GrannyChordApp15ProcessRecordInEPKPKfPPfj
/var/folders/2p/02m_5p7958535cp2tpgps0400000gn/T//ccAOujCh.s:2355   .text._ZN14GrannyChordApp15ProcessRecordInEPKPKfPPfj:0000000000000074 $d
/var/folders/2p/02m_5p7958535cp2tpgps0400000gn/T//ccAOujCh.s:2360   .text._ZN14GrannyChordApp16ProcessSynthesisEPPfj:0000000000000000 $t
/var/folders/2p/02m_5p7958535cp2tpgps0400000gn/T//ccAOujCh.s:2366   .text._ZN14GrannyChordApp16ProcessSynthesisEPPfj:0000000000000000 _ZN14GrannyChordApp16ProcessSynthesisEPPfj
/var/folders/2p/02m_5p7958535cp2tpgps0400000gn/T//ccAOujCh.s:2511   .text._ZN14GrannyChordApp16ProcessSynthesisEPPfj:00000000000000a4 $d
/var/folders/2p/02m_5p7958535cp2tpgps0400000gn/T//ccAOujCh.s:2519   .text._ZN14GrannyChordApp12ProcessAudioEPKPKfPPfj:0000000000000000 $t
/var/folders/2p/02m_5p7958535cp2tpgps0400000gn/T//ccAOujCh.s:2525   .text._ZN14GrannyChordApp12ProcessAudioEPKPKfPPfj:0000000000000000 _ZN14GrannyChordApp12ProcessAudioEPKPKfPPfj
ARM GAS  /var/folders/2p/02m_5p7958535cp2tpgps0400000gn/T//ccAOujCh.s 			page 170


/var/folders/2p/02m_5p7958535cp2tpgps0400000gn/T//ccAOujCh.s:2719   .text._ZN14GrannyChordApp12ProcessAudioEPKPKfPPfj:0000000000000070 $d
/var/folders/2p/02m_5p7958535cp2tpgps0400000gn/T//ccAOujCh.s:2725   .text._ZN14GrannyChordApp13AudioCallbackEPKPKfPPfj:0000000000000000 $t
/var/folders/2p/02m_5p7958535cp2tpgps0400000gn/T//ccAOujCh.s:2759   .text._ZN14GrannyChordApp13AudioCallbackEPKPKfPPfj:0000000000000010 $d
/var/folders/2p/02m_5p7958535cp2tpgps0400000gn/T//ccAOujCh.s:2764   .text._ZN14GrannyChordApp9ProcessFXE6Sample:0000000000000000 $t
/var/folders/2p/02m_5p7958535cp2tpgps0400000gn/T//ccAOujCh.s:2770   .text._ZN14GrannyChordApp9ProcessFXE6Sample:0000000000000000 _ZN14GrannyChordApp9ProcessFXE6Sample
/var/folders/2p/02m_5p7958535cp2tpgps0400000gn/T//ccAOujCh.s:2864   .text._ZN14GrannyChordApp13RecordOutToSDEv:0000000000000000 $t
/var/folders/2p/02m_5p7958535cp2tpgps0400000gn/T//ccAOujCh.s:2870   .text._ZN14GrannyChordApp13RecordOutToSDEv:0000000000000000 _ZN14GrannyChordApp13RecordOutToSDEv
/var/folders/2p/02m_5p7958535cp2tpgps0400000gn/T//ccAOujCh.s:2983   .text._ZN14GrannyChordApp13RecordOutToSDEv:0000000000000068 $d
/var/folders/2p/02m_5p7958535cp2tpgps0400000gn/T//ccAOujCh.s:2988   .text._ZN14GrannyChordApp17UpdateKnob1ParamsEf9SynthMode:0000000000000000 $t
/var/folders/2p/02m_5p7958535cp2tpgps0400000gn/T//ccAOujCh.s:2994   .text._ZN14GrannyChordApp17UpdateKnob1ParamsEf9SynthMode:0000000000000000 _ZN14GrannyChordApp17UpdateKnob1ParamsEf9SynthMode
/var/folders/2p/02m_5p7958535cp2tpgps0400000gn/T//ccAOujCh.s:3030   .text._ZN14GrannyChordApp17UpdateKnob2ParamsEf9SynthMode:0000000000000000 $t
/var/folders/2p/02m_5p7958535cp2tpgps0400000gn/T//ccAOujCh.s:3036   .text._ZN14GrannyChordApp17UpdateKnob2ParamsEf9SynthMode:0000000000000000 _ZN14GrannyChordApp17UpdateKnob2ParamsEf9SynthMode
/var/folders/2p/02m_5p7958535cp2tpgps0400000gn/T//ccAOujCh.s:3088   .text._ZN14GrannyChordApp17UpdateSynthParamsEv:0000000000000000 $t
/var/folders/2p/02m_5p7958535cp2tpgps0400000gn/T//ccAOujCh.s:3094   .text._ZN14GrannyChordApp17UpdateSynthParamsEv:0000000000000000 _ZN14GrannyChordApp17UpdateSynthParamsEv
/var/folders/2p/02m_5p7958535cp2tpgps0400000gn/T//ccAOujCh.s:3458   .text._ZN14GrannyChordApp17UpdateSynthParamsEv:0000000000000170 $d
/var/folders/2p/02m_5p7958535cp2tpgps0400000gn/T//ccAOujCh.s:3481   .text._ZN14GrannyChordApp15DebugPrintStateE8AppState:0000000000000000 $t
/var/folders/2p/02m_5p7958535cp2tpgps0400000gn/T//ccAOujCh.s:3487   .text._ZN14GrannyChordApp15DebugPrintStateE8AppState:0000000000000000 _ZN14GrannyChordApp15DebugPrintStateE8AppState
/var/folders/2p/02m_5p7958535cp2tpgps0400000gn/T//ccAOujCh.s:3500   .text._ZN14GrannyChordApp15DebugPrintStateE8AppState:0000000000000008 $d
/var/folders/2p/02m_5p7958535cp2tpgps0400000gn/T//ccAOujCh.s:3504   .text._ZN14GrannyChordApp15DebugPrintStateE8AppState:000000000000000c $t
/var/folders/2p/02m_5p7958535cp2tpgps0400000gn/T//ccAOujCh.s:3596   .text._ZN14GrannyChordApp15DebugPrintStateE8AppState:0000000000000024 $d
/var/folders/2p/02m_5p7958535cp2tpgps0400000gn/T//ccAOujCh.s:3624   .text._ZN14GrannyChordApp14DebugPrintModeE9SynthMode:0000000000000000 $t
/var/folders/2p/02m_5p7958535cp2tpgps0400000gn/T//ccAOujCh.s:3630   .text._ZN14GrannyChordApp14DebugPrintModeE9SynthMode:0000000000000000 _ZN14GrannyChordApp14DebugPrintModeE9SynthMode
/var/folders/2p/02m_5p7958535cp2tpgps0400000gn/T//ccAOujCh.s:3643   .text._ZN14GrannyChordApp14DebugPrintModeE9SynthMode:0000000000000008 $d
/var/folders/2p/02m_5p7958535cp2tpgps0400000gn/T//ccAOujCh.s:3651   .text._ZN14GrannyChordApp14DebugPrintModeE9SynthMode:0000000000000010 $t
/var/folders/2p/02m_5p7958535cp2tpgps0400000gn/T//ccAOujCh.s:3800   .text._ZN14GrannyChordApp14DebugPrintModeE9SynthMode:0000000000000034 $d
/var/folders/2p/02m_5p7958535cp2tpgps0400000gn/T//ccAOujCh.s:3812   .text._ZN14GrannyChordApp11LedCallbackEv:0000000000000000 $t
/var/folders/2p/02m_5p7958535cp2tpgps0400000gn/T//ccAOujCh.s:3818   .text._ZN14GrannyChordApp11LedCallbackEv:0000000000000000 _ZN14GrannyChordApp11LedCallbackEv
/var/folders/2p/02m_5p7958535cp2tpgps0400000gn/T//ccAOujCh.s:3978   .text._ZN14GrannyChordApp11LedCallbackEv:00000000000000d4 $d
/var/folders/2p/02m_5p7958535cp2tpgps0400000gn/T//ccAOujCh.s:3983   .text._ZN14GrannyChordApp17StaticLedCallbackEPv:0000000000000000 $t
/var/folders/2p/02m_5p7958535cp2tpgps0400000gn/T//ccAOujCh.s:3989   .text._ZN14GrannyChordApp17StaticLedCallbackEPv:0000000000000000 _ZN14GrannyChordApp17StaticLedCallbackEPv
/var/folders/2p/02m_5p7958535cp2tpgps0400000gn/T//ccAOujCh.s:4009   .text._ZN14GrannyChordApp17StaticLedCallbackEPv:0000000000000008 $d
/var/folders/2p/02m_5p7958535cp2tpgps0400000gn/T//ccAOujCh.s:4014   .text._ZN14GrannyChordApp7SetRgb1Efff:0000000000000000 $t
/var/folders/2p/02m_5p7958535cp2tpgps0400000gn/T//ccAOujCh.s:4020   .text._ZN14GrannyChordApp7SetRgb1Efff:0000000000000000 _ZN14GrannyChordApp7SetRgb1Efff
/var/folders/2p/02m_5p7958535cp2tpgps0400000gn/T//ccAOujCh.s:4046   .text._ZN14GrannyChordApp7SetRgb2Efff:0000000000000000 $t
/var/folders/2p/02m_5p7958535cp2tpgps0400000gn/T//ccAOujCh.s:4052   .text._ZN14GrannyChordApp7SetRgb2Efff:0000000000000000 _ZN14GrannyChordApp7SetRgb2Efff
/var/folders/2p/02m_5p7958535cp2tpgps0400000gn/T//ccAOujCh.s:4078   .text._ZN14GrannyChordApp15SetLed1AppStateEv:0000000000000000 $t
/var/folders/2p/02m_5p7958535cp2tpgps0400000gn/T//ccAOujCh.s:4084   .text._ZN14GrannyChordApp15SetLed1AppStateEv:0000000000000000 _ZN14GrannyChordApp15SetLed1AppStateEv
/var/folders/2p/02m_5p7958535cp2tpgps0400000gn/T//ccAOujCh.s:4109   .text._ZN14GrannyChordApp15SetLed1AppStateEv:0000000000000014 $d
/var/folders/2p/02m_5p7958535cp2tpgps0400000gn/T//ccAOujCh.s:4115   .text._ZN14GrannyChordApp15SetLed1AppStateEv:000000000000001a $t
/var/folders/2p/02m_5p7958535cp2tpgps0400000gn/T//ccAOujCh.s:4291   .text._ZN14GrannyChordApp15SetLed1AppStateEv:0000000000000090 $d
/var/folders/2p/02m_5p7958535cp2tpgps0400000gn/T//ccAOujCh.s:4296   .text._ZN14GrannyChordApp10SetupTimerEv:0000000000000000 $t
/var/folders/2p/02m_5p7958535cp2tpgps0400000gn/T//ccAOujCh.s:4302   .text._ZN14GrannyChordApp10SetupTimerEv:0000000000000000 _ZN14GrannyChordApp10SetupTimerEv
/var/folders/2p/02m_5p7958535cp2tpgps0400000gn/T//ccAOujCh.s:4386   .text._ZN14GrannyChordApp10SetupTimerEv:000000000000004c $d
/var/folders/2p/02m_5p7958535cp2tpgps0400000gn/T//ccAOujCh.s:4398   .text._ZN14GrannyChordApp17HandleStateChangeEv:0000000000000000 $t
/var/folders/2p/02m_5p7958535cp2tpgps0400000gn/T//ccAOujCh.s:4404   .text._ZN14GrannyChordApp17HandleStateChangeEv:0000000000000000 _ZN14GrannyChordApp17HandleStateChangeEv
/var/folders/2p/02m_5p7958535cp2tpgps0400000gn/T//ccAOujCh.s:4425   .text._ZN14GrannyChordApp17HandleStateChangeEv:0000000000000010 $d
/var/folders/2p/02m_5p7958535cp2tpgps0400000gn/T//ccAOujCh.s:4431   .text._ZN14GrannyChordApp17HandleStateChangeEv:0000000000000016 $t
/var/folders/2p/02m_5p7958535cp2tpgps0400000gn/T//ccAOujCh.s:4552   .text._ZN14GrannyChordApp17HandleStateChangeEv:0000000000000060 $d
/var/folders/2p/02m_5p7958535cp2tpgps0400000gn/T//ccAOujCh.s:4559   .text._ZN14GrannyChordApp16SetLed1SynthModeEv:0000000000000000 $t
/var/folders/2p/02m_5p7958535cp2tpgps0400000gn/T//ccAOujCh.s:4565   .text._ZN14GrannyChordApp16SetLed1SynthModeEv:0000000000000000 _ZN14GrannyChordApp16SetLed1SynthModeEv
/var/folders/2p/02m_5p7958535cp2tpgps0400000gn/T//ccAOujCh.s:4584   .text._ZN14GrannyChordApp16SetLed1SynthModeEv:0000000000000018 $d
/var/folders/2p/02m_5p7958535cp2tpgps0400000gn/T//ccAOujCh.s:4696   .text._ZN14GrannyChordApp16SetLed1SynthModeEv:0000000000000068 $d
/var/folders/2p/02m_5p7958535cp2tpgps0400000gn/T//ccAOujCh.s:4706   .text._ZN14GrannyChordApp7SetLed2Ev:0000000000000000 $t
/var/folders/2p/02m_5p7958535cp2tpgps0400000gn/T//ccAOujCh.s:4712   .text._ZN14GrannyChordApp7SetLed2Ev:0000000000000000 _ZN14GrannyChordApp7SetLed2Ev
/var/folders/2p/02m_5p7958535cp2tpgps0400000gn/T//ccAOujCh.s:4731   .text._ZN14GrannyChordApp7SetLed2Ev:0000000000000018 $d
/var/folders/2p/02m_5p7958535cp2tpgps0400000gn/T//ccAOujCh.s:4739   .text._ZN14GrannyChordApp7SetLed2Ev:0000000000000020 $t
/var/folders/2p/02m_5p7958535cp2tpgps0400000gn/T//ccAOujCh.s:4848   .text._ZN14GrannyChordApp7SetLed2Ev:0000000000000060 $d
ARM GAS  /var/folders/2p/02m_5p7958535cp2tpgps0400000gn/T//ccAOujCh.s 			page 171


/var/folders/2p/02m_5p7958535cp2tpgps0400000gn/T//ccAOujCh.s:4860   .text._ZN14GrannyChordApp16UpdateSynthModeAEv:0000000000000000 $t
/var/folders/2p/02m_5p7958535cp2tpgps0400000gn/T//ccAOujCh.s:4866   .text._ZN14GrannyChordApp16UpdateSynthModeAEv:0000000000000000 _ZN14GrannyChordApp16UpdateSynthModeAEv
/var/folders/2p/02m_5p7958535cp2tpgps0400000gn/T//ccAOujCh.s:4951   .text._ZN14GrannyChordApp16UpdateSynthModeAEv:0000000000000048 $d
/var/folders/2p/02m_5p7958535cp2tpgps0400000gn/T//ccAOujCh.s:4956   .text._ZN14GrannyChordApp13HandleButton1Ev:0000000000000000 $t
/var/folders/2p/02m_5p7958535cp2tpgps0400000gn/T//ccAOujCh.s:4962   .text._ZN14GrannyChordApp13HandleButton1Ev:0000000000000000 _ZN14GrannyChordApp13HandleButton1Ev
/var/folders/2p/02m_5p7958535cp2tpgps0400000gn/T//ccAOujCh.s:4979   .text._ZN14GrannyChordApp16UpdateSynthModeBEv:0000000000000000 $t
/var/folders/2p/02m_5p7958535cp2tpgps0400000gn/T//ccAOujCh.s:4985   .text._ZN14GrannyChordApp16UpdateSynthModeBEv:0000000000000000 _ZN14GrannyChordApp16UpdateSynthModeBEv
/var/folders/2p/02m_5p7958535cp2tpgps0400000gn/T//ccAOujCh.s:5070   .text._ZN14GrannyChordApp16UpdateSynthModeBEv:0000000000000048 $d
/var/folders/2p/02m_5p7958535cp2tpgps0400000gn/T//ccAOujCh.s:5075   .text._ZN14GrannyChordApp13HandleButton2Ev:0000000000000000 $t
/var/folders/2p/02m_5p7958535cp2tpgps0400000gn/T//ccAOujCh.s:5081   .text._ZN14GrannyChordApp13HandleButton2Ev:0000000000000000 _ZN14GrannyChordApp13HandleButton2Ev
/var/folders/2p/02m_5p7958535cp2tpgps0400000gn/T//ccAOujCh.s:5098   .text._ZN5daisy9WavWriterILj16384EE8SaveFileEv:0000000000000000 $t
/var/folders/2p/02m_5p7958535cp2tpgps0400000gn/T//ccAOujCh.s:5104   .text._ZN5daisy9WavWriterILj16384EE8SaveFileEv:0000000000000000 _ZN5daisy9WavWriterILj16384EE8SaveFileEv
/var/folders/2p/02m_5p7958535cp2tpgps0400000gn/T//ccAOujCh.s:5181   .text._ZN14GrannyChordApp15FinishRecordingEv:0000000000000000 $t
/var/folders/2p/02m_5p7958535cp2tpgps0400000gn/T//ccAOujCh.s:5187   .text._ZN14GrannyChordApp15FinishRecordingEv:0000000000000000 _ZN14GrannyChordApp15FinishRecordingEv
/var/folders/2p/02m_5p7958535cp2tpgps0400000gn/T//ccAOujCh.s:5229   .text._ZN14GrannyChordApp13ButtonHandlerEv:0000000000000000 $t
/var/folders/2p/02m_5p7958535cp2tpgps0400000gn/T//ccAOujCh.s:5235   .text._ZN14GrannyChordApp13ButtonHandlerEv:0000000000000000 _ZN14GrannyChordApp13ButtonHandlerEv
/var/folders/2p/02m_5p7958535cp2tpgps0400000gn/T//ccAOujCh.s:5695   .text._ZN14GrannyChordApp13ButtonHandlerEv:00000000000001a0 $d
/var/folders/2p/02m_5p7958535cp2tpgps0400000gn/T//ccAOujCh.s:5707   .text._ZN14GrannyChordApp8UpdateUIEv:0000000000000000 $t
/var/folders/2p/02m_5p7958535cp2tpgps0400000gn/T//ccAOujCh.s:5713   .text._ZN14GrannyChordApp8UpdateUIEv:0000000000000000 _ZN14GrannyChordApp8UpdateUIEv
/var/folders/2p/02m_5p7958535cp2tpgps0400000gn/T//ccAOujCh.s:5879   .text._ZN14GrannyChordApp8UpdateUIEv:000000000000008c $d
/var/folders/2p/02m_5p7958535cp2tpgps0400000gn/T//ccAOujCh.s:5888   .text._ZN14GrannyChordApp3RunEv:0000000000000000 $t
/var/folders/2p/02m_5p7958535cp2tpgps0400000gn/T//ccAOujCh.s:5894   .text._ZN14GrannyChordApp3RunEv:0000000000000000 _ZN14GrannyChordApp3RunEv
/var/folders/2p/02m_5p7958535cp2tpgps0400000gn/T//ccAOujCh.s:6050   .text._ZN14GrannyChordApp3RunEv:0000000000000098 $d
/var/folders/2p/02m_5p7958535cp2tpgps0400000gn/T//ccAOujCh.s:6061   .bss._ZN14GrannyChordApp9instance_E:0000000000000000 _ZN14GrannyChordApp9instance_E
/var/folders/2p/02m_5p7958535cp2tpgps0400000gn/T//ccAOujCh.s:6057   .bss._ZN14GrannyChordApp9instance_E:0000000000000000 $d
/var/folders/2p/02m_5p7958535cp2tpgps0400000gn/T//ccAOujCh.s:4591   .text._ZN14GrannyChordApp16SetLed1SynthModeEv:000000000000001f $d
/var/folders/2p/02m_5p7958535cp2tpgps0400000gn/T//ccAOujCh.s:4591   .text._ZN14GrannyChordApp16SetLed1SynthModeEv:0000000000000020 $t

UNDEFINED SYMBOLS
_ZN5daisy6System6GetNowEv
_ZN5daisy6LoggerILNS_17LoggerDestinationE1EE9PrintLineEPKcz
_ZN5daisy7Encoder8DebounceEv
strcpy
_ZN16AudioFileManager10SetBuffersEPsS0_
_ZN16AudioFileManager4InitEv
_ZN16AudioFileManager12ScanWavFilesEv
_ZN16AudioFileManager8LoadFileEt
_ZN5daisy8DaisyPod10StartAudioEPFvPKPKfPPfjE
memset
_ZN7daisysp10Compressor4InitEf
_ZN7daisysp7Limiter4InitEv
_ZN7daisysp6Chorus4InitEf
_ZN7daisysp8ReverbSc4InitEf
_ZN7daisysp10MoogLadder4InitEf
_ZN5daisy8DaisyPod17SetAudioBlockSizeEj
_ZN5daisy8DaisyPod18SetAudioSampleRateENS_9SaiHandle6Config10SampleRateE
_ZN5daisy6RgbLed6SetRedEf
_ZN5daisy8DaisyPod10UpdateLedsEv
_ZN5daisy8DaisyPod15AudioSampleRateEv
_ZN5daisy8DaisyPod14AudioBlockSizeEv
_ZN5daisy6System11GetTickFreqEv
time
_ZN13GranularSynth4InitEPsS0_j
_ZN5daisy8DaisyPod8StartAdcEv
rng_state
_ZN13GranularSynth13ProcessGrainsEv
_ZN7daisysp7Limiter12ProcessBlockEPfjf
ARM GAS  /var/folders/2p/02m_5p7958535cp2tpgps0400000gn/T//ccAOujCh.s 			page 172


_ZN5daisy8DaisyPod9StopAudioEv
_ZN7daisysp10MoogLadder7ProcessEf
sprintf
f_open
f_write
_ZN13GranularSynth12SetGrainSizeEf
_ZN13GranularSynth13SetPitchRatioEf
_ZN13GranularSynth11SetSpawnPosEf
_ZN13GranularSynth15SetActiveGrainsEf
_ZN13GranularSynth12SetDirectionEf
_ZN5daisy13AnalogControl7ProcessEv
_ZN5daisy6RgbLed3SetEfff
_ZN5daisy9DaisySeed6SetLedEb
_ZN5daisy11TimerHandle4InitERKNS0_6ConfigE
_ZN5daisy11TimerHandle12SetPrescalerEm
_ZN5daisy11TimerHandle11SetCallbackEPFvPvES1_
_ZN5daisy11TimerHandle5StartEv
f_lseek
f_close
_ZN5daisy8DaisyPod22ProcessDigitalControlsEv
