ARM GAS  /var/folders/2p/02m_5p7958535cp2tpgps0400000gn/T//ccA8p2F3.s 			page 1


   1              		.cpu cortex-m7
   2              		.arch armv7e-m
   3              		.fpu fpv5-d16
   4              		.eabi_attribute 28, 1
   5              		.eabi_attribute 20, 1
   6              		.eabi_attribute 21, 1
   7              		.eabi_attribute 23, 3
   8              		.eabi_attribute 24, 1
   9              		.eabi_attribute 25, 1
  10              		.eabi_attribute 26, 1
  11              		.eabi_attribute 30, 4
  12              		.eabi_attribute 34, 1
  13              		.eabi_attribute 18, 4
  14              		.file	"GrannyChordApp.cpp"
  15              		.text
  16              	.Ltext0:
  17              		.cfi_sections	.debug_frame
  18              		.section	.text._ZN7daisysp7OnePoleD2Ev,"axG",%progbits,_ZN7daisysp7OnePoleD5Ev,comdat
  19              		.align	1
  20              		.weak	_ZN7daisysp7OnePoleD2Ev
  21              		.syntax unified
  22              		.thumb
  23              		.thumb_func
  25              	_ZN7daisysp7OnePoleD2Ev:
  26              	.LVL0:
  27              	.LFB4460:
  28              		.file 1 "../DaisySP/Source/Filters/onepole.h"
   1:../DaisySP/Source/Filters/onepole.h **** /*
   2:../DaisySP/Source/Filters/onepole.h **** Copyright (c) 2020 Electrosmith, Corp, Emilie Gillet
   3:../DaisySP/Source/Filters/onepole.h **** 
   4:../DaisySP/Source/Filters/onepole.h **** Use of this source code is governed by an MIT-style
   5:../DaisySP/Source/Filters/onepole.h **** license that can be found in the LICENSE file or at
   6:../DaisySP/Source/Filters/onepole.h **** https://opensource.org/licenses/MIT.
   7:../DaisySP/Source/Filters/onepole.h **** */
   8:../DaisySP/Source/Filters/onepole.h **** 
   9:../DaisySP/Source/Filters/onepole.h **** #ifndef DSY_ONEPOLE_H
  10:../DaisySP/Source/Filters/onepole.h **** #define DSY_ONEPOLE_H
  11:../DaisySP/Source/Filters/onepole.h **** 
  12:../DaisySP/Source/Filters/onepole.h **** #include "Utility/dsp.h"
  13:../DaisySP/Source/Filters/onepole.h **** #include <cmath>
  14:../DaisySP/Source/Filters/onepole.h **** #include <algorithm>
  15:../DaisySP/Source/Filters/onepole.h **** 
  16:../DaisySP/Source/Filters/onepole.h **** namespace daisysp
  17:../DaisySP/Source/Filters/onepole.h **** {
  18:../DaisySP/Source/Filters/onepole.h **** /**         
  19:../DaisySP/Source/Filters/onepole.h ****     @brief One Pole Lowpass / Highpass Filter
  20:../DaisySP/Source/Filters/onepole.h ****     @author beserge
  21:../DaisySP/Source/Filters/onepole.h ****     @date Dec 2023 
  22:../DaisySP/Source/Filters/onepole.h ****     Ported from pichenettes/stmlib/dsp/filter.h \n 
  23:../DaisySP/Source/Filters/onepole.h ****     \n to an independent module. \n
  24:../DaisySP/Source/Filters/onepole.h ****     Original code written by Emilie Gillet. \n
  25:../DaisySP/Source/Filters/onepole.h **** */
  26:../DaisySP/Source/Filters/onepole.h **** class OnePole
  27:../DaisySP/Source/Filters/onepole.h **** {
  28:../DaisySP/Source/Filters/onepole.h ****   public:
  29:../DaisySP/Source/Filters/onepole.h ****     OnePole() {}
  30:../DaisySP/Source/Filters/onepole.h ****     ~OnePole() {}
ARM GAS  /var/folders/2p/02m_5p7958535cp2tpgps0400000gn/T//ccA8p2F3.s 			page 2


  29              		.loc 1 30 5 view -0
  30              		.cfi_startproc
  31              		@ args = 0, pretend = 0, frame = 0
  32              		@ frame_needed = 0, uses_anonymous_args = 0
  33              		@ link register save eliminated.
  34              		.loc 1 30 17 is_stmt 0 view .LVU1
  35 0000 7047     		bx	lr
  36              		.cfi_endproc
  37              	.LFE4460:
  39              		.weak	_ZN7daisysp7OnePoleD1Ev
  40              		.thumb_set _ZN7daisysp7OnePoleD1Ev,_ZN7daisysp7OnePoleD2Ev
  41              		.section	.text._ZN7daisysp10CompressorD2Ev,"axG",%progbits,_ZN7daisysp10CompressorD5Ev,comdat
  42              		.align	1
  43              		.weak	_ZN7daisysp10CompressorD2Ev
  44              		.syntax unified
  45              		.thumb
  46              		.thumb_func
  48              	_ZN7daisysp10CompressorD2Ev:
  49              	.LVL1:
  50              	.LFB4893:
  51              		.file 2 "DaisySP-LGPL-FX/compressor.h"
   1:DaisySP-LGPL-FX/compressor.h **** /*
   2:DaisySP-LGPL-FX/compressor.h **** Copyright (c) 2023 Electrosmith, Corp, GRAME, Centre National de Creation Musicale.
   3:DaisySP-LGPL-FX/compressor.h **** 
   4:DaisySP-LGPL-FX/compressor.h **** Use of this source code is governed by the LGPL V2.1
   5:DaisySP-LGPL-FX/compressor.h **** license that can be found in the LICENSE file or at
   6:DaisySP-LGPL-FX/compressor.h **** https://opensource.org/license/lgpl-2-1/
   7:DaisySP-LGPL-FX/compressor.h **** */
   8:DaisySP-LGPL-FX/compressor.h **** 
   9:DaisySP-LGPL-FX/compressor.h **** #pragma once
  10:DaisySP-LGPL-FX/compressor.h **** #ifndef DSY_COMPRESSOR_H
  11:DaisySP-LGPL-FX/compressor.h **** #define DSY_COMPRESSOR_H
  12:DaisySP-LGPL-FX/compressor.h **** 
  13:DaisySP-LGPL-FX/compressor.h **** #include "Utility/dsp.h"
  14:DaisySP-LGPL-FX/compressor.h **** 
  15:DaisySP-LGPL-FX/compressor.h **** namespace daisysp
  16:DaisySP-LGPL-FX/compressor.h **** {
  17:DaisySP-LGPL-FX/compressor.h **** /** dynamics compressor
  18:DaisySP-LGPL-FX/compressor.h **** 
  19:DaisySP-LGPL-FX/compressor.h **** influenced by compressor in soundpipe (from faust).
  20:DaisySP-LGPL-FX/compressor.h **** 
  21:DaisySP-LGPL-FX/compressor.h **** Modifications made to do:
  22:DaisySP-LGPL-FX/compressor.h **** - Less calculations during each process loop (coefficients recalculated on parameter change).
  23:DaisySP-LGPL-FX/compressor.h **** - C++-ified
  24:DaisySP-LGPL-FX/compressor.h **** - added sidechain support
  25:DaisySP-LGPL-FX/compressor.h **** - pulled gain apart for monitoring and multichannel support
  26:DaisySP-LGPL-FX/compressor.h **** - improved readability
  27:DaisySP-LGPL-FX/compressor.h **** - improved makeup-gain calculations
  28:DaisySP-LGPL-FX/compressor.h **** - changing controls now costs a lot less
  29:DaisySP-LGPL-FX/compressor.h **** - a lot less expensive
  30:DaisySP-LGPL-FX/compressor.h **** 
  31:DaisySP-LGPL-FX/compressor.h **** by: shensley, improved upon by AvAars
  32:DaisySP-LGPL-FX/compressor.h **** \todo Add soft/hard knee settings
  33:DaisySP-LGPL-FX/compressor.h **** */
  34:DaisySP-LGPL-FX/compressor.h **** class Compressor
  35:DaisySP-LGPL-FX/compressor.h **** {
  36:DaisySP-LGPL-FX/compressor.h ****   public:
ARM GAS  /var/folders/2p/02m_5p7958535cp2tpgps0400000gn/T//ccA8p2F3.s 			page 3


  37:DaisySP-LGPL-FX/compressor.h ****     Compressor() {}
  38:DaisySP-LGPL-FX/compressor.h ****     ~Compressor() {}
  52              		.loc 2 38 5 is_stmt 1 view -0
  53              		.cfi_startproc
  54              		@ args = 0, pretend = 0, frame = 0
  55              		@ frame_needed = 0, uses_anonymous_args = 0
  56              		@ link register save eliminated.
  57              		.loc 2 38 20 is_stmt 0 view .LVU3
  58 0000 7047     		bx	lr
  59              		.cfi_endproc
  60              	.LFE4893:
  62              		.weak	_ZN7daisysp10CompressorD1Ev
  63              		.thumb_set _ZN7daisysp10CompressorD1Ev,_ZN7daisysp10CompressorD2Ev
  64              		.section	.text._ZN7daisysp10MoogLadderD2Ev,"axG",%progbits,_ZN7daisysp10MoogLadderD5Ev,comdat
  65              		.align	1
  66              		.weak	_ZN7daisysp10MoogLadderD2Ev
  67              		.syntax unified
  68              		.thumb
  69              		.thumb_func
  71              	_ZN7daisysp10MoogLadderD2Ev:
  72              	.LVL2:
  73              	.LFB4926:
  74              		.file 3 "DaisySP-LGPL-FX/moogladder.h"
   1:DaisySP-LGPL-FX/moogladder.h **** /*
   2:DaisySP-LGPL-FX/moogladder.h **** Copyright (c) 2023 Electrosmith, Corp, Victor Lazzarini, John ffitch (fast tanh), Bob Moog
   3:DaisySP-LGPL-FX/moogladder.h **** 
   4:DaisySP-LGPL-FX/moogladder.h **** Use of this source code is governed by the LGPL V2.1
   5:DaisySP-LGPL-FX/moogladder.h **** license that can be found in the LICENSE file or at
   6:DaisySP-LGPL-FX/moogladder.h **** https://opensource.org/license/lgpl-2-1/
   7:DaisySP-LGPL-FX/moogladder.h **** */
   8:DaisySP-LGPL-FX/moogladder.h **** 
   9:DaisySP-LGPL-FX/moogladder.h **** #pragma once
  10:DaisySP-LGPL-FX/moogladder.h **** #ifndef DSY_MOOGLADDER_H
  11:DaisySP-LGPL-FX/moogladder.h **** #define DSY_MOOGLADDER_H
  12:DaisySP-LGPL-FX/moogladder.h **** 
  13:DaisySP-LGPL-FX/moogladder.h **** #include <stdint.h>
  14:DaisySP-LGPL-FX/moogladder.h **** #ifdef __cplusplus
  15:DaisySP-LGPL-FX/moogladder.h **** 
  16:DaisySP-LGPL-FX/moogladder.h **** namespace daisysp
  17:DaisySP-LGPL-FX/moogladder.h **** {
  18:DaisySP-LGPL-FX/moogladder.h **** /** Moog ladder filter module*/
  19:DaisySP-LGPL-FX/moogladder.h **** class MoogLadder
  20:DaisySP-LGPL-FX/moogladder.h **** {
  21:DaisySP-LGPL-FX/moogladder.h ****   public:
  22:DaisySP-LGPL-FX/moogladder.h ****     MoogLadder() {}
  23:DaisySP-LGPL-FX/moogladder.h ****     ~MoogLadder() {}
  75              		.loc 3 23 5 is_stmt 1 view -0
  76              		.cfi_startproc
  77              		@ args = 0, pretend = 0, frame = 0
  78              		@ frame_needed = 0, uses_anonymous_args = 0
  79              		@ link register save eliminated.
  80              		.loc 3 23 20 is_stmt 0 view .LVU5
  81 0000 7047     		bx	lr
  82              		.cfi_endproc
  83              	.LFE4926:
  85              		.weak	_ZN7daisysp10MoogLadderD1Ev
  86              		.thumb_set _ZN7daisysp10MoogLadderD1Ev,_ZN7daisysp10MoogLadderD2Ev
ARM GAS  /var/folders/2p/02m_5p7958535cp2tpgps0400000gn/T//ccA8p2F3.s 			page 4


  87              		.section	.text._ZNK5daisy6Switch10TimeHeldMsEv,"axG",%progbits,_ZNK5daisy6Switch10TimeHeldMsEv,com
  88              		.align	1
  89              		.weak	_ZNK5daisy6Switch10TimeHeldMsEv
  90              		.syntax unified
  91              		.thumb
  92              		.thumb_func
  94              	_ZNK5daisy6Switch10TimeHeldMsEv:
  95              	.LVL3:
  96              	.LFB1646:
  97              		.file 4 "../libDaisy/src/hid/switch.h"
   1:../libDaisy/src/hid/switch.h **** #pragma once
   2:../libDaisy/src/hid/switch.h **** #ifndef DSY_SWITCH_H
   3:../libDaisy/src/hid/switch.h **** #define DSY_SWITCH_H
   4:../libDaisy/src/hid/switch.h **** #include "daisy_core.h"
   5:../libDaisy/src/hid/switch.h **** #include "per/gpio.h"
   6:../libDaisy/src/hid/switch.h **** #include "sys/system.h"
   7:../libDaisy/src/hid/switch.h **** 
   8:../libDaisy/src/hid/switch.h **** namespace daisy
   9:../libDaisy/src/hid/switch.h **** {
  10:../libDaisy/src/hid/switch.h **** /** 
  11:../libDaisy/src/hid/switch.h ****     Generic Class for handling momentary/latching switches \n 
  12:../libDaisy/src/hid/switch.h ****     Inspired/influenced by Mutable Instruments (pichenettes) Switch classes
  13:../libDaisy/src/hid/switch.h ****     @author Stephen Hensley
  14:../libDaisy/src/hid/switch.h ****     @date December 2019
  15:../libDaisy/src/hid/switch.h ****     @ingroup controls
  16:../libDaisy/src/hid/switch.h **** */
  17:../libDaisy/src/hid/switch.h **** class Switch
  18:../libDaisy/src/hid/switch.h **** {
  19:../libDaisy/src/hid/switch.h ****   public:
  20:../libDaisy/src/hid/switch.h ****     /** Specifies the expected behavior of the switch */
  21:../libDaisy/src/hid/switch.h ****     enum Type
  22:../libDaisy/src/hid/switch.h ****     {
  23:../libDaisy/src/hid/switch.h ****         TYPE_TOGGLE,    /**< & */
  24:../libDaisy/src/hid/switch.h ****         TYPE_MOMENTARY, /**< & */
  25:../libDaisy/src/hid/switch.h ****     };
  26:../libDaisy/src/hid/switch.h ****     /** Specifies whether the pressed is HIGH or LOW. */
  27:../libDaisy/src/hid/switch.h ****     enum Polarity
  28:../libDaisy/src/hid/switch.h ****     {
  29:../libDaisy/src/hid/switch.h ****         POLARITY_NORMAL,   /**< & */
  30:../libDaisy/src/hid/switch.h ****         POLARITY_INVERTED, /**< & */
  31:../libDaisy/src/hid/switch.h ****     };
  32:../libDaisy/src/hid/switch.h **** 
  33:../libDaisy/src/hid/switch.h ****     /** Specifies whether to use built-in Pull Up/Down resistors to hold button at a given state wh
  34:../libDaisy/src/hid/switch.h ****     enum Pull
  35:../libDaisy/src/hid/switch.h ****     {
  36:../libDaisy/src/hid/switch.h ****         PULL_UP,   /**< & */
  37:../libDaisy/src/hid/switch.h ****         PULL_DOWN, /**< & */
  38:../libDaisy/src/hid/switch.h ****         PULL_NONE, /**< & */
  39:../libDaisy/src/hid/switch.h ****     };
  40:../libDaisy/src/hid/switch.h **** 
  41:../libDaisy/src/hid/switch.h ****     Switch() {}
  42:../libDaisy/src/hid/switch.h ****     ~Switch() {}
  43:../libDaisy/src/hid/switch.h **** 
  44:../libDaisy/src/hid/switch.h ****     /** 
  45:../libDaisy/src/hid/switch.h ****     Initializes the switch object with a given port/pin combo.
  46:../libDaisy/src/hid/switch.h ****     \param pin port/pin object to tell the switch which hardware pin to use.
  47:../libDaisy/src/hid/switch.h ****     \param update_rate Does nothing. Backwards compatibility until next breaking update.
ARM GAS  /var/folders/2p/02m_5p7958535cp2tpgps0400000gn/T//ccA8p2F3.s 			page 5


  48:../libDaisy/src/hid/switch.h ****     \param t switch type -- Default: TYPE_MOMENTARY
  49:../libDaisy/src/hid/switch.h ****     \param pol switch polarity -- Default: POLARITY_INVERTED
  50:../libDaisy/src/hid/switch.h ****     \param pu switch pull up/down -- Default: PULL_UP
  51:../libDaisy/src/hid/switch.h ****     */
  52:../libDaisy/src/hid/switch.h ****     void
  53:../libDaisy/src/hid/switch.h ****     Init(dsy_gpio_pin pin, float update_rate, Type t, Polarity pol, Pull pu);
  54:../libDaisy/src/hid/switch.h **** 
  55:../libDaisy/src/hid/switch.h ****     /**
  56:../libDaisy/src/hid/switch.h ****        Simplified Init.
  57:../libDaisy/src/hid/switch.h ****        \param pin port/pin object to tell the switch which hardware pin to use.
  58:../libDaisy/src/hid/switch.h ****        \param update_rate Left for backwards compatibility until next breaking change.
  59:../libDaisy/src/hid/switch.h ****     */
  60:../libDaisy/src/hid/switch.h ****     void Init(dsy_gpio_pin pin, float update_rate = 0.f);
  61:../libDaisy/src/hid/switch.h **** 
  62:../libDaisy/src/hid/switch.h ****     /** 
  63:../libDaisy/src/hid/switch.h ****     Called at update_rate to debounce and handle timing for the switch.
  64:../libDaisy/src/hid/switch.h ****     In order for events not to be missed, its important that the Edge/Pressed checks
  65:../libDaisy/src/hid/switch.h ****     be made at the same rate as the debounce function is being called.
  66:../libDaisy/src/hid/switch.h ****     */
  67:../libDaisy/src/hid/switch.h ****     void Debounce();
  68:../libDaisy/src/hid/switch.h **** 
  69:../libDaisy/src/hid/switch.h ****     /** \return true if a button was just pressed. */
  70:../libDaisy/src/hid/switch.h ****     inline bool RisingEdge() const { return updated_ ? state_ == 0x7f : false; }
  71:../libDaisy/src/hid/switch.h **** 
  72:../libDaisy/src/hid/switch.h ****     /** \return true if the button was just released */
  73:../libDaisy/src/hid/switch.h ****     inline bool FallingEdge() const
  74:../libDaisy/src/hid/switch.h ****     {
  75:../libDaisy/src/hid/switch.h ****         return updated_ ? state_ == 0x80 : false;
  76:../libDaisy/src/hid/switch.h ****     }
  77:../libDaisy/src/hid/switch.h **** 
  78:../libDaisy/src/hid/switch.h ****     /** \return true if the button is held down (or if the toggle is on) */
  79:../libDaisy/src/hid/switch.h ****     inline bool Pressed() const { return state_ == 0xff; }
  80:../libDaisy/src/hid/switch.h **** 
  81:../libDaisy/src/hid/switch.h ****     /** \return true if the button is held down, without debouncing */
  82:../libDaisy/src/hid/switch.h ****     inline bool RawState()
  83:../libDaisy/src/hid/switch.h ****     {
  84:../libDaisy/src/hid/switch.h ****         return flip_ ? !dsy_gpio_read(&hw_gpio_) : dsy_gpio_read(&hw_gpio_);
  85:../libDaisy/src/hid/switch.h ****     }
  86:../libDaisy/src/hid/switch.h **** 
  87:../libDaisy/src/hid/switch.h ****     /** \return the time in milliseconds that the button has been held (or toggle has been on) */
  88:../libDaisy/src/hid/switch.h ****     inline float TimeHeldMs() const
  98              		.loc 4 88 18 is_stmt 1 view -0
  99              		.cfi_startproc
 100              		@ args = 0, pretend = 0, frame = 0
 101              		@ frame_needed = 0, uses_anonymous_args = 0
  89:../libDaisy/src/hid/switch.h ****     {
  90:../libDaisy/src/hid/switch.h ****         return Pressed() ? System::GetNow() - rising_edge_time_ : 0;
 102              		.loc 4 90 9 view .LVU7
 103              	.LBB219:
 104              	.LBI219:
  79:../libDaisy/src/hid/switch.h **** 
 105              		.loc 4 79 17 view .LVU8
 106              	.LBB220:
  79:../libDaisy/src/hid/switch.h **** 
 107              		.loc 4 79 35 view .LVU9
  79:../libDaisy/src/hid/switch.h **** 
 108              		.loc 4 79 35 is_stmt 0 view .LVU10
ARM GAS  /var/folders/2p/02m_5p7958535cp2tpgps0400000gn/T//ccA8p2F3.s 			page 6


 109              	.LBE220:
 110              	.LBE219:
  88:../libDaisy/src/hid/switch.h ****     {
 111              		.loc 4 88 18 view .LVU11
 112 0000 10B5     		push	{r4, lr}
 113              		.cfi_def_cfa_offset 8
 114              		.cfi_offset 4, -8
 115              		.cfi_offset 14, -4
 116              		.loc 4 90 26 view .LVU12
 117 0002 837A     		ldrb	r3, [r0, #10]	@ zero_extendqisi2
  88:../libDaisy/src/hid/switch.h ****     {
 118              		.loc 4 88 18 view .LVU13
 119 0004 0446     		mov	r4, r0
 120              		.loc 4 90 26 view .LVU14
 121 0006 FF2B     		cmp	r3, #255
 122 0008 0AD1     		bne	.L6
 123              	.LVL4:
 124              	.LBB221:
 125              	.LBI221:
  88:../libDaisy/src/hid/switch.h ****     {
 126              		.loc 4 88 18 is_stmt 1 view .LVU15
 127              	.LBB222:
 128              		.loc 4 90 42 is_stmt 0 view .LVU16
 129 000a FFF7FEFF 		bl	_ZN5daisy6System6GetNowEv
 130              	.LVL5:
 131              		.loc 4 90 45 view .LVU17
 132 000e 07EE900A 		vmov	s15, r0	@ int
 133 0012 B8EE670A 		vcvt.f32.u32	s0, s15
 134              		.loc 4 90 26 view .LVU18
 135 0016 D4ED037A 		vldr.32	s15, [r4, #12]
 136 001a 30EE670A 		vsub.f32	s0, s0, s15
 137              	.LVL6:
 138              	.L4:
 139              		.loc 4 90 26 view .LVU19
 140              	.LBE222:
 141              	.LBE221:
  91:../libDaisy/src/hid/switch.h ****     }
 142              		.loc 4 91 5 view .LVU20
 143 001e 10BD     		pop	{r4, pc}
 144              	.LVL7:
 145              	.L6:
  90:../libDaisy/src/hid/switch.h ****     }
 146              		.loc 4 90 26 view .LVU21
 147 0020 9FED010A 		vldr.32	s0, .L7
  90:../libDaisy/src/hid/switch.h ****     }
 148              		.loc 4 90 67 view .LVU22
 149 0024 FBE7     		b	.L4
 150              	.L8:
 151 0026 00BF     		.align	2
 152              	.L7:
 153 0028 00000000 		.word	0
 154              		.cfi_endproc
 155              	.LFE1646:
 157              		.section	.text._ZN14GrannyChordApp20HandleEncoderPressedEv,"ax",%progbits
 158              		.align	1
 159              		.global	_ZN14GrannyChordApp20HandleEncoderPressedEv
 160              		.syntax unified
ARM GAS  /var/folders/2p/02m_5p7958535cp2tpgps0400000gn/T//ccA8p2F3.s 			page 7


 161              		.thumb
 162              		.thumb_func
 164              	_ZN14GrannyChordApp20HandleEncoderPressedEv:
 165              	.LVL8:
 166              	.LFB4937:
 167              		.file 5 "GrannyChordApp.cpp"
   1:GrannyChordApp.cpp **** #include "GrannyChordApp.h"
   2:GrannyChordApp.cpp **** 
   3:GrannyChordApp.cpp **** /* this is required for AudioCallback as it needs a static object */
   4:GrannyChordApp.cpp **** GrannyChordApp* GrannyChordApp::instance_ = nullptr;
   5:GrannyChordApp.cpp **** 
   6:GrannyChordApp.cpp **** /* declare / initialise static members */
   7:GrannyChordApp.cpp **** int16_t* GrannyChordApp::left_buf_=nullptr;
   8:GrannyChordApp.cpp **** int16_t* GrannyChordApp::right_buf_=nullptr;
   9:GrannyChordApp.cpp **** DTCMRAM_BSS AppState GrannyChordApp::curr_state_;
  10:GrannyChordApp.cpp **** DTCMRAM_BSS SynthMode GrannyChordApp::curr_synth_mode_;
  11:GrannyChordApp.cpp **** DTCMRAM_BSS SynthMode GrannyChordApp::prev_synth_mode_;
  12:GrannyChordApp.cpp **** 
  13:GrannyChordApp.cpp **** // __attribute__((section(".qspiflash_bss")))ReverbSc GrannyChordApp::reverb_;
  14:GrannyChordApp.cpp **** // DSY_SDRAM_BSS ReverbSc GrannyChordApp::reverb_;
  15:GrannyChordApp.cpp **** 
  16:GrannyChordApp.cpp **** DTCMRAM_BSS Compressor GrannyChordApp::comp_;
  17:GrannyChordApp.cpp **** DTCMRAM_BSS MoogLadder GrannyChordApp::lowpass_moog_;
  18:GrannyChordApp.cpp **** DTCMRAM_BSS OnePole GrannyChordApp::hipass_;
  19:GrannyChordApp.cpp **** DTCMRAM_BSS int GrannyChordApp::file_idx_=0;
  20:GrannyChordApp.cpp **** DTCMRAM_BSS size_t GrannyChordApp::wav_playhead_=0;
  21:GrannyChordApp.cpp **** DTCMRAM_BSS uint32_t GrannyChordApp::audio_len_=0;
  22:GrannyChordApp.cpp **** DTCMRAM_BSS float GrannyChordApp::prev_param_vals_k1[NUM_SYNTH_MODES];
  23:GrannyChordApp.cpp **** DTCMRAM_BSS float GrannyChordApp::prev_param_vals_k2[NUM_SYNTH_MODES];
  24:GrannyChordApp.cpp **** DTCMRAM_BSS int GrannyChordApp::recording_count_=0;
  25:GrannyChordApp.cpp **** 
  26:GrannyChordApp.cpp **** /// @brief Initialises app state and members and goes through app startup process
  27:GrannyChordApp.cpp **** /// @param left Left channel audio data buffer
  28:GrannyChordApp.cpp **** /// @param right Right channel audio data buffer
  29:GrannyChordApp.cpp **** void GrannyChordApp::Init(int16_t *left, int16_t *right){
  30:GrannyChordApp.cpp ****   left_buf_ = left;
  31:GrannyChordApp.cpp ****   right_buf_ = right;
  32:GrannyChordApp.cpp ****   pod_.SetAudioBlockSize(4);
  33:GrannyChordApp.cpp ****   pod_.SetAudioSampleRate(SaiHandle::Config::SampleRate::SAI_48KHZ);
  34:GrannyChordApp.cpp ****   curr_state_ = AppState::SelectFile;
  35:GrannyChordApp.cpp ****   if (!InitFileMgr()){
  36:GrannyChordApp.cpp ****     // DebugPrint(pod_,"File manager failed to init - can't read SD card");
  37:GrannyChordApp.cpp ****     pod_.led1.SetRed(1);
  38:GrannyChordApp.cpp ****   }
  39:GrannyChordApp.cpp **** 
  40:GrannyChordApp.cpp ****   InitFX();
  41:GrannyChordApp.cpp ****   InitPrevParamVals();
  42:GrannyChordApp.cpp ****   SeedRng();
  43:GrannyChordApp.cpp ****   pod_.StartAdc();
  44:GrannyChordApp.cpp ****   pod_.StartAudio(AudioCallback);
  45:GrannyChordApp.cpp ****   // DebugPrint(pod_, "started audiocb");
  46:GrannyChordApp.cpp **** }
  47:GrannyChordApp.cpp **** 
  48:GrannyChordApp.cpp **** 
  49:GrannyChordApp.cpp **** /// @brief Loops whilst app is running, updating state and UI, handling 
  50:GrannyChordApp.cpp **** ///        state transitions, updating parameters and managing audio recordings
  51:GrannyChordApp.cpp **** void GrannyChordApp::Run(){
ARM GAS  /var/folders/2p/02m_5p7958535cp2tpgps0400000gn/T//ccA8p2F3.s 			page 8


  52:GrannyChordApp.cpp ****   // DebugPrint(pod_, "started running");
  53:GrannyChordApp.cpp ****   while(true){
  54:GrannyChordApp.cpp ****     UpdateUI();
  55:GrannyChordApp.cpp ****     UpdateSynthParams();
  56:GrannyChordApp.cpp ****     System::Delay(1);
  57:GrannyChordApp.cpp ****   }
  58:GrannyChordApp.cpp **** }
  59:GrannyChordApp.cpp **** 
  60:GrannyChordApp.cpp **** void GrannyChordApp::UpdateUI(){
  61:GrannyChordApp.cpp ****   AppState prev_state = curr_state_;
  62:GrannyChordApp.cpp ****   pod_.ProcessDigitalControls();
  63:GrannyChordApp.cpp ****   if (pod_.encoder.Pressed()) HandleEncoderPressed();
  64:GrannyChordApp.cpp ****   if (pod_.encoder.TimeHeldMs() > 1000.0f) HandleEncoderLongPress();
  65:GrannyChordApp.cpp ****   if (pod_.button1.Pressed()) HandleButton1();
  66:GrannyChordApp.cpp ****   if (pod_.button2.Pressed()) HandleButton2();
  67:GrannyChordApp.cpp ****   if (curr_state_==AppState::Synthesis){
  68:GrannyChordApp.cpp ****     if (pod_.button1.TimeHeldMs() >1000.0f) HandleButton1LongPress();
  69:GrannyChordApp.cpp ****     if (pod_.button2.TimeHeldMs() >1000.0f) HandleButton2LongPress();
  70:GrannyChordApp.cpp ****   }
  71:GrannyChordApp.cpp **** 
  72:GrannyChordApp.cpp ****   int32_t encoder_inc = pod_.encoder.Increment();
  73:GrannyChordApp.cpp ****   if (encoder_inc!=0 && curr_state_== AppState::SelectFile){
  74:GrannyChordApp.cpp ****     HandleFileSelection(encoder_inc);
  75:GrannyChordApp.cpp ****   }
  76:GrannyChordApp.cpp **** 
  77:GrannyChordApp.cpp ****   if (prev_state != curr_state_){
  78:GrannyChordApp.cpp ****     HandleStateChange();
  79:GrannyChordApp.cpp ****   }
  80:GrannyChordApp.cpp **** }
  81:GrannyChordApp.cpp **** 
  82:GrannyChordApp.cpp **** void GrannyChordApp::HandleStateChange(){
  83:GrannyChordApp.cpp ****   switch(curr_state_){
  84:GrannyChordApp.cpp ****     // case AppState::SelectFile:  HandleFileSelection(); break; 
  85:GrannyChordApp.cpp ****     case AppState::RecordIn:    ClearAudioBuffers();    break;
  86:GrannyChordApp.cpp ****     case AppState::PlayWAV:     InitPlayback();        break;
  87:GrannyChordApp.cpp ****     case AppState::Synthesis:   InitSynth();           break;
  88:GrannyChordApp.cpp ****     case AppState::Error: 
  89:GrannyChordApp.cpp ****       pod_.led1.SetRed(1); 
  90:GrannyChordApp.cpp ****       pod_.led2.SetRed(1); 
  91:GrannyChordApp.cpp ****       break;
  92:GrannyChordApp.cpp ****     default: break;
  93:GrannyChordApp.cpp ****   }
  94:GrannyChordApp.cpp **** }
  95:GrannyChordApp.cpp **** 
  96:GrannyChordApp.cpp **** void GrannyChordApp::HandleEncoderPressed(){
 168              		.loc 5 96 44 is_stmt 1 view -0
 169              		.cfi_startproc
 170              		@ args = 0, pretend = 0, frame = 0
 171              		@ frame_needed = 0, uses_anonymous_args = 0
 172              		@ link register save eliminated.
  97:GrannyChordApp.cpp ****   switch(curr_state_){
 173              		.loc 5 97 3 view .LVU24
 174 0000 054B     		ldr	r3, .L17
 175 0002 1A68     		ldr	r2, [r3]
 176 0004 012A     		cmp	r2, #1
 177 0006 05D0     		beq	.L10
 178 0008 032A     		cmp	r2, #3
ARM GAS  /var/folders/2p/02m_5p7958535cp2tpgps0400000gn/T//ccA8p2F3.s 			page 9


 179 000a 00D0     		beq	.L11
 180 000c 0AB9     		cbnz	r2, .L9
 181              	.L11:
  98:GrannyChordApp.cpp ****     case AppState::SelectFile:
 182              		.loc 5 98 5 view .LVU25
  99:GrannyChordApp.cpp ****     case AppState::RecordIn: 
 183              		.loc 5 99 5 view .LVU26
 100:GrannyChordApp.cpp ****       curr_state_ = AppState::PlayWAV;
 184              		.loc 5 100 7 view .LVU27
 185              		.loc 5 100 19 is_stmt 0 view .LVU28
 186 000e 0122     		movs	r2, #1
 187              	.L16:
 101:GrannyChordApp.cpp ****       break;
 102:GrannyChordApp.cpp ****     case AppState::PlayWAV:   curr_state_ = AppState::Synthesis; break;
 188              		.loc 5 102 43 view .LVU29
 189 0010 1A60     		str	r2, [r3]
 190              		.loc 5 102 66 is_stmt 1 view .LVU30
 191              	.L9:
 103:GrannyChordApp.cpp ****     default:
 104:GrannyChordApp.cpp ****       break;
 105:GrannyChordApp.cpp ****   }
 106:GrannyChordApp.cpp **** }
 192              		.loc 5 106 1 is_stmt 0 view .LVU31
 193 0012 7047     		bx	lr
 194              	.L10:
 102:GrannyChordApp.cpp ****     default:
 195              		.loc 5 102 5 is_stmt 1 view .LVU32
 102:GrannyChordApp.cpp ****     default:
 196              		.loc 5 102 31 view .LVU33
 102:GrannyChordApp.cpp ****     default:
 197              		.loc 5 102 43 is_stmt 0 view .LVU34
 198 0014 0222     		movs	r2, #2
 199 0016 FBE7     		b	.L16
 200              	.L18:
 201              		.align	2
 202              	.L17:
 203 0018 00000000 		.word	.LANCHOR0
 204              		.cfi_endproc
 205              	.LFE4937:
 207              		.section	.text._ZN14GrannyChordApp22HandleEncoderLongPressEv,"ax",%progbits
 208              		.align	1
 209              		.global	_ZN14GrannyChordApp22HandleEncoderLongPressEv
 210              		.syntax unified
 211              		.thumb
 212              		.thumb_func
 214              	_ZN14GrannyChordApp22HandleEncoderLongPressEv:
 215              	.LVL9:
 216              	.LFB4938:
 107:GrannyChordApp.cpp **** 
 108:GrannyChordApp.cpp **** void GrannyChordApp::HandleEncoderLongPress(){
 217              		.loc 5 108 46 is_stmt 1 view -0
 218              		.cfi_startproc
 219              		@ args = 0, pretend = 0, frame = 0
 220              		@ frame_needed = 0, uses_anonymous_args = 0
 221              		@ link register save eliminated.
 109:GrannyChordApp.cpp ****   switch(curr_state_){
 222              		.loc 5 109 3 view .LVU36
ARM GAS  /var/folders/2p/02m_5p7958535cp2tpgps0400000gn/T//ccA8p2F3.s 			page 10


 223 0000 064A     		ldr	r2, .L24
 224 0002 1368     		ldr	r3, [r2]
 225 0004 012B     		cmp	r3, #1
 226 0006 03DC     		bgt	.L20
 227 0008 002B     		cmp	r3, #0
 228 000a 06DB     		blt	.L19
 110:GrannyChordApp.cpp ****     case AppState::Synthesis:
 111:GrannyChordApp.cpp ****     case AppState::RecordIn:  
 112:GrannyChordApp.cpp ****       curr_state_ = AppState::SelectFile;
 113:GrannyChordApp.cpp ****       break;
 114:GrannyChordApp.cpp ****     case AppState::SelectFile:
 229              		.loc 5 114 5 view .LVU37
 115:GrannyChordApp.cpp ****     case AppState::PlayWAV: 
 230              		.loc 5 115 5 view .LVU38
 116:GrannyChordApp.cpp ****       curr_state_ = AppState::RecordIn;  
 231              		.loc 5 116 7 view .LVU39
 232              		.loc 5 116 19 is_stmt 0 view .LVU40
 233 000c 0323     		movs	r3, #3
 234 000e 03E0     		b	.L23
 235              	.L20:
 109:GrannyChordApp.cpp ****     case AppState::Synthesis:
 236              		.loc 5 109 3 view .LVU41
 237 0010 023B     		subs	r3, r3, #2
 238 0012 012B     		cmp	r3, #1
 239 0014 01D8     		bhi	.L19
 110:GrannyChordApp.cpp ****     case AppState::RecordIn:  
 240              		.loc 5 110 5 is_stmt 1 view .LVU42
 111:GrannyChordApp.cpp ****       curr_state_ = AppState::SelectFile;
 241              		.loc 5 111 5 view .LVU43
 112:GrannyChordApp.cpp ****       break;
 242              		.loc 5 112 7 view .LVU44
 112:GrannyChordApp.cpp ****       break;
 243              		.loc 5 112 19 is_stmt 0 view .LVU45
 244 0016 0023     		movs	r3, #0
 245              	.L23:
 246              		.loc 5 116 19 view .LVU46
 247 0018 1360     		str	r3, [r2]
 117:GrannyChordApp.cpp ****       break;
 248              		.loc 5 117 7 is_stmt 1 view .LVU47
 249              	.L19:
 118:GrannyChordApp.cpp ****     default:
 119:GrannyChordApp.cpp ****       break;
 120:GrannyChordApp.cpp ****   }
 121:GrannyChordApp.cpp **** }
 250              		.loc 5 121 1 is_stmt 0 view .LVU48
 251 001a 7047     		bx	lr
 252              	.L25:
 253              		.align	2
 254              	.L24:
 255 001c 00000000 		.word	.LANCHOR0
 256              		.cfi_endproc
 257              	.LFE4938:
 259              		.section	.text._ZN14GrannyChordApp19HandleFileSelectionEl,"ax",%progbits
 260              		.align	1
 261              		.global	_ZN14GrannyChordApp19HandleFileSelectionEl
 262              		.syntax unified
 263              		.thumb
ARM GAS  /var/folders/2p/02m_5p7958535cp2tpgps0400000gn/T//ccA8p2F3.s 			page 11


 264              		.thumb_func
 266              	_ZN14GrannyChordApp19HandleFileSelectionEl:
 267              	.LVL10:
 268              	.LFB4943:
 122:GrannyChordApp.cpp **** 
 123:GrannyChordApp.cpp **** void GrannyChordApp::HandleButton1(){
 124:GrannyChordApp.cpp ****   if (curr_state_==AppState::Synthesis){
 125:GrannyChordApp.cpp ****     UpdateSynthMode();
 126:GrannyChordApp.cpp ****   }
 127:GrannyChordApp.cpp **** }
 128:GrannyChordApp.cpp **** 
 129:GrannyChordApp.cpp **** /// @brief Toggles on/off randomness for synth parameters
 130:GrannyChordApp.cpp **** void GrannyChordApp::HandleButton2(){
 131:GrannyChordApp.cpp ****   if (curr_state_==AppState::Synthesis){
 132:GrannyChordApp.cpp ****     ToggleRandomnessControls();
 133:GrannyChordApp.cpp ****   }
 134:GrannyChordApp.cpp **** }
 135:GrannyChordApp.cpp **** 
 136:GrannyChordApp.cpp **** void GrannyChordApp::HandleButton1LongPress(){
 137:GrannyChordApp.cpp ****   if (curr_state_==AppState::Synthesis){
 138:GrannyChordApp.cpp ****     ToggleFX(true);
 139:GrannyChordApp.cpp ****   }
 140:GrannyChordApp.cpp **** }
 141:GrannyChordApp.cpp **** 
 142:GrannyChordApp.cpp **** void GrannyChordApp::HandleButton2LongPress(){
 143:GrannyChordApp.cpp ****   if (curr_state_==AppState::Synthesis){
 144:GrannyChordApp.cpp ****     ToggleFX(false);
 145:GrannyChordApp.cpp ****   }
 146:GrannyChordApp.cpp **** }
 147:GrannyChordApp.cpp **** 
 148:GrannyChordApp.cpp **** /// @brief Scrolls through list of files for user selection
 149:GrannyChordApp.cpp **** void GrannyChordApp::HandleFileSelection(int32_t encoder_inc){
 269              		.loc 5 149 62 is_stmt 1 view -0
 270              		.cfi_startproc
 271              		@ args = 0, pretend = 0, frame = 0
 272              		@ frame_needed = 0, uses_anonymous_args = 0
 273              		@ link register save eliminated.
 150:GrannyChordApp.cpp ****   int file_count = filemgr_.GetFileCount();
 274              		.loc 5 150 3 view .LVU50
 275              	.LBB223:
 276              	.LBI223:
 277              		.file 6 "AudioFileManager.h"
   1:AudioFileManager.h **** #pragma once
   2:AudioFileManager.h **** #include <stdio.h>
   3:AudioFileManager.h **** #include <stdint.h>
   4:AudioFileManager.h **** #include "daisy_pod.h"
   5:AudioFileManager.h **** #include "constants_utils.h"
   6:AudioFileManager.h **** #include "debug_print.h"
   7:AudioFileManager.h **** #include "wavheader.h"
   8:AudioFileManager.h **** 
   9:AudioFileManager.h **** using namespace daisy; 
  10:AudioFileManager.h **** 
  11:AudioFileManager.h **** class AudioFileManager {
  12:AudioFileManager.h ****   public:
  13:AudioFileManager.h ****     AudioFileManager(SdmmcHandler &sd, FatFSInterface &fsi, DaisyPod &pod, FIL *file)
  14:AudioFileManager.h ****       : sd_(sd), fsi_(fsi), pod_(pod), curr_file_(file){};
  15:AudioFileManager.h ****     
ARM GAS  /var/folders/2p/02m_5p7958535cp2tpgps0400000gn/T//ccA8p2F3.s 			page 12


  16:AudioFileManager.h ****     bool Init();
  17:AudioFileManager.h ****     bool ScanWavFiles();
  18:AudioFileManager.h ****     void SetBuffers(int16_t *left, int16_t *right);
  19:AudioFileManager.h ****     bool LoadFile(uint16_t file_idx);
  20:AudioFileManager.h ****     bool CloseFile();
  21:AudioFileManager.h ****     bool GetWavHeader(FIL *file);
  22:AudioFileManager.h **** 
  23:AudioFileManager.h ****     int16_t* GetLeftBuffer() const { return left_buf_; }
  24:AudioFileManager.h ****     int16_t* GetRightBuffer() const { return right_buf_; }
  25:AudioFileManager.h ****     size_t GetSamplesPerChannel() const { return header_.total_samples / header_.channels; }
  26:AudioFileManager.h ****     size_t GetTotalSamples() const { return header_.total_samples; }
  27:AudioFileManager.h ****     int16_t GetNumChannels() const { return header_.channels; }
  28:AudioFileManager.h ****     uint16_t GetFileCount() const { return file_count_; }
 278              		.loc 6 28 14 view .LVU51
 279              	.LBB224:
 280              		.loc 6 28 37 view .LVU52
 281              		.loc 6 28 37 is_stmt 0 view .LVU53
 282              	.LBE224:
 283              	.LBE223:
 151:GrannyChordApp.cpp ****   file_idx_ = (file_idx_ + encoder_inc + file_count) % file_count;
 284              		.loc 5 151 13 view .LVU54
 285 0000 054A     		ldr	r2, .L27
 286              	.LBB226:
 287              	.LBB225:
 288              		.loc 6 28 44 view .LVU55
 289 0002 064B     		ldr	r3, .L27+4
 290              	.LBE225:
 291              	.LBE226:
 292              		.loc 5 151 26 view .LVU56
 293 0004 5068     		ldr	r0, [r2, #4]
 294              	.LVL11:
 150:GrannyChordApp.cpp ****   int file_count = filemgr_.GetFileCount();
 295              		.loc 5 150 42 view .LVU57
 296 0006 1B88     		ldrh	r3, [r3]
 297              	.LVL12:
 298              		.loc 5 151 3 is_stmt 1 view .LVU58
 299              		.loc 5 151 26 is_stmt 0 view .LVU59
 300 0008 0144     		add	r1, r1, r0
 301              	.LVL13:
 302              		.loc 5 151 40 view .LVU60
 303 000a 1944     		add	r1, r1, r3
 304              		.loc 5 151 54 view .LVU61
 305 000c 91FBF3F0 		sdiv	r0, r1, r3
 306 0010 03FB1011 		mls	r1, r3, r0, r1
 307              		.loc 5 151 13 view .LVU62
 308 0014 5160     		str	r1, [r2, #4]
 152:GrannyChordApp.cpp ****   // filemgr_.GetName(file_idx_,fname);
 153:GrannyChordApp.cpp ****   // DebugPrint(pod_, "selected file %d",file_idx_);
 154:GrannyChordApp.cpp **** }
 309              		.loc 5 154 1 view .LVU63
 310 0016 7047     		bx	lr
 311              	.L28:
 312              		.align	2
 313              	.L27:
 314 0018 00000000 		.word	.LANCHOR0
 315 001c 00000000 		.word	_ZN16AudioFileManager11file_count_E
 316              		.cfi_endproc
ARM GAS  /var/folders/2p/02m_5p7958535cp2tpgps0400000gn/T//ccA8p2F3.s 			page 13


 317              	.LFE4943:
 319              		.section	.text._ZN14GrannyChordApp15UpdateSynthModeEv,"ax",%progbits
 320              		.align	1
 321              		.global	_ZN14GrannyChordApp15UpdateSynthModeEv
 322              		.syntax unified
 323              		.thumb
 324              		.thumb_func
 326              	_ZN14GrannyChordApp15UpdateSynthModeEv:
 327              	.LVL14:
 328              	.LFB4944:
 155:GrannyChordApp.cpp **** 
 156:GrannyChordApp.cpp **** /// @brief iterates through synth parameter control modes
 157:GrannyChordApp.cpp **** void GrannyChordApp::UpdateSynthMode(){
 329              		.loc 5 157 39 is_stmt 1 view -0
 330              		.cfi_startproc
 331              		@ args = 0, pretend = 0, frame = 0
 332              		@ frame_needed = 0, uses_anonymous_args = 0
 333              		@ link register save eliminated.
 158:GrannyChordApp.cpp ****   switch(curr_synth_mode_){
 334              		.loc 5 158 3 view .LVU65
 335 0000 094B     		ldr	r3, .L37
 336 0002 9A68     		ldr	r2, [r3, #8]
 337 0004 062A     		cmp	r2, #6
 338 0006 07D8     		bhi	.L29
 339 0008 DFE802F0 		tbb	[pc, r2]
 340              	.L32:
 341 000c 04       		.byte	(.L35-.L32)/2
 342 000d 06       		.byte	(.L29-.L32)/2
 343 000e 07       		.byte	(.L34-.L32)/2
 344 000f 06       		.byte	(.L29-.L32)/2
 345 0010 09       		.byte	(.L33-.L32)/2
 346 0011 06       		.byte	(.L29-.L32)/2
 347 0012 0B       		.byte	(.L31-.L32)/2
 348 0013 00       		.p2align 1
 349              	.L35:
 159:GrannyChordApp.cpp ****     case SynthMode::Size_Position:
 350              		.loc 5 159 5 view .LVU66
 160:GrannyChordApp.cpp ****       curr_synth_mode_ = SynthMode::Pitch_ActiveGrains;
 351              		.loc 5 160 7 view .LVU67
 352              		.loc 5 160 24 is_stmt 0 view .LVU68
 353 0014 0222     		movs	r2, #2
 354              	.L36:
 161:GrannyChordApp.cpp ****       break;
 162:GrannyChordApp.cpp ****     case SynthMode::Pitch_ActiveGrains:
 163:GrannyChordApp.cpp ****       curr_synth_mode_ = SynthMode::PhasorMode_EnvType;
 164:GrannyChordApp.cpp ****       break;
 165:GrannyChordApp.cpp ****     case SynthMode::PhasorMode_EnvType:
 166:GrannyChordApp.cpp ****       curr_synth_mode_ = SynthMode::Pan_PanRnd;
 167:GrannyChordApp.cpp ****       break;
 168:GrannyChordApp.cpp ****     case SynthMode::Pan_PanRnd:
 169:GrannyChordApp.cpp ****       curr_synth_mode_ = SynthMode::Size_Position;
 355              		.loc 5 169 24 view .LVU69
 356 0016 9A60     		str	r2, [r3, #8]
 170:GrannyChordApp.cpp ****       break;
 357              		.loc 5 170 7 is_stmt 1 view .LVU70
 358              	.L29:
 171:GrannyChordApp.cpp ****     default:
ARM GAS  /var/folders/2p/02m_5p7958535cp2tpgps0400000gn/T//ccA8p2F3.s 			page 14


 172:GrannyChordApp.cpp ****       break;
 173:GrannyChordApp.cpp ****   }
 174:GrannyChordApp.cpp **** }
 359              		.loc 5 174 1 is_stmt 0 view .LVU71
 360 0018 7047     		bx	lr
 361              	.L34:
 162:GrannyChordApp.cpp ****       curr_synth_mode_ = SynthMode::PhasorMode_EnvType;
 362              		.loc 5 162 5 is_stmt 1 view .LVU72
 163:GrannyChordApp.cpp ****       break;
 363              		.loc 5 163 7 view .LVU73
 163:GrannyChordApp.cpp ****       break;
 364              		.loc 5 163 24 is_stmt 0 view .LVU74
 365 001a 0422     		movs	r2, #4
 366 001c FBE7     		b	.L36
 367              	.L33:
 165:GrannyChordApp.cpp ****       curr_synth_mode_ = SynthMode::Pan_PanRnd;
 368              		.loc 5 165 5 is_stmt 1 view .LVU75
 166:GrannyChordApp.cpp ****       break;
 369              		.loc 5 166 7 view .LVU76
 166:GrannyChordApp.cpp ****       break;
 370              		.loc 5 166 24 is_stmt 0 view .LVU77
 371 001e 0622     		movs	r2, #6
 372 0020 F9E7     		b	.L36
 373              	.L31:
 168:GrannyChordApp.cpp ****       curr_synth_mode_ = SynthMode::Size_Position;
 374              		.loc 5 168 5 is_stmt 1 view .LVU78
 169:GrannyChordApp.cpp ****       break;
 375              		.loc 5 169 7 view .LVU79
 169:GrannyChordApp.cpp ****       break;
 376              		.loc 5 169 24 is_stmt 0 view .LVU80
 377 0022 0022     		movs	r2, #0
 378 0024 F7E7     		b	.L36
 379              	.L38:
 380 0026 00BF     		.align	2
 381              	.L37:
 382 0028 00000000 		.word	.LANCHOR0
 383              		.cfi_endproc
 384              	.LFE4944:
 386              		.section	.text._ZN14GrannyChordApp13HandleButton1Ev,"ax",%progbits
 387              		.align	1
 388              		.global	_ZN14GrannyChordApp13HandleButton1Ev
 389              		.syntax unified
 390              		.thumb
 391              		.thumb_func
 393              	_ZN14GrannyChordApp13HandleButton1Ev:
 394              	.LVL15:
 395              	.LFB4939:
 123:GrannyChordApp.cpp ****   if (curr_state_==AppState::Synthesis){
 396              		.loc 5 123 37 is_stmt 1 view -0
 397              		.cfi_startproc
 398              		@ args = 0, pretend = 0, frame = 0
 399              		@ frame_needed = 0, uses_anonymous_args = 0
 400              		@ link register save eliminated.
 124:GrannyChordApp.cpp ****     UpdateSynthMode();
 401              		.loc 5 124 3 view .LVU82
 124:GrannyChordApp.cpp ****     UpdateSynthMode();
 402              		.loc 5 124 18 is_stmt 0 view .LVU83
ARM GAS  /var/folders/2p/02m_5p7958535cp2tpgps0400000gn/T//ccA8p2F3.s 			page 15


 403 0000 034B     		ldr	r3, .L41
 124:GrannyChordApp.cpp ****     UpdateSynthMode();
 404              		.loc 5 124 3 view .LVU84
 405 0002 1B68     		ldr	r3, [r3]
 406 0004 022B     		cmp	r3, #2
 407 0006 01D1     		bne	.L39
 125:GrannyChordApp.cpp ****   }
 408              		.loc 5 125 5 is_stmt 1 view .LVU85
 125:GrannyChordApp.cpp ****   }
 409              		.loc 5 125 20 is_stmt 0 view .LVU86
 410 0008 FFF7FEBF 		b	_ZN14GrannyChordApp15UpdateSynthModeEv
 411              	.LVL16:
 412              	.L39:
 127:GrannyChordApp.cpp **** 
 413              		.loc 5 127 1 view .LVU87
 414 000c 7047     		bx	lr
 415              	.L42:
 416 000e 00BF     		.align	2
 417              	.L41:
 418 0010 00000000 		.word	.LANCHOR0
 419              		.cfi_endproc
 420              	.LFE4939:
 422              		.section	.text._ZN14GrannyChordApp24ToggleRandomnessControlsEv,"ax",%progbits
 423              		.align	1
 424              		.global	_ZN14GrannyChordApp24ToggleRandomnessControlsEv
 425              		.syntax unified
 426              		.thumb
 427              		.thumb_func
 429              	_ZN14GrannyChordApp24ToggleRandomnessControlsEv:
 430              	.LVL17:
 431              	.LFB4946:
 175:GrannyChordApp.cpp **** 
 176:GrannyChordApp.cpp **** /// @brief Updates synth parameters based on current synth mode and adjusts
 177:GrannyChordApp.cpp **** ///        knob input values to account for knob jitter and deadzones around 0/1
 178:GrannyChordApp.cpp **** void GrannyChordApp::UpdateSynthParams(){
 179:GrannyChordApp.cpp ****   if (curr_state_!=AppState::Synthesis) return;
 180:GrannyChordApp.cpp ****   int mode_idx = static_cast<int>(curr_synth_mode_);
 181:GrannyChordApp.cpp ****   float knob1_val = MapKnobDeadzone(pod_.knob1.Process());
 182:GrannyChordApp.cpp ****   float knob2_val = MapKnobDeadzone(pod_.knob2.Process());
 183:GrannyChordApp.cpp **** 
 184:GrannyChordApp.cpp ****   if (CheckParamDelta(knob1_val,prev_param_vals_k1[mode_idx])){
 185:GrannyChordApp.cpp ****     UpdateKnob1Params(knob1_val,curr_synth_mode_);
 186:GrannyChordApp.cpp ****     prev_param_vals_k1[mode_idx] = knob1_val;
 187:GrannyChordApp.cpp ****   }
 188:GrannyChordApp.cpp ****   if(CheckParamDelta(knob2_val, prev_param_vals_k2[mode_idx])){
 189:GrannyChordApp.cpp ****     UpdateKnob2Params(knob2_val, curr_synth_mode_);
 190:GrannyChordApp.cpp ****     prev_param_vals_k2[mode_idx] = knob2_val;
 191:GrannyChordApp.cpp ****   }
 192:GrannyChordApp.cpp **** }
 193:GrannyChordApp.cpp **** 
 194:GrannyChordApp.cpp **** void GrannyChordApp::ToggleRandomnessControls(){
 432              		.loc 5 194 48 is_stmt 1 view -0
 433              		.cfi_startproc
 434              		@ args = 0, pretend = 0, frame = 0
 435              		@ frame_needed = 0, uses_anonymous_args = 0
 436              		@ link register save eliminated.
 195:GrannyChordApp.cpp ****   if (curr_synth_mode_ <= SynthMode::PhasorMode_EnvType_Rnd){
ARM GAS  /var/folders/2p/02m_5p7958535cp2tpgps0400000gn/T//ccA8p2F3.s 			page 16


 437              		.loc 5 195 3 view .LVU89
 438              		.loc 5 195 24 is_stmt 0 view .LVU90
 439 0000 034A     		ldr	r2, .L45
 440 0002 9368     		ldr	r3, [r2, #8]
 441              		.loc 5 195 3 view .LVU91
 442 0004 052B     		cmp	r3, #5
 196:GrannyChordApp.cpp ****     /* below works because regular modes are even, random modes are odd
 197:GrannyChordApp.cpp ****       so we can XOR their enum value to get the corresponding mode */
 198:GrannyChordApp.cpp ****     curr_synth_mode_ = static_cast<SynthMode>(static_cast<int>(curr_synth_mode_) ^ 1);
 443              		.loc 5 198 5 is_stmt 1 view .LVU92
 444              		.loc 5 198 82 is_stmt 0 view .LVU93
 445 0006 DCBF     		itt	le
 446 0008 83F00103 		eorle	r3, r3, #1
 447              		.loc 5 198 22 view .LVU94
 448 000c 9360     		strle	r3, [r2, #8]
 199:GrannyChordApp.cpp ****   }
 200:GrannyChordApp.cpp **** }
 449              		.loc 5 200 1 view .LVU95
 450 000e 7047     		bx	lr
 451              	.L46:
 452              		.align	2
 453              	.L45:
 454 0010 00000000 		.word	.LANCHOR0
 455              		.cfi_endproc
 456              	.LFE4946:
 458              		.section	.text._ZN14GrannyChordApp13HandleButton2Ev,"ax",%progbits
 459              		.align	1
 460              		.global	_ZN14GrannyChordApp13HandleButton2Ev
 461              		.syntax unified
 462              		.thumb
 463              		.thumb_func
 465              	_ZN14GrannyChordApp13HandleButton2Ev:
 466              	.LVL18:
 467              	.LFB4940:
 130:GrannyChordApp.cpp ****   if (curr_state_==AppState::Synthesis){
 468              		.loc 5 130 37 is_stmt 1 view -0
 469              		.cfi_startproc
 470              		@ args = 0, pretend = 0, frame = 0
 471              		@ frame_needed = 0, uses_anonymous_args = 0
 472              		@ link register save eliminated.
 131:GrannyChordApp.cpp ****     ToggleRandomnessControls();
 473              		.loc 5 131 3 view .LVU97
 131:GrannyChordApp.cpp ****     ToggleRandomnessControls();
 474              		.loc 5 131 18 is_stmt 0 view .LVU98
 475 0000 034B     		ldr	r3, .L49
 131:GrannyChordApp.cpp ****     ToggleRandomnessControls();
 476              		.loc 5 131 3 view .LVU99
 477 0002 1B68     		ldr	r3, [r3]
 478 0004 022B     		cmp	r3, #2
 479 0006 01D1     		bne	.L47
 132:GrannyChordApp.cpp ****   }
 480              		.loc 5 132 5 is_stmt 1 view .LVU100
 132:GrannyChordApp.cpp ****   }
 481              		.loc 5 132 29 is_stmt 0 view .LVU101
 482 0008 FFF7FEBF 		b	_ZN14GrannyChordApp24ToggleRandomnessControlsEv
 483              	.LVL19:
 484              	.L47:
ARM GAS  /var/folders/2p/02m_5p7958535cp2tpgps0400000gn/T//ccA8p2F3.s 			page 17


 134:GrannyChordApp.cpp **** 
 485              		.loc 5 134 1 view .LVU102
 486 000c 7047     		bx	lr
 487              	.L50:
 488 000e 00BF     		.align	2
 489              	.L49:
 490 0010 00000000 		.word	.LANCHOR0
 491              		.cfi_endproc
 492              	.LFE4940:
 494              		.section	.text._ZN14GrannyChordApp8ToggleFXEb,"ax",%progbits
 495              		.align	1
 496              		.global	_ZN14GrannyChordApp8ToggleFXEb
 497              		.syntax unified
 498              		.thumb
 499              		.thumb_func
 501              	_ZN14GrannyChordApp8ToggleFXEb:
 502              	.LVL20:
 503              	.LFB4947:
 201:GrannyChordApp.cpp **** 
 202:GrannyChordApp.cpp **** void GrannyChordApp::ToggleFX(bool which_fx){
 504              		.loc 5 202 45 is_stmt 1 view -0
 505              		.cfi_startproc
 506              		@ args = 0, pretend = 0, frame = 0
 507              		@ frame_needed = 0, uses_anonymous_args = 0
 508              		@ link register save eliminated.
 203:GrannyChordApp.cpp ****   if (curr_synth_mode_ >= SynthMode::Reverb){
 509              		.loc 5 203 3 view .LVU104
 510              		.loc 5 203 24 is_stmt 0 view .LVU105
 511 0000 064B     		ldr	r3, .L57
 512 0002 9A68     		ldr	r2, [r3, #8]
 513              		.loc 5 203 3 view .LVU106
 514 0004 062A     		cmp	r2, #6
 515 0006 02DD     		ble	.L52
 204:GrannyChordApp.cpp ****     curr_synth_mode_ = prev_synth_mode_;
 516              		.loc 5 204 5 is_stmt 1 view .LVU107
 517              		.loc 5 204 22 is_stmt 0 view .LVU108
 518 0008 DA68     		ldr	r2, [r3, #12]
 519              	.L56:
 205:GrannyChordApp.cpp ****     return;
 206:GrannyChordApp.cpp ****   }
 207:GrannyChordApp.cpp ****   prev_synth_mode_ =  curr_synth_mode_;
 208:GrannyChordApp.cpp ****   /* if true, switch to reverb, else false - cheap but it works */
 209:GrannyChordApp.cpp ****   curr_synth_mode_ = which_fx ? SynthMode::Reverb : SynthMode::Filter;
 520              		.loc 5 209 20 view .LVU109
 521 000a 9A60     		str	r2, [r3, #8]
 210:GrannyChordApp.cpp **** }
 522              		.loc 5 210 1 view .LVU110
 523 000c 7047     		bx	lr
 524              	.L52:
 207:GrannyChordApp.cpp ****   /* if true, switch to reverb, else false - cheap but it works */
 525              		.loc 5 207 3 is_stmt 1 view .LVU111
 209:GrannyChordApp.cpp **** }
 526              		.loc 5 209 31 is_stmt 0 view .LVU112
 527 000e 0029     		cmp	r1, #0
 207:GrannyChordApp.cpp ****   /* if true, switch to reverb, else false - cheap but it works */
 528              		.loc 5 207 20 view .LVU113
 529 0010 DA60     		str	r2, [r3, #12]
ARM GAS  /var/folders/2p/02m_5p7958535cp2tpgps0400000gn/T//ccA8p2F3.s 			page 18


 209:GrannyChordApp.cpp **** }
 530              		.loc 5 209 3 is_stmt 1 view .LVU114
 209:GrannyChordApp.cpp **** }
 531              		.loc 5 209 31 is_stmt 0 view .LVU115
 532 0012 14BF     		ite	ne
 533 0014 0722     		movne	r2, #7
 534 0016 0822     		moveq	r2, #8
 535 0018 F7E7     		b	.L56
 536              	.L58:
 537 001a 00BF     		.align	2
 538              	.L57:
 539 001c 00000000 		.word	.LANCHOR0
 540              		.cfi_endproc
 541              	.LFE4947:
 543              		.section	.text._ZN14GrannyChordApp22HandleButton1LongPressEv,"ax",%progbits
 544              		.align	1
 545              		.global	_ZN14GrannyChordApp22HandleButton1LongPressEv
 546              		.syntax unified
 547              		.thumb
 548              		.thumb_func
 550              	_ZN14GrannyChordApp22HandleButton1LongPressEv:
 551              	.LVL21:
 552              	.LFB4941:
 136:GrannyChordApp.cpp ****   if (curr_state_==AppState::Synthesis){
 553              		.loc 5 136 46 is_stmt 1 view -0
 554              		.cfi_startproc
 555              		@ args = 0, pretend = 0, frame = 0
 556              		@ frame_needed = 0, uses_anonymous_args = 0
 557              		@ link register save eliminated.
 137:GrannyChordApp.cpp ****     ToggleFX(true);
 558              		.loc 5 137 3 view .LVU117
 137:GrannyChordApp.cpp ****     ToggleFX(true);
 559              		.loc 5 137 18 is_stmt 0 view .LVU118
 560 0000 034B     		ldr	r3, .L61
 137:GrannyChordApp.cpp ****     ToggleFX(true);
 561              		.loc 5 137 3 view .LVU119
 562 0002 1B68     		ldr	r3, [r3]
 563 0004 022B     		cmp	r3, #2
 564 0006 02D1     		bne	.L59
 138:GrannyChordApp.cpp ****   }
 565              		.loc 5 138 5 is_stmt 1 view .LVU120
 138:GrannyChordApp.cpp ****   }
 566              		.loc 5 138 13 is_stmt 0 view .LVU121
 567 0008 0121     		movs	r1, #1
 568 000a FFF7FEBF 		b	_ZN14GrannyChordApp8ToggleFXEb
 569              	.LVL22:
 570              	.L59:
 140:GrannyChordApp.cpp **** 
 571              		.loc 5 140 1 view .LVU122
 572 000e 7047     		bx	lr
 573              	.L62:
 574              		.align	2
 575              	.L61:
 576 0010 00000000 		.word	.LANCHOR0
 577              		.cfi_endproc
 578              	.LFE4941:
 580              		.section	.text._ZN14GrannyChordApp22HandleButton2LongPressEv,"ax",%progbits
ARM GAS  /var/folders/2p/02m_5p7958535cp2tpgps0400000gn/T//ccA8p2F3.s 			page 19


 581              		.align	1
 582              		.global	_ZN14GrannyChordApp22HandleButton2LongPressEv
 583              		.syntax unified
 584              		.thumb
 585              		.thumb_func
 587              	_ZN14GrannyChordApp22HandleButton2LongPressEv:
 588              	.LVL23:
 589              	.LFB4942:
 142:GrannyChordApp.cpp ****   if (curr_state_==AppState::Synthesis){
 590              		.loc 5 142 46 is_stmt 1 view -0
 591              		.cfi_startproc
 592              		@ args = 0, pretend = 0, frame = 0
 593              		@ frame_needed = 0, uses_anonymous_args = 0
 594              		@ link register save eliminated.
 143:GrannyChordApp.cpp ****     ToggleFX(false);
 595              		.loc 5 143 3 view .LVU124
 143:GrannyChordApp.cpp ****     ToggleFX(false);
 596              		.loc 5 143 18 is_stmt 0 view .LVU125
 597 0000 034B     		ldr	r3, .L65
 143:GrannyChordApp.cpp ****     ToggleFX(false);
 598              		.loc 5 143 3 view .LVU126
 599 0002 1B68     		ldr	r3, [r3]
 600 0004 022B     		cmp	r3, #2
 601 0006 02D1     		bne	.L63
 144:GrannyChordApp.cpp ****   }
 602              		.loc 5 144 5 is_stmt 1 view .LVU127
 144:GrannyChordApp.cpp ****   }
 603              		.loc 5 144 13 is_stmt 0 view .LVU128
 604 0008 0021     		movs	r1, #0
 605 000a FFF7FEBF 		b	_ZN14GrannyChordApp8ToggleFXEb
 606              	.LVL24:
 607              	.L63:
 146:GrannyChordApp.cpp **** 
 608              		.loc 5 146 1 view .LVU129
 609 000e 7047     		bx	lr
 610              	.L66:
 611              		.align	2
 612              	.L65:
 613 0010 00000000 		.word	.LANCHOR0
 614              		.cfi_endproc
 615              	.LFE4942:
 617              		.section	.rodata._ZN14GrannyChordApp11InitFileMgrEv.str1.1,"aMS",%progbits,1
 618              	.LC0:
 619 0000 7363616E 		.ascii	"scanning wavs now\000"
 619      6E696E67 
 619      20776176 
 619      73206E6F 
 619      7700
 620              		.section	.text._ZN14GrannyChordApp11InitFileMgrEv,"ax",%progbits
 621              		.align	1
 622              		.global	_ZN14GrannyChordApp11InitFileMgrEv
 623              		.syntax unified
 624              		.thumb
 625              		.thumb_func
 627              	_ZN14GrannyChordApp11InitFileMgrEv:
 628              	.LVL25:
 629              	.LFB4948:
ARM GAS  /var/folders/2p/02m_5p7958535cp2tpgps0400000gn/T//ccA8p2F3.s 			page 20


 211:GrannyChordApp.cpp **** 
 212:GrannyChordApp.cpp **** /// @brief Initialises file manager, sets audio data buffers and scans SD card for WAV files
 213:GrannyChordApp.cpp **** /// @return True on successful initialisation, false if init fails or no WAV files found
 214:GrannyChordApp.cpp **** bool GrannyChordApp::InitFileMgr(){
 630              		.loc 5 214 35 is_stmt 1 view -0
 631              		.cfi_startproc
 632              		@ args = 0, pretend = 0, frame = 0
 633              		@ frame_needed = 0, uses_anonymous_args = 0
 215:GrannyChordApp.cpp ****   filemgr_.SetBuffers(left_buf_,right_buf_);
 634              		.loc 5 215 3 view .LVU131
 635              		.loc 5 215 22 is_stmt 0 view .LVU132
 636 0000 0A4B     		ldr	r3, .L69
 637 0002 1A68     		ldr	r2, [r3]
 638 0004 0A4B     		ldr	r3, .L69+4
 214:GrannyChordApp.cpp ****   filemgr_.SetBuffers(left_buf_,right_buf_);
 639              		.loc 5 214 35 view .LVU133
 640 0006 10B5     		push	{r4, lr}
 641              		.cfi_def_cfa_offset 8
 642              		.cfi_offset 4, -8
 643              		.cfi_offset 14, -4
 214:GrannyChordApp.cpp ****   filemgr_.SetBuffers(left_buf_,right_buf_);
 644              		.loc 5 214 35 view .LVU134
 645 0008 0446     		mov	r4, r0
 646              		.loc 5 215 22 view .LVU135
 647 000a 1968     		ldr	r1, [r3]
 648 000c 8068     		ldr	r0, [r0, #8]
 649              	.LVL26:
 650              		.loc 5 215 22 view .LVU136
 651 000e FFF7FEFF 		bl	_ZN16AudioFileManager10SetBuffersEPsS0_
 652              	.LVL27:
 216:GrannyChordApp.cpp ****   if (!filemgr_.Init())return false;
 653              		.loc 5 216 3 is_stmt 1 view .LVU137
 654              		.loc 5 216 21 is_stmt 0 view .LVU138
 655 0012 A068     		ldr	r0, [r4, #8]
 656 0014 FFF7FEFF 		bl	_ZN16AudioFileManager4InitEv
 657              	.LVL28:
 658              		.loc 5 216 3 view .LVU139
 659 0018 38B1     		cbz	r0, .L68
 660              	.LVL29:
 661              	.LBB231:
 662              	.LBI231:
 214:GrannyChordApp.cpp ****   filemgr_.SetBuffers(left_buf_,right_buf_);
 663              		.loc 5 214 6 is_stmt 1 view .LVU140
 664              	.LBB232:
 217:GrannyChordApp.cpp ****   pod_.seed.PrintLine("scanning wavs now");
 665              		.loc 5 217 3 view .LVU141
 666              	.LBB233:
 667              	.LBI233:
 668              		.file 7 "../libDaisy/src/daisy_seed.h"
   1:../libDaisy/src/daisy_seed.h **** #pragma once
   2:../libDaisy/src/daisy_seed.h **** #ifndef DSY_SEED_H
   3:../libDaisy/src/daisy_seed.h **** #define DSY_SEED_H
   4:../libDaisy/src/daisy_seed.h **** 
   5:../libDaisy/src/daisy_seed.h **** #include "daisy.h"
   6:../libDaisy/src/daisy_seed.h **** 
   7:../libDaisy/src/daisy_seed.h **** //Uncomment this out if you're still using the rev2 hardware
   8:../libDaisy/src/daisy_seed.h **** //#define SEED_REV2
ARM GAS  /var/folders/2p/02m_5p7958535cp2tpgps0400000gn/T//ccA8p2F3.s 			page 21


   9:../libDaisy/src/daisy_seed.h **** 
  10:../libDaisy/src/daisy_seed.h **** namespace daisy
  11:../libDaisy/src/daisy_seed.h **** {
  12:../libDaisy/src/daisy_seed.h **** /**
  13:../libDaisy/src/daisy_seed.h ****    @brief This is the higher-level interface for the Daisy board. \n 
  14:../libDaisy/src/daisy_seed.h ****     All basic peripheral configuration/initialization is setup here. \n
  15:../libDaisy/src/daisy_seed.h **** 
  16:../libDaisy/src/daisy_seed.h ****    @ingroup boards
  17:../libDaisy/src/daisy_seed.h **** */
  18:../libDaisy/src/daisy_seed.h **** class DaisySeed
  19:../libDaisy/src/daisy_seed.h **** {
  20:../libDaisy/src/daisy_seed.h ****   public:
  21:../libDaisy/src/daisy_seed.h ****     DaisySeed() {}
  22:../libDaisy/src/daisy_seed.h ****     ~DaisySeed() {}
  23:../libDaisy/src/daisy_seed.h **** 
  24:../libDaisy/src/daisy_seed.h ****     /** This function used to provide a pre-initialization configuraiton 
  25:../libDaisy/src/daisy_seed.h ****      *  it has since been deprecated, and does nothing.
  26:../libDaisy/src/daisy_seed.h ****      */
  27:../libDaisy/src/daisy_seed.h ****     void Configure();
  28:../libDaisy/src/daisy_seed.h **** 
  29:../libDaisy/src/daisy_seed.h ****     /** 
  30:../libDaisy/src/daisy_seed.h ****     Initializes the Daisy Seed and the following peripherals:
  31:../libDaisy/src/daisy_seed.h ****     SDRAM, QSPI, 24-bit 48kHz Audio via AK4556, Internal USB,
  32:../libDaisy/src/daisy_seed.h ****     as well as the built-in LED and Testpoint.
  33:../libDaisy/src/daisy_seed.h **** 
  34:../libDaisy/src/daisy_seed.h ****     ADCs, DACs, and other special peripherals (such as I2C, SPI, etc.)
  35:../libDaisy/src/daisy_seed.h ****     can be initialized using their specific initializers within libdaisy
  36:../libDaisy/src/daisy_seed.h ****     for a specific application.
  37:../libDaisy/src/daisy_seed.h ****     */
  38:../libDaisy/src/daisy_seed.h ****     void Init(bool boost = false);
  39:../libDaisy/src/daisy_seed.h **** 
  40:../libDaisy/src/daisy_seed.h ****     /** 
  41:../libDaisy/src/daisy_seed.h ****     Deinitializes all peripherals automatically handled by `Init`.
  42:../libDaisy/src/daisy_seed.h ****     */
  43:../libDaisy/src/daisy_seed.h ****     void DeInit();
  44:../libDaisy/src/daisy_seed.h **** 
  45:../libDaisy/src/daisy_seed.h ****     /** 
  46:../libDaisy/src/daisy_seed.h ****     Wait some ms before going on.
  47:../libDaisy/src/daisy_seed.h ****     \param del Delay time in ms.
  48:../libDaisy/src/daisy_seed.h ****     */
  49:../libDaisy/src/daisy_seed.h ****     void DelayMs(size_t del);
  50:../libDaisy/src/daisy_seed.h **** 
  51:../libDaisy/src/daisy_seed.h ****     /** 
  52:../libDaisy/src/daisy_seed.h ****     Returns the gpio_pin corresponding to the index 0-31.
  53:../libDaisy/src/daisy_seed.h ****     For the given GPIO on the Daisy Seed (labeled 1-32 in docs).
  54:../libDaisy/src/daisy_seed.h ****     */
  55:../libDaisy/src/daisy_seed.h ****     static dsy_gpio_pin GetPin(uint8_t pin_idx);
  56:../libDaisy/src/daisy_seed.h **** 
  57:../libDaisy/src/daisy_seed.h ****     /** Begins the audio for the seeds builtin audio.
  58:../libDaisy/src/daisy_seed.h ****     the specified callback will get called whenever
  59:../libDaisy/src/daisy_seed.h ****     new data is ready to be prepared.
  60:../libDaisy/src/daisy_seed.h ****     */
  61:../libDaisy/src/daisy_seed.h ****     void StartAudio(AudioHandle::InterleavingAudioCallback cb);
  62:../libDaisy/src/daisy_seed.h **** 
  63:../libDaisy/src/daisy_seed.h ****     /** Begins the audio for the seeds builtin audio.
  64:../libDaisy/src/daisy_seed.h ****     the specified callback will get called whenever
  65:../libDaisy/src/daisy_seed.h ****     new data is ready to be prepared.
ARM GAS  /var/folders/2p/02m_5p7958535cp2tpgps0400000gn/T//ccA8p2F3.s 			page 22


  66:../libDaisy/src/daisy_seed.h ****     This will use the newer non-interleaved callback.
  67:../libDaisy/src/daisy_seed.h ****     */
  68:../libDaisy/src/daisy_seed.h ****     void StartAudio(AudioHandle::AudioCallback cb);
  69:../libDaisy/src/daisy_seed.h **** 
  70:../libDaisy/src/daisy_seed.h ****     /** Changes to a new interleaved callback
  71:../libDaisy/src/daisy_seed.h ****      */
  72:../libDaisy/src/daisy_seed.h ****     void ChangeAudioCallback(AudioHandle::InterleavingAudioCallback cb);
  73:../libDaisy/src/daisy_seed.h **** 
  74:../libDaisy/src/daisy_seed.h ****     /** Changes to a new multichannel callback
  75:../libDaisy/src/daisy_seed.h ****      */
  76:../libDaisy/src/daisy_seed.h ****     void ChangeAudioCallback(AudioHandle::AudioCallback cb);
  77:../libDaisy/src/daisy_seed.h **** 
  78:../libDaisy/src/daisy_seed.h ****     /** Stops the audio if it is running. */
  79:../libDaisy/src/daisy_seed.h ****     void StopAudio();
  80:../libDaisy/src/daisy_seed.h **** 
  81:../libDaisy/src/daisy_seed.h ****     /** Updates the Audio Sample Rate, and reinitializes.
  82:../libDaisy/src/daisy_seed.h ****      ** Audio must be stopped for this to work.
  83:../libDaisy/src/daisy_seed.h ****      */
  84:../libDaisy/src/daisy_seed.h ****     void SetAudioSampleRate(SaiHandle::Config::SampleRate samplerate);
  85:../libDaisy/src/daisy_seed.h **** 
  86:../libDaisy/src/daisy_seed.h ****     /** Returns the audio sample rate in Hz as a floating point number.
  87:../libDaisy/src/daisy_seed.h ****      */
  88:../libDaisy/src/daisy_seed.h ****     float AudioSampleRate();
  89:../libDaisy/src/daisy_seed.h **** 
  90:../libDaisy/src/daisy_seed.h ****     /** Sets the number of samples processed per channel by the audio callback.
  91:../libDaisy/src/daisy_seed.h ****      */
  92:../libDaisy/src/daisy_seed.h ****     void SetAudioBlockSize(size_t blocksize);
  93:../libDaisy/src/daisy_seed.h **** 
  94:../libDaisy/src/daisy_seed.h ****     /** Returns the number of samples per channel in a block of audio. */
  95:../libDaisy/src/daisy_seed.h ****     size_t AudioBlockSize();
  96:../libDaisy/src/daisy_seed.h **** 
  97:../libDaisy/src/daisy_seed.h ****     /** Returns the rate in Hz that the Audio callback is called */
  98:../libDaisy/src/daisy_seed.h ****     float AudioCallbackRate() const;
  99:../libDaisy/src/daisy_seed.h **** 
 100:../libDaisy/src/daisy_seed.h ****     /** Returns the SAI Handle for the Daisy Seed 
 101:../libDaisy/src/daisy_seed.h ****      *  This can be useful when adding a secondary codec,
 102:../libDaisy/src/daisy_seed.h ****      *  the result of this function can be passed to the audio reinit 
 103:../libDaisy/src/daisy_seed.h ****      *  with an SAI2 configuration
 104:../libDaisy/src/daisy_seed.h ****      */
 105:../libDaisy/src/daisy_seed.h ****     const SaiHandle& AudioSaiHandle() const;
 106:../libDaisy/src/daisy_seed.h **** 
 107:../libDaisy/src/daisy_seed.h ****     /** Sets the state of the built in LED
 108:../libDaisy/src/daisy_seed.h ****      */
 109:../libDaisy/src/daisy_seed.h ****     void SetLed(bool state);
 110:../libDaisy/src/daisy_seed.h **** 
 111:../libDaisy/src/daisy_seed.h ****     /** Sets the state of the test point near pin 10
 112:../libDaisy/src/daisy_seed.h ****      */
 113:../libDaisy/src/daisy_seed.h ****     void SetTestPoint(bool state);
 114:../libDaisy/src/daisy_seed.h **** 
 115:../libDaisy/src/daisy_seed.h ****     /** Print formatted debug log message
 116:../libDaisy/src/daisy_seed.h ****      */
 117:../libDaisy/src/daisy_seed.h ****     template <typename... VA>
 118:../libDaisy/src/daisy_seed.h ****     static void Print(const char* format, VA... va)
 119:../libDaisy/src/daisy_seed.h ****     {
 120:../libDaisy/src/daisy_seed.h ****         Log::Print(format, va...);
 121:../libDaisy/src/daisy_seed.h ****     }
 122:../libDaisy/src/daisy_seed.h **** 
ARM GAS  /var/folders/2p/02m_5p7958535cp2tpgps0400000gn/T//ccA8p2F3.s 			page 23


 123:../libDaisy/src/daisy_seed.h ****     /** Print formatted debug log message with automatic line termination
 124:../libDaisy/src/daisy_seed.h ****     */
 125:../libDaisy/src/daisy_seed.h ****     template <typename... VA>
 126:../libDaisy/src/daisy_seed.h ****     static void PrintLine(const char* format, VA... va)
 669              		.loc 7 126 17 view .LVU142
 670              	.LBB234:
 127:../libDaisy/src/daisy_seed.h ****     {
 128:../libDaisy/src/daisy_seed.h ****         Log::PrintLine(format, va...);
 671              		.loc 7 128 23 is_stmt 0 view .LVU143
 672 001a 0648     		ldr	r0, .L69+8
 673 001c FFF7FEFF 		bl	_ZN5daisy6LoggerILNS_17LoggerDestinationE1EE9PrintLineEPKcz
 674              	.LVL30:
 675              		.loc 7 128 23 view .LVU144
 676              	.LBE234:
 677              	.LBE233:
 218:GrannyChordApp.cpp ****   return filemgr_.ScanWavFiles();
 678              		.loc 5 218 3 is_stmt 1 view .LVU145
 679              		.loc 5 218 31 is_stmt 0 view .LVU146
 680 0020 A068     		ldr	r0, [r4, #8]
 681              	.LBE232:
 682              	.LBE231:
 219:GrannyChordApp.cpp **** }
 683              		.loc 5 219 1 view .LVU147
 684 0022 BDE81040 		pop	{r4, lr}
 685              		.cfi_remember_state
 686              		.cfi_restore 14
 687              		.cfi_restore 4
 688              		.cfi_def_cfa_offset 0
 689              	.LVL31:
 690              	.LBB236:
 691              	.LBB235:
 218:GrannyChordApp.cpp ****   return filemgr_.ScanWavFiles();
 692              		.loc 5 218 31 view .LVU148
 693 0026 FFF7FEBF 		b	_ZN16AudioFileManager12ScanWavFilesEv
 694              	.LVL32:
 695              	.L68:
 696              		.cfi_restore_state
 218:GrannyChordApp.cpp ****   return filemgr_.ScanWavFiles();
 697              		.loc 5 218 31 view .LVU149
 698              	.LBE235:
 699              	.LBE236:
 700              		.loc 5 219 1 view .LVU150
 701 002a 10BD     		pop	{r4, pc}
 702              	.LVL33:
 703              	.L70:
 704              		.loc 5 219 1 view .LVU151
 705              		.align	2
 706              	.L69:
 707 002c 00000000 		.word	.LANCHOR1
 708 0030 00000000 		.word	.LANCHOR2
 709 0034 00000000 		.word	.LC0
 710              		.cfi_endproc
 711              	.LFE4948:
 713              		.section	.text._ZN14GrannyChordApp9InitSynthEv,"ax",%progbits
 714              		.align	1
 715              		.global	_ZN14GrannyChordApp9InitSynthEv
 716              		.syntax unified
ARM GAS  /var/folders/2p/02m_5p7958535cp2tpgps0400000gn/T//ccA8p2F3.s 			page 24


 717              		.thumb
 718              		.thumb_func
 720              	_ZN14GrannyChordApp9InitSynthEv:
 721              	.LVL34:
 722              	.LFB4949:
 220:GrannyChordApp.cpp **** 
 221:GrannyChordApp.cpp **** /// @brief Calls synth initialisation function, passes audio data buffers and audio length
 222:GrannyChordApp.cpp **** void GrannyChordApp::InitSynth(){
 723              		.loc 5 222 33 is_stmt 1 view -0
 724              		.cfi_startproc
 725              		@ args = 0, pretend = 0, frame = 0
 726              		@ frame_needed = 0, uses_anonymous_args = 0
 727              		@ link register save eliminated.
 223:GrannyChordApp.cpp ****   // synth_.Init(left_buf_, right_buf_, audio_len_);
 224:GrannyChordApp.cpp ****   synth_.Init(left_buf_, right_buf_, filemgr_.GetSamplesPerChannel());
 728              		.loc 5 224 3 view .LVU153
 729              	.LBB237:
 730              	.LBI237:
  25:AudioFileManager.h ****     size_t GetTotalSamples() const { return header_.total_samples; }
 731              		.loc 6 25 12 view .LVU154
 732              	.LBB238:
  25:AudioFileManager.h ****     size_t GetTotalSamples() const { return header_.total_samples; }
 733              		.loc 6 25 43 view .LVU155
  25:AudioFileManager.h ****     size_t GetTotalSamples() const { return header_.total_samples; }
 734              		.loc 6 25 58 is_stmt 0 view .LVU156
 735 0000 054B     		ldr	r3, .L72
  25:AudioFileManager.h ****     size_t GetTotalSamples() const { return header_.total_samples; }
 736              		.loc 6 25 82 view .LVU157
 737 0002 B3F90820 		ldrsh	r2, [r3, #8]
 738 0006 DB68     		ldr	r3, [r3, #12]
 739              	.LBE238:
 740              	.LBE237:
 741              		.loc 5 224 14 view .LVU158
 742 0008 B3FBF2F2 		udiv	r2, r3, r2
 743 000c 034B     		ldr	r3, .L72+4
 744 000e 1968     		ldr	r1, [r3]
 745 0010 034B     		ldr	r3, .L72+8
 746 0012 1868     		ldr	r0, [r3]
 747              	.LVL35:
 748              		.loc 5 224 14 view .LVU159
 749 0014 FFF7FEBF 		b	_ZN13GranularSynth4InitEPKsS1_j
 750              	.LVL36:
 751              	.L73:
 752              		.align	2
 753              	.L72:
 754 0018 00000000 		.word	_ZN16AudioFileManager7header_E
 755 001c 00000000 		.word	.LANCHOR1
 756 0020 00000000 		.word	.LANCHOR2
 757              		.cfi_endproc
 758              	.LFE4949:
 760              		.section	.text._ZN14GrannyChordApp17ClearAudioBuffersEv,"ax",%progbits
 761              		.align	1
 762              		.global	_ZN14GrannyChordApp17ClearAudioBuffersEv
 763              		.syntax unified
 764              		.thumb
 765              		.thumb_func
 767              	_ZN14GrannyChordApp17ClearAudioBuffersEv:
ARM GAS  /var/folders/2p/02m_5p7958535cp2tpgps0400000gn/T//ccA8p2F3.s 			page 25


 768              	.LVL37:
 769              	.LFB4950:
 225:GrannyChordApp.cpp **** }
 226:GrannyChordApp.cpp **** 
 227:GrannyChordApp.cpp **** /// @brief Resets current file index and audio data buffers
 228:GrannyChordApp.cpp **** ///        Calls method to handle WAV file selection
 229:GrannyChordApp.cpp **** void GrannyChordApp::ClearAudioBuffers(){
 770              		.loc 5 229 41 is_stmt 1 view -0
 771              		.cfi_startproc
 772              		@ args = 0, pretend = 0, frame = 0
 773              		@ frame_needed = 0, uses_anonymous_args = 0
 230:GrannyChordApp.cpp ****   memset(left_buf_, 0, CHNL_BUF_SIZE_ABS);
 774              		.loc 5 230 3 view .LVU161
 229:GrannyChordApp.cpp ****   memset(left_buf_, 0, CHNL_BUF_SIZE_ABS);
 775              		.loc 5 229 41 is_stmt 0 view .LVU162
 776 0000 08B5     		push	{r3, lr}
 777              		.cfi_def_cfa_offset 8
 778              		.cfi_offset 3, -8
 779              		.cfi_offset 14, -4
 780              		.loc 5 230 9 view .LVU163
 781 0002 084B     		ldr	r3, .L75
 782 0004 4FF08072 		mov	r2, #16777216
 783 0008 0021     		movs	r1, #0
 784 000a 1868     		ldr	r0, [r3]
 785              	.LVL38:
 786              		.loc 5 230 9 view .LVU164
 787 000c FFF7FEFF 		bl	memset
 788              	.LVL39:
 231:GrannyChordApp.cpp ****   memset(right_buf_, 0, CHNL_BUF_SIZE_ABS);
 789              		.loc 5 231 3 is_stmt 1 view .LVU165
 790              		.loc 5 231 9 is_stmt 0 view .LVU166
 791 0010 054B     		ldr	r3, .L75+4
 792 0012 4FF08072 		mov	r2, #16777216
 793 0016 0021     		movs	r1, #0
 794 0018 1868     		ldr	r0, [r3]
 232:GrannyChordApp.cpp **** }
 795              		.loc 5 232 1 view .LVU167
 796 001a BDE80840 		pop	{r3, lr}
 797              		.cfi_restore 14
 798              		.cfi_restore 3
 799              		.cfi_def_cfa_offset 0
 231:GrannyChordApp.cpp ****   memset(right_buf_, 0, CHNL_BUF_SIZE_ABS);
 800              		.loc 5 231 9 view .LVU168
 801 001e FFF7FEBF 		b	memset
 802              	.LVL40:
 803              	.L76:
 804 0022 00BF     		.align	2
 805              	.L75:
 806 0024 00000000 		.word	.LANCHOR2
 807 0028 00000000 		.word	.LANCHOR1
 808              		.cfi_endproc
 809              	.LFE4950:
 811              		.section	.text._ZN14GrannyChordApp12InitPlaybackEv,"ax",%progbits
 812              		.align	1
 813              		.global	_ZN14GrannyChordApp12InitPlaybackEv
 814              		.syntax unified
 815              		.thumb
ARM GAS  /var/folders/2p/02m_5p7958535cp2tpgps0400000gn/T//ccA8p2F3.s 			page 26


 816              		.thumb_func
 818              	_ZN14GrannyChordApp12InitPlaybackEv:
 819              	.LVL41:
 820              	.LFB4951:
 233:GrannyChordApp.cpp **** 
 234:GrannyChordApp.cpp **** /// @brief Initialises WAV playback state, resets playhead, sets current file audio length
 235:GrannyChordApp.cpp **** void GrannyChordApp::InitPlayback(){
 821              		.loc 5 235 36 is_stmt 1 view -0
 822              		.cfi_startproc
 823              		@ args = 0, pretend = 0, frame = 0
 824              		@ frame_needed = 0, uses_anonymous_args = 0
 236:GrannyChordApp.cpp ****   wav_playhead_ = 0;
 825              		.loc 5 236 3 view .LVU170
 235:GrannyChordApp.cpp ****   wav_playhead_ = 0;
 826              		.loc 5 235 36 is_stmt 0 view .LVU171
 827 0000 10B5     		push	{r4, lr}
 828              		.cfi_def_cfa_offset 8
 829              		.cfi_offset 4, -8
 830              		.cfi_offset 14, -4
 831              		.loc 5 236 17 view .LVU172
 832 0002 054C     		ldr	r4, .L79
 833 0004 0023     		movs	r3, #0
 237:GrannyChordApp.cpp ****   // audio_len_ = filemgr_.GetSamplesPerChannel();
 238:GrannyChordApp.cpp ****   if (!filemgr_.LoadFile(file_idx_)) curr_state_=AppState::Error;
 834              		.loc 5 238 25 view .LVU173
 835 0006 8068     		ldr	r0, [r0, #8]
 836              	.LVL42:
 837              		.loc 5 238 25 view .LVU174
 838 0008 A188     		ldrh	r1, [r4, #4]
 236:GrannyChordApp.cpp ****   // audio_len_ = filemgr_.GetSamplesPerChannel();
 839              		.loc 5 236 17 view .LVU175
 840 000a 2361     		str	r3, [r4, #16]
 841              		.loc 5 238 3 is_stmt 1 view .LVU176
 842              		.loc 5 238 25 is_stmt 0 view .LVU177
 843 000c FFF7FEFF 		bl	_ZN16AudioFileManager8LoadFileEt
 844              	.LVL43:
 845              		.loc 5 238 3 view .LVU178
 846 0010 08B9     		cbnz	r0, .L77
 847              		.loc 5 238 38 is_stmt 1 discriminator 1 view .LVU179
 848              		.loc 5 238 49 is_stmt 0 discriminator 1 view .LVU180
 849 0012 0423     		movs	r3, #4
 850 0014 2360     		str	r3, [r4]
 851              	.L77:
 239:GrannyChordApp.cpp **** }
 852              		.loc 5 239 1 view .LVU181
 853 0016 10BD     		pop	{r4, pc}
 854              	.L80:
 855              		.align	2
 856              	.L79:
 857 0018 00000000 		.word	.LANCHOR0
 858              		.cfi_endproc
 859              	.LFE4951:
 861              		.section	.text._ZN14GrannyChordApp17HandleStateChangeEv,"ax",%progbits
 862              		.align	1
 863              		.global	_ZN14GrannyChordApp17HandleStateChangeEv
 864              		.syntax unified
 865              		.thumb
ARM GAS  /var/folders/2p/02m_5p7958535cp2tpgps0400000gn/T//ccA8p2F3.s 			page 27


 866              		.thumb_func
 868              	_ZN14GrannyChordApp17HandleStateChangeEv:
 869              	.LVL44:
 870              	.LFB4936:
  82:GrannyChordApp.cpp ****   switch(curr_state_){
 871              		.loc 5 82 41 is_stmt 1 view -0
 872              		.cfi_startproc
 873              		@ args = 0, pretend = 0, frame = 0
 874              		@ frame_needed = 0, uses_anonymous_args = 0
  83:GrannyChordApp.cpp ****     // case AppState::SelectFile:  HandleFileSelection(); break; 
 875              		.loc 5 83 3 view .LVU183
 876 0000 134B     		ldr	r3, .L88
 877 0002 1B68     		ldr	r3, [r3]
 878 0004 013B     		subs	r3, r3, #1
  82:GrannyChordApp.cpp ****   switch(curr_state_){
 879              		.loc 5 82 41 is_stmt 0 view .LVU184
 880 0006 10B5     		push	{r4, lr}
 881              		.cfi_def_cfa_offset 8
 882              		.cfi_offset 4, -8
 883              		.cfi_offset 14, -4
  82:GrannyChordApp.cpp ****   switch(curr_state_){
 884              		.loc 5 82 41 view .LVU185
 885 0008 0446     		mov	r4, r0
  83:GrannyChordApp.cpp ****     // case AppState::SelectFile:  HandleFileSelection(); break; 
 886              		.loc 5 83 3 view .LVU186
 887 000a 032B     		cmp	r3, #3
 888 000c 1ED8     		bhi	.L81
 889 000e DFE803F0 		tbb	[pc, r3]
 890              	.L84:
 891 0012 06       		.byte	(.L87-.L84)/2
 892 0013 0A       		.byte	(.L86-.L84)/2
 893 0014 02       		.byte	(.L85-.L84)/2
 894 0015 0E       		.byte	(.L83-.L84)/2
 895              		.p2align 1
 896              	.L85:
  85:GrannyChordApp.cpp ****     case AppState::PlayWAV:     InitPlayback();        break;
 897              		.loc 5 85 5 is_stmt 1 view .LVU187
  85:GrannyChordApp.cpp ****     case AppState::PlayWAV:     InitPlayback();        break;
 898              		.loc 5 85 33 view .LVU188
  94:GrannyChordApp.cpp **** 
 899              		.loc 5 94 1 is_stmt 0 view .LVU189
 900 0016 BDE81040 		pop	{r4, lr}
 901              		.cfi_remember_state
 902              		.cfi_restore 14
 903              		.cfi_restore 4
 904              		.cfi_def_cfa_offset 0
  85:GrannyChordApp.cpp ****     case AppState::PlayWAV:     InitPlayback();        break;
 905              		.loc 5 85 50 view .LVU190
 906 001a FFF7FEBF 		b	_ZN14GrannyChordApp17ClearAudioBuffersEv
 907              	.LVL45:
 908              	.L87:
 909              		.cfi_restore_state
  86:GrannyChordApp.cpp ****     case AppState::Synthesis:   InitSynth();           break;
 910              		.loc 5 86 5 is_stmt 1 view .LVU191
  86:GrannyChordApp.cpp ****     case AppState::Synthesis:   InitSynth();           break;
 911              		.loc 5 86 33 view .LVU192
  94:GrannyChordApp.cpp **** 
ARM GAS  /var/folders/2p/02m_5p7958535cp2tpgps0400000gn/T//ccA8p2F3.s 			page 28


 912              		.loc 5 94 1 is_stmt 0 view .LVU193
 913 001e BDE81040 		pop	{r4, lr}
 914              		.cfi_remember_state
 915              		.cfi_restore 14
 916              		.cfi_restore 4
 917              		.cfi_def_cfa_offset 0
  86:GrannyChordApp.cpp ****     case AppState::Synthesis:   InitSynth();           break;
 918              		.loc 5 86 45 view .LVU194
 919 0022 FFF7FEBF 		b	_ZN14GrannyChordApp12InitPlaybackEv
 920              	.LVL46:
 921              	.L86:
 922              		.cfi_restore_state
  87:GrannyChordApp.cpp ****     case AppState::Error: 
 923              		.loc 5 87 5 is_stmt 1 view .LVU195
  87:GrannyChordApp.cpp ****     case AppState::Error: 
 924              		.loc 5 87 33 view .LVU196
  94:GrannyChordApp.cpp **** 
 925              		.loc 5 94 1 is_stmt 0 view .LVU197
 926 0026 BDE81040 		pop	{r4, lr}
 927              		.cfi_remember_state
 928              		.cfi_restore 14
 929              		.cfi_restore 4
 930              		.cfi_def_cfa_offset 0
  87:GrannyChordApp.cpp ****     case AppState::Error: 
 931              		.loc 5 87 42 view .LVU198
 932 002a FFF7FEBF 		b	_ZN14GrannyChordApp9InitSynthEv
 933              	.LVL47:
 934              	.L83:
 935              		.cfi_restore_state
 936              	.LBB241:
 937              	.LBI241:
  82:GrannyChordApp.cpp ****   switch(curr_state_){
 938              		.loc 5 82 6 is_stmt 1 view .LVU199
 939              	.LBB242:
  88:GrannyChordApp.cpp ****       pod_.led1.SetRed(1); 
 940              		.loc 5 88 5 view .LVU200
  89:GrannyChordApp.cpp ****       pod_.led2.SetRed(1); 
 941              		.loc 5 89 7 view .LVU201
  89:GrannyChordApp.cpp ****       pod_.led2.SetRed(1); 
 942              		.loc 5 89 23 is_stmt 0 view .LVU202
 943 002e 0068     		ldr	r0, [r0]
 944              	.LVL48:
  89:GrannyChordApp.cpp ****       pod_.led2.SetRed(1); 
 945              		.loc 5 89 23 view .LVU203
 946 0030 B7EE000A 		vmov.f32	s0, #1.0e+0
 947 0034 D830     		adds	r0, r0, #216
 948 0036 FFF7FEFF 		bl	_ZN5daisy6RgbLed6SetRedEf
 949              	.LVL49:
  90:GrannyChordApp.cpp ****       break;
 950              		.loc 5 90 7 is_stmt 1 view .LVU204
  90:GrannyChordApp.cpp ****       break;
 951              		.loc 5 90 23 is_stmt 0 view .LVU205
 952 003a 2068     		ldr	r0, [r4]
 953 003c B7EE000A 		vmov.f32	s0, #1.0e+0
 954 0040 00F59670 		add	r0, r0, #300
 955              	.LBE242:
 956              	.LBE241:
ARM GAS  /var/folders/2p/02m_5p7958535cp2tpgps0400000gn/T//ccA8p2F3.s 			page 29


  94:GrannyChordApp.cpp **** 
 957              		.loc 5 94 1 view .LVU206
 958 0044 BDE81040 		pop	{r4, lr}
 959              		.cfi_remember_state
 960              		.cfi_restore 14
 961              		.cfi_restore 4
 962              		.cfi_def_cfa_offset 0
 963              	.LVL50:
 964              	.LBB244:
 965              	.LBB243:
  90:GrannyChordApp.cpp ****       break;
 966              		.loc 5 90 23 view .LVU207
 967 0048 FFF7FEBF 		b	_ZN5daisy6RgbLed6SetRedEf
 968              	.LVL51:
 969              	.L81:
 970              		.cfi_restore_state
  90:GrannyChordApp.cpp ****       break;
 971              		.loc 5 90 23 view .LVU208
 972              	.LBE243:
 973              	.LBE244:
  94:GrannyChordApp.cpp **** 
 974              		.loc 5 94 1 view .LVU209
 975 004c 10BD     		pop	{r4, pc}
 976              	.L89:
 977 004e 00BF     		.align	2
 978              	.L88:
 979 0050 00000000 		.word	.LANCHOR0
 980              		.cfi_endproc
 981              	.LFE4936:
 983              		.section	.text._ZN14GrannyChordApp8UpdateUIEv,"ax",%progbits
 984              		.align	1
 985              		.global	_ZN14GrannyChordApp8UpdateUIEv
 986              		.syntax unified
 987              		.thumb
 988              		.thumb_func
 990              	_ZN14GrannyChordApp8UpdateUIEv:
 991              	.LVL52:
 992              	.LFB4935:
  60:GrannyChordApp.cpp ****   AppState prev_state = curr_state_;
 993              		.loc 5 60 32 is_stmt 1 view -0
 994              		.cfi_startproc
 995              		@ args = 0, pretend = 0, frame = 0
 996              		@ frame_needed = 0, uses_anonymous_args = 0
  61:GrannyChordApp.cpp ****   pod_.ProcessDigitalControls();
 997              		.loc 5 61 3 view .LVU211
  60:GrannyChordApp.cpp ****   AppState prev_state = curr_state_;
 998              		.loc 5 60 32 is_stmt 0 view .LVU212
 999 0000 70B5     		push	{r4, r5, r6, lr}
 1000              		.cfi_def_cfa_offset 16
 1001              		.cfi_offset 4, -16
 1002              		.cfi_offset 5, -12
 1003              		.cfi_offset 6, -8
 1004              		.cfi_offset 14, -4
 1005 0002 0446     		mov	r4, r0
  61:GrannyChordApp.cpp ****   pod_.ProcessDigitalControls();
 1006              		.loc 5 61 12 view .LVU213
 1007 0004 2F4D     		ldr	r5, .L113
ARM GAS  /var/folders/2p/02m_5p7958535cp2tpgps0400000gn/T//ccA8p2F3.s 			page 30


  62:GrannyChordApp.cpp ****   if (pod_.encoder.Pressed()) HandleEncoderPressed();
 1008              		.loc 5 62 30 view .LVU214
 1009 0006 0068     		ldr	r0, [r0]
 1010              	.LVL53:
  61:GrannyChordApp.cpp ****   pod_.ProcessDigitalControls();
 1011              		.loc 5 61 12 view .LVU215
 1012 0008 2E68     		ldr	r6, [r5]
 1013              	.LVL54:
  62:GrannyChordApp.cpp ****   if (pod_.encoder.Pressed()) HandleEncoderPressed();
 1014              		.loc 5 62 3 is_stmt 1 view .LVU216
  60:GrannyChordApp.cpp ****   AppState prev_state = curr_state_;
 1015              		.loc 5 60 32 is_stmt 0 view .LVU217
 1016 000a 2DED028B 		vpush.64	{d8}
 1017              		.cfi_def_cfa_offset 24
 1018              		.cfi_offset 80, -24
 1019              		.cfi_offset 81, -20
  62:GrannyChordApp.cpp ****   if (pod_.encoder.Pressed()) HandleEncoderPressed();
 1020              		.loc 5 62 30 view .LVU218
 1021 000e FFF7FEFF 		bl	_ZN5daisy8DaisyPod22ProcessDigitalControlsEv
 1022              	.LVL55:
  63:GrannyChordApp.cpp ****   if (pod_.encoder.TimeHeldMs() > 1000.0f) HandleEncoderLongPress();
 1023              		.loc 5 63 3 is_stmt 1 view .LVU219
 1024              	.LBB245:
 1025              	.LBI245:
 1026              		.file 8 "../libDaisy/src/hid/encoder.h"
   1:../libDaisy/src/hid/encoder.h **** #pragma once
   2:../libDaisy/src/hid/encoder.h **** #ifndef DSY_ENCODER_H
   3:../libDaisy/src/hid/encoder.h **** #define DSY_ENCODER_H
   4:../libDaisy/src/hid/encoder.h **** #include "daisy_core.h"
   5:../libDaisy/src/hid/encoder.h **** #include "per/gpio.h"
   6:../libDaisy/src/hid/encoder.h **** #include "hid/switch.h"
   7:../libDaisy/src/hid/encoder.h **** 
   8:../libDaisy/src/hid/encoder.h **** namespace daisy
   9:../libDaisy/src/hid/encoder.h **** {
  10:../libDaisy/src/hid/encoder.h **** /** 
  11:../libDaisy/src/hid/encoder.h ****     @brief Generic Class for handling Quadrature Encoders \n 
  12:../libDaisy/src/hid/encoder.h ****     Inspired/influenced by Mutable Instruments (pichenettes) Encoder classes
  13:../libDaisy/src/hid/encoder.h ****     @author Stephen Hensley
  14:../libDaisy/src/hid/encoder.h ****     @date December 2019
  15:../libDaisy/src/hid/encoder.h ****     @ingroup controls
  16:../libDaisy/src/hid/encoder.h **** */
  17:../libDaisy/src/hid/encoder.h **** class Encoder
  18:../libDaisy/src/hid/encoder.h **** {
  19:../libDaisy/src/hid/encoder.h ****   public:
  20:../libDaisy/src/hid/encoder.h ****     Encoder() {}
  21:../libDaisy/src/hid/encoder.h ****     ~Encoder() {}
  22:../libDaisy/src/hid/encoder.h **** 
  23:../libDaisy/src/hid/encoder.h ****     /** Initializes the encoder with the specified hardware pins.
  24:../libDaisy/src/hid/encoder.h ****      * Update rate is to be deprecated in a future release
  25:../libDaisy/src/hid/encoder.h ****      */
  26:../libDaisy/src/hid/encoder.h ****     void Init(dsy_gpio_pin a,
  27:../libDaisy/src/hid/encoder.h ****               dsy_gpio_pin b,
  28:../libDaisy/src/hid/encoder.h ****               dsy_gpio_pin click,
  29:../libDaisy/src/hid/encoder.h ****               float        update_rate = 0.f);
  30:../libDaisy/src/hid/encoder.h ****     /** Called at update_rate to debounce and handle timing for the switch.
  31:../libDaisy/src/hid/encoder.h ****      * In order for events not to be missed, its important that the Edge/Pressed checks be made at 
  32:../libDaisy/src/hid/encoder.h ****      */
ARM GAS  /var/folders/2p/02m_5p7958535cp2tpgps0400000gn/T//ccA8p2F3.s 			page 31


  33:../libDaisy/src/hid/encoder.h ****     void Debounce();
  34:../libDaisy/src/hid/encoder.h **** 
  35:../libDaisy/src/hid/encoder.h ****     /** Returns +1 if the encoder was turned clockwise, -1 if it was turned counter-clockwise, or 0
  36:../libDaisy/src/hid/encoder.h ****     inline int32_t Increment() const { return updated_ ? inc_ : 0; }
  37:../libDaisy/src/hid/encoder.h **** 
  38:../libDaisy/src/hid/encoder.h ****     /** Returns true if the encoder was just pressed. */
  39:../libDaisy/src/hid/encoder.h ****     inline bool RisingEdge() const { return sw_.RisingEdge(); }
  40:../libDaisy/src/hid/encoder.h **** 
  41:../libDaisy/src/hid/encoder.h ****     /** Returns true if the encoder was just released. */
  42:../libDaisy/src/hid/encoder.h ****     inline bool FallingEdge() const { return sw_.FallingEdge(); }
  43:../libDaisy/src/hid/encoder.h **** 
  44:../libDaisy/src/hid/encoder.h ****     /** Returns true while the encoder is held down.*/
  45:../libDaisy/src/hid/encoder.h ****     inline bool Pressed() const { return sw_.Pressed(); }
 1027              		.loc 8 45 17 view .LVU220
 1028              	.LBE245:
 1029              		.loc 8 45 35 view .LVU221
 1030              	.LBB248:
 1031              	.LBB246:
 1032              	.LBI246:
  79:../libDaisy/src/hid/switch.h **** 
 1033              		.loc 4 79 17 view .LVU222
 1034              	.LBB247:
  79:../libDaisy/src/hid/switch.h **** 
 1035              		.loc 4 79 35 view .LVU223
  79:../libDaisy/src/hid/switch.h **** 
 1036              		.loc 4 79 42 is_stmt 0 view .LVU224
 1037 0012 2368     		ldr	r3, [r4]
 1038              	.LBE247:
 1039              	.LBE246:
 1040              	.LBE248:
  63:GrannyChordApp.cpp ****   if (pod_.encoder.TimeHeldMs() > 1000.0f) HandleEncoderLongPress();
 1041              		.loc 5 63 3 view .LVU225
 1042 0014 93F85230 		ldrb	r3, [r3, #82]	@ zero_extendqisi2
 1043 0018 FF2B     		cmp	r3, #255
 1044 001a 02D1     		bne	.L91
  63:GrannyChordApp.cpp ****   if (pod_.encoder.TimeHeldMs() > 1000.0f) HandleEncoderLongPress();
 1045              		.loc 5 63 31 is_stmt 1 discriminator 1 view .LVU226
  63:GrannyChordApp.cpp ****   if (pod_.encoder.TimeHeldMs() > 1000.0f) HandleEncoderLongPress();
 1046              		.loc 5 63 51 is_stmt 0 discriminator 1 view .LVU227
 1047 001c 2046     		mov	r0, r4
 1048 001e FFF7FEFF 		bl	_ZN14GrannyChordApp20HandleEncoderPressedEv
 1049              	.LVL56:
 1050              	.L91:
  64:GrannyChordApp.cpp ****   if (pod_.button1.Pressed()) HandleButton1();
 1051              		.loc 5 64 3 is_stmt 1 view .LVU228
 1052              	.LBB249:
 1053              	.LBI249:
  46:../libDaisy/src/hid/encoder.h **** 
  47:../libDaisy/src/hid/encoder.h ****     /** Returns the time in milliseconds that the encoder has been held down. */
  48:../libDaisy/src/hid/encoder.h ****     inline float TimeHeldMs() const { return sw_.TimeHeldMs(); }
 1054              		.loc 8 48 18 view .LVU229
 1055              	.LBB250:
 1056              		.loc 8 48 39 view .LVU230
 1057              		.loc 8 48 60 is_stmt 0 view .LVU231
 1058 0022 2068     		ldr	r0, [r4]
 1059              	.LBE250:
 1060              	.LBE249:
ARM GAS  /var/folders/2p/02m_5p7958535cp2tpgps0400000gn/T//ccA8p2F3.s 			page 32


  64:GrannyChordApp.cpp ****   if (pod_.button1.Pressed()) HandleButton1();
 1061              		.loc 5 64 3 view .LVU232
 1062 0024 9FED288A 		vldr.32	s16, .L113+4
 1063              	.LBB252:
 1064              	.LBB251:
 1065              		.loc 8 48 60 view .LVU233
 1066 0028 4830     		adds	r0, r0, #72
 1067 002a FFF7FEFF 		bl	_ZNK5daisy6Switch10TimeHeldMsEv
 1068              	.LVL57:
 1069              		.loc 8 48 60 view .LVU234
 1070              	.LBE251:
 1071              	.LBE252:
  64:GrannyChordApp.cpp ****   if (pod_.button1.Pressed()) HandleButton1();
 1072              		.loc 5 64 3 view .LVU235
 1073 002e B4EEC80A 		vcmpe.f32	s0, s16
 1074 0032 F1EE10FA 		vmrs	APSR_nzcv, FPSCR
 1075 0036 02DD     		ble	.L92
  64:GrannyChordApp.cpp ****   if (pod_.button1.Pressed()) HandleButton1();
 1076              		.loc 5 64 44 is_stmt 1 discriminator 1 view .LVU236
  64:GrannyChordApp.cpp ****   if (pod_.button1.Pressed()) HandleButton1();
 1077              		.loc 5 64 66 is_stmt 0 discriminator 1 view .LVU237
 1078 0038 2046     		mov	r0, r4
 1079 003a FFF7FEFF 		bl	_ZN14GrannyChordApp22HandleEncoderLongPressEv
 1080              	.LVL58:
 1081              	.L92:
  65:GrannyChordApp.cpp ****   if (pod_.button2.Pressed()) HandleButton2();
 1082              		.loc 5 65 3 is_stmt 1 view .LVU238
 1083              	.LBB253:
 1084              	.LBI253:
  79:../libDaisy/src/hid/switch.h **** 
 1085              		.loc 4 79 17 view .LVU239
 1086              	.LBB254:
  79:../libDaisy/src/hid/switch.h **** 
 1087              		.loc 4 79 35 view .LVU240
  79:../libDaisy/src/hid/switch.h **** 
 1088              		.loc 4 79 42 is_stmt 0 view .LVU241
 1089 003e 2368     		ldr	r3, [r4]
 1090              	.LBE254:
 1091              	.LBE253:
  65:GrannyChordApp.cpp ****   if (pod_.button2.Pressed()) HandleButton2();
 1092              		.loc 5 65 3 view .LVU242
 1093 0040 93F8BA30 		ldrb	r3, [r3, #186]	@ zero_extendqisi2
 1094 0044 FF2B     		cmp	r3, #255
 1095 0046 02D1     		bne	.L94
  65:GrannyChordApp.cpp ****   if (pod_.button2.Pressed()) HandleButton2();
 1096              		.loc 5 65 31 is_stmt 1 discriminator 1 view .LVU243
  65:GrannyChordApp.cpp ****   if (pod_.button2.Pressed()) HandleButton2();
 1097              		.loc 5 65 44 is_stmt 0 discriminator 1 view .LVU244
 1098 0048 2046     		mov	r0, r4
 1099 004a FFF7FEFF 		bl	_ZN14GrannyChordApp13HandleButton1Ev
 1100              	.LVL59:
 1101              	.L94:
  66:GrannyChordApp.cpp ****   if (curr_state_==AppState::Synthesis){
 1102              		.loc 5 66 3 is_stmt 1 view .LVU245
 1103              	.LBB255:
 1104              	.LBI255:
  79:../libDaisy/src/hid/switch.h **** 
ARM GAS  /var/folders/2p/02m_5p7958535cp2tpgps0400000gn/T//ccA8p2F3.s 			page 33


 1105              		.loc 4 79 17 view .LVU246
 1106              	.LBB256:
  79:../libDaisy/src/hid/switch.h **** 
 1107              		.loc 4 79 35 view .LVU247
  79:../libDaisy/src/hid/switch.h **** 
 1108              		.loc 4 79 42 is_stmt 0 view .LVU248
 1109 004e 2368     		ldr	r3, [r4]
 1110              	.LBE256:
 1111              	.LBE255:
  66:GrannyChordApp.cpp ****   if (curr_state_==AppState::Synthesis){
 1112              		.loc 5 66 3 view .LVU249
 1113 0050 93F8CA30 		ldrb	r3, [r3, #202]	@ zero_extendqisi2
 1114 0054 FF2B     		cmp	r3, #255
 1115 0056 02D1     		bne	.L95
  66:GrannyChordApp.cpp ****   if (curr_state_==AppState::Synthesis){
 1116              		.loc 5 66 31 is_stmt 1 discriminator 1 view .LVU250
  66:GrannyChordApp.cpp ****   if (curr_state_==AppState::Synthesis){
 1117              		.loc 5 66 44 is_stmt 0 discriminator 1 view .LVU251
 1118 0058 2046     		mov	r0, r4
 1119 005a FFF7FEFF 		bl	_ZN14GrannyChordApp13HandleButton2Ev
 1120              	.LVL60:
 1121              	.L95:
  67:GrannyChordApp.cpp ****     if (pod_.button1.TimeHeldMs() >1000.0f) HandleButton1LongPress();
 1122              		.loc 5 67 3 is_stmt 1 view .LVU252
 1123 005e 2B68     		ldr	r3, [r5]
 1124 0060 022B     		cmp	r3, #2
 1125 0062 17D1     		bne	.L97
  68:GrannyChordApp.cpp ****     if (pod_.button2.TimeHeldMs() >1000.0f) HandleButton2LongPress();
 1126              		.loc 5 68 5 view .LVU253
  68:GrannyChordApp.cpp ****     if (pod_.button2.TimeHeldMs() >1000.0f) HandleButton2LongPress();
 1127              		.loc 5 68 32 is_stmt 0 view .LVU254
 1128 0064 2068     		ldr	r0, [r4]
 1129 0066 B030     		adds	r0, r0, #176
 1130 0068 FFF7FEFF 		bl	_ZNK5daisy6Switch10TimeHeldMsEv
 1131              	.LVL61:
  68:GrannyChordApp.cpp ****     if (pod_.button2.TimeHeldMs() >1000.0f) HandleButton2LongPress();
 1132              		.loc 5 68 5 view .LVU255
 1133 006c B4EEC80A 		vcmpe.f32	s0, s16
 1134 0070 F1EE10FA 		vmrs	APSR_nzcv, FPSCR
 1135 0074 02DD     		ble	.L98
  68:GrannyChordApp.cpp ****     if (pod_.button2.TimeHeldMs() >1000.0f) HandleButton2LongPress();
 1136              		.loc 5 68 45 is_stmt 1 discriminator 1 view .LVU256
  68:GrannyChordApp.cpp ****     if (pod_.button2.TimeHeldMs() >1000.0f) HandleButton2LongPress();
 1137              		.loc 5 68 67 is_stmt 0 discriminator 1 view .LVU257
 1138 0076 2046     		mov	r0, r4
 1139 0078 FFF7FEFF 		bl	_ZN14GrannyChordApp22HandleButton1LongPressEv
 1140              	.LVL62:
 1141              	.L98:
  69:GrannyChordApp.cpp ****   }
 1142              		.loc 5 69 5 is_stmt 1 view .LVU258
  69:GrannyChordApp.cpp ****   }
 1143              		.loc 5 69 32 is_stmt 0 view .LVU259
 1144 007c 2068     		ldr	r0, [r4]
 1145 007e C030     		adds	r0, r0, #192
 1146 0080 FFF7FEFF 		bl	_ZNK5daisy6Switch10TimeHeldMsEv
 1147              	.LVL63:
  69:GrannyChordApp.cpp ****   }
ARM GAS  /var/folders/2p/02m_5p7958535cp2tpgps0400000gn/T//ccA8p2F3.s 			page 34


 1148              		.loc 5 69 5 view .LVU260
 1149 0084 B4EEC80A 		vcmpe.f32	s0, s16
 1150 0088 F1EE10FA 		vmrs	APSR_nzcv, FPSCR
 1151 008c 02DD     		ble	.L97
  69:GrannyChordApp.cpp ****   }
 1152              		.loc 5 69 45 is_stmt 1 discriminator 1 view .LVU261
  69:GrannyChordApp.cpp ****   }
 1153              		.loc 5 69 67 is_stmt 0 discriminator 1 view .LVU262
 1154 008e 2046     		mov	r0, r4
 1155 0090 FFF7FEFF 		bl	_ZN14GrannyChordApp22HandleButton2LongPressEv
 1156              	.LVL64:
 1157              	.L97:
  72:GrannyChordApp.cpp ****   if (encoder_inc!=0 && curr_state_== AppState::SelectFile){
 1158              		.loc 5 72 3 is_stmt 1 view .LVU263
  72:GrannyChordApp.cpp ****   if (encoder_inc!=0 && curr_state_== AppState::SelectFile){
 1159              		.loc 5 72 25 is_stmt 0 view .LVU264
 1160 0094 2368     		ldr	r3, [r4]
 1161              	.LVL65:
 1162              	.LBB257:
 1163              	.LBI257:
  36:../libDaisy/src/hid/encoder.h **** 
 1164              		.loc 8 36 20 is_stmt 1 view .LVU265
 1165              	.LBB258:
  36:../libDaisy/src/hid/encoder.h **** 
 1166              		.loc 8 36 40 view .LVU266
  36:../libDaisy/src/hid/encoder.h **** 
 1167              		.loc 8 36 56 is_stmt 0 view .LVU267
 1168 0096 93F84420 		ldrb	r2, [r3, #68]	@ zero_extendqisi2
 1169 009a 32B1     		cbz	r2, .L102
 1170 009c 596E     		ldr	r1, [r3, #100]
 1171              	.LVL66:
  36:../libDaisy/src/hid/encoder.h **** 
 1172              		.loc 8 36 56 view .LVU268
 1173              	.LBE258:
 1174              	.LBE257:
  73:GrannyChordApp.cpp ****     HandleFileSelection(encoder_inc);
 1175              		.loc 5 73 3 is_stmt 1 view .LVU269
 1176 009e 21B1     		cbz	r1, .L102
  73:GrannyChordApp.cpp ****     HandleFileSelection(encoder_inc);
 1177              		.loc 5 73 22 is_stmt 0 discriminator 1 view .LVU270
 1178 00a0 2B68     		ldr	r3, [r5]
 1179 00a2 13B9     		cbnz	r3, .L102
  74:GrannyChordApp.cpp ****   }
 1180              		.loc 5 74 5 is_stmt 1 view .LVU271
  74:GrannyChordApp.cpp ****   }
 1181              		.loc 5 74 24 is_stmt 0 view .LVU272
 1182 00a4 2046     		mov	r0, r4
 1183 00a6 FFF7FEFF 		bl	_ZN14GrannyChordApp19HandleFileSelectionEl
 1184              	.LVL67:
 1185              	.L102:
  77:GrannyChordApp.cpp ****     HandleStateChange();
 1186              		.loc 5 77 3 is_stmt 1 view .LVU273
 1187 00aa 2B68     		ldr	r3, [r5]
 1188 00ac B342     		cmp	r3, r6
 1189 00ae 06D0     		beq	.L90
  78:GrannyChordApp.cpp ****   }
 1190              		.loc 5 78 5 view .LVU274
ARM GAS  /var/folders/2p/02m_5p7958535cp2tpgps0400000gn/T//ccA8p2F3.s 			page 35


  78:GrannyChordApp.cpp ****   }
 1191              		.loc 5 78 22 is_stmt 0 view .LVU275
 1192 00b0 2046     		mov	r0, r4
  80:GrannyChordApp.cpp **** 
 1193              		.loc 5 80 1 view .LVU276
 1194 00b2 BDEC028B 		vldm	sp!, {d8}
 1195              		.cfi_remember_state
 1196              		.cfi_restore 80
 1197              		.cfi_restore 81
 1198              		.cfi_def_cfa_offset 16
 1199 00b6 BDE87040 		pop	{r4, r5, r6, lr}
 1200              		.cfi_restore 14
 1201              		.cfi_restore 6
 1202              		.cfi_restore 5
 1203              		.cfi_restore 4
 1204              		.cfi_def_cfa_offset 0
 1205              	.LVL68:
  78:GrannyChordApp.cpp ****   }
 1206              		.loc 5 78 22 view .LVU277
 1207 00ba FFF7FEBF 		b	_ZN14GrannyChordApp17HandleStateChangeEv
 1208              	.LVL69:
 1209              	.L90:
 1210              		.cfi_restore_state
  80:GrannyChordApp.cpp **** 
 1211              		.loc 5 80 1 view .LVU278
 1212 00be BDEC028B 		vldm	sp!, {d8}
 1213              		.cfi_restore 80
 1214              		.cfi_restore 81
 1215              		.cfi_def_cfa_offset 16
 1216 00c2 70BD     		pop	{r4, r5, r6, pc}
 1217              	.LVL70:
 1218              	.L114:
  80:GrannyChordApp.cpp **** 
 1219              		.loc 5 80 1 view .LVU279
 1220              		.align	2
 1221              	.L113:
 1222 00c4 00000000 		.word	.LANCHOR0
 1223 00c8 00007A44 		.word	1148846080
 1224              		.cfi_endproc
 1225              	.LFE4935:
 1227              		.section	.text._ZN14GrannyChordApp12InitRecordInEv,"ax",%progbits
 1228              		.align	1
 1229              		.global	_ZN14GrannyChordApp12InitRecordInEv
 1230              		.syntax unified
 1231              		.thumb
 1232              		.thumb_func
 1234              	_ZN14GrannyChordApp12InitRecordInEv:
 1235              	.LFB5570:
 1236              		.cfi_startproc
 1237              		@ args = 0, pretend = 0, frame = 0
 1238              		@ frame_needed = 0, uses_anonymous_args = 0
 1239              		@ link register save eliminated.
 1240 0000 FFF7FEBF 		b	_ZN14GrannyChordApp17ClearAudioBuffersEv
 1241              		.cfi_endproc
 1242              	.LFE5570:
 1244              		.section	.text._ZN14GrannyChordApp13InitWavWriterEv,"ax",%progbits
 1245              		.align	1
ARM GAS  /var/folders/2p/02m_5p7958535cp2tpgps0400000gn/T//ccA8p2F3.s 			page 36


 1246              		.global	_ZN14GrannyChordApp13InitWavWriterEv
 1247              		.syntax unified
 1248              		.thumb
 1249              		.thumb_func
 1251              	_ZN14GrannyChordApp13InitWavWriterEv:
 1252              	.LVL71:
 1253              	.LFB4953:
 240:GrannyChordApp.cpp **** 
 241:GrannyChordApp.cpp **** /// @brief Initialises RecordIn state, clears audio buffers
 242:GrannyChordApp.cpp **** void GrannyChordApp::InitRecordIn(){
 243:GrannyChordApp.cpp ****   memset(left_buf_, 0, CHNL_BUF_SIZE_ABS);
 244:GrannyChordApp.cpp ****   memset(right_buf_, 0, CHNL_BUF_SIZE_ABS);
 245:GrannyChordApp.cpp **** 
 246:GrannyChordApp.cpp ****   // DebugPrint(pod_, "cleared audio buffers for recording in");
 247:GrannyChordApp.cpp **** }
 248:GrannyChordApp.cpp **** 
 249:GrannyChordApp.cpp **** /// @brief Initialise object for recording out to SD card
 250:GrannyChordApp.cpp **** void GrannyChordApp::InitWavWriter(){
 1254              		.loc 5 250 37 is_stmt 1 view -0
 1255              		.cfi_startproc
 1256              		@ args = 0, pretend = 0, frame = 0
 1257              		@ frame_needed = 0, uses_anonymous_args = 0
 1258              		@ link register save eliminated.
 251:GrannyChordApp.cpp ****   WavWriter<16384>::Config cfg;
 1259              		.loc 5 251 3 view .LVU281
 252:GrannyChordApp.cpp ****   cfg.bitspersample = BIT_DEPTH;
 1260              		.loc 5 252 3 view .LVU282
 253:GrannyChordApp.cpp ****   cfg.channels = filemgr_.GetNumChannels();
 1261              		.loc 5 253 3 view .LVU283
 1262              	.LBB267:
 1263              	.LBI267:
  27:AudioFileManager.h ****     uint16_t GetFileCount() const { return file_count_; }
 1264              		.loc 6 27 13 view .LVU284
 1265              	.LBB268:
  27:AudioFileManager.h ****     uint16_t GetFileCount() const { return file_count_; }
 1266              		.loc 6 27 38 view .LVU285
  27:AudioFileManager.h ****     uint16_t GetFileCount() const { return file_count_; }
 1267              		.loc 6 27 53 is_stmt 0 view .LVU286
 1268 0000 1F4B     		ldr	r3, .L118
 1269              	.LBE268:
 1270              	.LBE267:
 1271              	.LBB270:
 1272              	.LBB271:
 1273              		.file 9 "../libDaisy/src/util/WavWriter.h"
   1:../libDaisy/src/util/WavWriter.h **** #pragma once
   2:../libDaisy/src/util/WavWriter.h **** #pragma once
   3:../libDaisy/src/util/WavWriter.h **** #include "fatfs.h"
   4:../libDaisy/src/util/WavWriter.h **** 
   5:../libDaisy/src/util/WavWriter.h **** namespace daisy
   6:../libDaisy/src/util/WavWriter.h **** {
   7:../libDaisy/src/util/WavWriter.h **** /** Audio Recording Module
   8:../libDaisy/src/util/WavWriter.h ****  ** 
   9:../libDaisy/src/util/WavWriter.h ****  ** Record audio into a working buffer that is gradually written to a WAV file on an SD Card. 
  10:../libDaisy/src/util/WavWriter.h ****  **
  11:../libDaisy/src/util/WavWriter.h ****  ** Recordings are made with floating point input, and will be converted to the 
  12:../libDaisy/src/util/WavWriter.h ****  ** specified bits per sample internally 
  13:../libDaisy/src/util/WavWriter.h ****  **
ARM GAS  /var/folders/2p/02m_5p7958535cp2tpgps0400000gn/T//ccA8p2F3.s 			page 37


  14:../libDaisy/src/util/WavWriter.h ****  ** For now only 16-bit and 32-bit (signed int) formats are supported
  15:../libDaisy/src/util/WavWriter.h ****  ** f32 and s24 formats will be added next
  16:../libDaisy/src/util/WavWriter.h ****  **
  17:../libDaisy/src/util/WavWriter.h ****  ** The transfer size determines the amount of internal memory used, and can have an
  18:../libDaisy/src/util/WavWriter.h ****  ** effect on the performance of the streaming behavior of the WavWriter.
  19:../libDaisy/src/util/WavWriter.h ****  ** Memory use can be calculated as: (2 * transfer_size) bytes
  20:../libDaisy/src/util/WavWriter.h ****  ** Performance optimal with sizes: 16384, 32768
  21:../libDaisy/src/util/WavWriter.h ****  ** 
  22:../libDaisy/src/util/WavWriter.h ****  ** To use:
  23:../libDaisy/src/util/WavWriter.h ****  ** 1. Create a WavWriter<size> object (e.g. WavWriter<32768> writer)
  24:../libDaisy/src/util/WavWriter.h ****  ** 2. Configure the settings as desired by creating a WavWriter<32768>::Config struct and setting 
  25:../libDaisy/src/util/WavWriter.h ****  ** 3. Initialize the object with the configuration struct.
  26:../libDaisy/src/util/WavWriter.h ****  ** 4. Open a new file for writing with: writer.OpenFile("FileName.wav")
  27:../libDaisy/src/util/WavWriter.h ****  ** 5. Write to it within your audio callback using: writer.Sample(value)
  28:../libDaisy/src/util/WavWriter.h ****  ** 6. Fill the Wav File on the SD Card with data from your main loop by running: writer.Write()
  29:../libDaisy/src/util/WavWriter.h ****  ** 7. When finished with the recording finalize, and close the file with: writer.SaveFile();
  30:../libDaisy/src/util/WavWriter.h ****  ** 
  31:../libDaisy/src/util/WavWriter.h ****  ** */
  32:../libDaisy/src/util/WavWriter.h **** template <size_t transfer_size>
  33:../libDaisy/src/util/WavWriter.h **** class WavWriter
  34:../libDaisy/src/util/WavWriter.h **** {
  35:../libDaisy/src/util/WavWriter.h ****   public:
  36:../libDaisy/src/util/WavWriter.h ****     WavWriter() {}
  37:../libDaisy/src/util/WavWriter.h ****     ~WavWriter() {}
  38:../libDaisy/src/util/WavWriter.h **** 
  39:../libDaisy/src/util/WavWriter.h ****     /** Return values for write related functions */
  40:../libDaisy/src/util/WavWriter.h ****     enum class Result
  41:../libDaisy/src/util/WavWriter.h ****     {
  42:../libDaisy/src/util/WavWriter.h ****         OK,
  43:../libDaisy/src/util/WavWriter.h ****         ERROR,
  44:../libDaisy/src/util/WavWriter.h ****     };
  45:../libDaisy/src/util/WavWriter.h **** 
  46:../libDaisy/src/util/WavWriter.h ****     /** Configuration structure for the wave writer.
  47:../libDaisy/src/util/WavWriter.h **** 	 ** */
  48:../libDaisy/src/util/WavWriter.h ****     struct Config
  49:../libDaisy/src/util/WavWriter.h ****     {
  50:../libDaisy/src/util/WavWriter.h ****         float   samplerate;
  51:../libDaisy/src/util/WavWriter.h ****         int32_t channels;
  52:../libDaisy/src/util/WavWriter.h ****         int32_t bitspersample;
  53:../libDaisy/src/util/WavWriter.h ****     };
  54:../libDaisy/src/util/WavWriter.h **** 
  55:../libDaisy/src/util/WavWriter.h ****     /** State of the internal Writing mechanism. 
  56:../libDaisy/src/util/WavWriter.h **** 	 ** When the buffer is a certain amount full one section will write its contents
  57:../libDaisy/src/util/WavWriter.h **** 	 ** while the other is still being written to. This is performed circularly
  58:../libDaisy/src/util/WavWriter.h **** 	 ** so that audio will be uninterrupted during writing. */
  59:../libDaisy/src/util/WavWriter.h ****     enum class BufferState
  60:../libDaisy/src/util/WavWriter.h ****     {
  61:../libDaisy/src/util/WavWriter.h ****         IDLE,
  62:../libDaisy/src/util/WavWriter.h ****         FLUSH0,
  63:../libDaisy/src/util/WavWriter.h ****         FLUSH1,
  64:../libDaisy/src/util/WavWriter.h ****     };
  65:../libDaisy/src/util/WavWriter.h **** 
  66:../libDaisy/src/util/WavWriter.h ****     /**  Initializes the WavFile header, and prepares the object for recording. */
  67:../libDaisy/src/util/WavWriter.h ****     void Init(const Config &cfg)
  68:../libDaisy/src/util/WavWriter.h ****     {
  69:../libDaisy/src/util/WavWriter.h ****         cfg_       = cfg;
  70:../libDaisy/src/util/WavWriter.h ****         num_samps_ = 0;
ARM GAS  /var/folders/2p/02m_5p7958535cp2tpgps0400000gn/T//ccA8p2F3.s 			page 38


 1274              		.loc 9 70 20 view .LVU287
 1275 0002 0021     		movs	r1, #0
  69:../libDaisy/src/util/WavWriter.h ****         num_samps_ = 0;
 1276              		.loc 9 69 9 view .LVU288
 1277 0004 9FED1F7A 		vldr.32	s14, .L118+4
 1278 0008 1022     		movs	r2, #16
 1279              	.LBE271:
 1280              	.LBE270:
 1281              	.LBB298:
 1282              	.LBB269:
  27:AudioFileManager.h ****     uint16_t GetFileCount() const { return file_count_; }
 1283              		.loc 6 27 53 view .LVU289
 1284 000a B3F90830 		ldrsh	r3, [r3, #8]
 1285              	.LVL72:
  27:AudioFileManager.h ****     uint16_t GetFileCount() const { return file_count_; }
 1286              		.loc 6 27 53 view .LVU290
 1287              	.LBE269:
 1288              	.LBE298:
 254:GrannyChordApp.cpp ****   cfg.samplerate = SAMPLE_RATE;
 1289              		.loc 5 254 3 is_stmt 1 view .LVU291
 255:GrannyChordApp.cpp ****   sd_out_writer_.Init(cfg);
 1290              		.loc 5 255 3 view .LVU292
 1291              	.LBB299:
 1292              	.LBI270:
  67:../libDaisy/src/util/WavWriter.h ****     {
 1293              		.loc 9 67 10 view .LVU293
 1294              	.LBB296:
 1295              		.loc 9 70 20 is_stmt 0 view .LVU294
 1296 000e 0164     		str	r1, [r0, #64]
 1297              	.LBB272:
 1298              	.LBB273:
  71:../libDaisy/src/util/WavWriter.h ****         // Prep the wav header according to config.
  72:../libDaisy/src/util/WavWriter.h ****         // Certain things (i.e. Size, etc. will have to wait until the finalization of the file, or
  73:../libDaisy/src/util/WavWriter.h ****         wavheader_.ChunkId       = kWavFileChunkId;     /** "RIFF" */
  74:../libDaisy/src/util/WavWriter.h ****         wavheader_.FileFormat    = kWavFileWaveId;      /** "WAVE" */
  75:../libDaisy/src/util/WavWriter.h ****         wavheader_.SubChunk1ID   = kWavFileSubChunk1Id; /** "fmt " */
  76:../libDaisy/src/util/WavWriter.h ****         wavheader_.SubChunk1Size = 16;                  // for PCM
  77:../libDaisy/src/util/WavWriter.h ****         wavheader_.AudioFormat   = WAVE_FORMAT_PCM;
  78:../libDaisy/src/util/WavWriter.h ****         wavheader_.NbrChannels   = cfg.channels;
  79:../libDaisy/src/util/WavWriter.h ****         wavheader_.SampleRate    = static_cast<int>(cfg.samplerate);
  80:../libDaisy/src/util/WavWriter.h ****         wavheader_.ByteRate      = CalcByteRate();
  81:../libDaisy/src/util/WavWriter.h ****         wavheader_.BlockAlign    = cfg_.channels * cfg_.bitspersample / 8;
  82:../libDaisy/src/util/WavWriter.h ****         wavheader_.BitPerSample  = cfg_.bitspersample;
  83:../libDaisy/src/util/WavWriter.h ****         wavheader_.SubChunk2ID   = kWavFileSubChunk2Id; /** "data" */
  84:../libDaisy/src/util/WavWriter.h ****         /** Also calcs SubChunk2Size */
  85:../libDaisy/src/util/WavWriter.h ****         wavheader_.FileSize = CalcFileSize();
  86:../libDaisy/src/util/WavWriter.h ****         // This is calculated as part of the subchunk size
  87:../libDaisy/src/util/WavWriter.h ****     }
  88:../libDaisy/src/util/WavWriter.h **** 
  89:../libDaisy/src/util/WavWriter.h ****     /** Records the current sample into the working buffer,
  90:../libDaisy/src/util/WavWriter.h ****      ** queues writes to media when necessary. 
  91:../libDaisy/src/util/WavWriter.h ****      ** 
  92:../libDaisy/src/util/WavWriter.h ****      ** \param in should be a pointer to an array of samples */
  93:../libDaisy/src/util/WavWriter.h ****     void Sample(const float *in)
  94:../libDaisy/src/util/WavWriter.h ****     {
  95:../libDaisy/src/util/WavWriter.h ****         for(size_t i = 0; i < cfg_.channels; i++)
  96:../libDaisy/src/util/WavWriter.h ****         {
ARM GAS  /var/folders/2p/02m_5p7958535cp2tpgps0400000gn/T//ccA8p2F3.s 			page 39


  97:../libDaisy/src/util/WavWriter.h ****             switch(cfg_.bitspersample)
  98:../libDaisy/src/util/WavWriter.h ****             {
  99:../libDaisy/src/util/WavWriter.h ****                 case 16:
 100:../libDaisy/src/util/WavWriter.h ****                 {
 101:../libDaisy/src/util/WavWriter.h ****                     int16_t *tp;
 102:../libDaisy/src/util/WavWriter.h ****                     tp            = (int16_t *)transfer_buff;
 103:../libDaisy/src/util/WavWriter.h ****                     tp[wptr_ + i] = f2s16(in[i]);
 104:../libDaisy/src/util/WavWriter.h ****                 }
 105:../libDaisy/src/util/WavWriter.h ****                 break;
 106:../libDaisy/src/util/WavWriter.h ****                 case 32: transfer_buff[wptr_ + i] = f2s32(in[i]); break;
 107:../libDaisy/src/util/WavWriter.h ****                 default: break;
 108:../libDaisy/src/util/WavWriter.h ****             }
 109:../libDaisy/src/util/WavWriter.h ****         }
 110:../libDaisy/src/util/WavWriter.h ****         num_samps_++;
 111:../libDaisy/src/util/WavWriter.h ****         wptr_ += cfg_.channels;
 112:../libDaisy/src/util/WavWriter.h ****         size_t cap_point
 113:../libDaisy/src/util/WavWriter.h ****             = cfg_.bitspersample == 16 ? kTransferSamps * 2 : kTransferSamps;
 114:../libDaisy/src/util/WavWriter.h ****         if(wptr_ == cap_point)
 115:../libDaisy/src/util/WavWriter.h ****         {
 116:../libDaisy/src/util/WavWriter.h ****             bstate_ = BufferState::FLUSH0;
 117:../libDaisy/src/util/WavWriter.h ****         }
 118:../libDaisy/src/util/WavWriter.h ****         if(wptr_ >= cap_point * 2)
 119:../libDaisy/src/util/WavWriter.h ****         {
 120:../libDaisy/src/util/WavWriter.h ****             wptr_   = 0;
 121:../libDaisy/src/util/WavWriter.h ****             bstate_ = BufferState::FLUSH1;
 122:../libDaisy/src/util/WavWriter.h ****         }
 123:../libDaisy/src/util/WavWriter.h ****     }
 124:../libDaisy/src/util/WavWriter.h **** 
 125:../libDaisy/src/util/WavWriter.h ****     /** Check buffer state and write */
 126:../libDaisy/src/util/WavWriter.h ****     void Write()
 127:../libDaisy/src/util/WavWriter.h ****     {
 128:../libDaisy/src/util/WavWriter.h ****         if(bstate_ != BufferState::IDLE && IsRecording())
 129:../libDaisy/src/util/WavWriter.h ****         {
 130:../libDaisy/src/util/WavWriter.h ****             uint32_t     offset;
 131:../libDaisy/src/util/WavWriter.h ****             unsigned int bw = 0;
 132:../libDaisy/src/util/WavWriter.h ****             //offset          = bstate_ == BufferState::FLUSH0 ? 0 : transfer_size;
 133:../libDaisy/src/util/WavWriter.h ****             offset  = bstate_ == BufferState::FLUSH0 ? 0 : kTransferSamps;
 134:../libDaisy/src/util/WavWriter.h ****             bstate_ = BufferState::IDLE;
 135:../libDaisy/src/util/WavWriter.h ****             f_write(&fp_, &transfer_buff[offset], transfer_size, &bw);
 136:../libDaisy/src/util/WavWriter.h ****         }
 137:../libDaisy/src/util/WavWriter.h ****     }
 138:../libDaisy/src/util/WavWriter.h **** 
 139:../libDaisy/src/util/WavWriter.h ****     /** Finalizes the writing of the WAV file.
 140:../libDaisy/src/util/WavWriter.h **** 	 ** This overwrites the WAV Header with the correct
 141:../libDaisy/src/util/WavWriter.h **** 	 ** final size, and closes the fptr. */
 142:../libDaisy/src/util/WavWriter.h ****     void SaveFile()
 143:../libDaisy/src/util/WavWriter.h ****     {
 144:../libDaisy/src/util/WavWriter.h ****         unsigned int bw = 0;
 145:../libDaisy/src/util/WavWriter.h ****         recording_      = false;
 146:../libDaisy/src/util/WavWriter.h ****         // We _should_ flush whatever's left in the transfer buff
 147:../libDaisy/src/util/WavWriter.h ****         // TODO: that.
 148:../libDaisy/src/util/WavWriter.h ****         wavheader_.FileSize = CalcFileSize();
 149:../libDaisy/src/util/WavWriter.h ****         f_lseek(&fp_, 0);
 150:../libDaisy/src/util/WavWriter.h ****         f_write(&fp_, &wavheader_, sizeof(wavheader_), &bw);
 151:../libDaisy/src/util/WavWriter.h ****         f_close(&fp_);
 152:../libDaisy/src/util/WavWriter.h ****     }
 153:../libDaisy/src/util/WavWriter.h **** 
ARM GAS  /var/folders/2p/02m_5p7958535cp2tpgps0400000gn/T//ccA8p2F3.s 			page 40


 154:../libDaisy/src/util/WavWriter.h ****     /** Opens a file for writing. Writes the initial WAV Header, and gets ready for stream-based re
 155:../libDaisy/src/util/WavWriter.h ****     void OpenFile(const char *name)
 156:../libDaisy/src/util/WavWriter.h ****     {
 157:../libDaisy/src/util/WavWriter.h ****         if(f_open(&fp_, name, FA_WRITE | FA_CREATE_ALWAYS) == FR_OK)
 158:../libDaisy/src/util/WavWriter.h ****         {
 159:../libDaisy/src/util/WavWriter.h ****             unsigned int bw = 0;
 160:../libDaisy/src/util/WavWriter.h ****             if(f_write(&fp_, &wavheader_, sizeof(wavheader_), &bw) == FR_OK)
 161:../libDaisy/src/util/WavWriter.h ****             {
 162:../libDaisy/src/util/WavWriter.h ****                 recording_ = true;
 163:../libDaisy/src/util/WavWriter.h ****                 num_samps_ = 0;
 164:../libDaisy/src/util/WavWriter.h ****             }
 165:../libDaisy/src/util/WavWriter.h ****         }
 166:../libDaisy/src/util/WavWriter.h ****     }
 167:../libDaisy/src/util/WavWriter.h **** 
 168:../libDaisy/src/util/WavWriter.h ****     /** Returns whether recording is currently active or not. */
 169:../libDaisy/src/util/WavWriter.h ****     inline bool IsRecording() const { return recording_; }
 170:../libDaisy/src/util/WavWriter.h **** 
 171:../libDaisy/src/util/WavWriter.h ****     /** Returns the current length in samples of the recording. */
 172:../libDaisy/src/util/WavWriter.h ****     inline uint32_t GetLengthSamps() { return num_samps_; }
 173:../libDaisy/src/util/WavWriter.h **** 
 174:../libDaisy/src/util/WavWriter.h ****     /** Returns the current length of the recording in seconds. */
 175:../libDaisy/src/util/WavWriter.h ****     inline float GetLengthSeconds()
 176:../libDaisy/src/util/WavWriter.h ****     {
 177:../libDaisy/src/util/WavWriter.h ****         return (float)num_samps_ / (float)cfg_.samplerate;
 178:../libDaisy/src/util/WavWriter.h ****     }
 179:../libDaisy/src/util/WavWriter.h **** 
 180:../libDaisy/src/util/WavWriter.h ****   private:
 181:../libDaisy/src/util/WavWriter.h ****     /** Calculate the file size based on current recording */
 182:../libDaisy/src/util/WavWriter.h ****     inline uint32_t CalcFileSize()
 183:../libDaisy/src/util/WavWriter.h ****     {
 184:../libDaisy/src/util/WavWriter.h ****         wavheader_.SubCHunk2Size
 185:../libDaisy/src/util/WavWriter.h ****             = num_samps_ * cfg_.channels * cfg_.bitspersample / 8;
 186:../libDaisy/src/util/WavWriter.h ****         return 36 + wavheader_.SubCHunk2Size;
 187:../libDaisy/src/util/WavWriter.h ****     }
 188:../libDaisy/src/util/WavWriter.h **** 
 189:../libDaisy/src/util/WavWriter.h ****     /** Compute the byte rate given the user settings. */
 190:../libDaisy/src/util/WavWriter.h ****     inline uint32_t CalcByteRate()
 191:../libDaisy/src/util/WavWriter.h ****     {
 192:../libDaisy/src/util/WavWriter.h ****         return cfg_.samplerate * cfg_.channels * cfg_.bitspersample / 8;
 1299              		.loc 9 192 32 view .LVU295
 1300 0010 07EE903A 		vmov	s15, r3	@ int
 1301              	.LBE273:
 1302              	.LBE272:
  73:../libDaisy/src/util/WavWriter.h ****         wavheader_.FileFormat    = kWavFileWaveId;      /** "WAVE" */
 1303              		.loc 9 73 34 view .LVU296
 1304 0014 1C49     		ldr	r1, .L118+8
  69:../libDaisy/src/util/WavWriter.h ****         num_samps_ = 0;
 1305              		.loc 9 69 9 view .LVU297
 1306 0016 80ED127A 		vstr.32	s14, [r0, #72]
 1307              	.LBB282:
 1308              	.LBB274:
 1309              		.loc 9 192 32 view .LVU298
 1310 001a F8EEE77A 		vcvt.f32.s32	s15, s15
 1311              	.LBE274:
 1312              	.LBE282:
  73:../libDaisy/src/util/WavWriter.h ****         wavheader_.FileFormat    = kWavFileWaveId;      /** "WAVE" */
 1313              		.loc 9 73 34 view .LVU299
ARM GAS  /var/folders/2p/02m_5p7958535cp2tpgps0400000gn/T//ccA8p2F3.s 			page 41


 1314 001e 4161     		str	r1, [r0, #20]
  74:../libDaisy/src/util/WavWriter.h ****         wavheader_.SubChunk1ID   = kWavFileSubChunk1Id; /** "fmt " */
 1315              		.loc 9 74 34 view .LVU300
 1316 0020 A1F57001 		sub	r1, r1, #15728640
 1317              	.LBE296:
 1318              	.LBE299:
 253:GrannyChordApp.cpp ****   cfg.samplerate = SAMPLE_RATE;
 1319              		.loc 5 253 41 view .LVU301
 1320 0024 C364     		str	r3, [r0, #76]
 1321              	.LBB300:
 1322              	.LBB297:
  78:../libDaisy/src/util/WavWriter.h ****         wavheader_.SampleRate    = static_cast<int>(cfg.samplerate);
 1323              		.loc 9 78 34 view .LVU302
 1324 0026 4385     		strh	r3, [r0, #42]	@ movhi
  81:../libDaisy/src/util/WavWriter.h ****         wavheader_.BitPerSample  = cfg_.bitspersample;
 1325              		.loc 9 81 71 view .LVU303
 1326 0028 1B01     		lsls	r3, r3, #4
 1327              	.LVL73:
 1328              	.LBB283:
 1329              	.LBB275:
 1330              		.loc 9 192 32 view .LVU304
 1331 002a 67EE877A 		vmul.f32	s15, s15, s14
 1332              	.LBE275:
 1333              	.LBE283:
  74:../libDaisy/src/util/WavWriter.h ****         wavheader_.SubChunk1ID   = kWavFileSubChunk1Id; /** "fmt " */
 1334              		.loc 9 74 34 view .LVU305
 1335 002e A1F2FB71 		subw	r1, r1, #2043
 1336              	.LBB284:
 1337              	.LBB276:
 1338              		.loc 9 192 48 view .LVU306
 1339 0032 B3EE007A 		vmov.f32	s14, #1.6e+1
 1340              	.LBE276:
 1341              	.LBE284:
  81:../libDaisy/src/util/WavWriter.h ****         wavheader_.BitPerSample  = cfg_.bitspersample;
 1342              		.loc 9 81 71 view .LVU307
 1343 0036 48BF     		it	mi
 1344 0038 0733     		addmi	r3, r3, #7
  74:../libDaisy/src/util/WavWriter.h ****         wavheader_.SubChunk1ID   = kWavFileSubChunk1Id; /** "fmt " */
 1345              		.loc 9 74 34 view .LVU308
 1346 003a C161     		str	r1, [r0, #28]
  75:../libDaisy/src/util/WavWriter.h ****         wavheader_.SubChunk1Size = 16;                  // for PCM
 1347              		.loc 9 75 34 view .LVU309
 1348 003c 01F15B41 		add	r1, r1, #-620756992
  81:../libDaisy/src/util/WavWriter.h ****         wavheader_.BitPerSample  = cfg_.bitspersample;
 1349              		.loc 9 81 71 view .LVU310
 1350 0040 DB10     		asrs	r3, r3, #3
  69:../libDaisy/src/util/WavWriter.h ****         num_samps_ = 0;
 1351              		.loc 9 69 9 view .LVU311
 1352 0042 0265     		str	r2, [r0, #80]
 1353              	.LBB285:
 1354              	.LBB277:
 1355              		.loc 9 192 48 view .LVU312
 1356 0044 67EE877A 		vmul.f32	s15, s15, s14
 1357              	.LBE277:
 1358              	.LBE285:
  75:../libDaisy/src/util/WavWriter.h ****         wavheader_.SubChunk1Size = 16;                  // for PCM
 1359              		.loc 9 75 34 view .LVU313
ARM GAS  /var/folders/2p/02m_5p7958535cp2tpgps0400000gn/T//ccA8p2F3.s 			page 42


 1360 0048 01F5F111 		add	r1, r1, #1974272
 1361              	.LBB286:
 1362              	.LBB278:
 1363              		.loc 9 192 69 view .LVU314
 1364 004c B4EE007A 		vmov.f32	s14, #1.25e-1
 1365              	.LBE278:
 1366              	.LBE286:
  81:../libDaisy/src/util/WavWriter.h ****         wavheader_.BitPerSample  = cfg_.bitspersample;
 1367              		.loc 9 81 34 view .LVU315
 1368 0050 8386     		strh	r3, [r0, #52]	@ movhi
  75:../libDaisy/src/util/WavWriter.h ****         wavheader_.SubChunk1Size = 16;                  // for PCM
 1369              		.loc 9 75 34 view .LVU316
 1370 0052 01F60F41 		addw	r1, r1, #3087
 1371              	.LBB287:
 1372              	.LBB288:
 185:../libDaisy/src/util/WavWriter.h ****         return 36 + wavheader_.SubCHunk2Size;
 1373              		.loc 9 185 13 view .LVU317
 1374 0056 0023     		movs	r3, #0
 1375              	.LBE288:
 1376              	.LBE287:
  82:../libDaisy/src/util/WavWriter.h ****         wavheader_.SubChunk2ID   = kWavFileSubChunk2Id; /** "data" */
 1377              		.loc 9 82 34 view .LVU318
 1378 0058 C286     		strh	r2, [r0, #54]	@ movhi
 1379              	.LBB291:
 1380              	.LBB279:
 1381              		.loc 9 192 69 view .LVU319
 1382 005a 67EE877A 		vmul.f32	s15, s15, s14
 1383              	.LBE279:
 1384              	.LBE291:
  76:../libDaisy/src/util/WavWriter.h ****         wavheader_.AudioFormat   = WAVE_FORMAT_PCM;
 1385              		.loc 9 76 34 view .LVU320
 1386 005e C0E90812 		strd	r1, r2, [r0, #32]
  77:../libDaisy/src/util/WavWriter.h ****         wavheader_.NbrChannels   = cfg.channels;
 1387              		.loc 9 77 34 view .LVU321
 1388 0062 0121     		movs	r1, #1
 1389              	.LBB292:
 1390              	.LBB289:
 185:../libDaisy/src/util/WavWriter.h ****         return 36 + wavheader_.SubCHunk2Size;
 1391              		.loc 9 185 13 view .LVU322
 1392 0064 094A     		ldr	r2, .L118+12
 1393              	.LBE289:
 1394              	.LBE292:
 1395              	.LBB293:
 1396              	.LBB280:
 1397              		.loc 9 192 71 view .LVU323
 1398 0066 FCEEE77A 		vcvt.u32.f32	s15, s15
 1399              	.LBE280:
 1400              	.LBE293:
  77:../libDaisy/src/util/WavWriter.h ****         wavheader_.NbrChannels   = cfg.channels;
 1401              		.loc 9 77 34 view .LVU324
 1402 006a 0185     		strh	r1, [r0, #40]	@ movhi
  79:../libDaisy/src/util/WavWriter.h ****         wavheader_.ByteRate      = CalcByteRate();
 1403              		.loc 9 79 34 view .LVU325
 1404 006c 4BF68031 		movw	r1, #48000
 1405              	.LBB294:
 1406              	.LBB290:
 185:../libDaisy/src/util/WavWriter.h ****         return 36 + wavheader_.SubCHunk2Size;
ARM GAS  /var/folders/2p/02m_5p7958535cp2tpgps0400000gn/T//ccA8p2F3.s 			page 43


 1407              		.loc 9 185 13 view .LVU326
 1408 0070 C0E90E23 		strd	r2, r3, [r0, #56]
 1409              	.LBE290:
 1410              	.LBE294:
  85:../libDaisy/src/util/WavWriter.h ****         // This is calculated as part of the subchunk size
 1411              		.loc 9 85 29 view .LVU327
 1412 0074 2423     		movs	r3, #36
  79:../libDaisy/src/util/WavWriter.h ****         wavheader_.ByteRate      = CalcByteRate();
 1413              		.loc 9 79 34 view .LVU328
 1414 0076 C162     		str	r1, [r0, #44]
 1415              	.LVL74:
 1416              	.LBB295:
 1417              	.LBI272:
 190:../libDaisy/src/util/WavWriter.h ****     {
 1418              		.loc 9 190 21 is_stmt 1 view .LVU329
 1419              	.LBB281:
 1420              		.loc 9 192 71 is_stmt 0 view .LVU330
 1421 0078 C0ED0C7A 		vstr.32	s15, [r0, #48]	@ int
 1422              	.LBE281:
 1423              	.LBE295:
  85:../libDaisy/src/util/WavWriter.h ****         // This is calculated as part of the subchunk size
 1424              		.loc 9 85 29 view .LVU331
 1425 007c 8361     		str	r3, [r0, #24]
 1426              	.LVL75:
  85:../libDaisy/src/util/WavWriter.h ****         // This is calculated as part of the subchunk size
 1427              		.loc 9 85 29 view .LVU332
 1428              	.LBE297:
 1429              	.LBE300:
 256:GrannyChordApp.cpp **** }
 1430              		.loc 5 256 1 view .LVU333
 1431 007e 7047     		bx	lr
 1432              	.L119:
 1433              		.align	2
 1434              	.L118:
 1435 0080 00000000 		.word	_ZN16AudioFileManager7header_E
 1436 0084 00803B47 		.word	1195081728
 1437 0088 52494646 		.word	1179011410
 1438 008c 64617461 		.word	1635017060
 1439              		.cfi_endproc
 1440              	.LFE4953:
 1442              		.section	.text._ZN14GrannyChordApp6InitFXEv,"ax",%progbits
 1443              		.align	1
 1444              		.global	_ZN14GrannyChordApp6InitFXEv
 1445              		.syntax unified
 1446              		.thumb
 1447              		.thumb_func
 1449              	_ZN14GrannyChordApp6InitFXEv:
 1450              	.LVL76:
 1451              	.LFB4954:
 257:GrannyChordApp.cpp **** 
 258:GrannyChordApp.cpp **** 
 259:GrannyChordApp.cpp **** /// @brief initialise reverb, compressor, filter configs for FX section 
 260:GrannyChordApp.cpp **** void GrannyChordApp::InitFX(){
 1452              		.loc 5 260 30 is_stmt 1 view -0
 1453              		.cfi_startproc
 1454              		@ args = 0, pretend = 0, frame = 0
 1455              		@ frame_needed = 0, uses_anonymous_args = 0
ARM GAS  /var/folders/2p/02m_5p7958535cp2tpgps0400000gn/T//ccA8p2F3.s 			page 44


 261:GrannyChordApp.cpp ****   comp_.Init(pod_.AudioSampleRate());
 1456              		.loc 5 261 3 view .LVU335
 260:GrannyChordApp.cpp ****   comp_.Init(pod_.AudioSampleRate());
 1457              		.loc 5 260 30 is_stmt 0 view .LVU336
 1458 0000 10B5     		push	{r4, lr}
 1459              		.cfi_def_cfa_offset 8
 1460              		.cfi_offset 4, -8
 1461              		.cfi_offset 14, -4
 1462              		.loc 5 261 13 view .LVU337
 1463 0002 0F4C     		ldr	r4, .L121
 1464 0004 0068     		ldr	r0, [r0]
 1465              	.LVL77:
 1466              		.loc 5 261 13 view .LVU338
 1467 0006 FFF7FEFF 		bl	_ZN5daisy8DaisyPod15AudioSampleRateEv
 1468              	.LVL78:
 1469 000a 04F11400 		add	r0, r4, #20
 1470 000e FFF7FEFF 		bl	_ZN7daisysp10Compressor4InitEf
 1471              	.LVL79:
 262:GrannyChordApp.cpp ****   // reverb_.Init(SAMPLE_RATE_FLOAT);
 263:GrannyChordApp.cpp ****   lowpass_moog_.Init(SAMPLE_RATE_FLOAT);
 1472              		.loc 5 263 3 is_stmt 1 view .LVU339
 1473              		.loc 5 263 21 is_stmt 0 view .LVU340
 1474 0012 9FED0C0A 		vldr.32	s0, .L121+4
 1475 0016 04F15400 		add	r0, r4, #84
 1476 001a FFF7FEFF 		bl	_ZN7daisysp10MoogLadder4InitEf
 1477              	.LVL80:
 264:GrannyChordApp.cpp ****   lowpass_moog_.SetFreq(20000.0f);
 1478              		.loc 5 264 3 is_stmt 1 view .LVU341
 1479              	.LBB312:
 1480              	.LBI312:
  24:DaisySP-LGPL-FX/moogladder.h ****     /** Initializes the MoogLadder module.
  25:DaisySP-LGPL-FX/moogladder.h ****         sample_rate - The sample rate of the audio engine being run. 
  26:DaisySP-LGPL-FX/moogladder.h ****     */
  27:DaisySP-LGPL-FX/moogladder.h ****     void Init(float sample_rate);
  28:DaisySP-LGPL-FX/moogladder.h **** 
  29:DaisySP-LGPL-FX/moogladder.h **** 
  30:DaisySP-LGPL-FX/moogladder.h ****     /** Processes the lowpass filter
  31:DaisySP-LGPL-FX/moogladder.h ****     */
  32:DaisySP-LGPL-FX/moogladder.h ****     float Process(float in);
  33:DaisySP-LGPL-FX/moogladder.h **** 
  34:DaisySP-LGPL-FX/moogladder.h ****     /** 
  35:DaisySP-LGPL-FX/moogladder.h ****         Sets the cutoff frequency or half-way point of the filter.
  36:DaisySP-LGPL-FX/moogladder.h ****         Arguments
  37:DaisySP-LGPL-FX/moogladder.h ****         - freq - frequency value in Hz. Range: Any positive value.
  38:DaisySP-LGPL-FX/moogladder.h ****     */
  39:DaisySP-LGPL-FX/moogladder.h ****     inline void SetFreq(float freq) { freq_ = freq; }
 1481              		.loc 3 39 17 view .LVU342
 1482              	.LBB313:
 1483              		.loc 3 39 39 view .LVU343
 1484              		.loc 3 39 45 is_stmt 0 view .LVU344
 1485 001e 0A4B     		ldr	r3, .L121+8
 1486              	.LBE313:
 1487              	.LBE312:
 1488              	.LBB315:
 1489              	.LBB316:
  31:../DaisySP/Source/Filters/onepole.h **** 
  32:../DaisySP/Source/Filters/onepole.h ****     /**
ARM GAS  /var/folders/2p/02m_5p7958535cp2tpgps0400000gn/T//ccA8p2F3.s 			page 45


  33:../DaisySP/Source/Filters/onepole.h ****      * @brief Operational modes of the filter
  34:../DaisySP/Source/Filters/onepole.h ****      * - LOW_PASS = cuts out high frequency sound, lets low frequency sound pass through
  35:../DaisySP/Source/Filters/onepole.h ****      * - HIGH_PASS = cuts out low frequency sound, lets high frequency sound pass through
  36:../DaisySP/Source/Filters/onepole.h ****      */
  37:../DaisySP/Source/Filters/onepole.h ****     enum FilterMode
  38:../DaisySP/Source/Filters/onepole.h ****     {
  39:../DaisySP/Source/Filters/onepole.h ****         FILTER_MODE_LOW_PASS,
  40:../DaisySP/Source/Filters/onepole.h ****         FILTER_MODE_HIGH_PASS
  41:../DaisySP/Source/Filters/onepole.h ****     };
  42:../DaisySP/Source/Filters/onepole.h **** 
  43:../DaisySP/Source/Filters/onepole.h ****     /** Initializes the module */
  44:../DaisySP/Source/Filters/onepole.h ****     void Init()
  45:../DaisySP/Source/Filters/onepole.h ****     {
  46:../DaisySP/Source/Filters/onepole.h ****         Reset();
  47:../DaisySP/Source/Filters/onepole.h ****         mode_ = FILTER_MODE_LOW_PASS;
  48:../DaisySP/Source/Filters/onepole.h ****     }
  49:../DaisySP/Source/Filters/onepole.h **** 
  50:../DaisySP/Source/Filters/onepole.h ****     /** Reset the module to its default state */
  51:../DaisySP/Source/Filters/onepole.h ****     inline void Reset() { state_ = 0.0f; }
  52:../DaisySP/Source/Filters/onepole.h **** 
  53:../DaisySP/Source/Filters/onepole.h ****     /** Set the filter cutoff frequency
  54:../DaisySP/Source/Filters/onepole.h ****     *   \param freq Cutoff frequency. Valid range from 0 to .497f
  55:../DaisySP/Source/Filters/onepole.h ****     */
  56:../DaisySP/Source/Filters/onepole.h ****     inline void SetFrequency(float freq)
  57:../DaisySP/Source/Filters/onepole.h ****     {
  58:../DaisySP/Source/Filters/onepole.h ****         // Clip coefficient to about 100.
  59:../DaisySP/Source/Filters/onepole.h ****         freq = freq < 0.497f ? freq : 0.497f;
  60:../DaisySP/Source/Filters/onepole.h **** 
  61:../DaisySP/Source/Filters/onepole.h ****         g_  = tanf(PI_F * freq);
  62:../DaisySP/Source/Filters/onepole.h ****         gi_ = 1.f / (1.f + g_);
  63:../DaisySP/Source/Filters/onepole.h ****     }
  64:../DaisySP/Source/Filters/onepole.h **** 
  65:../DaisySP/Source/Filters/onepole.h ****     /** Set the filter mode
  66:../DaisySP/Source/Filters/onepole.h ****     *   \param mode Filter mode. Can be lowpass or highpass
  67:../DaisySP/Source/Filters/onepole.h ****     */
  68:../DaisySP/Source/Filters/onepole.h ****     inline void SetFilterMode(FilterMode mode) { mode_ = mode; }
 1490              		.loc 1 68 56 view .LVU345
 1491 0020 0122     		movs	r2, #1
 1492              	.LBE316:
 1493              	.LBE315:
 1494              	.LBB319:
 1495              	.LBB314:
 1496              		.loc 3 39 45 view .LVU346
 1497 0022 E365     		str	r3, [r4, #92]	@ float
 1498              	.LVL81:
 1499              		.loc 3 39 45 view .LVU347
 1500              	.LBE314:
 1501              	.LBE319:
 265:GrannyChordApp.cpp ****   lowpass_moog_.SetRes(0.7f);
 1502              		.loc 5 265 3 is_stmt 1 view .LVU348
 1503              	.LBB320:
 1504              	.LBI320:
  40:DaisySP-LGPL-FX/moogladder.h ****     /** 
  41:DaisySP-LGPL-FX/moogladder.h ****         Sets the resonance of the filter.
  42:DaisySP-LGPL-FX/moogladder.h ****     */
  43:DaisySP-LGPL-FX/moogladder.h ****     inline void SetRes(float res) { res_ = res; }
 1505              		.loc 3 43 17 view .LVU349
ARM GAS  /var/folders/2p/02m_5p7958535cp2tpgps0400000gn/T//ccA8p2F3.s 			page 46


 1506              	.LBB321:
 1507              		.loc 3 43 37 view .LVU350
 1508              		.loc 3 43 42 is_stmt 0 view .LVU351
 1509 0024 094B     		ldr	r3, .L121+12
 1510              	.LBE321:
 1511              	.LBE320:
 1512              	.LBB323:
 1513              	.LBB317:
 1514              		.loc 1 68 56 view .LVU352
 1515 0026 84F8A420 		strb	r2, [r4, #164]
 1516              	.LBE317:
 1517              	.LBE323:
 1518              	.LBB324:
 1519              	.LBB322:
 1520              		.loc 3 43 42 view .LVU353
 1521 002a A365     		str	r3, [r4, #88]	@ float
 1522              	.LVL82:
 1523              		.loc 3 43 42 view .LVU354
 1524              	.LBE322:
 1525              	.LBE324:
 266:GrannyChordApp.cpp ****   hipass_.Init();
 1526              		.loc 5 266 3 is_stmt 1 view .LVU355
 1527              	.LBB325:
 1528              	.LBI325:
  44:../DaisySP/Source/Filters/onepole.h ****     {
 1529              		.loc 1 44 10 view .LVU356
 1530              	.LBE325:
  46:../DaisySP/Source/Filters/onepole.h ****         mode_ = FILTER_MODE_LOW_PASS;
 1531              		.loc 1 46 9 view .LVU357
 1532              	.LBB328:
 1533              	.LBB326:
 1534              	.LBI326:
  51:../DaisySP/Source/Filters/onepole.h **** 
 1535              		.loc 1 51 17 view .LVU358
 1536              	.LBB327:
  51:../DaisySP/Source/Filters/onepole.h **** 
 1537              		.loc 1 51 27 view .LVU359
  51:../DaisySP/Source/Filters/onepole.h **** 
 1538              		.loc 1 51 34 is_stmt 0 view .LVU360
 1539 002c 0023     		movs	r3, #0
 1540 002e C4F8A030 		str	r3, [r4, #160]	@ float
 1541              	.LVL83:
  51:../DaisySP/Source/Filters/onepole.h **** 
 1542              		.loc 1 51 34 view .LVU361
 1543              	.LBE327:
 1544              	.LBE326:
 1545              	.LBE328:
  47:../DaisySP/Source/Filters/onepole.h ****     }
 1546              		.loc 1 47 9 is_stmt 1 view .LVU362
 267:GrannyChordApp.cpp ****   hipass_.SetFilterMode(daisysp::OnePole::FilterMode::FILTER_MODE_HIGH_PASS);
 1547              		.loc 5 267 3 view .LVU363
 1548              	.LBB329:
 1549              	.LBI315:
 1550              		.loc 1 68 17 view .LVU364
 1551              	.LBB318:
 1552              		.loc 1 68 50 view .LVU365
 1553              		.loc 1 68 50 is_stmt 0 view .LVU366
ARM GAS  /var/folders/2p/02m_5p7958535cp2tpgps0400000gn/T//ccA8p2F3.s 			page 47


 1554              	.LBE318:
 1555              	.LBE329:
 268:GrannyChordApp.cpp ****   hipass_.SetFrequency(0.0f); // NOTE: CHECK THIS
 1556              		.loc 5 268 3 is_stmt 1 view .LVU367
 1557              	.LBB330:
 1558              	.LBI330:
  56:../DaisySP/Source/Filters/onepole.h ****     {
 1559              		.loc 1 56 17 view .LVU368
 1560              	.LBB331:
  59:../DaisySP/Source/Filters/onepole.h **** 
 1561              		.loc 1 59 9 view .LVU369
  61:../DaisySP/Source/Filters/onepole.h ****         gi_ = 1.f / (1.f + g_);
 1562              		.loc 1 61 9 view .LVU370
  61:../DaisySP/Source/Filters/onepole.h ****         gi_ = 1.f / (1.f + g_);
 1563              		.loc 1 61 13 is_stmt 0 view .LVU371
 1564 0032 C4F89830 		str	r3, [r4, #152]	@ float
  62:../DaisySP/Source/Filters/onepole.h ****     }
 1565              		.loc 1 62 9 is_stmt 1 view .LVU372
  62:../DaisySP/Source/Filters/onepole.h ****     }
 1566              		.loc 1 62 13 is_stmt 0 view .LVU373
 1567 0036 4FF07E53 		mov	r3, #1065353216
 1568 003a C4F89C30 		str	r3, [r4, #156]	@ float
 1569              	.LVL84:
  62:../DaisySP/Source/Filters/onepole.h ****     }
 1570              		.loc 1 62 13 view .LVU374
 1571              	.LBE331:
 1572              	.LBE330:
 269:GrannyChordApp.cpp **** }
 1573              		.loc 5 269 1 view .LVU375
 1574 003e 10BD     		pop	{r4, pc}
 1575              	.L122:
 1576              		.align	2
 1577              	.L121:
 1578 0040 00000000 		.word	.LANCHOR0
 1579 0044 00803B47 		.word	1195081728
 1580 0048 00409C46 		.word	1184645120
 1581 004c 3333333F 		.word	1060320051
 1582              		.cfi_endproc
 1583              	.LFE4954:
 1585              		.section	.text._ZN14GrannyChordApp17InitPrevParamValsEv,"ax",%progbits
 1586              		.align	1
 1587              		.global	_ZN14GrannyChordApp17InitPrevParamValsEv
 1588              		.syntax unified
 1589              		.thumb
 1590              		.thumb_func
 1592              	_ZN14GrannyChordApp17InitPrevParamValsEv:
 1593              	.LVL85:
 1594              	.LFB4955:
 270:GrannyChordApp.cpp **** 
 271:GrannyChordApp.cpp **** /// @brief Initialise previous parameter value arrays to defaults
 272:GrannyChordApp.cpp **** void GrannyChordApp::InitPrevParamVals(){
 1595              		.loc 5 272 41 is_stmt 1 view -0
 1596              		.cfi_startproc
 1597              		@ args = 0, pretend = 0, frame = 0
 1598              		@ frame_needed = 0, uses_anonymous_args = 0
 1599              		@ link register save eliminated.
 273:GrannyChordApp.cpp ****       for (int i=0; i < NUM_SYNTH_MODES;i++){
ARM GAS  /var/folders/2p/02m_5p7958535cp2tpgps0400000gn/T//ccA8p2F3.s 			page 48


 1600              		.loc 5 273 7 view .LVU377
 1601              	.LBB332:
 1602              		.loc 5 273 23 view .LVU378
 1603 0000 064A     		ldr	r2, .L126
 1604              	.LBE332:
 272:GrannyChordApp.cpp ****       for (int i=0; i < NUM_SYNTH_MODES;i++){
 1605              		.loc 5 272 41 is_stmt 0 view .LVU379
 1606 0002 0723     		movs	r3, #7
 1607 0004 02F11C01 		add	r1, r2, #28
 1608              	.LVL86:
 1609              	.L124:
 1610              	.LBB333:
 274:GrannyChordApp.cpp ****         prev_param_vals_k1[i] = 0.5f;
 1611              		.loc 5 274 9 is_stmt 1 discriminator 2 view .LVU380
 1612              		.loc 5 274 31 is_stmt 0 discriminator 2 view .LVU381
 1613 0008 4FF07C50 		mov	r0, #1056964608
 273:GrannyChordApp.cpp ****       for (int i=0; i < NUM_SYNTH_MODES;i++){
 1614              		.loc 5 273 23 discriminator 2 view .LVU382
 1615 000c 013B     		subs	r3, r3, #1
 1616              	.LVL87:
 1617              		.loc 5 274 31 discriminator 2 view .LVU383
 1618 000e 42F8040B 		str	r0, [r2], #4	@ float
 275:GrannyChordApp.cpp ****         prev_param_vals_k2[i] = 0.5f;
 1619              		.loc 5 275 9 is_stmt 1 discriminator 2 view .LVU384
 1620              		.loc 5 275 31 is_stmt 0 discriminator 2 view .LVU385
 1621 0012 41F8040B 		str	r0, [r1], #4	@ float
 273:GrannyChordApp.cpp ****         prev_param_vals_k1[i] = 0.5f;
 1622              		.loc 5 273 7 is_stmt 1 discriminator 2 view .LVU386
 1623              	.LVL88:
 273:GrannyChordApp.cpp ****         prev_param_vals_k1[i] = 0.5f;
 1624              		.loc 5 273 23 discriminator 2 view .LVU387
 1625 0016 F7D1     		bne	.L124
 1626              	.LBE333:
 276:GrannyChordApp.cpp ****       } 
 277:GrannyChordApp.cpp **** };
 1627              		.loc 5 277 1 is_stmt 0 view .LVU388
 1628 0018 7047     		bx	lr
 1629              	.L127:
 1630 001a 00BF     		.align	2
 1631              	.L126:
 1632 001c A8000000 		.word	.LANCHOR0+168
 1633              		.cfi_endproc
 1634              	.LFE4955:
 1636              		.section	.text._ZN14GrannyChordApp4InitEPsS0_,"ax",%progbits
 1637              		.align	1
 1638              		.global	_ZN14GrannyChordApp4InitEPsS0_
 1639              		.syntax unified
 1640              		.thumb
 1641              		.thumb_func
 1643              	_ZN14GrannyChordApp4InitEPsS0_:
 1644              	.LVL89:
 1645              	.LFB4933:
  29:GrannyChordApp.cpp ****   left_buf_ = left;
 1646              		.loc 5 29 57 is_stmt 1 view -0
 1647              		.cfi_startproc
 1648              		@ args = 0, pretend = 0, frame = 0
 1649              		@ frame_needed = 0, uses_anonymous_args = 0
ARM GAS  /var/folders/2p/02m_5p7958535cp2tpgps0400000gn/T//ccA8p2F3.s 			page 49


  30:GrannyChordApp.cpp ****   right_buf_ = right;
 1650              		.loc 5 30 3 view .LVU390
  30:GrannyChordApp.cpp ****   right_buf_ = right;
 1651              		.loc 5 30 13 is_stmt 0 view .LVU391
 1652 0000 174B     		ldr	r3, .L130
  29:GrannyChordApp.cpp ****   left_buf_ = left;
 1653              		.loc 5 29 57 view .LVU392
 1654 0002 10B5     		push	{r4, lr}
 1655              		.cfi_def_cfa_offset 8
 1656              		.cfi_offset 4, -8
 1657              		.cfi_offset 14, -4
  30:GrannyChordApp.cpp ****   right_buf_ = right;
 1658              		.loc 5 30 13 view .LVU393
 1659 0004 1960     		str	r1, [r3]
  31:GrannyChordApp.cpp ****   pod_.SetAudioBlockSize(4);
 1660              		.loc 5 31 3 is_stmt 1 view .LVU394
  29:GrannyChordApp.cpp ****   left_buf_ = left;
 1661              		.loc 5 29 57 is_stmt 0 view .LVU395
 1662 0006 0446     		mov	r4, r0
  31:GrannyChordApp.cpp ****   pod_.SetAudioBlockSize(4);
 1663              		.loc 5 31 14 view .LVU396
 1664 0008 164B     		ldr	r3, .L130+4
  32:GrannyChordApp.cpp ****   pod_.SetAudioSampleRate(SaiHandle::Config::SampleRate::SAI_48KHZ);
 1665              		.loc 5 32 25 view .LVU397
 1666 000a 0421     		movs	r1, #4
 1667              	.LVL90:
  32:GrannyChordApp.cpp ****   pod_.SetAudioSampleRate(SaiHandle::Config::SampleRate::SAI_48KHZ);
 1668              		.loc 5 32 25 view .LVU398
 1669 000c 0068     		ldr	r0, [r0]
 1670              	.LVL91:
  31:GrannyChordApp.cpp ****   pod_.SetAudioBlockSize(4);
 1671              		.loc 5 31 14 view .LVU399
 1672 000e 1A60     		str	r2, [r3]
  32:GrannyChordApp.cpp ****   pod_.SetAudioSampleRate(SaiHandle::Config::SampleRate::SAI_48KHZ);
 1673              		.loc 5 32 3 is_stmt 1 view .LVU400
  32:GrannyChordApp.cpp ****   pod_.SetAudioSampleRate(SaiHandle::Config::SampleRate::SAI_48KHZ);
 1674              		.loc 5 32 25 is_stmt 0 view .LVU401
 1675 0010 FFF7FEFF 		bl	_ZN5daisy8DaisyPod17SetAudioBlockSizeEj
 1676              	.LVL92:
  33:GrannyChordApp.cpp ****   curr_state_ = AppState::SelectFile;
 1677              		.loc 5 33 3 is_stmt 1 view .LVU402
  33:GrannyChordApp.cpp ****   curr_state_ = AppState::SelectFile;
 1678              		.loc 5 33 26 is_stmt 0 view .LVU403
 1679 0014 2068     		ldr	r0, [r4]
 1680 0016 0321     		movs	r1, #3
 1681 0018 FFF7FEFF 		bl	_ZN5daisy8DaisyPod18SetAudioSampleRateENS_9SaiHandle6Config10SampleRateE
 1682              	.LVL93:
  34:GrannyChordApp.cpp ****   if (!InitFileMgr()){
 1683              		.loc 5 34 3 is_stmt 1 view .LVU404
  34:GrannyChordApp.cpp ****   if (!InitFileMgr()){
 1684              		.loc 5 34 15 is_stmt 0 view .LVU405
 1685 001c 124B     		ldr	r3, .L130+8
 1686 001e 0022     		movs	r2, #0
  35:GrannyChordApp.cpp ****     // DebugPrint(pod_,"File manager failed to init - can't read SD card");
 1687              		.loc 5 35 19 view .LVU406
 1688 0020 2046     		mov	r0, r4
  34:GrannyChordApp.cpp ****   if (!InitFileMgr()){
ARM GAS  /var/folders/2p/02m_5p7958535cp2tpgps0400000gn/T//ccA8p2F3.s 			page 50


 1689              		.loc 5 34 15 view .LVU407
 1690 0022 1A60     		str	r2, [r3]
  35:GrannyChordApp.cpp ****     // DebugPrint(pod_,"File manager failed to init - can't read SD card");
 1691              		.loc 5 35 3 is_stmt 1 view .LVU408
  35:GrannyChordApp.cpp ****     // DebugPrint(pod_,"File manager failed to init - can't read SD card");
 1692              		.loc 5 35 19 is_stmt 0 view .LVU409
 1693 0024 FFF7FEFF 		bl	_ZN14GrannyChordApp11InitFileMgrEv
 1694              	.LVL94:
  35:GrannyChordApp.cpp ****     // DebugPrint(pod_,"File manager failed to init - can't read SD card");
 1695              		.loc 5 35 3 view .LVU410
 1696 0028 28B9     		cbnz	r0, .L129
  37:GrannyChordApp.cpp ****   }
 1697              		.loc 5 37 5 is_stmt 1 view .LVU411
  37:GrannyChordApp.cpp ****   }
 1698              		.loc 5 37 21 is_stmt 0 view .LVU412
 1699 002a 2068     		ldr	r0, [r4]
 1700 002c B7EE000A 		vmov.f32	s0, #1.0e+0
 1701 0030 D830     		adds	r0, r0, #216
 1702 0032 FFF7FEFF 		bl	_ZN5daisy6RgbLed6SetRedEf
 1703              	.LVL95:
 1704              	.L129:
  40:GrannyChordApp.cpp ****   InitPrevParamVals();
 1705              		.loc 5 40 3 is_stmt 1 view .LVU413
  40:GrannyChordApp.cpp ****   InitPrevParamVals();
 1706              		.loc 5 40 9 is_stmt 0 view .LVU414
 1707 0036 2046     		mov	r0, r4
 1708 0038 FFF7FEFF 		bl	_ZN14GrannyChordApp6InitFXEv
 1709              	.LVL96:
  41:GrannyChordApp.cpp ****   SeedRng();
 1710              		.loc 5 41 3 is_stmt 1 view .LVU415
  41:GrannyChordApp.cpp ****   SeedRng();
 1711              		.loc 5 41 20 is_stmt 0 view .LVU416
 1712 003c 2046     		mov	r0, r4
 1713 003e FFF7FEFF 		bl	_ZN14GrannyChordApp17InitPrevParamValsEv
 1714              	.LVL97:
  42:GrannyChordApp.cpp ****   pod_.StartAdc();
 1715              		.loc 5 42 3 is_stmt 1 view .LVU417
 1716              	.LBB336:
 1717              	.LBI336:
 1718              		.file 10 "constants_utils.h"
   1:constants_utils.h **** #pragma once
   2:constants_utils.h **** #include "stddef.h"
   3:constants_utils.h **** #include <time.h>
   4:constants_utils.h **** 
   5:constants_utils.h **** /* macro to set frequently used variables to be stored in DTCMRAM */
   6:constants_utils.h **** #define DTCMRAM_BSS __attribute__((section(".dtcmram_bss")))
   7:constants_utils.h **** #define SRAM_BSS __attribute__((section(".bss")))
   8:constants_utils.h **** 
   9:constants_utils.h **** constexpr int MIN_GRAINS = 1;
  10:constants_utils.h **** constexpr int MAX_GRAINS = 20;
  11:constants_utils.h **** 
  12:constants_utils.h **** constexpr float MIN_GRAIN_SIZE_MS = 100.0f; /* 100ms */
  13:constants_utils.h **** constexpr float MAX_GRAIN_SIZE_MS = 3000.0f; /* 3s */
  14:constants_utils.h **** constexpr float MIN_PITCH = 0.5f;
  15:constants_utils.h **** constexpr float MAX_PITCH = 3.0f;
  16:constants_utils.h **** 
  17:constants_utils.h **** static constexpr int NUM_ENV_TYPES = 4; 
ARM GAS  /var/folders/2p/02m_5p7958535cp2tpgps0400000gn/T//ccA8p2F3.s 			page 51


  18:constants_utils.h **** static constexpr int NUM_PHASOR_MODES = 4;
  19:constants_utils.h **** static constexpr int NUM_SYNTH_MODES = 7;
  20:constants_utils.h **** static constexpr float PARAM_CHANGE_THRESHOLD = 0.01f;
  21:constants_utils.h **** 
  22:constants_utils.h **** /* integer clamp as can't use std::clamp */
  23:constants_utils.h **** inline constexpr size_t intclamp(size_t val, size_t min, size_t max){
  24:constants_utils.h ****   if (val < min) val = min;
  25:constants_utils.h ****   else if (val > max) val = max;
  26:constants_utils.h ****   return val;
  27:constants_utils.h **** }
  28:constants_utils.h **** 
  29:constants_utils.h **** /* converts milliseconds to number of samples */
  30:constants_utils.h **** inline constexpr size_t MsToSamples(float ms){
  31:constants_utils.h ****   /* hardcoded sample rate here to help performance 
  32:constants_utils.h ****       since SAMPLE_RATE_FLOAT is stored in QSPI */
  33:constants_utils.h ****   return static_cast<size_t>(48000.0f * (ms*0.001f));
  34:constants_utils.h **** }
  35:constants_utils.h **** 
  36:constants_utils.h **** /* converts number of samples to milliseconds */
  37:constants_utils.h **** inline constexpr float SamplesToMs(size_t samples){
  38:constants_utils.h ****   /* hardcoded sample rate here to help performance 
  39:constants_utils.h ****       since SAMPLE_RATE_FLOAT is stored in QSPI */
  40:constants_utils.h ****   return (static_cast<float>(samples) * 1000.0f) / 48000.0f; 
  41:constants_utils.h **** }
  42:constants_utils.h **** 
  43:constants_utils.h **** extern uint32_t rng_state;
  44:constants_utils.h **** 
  45:constants_utils.h **** /* used once at startup to seed the rng */
  46:constants_utils.h **** inline void SeedRng(){
 1719              		.loc 10 46 13 view .LVU418
 1720              	.LBB337:
  47:constants_utils.h ****   rng_state = static_cast<uint32_t>(time(nullptr));
 1721              		.loc 10 47 3 view .LVU419
 1722              		.loc 10 47 41 is_stmt 0 view .LVU420
 1723 0042 0020     		movs	r0, #0
 1724 0044 FFF7FEFF 		bl	time
 1725              	.LVL98:
 1726              		.loc 10 47 13 view .LVU421
 1727 0048 084B     		ldr	r3, .L130+12
 1728 004a 1860     		str	r0, [r3]
 1729              	.LBE337:
 1730              	.LBE336:
  43:GrannyChordApp.cpp ****   pod_.StartAudio(AudioCallback);
 1731              		.loc 5 43 3 is_stmt 1 view .LVU422
  43:GrannyChordApp.cpp ****   pod_.StartAudio(AudioCallback);
 1732              		.loc 5 43 16 is_stmt 0 view .LVU423
 1733 004c 2068     		ldr	r0, [r4]
 1734 004e FFF7FEFF 		bl	_ZN5daisy8DaisyPod8StartAdcEv
 1735              	.LVL99:
  44:GrannyChordApp.cpp ****   // DebugPrint(pod_, "started audiocb");
 1736              		.loc 5 44 3 is_stmt 1 view .LVU424
  44:GrannyChordApp.cpp ****   // DebugPrint(pod_, "started audiocb");
 1737              		.loc 5 44 18 is_stmt 0 view .LVU425
 1738 0052 2068     		ldr	r0, [r4]
 1739 0054 0649     		ldr	r1, .L130+16
  46:GrannyChordApp.cpp **** 
 1740              		.loc 5 46 1 view .LVU426
ARM GAS  /var/folders/2p/02m_5p7958535cp2tpgps0400000gn/T//ccA8p2F3.s 			page 52


 1741 0056 BDE81040 		pop	{r4, lr}
 1742              		.cfi_restore 14
 1743              		.cfi_restore 4
 1744              		.cfi_def_cfa_offset 0
 1745              	.LVL100:
  44:GrannyChordApp.cpp ****   // DebugPrint(pod_, "started audiocb");
 1746              		.loc 5 44 18 view .LVU427
 1747 005a FFF7FEBF 		b	_ZN5daisy8DaisyPod10StartAudioEPFvPKPKfPPfjE
 1748              	.LVL101:
 1749              	.L131:
 1750 005e 00BF     		.align	2
 1751              	.L130:
 1752 0060 00000000 		.word	.LANCHOR2
 1753 0064 00000000 		.word	.LANCHOR1
 1754 0068 00000000 		.word	.LANCHOR0
 1755 006c 00000000 		.word	rng_state
 1756 0070 00000000 		.word	_ZN14GrannyChordApp13AudioCallbackEPKPKfPPfj
 1757              		.cfi_endproc
 1758              	.LFE4933:
 1760              		.section	.text._ZN14GrannyChordApp9AudioIdleEPPfj,"ax",%progbits
 1761              		.align	1
 1762              		.global	_ZN14GrannyChordApp9AudioIdleEPPfj
 1763              		.syntax unified
 1764              		.thumb
 1765              		.thumb_func
 1767              	_ZN14GrannyChordApp9AudioIdleEPPfj:
 1768              	.LVL102:
 1769              	.LFB4958:
 278:GrannyChordApp.cpp **** 
 279:GrannyChordApp.cpp **** /// @brief Master audio callback, called at audio rate, calls all audio processing methods
 280:GrannyChordApp.cpp **** /// @param in Audio input buffer
 281:GrannyChordApp.cpp **** /// @param out Audio output buffer
 282:GrannyChordApp.cpp **** /// @param size Number of samples to process in this call
 283:GrannyChordApp.cpp **** void GrannyChordApp::AudioCallback(AudioHandle::InputBuffer in, AudioHandle::OutputBuffer out, size
 284:GrannyChordApp.cpp ****   instance_->ProcessAudio(in,out,size);
 285:GrannyChordApp.cpp **** }
 286:GrannyChordApp.cpp **** 
 287:GrannyChordApp.cpp **** void GrannyChordApp::ProcessAudio(AudioHandle::InputBuffer in, AudioHandle::OutputBuffer out, size_
 288:GrannyChordApp.cpp ****   switch(curr_state_){
 289:GrannyChordApp.cpp ****     case AppState::PlayWAV: 
 290:GrannyChordApp.cpp ****       if (wav_playhead_>= filemgr_.GetSamplesPerChannel() -1){
 291:GrannyChordApp.cpp ****         AudioIdle(out,size);
 292:GrannyChordApp.cpp ****         break;
 293:GrannyChordApp.cpp ****       }
 294:GrannyChordApp.cpp ****       ProcessWAVPlayback(out,size);
 295:GrannyChordApp.cpp ****       break;  
 296:GrannyChordApp.cpp ****     case AppState::RecordIn:
 297:GrannyChordApp.cpp ****       ProcessRecordIn(in, out, size);
 298:GrannyChordApp.cpp ****       break;
 299:GrannyChordApp.cpp ****     case AppState::Synthesis:
 300:GrannyChordApp.cpp ****       ProcessSynthesis(out,size);
 301:GrannyChordApp.cpp ****       break;
 302:GrannyChordApp.cpp ****     // case AppState::ChordMode:
 303:GrannyChordApp.cpp ****     default:
 304:GrannyChordApp.cpp ****       AudioIdle(out,size);
 305:GrannyChordApp.cpp ****       break;
 306:GrannyChordApp.cpp ****   }
ARM GAS  /var/folders/2p/02m_5p7958535cp2tpgps0400000gn/T//ccA8p2F3.s 			page 53


 307:GrannyChordApp.cpp **** }
 308:GrannyChordApp.cpp **** 
 309:GrannyChordApp.cpp **** /// @brief Outputs silence if app is in non audio output state
 310:GrannyChordApp.cpp **** /// @param out Output audio buffer
 311:GrannyChordApp.cpp **** /// @param size Number of samples to process in this call (irrelevant)
 312:GrannyChordApp.cpp **** void GrannyChordApp::AudioIdle(AudioHandle::OutputBuffer out, size_t size){
 1770              		.loc 5 312 75 is_stmt 1 view -0
 1771              		.cfi_startproc
 1772              		@ args = 0, pretend = 0, frame = 0
 1773              		@ frame_needed = 0, uses_anonymous_args = 0
 313:GrannyChordApp.cpp ****   for (size_t i=0; i<size; i++){
 1774              		.loc 5 313 3 view .LVU429
 1775              	.LBB338:
 1776              		.loc 5 313 15 is_stmt 0 view .LVU430
 1777 0000 0023     		movs	r3, #0
 1778              	.LBE338:
 312:GrannyChordApp.cpp ****   for (size_t i=0; i<size; i++){
 1779              		.loc 5 312 75 view .LVU431
 1780 0002 10B5     		push	{r4, lr}
 1781              		.cfi_def_cfa_offset 8
 1782              		.cfi_offset 4, -8
 1783              		.cfi_offset 14, -4
 1784              	.LVL103:
 1785              	.L134:
 1786              	.LBB339:
 1787              		.loc 5 313 21 is_stmt 1 discriminator 3 view .LVU432
 1788 0004 9342     		cmp	r3, r2
 1789 0006 0AD0     		beq	.L132
 314:GrannyChordApp.cpp ****     out[0][i]=out[1][i]=0.0f;
 1790              		.loc 5 314 5 discriminator 2 view .LVU433
 1791              		.loc 5 314 24 is_stmt 0 discriminator 2 view .LVU434
 1792 0008 4868     		ldr	r0, [r1, #4]
 1793 000a 0024     		movs	r4, #0
 1794 000c 00EB8300 		add	r0, r0, r3, lsl #2
 1795 0010 0460     		str	r4, [r0]	@ float
 1796              		.loc 5 314 14 discriminator 2 view .LVU435
 1797 0012 0868     		ldr	r0, [r1]
 1798 0014 00EB8300 		add	r0, r0, r3, lsl #2
 313:GrannyChordApp.cpp ****   for (size_t i=0; i<size; i++){
 1799              		.loc 5 313 3 discriminator 2 view .LVU436
 1800 0018 0133     		adds	r3, r3, #1
 1801              	.LVL104:
 1802              		.loc 5 314 14 discriminator 2 view .LVU437
 1803 001a 0460     		str	r4, [r0]	@ float
 313:GrannyChordApp.cpp ****   for (size_t i=0; i<size; i++){
 1804              		.loc 5 313 3 is_stmt 1 discriminator 2 view .LVU438
 1805              	.LVL105:
 313:GrannyChordApp.cpp ****   for (size_t i=0; i<size; i++){
 1806              		.loc 5 313 3 is_stmt 0 discriminator 2 view .LVU439
 1807 001c F2E7     		b	.L134
 1808              	.L132:
 313:GrannyChordApp.cpp ****   for (size_t i=0; i<size; i++){
 1809              		.loc 5 313 3 discriminator 2 view .LVU440
 1810              	.LBE339:
 315:GrannyChordApp.cpp ****   }
 316:GrannyChordApp.cpp **** }
 1811              		.loc 5 316 1 view .LVU441
ARM GAS  /var/folders/2p/02m_5p7958535cp2tpgps0400000gn/T//ccA8p2F3.s 			page 54


 1812 001e 10BD     		pop	{r4, pc}
 1813              		.cfi_endproc
 1814              	.LFE4958:
 1816              		.section	.text._ZN14GrannyChordApp18ProcessWAVPlaybackEPPfj,"ax",%progbits
 1817              		.align	1
 1818              		.global	_ZN14GrannyChordApp18ProcessWAVPlaybackEPPfj
 1819              		.syntax unified
 1820              		.thumb
 1821              		.thumb_func
 1823              	_ZN14GrannyChordApp18ProcessWAVPlaybackEPPfj:
 1824              	.LVL106:
 1825              	.LFB4959:
 317:GrannyChordApp.cpp **** 
 318:GrannyChordApp.cpp **** /// @brief Process audio for WAV playback mode and increment playback position
 319:GrannyChordApp.cpp **** /// @param out Output audio buffer
 320:GrannyChordApp.cpp **** /// @param size Number of samples to process in this call
 321:GrannyChordApp.cpp **** void GrannyChordApp::ProcessWAVPlayback(AudioHandle::OutputBuffer out, size_t size){
 1826              		.loc 5 321 84 is_stmt 1 view -0
 1827              		.cfi_startproc
 1828              		@ args = 0, pretend = 0, frame = 0
 1829              		@ frame_needed = 0, uses_anonymous_args = 0
 322:GrannyChordApp.cpp ****   for (size_t i=0; i<size; i++){
 1830              		.loc 5 322 3 view .LVU443
 1831              	.LBB340:
 323:GrannyChordApp.cpp ****     // if (wav_playhead_ < audio_len_){
 324:GrannyChordApp.cpp ****     if (wav_playhead_ < filemgr_.GetSamplesPerChannel()){
 325:GrannyChordApp.cpp ****       out[0][i] = s162f(left_buf_[wav_playhead_]);
 1832              		.loc 5 325 48 is_stmt 0 view .LVU444
 1833 0000 1B48     		ldr	r0, .L145
 1834              	.LVL107:
 1835              	.LBB341:
 1836              	.LBB342:
  25:AudioFileManager.h ****     size_t GetTotalSamples() const { return header_.total_samples; }
 1837              		.loc 6 25 58 view .LVU445
 1838 0002 1C4B     		ldr	r3, .L145+4
 1839              	.LBE342:
 1840              	.LBE341:
 1841              	.LBE340:
 321:GrannyChordApp.cpp ****   for (size_t i=0; i<size; i++){
 1842              		.loc 5 321 84 view .LVU446
 1843 0004 2DE9F041 		push	{r4, r5, r6, r7, r8, lr}
 1844              		.cfi_def_cfa_offset 24
 1845              		.cfi_offset 4, -24
 1846              		.cfi_offset 5, -20
 1847              		.cfi_offset 6, -16
 1848              		.cfi_offset 7, -12
 1849              		.cfi_offset 8, -8
 1850              		.cfi_offset 14, -4
 1851 0008 1B4D     		ldr	r5, .L145+8
 1852              	.LBB363:
 326:GrannyChordApp.cpp ****       out[1][1] = s162f(right_buf_[wav_playhead_]);
 1853              		.loc 5 326 49 view .LVU447
 1854 000a 0024     		movs	r4, #0
 325:GrannyChordApp.cpp ****       out[1][1] = s162f(right_buf_[wav_playhead_]);
 1855              		.loc 5 325 48 view .LVU448
 1856 000c 0668     		ldr	r6, [r0]
 1857              		.loc 5 326 49 view .LVU449
ARM GAS  /var/folders/2p/02m_5p7958535cp2tpgps0400000gn/T//ccA8p2F3.s 			page 55


 1858 000e 1B48     		ldr	r0, .L145+12
 1859              	.LBB345:
 1860              	.LBB343:
  25:AudioFileManager.h ****     size_t GetTotalSamples() const { return header_.total_samples; }
 1861              		.loc 6 25 58 view .LVU450
 1862 0010 D3F80CC0 		ldr	ip, [r3, #12]
  25:AudioFileManager.h ****     size_t GetTotalSamples() const { return header_.total_samples; }
 1863              		.loc 6 25 82 view .LVU451
 1864 0014 B3F908E0 		ldrsh	lr, [r3, #8]
 1865              	.LBE343:
 1866              	.LBE345:
 1867              		.loc 5 326 49 view .LVU452
 1868 0018 0768     		ldr	r7, [r0]
 322:GrannyChordApp.cpp ****     // if (wav_playhead_ < audio_len_){
 1869              		.loc 5 322 15 view .LVU453
 1870 001a 2046     		mov	r0, r4
 1871 001c 2B69     		ldr	r3, [r5, #16]
 1872              	.LVL108:
 1873              	.L139:
 322:GrannyChordApp.cpp ****     // if (wav_playhead_ < audio_len_){
 1874              		.loc 5 322 21 is_stmt 1 discriminator 1 view .LVU454
 1875 001e 9042     		cmp	r0, r2
 1876 0020 21D0     		beq	.L137
 324:GrannyChordApp.cpp ****       out[0][i] = s162f(left_buf_[wav_playhead_]);
 1877              		.loc 5 324 5 view .LVU455
 1878              	.LVL109:
 1879              	.LBB346:
 1880              	.LBI341:
  25:AudioFileManager.h ****     size_t GetTotalSamples() const { return header_.total_samples; }
 1881              		.loc 6 25 12 view .LVU456
 1882              	.LBB344:
  25:AudioFileManager.h ****     size_t GetTotalSamples() const { return header_.total_samples; }
 1883              		.loc 6 25 43 view .LVU457
  25:AudioFileManager.h ****     size_t GetTotalSamples() const { return header_.total_samples; }
 1884              		.loc 6 25 82 is_stmt 0 view .LVU458
 1885 0022 BCFBFEF8 		udiv	r8, ip, lr
 1886              	.LBE344:
 1887              	.LBE346:
 324:GrannyChordApp.cpp ****       out[0][i] = s162f(left_buf_[wav_playhead_]);
 1888              		.loc 5 324 5 view .LVU459
 1889 0026 9845     		cmp	r8, r3
 1890 0028 1BD9     		bls	.L138
 325:GrannyChordApp.cpp ****       out[1][1] = s162f(right_buf_[wav_playhead_]);
 1891              		.loc 5 325 7 is_stmt 1 view .LVU460
 1892              	.LVL110:
 1893              	.LBB347:
 1894              	.LBI347:
 1895              		.file 11 "../libDaisy/src/daisy_core.h"
   1:../libDaisy/src/daisy_core.h **** #pragma once
   2:../libDaisy/src/daisy_core.h **** #ifndef DSY_CORE_HW_H
   3:../libDaisy/src/daisy_core.h **** #define DSY_CORE_HW_H /**< & */
   4:../libDaisy/src/daisy_core.h **** #include <stdint.h>
   5:../libDaisy/src/daisy_core.h **** #include <stdlib.h>
   6:../libDaisy/src/daisy_core.h **** 
   7:../libDaisy/src/daisy_core.h **** #if defined(_MSC_VER)
   8:../libDaisy/src/daisy_core.h **** #define FORCE_INLINE __forceinline /**< & */
   9:../libDaisy/src/daisy_core.h **** #elif defined(__clang__)
ARM GAS  /var/folders/2p/02m_5p7958535cp2tpgps0400000gn/T//ccA8p2F3.s 			page 56


  10:../libDaisy/src/daisy_core.h **** #define FORCE_INLINE inline __attribute__((always_inline)) /**< & */
  11:../libDaisy/src/daisy_core.h **** #pragma clang diagnostic ignored "-Wduplicate-decl-specifier"
  12:../libDaisy/src/daisy_core.h **** #elif defined(__GNUC__)
  13:../libDaisy/src/daisy_core.h **** #define FORCE_INLINE inline __attribute__((always_inline)) /**< & */
  14:../libDaisy/src/daisy_core.h **** #else
  15:../libDaisy/src/daisy_core.h **** #error unknown compiler
  16:../libDaisy/src/daisy_core.h **** #endif
  17:../libDaisy/src/daisy_core.h **** 
  18:../libDaisy/src/daisy_core.h **** /** @addtogroup utility
  19:../libDaisy/src/daisy_core.h ****     @{
  20:../libDaisy/src/daisy_core.h **** */
  21:../libDaisy/src/daisy_core.h **** 
  22:../libDaisy/src/daisy_core.h **** /** Macro for area of memory that is configured as cacheless
  23:../libDaisy/src/daisy_core.h **** This should be used primarily for DMA buffers, and the like.
  24:../libDaisy/src/daisy_core.h **** */
  25:../libDaisy/src/daisy_core.h **** #define DMA_BUFFER_MEM_SECTION __attribute__((section(".sram1_bss")))
  26:../libDaisy/src/daisy_core.h **** /** 
  27:../libDaisy/src/daisy_core.h **** THE DTCM RAM section is also non-cached. However, is not suitable 
  28:../libDaisy/src/daisy_core.h **** for DMA transfers. Performance is on par with internal SRAM w/ 
  29:../libDaisy/src/daisy_core.h **** cache enabled.
  30:../libDaisy/src/daisy_core.h **** */
  31:../libDaisy/src/daisy_core.h **** #define DTCM_MEM_SECTION __attribute__((section(".dtcmram_bss")))
  32:../libDaisy/src/daisy_core.h **** 
  33:../libDaisy/src/daisy_core.h **** #define FBIPMAX 0.999985f             /**< close to 1.0f-LSB at 16 bit */
  34:../libDaisy/src/daisy_core.h **** #define FBIPMIN (-FBIPMAX)            /**< - (1 - LSB) */
  35:../libDaisy/src/daisy_core.h **** #define U82F_SCALE 0.0078740f         /**< 1 / 127 */
  36:../libDaisy/src/daisy_core.h **** #define F2U8_SCALE 127.0f             /**< 128 - 1 */
  37:../libDaisy/src/daisy_core.h **** #define S82F_SCALE 0.0078125f         /**< 1 / (2**7) */
  38:../libDaisy/src/daisy_core.h **** #define F2S8_SCALE 127.0f             /**< (2 ** 7) - 1 */
  39:../libDaisy/src/daisy_core.h **** #define S162F_SCALE 3.0517578125e-05f /**< 1 / (2** 15) */
  40:../libDaisy/src/daisy_core.h **** #define F2S16_SCALE 32767.0f          /**< (2 ** 15) - 1 */
  41:../libDaisy/src/daisy_core.h **** #define F2S24_SCALE 8388608.0f        /**< 2 ** 23 */
  42:../libDaisy/src/daisy_core.h **** #define S242F_SCALE 1.192092896e-07f  /**< 1 / (2 ** 23) */
  43:../libDaisy/src/daisy_core.h **** #define S24SIGN 0x800000              /**< 2 ** 23 */
  44:../libDaisy/src/daisy_core.h **** #define S322F_SCALE 4.6566129e-10f    /**< 1 / (2** 31) */
  45:../libDaisy/src/daisy_core.h **** #define F2S32_SCALE 2147483647.f      /**< (2 ** 31) - 1 */
  46:../libDaisy/src/daisy_core.h **** 
  47:../libDaisy/src/daisy_core.h **** 
  48:../libDaisy/src/daisy_core.h **** /** shorthand macro for simplifying the reading of the left 
  49:../libDaisy/src/daisy_core.h ****  *  channel of a non-interleaved output buffer named out */
  50:../libDaisy/src/daisy_core.h **** #define OUT_L out[0]
  51:../libDaisy/src/daisy_core.h **** 
  52:../libDaisy/src/daisy_core.h **** /** shorthand macro for simplifying the reading of the right 
  53:../libDaisy/src/daisy_core.h ****  *  channel of a non-interleaved output buffer named out */
  54:../libDaisy/src/daisy_core.h **** #define OUT_R out[1]
  55:../libDaisy/src/daisy_core.h **** 
  56:../libDaisy/src/daisy_core.h **** /** shorthand macro for simplifying the reading of the left 
  57:../libDaisy/src/daisy_core.h ****  *  channel of a non-interleaved input buffer named in */
  58:../libDaisy/src/daisy_core.h **** #define IN_L in[0]
  59:../libDaisy/src/daisy_core.h **** 
  60:../libDaisy/src/daisy_core.h **** /** shorthand macro for simplifying the reading of the right 
  61:../libDaisy/src/daisy_core.h ****  *  channel of a non-interleaved input buffer named in */
  62:../libDaisy/src/daisy_core.h **** #define IN_R in[1]
  63:../libDaisy/src/daisy_core.h **** 
  64:../libDaisy/src/daisy_core.h **** /** 
  65:../libDaisy/src/daisy_core.h ****     Computes cube.
  66:../libDaisy/src/daisy_core.h ****     \param x Number to be cubed
ARM GAS  /var/folders/2p/02m_5p7958535cp2tpgps0400000gn/T//ccA8p2F3.s 			page 57


  67:../libDaisy/src/daisy_core.h ****     \return x ^ 3
  68:../libDaisy/src/daisy_core.h **** */
  69:../libDaisy/src/daisy_core.h **** FORCE_INLINE float cube(float x)
  70:../libDaisy/src/daisy_core.h **** {
  71:../libDaisy/src/daisy_core.h ****     return (x * x) * x;
  72:../libDaisy/src/daisy_core.h **** }
  73:../libDaisy/src/daisy_core.h **** 
  74:../libDaisy/src/daisy_core.h **** /** 
  75:../libDaisy/src/daisy_core.h ****     Converts unsigned 8-bit to float
  76:../libDaisy/src/daisy_core.h ****     \param x Number to be scaled.
  77:../libDaisy/src/daisy_core.h ****     \return Scaled number.
  78:../libDaisy/src/daisy_core.h **** */
  79:../libDaisy/src/daisy_core.h **** FORCE_INLINE float u82f(uint8_t x)
  80:../libDaisy/src/daisy_core.h **** {
  81:../libDaisy/src/daisy_core.h ****     return ((float)x - 127.f) * U82F_SCALE;
  82:../libDaisy/src/daisy_core.h **** }
  83:../libDaisy/src/daisy_core.h **** 
  84:../libDaisy/src/daisy_core.h **** /**
  85:../libDaisy/src/daisy_core.h ****     Converts float to unsigned 8-bit
  86:../libDaisy/src/daisy_core.h **** */
  87:../libDaisy/src/daisy_core.h **** FORCE_INLINE uint8_t f2u8(float x)
  88:../libDaisy/src/daisy_core.h **** {
  89:../libDaisy/src/daisy_core.h ****     x = x <= FBIPMIN ? FBIPMIN : x;
  90:../libDaisy/src/daisy_core.h ****     x = x >= FBIPMAX ? FBIPMAX : x;
  91:../libDaisy/src/daisy_core.h ****     return (uint8_t)((x * F2U8_SCALE) + F2U8_SCALE);
  92:../libDaisy/src/daisy_core.h **** }
  93:../libDaisy/src/daisy_core.h **** 
  94:../libDaisy/src/daisy_core.h **** 
  95:../libDaisy/src/daisy_core.h **** /** 
  96:../libDaisy/src/daisy_core.h ****     Converts Signed 8-bit to float
  97:../libDaisy/src/daisy_core.h ****     \param x Number to be scaled.
  98:../libDaisy/src/daisy_core.h ****     \return Scaled number.
  99:../libDaisy/src/daisy_core.h **** */
 100:../libDaisy/src/daisy_core.h **** FORCE_INLINE float s82f(int8_t x)
 101:../libDaisy/src/daisy_core.h **** {
 102:../libDaisy/src/daisy_core.h ****     return (float)x * S82F_SCALE;
 103:../libDaisy/src/daisy_core.h **** }
 104:../libDaisy/src/daisy_core.h **** 
 105:../libDaisy/src/daisy_core.h **** /**
 106:../libDaisy/src/daisy_core.h ****     Converts float to Signed 8-bit
 107:../libDaisy/src/daisy_core.h **** */
 108:../libDaisy/src/daisy_core.h **** FORCE_INLINE int8_t f2s8(float x)
 109:../libDaisy/src/daisy_core.h **** {
 110:../libDaisy/src/daisy_core.h ****     x = x <= FBIPMIN ? FBIPMIN : x;
 111:../libDaisy/src/daisy_core.h ****     x = x >= FBIPMAX ? FBIPMAX : x;
 112:../libDaisy/src/daisy_core.h ****     return (int32_t)(x * F2S8_SCALE);
 113:../libDaisy/src/daisy_core.h **** }
 114:../libDaisy/src/daisy_core.h **** 
 115:../libDaisy/src/daisy_core.h **** /** 
 116:../libDaisy/src/daisy_core.h ****     Converts Signed 16-bit to float
 117:../libDaisy/src/daisy_core.h ****     \param x Number to be scaled.
 118:../libDaisy/src/daisy_core.h ****     \return Scaled number.
 119:../libDaisy/src/daisy_core.h **** */
 120:../libDaisy/src/daisy_core.h **** FORCE_INLINE float s162f(int16_t x)
 1896              		.loc 11 120 20 view .LVU461
 1897              	.LBB348:
 121:../libDaisy/src/daisy_core.h **** {
ARM GAS  /var/folders/2p/02m_5p7958535cp2tpgps0400000gn/T//ccA8p2F3.s 			page 58


 122:../libDaisy/src/daisy_core.h ****     return (float)x * S162F_SCALE;
 1898              		.loc 11 122 5 view .LVU462
 1899              		.loc 11 122 12 is_stmt 0 view .LVU463
 1900 002a 36F91380 		ldrsh	r8, [r6, r3, lsl #1]
 1901              		.loc 11 122 23 view .LVU464
 1902 002e DFED146A 		vldr.32	s13, .L145+16
 1903              		.loc 11 122 12 view .LVU465
 1904 0032 07EE108A 		vmov	s14, r8	@ int
 1905              	.LBE348:
 1906              	.LBE347:
 1907              	.LBB351:
 1908              	.LBB352:
 1909 0036 37F91380 		ldrsh	r8, [r7, r3, lsl #1]
 1910              	.LBE352:
 1911              	.LBE351:
 325:GrannyChordApp.cpp ****       out[1][1] = s162f(right_buf_[wav_playhead_]);
 1912              		.loc 5 325 17 view .LVU466
 1913 003a 0C68     		ldr	r4, [r1]
 327:GrannyChordApp.cpp ****       wav_playhead_++;
 1914              		.loc 5 327 20 view .LVU467
 1915 003c 0133     		adds	r3, r3, #1
 1916              	.LBB357:
 1917              	.LBB349:
 1918              		.loc 11 122 12 view .LVU468
 1919 003e B8EEC77A 		vcvt.f32.s32	s14, s14
 1920              	.LBE349:
 1921              	.LBE357:
 1922              	.LBB358:
 1923              	.LBB353:
 1924 0042 07EE908A 		vmov	s15, r8	@ int
 1925              	.LBE353:
 1926              	.LBE358:
 325:GrannyChordApp.cpp ****       out[1][1] = s162f(right_buf_[wav_playhead_]);
 1927              		.loc 5 325 17 view .LVU469
 1928 0046 04EB8004 		add	r4, r4, r0, lsl #2
 1929              	.LBB359:
 1930              	.LBB354:
 1931              		.loc 11 122 12 view .LVU470
 1932 004a F8EEE77A 		vcvt.f32.s32	s15, s15
 1933              	.LBE354:
 1934              	.LBE359:
 1935              	.LBB360:
 1936              	.LBB350:
 1937              		.loc 11 122 23 view .LVU471
 1938 004e 27EE267A 		vmul.f32	s14, s14, s13
 1939              	.LBE350:
 1940              	.LBE360:
 1941              	.LBB361:
 1942              	.LBB355:
 1943 0052 67EEA67A 		vmul.f32	s15, s15, s13
 1944              	.LBE355:
 1945              	.LBE361:
 325:GrannyChordApp.cpp ****       out[1][1] = s162f(right_buf_[wav_playhead_]);
 1946              		.loc 5 325 17 view .LVU472
 1947 0056 84ED007A 		vstr.32	s14, [r4]
 326:GrannyChordApp.cpp ****       wav_playhead_++;
 1948              		.loc 5 326 7 is_stmt 1 view .LVU473
ARM GAS  /var/folders/2p/02m_5p7958535cp2tpgps0400000gn/T//ccA8p2F3.s 			page 59


 1949              	.LBB362:
 1950              	.LBI351:
 120:../libDaisy/src/daisy_core.h **** {
 1951              		.loc 11 120 20 view .LVU474
 1952              	.LBB356:
 1953              		.loc 11 122 5 view .LVU475
 1954              	.LBE356:
 1955              	.LBE362:
 326:GrannyChordApp.cpp ****       wav_playhead_++;
 1956              		.loc 5 326 17 is_stmt 0 view .LVU476
 1957 005a 4C68     		ldr	r4, [r1, #4]
 1958 005c C4ED017A 		vstr.32	s15, [r4, #4]
 1959              		.loc 5 327 7 is_stmt 1 view .LVU477
 1960 0060 0124     		movs	r4, #1
 1961              	.L138:
 322:GrannyChordApp.cpp ****     // if (wav_playhead_ < audio_len_){
 1962              		.loc 5 322 3 discriminator 2 view .LVU478
 1963 0062 0130     		adds	r0, r0, #1
 1964              	.LVL111:
 322:GrannyChordApp.cpp ****     // if (wav_playhead_ < audio_len_){
 1965              		.loc 5 322 3 is_stmt 0 discriminator 2 view .LVU479
 1966 0064 DBE7     		b	.L139
 1967              	.L137:
 322:GrannyChordApp.cpp ****     // if (wav_playhead_ < audio_len_){
 1968              		.loc 5 322 3 discriminator 2 view .LVU480
 1969 0066 04B1     		cbz	r4, .L136
 1970 0068 2B61     		str	r3, [r5, #16]
 1971              	.L136:
 1972              	.LBE363:
 328:GrannyChordApp.cpp ****     }
 329:GrannyChordApp.cpp ****   }
 330:GrannyChordApp.cpp **** }
 1973              		.loc 5 330 1 view .LVU481
 1974 006a BDE8F081 		pop	{r4, r5, r6, r7, r8, pc}
 1975              	.L146:
 1976 006e 00BF     		.align	2
 1977              	.L145:
 1978 0070 00000000 		.word	.LANCHOR2
 1979 0074 00000000 		.word	_ZN16AudioFileManager7header_E
 1980 0078 00000000 		.word	.LANCHOR0
 1981 007c 00000000 		.word	.LANCHOR1
 1982 0080 00000038 		.word	939524096
 1983              		.cfi_endproc
 1984              	.LFE4959:
 1986              		.section	.text._ZN14GrannyChordApp15ProcessRecordInEPKPKfPPfj,"ax",%progbits
 1987              		.align	1
 1988              		.global	_ZN14GrannyChordApp15ProcessRecordInEPKPKfPPfj
 1989              		.syntax unified
 1990              		.thumb
 1991              		.thumb_func
 1993              	_ZN14GrannyChordApp15ProcessRecordInEPKPKfPPfj:
 1994              	.LVL112:
 1995              	.LFB4960:
 331:GrannyChordApp.cpp **** 
 332:GrannyChordApp.cpp **** /// @brief Process input audio when app is in RecordIn state
 333:GrannyChordApp.cpp **** /// @param in Input audio buffer
 334:GrannyChordApp.cpp **** /// @param out Output audio buffer
ARM GAS  /var/folders/2p/02m_5p7958535cp2tpgps0400000gn/T//ccA8p2F3.s 			page 60


 335:GrannyChordApp.cpp **** /// @param size Number of samples to process in this call
 336:GrannyChordApp.cpp **** void GrannyChordApp::ProcessRecordIn(AudioHandle::InputBuffer in, AudioHandle::OutputBuffer out, si
 1996              		.loc 5 336 110 is_stmt 1 view -0
 1997              		.cfi_startproc
 1998              		@ args = 0, pretend = 0, frame = 0
 1999              		@ frame_needed = 0, uses_anonymous_args = 0
 337:GrannyChordApp.cpp ****   static const size_t MAX_RECORDING_LEN = 60*48000; // 60s @ 48kHZ
 2000              		.loc 5 337 3 view .LVU483
 338:GrannyChordApp.cpp ****   static size_t record_pos = 0;
 2001              		.loc 5 338 3 view .LVU484
 339:GrannyChordApp.cpp ****   for (size_t i=0; i<size;i++){
 2002              		.loc 5 339 3 view .LVU485
 336:GrannyChordApp.cpp ****   static const size_t MAX_RECORDING_LEN = 60*48000; // 60s @ 48kHZ
 2003              		.loc 5 336 110 is_stmt 0 view .LVU486
 2004 0000 2DE9F041 		push	{r4, r5, r6, r7, r8, lr}
 2005              		.cfi_def_cfa_offset 24
 2006              		.cfi_offset 4, -24
 2007              		.cfi_offset 5, -20
 2008              		.cfi_offset 6, -16
 2009              		.cfi_offset 7, -12
 2010              		.cfi_offset 8, -8
 2011              		.cfi_offset 14, -4
 2012              	.LBB364:
 340:GrannyChordApp.cpp ****     /* send audio in straight to output for monitoring */
 341:GrannyChordApp.cpp ****     out[0][i]=in[0][i];
 342:GrannyChordApp.cpp ****     out[1][i]=in[1][i];
 343:GrannyChordApp.cpp **** 
 344:GrannyChordApp.cpp ****     /* record audio in to SDRAM buffers */
 345:GrannyChordApp.cpp ****     left_buf_[record_pos] = in[0][i];
 2013              		.loc 5 345 25 view .LVU487
 2014 0004 1D48     		ldr	r0, .L155
 2015              	.LVL113:
 346:GrannyChordApp.cpp ****     right_buf_[record_pos] = in[1][i];
 2016              		.loc 5 346 26 view .LVU488
 2017 0006 0025     		movs	r5, #0
 2018 0008 1D4C     		ldr	r4, .L155+4
 2019 000a 1E4F     		ldr	r7, .L155+8
 345:GrannyChordApp.cpp ****     right_buf_[record_pos] = in[1][i];
 2020              		.loc 5 345 25 view .LVU489
 2021 000c D0F800E0 		ldr	lr, [r0]
 2022              		.loc 5 346 26 view .LVU490
 2023 0010 D4F800C0 		ldr	ip, [r4]
 339:GrannyChordApp.cpp ****     /* send audio in straight to output for monitoring */
 2024              		.loc 5 339 15 view .LVU491
 2025 0014 2C46     		mov	r4, r5
 2026 0016 3868     		ldr	r0, [r7]
 2027              	.LVL114:
 2028              	.L149:
 339:GrannyChordApp.cpp ****     /* send audio in straight to output for monitoring */
 2029              		.loc 5 339 21 is_stmt 1 discriminator 3 view .LVU492
 2030 0018 9C42     		cmp	r4, r3
 2031 001a 2AD0     		beq	.L148
 341:GrannyChordApp.cpp ****     out[1][i]=in[1][i];
 2032              		.loc 5 341 5 discriminator 2 view .LVU493
 341:GrannyChordApp.cpp ****     out[1][i]=in[1][i];
 2033              		.loc 5 341 22 is_stmt 0 discriminator 2 view .LVU494
 2034 001c 0D68     		ldr	r5, [r1]
ARM GAS  /var/folders/2p/02m_5p7958535cp2tpgps0400000gn/T//ccA8p2F3.s 			page 61


 341:GrannyChordApp.cpp ****     out[1][i]=in[1][i];
 2035              		.loc 5 341 14 discriminator 2 view .LVU495
 2036 001e 1668     		ldr	r6, [r2]
 341:GrannyChordApp.cpp ****     out[1][i]=in[1][i];
 2037              		.loc 5 341 22 discriminator 2 view .LVU496
 2038 0020 05EB8405 		add	r5, r5, r4, lsl #2
 341:GrannyChordApp.cpp ****     out[1][i]=in[1][i];
 2039              		.loc 5 341 14 discriminator 2 view .LVU497
 2040 0024 06EB8406 		add	r6, r6, r4, lsl #2
 341:GrannyChordApp.cpp ****     out[1][i]=in[1][i];
 2041              		.loc 5 341 22 discriminator 2 view .LVU498
 2042 0028 D5F80080 		ldr	r8, [r5]	@ float
 341:GrannyChordApp.cpp ****     out[1][i]=in[1][i];
 2043              		.loc 5 341 14 discriminator 2 view .LVU499
 2044 002c C6F80080 		str	r8, [r6]	@ float
 342:GrannyChordApp.cpp **** 
 2045              		.loc 5 342 5 is_stmt 1 discriminator 2 view .LVU500
 342:GrannyChordApp.cpp **** 
 2046              		.loc 5 342 22 is_stmt 0 discriminator 2 view .LVU501
 2047 0030 4E68     		ldr	r6, [r1, #4]
 2048 0032 06EB8406 		add	r6, r6, r4, lsl #2
 2049 0036 D6ED007A 		vldr.32	s15, [r6]
 342:GrannyChordApp.cpp **** 
 2050              		.loc 5 342 14 discriminator 2 view .LVU502
 2051 003a 5668     		ldr	r6, [r2, #4]
 2052 003c 06EB8406 		add	r6, r6, r4, lsl #2
 339:GrannyChordApp.cpp ****     /* send audio in straight to output for monitoring */
 2053              		.loc 5 339 3 discriminator 2 view .LVU503
 2054 0040 0134     		adds	r4, r4, #1
 2055              	.LVL115:
 342:GrannyChordApp.cpp **** 
 2056              		.loc 5 342 14 discriminator 2 view .LVU504
 2057 0042 C6ED007A 		vstr.32	s15, [r6]
 345:GrannyChordApp.cpp ****     right_buf_[record_pos] = in[1][i];
 2058              		.loc 5 345 5 is_stmt 1 discriminator 2 view .LVU505
 2059              		.loc 5 346 28 is_stmt 0 discriminator 2 view .LVU506
 2060 0046 FDEEE77A 		vcvt.s32.f32	s15, s15
 345:GrannyChordApp.cpp ****     right_buf_[record_pos] = in[1][i];
 2061              		.loc 5 345 27 discriminator 2 view .LVU507
 2062 004a 95ED007A 		vldr.32	s14, [r5]
 2063 004e BDEEC77A 		vcvt.s32.f32	s14, s14
 2064 0052 17EE105A 		vmov	r5, s14	@ int
 2065 0056 2EF81050 		strh	r5, [lr, r0, lsl #1]	@ movhi
 2066              		.loc 5 346 5 is_stmt 1 discriminator 2 view .LVU508
 2067              		.loc 5 346 28 is_stmt 0 discriminator 2 view .LVU509
 2068 005a 17EE905A 		vmov	r5, s15	@ int
 2069 005e 2CF81050 		strh	r5, [ip, r0, lsl #1]	@ movhi
 347:GrannyChordApp.cpp **** 
 348:GrannyChordApp.cpp ****     /* wrap around recording length - if it exceeds 60s,
 349:GrannyChordApp.cpp ****       the start of the recording will be overwritten */
 350:GrannyChordApp.cpp ****     record_pos = (record_pos+1)%MAX_RECORDING_LEN;
 2070              		.loc 5 350 5 is_stmt 1 discriminator 2 view .LVU510
 2071              		.loc 5 350 29 is_stmt 0 discriminator 2 view .LVU511
 2072 0062 0130     		adds	r0, r0, #1
 2073              		.loc 5 350 32 discriminator 2 view .LVU512
 2074 0064 084D     		ldr	r5, .L155+12
 2075 0066 B0FBF5F6 		udiv	r6, r0, r5
ARM GAS  /var/folders/2p/02m_5p7958535cp2tpgps0400000gn/T//ccA8p2F3.s 			page 62


 2076 006a 05FB1600 		mls	r0, r5, r6, r0
 339:GrannyChordApp.cpp ****     /* send audio in straight to output for monitoring */
 2077              		.loc 5 339 3 is_stmt 1 discriminator 2 view .LVU513
 2078              	.LVL116:
 339:GrannyChordApp.cpp ****     /* send audio in straight to output for monitoring */
 2079              		.loc 5 339 3 is_stmt 0 discriminator 2 view .LVU514
 2080 006e 0125     		movs	r5, #1
 2081 0070 D2E7     		b	.L149
 2082              	.L148:
 339:GrannyChordApp.cpp ****     /* send audio in straight to output for monitoring */
 2083              		.loc 5 339 3 discriminator 2 view .LVU515
 2084 0072 05B1     		cbz	r5, .L147
 2085 0074 3860     		str	r0, [r7]
 2086              	.L147:
 2087              	.LBE364:
 351:GrannyChordApp.cpp **** 
 352:GrannyChordApp.cpp ****   }
 353:GrannyChordApp.cpp **** }
 2088              		.loc 5 353 1 view .LVU516
 2089 0076 BDE8F081 		pop	{r4, r5, r6, r7, r8, pc}
 2090              	.LVL117:
 2091              	.L156:
 2092              		.loc 5 353 1 view .LVU517
 2093 007a 00BF     		.align	2
 2094              	.L155:
 2095 007c 00000000 		.word	.LANCHOR2
 2096 0080 00000000 		.word	.LANCHOR1
 2097 0084 00000000 		.word	.LANCHOR3
 2098 0088 00F22B00 		.word	2880000
 2099              		.cfi_endproc
 2100              	.LFE4960:
 2102              		.section	.text._ZN14GrannyChordApp16ProcessSynthesisEPPfj,"ax",%progbits
 2103              		.align	1
 2104              		.global	_ZN14GrannyChordApp16ProcessSynthesisEPPfj
 2105              		.syntax unified
 2106              		.thumb
 2107              		.thumb_func
 2109              	_ZN14GrannyChordApp16ProcessSynthesisEPPfj:
 2110              	.LVL118:
 2111              	.LFB4961:
 354:GrannyChordApp.cpp **** 
 355:GrannyChordApp.cpp **** /// @brief Process audio through granular synth and mix to output buffer
 356:GrannyChordApp.cpp **** /// @param out Output audio buffer
 357:GrannyChordApp.cpp **** /// @param size Number of samples to process in this call
 358:GrannyChordApp.cpp **** void GrannyChordApp::ProcessSynthesis(AudioHandle::OutputBuffer out, size_t size){
 2112              		.loc 5 358 82 is_stmt 1 view -0
 2113              		.cfi_startproc
 2114              		@ args = 0, pretend = 0, frame = 0
 2115              		@ frame_needed = 0, uses_anonymous_args = 0
 2116              		.loc 5 358 82 is_stmt 0 view .LVU519
 2117 0000 37B5     		push	{r0, r1, r2, r4, r5, lr}
 2118              		.cfi_def_cfa_offset 24
 2119              		.cfi_offset 4, -12
 2120              		.cfi_offset 5, -8
 2121              		.cfi_offset 14, -4
 2122              		.loc 5 358 82 view .LVU520
 2123 0002 0C46     		mov	r4, r1
ARM GAS  /var/folders/2p/02m_5p7958535cp2tpgps0400000gn/T//ccA8p2F3.s 			page 63


 2124 0004 1546     		mov	r5, r2
 359:GrannyChordApp.cpp ****   // for (size_t i=0; i<size; i++){ // NOTE: is this correct? do i need to loop? don't think so
 360:GrannyChordApp.cpp ****     synth_.ProcessGrains(out[0],out[1],size); 
 2125              		.loc 5 360 5 is_stmt 1 view .LVU521
 2126              		.loc 5 360 25 is_stmt 0 view .LVU522
 2127 0006 1346     		mov	r3, r2
 2128 0008 0430     		adds	r0, r0, #4
 2129              	.LVL119:
 2130              		.loc 5 360 25 view .LVU523
 2131 000a D1E90012 		ldrd	r1, r2, [r1]
 2132              	.LVL120:
 2133              		.loc 5 360 25 view .LVU524
 2134 000e FFF7FEFF 		bl	_ZN13GranularSynth13ProcessGrainsEPfS0_j
 2135              	.LVL121:
 361:GrannyChordApp.cpp ****     comp_.ProcessBlock(out[0],out[0],size);
 2136              		.loc 5 361 5 is_stmt 1 view .LVU525
 2137              	.LBB369:
 2138              	.LBI369:
  39:DaisySP-LGPL-FX/compressor.h ****     /** Initializes compressor
  40:DaisySP-LGPL-FX/compressor.h ****         \param sample_rate rate at which samples will be produced by the audio engine.
  41:DaisySP-LGPL-FX/compressor.h ****     */
  42:DaisySP-LGPL-FX/compressor.h ****     void Init(float sample_rate);
  43:DaisySP-LGPL-FX/compressor.h **** 
  44:DaisySP-LGPL-FX/compressor.h ****     /** Compress the audio input signal, saves the calculated gain
  45:DaisySP-LGPL-FX/compressor.h ****         \param in audio input signal
  46:DaisySP-LGPL-FX/compressor.h ****     */
  47:DaisySP-LGPL-FX/compressor.h ****     float Process(float in);
  48:DaisySP-LGPL-FX/compressor.h **** 
  49:DaisySP-LGPL-FX/compressor.h ****     /** Compresses the audio input signal, keyed by a secondary input.
  50:DaisySP-LGPL-FX/compressor.h ****         \param in audio input signal (to be compressed)
  51:DaisySP-LGPL-FX/compressor.h ****         \param key audio input that will be used to side-chain the compressor
  52:DaisySP-LGPL-FX/compressor.h ****     */
  53:DaisySP-LGPL-FX/compressor.h ****     float Process(float in, float key)
  54:DaisySP-LGPL-FX/compressor.h ****     {
  55:DaisySP-LGPL-FX/compressor.h ****         Process(key);
  56:DaisySP-LGPL-FX/compressor.h ****         return Apply(in);
  57:DaisySP-LGPL-FX/compressor.h ****     }
  58:DaisySP-LGPL-FX/compressor.h **** 
  59:DaisySP-LGPL-FX/compressor.h ****     /** Apply compression to the audio signal, based on the previously calculated gain
  60:DaisySP-LGPL-FX/compressor.h ****         \param in audio input signal
  61:DaisySP-LGPL-FX/compressor.h ****     */
  62:DaisySP-LGPL-FX/compressor.h ****     float Apply(float in) { return gain_ * in; }
  63:DaisySP-LGPL-FX/compressor.h **** 
  64:DaisySP-LGPL-FX/compressor.h ****     /** Compresses a block of audio
  65:DaisySP-LGPL-FX/compressor.h ****         \param in audio input signal
  66:DaisySP-LGPL-FX/compressor.h ****         \param out audio output signal
  67:DaisySP-LGPL-FX/compressor.h ****         \param size the size of the block
  68:DaisySP-LGPL-FX/compressor.h ****     */
  69:DaisySP-LGPL-FX/compressor.h ****     void ProcessBlock(float *in, float *out, size_t size)
 2139              		.loc 2 69 10 view .LVU526
 2140              	.LBB370:
  70:DaisySP-LGPL-FX/compressor.h ****     {
  71:DaisySP-LGPL-FX/compressor.h ****         ProcessBlock(in, out, in, size);
 2141              		.loc 2 71 9 view .LVU527
 2142              		.loc 2 71 21 is_stmt 0 view .LVU528
 2143 0012 2368     		ldr	r3, [r4]
 2144 0014 0748     		ldr	r0, .L158
ARM GAS  /var/folders/2p/02m_5p7958535cp2tpgps0400000gn/T//ccA8p2F3.s 			page 64


 2145 0016 1A46     		mov	r2, r3
 2146 0018 1946     		mov	r1, r3
 2147 001a 0095     		str	r5, [sp]
 2148              	.LVL122:
 2149              		.loc 2 71 21 view .LVU529
 2150 001c FFF7FEFF 		bl	_ZN7daisysp10Compressor12ProcessBlockEPfS1_S1_j
 2151              	.LVL123:
 2152              		.loc 2 71 21 view .LVU530
 2153              	.LBE370:
 2154              	.LBE369:
 362:GrannyChordApp.cpp ****     comp_.ProcessBlock(out[1],out[1],size);
 2155              		.loc 5 362 5 is_stmt 1 view .LVU531
 2156              		.loc 5 362 23 is_stmt 0 view .LVU532
 2157 0020 6368     		ldr	r3, [r4, #4]
 2158              	.LVL124:
 2159              	.LBB371:
 2160              	.LBI371:
  69:DaisySP-LGPL-FX/compressor.h ****     {
 2161              		.loc 2 69 10 is_stmt 1 view .LVU533
 2162              	.LBB372:
 2163              		.loc 2 71 9 view .LVU534
 2164              		.loc 2 71 21 is_stmt 0 view .LVU535
 2165 0022 0448     		ldr	r0, .L158
 2166 0024 1A46     		mov	r2, r3
 2167 0026 1946     		mov	r1, r3
 2168 0028 0095     		str	r5, [sp]
 2169 002a FFF7FEFF 		bl	_ZN7daisysp10Compressor12ProcessBlockEPfS1_S1_j
 2170              	.LVL125:
 2171              		.loc 2 71 21 view .LVU536
 2172              	.LBE372:
 2173              	.LBE371:
 363:GrannyChordApp.cpp **** 
 364:GrannyChordApp.cpp ****     float temp_left[size];
 2174              		.loc 5 364 5 is_stmt 1 view .LVU537
 365:GrannyChordApp.cpp ****     float temp_right[size];
 2175              		.loc 5 365 5 view .LVU538
 366:GrannyChordApp.cpp ****     
 367:GrannyChordApp.cpp ****     for (size_t i=0; i<size; i++){
 2176              		.loc 5 367 5 view .LVU539
 2177              		.loc 5 367 23 view .LVU540
 368:GrannyChordApp.cpp ****       temp_left[i] = out[0][i];
 369:GrannyChordApp.cpp ****       temp_right[i] = out[1][i];
 370:GrannyChordApp.cpp ****       // reverb_.Process(temp_left[i],temp_right[i],&out[0][i],&out[1][i]); // NOTE: check this wor
 371:GrannyChordApp.cpp ****     }
 372:GrannyChordApp.cpp **** }
 2178              		.loc 5 372 1 is_stmt 0 view .LVU541
 2179 002e 03B0     		add	sp, sp, #12
 2180              		.cfi_def_cfa_offset 12
 2181              		@ sp needed
 2182 0030 30BD     		pop	{r4, r5, pc}
 2183              	.LVL126:
 2184              	.L159:
 2185              		.loc 5 372 1 view .LVU542
 2186 0032 00BF     		.align	2
 2187              	.L158:
 2188 0034 14000000 		.word	.LANCHOR0+20
 2189              		.cfi_endproc
ARM GAS  /var/folders/2p/02m_5p7958535cp2tpgps0400000gn/T//ccA8p2F3.s 			page 65


 2190              	.LFE4961:
 2192              		.section	.text._ZN14GrannyChordApp12ProcessAudioEPKPKfPPfj,"ax",%progbits
 2193              		.align	1
 2194              		.global	_ZN14GrannyChordApp12ProcessAudioEPKPKfPPfj
 2195              		.syntax unified
 2196              		.thumb
 2197              		.thumb_func
 2199              	_ZN14GrannyChordApp12ProcessAudioEPKPKfPPfj:
 2200              	.LVL127:
 2201              	.LFB4957:
 287:GrannyChordApp.cpp ****   switch(curr_state_){
 2202              		.loc 5 287 107 is_stmt 1 view -0
 2203              		.cfi_startproc
 2204              		@ args = 0, pretend = 0, frame = 0
 2205              		@ frame_needed = 0, uses_anonymous_args = 0
 2206              		@ link register save eliminated.
 288:GrannyChordApp.cpp ****     case AppState::PlayWAV: 
 2207              		.loc 5 288 3 view .LVU544
 287:GrannyChordApp.cpp ****   switch(curr_state_){
 2208              		.loc 5 287 107 is_stmt 0 view .LVU545
 2209 0000 F0B4     		push	{r4, r5, r6, r7}
 2210              		.cfi_def_cfa_offset 16
 2211              		.cfi_offset 4, -16
 2212              		.cfi_offset 5, -12
 2213              		.cfi_offset 6, -8
 2214              		.cfi_offset 7, -4
 288:GrannyChordApp.cpp ****     case AppState::PlayWAV: 
 2215              		.loc 5 288 3 view .LVU546
 2216 0002 134F     		ldr	r7, .L166
 287:GrannyChordApp.cpp ****   switch(curr_state_){
 2217              		.loc 5 287 107 view .LVU547
 2218 0004 1446     		mov	r4, r2
 2219 0006 1D46     		mov	r5, r3
 288:GrannyChordApp.cpp ****     case AppState::PlayWAV: 
 2220              		.loc 5 288 3 view .LVU548
 2221 0008 3E68     		ldr	r6, [r7]
 2222 000a 022E     		cmp	r6, #2
 2223 000c 18D0     		beq	.L161
 2224 000e 032E     		cmp	r6, #3
 2225 0010 13D0     		beq	.L162
 2226 0012 012E     		cmp	r6, #1
 2227 0014 19D1     		bne	.L163
 289:GrannyChordApp.cpp ****       if (wav_playhead_>= filemgr_.GetSamplesPerChannel() -1){
 2228              		.loc 5 289 5 is_stmt 1 view .LVU549
 290:GrannyChordApp.cpp ****         AudioIdle(out,size);
 2229              		.loc 5 290 7 view .LVU550
 2230              	.LVL128:
 2231              	.LBB373:
 2232              	.LBI373:
  25:AudioFileManager.h ****     size_t GetTotalSamples() const { return header_.total_samples; }
 2233              		.loc 6 25 12 view .LVU551
 2234              	.LBB374:
  25:AudioFileManager.h ****     size_t GetTotalSamples() const { return header_.total_samples; }
 2235              		.loc 6 25 43 view .LVU552
  25:AudioFileManager.h ****     size_t GetTotalSamples() const { return header_.total_samples; }
 2236              		.loc 6 25 58 is_stmt 0 view .LVU553
 2237 0016 0F4A     		ldr	r2, .L166+4
ARM GAS  /var/folders/2p/02m_5p7958535cp2tpgps0400000gn/T//ccA8p2F3.s 			page 66


 2238              	.LVL129:
  25:AudioFileManager.h ****     size_t GetTotalSamples() const { return header_.total_samples; }
 2239              		.loc 6 25 82 view .LVU554
 2240 0018 B2F90810 		ldrsh	r1, [r2, #8]
 2241              	.LVL130:
  25:AudioFileManager.h ****     size_t GetTotalSamples() const { return header_.total_samples; }
 2242              		.loc 6 25 82 view .LVU555
 2243 001c D368     		ldr	r3, [r2, #12]
 2244              	.LVL131:
  25:AudioFileManager.h ****     size_t GetTotalSamples() const { return header_.total_samples; }
 2245              		.loc 6 25 82 view .LVU556
 2246              	.LBE374:
 2247              	.LBE373:
 290:GrannyChordApp.cpp ****         AudioIdle(out,size);
 2248              		.loc 5 290 7 view .LVU557
 2249 001e 3A69     		ldr	r2, [r7, #16]
 2250              	.LBB376:
 2251              	.LBB375:
  25:AudioFileManager.h ****     size_t GetTotalSamples() const { return header_.total_samples; }
 2252              		.loc 6 25 82 view .LVU558
 2253 0020 B3FBF1F3 		udiv	r3, r3, r1
 2254              	.LBE375:
 2255              	.LBE376:
 290:GrannyChordApp.cpp ****         AudioIdle(out,size);
 2256              		.loc 5 290 59 view .LVU559
 2257 0024 013B     		subs	r3, r3, #1
 291:GrannyChordApp.cpp ****         break;
 2258              		.loc 5 291 18 view .LVU560
 2259 0026 2146     		mov	r1, r4
 290:GrannyChordApp.cpp ****         AudioIdle(out,size);
 2260              		.loc 5 290 7 view .LVU561
 2261 0028 9342     		cmp	r3, r2
 291:GrannyChordApp.cpp ****         break;
 2262              		.loc 5 291 18 view .LVU562
 2263 002a 2A46     		mov	r2, r5
 290:GrannyChordApp.cpp ****         AudioIdle(out,size);
 2264              		.loc 5 290 7 view .LVU563
 2265 002c 02D8     		bhi	.L164
 2266              	.L165:
 307:GrannyChordApp.cpp **** 
 2267              		.loc 5 307 1 view .LVU564
 2268 002e F0BC     		pop	{r4, r5, r6, r7}
 2269              		.cfi_remember_state
 2270              		.cfi_restore 7
 2271              		.cfi_restore 6
 2272              		.cfi_restore 5
 2273              		.cfi_restore 4
 2274              		.cfi_def_cfa_offset 0
 2275              	.LVL132:
 304:GrannyChordApp.cpp ****       break;
 2276              		.loc 5 304 16 view .LVU565
 2277 0030 FFF7FEBF 		b	_ZN14GrannyChordApp9AudioIdleEPPfj
 2278              	.LVL133:
 2279              	.L164:
 2280              		.cfi_restore_state
 294:GrannyChordApp.cpp ****       break;  
 2281              		.loc 5 294 7 is_stmt 1 view .LVU566
ARM GAS  /var/folders/2p/02m_5p7958535cp2tpgps0400000gn/T//ccA8p2F3.s 			page 67


 307:GrannyChordApp.cpp **** 
 2282              		.loc 5 307 1 is_stmt 0 view .LVU567
 2283 0034 F0BC     		pop	{r4, r5, r6, r7}
 2284              		.cfi_remember_state
 2285              		.cfi_restore 7
 2286              		.cfi_restore 6
 2287              		.cfi_restore 5
 2288              		.cfi_restore 4
 2289              		.cfi_def_cfa_offset 0
 294:GrannyChordApp.cpp ****       break;  
 2290              		.loc 5 294 25 view .LVU568
 2291 0036 FFF7FEBF 		b	_ZN14GrannyChordApp18ProcessWAVPlaybackEPPfj
 2292              	.LVL134:
 2293              	.L162:
 2294              		.cfi_restore_state
 296:GrannyChordApp.cpp ****       ProcessRecordIn(in, out, size);
 2295              		.loc 5 296 5 is_stmt 1 view .LVU569
 297:GrannyChordApp.cpp ****       break;
 2296              		.loc 5 297 7 view .LVU570
 307:GrannyChordApp.cpp **** 
 2297              		.loc 5 307 1 is_stmt 0 view .LVU571
 2298 003a F0BC     		pop	{r4, r5, r6, r7}
 2299              		.cfi_remember_state
 2300              		.cfi_restore 7
 2301              		.cfi_restore 6
 2302              		.cfi_restore 5
 2303              		.cfi_restore 4
 2304              		.cfi_def_cfa_offset 0
 297:GrannyChordApp.cpp ****       break;
 2305              		.loc 5 297 22 view .LVU572
 2306 003c FFF7FEBF 		b	_ZN14GrannyChordApp15ProcessRecordInEPKPKfPPfj
 2307              	.LVL135:
 2308              	.L161:
 2309              		.cfi_restore_state
 299:GrannyChordApp.cpp ****       ProcessSynthesis(out,size);
 2310              		.loc 5 299 5 is_stmt 1 view .LVU573
 300:GrannyChordApp.cpp ****       break;
 2311              		.loc 5 300 7 view .LVU574
 300:GrannyChordApp.cpp ****       break;
 2312              		.loc 5 300 23 is_stmt 0 view .LVU575
 2313 0040 2146     		mov	r1, r4
 2314              	.LVL136:
 300:GrannyChordApp.cpp ****       break;
 2315              		.loc 5 300 23 view .LVU576
 2316 0042 1A46     		mov	r2, r3
 2317              	.LVL137:
 307:GrannyChordApp.cpp **** 
 2318              		.loc 5 307 1 view .LVU577
 2319 0044 F0BC     		pop	{r4, r5, r6, r7}
 2320              		.cfi_remember_state
 2321              		.cfi_restore 7
 2322              		.cfi_restore 6
 2323              		.cfi_restore 5
 2324              		.cfi_restore 4
 2325              		.cfi_def_cfa_offset 0
 2326              	.LVL138:
 300:GrannyChordApp.cpp ****       break;
ARM GAS  /var/folders/2p/02m_5p7958535cp2tpgps0400000gn/T//ccA8p2F3.s 			page 68


 2327              		.loc 5 300 23 view .LVU578
 2328 0046 FFF7FEBF 		b	_ZN14GrannyChordApp16ProcessSynthesisEPPfj
 2329              	.LVL139:
 2330              	.L163:
 2331              		.cfi_restore_state
 303:GrannyChordApp.cpp ****       AudioIdle(out,size);
 2332              		.loc 5 303 5 is_stmt 1 view .LVU579
 304:GrannyChordApp.cpp ****       break;
 2333              		.loc 5 304 7 view .LVU580
 304:GrannyChordApp.cpp ****       break;
 2334              		.loc 5 304 16 is_stmt 0 view .LVU581
 2335 004a 1A46     		mov	r2, r3
 2336              	.LVL140:
 304:GrannyChordApp.cpp ****       break;
 2337              		.loc 5 304 16 view .LVU582
 2338 004c 2146     		mov	r1, r4
 2339              	.LVL141:
 304:GrannyChordApp.cpp ****       break;
 2340              		.loc 5 304 16 view .LVU583
 2341 004e EEE7     		b	.L165
 2342              	.L167:
 2343              		.align	2
 2344              	.L166:
 2345 0050 00000000 		.word	.LANCHOR0
 2346 0054 00000000 		.word	_ZN16AudioFileManager7header_E
 2347              		.cfi_endproc
 2348              	.LFE4957:
 2350              		.section	.text._ZN14GrannyChordApp13AudioCallbackEPKPKfPPfj,"ax",%progbits
 2351              		.align	1
 2352              		.global	_ZN14GrannyChordApp13AudioCallbackEPKPKfPPfj
 2353              		.syntax unified
 2354              		.thumb
 2355              		.thumb_func
 2357              	_ZN14GrannyChordApp13AudioCallbackEPKPKfPPfj:
 2358              	.LVL142:
 2359              	.LFB4956:
 283:GrannyChordApp.cpp ****   instance_->ProcessAudio(in,out,size);
 2360              		.loc 5 283 108 is_stmt 1 view -0
 2361              		.cfi_startproc
 2362              		@ args = 0, pretend = 0, frame = 0
 2363              		@ frame_needed = 0, uses_anonymous_args = 0
 2364              		@ link register save eliminated.
 284:GrannyChordApp.cpp **** }
 2365              		.loc 5 284 3 view .LVU585
 283:GrannyChordApp.cpp ****   instance_->ProcessAudio(in,out,size);
 2366              		.loc 5 283 108 is_stmt 0 view .LVU586
 2367 0000 1346     		mov	r3, r2
 284:GrannyChordApp.cpp **** }
 2368              		.loc 5 284 26 view .LVU587
 2369 0002 0A46     		mov	r2, r1
 2370              	.LVL143:
 284:GrannyChordApp.cpp **** }
 2371              		.loc 5 284 26 view .LVU588
 2372 0004 0146     		mov	r1, r0
 2373              	.LVL144:
 284:GrannyChordApp.cpp **** }
 2374              		.loc 5 284 26 view .LVU589
ARM GAS  /var/folders/2p/02m_5p7958535cp2tpgps0400000gn/T//ccA8p2F3.s 			page 69


 2375 0006 0248     		ldr	r0, .L169
 2376              	.LVL145:
 284:GrannyChordApp.cpp **** }
 2377              		.loc 5 284 26 view .LVU590
 2378 0008 0068     		ldr	r0, [r0]
 2379 000a FFF7FEBF 		b	_ZN14GrannyChordApp12ProcessAudioEPKPKfPPfj
 2380              	.LVL146:
 2381              	.L170:
 284:GrannyChordApp.cpp **** }
 2382              		.loc 5 284 26 view .LVU591
 2383 000e 00BF     		.align	2
 2384              	.L169:
 2385 0010 00000000 		.word	.LANCHOR4
 2386              		.cfi_endproc
 2387              	.LFE4956:
 2389              		.section	.text._ZN14GrannyChordApp16ProcessChordModeEPPfj,"ax",%progbits
 2390              		.align	1
 2391              		.global	_ZN14GrannyChordApp16ProcessChordModeEPPfj
 2392              		.syntax unified
 2393              		.thumb
 2394              		.thumb_func
 2396              	_ZN14GrannyChordApp16ProcessChordModeEPPfj:
 2397              	.LVL147:
 2398              	.LFB4962:
 373:GrannyChordApp.cpp **** 
 374:GrannyChordApp.cpp **** /// @brief Process audio from chord mode and mix to output buffer
 375:GrannyChordApp.cpp **** /// @param out Output audio buffer
 376:GrannyChordApp.cpp **** /// @param size Number of samples to process in this call
 377:GrannyChordApp.cpp **** void GrannyChordApp::ProcessChordMode(AudioHandle::OutputBuffer out, size_t size){
 2399              		.loc 5 377 82 is_stmt 1 view -0
 2400              		.cfi_startproc
 2401              		@ args = 0, pretend = 0, frame = 0
 2402              		@ frame_needed = 0, uses_anonymous_args = 0
 2403              		@ link register save eliminated.
 378:GrannyChordApp.cpp ****   // if (UserTriggeredChord()) {
 379:GrannyChordApp.cpp ****   //   synth_.TriggerChord(out[0], out[1], size);
 380:GrannyChordApp.cpp ****   // } else {
 381:GrannyChordApp.cpp ****   //     std::memset(out[0], 0, size * sizeof(float));
 382:GrannyChordApp.cpp ****   //     std::memset(out[1], 0, size * sizeof(float));
 383:GrannyChordApp.cpp ****   // }
 384:GrannyChordApp.cpp **** }
 2404              		.loc 5 384 1 is_stmt 0 view .LVU593
 2405 0000 7047     		bx	lr
 2406              		.cfi_endproc
 2407              	.LFE4962:
 2409              		.section	.rodata._ZN14GrannyChordApp13RecordOutToSDEPPfj.str1.1,"aMS",%progbits,1
 2410              	.LC1:
 2411 0000 7265636F 		.ascii	"recording_%d\000"
 2411      7264696E 
 2411      675F2564 
 2411      00
 2412              		.section	.text._ZN14GrannyChordApp13RecordOutToSDEPPfj,"ax",%progbits
 2413              		.align	1
 2414              		.global	_ZN14GrannyChordApp13RecordOutToSDEPPfj
 2415              		.syntax unified
 2416              		.thumb
 2417              		.thumb_func
ARM GAS  /var/folders/2p/02m_5p7958535cp2tpgps0400000gn/T//ccA8p2F3.s 			page 70


 2419              	_ZN14GrannyChordApp13RecordOutToSDEPPfj:
 2420              	.LVL148:
 2421              	.LFB4963:
 385:GrannyChordApp.cpp **** 
 386:GrannyChordApp.cpp **** /// @brief Record granular synth or chord output audio to SD card
 387:GrannyChordApp.cpp **** /// @param out Output audio buffer
 388:GrannyChordApp.cpp **** /// @param size Number of samples to process in this call
 389:GrannyChordApp.cpp **** void GrannyChordApp::RecordOutToSD(AudioHandle::OutputBuffer out, size_t size){
 2422              		.loc 5 389 79 is_stmt 1 view -0
 2423              		.cfi_startproc
 2424              		@ args = 0, pretend = 0, frame = 40
 2425              		@ frame_needed = 0, uses_anonymous_args = 0
 390:GrannyChordApp.cpp ****   InitWavWriter();
 2426              		.loc 5 390 3 view .LVU595
 389:GrannyChordApp.cpp ****   InitWavWriter();
 2427              		.loc 5 389 79 is_stmt 0 view .LVU596
 2428 0000 F0B5     		push	{r4, r5, r6, r7, lr}
 2429              		.cfi_def_cfa_offset 20
 2430              		.cfi_offset 4, -20
 2431              		.cfi_offset 5, -16
 2432              		.cfi_offset 6, -12
 2433              		.cfi_offset 7, -8
 2434              		.cfi_offset 14, -4
 2435 0002 0446     		mov	r4, r0
 2436 0004 8BB0     		sub	sp, sp, #44
 2437              		.cfi_def_cfa_offset 64
 391:GrannyChordApp.cpp ****   char name[32];
 392:GrannyChordApp.cpp ****   sprintf(name,"recording_%d",recording_count_);
 2438              		.loc 5 392 10 view .LVU597
 2439 0006 154E     		ldr	r6, .L175
 390:GrannyChordApp.cpp ****   char name[32];
 2440              		.loc 5 390 16 view .LVU598
 2441 0008 FFF7FEFF 		bl	_ZN14GrannyChordApp13InitWavWriterEv
 2442              	.LVL149:
 391:GrannyChordApp.cpp ****   char name[32];
 2443              		.loc 5 391 3 is_stmt 1 view .LVU599
 2444              		.loc 5 392 3 view .LVU600
 2445              	.LBB381:
 2446              	.LBB382:
 157:../libDaisy/src/util/WavWriter.h ****         {
 2447              		.loc 9 157 18 is_stmt 0 view .LVU601
 2448 000c 04F50045 		add	r5, r4, #32768
 2449              	.LBE382:
 2450              	.LBE381:
 2451              		.loc 5 392 10 view .LVU602
 2452 0010 1349     		ldr	r1, .L175+4
 2453 0012 D6F8E020 		ldr	r2, [r6, #224]
 2454 0016 02A8     		add	r0, sp, #8
 2455              	.LVL150:
 2456              	.LBB386:
 2457              	.LBB384:
 157:../libDaisy/src/util/WavWriter.h ****         {
 2458              		.loc 9 157 18 view .LVU603
 2459 0018 5C35     		adds	r5, r5, #92
 2460              	.LBE384:
 2461              	.LBE386:
 2462              		.loc 5 392 10 view .LVU604
ARM GAS  /var/folders/2p/02m_5p7958535cp2tpgps0400000gn/T//ccA8p2F3.s 			page 71


 2463 001a FFF7FEFF 		bl	sprintf
 2464              	.LVL151:
 393:GrannyChordApp.cpp ****   sd_out_writer_.OpenFile(name);
 2465              		.loc 5 393 3 is_stmt 1 view .LVU605
 2466              	.LBB387:
 2467              	.LBI381:
 155:../libDaisy/src/util/WavWriter.h ****     {
 2468              		.loc 9 155 10 view .LVU606
 2469              	.LBB385:
 157:../libDaisy/src/util/WavWriter.h ****         {
 2470              		.loc 9 157 18 is_stmt 0 view .LVU607
 2471 001e 0A22     		movs	r2, #10
 2472 0020 02A9     		add	r1, sp, #8
 2473              	.LVL152:
 157:../libDaisy/src/util/WavWriter.h ****         {
 2474              		.loc 9 157 18 view .LVU608
 2475 0022 2846     		mov	r0, r5
 2476 0024 04F11407 		add	r7, r4, #20
 2477              	.LVL153:
 157:../libDaisy/src/util/WavWriter.h ****         {
 2478              		.loc 9 157 18 view .LVU609
 2479 0028 FFF7FEFF 		bl	f_open
 2480              	.LVL154:
 157:../libDaisy/src/util/WavWriter.h ****         {
 2481              		.loc 9 157 9 view .LVU610
 2482 002c 68B9     		cbnz	r0, .L173
 2483              	.LBB383:
 159:../libDaisy/src/util/WavWriter.h ****             if(f_write(&fp_, &wavheader_, sizeof(wavheader_), &bw) == FR_OK)
 2484              		.loc 9 159 26 view .LVU611
 2485 002e 0190     		str	r0, [sp, #4]
 160:../libDaisy/src/util/WavWriter.h ****             {
 2486              		.loc 9 160 23 view .LVU612
 2487 0030 01AB     		add	r3, sp, #4
 2488 0032 2C22     		movs	r2, #44
 2489 0034 3946     		mov	r1, r7
 2490 0036 2846     		mov	r0, r5
 2491 0038 FFF7FEFF 		bl	f_write
 2492              	.LVL155:
 160:../libDaisy/src/util/WavWriter.h ****             {
 2493              		.loc 9 160 13 view .LVU613
 2494 003c 28B9     		cbnz	r0, .L173
 162:../libDaisy/src/util/WavWriter.h ****                 num_samps_ = 0;
 2495              		.loc 9 162 28 view .LVU614
 2496 003e 04F50043 		add	r3, r4, #32768
 2497 0042 0122     		movs	r2, #1
 2498 0044 83F85820 		strb	r2, [r3, #88]
 163:../libDaisy/src/util/WavWriter.h ****             }
 2499              		.loc 9 163 28 view .LVU615
 2500 0048 2064     		str	r0, [r4, #64]
 2501              	.L173:
 2502              	.LVL156:
 163:../libDaisy/src/util/WavWriter.h ****             }
 2503              		.loc 9 163 28 view .LVU616
 2504              	.LBE383:
 2505              	.LBE385:
 2506              	.LBE387:
 394:GrannyChordApp.cpp ****   recording_count_++;
ARM GAS  /var/folders/2p/02m_5p7958535cp2tpgps0400000gn/T//ccA8p2F3.s 			page 72


 2507              		.loc 5 394 3 is_stmt 1 view .LVU617
 2508              		.loc 5 394 19 is_stmt 0 view .LVU618
 2509 004a D6F8E030 		ldr	r3, [r6, #224]
 2510 004e 0133     		adds	r3, r3, #1
 2511 0050 C6F8E030 		str	r3, [r6, #224]
 395:GrannyChordApp.cpp ****   recording_out_ = true;
 2512              		.loc 5 395 3 is_stmt 1 view .LVU619
 2513              		.loc 5 395 18 is_stmt 0 view .LVU620
 2514 0054 0123     		movs	r3, #1
 2515 0056 6374     		strb	r3, [r4, #17]
 396:GrannyChordApp.cpp ****   // NOTE: what now? do i just record in audiocallback? 
 397:GrannyChordApp.cpp **** 
 398:GrannyChordApp.cpp **** //    Open a new file for writing with: writer.OpenFile("FileName.wav")
 399:GrannyChordApp.cpp **** //  ** 5. Write to it within your audio callback using: writer.Sample(value)
 400:GrannyChordApp.cpp **** //  ** 6. Fill the Wav File on the SD Card with data from your main loop by running: writer.Write()
 401:GrannyChordApp.cpp **** //  ** 7. When finished with the recording finalize, and close the file with: writer.SaveFile();
 402:GrannyChordApp.cpp **** // NOTE: 
 403:GrannyChordApp.cpp **** // USE THIS 
 404:GrannyChordApp.cpp **** // https://electro-smith.github.io/libDaisy/classdaisy_1_1_wav_writer.html
 405:GrannyChordApp.cpp **** 
 406:GrannyChordApp.cpp ****   // create file on sd card 
 407:GrannyChordApp.cpp ****   // write in blocks]
 408:GrannyChordApp.cpp ****   // will have to f2s16 to conv back to int16 
 409:GrannyChordApp.cpp ****   // max recording duration should be 120*48000*sizeof(float)*2(channels)??
 410:GrannyChordApp.cpp ****   // wrap around index ? or just stop recording at max length
 411:GrannyChordApp.cpp ****   // could flash seed led if wrapping, solid if stop at max
 412:GrannyChordApp.cpp ****   // write straight to sd card?
 413:GrannyChordApp.cpp ****   // or is it better to write to a circular buffer in SDRAM
 414:GrannyChordApp.cpp ****   // then asynchronously/more slowly write to SD card
 415:GrannyChordApp.cpp ****   // reset recording buffer pointer
 416:GrannyChordApp.cpp ****   // set up audio input gain or anything?
 417:GrannyChordApp.cpp ****   // init sample counter for recording duration? 
 418:GrannyChordApp.cpp ****   // when finished: update file headers
 419:GrannyChordApp.cpp ****   // update UI to show recording finished
 420:GrannyChordApp.cpp **** 
 421:GrannyChordApp.cpp ****   // don't stop audio since i'm recording
 422:GrannyChordApp.cpp **** }
 2516              		.loc 5 422 1 view .LVU621
 2517 0058 0BB0     		add	sp, sp, #44
 2518              		.cfi_def_cfa_offset 20
 2519              		@ sp needed
 2520 005a F0BD     		pop	{r4, r5, r6, r7, pc}
 2521              	.LVL157:
 2522              	.L176:
 2523              		.loc 5 422 1 view .LVU622
 2524              		.align	2
 2525              	.L175:
 2526 005c 00000000 		.word	.LANCHOR0
 2527 0060 00000000 		.word	.LC1
 2528              		.cfi_endproc
 2529              	.LFE4963:
 2531              		.section	.text._ZN14GrannyChordApp17UpdateKnob1ParamsEf9SynthMode,"ax",%progbits
 2532              		.align	1
 2533              		.global	_ZN14GrannyChordApp17UpdateKnob1ParamsEf9SynthMode
 2534              		.syntax unified
 2535              		.thumb
 2536              		.thumb_func
ARM GAS  /var/folders/2p/02m_5p7958535cp2tpgps0400000gn/T//ccA8p2F3.s 			page 73


 2538              	_ZN14GrannyChordApp17UpdateKnob1ParamsEf9SynthMode:
 2539              	.LVL158:
 2540              	.LFB4964:
 423:GrannyChordApp.cpp **** 
 424:GrannyChordApp.cpp **** // void GrannyChordApp::ToggleRecordOut(){
 425:GrannyChordApp.cpp **** //   recording_out_ = !recording_out_;
 426:GrannyChordApp.cpp **** // }
 427:GrannyChordApp.cpp **** 
 428:GrannyChordApp.cpp **** 
 429:GrannyChordApp.cpp **** void GrannyChordApp::UpdateKnob1Params(float knob1_val, SynthMode mode){
 2541              		.loc 5 429 72 is_stmt 1 view -0
 2542              		.cfi_startproc
 2543              		@ args = 0, pretend = 0, frame = 0
 2544              		@ frame_needed = 0, uses_anonymous_args = 0
 2545              		@ link register save eliminated.
 430:GrannyChordApp.cpp ****   switch (mode){
 2546              		.loc 5 430 3 view .LVU624
 2547 0000 0829     		cmp	r1, #8
 2548 0002 3DD8     		bhi	.L177
 2549 0004 DFE801F0 		tbb	[pc, r1]
 2550              	.L180:
 2551 0008 05       		.byte	(.L187-.L180)/2
 2552 0009 21       		.byte	(.L186-.L180)/2
 2553 000a 08       		.byte	(.L185-.L180)/2
 2554 000b 25       		.byte	(.L184-.L180)/2
 2555 000c 0E       		.byte	(.L183-.L180)/2
 2556 000d 27       		.byte	(.L182-.L180)/2
 2557 000e 0B       		.byte	(.L181-.L180)/2
 2558 000f 3C       		.byte	(.L177-.L180)/2
 2559 0010 29       		.byte	(.L179-.L180)/2
 2560 0011 00       		.p2align 1
 2561              	.L187:
 431:GrannyChordApp.cpp ****     case SynthMode::Size_Position:
 2562              		.loc 5 431 5 view .LVU625
 432:GrannyChordApp.cpp ****       synth_.SetGrainSize(knob1_val);
 2563              		.loc 5 432 7 view .LVU626
 2564              		.loc 5 432 26 is_stmt 0 view .LVU627
 2565 0012 0430     		adds	r0, r0, #4
 2566              	.LVL159:
 2567              		.loc 5 432 26 view .LVU628
 2568 0014 FFF7FEBF 		b	_ZN13GranularSynth12SetGrainSizeEf
 2569              	.LVL160:
 2570              	.L185:
 433:GrannyChordApp.cpp ****       break;
 434:GrannyChordApp.cpp ****     case SynthMode::Pitch_ActiveGrains:
 2571              		.loc 5 434 5 is_stmt 1 view .LVU629
 435:GrannyChordApp.cpp ****       synth_.SetPitchRatio(knob1_val);
 2572              		.loc 5 435 7 view .LVU630
 2573              		.loc 5 435 27 is_stmt 0 view .LVU631
 2574 0018 0430     		adds	r0, r0, #4
 2575              	.LVL161:
 2576              		.loc 5 435 27 view .LVU632
 2577 001a FFF7FEBF 		b	_ZN13GranularSynth13SetPitchRatioEf
 2578              	.LVL162:
 2579              	.L181:
 436:GrannyChordApp.cpp ****       break;
 437:GrannyChordApp.cpp ****     case SynthMode::Pan_PanRnd:
ARM GAS  /var/folders/2p/02m_5p7958535cp2tpgps0400000gn/T//ccA8p2F3.s 			page 74


 2580              		.loc 5 437 5 is_stmt 1 view .LVU633
 438:GrannyChordApp.cpp ****       synth_.SetPan(knob1_val);
 2581              		.loc 5 438 7 view .LVU634
 2582              		.loc 5 438 20 is_stmt 0 view .LVU635
 2583 001e 0430     		adds	r0, r0, #4
 2584              	.LVL163:
 2585              		.loc 5 438 20 view .LVU636
 2586 0020 FFF7FEBF 		b	_ZN13GranularSynth6SetPanEf
 2587              	.LVL164:
 2588              	.L183:
 439:GrannyChordApp.cpp ****       break;
 440:GrannyChordApp.cpp ****     case SynthMode::PhasorMode_EnvType:
 2589              		.loc 5 440 5 is_stmt 1 view .LVU637
 441:GrannyChordApp.cpp ****       knob1_val = fmap(knob1_val, 0, NUM_PHASOR_MODES);
 2590              		.loc 5 441 7 view .LVU638
 2591              	.LBB388:
 2592              	.LBI388:
 2593              		.file 12 "../DaisySP/Source/Utility/dsp.h"
   1:../DaisySP/Source/Utility/dsp.h **** /*
   2:../DaisySP/Source/Utility/dsp.h **** Copyright (c) 2020 Electrosmith, Corp, Emilie Gillet
   3:../DaisySP/Source/Utility/dsp.h **** 
   4:../DaisySP/Source/Utility/dsp.h **** Use of this source code is governed by an MIT-style
   5:../DaisySP/Source/Utility/dsp.h **** license that can be found in the LICENSE file or at
   6:../DaisySP/Source/Utility/dsp.h **** https://opensource.org/licenses/MIT.
   7:../DaisySP/Source/Utility/dsp.h **** */
   8:../DaisySP/Source/Utility/dsp.h **** 
   9:../DaisySP/Source/Utility/dsp.h **** /** Helpful defines, functions, and other utilities for use in/with daisysp modules.
  10:../DaisySP/Source/Utility/dsp.h **** */
  11:../DaisySP/Source/Utility/dsp.h **** #pragma once
  12:../DaisySP/Source/Utility/dsp.h **** #ifndef DSY_CORE_DSP
  13:../DaisySP/Source/Utility/dsp.h **** #define DSY_CORE_DSP
  14:../DaisySP/Source/Utility/dsp.h **** #include <cassert>
  15:../DaisySP/Source/Utility/dsp.h **** #include <cstdint>
  16:../DaisySP/Source/Utility/dsp.h **** #include <random>
  17:../DaisySP/Source/Utility/dsp.h **** #include <cmath>
  18:../DaisySP/Source/Utility/dsp.h **** 
  19:../DaisySP/Source/Utility/dsp.h **** /** PIs
  20:../DaisySP/Source/Utility/dsp.h **** */
  21:../DaisySP/Source/Utility/dsp.h **** #define PI_F 3.1415927410125732421875f
  22:../DaisySP/Source/Utility/dsp.h **** #define TWOPI_F (2.0f * PI_F)
  23:../DaisySP/Source/Utility/dsp.h **** #define HALFPI_F (PI_F * 0.5f)
  24:../DaisySP/Source/Utility/dsp.h **** #define DSY_MIN(in, mn) (in < mn ? in : mn)
  25:../DaisySP/Source/Utility/dsp.h **** #define DSY_MAX(in, mx) (in > mx ? in : mx)
  26:../DaisySP/Source/Utility/dsp.h **** #define DSY_CLAMP(in, mn, mx) (DSY_MIN(DSY_MAX(in, mn), mx))
  27:../DaisySP/Source/Utility/dsp.h **** #define DSY_COUNTOF(_arr) (sizeof(_arr) / sizeof(_arr[0]))
  28:../DaisySP/Source/Utility/dsp.h **** 
  29:../DaisySP/Source/Utility/dsp.h **** namespace daisysp
  30:../DaisySP/Source/Utility/dsp.h **** {
  31:../DaisySP/Source/Utility/dsp.h **** //Avoids division for random floats. e.g. rand() * kRandFrac
  32:../DaisySP/Source/Utility/dsp.h **** static constexpr float kRandFrac = 1.f / (float)RAND_MAX;
  33:../DaisySP/Source/Utility/dsp.h **** 
  34:../DaisySP/Source/Utility/dsp.h **** //Convert from semitones to other units. e.g. 2 ^ (kOneTwelfth * x)
  35:../DaisySP/Source/Utility/dsp.h **** static constexpr float kOneTwelfth = 1.f / 12.f;
  36:../DaisySP/Source/Utility/dsp.h **** 
  37:../DaisySP/Source/Utility/dsp.h **** /** efficient floating point min/max
  38:../DaisySP/Source/Utility/dsp.h **** c/o stephen mccaul
  39:../DaisySP/Source/Utility/dsp.h **** */
ARM GAS  /var/folders/2p/02m_5p7958535cp2tpgps0400000gn/T//ccA8p2F3.s 			page 75


  40:../DaisySP/Source/Utility/dsp.h **** inline float fmax(float a, float b)
  41:../DaisySP/Source/Utility/dsp.h **** {
  42:../DaisySP/Source/Utility/dsp.h ****     float r;
  43:../DaisySP/Source/Utility/dsp.h **** #ifdef __arm__
  44:../DaisySP/Source/Utility/dsp.h ****     asm("vmaxnm.f32 %[d], %[n], %[m]" : [d] "=t"(r) : [n] "t"(a), [m] "t"(b) :);
  45:../DaisySP/Source/Utility/dsp.h **** #else
  46:../DaisySP/Source/Utility/dsp.h ****     r = (a > b) ? a : b;
  47:../DaisySP/Source/Utility/dsp.h **** #endif // __arm__
  48:../DaisySP/Source/Utility/dsp.h ****     return r;
  49:../DaisySP/Source/Utility/dsp.h **** }
  50:../DaisySP/Source/Utility/dsp.h **** 
  51:../DaisySP/Source/Utility/dsp.h **** inline float fmin(float a, float b)
  52:../DaisySP/Source/Utility/dsp.h **** {
  53:../DaisySP/Source/Utility/dsp.h ****     float r;
  54:../DaisySP/Source/Utility/dsp.h **** #ifdef __arm__
  55:../DaisySP/Source/Utility/dsp.h ****     asm("vminnm.f32 %[d], %[n], %[m]" : [d] "=t"(r) : [n] "t"(a), [m] "t"(b) :);
  56:../DaisySP/Source/Utility/dsp.h **** #else
  57:../DaisySP/Source/Utility/dsp.h ****     r = (a < b) ? a : b;
  58:../DaisySP/Source/Utility/dsp.h **** #endif // __arm__
  59:../DaisySP/Source/Utility/dsp.h ****     return r;
  60:../DaisySP/Source/Utility/dsp.h **** }
  61:../DaisySP/Source/Utility/dsp.h **** 
  62:../DaisySP/Source/Utility/dsp.h **** /** quick fp clamp
  63:../DaisySP/Source/Utility/dsp.h **** */
  64:../DaisySP/Source/Utility/dsp.h **** inline float fclamp(float in, float min, float max)
  65:../DaisySP/Source/Utility/dsp.h **** {
  66:../DaisySP/Source/Utility/dsp.h ****     return fmin(fmax(in, min), max);
  67:../DaisySP/Source/Utility/dsp.h **** }
  68:../DaisySP/Source/Utility/dsp.h **** 
  69:../DaisySP/Source/Utility/dsp.h **** /** From Musicdsp.org "Fast power and root estimates for 32bit floats)
  70:../DaisySP/Source/Utility/dsp.h **** Original code by Stefan Stenzel
  71:../DaisySP/Source/Utility/dsp.h **** These are approximations
  72:../DaisySP/Source/Utility/dsp.h **** */
  73:../DaisySP/Source/Utility/dsp.h **** inline float fastpower(float f, int n)
  74:../DaisySP/Source/Utility/dsp.h **** {
  75:../DaisySP/Source/Utility/dsp.h ****     long *lp, l;
  76:../DaisySP/Source/Utility/dsp.h ****     lp = (long *)(&f);
  77:../DaisySP/Source/Utility/dsp.h ****     l  = *lp;
  78:../DaisySP/Source/Utility/dsp.h ****     l -= 0x3F800000;
  79:../DaisySP/Source/Utility/dsp.h ****     l <<= (n - 1);
  80:../DaisySP/Source/Utility/dsp.h ****     l += 0x3F800000;
  81:../DaisySP/Source/Utility/dsp.h ****     *lp = l;
  82:../DaisySP/Source/Utility/dsp.h ****     return f;
  83:../DaisySP/Source/Utility/dsp.h **** }
  84:../DaisySP/Source/Utility/dsp.h **** 
  85:../DaisySP/Source/Utility/dsp.h **** inline float fastroot(float f, int n)
  86:../DaisySP/Source/Utility/dsp.h **** {
  87:../DaisySP/Source/Utility/dsp.h ****     long *lp, l;
  88:../DaisySP/Source/Utility/dsp.h ****     lp = (long *)(&f);
  89:../DaisySP/Source/Utility/dsp.h ****     l  = *lp;
  90:../DaisySP/Source/Utility/dsp.h ****     l -= 0x3F800000;
  91:../DaisySP/Source/Utility/dsp.h ****     l >>= (n - 1);
  92:../DaisySP/Source/Utility/dsp.h ****     l += 0x3F800000;
  93:../DaisySP/Source/Utility/dsp.h ****     *lp = l;
  94:../DaisySP/Source/Utility/dsp.h ****     return f;
  95:../DaisySP/Source/Utility/dsp.h **** }
  96:../DaisySP/Source/Utility/dsp.h **** 
ARM GAS  /var/folders/2p/02m_5p7958535cp2tpgps0400000gn/T//ccA8p2F3.s 			page 76


  97:../DaisySP/Source/Utility/dsp.h **** /** Significantly more efficient than fmodf(x, 1.0f) for calculating
  98:../DaisySP/Source/Utility/dsp.h ****  *  the decimal part of a floating point value.
  99:../DaisySP/Source/Utility/dsp.h ****  */
 100:../DaisySP/Source/Utility/dsp.h **** inline float fastmod1f(float x)
 101:../DaisySP/Source/Utility/dsp.h **** {
 102:../DaisySP/Source/Utility/dsp.h ****     return x - static_cast<int>(x);
 103:../DaisySP/Source/Utility/dsp.h **** }
 104:../DaisySP/Source/Utility/dsp.h **** 
 105:../DaisySP/Source/Utility/dsp.h **** /** From http://openaudio.blogspot.com/2017/02/faster-log10-and-pow.html
 106:../DaisySP/Source/Utility/dsp.h **** No approximation, pow10f(x) gives a 90% speed increase over powf(10.f, x)
 107:../DaisySP/Source/Utility/dsp.h **** */
 108:../DaisySP/Source/Utility/dsp.h **** inline float pow10f(float f)
 109:../DaisySP/Source/Utility/dsp.h **** {
 110:../DaisySP/Source/Utility/dsp.h ****     return expf(2.302585092994046f * f);
 111:../DaisySP/Source/Utility/dsp.h **** }
 112:../DaisySP/Source/Utility/dsp.h **** 
 113:../DaisySP/Source/Utility/dsp.h **** /* Original code for fastlog2f by Dr. Paul Beckmann from the ARM community forum, adapted from the 
 114:../DaisySP/Source/Utility/dsp.h **** About 25% performance increase over std::log10f
 115:../DaisySP/Source/Utility/dsp.h **** */
 116:../DaisySP/Source/Utility/dsp.h **** inline float fastlog2f(float f)
 117:../DaisySP/Source/Utility/dsp.h **** {
 118:../DaisySP/Source/Utility/dsp.h ****     float frac;
 119:../DaisySP/Source/Utility/dsp.h ****     int   exp;
 120:../DaisySP/Source/Utility/dsp.h ****     frac = frexpf(fabsf(f), &exp);
 121:../DaisySP/Source/Utility/dsp.h ****     f    = 1.23149591368684f;
 122:../DaisySP/Source/Utility/dsp.h ****     f *= frac;
 123:../DaisySP/Source/Utility/dsp.h ****     f += -4.11852516267426f;
 124:../DaisySP/Source/Utility/dsp.h ****     f *= frac;
 125:../DaisySP/Source/Utility/dsp.h ****     f += 6.02197014179219f;
 126:../DaisySP/Source/Utility/dsp.h ****     f *= frac;
 127:../DaisySP/Source/Utility/dsp.h ****     f += -3.13396450166353f;
 128:../DaisySP/Source/Utility/dsp.h ****     f += exp;
 129:../DaisySP/Source/Utility/dsp.h ****     return (f);
 130:../DaisySP/Source/Utility/dsp.h **** }
 131:../DaisySP/Source/Utility/dsp.h **** 
 132:../DaisySP/Source/Utility/dsp.h **** inline float fastlog10f(float f)
 133:../DaisySP/Source/Utility/dsp.h **** {
 134:../DaisySP/Source/Utility/dsp.h ****     return fastlog2f(f) * 0.3010299956639812f;
 135:../DaisySP/Source/Utility/dsp.h **** }
 136:../DaisySP/Source/Utility/dsp.h **** 
 137:../DaisySP/Source/Utility/dsp.h **** /** Midi to frequency helper
 138:../DaisySP/Source/Utility/dsp.h **** */
 139:../DaisySP/Source/Utility/dsp.h **** inline float mtof(float m)
 140:../DaisySP/Source/Utility/dsp.h **** {
 141:../DaisySP/Source/Utility/dsp.h ****     return powf(2, (m - 69.0f) / 12.0f) * 440.0f;
 142:../DaisySP/Source/Utility/dsp.h **** }
 143:../DaisySP/Source/Utility/dsp.h **** 
 144:../DaisySP/Source/Utility/dsp.h **** 
 145:../DaisySP/Source/Utility/dsp.h **** /** one pole lpf
 146:../DaisySP/Source/Utility/dsp.h **** out is passed by reference, and must be retained between
 147:../DaisySP/Source/Utility/dsp.h **** calls to properly filter the signal
 148:../DaisySP/Source/Utility/dsp.h **** coeff can be calculated:
 149:../DaisySP/Source/Utility/dsp.h **** coeff = 1.0 / (time * sample_rate) ; where time is in seconds
 150:../DaisySP/Source/Utility/dsp.h **** */
 151:../DaisySP/Source/Utility/dsp.h **** inline void fonepole(float &out, float in, float coeff)
 152:../DaisySP/Source/Utility/dsp.h **** {
 153:../DaisySP/Source/Utility/dsp.h ****     out += coeff * (in - out);
ARM GAS  /var/folders/2p/02m_5p7958535cp2tpgps0400000gn/T//ccA8p2F3.s 			page 77


 154:../DaisySP/Source/Utility/dsp.h **** }
 155:../DaisySP/Source/Utility/dsp.h **** 
 156:../DaisySP/Source/Utility/dsp.h **** /** Curves to use with the fmap function */
 157:../DaisySP/Source/Utility/dsp.h **** enum class Mapping
 158:../DaisySP/Source/Utility/dsp.h **** {
 159:../DaisySP/Source/Utility/dsp.h ****     LINEAR,
 160:../DaisySP/Source/Utility/dsp.h ****     EXP,
 161:../DaisySP/Source/Utility/dsp.h ****     LOG,
 162:../DaisySP/Source/Utility/dsp.h **** };
 163:../DaisySP/Source/Utility/dsp.h **** 
 164:../DaisySP/Source/Utility/dsp.h **** /** Maps a float between a specified range, using a specified curve.
 165:../DaisySP/Source/Utility/dsp.h ****  *
 166:../DaisySP/Source/Utility/dsp.h ****  *  \param in a value between 0 to 1 that will be mapped to the new range.
 167:../DaisySP/Source/Utility/dsp.h ****  *  \param min the new minimum value
 168:../DaisySP/Source/Utility/dsp.h ****  *  \param max the new maxmimum value
 169:../DaisySP/Source/Utility/dsp.h ****  *  \param curve a Mapping Value to adjust the response curve of the transformation
 170:../DaisySP/Source/Utility/dsp.h ****  *               defaults to Linear. @see Mapping
 171:../DaisySP/Source/Utility/dsp.h ****  *
 172:../DaisySP/Source/Utility/dsp.h ****  *  When using the log curve min and max, must be greater than zero.
 173:../DaisySP/Source/Utility/dsp.h ****  *
 174:../DaisySP/Source/Utility/dsp.h ****  *  \retval returns the transformed float within the new range.
 175:../DaisySP/Source/Utility/dsp.h **** */
 176:../DaisySP/Source/Utility/dsp.h **** inline float
 177:../DaisySP/Source/Utility/dsp.h **** fmap(float in, float min, float max, Mapping curve = Mapping::LINEAR)
 2594              		.loc 12 177 1 view .LVU639
 2595              	.LBE388:
 178:../DaisySP/Source/Utility/dsp.h **** {
 179:../DaisySP/Source/Utility/dsp.h ****     switch(curve)
 2596              		.loc 12 179 5 view .LVU640
 2597              	.LBB398:
 2598              	.LBB389:
 180:../DaisySP/Source/Utility/dsp.h ****     {
 181:../DaisySP/Source/Utility/dsp.h ****         case Mapping::EXP:
 182:../DaisySP/Source/Utility/dsp.h ****             return fclamp(min + (in * in) * (max - min), min, max);
 183:../DaisySP/Source/Utility/dsp.h ****         case Mapping::LOG:
 184:../DaisySP/Source/Utility/dsp.h ****         {
 185:../DaisySP/Source/Utility/dsp.h ****             const float a = 1.f / log10f(max / min);
 186:../DaisySP/Source/Utility/dsp.h ****             return fclamp(min * powf(10, in / a), min, max);
 187:../DaisySP/Source/Utility/dsp.h ****         }
 188:../DaisySP/Source/Utility/dsp.h ****         case Mapping::LINEAR:
 2599              		.loc 12 188 9 view .LVU641
 189:../DaisySP/Source/Utility/dsp.h ****         default: return fclamp(min + in * (max - min), min, max);
 2600              		.loc 12 189 9 view .LVU642
 2601              		.loc 12 189 18 view .LVU643
 2602              		.loc 12 189 31 is_stmt 0 view .LVU644
 2603 0024 DFED176A 		vldr.32	s13, .L189
 2604 0028 B1EE007A 		vmov.f32	s14, #4.0e+0
 2605              	.LBE389:
 2606              	.LBE398:
 442:GrannyChordApp.cpp ****       synth_.SetPhasorMode(static_cast<GrainPhasor::Mode>(knob1_val));
 2607              		.loc 5 442 27 view .LVU645
 2608 002c 0430     		adds	r0, r0, #4
 2609              	.LVL165:
 2610              	.LBB399:
 2611              	.LBB396:
 2612              		.loc 12 189 31 view .LVU646
 2613 002e F0EE667A 		vmov.f32	s15, s13
ARM GAS  /var/folders/2p/02m_5p7958535cp2tpgps0400000gn/T//ccA8p2F3.s 			page 78


 2614 0032 E0EE077A 		vfma.f32	s15, s0, s14
 2615              	.LVL166:
 2616              	.LBB390:
 2617              	.LBI390:
  64:../DaisySP/Source/Utility/dsp.h **** {
 2618              		.loc 12 64 14 is_stmt 1 view .LVU647
 2619              	.LBE390:
 2620              	.LBE396:
 2621              	.LBE399:
  66:../DaisySP/Source/Utility/dsp.h **** }
 2622              		.loc 12 66 5 view .LVU648
 2623              	.LBB400:
 2624              	.LBB397:
 2625              	.LBB395:
 2626              	.LBB391:
 2627              	.LBI391:
  40:../DaisySP/Source/Utility/dsp.h **** {
 2628              		.loc 12 40 14 view .LVU649
 2629              	.LBB392:
  42:../DaisySP/Source/Utility/dsp.h **** #ifdef __arm__
 2630              		.loc 12 42 5 view .LVU650
  44:../DaisySP/Source/Utility/dsp.h **** #else
 2631              		.loc 12 44 5 view .LVU651
 2632              		.syntax unified
 2633              	@ 44 "../DaisySP/Source/Utility/dsp.h" 1
 2634 0036 C7FEA67A 		vmaxnm.f32 s15, s15, s13
 2635              	@ 0 "" 2
 2636              	.LVL167:
  48:../DaisySP/Source/Utility/dsp.h **** }
 2637              		.loc 12 48 5 view .LVU652
  48:../DaisySP/Source/Utility/dsp.h **** }
 2638              		.loc 12 48 5 is_stmt 0 view .LVU653
 2639              		.thumb
 2640              		.syntax unified
 2641              	.LBE392:
 2642              	.LBE391:
 2643              	.LBB393:
 2644              	.LBI393:
  51:../DaisySP/Source/Utility/dsp.h **** {
 2645              		.loc 12 51 14 is_stmt 1 view .LVU654
 2646              	.LBB394:
  53:../DaisySP/Source/Utility/dsp.h **** #ifdef __arm__
 2647              		.loc 12 53 5 view .LVU655
  55:../DaisySP/Source/Utility/dsp.h **** #else
 2648              		.loc 12 55 5 view .LVU656
 2649              		.syntax unified
 2650              	@ 55 "../DaisySP/Source/Utility/dsp.h" 1
 2651 003a C7FEC77A 		vminnm.f32 s15, s15, s14
 2652              	@ 0 "" 2
 2653              	.LVL168:
  59:../DaisySP/Source/Utility/dsp.h **** }
 2654              		.loc 12 59 5 view .LVU657
  59:../DaisySP/Source/Utility/dsp.h **** }
 2655              		.loc 12 59 5 is_stmt 0 view .LVU658
 2656              		.thumb
 2657              		.syntax unified
 2658              	.LBE394:
ARM GAS  /var/folders/2p/02m_5p7958535cp2tpgps0400000gn/T//ccA8p2F3.s 			page 79


 2659              	.LBE393:
 2660              	.LBE395:
 2661              	.LBE397:
 2662              	.LBE400:
 2663              		.loc 5 442 7 is_stmt 1 view .LVU659
 2664              		.loc 5 442 27 is_stmt 0 view .LVU660
 2665 003e FDEEE77A 		vcvt.s32.f32	s15, s15
 2666              	.LVL169:
 2667              		.loc 5 442 27 view .LVU661
 2668 0042 17EE901A 		vmov	r1, s15	@ int
 2669              	.LVL170:
 2670              		.loc 5 442 27 view .LVU662
 2671 0046 FFF7FEBF 		b	_ZN13GranularSynth13SetPhasorModeEN11GrainPhasor4ModeE
 2672              	.LVL171:
 2673              	.L186:
 443:GrannyChordApp.cpp ****       break;
 444:GrannyChordApp.cpp ****     case SynthMode::Size_Position_Rnd:
 2674              		.loc 5 444 5 is_stmt 1 view .LVU663
 445:GrannyChordApp.cpp ****       synth_.SetSizeRnd(knob1_val);
 2675              		.loc 5 445 7 view .LVU664
 2676              	.LBB401:
 2677              	.LBI401:
 2678              		.file 13 "GranularSynth.h"
   1:GranularSynth.h **** #pragma once
   2:GranularSynth.h **** 
   3:GranularSynth.h **** #include "Grain.h"
   4:GranularSynth.h **** #include "daisy_pod.h"
   5:GranularSynth.h **** #include "debug_print.h"
   6:GranularSynth.h **** #include <bitset>
   7:GranularSynth.h **** 
   8:GranularSynth.h **** class GranularSynth{
   9:GranularSynth.h ****   public:
  10:GranularSynth.h ****     GranularSynth(DaisyPod& pod) 
  11:GranularSynth.h ****       : pod_(pod){}
  12:GranularSynth.h **** 
  13:GranularSynth.h ****     static void Init(const int16_t *left, const int16_t *right, size_t audio_len);
  14:GranularSynth.h ****     void UpdateGrainParams();
  15:GranularSynth.h ****     void ApplyRandomness();
  16:GranularSynth.h ****     void TriggerGrain();
  17:GranularSynth.h ****     void ProcessGrains(float *out_left, float *out_right, size_t size);
  18:GranularSynth.h **** 
  19:GranularSynth.h ****     void SetEnvelopeType(Grain::EnvelopeType type);
  20:GranularSynth.h ****     void SetPhasorMode(GrainPhasor::Mode mode);
  21:GranularSynth.h ****     void SetPan(float pan);
  22:GranularSynth.h ****     
  23:GranularSynth.h ****     void SetGrainSize(float knob_val);
  24:GranularSynth.h ****     void SetSpawnPos(float knob_val);
  25:GranularSynth.h ****     void SetActiveGrains(float knob_val);
  26:GranularSynth.h ****     void SetPitchRatio(float ratio);
  27:GranularSynth.h **** 
  28:GranularSynth.h ****     void SetSizeRnd(float rnd){ rnd_size_ = rnd; }
 2679              		.loc 13 28 10 view .LVU665
 2680              	.LBB402:
 2681              		.loc 13 28 33 view .LVU666
 2682              		.loc 13 28 43 is_stmt 0 view .LVU667
 2683 004a 0F4B     		ldr	r3, .L189+4
 2684              	.LVL172:
ARM GAS  /var/folders/2p/02m_5p7958535cp2tpgps0400000gn/T//ccA8p2F3.s 			page 80


 2685              	.L188:
 2686              		.loc 13 28 43 view .LVU668
 2687              	.LBE402:
 2688              	.LBE401:
 2689              	.LBB403:
 2690              	.LBB404:
  29:GranularSynth.h ****     void SetPositionRnd(float rnd){ rnd_spawn_pos_ = rnd; }
  30:GranularSynth.h ****     void SetPitchRnd(float rnd){ rnd_pitch_ = rnd; }
 2691              		.loc 13 30 45 view .LVU669
 2692 004c 83ED000A 		vstr.32	s0, [r3]
 2693              		.loc 13 30 52 view .LVU670
 2694 0050 7047     		bx	lr
 2695              	.L184:
 2696              		.loc 13 30 52 view .LVU671
 2697              	.LBE404:
 2698              	.LBE403:
 446:GrannyChordApp.cpp ****       break;
 447:GrannyChordApp.cpp ****     case SynthMode::Pitch_ActiveGrains_Rnd:
 2699              		.loc 5 447 5 is_stmt 1 view .LVU672
 448:GrannyChordApp.cpp ****       synth_.SetPitchRnd(knob1_val);
 2700              		.loc 5 448 7 view .LVU673
 2701              	.LVL173:
 2702              	.LBB406:
 2703              	.LBI403:
 2704              		.loc 13 30 10 view .LVU674
 2705              	.LBB405:
 2706              		.loc 13 30 34 view .LVU675
 2707              		.loc 13 30 45 is_stmt 0 view .LVU676
 2708 0052 0E4B     		ldr	r3, .L189+8
 2709 0054 FAE7     		b	.L188
 2710              	.LVL174:
 2711              	.L182:
 2712              		.loc 13 30 45 view .LVU677
 2713              	.LBE405:
 2714              	.LBE406:
 449:GrannyChordApp.cpp ****       break;
 450:GrannyChordApp.cpp ****     case SynthMode::PhasorMode_EnvType_Rnd:
 2715              		.loc 5 450 5 is_stmt 1 view .LVU678
 451:GrannyChordApp.cpp ****       synth_.SetPhasorRnd(knob1_val); 
 2716              		.loc 5 451 7 view .LVU679
 2717              	.LBB407:
 2718              	.LBI407:
  31:GranularSynth.h ****     void SetCountRnd(float rnd){ rnd_count_ = rnd; }
  32:GranularSynth.h ****     void SetPanRnd(float rnd){ rnd_pan_ = rnd; }
  33:GranularSynth.h ****     void SetEnvRnd(float rnd){ rnd_envelope_ = rnd; }
  34:GranularSynth.h ****     void SetPhasorRnd(float rnd){ rnd_phasor_ = rnd; }
 2719              		.loc 13 34 10 view .LVU680
 2720              	.LBB408:
 2721              		.loc 13 34 35 view .LVU681
 2722              		.loc 13 34 47 is_stmt 0 view .LVU682
 2723 0056 0E4B     		ldr	r3, .L189+12
 2724 0058 F8E7     		b	.L188
 2725              	.LVL175:
 2726              	.L179:
 2727              		.loc 13 34 47 view .LVU683
 2728              	.LBE408:
 2729              	.LBE407:
ARM GAS  /var/folders/2p/02m_5p7958535cp2tpgps0400000gn/T//ccA8p2F3.s 			page 81


 452:GrannyChordApp.cpp ****       break;
 453:GrannyChordApp.cpp ****     case SynthMode::Reverb:
 454:GrannyChordApp.cpp ****       /* set reverb feedback ie tail length */
 455:GrannyChordApp.cpp ****       // reverb_.SetFeedback(knob1_val); // NOTE check it doesn't clip
 456:GrannyChordApp.cpp ****       break;
 457:GrannyChordApp.cpp ****     case SynthMode::Filter:
 2730              		.loc 5 457 5 is_stmt 1 view .LVU684
 458:GrannyChordApp.cpp ****       // knob1_val = fmap(knob1_val, 20.0f, 20000.0f, daisysp::Mapping::EXP);
 459:GrannyChordApp.cpp ****       /* map knob value to frequency range with an exponential curve */
 460:GrannyChordApp.cpp ****       knob1_val = fmap(knob1_val, 20.0f, 5000.0f, daisysp::Mapping::EXP);
 2731              		.loc 5 460 7 view .LVU685
 2732              	.LBB409:
 2733              	.LBI409:
 177:../DaisySP/Source/Utility/dsp.h **** {
 2734              		.loc 12 177 1 view .LVU686
 2735              	.LBE409:
 179:../DaisySP/Source/Utility/dsp.h ****     {
 2736              		.loc 12 179 5 view .LVU687
 2737              	.LBB419:
 2738              	.LBB410:
 181:../DaisySP/Source/Utility/dsp.h ****             return fclamp(min + (in * in) * (max - min), min, max);
 2739              		.loc 12 181 9 view .LVU688
 182:../DaisySP/Source/Utility/dsp.h ****         case Mapping::LOG:
 2740              		.loc 12 182 13 view .LVU689
 182:../DaisySP/Source/Utility/dsp.h ****         case Mapping::LOG:
 2741              		.loc 12 182 26 is_stmt 0 view .LVU690
 2742 005a B3EE047A 		vmov.f32	s14, #2.0e+1
 2743 005e DFED0D6A 		vldr.32	s13, .L189+16
 182:../DaisySP/Source/Utility/dsp.h ****         case Mapping::LOG:
 2744              		.loc 12 182 37 view .LVU691
 2745 0062 20EE000A 		vmul.f32	s0, s0, s0
 2746              	.LVL176:
 182:../DaisySP/Source/Utility/dsp.h ****         case Mapping::LOG:
 2747              		.loc 12 182 37 view .LVU692
 2748              	.LBE410:
 2749              	.LBE419:
 2750              	.LBB420:
 2751              	.LBB421:
  39:DaisySP-LGPL-FX/moogladder.h ****     /** 
 2752              		.loc 3 39 45 view .LVU693
 2753 0066 0C4B     		ldr	r3, .L189+20
 2754              	.LBE421:
 2755              	.LBE420:
 2756              	.LBB423:
 2757              	.LBB417:
 182:../DaisySP/Source/Utility/dsp.h ****         case Mapping::LOG:
 2758              		.loc 12 182 26 view .LVU694
 2759 0068 F0EE477A 		vmov.f32	s15, s14
 2760 006c E0EE267A 		vfma.f32	s15, s0, s13
 2761              	.LVL177:
 2762              	.LBB411:
 2763              	.LBI411:
  64:../DaisySP/Source/Utility/dsp.h **** {
 2764              		.loc 12 64 14 is_stmt 1 view .LVU695
 2765              	.LBE411:
 2766              	.LBE417:
 2767              	.LBE423:
ARM GAS  /var/folders/2p/02m_5p7958535cp2tpgps0400000gn/T//ccA8p2F3.s 			page 82


  66:../DaisySP/Source/Utility/dsp.h **** }
 2768              		.loc 12 66 5 view .LVU696
 2769              	.LBB424:
 2770              	.LBB418:
 2771              	.LBB416:
 2772              	.LBB412:
 2773              	.LBI412:
  40:../DaisySP/Source/Utility/dsp.h **** {
 2774              		.loc 12 40 14 view .LVU697
 2775              	.LBB413:
  42:../DaisySP/Source/Utility/dsp.h **** #ifdef __arm__
 2776              		.loc 12 42 5 view .LVU698
  44:../DaisySP/Source/Utility/dsp.h **** #else
 2777              		.loc 12 44 5 view .LVU699
 2778              		.syntax unified
 2779              	@ 44 "../DaisySP/Source/Utility/dsp.h" 1
 2780 0070 C7FE877A 		vmaxnm.f32 s15, s15, s14
 2781              	@ 0 "" 2
 2782              	.LVL178:
  48:../DaisySP/Source/Utility/dsp.h **** }
 2783              		.loc 12 48 5 view .LVU700
  48:../DaisySP/Source/Utility/dsp.h **** }
 2784              		.loc 12 48 5 is_stmt 0 view .LVU701
 2785              		.thumb
 2786              		.syntax unified
 2787              	.LBE413:
 2788              	.LBE412:
 2789              	.LBB414:
 2790              	.LBI414:
  51:../DaisySP/Source/Utility/dsp.h **** {
 2791              		.loc 12 51 14 is_stmt 1 view .LVU702
 2792              	.LBB415:
  53:../DaisySP/Source/Utility/dsp.h **** #ifdef __arm__
 2793              		.loc 12 53 5 view .LVU703
  55:../DaisySP/Source/Utility/dsp.h **** #else
 2794              		.loc 12 55 5 view .LVU704
 2795 0074 9FED097A 		vldr.32	s14, .L189+24
 2796              	.LVL179:
  55:../DaisySP/Source/Utility/dsp.h **** #else
 2797              		.loc 12 55 5 is_stmt 0 view .LVU705
 2798              		.syntax unified
 2799              	@ 55 "../DaisySP/Source/Utility/dsp.h" 1
 2800 0078 C7FEC77A 		vminnm.f32 s15, s15, s14
 2801              	@ 0 "" 2
 2802              	.LVL180:
  59:../DaisySP/Source/Utility/dsp.h **** }
 2803              		.loc 12 59 5 is_stmt 1 view .LVU706
  59:../DaisySP/Source/Utility/dsp.h **** }
 2804              		.loc 12 59 5 is_stmt 0 view .LVU707
 2805              		.thumb
 2806              		.syntax unified
 2807              	.LBE415:
 2808              	.LBE414:
 2809              	.LBE416:
 2810              	.LBE418:
 2811              	.LBE424:
 461:GrannyChordApp.cpp ****       /* set cutoff frequency of low pass moog filter */
ARM GAS  /var/folders/2p/02m_5p7958535cp2tpgps0400000gn/T//ccA8p2F3.s 			page 83


 462:GrannyChordApp.cpp ****       lowpass_moog_.SetFreq(knob1_val);
 2812              		.loc 5 462 7 is_stmt 1 view .LVU708
 2813              	.LBB425:
 2814              	.LBI420:
  39:DaisySP-LGPL-FX/moogladder.h ****     /** 
 2815              		.loc 3 39 17 view .LVU709
 2816              	.LBB422:
  39:DaisySP-LGPL-FX/moogladder.h ****     /** 
 2817              		.loc 3 39 39 view .LVU710
  39:DaisySP-LGPL-FX/moogladder.h ****     /** 
 2818              		.loc 3 39 45 is_stmt 0 view .LVU711
 2819 007c C3ED177A 		vstr.32	s15, [r3, #92]
 2820              	.LVL181:
 2821              	.L177:
  39:DaisySP-LGPL-FX/moogladder.h ****     /** 
 2822              		.loc 3 39 45 view .LVU712
 2823              	.LBE422:
 2824              	.LBE425:
 463:GrannyChordApp.cpp ****       break;
 464:GrannyChordApp.cpp ****   }
 465:GrannyChordApp.cpp **** }
 2825              		.loc 5 465 1 view .LVU713
 2826 0080 7047     		bx	lr
 2827              	.L190:
 2828 0082 00BF     		.align	2
 2829              	.L189:
 2830 0084 00000000 		.word	0
 2831 0088 00000000 		.word	_ZN13GranularSynth9rnd_size_E
 2832 008c 00000000 		.word	_ZN13GranularSynth10rnd_pitch_E
 2833 0090 00000000 		.word	_ZN13GranularSynth11rnd_phasor_E
 2834 0094 00A09B45 		.word	1167826944
 2835 0098 00000000 		.word	.LANCHOR0
 2836 009c 00409C45 		.word	1167867904
 2837              		.cfi_endproc
 2838              	.LFE4964:
 2840              		.section	.text._ZN14GrannyChordApp17UpdateKnob2ParamsEf9SynthMode,"ax",%progbits
 2841              		.align	1
 2842              		.global	_ZN14GrannyChordApp17UpdateKnob2ParamsEf9SynthMode
 2843              		.syntax unified
 2844              		.thumb
 2845              		.thumb_func
 2847              	_ZN14GrannyChordApp17UpdateKnob2ParamsEf9SynthMode:
 2848              	.LVL182:
 2849              	.LFB4965:
 466:GrannyChordApp.cpp **** 
 467:GrannyChordApp.cpp **** void GrannyChordApp::UpdateKnob2Params(float knob2_val, SynthMode mode){
 2850              		.loc 5 467 72 is_stmt 1 view -0
 2851              		.cfi_startproc
 2852              		@ args = 0, pretend = 0, frame = 0
 2853              		@ frame_needed = 0, uses_anonymous_args = 0
 468:GrannyChordApp.cpp ****   switch (mode){
 2854              		.loc 5 468 3 view .LVU715
 467:GrannyChordApp.cpp ****   switch (mode){
 2855              		.loc 5 467 72 is_stmt 0 view .LVU716
 2856 0000 10B5     		push	{r4, lr}
 2857              		.cfi_def_cfa_offset 8
 2858              		.cfi_offset 4, -8
ARM GAS  /var/folders/2p/02m_5p7958535cp2tpgps0400000gn/T//ccA8p2F3.s 			page 84


 2859              		.cfi_offset 14, -4
 2860 0002 0446     		mov	r4, r0
 2861 0004 2DED028B 		vpush.64	{d8}
 2862              		.cfi_def_cfa_offset 16
 2863              		.cfi_offset 80, -16
 2864              		.cfi_offset 81, -12
 467:GrannyChordApp.cpp ****   switch (mode){
 2865              		.loc 5 467 72 view .LVU717
 2866 0008 B0EE408A 		vmov.f32	s16, s0
 2867              		.loc 5 468 3 view .LVU718
 2868 000c 0829     		cmp	r1, #8
 2869 000e 11D8     		bhi	.L191
 2870 0010 DFE801F0 		tbb	[pc, r1]
 2871              	.L194:
 2872 0014 05       		.byte	(.L202-.L194)/2
 2873 0015 2A       		.byte	(.L201-.L194)/2
 2874 0016 08       		.byte	(.L200-.L194)/2
 2875 0017 2C       		.byte	(.L199-.L194)/2
 2876 0018 13       		.byte	(.L198-.L194)/2
 2877 0019 2E       		.byte	(.L197-.L194)/2
 2878 001a 0D       		.byte	(.L196-.L194)/2
 2879 001b 10       		.byte	(.L191-.L194)/2
 2880 001c 30       		.byte	(.L193-.L194)/2
 2881 001d 00       		.p2align 1
 2882              	.L202:
 469:GrannyChordApp.cpp ****     case SynthMode::Size_Position:
 2883              		.loc 5 469 5 is_stmt 1 view .LVU719
 470:GrannyChordApp.cpp ****       synth_.SetSpawnPos(knob2_val);
 2884              		.loc 5 470 7 view .LVU720
 2885              		.loc 5 470 25 is_stmt 0 view .LVU721
 2886 001e 0430     		adds	r0, r0, #4
 2887              	.LVL183:
 2888              		.loc 5 470 25 view .LVU722
 2889 0020 FFF7FEFF 		bl	_ZN13GranularSynth11SetSpawnPosEf
 2890              	.LVL184:
 2891              	.L200:
 471:GrannyChordApp.cpp ****     case SynthMode::Pitch_ActiveGrains:
 2892              		.loc 5 471 5 is_stmt 1 view .LVU723
 472:GrannyChordApp.cpp ****       synth_.SetActiveGrains(knob2_val);
 2893              		.loc 5 472 7 view .LVU724
 2894              		.loc 5 472 29 is_stmt 0 view .LVU725
 2895 0024 B0EE480A 		vmov.f32	s0, s16
 2896 0028 201D     		adds	r0, r4, #4
 2897 002a FFF7FEFF 		bl	_ZN13GranularSynth15SetActiveGrainsEf
 2898              	.LVL185:
 2899              	.L196:
 473:GrannyChordApp.cpp ****     case SynthMode::Pan_PanRnd:
 2900              		.loc 5 473 5 is_stmt 1 view .LVU726
 474:GrannyChordApp.cpp ****       synth_.SetPanRnd(knob2_val);
 2901              		.loc 5 474 7 view .LVU727
 2902              	.LBB457:
 2903              	.LBI457:
  32:GranularSynth.h ****     void SetEnvRnd(float rnd){ rnd_envelope_ = rnd; }
 2904              		.loc 13 32 10 view .LVU728
 2905              	.LBB458:
  32:GranularSynth.h ****     void SetEnvRnd(float rnd){ rnd_envelope_ = rnd; }
 2906              		.loc 13 32 32 view .LVU729
ARM GAS  /var/folders/2p/02m_5p7958535cp2tpgps0400000gn/T//ccA8p2F3.s 			page 85


  32:GranularSynth.h ****     void SetEnvRnd(float rnd){ rnd_envelope_ = rnd; }
 2907              		.loc 13 32 41 is_stmt 0 view .LVU730
 2908 002e 264B     		ldr	r3, .L205
 2909              	.LVL186:
 2910              	.L204:
  32:GranularSynth.h ****     void SetEnvRnd(float rnd){ rnd_envelope_ = rnd; }
 2911              		.loc 13 32 41 view .LVU731
 2912              	.LBE458:
 2913              	.LBE457:
 2914              	.LBB459:
 2915              	.LBB460:
  33:GranularSynth.h ****     void SetPhasorRnd(float rnd){ rnd_phasor_ = rnd; }
 2916              		.loc 13 33 46 view .LVU732
 2917 0030 83ED008A 		vstr.32	s16, [r3]
 2918              	.LVL187:
 2919              	.L191:
  33:GranularSynth.h ****     void SetPhasorRnd(float rnd){ rnd_phasor_ = rnd; }
 2920              		.loc 13 33 46 view .LVU733
 2921              	.LBE460:
 2922              	.LBE459:
 475:GrannyChordApp.cpp ****       break;
 476:GrannyChordApp.cpp ****     case SynthMode::PhasorMode_EnvType:
 477:GrannyChordApp.cpp ****       knob2_val = fmap(knob2_val, 0, NUM_ENV_TYPES);
 478:GrannyChordApp.cpp ****       synth_.SetEnvelopeType(static_cast<Grain::EnvelopeType>(knob2_val));
 479:GrannyChordApp.cpp ****       break;
 480:GrannyChordApp.cpp ****     case SynthMode::Size_Position_Rnd:
 481:GrannyChordApp.cpp ****       synth_.SetPositionRnd(knob2_val);
 482:GrannyChordApp.cpp ****       break;
 483:GrannyChordApp.cpp ****     case SynthMode::Pitch_ActiveGrains_Rnd:
 484:GrannyChordApp.cpp ****       synth_.SetCountRnd(knob2_val);
 485:GrannyChordApp.cpp ****       break;
 486:GrannyChordApp.cpp ****     case SynthMode::PhasorMode_EnvType_Rnd:
 487:GrannyChordApp.cpp ****       synth_.SetEnvRnd(knob2_val);
 488:GrannyChordApp.cpp ****       break;
 489:GrannyChordApp.cpp ****     case SynthMode::Reverb:
 490:GrannyChordApp.cpp ****       /* map knob value to frequency range with an exponential curve */
 491:GrannyChordApp.cpp ****       knob2_val = fmap(knob2_val, 100.0f, 20000.0f, daisysp::Mapping::EXP);
 492:GrannyChordApp.cpp ****       /* set reverb low pass frequency */
 493:GrannyChordApp.cpp ****       // reverb_.SetLpFreq(knob2_val);
 494:GrannyChordApp.cpp ****       break;
 495:GrannyChordApp.cpp ****     case SynthMode::Filter:
 496:GrannyChordApp.cpp ****       /* again, map knob value to frequency range with an exponential curve */
 497:GrannyChordApp.cpp ****       knob2_val = fmap(knob2_val, 0.001f, 0.497f, daisysp::Mapping::EXP);
 498:GrannyChordApp.cpp ****       /* set cutoff frequency for high pass filter */
 499:GrannyChordApp.cpp ****       hipass_.SetFrequency(knob2_val);
 500:GrannyChordApp.cpp ****       break;
 501:GrannyChordApp.cpp ****   }
 502:GrannyChordApp.cpp **** }
 2923              		.loc 5 502 1 view .LVU734
 2924 0034 BDEC028B 		vldm	sp!, {d8}
 2925              		.cfi_remember_state
 2926              		.cfi_restore 80
 2927              		.cfi_restore 81
 2928              		.cfi_def_cfa_offset 8
 2929 0038 10BD     		pop	{r4, pc}
 2930              	.LVL188:
 2931              	.L198:
ARM GAS  /var/folders/2p/02m_5p7958535cp2tpgps0400000gn/T//ccA8p2F3.s 			page 86


 2932              		.cfi_restore_state
 476:GrannyChordApp.cpp ****       knob2_val = fmap(knob2_val, 0, NUM_ENV_TYPES);
 2933              		.loc 5 476 5 is_stmt 1 view .LVU735
 477:GrannyChordApp.cpp ****       synth_.SetEnvelopeType(static_cast<Grain::EnvelopeType>(knob2_val));
 2934              		.loc 5 477 7 view .LVU736
 2935              	.LBB462:
 2936              	.LBI462:
 177:../DaisySP/Source/Utility/dsp.h **** {
 2937              		.loc 12 177 1 view .LVU737
 2938              	.LBE462:
 179:../DaisySP/Source/Utility/dsp.h ****     {
 2939              		.loc 12 179 5 view .LVU738
 2940              	.LBB473:
 2941              	.LBB463:
 188:../DaisySP/Source/Utility/dsp.h ****         default: return fclamp(min + in * (max - min), min, max);
 2942              		.loc 12 188 9 view .LVU739
 2943              		.loc 12 189 9 view .LVU740
 2944              		.loc 12 189 18 view .LVU741
 2945              		.loc 12 189 31 is_stmt 0 view .LVU742
 2946 003a DFED246A 		vldr.32	s13, .L205+4
 2947 003e B1EE007A 		vmov.f32	s14, #4.0e+0
 2948              	.LBE463:
 2949              	.LBE473:
 478:GrannyChordApp.cpp ****       break;
 2950              		.loc 5 478 29 view .LVU743
 2951 0042 0430     		adds	r0, r0, #4
 2952              	.LVL189:
 2953              	.LBB474:
 2954              	.LBB470:
 2955              		.loc 12 189 31 view .LVU744
 2956 0044 F0EE667A 		vmov.f32	s15, s13
 2957              	.LBE470:
 2958              	.LBE474:
 2959              		.loc 5 502 1 view .LVU745
 2960 0048 BDEC028B 		vldm	sp!, {d8}
 2961              		.cfi_remember_state
 2962              		.cfi_restore 80
 2963              		.cfi_restore 81
 2964              		.cfi_def_cfa_offset 8
 2965              	.LBB475:
 2966              	.LBB471:
 2967              		.loc 12 189 31 view .LVU746
 2968 004c E0EE077A 		vfma.f32	s15, s0, s14
 2969              	.LVL190:
 2970              	.LBB464:
 2971              	.LBI464:
  64:../DaisySP/Source/Utility/dsp.h **** {
 2972              		.loc 12 64 14 is_stmt 1 view .LVU747
 2973              	.LBE464:
 2974              	.LBE471:
 2975              	.LBE475:
  66:../DaisySP/Source/Utility/dsp.h **** }
 2976              		.loc 12 66 5 view .LVU748
 2977              	.LBB476:
 2978              	.LBB472:
 2979              	.LBB469:
 2980              	.LBB465:
ARM GAS  /var/folders/2p/02m_5p7958535cp2tpgps0400000gn/T//ccA8p2F3.s 			page 87


 2981              	.LBI465:
  40:../DaisySP/Source/Utility/dsp.h **** {
 2982              		.loc 12 40 14 view .LVU749
 2983              	.LBB466:
  42:../DaisySP/Source/Utility/dsp.h **** #ifdef __arm__
 2984              		.loc 12 42 5 view .LVU750
  44:../DaisySP/Source/Utility/dsp.h **** #else
 2985              		.loc 12 44 5 view .LVU751
 2986              		.syntax unified
 2987              	@ 44 "../DaisySP/Source/Utility/dsp.h" 1
 2988 0050 C7FEA67A 		vmaxnm.f32 s15, s15, s13
 2989              	@ 0 "" 2
 2990              	.LVL191:
  48:../DaisySP/Source/Utility/dsp.h **** }
 2991              		.loc 12 48 5 view .LVU752
  48:../DaisySP/Source/Utility/dsp.h **** }
 2992              		.loc 12 48 5 is_stmt 0 view .LVU753
 2993              		.thumb
 2994              		.syntax unified
 2995              	.LBE466:
 2996              	.LBE465:
 2997              	.LBB467:
 2998              	.LBI467:
  51:../DaisySP/Source/Utility/dsp.h **** {
 2999              		.loc 12 51 14 is_stmt 1 view .LVU754
 3000              	.LBB468:
  53:../DaisySP/Source/Utility/dsp.h **** #ifdef __arm__
 3001              		.loc 12 53 5 view .LVU755
  55:../DaisySP/Source/Utility/dsp.h **** #else
 3002              		.loc 12 55 5 view .LVU756
 3003              		.syntax unified
 3004              	@ 55 "../DaisySP/Source/Utility/dsp.h" 1
 3005 0054 C7FEC77A 		vminnm.f32 s15, s15, s14
 3006              	@ 0 "" 2
 3007              	.LVL192:
  59:../DaisySP/Source/Utility/dsp.h **** }
 3008              		.loc 12 59 5 view .LVU757
  59:../DaisySP/Source/Utility/dsp.h **** }
 3009              		.loc 12 59 5 is_stmt 0 view .LVU758
 3010              		.thumb
 3011              		.syntax unified
 3012              	.LBE468:
 3013              	.LBE467:
 3014              	.LBE469:
 3015              	.LBE472:
 3016              	.LBE476:
 478:GrannyChordApp.cpp ****       break;
 3017              		.loc 5 478 7 is_stmt 1 view .LVU759
 478:GrannyChordApp.cpp ****       break;
 3018              		.loc 5 478 29 is_stmt 0 view .LVU760
 3019 0058 FDEEE77A 		vcvt.s32.f32	s15, s15
 3020              	.LVL193:
 3021              		.loc 5 502 1 view .LVU761
 3022 005c BDE81040 		pop	{r4, lr}
 3023              		.cfi_restore 14
 3024              		.cfi_restore 4
 3025              		.cfi_def_cfa_offset 0
ARM GAS  /var/folders/2p/02m_5p7958535cp2tpgps0400000gn/T//ccA8p2F3.s 			page 88


 3026              	.LVL194:
 478:GrannyChordApp.cpp ****       break;
 3027              		.loc 5 478 29 view .LVU762
 3028 0060 17EE901A 		vmov	r1, s15	@ int
 3029              	.LVL195:
 478:GrannyChordApp.cpp ****       break;
 3030              		.loc 5 478 29 view .LVU763
 3031 0064 FFF7FEBF 		b	_ZN13GranularSynth15SetEnvelopeTypeEN5Grain12EnvelopeTypeE
 3032              	.LVL196:
 3033              	.L201:
 3034              		.cfi_restore_state
 480:GrannyChordApp.cpp ****       synth_.SetPositionRnd(knob2_val);
 3035              		.loc 5 480 5 is_stmt 1 view .LVU764
 481:GrannyChordApp.cpp ****       break;
 3036              		.loc 5 481 7 view .LVU765
 3037              	.LBB477:
 3038              	.LBI477:
  29:GranularSynth.h ****     void SetPitchRnd(float rnd){ rnd_pitch_ = rnd; }
 3039              		.loc 13 29 10 view .LVU766
 3040              	.LBB478:
  29:GranularSynth.h ****     void SetPitchRnd(float rnd){ rnd_pitch_ = rnd; }
 3041              		.loc 13 29 37 view .LVU767
  29:GranularSynth.h ****     void SetPitchRnd(float rnd){ rnd_pitch_ = rnd; }
 3042              		.loc 13 29 52 is_stmt 0 view .LVU768
 3043 0068 194B     		ldr	r3, .L205+8
 3044 006a E1E7     		b	.L204
 3045              	.LVL197:
 3046              	.L199:
  29:GranularSynth.h ****     void SetPitchRnd(float rnd){ rnd_pitch_ = rnd; }
 3047              		.loc 13 29 52 view .LVU769
 3048              	.LBE478:
 3049              	.LBE477:
 483:GrannyChordApp.cpp ****       synth_.SetCountRnd(knob2_val);
 3050              		.loc 5 483 5 is_stmt 1 view .LVU770
 484:GrannyChordApp.cpp ****       break;
 3051              		.loc 5 484 7 view .LVU771
 3052              	.LBB479:
 3053              	.LBI479:
  31:GranularSynth.h ****     void SetPanRnd(float rnd){ rnd_pan_ = rnd; }
 3054              		.loc 13 31 10 view .LVU772
 3055              	.LBB480:
  31:GranularSynth.h ****     void SetPanRnd(float rnd){ rnd_pan_ = rnd; }
 3056              		.loc 13 31 34 view .LVU773
  31:GranularSynth.h ****     void SetPanRnd(float rnd){ rnd_pan_ = rnd; }
 3057              		.loc 13 31 45 is_stmt 0 view .LVU774
 3058 006c 194B     		ldr	r3, .L205+12
 3059 006e DFE7     		b	.L204
 3060              	.LVL198:
 3061              	.L197:
  31:GranularSynth.h ****     void SetPanRnd(float rnd){ rnd_pan_ = rnd; }
 3062              		.loc 13 31 45 view .LVU775
 3063              	.LBE480:
 3064              	.LBE479:
 486:GrannyChordApp.cpp ****       synth_.SetEnvRnd(knob2_val);
 3065              		.loc 5 486 5 is_stmt 1 view .LVU776
 487:GrannyChordApp.cpp ****       break;
 3066              		.loc 5 487 7 view .LVU777
ARM GAS  /var/folders/2p/02m_5p7958535cp2tpgps0400000gn/T//ccA8p2F3.s 			page 89


 3067              	.LBB481:
 3068              	.LBI459:
  33:GranularSynth.h ****     void SetPhasorRnd(float rnd){ rnd_phasor_ = rnd; }
 3069              		.loc 13 33 10 view .LVU778
 3070              	.LBB461:
  33:GranularSynth.h ****     void SetPhasorRnd(float rnd){ rnd_phasor_ = rnd; }
 3071              		.loc 13 33 32 view .LVU779
  33:GranularSynth.h ****     void SetPhasorRnd(float rnd){ rnd_phasor_ = rnd; }
 3072              		.loc 13 33 46 is_stmt 0 view .LVU780
 3073 0070 194B     		ldr	r3, .L205+16
 3074 0072 DDE7     		b	.L204
 3075              	.LVL199:
 3076              	.L193:
  33:GranularSynth.h ****     void SetPhasorRnd(float rnd){ rnd_phasor_ = rnd; }
 3077              		.loc 13 33 46 view .LVU781
 3078              	.LBE461:
 3079              	.LBE481:
 495:GrannyChordApp.cpp ****       /* again, map knob value to frequency range with an exponential curve */
 3080              		.loc 5 495 5 is_stmt 1 view .LVU782
 497:GrannyChordApp.cpp ****       /* set cutoff frequency for high pass filter */
 3081              		.loc 5 497 7 view .LVU783
 3082              	.LBB482:
 3083              	.LBI482:
 177:../DaisySP/Source/Utility/dsp.h **** {
 3084              		.loc 12 177 1 view .LVU784
 3085              	.LBE482:
 179:../DaisySP/Source/Utility/dsp.h ****     {
 3086              		.loc 12 179 5 view .LVU785
 3087              	.LBB495:
 3088              	.LBB483:
 181:../DaisySP/Source/Utility/dsp.h ****             return fclamp(min + (in * in) * (max - min), min, max);
 3089              		.loc 12 181 9 view .LVU786
 182:../DaisySP/Source/Utility/dsp.h ****         case Mapping::LOG:
 3090              		.loc 12 182 13 view .LVU787
 182:../DaisySP/Source/Utility/dsp.h ****         case Mapping::LOG:
 3091              		.loc 12 182 37 is_stmt 0 view .LVU788
 3092 0074 20EE008A 		vmul.f32	s16, s0, s0
 182:../DaisySP/Source/Utility/dsp.h ****         case Mapping::LOG:
 3093              		.loc 12 182 26 view .LVU789
 3094 0078 9FED180A 		vldr.32	s0, .L205+20
 3095              	.LVL200:
 182:../DaisySP/Source/Utility/dsp.h ****         case Mapping::LOG:
 3096              		.loc 12 182 26 view .LVU790
 3097 007c 9FED187A 		vldr.32	s14, .L205+24
 3098 0080 F0EE407A 		vmov.f32	s15, s0
 3099 0084 E8EE077A 		vfma.f32	s15, s16, s14
 3100              	.LVL201:
 3101              	.LBB484:
 3102              	.LBI484:
  64:../DaisySP/Source/Utility/dsp.h **** {
 3103              		.loc 12 64 14 is_stmt 1 view .LVU791
 3104              	.LBE484:
 3105              	.LBE483:
 3106              	.LBE495:
  66:../DaisySP/Source/Utility/dsp.h **** }
 3107              		.loc 12 66 5 view .LVU792
 3108              	.LBB496:
ARM GAS  /var/folders/2p/02m_5p7958535cp2tpgps0400000gn/T//ccA8p2F3.s 			page 90


 3109              	.LBB494:
 3110              	.LBB493:
 3111              	.LBB485:
 3112              	.LBI485:
  40:../DaisySP/Source/Utility/dsp.h **** {
 3113              		.loc 12 40 14 view .LVU793
 3114              	.LBB486:
  42:../DaisySP/Source/Utility/dsp.h **** #ifdef __arm__
 3115              		.loc 12 42 5 view .LVU794
  44:../DaisySP/Source/Utility/dsp.h **** #else
 3116              		.loc 12 44 5 view .LVU795
 3117              	.LBE486:
 3118              	.LBE485:
 3119              	.LBB488:
 3120              	.LBB489:
  55:../DaisySP/Source/Utility/dsp.h **** #else
 3121              		.loc 12 55 5 is_stmt 0 view .LVU796
 3122 0088 9FED167A 		vldr.32	s14, .L205+28
 3123              	.LBE489:
 3124              	.LBE488:
 3125              	.LBB491:
 3126              	.LBB487:
  44:../DaisySP/Source/Utility/dsp.h **** #else
 3127              		.loc 12 44 5 view .LVU797
 3128              		.syntax unified
 3129              	@ 44 "../DaisySP/Source/Utility/dsp.h" 1
 3130 008c C7FE807A 		vmaxnm.f32 s15, s15, s0
 3131              	@ 0 "" 2
 3132              	.LVL202:
  48:../DaisySP/Source/Utility/dsp.h **** }
 3133              		.loc 12 48 5 is_stmt 1 view .LVU798
  48:../DaisySP/Source/Utility/dsp.h **** }
 3134              		.loc 12 48 5 is_stmt 0 view .LVU799
 3135              		.thumb
 3136              		.syntax unified
 3137              	.LBE487:
 3138              	.LBE491:
 3139              	.LBB492:
 3140              	.LBI488:
  51:../DaisySP/Source/Utility/dsp.h **** {
 3141              		.loc 12 51 14 is_stmt 1 view .LVU800
 3142              	.LBB490:
  53:../DaisySP/Source/Utility/dsp.h **** #ifdef __arm__
 3143              		.loc 12 53 5 view .LVU801
  55:../DaisySP/Source/Utility/dsp.h **** #else
 3144              		.loc 12 55 5 view .LVU802
 3145              		.syntax unified
 3146              	@ 55 "../DaisySP/Source/Utility/dsp.h" 1
 3147 0090 C7FEC77A 		vminnm.f32 s15, s15, s14
 3148              	@ 0 "" 2
 3149              	.LVL203:
  59:../DaisySP/Source/Utility/dsp.h **** }
 3150              		.loc 12 59 5 view .LVU803
  59:../DaisySP/Source/Utility/dsp.h **** }
 3151              		.loc 12 59 5 is_stmt 0 view .LVU804
 3152              		.thumb
 3153              		.syntax unified
ARM GAS  /var/folders/2p/02m_5p7958535cp2tpgps0400000gn/T//ccA8p2F3.s 			page 91


 3154              	.LBE490:
 3155              	.LBE492:
 3156              	.LBE493:
 3157              	.LBE494:
 3158              	.LBE496:
 499:GrannyChordApp.cpp ****       break;
 3159              		.loc 5 499 7 is_stmt 1 view .LVU805
 3160              	.LBB497:
 3161              	.LBI497:
  56:../DaisySP/Source/Filters/onepole.h ****     {
 3162              		.loc 1 56 17 view .LVU806
 3163              	.LBB498:
  59:../DaisySP/Source/Filters/onepole.h **** 
 3164              		.loc 1 59 9 view .LVU807
  59:../DaisySP/Source/Filters/onepole.h **** 
 3165              		.loc 1 59 30 is_stmt 0 view .LVU808
 3166 0094 F4EEC77A 		vcmpe.f32	s15, s14
  61:../DaisySP/Source/Filters/onepole.h ****         gi_ = 1.f / (1.f + g_);
 3167              		.loc 1 61 19 view .LVU809
 3168 0098 9FED130A 		vldr.32	s0, .L205+32
  59:../DaisySP/Source/Filters/onepole.h **** 
 3169              		.loc 1 59 30 view .LVU810
 3170 009c F1EE10FA 		vmrs	APSR_nzcv, FPSCR
 3171 00a0 58BF     		it	pl
 3172 00a2 F0EE477A 		vmovpl.f32	s15, s14
 3173              	.LVL204:
  61:../DaisySP/Source/Filters/onepole.h ****         gi_ = 1.f / (1.f + g_);
 3174              		.loc 1 61 9 is_stmt 1 view .LVU811
  61:../DaisySP/Source/Filters/onepole.h ****         gi_ = 1.f / (1.f + g_);
 3175              		.loc 1 61 19 is_stmt 0 view .LVU812
 3176 00a6 27EE800A 		vmul.f32	s0, s15, s0
 3177 00aa FFF7FEFF 		bl	tanf
 3178              	.LVL205:
  62:../DaisySP/Source/Filters/onepole.h ****     }
 3179              		.loc 1 62 26 view .LVU813
 3180 00ae F7EE007A 		vmov.f32	s15, #1.0e+0
  61:../DaisySP/Source/Filters/onepole.h ****         gi_ = 1.f / (1.f + g_);
 3181              		.loc 1 61 13 view .LVU814
 3182 00b2 0E4B     		ldr	r3, .L205+36
 3183 00b4 83ED260A 		vstr.32	s0, [r3, #152]
  62:../DaisySP/Source/Filters/onepole.h ****     }
 3184              		.loc 1 62 9 is_stmt 1 view .LVU815
  62:../DaisySP/Source/Filters/onepole.h ****     }
 3185              		.loc 1 62 26 is_stmt 0 view .LVU816
 3186 00b8 30EE270A 		vadd.f32	s0, s0, s15
  62:../DaisySP/Source/Filters/onepole.h ****     }
 3187              		.loc 1 62 19 view .LVU817
 3188 00bc 87EE807A 		vdiv.f32	s14, s15, s0
  62:../DaisySP/Source/Filters/onepole.h ****     }
 3189              		.loc 1 62 13 view .LVU818
 3190 00c0 83ED277A 		vstr.32	s14, [r3, #156]
 3191              	.LVL206:
  62:../DaisySP/Source/Filters/onepole.h ****     }
 3192              		.loc 1 62 13 view .LVU819
 3193              	.LBE498:
 3194              	.LBE497:
 3195              		.loc 5 502 1 view .LVU820
ARM GAS  /var/folders/2p/02m_5p7958535cp2tpgps0400000gn/T//ccA8p2F3.s 			page 92


 3196 00c4 B6E7     		b	.L191
 3197              	.L206:
 3198 00c6 00BF     		.align	2
 3199              	.L205:
 3200 00c8 00000000 		.word	_ZN13GranularSynth8rnd_pan_E
 3201 00cc 00000000 		.word	0
 3202 00d0 00000000 		.word	_ZN13GranularSynth14rnd_spawn_pos_E
 3203 00d4 00000000 		.word	_ZN13GranularSynth10rnd_count_E
 3204 00d8 00000000 		.word	_ZN13GranularSynth13rnd_envelope_E
 3205 00dc 6F12833A 		.word	981668463
 3206 00e0 B7F3FD3E 		.word	1056830391
 3207 00e4 C976FE3E 		.word	1056863945
 3208 00e8 DB0F4940 		.word	1078530011
 3209 00ec 00000000 		.word	.LANCHOR0
 3210              		.cfi_endproc
 3211              	.LFE4965:
 3213              		.section	.text._ZN14GrannyChordApp17UpdateSynthParamsEv,"ax",%progbits
 3214              		.align	1
 3215              		.global	_ZN14GrannyChordApp17UpdateSynthParamsEv
 3216              		.syntax unified
 3217              		.thumb
 3218              		.thumb_func
 3220              	_ZN14GrannyChordApp17UpdateSynthParamsEv:
 3221              	.LVL207:
 3222              	.LFB4945:
 178:GrannyChordApp.cpp ****   if (curr_state_!=AppState::Synthesis) return;
 3223              		.loc 5 178 41 is_stmt 1 view -0
 3224              		.cfi_startproc
 3225              		@ args = 0, pretend = 0, frame = 0
 3226              		@ frame_needed = 0, uses_anonymous_args = 0
 179:GrannyChordApp.cpp ****   int mode_idx = static_cast<int>(curr_synth_mode_);
 3227              		.loc 5 179 3 view .LVU822
 178:GrannyChordApp.cpp ****   if (curr_state_!=AppState::Synthesis) return;
 3228              		.loc 5 178 41 is_stmt 0 view .LVU823
 3229 0000 F8B5     		push	{r3, r4, r5, r6, r7, lr}
 3230              		.cfi_def_cfa_offset 24
 3231              		.cfi_offset 3, -24
 3232              		.cfi_offset 4, -20
 3233              		.cfi_offset 5, -16
 3234              		.cfi_offset 6, -12
 3235              		.cfi_offset 7, -8
 3236              		.cfi_offset 14, -4
 179:GrannyChordApp.cpp ****   int mode_idx = static_cast<int>(curr_synth_mode_);
 3237              		.loc 5 179 18 view .LVU824
 3238 0002 314D     		ldr	r5, .L224
 178:GrannyChordApp.cpp ****   if (curr_state_!=AppState::Synthesis) return;
 3239              		.loc 5 178 41 view .LVU825
 3240 0004 0446     		mov	r4, r0
 179:GrannyChordApp.cpp ****   int mode_idx = static_cast<int>(curr_synth_mode_);
 3241              		.loc 5 179 3 view .LVU826
 3242 0006 2B68     		ldr	r3, [r5]
 3243 0008 022B     		cmp	r3, #2
 178:GrannyChordApp.cpp ****   if (curr_state_!=AppState::Synthesis) return;
 3244              		.loc 5 178 41 view .LVU827
 3245 000a 2DED048B 		vpush.64	{d8, d9}
 3246              		.cfi_def_cfa_offset 40
 3247              		.cfi_offset 80, -40
ARM GAS  /var/folders/2p/02m_5p7958535cp2tpgps0400000gn/T//ccA8p2F3.s 			page 93


 3248              		.cfi_offset 81, -36
 3249              		.cfi_offset 82, -32
 3250              		.cfi_offset 83, -28
 179:GrannyChordApp.cpp ****   int mode_idx = static_cast<int>(curr_synth_mode_);
 3251              		.loc 5 179 3 view .LVU828
 3252 000e 52D1     		bne	.L207
 3253              	.LVL208:
 3254              	.LBB509:
 3255              	.LBI509:
 178:GrannyChordApp.cpp ****   if (curr_state_!=AppState::Synthesis) return;
 3256              		.loc 5 178 6 is_stmt 1 view .LVU829
 3257              	.LBB510:
 180:GrannyChordApp.cpp ****   float knob1_val = MapKnobDeadzone(pod_.knob1.Process());
 3258              		.loc 5 180 3 view .LVU830
 181:GrannyChordApp.cpp ****   float knob2_val = MapKnobDeadzone(pod_.knob2.Process());
 3259              		.loc 5 181 36 is_stmt 0 view .LVU831
 3260 0010 0068     		ldr	r0, [r0]
 3261              	.LVL209:
 3262              	.LBB511:
 3263              	.LBB512:
 503:GrannyChordApp.cpp **** 
 504:GrannyChordApp.cpp **** /* check parameter value change is over a certain level to avoid reading knob jitter */
 505:GrannyChordApp.cpp **** inline constexpr bool GrannyChordApp::CheckParamDelta(float curr_val, float prev_val){
 506:GrannyChordApp.cpp ****   return (fabsf(curr_val - prev_val)>0.01f);
 507:GrannyChordApp.cpp **** }
 508:GrannyChordApp.cpp **** 
 509:GrannyChordApp.cpp **** 
 510:GrannyChordApp.cpp **** /* knobs on the Pod have deadzones around 0 and 1 so we adjust for this */
 511:GrannyChordApp.cpp **** inline constexpr float GrannyChordApp::MapKnobDeadzone(float knob_val ){
 512:GrannyChordApp.cpp ****   if (knob_val<=0.01f) return 0.0f;
 3264              		.loc 5 512 3 view .LVU832
 3265 0012 9FED2E9A 		vldr.32	s18, .L224+4
 3266              	.LBE512:
 3267              	.LBE511:
 181:GrannyChordApp.cpp ****   float knob2_val = MapKnobDeadzone(pod_.knob2.Process());
 3268              		.loc 5 181 36 view .LVU833
 3269 0016 6830     		adds	r0, r0, #104
 180:GrannyChordApp.cpp ****   float knob1_val = MapKnobDeadzone(pod_.knob1.Process());
 3270              		.loc 5 180 7 view .LVU834
 3271 0018 AE68     		ldr	r6, [r5, #8]
 3272              	.LVL210:
 181:GrannyChordApp.cpp ****   float knob2_val = MapKnobDeadzone(pod_.knob2.Process());
 3273              		.loc 5 181 3 is_stmt 1 view .LVU835
 181:GrannyChordApp.cpp ****   float knob2_val = MapKnobDeadzone(pod_.knob2.Process());
 3274              		.loc 5 181 36 is_stmt 0 view .LVU836
 3275 001a FFF7FEFF 		bl	_ZN5daisy13AnalogControl7ProcessEv
 3276              	.LVL211:
 3277              	.LBB515:
 3278              	.LBI511:
 511:GrannyChordApp.cpp ****   if (knob_val<=0.01f) return 0.0f;
 3279              		.loc 5 511 24 is_stmt 1 view .LVU837
 3280              	.LBB513:
 3281              		.loc 5 512 3 view .LVU838
 3282 001e B4EEC90A 		vcmpe.f32	s0, s18
 3283 0022 F1EE10FA 		vmrs	APSR_nzcv, FPSCR
 3284 0026 49D9     		bls	.L218
 513:GrannyChordApp.cpp ****   if (knob_val>=0.99f) return 1.0f;
ARM GAS  /var/folders/2p/02m_5p7958535cp2tpgps0400000gn/T//ccA8p2F3.s 			page 94


 3285              		.loc 5 513 3 view .LVU839
 3286              		.loc 5 513 31 is_stmt 0 view .LVU840
 3287 0028 DFED297A 		vldr.32	s15, .L224+8
 3288 002c B4EE670A 		vcmp.f32	s0, s15
 3289 0030 F7EE007A 		vmov.f32	s15, #1.0e+0
 3290 0034 F1EE10FA 		vmrs	APSR_nzcv, FPSCR
 3291 0038 67FE808A 		vselge.f32	s17, s15, s0
 3292              	.L210:
 3293              	.LVL212:
 3294              		.loc 5 513 31 view .LVU841
 3295              	.LBE513:
 3296              	.LBE515:
 182:GrannyChordApp.cpp **** 
 3297              		.loc 5 182 3 is_stmt 1 view .LVU842
 182:GrannyChordApp.cpp **** 
 3298              		.loc 5 182 36 is_stmt 0 view .LVU843
 3299 003c 2068     		ldr	r0, [r4]
 3300 003e 8830     		adds	r0, r0, #136
 3301 0040 FFF7FEFF 		bl	_ZN5daisy13AnalogControl7ProcessEv
 3302              	.LVL213:
 3303              	.LBB516:
 3304              	.LBI516:
 511:GrannyChordApp.cpp ****   if (knob_val<=0.01f) return 0.0f;
 3305              		.loc 5 511 24 is_stmt 1 view .LVU844
 3306              	.LBB517:
 512:GrannyChordApp.cpp ****   if (knob_val>=0.99f) return 1.0f;
 3307              		.loc 5 512 3 view .LVU845
 3308 0044 B4EEC90A 		vcmpe.f32	s0, s18
 3309 0048 F1EE10FA 		vmrs	APSR_nzcv, FPSCR
 3310 004c 39D9     		bls	.L219
 3311              		.loc 5 513 3 view .LVU846
 3312              		.loc 5 513 31 is_stmt 0 view .LVU847
 3313 004e DFED207A 		vldr.32	s15, .L224+8
 3314 0052 B4EE670A 		vcmp.f32	s0, s15
 3315 0056 F7EE007A 		vmov.f32	s15, #1.0e+0
 3316 005a F1EE10FA 		vmrs	APSR_nzcv, FPSCR
 3317 005e 27FE808A 		vselge.f32	s16, s15, s0
 3318              	.L212:
 3319              	.LVL214:
 3320              		.loc 5 513 31 view .LVU848
 3321              	.LBE517:
 3322              	.LBE516:
 184:GrannyChordApp.cpp ****     UpdateKnob1Params(knob1_val,curr_synth_mode_);
 3323              		.loc 5 184 3 is_stmt 1 view .LVU849
 3324              	.LBB519:
 3325              	.LBI519:
 505:GrannyChordApp.cpp ****   return (fabsf(curr_val - prev_val)>0.01f);
 3326              		.loc 5 505 23 view .LVU850
 3327              	.LBB520:
 506:GrannyChordApp.cpp **** }
 3328              		.loc 5 506 3 view .LVU851
 506:GrannyChordApp.cpp **** }
 3329              		.loc 5 506 3 is_stmt 0 view .LVU852
 3330              	.LBE520:
 3331              	.LBE519:
 184:GrannyChordApp.cpp ****     UpdateKnob1Params(knob1_val,curr_synth_mode_);
 3332              		.loc 5 184 22 view .LVU853
ARM GAS  /var/folders/2p/02m_5p7958535cp2tpgps0400000gn/T//ccA8p2F3.s 			page 95


 3333 0062 B700     		lsls	r7, r6, #2
 3334 0064 05EB8606 		add	r6, r5, r6, lsl #2
 3335              	.LVL215:
 3336              	.LBB522:
 3337              	.LBB521:
 506:GrannyChordApp.cpp **** }
 3338              		.loc 5 506 26 view .LVU854
 3339 0068 D6ED2A7A 		vldr.32	s15, [r6, #168]
 3340 006c 78EEE77A 		vsub.f32	s15, s17, s15
 506:GrannyChordApp.cpp **** }
 3341              		.loc 5 506 16 view .LVU855
 3342 0070 F0EEE77A 		vabs.f32	s15, s15
 3343              	.LBE521:
 3344              	.LBE522:
 184:GrannyChordApp.cpp ****     UpdateKnob1Params(knob1_val,curr_synth_mode_);
 3345              		.loc 5 184 3 view .LVU856
 3346 0074 F4EEC97A 		vcmpe.f32	s15, s18
 3347 0078 F1EE10FA 		vmrs	APSR_nzcv, FPSCR
 3348 007c 07DD     		ble	.L214
 185:GrannyChordApp.cpp ****     prev_param_vals_k1[mode_idx] = knob1_val;
 3349              		.loc 5 185 5 is_stmt 1 view .LVU857
 185:GrannyChordApp.cpp ****     prev_param_vals_k1[mode_idx] = knob1_val;
 3350              		.loc 5 185 22 is_stmt 0 view .LVU858
 3351 007e B0EE680A 		vmov.f32	s0, s17
 3352 0082 A968     		ldr	r1, [r5, #8]
 3353 0084 2046     		mov	r0, r4
 3354 0086 FFF7FEFF 		bl	_ZN14GrannyChordApp17UpdateKnob1ParamsEf9SynthMode
 3355              	.LVL216:
 186:GrannyChordApp.cpp ****   }
 3356              		.loc 5 186 5 is_stmt 1 view .LVU859
 186:GrannyChordApp.cpp ****   }
 3357              		.loc 5 186 34 is_stmt 0 view .LVU860
 3358 008a C6ED2A8A 		vstr.32	s17, [r6, #168]
 3359              	.L214:
 188:GrannyChordApp.cpp ****     UpdateKnob2Params(knob2_val, curr_synth_mode_);
 3360              		.loc 5 188 3 is_stmt 1 view .LVU861
 3361              	.LVL217:
 3362              	.LBB523:
 3363              	.LBI523:
 505:GrannyChordApp.cpp ****   return (fabsf(curr_val - prev_val)>0.01f);
 3364              		.loc 5 505 23 view .LVU862
 3365              	.LBB524:
 506:GrannyChordApp.cpp **** }
 3366              		.loc 5 506 3 view .LVU863
 506:GrannyChordApp.cpp **** }
 3367              		.loc 5 506 3 is_stmt 0 view .LVU864
 3368              	.LBE524:
 3369              	.LBE523:
 188:GrannyChordApp.cpp ****     UpdateKnob2Params(knob2_val, curr_synth_mode_);
 3370              		.loc 5 188 21 view .LVU865
 3371 008e 2F44     		add	r7, r7, r5
 3372              	.LBB526:
 3373              	.LBB525:
 506:GrannyChordApp.cpp **** }
 3374              		.loc 5 506 26 view .LVU866
 3375 0090 D7ED317A 		vldr.32	s15, [r7, #196]
 3376 0094 78EE677A 		vsub.f32	s15, s16, s15
ARM GAS  /var/folders/2p/02m_5p7958535cp2tpgps0400000gn/T//ccA8p2F3.s 			page 96


 506:GrannyChordApp.cpp **** }
 3377              		.loc 5 506 16 view .LVU867
 3378 0098 F0EEE77A 		vabs.f32	s15, s15
 3379              	.LBE525:
 3380              	.LBE526:
 188:GrannyChordApp.cpp ****     UpdateKnob2Params(knob2_val, curr_synth_mode_);
 3381              		.loc 5 188 3 view .LVU868
 3382 009c F4EEC97A 		vcmpe.f32	s15, s18
 3383 00a0 F1EE10FA 		vmrs	APSR_nzcv, FPSCR
 3384 00a4 07DD     		ble	.L207
 189:GrannyChordApp.cpp ****     prev_param_vals_k2[mode_idx] = knob2_val;
 3385              		.loc 5 189 5 is_stmt 1 view .LVU869
 189:GrannyChordApp.cpp ****     prev_param_vals_k2[mode_idx] = knob2_val;
 3386              		.loc 5 189 22 is_stmt 0 view .LVU870
 3387 00a6 B0EE480A 		vmov.f32	s0, s16
 3388 00aa A968     		ldr	r1, [r5, #8]
 3389 00ac 2046     		mov	r0, r4
 3390 00ae FFF7FEFF 		bl	_ZN14GrannyChordApp17UpdateKnob2ParamsEf9SynthMode
 3391              	.LVL218:
 190:GrannyChordApp.cpp ****   }
 3392              		.loc 5 190 5 is_stmt 1 view .LVU871
 190:GrannyChordApp.cpp ****   }
 3393              		.loc 5 190 34 is_stmt 0 view .LVU872
 3394 00b2 87ED318A 		vstr.32	s16, [r7, #196]
 3395              	.LVL219:
 3396              	.L207:
 190:GrannyChordApp.cpp ****   }
 3397              		.loc 5 190 34 view .LVU873
 3398              	.LBE510:
 3399              	.LBE509:
 192:GrannyChordApp.cpp **** 
 3400              		.loc 5 192 1 view .LVU874
 3401 00b6 BDEC048B 		vldm	sp!, {d8-d9}
 3402              		.cfi_remember_state
 3403              		.cfi_restore 82
 3404              		.cfi_restore 83
 3405              		.cfi_restore 80
 3406              		.cfi_restore 81
 3407              		.cfi_def_cfa_offset 24
 3408 00ba F8BD     		pop	{r3, r4, r5, r6, r7, pc}
 3409              	.LVL220:
 3410              	.L218:
 3411              		.cfi_restore_state
 3412              	.LBB530:
 3413              	.LBB529:
 3414              	.LBB527:
 3415              	.LBB514:
 512:GrannyChordApp.cpp ****   if (knob_val>=0.99f) return 1.0f;
 3416              		.loc 5 512 31 view .LVU875
 3417 00bc DFED058A 		vldr.32	s17, .L224+12
 3418 00c0 BCE7     		b	.L210
 3419              	.LVL221:
 3420              	.L219:
 512:GrannyChordApp.cpp ****   if (knob_val>=0.99f) return 1.0f;
 3421              		.loc 5 512 31 view .LVU876
 3422              	.LBE514:
 3423              	.LBE527:
ARM GAS  /var/folders/2p/02m_5p7958535cp2tpgps0400000gn/T//ccA8p2F3.s 			page 97


 3424              	.LBB528:
 3425              	.LBB518:
 3426 00c2 9FED048A 		vldr.32	s16, .L224+12
 3427 00c6 CCE7     		b	.L212
 3428              	.L225:
 3429              		.align	2
 3430              	.L224:
 3431 00c8 00000000 		.word	.LANCHOR0
 3432 00cc 0AD7233C 		.word	1008981770
 3433 00d0 A4707D3F 		.word	1065185444
 3434 00d4 00000000 		.word	0
 3435              	.LBE518:
 3436              	.LBE528:
 3437              	.LBE529:
 3438              	.LBE530:
 3439              		.cfi_endproc
 3440              	.LFE4945:
 3442              		.section	.text._ZN14GrannyChordApp3RunEv,"ax",%progbits
 3443              		.align	1
 3444              		.global	_ZN14GrannyChordApp3RunEv
 3445              		.syntax unified
 3446              		.thumb
 3447              		.thumb_func
 3449              	_ZN14GrannyChordApp3RunEv:
 3450              	.LVL222:
 3451              	.LFB4934:
  51:GrannyChordApp.cpp ****   // DebugPrint(pod_, "started running");
 3452              		.loc 5 51 27 is_stmt 1 view -0
 3453              		.cfi_startproc
 3454              		@ Volatile: function does not return.
 3455              		@ args = 0, pretend = 0, frame = 0
 3456              		@ frame_needed = 0, uses_anonymous_args = 0
  51:GrannyChordApp.cpp ****   // DebugPrint(pod_, "started running");
 3457              		.loc 5 51 27 is_stmt 0 view .LVU878
 3458 0000 0446     		mov	r4, r0
 3459 0002 08B5     		push	{r3, lr}
 3460              		.cfi_def_cfa_offset 8
 3461              		.cfi_offset 3, -8
 3462              		.cfi_offset 14, -4
 3463              	.LVL223:
 3464              	.L227:
  53:GrannyChordApp.cpp ****     UpdateUI();
 3465              		.loc 5 53 3 is_stmt 1 discriminator 1 view .LVU879
  54:GrannyChordApp.cpp ****     UpdateSynthParams();
 3466              		.loc 5 54 5 discriminator 1 view .LVU880
  54:GrannyChordApp.cpp ****     UpdateSynthParams();
 3467              		.loc 5 54 13 is_stmt 0 discriminator 1 view .LVU881
 3468 0004 2046     		mov	r0, r4
 3469 0006 FFF7FEFF 		bl	_ZN14GrannyChordApp8UpdateUIEv
 3470              	.LVL224:
  55:GrannyChordApp.cpp ****     System::Delay(1);
 3471              		.loc 5 55 5 is_stmt 1 discriminator 1 view .LVU882
  55:GrannyChordApp.cpp ****     System::Delay(1);
 3472              		.loc 5 55 22 is_stmt 0 discriminator 1 view .LVU883
 3473 000a 2046     		mov	r0, r4
 3474 000c FFF7FEFF 		bl	_ZN14GrannyChordApp17UpdateSynthParamsEv
 3475              	.LVL225:
ARM GAS  /var/folders/2p/02m_5p7958535cp2tpgps0400000gn/T//ccA8p2F3.s 			page 98


  56:GrannyChordApp.cpp ****   }
 3476              		.loc 5 56 5 is_stmt 1 discriminator 1 view .LVU884
  56:GrannyChordApp.cpp ****   }
 3477              		.loc 5 56 18 is_stmt 0 discriminator 1 view .LVU885
 3478 0010 0120     		movs	r0, #1
 3479 0012 FFF7FEFF 		bl	_ZN5daisy6System5DelayEm
 3480              	.LVL226:
  53:GrannyChordApp.cpp ****     UpdateUI();
 3481              		.loc 5 53 3 is_stmt 1 discriminator 1 view .LVU886
 3482 0016 F5E7     		b	.L227
 3483              		.cfi_endproc
 3484              	.LFE4934:
 3486              		.section	.text.startup._GLOBAL__sub_I__ZN14GrannyChordApp9instance_E,"ax",%progbits
 3487              		.align	1
 3488              		.syntax unified
 3489              		.thumb
 3490              		.thumb_func
 3492              	_GLOBAL__sub_I__ZN14GrannyChordApp9instance_E:
 3493              	.LFB5563:
 514:GrannyChordApp.cpp ****   return knob_val;
 515:GrannyChordApp.cpp **** }
 516:GrannyChordApp.cpp **** 
 517:GrannyChordApp.cpp **** /* here we check if the current value of the knob has moved through the last stored value 
 518:GrannyChordApp.cpp ****   before the synth mode changed, and only update the parameter once the current knob value
 519:GrannyChordApp.cpp ****   'passes through' the stored value - meaning if we set grain size to 0.1 then switch modes 
 520:GrannyChordApp.cpp ****   and move the knob to 0.8, if we switch back, grain size won't be updated again until the 
 521:GrannyChordApp.cpp ****   knob passes through this value.  */
 522:GrannyChordApp.cpp **** 
 523:GrannyChordApp.cpp **** inline constexpr float GrannyChordApp::UpdateKnobPassThru(float curr_knob_val, float *stored_knob_v
 524:GrannyChordApp.cpp ****   if (!(*pass_thru)){
 525:GrannyChordApp.cpp ****     if (curr_knob_val >= (*stored_knob_val) || curr_knob_val <= (*stored_knob_val)) {
 526:GrannyChordApp.cpp ****       (*pass_thru) = true;
 527:GrannyChordApp.cpp ****     }
 528:GrannyChordApp.cpp **** } 
 529:GrannyChordApp.cpp ****   if (*pass_thru){
 530:GrannyChordApp.cpp ****     (*stored_knob_val) = curr_knob_val;
 531:GrannyChordApp.cpp ****     return curr_knob_val;
 532:GrannyChordApp.cpp ****   }
 533:GrannyChordApp.cpp ****   return (*stored_knob_val);
 534:GrannyChordApp.cpp **** }
 3494              		.loc 5 534 1 view -0
 3495              		.cfi_startproc
 3496              		@ args = 0, pretend = 0, frame = 0
 3497              		@ frame_needed = 0, uses_anonymous_args = 0
 3498              	.LBB539:
 3499              	.LBI539:
 3500              		.loc 5 534 1 view .LVU888
 3501              	.LVL227:
 3502              	.LBB540:
 3503              	.LBB541:
 3504              	.LBI541:
  37:DaisySP-LGPL-FX/compressor.h ****     ~Compressor() {}
 3505              		.loc 2 37 5 view .LVU889
  37:DaisySP-LGPL-FX/compressor.h ****     ~Compressor() {}
 3506              		.loc 2 37 5 is_stmt 0 view .LVU890
 3507              	.LBE541:
 3508              	.LBE540:
ARM GAS  /var/folders/2p/02m_5p7958535cp2tpgps0400000gn/T//ccA8p2F3.s 			page 99


 3509              	.LBE539:
 3510              		.loc 5 534 1 view .LVU891
 3511 0000 10B5     		push	{r4, lr}
 3512              		.cfi_def_cfa_offset 8
 3513              		.cfi_offset 4, -8
 3514              		.cfi_offset 14, -4
 3515              	.LBB546:
 3516              	.LBB544:
  16:GrannyChordApp.cpp **** DTCMRAM_BSS MoogLadder GrannyChordApp::lowpass_moog_;
 3517              		.loc 5 16 24 view .LVU892
 3518 0002 0A4C     		ldr	r4, .L229
 3519 0004 0A4A     		ldr	r2, .L229+4
 3520 0006 0B49     		ldr	r1, .L229+8
 3521 0008 04F11400 		add	r0, r4, #20
 3522 000c FFF7FEFF 		bl	__aeabi_atexit
 3523              	.LVL228:
 3524              	.LBB542:
 3525              	.LBI542:
  22:DaisySP-LGPL-FX/moogladder.h ****     ~MoogLadder() {}
 3526              		.loc 3 22 5 is_stmt 1 view .LVU893
  22:DaisySP-LGPL-FX/moogladder.h ****     ~MoogLadder() {}
 3527              		.loc 3 22 5 is_stmt 0 view .LVU894
 3528              	.LBE542:
  17:GrannyChordApp.cpp **** DTCMRAM_BSS OnePole GrannyChordApp::hipass_;
 3529              		.loc 5 17 24 view .LVU895
 3530 0010 074A     		ldr	r2, .L229+4
 3531 0012 0949     		ldr	r1, .L229+12
 3532 0014 04F15400 		add	r0, r4, #84
 3533 0018 FFF7FEFF 		bl	__aeabi_atexit
 3534              	.LVL229:
 3535              	.LBB543:
 3536              	.LBI543:
  29:../DaisySP/Source/Filters/onepole.h ****     ~OnePole() {}
 3537              		.loc 1 29 5 is_stmt 1 view .LVU896
  29:../DaisySP/Source/Filters/onepole.h ****     ~OnePole() {}
 3538              		.loc 1 29 5 is_stmt 0 view .LVU897
 3539              	.LBE543:
  18:GrannyChordApp.cpp **** DTCMRAM_BSS int GrannyChordApp::file_idx_=0;
 3540              		.loc 5 18 21 view .LVU898
 3541 001c 04F19800 		add	r0, r4, #152
 3542 0020 034A     		ldr	r2, .L229+4
 3543 0022 0649     		ldr	r1, .L229+16
 3544              	.LBE544:
 3545              	.LBE546:
 3546              		.loc 5 534 1 view .LVU899
 3547 0024 BDE81040 		pop	{r4, lr}
 3548              		.cfi_restore 14
 3549              		.cfi_restore 4
 3550              		.cfi_def_cfa_offset 0
 3551              	.LBB547:
 3552              	.LBB545:
  18:GrannyChordApp.cpp **** DTCMRAM_BSS int GrannyChordApp::file_idx_=0;
 3553              		.loc 5 18 21 view .LVU900
 3554 0028 FFF7FEBF 		b	__aeabi_atexit
 3555              	.LVL230:
 3556              	.L230:
 3557              		.align	2
ARM GAS  /var/folders/2p/02m_5p7958535cp2tpgps0400000gn/T//ccA8p2F3.s 			page 100


 3558              	.L229:
 3559 002c 00000000 		.word	.LANCHOR0
 3560 0030 00000000 		.word	__dso_handle
 3561 0034 00000000 		.word	_ZN7daisysp10CompressorD1Ev
 3562 0038 00000000 		.word	_ZN7daisysp10MoogLadderD1Ev
 3563 003c 00000000 		.word	_ZN7daisysp7OnePoleD1Ev
 3564              	.LBE545:
 3565              	.LBE547:
 3566              		.cfi_endproc
 3567              	.LFE5563:
 3569              		.section	.init_array,"aw",%init_array
 3570              		.align	2
 3571 0000 00000000 		.word	_GLOBAL__sub_I__ZN14GrannyChordApp9instance_E(target1)
 3572              		.global	_ZN14GrannyChordApp10right_buf_E
 3573              		.global	_ZN14GrannyChordApp9left_buf_E
 3574              		.global	_ZN14GrannyChordApp9instance_E
 3575              		.global	_ZN14GrannyChordApp16recording_count_E
 3576              		.global	_ZN14GrannyChordApp18prev_param_vals_k2E
 3577              		.global	_ZN14GrannyChordApp18prev_param_vals_k1E
 3578              		.global	_ZN14GrannyChordApp10audio_len_E
 3579              		.global	_ZN14GrannyChordApp13wav_playhead_E
 3580              		.global	_ZN14GrannyChordApp9file_idx_E
 3581              		.global	_ZN14GrannyChordApp7hipass_E
 3582              		.global	_ZN14GrannyChordApp13lowpass_moog_E
 3583              		.global	_ZN14GrannyChordApp5comp_E
 3584              		.global	_ZN14GrannyChordApp16prev_synth_mode_E
 3585              		.global	_ZN14GrannyChordApp16curr_synth_mode_E
 3586              		.global	_ZN14GrannyChordApp11curr_state_E
 3587              		.section	.bss._ZN14GrannyChordApp10right_buf_E,"aw",%nobits
 3588              		.align	2
 3589              		.set	.LANCHOR1,. + 0
 3592              	_ZN14GrannyChordApp10right_buf_E:
 3593 0000 00000000 		.space	4
 3594              		.section	.bss._ZN14GrannyChordApp9instance_E,"aw",%nobits
 3595              		.align	2
 3596              		.set	.LANCHOR4,. + 0
 3599              	_ZN14GrannyChordApp9instance_E:
 3600 0000 00000000 		.space	4
 3601              		.section	.bss._ZN14GrannyChordApp9left_buf_E,"aw",%nobits
 3602              		.align	2
 3603              		.set	.LANCHOR2,. + 0
 3606              	_ZN14GrannyChordApp9left_buf_E:
 3607 0000 00000000 		.space	4
 3608              		.section	.bss._ZZN14GrannyChordApp15ProcessRecordInEPKPKfPPfjE10record_pos,"aw",%nobits
 3609              		.align	2
 3610              		.set	.LANCHOR3,. + 0
 3613              	_ZZN14GrannyChordApp15ProcessRecordInEPKPKfPPfjE10record_pos:
 3614 0000 00000000 		.space	4
 3615              		.section	.dtcmram_bss,"aw"
 3616              		.align	2
 3617              		.set	.LANCHOR0,. + 0
 3620              	_ZN14GrannyChordApp11curr_state_E:
 3621 0000 00000000 		.space	4
 3624              	_ZN14GrannyChordApp9file_idx_E:
 3625 0004 00000000 		.space	4
 3628              	_ZN14GrannyChordApp16curr_synth_mode_E:
 3629 0008 00000000 		.space	4
ARM GAS  /var/folders/2p/02m_5p7958535cp2tpgps0400000gn/T//ccA8p2F3.s 			page 101


 3632              	_ZN14GrannyChordApp16prev_synth_mode_E:
 3633 000c 00000000 		.space	4
 3636              	_ZN14GrannyChordApp13wav_playhead_E:
 3637 0010 00000000 		.space	4
 3640              	_ZN14GrannyChordApp5comp_E:
 3641 0014 00000000 		.space	64
 3641      00000000 
 3641      00000000 
 3641      00000000 
 3641      00000000 
 3644              	_ZN14GrannyChordApp13lowpass_moog_E:
 3645 0054 00000000 		.space	68
 3645      00000000 
 3645      00000000 
 3645      00000000 
 3645      00000000 
 3648              	_ZN14GrannyChordApp7hipass_E:
 3649 0098 00000000 		.space	16
 3649      00000000 
 3649      00000000 
 3649      00000000 
 3652              	_ZN14GrannyChordApp18prev_param_vals_k1E:
 3653 00a8 00000000 		.space	28
 3653      00000000 
 3653      00000000 
 3653      00000000 
 3653      00000000 
 3656              	_ZN14GrannyChordApp18prev_param_vals_k2E:
 3657 00c4 00000000 		.space	28
 3657      00000000 
 3657      00000000 
 3657      00000000 
 3657      00000000 
 3660              	_ZN14GrannyChordApp16recording_count_E:
 3661 00e0 00000000 		.space	4
 3664              	_ZN14GrannyChordApp10audio_len_E:
 3665 00e4 00000000 		.space	4
 3666              		.text
 3667              	.Letext0:
 3668              		.file 14 "/Library/DaisyToolchain/0.2.0/arm/arm-none-eabi/include/machine/_default_types.h"
 3669              		.file 15 "/Library/DaisyToolchain/0.2.0/arm/arm-none-eabi/include/sys/_stdint.h"
 3670              		.file 16 "/Library/DaisyToolchain/0.2.0/arm/arm-none-eabi/include/stdint.h"
 3671              		.file 17 "/Library/DaisyToolchain/0.2.0/arm/lib/gcc/arm-none-eabi/10.3.1/include/stddef.h"
 3672              		.file 18 "/Library/DaisyToolchain/0.2.0/arm/arm-none-eabi/include/c++/10.3.1/cmath"
 3673              		.file 19 "/Library/DaisyToolchain/0.2.0/arm/arm-none-eabi/include/c++/10.3.1/bits/std_abs.h"
 3674              		.file 20 "/Library/DaisyToolchain/0.2.0/arm/arm-none-eabi/include/c++/10.3.1/cstdlib"
 3675              		.file 21 "/Library/DaisyToolchain/0.2.0/arm/arm-none-eabi/include/c++/10.3.1/cstdint"
 3676              		.file 22 "/Library/DaisyToolchain/0.2.0/arm/arm-none-eabi/include/c++/10.3.1/arm-none-eabi/thumb/v
 3677              		.file 23 "/Library/DaisyToolchain/0.2.0/arm/arm-none-eabi/include/c++/10.3.1/type_traits"
 3678              		.file 24 "/Library/DaisyToolchain/0.2.0/arm/arm-none-eabi/include/c++/10.3.1/debug/debug.h"
 3679              		.file 25 "/Library/DaisyToolchain/0.2.0/arm/arm-none-eabi/include/c++/10.3.1/bits/algorithmfwd.h"
 3680              		.file 26 "/Library/DaisyToolchain/0.2.0/arm/arm-none-eabi/include/c++/10.3.1/bits/stl_pair.h"
 3681              		.file 27 "/Library/DaisyToolchain/0.2.0/arm/arm-none-eabi/include/c++/10.3.1/bits/exception_ptr.h"
 3682              		.file 28 "/Library/DaisyToolchain/0.2.0/arm/arm-none-eabi/include/c++/10.3.1/initializer_list"
 3683              		.file 29 "/Library/DaisyToolchain/0.2.0/arm/arm-none-eabi/include/c++/10.3.1/cstdarg"
 3684              		.file 30 "/Library/DaisyToolchain/0.2.0/arm/arm-none-eabi/include/c++/10.3.1/cstdio"
 3685              		.file 31 "/Library/DaisyToolchain/0.2.0/arm/arm-none-eabi/include/c++/10.3.1/cstring"
ARM GAS  /var/folders/2p/02m_5p7958535cp2tpgps0400000gn/T//ccA8p2F3.s 			page 102


 3686              		.file 32 "/Library/DaisyToolchain/0.2.0/arm/arm-none-eabi/include/c++/10.3.1/cwchar"
 3687              		.file 33 "/Library/DaisyToolchain/0.2.0/arm/arm-none-eabi/include/c++/10.3.1/clocale"
 3688              		.file 34 "/Library/DaisyToolchain/0.2.0/arm/arm-none-eabi/include/c++/10.3.1/bits/basic_string.h"
 3689              		.file 35 "/Library/DaisyToolchain/0.2.0/arm/arm-none-eabi/include/c++/10.3.1/bits/stl_iterator.h"
 3690              		.file 36 "/Library/DaisyToolchain/0.2.0/arm/arm-none-eabi/include/c++/10.3.1/bits/predefined_ops.h
 3691              		.file 37 "/Library/DaisyToolchain/0.2.0/arm/arm-none-eabi/include/sys/_types.h"
 3692              		.file 38 "/Library/DaisyToolchain/0.2.0/arm/arm-none-eabi/include/sys/reent.h"
 3693              		.file 39 "/Library/DaisyToolchain/0.2.0/arm/arm-none-eabi/include/sys/lock.h"
 3694              		.file 40 "/Library/DaisyToolchain/0.2.0/arm/arm-none-eabi/include/math.h"
 3695              		.file 41 "/Library/DaisyToolchain/0.2.0/arm/arm-none-eabi/include/stdlib.h"
 3696              		.file 42 "/Library/DaisyToolchain/0.2.0/arm/arm-none-eabi/include/c++/10.3.1/math.h"
 3697              		.file 43 "/Library/DaisyToolchain/0.2.0/arm/arm-none-eabi/include/c++/10.3.1/stdlib.h"
 3698              		.file 44 "../libDaisy/src/per/tim.h"
 3699              		.file 45 "../libDaisy/src/sys/system.h"
 3700              		.file 46 "../libDaisy/src/per/qspi.h"
 3701              		.file 47 "../libDaisy/src/per/dac.h"
 3702              		.file 48 "../libDaisy/src/per/sai.h"
 3703              		.file 49 "../libDaisy/src/hid/audio.h"
 3704              		.file 50 "../libDaisy/src/per/adc.h"
 3705              		.file 51 "../libDaisy/src/per/uart.h"
 3706              		.file 52 "../libDaisy/src/hid/MidiEvent.h"
 3707              		.file 53 "../libDaisy/src/hid/midi_parser.h"
 3708              		.file 54 "../libDaisy/src/hid/usb.h"
 3709              		.file 55 "../libDaisy/src/hid/midi.h"
 3710              		.file 56 "../libDaisy/src/util/FIFO.h"
 3711              		.file 57 "../libDaisy/src/hid/ctrl.h"
 3712              		.file 58 "../libDaisy/src/hid/logger_impl.h"
 3713              		.file 59 "../libDaisy/src/per/sdmmc.h"
 3714              		.file 60 "../libDaisy/src/util/wav_format.h"
 3715              		.file 61 "../libDaisy/src/hid/led.h"
 3716              		.file 62 "../libDaisy/src/util/color.h"
 3717              		.file 63 "../libDaisy/src/hid/rgb_led.h"
 3718              		.file 64 "../libDaisy/src/dev/max11300.h"
 3719              		.file 65 "../libDaisy/src/sys/fatfs.h"
 3720              		.file 66 "../libDaisy/src/hid/logger.h"
 3721              		.file 67 "../libDaisy/src/daisy_pod.h"
 3722              		.file 68 "../libDaisy/src/per/gpio.h"
 3723              		.file 69 "../libDaisy/src/dev/sdram.h"
 3724              		.file 70 "/Library/DaisyToolchain/0.2.0/arm/lib/gcc/arm-none-eabi/10.3.1/include/stdarg.h"
 3725              		.file 71 "/Library/DaisyToolchain/0.2.0/arm/arm-none-eabi/include/stdio.h"
 3726              		.file 72 "../libDaisy/Middlewares/Third_Party/FatFs/src/integer.h"
 3727              		.file 73 "../libDaisy/Middlewares/Third_Party/FatFs/src/ff.h"
 3728              		.file 74 "/Library/DaisyToolchain/0.2.0/arm/arm-none-eabi/include/string.h"
 3729              		.file 75 "AppState.h"
 3730              		.file 76 "../DaisySP/Source/Control/adenv.h"
 3731              		.file 77 "/Library/DaisyToolchain/0.2.0/arm/arm-none-eabi/include/wchar.h"
 3732              		.file 78 "/Library/DaisyToolchain/0.2.0/arm/arm-none-eabi/include/time.h"
 3733              		.file 79 "/Library/DaisyToolchain/0.2.0/arm/arm-none-eabi/include/locale.h"
 3734              		.file 80 "GrainPhasor.h"
 3735              		.file 81 "Grain.h"
 3736              		.file 82 "wavheader.h"
 3737              		.file 83 "GrannyChordApp.h"
 3738              		.file 84 "../libDaisy/src/dev/sr_595.h"
 3739              		.file 85 "<built-in>"
ARM GAS  /var/folders/2p/02m_5p7958535cp2tpgps0400000gn/T//ccA8p2F3.s 			page 103


DEFINED SYMBOLS
                            *ABS*:0000000000000000 GrannyChordApp.cpp
/var/folders/2p/02m_5p7958535cp2tpgps0400000gn/T//ccA8p2F3.s:19     .text._ZN7daisysp7OnePoleD2Ev:0000000000000000 $t
/var/folders/2p/02m_5p7958535cp2tpgps0400000gn/T//ccA8p2F3.s:25     .text._ZN7daisysp7OnePoleD2Ev:0000000000000000 _ZN7daisysp7OnePoleD2Ev
/var/folders/2p/02m_5p7958535cp2tpgps0400000gn/T//ccA8p2F3.s:25     .text._ZN7daisysp7OnePoleD2Ev:0000000000000000 _ZN7daisysp7OnePoleD1Ev
/var/folders/2p/02m_5p7958535cp2tpgps0400000gn/T//ccA8p2F3.s:42     .text._ZN7daisysp10CompressorD2Ev:0000000000000000 $t
/var/folders/2p/02m_5p7958535cp2tpgps0400000gn/T//ccA8p2F3.s:48     .text._ZN7daisysp10CompressorD2Ev:0000000000000000 _ZN7daisysp10CompressorD2Ev
/var/folders/2p/02m_5p7958535cp2tpgps0400000gn/T//ccA8p2F3.s:48     .text._ZN7daisysp10CompressorD2Ev:0000000000000000 _ZN7daisysp10CompressorD1Ev
/var/folders/2p/02m_5p7958535cp2tpgps0400000gn/T//ccA8p2F3.s:65     .text._ZN7daisysp10MoogLadderD2Ev:0000000000000000 $t
/var/folders/2p/02m_5p7958535cp2tpgps0400000gn/T//ccA8p2F3.s:71     .text._ZN7daisysp10MoogLadderD2Ev:0000000000000000 _ZN7daisysp10MoogLadderD2Ev
/var/folders/2p/02m_5p7958535cp2tpgps0400000gn/T//ccA8p2F3.s:71     .text._ZN7daisysp10MoogLadderD2Ev:0000000000000000 _ZN7daisysp10MoogLadderD1Ev
/var/folders/2p/02m_5p7958535cp2tpgps0400000gn/T//ccA8p2F3.s:88     .text._ZNK5daisy6Switch10TimeHeldMsEv:0000000000000000 $t
/var/folders/2p/02m_5p7958535cp2tpgps0400000gn/T//ccA8p2F3.s:94     .text._ZNK5daisy6Switch10TimeHeldMsEv:0000000000000000 _ZNK5daisy6Switch10TimeHeldMsEv
/var/folders/2p/02m_5p7958535cp2tpgps0400000gn/T//ccA8p2F3.s:153    .text._ZNK5daisy6Switch10TimeHeldMsEv:0000000000000028 $d
/var/folders/2p/02m_5p7958535cp2tpgps0400000gn/T//ccA8p2F3.s:158    .text._ZN14GrannyChordApp20HandleEncoderPressedEv:0000000000000000 $t
/var/folders/2p/02m_5p7958535cp2tpgps0400000gn/T//ccA8p2F3.s:164    .text._ZN14GrannyChordApp20HandleEncoderPressedEv:0000000000000000 _ZN14GrannyChordApp20HandleEncoderPressedEv
/var/folders/2p/02m_5p7958535cp2tpgps0400000gn/T//ccA8p2F3.s:203    .text._ZN14GrannyChordApp20HandleEncoderPressedEv:0000000000000018 $d
/var/folders/2p/02m_5p7958535cp2tpgps0400000gn/T//ccA8p2F3.s:208    .text._ZN14GrannyChordApp22HandleEncoderLongPressEv:0000000000000000 $t
/var/folders/2p/02m_5p7958535cp2tpgps0400000gn/T//ccA8p2F3.s:214    .text._ZN14GrannyChordApp22HandleEncoderLongPressEv:0000000000000000 _ZN14GrannyChordApp22HandleEncoderLongPressEv
/var/folders/2p/02m_5p7958535cp2tpgps0400000gn/T//ccA8p2F3.s:255    .text._ZN14GrannyChordApp22HandleEncoderLongPressEv:000000000000001c $d
/var/folders/2p/02m_5p7958535cp2tpgps0400000gn/T//ccA8p2F3.s:260    .text._ZN14GrannyChordApp19HandleFileSelectionEl:0000000000000000 $t
/var/folders/2p/02m_5p7958535cp2tpgps0400000gn/T//ccA8p2F3.s:266    .text._ZN14GrannyChordApp19HandleFileSelectionEl:0000000000000000 _ZN14GrannyChordApp19HandleFileSelectionEl
/var/folders/2p/02m_5p7958535cp2tpgps0400000gn/T//ccA8p2F3.s:314    .text._ZN14GrannyChordApp19HandleFileSelectionEl:0000000000000018 $d
/var/folders/2p/02m_5p7958535cp2tpgps0400000gn/T//ccA8p2F3.s:320    .text._ZN14GrannyChordApp15UpdateSynthModeEv:0000000000000000 $t
/var/folders/2p/02m_5p7958535cp2tpgps0400000gn/T//ccA8p2F3.s:326    .text._ZN14GrannyChordApp15UpdateSynthModeEv:0000000000000000 _ZN14GrannyChordApp15UpdateSynthModeEv
/var/folders/2p/02m_5p7958535cp2tpgps0400000gn/T//ccA8p2F3.s:341    .text._ZN14GrannyChordApp15UpdateSynthModeEv:000000000000000c $d
/var/folders/2p/02m_5p7958535cp2tpgps0400000gn/T//ccA8p2F3.s:382    .text._ZN14GrannyChordApp15UpdateSynthModeEv:0000000000000028 $d
/var/folders/2p/02m_5p7958535cp2tpgps0400000gn/T//ccA8p2F3.s:387    .text._ZN14GrannyChordApp13HandleButton1Ev:0000000000000000 $t
/var/folders/2p/02m_5p7958535cp2tpgps0400000gn/T//ccA8p2F3.s:393    .text._ZN14GrannyChordApp13HandleButton1Ev:0000000000000000 _ZN14GrannyChordApp13HandleButton1Ev
/var/folders/2p/02m_5p7958535cp2tpgps0400000gn/T//ccA8p2F3.s:418    .text._ZN14GrannyChordApp13HandleButton1Ev:0000000000000010 $d
/var/folders/2p/02m_5p7958535cp2tpgps0400000gn/T//ccA8p2F3.s:423    .text._ZN14GrannyChordApp24ToggleRandomnessControlsEv:0000000000000000 $t
/var/folders/2p/02m_5p7958535cp2tpgps0400000gn/T//ccA8p2F3.s:429    .text._ZN14GrannyChordApp24ToggleRandomnessControlsEv:0000000000000000 _ZN14GrannyChordApp24ToggleRandomnessControlsEv
/var/folders/2p/02m_5p7958535cp2tpgps0400000gn/T//ccA8p2F3.s:454    .text._ZN14GrannyChordApp24ToggleRandomnessControlsEv:0000000000000010 $d
/var/folders/2p/02m_5p7958535cp2tpgps0400000gn/T//ccA8p2F3.s:459    .text._ZN14GrannyChordApp13HandleButton2Ev:0000000000000000 $t
/var/folders/2p/02m_5p7958535cp2tpgps0400000gn/T//ccA8p2F3.s:465    .text._ZN14GrannyChordApp13HandleButton2Ev:0000000000000000 _ZN14GrannyChordApp13HandleButton2Ev
/var/folders/2p/02m_5p7958535cp2tpgps0400000gn/T//ccA8p2F3.s:490    .text._ZN14GrannyChordApp13HandleButton2Ev:0000000000000010 $d
/var/folders/2p/02m_5p7958535cp2tpgps0400000gn/T//ccA8p2F3.s:495    .text._ZN14GrannyChordApp8ToggleFXEb:0000000000000000 $t
/var/folders/2p/02m_5p7958535cp2tpgps0400000gn/T//ccA8p2F3.s:501    .text._ZN14GrannyChordApp8ToggleFXEb:0000000000000000 _ZN14GrannyChordApp8ToggleFXEb
/var/folders/2p/02m_5p7958535cp2tpgps0400000gn/T//ccA8p2F3.s:539    .text._ZN14GrannyChordApp8ToggleFXEb:000000000000001c $d
/var/folders/2p/02m_5p7958535cp2tpgps0400000gn/T//ccA8p2F3.s:544    .text._ZN14GrannyChordApp22HandleButton1LongPressEv:0000000000000000 $t
/var/folders/2p/02m_5p7958535cp2tpgps0400000gn/T//ccA8p2F3.s:550    .text._ZN14GrannyChordApp22HandleButton1LongPressEv:0000000000000000 _ZN14GrannyChordApp22HandleButton1LongPressEv
/var/folders/2p/02m_5p7958535cp2tpgps0400000gn/T//ccA8p2F3.s:576    .text._ZN14GrannyChordApp22HandleButton1LongPressEv:0000000000000010 $d
/var/folders/2p/02m_5p7958535cp2tpgps0400000gn/T//ccA8p2F3.s:581    .text._ZN14GrannyChordApp22HandleButton2LongPressEv:0000000000000000 $t
/var/folders/2p/02m_5p7958535cp2tpgps0400000gn/T//ccA8p2F3.s:587    .text._ZN14GrannyChordApp22HandleButton2LongPressEv:0000000000000000 _ZN14GrannyChordApp22HandleButton2LongPressEv
/var/folders/2p/02m_5p7958535cp2tpgps0400000gn/T//ccA8p2F3.s:613    .text._ZN14GrannyChordApp22HandleButton2LongPressEv:0000000000000010 $d
/var/folders/2p/02m_5p7958535cp2tpgps0400000gn/T//ccA8p2F3.s:621    .text._ZN14GrannyChordApp11InitFileMgrEv:0000000000000000 $t
/var/folders/2p/02m_5p7958535cp2tpgps0400000gn/T//ccA8p2F3.s:627    .text._ZN14GrannyChordApp11InitFileMgrEv:0000000000000000 _ZN14GrannyChordApp11InitFileMgrEv
/var/folders/2p/02m_5p7958535cp2tpgps0400000gn/T//ccA8p2F3.s:707    .text._ZN14GrannyChordApp11InitFileMgrEv:000000000000002c $d
/var/folders/2p/02m_5p7958535cp2tpgps0400000gn/T//ccA8p2F3.s:714    .text._ZN14GrannyChordApp9InitSynthEv:0000000000000000 $t
/var/folders/2p/02m_5p7958535cp2tpgps0400000gn/T//ccA8p2F3.s:720    .text._ZN14GrannyChordApp9InitSynthEv:0000000000000000 _ZN14GrannyChordApp9InitSynthEv
/var/folders/2p/02m_5p7958535cp2tpgps0400000gn/T//ccA8p2F3.s:754    .text._ZN14GrannyChordApp9InitSynthEv:0000000000000018 $d
/var/folders/2p/02m_5p7958535cp2tpgps0400000gn/T//ccA8p2F3.s:761    .text._ZN14GrannyChordApp17ClearAudioBuffersEv:0000000000000000 $t
/var/folders/2p/02m_5p7958535cp2tpgps0400000gn/T//ccA8p2F3.s:767    .text._ZN14GrannyChordApp17ClearAudioBuffersEv:0000000000000000 _ZN14GrannyChordApp17ClearAudioBuffersEv
/var/folders/2p/02m_5p7958535cp2tpgps0400000gn/T//ccA8p2F3.s:806    .text._ZN14GrannyChordApp17ClearAudioBuffersEv:0000000000000024 $d
/var/folders/2p/02m_5p7958535cp2tpgps0400000gn/T//ccA8p2F3.s:812    .text._ZN14GrannyChordApp12InitPlaybackEv:0000000000000000 $t
/var/folders/2p/02m_5p7958535cp2tpgps0400000gn/T//ccA8p2F3.s:818    .text._ZN14GrannyChordApp12InitPlaybackEv:0000000000000000 _ZN14GrannyChordApp12InitPlaybackEv
/var/folders/2p/02m_5p7958535cp2tpgps0400000gn/T//ccA8p2F3.s:857    .text._ZN14GrannyChordApp12InitPlaybackEv:0000000000000018 $d
ARM GAS  /var/folders/2p/02m_5p7958535cp2tpgps0400000gn/T//ccA8p2F3.s 			page 104


/var/folders/2p/02m_5p7958535cp2tpgps0400000gn/T//ccA8p2F3.s:862    .text._ZN14GrannyChordApp17HandleStateChangeEv:0000000000000000 $t
/var/folders/2p/02m_5p7958535cp2tpgps0400000gn/T//ccA8p2F3.s:868    .text._ZN14GrannyChordApp17HandleStateChangeEv:0000000000000000 _ZN14GrannyChordApp17HandleStateChangeEv
/var/folders/2p/02m_5p7958535cp2tpgps0400000gn/T//ccA8p2F3.s:891    .text._ZN14GrannyChordApp17HandleStateChangeEv:0000000000000012 $d
/var/folders/2p/02m_5p7958535cp2tpgps0400000gn/T//ccA8p2F3.s:895    .text._ZN14GrannyChordApp17HandleStateChangeEv:0000000000000016 $t
/var/folders/2p/02m_5p7958535cp2tpgps0400000gn/T//ccA8p2F3.s:979    .text._ZN14GrannyChordApp17HandleStateChangeEv:0000000000000050 $d
/var/folders/2p/02m_5p7958535cp2tpgps0400000gn/T//ccA8p2F3.s:984    .text._ZN14GrannyChordApp8UpdateUIEv:0000000000000000 $t
/var/folders/2p/02m_5p7958535cp2tpgps0400000gn/T//ccA8p2F3.s:990    .text._ZN14GrannyChordApp8UpdateUIEv:0000000000000000 _ZN14GrannyChordApp8UpdateUIEv
/var/folders/2p/02m_5p7958535cp2tpgps0400000gn/T//ccA8p2F3.s:1222   .text._ZN14GrannyChordApp8UpdateUIEv:00000000000000c4 $d
/var/folders/2p/02m_5p7958535cp2tpgps0400000gn/T//ccA8p2F3.s:1228   .text._ZN14GrannyChordApp12InitRecordInEv:0000000000000000 $t
/var/folders/2p/02m_5p7958535cp2tpgps0400000gn/T//ccA8p2F3.s:1234   .text._ZN14GrannyChordApp12InitRecordInEv:0000000000000000 _ZN14GrannyChordApp12InitRecordInEv
/var/folders/2p/02m_5p7958535cp2tpgps0400000gn/T//ccA8p2F3.s:1245   .text._ZN14GrannyChordApp13InitWavWriterEv:0000000000000000 $t
/var/folders/2p/02m_5p7958535cp2tpgps0400000gn/T//ccA8p2F3.s:1251   .text._ZN14GrannyChordApp13InitWavWriterEv:0000000000000000 _ZN14GrannyChordApp13InitWavWriterEv
/var/folders/2p/02m_5p7958535cp2tpgps0400000gn/T//ccA8p2F3.s:1435   .text._ZN14GrannyChordApp13InitWavWriterEv:0000000000000080 $d
/var/folders/2p/02m_5p7958535cp2tpgps0400000gn/T//ccA8p2F3.s:1443   .text._ZN14GrannyChordApp6InitFXEv:0000000000000000 $t
/var/folders/2p/02m_5p7958535cp2tpgps0400000gn/T//ccA8p2F3.s:1449   .text._ZN14GrannyChordApp6InitFXEv:0000000000000000 _ZN14GrannyChordApp6InitFXEv
/var/folders/2p/02m_5p7958535cp2tpgps0400000gn/T//ccA8p2F3.s:1578   .text._ZN14GrannyChordApp6InitFXEv:0000000000000040 $d
/var/folders/2p/02m_5p7958535cp2tpgps0400000gn/T//ccA8p2F3.s:1586   .text._ZN14GrannyChordApp17InitPrevParamValsEv:0000000000000000 $t
/var/folders/2p/02m_5p7958535cp2tpgps0400000gn/T//ccA8p2F3.s:1592   .text._ZN14GrannyChordApp17InitPrevParamValsEv:0000000000000000 _ZN14GrannyChordApp17InitPrevParamValsEv
/var/folders/2p/02m_5p7958535cp2tpgps0400000gn/T//ccA8p2F3.s:1632   .text._ZN14GrannyChordApp17InitPrevParamValsEv:000000000000001c $d
/var/folders/2p/02m_5p7958535cp2tpgps0400000gn/T//ccA8p2F3.s:1637   .text._ZN14GrannyChordApp4InitEPsS0_:0000000000000000 $t
/var/folders/2p/02m_5p7958535cp2tpgps0400000gn/T//ccA8p2F3.s:1643   .text._ZN14GrannyChordApp4InitEPsS0_:0000000000000000 _ZN14GrannyChordApp4InitEPsS0_
/var/folders/2p/02m_5p7958535cp2tpgps0400000gn/T//ccA8p2F3.s:1752   .text._ZN14GrannyChordApp4InitEPsS0_:0000000000000060 $d
/var/folders/2p/02m_5p7958535cp2tpgps0400000gn/T//ccA8p2F3.s:2357   .text._ZN14GrannyChordApp13AudioCallbackEPKPKfPPfj:0000000000000000 _ZN14GrannyChordApp13AudioCallbackEPKPKfPPfj
/var/folders/2p/02m_5p7958535cp2tpgps0400000gn/T//ccA8p2F3.s:1761   .text._ZN14GrannyChordApp9AudioIdleEPPfj:0000000000000000 $t
/var/folders/2p/02m_5p7958535cp2tpgps0400000gn/T//ccA8p2F3.s:1767   .text._ZN14GrannyChordApp9AudioIdleEPPfj:0000000000000000 _ZN14GrannyChordApp9AudioIdleEPPfj
/var/folders/2p/02m_5p7958535cp2tpgps0400000gn/T//ccA8p2F3.s:1817   .text._ZN14GrannyChordApp18ProcessWAVPlaybackEPPfj:0000000000000000 $t
/var/folders/2p/02m_5p7958535cp2tpgps0400000gn/T//ccA8p2F3.s:1823   .text._ZN14GrannyChordApp18ProcessWAVPlaybackEPPfj:0000000000000000 _ZN14GrannyChordApp18ProcessWAVPlaybackEPPfj
/var/folders/2p/02m_5p7958535cp2tpgps0400000gn/T//ccA8p2F3.s:1978   .text._ZN14GrannyChordApp18ProcessWAVPlaybackEPPfj:0000000000000070 $d
/var/folders/2p/02m_5p7958535cp2tpgps0400000gn/T//ccA8p2F3.s:1987   .text._ZN14GrannyChordApp15ProcessRecordInEPKPKfPPfj:0000000000000000 $t
/var/folders/2p/02m_5p7958535cp2tpgps0400000gn/T//ccA8p2F3.s:1993   .text._ZN14GrannyChordApp15ProcessRecordInEPKPKfPPfj:0000000000000000 _ZN14GrannyChordApp15ProcessRecordInEPKPKfPPfj
/var/folders/2p/02m_5p7958535cp2tpgps0400000gn/T//ccA8p2F3.s:2095   .text._ZN14GrannyChordApp15ProcessRecordInEPKPKfPPfj:000000000000007c $d
/var/folders/2p/02m_5p7958535cp2tpgps0400000gn/T//ccA8p2F3.s:2103   .text._ZN14GrannyChordApp16ProcessSynthesisEPPfj:0000000000000000 $t
/var/folders/2p/02m_5p7958535cp2tpgps0400000gn/T//ccA8p2F3.s:2109   .text._ZN14GrannyChordApp16ProcessSynthesisEPPfj:0000000000000000 _ZN14GrannyChordApp16ProcessSynthesisEPPfj
/var/folders/2p/02m_5p7958535cp2tpgps0400000gn/T//ccA8p2F3.s:2188   .text._ZN14GrannyChordApp16ProcessSynthesisEPPfj:0000000000000034 $d
/var/folders/2p/02m_5p7958535cp2tpgps0400000gn/T//ccA8p2F3.s:2193   .text._ZN14GrannyChordApp12ProcessAudioEPKPKfPPfj:0000000000000000 $t
/var/folders/2p/02m_5p7958535cp2tpgps0400000gn/T//ccA8p2F3.s:2199   .text._ZN14GrannyChordApp12ProcessAudioEPKPKfPPfj:0000000000000000 _ZN14GrannyChordApp12ProcessAudioEPKPKfPPfj
/var/folders/2p/02m_5p7958535cp2tpgps0400000gn/T//ccA8p2F3.s:2345   .text._ZN14GrannyChordApp12ProcessAudioEPKPKfPPfj:0000000000000050 $d
/var/folders/2p/02m_5p7958535cp2tpgps0400000gn/T//ccA8p2F3.s:2351   .text._ZN14GrannyChordApp13AudioCallbackEPKPKfPPfj:0000000000000000 $t
/var/folders/2p/02m_5p7958535cp2tpgps0400000gn/T//ccA8p2F3.s:2385   .text._ZN14GrannyChordApp13AudioCallbackEPKPKfPPfj:0000000000000010 $d
/var/folders/2p/02m_5p7958535cp2tpgps0400000gn/T//ccA8p2F3.s:2390   .text._ZN14GrannyChordApp16ProcessChordModeEPPfj:0000000000000000 $t
/var/folders/2p/02m_5p7958535cp2tpgps0400000gn/T//ccA8p2F3.s:2396   .text._ZN14GrannyChordApp16ProcessChordModeEPPfj:0000000000000000 _ZN14GrannyChordApp16ProcessChordModeEPPfj
/var/folders/2p/02m_5p7958535cp2tpgps0400000gn/T//ccA8p2F3.s:2413   .text._ZN14GrannyChordApp13RecordOutToSDEPPfj:0000000000000000 $t
/var/folders/2p/02m_5p7958535cp2tpgps0400000gn/T//ccA8p2F3.s:2419   .text._ZN14GrannyChordApp13RecordOutToSDEPPfj:0000000000000000 _ZN14GrannyChordApp13RecordOutToSDEPPfj
/var/folders/2p/02m_5p7958535cp2tpgps0400000gn/T//ccA8p2F3.s:2526   .text._ZN14GrannyChordApp13RecordOutToSDEPPfj:000000000000005c $d
/var/folders/2p/02m_5p7958535cp2tpgps0400000gn/T//ccA8p2F3.s:2532   .text._ZN14GrannyChordApp17UpdateKnob1ParamsEf9SynthMode:0000000000000000 $t
/var/folders/2p/02m_5p7958535cp2tpgps0400000gn/T//ccA8p2F3.s:2538   .text._ZN14GrannyChordApp17UpdateKnob1ParamsEf9SynthMode:0000000000000000 _ZN14GrannyChordApp17UpdateKnob1ParamsEf9SynthMode
/var/folders/2p/02m_5p7958535cp2tpgps0400000gn/T//ccA8p2F3.s:2551   .text._ZN14GrannyChordApp17UpdateKnob1ParamsEf9SynthMode:0000000000000008 $d
/var/folders/2p/02m_5p7958535cp2tpgps0400000gn/T//ccA8p2F3.s:2830   .text._ZN14GrannyChordApp17UpdateKnob1ParamsEf9SynthMode:0000000000000084 $d
/var/folders/2p/02m_5p7958535cp2tpgps0400000gn/T//ccA8p2F3.s:2841   .text._ZN14GrannyChordApp17UpdateKnob2ParamsEf9SynthMode:0000000000000000 $t
/var/folders/2p/02m_5p7958535cp2tpgps0400000gn/T//ccA8p2F3.s:2847   .text._ZN14GrannyChordApp17UpdateKnob2ParamsEf9SynthMode:0000000000000000 _ZN14GrannyChordApp17UpdateKnob2ParamsEf9SynthMode
/var/folders/2p/02m_5p7958535cp2tpgps0400000gn/T//ccA8p2F3.s:2872   .text._ZN14GrannyChordApp17UpdateKnob2ParamsEf9SynthMode:0000000000000014 $d
/var/folders/2p/02m_5p7958535cp2tpgps0400000gn/T//ccA8p2F3.s:3200   .text._ZN14GrannyChordApp17UpdateKnob2ParamsEf9SynthMode:00000000000000c8 $d
/var/folders/2p/02m_5p7958535cp2tpgps0400000gn/T//ccA8p2F3.s:3214   .text._ZN14GrannyChordApp17UpdateSynthParamsEv:0000000000000000 $t
/var/folders/2p/02m_5p7958535cp2tpgps0400000gn/T//ccA8p2F3.s:3220   .text._ZN14GrannyChordApp17UpdateSynthParamsEv:0000000000000000 _ZN14GrannyChordApp17UpdateSynthParamsEv
/var/folders/2p/02m_5p7958535cp2tpgps0400000gn/T//ccA8p2F3.s:3431   .text._ZN14GrannyChordApp17UpdateSynthParamsEv:00000000000000c8 $d
/var/folders/2p/02m_5p7958535cp2tpgps0400000gn/T//ccA8p2F3.s:3443   .text._ZN14GrannyChordApp3RunEv:0000000000000000 $t
/var/folders/2p/02m_5p7958535cp2tpgps0400000gn/T//ccA8p2F3.s:3449   .text._ZN14GrannyChordApp3RunEv:0000000000000000 _ZN14GrannyChordApp3RunEv
ARM GAS  /var/folders/2p/02m_5p7958535cp2tpgps0400000gn/T//ccA8p2F3.s 			page 105


/var/folders/2p/02m_5p7958535cp2tpgps0400000gn/T//ccA8p2F3.s:3487   .text.startup._GLOBAL__sub_I__ZN14GrannyChordApp9instance_E:0000000000000000 $t
/var/folders/2p/02m_5p7958535cp2tpgps0400000gn/T//ccA8p2F3.s:3492   .text.startup._GLOBAL__sub_I__ZN14GrannyChordApp9instance_E:0000000000000000 _GLOBAL__sub_I__ZN14GrannyChordApp9instance_E
/var/folders/2p/02m_5p7958535cp2tpgps0400000gn/T//ccA8p2F3.s:3559   .text.startup._GLOBAL__sub_I__ZN14GrannyChordApp9instance_E:000000000000002c $d
/var/folders/2p/02m_5p7958535cp2tpgps0400000gn/T//ccA8p2F3.s:3570   .init_array:0000000000000000 $d
/var/folders/2p/02m_5p7958535cp2tpgps0400000gn/T//ccA8p2F3.s:3592   .bss._ZN14GrannyChordApp10right_buf_E:0000000000000000 _ZN14GrannyChordApp10right_buf_E
/var/folders/2p/02m_5p7958535cp2tpgps0400000gn/T//ccA8p2F3.s:3606   .bss._ZN14GrannyChordApp9left_buf_E:0000000000000000 _ZN14GrannyChordApp9left_buf_E
/var/folders/2p/02m_5p7958535cp2tpgps0400000gn/T//ccA8p2F3.s:3599   .bss._ZN14GrannyChordApp9instance_E:0000000000000000 _ZN14GrannyChordApp9instance_E
/var/folders/2p/02m_5p7958535cp2tpgps0400000gn/T//ccA8p2F3.s:3660   .dtcmram_bss:00000000000000e0 _ZN14GrannyChordApp16recording_count_E
/var/folders/2p/02m_5p7958535cp2tpgps0400000gn/T//ccA8p2F3.s:3656   .dtcmram_bss:00000000000000c4 _ZN14GrannyChordApp18prev_param_vals_k2E
/var/folders/2p/02m_5p7958535cp2tpgps0400000gn/T//ccA8p2F3.s:3652   .dtcmram_bss:00000000000000a8 _ZN14GrannyChordApp18prev_param_vals_k1E
/var/folders/2p/02m_5p7958535cp2tpgps0400000gn/T//ccA8p2F3.s:3664   .dtcmram_bss:00000000000000e4 _ZN14GrannyChordApp10audio_len_E
/var/folders/2p/02m_5p7958535cp2tpgps0400000gn/T//ccA8p2F3.s:3636   .dtcmram_bss:0000000000000010 _ZN14GrannyChordApp13wav_playhead_E
/var/folders/2p/02m_5p7958535cp2tpgps0400000gn/T//ccA8p2F3.s:3624   .dtcmram_bss:0000000000000004 _ZN14GrannyChordApp9file_idx_E
/var/folders/2p/02m_5p7958535cp2tpgps0400000gn/T//ccA8p2F3.s:3648   .dtcmram_bss:0000000000000098 _ZN14GrannyChordApp7hipass_E
/var/folders/2p/02m_5p7958535cp2tpgps0400000gn/T//ccA8p2F3.s:3644   .dtcmram_bss:0000000000000054 _ZN14GrannyChordApp13lowpass_moog_E
/var/folders/2p/02m_5p7958535cp2tpgps0400000gn/T//ccA8p2F3.s:3640   .dtcmram_bss:0000000000000014 _ZN14GrannyChordApp5comp_E
/var/folders/2p/02m_5p7958535cp2tpgps0400000gn/T//ccA8p2F3.s:3632   .dtcmram_bss:000000000000000c _ZN14GrannyChordApp16prev_synth_mode_E
/var/folders/2p/02m_5p7958535cp2tpgps0400000gn/T//ccA8p2F3.s:3628   .dtcmram_bss:0000000000000008 _ZN14GrannyChordApp16curr_synth_mode_E
/var/folders/2p/02m_5p7958535cp2tpgps0400000gn/T//ccA8p2F3.s:3620   .dtcmram_bss:0000000000000000 _ZN14GrannyChordApp11curr_state_E
/var/folders/2p/02m_5p7958535cp2tpgps0400000gn/T//ccA8p2F3.s:3588   .bss._ZN14GrannyChordApp10right_buf_E:0000000000000000 $d
/var/folders/2p/02m_5p7958535cp2tpgps0400000gn/T//ccA8p2F3.s:3595   .bss._ZN14GrannyChordApp9instance_E:0000000000000000 $d
/var/folders/2p/02m_5p7958535cp2tpgps0400000gn/T//ccA8p2F3.s:3602   .bss._ZN14GrannyChordApp9left_buf_E:0000000000000000 $d
/var/folders/2p/02m_5p7958535cp2tpgps0400000gn/T//ccA8p2F3.s:3609   .bss._ZZN14GrannyChordApp15ProcessRecordInEPKPKfPPfjE10record_pos:0000000000000000 $d
/var/folders/2p/02m_5p7958535cp2tpgps0400000gn/T//ccA8p2F3.s:3613   .bss._ZZN14GrannyChordApp15ProcessRecordInEPKPKfPPfjE10record_pos:0000000000000000 _ZZN14GrannyChordApp15ProcessRecordInEPKPKfPPfjE10record_pos
/var/folders/2p/02m_5p7958535cp2tpgps0400000gn/T//ccA8p2F3.s:3616   .dtcmram_bss:0000000000000000 $d
/var/folders/2p/02m_5p7958535cp2tpgps0400000gn/T//ccA8p2F3.s:348    .text._ZN14GrannyChordApp15UpdateSynthModeEv:0000000000000013 $d
/var/folders/2p/02m_5p7958535cp2tpgps0400000gn/T//ccA8p2F3.s:348    .text._ZN14GrannyChordApp15UpdateSynthModeEv:0000000000000014 $t
/var/folders/2p/02m_5p7958535cp2tpgps0400000gn/T//ccA8p2F3.s:2560   .text._ZN14GrannyChordApp17UpdateKnob1ParamsEf9SynthMode:0000000000000011 $d
/var/folders/2p/02m_5p7958535cp2tpgps0400000gn/T//ccA8p2F3.s:2560   .text._ZN14GrannyChordApp17UpdateKnob1ParamsEf9SynthMode:0000000000000012 $t
/var/folders/2p/02m_5p7958535cp2tpgps0400000gn/T//ccA8p2F3.s:2881   .text._ZN14GrannyChordApp17UpdateKnob2ParamsEf9SynthMode:000000000000001d $d
/var/folders/2p/02m_5p7958535cp2tpgps0400000gn/T//ccA8p2F3.s:2881   .text._ZN14GrannyChordApp17UpdateKnob2ParamsEf9SynthMode:000000000000001e $t
                           .group:0000000000000000 _ZN7daisysp7OnePoleD5Ev
                           .group:0000000000000000 _ZN7daisysp10CompressorD5Ev
                           .group:0000000000000000 _ZN7daisysp10MoogLadderD5Ev

UNDEFINED SYMBOLS
_ZN5daisy6System6GetNowEv
_ZN16AudioFileManager11file_count_E
_ZN16AudioFileManager10SetBuffersEPsS0_
_ZN16AudioFileManager4InitEv
_ZN5daisy6LoggerILNS_17LoggerDestinationE1EE9PrintLineEPKcz
_ZN16AudioFileManager12ScanWavFilesEv
_ZN13GranularSynth4InitEPKsS1_j
_ZN16AudioFileManager7header_E
memset
_ZN16AudioFileManager8LoadFileEt
_ZN5daisy6RgbLed6SetRedEf
_ZN5daisy8DaisyPod22ProcessDigitalControlsEv
_ZN5daisy8DaisyPod15AudioSampleRateEv
_ZN7daisysp10Compressor4InitEf
_ZN7daisysp10MoogLadder4InitEf
_ZN5daisy8DaisyPod17SetAudioBlockSizeEj
_ZN5daisy8DaisyPod18SetAudioSampleRateENS_9SaiHandle6Config10SampleRateE
time
_ZN5daisy8DaisyPod8StartAdcEv
_ZN5daisy8DaisyPod10StartAudioEPFvPKPKfPPfjE
rng_state
ARM GAS  /var/folders/2p/02m_5p7958535cp2tpgps0400000gn/T//ccA8p2F3.s 			page 106


_ZN13GranularSynth13ProcessGrainsEPfS0_j
_ZN7daisysp10Compressor12ProcessBlockEPfS1_S1_j
sprintf
f_open
f_write
_ZN13GranularSynth12SetGrainSizeEf
_ZN13GranularSynth13SetPitchRatioEf
_ZN13GranularSynth6SetPanEf
_ZN13GranularSynth13SetPhasorModeEN11GrainPhasor4ModeE
_ZN13GranularSynth9rnd_size_E
_ZN13GranularSynth10rnd_pitch_E
_ZN13GranularSynth11rnd_phasor_E
_ZN13GranularSynth11SetSpawnPosEf
_ZN13GranularSynth15SetActiveGrainsEf
_ZN13GranularSynth15SetEnvelopeTypeEN5Grain12EnvelopeTypeE
tanf
_ZN13GranularSynth8rnd_pan_E
_ZN13GranularSynth14rnd_spawn_pos_E
_ZN13GranularSynth10rnd_count_E
_ZN13GranularSynth13rnd_envelope_E
_ZN5daisy13AnalogControl7ProcessEv
_ZN5daisy6System5DelayEm
__aeabi_atexit
__dso_handle
