ARM GAS  /var/folders/2p/02m_5p7958535cp2tpgps0400000gn/T//ccIfZOml.s 			page 1


   1              		.cpu cortex-m7
   2              		.arch armv7e-m
   3              		.fpu fpv5-d16
   4              		.eabi_attribute 28, 1
   5              		.eabi_attribute 20, 1
   6              		.eabi_attribute 21, 1
   7              		.eabi_attribute 23, 3
   8              		.eabi_attribute 24, 1
   9              		.eabi_attribute 25, 1
  10              		.eabi_attribute 26, 1
  11              		.eabi_attribute 30, 4
  12              		.eabi_attribute 34, 1
  13              		.eabi_attribute 18, 4
  14              		.file	"GrannyChordApp.cpp"
  15              		.text
  16              	.Ltext0:
  17              		.cfi_sections	.debug_frame
  18              		.section	.text._ZNK5daisy6Switch10TimeHeldMsEv,"axG",%progbits,_ZNK5daisy6Switch10TimeHeldMsEv,com
  19              		.align	1
  20              		.weak	_ZNK5daisy6Switch10TimeHeldMsEv
  21              		.syntax unified
  22              		.thumb
  23              		.thumb_func
  25              	_ZNK5daisy6Switch10TimeHeldMsEv:
  26              	.LVL0:
  27              	.LFB1646:
  28              		.file 1 "../libDaisy/src/hid/switch.h"
   1:../libDaisy/src/hid/switch.h **** #pragma once
   2:../libDaisy/src/hid/switch.h **** #ifndef DSY_SWITCH_H
   3:../libDaisy/src/hid/switch.h **** #define DSY_SWITCH_H
   4:../libDaisy/src/hid/switch.h **** #include "daisy_core.h"
   5:../libDaisy/src/hid/switch.h **** #include "per/gpio.h"
   6:../libDaisy/src/hid/switch.h **** #include "sys/system.h"
   7:../libDaisy/src/hid/switch.h **** 
   8:../libDaisy/src/hid/switch.h **** namespace daisy
   9:../libDaisy/src/hid/switch.h **** {
  10:../libDaisy/src/hid/switch.h **** /** 
  11:../libDaisy/src/hid/switch.h ****     Generic Class for handling momentary/latching switches \n 
  12:../libDaisy/src/hid/switch.h ****     Inspired/influenced by Mutable Instruments (pichenettes) Switch classes
  13:../libDaisy/src/hid/switch.h ****     @author Stephen Hensley
  14:../libDaisy/src/hid/switch.h ****     @date December 2019
  15:../libDaisy/src/hid/switch.h ****     @ingroup controls
  16:../libDaisy/src/hid/switch.h **** */
  17:../libDaisy/src/hid/switch.h **** class Switch
  18:../libDaisy/src/hid/switch.h **** {
  19:../libDaisy/src/hid/switch.h ****   public:
  20:../libDaisy/src/hid/switch.h ****     /** Specifies the expected behavior of the switch */
  21:../libDaisy/src/hid/switch.h ****     enum Type
  22:../libDaisy/src/hid/switch.h ****     {
  23:../libDaisy/src/hid/switch.h ****         TYPE_TOGGLE,    /**< & */
  24:../libDaisy/src/hid/switch.h ****         TYPE_MOMENTARY, /**< & */
  25:../libDaisy/src/hid/switch.h ****     };
  26:../libDaisy/src/hid/switch.h ****     /** Specifies whether the pressed is HIGH or LOW. */
  27:../libDaisy/src/hid/switch.h ****     enum Polarity
  28:../libDaisy/src/hid/switch.h ****     {
  29:../libDaisy/src/hid/switch.h ****         POLARITY_NORMAL,   /**< & */
  30:../libDaisy/src/hid/switch.h ****         POLARITY_INVERTED, /**< & */
ARM GAS  /var/folders/2p/02m_5p7958535cp2tpgps0400000gn/T//ccIfZOml.s 			page 2


  31:../libDaisy/src/hid/switch.h ****     };
  32:../libDaisy/src/hid/switch.h **** 
  33:../libDaisy/src/hid/switch.h ****     /** Specifies whether to use built-in Pull Up/Down resistors to hold button at a given state wh
  34:../libDaisy/src/hid/switch.h ****     enum Pull
  35:../libDaisy/src/hid/switch.h ****     {
  36:../libDaisy/src/hid/switch.h ****         PULL_UP,   /**< & */
  37:../libDaisy/src/hid/switch.h ****         PULL_DOWN, /**< & */
  38:../libDaisy/src/hid/switch.h ****         PULL_NONE, /**< & */
  39:../libDaisy/src/hid/switch.h ****     };
  40:../libDaisy/src/hid/switch.h **** 
  41:../libDaisy/src/hid/switch.h ****     Switch() {}
  42:../libDaisy/src/hid/switch.h ****     ~Switch() {}
  43:../libDaisy/src/hid/switch.h **** 
  44:../libDaisy/src/hid/switch.h ****     /** 
  45:../libDaisy/src/hid/switch.h ****     Initializes the switch object with a given port/pin combo.
  46:../libDaisy/src/hid/switch.h ****     \param pin port/pin object to tell the switch which hardware pin to use.
  47:../libDaisy/src/hid/switch.h ****     \param update_rate Does nothing. Backwards compatibility until next breaking update.
  48:../libDaisy/src/hid/switch.h ****     \param t switch type -- Default: TYPE_MOMENTARY
  49:../libDaisy/src/hid/switch.h ****     \param pol switch polarity -- Default: POLARITY_INVERTED
  50:../libDaisy/src/hid/switch.h ****     \param pu switch pull up/down -- Default: PULL_UP
  51:../libDaisy/src/hid/switch.h ****     */
  52:../libDaisy/src/hid/switch.h ****     void
  53:../libDaisy/src/hid/switch.h ****     Init(dsy_gpio_pin pin, float update_rate, Type t, Polarity pol, Pull pu);
  54:../libDaisy/src/hid/switch.h **** 
  55:../libDaisy/src/hid/switch.h ****     /**
  56:../libDaisy/src/hid/switch.h ****        Simplified Init.
  57:../libDaisy/src/hid/switch.h ****        \param pin port/pin object to tell the switch which hardware pin to use.
  58:../libDaisy/src/hid/switch.h ****        \param update_rate Left for backwards compatibility until next breaking change.
  59:../libDaisy/src/hid/switch.h ****     */
  60:../libDaisy/src/hid/switch.h ****     void Init(dsy_gpio_pin pin, float update_rate = 0.f);
  61:../libDaisy/src/hid/switch.h **** 
  62:../libDaisy/src/hid/switch.h ****     /** 
  63:../libDaisy/src/hid/switch.h ****     Called at update_rate to debounce and handle timing for the switch.
  64:../libDaisy/src/hid/switch.h ****     In order for events not to be missed, its important that the Edge/Pressed checks
  65:../libDaisy/src/hid/switch.h ****     be made at the same rate as the debounce function is being called.
  66:../libDaisy/src/hid/switch.h ****     */
  67:../libDaisy/src/hid/switch.h ****     void Debounce();
  68:../libDaisy/src/hid/switch.h **** 
  69:../libDaisy/src/hid/switch.h ****     /** \return true if a button was just pressed. */
  70:../libDaisy/src/hid/switch.h ****     inline bool RisingEdge() const { return updated_ ? state_ == 0x7f : false; }
  71:../libDaisy/src/hid/switch.h **** 
  72:../libDaisy/src/hid/switch.h ****     /** \return true if the button was just released */
  73:../libDaisy/src/hid/switch.h ****     inline bool FallingEdge() const
  74:../libDaisy/src/hid/switch.h ****     {
  75:../libDaisy/src/hid/switch.h ****         return updated_ ? state_ == 0x80 : false;
  76:../libDaisy/src/hid/switch.h ****     }
  77:../libDaisy/src/hid/switch.h **** 
  78:../libDaisy/src/hid/switch.h ****     /** \return true if the button is held down (or if the toggle is on) */
  79:../libDaisy/src/hid/switch.h ****     inline bool Pressed() const { return state_ == 0xff; }
  80:../libDaisy/src/hid/switch.h **** 
  81:../libDaisy/src/hid/switch.h ****     /** \return true if the button is held down, without debouncing */
  82:../libDaisy/src/hid/switch.h ****     inline bool RawState()
  83:../libDaisy/src/hid/switch.h ****     {
  84:../libDaisy/src/hid/switch.h ****         return flip_ ? !dsy_gpio_read(&hw_gpio_) : dsy_gpio_read(&hw_gpio_);
  85:../libDaisy/src/hid/switch.h ****     }
  86:../libDaisy/src/hid/switch.h **** 
  87:../libDaisy/src/hid/switch.h ****     /** \return the time in milliseconds that the button has been held (or toggle has been on) */
ARM GAS  /var/folders/2p/02m_5p7958535cp2tpgps0400000gn/T//ccIfZOml.s 			page 3


  88:../libDaisy/src/hid/switch.h ****     inline float TimeHeldMs() const
  29              		.loc 1 88 18 view -0
  30              		.cfi_startproc
  31              		@ args = 0, pretend = 0, frame = 0
  32              		@ frame_needed = 0, uses_anonymous_args = 0
  89:../libDaisy/src/hid/switch.h ****     {
  90:../libDaisy/src/hid/switch.h ****         return Pressed() ? System::GetNow() - rising_edge_time_ : 0;
  33              		.loc 1 90 9 view .LVU1
  34              	.LBB204:
  35              	.LBI204:
  79:../libDaisy/src/hid/switch.h **** 
  36              		.loc 1 79 17 view .LVU2
  37              	.LBB205:
  79:../libDaisy/src/hid/switch.h **** 
  38              		.loc 1 79 35 view .LVU3
  79:../libDaisy/src/hid/switch.h **** 
  39              		.loc 1 79 35 is_stmt 0 view .LVU4
  40              	.LBE205:
  41              	.LBE204:
  88:../libDaisy/src/hid/switch.h ****     {
  42              		.loc 1 88 18 view .LVU5
  43 0000 10B5     		push	{r4, lr}
  44              		.cfi_def_cfa_offset 8
  45              		.cfi_offset 4, -8
  46              		.cfi_offset 14, -4
  47              		.loc 1 90 26 view .LVU6
  48 0002 837A     		ldrb	r3, [r0, #10]	@ zero_extendqisi2
  88:../libDaisy/src/hid/switch.h ****     {
  49              		.loc 1 88 18 view .LVU7
  50 0004 0446     		mov	r4, r0
  51              		.loc 1 90 26 view .LVU8
  52 0006 FF2B     		cmp	r3, #255
  53 0008 0AD1     		bne	.L3
  54              	.LVL1:
  55              	.LBB206:
  56              	.LBI206:
  88:../libDaisy/src/hid/switch.h ****     {
  57              		.loc 1 88 18 is_stmt 1 view .LVU9
  58              	.LBB207:
  59              		.loc 1 90 42 is_stmt 0 view .LVU10
  60 000a FFF7FEFF 		bl	_ZN5daisy6System6GetNowEv
  61              	.LVL2:
  62              		.loc 1 90 45 view .LVU11
  63 000e 07EE900A 		vmov	s15, r0	@ int
  64 0012 B8EE670A 		vcvt.f32.u32	s0, s15
  65              		.loc 1 90 26 view .LVU12
  66 0016 D4ED037A 		vldr.32	s15, [r4, #12]
  67 001a 30EE670A 		vsub.f32	s0, s0, s15
  68              	.LVL3:
  69              	.L1:
  70              		.loc 1 90 26 view .LVU13
  71              	.LBE207:
  72              	.LBE206:
  91:../libDaisy/src/hid/switch.h ****     }
  73              		.loc 1 91 5 view .LVU14
  74 001e 10BD     		pop	{r4, pc}
  75              	.LVL4:
ARM GAS  /var/folders/2p/02m_5p7958535cp2tpgps0400000gn/T//ccIfZOml.s 			page 4


  76              	.L3:
  90:../libDaisy/src/hid/switch.h ****     }
  77              		.loc 1 90 26 view .LVU15
  78 0020 9FED010A 		vldr.32	s0, .L4
  90:../libDaisy/src/hid/switch.h ****     }
  79              		.loc 1 90 67 view .LVU16
  80 0024 FBE7     		b	.L1
  81              	.L5:
  82 0026 00BF     		.align	2
  83              	.L4:
  84 0028 00000000 		.word	0
  85              		.cfi_endproc
  86              	.LFE1646:
  88              		.section	.text._ZN14GrannyChordApp20HandleEncoderPressedEv,"ax",%progbits
  89              		.align	1
  90              		.global	_ZN14GrannyChordApp20HandleEncoderPressedEv
  91              		.syntax unified
  92              		.thumb
  93              		.thumb_func
  95              	_ZN14GrannyChordApp20HandleEncoderPressedEv:
  96              	.LVL5:
  97              	.LFB4925:
  98              		.file 2 "GrannyChordApp.cpp"
   1:GrannyChordApp.cpp **** #include "GrannyChordApp.h"
   2:GrannyChordApp.cpp **** 
   3:GrannyChordApp.cpp **** /* this is required for AudioCallback as it needs a static object */
   4:GrannyChordApp.cpp **** GrannyChordApp* GrannyChordApp::instance_ = nullptr;
   5:GrannyChordApp.cpp **** 
   6:GrannyChordApp.cpp **** /// @brief Initialises app state and members and goes through app startup process
   7:GrannyChordApp.cpp **** /// @param left Left channel audio data buffer
   8:GrannyChordApp.cpp **** /// @param right Right channel audio data buffer
   9:GrannyChordApp.cpp **** void GrannyChordApp::Init(int16_t *left, int16_t *right){
  10:GrannyChordApp.cpp ****   left_buf_ = left;
  11:GrannyChordApp.cpp ****   right_buf_ = right;
  12:GrannyChordApp.cpp ****   pod_.SetAudioBlockSize(4);
  13:GrannyChordApp.cpp ****   pod_.SetAudioSampleRate(SaiHandle::Config::SampleRate::SAI_48KHZ);
  14:GrannyChordApp.cpp ****   if (!InitFileMgr()){
  15:GrannyChordApp.cpp ****     DebugPrint(pod_,"File manager failed to init - can't read SD card");
  16:GrannyChordApp.cpp ****     pod_.led1.SetRed(1);
  17:GrannyChordApp.cpp ****   }
  18:GrannyChordApp.cpp **** 
  19:GrannyChordApp.cpp ****   InitFX();
  20:GrannyChordApp.cpp ****   // InitPrevParamVals();
  21:GrannyChordApp.cpp ****   SeedRng();
  22:GrannyChordApp.cpp ****   
  23:GrannyChordApp.cpp ****   pod_.StartAdc();
  24:GrannyChordApp.cpp ****   pod_.StartAudio(AudioCallback);
  25:GrannyChordApp.cpp **** }
  26:GrannyChordApp.cpp **** 
  27:GrannyChordApp.cpp **** 
  28:GrannyChordApp.cpp **** /// @brief Loops whilst app is running, updating state and UI, handling 
  29:GrannyChordApp.cpp **** ///        state transitions, updating parameters and managing audio recordings
  30:GrannyChordApp.cpp **** void GrannyChordApp::Run(){
  31:GrannyChordApp.cpp ****   while(true){
  32:GrannyChordApp.cpp ****     UpdateUI();
  33:GrannyChordApp.cpp ****     UpdateSynthParams();
  34:GrannyChordApp.cpp ****     System::Delay(1);
ARM GAS  /var/folders/2p/02m_5p7958535cp2tpgps0400000gn/T//ccIfZOml.s 			page 5


  35:GrannyChordApp.cpp ****   }
  36:GrannyChordApp.cpp **** }
  37:GrannyChordApp.cpp **** 
  38:GrannyChordApp.cpp **** void GrannyChordApp::UpdateUI(){
  39:GrannyChordApp.cpp ****   AppState prev_state = curr_state_;
  40:GrannyChordApp.cpp ****   pod_.ProcessDigitalControls();
  41:GrannyChordApp.cpp ****   if (pod_.encoder.Pressed()) HandleEncoderPressed();
  42:GrannyChordApp.cpp ****   if (pod_.encoder.TimeHeldMs() > 1000.0f) HandleEncoderLongPress();
  43:GrannyChordApp.cpp ****   if (pod_.button1.Pressed()) HandleButton1();
  44:GrannyChordApp.cpp ****   if (pod_.button2.Pressed()) HandleButton2();
  45:GrannyChordApp.cpp ****   if (curr_state_==AppState::Synthesis){
  46:GrannyChordApp.cpp ****     if (pod_.button1.TimeHeldMs() >1000.0f) HandleButton1LongPress();
  47:GrannyChordApp.cpp ****     if (pod_.button2.TimeHeldMs() >1000.0f) HandleButton2LongPress();
  48:GrannyChordApp.cpp ****   }
  49:GrannyChordApp.cpp **** 
  50:GrannyChordApp.cpp ****   int32_t encoder_inc = pod_.encoder.Increment();
  51:GrannyChordApp.cpp ****   if (encoder_inc!=0 && curr_state_== AppState::SelectFile){
  52:GrannyChordApp.cpp ****     HandleFileSelection(encoder_inc);
  53:GrannyChordApp.cpp ****   }
  54:GrannyChordApp.cpp **** 
  55:GrannyChordApp.cpp ****   if (prev_state != curr_state_){
  56:GrannyChordApp.cpp ****     HandleStateChange();
  57:GrannyChordApp.cpp ****   }
  58:GrannyChordApp.cpp **** }
  59:GrannyChordApp.cpp **** 
  60:GrannyChordApp.cpp **** void GrannyChordApp::HandleStateChange(){
  61:GrannyChordApp.cpp ****   switch(curr_state_){
  62:GrannyChordApp.cpp ****     // case AppState::SelectFile:  HandleFileSelection(); break; 
  63:GrannyChordApp.cpp ****     case AppState::RecordIn:    ClearAudioBuffers();    break;
  64:GrannyChordApp.cpp ****     case AppState::PlayWAV:     InitPlayback();        break;
  65:GrannyChordApp.cpp ****     case AppState::Synthesis:   InitSynth();           break;
  66:GrannyChordApp.cpp ****     case AppState::Error: 
  67:GrannyChordApp.cpp ****       pod_.led1.SetRed(1); 
  68:GrannyChordApp.cpp ****       pod_.led2.SetRed(1); 
  69:GrannyChordApp.cpp ****       break;
  70:GrannyChordApp.cpp ****     default: break;
  71:GrannyChordApp.cpp ****   }
  72:GrannyChordApp.cpp **** }
  73:GrannyChordApp.cpp **** 
  74:GrannyChordApp.cpp **** void GrannyChordApp::HandleEncoderPressed(){
  99              		.loc 2 74 44 is_stmt 1 view -0
 100              		.cfi_startproc
 101              		@ args = 0, pretend = 0, frame = 0
 102              		@ frame_needed = 0, uses_anonymous_args = 0
 103              		@ link register save eliminated.
  75:GrannyChordApp.cpp ****   switch(curr_state_){
 104              		.loc 2 75 3 view .LVU18
 105              		.loc 2 75 10 is_stmt 0 view .LVU19
 106 0000 D0F86436 		ldr	r3, [r0, #1636]
 107              		.loc 2 75 3 view .LVU20
 108 0004 012B     		cmp	r3, #1
 109 0006 06D0     		beq	.L7
 110 0008 032B     		cmp	r3, #3
 111 000a 00D0     		beq	.L8
 112 000c 13B9     		cbnz	r3, .L6
 113              	.L8:
  76:GrannyChordApp.cpp ****     case AppState::SelectFile:
ARM GAS  /var/folders/2p/02m_5p7958535cp2tpgps0400000gn/T//ccIfZOml.s 			page 6


 114              		.loc 2 76 5 is_stmt 1 view .LVU21
  77:GrannyChordApp.cpp ****     case AppState::RecordIn: 
 115              		.loc 2 77 5 view .LVU22
  78:GrannyChordApp.cpp ****       curr_state_ = AppState::PlayWAV;
 116              		.loc 2 78 7 view .LVU23
 117              		.loc 2 78 19 is_stmt 0 view .LVU24
 118 000e 0123     		movs	r3, #1
 119              	.L13:
  79:GrannyChordApp.cpp ****       break;
  80:GrannyChordApp.cpp ****     case AppState::PlayWAV:   curr_state_ = AppState::Synthesis; break;
 120              		.loc 2 80 43 view .LVU25
 121 0010 C0F86436 		str	r3, [r0, #1636]
 122              		.loc 2 80 66 is_stmt 1 view .LVU26
 123              	.L6:
  81:GrannyChordApp.cpp ****     default:
  82:GrannyChordApp.cpp ****       break;
  83:GrannyChordApp.cpp ****   }
  84:GrannyChordApp.cpp **** }
 124              		.loc 2 84 1 is_stmt 0 view .LVU27
 125 0014 7047     		bx	lr
 126              	.L7:
  80:GrannyChordApp.cpp ****     default:
 127              		.loc 2 80 5 is_stmt 1 view .LVU28
  80:GrannyChordApp.cpp ****     default:
 128              		.loc 2 80 31 view .LVU29
  80:GrannyChordApp.cpp ****     default:
 129              		.loc 2 80 43 is_stmt 0 view .LVU30
 130 0016 0223     		movs	r3, #2
 131 0018 FAE7     		b	.L13
 132              		.cfi_endproc
 133              	.LFE4925:
 135              		.section	.text._ZN14GrannyChordApp22HandleEncoderLongPressEv,"ax",%progbits
 136              		.align	1
 137              		.global	_ZN14GrannyChordApp22HandleEncoderLongPressEv
 138              		.syntax unified
 139              		.thumb
 140              		.thumb_func
 142              	_ZN14GrannyChordApp22HandleEncoderLongPressEv:
 143              	.LVL6:
 144              	.LFB4926:
  85:GrannyChordApp.cpp **** 
  86:GrannyChordApp.cpp **** void GrannyChordApp::HandleEncoderLongPress(){
 145              		.loc 2 86 46 is_stmt 1 view -0
 146              		.cfi_startproc
 147              		@ args = 0, pretend = 0, frame = 0
 148              		@ frame_needed = 0, uses_anonymous_args = 0
 149              		@ link register save eliminated.
  87:GrannyChordApp.cpp ****   switch(curr_state_){
 150              		.loc 2 87 3 view .LVU32
 151              		.loc 2 87 10 is_stmt 0 view .LVU33
 152 0000 D0F86436 		ldr	r3, [r0, #1636]
 153              		.loc 2 87 3 view .LVU34
 154 0004 012B     		cmp	r3, #1
 155 0006 03DC     		bgt	.L15
 156 0008 002B     		cmp	r3, #0
 157 000a 07DB     		blt	.L14
  88:GrannyChordApp.cpp ****     case AppState::Synthesis:
ARM GAS  /var/folders/2p/02m_5p7958535cp2tpgps0400000gn/T//ccIfZOml.s 			page 7


  89:GrannyChordApp.cpp ****     case AppState::RecordIn:  
  90:GrannyChordApp.cpp ****       curr_state_ = AppState::SelectFile;
  91:GrannyChordApp.cpp ****       break;
  92:GrannyChordApp.cpp ****     case AppState::SelectFile:
 158              		.loc 2 92 5 is_stmt 1 view .LVU35
  93:GrannyChordApp.cpp ****     case AppState::PlayWAV: 
 159              		.loc 2 93 5 view .LVU36
  94:GrannyChordApp.cpp ****       curr_state_ = AppState::RecordIn;  
 160              		.loc 2 94 7 view .LVU37
 161              		.loc 2 94 19 is_stmt 0 view .LVU38
 162 000c 0323     		movs	r3, #3
 163 000e 03E0     		b	.L18
 164              	.L15:
  87:GrannyChordApp.cpp ****     case AppState::Synthesis:
 165              		.loc 2 87 3 view .LVU39
 166 0010 023B     		subs	r3, r3, #2
 167 0012 012B     		cmp	r3, #1
 168 0014 02D8     		bhi	.L14
  88:GrannyChordApp.cpp ****     case AppState::RecordIn:  
 169              		.loc 2 88 5 is_stmt 1 view .LVU40
  89:GrannyChordApp.cpp ****       curr_state_ = AppState::SelectFile;
 170              		.loc 2 89 5 view .LVU41
  90:GrannyChordApp.cpp ****       break;
 171              		.loc 2 90 7 view .LVU42
  90:GrannyChordApp.cpp ****       break;
 172              		.loc 2 90 19 is_stmt 0 view .LVU43
 173 0016 0023     		movs	r3, #0
 174              	.L18:
 175              		.loc 2 94 19 view .LVU44
 176 0018 C0F86436 		str	r3, [r0, #1636]
  95:GrannyChordApp.cpp ****       break;
 177              		.loc 2 95 7 is_stmt 1 view .LVU45
 178              	.L14:
  96:GrannyChordApp.cpp ****     default:
  97:GrannyChordApp.cpp ****       break;
  98:GrannyChordApp.cpp ****   }
  99:GrannyChordApp.cpp **** }
 179              		.loc 2 99 1 is_stmt 0 view .LVU46
 180 001c 7047     		bx	lr
 181              		.cfi_endproc
 182              	.LFE4926:
 184              		.section	.rodata._ZN14GrannyChordApp19HandleFileSelectionEl.str1.1,"aMS",%progbits,1
 185              	.LC0:
 186 0000 73656C65 		.ascii	"selected file %d\000"
 186      63746564 
 186      2066696C 
 186      65202564 
 186      00
 187              		.section	.text._ZN14GrannyChordApp19HandleFileSelectionEl,"ax",%progbits
 188              		.align	1
 189              		.global	_ZN14GrannyChordApp19HandleFileSelectionEl
 190              		.syntax unified
 191              		.thumb
 192              		.thumb_func
 194              	_ZN14GrannyChordApp19HandleFileSelectionEl:
 195              	.LVL7:
 196              	.LFB4931:
ARM GAS  /var/folders/2p/02m_5p7958535cp2tpgps0400000gn/T//ccIfZOml.s 			page 8


 100:GrannyChordApp.cpp **** 
 101:GrannyChordApp.cpp **** void GrannyChordApp::HandleButton1(){
 102:GrannyChordApp.cpp ****   if (curr_state_==AppState::Synthesis){
 103:GrannyChordApp.cpp ****     UpdateSynthMode();
 104:GrannyChordApp.cpp ****   }
 105:GrannyChordApp.cpp **** }
 106:GrannyChordApp.cpp **** 
 107:GrannyChordApp.cpp **** /// @brief Toggles on/off randomness for synth parameters
 108:GrannyChordApp.cpp **** void GrannyChordApp::HandleButton2(){
 109:GrannyChordApp.cpp ****   if (curr_state_==AppState::Synthesis){
 110:GrannyChordApp.cpp ****     ToggleRandomnessControls();
 111:GrannyChordApp.cpp ****   }
 112:GrannyChordApp.cpp **** }
 113:GrannyChordApp.cpp **** 
 114:GrannyChordApp.cpp **** void GrannyChordApp::HandleButton1LongPress(){
 115:GrannyChordApp.cpp ****   if (curr_state_==AppState::Synthesis){
 116:GrannyChordApp.cpp ****     ToggleFX(true);
 117:GrannyChordApp.cpp ****   }
 118:GrannyChordApp.cpp **** }
 119:GrannyChordApp.cpp **** 
 120:GrannyChordApp.cpp **** void GrannyChordApp::HandleButton2LongPress(){
 121:GrannyChordApp.cpp ****   if (curr_state_==AppState::Synthesis){
 122:GrannyChordApp.cpp ****     ToggleFX(false);
 123:GrannyChordApp.cpp ****   }
 124:GrannyChordApp.cpp **** }
 125:GrannyChordApp.cpp **** 
 126:GrannyChordApp.cpp **** /// @brief Scrolls through list of files for user selection
 127:GrannyChordApp.cpp **** void GrannyChordApp::HandleFileSelection(int32_t encoder_inc){
 197              		.loc 2 127 62 is_stmt 1 view -0
 198              		.cfi_startproc
 199              		@ args = 0, pretend = 0, frame = 0
 200              		@ frame_needed = 0, uses_anonymous_args = 0
 201              		@ link register save eliminated.
 128:GrannyChordApp.cpp ****   int file_count = filemgr_.GetFileCount();
 202              		.loc 2 128 3 view .LVU48
 203              	.LBB208:
 204              	.LBI208:
 205              		.file 3 "AudioFileManager.h"
   1:AudioFileManager.h **** #pragma once
   2:AudioFileManager.h **** #include <stdio.h>
   3:AudioFileManager.h **** #include <stdint.h>
   4:AudioFileManager.h **** #include <vector>
   5:AudioFileManager.h **** #include "daisy_pod.h"
   6:AudioFileManager.h **** #include "constants_utils.h"
   7:AudioFileManager.h **** #include "debug_print.h"
   8:AudioFileManager.h **** 
   9:AudioFileManager.h **** using namespace daisy; 
  10:AudioFileManager.h **** 
  11:AudioFileManager.h **** class AudioFileManager {
  12:AudioFileManager.h ****   public:
  13:AudioFileManager.h ****     AudioFileManager(SdmmcHandler &sd, FatFSInterface &fsi, DaisyPod &pod, FIL *file)
  14:AudioFileManager.h ****       : sd_(sd), fsi_(fsi), pod_(pod), curr_file_(file), 
  15:AudioFileManager.h ****         left_buf_(nullptr), right_buf_(nullptr) {};
  16:AudioFileManager.h ****     
  17:AudioFileManager.h ****     bool Init();
  18:AudioFileManager.h ****     bool ScanWavFiles();
  19:AudioFileManager.h ****     void SetBuffers(int16_t *left, int16_t *right);
ARM GAS  /var/folders/2p/02m_5p7958535cp2tpgps0400000gn/T//ccIfZOml.s 			page 9


  20:AudioFileManager.h ****     bool LoadFile(uint16_t file_idx);
  21:AudioFileManager.h ****     
  22:AudioFileManager.h ****     bool CloseFile();
  23:AudioFileManager.h ****     bool GetWavHeader(FIL *file);
  24:AudioFileManager.h **** 
  25:AudioFileManager.h ****     int16_t* GetLeftBuffer() const { return left_buf_; }
  26:AudioFileManager.h ****     int16_t* GetRightBuffer() const { return right_buf_; }
  27:AudioFileManager.h ****     size_t GetSamplesPerChannel() const { return header_.total_samples / header_.channels; }
  28:AudioFileManager.h ****     size_t GetTotalSamples() const { return header_.total_samples; }
  29:AudioFileManager.h ****     int16_t GetNumChannels() const { return header_.channels; }
  30:AudioFileManager.h ****     uint16_t GetFileCount() const { return file_count_; }
 206              		.loc 3 30 14 view .LVU49
 207              	.LBB209:
 208              		.loc 3 30 37 view .LVU50
 209              		.loc 3 30 44 is_stmt 0 view .LVU51
 210 0000 D0F89C35 		ldr	r3, [r0, #1436]
 211              	.LBE209:
 212              	.LBE208:
 129:GrannyChordApp.cpp ****   file_idx_ = (file_idx_ + encoder_inc + file_count) % file_count;
 213              		.loc 2 129 16 view .LVU52
 214 0004 00F5C220 		add	r0, r0, #397312
 215              	.LVL8:
 216              		.loc 2 129 26 view .LVU53
 217 0008 D0F85822 		ldr	r2, [r0, #600]
 128:GrannyChordApp.cpp ****   int file_count = filemgr_.GetFileCount();
 218              		.loc 2 128 42 view .LVU54
 219 000c B3F81A38 		ldrh	r3, [r3, #2074]
 220              	.LVL9:
 221              		.loc 2 129 3 is_stmt 1 view .LVU55
 222              		.loc 2 129 26 is_stmt 0 view .LVU56
 223 0010 1144     		add	r1, r1, r2
 224              	.LVL10:
 225              		.loc 2 129 40 view .LVU57
 226 0012 1944     		add	r1, r1, r3
 227              		.loc 2 129 54 view .LVU58
 228 0014 91FBF3F2 		sdiv	r2, r1, r3
 229 0018 03FB1211 		mls	r1, r3, r2, r1
 230              		.loc 2 129 13 view .LVU59
 231 001c C0F85812 		str	r1, [r0, #600]
 130:GrannyChordApp.cpp ****   // filemgr_.GetName(file_idx_,fname);
 131:GrannyChordApp.cpp ****   DebugPrint(pod_, "selected file %d",file_idx_);
 232              		.loc 2 131 3 is_stmt 1 view .LVU60
 233              		.loc 2 131 3 view .LVU61
 234              	.LVL11:
 235              	.LBB210:
 236              	.LBI210:
 237              		.file 4 "../libDaisy/src/daisy_seed.h"
   1:../libDaisy/src/daisy_seed.h **** #pragma once
   2:../libDaisy/src/daisy_seed.h **** #ifndef DSY_SEED_H
   3:../libDaisy/src/daisy_seed.h **** #define DSY_SEED_H
   4:../libDaisy/src/daisy_seed.h **** 
   5:../libDaisy/src/daisy_seed.h **** #include "daisy.h"
   6:../libDaisy/src/daisy_seed.h **** 
   7:../libDaisy/src/daisy_seed.h **** //Uncomment this out if you're still using the rev2 hardware
   8:../libDaisy/src/daisy_seed.h **** //#define SEED_REV2
   9:../libDaisy/src/daisy_seed.h **** 
  10:../libDaisy/src/daisy_seed.h **** namespace daisy
ARM GAS  /var/folders/2p/02m_5p7958535cp2tpgps0400000gn/T//ccIfZOml.s 			page 10


  11:../libDaisy/src/daisy_seed.h **** {
  12:../libDaisy/src/daisy_seed.h **** /**
  13:../libDaisy/src/daisy_seed.h ****    @brief This is the higher-level interface for the Daisy board. \n 
  14:../libDaisy/src/daisy_seed.h ****     All basic peripheral configuration/initialization is setup here. \n
  15:../libDaisy/src/daisy_seed.h **** 
  16:../libDaisy/src/daisy_seed.h ****    @ingroup boards
  17:../libDaisy/src/daisy_seed.h **** */
  18:../libDaisy/src/daisy_seed.h **** class DaisySeed
  19:../libDaisy/src/daisy_seed.h **** {
  20:../libDaisy/src/daisy_seed.h ****   public:
  21:../libDaisy/src/daisy_seed.h ****     DaisySeed() {}
  22:../libDaisy/src/daisy_seed.h ****     ~DaisySeed() {}
  23:../libDaisy/src/daisy_seed.h **** 
  24:../libDaisy/src/daisy_seed.h ****     /** This function used to provide a pre-initialization configuraiton 
  25:../libDaisy/src/daisy_seed.h ****      *  it has since been deprecated, and does nothing.
  26:../libDaisy/src/daisy_seed.h ****      */
  27:../libDaisy/src/daisy_seed.h ****     void Configure();
  28:../libDaisy/src/daisy_seed.h **** 
  29:../libDaisy/src/daisy_seed.h ****     /** 
  30:../libDaisy/src/daisy_seed.h ****     Initializes the Daisy Seed and the following peripherals:
  31:../libDaisy/src/daisy_seed.h ****     SDRAM, QSPI, 24-bit 48kHz Audio via AK4556, Internal USB,
  32:../libDaisy/src/daisy_seed.h ****     as well as the built-in LED and Testpoint.
  33:../libDaisy/src/daisy_seed.h **** 
  34:../libDaisy/src/daisy_seed.h ****     ADCs, DACs, and other special peripherals (such as I2C, SPI, etc.)
  35:../libDaisy/src/daisy_seed.h ****     can be initialized using their specific initializers within libdaisy
  36:../libDaisy/src/daisy_seed.h ****     for a specific application.
  37:../libDaisy/src/daisy_seed.h ****     */
  38:../libDaisy/src/daisy_seed.h ****     void Init(bool boost = false);
  39:../libDaisy/src/daisy_seed.h **** 
  40:../libDaisy/src/daisy_seed.h ****     /** 
  41:../libDaisy/src/daisy_seed.h ****     Deinitializes all peripherals automatically handled by `Init`.
  42:../libDaisy/src/daisy_seed.h ****     */
  43:../libDaisy/src/daisy_seed.h ****     void DeInit();
  44:../libDaisy/src/daisy_seed.h **** 
  45:../libDaisy/src/daisy_seed.h ****     /** 
  46:../libDaisy/src/daisy_seed.h ****     Wait some ms before going on.
  47:../libDaisy/src/daisy_seed.h ****     \param del Delay time in ms.
  48:../libDaisy/src/daisy_seed.h ****     */
  49:../libDaisy/src/daisy_seed.h ****     void DelayMs(size_t del);
  50:../libDaisy/src/daisy_seed.h **** 
  51:../libDaisy/src/daisy_seed.h ****     /** 
  52:../libDaisy/src/daisy_seed.h ****     Returns the gpio_pin corresponding to the index 0-31.
  53:../libDaisy/src/daisy_seed.h ****     For the given GPIO on the Daisy Seed (labeled 1-32 in docs).
  54:../libDaisy/src/daisy_seed.h ****     */
  55:../libDaisy/src/daisy_seed.h ****     static dsy_gpio_pin GetPin(uint8_t pin_idx);
  56:../libDaisy/src/daisy_seed.h **** 
  57:../libDaisy/src/daisy_seed.h ****     /** Begins the audio for the seeds builtin audio.
  58:../libDaisy/src/daisy_seed.h ****     the specified callback will get called whenever
  59:../libDaisy/src/daisy_seed.h ****     new data is ready to be prepared.
  60:../libDaisy/src/daisy_seed.h ****     */
  61:../libDaisy/src/daisy_seed.h ****     void StartAudio(AudioHandle::InterleavingAudioCallback cb);
  62:../libDaisy/src/daisy_seed.h **** 
  63:../libDaisy/src/daisy_seed.h ****     /** Begins the audio for the seeds builtin audio.
  64:../libDaisy/src/daisy_seed.h ****     the specified callback will get called whenever
  65:../libDaisy/src/daisy_seed.h ****     new data is ready to be prepared.
  66:../libDaisy/src/daisy_seed.h ****     This will use the newer non-interleaved callback.
  67:../libDaisy/src/daisy_seed.h ****     */
ARM GAS  /var/folders/2p/02m_5p7958535cp2tpgps0400000gn/T//ccIfZOml.s 			page 11


  68:../libDaisy/src/daisy_seed.h ****     void StartAudio(AudioHandle::AudioCallback cb);
  69:../libDaisy/src/daisy_seed.h **** 
  70:../libDaisy/src/daisy_seed.h ****     /** Changes to a new interleaved callback
  71:../libDaisy/src/daisy_seed.h ****      */
  72:../libDaisy/src/daisy_seed.h ****     void ChangeAudioCallback(AudioHandle::InterleavingAudioCallback cb);
  73:../libDaisy/src/daisy_seed.h **** 
  74:../libDaisy/src/daisy_seed.h ****     /** Changes to a new multichannel callback
  75:../libDaisy/src/daisy_seed.h ****      */
  76:../libDaisy/src/daisy_seed.h ****     void ChangeAudioCallback(AudioHandle::AudioCallback cb);
  77:../libDaisy/src/daisy_seed.h **** 
  78:../libDaisy/src/daisy_seed.h ****     /** Stops the audio if it is running. */
  79:../libDaisy/src/daisy_seed.h ****     void StopAudio();
  80:../libDaisy/src/daisy_seed.h **** 
  81:../libDaisy/src/daisy_seed.h ****     /** Updates the Audio Sample Rate, and reinitializes.
  82:../libDaisy/src/daisy_seed.h ****      ** Audio must be stopped for this to work.
  83:../libDaisy/src/daisy_seed.h ****      */
  84:../libDaisy/src/daisy_seed.h ****     void SetAudioSampleRate(SaiHandle::Config::SampleRate samplerate);
  85:../libDaisy/src/daisy_seed.h **** 
  86:../libDaisy/src/daisy_seed.h ****     /** Returns the audio sample rate in Hz as a floating point number.
  87:../libDaisy/src/daisy_seed.h ****      */
  88:../libDaisy/src/daisy_seed.h ****     float AudioSampleRate();
  89:../libDaisy/src/daisy_seed.h **** 
  90:../libDaisy/src/daisy_seed.h ****     /** Sets the number of samples processed per channel by the audio callback.
  91:../libDaisy/src/daisy_seed.h ****      */
  92:../libDaisy/src/daisy_seed.h ****     void SetAudioBlockSize(size_t blocksize);
  93:../libDaisy/src/daisy_seed.h **** 
  94:../libDaisy/src/daisy_seed.h ****     /** Returns the number of samples per channel in a block of audio. */
  95:../libDaisy/src/daisy_seed.h ****     size_t AudioBlockSize();
  96:../libDaisy/src/daisy_seed.h **** 
  97:../libDaisy/src/daisy_seed.h ****     /** Returns the rate in Hz that the Audio callback is called */
  98:../libDaisy/src/daisy_seed.h ****     float AudioCallbackRate() const;
  99:../libDaisy/src/daisy_seed.h **** 
 100:../libDaisy/src/daisy_seed.h ****     /** Returns the SAI Handle for the Daisy Seed 
 101:../libDaisy/src/daisy_seed.h ****      *  This can be useful when adding a secondary codec,
 102:../libDaisy/src/daisy_seed.h ****      *  the result of this function can be passed to the audio reinit 
 103:../libDaisy/src/daisy_seed.h ****      *  with an SAI2 configuration
 104:../libDaisy/src/daisy_seed.h ****      */
 105:../libDaisy/src/daisy_seed.h ****     const SaiHandle& AudioSaiHandle() const;
 106:../libDaisy/src/daisy_seed.h **** 
 107:../libDaisy/src/daisy_seed.h ****     /** Sets the state of the built in LED
 108:../libDaisy/src/daisy_seed.h ****      */
 109:../libDaisy/src/daisy_seed.h ****     void SetLed(bool state);
 110:../libDaisy/src/daisy_seed.h **** 
 111:../libDaisy/src/daisy_seed.h ****     /** Sets the state of the test point near pin 10
 112:../libDaisy/src/daisy_seed.h ****      */
 113:../libDaisy/src/daisy_seed.h ****     void SetTestPoint(bool state);
 114:../libDaisy/src/daisy_seed.h **** 
 115:../libDaisy/src/daisy_seed.h ****     /** Print formatted debug log message
 116:../libDaisy/src/daisy_seed.h ****      */
 117:../libDaisy/src/daisy_seed.h ****     template <typename... VA>
 118:../libDaisy/src/daisy_seed.h ****     static void Print(const char* format, VA... va)
 119:../libDaisy/src/daisy_seed.h ****     {
 120:../libDaisy/src/daisy_seed.h ****         Log::Print(format, va...);
 121:../libDaisy/src/daisy_seed.h ****     }
 122:../libDaisy/src/daisy_seed.h **** 
 123:../libDaisy/src/daisy_seed.h ****     /** Print formatted debug log message with automatic line termination
 124:../libDaisy/src/daisy_seed.h ****     */
ARM GAS  /var/folders/2p/02m_5p7958535cp2tpgps0400000gn/T//ccIfZOml.s 			page 12


 125:../libDaisy/src/daisy_seed.h ****     template <typename... VA>
 126:../libDaisy/src/daisy_seed.h ****     static void PrintLine(const char* format, VA... va)
 238              		.loc 4 126 17 view .LVU62
 239              	.LBB211:
 127:../libDaisy/src/daisy_seed.h ****     {
 128:../libDaisy/src/daisy_seed.h ****         Log::PrintLine(format, va...);
 240              		.loc 4 128 23 is_stmt 0 view .LVU63
 241 0020 0148     		ldr	r0, .L20
 242              	.LVL12:
 243              		.loc 4 128 23 view .LVU64
 244 0022 FFF7FEBF 		b	_ZN5daisy6LoggerILNS_17LoggerDestinationE1EE9PrintLineEPKcz
 245              	.LVL13:
 246              	.L21:
 247              		.loc 4 128 23 view .LVU65
 248 0026 00BF     		.align	2
 249              	.L20:
 250 0028 00000000 		.word	.LC0
 251              	.LBE211:
 252              	.LBE210:
 253              		.cfi_endproc
 254              	.LFE4931:
 256              		.section	.text._ZN14GrannyChordApp15UpdateSynthModeEv,"ax",%progbits
 257              		.align	1
 258              		.global	_ZN14GrannyChordApp15UpdateSynthModeEv
 259              		.syntax unified
 260              		.thumb
 261              		.thumb_func
 263              	_ZN14GrannyChordApp15UpdateSynthModeEv:
 264              	.LVL14:
 265              	.LFB4932:
 132:GrannyChordApp.cpp **** }
 133:GrannyChordApp.cpp **** 
 134:GrannyChordApp.cpp **** /// @brief iterates through synth parameter control modes
 135:GrannyChordApp.cpp **** void GrannyChordApp::UpdateSynthMode(){
 266              		.loc 2 135 39 is_stmt 1 view -0
 267              		.cfi_startproc
 268              		@ args = 0, pretend = 0, frame = 0
 269              		@ frame_needed = 0, uses_anonymous_args = 0
 270              		@ link register save eliminated.
 136:GrannyChordApp.cpp ****   switch(curr_synth_mode_){
 271              		.loc 2 136 3 view .LVU67
 272 0000 D0F86C36 		ldr	r3, [r0, #1644]
 273 0004 062B     		cmp	r3, #6
 274 0006 08D8     		bhi	.L22
 275 0008 DFE803F0 		tbb	[pc, r3]
 276              	.L25:
 277 000c 04       		.byte	(.L28-.L25)/2
 278 000d 07       		.byte	(.L22-.L25)/2
 279 000e 08       		.byte	(.L27-.L25)/2
 280 000f 07       		.byte	(.L22-.L25)/2
 281 0010 0A       		.byte	(.L26-.L25)/2
 282 0011 07       		.byte	(.L22-.L25)/2
 283 0012 0C       		.byte	(.L24-.L25)/2
 284 0013 00       		.p2align 1
 285              	.L28:
 137:GrannyChordApp.cpp ****     case SynthMode::Size_Position:
 286              		.loc 2 137 5 view .LVU68
ARM GAS  /var/folders/2p/02m_5p7958535cp2tpgps0400000gn/T//ccIfZOml.s 			page 13


 138:GrannyChordApp.cpp ****       curr_synth_mode_ = SynthMode::Pitch_ActiveGrains;
 287              		.loc 2 138 7 view .LVU69
 288              		.loc 2 138 24 is_stmt 0 view .LVU70
 289 0014 0223     		movs	r3, #2
 290              	.L29:
 139:GrannyChordApp.cpp ****       break;
 140:GrannyChordApp.cpp ****     case SynthMode::Pitch_ActiveGrains:
 141:GrannyChordApp.cpp ****       curr_synth_mode_ = SynthMode::PhasorMode_EnvType;
 142:GrannyChordApp.cpp ****       break;
 143:GrannyChordApp.cpp ****     case SynthMode::PhasorMode_EnvType:
 144:GrannyChordApp.cpp ****       curr_synth_mode_ = SynthMode::Pan_PanRnd;
 145:GrannyChordApp.cpp ****       break;
 146:GrannyChordApp.cpp ****     case SynthMode::Pan_PanRnd:
 147:GrannyChordApp.cpp ****       curr_synth_mode_ = SynthMode::Size_Position;
 291              		.loc 2 147 24 view .LVU71
 292 0016 C0F86C36 		str	r3, [r0, #1644]
 148:GrannyChordApp.cpp ****       break;
 293              		.loc 2 148 7 is_stmt 1 view .LVU72
 294              	.L22:
 149:GrannyChordApp.cpp ****     default:
 150:GrannyChordApp.cpp ****       break;
 151:GrannyChordApp.cpp ****   }
 152:GrannyChordApp.cpp **** }
 295              		.loc 2 152 1 is_stmt 0 view .LVU73
 296 001a 7047     		bx	lr
 297              	.L27:
 140:GrannyChordApp.cpp ****       curr_synth_mode_ = SynthMode::PhasorMode_EnvType;
 298              		.loc 2 140 5 is_stmt 1 view .LVU74
 141:GrannyChordApp.cpp ****       break;
 299              		.loc 2 141 7 view .LVU75
 141:GrannyChordApp.cpp ****       break;
 300              		.loc 2 141 24 is_stmt 0 view .LVU76
 301 001c 0423     		movs	r3, #4
 302 001e FAE7     		b	.L29
 303              	.L26:
 143:GrannyChordApp.cpp ****       curr_synth_mode_ = SynthMode::Pan_PanRnd;
 304              		.loc 2 143 5 is_stmt 1 view .LVU77
 144:GrannyChordApp.cpp ****       break;
 305              		.loc 2 144 7 view .LVU78
 144:GrannyChordApp.cpp ****       break;
 306              		.loc 2 144 24 is_stmt 0 view .LVU79
 307 0020 0623     		movs	r3, #6
 308 0022 F8E7     		b	.L29
 309              	.L24:
 146:GrannyChordApp.cpp ****       curr_synth_mode_ = SynthMode::Size_Position;
 310              		.loc 2 146 5 is_stmt 1 view .LVU80
 147:GrannyChordApp.cpp ****       break;
 311              		.loc 2 147 7 view .LVU81
 147:GrannyChordApp.cpp ****       break;
 312              		.loc 2 147 24 is_stmt 0 view .LVU82
 313 0024 0023     		movs	r3, #0
 314 0026 F6E7     		b	.L29
 315              		.cfi_endproc
 316              	.LFE4932:
 318              		.section	.text._ZN14GrannyChordApp13HandleButton1Ev,"ax",%progbits
 319              		.align	1
 320              		.global	_ZN14GrannyChordApp13HandleButton1Ev
ARM GAS  /var/folders/2p/02m_5p7958535cp2tpgps0400000gn/T//ccIfZOml.s 			page 14


 321              		.syntax unified
 322              		.thumb
 323              		.thumb_func
 325              	_ZN14GrannyChordApp13HandleButton1Ev:
 326              	.LVL15:
 327              	.LFB4927:
 101:GrannyChordApp.cpp ****   if (curr_state_==AppState::Synthesis){
 328              		.loc 2 101 37 is_stmt 1 view -0
 329              		.cfi_startproc
 330              		@ args = 0, pretend = 0, frame = 0
 331              		@ frame_needed = 0, uses_anonymous_args = 0
 332              		@ link register save eliminated.
 102:GrannyChordApp.cpp ****     UpdateSynthMode();
 333              		.loc 2 102 3 view .LVU84
 334 0000 D0F86436 		ldr	r3, [r0, #1636]
 335 0004 022B     		cmp	r3, #2
 336 0006 01D1     		bne	.L30
 103:GrannyChordApp.cpp ****   }
 337              		.loc 2 103 5 view .LVU85
 103:GrannyChordApp.cpp ****   }
 338              		.loc 2 103 20 is_stmt 0 view .LVU86
 339 0008 FFF7FEBF 		b	_ZN14GrannyChordApp15UpdateSynthModeEv
 340              	.LVL16:
 341              	.L30:
 105:GrannyChordApp.cpp **** 
 342              		.loc 2 105 1 view .LVU87
 343 000c 7047     		bx	lr
 344              		.cfi_endproc
 345              	.LFE4927:
 347              		.section	.text._ZN14GrannyChordApp24ToggleRandomnessControlsEv,"ax",%progbits
 348              		.align	1
 349              		.global	_ZN14GrannyChordApp24ToggleRandomnessControlsEv
 350              		.syntax unified
 351              		.thumb
 352              		.thumb_func
 354              	_ZN14GrannyChordApp24ToggleRandomnessControlsEv:
 355              	.LVL17:
 356              	.LFB4934:
 153:GrannyChordApp.cpp **** 
 154:GrannyChordApp.cpp **** /// @brief Updates synth parameters based on current synth mode and adjusts
 155:GrannyChordApp.cpp **** ///        knob input values to account for knob jitter and deadzones around 0/1
 156:GrannyChordApp.cpp **** void GrannyChordApp::UpdateSynthParams(){
 157:GrannyChordApp.cpp ****   if (curr_state_!=AppState::Synthesis) return;
 158:GrannyChordApp.cpp ****   int mode_idx = static_cast<int>(curr_synth_mode_);
 159:GrannyChordApp.cpp ****   float knob1_val = MapKnobDeadzone(pod_.knob1.Process());
 160:GrannyChordApp.cpp ****   float knob2_val = MapKnobDeadzone(pod_.knob2.Process());
 161:GrannyChordApp.cpp **** 
 162:GrannyChordApp.cpp ****   if (CheckParamDelta(knob1_val,prev_param_vals_k1[mode_idx])){
 163:GrannyChordApp.cpp ****     UpdateKnob1Params(knob1_val,curr_synth_mode_);
 164:GrannyChordApp.cpp ****     prev_param_vals_k1[mode_idx] = knob1_val;
 165:GrannyChordApp.cpp ****   }
 166:GrannyChordApp.cpp ****   if(CheckParamDelta(knob2_val, prev_param_vals_k2[mode_idx])){
 167:GrannyChordApp.cpp ****     UpdateKnob2Params(knob2_val, curr_synth_mode_);
 168:GrannyChordApp.cpp ****     prev_param_vals_k2[mode_idx] = knob2_val;
 169:GrannyChordApp.cpp ****   }
 170:GrannyChordApp.cpp **** }
 171:GrannyChordApp.cpp **** 
ARM GAS  /var/folders/2p/02m_5p7958535cp2tpgps0400000gn/T//ccIfZOml.s 			page 15


 172:GrannyChordApp.cpp **** void GrannyChordApp::ToggleRandomnessControls(){
 357              		.loc 2 172 48 is_stmt 1 view -0
 358              		.cfi_startproc
 359              		@ args = 0, pretend = 0, frame = 0
 360              		@ frame_needed = 0, uses_anonymous_args = 0
 361              		@ link register save eliminated.
 173:GrannyChordApp.cpp ****   if (curr_synth_mode_ <= SynthMode::PhasorMode_EnvType_Rnd){
 362              		.loc 2 173 3 view .LVU89
 363              		.loc 2 173 7 is_stmt 0 view .LVU90
 364 0000 D0F86C36 		ldr	r3, [r0, #1644]
 365              		.loc 2 173 3 view .LVU91
 366 0004 052B     		cmp	r3, #5
 174:GrannyChordApp.cpp ****     /* below works because regular modes are even, random modes are odd
 175:GrannyChordApp.cpp ****       so we can XOR their enum value to get the corresponding mode */
 176:GrannyChordApp.cpp ****     curr_synth_mode_ = static_cast<SynthMode>(static_cast<int>(curr_synth_mode_) ^ 1);
 367              		.loc 2 176 5 is_stmt 1 view .LVU92
 368              		.loc 2 176 82 is_stmt 0 view .LVU93
 369 0006 DCBF     		itt	le
 370 0008 83F00103 		eorle	r3, r3, #1
 371              		.loc 2 176 22 view .LVU94
 372 000c C0F86C36 		strle	r3, [r0, #1644]
 177:GrannyChordApp.cpp ****   }
 178:GrannyChordApp.cpp **** }
 373              		.loc 2 178 1 view .LVU95
 374 0010 7047     		bx	lr
 375              		.cfi_endproc
 376              	.LFE4934:
 378              		.section	.text._ZN14GrannyChordApp13HandleButton2Ev,"ax",%progbits
 379              		.align	1
 380              		.global	_ZN14GrannyChordApp13HandleButton2Ev
 381              		.syntax unified
 382              		.thumb
 383              		.thumb_func
 385              	_ZN14GrannyChordApp13HandleButton2Ev:
 386              	.LVL18:
 387              	.LFB4928:
 108:GrannyChordApp.cpp ****   if (curr_state_==AppState::Synthesis){
 388              		.loc 2 108 37 is_stmt 1 view -0
 389              		.cfi_startproc
 390              		@ args = 0, pretend = 0, frame = 0
 391              		@ frame_needed = 0, uses_anonymous_args = 0
 392              		@ link register save eliminated.
 109:GrannyChordApp.cpp ****     ToggleRandomnessControls();
 393              		.loc 2 109 3 view .LVU97
 394 0000 D0F86436 		ldr	r3, [r0, #1636]
 395 0004 022B     		cmp	r3, #2
 396 0006 01D1     		bne	.L34
 110:GrannyChordApp.cpp ****   }
 397              		.loc 2 110 5 view .LVU98
 110:GrannyChordApp.cpp ****   }
 398              		.loc 2 110 29 is_stmt 0 view .LVU99
 399 0008 FFF7FEBF 		b	_ZN14GrannyChordApp24ToggleRandomnessControlsEv
 400              	.LVL19:
 401              	.L34:
 112:GrannyChordApp.cpp **** 
 402              		.loc 2 112 1 view .LVU100
 403 000c 7047     		bx	lr
ARM GAS  /var/folders/2p/02m_5p7958535cp2tpgps0400000gn/T//ccIfZOml.s 			page 16


 404              		.cfi_endproc
 405              	.LFE4928:
 407              		.section	.text._ZN14GrannyChordApp8ToggleFXEb,"ax",%progbits
 408              		.align	1
 409              		.global	_ZN14GrannyChordApp8ToggleFXEb
 410              		.syntax unified
 411              		.thumb
 412              		.thumb_func
 414              	_ZN14GrannyChordApp8ToggleFXEb:
 415              	.LVL20:
 416              	.LFB4935:
 179:GrannyChordApp.cpp **** 
 180:GrannyChordApp.cpp **** void GrannyChordApp::ToggleFX(bool which_fx){
 417              		.loc 2 180 45 is_stmt 1 view -0
 418              		.cfi_startproc
 419              		@ args = 0, pretend = 0, frame = 0
 420              		@ frame_needed = 0, uses_anonymous_args = 0
 421              		@ link register save eliminated.
 181:GrannyChordApp.cpp ****   if (curr_synth_mode_ >= SynthMode::Reverb){
 422              		.loc 2 181 3 view .LVU102
 423              		.loc 2 181 7 is_stmt 0 view .LVU103
 424 0000 D0F86C36 		ldr	r3, [r0, #1644]
 425              		.loc 2 181 3 view .LVU104
 426 0004 062B     		cmp	r3, #6
 427 0006 04DD     		ble	.L37
 182:GrannyChordApp.cpp ****     curr_synth_mode_ = prev_synth_mode_;
 428              		.loc 2 182 5 is_stmt 1 view .LVU105
 429              		.loc 2 182 22 is_stmt 0 view .LVU106
 430 0008 D0F87036 		ldr	r3, [r0, #1648]
 431              	.L41:
 183:GrannyChordApp.cpp ****     return;
 184:GrannyChordApp.cpp ****   }
 185:GrannyChordApp.cpp ****   prev_synth_mode_ =  curr_synth_mode_;
 186:GrannyChordApp.cpp ****   /* if true, switch to reverb, else false - cheap but it works */
 187:GrannyChordApp.cpp ****   curr_synth_mode_ = which_fx ? SynthMode::Reverb : SynthMode::Filter;
 432              		.loc 2 187 20 view .LVU107
 433 000c C0F86C36 		str	r3, [r0, #1644]
 188:GrannyChordApp.cpp **** }
 434              		.loc 2 188 1 view .LVU108
 435 0010 7047     		bx	lr
 436              	.L37:
 185:GrannyChordApp.cpp ****   /* if true, switch to reverb, else false - cheap but it works */
 437              		.loc 2 185 3 is_stmt 1 view .LVU109
 187:GrannyChordApp.cpp **** }
 438              		.loc 2 187 31 is_stmt 0 view .LVU110
 439 0012 0029     		cmp	r1, #0
 185:GrannyChordApp.cpp ****   /* if true, switch to reverb, else false - cheap but it works */
 440              		.loc 2 185 20 view .LVU111
 441 0014 C0F87036 		str	r3, [r0, #1648]
 187:GrannyChordApp.cpp **** }
 442              		.loc 2 187 3 is_stmt 1 view .LVU112
 187:GrannyChordApp.cpp **** }
 443              		.loc 2 187 31 is_stmt 0 view .LVU113
 444 0018 14BF     		ite	ne
 445 001a 0723     		movne	r3, #7
 446 001c 0823     		moveq	r3, #8
 447 001e F5E7     		b	.L41
ARM GAS  /var/folders/2p/02m_5p7958535cp2tpgps0400000gn/T//ccIfZOml.s 			page 17


 448              		.cfi_endproc
 449              	.LFE4935:
 451              		.section	.text._ZN14GrannyChordApp22HandleButton1LongPressEv,"ax",%progbits
 452              		.align	1
 453              		.global	_ZN14GrannyChordApp22HandleButton1LongPressEv
 454              		.syntax unified
 455              		.thumb
 456              		.thumb_func
 458              	_ZN14GrannyChordApp22HandleButton1LongPressEv:
 459              	.LVL21:
 460              	.LFB4929:
 114:GrannyChordApp.cpp ****   if (curr_state_==AppState::Synthesis){
 461              		.loc 2 114 46 is_stmt 1 view -0
 462              		.cfi_startproc
 463              		@ args = 0, pretend = 0, frame = 0
 464              		@ frame_needed = 0, uses_anonymous_args = 0
 465              		@ link register save eliminated.
 115:GrannyChordApp.cpp ****     ToggleFX(true);
 466              		.loc 2 115 3 view .LVU115
 467 0000 D0F86436 		ldr	r3, [r0, #1636]
 468 0004 022B     		cmp	r3, #2
 469 0006 02D1     		bne	.L42
 116:GrannyChordApp.cpp ****   }
 470              		.loc 2 116 5 view .LVU116
 116:GrannyChordApp.cpp ****   }
 471              		.loc 2 116 13 is_stmt 0 view .LVU117
 472 0008 0121     		movs	r1, #1
 473 000a FFF7FEBF 		b	_ZN14GrannyChordApp8ToggleFXEb
 474              	.LVL22:
 475              	.L42:
 118:GrannyChordApp.cpp **** 
 476              		.loc 2 118 1 view .LVU118
 477 000e 7047     		bx	lr
 478              		.cfi_endproc
 479              	.LFE4929:
 481              		.section	.text._ZN14GrannyChordApp22HandleButton2LongPressEv,"ax",%progbits
 482              		.align	1
 483              		.global	_ZN14GrannyChordApp22HandleButton2LongPressEv
 484              		.syntax unified
 485              		.thumb
 486              		.thumb_func
 488              	_ZN14GrannyChordApp22HandleButton2LongPressEv:
 489              	.LVL23:
 490              	.LFB4930:
 120:GrannyChordApp.cpp ****   if (curr_state_==AppState::Synthesis){
 491              		.loc 2 120 46 is_stmt 1 view -0
 492              		.cfi_startproc
 493              		@ args = 0, pretend = 0, frame = 0
 494              		@ frame_needed = 0, uses_anonymous_args = 0
 495              		@ link register save eliminated.
 121:GrannyChordApp.cpp ****     ToggleFX(false);
 496              		.loc 2 121 3 view .LVU120
 497 0000 D0F86436 		ldr	r3, [r0, #1636]
 498 0004 022B     		cmp	r3, #2
 499 0006 02D1     		bne	.L44
 122:GrannyChordApp.cpp ****   }
 500              		.loc 2 122 5 view .LVU121
ARM GAS  /var/folders/2p/02m_5p7958535cp2tpgps0400000gn/T//ccIfZOml.s 			page 18


 122:GrannyChordApp.cpp ****   }
 501              		.loc 2 122 13 is_stmt 0 view .LVU122
 502 0008 0021     		movs	r1, #0
 503 000a FFF7FEBF 		b	_ZN14GrannyChordApp8ToggleFXEb
 504              	.LVL24:
 505              	.L44:
 124:GrannyChordApp.cpp **** 
 506              		.loc 2 124 1 view .LVU123
 507 000e 7047     		bx	lr
 508              		.cfi_endproc
 509              	.LFE4930:
 511              		.section	.text._ZN14GrannyChordApp11InitFileMgrEv,"ax",%progbits
 512              		.align	1
 513              		.global	_ZN14GrannyChordApp11InitFileMgrEv
 514              		.syntax unified
 515              		.thumb
 516              		.thumb_func
 518              	_ZN14GrannyChordApp11InitFileMgrEv:
 519              	.LVL25:
 520              	.LFB4936:
 189:GrannyChordApp.cpp **** 
 190:GrannyChordApp.cpp **** /// @brief Initialises file manager, sets audio data buffers and scans SD card for WAV files
 191:GrannyChordApp.cpp **** /// @return True on successful initialisation, false if init fails or no WAV files found
 192:GrannyChordApp.cpp **** bool GrannyChordApp::InitFileMgr(){
 521              		.loc 2 192 35 is_stmt 1 view -0
 522              		.cfi_startproc
 523              		@ args = 0, pretend = 0, frame = 0
 524              		@ frame_needed = 0, uses_anonymous_args = 0
 193:GrannyChordApp.cpp ****   filemgr_.SetBuffers(left_buf_,right_buf_);
 525              		.loc 2 193 3 view .LVU125
 526              		.loc 2 193 22 is_stmt 0 view .LVU126
 527 0000 00F5C223 		add	r3, r0, #397312
 192:GrannyChordApp.cpp ****   filemgr_.SetBuffers(left_buf_,right_buf_);
 528              		.loc 2 192 35 view .LVU127
 529 0004 10B5     		push	{r4, lr}
 530              		.cfi_def_cfa_offset 8
 531              		.cfi_offset 4, -8
 532              		.cfi_offset 14, -4
 192:GrannyChordApp.cpp ****   filemgr_.SetBuffers(left_buf_,right_buf_);
 533              		.loc 2 192 35 view .LVU128
 534 0006 0446     		mov	r4, r0
 535              		.loc 2 193 22 view .LVU129
 536 0008 D0F89C05 		ldr	r0, [r0, #1436]
 537              	.LVL26:
 538              		.loc 2 193 22 view .LVU130
 539 000c D3E99412 		ldrd	r1, r2, [r3, #592]
 540 0010 FFF7FEFF 		bl	_ZN16AudioFileManager10SetBuffersEPsS0_
 541              	.LVL27:
 194:GrannyChordApp.cpp ****   if (!filemgr_.Init()){
 542              		.loc 2 194 3 is_stmt 1 view .LVU131
 543              		.loc 2 194 21 is_stmt 0 view .LVU132
 544 0014 D4F89C05 		ldr	r0, [r4, #1436]
 545 0018 FFF7FEFF 		bl	_ZN16AudioFileManager4InitEv
 546              	.LVL28:
 547              		.loc 2 194 3 view .LVU133
 548 001c 20B9     		cbnz	r0, .L47
 549              	.L49:
ARM GAS  /var/folders/2p/02m_5p7958535cp2tpgps0400000gn/T//ccIfZOml.s 			page 19


 195:GrannyChordApp.cpp ****       curr_state_ = AppState::Error;
 550              		.loc 2 195 7 is_stmt 1 view .LVU134
 551              		.loc 2 195 19 is_stmt 0 view .LVU135
 552 001e 0423     		movs	r3, #4
 196:GrannyChordApp.cpp ****       return false;
 553              		.loc 2 196 14 view .LVU136
 554 0020 0020     		movs	r0, #0
 195:GrannyChordApp.cpp ****       curr_state_ = AppState::Error;
 555              		.loc 2 195 19 view .LVU137
 556 0022 C4F86436 		str	r3, [r4, #1636]
 557              		.loc 2 196 7 is_stmt 1 view .LVU138
 558              	.L48:
 197:GrannyChordApp.cpp ****   }
 198:GrannyChordApp.cpp ****   if (!filemgr_.ScanWavFiles()){
 199:GrannyChordApp.cpp ****     curr_state_ = AppState::Error;
 200:GrannyChordApp.cpp ****     return false;
 201:GrannyChordApp.cpp ****   }
 202:GrannyChordApp.cpp ****   return true;
 203:GrannyChordApp.cpp **** }
 559              		.loc 2 203 1 is_stmt 0 view .LVU139
 560 0026 10BD     		pop	{r4, pc}
 561              	.LVL29:
 562              	.L47:
 563              	.LBB214:
 564              	.LBI214:
 192:GrannyChordApp.cpp ****   filemgr_.SetBuffers(left_buf_,right_buf_);
 565              		.loc 2 192 6 is_stmt 1 view .LVU140
 566              	.LBB215:
 198:GrannyChordApp.cpp ****     curr_state_ = AppState::Error;
 567              		.loc 2 198 3 view .LVU141
 198:GrannyChordApp.cpp ****     curr_state_ = AppState::Error;
 568              		.loc 2 198 29 is_stmt 0 view .LVU142
 569 0028 D4F89C05 		ldr	r0, [r4, #1436]
 570 002c FFF7FEFF 		bl	_ZN16AudioFileManager12ScanWavFilesEv
 571              	.LVL30:
 198:GrannyChordApp.cpp ****     curr_state_ = AppState::Error;
 572              		.loc 2 198 3 view .LVU143
 573 0030 0028     		cmp	r0, #0
 574 0032 F8D1     		bne	.L48
 575 0034 F3E7     		b	.L49
 576              	.LBE215:
 577              	.LBE214:
 578              		.cfi_endproc
 579              	.LFE4936:
 581              		.section	.text._ZN14GrannyChordApp9InitSynthEv,"ax",%progbits
 582              		.align	1
 583              		.global	_ZN14GrannyChordApp9InitSynthEv
 584              		.syntax unified
 585              		.thumb
 586              		.thumb_func
 588              	_ZN14GrannyChordApp9InitSynthEv:
 589              	.LVL31:
 590              	.LFB4937:
 204:GrannyChordApp.cpp **** 
 205:GrannyChordApp.cpp **** /// @brief Calls synth initialisation function, passes audio data buffers and audio length
 206:GrannyChordApp.cpp **** void GrannyChordApp::InitSynth(){
 591              		.loc 2 206 33 is_stmt 1 view -0
ARM GAS  /var/folders/2p/02m_5p7958535cp2tpgps0400000gn/T//ccIfZOml.s 			page 20


 592              		.cfi_startproc
 593              		@ args = 0, pretend = 0, frame = 0
 594              		@ frame_needed = 0, uses_anonymous_args = 0
 595              		@ link register save eliminated.
 207:GrannyChordApp.cpp ****   synth_.Init(left_buf_, right_buf_, audio_len_);
 596              		.loc 2 207 3 view .LVU145
 597              		.loc 2 207 38 is_stmt 0 view .LVU146
 598 0000 00F5C221 		add	r1, r0, #397312
 599              		.loc 2 207 14 view .LVU147
 600 0004 0430     		adds	r0, r0, #4
 601              	.LVL32:
 602              		.loc 2 207 14 view .LVU148
 603 0006 D1F8A032 		ldr	r3, [r1, #672]
 604 000a D1E99412 		ldrd	r1, r2, [r1, #592]
 605 000e FFF7FEBF 		b	_ZN13GranularSynth4InitEPKsS1_j
 606              	.LVL33:
 607              		.loc 2 207 14 view .LVU149
 608              		.cfi_endproc
 609              	.LFE4937:
 611              		.section	.text._ZN14GrannyChordApp17ClearAudioBuffersEv,"ax",%progbits
 612              		.align	1
 613              		.global	_ZN14GrannyChordApp17ClearAudioBuffersEv
 614              		.syntax unified
 615              		.thumb
 616              		.thumb_func
 618              	_ZN14GrannyChordApp17ClearAudioBuffersEv:
 619              	.LVL34:
 620              	.LFB4938:
 208:GrannyChordApp.cpp **** }
 209:GrannyChordApp.cpp **** 
 210:GrannyChordApp.cpp **** /// @brief Resets current file index and audio data buffers
 211:GrannyChordApp.cpp **** ///        Calls method to handle WAV file selection
 212:GrannyChordApp.cpp **** void GrannyChordApp::ClearAudioBuffers(){
 621              		.loc 2 212 41 is_stmt 1 view -0
 622              		.cfi_startproc
 623              		@ args = 0, pretend = 0, frame = 0
 624              		@ frame_needed = 0, uses_anonymous_args = 0
 213:GrannyChordApp.cpp ****   memset(left_buf_, 0, CHNL_BUF_SIZE_ABS);
 625              		.loc 2 213 3 view .LVU151
 212:GrannyChordApp.cpp ****   memset(left_buf_, 0, CHNL_BUF_SIZE_ABS);
 626              		.loc 2 212 41 is_stmt 0 view .LVU152
 627 0000 10B5     		push	{r4, lr}
 628              		.cfi_def_cfa_offset 8
 629              		.cfi_offset 4, -8
 630              		.cfi_offset 14, -4
 631              		.loc 2 213 10 view .LVU153
 632 0002 00F5C224 		add	r4, r0, #397312
 633              		.loc 2 213 9 view .LVU154
 634 0006 4FF08072 		mov	r2, #16777216
 635 000a 0021     		movs	r1, #0
 636 000c D4F85002 		ldr	r0, [r4, #592]
 637              	.LVL35:
 638              		.loc 2 213 9 view .LVU155
 639 0010 FFF7FEFF 		bl	memset
 640              	.LVL36:
 214:GrannyChordApp.cpp ****   memset(right_buf_, 0, CHNL_BUF_SIZE_ABS);
 641              		.loc 2 214 3 is_stmt 1 view .LVU156
ARM GAS  /var/folders/2p/02m_5p7958535cp2tpgps0400000gn/T//ccIfZOml.s 			page 21


 642              		.loc 2 214 9 is_stmt 0 view .LVU157
 643 0014 D4F85402 		ldr	r0, [r4, #596]
 644 0018 4FF08072 		mov	r2, #16777216
 645 001c 0021     		movs	r1, #0
 215:GrannyChordApp.cpp **** }
 646              		.loc 2 215 1 view .LVU158
 647 001e BDE81040 		pop	{r4, lr}
 648              		.cfi_restore 14
 649              		.cfi_restore 4
 650              		.cfi_def_cfa_offset 0
 651              	.LVL37:
 214:GrannyChordApp.cpp ****   memset(right_buf_, 0, CHNL_BUF_SIZE_ABS);
 652              		.loc 2 214 9 view .LVU159
 653 0022 FFF7FEBF 		b	memset
 654              	.LVL38:
 655              		.cfi_endproc
 656              	.LFE4938:
 658              		.section	.text._ZN14GrannyChordApp12InitPlaybackEv,"ax",%progbits
 659              		.align	1
 660              		.global	_ZN14GrannyChordApp12InitPlaybackEv
 661              		.syntax unified
 662              		.thumb
 663              		.thumb_func
 665              	_ZN14GrannyChordApp12InitPlaybackEv:
 666              	.LVL39:
 667              	.LFB4939:
 216:GrannyChordApp.cpp **** 
 217:GrannyChordApp.cpp **** /// @brief Initialises WAV playback state, resets playhead, sets current file audio length
 218:GrannyChordApp.cpp **** void GrannyChordApp::InitPlayback(){
 668              		.loc 2 218 36 is_stmt 1 view -0
 669              		.cfi_startproc
 670              		@ args = 0, pretend = 0, frame = 0
 671              		@ frame_needed = 0, uses_anonymous_args = 0
 219:GrannyChordApp.cpp ****   wav_playhead_ = 0;
 672              		.loc 2 219 3 view .LVU161
 673              		.loc 2 219 17 is_stmt 0 view .LVU162
 674 0000 00F5C223 		add	r3, r0, #397312
 675 0004 0022     		movs	r2, #0
 218:GrannyChordApp.cpp ****   wav_playhead_ = 0;
 676              		.loc 2 218 36 view .LVU163
 677 0006 10B5     		push	{r4, lr}
 678              		.cfi_def_cfa_offset 8
 679              		.cfi_offset 4, -8
 680              		.cfi_offset 14, -4
 218:GrannyChordApp.cpp ****   wav_playhead_ = 0;
 681              		.loc 2 218 36 view .LVU164
 682 0008 0446     		mov	r4, r0
 220:GrannyChordApp.cpp ****   audio_len_ = filemgr_.GetSamplesPerChannel();
 683              		.loc 2 220 16 view .LVU165
 684 000a D0F89C05 		ldr	r0, [r0, #1436]
 685              	.LVL40:
 219:GrannyChordApp.cpp ****   wav_playhead_ = 0;
 686              		.loc 2 219 17 view .LVU166
 687 000e C3F89C22 		str	r2, [r3, #668]
 688              		.loc 2 220 3 is_stmt 1 view .LVU167
 689              	.LVL41:
 690              	.LBB216:
ARM GAS  /var/folders/2p/02m_5p7958535cp2tpgps0400000gn/T//ccIfZOml.s 			page 22


 691              	.LBI216:
  27:AudioFileManager.h ****     size_t GetTotalSamples() const { return header_.total_samples; }
 692              		.loc 3 27 12 view .LVU168
 693              	.LBB217:
  27:AudioFileManager.h ****     size_t GetTotalSamples() const { return header_.total_samples; }
 694              		.loc 3 27 43 view .LVU169
  27:AudioFileManager.h ****     size_t GetTotalSamples() const { return header_.total_samples; }
 695              		.loc 3 27 82 is_stmt 0 view .LVU170
 696 0012 B0F92418 		ldrsh	r1, [r0, #2084]
 697 0016 D0F82828 		ldr	r2, [r0, #2088]
 698 001a B2FBF1F2 		udiv	r2, r2, r1
 699              	.LBE217:
 700              	.LBE216:
 221:GrannyChordApp.cpp ****   if (!filemgr_.LoadFile(file_idx_)) curr_state_=AppState::Error;
 701              		.loc 2 221 25 view .LVU171
 702 001e B3F85812 		ldrh	r1, [r3, #600]
 220:GrannyChordApp.cpp ****   audio_len_ = filemgr_.GetSamplesPerChannel();
 703              		.loc 2 220 14 view .LVU172
 704 0022 C3F8A022 		str	r2, [r3, #672]
 705              		.loc 2 221 3 is_stmt 1 view .LVU173
 706              		.loc 2 221 25 is_stmt 0 view .LVU174
 707 0026 FFF7FEFF 		bl	_ZN16AudioFileManager8LoadFileEt
 708              	.LVL42:
 709              		.loc 2 221 3 view .LVU175
 710 002a 10B9     		cbnz	r0, .L55
 711              		.loc 2 221 38 is_stmt 1 discriminator 1 view .LVU176
 712              		.loc 2 221 49 is_stmt 0 discriminator 1 view .LVU177
 713 002c 0423     		movs	r3, #4
 714 002e C4F86436 		str	r3, [r4, #1636]
 715              	.L55:
 222:GrannyChordApp.cpp **** }
 716              		.loc 2 222 1 view .LVU178
 717 0032 10BD     		pop	{r4, pc}
 718              		.loc 2 222 1 view .LVU179
 719              		.cfi_endproc
 720              	.LFE4939:
 722              		.section	.text._ZN14GrannyChordApp17HandleStateChangeEv,"ax",%progbits
 723              		.align	1
 724              		.global	_ZN14GrannyChordApp17HandleStateChangeEv
 725              		.syntax unified
 726              		.thumb
 727              		.thumb_func
 729              	_ZN14GrannyChordApp17HandleStateChangeEv:
 730              	.LVL43:
 731              	.LFB4924:
  60:GrannyChordApp.cpp ****   switch(curr_state_){
 732              		.loc 2 60 41 is_stmt 1 view -0
 733              		.cfi_startproc
 734              		@ args = 0, pretend = 0, frame = 0
 735              		@ frame_needed = 0, uses_anonymous_args = 0
  61:GrannyChordApp.cpp ****     // case AppState::SelectFile:  HandleFileSelection(); break; 
 736              		.loc 2 61 3 view .LVU181
 737 0000 D0F86436 		ldr	r3, [r0, #1636]
 738 0004 013B     		subs	r3, r3, #1
  60:GrannyChordApp.cpp ****   switch(curr_state_){
 739              		.loc 2 60 41 is_stmt 0 view .LVU182
 740 0006 10B5     		push	{r4, lr}
ARM GAS  /var/folders/2p/02m_5p7958535cp2tpgps0400000gn/T//ccIfZOml.s 			page 23


 741              		.cfi_def_cfa_offset 8
 742              		.cfi_offset 4, -8
 743              		.cfi_offset 14, -4
  60:GrannyChordApp.cpp ****   switch(curr_state_){
 744              		.loc 2 60 41 view .LVU183
 745 0008 0446     		mov	r4, r0
  61:GrannyChordApp.cpp ****     // case AppState::SelectFile:  HandleFileSelection(); break; 
 746              		.loc 2 61 3 view .LVU184
 747 000a 032B     		cmp	r3, #3
 748 000c 1ED8     		bhi	.L57
 749 000e DFE803F0 		tbb	[pc, r3]
 750              	.L60:
 751 0012 06       		.byte	(.L63-.L60)/2
 752 0013 0A       		.byte	(.L62-.L60)/2
 753 0014 02       		.byte	(.L61-.L60)/2
 754 0015 0E       		.byte	(.L59-.L60)/2
 755              		.p2align 1
 756              	.L61:
  63:GrannyChordApp.cpp ****     case AppState::PlayWAV:     InitPlayback();        break;
 757              		.loc 2 63 5 is_stmt 1 view .LVU185
  63:GrannyChordApp.cpp ****     case AppState::PlayWAV:     InitPlayback();        break;
 758              		.loc 2 63 33 view .LVU186
  72:GrannyChordApp.cpp **** 
 759              		.loc 2 72 1 is_stmt 0 view .LVU187
 760 0016 BDE81040 		pop	{r4, lr}
 761              		.cfi_remember_state
 762              		.cfi_restore 14
 763              		.cfi_restore 4
 764              		.cfi_def_cfa_offset 0
  63:GrannyChordApp.cpp ****     case AppState::PlayWAV:     InitPlayback();        break;
 765              		.loc 2 63 50 view .LVU188
 766 001a FFF7FEBF 		b	_ZN14GrannyChordApp17ClearAudioBuffersEv
 767              	.LVL44:
 768              	.L63:
 769              		.cfi_restore_state
  64:GrannyChordApp.cpp ****     case AppState::Synthesis:   InitSynth();           break;
 770              		.loc 2 64 5 is_stmt 1 view .LVU189
  64:GrannyChordApp.cpp ****     case AppState::Synthesis:   InitSynth();           break;
 771              		.loc 2 64 33 view .LVU190
  72:GrannyChordApp.cpp **** 
 772              		.loc 2 72 1 is_stmt 0 view .LVU191
 773 001e BDE81040 		pop	{r4, lr}
 774              		.cfi_remember_state
 775              		.cfi_restore 14
 776              		.cfi_restore 4
 777              		.cfi_def_cfa_offset 0
  64:GrannyChordApp.cpp ****     case AppState::Synthesis:   InitSynth();           break;
 778              		.loc 2 64 45 view .LVU192
 779 0022 FFF7FEBF 		b	_ZN14GrannyChordApp12InitPlaybackEv
 780              	.LVL45:
 781              	.L62:
 782              		.cfi_restore_state
  65:GrannyChordApp.cpp ****     case AppState::Error: 
 783              		.loc 2 65 5 is_stmt 1 view .LVU193
  65:GrannyChordApp.cpp ****     case AppState::Error: 
 784              		.loc 2 65 33 view .LVU194
  72:GrannyChordApp.cpp **** 
ARM GAS  /var/folders/2p/02m_5p7958535cp2tpgps0400000gn/T//ccIfZOml.s 			page 24


 785              		.loc 2 72 1 is_stmt 0 view .LVU195
 786 0026 BDE81040 		pop	{r4, lr}
 787              		.cfi_remember_state
 788              		.cfi_restore 14
 789              		.cfi_restore 4
 790              		.cfi_def_cfa_offset 0
  65:GrannyChordApp.cpp ****     case AppState::Error: 
 791              		.loc 2 65 42 view .LVU196
 792 002a FFF7FEBF 		b	_ZN14GrannyChordApp9InitSynthEv
 793              	.LVL46:
 794              	.L59:
 795              		.cfi_restore_state
 796              	.LBB220:
 797              	.LBI220:
  60:GrannyChordApp.cpp ****   switch(curr_state_){
 798              		.loc 2 60 6 is_stmt 1 view .LVU197
 799              	.LBB221:
  66:GrannyChordApp.cpp ****       pod_.led1.SetRed(1); 
 800              		.loc 2 66 5 view .LVU198
  67:GrannyChordApp.cpp ****       pod_.led2.SetRed(1); 
 801              		.loc 2 67 7 view .LVU199
  67:GrannyChordApp.cpp ****       pod_.led2.SetRed(1); 
 802              		.loc 2 67 23 is_stmt 0 view .LVU200
 803 002e 0068     		ldr	r0, [r0]
 804              	.LVL47:
  67:GrannyChordApp.cpp ****       pod_.led2.SetRed(1); 
 805              		.loc 2 67 23 view .LVU201
 806 0030 B7EE000A 		vmov.f32	s0, #1.0e+0
 807 0034 D830     		adds	r0, r0, #216
 808 0036 FFF7FEFF 		bl	_ZN5daisy6RgbLed6SetRedEf
 809              	.LVL48:
  68:GrannyChordApp.cpp ****       break;
 810              		.loc 2 68 7 is_stmt 1 view .LVU202
  68:GrannyChordApp.cpp ****       break;
 811              		.loc 2 68 23 is_stmt 0 view .LVU203
 812 003a 2068     		ldr	r0, [r4]
 813 003c B7EE000A 		vmov.f32	s0, #1.0e+0
 814 0040 00F59670 		add	r0, r0, #300
 815              	.LBE221:
 816              	.LBE220:
  72:GrannyChordApp.cpp **** 
 817              		.loc 2 72 1 view .LVU204
 818 0044 BDE81040 		pop	{r4, lr}
 819              		.cfi_remember_state
 820              		.cfi_restore 14
 821              		.cfi_restore 4
 822              		.cfi_def_cfa_offset 0
 823              	.LVL49:
 824              	.LBB223:
 825              	.LBB222:
  68:GrannyChordApp.cpp ****       break;
 826              		.loc 2 68 23 view .LVU205
 827 0048 FFF7FEBF 		b	_ZN5daisy6RgbLed6SetRedEf
 828              	.LVL50:
 829              	.L57:
 830              		.cfi_restore_state
  68:GrannyChordApp.cpp ****       break;
ARM GAS  /var/folders/2p/02m_5p7958535cp2tpgps0400000gn/T//ccIfZOml.s 			page 25


 831              		.loc 2 68 23 view .LVU206
 832              	.LBE222:
 833              	.LBE223:
  72:GrannyChordApp.cpp **** 
 834              		.loc 2 72 1 view .LVU207
 835 004c 10BD     		pop	{r4, pc}
 836              		.cfi_endproc
 837              	.LFE4924:
 839              		.section	.text._ZN14GrannyChordApp8UpdateUIEv,"ax",%progbits
 840              		.align	1
 841              		.global	_ZN14GrannyChordApp8UpdateUIEv
 842              		.syntax unified
 843              		.thumb
 844              		.thumb_func
 846              	_ZN14GrannyChordApp8UpdateUIEv:
 847              	.LVL51:
 848              	.LFB4923:
  38:GrannyChordApp.cpp ****   AppState prev_state = curr_state_;
 849              		.loc 2 38 32 is_stmt 1 view -0
 850              		.cfi_startproc
 851              		@ args = 0, pretend = 0, frame = 0
 852              		@ frame_needed = 0, uses_anonymous_args = 0
  39:GrannyChordApp.cpp ****   pod_.ProcessDigitalControls();
 853              		.loc 2 39 3 view .LVU209
  38:GrannyChordApp.cpp ****   AppState prev_state = curr_state_;
 854              		.loc 2 38 32 is_stmt 0 view .LVU210
 855 0000 38B5     		push	{r3, r4, r5, lr}
 856              		.cfi_def_cfa_offset 16
 857              		.cfi_offset 3, -16
 858              		.cfi_offset 4, -12
 859              		.cfi_offset 5, -8
 860              		.cfi_offset 14, -4
 861 0002 0446     		mov	r4, r0
  39:GrannyChordApp.cpp ****   pod_.ProcessDigitalControls();
 862              		.loc 2 39 12 view .LVU211
 863 0004 D0F86456 		ldr	r5, [r0, #1636]
 864              	.LVL52:
  40:GrannyChordApp.cpp ****   if (pod_.encoder.Pressed()) HandleEncoderPressed();
 865              		.loc 2 40 3 is_stmt 1 view .LVU212
  40:GrannyChordApp.cpp ****   if (pod_.encoder.Pressed()) HandleEncoderPressed();
 866              		.loc 2 40 30 is_stmt 0 view .LVU213
 867 0008 0068     		ldr	r0, [r0]
 868              	.LVL53:
  38:GrannyChordApp.cpp ****   AppState prev_state = curr_state_;
 869              		.loc 2 38 32 view .LVU214
 870 000a 2DED028B 		vpush.64	{d8}
 871              		.cfi_def_cfa_offset 24
 872              		.cfi_offset 80, -24
 873              		.cfi_offset 81, -20
  40:GrannyChordApp.cpp ****   if (pod_.encoder.Pressed()) HandleEncoderPressed();
 874              		.loc 2 40 30 view .LVU215
 875 000e FFF7FEFF 		bl	_ZN5daisy8DaisyPod22ProcessDigitalControlsEv
 876              	.LVL54:
  41:GrannyChordApp.cpp ****   if (pod_.encoder.TimeHeldMs() > 1000.0f) HandleEncoderLongPress();
 877              		.loc 2 41 3 is_stmt 1 view .LVU216
 878              	.LBB224:
 879              	.LBI224:
ARM GAS  /var/folders/2p/02m_5p7958535cp2tpgps0400000gn/T//ccIfZOml.s 			page 26


 880              		.file 5 "../libDaisy/src/hid/encoder.h"
   1:../libDaisy/src/hid/encoder.h **** #pragma once
   2:../libDaisy/src/hid/encoder.h **** #ifndef DSY_ENCODER_H
   3:../libDaisy/src/hid/encoder.h **** #define DSY_ENCODER_H
   4:../libDaisy/src/hid/encoder.h **** #include "daisy_core.h"
   5:../libDaisy/src/hid/encoder.h **** #include "per/gpio.h"
   6:../libDaisy/src/hid/encoder.h **** #include "hid/switch.h"
   7:../libDaisy/src/hid/encoder.h **** 
   8:../libDaisy/src/hid/encoder.h **** namespace daisy
   9:../libDaisy/src/hid/encoder.h **** {
  10:../libDaisy/src/hid/encoder.h **** /** 
  11:../libDaisy/src/hid/encoder.h ****     @brief Generic Class for handling Quadrature Encoders \n 
  12:../libDaisy/src/hid/encoder.h ****     Inspired/influenced by Mutable Instruments (pichenettes) Encoder classes
  13:../libDaisy/src/hid/encoder.h ****     @author Stephen Hensley
  14:../libDaisy/src/hid/encoder.h ****     @date December 2019
  15:../libDaisy/src/hid/encoder.h ****     @ingroup controls
  16:../libDaisy/src/hid/encoder.h **** */
  17:../libDaisy/src/hid/encoder.h **** class Encoder
  18:../libDaisy/src/hid/encoder.h **** {
  19:../libDaisy/src/hid/encoder.h ****   public:
  20:../libDaisy/src/hid/encoder.h ****     Encoder() {}
  21:../libDaisy/src/hid/encoder.h ****     ~Encoder() {}
  22:../libDaisy/src/hid/encoder.h **** 
  23:../libDaisy/src/hid/encoder.h ****     /** Initializes the encoder with the specified hardware pins.
  24:../libDaisy/src/hid/encoder.h ****      * Update rate is to be deprecated in a future release
  25:../libDaisy/src/hid/encoder.h ****      */
  26:../libDaisy/src/hid/encoder.h ****     void Init(dsy_gpio_pin a,
  27:../libDaisy/src/hid/encoder.h ****               dsy_gpio_pin b,
  28:../libDaisy/src/hid/encoder.h ****               dsy_gpio_pin click,
  29:../libDaisy/src/hid/encoder.h ****               float        update_rate = 0.f);
  30:../libDaisy/src/hid/encoder.h ****     /** Called at update_rate to debounce and handle timing for the switch.
  31:../libDaisy/src/hid/encoder.h ****      * In order for events not to be missed, its important that the Edge/Pressed checks be made at 
  32:../libDaisy/src/hid/encoder.h ****      */
  33:../libDaisy/src/hid/encoder.h ****     void Debounce();
  34:../libDaisy/src/hid/encoder.h **** 
  35:../libDaisy/src/hid/encoder.h ****     /** Returns +1 if the encoder was turned clockwise, -1 if it was turned counter-clockwise, or 0
  36:../libDaisy/src/hid/encoder.h ****     inline int32_t Increment() const { return updated_ ? inc_ : 0; }
  37:../libDaisy/src/hid/encoder.h **** 
  38:../libDaisy/src/hid/encoder.h ****     /** Returns true if the encoder was just pressed. */
  39:../libDaisy/src/hid/encoder.h ****     inline bool RisingEdge() const { return sw_.RisingEdge(); }
  40:../libDaisy/src/hid/encoder.h **** 
  41:../libDaisy/src/hid/encoder.h ****     /** Returns true if the encoder was just released. */
  42:../libDaisy/src/hid/encoder.h ****     inline bool FallingEdge() const { return sw_.FallingEdge(); }
  43:../libDaisy/src/hid/encoder.h **** 
  44:../libDaisy/src/hid/encoder.h ****     /** Returns true while the encoder is held down.*/
  45:../libDaisy/src/hid/encoder.h ****     inline bool Pressed() const { return sw_.Pressed(); }
 881              		.loc 5 45 17 view .LVU217
 882              	.LBE224:
 883              		.loc 5 45 35 view .LVU218
 884              	.LBB227:
 885              	.LBB225:
 886              	.LBI225:
  79:../libDaisy/src/hid/switch.h **** 
 887              		.loc 1 79 17 view .LVU219
 888              	.LBB226:
  79:../libDaisy/src/hid/switch.h **** 
 889              		.loc 1 79 35 view .LVU220
ARM GAS  /var/folders/2p/02m_5p7958535cp2tpgps0400000gn/T//ccIfZOml.s 			page 27


  79:../libDaisy/src/hid/switch.h **** 
 890              		.loc 1 79 42 is_stmt 0 view .LVU221
 891 0012 2368     		ldr	r3, [r4]
 892              	.LBE226:
 893              	.LBE225:
 894              	.LBE227:
  41:GrannyChordApp.cpp ****   if (pod_.encoder.TimeHeldMs() > 1000.0f) HandleEncoderLongPress();
 895              		.loc 2 41 3 view .LVU222
 896 0014 93F85230 		ldrb	r3, [r3, #82]	@ zero_extendqisi2
 897 0018 FF2B     		cmp	r3, #255
 898 001a 02D1     		bne	.L65
  41:GrannyChordApp.cpp ****   if (pod_.encoder.TimeHeldMs() > 1000.0f) HandleEncoderLongPress();
 899              		.loc 2 41 31 is_stmt 1 discriminator 1 view .LVU223
  41:GrannyChordApp.cpp ****   if (pod_.encoder.TimeHeldMs() > 1000.0f) HandleEncoderLongPress();
 900              		.loc 2 41 51 is_stmt 0 discriminator 1 view .LVU224
 901 001c 2046     		mov	r0, r4
 902 001e FFF7FEFF 		bl	_ZN14GrannyChordApp20HandleEncoderPressedEv
 903              	.LVL55:
 904              	.L65:
  42:GrannyChordApp.cpp ****   if (pod_.button1.Pressed()) HandleButton1();
 905              		.loc 2 42 3 is_stmt 1 view .LVU225
 906              	.LBB228:
 907              	.LBI228:
  46:../libDaisy/src/hid/encoder.h **** 
  47:../libDaisy/src/hid/encoder.h ****     /** Returns the time in milliseconds that the encoder has been held down. */
  48:../libDaisy/src/hid/encoder.h ****     inline float TimeHeldMs() const { return sw_.TimeHeldMs(); }
 908              		.loc 5 48 18 view .LVU226
 909              	.LBB229:
 910              		.loc 5 48 39 view .LVU227
 911              		.loc 5 48 60 is_stmt 0 view .LVU228
 912 0022 2068     		ldr	r0, [r4]
 913              	.LBE229:
 914              	.LBE228:
  42:GrannyChordApp.cpp ****   if (pod_.button1.Pressed()) HandleButton1();
 915              		.loc 2 42 3 view .LVU229
 916 0024 9FED298A 		vldr.32	s16, .L87
 917              	.LBB231:
 918              	.LBB230:
 919              		.loc 5 48 60 view .LVU230
 920 0028 4830     		adds	r0, r0, #72
 921 002a FFF7FEFF 		bl	_ZNK5daisy6Switch10TimeHeldMsEv
 922              	.LVL56:
 923              		.loc 5 48 60 view .LVU231
 924              	.LBE230:
 925              	.LBE231:
  42:GrannyChordApp.cpp ****   if (pod_.button1.Pressed()) HandleButton1();
 926              		.loc 2 42 3 view .LVU232
 927 002e B4EEC80A 		vcmpe.f32	s0, s16
 928 0032 F1EE10FA 		vmrs	APSR_nzcv, FPSCR
 929 0036 02DD     		ble	.L66
  42:GrannyChordApp.cpp ****   if (pod_.button1.Pressed()) HandleButton1();
 930              		.loc 2 42 44 is_stmt 1 discriminator 1 view .LVU233
  42:GrannyChordApp.cpp ****   if (pod_.button1.Pressed()) HandleButton1();
 931              		.loc 2 42 66 is_stmt 0 discriminator 1 view .LVU234
 932 0038 2046     		mov	r0, r4
 933 003a FFF7FEFF 		bl	_ZN14GrannyChordApp22HandleEncoderLongPressEv
 934              	.LVL57:
ARM GAS  /var/folders/2p/02m_5p7958535cp2tpgps0400000gn/T//ccIfZOml.s 			page 28


 935              	.L66:
  43:GrannyChordApp.cpp ****   if (pod_.button2.Pressed()) HandleButton2();
 936              		.loc 2 43 3 is_stmt 1 view .LVU235
 937              	.LBB232:
 938              	.LBI232:
  79:../libDaisy/src/hid/switch.h **** 
 939              		.loc 1 79 17 view .LVU236
 940              	.LBB233:
  79:../libDaisy/src/hid/switch.h **** 
 941              		.loc 1 79 35 view .LVU237
  79:../libDaisy/src/hid/switch.h **** 
 942              		.loc 1 79 42 is_stmt 0 view .LVU238
 943 003e 2368     		ldr	r3, [r4]
 944              	.LBE233:
 945              	.LBE232:
  43:GrannyChordApp.cpp ****   if (pod_.button2.Pressed()) HandleButton2();
 946              		.loc 2 43 3 view .LVU239
 947 0040 93F8BA30 		ldrb	r3, [r3, #186]	@ zero_extendqisi2
 948 0044 FF2B     		cmp	r3, #255
 949 0046 02D1     		bne	.L68
  43:GrannyChordApp.cpp ****   if (pod_.button2.Pressed()) HandleButton2();
 950              		.loc 2 43 31 is_stmt 1 discriminator 1 view .LVU240
  43:GrannyChordApp.cpp ****   if (pod_.button2.Pressed()) HandleButton2();
 951              		.loc 2 43 44 is_stmt 0 discriminator 1 view .LVU241
 952 0048 2046     		mov	r0, r4
 953 004a FFF7FEFF 		bl	_ZN14GrannyChordApp13HandleButton1Ev
 954              	.LVL58:
 955              	.L68:
  44:GrannyChordApp.cpp ****   if (curr_state_==AppState::Synthesis){
 956              		.loc 2 44 3 is_stmt 1 view .LVU242
 957              	.LBB234:
 958              	.LBI234:
  79:../libDaisy/src/hid/switch.h **** 
 959              		.loc 1 79 17 view .LVU243
 960              	.LBB235:
  79:../libDaisy/src/hid/switch.h **** 
 961              		.loc 1 79 35 view .LVU244
  79:../libDaisy/src/hid/switch.h **** 
 962              		.loc 1 79 42 is_stmt 0 view .LVU245
 963 004e 2368     		ldr	r3, [r4]
 964              	.LBE235:
 965              	.LBE234:
  44:GrannyChordApp.cpp ****   if (curr_state_==AppState::Synthesis){
 966              		.loc 2 44 3 view .LVU246
 967 0050 93F8CA30 		ldrb	r3, [r3, #202]	@ zero_extendqisi2
 968 0054 FF2B     		cmp	r3, #255
 969 0056 02D1     		bne	.L69
  44:GrannyChordApp.cpp ****   if (curr_state_==AppState::Synthesis){
 970              		.loc 2 44 31 is_stmt 1 discriminator 1 view .LVU247
  44:GrannyChordApp.cpp ****   if (curr_state_==AppState::Synthesis){
 971              		.loc 2 44 44 is_stmt 0 discriminator 1 view .LVU248
 972 0058 2046     		mov	r0, r4
 973 005a FFF7FEFF 		bl	_ZN14GrannyChordApp13HandleButton2Ev
 974              	.LVL59:
 975              	.L69:
  45:GrannyChordApp.cpp ****     if (pod_.button1.TimeHeldMs() >1000.0f) HandleButton1LongPress();
 976              		.loc 2 45 3 is_stmt 1 view .LVU249
ARM GAS  /var/folders/2p/02m_5p7958535cp2tpgps0400000gn/T//ccIfZOml.s 			page 29


 977 005e D4F86436 		ldr	r3, [r4, #1636]
 978 0062 022B     		cmp	r3, #2
 979 0064 17D1     		bne	.L71
  46:GrannyChordApp.cpp ****     if (pod_.button2.TimeHeldMs() >1000.0f) HandleButton2LongPress();
 980              		.loc 2 46 5 view .LVU250
  46:GrannyChordApp.cpp ****     if (pod_.button2.TimeHeldMs() >1000.0f) HandleButton2LongPress();
 981              		.loc 2 46 32 is_stmt 0 view .LVU251
 982 0066 2068     		ldr	r0, [r4]
 983 0068 B030     		adds	r0, r0, #176
 984 006a FFF7FEFF 		bl	_ZNK5daisy6Switch10TimeHeldMsEv
 985              	.LVL60:
  46:GrannyChordApp.cpp ****     if (pod_.button2.TimeHeldMs() >1000.0f) HandleButton2LongPress();
 986              		.loc 2 46 5 view .LVU252
 987 006e B4EEC80A 		vcmpe.f32	s0, s16
 988 0072 F1EE10FA 		vmrs	APSR_nzcv, FPSCR
 989 0076 02DD     		ble	.L72
  46:GrannyChordApp.cpp ****     if (pod_.button2.TimeHeldMs() >1000.0f) HandleButton2LongPress();
 990              		.loc 2 46 45 is_stmt 1 discriminator 1 view .LVU253
  46:GrannyChordApp.cpp ****     if (pod_.button2.TimeHeldMs() >1000.0f) HandleButton2LongPress();
 991              		.loc 2 46 67 is_stmt 0 discriminator 1 view .LVU254
 992 0078 2046     		mov	r0, r4
 993 007a FFF7FEFF 		bl	_ZN14GrannyChordApp22HandleButton1LongPressEv
 994              	.LVL61:
 995              	.L72:
  47:GrannyChordApp.cpp ****   }
 996              		.loc 2 47 5 is_stmt 1 view .LVU255
  47:GrannyChordApp.cpp ****   }
 997              		.loc 2 47 32 is_stmt 0 view .LVU256
 998 007e 2068     		ldr	r0, [r4]
 999 0080 C030     		adds	r0, r0, #192
 1000 0082 FFF7FEFF 		bl	_ZNK5daisy6Switch10TimeHeldMsEv
 1001              	.LVL62:
  47:GrannyChordApp.cpp ****   }
 1002              		.loc 2 47 5 view .LVU257
 1003 0086 B4EEC80A 		vcmpe.f32	s0, s16
 1004 008a F1EE10FA 		vmrs	APSR_nzcv, FPSCR
 1005 008e 02DD     		ble	.L71
  47:GrannyChordApp.cpp ****   }
 1006              		.loc 2 47 45 is_stmt 1 discriminator 1 view .LVU258
  47:GrannyChordApp.cpp ****   }
 1007              		.loc 2 47 67 is_stmt 0 discriminator 1 view .LVU259
 1008 0090 2046     		mov	r0, r4
 1009 0092 FFF7FEFF 		bl	_ZN14GrannyChordApp22HandleButton2LongPressEv
 1010              	.LVL63:
 1011              	.L71:
  50:GrannyChordApp.cpp ****   if (encoder_inc!=0 && curr_state_== AppState::SelectFile){
 1012              		.loc 2 50 3 is_stmt 1 view .LVU260
  50:GrannyChordApp.cpp ****   if (encoder_inc!=0 && curr_state_== AppState::SelectFile){
 1013              		.loc 2 50 25 is_stmt 0 view .LVU261
 1014 0096 2368     		ldr	r3, [r4]
 1015              	.LVL64:
 1016              	.LBB236:
 1017              	.LBI236:
  36:../libDaisy/src/hid/encoder.h **** 
 1018              		.loc 5 36 20 is_stmt 1 view .LVU262
 1019              	.LBB237:
  36:../libDaisy/src/hid/encoder.h **** 
ARM GAS  /var/folders/2p/02m_5p7958535cp2tpgps0400000gn/T//ccIfZOml.s 			page 30


 1020              		.loc 5 36 40 view .LVU263
  36:../libDaisy/src/hid/encoder.h **** 
 1021              		.loc 5 36 56 is_stmt 0 view .LVU264
 1022 0098 93F84420 		ldrb	r2, [r3, #68]	@ zero_extendqisi2
 1023 009c 3AB1     		cbz	r2, .L76
 1024 009e 596E     		ldr	r1, [r3, #100]
 1025              	.LVL65:
  36:../libDaisy/src/hid/encoder.h **** 
 1026              		.loc 5 36 56 view .LVU265
 1027              	.LBE237:
 1028              	.LBE236:
  51:GrannyChordApp.cpp ****     HandleFileSelection(encoder_inc);
 1029              		.loc 2 51 3 is_stmt 1 view .LVU266
 1030 00a0 29B1     		cbz	r1, .L76
  51:GrannyChordApp.cpp ****     HandleFileSelection(encoder_inc);
 1031              		.loc 2 51 22 is_stmt 0 discriminator 1 view .LVU267
 1032 00a2 D4F86436 		ldr	r3, [r4, #1636]
 1033 00a6 13B9     		cbnz	r3, .L76
  52:GrannyChordApp.cpp ****   }
 1034              		.loc 2 52 5 is_stmt 1 view .LVU268
  52:GrannyChordApp.cpp ****   }
 1035              		.loc 2 52 24 is_stmt 0 view .LVU269
 1036 00a8 2046     		mov	r0, r4
 1037 00aa FFF7FEFF 		bl	_ZN14GrannyChordApp19HandleFileSelectionEl
 1038              	.LVL66:
 1039              	.L76:
  55:GrannyChordApp.cpp ****     HandleStateChange();
 1040              		.loc 2 55 3 is_stmt 1 view .LVU270
 1041 00ae D4F86436 		ldr	r3, [r4, #1636]
 1042 00b2 AB42     		cmp	r3, r5
 1043 00b4 06D0     		beq	.L64
  56:GrannyChordApp.cpp ****   }
 1044              		.loc 2 56 5 view .LVU271
  56:GrannyChordApp.cpp ****   }
 1045              		.loc 2 56 22 is_stmt 0 view .LVU272
 1046 00b6 2046     		mov	r0, r4
  58:GrannyChordApp.cpp **** 
 1047              		.loc 2 58 1 view .LVU273
 1048 00b8 BDEC028B 		vldm	sp!, {d8}
 1049              		.cfi_remember_state
 1050              		.cfi_restore 80
 1051              		.cfi_restore 81
 1052              		.cfi_def_cfa_offset 16
 1053 00bc BDE83840 		pop	{r3, r4, r5, lr}
 1054              		.cfi_restore 14
 1055              		.cfi_restore 5
 1056              		.cfi_restore 4
 1057              		.cfi_restore 3
 1058              		.cfi_def_cfa_offset 0
 1059              	.LVL67:
  56:GrannyChordApp.cpp ****   }
 1060              		.loc 2 56 22 view .LVU274
 1061 00c0 FFF7FEBF 		b	_ZN14GrannyChordApp17HandleStateChangeEv
 1062              	.LVL68:
 1063              	.L64:
 1064              		.cfi_restore_state
  58:GrannyChordApp.cpp **** 
ARM GAS  /var/folders/2p/02m_5p7958535cp2tpgps0400000gn/T//ccIfZOml.s 			page 31


 1065              		.loc 2 58 1 view .LVU275
 1066 00c4 BDEC028B 		vldm	sp!, {d8}
 1067              		.cfi_restore 80
 1068              		.cfi_restore 81
 1069              		.cfi_def_cfa_offset 16
 1070 00c8 38BD     		pop	{r3, r4, r5, pc}
 1071              	.LVL69:
 1072              	.L88:
  58:GrannyChordApp.cpp **** 
 1073              		.loc 2 58 1 view .LVU276
 1074 00ca 00BF     		.align	2
 1075              	.L87:
 1076 00cc 00007A44 		.word	1148846080
 1077              		.cfi_endproc
 1078              	.LFE4923:
 1080              		.section	.rodata._ZN14GrannyChordApp12InitRecordInEv.str1.1,"aMS",%progbits,1
 1081              	.LC1:
 1082 0000 636C6561 		.ascii	"cleared audio buffers for recording in\000"
 1082      72656420 
 1082      61756469 
 1082      6F206275 
 1082      66666572 
 1083              		.section	.text._ZN14GrannyChordApp12InitRecordInEv,"ax",%progbits
 1084              		.align	1
 1085              		.global	_ZN14GrannyChordApp12InitRecordInEv
 1086              		.syntax unified
 1087              		.thumb
 1088              		.thumb_func
 1090              	_ZN14GrannyChordApp12InitRecordInEv:
 1091              	.LVL70:
 1092              	.LFB4940:
 223:GrannyChordApp.cpp **** 
 224:GrannyChordApp.cpp **** /// @brief Initialises RecordIn state, clears audio buffers
 225:GrannyChordApp.cpp **** void GrannyChordApp::InitRecordIn(){
 1093              		.loc 2 225 36 is_stmt 1 view -0
 1094              		.cfi_startproc
 1095              		@ args = 0, pretend = 0, frame = 0
 1096              		@ frame_needed = 0, uses_anonymous_args = 0
 1097              		@ link register save eliminated.
 226:GrannyChordApp.cpp **** 
 227:GrannyChordApp.cpp ****   DebugPrint(pod_, "cleared audio buffers for recording in");
 1098              		.loc 2 227 3 view .LVU278
 1099              		.loc 2 227 3 view .LVU279
 1100              	.LBB238:
 1101              	.LBI238:
 126:../libDaisy/src/daisy_seed.h ****     {
 1102              		.loc 4 126 17 view .LVU280
 1103              	.LBB239:
 1104              		.loc 4 128 23 is_stmt 0 view .LVU281
 1105 0000 0148     		ldr	r0, .L90
 1106              	.LVL71:
 1107              		.loc 4 128 23 view .LVU282
 1108 0002 FFF7FEBF 		b	_ZN5daisy6LoggerILNS_17LoggerDestinationE1EE9PrintLineEPKcz
 1109              	.LVL72:
 1110              	.L91:
 1111 0006 00BF     		.align	2
 1112              	.L90:
ARM GAS  /var/folders/2p/02m_5p7958535cp2tpgps0400000gn/T//ccIfZOml.s 			page 32


 1113 0008 00000000 		.word	.LC1
 1114              	.LBE239:
 1115              	.LBE238:
 1116              		.cfi_endproc
 1117              	.LFE4940:
 1119              		.section	.text._ZN14GrannyChordApp13InitWavWriterEv,"ax",%progbits
 1120              		.align	1
 1121              		.global	_ZN14GrannyChordApp13InitWavWriterEv
 1122              		.syntax unified
 1123              		.thumb
 1124              		.thumb_func
 1126              	_ZN14GrannyChordApp13InitWavWriterEv:
 1127              	.LVL73:
 1128              	.LFB4941:
 228:GrannyChordApp.cpp **** }
 229:GrannyChordApp.cpp **** 
 230:GrannyChordApp.cpp **** /// @brief Initialise object for recording out to SD card
 231:GrannyChordApp.cpp **** void GrannyChordApp::InitWavWriter(){
 1129              		.loc 2 231 37 is_stmt 1 view -0
 1130              		.cfi_startproc
 1131              		@ args = 0, pretend = 0, frame = 0
 1132              		@ frame_needed = 0, uses_anonymous_args = 0
 1133              		@ link register save eliminated.
 232:GrannyChordApp.cpp ****   WavWriter<16384>::Config cfg;
 1134              		.loc 2 232 3 view .LVU284
 233:GrannyChordApp.cpp ****   cfg.bitspersample = BIT_DEPTH;
 1135              		.loc 2 233 3 view .LVU285
 234:GrannyChordApp.cpp ****   cfg.channels = filemgr_.GetNumChannels();
 1136              		.loc 2 234 3 view .LVU286
 1137              	.LBB248:
 1138              	.LBI248:
  29:AudioFileManager.h ****     uint16_t GetFileCount() const { return file_count_; }
 1139              		.loc 3 29 13 view .LVU287
 1140              	.LBB249:
  29:AudioFileManager.h ****     uint16_t GetFileCount() const { return file_count_; }
 1141              		.loc 3 29 38 view .LVU288
  29:AudioFileManager.h ****     uint16_t GetFileCount() const { return file_count_; }
 1142              		.loc 3 29 53 is_stmt 0 view .LVU289
 1143 0000 D0F89C35 		ldr	r3, [r0, #1436]
 1144              	.LBE249:
 1145              	.LBE248:
 1146              	.LBB251:
 1147              	.LBB252:
 1148              		.file 6 "../libDaisy/src/util/WavWriter.h"
   1:../libDaisy/src/util/WavWriter.h **** #pragma once
   2:../libDaisy/src/util/WavWriter.h **** #pragma once
   3:../libDaisy/src/util/WavWriter.h **** #include "fatfs.h"
   4:../libDaisy/src/util/WavWriter.h **** 
   5:../libDaisy/src/util/WavWriter.h **** namespace daisy
   6:../libDaisy/src/util/WavWriter.h **** {
   7:../libDaisy/src/util/WavWriter.h **** /** Audio Recording Module
   8:../libDaisy/src/util/WavWriter.h ****  ** 
   9:../libDaisy/src/util/WavWriter.h ****  ** Record audio into a working buffer that is gradually written to a WAV file on an SD Card. 
  10:../libDaisy/src/util/WavWriter.h ****  **
  11:../libDaisy/src/util/WavWriter.h ****  ** Recordings are made with floating point input, and will be converted to the 
  12:../libDaisy/src/util/WavWriter.h ****  ** specified bits per sample internally 
  13:../libDaisy/src/util/WavWriter.h ****  **
ARM GAS  /var/folders/2p/02m_5p7958535cp2tpgps0400000gn/T//ccIfZOml.s 			page 33


  14:../libDaisy/src/util/WavWriter.h ****  ** For now only 16-bit and 32-bit (signed int) formats are supported
  15:../libDaisy/src/util/WavWriter.h ****  ** f32 and s24 formats will be added next
  16:../libDaisy/src/util/WavWriter.h ****  **
  17:../libDaisy/src/util/WavWriter.h ****  ** The transfer size determines the amount of internal memory used, and can have an
  18:../libDaisy/src/util/WavWriter.h ****  ** effect on the performance of the streaming behavior of the WavWriter.
  19:../libDaisy/src/util/WavWriter.h ****  ** Memory use can be calculated as: (2 * transfer_size) bytes
  20:../libDaisy/src/util/WavWriter.h ****  ** Performance optimal with sizes: 16384, 32768
  21:../libDaisy/src/util/WavWriter.h ****  ** 
  22:../libDaisy/src/util/WavWriter.h ****  ** To use:
  23:../libDaisy/src/util/WavWriter.h ****  ** 1. Create a WavWriter<size> object (e.g. WavWriter<32768> writer)
  24:../libDaisy/src/util/WavWriter.h ****  ** 2. Configure the settings as desired by creating a WavWriter<32768>::Config struct and setting 
  25:../libDaisy/src/util/WavWriter.h ****  ** 3. Initialize the object with the configuration struct.
  26:../libDaisy/src/util/WavWriter.h ****  ** 4. Open a new file for writing with: writer.OpenFile("FileName.wav")
  27:../libDaisy/src/util/WavWriter.h ****  ** 5. Write to it within your audio callback using: writer.Sample(value)
  28:../libDaisy/src/util/WavWriter.h ****  ** 6. Fill the Wav File on the SD Card with data from your main loop by running: writer.Write()
  29:../libDaisy/src/util/WavWriter.h ****  ** 7. When finished with the recording finalize, and close the file with: writer.SaveFile();
  30:../libDaisy/src/util/WavWriter.h ****  ** 
  31:../libDaisy/src/util/WavWriter.h ****  ** */
  32:../libDaisy/src/util/WavWriter.h **** template <size_t transfer_size>
  33:../libDaisy/src/util/WavWriter.h **** class WavWriter
  34:../libDaisy/src/util/WavWriter.h **** {
  35:../libDaisy/src/util/WavWriter.h ****   public:
  36:../libDaisy/src/util/WavWriter.h ****     WavWriter() {}
  37:../libDaisy/src/util/WavWriter.h ****     ~WavWriter() {}
  38:../libDaisy/src/util/WavWriter.h **** 
  39:../libDaisy/src/util/WavWriter.h ****     /** Return values for write related functions */
  40:../libDaisy/src/util/WavWriter.h ****     enum class Result
  41:../libDaisy/src/util/WavWriter.h ****     {
  42:../libDaisy/src/util/WavWriter.h ****         OK,
  43:../libDaisy/src/util/WavWriter.h ****         ERROR,
  44:../libDaisy/src/util/WavWriter.h ****     };
  45:../libDaisy/src/util/WavWriter.h **** 
  46:../libDaisy/src/util/WavWriter.h ****     /** Configuration structure for the wave writer.
  47:../libDaisy/src/util/WavWriter.h **** 	 ** */
  48:../libDaisy/src/util/WavWriter.h ****     struct Config
  49:../libDaisy/src/util/WavWriter.h ****     {
  50:../libDaisy/src/util/WavWriter.h ****         float   samplerate;
  51:../libDaisy/src/util/WavWriter.h ****         int32_t channels;
  52:../libDaisy/src/util/WavWriter.h ****         int32_t bitspersample;
  53:../libDaisy/src/util/WavWriter.h ****     };
  54:../libDaisy/src/util/WavWriter.h **** 
  55:../libDaisy/src/util/WavWriter.h ****     /** State of the internal Writing mechanism. 
  56:../libDaisy/src/util/WavWriter.h **** 	 ** When the buffer is a certain amount full one section will write its contents
  57:../libDaisy/src/util/WavWriter.h **** 	 ** while the other is still being written to. This is performed circularly
  58:../libDaisy/src/util/WavWriter.h **** 	 ** so that audio will be uninterrupted during writing. */
  59:../libDaisy/src/util/WavWriter.h ****     enum class BufferState
  60:../libDaisy/src/util/WavWriter.h ****     {
  61:../libDaisy/src/util/WavWriter.h ****         IDLE,
  62:../libDaisy/src/util/WavWriter.h ****         FLUSH0,
  63:../libDaisy/src/util/WavWriter.h ****         FLUSH1,
  64:../libDaisy/src/util/WavWriter.h ****     };
  65:../libDaisy/src/util/WavWriter.h **** 
  66:../libDaisy/src/util/WavWriter.h ****     /**  Initializes the WavFile header, and prepares the object for recording. */
  67:../libDaisy/src/util/WavWriter.h ****     void Init(const Config &cfg)
  68:../libDaisy/src/util/WavWriter.h ****     {
  69:../libDaisy/src/util/WavWriter.h ****         cfg_       = cfg;
  70:../libDaisy/src/util/WavWriter.h ****         num_samps_ = 0;
ARM GAS  /var/folders/2p/02m_5p7958535cp2tpgps0400000gn/T//ccIfZOml.s 			page 34


 1149              		.loc 6 70 20 view .LVU290
 1150 0004 0021     		movs	r1, #0
  69:../libDaisy/src/util/WavWriter.h ****         num_samps_ = 0;
 1151              		.loc 6 69 9 view .LVU291
 1152 0006 00F5C220 		add	r0, r0, #397312
 1153              	.LVL74:
  69:../libDaisy/src/util/WavWriter.h ****         num_samps_ = 0;
 1154              		.loc 6 69 9 view .LVU292
 1155 000a 9FED257A 		vldr.32	s14, .L94
 1156              	.LBE252:
 1157              	.LBE251:
 1158              	.LBB280:
 1159              	.LBB250:
  29:AudioFileManager.h ****     uint16_t GetFileCount() const { return file_count_; }
 1160              		.loc 3 29 53 view .LVU293
 1161 000e B3F92438 		ldrsh	r3, [r3, #2084]
 1162              	.LVL75:
  29:AudioFileManager.h ****     uint16_t GetFileCount() const { return file_count_; }
 1163              		.loc 3 29 53 view .LVU294
 1164              	.LBE250:
 1165              	.LBE280:
 235:GrannyChordApp.cpp ****   cfg.samplerate = SAMPLE_RATE;
 1166              		.loc 2 235 3 is_stmt 1 view .LVU295
 236:GrannyChordApp.cpp ****   sd_out_writer_.Init(cfg);
 1167              		.loc 2 236 3 view .LVU296
 1168              	.LBB281:
 1169              	.LBI251:
  67:../libDaisy/src/util/WavWriter.h ****     {
 1170              		.loc 6 67 10 view .LVU297
 1171              	.LBB278:
  69:../libDaisy/src/util/WavWriter.h ****         num_samps_ = 0;
 1172              		.loc 6 69 9 is_stmt 0 view .LVU298
 1173 0012 1022     		movs	r2, #16
 1174              		.loc 6 70 20 view .LVU299
 1175 0014 C0F80C13 		str	r1, [r0, #780]
  71:../libDaisy/src/util/WavWriter.h ****         // Prep the wav header according to config.
  72:../libDaisy/src/util/WavWriter.h ****         // Certain things (i.e. Size, etc. will have to wait until the finalization of the file, or
  73:../libDaisy/src/util/WavWriter.h ****         wavheader_.ChunkId       = kWavFileChunkId;     /** "RIFF" */
 1176              		.loc 6 73 34 view .LVU300
 1177 0018 2249     		ldr	r1, .L94+4
 1178              	.LBB253:
 1179              	.LBB254:
  74:../libDaisy/src/util/WavWriter.h ****         wavheader_.FileFormat    = kWavFileWaveId;      /** "WAVE" */
  75:../libDaisy/src/util/WavWriter.h ****         wavheader_.SubChunk1ID   = kWavFileSubChunk1Id; /** "fmt " */
  76:../libDaisy/src/util/WavWriter.h ****         wavheader_.SubChunk1Size = 16;                  // for PCM
  77:../libDaisy/src/util/WavWriter.h ****         wavheader_.AudioFormat   = WAVE_FORMAT_PCM;
  78:../libDaisy/src/util/WavWriter.h ****         wavheader_.NbrChannels   = cfg.channels;
  79:../libDaisy/src/util/WavWriter.h ****         wavheader_.SampleRate    = static_cast<int>(cfg.samplerate);
  80:../libDaisy/src/util/WavWriter.h ****         wavheader_.ByteRate      = CalcByteRate();
  81:../libDaisy/src/util/WavWriter.h ****         wavheader_.BlockAlign    = cfg_.channels * cfg_.bitspersample / 8;
  82:../libDaisy/src/util/WavWriter.h ****         wavheader_.BitPerSample  = cfg_.bitspersample;
  83:../libDaisy/src/util/WavWriter.h ****         wavheader_.SubChunk2ID   = kWavFileSubChunk2Id; /** "data" */
  84:../libDaisy/src/util/WavWriter.h ****         /** Also calcs SubChunk2Size */
  85:../libDaisy/src/util/WavWriter.h ****         wavheader_.FileSize = CalcFileSize();
  86:../libDaisy/src/util/WavWriter.h ****         // This is calculated as part of the subchunk size
  87:../libDaisy/src/util/WavWriter.h ****     }
  88:../libDaisy/src/util/WavWriter.h **** 
ARM GAS  /var/folders/2p/02m_5p7958535cp2tpgps0400000gn/T//ccIfZOml.s 			page 35


  89:../libDaisy/src/util/WavWriter.h ****     /** Records the current sample into the working buffer,
  90:../libDaisy/src/util/WavWriter.h ****      ** queues writes to media when necessary. 
  91:../libDaisy/src/util/WavWriter.h ****      ** 
  92:../libDaisy/src/util/WavWriter.h ****      ** \param in should be a pointer to an array of samples */
  93:../libDaisy/src/util/WavWriter.h ****     void Sample(const float *in)
  94:../libDaisy/src/util/WavWriter.h ****     {
  95:../libDaisy/src/util/WavWriter.h ****         for(size_t i = 0; i < cfg_.channels; i++)
  96:../libDaisy/src/util/WavWriter.h ****         {
  97:../libDaisy/src/util/WavWriter.h ****             switch(cfg_.bitspersample)
  98:../libDaisy/src/util/WavWriter.h ****             {
  99:../libDaisy/src/util/WavWriter.h ****                 case 16:
 100:../libDaisy/src/util/WavWriter.h ****                 {
 101:../libDaisy/src/util/WavWriter.h ****                     int16_t *tp;
 102:../libDaisy/src/util/WavWriter.h ****                     tp            = (int16_t *)transfer_buff;
 103:../libDaisy/src/util/WavWriter.h ****                     tp[wptr_ + i] = f2s16(in[i]);
 104:../libDaisy/src/util/WavWriter.h ****                 }
 105:../libDaisy/src/util/WavWriter.h ****                 break;
 106:../libDaisy/src/util/WavWriter.h ****                 case 32: transfer_buff[wptr_ + i] = f2s32(in[i]); break;
 107:../libDaisy/src/util/WavWriter.h ****                 default: break;
 108:../libDaisy/src/util/WavWriter.h ****             }
 109:../libDaisy/src/util/WavWriter.h ****         }
 110:../libDaisy/src/util/WavWriter.h ****         num_samps_++;
 111:../libDaisy/src/util/WavWriter.h ****         wptr_ += cfg_.channels;
 112:../libDaisy/src/util/WavWriter.h ****         size_t cap_point
 113:../libDaisy/src/util/WavWriter.h ****             = cfg_.bitspersample == 16 ? kTransferSamps * 2 : kTransferSamps;
 114:../libDaisy/src/util/WavWriter.h ****         if(wptr_ == cap_point)
 115:../libDaisy/src/util/WavWriter.h ****         {
 116:../libDaisy/src/util/WavWriter.h ****             bstate_ = BufferState::FLUSH0;
 117:../libDaisy/src/util/WavWriter.h ****         }
 118:../libDaisy/src/util/WavWriter.h ****         if(wptr_ >= cap_point * 2)
 119:../libDaisy/src/util/WavWriter.h ****         {
 120:../libDaisy/src/util/WavWriter.h ****             wptr_   = 0;
 121:../libDaisy/src/util/WavWriter.h ****             bstate_ = BufferState::FLUSH1;
 122:../libDaisy/src/util/WavWriter.h ****         }
 123:../libDaisy/src/util/WavWriter.h ****     }
 124:../libDaisy/src/util/WavWriter.h **** 
 125:../libDaisy/src/util/WavWriter.h ****     /** Check buffer state and write */
 126:../libDaisy/src/util/WavWriter.h ****     void Write()
 127:../libDaisy/src/util/WavWriter.h ****     {
 128:../libDaisy/src/util/WavWriter.h ****         if(bstate_ != BufferState::IDLE && IsRecording())
 129:../libDaisy/src/util/WavWriter.h ****         {
 130:../libDaisy/src/util/WavWriter.h ****             uint32_t     offset;
 131:../libDaisy/src/util/WavWriter.h ****             unsigned int bw = 0;
 132:../libDaisy/src/util/WavWriter.h ****             //offset          = bstate_ == BufferState::FLUSH0 ? 0 : transfer_size;
 133:../libDaisy/src/util/WavWriter.h ****             offset  = bstate_ == BufferState::FLUSH0 ? 0 : kTransferSamps;
 134:../libDaisy/src/util/WavWriter.h ****             bstate_ = BufferState::IDLE;
 135:../libDaisy/src/util/WavWriter.h ****             f_write(&fp_, &transfer_buff[offset], transfer_size, &bw);
 136:../libDaisy/src/util/WavWriter.h ****         }
 137:../libDaisy/src/util/WavWriter.h ****     }
 138:../libDaisy/src/util/WavWriter.h **** 
 139:../libDaisy/src/util/WavWriter.h ****     /** Finalizes the writing of the WAV file.
 140:../libDaisy/src/util/WavWriter.h **** 	 ** This overwrites the WAV Header with the correct
 141:../libDaisy/src/util/WavWriter.h **** 	 ** final size, and closes the fptr. */
 142:../libDaisy/src/util/WavWriter.h ****     void SaveFile()
 143:../libDaisy/src/util/WavWriter.h ****     {
 144:../libDaisy/src/util/WavWriter.h ****         unsigned int bw = 0;
 145:../libDaisy/src/util/WavWriter.h ****         recording_      = false;
ARM GAS  /var/folders/2p/02m_5p7958535cp2tpgps0400000gn/T//ccIfZOml.s 			page 36


 146:../libDaisy/src/util/WavWriter.h ****         // We _should_ flush whatever's left in the transfer buff
 147:../libDaisy/src/util/WavWriter.h ****         // TODO: that.
 148:../libDaisy/src/util/WavWriter.h ****         wavheader_.FileSize = CalcFileSize();
 149:../libDaisy/src/util/WavWriter.h ****         f_lseek(&fp_, 0);
 150:../libDaisy/src/util/WavWriter.h ****         f_write(&fp_, &wavheader_, sizeof(wavheader_), &bw);
 151:../libDaisy/src/util/WavWriter.h ****         f_close(&fp_);
 152:../libDaisy/src/util/WavWriter.h ****     }
 153:../libDaisy/src/util/WavWriter.h **** 
 154:../libDaisy/src/util/WavWriter.h ****     /** Opens a file for writing. Writes the initial WAV Header, and gets ready for stream-based re
 155:../libDaisy/src/util/WavWriter.h ****     void OpenFile(const char *name)
 156:../libDaisy/src/util/WavWriter.h ****     {
 157:../libDaisy/src/util/WavWriter.h ****         if(f_open(&fp_, name, FA_WRITE | FA_CREATE_ALWAYS) == FR_OK)
 158:../libDaisy/src/util/WavWriter.h ****         {
 159:../libDaisy/src/util/WavWriter.h ****             unsigned int bw = 0;
 160:../libDaisy/src/util/WavWriter.h ****             if(f_write(&fp_, &wavheader_, sizeof(wavheader_), &bw) == FR_OK)
 161:../libDaisy/src/util/WavWriter.h ****             {
 162:../libDaisy/src/util/WavWriter.h ****                 recording_ = true;
 163:../libDaisy/src/util/WavWriter.h ****                 num_samps_ = 0;
 164:../libDaisy/src/util/WavWriter.h ****             }
 165:../libDaisy/src/util/WavWriter.h ****         }
 166:../libDaisy/src/util/WavWriter.h ****     }
 167:../libDaisy/src/util/WavWriter.h **** 
 168:../libDaisy/src/util/WavWriter.h ****     /** Returns whether recording is currently active or not. */
 169:../libDaisy/src/util/WavWriter.h ****     inline bool IsRecording() const { return recording_; }
 170:../libDaisy/src/util/WavWriter.h **** 
 171:../libDaisy/src/util/WavWriter.h ****     /** Returns the current length in samples of the recording. */
 172:../libDaisy/src/util/WavWriter.h ****     inline uint32_t GetLengthSamps() { return num_samps_; }
 173:../libDaisy/src/util/WavWriter.h **** 
 174:../libDaisy/src/util/WavWriter.h ****     /** Returns the current length of the recording in seconds. */
 175:../libDaisy/src/util/WavWriter.h ****     inline float GetLengthSeconds()
 176:../libDaisy/src/util/WavWriter.h ****     {
 177:../libDaisy/src/util/WavWriter.h ****         return (float)num_samps_ / (float)cfg_.samplerate;
 178:../libDaisy/src/util/WavWriter.h ****     }
 179:../libDaisy/src/util/WavWriter.h **** 
 180:../libDaisy/src/util/WavWriter.h ****   private:
 181:../libDaisy/src/util/WavWriter.h ****     /** Calculate the file size based on current recording */
 182:../libDaisy/src/util/WavWriter.h ****     inline uint32_t CalcFileSize()
 183:../libDaisy/src/util/WavWriter.h ****     {
 184:../libDaisy/src/util/WavWriter.h ****         wavheader_.SubCHunk2Size
 185:../libDaisy/src/util/WavWriter.h ****             = num_samps_ * cfg_.channels * cfg_.bitspersample / 8;
 186:../libDaisy/src/util/WavWriter.h ****         return 36 + wavheader_.SubCHunk2Size;
 187:../libDaisy/src/util/WavWriter.h ****     }
 188:../libDaisy/src/util/WavWriter.h **** 
 189:../libDaisy/src/util/WavWriter.h ****     /** Compute the byte rate given the user settings. */
 190:../libDaisy/src/util/WavWriter.h ****     inline uint32_t CalcByteRate()
 191:../libDaisy/src/util/WavWriter.h ****     {
 192:../libDaisy/src/util/WavWriter.h ****         return cfg_.samplerate * cfg_.channels * cfg_.bitspersample / 8;
 1180              		.loc 6 192 32 view .LVU301
 1181 001a 07EE903A 		vmov	s15, r3	@ int
 1182              	.LBE254:
 1183              	.LBE253:
  69:../libDaisy/src/util/WavWriter.h ****         num_samps_ = 0;
 1184              		.loc 6 69 9 view .LVU302
 1185 001e 80EDC57A 		vstr.32	s14, [r0, #788]
  73:../libDaisy/src/util/WavWriter.h ****         wavheader_.FileFormat    = kWavFileWaveId;      /** "WAVE" */
 1186              		.loc 6 73 34 view .LVU303
 1187 0022 C0F8E012 		str	r1, [r0, #736]
ARM GAS  /var/folders/2p/02m_5p7958535cp2tpgps0400000gn/T//ccIfZOml.s 			page 37


  74:../libDaisy/src/util/WavWriter.h ****         wavheader_.FileFormat    = kWavFileWaveId;      /** "WAVE" */
 1188              		.loc 6 74 34 view .LVU304
 1189 0026 A1F57001 		sub	r1, r1, #15728640
 1190              	.LBB263:
 1191              	.LBB255:
 1192              		.loc 6 192 32 view .LVU305
 1193 002a F8EEE77A 		vcvt.f32.s32	s15, s15
 1194              	.LBE255:
 1195              	.LBE263:
 1196              	.LBE278:
 1197              	.LBE281:
 234:GrannyChordApp.cpp ****   cfg.samplerate = SAMPLE_RATE;
 1198              		.loc 2 234 41 view .LVU306
 1199 002e C0F81833 		str	r3, [r0, #792]
 1200              	.LBB282:
 1201              	.LBB279:
  74:../libDaisy/src/util/WavWriter.h ****         wavheader_.SubChunk1ID   = kWavFileSubChunk1Id; /** "fmt " */
 1202              		.loc 6 74 34 view .LVU307
 1203 0032 A1F2FB71 		subw	r1, r1, #2043
  78:../libDaisy/src/util/WavWriter.h ****         wavheader_.SampleRate    = static_cast<int>(cfg.samplerate);
 1204              		.loc 6 78 34 view .LVU308
 1205 0036 A0F8F632 		strh	r3, [r0, #758]	@ movhi
  81:../libDaisy/src/util/WavWriter.h ****         wavheader_.BitPerSample  = cfg_.bitspersample;
 1206              		.loc 6 81 71 view .LVU309
 1207 003a 1B01     		lsls	r3, r3, #4
 1208              	.LVL76:
  69:../libDaisy/src/util/WavWriter.h ****         num_samps_ = 0;
 1209              		.loc 6 69 9 view .LVU310
 1210 003c C0F81C23 		str	r2, [r0, #796]
  74:../libDaisy/src/util/WavWriter.h ****         wavheader_.SubChunk1ID   = kWavFileSubChunk1Id; /** "fmt " */
 1211              		.loc 6 74 34 view .LVU311
 1212 0040 C0F8E812 		str	r1, [r0, #744]
  75:../libDaisy/src/util/WavWriter.h ****         wavheader_.SubChunk1Size = 16;                  // for PCM
 1213              		.loc 6 75 34 view .LVU312
 1214 0044 01F15B41 		add	r1, r1, #-620756992
 1215              	.LBB264:
 1216              	.LBB256:
 1217              		.loc 6 192 32 view .LVU313
 1218 0048 67EE877A 		vmul.f32	s15, s15, s14
 1219              	.LBE256:
 1220              	.LBE264:
  81:../libDaisy/src/util/WavWriter.h ****         wavheader_.BitPerSample  = cfg_.bitspersample;
 1221              		.loc 6 81 71 view .LVU314
 1222 004c 48BF     		it	mi
 1223 004e 0733     		addmi	r3, r3, #7
 1224              	.LBB265:
 1225              	.LBB257:
 1226              		.loc 6 192 48 view .LVU315
 1227 0050 B3EE007A 		vmov.f32	s14, #1.6e+1
 1228              	.LBE257:
 1229              	.LBE265:
  75:../libDaisy/src/util/WavWriter.h ****         wavheader_.SubChunk1Size = 16;                  // for PCM
 1230              		.loc 6 75 34 view .LVU316
 1231 0054 01F5F111 		add	r1, r1, #1974272
  81:../libDaisy/src/util/WavWriter.h ****         wavheader_.BitPerSample  = cfg_.bitspersample;
 1232              		.loc 6 81 71 view .LVU317
 1233 0058 DB10     		asrs	r3, r3, #3
ARM GAS  /var/folders/2p/02m_5p7958535cp2tpgps0400000gn/T//ccIfZOml.s 			page 38


  75:../libDaisy/src/util/WavWriter.h ****         wavheader_.SubChunk1Size = 16;                  // for PCM
 1234              		.loc 6 75 34 view .LVU318
 1235 005a 01F60F41 		addw	r1, r1, #3087
 1236              	.LBB266:
 1237              	.LBB258:
 1238              		.loc 6 192 48 view .LVU319
 1239 005e 67EE877A 		vmul.f32	s15, s15, s14
 1240              	.LBE258:
 1241              	.LBE266:
  81:../libDaisy/src/util/WavWriter.h ****         wavheader_.BitPerSample  = cfg_.bitspersample;
 1242              		.loc 6 81 34 view .LVU320
 1243 0062 A0F80033 		strh	r3, [r0, #768]	@ movhi
 1244              	.LBB267:
 1245              	.LBB259:
 1246              		.loc 6 192 69 view .LVU321
 1247 0066 B4EE007A 		vmov.f32	s14, #1.25e-1
 1248              	.LBE259:
 1249              	.LBE267:
  82:../libDaisy/src/util/WavWriter.h ****         wavheader_.SubChunk2ID   = kWavFileSubChunk2Id; /** "data" */
 1250              		.loc 6 82 34 view .LVU322
 1251 006a 1023     		movs	r3, #16
  76:../libDaisy/src/util/WavWriter.h ****         wavheader_.AudioFormat   = WAVE_FORMAT_PCM;
 1252              		.loc 6 76 34 view .LVU323
 1253 006c C0E9BB12 		strd	r1, r2, [r0, #748]
  77:../libDaisy/src/util/WavWriter.h ****         wavheader_.NbrChannels   = cfg.channels;
 1254              		.loc 6 77 34 view .LVU324
 1255 0070 0122     		movs	r2, #1
 1256              	.LBB268:
 1257              	.LBB260:
 1258              		.loc 6 192 69 view .LVU325
 1259 0072 67EE877A 		vmul.f32	s15, s15, s14
 1260              	.LBE260:
 1261              	.LBE268:
  82:../libDaisy/src/util/WavWriter.h ****         wavheader_.SubChunk2ID   = kWavFileSubChunk2Id; /** "data" */
 1262              		.loc 6 82 34 view .LVU326
 1263 0076 A0F80233 		strh	r3, [r0, #770]	@ movhi
 1264              	.LBB269:
 1265              	.LBB270:
 185:../libDaisy/src/util/WavWriter.h ****         return 36 + wavheader_.SubCHunk2Size;
 1266              		.loc 6 185 13 view .LVU327
 1267 007a 0023     		movs	r3, #0
 1268              	.LBE270:
 1269              	.LBE269:
  77:../libDaisy/src/util/WavWriter.h ****         wavheader_.NbrChannels   = cfg.channels;
 1270              		.loc 6 77 34 view .LVU328
 1271 007c A0F8F422 		strh	r2, [r0, #756]	@ movhi
  79:../libDaisy/src/util/WavWriter.h ****         wavheader_.ByteRate      = CalcByteRate();
 1272              		.loc 6 79 34 view .LVU329
 1273 0080 4BF68032 		movw	r2, #48000
 1274              	.LBB273:
 1275              	.LBB261:
 1276              		.loc 6 192 71 view .LVU330
 1277 0084 FCEEE77A 		vcvt.u32.f32	s15, s15
 1278              	.LBE261:
 1279              	.LBE273:
  79:../libDaisy/src/util/WavWriter.h ****         wavheader_.ByteRate      = CalcByteRate();
 1280              		.loc 6 79 34 view .LVU331
ARM GAS  /var/folders/2p/02m_5p7958535cp2tpgps0400000gn/T//ccIfZOml.s 			page 39


 1281 0088 C0F8F822 		str	r2, [r0, #760]
 1282              	.LVL77:
 1283              	.LBB274:
 1284              	.LBI253:
 190:../libDaisy/src/util/WavWriter.h ****     {
 1285              		.loc 6 190 21 is_stmt 1 view .LVU332
 190:../libDaisy/src/util/WavWriter.h ****     {
 1286              		.loc 6 190 21 is_stmt 0 view .LVU333
 1287              	.LBE274:
 1288              	.LBB275:
 1289              	.LBB271:
 185:../libDaisy/src/util/WavWriter.h ****         return 36 + wavheader_.SubCHunk2Size;
 1290              		.loc 6 185 13 view .LVU334
 1291 008c 064A     		ldr	r2, .L94+8
 1292              	.LBE271:
 1293              	.LBE275:
 1294              	.LBB276:
 1295              	.LBB262:
 1296              		.loc 6 192 71 view .LVU335
 1297 008e C0EDBF7A 		vstr.32	s15, [r0, #764]	@ int
 1298              	.LBE262:
 1299              	.LBE276:
 1300              	.LBB277:
 1301              	.LBB272:
 185:../libDaisy/src/util/WavWriter.h ****         return 36 + wavheader_.SubCHunk2Size;
 1302              		.loc 6 185 13 view .LVU336
 1303 0092 C0E9C123 		strd	r2, r3, [r0, #772]
 1304              	.LBE272:
 1305              	.LBE277:
  85:../libDaisy/src/util/WavWriter.h ****         // This is calculated as part of the subchunk size
 1306              		.loc 6 85 29 view .LVU337
 1307 0096 2423     		movs	r3, #36
 1308 0098 C0F8E432 		str	r3, [r0, #740]
 1309              	.LVL78:
  85:../libDaisy/src/util/WavWriter.h ****         // This is calculated as part of the subchunk size
 1310              		.loc 6 85 29 view .LVU338
 1311              	.LBE279:
 1312              	.LBE282:
 237:GrannyChordApp.cpp **** }
 1313              		.loc 2 237 1 view .LVU339
 1314 009c 7047     		bx	lr
 1315              	.L95:
 1316 009e 00BF     		.align	2
 1317              	.L94:
 1318 00a0 00803B47 		.word	1195081728
 1319 00a4 52494646 		.word	1179011410
 1320 00a8 64617461 		.word	1635017060
 1321              		.cfi_endproc
 1322              	.LFE4941:
 1324              		.section	.text._ZN14GrannyChordApp6InitFXEv,"ax",%progbits
 1325              		.align	1
 1326              		.global	_ZN14GrannyChordApp6InitFXEv
 1327              		.syntax unified
 1328              		.thumb
 1329              		.thumb_func
 1331              	_ZN14GrannyChordApp6InitFXEv:
 1332              	.LVL79:
ARM GAS  /var/folders/2p/02m_5p7958535cp2tpgps0400000gn/T//ccIfZOml.s 			page 40


 1333              	.LFB4942:
 238:GrannyChordApp.cpp **** 
 239:GrannyChordApp.cpp **** 
 240:GrannyChordApp.cpp **** /// @brief initialise reverb, compressor, filter configs for FX section 
 241:GrannyChordApp.cpp **** void GrannyChordApp::InitFX(){
 1334              		.loc 2 241 30 is_stmt 1 view -0
 1335              		.cfi_startproc
 1336              		@ args = 0, pretend = 0, frame = 8
 1337              		@ frame_needed = 0, uses_anonymous_args = 0
 242:GrannyChordApp.cpp ****   comp_.Init(pod_.AudioSampleRate());
 1338              		.loc 2 242 3 view .LVU341
 241:GrannyChordApp.cpp ****   comp_.Init(pod_.AudioSampleRate());
 1339              		.loc 2 241 30 is_stmt 0 view .LVU342
 1340 0000 13B5     		push	{r0, r1, r4, lr}
 1341              		.cfi_def_cfa_offset 16
 1342              		.cfi_offset 4, -8
 1343              		.cfi_offset 14, -4
 241:GrannyChordApp.cpp ****   comp_.Init(pod_.AudioSampleRate());
 1344              		.loc 2 241 30 view .LVU343
 1345 0002 0446     		mov	r4, r0
 1346              		.loc 2 242 13 view .LVU344
 1347 0004 0068     		ldr	r0, [r0]
 1348              	.LVL80:
 1349              		.loc 2 242 13 view .LVU345
 1350 0006 FFF7FEFF 		bl	_ZN5daisy8DaisyPod15AudioSampleRateEv
 1351              	.LVL81:
 1352 000a 04F5CF60 		add	r0, r4, #1656
 1353 000e FFF7FEFF 		bl	_ZN7daisysp10Compressor4InitEf
 1354              	.LVL82:
 243:GrannyChordApp.cpp ****   reverb_.Init(SAMPLE_RATE_FLOAT);
 1355              		.loc 2 243 3 is_stmt 1 view .LVU346
 1356              		.loc 2 243 15 is_stmt 0 view .LVU347
 1357 0012 9FED120A 		vldr.32	s0, .L97
 1358 0016 04F5D760 		add	r0, r4, #1720
 244:GrannyChordApp.cpp ****   lowpass_moog_.Init(SAMPLE_RATE_FLOAT);
 1359              		.loc 2 244 21 view .LVU348
 1360 001a 04F5C224 		add	r4, r4, #397312
 1361              	.LVL83:
 243:GrannyChordApp.cpp ****   reverb_.Init(SAMPLE_RATE_FLOAT);
 1362              		.loc 2 243 15 view .LVU349
 1363 001e 8DED010A 		vstr.32	s0, [sp, #4]	@ int
 1364 0022 FFF7FEFF 		bl	_ZN7daisysp8ReverbSc4InitEf
 1365              	.LVL84:
 1366              		.loc 2 244 3 is_stmt 1 view .LVU350
 1367              		.loc 2 244 21 is_stmt 0 view .LVU351
 1368 0026 9DED010A 		vldr.32	s0, [sp, #4]	@ int
 1369 002a 04F5FE70 		add	r0, r4, #508
 1370 002e FFF7FEFF 		bl	_ZN7daisysp10MoogLadder4InitEf
 1371              	.LVL85:
 245:GrannyChordApp.cpp ****   lowpass_moog_.SetFreq(20000.0f);
 1372              		.loc 2 245 3 is_stmt 1 view .LVU352
 1373              	.LBB294:
 1374              	.LBI294:
 1375              		.file 7 "../DaisySP/Source/../DaisySP-LGPL/Source/Filters/moogladder.h"
   1:../DaisySP/Source/../DaisySP-LGPL/Source/Filters/moogladder.h **** /*
   2:../DaisySP/Source/../DaisySP-LGPL/Source/Filters/moogladder.h **** Copyright (c) 2023 Electrosmith, Corp, Victor Lazzarini, John ffitch (fast tanh), Bob Moog
   3:../DaisySP/Source/../DaisySP-LGPL/Source/Filters/moogladder.h **** 
ARM GAS  /var/folders/2p/02m_5p7958535cp2tpgps0400000gn/T//ccIfZOml.s 			page 41


   4:../DaisySP/Source/../DaisySP-LGPL/Source/Filters/moogladder.h **** Use of this source code is governed by the LGPL V2.1
   5:../DaisySP/Source/../DaisySP-LGPL/Source/Filters/moogladder.h **** license that can be found in the LICENSE file or at
   6:../DaisySP/Source/../DaisySP-LGPL/Source/Filters/moogladder.h **** https://opensource.org/license/lgpl-2-1/
   7:../DaisySP/Source/../DaisySP-LGPL/Source/Filters/moogladder.h **** */
   8:../DaisySP/Source/../DaisySP-LGPL/Source/Filters/moogladder.h **** 
   9:../DaisySP/Source/../DaisySP-LGPL/Source/Filters/moogladder.h **** #pragma once
  10:../DaisySP/Source/../DaisySP-LGPL/Source/Filters/moogladder.h **** #ifndef DSY_MOOGLADDER_H
  11:../DaisySP/Source/../DaisySP-LGPL/Source/Filters/moogladder.h **** #define DSY_MOOGLADDER_H
  12:../DaisySP/Source/../DaisySP-LGPL/Source/Filters/moogladder.h **** 
  13:../DaisySP/Source/../DaisySP-LGPL/Source/Filters/moogladder.h **** #include <stdint.h>
  14:../DaisySP/Source/../DaisySP-LGPL/Source/Filters/moogladder.h **** #ifdef __cplusplus
  15:../DaisySP/Source/../DaisySP-LGPL/Source/Filters/moogladder.h **** 
  16:../DaisySP/Source/../DaisySP-LGPL/Source/Filters/moogladder.h **** namespace daisysp
  17:../DaisySP/Source/../DaisySP-LGPL/Source/Filters/moogladder.h **** {
  18:../DaisySP/Source/../DaisySP-LGPL/Source/Filters/moogladder.h **** /** Moog ladder filter module*/
  19:../DaisySP/Source/../DaisySP-LGPL/Source/Filters/moogladder.h **** class MoogLadder
  20:../DaisySP/Source/../DaisySP-LGPL/Source/Filters/moogladder.h **** {
  21:../DaisySP/Source/../DaisySP-LGPL/Source/Filters/moogladder.h ****   public:
  22:../DaisySP/Source/../DaisySP-LGPL/Source/Filters/moogladder.h ****     MoogLadder() {}
  23:../DaisySP/Source/../DaisySP-LGPL/Source/Filters/moogladder.h ****     ~MoogLadder() {}
  24:../DaisySP/Source/../DaisySP-LGPL/Source/Filters/moogladder.h ****     /** Initializes the MoogLadder module.
  25:../DaisySP/Source/../DaisySP-LGPL/Source/Filters/moogladder.h ****         sample_rate - The sample rate of the audio engine being run. 
  26:../DaisySP/Source/../DaisySP-LGPL/Source/Filters/moogladder.h ****     */
  27:../DaisySP/Source/../DaisySP-LGPL/Source/Filters/moogladder.h ****     void Init(float sample_rate);
  28:../DaisySP/Source/../DaisySP-LGPL/Source/Filters/moogladder.h **** 
  29:../DaisySP/Source/../DaisySP-LGPL/Source/Filters/moogladder.h **** 
  30:../DaisySP/Source/../DaisySP-LGPL/Source/Filters/moogladder.h ****     /** Processes the lowpass filter
  31:../DaisySP/Source/../DaisySP-LGPL/Source/Filters/moogladder.h ****     */
  32:../DaisySP/Source/../DaisySP-LGPL/Source/Filters/moogladder.h ****     float Process(float in);
  33:../DaisySP/Source/../DaisySP-LGPL/Source/Filters/moogladder.h **** 
  34:../DaisySP/Source/../DaisySP-LGPL/Source/Filters/moogladder.h ****     /** 
  35:../DaisySP/Source/../DaisySP-LGPL/Source/Filters/moogladder.h ****         Sets the cutoff frequency or half-way point of the filter.
  36:../DaisySP/Source/../DaisySP-LGPL/Source/Filters/moogladder.h ****         Arguments
  37:../DaisySP/Source/../DaisySP-LGPL/Source/Filters/moogladder.h ****         - freq - frequency value in Hz. Range: Any positive value.
  38:../DaisySP/Source/../DaisySP-LGPL/Source/Filters/moogladder.h ****     */
  39:../DaisySP/Source/../DaisySP-LGPL/Source/Filters/moogladder.h ****     inline void SetFreq(float freq) { freq_ = freq; }
 1376              		.loc 7 39 17 view .LVU353
 1377              	.LBB295:
 1378              		.loc 7 39 39 view .LVU354
 1379              		.loc 7 39 45 is_stmt 0 view .LVU355
 1380 0032 0B4B     		ldr	r3, .L97+4
 1381              	.LBE295:
 1382              	.LBE294:
 1383              	.LBB297:
 1384              	.LBB298:
 1385              		.file 8 "../DaisySP/Source/Filters/onepole.h"
   1:../DaisySP/Source/Filters/onepole.h **** /*
   2:../DaisySP/Source/Filters/onepole.h **** Copyright (c) 2020 Electrosmith, Corp, Emilie Gillet
   3:../DaisySP/Source/Filters/onepole.h **** 
   4:../DaisySP/Source/Filters/onepole.h **** Use of this source code is governed by an MIT-style
   5:../DaisySP/Source/Filters/onepole.h **** license that can be found in the LICENSE file or at
   6:../DaisySP/Source/Filters/onepole.h **** https://opensource.org/licenses/MIT.
   7:../DaisySP/Source/Filters/onepole.h **** */
   8:../DaisySP/Source/Filters/onepole.h **** 
   9:../DaisySP/Source/Filters/onepole.h **** #ifndef DSY_ONEPOLE_H
  10:../DaisySP/Source/Filters/onepole.h **** #define DSY_ONEPOLE_H
  11:../DaisySP/Source/Filters/onepole.h **** 
ARM GAS  /var/folders/2p/02m_5p7958535cp2tpgps0400000gn/T//ccIfZOml.s 			page 42


  12:../DaisySP/Source/Filters/onepole.h **** #include "Utility/dsp.h"
  13:../DaisySP/Source/Filters/onepole.h **** #include <cmath>
  14:../DaisySP/Source/Filters/onepole.h **** #include <algorithm>
  15:../DaisySP/Source/Filters/onepole.h **** 
  16:../DaisySP/Source/Filters/onepole.h **** namespace daisysp
  17:../DaisySP/Source/Filters/onepole.h **** {
  18:../DaisySP/Source/Filters/onepole.h **** /**         
  19:../DaisySP/Source/Filters/onepole.h ****     @brief One Pole Lowpass / Highpass Filter
  20:../DaisySP/Source/Filters/onepole.h ****     @author beserge
  21:../DaisySP/Source/Filters/onepole.h ****     @date Dec 2023 
  22:../DaisySP/Source/Filters/onepole.h ****     Ported from pichenettes/stmlib/dsp/filter.h \n 
  23:../DaisySP/Source/Filters/onepole.h ****     \n to an independent module. \n
  24:../DaisySP/Source/Filters/onepole.h ****     Original code written by Emilie Gillet. \n
  25:../DaisySP/Source/Filters/onepole.h **** */
  26:../DaisySP/Source/Filters/onepole.h **** class OnePole
  27:../DaisySP/Source/Filters/onepole.h **** {
  28:../DaisySP/Source/Filters/onepole.h ****   public:
  29:../DaisySP/Source/Filters/onepole.h ****     OnePole() {}
  30:../DaisySP/Source/Filters/onepole.h ****     ~OnePole() {}
  31:../DaisySP/Source/Filters/onepole.h **** 
  32:../DaisySP/Source/Filters/onepole.h ****     /**
  33:../DaisySP/Source/Filters/onepole.h ****      * @brief Operational modes of the filter
  34:../DaisySP/Source/Filters/onepole.h ****      * - LOW_PASS = cuts out high frequency sound, lets low frequency sound pass through
  35:../DaisySP/Source/Filters/onepole.h ****      * - HIGH_PASS = cuts out low frequency sound, lets high frequency sound pass through
  36:../DaisySP/Source/Filters/onepole.h ****      */
  37:../DaisySP/Source/Filters/onepole.h ****     enum FilterMode
  38:../DaisySP/Source/Filters/onepole.h ****     {
  39:../DaisySP/Source/Filters/onepole.h ****         FILTER_MODE_LOW_PASS,
  40:../DaisySP/Source/Filters/onepole.h ****         FILTER_MODE_HIGH_PASS
  41:../DaisySP/Source/Filters/onepole.h ****     };
  42:../DaisySP/Source/Filters/onepole.h **** 
  43:../DaisySP/Source/Filters/onepole.h ****     /** Initializes the module */
  44:../DaisySP/Source/Filters/onepole.h ****     void Init()
  45:../DaisySP/Source/Filters/onepole.h ****     {
  46:../DaisySP/Source/Filters/onepole.h ****         Reset();
  47:../DaisySP/Source/Filters/onepole.h ****         mode_ = FILTER_MODE_LOW_PASS;
  48:../DaisySP/Source/Filters/onepole.h ****     }
  49:../DaisySP/Source/Filters/onepole.h **** 
  50:../DaisySP/Source/Filters/onepole.h ****     /** Reset the module to its default state */
  51:../DaisySP/Source/Filters/onepole.h ****     inline void Reset() { state_ = 0.0f; }
  52:../DaisySP/Source/Filters/onepole.h **** 
  53:../DaisySP/Source/Filters/onepole.h ****     /** Set the filter cutoff frequency
  54:../DaisySP/Source/Filters/onepole.h ****     *   \param freq Cutoff frequency. Valid range from 0 to .497f
  55:../DaisySP/Source/Filters/onepole.h ****     */
  56:../DaisySP/Source/Filters/onepole.h ****     inline void SetFrequency(float freq)
  57:../DaisySP/Source/Filters/onepole.h ****     {
  58:../DaisySP/Source/Filters/onepole.h ****         // Clip coefficient to about 100.
  59:../DaisySP/Source/Filters/onepole.h ****         freq = freq < 0.497f ? freq : 0.497f;
  60:../DaisySP/Source/Filters/onepole.h **** 
  61:../DaisySP/Source/Filters/onepole.h ****         g_  = tanf(PI_F * freq);
  62:../DaisySP/Source/Filters/onepole.h ****         gi_ = 1.f / (1.f + g_);
  63:../DaisySP/Source/Filters/onepole.h ****     }
  64:../DaisySP/Source/Filters/onepole.h **** 
  65:../DaisySP/Source/Filters/onepole.h ****     /** Set the filter mode
  66:../DaisySP/Source/Filters/onepole.h ****     *   \param mode Filter mode. Can be lowpass or highpass
  67:../DaisySP/Source/Filters/onepole.h ****     */
  68:../DaisySP/Source/Filters/onepole.h ****     inline void SetFilterMode(FilterMode mode) { mode_ = mode; }
ARM GAS  /var/folders/2p/02m_5p7958535cp2tpgps0400000gn/T//ccIfZOml.s 			page 43


 1386              		.loc 8 68 56 view .LVU356
 1387 0034 0122     		movs	r2, #1
 1388              	.LBE298:
 1389              	.LBE297:
 1390              	.LBB301:
 1391              	.LBB296:
 1392              		.loc 7 39 45 view .LVU357
 1393 0036 C4F80432 		str	r3, [r4, #516]	@ float
 1394              	.LVL86:
 1395              		.loc 7 39 45 view .LVU358
 1396              	.LBE296:
 1397              	.LBE301:
 246:GrannyChordApp.cpp ****   lowpass_moog_.SetRes(0.7f);
 1398              		.loc 2 246 3 is_stmt 1 view .LVU359
 1399              	.LBB302:
 1400              	.LBI302:
  40:../DaisySP/Source/../DaisySP-LGPL/Source/Filters/moogladder.h ****     /** 
  41:../DaisySP/Source/../DaisySP-LGPL/Source/Filters/moogladder.h ****         Sets the resonance of the filter.
  42:../DaisySP/Source/../DaisySP-LGPL/Source/Filters/moogladder.h ****     */
  43:../DaisySP/Source/../DaisySP-LGPL/Source/Filters/moogladder.h ****     inline void SetRes(float res) { res_ = res; }
 1401              		.loc 7 43 17 view .LVU360
 1402              	.LBB303:
 1403              		.loc 7 43 37 view .LVU361
 1404              		.loc 7 43 42 is_stmt 0 view .LVU362
 1405 003a 0A4B     		ldr	r3, .L97+8
 1406              	.LBE303:
 1407              	.LBE302:
 1408              	.LBB305:
 1409              	.LBB299:
 1410              		.loc 8 68 56 view .LVU363
 1411 003c 84F84C22 		strb	r2, [r4, #588]
 1412              	.LBE299:
 1413              	.LBE305:
 1414              	.LBB306:
 1415              	.LBB304:
 1416              		.loc 7 43 42 view .LVU364
 1417 0040 C4F80032 		str	r3, [r4, #512]	@ float
 1418              	.LVL87:
 1419              		.loc 7 43 42 view .LVU365
 1420              	.LBE304:
 1421              	.LBE306:
 247:GrannyChordApp.cpp ****   hipass_.Init();
 1422              		.loc 2 247 3 is_stmt 1 view .LVU366
 1423              	.LBB307:
 1424              	.LBI307:
  44:../DaisySP/Source/Filters/onepole.h ****     {
 1425              		.loc 8 44 10 view .LVU367
 1426              	.LBE307:
  46:../DaisySP/Source/Filters/onepole.h ****         mode_ = FILTER_MODE_LOW_PASS;
 1427              		.loc 8 46 9 view .LVU368
 1428              	.LBB310:
 1429              	.LBB308:
 1430              	.LBI308:
  51:../DaisySP/Source/Filters/onepole.h **** 
 1431              		.loc 8 51 17 view .LVU369
 1432              	.LBB309:
  51:../DaisySP/Source/Filters/onepole.h **** 
ARM GAS  /var/folders/2p/02m_5p7958535cp2tpgps0400000gn/T//ccIfZOml.s 			page 44


 1433              		.loc 8 51 27 view .LVU370
  51:../DaisySP/Source/Filters/onepole.h **** 
 1434              		.loc 8 51 34 is_stmt 0 view .LVU371
 1435 0044 0023     		movs	r3, #0
 1436 0046 C4F84832 		str	r3, [r4, #584]	@ float
  51:../DaisySP/Source/Filters/onepole.h **** 
 1437              		.loc 8 51 34 view .LVU372
 1438              	.LBE309:
 1439              	.LBE308:
 1440              	.LBE310:
  47:../DaisySP/Source/Filters/onepole.h ****     }
 1441              		.loc 8 47 9 is_stmt 1 view .LVU373
 248:GrannyChordApp.cpp ****   hipass_.SetFilterMode(daisysp::OnePole::FilterMode::FILTER_MODE_HIGH_PASS);
 1442              		.loc 2 248 3 view .LVU374
 1443              	.LVL88:
 1444              	.LBB311:
 1445              	.LBI297:
 1446              		.loc 8 68 17 view .LVU375
 1447              	.LBB300:
 1448              		.loc 8 68 50 view .LVU376
 1449              		.loc 8 68 50 is_stmt 0 view .LVU377
 1450              	.LBE300:
 1451              	.LBE311:
 249:GrannyChordApp.cpp ****   hipass_.SetFrequency(0.0f); // NOTE: CHECK THIS
 1452              		.loc 2 249 3 is_stmt 1 view .LVU378
 1453              	.LBB312:
 1454              	.LBI312:
  56:../DaisySP/Source/Filters/onepole.h ****     {
 1455              		.loc 8 56 17 view .LVU379
 1456              	.LBB313:
  59:../DaisySP/Source/Filters/onepole.h **** 
 1457              		.loc 8 59 9 view .LVU380
  61:../DaisySP/Source/Filters/onepole.h ****         gi_ = 1.f / (1.f + g_);
 1458              		.loc 8 61 9 view .LVU381
  61:../DaisySP/Source/Filters/onepole.h ****         gi_ = 1.f / (1.f + g_);
 1459              		.loc 8 61 13 is_stmt 0 view .LVU382
 1460 004a C4F84032 		str	r3, [r4, #576]	@ float
  62:../DaisySP/Source/Filters/onepole.h ****     }
 1461              		.loc 8 62 9 is_stmt 1 view .LVU383
  62:../DaisySP/Source/Filters/onepole.h ****     }
 1462              		.loc 8 62 13 is_stmt 0 view .LVU384
 1463 004e 4FF07E53 		mov	r3, #1065353216
 1464 0052 C4F84432 		str	r3, [r4, #580]	@ float
 1465              	.LVL89:
  62:../DaisySP/Source/Filters/onepole.h ****     }
 1466              		.loc 8 62 13 view .LVU385
 1467              	.LBE313:
 1468              	.LBE312:
 250:GrannyChordApp.cpp **** }
 1469              		.loc 2 250 1 view .LVU386
 1470 0056 02B0     		add	sp, sp, #8
 1471              		.cfi_def_cfa_offset 8
 1472              		@ sp needed
 1473 0058 10BD     		pop	{r4, pc}
 1474              	.LVL90:
 1475              	.L98:
 1476              		.loc 2 250 1 view .LVU387
ARM GAS  /var/folders/2p/02m_5p7958535cp2tpgps0400000gn/T//ccIfZOml.s 			page 45


 1477 005a 00BF     		.align	2
 1478              	.L97:
 1479 005c 00803B47 		.word	1195081728
 1480 0060 00409C46 		.word	1184645120
 1481 0064 3333333F 		.word	1060320051
 1482              		.cfi_endproc
 1483              	.LFE4942:
 1485              		.section	.rodata._ZN14GrannyChordApp4InitEPsS0_.str1.1,"aMS",%progbits,1
 1486              	.LC2:
 1487 0000 46696C65 		.ascii	"File manager failed to init - can't read SD card\000"
 1487      206D616E 
 1487      61676572 
 1487      20666169 
 1487      6C656420 
 1488              		.section	.text._ZN14GrannyChordApp4InitEPsS0_,"ax",%progbits
 1489              		.align	1
 1490              		.global	_ZN14GrannyChordApp4InitEPsS0_
 1491              		.syntax unified
 1492              		.thumb
 1493              		.thumb_func
 1495              	_ZN14GrannyChordApp4InitEPsS0_:
 1496              	.LVL91:
 1497              	.LFB4921:
   9:GrannyChordApp.cpp ****   left_buf_ = left;
 1498              		.loc 2 9 57 is_stmt 1 view -0
 1499              		.cfi_startproc
 1500              		@ args = 0, pretend = 0, frame = 0
 1501              		@ frame_needed = 0, uses_anonymous_args = 0
  10:GrannyChordApp.cpp ****   right_buf_ = right;
 1502              		.loc 2 10 3 view .LVU389
  10:GrannyChordApp.cpp ****   right_buf_ = right;
 1503              		.loc 2 10 13 is_stmt 0 view .LVU390
 1504 0000 00F5C223 		add	r3, r0, #397312
   9:GrannyChordApp.cpp ****   left_buf_ = left;
 1505              		.loc 2 9 57 view .LVU391
 1506 0004 10B5     		push	{r4, lr}
 1507              		.cfi_def_cfa_offset 8
 1508              		.cfi_offset 4, -8
 1509              		.cfi_offset 14, -4
   9:GrannyChordApp.cpp ****   left_buf_ = left;
 1510              		.loc 2 9 57 view .LVU392
 1511 0006 0446     		mov	r4, r0
  12:GrannyChordApp.cpp ****   pod_.SetAudioSampleRate(SaiHandle::Config::SampleRate::SAI_48KHZ);
 1512              		.loc 2 12 25 view .LVU393
 1513 0008 0068     		ldr	r0, [r0]
 1514              	.LVL92:
  11:GrannyChordApp.cpp ****   pod_.SetAudioBlockSize(4);
 1515              		.loc 2 11 14 view .LVU394
 1516 000a C3E99412 		strd	r1, r2, [r3, #592]
  12:GrannyChordApp.cpp ****   pod_.SetAudioSampleRate(SaiHandle::Config::SampleRate::SAI_48KHZ);
 1517              		.loc 2 12 3 is_stmt 1 view .LVU395
  12:GrannyChordApp.cpp ****   pod_.SetAudioSampleRate(SaiHandle::Config::SampleRate::SAI_48KHZ);
 1518              		.loc 2 12 25 is_stmt 0 view .LVU396
 1519 000e 0421     		movs	r1, #4
 1520              	.LVL93:
  12:GrannyChordApp.cpp ****   pod_.SetAudioSampleRate(SaiHandle::Config::SampleRate::SAI_48KHZ);
 1521              		.loc 2 12 25 view .LVU397
ARM GAS  /var/folders/2p/02m_5p7958535cp2tpgps0400000gn/T//ccIfZOml.s 			page 46


 1522 0010 FFF7FEFF 		bl	_ZN5daisy8DaisyPod17SetAudioBlockSizeEj
 1523              	.LVL94:
  13:GrannyChordApp.cpp ****   if (!InitFileMgr()){
 1524              		.loc 2 13 3 is_stmt 1 view .LVU398
  13:GrannyChordApp.cpp ****   if (!InitFileMgr()){
 1525              		.loc 2 13 26 is_stmt 0 view .LVU399
 1526 0014 2068     		ldr	r0, [r4]
 1527 0016 0321     		movs	r1, #3
 1528 0018 FFF7FEFF 		bl	_ZN5daisy8DaisyPod18SetAudioSampleRateENS_9SaiHandle6Config10SampleRateE
 1529              	.LVL95:
  14:GrannyChordApp.cpp ****     DebugPrint(pod_,"File manager failed to init - can't read SD card");
 1530              		.loc 2 14 3 is_stmt 1 view .LVU400
  14:GrannyChordApp.cpp ****     DebugPrint(pod_,"File manager failed to init - can't read SD card");
 1531              		.loc 2 14 19 is_stmt 0 view .LVU401
 1532 001c 2046     		mov	r0, r4
 1533 001e FFF7FEFF 		bl	_ZN14GrannyChordApp11InitFileMgrEv
 1534              	.LVL96:
  14:GrannyChordApp.cpp ****     DebugPrint(pod_,"File manager failed to init - can't read SD card");
 1535              		.loc 2 14 3 view .LVU402
 1536 0022 40B9     		cbnz	r0, .L100
  15:GrannyChordApp.cpp ****     pod_.led1.SetRed(1);
 1537              		.loc 2 15 5 is_stmt 1 view .LVU403
  15:GrannyChordApp.cpp ****     pod_.led1.SetRed(1);
 1538              		.loc 2 15 5 view .LVU404
 1539              	.LVL97:
 1540              	.LBB318:
 1541              	.LBI318:
 126:../libDaisy/src/daisy_seed.h ****     {
 1542              		.loc 4 126 17 view .LVU405
 1543              	.LBB319:
 1544              		.loc 4 128 23 is_stmt 0 view .LVU406
 1545 0024 0C48     		ldr	r0, .L101
 1546 0026 FFF7FEFF 		bl	_ZN5daisy6LoggerILNS_17LoggerDestinationE1EE9PrintLineEPKcz
 1547              	.LVL98:
 1548              		.loc 4 128 23 view .LVU407
 1549              	.LBE319:
 1550              	.LBE318:
  16:GrannyChordApp.cpp ****   }
 1551              		.loc 2 16 5 is_stmt 1 view .LVU408
  16:GrannyChordApp.cpp ****   }
 1552              		.loc 2 16 21 is_stmt 0 view .LVU409
 1553 002a 2068     		ldr	r0, [r4]
 1554 002c B7EE000A 		vmov.f32	s0, #1.0e+0
 1555 0030 D830     		adds	r0, r0, #216
 1556 0032 FFF7FEFF 		bl	_ZN5daisy6RgbLed6SetRedEf
 1557              	.LVL99:
 1558              	.L100:
  19:GrannyChordApp.cpp ****   // InitPrevParamVals();
 1559              		.loc 2 19 3 is_stmt 1 view .LVU410
  19:GrannyChordApp.cpp ****   // InitPrevParamVals();
 1560              		.loc 2 19 9 is_stmt 0 view .LVU411
 1561 0036 2046     		mov	r0, r4
 1562 0038 FFF7FEFF 		bl	_ZN14GrannyChordApp6InitFXEv
 1563              	.LVL100:
  21:GrannyChordApp.cpp ****   
 1564              		.loc 2 21 3 is_stmt 1 view .LVU412
 1565              	.LBB320:
ARM GAS  /var/folders/2p/02m_5p7958535cp2tpgps0400000gn/T//ccIfZOml.s 			page 47


 1566              	.LBI320:
 1567              		.file 9 "constants_utils.h"
   1:constants_utils.h **** #pragma once
   2:constants_utils.h **** #include "stddef.h"
   3:constants_utils.h **** #include <time.h>
   4:constants_utils.h **** 
   5:constants_utils.h **** constexpr int SAMPLE_RATE = 48000;
   6:constants_utils.h **** constexpr float SAMPLE_RATE_FLOAT = 48000.f;
   7:constants_utils.h **** 
   8:constants_utils.h **** constexpr uint16_t MAX_FILES = 32;                      
   9:constants_utils.h **** constexpr uint16_t MAX_FNAME_LEN = 64;
  10:constants_utils.h **** 
  11:constants_utils.h **** /* 16mb - max size of one stereo channel to be loaded into buffers */
  12:constants_utils.h **** constexpr size_t CHNL_BUF_SIZE_ABS = 16*1024*1024;
  13:constants_utils.h **** /* above is absolute size - each sample needs an int16 (2 bytes) so we do (abs_size)/2 */
  14:constants_utils.h **** constexpr size_t CHNL_BUF_SIZE_SAMPS = 8*1024*1024;
  15:constants_utils.h **** 
  16:constants_utils.h **** /* this is 60s @ 48kHz * 2 channels 
  17:constants_utils.h **** nb: we can return out into one channel by interleaving the channels */
  18:constants_utils.h **** constexpr size_t RECORD_OUT_BUF_SIZE_SAMPS = 60*48000*2;
  19:constants_utils.h **** /* we need 2 bytes for each sample so we do (buf_samps_size)*2 */
  20:constants_utils.h **** constexpr size_t RECORD_OUT_BUF_SIZE_ABS = 60*48000*2*2;
  21:constants_utils.h **** 
  22:constants_utils.h **** constexpr int BIT_DEPTH = 16;
  23:constants_utils.h **** /* min/max number of concurrent active grains */
  24:constants_utils.h **** constexpr int MIN_GRAINS = 1;
  25:constants_utils.h **** constexpr int MAX_GRAINS = 20;
  26:constants_utils.h **** 
  27:constants_utils.h **** constexpr float MIN_GRAIN_SIZE_MS = 100.0f; /* 100ms */
  28:constants_utils.h **** constexpr float MAX_GRAIN_SIZE_MS = 3000.0f; /* 3s */
  29:constants_utils.h **** constexpr float MIN_PITCH = 0.5f;
  30:constants_utils.h **** constexpr float MAX_PITCH = 3.0f;
  31:constants_utils.h **** 
  32:constants_utils.h **** /* integer clamp as can't use std::clamp */
  33:constants_utils.h **** inline constexpr size_t intclamp(size_t val, size_t min, size_t max){
  34:constants_utils.h ****   if (val < min) val = min;
  35:constants_utils.h ****   else if (val > max) val = max;
  36:constants_utils.h ****   return val;
  37:constants_utils.h **** }
  38:constants_utils.h **** 
  39:constants_utils.h **** /* converts milliseconds to number of samples */
  40:constants_utils.h **** inline constexpr size_t MsToSamples(float ms){
  41:constants_utils.h ****   return static_cast<size_t>(SAMPLE_RATE_FLOAT * (ms*0.001f));
  42:constants_utils.h **** }
  43:constants_utils.h **** 
  44:constants_utils.h **** /* converts number of samples to milliseconds */
  45:constants_utils.h **** inline constexpr float SamplesToMs(size_t samples){
  46:constants_utils.h ****   return (static_cast<float>(samples) * 1000.0f) / SAMPLE_RATE_FLOAT; 
  47:constants_utils.h **** }
  48:constants_utils.h **** 
  49:constants_utils.h **** static constexpr int NUM_ENV_TYPES = 4;
  50:constants_utils.h **** static constexpr int NUM_PHASOR_MODES = 4;
  51:constants_utils.h **** static constexpr int NUM_SYNTH_MODES = 7;
  52:constants_utils.h **** constexpr float PARAM_CHANGE_THRESHOLD = 0.01f;
  53:constants_utils.h **** 
  54:constants_utils.h **** extern uint32_t rng_state;
  55:constants_utils.h **** 
ARM GAS  /var/folders/2p/02m_5p7958535cp2tpgps0400000gn/T//ccIfZOml.s 			page 48


  56:constants_utils.h **** inline void SeedRng(){
 1568              		.loc 9 56 13 view .LVU413
 1569              	.LBB321:
  57:constants_utils.h ****   rng_state = static_cast<uint32_t>(time(nullptr));
 1570              		.loc 9 57 3 view .LVU414
 1571              		.loc 9 57 41 is_stmt 0 view .LVU415
 1572 003c 0020     		movs	r0, #0
 1573 003e FFF7FEFF 		bl	time
 1574              	.LVL101:
 1575              		.loc 9 57 13 view .LVU416
 1576 0042 064B     		ldr	r3, .L101+4
 1577 0044 1860     		str	r0, [r3]
 1578              	.LBE321:
 1579              	.LBE320:
  23:GrannyChordApp.cpp ****   pod_.StartAudio(AudioCallback);
 1580              		.loc 2 23 3 is_stmt 1 view .LVU417
  23:GrannyChordApp.cpp ****   pod_.StartAudio(AudioCallback);
 1581              		.loc 2 23 16 is_stmt 0 view .LVU418
 1582 0046 2068     		ldr	r0, [r4]
 1583 0048 FFF7FEFF 		bl	_ZN5daisy8DaisyPod8StartAdcEv
 1584              	.LVL102:
  24:GrannyChordApp.cpp **** }
 1585              		.loc 2 24 3 is_stmt 1 view .LVU419
  24:GrannyChordApp.cpp **** }
 1586              		.loc 2 24 18 is_stmt 0 view .LVU420
 1587 004c 2068     		ldr	r0, [r4]
 1588 004e 0449     		ldr	r1, .L101+8
  25:GrannyChordApp.cpp **** 
 1589              		.loc 2 25 1 view .LVU421
 1590 0050 BDE81040 		pop	{r4, lr}
 1591              		.cfi_restore 14
 1592              		.cfi_restore 4
 1593              		.cfi_def_cfa_offset 0
 1594              	.LVL103:
  24:GrannyChordApp.cpp **** }
 1595              		.loc 2 24 18 view .LVU422
 1596 0054 FFF7FEBF 		b	_ZN5daisy8DaisyPod10StartAudioEPFvPKPKfPPfjE
 1597              	.LVL104:
 1598              	.L102:
 1599              		.align	2
 1600              	.L101:
 1601 0058 00000000 		.word	.LC2
 1602 005c 00000000 		.word	rng_state
 1603 0060 00000000 		.word	_ZN14GrannyChordApp13AudioCallbackEPKPKfPPfj
 1604              		.cfi_endproc
 1605              	.LFE4921:
 1607              		.section	.text._ZN14GrannyChordApp17InitPrevParamValsEv,"ax",%progbits
 1608              		.align	1
 1609              		.global	_ZN14GrannyChordApp17InitPrevParamValsEv
 1610              		.syntax unified
 1611              		.thumb
 1612              		.thumb_func
 1614              	_ZN14GrannyChordApp17InitPrevParamValsEv:
 1615              	.LVL105:
 1616              	.LFB4943:
 251:GrannyChordApp.cpp **** 
 252:GrannyChordApp.cpp **** /// @brief Initialise previous parameter value arrays to defaults
ARM GAS  /var/folders/2p/02m_5p7958535cp2tpgps0400000gn/T//ccIfZOml.s 			page 49


 253:GrannyChordApp.cpp **** void GrannyChordApp::InitPrevParamVals(){
 1617              		.loc 2 253 41 is_stmt 1 view -0
 1618              		.cfi_startproc
 1619              		@ args = 0, pretend = 0, frame = 0
 1620              		@ frame_needed = 0, uses_anonymous_args = 0
 1621              		@ link register save eliminated.
 254:GrannyChordApp.cpp ****       for (int i=0; i < NUM_SYNTH_MODES;i++){
 1622              		.loc 2 254 7 view .LVU424
 1623              	.LBB322:
 1624              		.loc 2 254 23 view .LVU425
 1625 0000 00F5C220 		add	r0, r0, #397312
 1626              	.LVL106:
 1627              		.loc 2 254 23 is_stmt 0 view .LVU426
 1628 0004 00F52973 		add	r3, r0, #676
 1629 0008 00F53070 		add	r0, r0, #704
 1630              	.LVL107:
 1631              	.L104:
 255:GrannyChordApp.cpp ****         prev_param_vals_k1[i] = 0.5f;
 1632              		.loc 2 255 9 is_stmt 1 discriminator 2 view .LVU427
 1633              		.loc 2 255 31 is_stmt 0 discriminator 2 view .LVU428
 1634 000c 4FF07C52 		mov	r2, #1056964608
 1635 0010 43F8042B 		str	r2, [r3], #4	@ float
 256:GrannyChordApp.cpp ****         prev_param_vals_k2[i] = 0.5f;
 1636              		.loc 2 256 9 is_stmt 1 discriminator 2 view .LVU429
 254:GrannyChordApp.cpp ****       for (int i=0; i < NUM_SYNTH_MODES;i++){
 1637              		.loc 2 254 23 is_stmt 0 discriminator 2 view .LVU430
 1638 0014 8342     		cmp	r3, r0
 1639              		.loc 2 256 31 discriminator 2 view .LVU431
 1640 0016 9A61     		str	r2, [r3, #24]	@ float
 254:GrannyChordApp.cpp ****       for (int i=0; i < NUM_SYNTH_MODES;i++){
 1641              		.loc 2 254 7 is_stmt 1 discriminator 2 view .LVU432
 254:GrannyChordApp.cpp ****       for (int i=0; i < NUM_SYNTH_MODES;i++){
 1642              		.loc 2 254 23 discriminator 2 view .LVU433
 1643 0018 F8D1     		bne	.L104
 1644              	.LBE322:
 257:GrannyChordApp.cpp ****       } 
 258:GrannyChordApp.cpp **** };
 1645              		.loc 2 258 1 is_stmt 0 view .LVU434
 1646 001a 7047     		bx	lr
 1647              		.cfi_endproc
 1648              	.LFE4943:
 1650              		.section	.text._ZN14GrannyChordApp9AudioIdleEPPfj,"ax",%progbits
 1651              		.align	1
 1652              		.global	_ZN14GrannyChordApp9AudioIdleEPPfj
 1653              		.syntax unified
 1654              		.thumb
 1655              		.thumb_func
 1657              	_ZN14GrannyChordApp9AudioIdleEPPfj:
 1658              	.LVL108:
 1659              	.LFB4946:
 259:GrannyChordApp.cpp **** 
 260:GrannyChordApp.cpp **** /// @brief Master audio callback, called at audio rate, calls all audio processing methods
 261:GrannyChordApp.cpp **** /// @param in Audio input buffer
 262:GrannyChordApp.cpp **** /// @param out Audio output buffer
 263:GrannyChordApp.cpp **** /// @param size Number of samples to process in this call
 264:GrannyChordApp.cpp **** void GrannyChordApp::AudioCallback(AudioHandle::InputBuffer in, AudioHandle::OutputBuffer out, size
 265:GrannyChordApp.cpp ****   instance_->ProcessAudio(in,out,size);
ARM GAS  /var/folders/2p/02m_5p7958535cp2tpgps0400000gn/T//ccIfZOml.s 			page 50


 266:GrannyChordApp.cpp **** }
 267:GrannyChordApp.cpp **** 
 268:GrannyChordApp.cpp **** void GrannyChordApp::ProcessAudio(AudioHandle::InputBuffer in, AudioHandle::OutputBuffer out, size_
 269:GrannyChordApp.cpp ****   switch(curr_state_){
 270:GrannyChordApp.cpp ****     case AppState::PlayWAV: 
 271:GrannyChordApp.cpp ****       if (wav_playhead_>= audio_len_ -1){
 272:GrannyChordApp.cpp ****         AudioIdle(out,size);
 273:GrannyChordApp.cpp ****         break;
 274:GrannyChordApp.cpp ****       }
 275:GrannyChordApp.cpp ****       ProcessWAVPlayback(out,size);
 276:GrannyChordApp.cpp ****       break;  
 277:GrannyChordApp.cpp ****     case AppState::RecordIn:
 278:GrannyChordApp.cpp ****       ProcessRecordIn(in, out, size);
 279:GrannyChordApp.cpp ****       break;
 280:GrannyChordApp.cpp ****     case AppState::Synthesis:
 281:GrannyChordApp.cpp ****       ProcessSynthesis(out,size);
 282:GrannyChordApp.cpp ****       break;
 283:GrannyChordApp.cpp ****     // case AppState::ChordMode:
 284:GrannyChordApp.cpp ****     default:
 285:GrannyChordApp.cpp ****       AudioIdle(out,size);
 286:GrannyChordApp.cpp ****       break;
 287:GrannyChordApp.cpp ****   }
 288:GrannyChordApp.cpp **** }
 289:GrannyChordApp.cpp **** 
 290:GrannyChordApp.cpp **** /// @brief Outputs silence if app is in non audio output state
 291:GrannyChordApp.cpp **** /// @param out Output audio buffer
 292:GrannyChordApp.cpp **** /// @param size Number of samples to process in this call (irrelevant)
 293:GrannyChordApp.cpp **** void GrannyChordApp::AudioIdle(AudioHandle::OutputBuffer out, size_t size){
 1660              		.loc 2 293 75 is_stmt 1 view -0
 1661              		.cfi_startproc
 1662              		@ args = 0, pretend = 0, frame = 0
 1663              		@ frame_needed = 0, uses_anonymous_args = 0
 294:GrannyChordApp.cpp ****   for (size_t i=0; i<size; i++){
 1664              		.loc 2 294 3 view .LVU436
 1665              	.LBB323:
 1666              		.loc 2 294 15 is_stmt 0 view .LVU437
 1667 0000 0023     		movs	r3, #0
 1668              	.LBE323:
 293:GrannyChordApp.cpp ****   for (size_t i=0; i<size; i++){
 1669              		.loc 2 293 75 view .LVU438
 1670 0002 10B5     		push	{r4, lr}
 1671              		.cfi_def_cfa_offset 8
 1672              		.cfi_offset 4, -8
 1673              		.cfi_offset 14, -4
 1674              	.LVL109:
 1675              	.L108:
 1676              	.LBB324:
 1677              		.loc 2 294 21 is_stmt 1 discriminator 3 view .LVU439
 1678 0004 9342     		cmp	r3, r2
 1679 0006 0AD0     		beq	.L106
 295:GrannyChordApp.cpp ****     out[0][i]=out[1][i]=0.0f;
 1680              		.loc 2 295 5 discriminator 2 view .LVU440
 1681              		.loc 2 295 24 is_stmt 0 discriminator 2 view .LVU441
 1682 0008 4868     		ldr	r0, [r1, #4]
 1683 000a 0024     		movs	r4, #0
 1684 000c 00EB8300 		add	r0, r0, r3, lsl #2
 1685 0010 0460     		str	r4, [r0]	@ float
ARM GAS  /var/folders/2p/02m_5p7958535cp2tpgps0400000gn/T//ccIfZOml.s 			page 51


 1686              		.loc 2 295 14 discriminator 2 view .LVU442
 1687 0012 0868     		ldr	r0, [r1]
 1688 0014 00EB8300 		add	r0, r0, r3, lsl #2
 294:GrannyChordApp.cpp ****   for (size_t i=0; i<size; i++){
 1689              		.loc 2 294 3 discriminator 2 view .LVU443
 1690 0018 0133     		adds	r3, r3, #1
 1691              	.LVL110:
 1692              		.loc 2 295 14 discriminator 2 view .LVU444
 1693 001a 0460     		str	r4, [r0]	@ float
 294:GrannyChordApp.cpp ****   for (size_t i=0; i<size; i++){
 1694              		.loc 2 294 3 is_stmt 1 discriminator 2 view .LVU445
 1695              	.LVL111:
 294:GrannyChordApp.cpp ****   for (size_t i=0; i<size; i++){
 1696              		.loc 2 294 3 is_stmt 0 discriminator 2 view .LVU446
 1697 001c F2E7     		b	.L108
 1698              	.L106:
 294:GrannyChordApp.cpp ****   for (size_t i=0; i<size; i++){
 1699              		.loc 2 294 3 discriminator 2 view .LVU447
 1700              	.LBE324:
 296:GrannyChordApp.cpp ****   }
 297:GrannyChordApp.cpp **** }
 1701              		.loc 2 297 1 view .LVU448
 1702 001e 10BD     		pop	{r4, pc}
 1703              		.cfi_endproc
 1704              	.LFE4946:
 1706              		.section	.text._ZN14GrannyChordApp18ProcessWAVPlaybackEPPfj,"ax",%progbits
 1707              		.align	1
 1708              		.global	_ZN14GrannyChordApp18ProcessWAVPlaybackEPPfj
 1709              		.syntax unified
 1710              		.thumb
 1711              		.thumb_func
 1713              	_ZN14GrannyChordApp18ProcessWAVPlaybackEPPfj:
 1714              	.LVL112:
 1715              	.LFB4947:
 298:GrannyChordApp.cpp **** 
 299:GrannyChordApp.cpp **** /// @brief Process audio for WAV playback mode and increment playback position
 300:GrannyChordApp.cpp **** /// @param out Output audio buffer
 301:GrannyChordApp.cpp **** /// @param size Number of samples to process in this call
 302:GrannyChordApp.cpp **** void GrannyChordApp::ProcessWAVPlayback(AudioHandle::OutputBuffer out, size_t size){
 1716              		.loc 2 302 84 is_stmt 1 view -0
 1717              		.cfi_startproc
 1718              		@ args = 0, pretend = 0, frame = 0
 1719              		@ frame_needed = 0, uses_anonymous_args = 0
 303:GrannyChordApp.cpp ****   for (size_t i=0; i<size; i++){
 1720              		.loc 2 303 3 view .LVU450
 302:GrannyChordApp.cpp ****   for (size_t i=0; i<size; i++){
 1721              		.loc 2 302 84 is_stmt 0 view .LVU451
 1722 0000 F0B5     		push	{r4, r5, r6, r7, lr}
 1723              		.cfi_def_cfa_offset 20
 1724              		.cfi_offset 4, -20
 1725              		.cfi_offset 5, -16
 1726              		.cfi_offset 6, -12
 1727              		.cfi_offset 7, -8
 1728              		.cfi_offset 14, -4
 1729              	.LBB325:
 1730              		.loc 2 303 15 view .LVU452
 1731 0002 0025     		movs	r5, #0
ARM GAS  /var/folders/2p/02m_5p7958535cp2tpgps0400000gn/T//ccIfZOml.s 			page 52


 1732              	.LVL113:
 1733              	.L113:
 1734              		.loc 2 303 21 is_stmt 1 discriminator 1 view .LVU453
 1735 0004 9542     		cmp	r5, r2
 1736 0006 28D0     		beq	.L110
 304:GrannyChordApp.cpp ****     if (wav_playhead_ < audio_len_){
 1737              		.loc 2 304 5 view .LVU454
 1738              		.loc 2 304 9 is_stmt 0 view .LVU455
 1739 0008 00F5C224 		add	r4, r0, #397312
 1740              		.loc 2 304 5 view .LVU456
 1741 000c D4E9A736 		ldrd	r3, r6, [r4, #668]
 1742 0010 B342     		cmp	r3, r6
 1743 0012 20D2     		bcs	.L112
 305:GrannyChordApp.cpp ****       out[0][i] = s162f(left_buf_[wav_playhead_]);
 1744              		.loc 2 305 7 is_stmt 1 view .LVU457
 1745              	.LBB326:
 1746              	.LBI326:
 1747              		.file 10 "../libDaisy/src/daisy_core.h"
   1:../libDaisy/src/daisy_core.h **** #pragma once
   2:../libDaisy/src/daisy_core.h **** #ifndef DSY_CORE_HW_H
   3:../libDaisy/src/daisy_core.h **** #define DSY_CORE_HW_H /**< & */
   4:../libDaisy/src/daisy_core.h **** #include <stdint.h>
   5:../libDaisy/src/daisy_core.h **** #include <stdlib.h>
   6:../libDaisy/src/daisy_core.h **** 
   7:../libDaisy/src/daisy_core.h **** #if defined(_MSC_VER)
   8:../libDaisy/src/daisy_core.h **** #define FORCE_INLINE __forceinline /**< & */
   9:../libDaisy/src/daisy_core.h **** #elif defined(__clang__)
  10:../libDaisy/src/daisy_core.h **** #define FORCE_INLINE inline __attribute__((always_inline)) /**< & */
  11:../libDaisy/src/daisy_core.h **** #pragma clang diagnostic ignored "-Wduplicate-decl-specifier"
  12:../libDaisy/src/daisy_core.h **** #elif defined(__GNUC__)
  13:../libDaisy/src/daisy_core.h **** #define FORCE_INLINE inline __attribute__((always_inline)) /**< & */
  14:../libDaisy/src/daisy_core.h **** #else
  15:../libDaisy/src/daisy_core.h **** #error unknown compiler
  16:../libDaisy/src/daisy_core.h **** #endif
  17:../libDaisy/src/daisy_core.h **** 
  18:../libDaisy/src/daisy_core.h **** /** @addtogroup utility
  19:../libDaisy/src/daisy_core.h ****     @{
  20:../libDaisy/src/daisy_core.h **** */
  21:../libDaisy/src/daisy_core.h **** 
  22:../libDaisy/src/daisy_core.h **** /** Macro for area of memory that is configured as cacheless
  23:../libDaisy/src/daisy_core.h **** This should be used primarily for DMA buffers, and the like.
  24:../libDaisy/src/daisy_core.h **** */
  25:../libDaisy/src/daisy_core.h **** #define DMA_BUFFER_MEM_SECTION __attribute__((section(".sram1_bss")))
  26:../libDaisy/src/daisy_core.h **** /** 
  27:../libDaisy/src/daisy_core.h **** THE DTCM RAM section is also non-cached. However, is not suitable 
  28:../libDaisy/src/daisy_core.h **** for DMA transfers. Performance is on par with internal SRAM w/ 
  29:../libDaisy/src/daisy_core.h **** cache enabled.
  30:../libDaisy/src/daisy_core.h **** */
  31:../libDaisy/src/daisy_core.h **** #define DTCM_MEM_SECTION __attribute__((section(".dtcmram_bss")))
  32:../libDaisy/src/daisy_core.h **** 
  33:../libDaisy/src/daisy_core.h **** #define FBIPMAX 0.999985f             /**< close to 1.0f-LSB at 16 bit */
  34:../libDaisy/src/daisy_core.h **** #define FBIPMIN (-FBIPMAX)            /**< - (1 - LSB) */
  35:../libDaisy/src/daisy_core.h **** #define U82F_SCALE 0.0078740f         /**< 1 / 127 */
  36:../libDaisy/src/daisy_core.h **** #define F2U8_SCALE 127.0f             /**< 128 - 1 */
  37:../libDaisy/src/daisy_core.h **** #define S82F_SCALE 0.0078125f         /**< 1 / (2**7) */
  38:../libDaisy/src/daisy_core.h **** #define F2S8_SCALE 127.0f             /**< (2 ** 7) - 1 */
  39:../libDaisy/src/daisy_core.h **** #define S162F_SCALE 3.0517578125e-05f /**< 1 / (2** 15) */
ARM GAS  /var/folders/2p/02m_5p7958535cp2tpgps0400000gn/T//ccIfZOml.s 			page 53


  40:../libDaisy/src/daisy_core.h **** #define F2S16_SCALE 32767.0f          /**< (2 ** 15) - 1 */
  41:../libDaisy/src/daisy_core.h **** #define F2S24_SCALE 8388608.0f        /**< 2 ** 23 */
  42:../libDaisy/src/daisy_core.h **** #define S242F_SCALE 1.192092896e-07f  /**< 1 / (2 ** 23) */
  43:../libDaisy/src/daisy_core.h **** #define S24SIGN 0x800000              /**< 2 ** 23 */
  44:../libDaisy/src/daisy_core.h **** #define S322F_SCALE 4.6566129e-10f    /**< 1 / (2** 31) */
  45:../libDaisy/src/daisy_core.h **** #define F2S32_SCALE 2147483647.f      /**< (2 ** 31) - 1 */
  46:../libDaisy/src/daisy_core.h **** 
  47:../libDaisy/src/daisy_core.h **** 
  48:../libDaisy/src/daisy_core.h **** /** shorthand macro for simplifying the reading of the left 
  49:../libDaisy/src/daisy_core.h ****  *  channel of a non-interleaved output buffer named out */
  50:../libDaisy/src/daisy_core.h **** #define OUT_L out[0]
  51:../libDaisy/src/daisy_core.h **** 
  52:../libDaisy/src/daisy_core.h **** /** shorthand macro for simplifying the reading of the right 
  53:../libDaisy/src/daisy_core.h ****  *  channel of a non-interleaved output buffer named out */
  54:../libDaisy/src/daisy_core.h **** #define OUT_R out[1]
  55:../libDaisy/src/daisy_core.h **** 
  56:../libDaisy/src/daisy_core.h **** /** shorthand macro for simplifying the reading of the left 
  57:../libDaisy/src/daisy_core.h ****  *  channel of a non-interleaved input buffer named in */
  58:../libDaisy/src/daisy_core.h **** #define IN_L in[0]
  59:../libDaisy/src/daisy_core.h **** 
  60:../libDaisy/src/daisy_core.h **** /** shorthand macro for simplifying the reading of the right 
  61:../libDaisy/src/daisy_core.h ****  *  channel of a non-interleaved input buffer named in */
  62:../libDaisy/src/daisy_core.h **** #define IN_R in[1]
  63:../libDaisy/src/daisy_core.h **** 
  64:../libDaisy/src/daisy_core.h **** /** 
  65:../libDaisy/src/daisy_core.h ****     Computes cube.
  66:../libDaisy/src/daisy_core.h ****     \param x Number to be cubed
  67:../libDaisy/src/daisy_core.h ****     \return x ^ 3
  68:../libDaisy/src/daisy_core.h **** */
  69:../libDaisy/src/daisy_core.h **** FORCE_INLINE float cube(float x)
  70:../libDaisy/src/daisy_core.h **** {
  71:../libDaisy/src/daisy_core.h ****     return (x * x) * x;
  72:../libDaisy/src/daisy_core.h **** }
  73:../libDaisy/src/daisy_core.h **** 
  74:../libDaisy/src/daisy_core.h **** /** 
  75:../libDaisy/src/daisy_core.h ****     Converts unsigned 8-bit to float
  76:../libDaisy/src/daisy_core.h ****     \param x Number to be scaled.
  77:../libDaisy/src/daisy_core.h ****     \return Scaled number.
  78:../libDaisy/src/daisy_core.h **** */
  79:../libDaisy/src/daisy_core.h **** FORCE_INLINE float u82f(uint8_t x)
  80:../libDaisy/src/daisy_core.h **** {
  81:../libDaisy/src/daisy_core.h ****     return ((float)x - 127.f) * U82F_SCALE;
  82:../libDaisy/src/daisy_core.h **** }
  83:../libDaisy/src/daisy_core.h **** 
  84:../libDaisy/src/daisy_core.h **** /**
  85:../libDaisy/src/daisy_core.h ****     Converts float to unsigned 8-bit
  86:../libDaisy/src/daisy_core.h **** */
  87:../libDaisy/src/daisy_core.h **** FORCE_INLINE uint8_t f2u8(float x)
  88:../libDaisy/src/daisy_core.h **** {
  89:../libDaisy/src/daisy_core.h ****     x = x <= FBIPMIN ? FBIPMIN : x;
  90:../libDaisy/src/daisy_core.h ****     x = x >= FBIPMAX ? FBIPMAX : x;
  91:../libDaisy/src/daisy_core.h ****     return (uint8_t)((x * F2U8_SCALE) + F2U8_SCALE);
  92:../libDaisy/src/daisy_core.h **** }
  93:../libDaisy/src/daisy_core.h **** 
  94:../libDaisy/src/daisy_core.h **** 
  95:../libDaisy/src/daisy_core.h **** /** 
  96:../libDaisy/src/daisy_core.h ****     Converts Signed 8-bit to float
ARM GAS  /var/folders/2p/02m_5p7958535cp2tpgps0400000gn/T//ccIfZOml.s 			page 54


  97:../libDaisy/src/daisy_core.h ****     \param x Number to be scaled.
  98:../libDaisy/src/daisy_core.h ****     \return Scaled number.
  99:../libDaisy/src/daisy_core.h **** */
 100:../libDaisy/src/daisy_core.h **** FORCE_INLINE float s82f(int8_t x)
 101:../libDaisy/src/daisy_core.h **** {
 102:../libDaisy/src/daisy_core.h ****     return (float)x * S82F_SCALE;
 103:../libDaisy/src/daisy_core.h **** }
 104:../libDaisy/src/daisy_core.h **** 
 105:../libDaisy/src/daisy_core.h **** /**
 106:../libDaisy/src/daisy_core.h ****     Converts float to Signed 8-bit
 107:../libDaisy/src/daisy_core.h **** */
 108:../libDaisy/src/daisy_core.h **** FORCE_INLINE int8_t f2s8(float x)
 109:../libDaisy/src/daisy_core.h **** {
 110:../libDaisy/src/daisy_core.h ****     x = x <= FBIPMIN ? FBIPMIN : x;
 111:../libDaisy/src/daisy_core.h ****     x = x >= FBIPMAX ? FBIPMAX : x;
 112:../libDaisy/src/daisy_core.h ****     return (int32_t)(x * F2S8_SCALE);
 113:../libDaisy/src/daisy_core.h **** }
 114:../libDaisy/src/daisy_core.h **** 
 115:../libDaisy/src/daisy_core.h **** /** 
 116:../libDaisy/src/daisy_core.h ****     Converts Signed 16-bit to float
 117:../libDaisy/src/daisy_core.h ****     \param x Number to be scaled.
 118:../libDaisy/src/daisy_core.h ****     \return Scaled number.
 119:../libDaisy/src/daisy_core.h **** */
 120:../libDaisy/src/daisy_core.h **** FORCE_INLINE float s162f(int16_t x)
 1748              		.loc 10 120 20 view .LVU458
 1749              	.LBB327:
 121:../libDaisy/src/daisy_core.h **** {
 122:../libDaisy/src/daisy_core.h ****     return (float)x * S162F_SCALE;
 1750              		.loc 10 122 5 view .LVU459
 1751              	.LBE327:
 1752              	.LBE326:
 1753              		.loc 2 305 24 is_stmt 0 view .LVU460
 1754 0014 D4F85072 		ldr	r7, [r4, #592]
 1755              	.LBB332:
 1756              	.LBB328:
 1757              		.loc 10 122 23 view .LVU461
 1758 0018 DFED106A 		vldr.32	s13, .L115
 1759              		.loc 10 122 12 view .LVU462
 1760 001c 37F91370 		ldrsh	r7, [r7, r3, lsl #1]
 1761              	.LBE328:
 1762              	.LBE332:
 1763              		.loc 2 305 17 view .LVU463
 1764 0020 0E68     		ldr	r6, [r1]
 1765              	.LBB333:
 1766              	.LBB329:
 1767              		.loc 10 122 12 view .LVU464
 1768 0022 07EE107A 		vmov	s14, r7	@ int
 1769              	.LBE329:
 1770              	.LBE333:
 306:GrannyChordApp.cpp ****       out[1][1] = s162f(right_buf_[wav_playhead_]);
 1771              		.loc 2 306 24 view .LVU465
 1772 0026 D4F85472 		ldr	r7, [r4, #596]
 305:GrannyChordApp.cpp ****       out[1][1] = s162f(right_buf_[wav_playhead_]);
 1773              		.loc 2 305 17 view .LVU466
 1774 002a 06EB8506 		add	r6, r6, r5, lsl #2
 1775              	.LBB334:
 1776              	.LBB335:
ARM GAS  /var/folders/2p/02m_5p7958535cp2tpgps0400000gn/T//ccIfZOml.s 			page 55


 1777              		.loc 10 122 12 view .LVU467
 1778 002e 37F91370 		ldrsh	r7, [r7, r3, lsl #1]
 1779              	.LBE335:
 1780              	.LBE334:
 1781              	.LBB339:
 1782              	.LBB330:
 1783 0032 B8EEC77A 		vcvt.f32.s32	s14, s14
 1784              	.LBE330:
 1785              	.LBE339:
 307:GrannyChordApp.cpp ****       wav_playhead_++;
 1786              		.loc 2 307 20 view .LVU468
 1787 0036 0133     		adds	r3, r3, #1
 1788              	.LBB340:
 1789              	.LBB336:
 1790              		.loc 10 122 12 view .LVU469
 1791 0038 07EE907A 		vmov	s15, r7	@ int
 1792              	.LBE336:
 1793              	.LBE340:
 1794              	.LBB341:
 1795              	.LBB331:
 1796              		.loc 10 122 23 view .LVU470
 1797 003c 27EE267A 		vmul.f32	s14, s14, s13
 1798              	.LBE331:
 1799              	.LBE341:
 1800              	.LBB342:
 1801              	.LBB337:
 1802              		.loc 10 122 12 view .LVU471
 1803 0040 F8EEE77A 		vcvt.f32.s32	s15, s15
 1804              	.LBE337:
 1805              	.LBE342:
 305:GrannyChordApp.cpp ****       out[1][1] = s162f(right_buf_[wav_playhead_]);
 1806              		.loc 2 305 17 view .LVU472
 1807 0044 86ED007A 		vstr.32	s14, [r6]
 306:GrannyChordApp.cpp ****       out[1][1] = s162f(right_buf_[wav_playhead_]);
 1808              		.loc 2 306 7 is_stmt 1 view .LVU473
 1809              	.LBB343:
 1810              	.LBI334:
 120:../libDaisy/src/daisy_core.h **** {
 1811              		.loc 10 120 20 view .LVU474
 1812              	.LBB338:
 1813              		.loc 10 122 5 view .LVU475
 1814              		.loc 10 122 23 is_stmt 0 view .LVU476
 1815 0048 67EEA67A 		vmul.f32	s15, s15, s13
 1816              	.LBE338:
 1817              	.LBE343:
 306:GrannyChordApp.cpp ****       wav_playhead_++;
 1818              		.loc 2 306 17 view .LVU477
 1819 004c 4E68     		ldr	r6, [r1, #4]
 1820 004e C6ED017A 		vstr.32	s15, [r6, #4]
 1821              		.loc 2 307 7 is_stmt 1 view .LVU478
 1822              		.loc 2 307 20 is_stmt 0 view .LVU479
 1823 0052 C4F89C32 		str	r3, [r4, #668]
 1824              	.L112:
 303:GrannyChordApp.cpp ****     if (wav_playhead_ < audio_len_){
 1825              		.loc 2 303 3 is_stmt 1 discriminator 2 view .LVU480
 1826 0056 0135     		adds	r5, r5, #1
 1827              	.LVL114:
ARM GAS  /var/folders/2p/02m_5p7958535cp2tpgps0400000gn/T//ccIfZOml.s 			page 56


 303:GrannyChordApp.cpp ****     if (wav_playhead_ < audio_len_){
 1828              		.loc 2 303 3 is_stmt 0 discriminator 2 view .LVU481
 1829 0058 D4E7     		b	.L113
 1830              	.L110:
 303:GrannyChordApp.cpp ****     if (wav_playhead_ < audio_len_){
 1831              		.loc 2 303 3 discriminator 2 view .LVU482
 1832              	.LBE325:
 308:GrannyChordApp.cpp ****     }
 309:GrannyChordApp.cpp ****   }
 310:GrannyChordApp.cpp **** }
 1833              		.loc 2 310 1 view .LVU483
 1834 005a F0BD     		pop	{r4, r5, r6, r7, pc}
 1835              	.LVL115:
 1836              	.L116:
 1837              		.loc 2 310 1 view .LVU484
 1838              		.align	2
 1839              	.L115:
 1840 005c 00000038 		.word	939524096
 1841              		.cfi_endproc
 1842              	.LFE4947:
 1844              		.section	.text._ZN14GrannyChordApp15ProcessRecordInEPKPKfPPfj,"ax",%progbits
 1845              		.align	1
 1846              		.global	_ZN14GrannyChordApp15ProcessRecordInEPKPKfPPfj
 1847              		.syntax unified
 1848              		.thumb
 1849              		.thumb_func
 1851              	_ZN14GrannyChordApp15ProcessRecordInEPKPKfPPfj:
 1852              	.LVL116:
 1853              	.LFB4948:
 311:GrannyChordApp.cpp **** 
 312:GrannyChordApp.cpp **** /// @brief Process input audio when app is in RecordIn state
 313:GrannyChordApp.cpp **** /// @param in Input audio buffer
 314:GrannyChordApp.cpp **** /// @param out Output audio buffer
 315:GrannyChordApp.cpp **** /// @param size Number of samples to process in this call
 316:GrannyChordApp.cpp **** void GrannyChordApp::ProcessRecordIn(AudioHandle::InputBuffer in, AudioHandle::OutputBuffer out, si
 1854              		.loc 2 316 110 is_stmt 1 view -0
 1855              		.cfi_startproc
 1856              		@ args = 0, pretend = 0, frame = 0
 1857              		@ frame_needed = 0, uses_anonymous_args = 0
 317:GrannyChordApp.cpp ****   static const size_t MAX_RECORDING_LEN = 60*48000; // 60s @ 48kHZ
 1858              		.loc 2 317 3 view .LVU486
 318:GrannyChordApp.cpp ****   static size_t record_pos = 0;
 1859              		.loc 2 318 3 view .LVU487
 319:GrannyChordApp.cpp ****   for (size_t i=0; i<size;i++){
 1860              		.loc 2 319 3 view .LVU488
 316:GrannyChordApp.cpp ****   static const size_t MAX_RECORDING_LEN = 60*48000; // 60s @ 48kHZ
 1861              		.loc 2 316 110 is_stmt 0 view .LVU489
 1862 0000 F0B5     		push	{r4, r5, r6, r7, lr}
 1863              		.cfi_def_cfa_offset 20
 1864              		.cfi_offset 4, -20
 1865              		.cfi_offset 5, -16
 1866              		.cfi_offset 6, -12
 1867              		.cfi_offset 7, -8
 1868              		.cfi_offset 14, -4
 1869 0002 DFF87CC0 		ldr	ip, .L125+4
 316:GrannyChordApp.cpp ****   static const size_t MAX_RECORDING_LEN = 60*48000; // 60s @ 48kHZ
 1870              		.loc 2 316 110 view .LVU490
ARM GAS  /var/folders/2p/02m_5p7958535cp2tpgps0400000gn/T//ccIfZOml.s 			page 57


 1871 0006 0026     		movs	r6, #0
 1872 0008 DCF80040 		ldr	r4, [ip]
 1873              	.LBB344:
 1874              		.loc 2 319 15 view .LVU491
 1875 000c 3546     		mov	r5, r6
 1876              	.LVL117:
 1877              	.L119:
 1878              		.loc 2 319 21 is_stmt 1 discriminator 3 view .LVU492
 1879 000e 9D42     		cmp	r5, r3
 1880 0010 30D0     		beq	.L118
 320:GrannyChordApp.cpp ****     /* send audio in straight to output for monitoring */
 321:GrannyChordApp.cpp ****     out[0][i]=in[0][i];
 1881              		.loc 2 321 5 discriminator 2 view .LVU493
 1882              		.loc 2 321 22 is_stmt 0 discriminator 2 view .LVU494
 1883 0012 0E68     		ldr	r6, [r1]
 1884              		.loc 2 321 14 discriminator 2 view .LVU495
 1885 0014 1768     		ldr	r7, [r2]
 1886              		.loc 2 321 22 discriminator 2 view .LVU496
 1887 0016 06EB8506 		add	r6, r6, r5, lsl #2
 1888              		.loc 2 321 14 discriminator 2 view .LVU497
 1889 001a 07EB8507 		add	r7, r7, r5, lsl #2
 1890              		.loc 2 321 22 discriminator 2 view .LVU498
 1891 001e D6F800E0 		ldr	lr, [r6]	@ float
 1892              		.loc 2 321 14 discriminator 2 view .LVU499
 1893 0022 C7F800E0 		str	lr, [r7]	@ float
 322:GrannyChordApp.cpp ****     out[1][i]=in[1][i];
 1894              		.loc 2 322 5 is_stmt 1 discriminator 2 view .LVU500
 323:GrannyChordApp.cpp **** 
 324:GrannyChordApp.cpp ****     /* record audio in to SDRAM buffers */
 325:GrannyChordApp.cpp ****     left_buf_[record_pos] = in[0][i];
 1895              		.loc 2 325 27 is_stmt 0 discriminator 2 view .LVU501
 1896 0026 00F5C22E 		add	lr, r0, #397312
 322:GrannyChordApp.cpp ****     out[1][i]=in[1][i];
 1897              		.loc 2 322 22 discriminator 2 view .LVU502
 1898 002a 4F68     		ldr	r7, [r1, #4]
 1899 002c 07EB8507 		add	r7, r7, r5, lsl #2
 1900 0030 D7ED007A 		vldr.32	s15, [r7]
 322:GrannyChordApp.cpp ****     out[1][i]=in[1][i];
 1901              		.loc 2 322 14 discriminator 2 view .LVU503
 1902 0034 5768     		ldr	r7, [r2, #4]
 1903 0036 07EB8507 		add	r7, r7, r5, lsl #2
 319:GrannyChordApp.cpp ****     /* send audio in straight to output for monitoring */
 1904              		.loc 2 319 3 discriminator 2 view .LVU504
 1905 003a 0135     		adds	r5, r5, #1
 1906              	.LVL118:
 322:GrannyChordApp.cpp ****     out[1][i]=in[1][i];
 1907              		.loc 2 322 14 discriminator 2 view .LVU505
 1908 003c C7ED007A 		vstr.32	s15, [r7]
 1909              		.loc 2 325 5 is_stmt 1 discriminator 2 view .LVU506
 326:GrannyChordApp.cpp ****     right_buf_[record_pos] = in[1][i];
 1910              		.loc 2 326 28 is_stmt 0 discriminator 2 view .LVU507
 1911 0040 FDEEE77A 		vcvt.s32.f32	s15, s15
 325:GrannyChordApp.cpp ****     right_buf_[record_pos] = in[1][i];
 1912              		.loc 2 325 27 discriminator 2 view .LVU508
 1913 0044 96ED007A 		vldr.32	s14, [r6]
 1914 0048 DEF85072 		ldr	r7, [lr, #592]
 1915 004c BDEEC77A 		vcvt.s32.f32	s14, s14
ARM GAS  /var/folders/2p/02m_5p7958535cp2tpgps0400000gn/T//ccIfZOml.s 			page 58


 1916 0050 17EE106A 		vmov	r6, s14	@ int
 1917 0054 27F81460 		strh	r6, [r7, r4, lsl #1]	@ movhi
 1918              		.loc 2 326 5 is_stmt 1 discriminator 2 view .LVU509
 1919              		.loc 2 326 28 is_stmt 0 discriminator 2 view .LVU510
 1920 0058 17EE907A 		vmov	r7, s15	@ int
 1921 005c DEF85462 		ldr	r6, [lr, #596]
 1922 0060 26F81470 		strh	r7, [r6, r4, lsl #1]	@ movhi
 327:GrannyChordApp.cpp **** 
 328:GrannyChordApp.cpp ****     /* wrap around recording length - if it exceeds 60s,
 329:GrannyChordApp.cpp ****       the start of the recording will be overwritten */
 330:GrannyChordApp.cpp ****     record_pos = (record_pos+1)%MAX_RECORDING_LEN;
 1923              		.loc 2 330 5 is_stmt 1 discriminator 2 view .LVU511
 1924              		.loc 2 330 29 is_stmt 0 discriminator 2 view .LVU512
 1925 0064 0134     		adds	r4, r4, #1
 1926              		.loc 2 330 32 discriminator 2 view .LVU513
 1927 0066 054E     		ldr	r6, .L125
 1928 0068 B4FBF6F7 		udiv	r7, r4, r6
 1929 006c 06FB1744 		mls	r4, r6, r7, r4
 319:GrannyChordApp.cpp ****     /* send audio in straight to output for monitoring */
 1930              		.loc 2 319 3 is_stmt 1 discriminator 2 view .LVU514
 1931              	.LVL119:
 319:GrannyChordApp.cpp ****     /* send audio in straight to output for monitoring */
 1932              		.loc 2 319 3 is_stmt 0 discriminator 2 view .LVU515
 1933 0070 0126     		movs	r6, #1
 1934 0072 CCE7     		b	.L119
 1935              	.L118:
 319:GrannyChordApp.cpp ****     /* send audio in straight to output for monitoring */
 1936              		.loc 2 319 3 discriminator 2 view .LVU516
 1937 0074 0EB1     		cbz	r6, .L117
 1938 0076 CCF80040 		str	r4, [ip]
 1939              	.L117:
 1940              	.LBE344:
 331:GrannyChordApp.cpp **** 
 332:GrannyChordApp.cpp ****   }
 333:GrannyChordApp.cpp **** }
 1941              		.loc 2 333 1 view .LVU517
 1942 007a F0BD     		pop	{r4, r5, r6, r7, pc}
 1943              	.LVL120:
 1944              	.L126:
 1945              		.loc 2 333 1 view .LVU518
 1946              		.align	2
 1947              	.L125:
 1948 007c 00F22B00 		.word	2880000
 1949 0080 00000000 		.word	.LANCHOR0
 1950              		.cfi_endproc
 1951              	.LFE4948:
 1953              		.section	.text._ZN14GrannyChordApp16ProcessSynthesisEPPfj,"ax",%progbits
 1954              		.align	1
 1955              		.global	_ZN14GrannyChordApp16ProcessSynthesisEPPfj
 1956              		.syntax unified
 1957              		.thumb
 1958              		.thumb_func
 1960              	_ZN14GrannyChordApp16ProcessSynthesisEPPfj:
 1961              	.LVL121:
 1962              	.LFB4949:
 334:GrannyChordApp.cpp **** 
 335:GrannyChordApp.cpp **** /// @brief Process audio through granular synth and mix to output buffer
ARM GAS  /var/folders/2p/02m_5p7958535cp2tpgps0400000gn/T//ccIfZOml.s 			page 59


 336:GrannyChordApp.cpp **** /// @param out Output audio buffer
 337:GrannyChordApp.cpp **** /// @param size Number of samples to process in this call
 338:GrannyChordApp.cpp **** void GrannyChordApp::ProcessSynthesis(AudioHandle::OutputBuffer out, size_t size){
 1963              		.loc 2 338 82 is_stmt 1 view -0
 1964              		.cfi_startproc
 1965              		@ args = 0, pretend = 0, frame = 8
 1966              		@ frame_needed = 1, uses_anonymous_args = 0
 339:GrannyChordApp.cpp ****   // for (size_t i=0; i<size; i++){ // NOTE: is this correct? do i need to loop? don't think so
 340:GrannyChordApp.cpp ****     synth_.ProcessGrains(out[0],out[1],size); 
 1967              		.loc 2 340 5 view .LVU520
 338:GrannyChordApp.cpp ****   // for (size_t i=0; i<size; i++){ // NOTE: is this correct? do i need to loop? don't think so
 1968              		.loc 2 338 82 is_stmt 0 view .LVU521
 1969 0000 2DE9F047 		push	{r4, r5, r6, r7, r8, r9, r10, lr}
 1970              		.cfi_def_cfa_offset 32
 1971              		.cfi_offset 4, -32
 1972              		.cfi_offset 5, -28
 1973              		.cfi_offset 6, -24
 1974              		.cfi_offset 7, -20
 1975              		.cfi_offset 8, -16
 1976              		.cfi_offset 9, -12
 1977              		.cfi_offset 10, -8
 1978              		.cfi_offset 14, -4
 1979 0004 84B0     		sub	sp, sp, #16
 1980              		.cfi_def_cfa_offset 48
 1981 0006 0C46     		mov	r4, r1
 1982 0008 1546     		mov	r5, r2
 1983              		.loc 2 340 25 view .LVU522
 1984 000a 1346     		mov	r3, r2
 338:GrannyChordApp.cpp ****   // for (size_t i=0; i<size; i++){ // NOTE: is this correct? do i need to loop? don't think so
 1985              		.loc 2 338 82 view .LVU523
 1986 000c 8046     		mov	r8, r0
 1987 000e 02AF     		add	r7, sp, #8
 1988              		.cfi_def_cfa 7, 40
 1989              		.loc 2 340 25 view .LVU524
 1990 0010 0430     		adds	r0, r0, #4
 1991              	.LVL122:
 1992              	.LBB350:
 341:GrannyChordApp.cpp ****     comp_.ProcessBlock(out[0],out[0],size);
 342:GrannyChordApp.cpp ****     comp_.ProcessBlock(out[1],out[1],size);
 343:GrannyChordApp.cpp **** 
 344:GrannyChordApp.cpp ****     float temp_left[size];
 345:GrannyChordApp.cpp ****     float temp_right[size];
 346:GrannyChordApp.cpp ****     
 347:GrannyChordApp.cpp ****     for (size_t i=0; i<size; i++){
 1993              		.loc 2 347 17 view .LVU525
 1994 0012 4FF00009 		mov	r9, #0
 1995              	.LBE350:
 340:GrannyChordApp.cpp ****     comp_.ProcessBlock(out[0],out[0],size);
 1996              		.loc 2 340 25 view .LVU526
 1997 0016 D1E90012 		ldrd	r1, r2, [r1]
 1998              	.LVL123:
 340:GrannyChordApp.cpp ****     comp_.ProcessBlock(out[0],out[0],size);
 1999              		.loc 2 340 25 view .LVU527
 2000 001a FFF7FEFF 		bl	_ZN13GranularSynth13ProcessGrainsEPfS0_j
 2001              	.LVL124:
 341:GrannyChordApp.cpp ****     comp_.ProcessBlock(out[0],out[0],size);
 2002              		.loc 2 341 5 is_stmt 1 view .LVU528
ARM GAS  /var/folders/2p/02m_5p7958535cp2tpgps0400000gn/T//ccIfZOml.s 			page 60


 2003              	.LBB351:
 2004              	.LBB352:
 2005              		.file 11 "../DaisySP/Source/../DaisySP-LGPL/Source/Dynamics/compressor.h"
   1:../DaisySP/Source/../DaisySP-LGPL/Source/Dynamics/compressor.h **** /*
   2:../DaisySP/Source/../DaisySP-LGPL/Source/Dynamics/compressor.h **** Copyright (c) 2023 Electrosmith, Corp, GRAME, Centre National de Creation Musicale.
   3:../DaisySP/Source/../DaisySP-LGPL/Source/Dynamics/compressor.h **** 
   4:../DaisySP/Source/../DaisySP-LGPL/Source/Dynamics/compressor.h **** Use of this source code is governed by the LGPL V2.1
   5:../DaisySP/Source/../DaisySP-LGPL/Source/Dynamics/compressor.h **** license that can be found in the LICENSE file or at
   6:../DaisySP/Source/../DaisySP-LGPL/Source/Dynamics/compressor.h **** https://opensource.org/license/lgpl-2-1/
   7:../DaisySP/Source/../DaisySP-LGPL/Source/Dynamics/compressor.h **** */
   8:../DaisySP/Source/../DaisySP-LGPL/Source/Dynamics/compressor.h **** 
   9:../DaisySP/Source/../DaisySP-LGPL/Source/Dynamics/compressor.h **** #pragma once
  10:../DaisySP/Source/../DaisySP-LGPL/Source/Dynamics/compressor.h **** #ifndef DSY_COMPRESSOR_H
  11:../DaisySP/Source/../DaisySP-LGPL/Source/Dynamics/compressor.h **** #define DSY_COMPRESSOR_H
  12:../DaisySP/Source/../DaisySP-LGPL/Source/Dynamics/compressor.h **** 
  13:../DaisySP/Source/../DaisySP-LGPL/Source/Dynamics/compressor.h **** #include "Utility/dsp.h"
  14:../DaisySP/Source/../DaisySP-LGPL/Source/Dynamics/compressor.h **** 
  15:../DaisySP/Source/../DaisySP-LGPL/Source/Dynamics/compressor.h **** namespace daisysp
  16:../DaisySP/Source/../DaisySP-LGPL/Source/Dynamics/compressor.h **** {
  17:../DaisySP/Source/../DaisySP-LGPL/Source/Dynamics/compressor.h **** /** dynamics compressor
  18:../DaisySP/Source/../DaisySP-LGPL/Source/Dynamics/compressor.h **** 
  19:../DaisySP/Source/../DaisySP-LGPL/Source/Dynamics/compressor.h **** influenced by compressor in soundpipe (from faust).
  20:../DaisySP/Source/../DaisySP-LGPL/Source/Dynamics/compressor.h **** 
  21:../DaisySP/Source/../DaisySP-LGPL/Source/Dynamics/compressor.h **** Modifications made to do:
  22:../DaisySP/Source/../DaisySP-LGPL/Source/Dynamics/compressor.h **** - Less calculations during each process loop (coefficients recalculated on parameter change).
  23:../DaisySP/Source/../DaisySP-LGPL/Source/Dynamics/compressor.h **** - C++-ified
  24:../DaisySP/Source/../DaisySP-LGPL/Source/Dynamics/compressor.h **** - added sidechain support
  25:../DaisySP/Source/../DaisySP-LGPL/Source/Dynamics/compressor.h **** - pulled gain apart for monitoring and multichannel support
  26:../DaisySP/Source/../DaisySP-LGPL/Source/Dynamics/compressor.h **** - improved readability
  27:../DaisySP/Source/../DaisySP-LGPL/Source/Dynamics/compressor.h **** - improved makeup-gain calculations
  28:../DaisySP/Source/../DaisySP-LGPL/Source/Dynamics/compressor.h **** - changing controls now costs a lot less
  29:../DaisySP/Source/../DaisySP-LGPL/Source/Dynamics/compressor.h **** - a lot less expensive
  30:../DaisySP/Source/../DaisySP-LGPL/Source/Dynamics/compressor.h **** 
  31:../DaisySP/Source/../DaisySP-LGPL/Source/Dynamics/compressor.h **** by: shensley, improved upon by AvAars
  32:../DaisySP/Source/../DaisySP-LGPL/Source/Dynamics/compressor.h **** \todo Add soft/hard knee settings
  33:../DaisySP/Source/../DaisySP-LGPL/Source/Dynamics/compressor.h **** */
  34:../DaisySP/Source/../DaisySP-LGPL/Source/Dynamics/compressor.h **** class Compressor
  35:../DaisySP/Source/../DaisySP-LGPL/Source/Dynamics/compressor.h **** {
  36:../DaisySP/Source/../DaisySP-LGPL/Source/Dynamics/compressor.h ****   public:
  37:../DaisySP/Source/../DaisySP-LGPL/Source/Dynamics/compressor.h ****     Compressor() {}
  38:../DaisySP/Source/../DaisySP-LGPL/Source/Dynamics/compressor.h ****     ~Compressor() {}
  39:../DaisySP/Source/../DaisySP-LGPL/Source/Dynamics/compressor.h ****     /** Initializes compressor
  40:../DaisySP/Source/../DaisySP-LGPL/Source/Dynamics/compressor.h ****         \param sample_rate rate at which samples will be produced by the audio engine.
  41:../DaisySP/Source/../DaisySP-LGPL/Source/Dynamics/compressor.h ****     */
  42:../DaisySP/Source/../DaisySP-LGPL/Source/Dynamics/compressor.h ****     void Init(float sample_rate);
  43:../DaisySP/Source/../DaisySP-LGPL/Source/Dynamics/compressor.h **** 
  44:../DaisySP/Source/../DaisySP-LGPL/Source/Dynamics/compressor.h ****     /** Compress the audio input signal, saves the calculated gain
  45:../DaisySP/Source/../DaisySP-LGPL/Source/Dynamics/compressor.h ****         \param in audio input signal
  46:../DaisySP/Source/../DaisySP-LGPL/Source/Dynamics/compressor.h ****     */
  47:../DaisySP/Source/../DaisySP-LGPL/Source/Dynamics/compressor.h ****     float Process(float in);
  48:../DaisySP/Source/../DaisySP-LGPL/Source/Dynamics/compressor.h **** 
  49:../DaisySP/Source/../DaisySP-LGPL/Source/Dynamics/compressor.h ****     /** Compresses the audio input signal, keyed by a secondary input.
  50:../DaisySP/Source/../DaisySP-LGPL/Source/Dynamics/compressor.h ****         \param in audio input signal (to be compressed)
  51:../DaisySP/Source/../DaisySP-LGPL/Source/Dynamics/compressor.h ****         \param key audio input that will be used to side-chain the compressor
  52:../DaisySP/Source/../DaisySP-LGPL/Source/Dynamics/compressor.h ****     */
  53:../DaisySP/Source/../DaisySP-LGPL/Source/Dynamics/compressor.h ****     float Process(float in, float key)
  54:../DaisySP/Source/../DaisySP-LGPL/Source/Dynamics/compressor.h ****     {
ARM GAS  /var/folders/2p/02m_5p7958535cp2tpgps0400000gn/T//ccIfZOml.s 			page 61


  55:../DaisySP/Source/../DaisySP-LGPL/Source/Dynamics/compressor.h ****         Process(key);
  56:../DaisySP/Source/../DaisySP-LGPL/Source/Dynamics/compressor.h ****         return Apply(in);
  57:../DaisySP/Source/../DaisySP-LGPL/Source/Dynamics/compressor.h ****     }
  58:../DaisySP/Source/../DaisySP-LGPL/Source/Dynamics/compressor.h **** 
  59:../DaisySP/Source/../DaisySP-LGPL/Source/Dynamics/compressor.h ****     /** Apply compression to the audio signal, based on the previously calculated gain
  60:../DaisySP/Source/../DaisySP-LGPL/Source/Dynamics/compressor.h ****         \param in audio input signal
  61:../DaisySP/Source/../DaisySP-LGPL/Source/Dynamics/compressor.h ****     */
  62:../DaisySP/Source/../DaisySP-LGPL/Source/Dynamics/compressor.h ****     float Apply(float in) { return gain_ * in; }
  63:../DaisySP/Source/../DaisySP-LGPL/Source/Dynamics/compressor.h **** 
  64:../DaisySP/Source/../DaisySP-LGPL/Source/Dynamics/compressor.h ****     /** Compresses a block of audio
  65:../DaisySP/Source/../DaisySP-LGPL/Source/Dynamics/compressor.h ****         \param in audio input signal
  66:../DaisySP/Source/../DaisySP-LGPL/Source/Dynamics/compressor.h ****         \param out audio output signal
  67:../DaisySP/Source/../DaisySP-LGPL/Source/Dynamics/compressor.h ****         \param size the size of the block
  68:../DaisySP/Source/../DaisySP-LGPL/Source/Dynamics/compressor.h ****     */
  69:../DaisySP/Source/../DaisySP-LGPL/Source/Dynamics/compressor.h ****     void ProcessBlock(float *in, float *out, size_t size)
  70:../DaisySP/Source/../DaisySP-LGPL/Source/Dynamics/compressor.h ****     {
  71:../DaisySP/Source/../DaisySP-LGPL/Source/Dynamics/compressor.h ****         ProcessBlock(in, out, in, size);
 2006              		.loc 11 71 21 is_stmt 0 view .LVU529
 2007 001e 2368     		ldr	r3, [r4]
 2008              	.LBE352:
 2009              	.LBE351:
 341:GrannyChordApp.cpp ****     comp_.ProcessBlock(out[1],out[1],size);
 2010              		.loc 2 341 23 view .LVU530
 2011 0020 08F5CF60 		add	r0, r8, #1656
 2012              	.LVL125:
 2013              	.LBB354:
 2014              	.LBI351:
  69:../DaisySP/Source/../DaisySP-LGPL/Source/Dynamics/compressor.h ****     {
 2015              		.loc 11 69 10 is_stmt 1 view .LVU531
 2016              	.LBB353:
 2017              		.loc 11 71 9 view .LVU532
 2018              		.loc 11 71 21 is_stmt 0 view .LVU533
 2019 0024 0095     		str	r5, [sp]
 2020 0026 1A46     		mov	r2, r3
 2021 0028 1946     		mov	r1, r3
 2022 002a 7860     		str	r0, [r7, #4]
 2023 002c FFF7FEFF 		bl	_ZN7daisysp10Compressor12ProcessBlockEPfS1_S1_j
 2024              	.LVL126:
 2025              		.loc 11 71 21 view .LVU534
 2026              	.LBE353:
 2027              	.LBE354:
 342:GrannyChordApp.cpp **** 
 2028              		.loc 2 342 5 is_stmt 1 view .LVU535
 2029              	.LBB355:
 2030              	.LBI355:
  69:../DaisySP/Source/../DaisySP-LGPL/Source/Dynamics/compressor.h ****     {
 2031              		.loc 11 69 10 view .LVU536
 2032              	.LBB356:
 2033              		.loc 11 71 9 view .LVU537
 2034              		.loc 11 71 21 is_stmt 0 view .LVU538
 2035 0030 6368     		ldr	r3, [r4, #4]
 2036 0032 0095     		str	r5, [sp]
 2037              	.LVL127:
 2038              		.loc 11 71 21 view .LVU539
 2039 0034 1A46     		mov	r2, r3
 2040 0036 1946     		mov	r1, r3
 2041 0038 7868     		ldr	r0, [r7, #4]
ARM GAS  /var/folders/2p/02m_5p7958535cp2tpgps0400000gn/T//ccIfZOml.s 			page 62


 2042 003a FFF7FEFF 		bl	_ZN7daisysp10Compressor12ProcessBlockEPfS1_S1_j
 2043              	.LVL128:
 2044              		.loc 11 71 21 view .LVU540
 2045              	.LBE356:
 2046              	.LBE355:
 344:GrannyChordApp.cpp ****     float temp_right[size];
 2047              		.loc 2 344 5 is_stmt 1 view .LVU541
 344:GrannyChordApp.cpp ****     float temp_right[size];
 2048              		.loc 2 344 11 is_stmt 0 view .LVU542
 2049 003e AB00     		lsls	r3, r5, #2
 2050 0040 0733     		adds	r3, r3, #7
 2051 0042 23F00703 		bic	r3, r3, #7
 2052 0046 ADEB030D 		sub	sp, sp, r3
 2053 004a 02AE     		add	r6, sp, #8
 2054              	.LVL129:
 345:GrannyChordApp.cpp ****     
 2055              		.loc 2 345 5 is_stmt 1 view .LVU543
 345:GrannyChordApp.cpp ****     
 2056              		.loc 2 345 11 is_stmt 0 view .LVU544
 2057 004c ADEB030D 		sub	sp, sp, r3
 2058              	.LVL130:
 2059              		.loc 2 347 5 is_stmt 1 view .LVU545
 2060              		.loc 2 347 5 is_stmt 0 view .LVU546
 2061 0050 0DF1080A 		add	r10, sp, #8
 2062              	.LVL131:
 2063              	.L129:
 2064              	.LBB357:
 2065              		.loc 2 347 23 is_stmt 1 discriminator 3 view .LVU547
 2066 0054 4D45     		cmp	r5, r9
 2067 0056 17D0     		beq	.L127
 348:GrannyChordApp.cpp ****       temp_left[i] = out[0][i];
 2068              		.loc 2 348 7 discriminator 2 view .LVU548
 2069              		.loc 2 348 30 is_stmt 0 discriminator 2 view .LVU549
 2070 0058 2368     		ldr	r3, [r4]
 349:GrannyChordApp.cpp ****       temp_right[i] = out[1][i];
 350:GrannyChordApp.cpp ****       reverb_.Process(temp_left[i],temp_right[i],&out[0][i],&out[1][i]); // NOTE: check this works
 2071              		.loc 2 350 22 discriminator 2 view .LVU550
 2072 005a 08F5D760 		add	r0, r8, #1720
 348:GrannyChordApp.cpp ****       temp_left[i] = out[0][i];
 2073              		.loc 2 348 30 discriminator 2 view .LVU551
 2074 005e 03EB8903 		add	r3, r3, r9, lsl #2
 2075 0062 1A68     		ldr	r2, [r3]	@ float
 348:GrannyChordApp.cpp ****       temp_left[i] = out[0][i];
 2076              		.loc 2 348 20 discriminator 2 view .LVU552
 2077 0064 3260     		str	r2, [r6]	@ float
 349:GrannyChordApp.cpp ****       temp_right[i] = out[1][i];
 2078              		.loc 2 349 7 is_stmt 1 discriminator 2 view .LVU553
 349:GrannyChordApp.cpp ****       temp_right[i] = out[1][i];
 2079              		.loc 2 349 31 is_stmt 0 discriminator 2 view .LVU554
 2080 0066 6268     		ldr	r2, [r4, #4]
 2081 0068 02EB8902 		add	r2, r2, r9, lsl #2
 347:GrannyChordApp.cpp ****       temp_left[i] = out[0][i];
 2082              		.loc 2 347 5 discriminator 2 view .LVU555
 2083 006c 09F10109 		add	r9, r9, #1
 2084              	.LVL132:
 349:GrannyChordApp.cpp ****       temp_right[i] = out[1][i];
 2085              		.loc 2 349 31 discriminator 2 view .LVU556
ARM GAS  /var/folders/2p/02m_5p7958535cp2tpgps0400000gn/T//ccIfZOml.s 			page 63


 2086 0070 1168     		ldr	r1, [r2]	@ float
 349:GrannyChordApp.cpp ****       temp_right[i] = out[1][i];
 2087              		.loc 2 349 21 discriminator 2 view .LVU557
 2088 0072 CAF80010 		str	r1, [r10]	@ float
 2089              		.loc 2 350 7 is_stmt 1 discriminator 2 view .LVU558
 2090              		.loc 2 350 22 is_stmt 0 discriminator 2 view .LVU559
 2091 0076 3146     		mov	r1, r6
 2092 0078 0092     		str	r2, [sp]
 2093 007a 5246     		mov	r2, r10
 2094 007c 0436     		adds	r6, r6, #4
 2095 007e 0AF1040A 		add	r10, r10, #4
 2096 0082 FFF7FEFF 		bl	_ZN7daisysp8ReverbSc7ProcessERKfS2_PfS3_
 2097              	.LVL133:
 347:GrannyChordApp.cpp ****       temp_left[i] = out[0][i];
 2098              		.loc 2 347 5 is_stmt 1 discriminator 2 view .LVU560
 347:GrannyChordApp.cpp ****       temp_left[i] = out[0][i];
 2099              		.loc 2 347 5 is_stmt 0 discriminator 2 view .LVU561
 2100 0086 E5E7     		b	.L129
 2101              	.L127:
 347:GrannyChordApp.cpp ****       temp_left[i] = out[0][i];
 2102              		.loc 2 347 5 discriminator 2 view .LVU562
 2103              	.LBE357:
 351:GrannyChordApp.cpp ****     }
 352:GrannyChordApp.cpp **** }
 2104              		.loc 2 352 1 view .LVU563
 2105 0088 0837     		adds	r7, r7, #8
 2106              		.cfi_def_cfa_offset 32
 2107 008a BD46     		mov	sp, r7
 2108              		.cfi_def_cfa_register 13
 2109              	.LVL134:
 2110              		.loc 2 352 1 view .LVU564
 2111              		@ sp needed
 2112 008c BDE8F087 		pop	{r4, r5, r6, r7, r8, r9, r10, pc}
 2113              		.loc 2 352 1 view .LVU565
 2114              		.cfi_endproc
 2115              	.LFE4949:
 2117              		.section	.text._ZN14GrannyChordApp12ProcessAudioEPKPKfPPfj,"ax",%progbits
 2118              		.align	1
 2119              		.global	_ZN14GrannyChordApp12ProcessAudioEPKPKfPPfj
 2120              		.syntax unified
 2121              		.thumb
 2122              		.thumb_func
 2124              	_ZN14GrannyChordApp12ProcessAudioEPKPKfPPfj:
 2125              	.LVL135:
 2126              	.LFB4945:
 268:GrannyChordApp.cpp ****   switch(curr_state_){
 2127              		.loc 2 268 107 is_stmt 1 view -0
 2128              		.cfi_startproc
 2129              		@ args = 0, pretend = 0, frame = 0
 2130              		@ frame_needed = 0, uses_anonymous_args = 0
 2131              		@ link register save eliminated.
 269:GrannyChordApp.cpp ****     case AppState::PlayWAV: 
 2132              		.loc 2 269 3 view .LVU567
 268:GrannyChordApp.cpp ****   switch(curr_state_){
 2133              		.loc 2 268 107 is_stmt 0 view .LVU568
 2134 0000 F0B4     		push	{r4, r5, r6, r7}
 2135              		.cfi_def_cfa_offset 16
ARM GAS  /var/folders/2p/02m_5p7958535cp2tpgps0400000gn/T//ccIfZOml.s 			page 64


 2136              		.cfi_offset 4, -16
 2137              		.cfi_offset 5, -12
 2138              		.cfi_offset 6, -8
 2139              		.cfi_offset 7, -4
 269:GrannyChordApp.cpp ****     case AppState::PlayWAV: 
 2140              		.loc 2 269 10 view .LVU569
 2141 0002 D0F86476 		ldr	r7, [r0, #1636]
 268:GrannyChordApp.cpp ****   switch(curr_state_){
 2142              		.loc 2 268 107 view .LVU570
 2143 0006 1546     		mov	r5, r2
 2144 0008 1E46     		mov	r6, r3
 269:GrannyChordApp.cpp ****     case AppState::PlayWAV: 
 2145              		.loc 2 269 3 view .LVU571
 2146 000a 022F     		cmp	r7, #2
 2147 000c 17D0     		beq	.L131
 2148 000e 032F     		cmp	r7, #3
 2149 0010 12D0     		beq	.L132
 2150 0012 012F     		cmp	r7, #1
 2151 0014 18D1     		bne	.L133
 270:GrannyChordApp.cpp ****       if (wav_playhead_>= audio_len_ -1){
 2152              		.loc 2 270 5 is_stmt 1 view .LVU572
 271:GrannyChordApp.cpp ****         AudioIdle(out,size);
 2153              		.loc 2 271 7 view .LVU573
 271:GrannyChordApp.cpp ****         AudioIdle(out,size);
 2154              		.loc 2 271 11 is_stmt 0 view .LVU574
 2155 0016 00F5C224 		add	r4, r0, #397312
 272:GrannyChordApp.cpp ****         break;
 2156              		.loc 2 272 18 view .LVU575
 2157 001a 2946     		mov	r1, r5
 2158              	.LVL136:
 271:GrannyChordApp.cpp ****         AudioIdle(out,size);
 2159              		.loc 2 271 38 view .LVU576
 2160 001c D4F8A032 		ldr	r3, [r4, #672]
 2161              	.LVL137:
 271:GrannyChordApp.cpp ****         AudioIdle(out,size);
 2162              		.loc 2 271 7 view .LVU577
 2163 0020 D4F89C22 		ldr	r2, [r4, #668]
 2164              	.LVL138:
 271:GrannyChordApp.cpp ****         AudioIdle(out,size);
 2165              		.loc 2 271 38 view .LVU578
 2166 0024 013B     		subs	r3, r3, #1
 271:GrannyChordApp.cpp ****         AudioIdle(out,size);
 2167              		.loc 2 271 7 view .LVU579
 2168 0026 9A42     		cmp	r2, r3
 272:GrannyChordApp.cpp ****         break;
 2169              		.loc 2 272 18 view .LVU580
 2170 0028 3246     		mov	r2, r6
 271:GrannyChordApp.cpp ****         AudioIdle(out,size);
 2171              		.loc 2 271 7 view .LVU581
 2172 002a 02D3     		bcc	.L134
 2173              	.L135:
 288:GrannyChordApp.cpp **** 
 2174              		.loc 2 288 1 view .LVU582
 2175 002c F0BC     		pop	{r4, r5, r6, r7}
 2176              		.cfi_remember_state
 2177              		.cfi_restore 7
 2178              		.cfi_restore 6
ARM GAS  /var/folders/2p/02m_5p7958535cp2tpgps0400000gn/T//ccIfZOml.s 			page 65


 2179              		.cfi_restore 5
 2180              		.cfi_restore 4
 2181              		.cfi_def_cfa_offset 0
 2182              	.LVL139:
 285:GrannyChordApp.cpp ****       break;
 2183              		.loc 2 285 16 view .LVU583
 2184 002e FFF7FEBF 		b	_ZN14GrannyChordApp9AudioIdleEPPfj
 2185              	.LVL140:
 2186              	.L134:
 2187              		.cfi_restore_state
 275:GrannyChordApp.cpp ****       break;  
 2188              		.loc 2 275 7 is_stmt 1 view .LVU584
 288:GrannyChordApp.cpp **** 
 2189              		.loc 2 288 1 is_stmt 0 view .LVU585
 2190 0032 F0BC     		pop	{r4, r5, r6, r7}
 2191              		.cfi_remember_state
 2192              		.cfi_restore 7
 2193              		.cfi_restore 6
 2194              		.cfi_restore 5
 2195              		.cfi_restore 4
 2196              		.cfi_def_cfa_offset 0
 275:GrannyChordApp.cpp ****       break;  
 2197              		.loc 2 275 25 view .LVU586
 2198 0034 FFF7FEBF 		b	_ZN14GrannyChordApp18ProcessWAVPlaybackEPPfj
 2199              	.LVL141:
 2200              	.L132:
 2201              		.cfi_restore_state
 277:GrannyChordApp.cpp ****       ProcessRecordIn(in, out, size);
 2202              		.loc 2 277 5 is_stmt 1 view .LVU587
 278:GrannyChordApp.cpp ****       break;
 2203              		.loc 2 278 7 view .LVU588
 288:GrannyChordApp.cpp **** 
 2204              		.loc 2 288 1 is_stmt 0 view .LVU589
 2205 0038 F0BC     		pop	{r4, r5, r6, r7}
 2206              		.cfi_remember_state
 2207              		.cfi_restore 7
 2208              		.cfi_restore 6
 2209              		.cfi_restore 5
 2210              		.cfi_restore 4
 2211              		.cfi_def_cfa_offset 0
 278:GrannyChordApp.cpp ****       break;
 2212              		.loc 2 278 22 view .LVU590
 2213 003a FFF7FEBF 		b	_ZN14GrannyChordApp15ProcessRecordInEPKPKfPPfj
 2214              	.LVL142:
 2215              	.L131:
 2216              		.cfi_restore_state
 280:GrannyChordApp.cpp ****       ProcessSynthesis(out,size);
 2217              		.loc 2 280 5 is_stmt 1 view .LVU591
 281:GrannyChordApp.cpp ****       break;
 2218              		.loc 2 281 7 view .LVU592
 281:GrannyChordApp.cpp ****       break;
 2219              		.loc 2 281 23 is_stmt 0 view .LVU593
 2220 003e 2946     		mov	r1, r5
 2221              	.LVL143:
 281:GrannyChordApp.cpp ****       break;
 2222              		.loc 2 281 23 view .LVU594
 2223 0040 1A46     		mov	r2, r3
ARM GAS  /var/folders/2p/02m_5p7958535cp2tpgps0400000gn/T//ccIfZOml.s 			page 66


 2224              	.LVL144:
 288:GrannyChordApp.cpp **** 
 2225              		.loc 2 288 1 view .LVU595
 2226 0042 F0BC     		pop	{r4, r5, r6, r7}
 2227              		.cfi_remember_state
 2228              		.cfi_restore 7
 2229              		.cfi_restore 6
 2230              		.cfi_restore 5
 2231              		.cfi_restore 4
 2232              		.cfi_def_cfa_offset 0
 2233              	.LVL145:
 281:GrannyChordApp.cpp ****       break;
 2234              		.loc 2 281 23 view .LVU596
 2235 0044 FFF7FEBF 		b	_ZN14GrannyChordApp16ProcessSynthesisEPPfj
 2236              	.LVL146:
 2237              	.L133:
 2238              		.cfi_restore_state
 284:GrannyChordApp.cpp ****       AudioIdle(out,size);
 2239              		.loc 2 284 5 is_stmt 1 view .LVU597
 285:GrannyChordApp.cpp ****       break;
 2240              		.loc 2 285 7 view .LVU598
 285:GrannyChordApp.cpp ****       break;
 2241              		.loc 2 285 16 is_stmt 0 view .LVU599
 2242 0048 1A46     		mov	r2, r3
 2243              	.LVL147:
 285:GrannyChordApp.cpp ****       break;
 2244              		.loc 2 285 16 view .LVU600
 2245 004a 2946     		mov	r1, r5
 2246              	.LVL148:
 285:GrannyChordApp.cpp ****       break;
 2247              		.loc 2 285 16 view .LVU601
 2248 004c EEE7     		b	.L135
 2249              		.cfi_endproc
 2250              	.LFE4945:
 2252              		.section	.text._ZN14GrannyChordApp13AudioCallbackEPKPKfPPfj,"ax",%progbits
 2253              		.align	1
 2254              		.global	_ZN14GrannyChordApp13AudioCallbackEPKPKfPPfj
 2255              		.syntax unified
 2256              		.thumb
 2257              		.thumb_func
 2259              	_ZN14GrannyChordApp13AudioCallbackEPKPKfPPfj:
 2260              	.LVL149:
 2261              	.LFB4944:
 264:GrannyChordApp.cpp ****   instance_->ProcessAudio(in,out,size);
 2262              		.loc 2 264 108 is_stmt 1 view -0
 2263              		.cfi_startproc
 2264              		@ args = 0, pretend = 0, frame = 0
 2265              		@ frame_needed = 0, uses_anonymous_args = 0
 2266              		@ link register save eliminated.
 265:GrannyChordApp.cpp **** }
 2267              		.loc 2 265 3 view .LVU603
 264:GrannyChordApp.cpp ****   instance_->ProcessAudio(in,out,size);
 2268              		.loc 2 264 108 is_stmt 0 view .LVU604
 2269 0000 1346     		mov	r3, r2
 265:GrannyChordApp.cpp **** }
 2270              		.loc 2 265 26 view .LVU605
 2271 0002 0A46     		mov	r2, r1
ARM GAS  /var/folders/2p/02m_5p7958535cp2tpgps0400000gn/T//ccIfZOml.s 			page 67


 2272              	.LVL150:
 265:GrannyChordApp.cpp **** }
 2273              		.loc 2 265 26 view .LVU606
 2274 0004 0146     		mov	r1, r0
 2275              	.LVL151:
 265:GrannyChordApp.cpp **** }
 2276              		.loc 2 265 26 view .LVU607
 2277 0006 0248     		ldr	r0, .L137
 2278              	.LVL152:
 265:GrannyChordApp.cpp **** }
 2279              		.loc 2 265 26 view .LVU608
 2280 0008 0068     		ldr	r0, [r0]
 2281 000a FFF7FEBF 		b	_ZN14GrannyChordApp12ProcessAudioEPKPKfPPfj
 2282              	.LVL153:
 2283              	.L138:
 265:GrannyChordApp.cpp **** }
 2284              		.loc 2 265 26 view .LVU609
 2285 000e 00BF     		.align	2
 2286              	.L137:
 2287 0010 00000000 		.word	.LANCHOR1
 2288              		.cfi_endproc
 2289              	.LFE4944:
 2291              		.section	.text._ZN14GrannyChordApp16ProcessChordModeEPPfj,"ax",%progbits
 2292              		.align	1
 2293              		.global	_ZN14GrannyChordApp16ProcessChordModeEPPfj
 2294              		.syntax unified
 2295              		.thumb
 2296              		.thumb_func
 2298              	_ZN14GrannyChordApp16ProcessChordModeEPPfj:
 2299              	.LVL154:
 2300              	.LFB4950:
 353:GrannyChordApp.cpp **** 
 354:GrannyChordApp.cpp **** /// @brief Process audio from chord mode and mix to output buffer
 355:GrannyChordApp.cpp **** /// @param out Output audio buffer
 356:GrannyChordApp.cpp **** /// @param size Number of samples to process in this call
 357:GrannyChordApp.cpp **** void GrannyChordApp::ProcessChordMode(AudioHandle::OutputBuffer out, size_t size){
 2301              		.loc 2 357 82 is_stmt 1 view -0
 2302              		.cfi_startproc
 2303              		@ args = 0, pretend = 0, frame = 0
 2304              		@ frame_needed = 0, uses_anonymous_args = 0
 2305              		@ link register save eliminated.
 358:GrannyChordApp.cpp ****   // if (UserTriggeredChord()) {
 359:GrannyChordApp.cpp ****   //   synth_.TriggerChord(out[0], out[1], size);
 360:GrannyChordApp.cpp ****   // } else {
 361:GrannyChordApp.cpp ****   //     std::memset(out[0], 0, size * sizeof(float));
 362:GrannyChordApp.cpp ****   //     std::memset(out[1], 0, size * sizeof(float));
 363:GrannyChordApp.cpp ****   // }
 364:GrannyChordApp.cpp **** }
 2306              		.loc 2 364 1 is_stmt 0 view .LVU611
 2307 0000 7047     		bx	lr
 2308              		.cfi_endproc
 2309              	.LFE4950:
 2311              		.section	.text._ZN14GrannyChordApp13RecordOutToSDEPPfj,"ax",%progbits
 2312              		.align	1
 2313              		.global	_ZN14GrannyChordApp13RecordOutToSDEPPfj
 2314              		.syntax unified
 2315              		.thumb
ARM GAS  /var/folders/2p/02m_5p7958535cp2tpgps0400000gn/T//ccIfZOml.s 			page 68


 2316              		.thumb_func
 2318              	_ZN14GrannyChordApp13RecordOutToSDEPPfj:
 2319              	.LVL155:
 2320              	.LFB4951:
 365:GrannyChordApp.cpp **** 
 366:GrannyChordApp.cpp **** /// @brief Record granular synth or chord output audio to SD card
 367:GrannyChordApp.cpp **** /// @param out Output audio buffer
 368:GrannyChordApp.cpp **** /// @param size Number of samples to process in this call
 369:GrannyChordApp.cpp **** void GrannyChordApp::RecordOutToSD(AudioHandle::OutputBuffer out, size_t size){
 2321              		.loc 2 369 79 is_stmt 1 view -0
 2322              		.cfi_startproc
 2323              		@ args = 0, pretend = 0, frame = 16
 2324              		@ frame_needed = 0, uses_anonymous_args = 0
 370:GrannyChordApp.cpp ****   InitWavWriter();
 2325              		.loc 2 370 3 view .LVU613
 369:GrannyChordApp.cpp ****   InitWavWriter();
 2326              		.loc 2 369 79 is_stmt 0 view .LVU614
 2327 0000 F0B5     		push	{r4, r5, r6, r7, lr}
 2328              		.cfi_def_cfa_offset 20
 2329              		.cfi_offset 4, -20
 2330              		.cfi_offset 5, -16
 2331              		.cfi_offset 6, -12
 2332              		.cfi_offset 7, -8
 2333              		.cfi_offset 14, -4
 2334 0002 0446     		mov	r4, r0
 2335 0004 85B0     		sub	sp, sp, #20
 2336              		.cfi_def_cfa_offset 40
 2337              		.loc 2 370 16 view .LVU615
 2338 0006 FFF7FEFF 		bl	_ZN14GrannyChordApp13InitWavWriterEv
 2339              	.LVL156:
 371:GrannyChordApp.cpp ****   const char name[8] = {recording_count_};
 2340              		.loc 2 371 3 is_stmt 1 view .LVU616
 2341              		.loc 2 371 14 is_stmt 0 view .LVU617
 2342 000a 0023     		movs	r3, #0
 2343              		.loc 2 371 25 view .LVU618
 2344 000c 04F5D226 		add	r6, r4, #430080
 2345              	.LBB362:
 2346              	.LBB363:
 157:../libDaisy/src/util/WavWriter.h ****         {
 2347              		.loc 6 157 18 view .LVU619
 2348 0010 04F5C224 		add	r4, r4, #397312
 2349              	.LVL157:
 157:../libDaisy/src/util/WavWriter.h ****         {
 2350              		.loc 6 157 18 view .LVU620
 2351 0014 0A22     		movs	r2, #10
 2352 0016 02A9     		add	r1, sp, #8
 2353 0018 04F50345 		add	r5, r4, #33536
 2354 001c 04F53877 		add	r7, r4, #736
 2355 0020 2835     		adds	r5, r5, #40
 2356              	.LBE363:
 2357              	.LBE362:
 2358              		.loc 2 371 14 view .LVU621
 2359 0022 CDE90233 		strd	r3, r3, [sp, #8]
 2360              		.loc 2 371 41 view .LVU622
 2361 0026 D6F85435 		ldr	r3, [r6, #1364]
 2362              	.LBB367:
 2363              	.LBB365:
ARM GAS  /var/folders/2p/02m_5p7958535cp2tpgps0400000gn/T//ccIfZOml.s 			page 69


 157:../libDaisy/src/util/WavWriter.h ****         {
 2364              		.loc 6 157 18 view .LVU623
 2365 002a 2846     		mov	r0, r5
 2366              	.LBE365:
 2367              	.LBE367:
 2368              		.loc 2 371 41 view .LVU624
 2369 002c 8DF80830 		strb	r3, [sp, #8]
 372:GrannyChordApp.cpp ****   sd_out_writer_.OpenFile(name);
 2370              		.loc 2 372 3 is_stmt 1 view .LVU625
 2371              	.LVL158:
 2372              	.LBB368:
 2373              	.LBI362:
 155:../libDaisy/src/util/WavWriter.h ****     {
 2374              		.loc 6 155 10 view .LVU626
 2375              	.LBB366:
 157:../libDaisy/src/util/WavWriter.h ****         {
 2376              		.loc 6 157 18 is_stmt 0 view .LVU627
 2377 0030 FFF7FEFF 		bl	f_open
 2378              	.LVL159:
 157:../libDaisy/src/util/WavWriter.h ****         {
 2379              		.loc 6 157 9 view .LVU628
 2380 0034 60B9     		cbnz	r0, .L141
 2381              	.LBB364:
 159:../libDaisy/src/util/WavWriter.h ****             if(f_write(&fp_, &wavheader_, sizeof(wavheader_), &bw) == FR_OK)
 2382              		.loc 6 159 26 view .LVU629
 2383 0036 0190     		str	r0, [sp, #4]
 160:../libDaisy/src/util/WavWriter.h ****             {
 2384              		.loc 6 160 23 view .LVU630
 2385 0038 01AB     		add	r3, sp, #4
 2386 003a 2C22     		movs	r2, #44
 2387 003c 3946     		mov	r1, r7
 2388 003e 2846     		mov	r0, r5
 2389 0040 FFF7FEFF 		bl	f_write
 2390              	.LVL160:
 160:../libDaisy/src/util/WavWriter.h ****             {
 2391              		.loc 6 160 13 view .LVU631
 2392 0044 20B9     		cbnz	r0, .L141
 162:../libDaisy/src/util/WavWriter.h ****                 num_samps_ = 0;
 2393              		.loc 6 162 28 view .LVU632
 2394 0046 0123     		movs	r3, #1
 2395 0048 86F82433 		strb	r3, [r6, #804]
 163:../libDaisy/src/util/WavWriter.h ****             }
 2396              		.loc 6 163 28 view .LVU633
 2397 004c C4F80C03 		str	r0, [r4, #780]
 2398              	.L141:
 2399              	.LVL161:
 163:../libDaisy/src/util/WavWriter.h ****             }
 2400              		.loc 6 163 28 view .LVU634
 2401              	.LBE364:
 2402              	.LBE366:
 2403              	.LBE368:
 373:GrannyChordApp.cpp ****   recording_count_++;
 2404              		.loc 2 373 3 is_stmt 1 view .LVU635
 2405              		.loc 2 373 19 is_stmt 0 view .LVU636
 2406 0050 D6F85435 		ldr	r3, [r6, #1364]
 2407 0054 0133     		adds	r3, r3, #1
 2408 0056 C6F85435 		str	r3, [r6, #1364]
ARM GAS  /var/folders/2p/02m_5p7958535cp2tpgps0400000gn/T//ccIfZOml.s 			page 70


 374:GrannyChordApp.cpp ****   recording_out_ = true;
 2409              		.loc 2 374 3 is_stmt 1 view .LVU637
 2410              		.loc 2 374 18 is_stmt 0 view .LVU638
 2411 005a 0123     		movs	r3, #1
 2412 005c 84F8DC32 		strb	r3, [r4, #732]
 375:GrannyChordApp.cpp ****   // NOTE: what now? do i just record in audiocallback? 
 376:GrannyChordApp.cpp **** 
 377:GrannyChordApp.cpp **** //    Open a new file for writing with: writer.OpenFile("FileName.wav")
 378:GrannyChordApp.cpp **** //  ** 5. Write to it within your audio callback using: writer.Sample(value)
 379:GrannyChordApp.cpp **** //  ** 6. Fill the Wav File on the SD Card with data from your main loop by running: writer.Write()
 380:GrannyChordApp.cpp **** //  ** 7. When finished with the recording finalize, and close the file with: writer.SaveFile();
 381:GrannyChordApp.cpp **** // NOTE: 
 382:GrannyChordApp.cpp **** // USE THIS 
 383:GrannyChordApp.cpp **** // https://electro-smith.github.io/libDaisy/classdaisy_1_1_wav_writer.html
 384:GrannyChordApp.cpp **** 
 385:GrannyChordApp.cpp ****   // create file on sd card 
 386:GrannyChordApp.cpp ****   // write in blocks]
 387:GrannyChordApp.cpp ****   // will have to f2s16 to conv back to int16 
 388:GrannyChordApp.cpp ****   // max recording duration should be 120*48000*sizeof(float)*2(channels)??
 389:GrannyChordApp.cpp ****   // wrap around index ? or just stop recording at max length
 390:GrannyChordApp.cpp ****   // could flash seed led if wrapping, solid if stop at max
 391:GrannyChordApp.cpp ****   // write straight to sd card?
 392:GrannyChordApp.cpp ****   // or is it better to write to a circular buffer in SDRAM
 393:GrannyChordApp.cpp ****   // then asynchronously/more slowly write to SD card
 394:GrannyChordApp.cpp ****   // reset recording buffer pointer
 395:GrannyChordApp.cpp ****   // set up audio input gain or anything?
 396:GrannyChordApp.cpp ****   // init sample counter for recording duration? 
 397:GrannyChordApp.cpp ****   // when finished: update file headers
 398:GrannyChordApp.cpp ****   // update UI to show recording finished
 399:GrannyChordApp.cpp **** 
 400:GrannyChordApp.cpp ****   // don't stop audio since i'm recording
 401:GrannyChordApp.cpp **** }
 2413              		.loc 2 401 1 view .LVU639
 2414 0060 05B0     		add	sp, sp, #20
 2415              		.cfi_def_cfa_offset 20
 2416              		@ sp needed
 2417 0062 F0BD     		pop	{r4, r5, r6, r7, pc}
 2418              		.loc 2 401 1 view .LVU640
 2419              		.cfi_endproc
 2420              	.LFE4951:
 2422              		.section	.text._ZN14GrannyChordApp17UpdateKnob1ParamsEf9SynthMode,"ax",%progbits
 2423              		.align	1
 2424              		.global	_ZN14GrannyChordApp17UpdateKnob1ParamsEf9SynthMode
 2425              		.syntax unified
 2426              		.thumb
 2427              		.thumb_func
 2429              	_ZN14GrannyChordApp17UpdateKnob1ParamsEf9SynthMode:
 2430              	.LVL162:
 2431              	.LFB4952:
 402:GrannyChordApp.cpp **** 
 403:GrannyChordApp.cpp **** // void GrannyChordApp::ToggleRecordOut(){
 404:GrannyChordApp.cpp **** //   recording_out_ = !recording_out_;
 405:GrannyChordApp.cpp **** // }
 406:GrannyChordApp.cpp **** 
 407:GrannyChordApp.cpp **** 
 408:GrannyChordApp.cpp **** void GrannyChordApp::UpdateKnob1Params(float knob1_val, SynthMode mode){
 2432              		.loc 2 408 72 is_stmt 1 view -0
ARM GAS  /var/folders/2p/02m_5p7958535cp2tpgps0400000gn/T//ccIfZOml.s 			page 71


 2433              		.cfi_startproc
 2434              		@ args = 0, pretend = 0, frame = 0
 2435              		@ frame_needed = 0, uses_anonymous_args = 0
 2436              		@ link register save eliminated.
 409:GrannyChordApp.cpp ****   switch (mode){
 2437              		.loc 2 409 3 view .LVU642
 2438 0000 0829     		cmp	r1, #8
 2439 0002 44D8     		bhi	.L143
 2440 0004 DFE801F0 		tbb	[pc, r1]
 2441              	.L146:
 2442 0008 05       		.byte	(.L154-.L146)/2
 2443 0009 21       		.byte	(.L153-.L146)/2
 2444 000a 08       		.byte	(.L152-.L146)/2
 2445 000b 26       		.byte	(.L151-.L146)/2
 2446 000c 0E       		.byte	(.L150-.L146)/2
 2447 000d 29       		.byte	(.L149-.L146)/2
 2448 000e 0B       		.byte	(.L148-.L146)/2
 2449 000f 2C       		.byte	(.L147-.L146)/2
 2450 0010 2F       		.byte	(.L145-.L146)/2
 2451 0011 00       		.p2align 1
 2452              	.L154:
 410:GrannyChordApp.cpp ****     case SynthMode::Size_Position:
 2453              		.loc 2 410 5 view .LVU643
 411:GrannyChordApp.cpp ****       synth_.SetGrainSize(knob1_val);
 2454              		.loc 2 411 7 view .LVU644
 2455              		.loc 2 411 26 is_stmt 0 view .LVU645
 2456 0012 0430     		adds	r0, r0, #4
 2457              	.LVL163:
 2458              		.loc 2 411 26 view .LVU646
 2459 0014 FFF7FEBF 		b	_ZN13GranularSynth12SetGrainSizeEf
 2460              	.LVL164:
 2461              	.L152:
 412:GrannyChordApp.cpp ****       break;
 413:GrannyChordApp.cpp ****     case SynthMode::Pitch_ActiveGrains:
 2462              		.loc 2 413 5 is_stmt 1 view .LVU647
 414:GrannyChordApp.cpp ****       synth_.SetPitchRatio(knob1_val);
 2463              		.loc 2 414 7 view .LVU648
 2464              		.loc 2 414 27 is_stmt 0 view .LVU649
 2465 0018 0430     		adds	r0, r0, #4
 2466              	.LVL165:
 2467              		.loc 2 414 27 view .LVU650
 2468 001a FFF7FEBF 		b	_ZN13GranularSynth13SetPitchRatioEf
 2469              	.LVL166:
 2470              	.L148:
 415:GrannyChordApp.cpp ****       break;
 416:GrannyChordApp.cpp ****     case SynthMode::Pan_PanRnd:
 2471              		.loc 2 416 5 is_stmt 1 view .LVU651
 417:GrannyChordApp.cpp ****       synth_.SetPan(knob1_val);
 2472              		.loc 2 417 7 view .LVU652
 2473              		.loc 2 417 20 is_stmt 0 view .LVU653
 2474 001e 0430     		adds	r0, r0, #4
 2475              	.LVL167:
 2476              		.loc 2 417 20 view .LVU654
 2477 0020 FFF7FEBF 		b	_ZN13GranularSynth6SetPanEf
 2478              	.LVL168:
 2479              	.L150:
 418:GrannyChordApp.cpp ****       break;
ARM GAS  /var/folders/2p/02m_5p7958535cp2tpgps0400000gn/T//ccIfZOml.s 			page 72


 419:GrannyChordApp.cpp ****     case SynthMode::PhasorMode_EnvType:
 2480              		.loc 2 419 5 is_stmt 1 view .LVU655
 420:GrannyChordApp.cpp ****       knob1_val = fmap(knob1_val, 0, NUM_PHASOR_MODES);
 2481              		.loc 2 420 7 view .LVU656
 2482              	.LBB369:
 2483              	.LBI369:
 2484              		.file 12 "../DaisySP/Source/Utility/dsp.h"
   1:../DaisySP/Source/Utility/dsp.h **** /*
   2:../DaisySP/Source/Utility/dsp.h **** Copyright (c) 2020 Electrosmith, Corp, Emilie Gillet
   3:../DaisySP/Source/Utility/dsp.h **** 
   4:../DaisySP/Source/Utility/dsp.h **** Use of this source code is governed by an MIT-style
   5:../DaisySP/Source/Utility/dsp.h **** license that can be found in the LICENSE file or at
   6:../DaisySP/Source/Utility/dsp.h **** https://opensource.org/licenses/MIT.
   7:../DaisySP/Source/Utility/dsp.h **** */
   8:../DaisySP/Source/Utility/dsp.h **** 
   9:../DaisySP/Source/Utility/dsp.h **** /** Helpful defines, functions, and other utilities for use in/with daisysp modules.
  10:../DaisySP/Source/Utility/dsp.h **** */
  11:../DaisySP/Source/Utility/dsp.h **** #pragma once
  12:../DaisySP/Source/Utility/dsp.h **** #ifndef DSY_CORE_DSP
  13:../DaisySP/Source/Utility/dsp.h **** #define DSY_CORE_DSP
  14:../DaisySP/Source/Utility/dsp.h **** #include <cassert>
  15:../DaisySP/Source/Utility/dsp.h **** #include <cstdint>
  16:../DaisySP/Source/Utility/dsp.h **** #include <random>
  17:../DaisySP/Source/Utility/dsp.h **** #include <cmath>
  18:../DaisySP/Source/Utility/dsp.h **** 
  19:../DaisySP/Source/Utility/dsp.h **** /** PIs
  20:../DaisySP/Source/Utility/dsp.h **** */
  21:../DaisySP/Source/Utility/dsp.h **** #define PI_F 3.1415927410125732421875f
  22:../DaisySP/Source/Utility/dsp.h **** #define TWOPI_F (2.0f * PI_F)
  23:../DaisySP/Source/Utility/dsp.h **** #define HALFPI_F (PI_F * 0.5f)
  24:../DaisySP/Source/Utility/dsp.h **** #define DSY_MIN(in, mn) (in < mn ? in : mn)
  25:../DaisySP/Source/Utility/dsp.h **** #define DSY_MAX(in, mx) (in > mx ? in : mx)
  26:../DaisySP/Source/Utility/dsp.h **** #define DSY_CLAMP(in, mn, mx) (DSY_MIN(DSY_MAX(in, mn), mx))
  27:../DaisySP/Source/Utility/dsp.h **** #define DSY_COUNTOF(_arr) (sizeof(_arr) / sizeof(_arr[0]))
  28:../DaisySP/Source/Utility/dsp.h **** 
  29:../DaisySP/Source/Utility/dsp.h **** namespace daisysp
  30:../DaisySP/Source/Utility/dsp.h **** {
  31:../DaisySP/Source/Utility/dsp.h **** //Avoids division for random floats. e.g. rand() * kRandFrac
  32:../DaisySP/Source/Utility/dsp.h **** static constexpr float kRandFrac = 1.f / (float)RAND_MAX;
  33:../DaisySP/Source/Utility/dsp.h **** 
  34:../DaisySP/Source/Utility/dsp.h **** //Convert from semitones to other units. e.g. 2 ^ (kOneTwelfth * x)
  35:../DaisySP/Source/Utility/dsp.h **** static constexpr float kOneTwelfth = 1.f / 12.f;
  36:../DaisySP/Source/Utility/dsp.h **** 
  37:../DaisySP/Source/Utility/dsp.h **** /** efficient floating point min/max
  38:../DaisySP/Source/Utility/dsp.h **** c/o stephen mccaul
  39:../DaisySP/Source/Utility/dsp.h **** */
  40:../DaisySP/Source/Utility/dsp.h **** inline float fmax(float a, float b)
  41:../DaisySP/Source/Utility/dsp.h **** {
  42:../DaisySP/Source/Utility/dsp.h ****     float r;
  43:../DaisySP/Source/Utility/dsp.h **** #ifdef __arm__
  44:../DaisySP/Source/Utility/dsp.h ****     asm("vmaxnm.f32 %[d], %[n], %[m]" : [d] "=t"(r) : [n] "t"(a), [m] "t"(b) :);
  45:../DaisySP/Source/Utility/dsp.h **** #else
  46:../DaisySP/Source/Utility/dsp.h ****     r = (a > b) ? a : b;
  47:../DaisySP/Source/Utility/dsp.h **** #endif // __arm__
  48:../DaisySP/Source/Utility/dsp.h ****     return r;
  49:../DaisySP/Source/Utility/dsp.h **** }
  50:../DaisySP/Source/Utility/dsp.h **** 
ARM GAS  /var/folders/2p/02m_5p7958535cp2tpgps0400000gn/T//ccIfZOml.s 			page 73


  51:../DaisySP/Source/Utility/dsp.h **** inline float fmin(float a, float b)
  52:../DaisySP/Source/Utility/dsp.h **** {
  53:../DaisySP/Source/Utility/dsp.h ****     float r;
  54:../DaisySP/Source/Utility/dsp.h **** #ifdef __arm__
  55:../DaisySP/Source/Utility/dsp.h ****     asm("vminnm.f32 %[d], %[n], %[m]" : [d] "=t"(r) : [n] "t"(a), [m] "t"(b) :);
  56:../DaisySP/Source/Utility/dsp.h **** #else
  57:../DaisySP/Source/Utility/dsp.h ****     r = (a < b) ? a : b;
  58:../DaisySP/Source/Utility/dsp.h **** #endif // __arm__
  59:../DaisySP/Source/Utility/dsp.h ****     return r;
  60:../DaisySP/Source/Utility/dsp.h **** }
  61:../DaisySP/Source/Utility/dsp.h **** 
  62:../DaisySP/Source/Utility/dsp.h **** /** quick fp clamp
  63:../DaisySP/Source/Utility/dsp.h **** */
  64:../DaisySP/Source/Utility/dsp.h **** inline float fclamp(float in, float min, float max)
  65:../DaisySP/Source/Utility/dsp.h **** {
  66:../DaisySP/Source/Utility/dsp.h ****     return fmin(fmax(in, min), max);
  67:../DaisySP/Source/Utility/dsp.h **** }
  68:../DaisySP/Source/Utility/dsp.h **** 
  69:../DaisySP/Source/Utility/dsp.h **** /** From Musicdsp.org "Fast power and root estimates for 32bit floats)
  70:../DaisySP/Source/Utility/dsp.h **** Original code by Stefan Stenzel
  71:../DaisySP/Source/Utility/dsp.h **** These are approximations
  72:../DaisySP/Source/Utility/dsp.h **** */
  73:../DaisySP/Source/Utility/dsp.h **** inline float fastpower(float f, int n)
  74:../DaisySP/Source/Utility/dsp.h **** {
  75:../DaisySP/Source/Utility/dsp.h ****     long *lp, l;
  76:../DaisySP/Source/Utility/dsp.h ****     lp = (long *)(&f);
  77:../DaisySP/Source/Utility/dsp.h ****     l  = *lp;
  78:../DaisySP/Source/Utility/dsp.h ****     l -= 0x3F800000;
  79:../DaisySP/Source/Utility/dsp.h ****     l <<= (n - 1);
  80:../DaisySP/Source/Utility/dsp.h ****     l += 0x3F800000;
  81:../DaisySP/Source/Utility/dsp.h ****     *lp = l;
  82:../DaisySP/Source/Utility/dsp.h ****     return f;
  83:../DaisySP/Source/Utility/dsp.h **** }
  84:../DaisySP/Source/Utility/dsp.h **** 
  85:../DaisySP/Source/Utility/dsp.h **** inline float fastroot(float f, int n)
  86:../DaisySP/Source/Utility/dsp.h **** {
  87:../DaisySP/Source/Utility/dsp.h ****     long *lp, l;
  88:../DaisySP/Source/Utility/dsp.h ****     lp = (long *)(&f);
  89:../DaisySP/Source/Utility/dsp.h ****     l  = *lp;
  90:../DaisySP/Source/Utility/dsp.h ****     l -= 0x3F800000;
  91:../DaisySP/Source/Utility/dsp.h ****     l >>= (n - 1);
  92:../DaisySP/Source/Utility/dsp.h ****     l += 0x3F800000;
  93:../DaisySP/Source/Utility/dsp.h ****     *lp = l;
  94:../DaisySP/Source/Utility/dsp.h ****     return f;
  95:../DaisySP/Source/Utility/dsp.h **** }
  96:../DaisySP/Source/Utility/dsp.h **** 
  97:../DaisySP/Source/Utility/dsp.h **** /** Significantly more efficient than fmodf(x, 1.0f) for calculating
  98:../DaisySP/Source/Utility/dsp.h ****  *  the decimal part of a floating point value.
  99:../DaisySP/Source/Utility/dsp.h ****  */
 100:../DaisySP/Source/Utility/dsp.h **** inline float fastmod1f(float x)
 101:../DaisySP/Source/Utility/dsp.h **** {
 102:../DaisySP/Source/Utility/dsp.h ****     return x - static_cast<int>(x);
 103:../DaisySP/Source/Utility/dsp.h **** }
 104:../DaisySP/Source/Utility/dsp.h **** 
 105:../DaisySP/Source/Utility/dsp.h **** /** From http://openaudio.blogspot.com/2017/02/faster-log10-and-pow.html
 106:../DaisySP/Source/Utility/dsp.h **** No approximation, pow10f(x) gives a 90% speed increase over powf(10.f, x)
 107:../DaisySP/Source/Utility/dsp.h **** */
ARM GAS  /var/folders/2p/02m_5p7958535cp2tpgps0400000gn/T//ccIfZOml.s 			page 74


 108:../DaisySP/Source/Utility/dsp.h **** inline float pow10f(float f)
 109:../DaisySP/Source/Utility/dsp.h **** {
 110:../DaisySP/Source/Utility/dsp.h ****     return expf(2.302585092994046f * f);
 111:../DaisySP/Source/Utility/dsp.h **** }
 112:../DaisySP/Source/Utility/dsp.h **** 
 113:../DaisySP/Source/Utility/dsp.h **** /* Original code for fastlog2f by Dr. Paul Beckmann from the ARM community forum, adapted from the 
 114:../DaisySP/Source/Utility/dsp.h **** About 25% performance increase over std::log10f
 115:../DaisySP/Source/Utility/dsp.h **** */
 116:../DaisySP/Source/Utility/dsp.h **** inline float fastlog2f(float f)
 117:../DaisySP/Source/Utility/dsp.h **** {
 118:../DaisySP/Source/Utility/dsp.h ****     float frac;
 119:../DaisySP/Source/Utility/dsp.h ****     int   exp;
 120:../DaisySP/Source/Utility/dsp.h ****     frac = frexpf(fabsf(f), &exp);
 121:../DaisySP/Source/Utility/dsp.h ****     f    = 1.23149591368684f;
 122:../DaisySP/Source/Utility/dsp.h ****     f *= frac;
 123:../DaisySP/Source/Utility/dsp.h ****     f += -4.11852516267426f;
 124:../DaisySP/Source/Utility/dsp.h ****     f *= frac;
 125:../DaisySP/Source/Utility/dsp.h ****     f += 6.02197014179219f;
 126:../DaisySP/Source/Utility/dsp.h ****     f *= frac;
 127:../DaisySP/Source/Utility/dsp.h ****     f += -3.13396450166353f;
 128:../DaisySP/Source/Utility/dsp.h ****     f += exp;
 129:../DaisySP/Source/Utility/dsp.h ****     return (f);
 130:../DaisySP/Source/Utility/dsp.h **** }
 131:../DaisySP/Source/Utility/dsp.h **** 
 132:../DaisySP/Source/Utility/dsp.h **** inline float fastlog10f(float f)
 133:../DaisySP/Source/Utility/dsp.h **** {
 134:../DaisySP/Source/Utility/dsp.h ****     return fastlog2f(f) * 0.3010299956639812f;
 135:../DaisySP/Source/Utility/dsp.h **** }
 136:../DaisySP/Source/Utility/dsp.h **** 
 137:../DaisySP/Source/Utility/dsp.h **** /** Midi to frequency helper
 138:../DaisySP/Source/Utility/dsp.h **** */
 139:../DaisySP/Source/Utility/dsp.h **** inline float mtof(float m)
 140:../DaisySP/Source/Utility/dsp.h **** {
 141:../DaisySP/Source/Utility/dsp.h ****     return powf(2, (m - 69.0f) / 12.0f) * 440.0f;
 142:../DaisySP/Source/Utility/dsp.h **** }
 143:../DaisySP/Source/Utility/dsp.h **** 
 144:../DaisySP/Source/Utility/dsp.h **** 
 145:../DaisySP/Source/Utility/dsp.h **** /** one pole lpf
 146:../DaisySP/Source/Utility/dsp.h **** out is passed by reference, and must be retained between
 147:../DaisySP/Source/Utility/dsp.h **** calls to properly filter the signal
 148:../DaisySP/Source/Utility/dsp.h **** coeff can be calculated:
 149:../DaisySP/Source/Utility/dsp.h **** coeff = 1.0 / (time * sample_rate) ; where time is in seconds
 150:../DaisySP/Source/Utility/dsp.h **** */
 151:../DaisySP/Source/Utility/dsp.h **** inline void fonepole(float &out, float in, float coeff)
 152:../DaisySP/Source/Utility/dsp.h **** {
 153:../DaisySP/Source/Utility/dsp.h ****     out += coeff * (in - out);
 154:../DaisySP/Source/Utility/dsp.h **** }
 155:../DaisySP/Source/Utility/dsp.h **** 
 156:../DaisySP/Source/Utility/dsp.h **** /** Curves to use with the fmap function */
 157:../DaisySP/Source/Utility/dsp.h **** enum class Mapping
 158:../DaisySP/Source/Utility/dsp.h **** {
 159:../DaisySP/Source/Utility/dsp.h ****     LINEAR,
 160:../DaisySP/Source/Utility/dsp.h ****     EXP,
 161:../DaisySP/Source/Utility/dsp.h ****     LOG,
 162:../DaisySP/Source/Utility/dsp.h **** };
 163:../DaisySP/Source/Utility/dsp.h **** 
 164:../DaisySP/Source/Utility/dsp.h **** /** Maps a float between a specified range, using a specified curve.
ARM GAS  /var/folders/2p/02m_5p7958535cp2tpgps0400000gn/T//ccIfZOml.s 			page 75


 165:../DaisySP/Source/Utility/dsp.h ****  *
 166:../DaisySP/Source/Utility/dsp.h ****  *  \param in a value between 0 to 1 that will be mapped to the new range.
 167:../DaisySP/Source/Utility/dsp.h ****  *  \param min the new minimum value
 168:../DaisySP/Source/Utility/dsp.h ****  *  \param max the new maxmimum value
 169:../DaisySP/Source/Utility/dsp.h ****  *  \param curve a Mapping Value to adjust the response curve of the transformation
 170:../DaisySP/Source/Utility/dsp.h ****  *               defaults to Linear. @see Mapping
 171:../DaisySP/Source/Utility/dsp.h ****  *
 172:../DaisySP/Source/Utility/dsp.h ****  *  When using the log curve min and max, must be greater than zero.
 173:../DaisySP/Source/Utility/dsp.h ****  *
 174:../DaisySP/Source/Utility/dsp.h ****  *  \retval returns the transformed float within the new range.
 175:../DaisySP/Source/Utility/dsp.h **** */
 176:../DaisySP/Source/Utility/dsp.h **** inline float
 177:../DaisySP/Source/Utility/dsp.h **** fmap(float in, float min, float max, Mapping curve = Mapping::LINEAR)
 2485              		.loc 12 177 1 view .LVU657
 2486              	.LBE369:
 178:../DaisySP/Source/Utility/dsp.h **** {
 179:../DaisySP/Source/Utility/dsp.h ****     switch(curve)
 2487              		.loc 12 179 5 view .LVU658
 2488              	.LBB379:
 2489              	.LBB370:
 180:../DaisySP/Source/Utility/dsp.h ****     {
 181:../DaisySP/Source/Utility/dsp.h ****         case Mapping::EXP:
 182:../DaisySP/Source/Utility/dsp.h ****             return fclamp(min + (in * in) * (max - min), min, max);
 183:../DaisySP/Source/Utility/dsp.h ****         case Mapping::LOG:
 184:../DaisySP/Source/Utility/dsp.h ****         {
 185:../DaisySP/Source/Utility/dsp.h ****             const float a = 1.f / log10f(max / min);
 186:../DaisySP/Source/Utility/dsp.h ****             return fclamp(min * powf(10, in / a), min, max);
 187:../DaisySP/Source/Utility/dsp.h ****         }
 188:../DaisySP/Source/Utility/dsp.h ****         case Mapping::LINEAR:
 2490              		.loc 12 188 9 view .LVU659
 189:../DaisySP/Source/Utility/dsp.h ****         default: return fclamp(min + in * (max - min), min, max);
 2491              		.loc 12 189 9 view .LVU660
 2492              		.loc 12 189 18 view .LVU661
 2493              		.loc 12 189 31 is_stmt 0 view .LVU662
 2494 0024 DFED1A6A 		vldr.32	s13, .L156
 2495 0028 B1EE007A 		vmov.f32	s14, #4.0e+0
 2496              	.LBE370:
 2497              	.LBE379:
 421:GrannyChordApp.cpp ****       synth_.SetPhasorMode(static_cast<GrainPhasor::Mode>(knob1_val));
 2498              		.loc 2 421 27 view .LVU663
 2499 002c 0430     		adds	r0, r0, #4
 2500              	.LVL169:
 2501              	.LBB380:
 2502              	.LBB377:
 2503              		.loc 12 189 31 view .LVU664
 2504 002e F0EE667A 		vmov.f32	s15, s13
 2505 0032 E0EE077A 		vfma.f32	s15, s0, s14
 2506              	.LVL170:
 2507              	.LBB371:
 2508              	.LBI371:
  64:../DaisySP/Source/Utility/dsp.h **** {
 2509              		.loc 12 64 14 is_stmt 1 view .LVU665
 2510              	.LBE371:
 2511              	.LBE377:
 2512              	.LBE380:
  66:../DaisySP/Source/Utility/dsp.h **** }
 2513              		.loc 12 66 5 view .LVU666
ARM GAS  /var/folders/2p/02m_5p7958535cp2tpgps0400000gn/T//ccIfZOml.s 			page 76


 2514              	.LBB381:
 2515              	.LBB378:
 2516              	.LBB376:
 2517              	.LBB372:
 2518              	.LBI372:
  40:../DaisySP/Source/Utility/dsp.h **** {
 2519              		.loc 12 40 14 view .LVU667
 2520              	.LBB373:
  42:../DaisySP/Source/Utility/dsp.h **** #ifdef __arm__
 2521              		.loc 12 42 5 view .LVU668
  44:../DaisySP/Source/Utility/dsp.h **** #else
 2522              		.loc 12 44 5 view .LVU669
 2523              		.syntax unified
 2524              	@ 44 "../DaisySP/Source/Utility/dsp.h" 1
 2525 0036 C7FEA67A 		vmaxnm.f32 s15, s15, s13
 2526              	@ 0 "" 2
 2527              	.LVL171:
  48:../DaisySP/Source/Utility/dsp.h **** }
 2528              		.loc 12 48 5 view .LVU670
  48:../DaisySP/Source/Utility/dsp.h **** }
 2529              		.loc 12 48 5 is_stmt 0 view .LVU671
 2530              		.thumb
 2531              		.syntax unified
 2532              	.LBE373:
 2533              	.LBE372:
 2534              	.LBB374:
 2535              	.LBI374:
  51:../DaisySP/Source/Utility/dsp.h **** {
 2536              		.loc 12 51 14 is_stmt 1 view .LVU672
 2537              	.LBB375:
  53:../DaisySP/Source/Utility/dsp.h **** #ifdef __arm__
 2538              		.loc 12 53 5 view .LVU673
  55:../DaisySP/Source/Utility/dsp.h **** #else
 2539              		.loc 12 55 5 view .LVU674
 2540              		.syntax unified
 2541              	@ 55 "../DaisySP/Source/Utility/dsp.h" 1
 2542 003a C7FEC77A 		vminnm.f32 s15, s15, s14
 2543              	@ 0 "" 2
 2544              	.LVL172:
  59:../DaisySP/Source/Utility/dsp.h **** }
 2545              		.loc 12 59 5 view .LVU675
  59:../DaisySP/Source/Utility/dsp.h **** }
 2546              		.loc 12 59 5 is_stmt 0 view .LVU676
 2547              		.thumb
 2548              		.syntax unified
 2549              	.LBE375:
 2550              	.LBE374:
 2551              	.LBE376:
 2552              	.LBE378:
 2553              	.LBE381:
 2554              		.loc 2 421 7 is_stmt 1 view .LVU677
 2555              		.loc 2 421 27 is_stmt 0 view .LVU678
 2556 003e FDEEE77A 		vcvt.s32.f32	s15, s15
 2557              	.LVL173:
 2558              		.loc 2 421 27 view .LVU679
 2559 0042 17EE901A 		vmov	r1, s15	@ int
 2560              	.LVL174:
ARM GAS  /var/folders/2p/02m_5p7958535cp2tpgps0400000gn/T//ccIfZOml.s 			page 77


 2561              		.loc 2 421 27 view .LVU680
 2562 0046 FFF7FEBF 		b	_ZN13GranularSynth13SetPhasorModeEN11GrainPhasor4ModeE
 2563              	.LVL175:
 2564              	.L153:
 422:GrannyChordApp.cpp ****       break;
 423:GrannyChordApp.cpp ****     case SynthMode::Size_Position_Rnd:
 2565              		.loc 2 423 5 is_stmt 1 view .LVU681
 424:GrannyChordApp.cpp ****       synth_.SetSizeRnd(knob1_val);
 2566              		.loc 2 424 7 view .LVU682
 2567              	.LBB382:
 2568              	.LBI382:
 2569              		.file 13 "GranularSynth.h"
   1:GranularSynth.h **** #pragma once
   2:GranularSynth.h **** 
   3:GranularSynth.h **** #include "Grain.h"
   4:GranularSynth.h **** #include "daisy_pod.h"
   5:GranularSynth.h **** #include "debug_print.h"
   6:GranularSynth.h **** #include <vector>
   7:GranularSynth.h **** 
   8:GranularSynth.h **** class GranularSynth{
   9:GranularSynth.h ****   public:
  10:GranularSynth.h ****     GranularSynth(DaisyPod& pod) 
  11:GranularSynth.h ****       : pod_(pod), left_buf_(nullptr), right_buf_(nullptr), audio_len_(0),
  12:GranularSynth.h ****         grains_(){}
  13:GranularSynth.h **** 
  14:GranularSynth.h ****     void Init(const int16_t *left, const int16_t *right, size_t audio_len);
  15:GranularSynth.h ****     void UpdateGrainParams();
  16:GranularSynth.h ****     void ApplyRandomness();
  17:GranularSynth.h ****     void TriggerGrain();
  18:GranularSynth.h ****     void ProcessGrains(float *out_left, float *out_right, size_t size);
  19:GranularSynth.h **** 
  20:GranularSynth.h ****     void SetEnvelopeType(Grain::EnvelopeType type);
  21:GranularSynth.h ****     void SetPhasorMode(GrainPhasor::Mode mode);
  22:GranularSynth.h ****     void SetPan(float pan);
  23:GranularSynth.h ****     
  24:GranularSynth.h ****     void SetGrainSize(float knob_val);
  25:GranularSynth.h ****     void SetSpawnPos(float knob_val);
  26:GranularSynth.h ****     void SetActiveGrains(float knob_val);
  27:GranularSynth.h ****     void SetPitchRatio(float ratio);
  28:GranularSynth.h **** 
  29:GranularSynth.h ****     void SetSizeRnd(float rnd){ rnd_size_ = rnd; }
 2570              		.loc 13 29 10 view .LVU683
 2571              	.LBB383:
 2572              		.loc 13 29 33 view .LVU684
 2573              		.loc 13 29 43 is_stmt 0 view .LVU685
 2574 004a 00F5B060 		add	r0, r0, #1408
 2575              	.LVL176:
 2576              	.L155:
 2577              		.loc 13 29 43 view .LVU686
 2578              	.LBE383:
 2579              	.LBE382:
 2580              	.LBB384:
 2581              	.LBB385:
  30:GranularSynth.h ****     void SetPositionRnd(float rnd){ rnd_spawn_pos_ = rnd; }
  31:GranularSynth.h ****     void SetPitchRnd(float rnd){ rnd_pitch_ = rnd; }
 2582              		.loc 13 31 45 view .LVU687
 2583 004e 80ED000A 		vstr.32	s0, [r0]
ARM GAS  /var/folders/2p/02m_5p7958535cp2tpgps0400000gn/T//ccIfZOml.s 			page 78


 2584              		.loc 13 31 52 view .LVU688
 2585 0052 7047     		bx	lr
 2586              	.LVL177:
 2587              	.L151:
 2588              		.loc 13 31 52 view .LVU689
 2589              	.LBE385:
 2590              	.LBE384:
 425:GrannyChordApp.cpp ****       break;
 426:GrannyChordApp.cpp ****     case SynthMode::Pitch_ActiveGrains_Rnd:
 2591              		.loc 2 426 5 is_stmt 1 view .LVU690
 427:GrannyChordApp.cpp ****       synth_.SetPitchRnd(knob1_val);
 2592              		.loc 2 427 7 view .LVU691
 2593              	.LBB387:
 2594              	.LBI384:
 2595              		.loc 13 31 10 view .LVU692
 2596              	.LBB386:
 2597              		.loc 13 31 34 view .LVU693
 2598              		.loc 13 31 45 is_stmt 0 view .LVU694
 2599 0054 00F28C50 		addw	r0, r0, #1420
 2600              	.LVL178:
 2601              		.loc 13 31 45 view .LVU695
 2602 0058 F9E7     		b	.L155
 2603              	.LVL179:
 2604              	.L149:
 2605              		.loc 13 31 45 view .LVU696
 2606              	.LBE386:
 2607              	.LBE387:
 428:GrannyChordApp.cpp ****       break;
 429:GrannyChordApp.cpp ****     case SynthMode::PhasorMode_EnvType_Rnd:
 2608              		.loc 2 429 5 is_stmt 1 view .LVU697
 430:GrannyChordApp.cpp ****       synth_.SetPhasorRnd(knob1_val);
 2609              		.loc 2 430 7 view .LVU698
 2610              	.LBB388:
 2611              	.LBI388:
  32:GranularSynth.h ****     void SetCountRnd(float rnd){ rnd_count_ = rnd; }
  33:GranularSynth.h ****     void SetPanRnd(float rnd){ rnd_pan_ = rnd; }
  34:GranularSynth.h ****     void SetEnvRnd(float rnd){ rnd_envelope_ = rnd; }
  35:GranularSynth.h ****     void SetPhasorRnd(float rnd){ rnd_phasor_ = rnd; }
 2612              		.loc 13 35 10 view .LVU699
 2613              	.LBB389:
 2614              		.loc 13 35 35 view .LVU700
 2615              		.loc 13 35 47 is_stmt 0 view .LVU701
 2616 005a 00F5B360 		add	r0, r0, #1432
 2617              	.LVL180:
 2618              		.loc 13 35 47 view .LVU702
 2619 005e F6E7     		b	.L155
 2620              	.LVL181:
 2621              	.L147:
 2622              		.loc 13 35 47 view .LVU703
 2623              	.LBE389:
 2624              	.LBE388:
 431:GrannyChordApp.cpp ****       break;
 432:GrannyChordApp.cpp ****     case SynthMode::Reverb:
 2625              		.loc 2 432 5 is_stmt 1 view .LVU704
 433:GrannyChordApp.cpp ****       /* set reverb feedback ie tail length */
 434:GrannyChordApp.cpp ****       reverb_.SetFeedback(knob1_val); // NOTE check it doesn't clip
 2626              		.loc 2 434 7 view .LVU705
ARM GAS  /var/folders/2p/02m_5p7958535cp2tpgps0400000gn/T//ccIfZOml.s 			page 79


 2627              	.LBB390:
 2628              	.LBI390:
 2629              		.file 14 "../DaisySP/Source/../DaisySP-LGPL/Source/Effects/reverbsc.h"
   1:../DaisySP/Source/../DaisySP-LGPL/Source/Effects/reverbsc.h **** /*
   2:../DaisySP/Source/../DaisySP-LGPL/Source/Effects/reverbsc.h **** Copyright (c) 2023 Electrosmith, Corp, Sean Costello, Istvan Varga, Paul Batchelor
   3:../DaisySP/Source/../DaisySP-LGPL/Source/Effects/reverbsc.h **** 
   4:../DaisySP/Source/../DaisySP-LGPL/Source/Effects/reverbsc.h **** Use of this source code is governed by the LGPL V2.1
   5:../DaisySP/Source/../DaisySP-LGPL/Source/Effects/reverbsc.h **** license that can be found in the LICENSE file or at
   6:../DaisySP/Source/../DaisySP-LGPL/Source/Effects/reverbsc.h **** https://opensource.org/license/lgpl-2-1/
   7:../DaisySP/Source/../DaisySP-LGPL/Source/Effects/reverbsc.h **** */
   8:../DaisySP/Source/../DaisySP-LGPL/Source/Effects/reverbsc.h **** 
   9:../DaisySP/Source/../DaisySP-LGPL/Source/Effects/reverbsc.h **** #pragma once
  10:../DaisySP/Source/../DaisySP-LGPL/Source/Effects/reverbsc.h **** #ifndef DSYSP_REVERBSC_H
  11:../DaisySP/Source/../DaisySP-LGPL/Source/Effects/reverbsc.h **** #define DSYSP_REVERBSC_H
  12:../DaisySP/Source/../DaisySP-LGPL/Source/Effects/reverbsc.h **** 
  13:../DaisySP/Source/../DaisySP-LGPL/Source/Effects/reverbsc.h **** #define DSY_REVERBSC_MAX_SIZE 98936
  14:../DaisySP/Source/../DaisySP-LGPL/Source/Effects/reverbsc.h **** 
  15:../DaisySP/Source/../DaisySP-LGPL/Source/Effects/reverbsc.h **** namespace daisysp
  16:../DaisySP/Source/../DaisySP-LGPL/Source/Effects/reverbsc.h **** {
  17:../DaisySP/Source/../DaisySP-LGPL/Source/Effects/reverbsc.h **** /**Delay line for internal reverb use
  18:../DaisySP/Source/../DaisySP-LGPL/Source/Effects/reverbsc.h **** */
  19:../DaisySP/Source/../DaisySP-LGPL/Source/Effects/reverbsc.h **** typedef struct
  20:../DaisySP/Source/../DaisySP-LGPL/Source/Effects/reverbsc.h **** {
  21:../DaisySP/Source/../DaisySP-LGPL/Source/Effects/reverbsc.h ****     int    write_pos;         /**< write position */
  22:../DaisySP/Source/../DaisySP-LGPL/Source/Effects/reverbsc.h ****     int    buffer_size;       /**< buffer size */
  23:../DaisySP/Source/../DaisySP-LGPL/Source/Effects/reverbsc.h ****     int    read_pos;          /**< read position */
  24:../DaisySP/Source/../DaisySP-LGPL/Source/Effects/reverbsc.h ****     int    read_pos_frac;     /**< fractional component of read pos */
  25:../DaisySP/Source/../DaisySP-LGPL/Source/Effects/reverbsc.h ****     int    read_pos_frac_inc; /**< increment for fractional */
  26:../DaisySP/Source/../DaisySP-LGPL/Source/Effects/reverbsc.h ****     int    dummy;             /**<  dummy var */
  27:../DaisySP/Source/../DaisySP-LGPL/Source/Effects/reverbsc.h ****     int    seed_val;          /**< randseed */
  28:../DaisySP/Source/../DaisySP-LGPL/Source/Effects/reverbsc.h ****     int    rand_line_cnt;     /**< number of random lines */
  29:../DaisySP/Source/../DaisySP-LGPL/Source/Effects/reverbsc.h ****     float  filter_state;      /**< state of filter */
  30:../DaisySP/Source/../DaisySP-LGPL/Source/Effects/reverbsc.h ****     float *buf;               /**< buffer ptr */
  31:../DaisySP/Source/../DaisySP-LGPL/Source/Effects/reverbsc.h **** } ReverbScDl;
  32:../DaisySP/Source/../DaisySP-LGPL/Source/Effects/reverbsc.h **** 
  33:../DaisySP/Source/../DaisySP-LGPL/Source/Effects/reverbsc.h **** /** Stereo Reverb */
  34:../DaisySP/Source/../DaisySP-LGPL/Source/Effects/reverbsc.h **** class ReverbSc
  35:../DaisySP/Source/../DaisySP-LGPL/Source/Effects/reverbsc.h **** {
  36:../DaisySP/Source/../DaisySP-LGPL/Source/Effects/reverbsc.h ****   public:
  37:../DaisySP/Source/../DaisySP-LGPL/Source/Effects/reverbsc.h ****     ReverbSc() {}
  38:../DaisySP/Source/../DaisySP-LGPL/Source/Effects/reverbsc.h ****     ~ReverbSc() {}
  39:../DaisySP/Source/../DaisySP-LGPL/Source/Effects/reverbsc.h ****     /** Initializes the reverb module, and sets the sample_rate at which the Process function will 
  40:../DaisySP/Source/../DaisySP-LGPL/Source/Effects/reverbsc.h ****         Returns 0 if all good, or 1 if it runs out of delay times exceed maximum allowed.
  41:../DaisySP/Source/../DaisySP-LGPL/Source/Effects/reverbsc.h ****     */
  42:../DaisySP/Source/../DaisySP-LGPL/Source/Effects/reverbsc.h ****     int Init(float sample_rate);
  43:../DaisySP/Source/../DaisySP-LGPL/Source/Effects/reverbsc.h **** 
  44:../DaisySP/Source/../DaisySP-LGPL/Source/Effects/reverbsc.h ****     /** Process the input through the reverb, and updates values of out1, and out2 with the new pro
  45:../DaisySP/Source/../DaisySP-LGPL/Source/Effects/reverbsc.h ****     */
  46:../DaisySP/Source/../DaisySP-LGPL/Source/Effects/reverbsc.h ****     int Process(const float &in1, const float &in2, float *out1, float *out2);
  47:../DaisySP/Source/../DaisySP-LGPL/Source/Effects/reverbsc.h **** 
  48:../DaisySP/Source/../DaisySP-LGPL/Source/Effects/reverbsc.h ****     /** controls the reverb time. reverb tail becomes infinite when set to 1.0
  49:../DaisySP/Source/../DaisySP-LGPL/Source/Effects/reverbsc.h ****         \param fb - sets reverb time. range: 0.0 to 1.0
  50:../DaisySP/Source/../DaisySP-LGPL/Source/Effects/reverbsc.h ****     */
  51:../DaisySP/Source/../DaisySP-LGPL/Source/Effects/reverbsc.h ****     inline void SetFeedback(const float &fb) { feedback_ = fb; }
 2630              		.loc 14 51 17 view .LVU706
 2631              	.LBB391:
 2632              		.loc 14 51 48 view .LVU707
ARM GAS  /var/folders/2p/02m_5p7958535cp2tpgps0400000gn/T//ccIfZOml.s 			page 80


 2633              		.loc 14 51 58 is_stmt 0 view .LVU708
 2634 0060 00F5D760 		add	r0, r0, #1720
 2635              	.LVL182:
 2636              		.loc 14 51 58 view .LVU709
 2637 0064 F3E7     		b	.L155
 2638              	.LVL183:
 2639              	.L145:
 2640              		.loc 14 51 58 view .LVU710
 2641              	.LBE391:
 2642              	.LBE390:
 435:GrannyChordApp.cpp ****       break;
 436:GrannyChordApp.cpp ****     case SynthMode::Filter:
 2643              		.loc 2 436 5 is_stmt 1 view .LVU711
 437:GrannyChordApp.cpp ****       // knob1_val = fmap(knob1_val, 20.0f, 20000.0f, daisysp::Mapping::EXP);
 438:GrannyChordApp.cpp ****       /* map knob value to frequency range with an exponential curve */
 439:GrannyChordApp.cpp ****       knob1_val = fmap(knob1_val, 20.0f, 5000.0f, daisysp::Mapping::EXP);
 2644              		.loc 2 439 7 view .LVU712
 2645              	.LBB392:
 2646              	.LBI392:
 177:../DaisySP/Source/Utility/dsp.h **** {
 2647              		.loc 12 177 1 view .LVU713
 2648              	.LBE392:
 179:../DaisySP/Source/Utility/dsp.h ****     {
 2649              		.loc 12 179 5 view .LVU714
 2650              	.LBB402:
 2651              	.LBB393:
 181:../DaisySP/Source/Utility/dsp.h ****             return fclamp(min + (in * in) * (max - min), min, max);
 2652              		.loc 12 181 9 view .LVU715
 182:../DaisySP/Source/Utility/dsp.h ****         case Mapping::LOG:
 2653              		.loc 12 182 13 view .LVU716
 182:../DaisySP/Source/Utility/dsp.h ****         case Mapping::LOG:
 2654              		.loc 12 182 26 is_stmt 0 view .LVU717
 2655 0066 B3EE047A 		vmov.f32	s14, #2.0e+1
 2656 006a DFED0A6A 		vldr.32	s13, .L156+4
 182:../DaisySP/Source/Utility/dsp.h ****         case Mapping::LOG:
 2657              		.loc 12 182 37 view .LVU718
 2658 006e 20EE000A 		vmul.f32	s0, s0, s0
 2659              	.LVL184:
 182:../DaisySP/Source/Utility/dsp.h ****         case Mapping::LOG:
 2660              		.loc 12 182 37 view .LVU719
 2661              	.LBE393:
 2662              	.LBE402:
 2663              	.LBB403:
 2664              	.LBB404:
  39:../DaisySP/Source/../DaisySP-LGPL/Source/Filters/moogladder.h ****     /** 
 2665              		.loc 7 39 45 view .LVU720
 2666 0072 00F5C220 		add	r0, r0, #397312
 2667              	.LVL185:
  39:../DaisySP/Source/../DaisySP-LGPL/Source/Filters/moogladder.h ****     /** 
 2668              		.loc 7 39 45 view .LVU721
 2669              	.LBE404:
 2670              	.LBE403:
 2671              	.LBB406:
 2672              	.LBB400:
 182:../DaisySP/Source/Utility/dsp.h ****         case Mapping::LOG:
 2673              		.loc 12 182 26 view .LVU722
 2674 0076 F0EE477A 		vmov.f32	s15, s14
ARM GAS  /var/folders/2p/02m_5p7958535cp2tpgps0400000gn/T//ccIfZOml.s 			page 81


 2675 007a E0EE267A 		vfma.f32	s15, s0, s13
 2676              	.LVL186:
 2677              	.LBB394:
 2678              	.LBI394:
  64:../DaisySP/Source/Utility/dsp.h **** {
 2679              		.loc 12 64 14 is_stmt 1 view .LVU723
 2680              	.LBE394:
 2681              	.LBE400:
 2682              	.LBE406:
  66:../DaisySP/Source/Utility/dsp.h **** }
 2683              		.loc 12 66 5 view .LVU724
 2684              	.LBB407:
 2685              	.LBB401:
 2686              	.LBB399:
 2687              	.LBB395:
 2688              	.LBI395:
  40:../DaisySP/Source/Utility/dsp.h **** {
 2689              		.loc 12 40 14 view .LVU725
 2690              	.LBB396:
  42:../DaisySP/Source/Utility/dsp.h **** #ifdef __arm__
 2691              		.loc 12 42 5 view .LVU726
  44:../DaisySP/Source/Utility/dsp.h **** #else
 2692              		.loc 12 44 5 view .LVU727
 2693              		.syntax unified
 2694              	@ 44 "../DaisySP/Source/Utility/dsp.h" 1
 2695 007e C7FE877A 		vmaxnm.f32 s15, s15, s14
 2696              	@ 0 "" 2
 2697              	.LVL187:
  48:../DaisySP/Source/Utility/dsp.h **** }
 2698              		.loc 12 48 5 view .LVU728
  48:../DaisySP/Source/Utility/dsp.h **** }
 2699              		.loc 12 48 5 is_stmt 0 view .LVU729
 2700              		.thumb
 2701              		.syntax unified
 2702              	.LBE396:
 2703              	.LBE395:
 2704              	.LBB397:
 2705              	.LBI397:
  51:../DaisySP/Source/Utility/dsp.h **** {
 2706              		.loc 12 51 14 is_stmt 1 view .LVU730
 2707              	.LBB398:
  53:../DaisySP/Source/Utility/dsp.h **** #ifdef __arm__
 2708              		.loc 12 53 5 view .LVU731
  55:../DaisySP/Source/Utility/dsp.h **** #else
 2709              		.loc 12 55 5 view .LVU732
 2710 0082 9FED057A 		vldr.32	s14, .L156+8
 2711              	.LVL188:
  55:../DaisySP/Source/Utility/dsp.h **** #else
 2712              		.loc 12 55 5 is_stmt 0 view .LVU733
 2713              		.syntax unified
 2714              	@ 55 "../DaisySP/Source/Utility/dsp.h" 1
 2715 0086 C7FEC77A 		vminnm.f32 s15, s15, s14
 2716              	@ 0 "" 2
 2717              	.LVL189:
  59:../DaisySP/Source/Utility/dsp.h **** }
 2718              		.loc 12 59 5 is_stmt 1 view .LVU734
  59:../DaisySP/Source/Utility/dsp.h **** }
ARM GAS  /var/folders/2p/02m_5p7958535cp2tpgps0400000gn/T//ccIfZOml.s 			page 82


 2719              		.loc 12 59 5 is_stmt 0 view .LVU735
 2720              		.thumb
 2721              		.syntax unified
 2722              	.LBE398:
 2723              	.LBE397:
 2724              	.LBE399:
 2725              	.LBE401:
 2726              	.LBE407:
 440:GrannyChordApp.cpp ****       /* set cutoff frequency of low pass moog filter */
 441:GrannyChordApp.cpp ****       lowpass_moog_.SetFreq(knob1_val);
 2727              		.loc 2 441 7 is_stmt 1 view .LVU736
 2728              	.LBB408:
 2729              	.LBI403:
  39:../DaisySP/Source/../DaisySP-LGPL/Source/Filters/moogladder.h ****     /** 
 2730              		.loc 7 39 17 view .LVU737
 2731              	.LBB405:
  39:../DaisySP/Source/../DaisySP-LGPL/Source/Filters/moogladder.h ****     /** 
 2732              		.loc 7 39 39 view .LVU738
  39:../DaisySP/Source/../DaisySP-LGPL/Source/Filters/moogladder.h ****     /** 
 2733              		.loc 7 39 45 is_stmt 0 view .LVU739
 2734 008a C0ED817A 		vstr.32	s15, [r0, #516]
 2735              	.LVL190:
 2736              	.L143:
  39:../DaisySP/Source/../DaisySP-LGPL/Source/Filters/moogladder.h ****     /** 
 2737              		.loc 7 39 45 view .LVU740
 2738              	.LBE405:
 2739              	.LBE408:
 442:GrannyChordApp.cpp ****       break;
 443:GrannyChordApp.cpp ****   }
 444:GrannyChordApp.cpp **** }
 2740              		.loc 2 444 1 view .LVU741
 2741 008e 7047     		bx	lr
 2742              	.L157:
 2743              		.align	2
 2744              	.L156:
 2745 0090 00000000 		.word	0
 2746 0094 00A09B45 		.word	1167826944
 2747 0098 00409C45 		.word	1167867904
 2748              		.cfi_endproc
 2749              	.LFE4952:
 2751              		.section	.text._ZN14GrannyChordApp17UpdateKnob2ParamsEf9SynthMode,"ax",%progbits
 2752              		.align	1
 2753              		.global	_ZN14GrannyChordApp17UpdateKnob2ParamsEf9SynthMode
 2754              		.syntax unified
 2755              		.thumb
 2756              		.thumb_func
 2758              	_ZN14GrannyChordApp17UpdateKnob2ParamsEf9SynthMode:
 2759              	.LVL191:
 2760              	.LFB4953:
 445:GrannyChordApp.cpp **** 
 446:GrannyChordApp.cpp **** void GrannyChordApp::UpdateKnob2Params(float knob2_val, SynthMode mode){
 2761              		.loc 2 446 72 is_stmt 1 view -0
 2762              		.cfi_startproc
 2763              		@ args = 0, pretend = 0, frame = 0
 2764              		@ frame_needed = 0, uses_anonymous_args = 0
 447:GrannyChordApp.cpp ****   switch (mode){
 2765              		.loc 2 447 3 view .LVU743
ARM GAS  /var/folders/2p/02m_5p7958535cp2tpgps0400000gn/T//ccIfZOml.s 			page 83


 446:GrannyChordApp.cpp ****   switch (mode){
 2766              		.loc 2 446 72 is_stmt 0 view .LVU744
 2767 0000 10B5     		push	{r4, lr}
 2768              		.cfi_def_cfa_offset 8
 2769              		.cfi_offset 4, -8
 2770              		.cfi_offset 14, -4
 2771 0002 0446     		mov	r4, r0
 2772 0004 2DED028B 		vpush.64	{d8}
 2773              		.cfi_def_cfa_offset 16
 2774              		.cfi_offset 80, -16
 2775              		.cfi_offset 81, -12
 446:GrannyChordApp.cpp ****   switch (mode){
 2776              		.loc 2 446 72 view .LVU745
 2777 0008 B0EE408A 		vmov.f32	s16, s0
 2778              		.loc 2 447 3 view .LVU746
 2779 000c 0829     		cmp	r1, #8
 2780 000e 12D8     		bhi	.L158
 2781 0010 DFE801F0 		tbb	[pc, r1]
 2782              	.L161:
 2783 0014 05       		.byte	(.L169-.L161)/2
 2784 0015 2B       		.byte	(.L168-.L161)/2
 2785 0016 08       		.byte	(.L167-.L161)/2
 2786 0017 2E       		.byte	(.L166-.L161)/2
 2787 0018 14       		.byte	(.L165-.L161)/2
 2788 0019 31       		.byte	(.L164-.L161)/2
 2789 001a 0D       		.byte	(.L163-.L161)/2
 2790 001b 34       		.byte	(.L162-.L161)/2
 2791 001c 49       		.byte	(.L160-.L161)/2
 2792 001d 00       		.p2align 1
 2793              	.L169:
 448:GrannyChordApp.cpp ****     case SynthMode::Size_Position:
 2794              		.loc 2 448 5 is_stmt 1 view .LVU747
 449:GrannyChordApp.cpp ****       synth_.SetSpawnPos(knob2_val);
 2795              		.loc 2 449 7 view .LVU748
 2796              		.loc 2 449 25 is_stmt 0 view .LVU749
 2797 001e 0430     		adds	r0, r0, #4
 2798              	.LVL192:
 2799              		.loc 2 449 25 view .LVU750
 2800 0020 FFF7FEFF 		bl	_ZN13GranularSynth11SetSpawnPosEf
 2801              	.LVL193:
 2802              	.L167:
 450:GrannyChordApp.cpp ****     case SynthMode::Pitch_ActiveGrains:
 2803              		.loc 2 450 5 is_stmt 1 view .LVU751
 451:GrannyChordApp.cpp ****       synth_.SetActiveGrains(knob2_val);
 2804              		.loc 2 451 7 view .LVU752
 2805              		.loc 2 451 29 is_stmt 0 view .LVU753
 2806 0024 B0EE480A 		vmov.f32	s0, s16
 2807 0028 201D     		adds	r0, r4, #4
 2808 002a FFF7FEFF 		bl	_ZN13GranularSynth15SetActiveGrainsEf
 2809              	.LVL194:
 2810              	.L163:
 452:GrannyChordApp.cpp ****     case SynthMode::Pan_PanRnd:
 2811              		.loc 2 452 5 is_stmt 1 view .LVU754
 453:GrannyChordApp.cpp ****       synth_.SetPanRnd(knob2_val);
 2812              		.loc 2 453 7 view .LVU755
 2813              	.LBB442:
 2814              	.LBI442:
ARM GAS  /var/folders/2p/02m_5p7958535cp2tpgps0400000gn/T//ccIfZOml.s 			page 84


  33:GranularSynth.h ****     void SetEnvRnd(float rnd){ rnd_envelope_ = rnd; }
 2815              		.loc 13 33 10 view .LVU756
 2816              	.LBB443:
  33:GranularSynth.h ****     void SetEnvRnd(float rnd){ rnd_envelope_ = rnd; }
 2817              		.loc 13 33 32 view .LVU757
  33:GranularSynth.h ****     void SetEnvRnd(float rnd){ rnd_envelope_ = rnd; }
 2818              		.loc 13 33 41 is_stmt 0 view .LVU758
 2819 002e 04F5B264 		add	r4, r4, #1424
 2820              	.LVL195:
 2821              	.L171:
  33:GranularSynth.h ****     void SetEnvRnd(float rnd){ rnd_envelope_ = rnd; }
 2822              		.loc 13 33 41 view .LVU759
 2823              	.LBE443:
 2824              	.LBE442:
 2825              	.LBB444:
 2826              	.LBB445:
  34:GranularSynth.h ****     void SetPhasorRnd(float rnd){ rnd_phasor_ = rnd; }
 2827              		.loc 13 34 46 view .LVU760
 2828 0032 84ED008A 		vstr.32	s16, [r4]
 2829              	.LVL196:
 2830              	.L158:
  34:GranularSynth.h ****     void SetPhasorRnd(float rnd){ rnd_phasor_ = rnd; }
 2831              		.loc 13 34 46 view .LVU761
 2832              	.LBE445:
 2833              	.LBE444:
 454:GrannyChordApp.cpp ****       break;
 455:GrannyChordApp.cpp ****     case SynthMode::PhasorMode_EnvType:
 456:GrannyChordApp.cpp ****       knob2_val = fmap(knob2_val, 0, NUM_ENV_TYPES);
 457:GrannyChordApp.cpp ****       synth_.SetEnvelopeType(static_cast<Grain::EnvelopeType>(knob2_val));
 458:GrannyChordApp.cpp ****       break;
 459:GrannyChordApp.cpp ****     case SynthMode::Size_Position_Rnd:
 460:GrannyChordApp.cpp ****       synth_.SetPositionRnd(knob2_val);
 461:GrannyChordApp.cpp ****       break;
 462:GrannyChordApp.cpp ****     case SynthMode::Pitch_ActiveGrains_Rnd:
 463:GrannyChordApp.cpp ****       synth_.SetCountRnd(knob2_val);
 464:GrannyChordApp.cpp ****       break;
 465:GrannyChordApp.cpp ****     case SynthMode::PhasorMode_EnvType_Rnd:
 466:GrannyChordApp.cpp ****       synth_.SetEnvRnd(knob2_val);
 467:GrannyChordApp.cpp ****       break;
 468:GrannyChordApp.cpp ****     case SynthMode::Reverb:
 469:GrannyChordApp.cpp ****       /* map knob value to frequency range with an exponential curve */
 470:GrannyChordApp.cpp ****       knob2_val = fmap(knob2_val, 100.0f, 20000.0f, daisysp::Mapping::EXP);
 471:GrannyChordApp.cpp ****       /* set reverb low pass frequency */
 472:GrannyChordApp.cpp ****       reverb_.SetLpFreq(knob2_val);
 473:GrannyChordApp.cpp ****       break;
 474:GrannyChordApp.cpp ****     case SynthMode::Filter:
 475:GrannyChordApp.cpp ****       /* again, map knob value to frequency range with an exponential curve */
 476:GrannyChordApp.cpp ****       knob2_val = fmap(knob2_val, 0.001f, 0.497f, daisysp::Mapping::EXP);
 477:GrannyChordApp.cpp ****       /* set cutoff frequency for high pass filter */
 478:GrannyChordApp.cpp ****       hipass_.SetFrequency(knob2_val);
 479:GrannyChordApp.cpp ****       break;
 480:GrannyChordApp.cpp ****   }
 481:GrannyChordApp.cpp **** }
 2834              		.loc 2 481 1 view .LVU762
 2835 0036 BDEC028B 		vldm	sp!, {d8}
 2836              		.cfi_remember_state
 2837              		.cfi_restore 80
ARM GAS  /var/folders/2p/02m_5p7958535cp2tpgps0400000gn/T//ccIfZOml.s 			page 85


 2838              		.cfi_restore 81
 2839              		.cfi_def_cfa_offset 8
 2840 003a 10BD     		pop	{r4, pc}
 2841              	.LVL197:
 2842              	.L165:
 2843              		.cfi_restore_state
 455:GrannyChordApp.cpp ****       knob2_val = fmap(knob2_val, 0, NUM_ENV_TYPES);
 2844              		.loc 2 455 5 is_stmt 1 view .LVU763
 456:GrannyChordApp.cpp ****       synth_.SetEnvelopeType(static_cast<Grain::EnvelopeType>(knob2_val));
 2845              		.loc 2 456 7 view .LVU764
 2846              	.LBB447:
 2847              	.LBI447:
 177:../DaisySP/Source/Utility/dsp.h **** {
 2848              		.loc 12 177 1 view .LVU765
 2849              	.LBE447:
 179:../DaisySP/Source/Utility/dsp.h ****     {
 2850              		.loc 12 179 5 view .LVU766
 2851              	.LBB458:
 2852              	.LBB448:
 188:../DaisySP/Source/Utility/dsp.h ****         default: return fclamp(min + in * (max - min), min, max);
 2853              		.loc 12 188 9 view .LVU767
 2854              		.loc 12 189 9 view .LVU768
 2855              		.loc 12 189 18 view .LVU769
 2856              		.loc 12 189 31 is_stmt 0 view .LVU770
 2857 003c DFED2F6A 		vldr.32	s13, .L172
 2858 0040 B1EE007A 		vmov.f32	s14, #4.0e+0
 2859              	.LBE448:
 2860              	.LBE458:
 457:GrannyChordApp.cpp ****       break;
 2861              		.loc 2 457 29 view .LVU771
 2862 0044 0430     		adds	r0, r0, #4
 2863              	.LVL198:
 2864              	.LBB459:
 2865              	.LBB455:
 2866              		.loc 12 189 31 view .LVU772
 2867 0046 F0EE667A 		vmov.f32	s15, s13
 2868              	.LBE455:
 2869              	.LBE459:
 2870              		.loc 2 481 1 view .LVU773
 2871 004a BDEC028B 		vldm	sp!, {d8}
 2872              		.cfi_remember_state
 2873              		.cfi_restore 80
 2874              		.cfi_restore 81
 2875              		.cfi_def_cfa_offset 8
 2876              	.LBB460:
 2877              	.LBB456:
 2878              		.loc 12 189 31 view .LVU774
 2879 004e E0EE077A 		vfma.f32	s15, s0, s14
 2880              	.LVL199:
 2881              	.LBB449:
 2882              	.LBI449:
  64:../DaisySP/Source/Utility/dsp.h **** {
 2883              		.loc 12 64 14 is_stmt 1 view .LVU775
 2884              	.LBE449:
 2885              	.LBE456:
 2886              	.LBE460:
  66:../DaisySP/Source/Utility/dsp.h **** }
ARM GAS  /var/folders/2p/02m_5p7958535cp2tpgps0400000gn/T//ccIfZOml.s 			page 86


 2887              		.loc 12 66 5 view .LVU776
 2888              	.LBB461:
 2889              	.LBB457:
 2890              	.LBB454:
 2891              	.LBB450:
 2892              	.LBI450:
  40:../DaisySP/Source/Utility/dsp.h **** {
 2893              		.loc 12 40 14 view .LVU777
 2894              	.LBB451:
  42:../DaisySP/Source/Utility/dsp.h **** #ifdef __arm__
 2895              		.loc 12 42 5 view .LVU778
  44:../DaisySP/Source/Utility/dsp.h **** #else
 2896              		.loc 12 44 5 view .LVU779
 2897              		.syntax unified
 2898              	@ 44 "../DaisySP/Source/Utility/dsp.h" 1
 2899 0052 C7FEA67A 		vmaxnm.f32 s15, s15, s13
 2900              	@ 0 "" 2
 2901              	.LVL200:
  48:../DaisySP/Source/Utility/dsp.h **** }
 2902              		.loc 12 48 5 view .LVU780
  48:../DaisySP/Source/Utility/dsp.h **** }
 2903              		.loc 12 48 5 is_stmt 0 view .LVU781
 2904              		.thumb
 2905              		.syntax unified
 2906              	.LBE451:
 2907              	.LBE450:
 2908              	.LBB452:
 2909              	.LBI452:
  51:../DaisySP/Source/Utility/dsp.h **** {
 2910              		.loc 12 51 14 is_stmt 1 view .LVU782
 2911              	.LBB453:
  53:../DaisySP/Source/Utility/dsp.h **** #ifdef __arm__
 2912              		.loc 12 53 5 view .LVU783
  55:../DaisySP/Source/Utility/dsp.h **** #else
 2913              		.loc 12 55 5 view .LVU784
 2914              		.syntax unified
 2915              	@ 55 "../DaisySP/Source/Utility/dsp.h" 1
 2916 0056 C7FEC77A 		vminnm.f32 s15, s15, s14
 2917              	@ 0 "" 2
 2918              	.LVL201:
  59:../DaisySP/Source/Utility/dsp.h **** }
 2919              		.loc 12 59 5 view .LVU785
  59:../DaisySP/Source/Utility/dsp.h **** }
 2920              		.loc 12 59 5 is_stmt 0 view .LVU786
 2921              		.thumb
 2922              		.syntax unified
 2923              	.LBE453:
 2924              	.LBE452:
 2925              	.LBE454:
 2926              	.LBE457:
 2927              	.LBE461:
 457:GrannyChordApp.cpp ****       break;
 2928              		.loc 2 457 7 is_stmt 1 view .LVU787
 457:GrannyChordApp.cpp ****       break;
 2929              		.loc 2 457 29 is_stmt 0 view .LVU788
 2930 005a FDEEE77A 		vcvt.s32.f32	s15, s15
 2931              	.LVL202:
ARM GAS  /var/folders/2p/02m_5p7958535cp2tpgps0400000gn/T//ccIfZOml.s 			page 87


 2932              		.loc 2 481 1 view .LVU789
 2933 005e BDE81040 		pop	{r4, lr}
 2934              		.cfi_restore 14
 2935              		.cfi_restore 4
 2936              		.cfi_def_cfa_offset 0
 2937              	.LVL203:
 457:GrannyChordApp.cpp ****       break;
 2938              		.loc 2 457 29 view .LVU790
 2939 0062 17EE901A 		vmov	r1, s15	@ int
 2940              	.LVL204:
 457:GrannyChordApp.cpp ****       break;
 2941              		.loc 2 457 29 view .LVU791
 2942 0066 FFF7FEBF 		b	_ZN13GranularSynth15SetEnvelopeTypeEN5Grain12EnvelopeTypeE
 2943              	.LVL205:
 2944              	.L168:
 2945              		.cfi_restore_state
 459:GrannyChordApp.cpp ****       synth_.SetPositionRnd(knob2_val);
 2946              		.loc 2 459 5 is_stmt 1 view .LVU792
 460:GrannyChordApp.cpp ****       break;
 2947              		.loc 2 460 7 view .LVU793
 2948              	.LBB462:
 2949              	.LBI462:
  30:GranularSynth.h ****     void SetPitchRnd(float rnd){ rnd_pitch_ = rnd; }
 2950              		.loc 13 30 10 view .LVU794
 2951              	.LBB463:
  30:GranularSynth.h ****     void SetPitchRnd(float rnd){ rnd_pitch_ = rnd; }
 2952              		.loc 13 30 37 view .LVU795
  30:GranularSynth.h ****     void SetPitchRnd(float rnd){ rnd_pitch_ = rnd; }
 2953              		.loc 13 30 52 is_stmt 0 view .LVU796
 2954 006a 00F28454 		addw	r4, r0, #1412
 2955 006e E0E7     		b	.L171
 2956              	.LVL206:
 2957              	.L166:
  30:GranularSynth.h ****     void SetPitchRnd(float rnd){ rnd_pitch_ = rnd; }
 2958              		.loc 13 30 52 view .LVU797
 2959              	.LBE463:
 2960              	.LBE462:
 462:GrannyChordApp.cpp ****       synth_.SetCountRnd(knob2_val);
 2961              		.loc 2 462 5 is_stmt 1 view .LVU798
 463:GrannyChordApp.cpp ****       break;
 2962              		.loc 2 463 7 view .LVU799
 2963              	.LBB464:
 2964              	.LBI464:
  32:GranularSynth.h ****     void SetPanRnd(float rnd){ rnd_pan_ = rnd; }
 2965              		.loc 13 32 10 view .LVU800
 2966              	.LBB465:
  32:GranularSynth.h ****     void SetPanRnd(float rnd){ rnd_pan_ = rnd; }
 2967              		.loc 13 32 34 view .LVU801
  32:GranularSynth.h ****     void SetPanRnd(float rnd){ rnd_pan_ = rnd; }
 2968              		.loc 13 32 45 is_stmt 0 view .LVU802
 2969 0070 00F5B164 		add	r4, r0, #1416
 2970 0074 DDE7     		b	.L171
 2971              	.LVL207:
 2972              	.L164:
  32:GranularSynth.h ****     void SetPanRnd(float rnd){ rnd_pan_ = rnd; }
 2973              		.loc 13 32 45 view .LVU803
 2974              	.LBE465:
ARM GAS  /var/folders/2p/02m_5p7958535cp2tpgps0400000gn/T//ccIfZOml.s 			page 88


 2975              	.LBE464:
 465:GrannyChordApp.cpp ****       synth_.SetEnvRnd(knob2_val);
 2976              		.loc 2 465 5 is_stmt 1 view .LVU804
 466:GrannyChordApp.cpp ****       break;
 2977              		.loc 2 466 7 view .LVU805
 2978              	.LBB466:
 2979              	.LBI444:
  34:GranularSynth.h ****     void SetPhasorRnd(float rnd){ rnd_phasor_ = rnd; }
 2980              		.loc 13 34 10 view .LVU806
 2981              	.LBB446:
  34:GranularSynth.h ****     void SetPhasorRnd(float rnd){ rnd_phasor_ = rnd; }
 2982              		.loc 13 34 32 view .LVU807
  34:GranularSynth.h ****     void SetPhasorRnd(float rnd){ rnd_phasor_ = rnd; }
 2983              		.loc 13 34 46 is_stmt 0 view .LVU808
 2984 0076 00F29454 		addw	r4, r0, #1428
 2985 007a DAE7     		b	.L171
 2986              	.LVL208:
 2987              	.L162:
  34:GranularSynth.h ****     void SetPhasorRnd(float rnd){ rnd_phasor_ = rnd; }
 2988              		.loc 13 34 46 view .LVU809
 2989              	.LBE446:
 2990              	.LBE466:
 468:GrannyChordApp.cpp ****       /* map knob value to frequency range with an exponential curve */
 2991              		.loc 2 468 5 is_stmt 1 view .LVU810
 470:GrannyChordApp.cpp ****       /* set reverb low pass frequency */
 2992              		.loc 2 470 7 view .LVU811
 2993              	.LBB467:
 2994              	.LBI467:
 177:../DaisySP/Source/Utility/dsp.h **** {
 2995              		.loc 12 177 1 view .LVU812
 2996              	.LBE467:
 179:../DaisySP/Source/Utility/dsp.h ****     {
 2997              		.loc 12 179 5 view .LVU813
 2998              	.LBB477:
 2999              	.LBB468:
 181:../DaisySP/Source/Utility/dsp.h ****             return fclamp(min + (in * in) * (max - min), min, max);
 3000              		.loc 12 181 9 view .LVU814
 182:../DaisySP/Source/Utility/dsp.h ****         case Mapping::LOG:
 3001              		.loc 12 182 13 view .LVU815
 182:../DaisySP/Source/Utility/dsp.h ****         case Mapping::LOG:
 3002              		.loc 12 182 26 is_stmt 0 view .LVU816
 3003 007c 9FED207A 		vldr.32	s14, .L172+4
 182:../DaisySP/Source/Utility/dsp.h ****         case Mapping::LOG:
 3004              		.loc 12 182 37 view .LVU817
 3005 0080 20EE008A 		vmul.f32	s16, s0, s0
 182:../DaisySP/Source/Utility/dsp.h ****         case Mapping::LOG:
 3006              		.loc 12 182 26 view .LVU818
 3007 0084 DFED1F6A 		vldr.32	s13, .L172+8
 3008              	.LBE468:
 3009              	.LBE477:
 3010              	.LBB478:
 3011              	.LBB479:
  52:../DaisySP/Source/../DaisySP-LGPL/Source/Effects/reverbsc.h ****     /** controls the internal dampening filter's cutoff frequency.
  53:../DaisySP/Source/../DaisySP-LGPL/Source/Effects/reverbsc.h ****         \param freq - low pass frequency. range: 0.0 to sample_rate / 2
  54:../DaisySP/Source/../DaisySP-LGPL/Source/Effects/reverbsc.h ****     */
  55:../DaisySP/Source/../DaisySP-LGPL/Source/Effects/reverbsc.h ****     inline void SetLpFreq(const float &freq) { lpfreq_ = freq; }
 3012              		.loc 14 55 56 view .LVU819
ARM GAS  /var/folders/2p/02m_5p7958535cp2tpgps0400000gn/T//ccIfZOml.s 			page 89


 3013 0088 00F5D764 		add	r4, r0, #1720
 3014              	.LBE479:
 3015              	.LBE478:
 3016              	.LBB481:
 3017              	.LBB475:
 182:../DaisySP/Source/Utility/dsp.h ****         case Mapping::LOG:
 3018              		.loc 12 182 26 view .LVU820
 3019 008c F0EE477A 		vmov.f32	s15, s14
 3020 0090 E8EE267A 		vfma.f32	s15, s16, s13
 3021              	.LVL209:
 3022              	.LBB469:
 3023              	.LBI469:
  64:../DaisySP/Source/Utility/dsp.h **** {
 3024              		.loc 12 64 14 is_stmt 1 view .LVU821
 3025              	.LBE469:
 3026              	.LBE475:
 3027              	.LBE481:
  66:../DaisySP/Source/Utility/dsp.h **** }
 3028              		.loc 12 66 5 view .LVU822
 3029              	.LBB482:
 3030              	.LBB476:
 3031              	.LBB474:
 3032              	.LBB470:
 3033              	.LBI470:
  40:../DaisySP/Source/Utility/dsp.h **** {
 3034              		.loc 12 40 14 view .LVU823
 3035              	.LBB471:
  42:../DaisySP/Source/Utility/dsp.h **** #ifdef __arm__
 3036              		.loc 12 42 5 view .LVU824
  44:../DaisySP/Source/Utility/dsp.h **** #else
 3037              		.loc 12 44 5 view .LVU825
 3038              		.syntax unified
 3039              	@ 44 "../DaisySP/Source/Utility/dsp.h" 1
 3040 0094 C7FE877A 		vmaxnm.f32 s15, s15, s14
 3041              	@ 0 "" 2
 3042              	.LVL210:
  48:../DaisySP/Source/Utility/dsp.h **** }
 3043              		.loc 12 48 5 view .LVU826
  48:../DaisySP/Source/Utility/dsp.h **** }
 3044              		.loc 12 48 5 is_stmt 0 view .LVU827
 3045              		.thumb
 3046              		.syntax unified
 3047              	.LBE471:
 3048              	.LBE470:
 3049              	.LBB472:
 3050              	.LBI472:
  51:../DaisySP/Source/Utility/dsp.h **** {
 3051              		.loc 12 51 14 is_stmt 1 view .LVU828
 3052              	.LBB473:
  53:../DaisySP/Source/Utility/dsp.h **** #ifdef __arm__
 3053              		.loc 12 53 5 view .LVU829
  55:../DaisySP/Source/Utility/dsp.h **** #else
 3054              		.loc 12 55 5 view .LVU830
 3055 0098 9FED1B7A 		vldr.32	s14, .L172+12
 3056              	.LVL211:
  55:../DaisySP/Source/Utility/dsp.h **** #else
 3057              		.loc 12 55 5 is_stmt 0 view .LVU831
ARM GAS  /var/folders/2p/02m_5p7958535cp2tpgps0400000gn/T//ccIfZOml.s 			page 90


 3058              		.syntax unified
 3059              	@ 55 "../DaisySP/Source/Utility/dsp.h" 1
 3060 009c C7FEC77A 		vminnm.f32 s15, s15, s14
 3061              	@ 0 "" 2
 3062              	.LVL212:
  59:../DaisySP/Source/Utility/dsp.h **** }
 3063              		.loc 12 59 5 is_stmt 1 view .LVU832
  59:../DaisySP/Source/Utility/dsp.h **** }
 3064              		.loc 12 59 5 is_stmt 0 view .LVU833
 3065              		.thumb
 3066              		.syntax unified
 3067              	.LBE473:
 3068              	.LBE472:
 3069              	.LBE474:
 3070              	.LBE476:
 3071              	.LBE482:
 472:GrannyChordApp.cpp ****       break;
 3072              		.loc 2 472 7 is_stmt 1 view .LVU834
 3073              	.LBB483:
 3074              	.LBI478:
 3075              		.loc 14 55 17 view .LVU835
 3076              	.LBB480:
 3077              		.loc 14 55 48 view .LVU836
 3078              		.loc 14 55 56 is_stmt 0 view .LVU837
 3079 00a0 C4ED017A 		vstr.32	s15, [r4, #4]
 3080              		.loc 14 55 64 view .LVU838
 3081 00a4 C7E7     		b	.L158
 3082              	.LVL213:
 3083              	.L160:
 3084              		.loc 14 55 64 view .LVU839
 3085              	.LBE480:
 3086              	.LBE483:
 474:GrannyChordApp.cpp ****       /* again, map knob value to frequency range with an exponential curve */
 3087              		.loc 2 474 5 is_stmt 1 view .LVU840
 476:GrannyChordApp.cpp ****       /* set cutoff frequency for high pass filter */
 3088              		.loc 2 476 7 view .LVU841
 3089              	.LBB484:
 3090              	.LBI484:
 177:../DaisySP/Source/Utility/dsp.h **** {
 3091              		.loc 12 177 1 view .LVU842
 3092              	.LBE484:
 179:../DaisySP/Source/Utility/dsp.h ****     {
 3093              		.loc 12 179 5 view .LVU843
 3094              	.LBB498:
 3095              	.LBB485:
 181:../DaisySP/Source/Utility/dsp.h ****             return fclamp(min + (in * in) * (max - min), min, max);
 3096              		.loc 12 181 9 view .LVU844
 182:../DaisySP/Source/Utility/dsp.h ****         case Mapping::LOG:
 3097              		.loc 12 182 13 view .LVU845
 182:../DaisySP/Source/Utility/dsp.h ****         case Mapping::LOG:
 3098              		.loc 12 182 37 is_stmt 0 view .LVU846
 3099 00a6 20EE008A 		vmul.f32	s16, s0, s0
 182:../DaisySP/Source/Utility/dsp.h ****         case Mapping::LOG:
 3100              		.loc 12 182 26 view .LVU847
 3101 00aa 9FED180A 		vldr.32	s0, .L172+16
 3102              	.LVL214:
 182:../DaisySP/Source/Utility/dsp.h ****         case Mapping::LOG:
ARM GAS  /var/folders/2p/02m_5p7958535cp2tpgps0400000gn/T//ccIfZOml.s 			page 91


 3103              		.loc 12 182 26 view .LVU848
 3104 00ae 9FED187A 		vldr.32	s14, .L172+20
 3105              	.LBE485:
 3106              	.LBE498:
 3107              	.LBB499:
 3108              	.LBB500:
  61:../DaisySP/Source/Filters/onepole.h ****         gi_ = 1.f / (1.f + g_);
 3109              		.loc 8 61 13 view .LVU849
 3110 00b2 04F5C224 		add	r4, r4, #397312
 3111              	.LBE500:
 3112              	.LBE499:
 3113              	.LBB502:
 3114              	.LBB496:
 182:../DaisySP/Source/Utility/dsp.h ****         case Mapping::LOG:
 3115              		.loc 12 182 26 view .LVU850
 3116 00b6 F0EE407A 		vmov.f32	s15, s0
 3117 00ba E8EE077A 		vfma.f32	s15, s16, s14
 3118              	.LVL215:
 3119              	.LBB486:
 3120              	.LBI486:
  64:../DaisySP/Source/Utility/dsp.h **** {
 3121              		.loc 12 64 14 is_stmt 1 view .LVU851
 3122              	.LBE486:
 3123              	.LBE496:
 3124              	.LBE502:
  66:../DaisySP/Source/Utility/dsp.h **** }
 3125              		.loc 12 66 5 view .LVU852
 3126              	.LBB503:
 3127              	.LBB497:
 3128              	.LBB495:
 3129              	.LBB487:
 3130              	.LBI487:
  40:../DaisySP/Source/Utility/dsp.h **** {
 3131              		.loc 12 40 14 view .LVU853
 3132              	.LBB488:
  42:../DaisySP/Source/Utility/dsp.h **** #ifdef __arm__
 3133              		.loc 12 42 5 view .LVU854
  44:../DaisySP/Source/Utility/dsp.h **** #else
 3134              		.loc 12 44 5 view .LVU855
 3135              	.LBE488:
 3136              	.LBE487:
 3137              	.LBB490:
 3138              	.LBB491:
  55:../DaisySP/Source/Utility/dsp.h **** #else
 3139              		.loc 12 55 5 is_stmt 0 view .LVU856
 3140 00be 9FED157A 		vldr.32	s14, .L172+24
 3141              	.LBE491:
 3142              	.LBE490:
 3143              	.LBB493:
 3144              	.LBB489:
  44:../DaisySP/Source/Utility/dsp.h **** #else
 3145              		.loc 12 44 5 view .LVU857
 3146              		.syntax unified
 3147              	@ 44 "../DaisySP/Source/Utility/dsp.h" 1
 3148 00c2 C7FE807A 		vmaxnm.f32 s15, s15, s0
 3149              	@ 0 "" 2
 3150              	.LVL216:
ARM GAS  /var/folders/2p/02m_5p7958535cp2tpgps0400000gn/T//ccIfZOml.s 			page 92


  48:../DaisySP/Source/Utility/dsp.h **** }
 3151              		.loc 12 48 5 is_stmt 1 view .LVU858
  48:../DaisySP/Source/Utility/dsp.h **** }
 3152              		.loc 12 48 5 is_stmt 0 view .LVU859
 3153              		.thumb
 3154              		.syntax unified
 3155              	.LBE489:
 3156              	.LBE493:
 3157              	.LBB494:
 3158              	.LBI490:
  51:../DaisySP/Source/Utility/dsp.h **** {
 3159              		.loc 12 51 14 is_stmt 1 view .LVU860
 3160              	.LBB492:
  53:../DaisySP/Source/Utility/dsp.h **** #ifdef __arm__
 3161              		.loc 12 53 5 view .LVU861
  55:../DaisySP/Source/Utility/dsp.h **** #else
 3162              		.loc 12 55 5 view .LVU862
 3163              		.syntax unified
 3164              	@ 55 "../DaisySP/Source/Utility/dsp.h" 1
 3165 00c6 C7FEC77A 		vminnm.f32 s15, s15, s14
 3166              	@ 0 "" 2
 3167              	.LVL217:
  59:../DaisySP/Source/Utility/dsp.h **** }
 3168              		.loc 12 59 5 view .LVU863
  59:../DaisySP/Source/Utility/dsp.h **** }
 3169              		.loc 12 59 5 is_stmt 0 view .LVU864
 3170              		.thumb
 3171              		.syntax unified
 3172              	.LBE492:
 3173              	.LBE494:
 3174              	.LBE495:
 3175              	.LBE497:
 3176              	.LBE503:
 478:GrannyChordApp.cpp ****       break;
 3177              		.loc 2 478 7 is_stmt 1 view .LVU865
 3178              	.LBB504:
 3179              	.LBI499:
  56:../DaisySP/Source/Filters/onepole.h ****     {
 3180              		.loc 8 56 17 view .LVU866
 3181              	.LBB501:
  59:../DaisySP/Source/Filters/onepole.h **** 
 3182              		.loc 8 59 9 view .LVU867
  59:../DaisySP/Source/Filters/onepole.h **** 
 3183              		.loc 8 59 30 is_stmt 0 view .LVU868
 3184 00ca F4EEC77A 		vcmpe.f32	s15, s14
  61:../DaisySP/Source/Filters/onepole.h ****         gi_ = 1.f / (1.f + g_);
 3185              		.loc 8 61 19 view .LVU869
 3186 00ce 9FED120A 		vldr.32	s0, .L172+28
  59:../DaisySP/Source/Filters/onepole.h **** 
 3187              		.loc 8 59 30 view .LVU870
 3188 00d2 F1EE10FA 		vmrs	APSR_nzcv, FPSCR
 3189 00d6 58BF     		it	pl
 3190 00d8 F0EE477A 		vmovpl.f32	s15, s14
 3191              	.LVL218:
  61:../DaisySP/Source/Filters/onepole.h ****         gi_ = 1.f / (1.f + g_);
 3192              		.loc 8 61 9 is_stmt 1 view .LVU871
  61:../DaisySP/Source/Filters/onepole.h ****         gi_ = 1.f / (1.f + g_);
ARM GAS  /var/folders/2p/02m_5p7958535cp2tpgps0400000gn/T//ccIfZOml.s 			page 93


 3193              		.loc 8 61 19 is_stmt 0 view .LVU872
 3194 00dc 27EE800A 		vmul.f32	s0, s15, s0
 3195 00e0 FFF7FEFF 		bl	tanf
 3196              	.LVL219:
  62:../DaisySP/Source/Filters/onepole.h ****     }
 3197              		.loc 8 62 26 view .LVU873
 3198 00e4 F7EE007A 		vmov.f32	s15, #1.0e+0
  61:../DaisySP/Source/Filters/onepole.h ****         gi_ = 1.f / (1.f + g_);
 3199              		.loc 8 61 13 view .LVU874
 3200 00e8 84ED900A 		vstr.32	s0, [r4, #576]
  62:../DaisySP/Source/Filters/onepole.h ****     }
 3201              		.loc 8 62 9 is_stmt 1 view .LVU875
  62:../DaisySP/Source/Filters/onepole.h ****     }
 3202              		.loc 8 62 26 is_stmt 0 view .LVU876
 3203 00ec 30EE270A 		vadd.f32	s0, s0, s15
  62:../DaisySP/Source/Filters/onepole.h ****     }
 3204              		.loc 8 62 19 view .LVU877
 3205 00f0 87EE807A 		vdiv.f32	s14, s15, s0
  62:../DaisySP/Source/Filters/onepole.h ****     }
 3206              		.loc 8 62 13 view .LVU878
 3207 00f4 84ED917A 		vstr.32	s14, [r4, #580]
  62:../DaisySP/Source/Filters/onepole.h ****     }
 3208              		.loc 8 62 13 view .LVU879
 3209              	.LBE501:
 3210              	.LBE504:
 3211              		.loc 2 481 1 view .LVU880
 3212 00f8 9DE7     		b	.L158
 3213              	.L173:
 3214 00fa 00BF     		.align	2
 3215              	.L172:
 3216 00fc 00000000 		.word	0
 3217 0100 0000C842 		.word	1120403456
 3218 0104 00789B46 		.word	1184593920
 3219 0108 00409C46 		.word	1184645120
 3220 010c 6F12833A 		.word	981668463
 3221 0110 B7F3FD3E 		.word	1056830391
 3222 0114 C976FE3E 		.word	1056863945
 3223 0118 DB0F4940 		.word	1078530011
 3224              		.cfi_endproc
 3225              	.LFE4953:
 3227              		.section	.text._ZN14GrannyChordApp17UpdateSynthParamsEv,"ax",%progbits
 3228              		.align	1
 3229              		.global	_ZN14GrannyChordApp17UpdateSynthParamsEv
 3230              		.syntax unified
 3231              		.thumb
 3232              		.thumb_func
 3234              	_ZN14GrannyChordApp17UpdateSynthParamsEv:
 3235              	.LVL220:
 3236              	.LFB4933:
 156:GrannyChordApp.cpp ****   if (curr_state_!=AppState::Synthesis) return;
 3237              		.loc 2 156 41 is_stmt 1 view -0
 3238              		.cfi_startproc
 3239              		@ args = 0, pretend = 0, frame = 0
 3240              		@ frame_needed = 0, uses_anonymous_args = 0
 157:GrannyChordApp.cpp ****   int mode_idx = static_cast<int>(curr_synth_mode_);
 3241              		.loc 2 157 3 view .LVU882
 156:GrannyChordApp.cpp ****   if (curr_state_!=AppState::Synthesis) return;
ARM GAS  /var/folders/2p/02m_5p7958535cp2tpgps0400000gn/T//ccIfZOml.s 			page 94


 3242              		.loc 2 156 41 is_stmt 0 view .LVU883
 3243 0000 38B5     		push	{r3, r4, r5, lr}
 3244              		.cfi_def_cfa_offset 16
 3245              		.cfi_offset 3, -16
 3246              		.cfi_offset 4, -12
 3247              		.cfi_offset 5, -8
 3248              		.cfi_offset 14, -4
 157:GrannyChordApp.cpp ****   int mode_idx = static_cast<int>(curr_synth_mode_);
 3249              		.loc 2 157 3 view .LVU884
 3250 0002 D0F86436 		ldr	r3, [r0, #1636]
 156:GrannyChordApp.cpp ****   if (curr_state_!=AppState::Synthesis) return;
 3251              		.loc 2 156 41 view .LVU885
 3252 0006 0446     		mov	r4, r0
 157:GrannyChordApp.cpp ****   int mode_idx = static_cast<int>(curr_synth_mode_);
 3253              		.loc 2 157 3 view .LVU886
 3254 0008 022B     		cmp	r3, #2
 156:GrannyChordApp.cpp ****   if (curr_state_!=AppState::Synthesis) return;
 3255              		.loc 2 156 41 view .LVU887
 3256 000a 2DED048B 		vpush.64	{d8, d9}
 3257              		.cfi_def_cfa_offset 32
 3258              		.cfi_offset 80, -32
 3259              		.cfi_offset 81, -28
 3260              		.cfi_offset 82, -24
 3261              		.cfi_offset 83, -20
 157:GrannyChordApp.cpp ****   int mode_idx = static_cast<int>(curr_synth_mode_);
 3262              		.loc 2 157 3 view .LVU888
 3263 000e 55D1     		bne	.L174
 3264              	.LVL221:
 3265              	.LBB515:
 3266              	.LBI515:
 156:GrannyChordApp.cpp ****   if (curr_state_!=AppState::Synthesis) return;
 3267              		.loc 2 156 6 is_stmt 1 view .LVU889
 3268              	.LBB516:
 158:GrannyChordApp.cpp ****   float knob1_val = MapKnobDeadzone(pod_.knob1.Process());
 3269              		.loc 2 158 3 view .LVU890
 158:GrannyChordApp.cpp ****   float knob1_val = MapKnobDeadzone(pod_.knob1.Process());
 3270              		.loc 2 158 7 is_stmt 0 view .LVU891
 3271 0010 D0F86C56 		ldr	r5, [r0, #1644]
 3272              	.LVL222:
 159:GrannyChordApp.cpp ****   float knob2_val = MapKnobDeadzone(pod_.knob2.Process());
 3273              		.loc 2 159 3 is_stmt 1 view .LVU892
 159:GrannyChordApp.cpp ****   float knob2_val = MapKnobDeadzone(pod_.knob2.Process());
 3274              		.loc 2 159 36 is_stmt 0 view .LVU893
 3275 0014 0068     		ldr	r0, [r0]
 3276              	.LVL223:
 3277              	.LBB517:
 3278              	.LBB518:
 482:GrannyChordApp.cpp **** 
 483:GrannyChordApp.cpp **** /* check parameter value change is over a certain level to avoid reading knob jitter */
 484:GrannyChordApp.cpp **** inline constexpr bool GrannyChordApp::CheckParamDelta(float curr_val, float prev_val){
 485:GrannyChordApp.cpp ****   return (fabsf(curr_val - prev_val)>0.01f);
 486:GrannyChordApp.cpp **** }
 487:GrannyChordApp.cpp **** 
 488:GrannyChordApp.cpp **** 
 489:GrannyChordApp.cpp **** /* knobs on the Pod have deadzones around 0 and 1 so we adjust for this */
 490:GrannyChordApp.cpp **** inline constexpr float GrannyChordApp::MapKnobDeadzone(float knob_val ){
 491:GrannyChordApp.cpp ****   if (knob_val<=0.01f) return 0.0f;
ARM GAS  /var/folders/2p/02m_5p7958535cp2tpgps0400000gn/T//ccIfZOml.s 			page 95


 3279              		.loc 2 491 3 view .LVU894
 3280 0016 9FED2E9A 		vldr.32	s18, .L191
 3281              	.LBE518:
 3282              	.LBE517:
 159:GrannyChordApp.cpp ****   float knob2_val = MapKnobDeadzone(pod_.knob2.Process());
 3283              		.loc 2 159 36 view .LVU895
 3284 001a 6830     		adds	r0, r0, #104
 3285 001c FFF7FEFF 		bl	_ZN5daisy13AnalogControl7ProcessEv
 3286              	.LVL224:
 3287              	.LBB521:
 3288              	.LBI517:
 490:GrannyChordApp.cpp ****   if (knob_val<=0.01f) return 0.0f;
 3289              		.loc 2 490 24 is_stmt 1 view .LVU896
 3290              	.LBB519:
 3291              		.loc 2 491 3 view .LVU897
 3292 0020 B4EEC90A 		vcmpe.f32	s0, s18
 3293 0024 F1EE10FA 		vmrs	APSR_nzcv, FPSCR
 3294 0028 4BD9     		bls	.L185
 492:GrannyChordApp.cpp ****   if (knob_val>=0.99f) return 1.0f;
 3295              		.loc 2 492 3 view .LVU898
 3296              		.loc 2 492 31 is_stmt 0 view .LVU899
 3297 002a DFED2A7A 		vldr.32	s15, .L191+4
 3298 002e B4EE670A 		vcmp.f32	s0, s15
 3299 0032 F7EE007A 		vmov.f32	s15, #1.0e+0
 3300 0036 F1EE10FA 		vmrs	APSR_nzcv, FPSCR
 3301 003a 67FE808A 		vselge.f32	s17, s15, s0
 3302              	.L177:
 3303              	.LVL225:
 3304              		.loc 2 492 31 view .LVU900
 3305              	.LBE519:
 3306              	.LBE521:
 160:GrannyChordApp.cpp **** 
 3307              		.loc 2 160 3 is_stmt 1 view .LVU901
 160:GrannyChordApp.cpp **** 
 3308              		.loc 2 160 36 is_stmt 0 view .LVU902
 3309 003e 2068     		ldr	r0, [r4]
 3310 0040 8830     		adds	r0, r0, #136
 3311 0042 FFF7FEFF 		bl	_ZN5daisy13AnalogControl7ProcessEv
 3312              	.LVL226:
 3313              	.LBB522:
 3314              	.LBI522:
 490:GrannyChordApp.cpp ****   if (knob_val<=0.01f) return 0.0f;
 3315              		.loc 2 490 24 is_stmt 1 view .LVU903
 3316              	.LBB523:
 491:GrannyChordApp.cpp ****   if (knob_val>=0.99f) return 1.0f;
 3317              		.loc 2 491 3 view .LVU904
 3318 0046 B4EEC90A 		vcmpe.f32	s0, s18
 3319 004a F1EE10FA 		vmrs	APSR_nzcv, FPSCR
 3320 004e 3BD9     		bls	.L186
 3321              		.loc 2 492 3 view .LVU905
 3322              		.loc 2 492 31 is_stmt 0 view .LVU906
 3323 0050 DFED207A 		vldr.32	s15, .L191+4
 3324 0054 B4EE670A 		vcmp.f32	s0, s15
 3325 0058 F7EE007A 		vmov.f32	s15, #1.0e+0
 3326 005c F1EE10FA 		vmrs	APSR_nzcv, FPSCR
 3327 0060 27FE808A 		vselge.f32	s16, s15, s0
 3328              	.L179:
ARM GAS  /var/folders/2p/02m_5p7958535cp2tpgps0400000gn/T//ccIfZOml.s 			page 96


 3329              	.LVL227:
 3330              		.loc 2 492 31 view .LVU907
 3331              	.LBE523:
 3332              	.LBE522:
 162:GrannyChordApp.cpp ****     UpdateKnob1Params(knob1_val,curr_synth_mode_);
 3333              		.loc 2 162 3 is_stmt 1 view .LVU908
 3334 0064 04EB8505 		add	r5, r4, r5, lsl #2
 3335              	.LVL228:
 3336              	.LBB525:
 3337              	.LBI525:
 484:GrannyChordApp.cpp ****   return (fabsf(curr_val - prev_val)>0.01f);
 3338              		.loc 2 484 23 view .LVU909
 3339              	.LBB526:
 485:GrannyChordApp.cpp **** }
 3340              		.loc 2 485 3 view .LVU910
 485:GrannyChordApp.cpp **** }
 3341              		.loc 2 485 3 is_stmt 0 view .LVU911
 3342              	.LBE526:
 3343              	.LBE525:
 162:GrannyChordApp.cpp ****     UpdateKnob1Params(knob1_val,curr_synth_mode_);
 3344              		.loc 2 162 22 view .LVU912
 3345 0068 05F5C225 		add	r5, r5, #397312
 3346              	.LBB528:
 3347              	.LBB527:
 485:GrannyChordApp.cpp **** }
 3348              		.loc 2 485 26 view .LVU913
 3349 006c D5EDA97A 		vldr.32	s15, [r5, #676]
 3350 0070 78EEE77A 		vsub.f32	s15, s17, s15
 485:GrannyChordApp.cpp **** }
 3351              		.loc 2 485 16 view .LVU914
 3352 0074 F0EEE77A 		vabs.f32	s15, s15
 3353              	.LBE527:
 3354              	.LBE528:
 162:GrannyChordApp.cpp ****     UpdateKnob1Params(knob1_val,curr_synth_mode_);
 3355              		.loc 2 162 3 view .LVU915
 3356 0078 F4EEC97A 		vcmpe.f32	s15, s18
 3357 007c F1EE10FA 		vmrs	APSR_nzcv, FPSCR
 3358 0080 08DD     		ble	.L181
 163:GrannyChordApp.cpp ****     prev_param_vals_k1[mode_idx] = knob1_val;
 3359              		.loc 2 163 5 is_stmt 1 view .LVU916
 163:GrannyChordApp.cpp ****     prev_param_vals_k1[mode_idx] = knob1_val;
 3360              		.loc 2 163 22 is_stmt 0 view .LVU917
 3361 0082 B0EE680A 		vmov.f32	s0, s17
 3362 0086 D4F86C16 		ldr	r1, [r4, #1644]
 3363 008a 2046     		mov	r0, r4
 3364 008c FFF7FEFF 		bl	_ZN14GrannyChordApp17UpdateKnob1ParamsEf9SynthMode
 3365              	.LVL229:
 164:GrannyChordApp.cpp ****   }
 3366              		.loc 2 164 5 is_stmt 1 view .LVU918
 164:GrannyChordApp.cpp ****   }
 3367              		.loc 2 164 34 is_stmt 0 view .LVU919
 3368 0090 C5EDA98A 		vstr.32	s17, [r5, #676]
 3369              	.L181:
 166:GrannyChordApp.cpp ****     UpdateKnob2Params(knob2_val, curr_synth_mode_);
 3370              		.loc 2 166 3 is_stmt 1 view .LVU920
 3371              	.LVL230:
 3372              	.LBB529:
ARM GAS  /var/folders/2p/02m_5p7958535cp2tpgps0400000gn/T//ccIfZOml.s 			page 97


 3373              	.LBI529:
 484:GrannyChordApp.cpp ****   return (fabsf(curr_val - prev_val)>0.01f);
 3374              		.loc 2 484 23 view .LVU921
 3375              	.LBB530:
 485:GrannyChordApp.cpp **** }
 3376              		.loc 2 485 3 view .LVU922
 485:GrannyChordApp.cpp **** }
 3377              		.loc 2 485 26 is_stmt 0 view .LVU923
 3378 0094 D5EDB07A 		vldr.32	s15, [r5, #704]
 3379 0098 78EE677A 		vsub.f32	s15, s16, s15
 485:GrannyChordApp.cpp **** }
 3380              		.loc 2 485 16 view .LVU924
 3381 009c F0EEE77A 		vabs.f32	s15, s15
 3382              	.LBE530:
 3383              	.LBE529:
 166:GrannyChordApp.cpp ****     UpdateKnob2Params(knob2_val, curr_synth_mode_);
 3384              		.loc 2 166 3 view .LVU925
 3385 00a0 F4EEC97A 		vcmpe.f32	s15, s18
 3386 00a4 F1EE10FA 		vmrs	APSR_nzcv, FPSCR
 3387 00a8 08DD     		ble	.L174
 167:GrannyChordApp.cpp ****     prev_param_vals_k2[mode_idx] = knob2_val;
 3388              		.loc 2 167 5 is_stmt 1 view .LVU926
 167:GrannyChordApp.cpp ****     prev_param_vals_k2[mode_idx] = knob2_val;
 3389              		.loc 2 167 22 is_stmt 0 view .LVU927
 3390 00aa B0EE480A 		vmov.f32	s0, s16
 3391 00ae D4F86C16 		ldr	r1, [r4, #1644]
 3392 00b2 2046     		mov	r0, r4
 3393 00b4 FFF7FEFF 		bl	_ZN14GrannyChordApp17UpdateKnob2ParamsEf9SynthMode
 3394              	.LVL231:
 168:GrannyChordApp.cpp ****   }
 3395              		.loc 2 168 5 is_stmt 1 view .LVU928
 168:GrannyChordApp.cpp ****   }
 3396              		.loc 2 168 34 is_stmt 0 view .LVU929
 3397 00b8 85EDB08A 		vstr.32	s16, [r5, #704]
 3398              	.LVL232:
 3399              	.L174:
 168:GrannyChordApp.cpp ****   }
 3400              		.loc 2 168 34 view .LVU930
 3401              	.LBE516:
 3402              	.LBE515:
 170:GrannyChordApp.cpp **** 
 3403              		.loc 2 170 1 view .LVU931
 3404 00bc BDEC048B 		vldm	sp!, {d8-d9}
 3405              		.cfi_remember_state
 3406              		.cfi_restore 82
 3407              		.cfi_restore 83
 3408              		.cfi_restore 80
 3409              		.cfi_restore 81
 3410              		.cfi_def_cfa_offset 16
 3411 00c0 38BD     		pop	{r3, r4, r5, pc}
 3412              	.LVL233:
 3413              	.L185:
 3414              		.cfi_restore_state
 3415              	.LBB534:
 3416              	.LBB533:
 3417              	.LBB531:
 3418              	.LBB520:
ARM GAS  /var/folders/2p/02m_5p7958535cp2tpgps0400000gn/T//ccIfZOml.s 			page 98


 491:GrannyChordApp.cpp ****   if (knob_val>=0.99f) return 1.0f;
 3419              		.loc 2 491 31 view .LVU932
 3420 00c2 DFED058A 		vldr.32	s17, .L191+8
 3421 00c6 BAE7     		b	.L177
 3422              	.LVL234:
 3423              	.L186:
 491:GrannyChordApp.cpp ****   if (knob_val>=0.99f) return 1.0f;
 3424              		.loc 2 491 31 view .LVU933
 3425              	.LBE520:
 3426              	.LBE531:
 3427              	.LBB532:
 3428              	.LBB524:
 3429 00c8 9FED038A 		vldr.32	s16, .L191+8
 3430 00cc CAE7     		b	.L179
 3431              	.L192:
 3432 00ce 00BF     		.align	2
 3433              	.L191:
 3434 00d0 0AD7233C 		.word	1008981770
 3435 00d4 A4707D3F 		.word	1065185444
 3436 00d8 00000000 		.word	0
 3437              	.LBE524:
 3438              	.LBE532:
 3439              	.LBE533:
 3440              	.LBE534:
 3441              		.cfi_endproc
 3442              	.LFE4933:
 3444              		.section	.text._ZN14GrannyChordApp3RunEv,"ax",%progbits
 3445              		.align	1
 3446              		.global	_ZN14GrannyChordApp3RunEv
 3447              		.syntax unified
 3448              		.thumb
 3449              		.thumb_func
 3451              	_ZN14GrannyChordApp3RunEv:
 3452              	.LVL235:
 3453              	.LFB4922:
  30:GrannyChordApp.cpp ****   while(true){
 3454              		.loc 2 30 27 is_stmt 1 view -0
 3455              		.cfi_startproc
 3456              		@ Volatile: function does not return.
 3457              		@ args = 0, pretend = 0, frame = 0
 3458              		@ frame_needed = 0, uses_anonymous_args = 0
  30:GrannyChordApp.cpp ****   while(true){
 3459              		.loc 2 30 27 is_stmt 0 view .LVU935
 3460 0000 0446     		mov	r4, r0
 3461 0002 08B5     		push	{r3, lr}
 3462              		.cfi_def_cfa_offset 8
 3463              		.cfi_offset 3, -8
 3464              		.cfi_offset 14, -4
 3465              	.LVL236:
 3466              	.L194:
  31:GrannyChordApp.cpp ****     UpdateUI();
 3467              		.loc 2 31 3 is_stmt 1 discriminator 1 view .LVU936
  32:GrannyChordApp.cpp ****     UpdateSynthParams();
 3468              		.loc 2 32 5 discriminator 1 view .LVU937
  32:GrannyChordApp.cpp ****     UpdateSynthParams();
 3469              		.loc 2 32 13 is_stmt 0 discriminator 1 view .LVU938
 3470 0004 2046     		mov	r0, r4
ARM GAS  /var/folders/2p/02m_5p7958535cp2tpgps0400000gn/T//ccIfZOml.s 			page 99


 3471 0006 FFF7FEFF 		bl	_ZN14GrannyChordApp8UpdateUIEv
 3472              	.LVL237:
  33:GrannyChordApp.cpp ****     System::Delay(1);
 3473              		.loc 2 33 5 is_stmt 1 discriminator 1 view .LVU939
  33:GrannyChordApp.cpp ****     System::Delay(1);
 3474              		.loc 2 33 22 is_stmt 0 discriminator 1 view .LVU940
 3475 000a 2046     		mov	r0, r4
 3476 000c FFF7FEFF 		bl	_ZN14GrannyChordApp17UpdateSynthParamsEv
 3477              	.LVL238:
  34:GrannyChordApp.cpp ****   }
 3478              		.loc 2 34 5 is_stmt 1 discriminator 1 view .LVU941
  34:GrannyChordApp.cpp ****   }
 3479              		.loc 2 34 18 is_stmt 0 discriminator 1 view .LVU942
 3480 0010 0120     		movs	r0, #1
 3481 0012 FFF7FEFF 		bl	_ZN5daisy6System5DelayEm
 3482              	.LVL239:
  31:GrannyChordApp.cpp ****     UpdateUI();
 3483              		.loc 2 31 3 is_stmt 1 discriminator 1 view .LVU943
 3484 0016 F5E7     		b	.L194
 3485              		.cfi_endproc
 3486              	.LFE4922:
 3488              		.global	_ZN14GrannyChordApp9instance_E
 3489              		.section	.bss._ZN14GrannyChordApp9instance_E,"aw",%nobits
 3490              		.align	2
 3491              		.set	.LANCHOR1,. + 0
 3494              	_ZN14GrannyChordApp9instance_E:
 3495 0000 00000000 		.space	4
 3496              		.section	.bss._ZZN14GrannyChordApp15ProcessRecordInEPKPKfPPfjE10record_pos,"aw",%nobits
 3497              		.align	2
 3498              		.set	.LANCHOR0,. + 0
 3501              	_ZZN14GrannyChordApp15ProcessRecordInEPKPKfPPfjE10record_pos:
 3502 0000 00000000 		.space	4
 3503              		.text
 3504              	.Letext0:
 3505              		.file 15 "/Library/DaisyToolchain/0.2.0/arm/arm-none-eabi/include/machine/_default_types.h"
 3506              		.file 16 "/Library/DaisyToolchain/0.2.0/arm/arm-none-eabi/include/sys/_stdint.h"
 3507              		.file 17 "/Library/DaisyToolchain/0.2.0/arm/arm-none-eabi/include/stdint.h"
 3508              		.file 18 "/Library/DaisyToolchain/0.2.0/arm/lib/gcc/arm-none-eabi/10.3.1/include/stddef.h"
 3509              		.file 19 "/Library/DaisyToolchain/0.2.0/arm/arm-none-eabi/include/c++/10.3.1/bits/cpp_type_traits.
 3510              		.file 20 "/Library/DaisyToolchain/0.2.0/arm/arm-none-eabi/include/c++/10.3.1/cmath"
 3511              		.file 21 "/Library/DaisyToolchain/0.2.0/arm/arm-none-eabi/include/c++/10.3.1/bits/std_abs.h"
 3512              		.file 22 "/Library/DaisyToolchain/0.2.0/arm/arm-none-eabi/include/c++/10.3.1/cstdlib"
 3513              		.file 23 "/Library/DaisyToolchain/0.2.0/arm/arm-none-eabi/include/c++/10.3.1/cstdint"
 3514              		.file 24 "/Library/DaisyToolchain/0.2.0/arm/arm-none-eabi/include/c++/10.3.1/arm-none-eabi/thumb/v
 3515              		.file 25 "/Library/DaisyToolchain/0.2.0/arm/arm-none-eabi/include/c++/10.3.1/type_traits"
 3516              		.file 26 "/Library/DaisyToolchain/0.2.0/arm/arm-none-eabi/include/c++/10.3.1/bits/stl_pair.h"
 3517              		.file 27 "/Library/DaisyToolchain/0.2.0/arm/arm-none-eabi/include/c++/10.3.1/debug/debug.h"
 3518              		.file 28 "/Library/DaisyToolchain/0.2.0/arm/arm-none-eabi/include/c++/10.3.1/bits/algorithmfwd.h"
 3519              		.file 29 "/Library/DaisyToolchain/0.2.0/arm/arm-none-eabi/include/c++/10.3.1/bits/exception_ptr.h"
 3520              		.file 30 "/Library/DaisyToolchain/0.2.0/arm/arm-none-eabi/include/c++/10.3.1/initializer_list"
 3521              		.file 31 "/Library/DaisyToolchain/0.2.0/arm/arm-none-eabi/include/c++/10.3.1/cstdarg"
 3522              		.file 32 "/Library/DaisyToolchain/0.2.0/arm/arm-none-eabi/include/c++/10.3.1/cstdio"
 3523              		.file 33 "/Library/DaisyToolchain/0.2.0/arm/arm-none-eabi/include/c++/10.3.1/cstring"
 3524              		.file 34 "/Library/DaisyToolchain/0.2.0/arm/arm-none-eabi/include/c++/10.3.1/cwchar"
 3525              		.file 35 "/Library/DaisyToolchain/0.2.0/arm/arm-none-eabi/include/c++/10.3.1/clocale"
 3526              		.file 36 "/Library/DaisyToolchain/0.2.0/arm/arm-none-eabi/include/c++/10.3.1/bits/basic_string.h"
 3527              		.file 37 "/Library/DaisyToolchain/0.2.0/arm/arm-none-eabi/include/c++/10.3.1/bits/stl_iterator.h"
ARM GAS  /var/folders/2p/02m_5p7958535cp2tpgps0400000gn/T//ccIfZOml.s 			page 100


 3528              		.file 38 "/Library/DaisyToolchain/0.2.0/arm/arm-none-eabi/include/c++/10.3.1/bits/predefined_ops.h
 3529              		.file 39 "/Library/DaisyToolchain/0.2.0/arm/arm-none-eabi/include/sys/_types.h"
 3530              		.file 40 "/Library/DaisyToolchain/0.2.0/arm/arm-none-eabi/include/sys/reent.h"
 3531              		.file 41 "/Library/DaisyToolchain/0.2.0/arm/arm-none-eabi/include/sys/lock.h"
 3532              		.file 42 "/Library/DaisyToolchain/0.2.0/arm/arm-none-eabi/include/math.h"
 3533              		.file 43 "/Library/DaisyToolchain/0.2.0/arm/arm-none-eabi/include/stdlib.h"
 3534              		.file 44 "/Library/DaisyToolchain/0.2.0/arm/arm-none-eabi/include/c++/10.3.1/math.h"
 3535              		.file 45 "/Library/DaisyToolchain/0.2.0/arm/arm-none-eabi/include/c++/10.3.1/stdlib.h"
 3536              		.file 46 "../libDaisy/src/per/tim.h"
 3537              		.file 47 "../libDaisy/src/sys/system.h"
 3538              		.file 48 "../libDaisy/src/per/qspi.h"
 3539              		.file 49 "../libDaisy/src/per/dac.h"
 3540              		.file 50 "../libDaisy/src/per/sai.h"
 3541              		.file 51 "../libDaisy/src/hid/audio.h"
 3542              		.file 52 "../libDaisy/src/per/adc.h"
 3543              		.file 53 "../libDaisy/src/per/uart.h"
 3544              		.file 54 "../libDaisy/src/hid/MidiEvent.h"
 3545              		.file 55 "../libDaisy/src/hid/midi_parser.h"
 3546              		.file 56 "../libDaisy/src/hid/usb.h"
 3547              		.file 57 "../libDaisy/src/hid/midi.h"
 3548              		.file 58 "../libDaisy/src/util/FIFO.h"
 3549              		.file 59 "../libDaisy/src/hid/ctrl.h"
 3550              		.file 60 "../libDaisy/src/hid/logger_impl.h"
 3551              		.file 61 "../libDaisy/src/per/sdmmc.h"
 3552              		.file 62 "../libDaisy/src/util/wav_format.h"
 3553              		.file 63 "../libDaisy/src/hid/led.h"
 3554              		.file 64 "../libDaisy/src/util/color.h"
 3555              		.file 65 "../libDaisy/src/hid/rgb_led.h"
 3556              		.file 66 "../libDaisy/src/dev/max11300.h"
 3557              		.file 67 "../libDaisy/src/sys/fatfs.h"
 3558              		.file 68 "../libDaisy/src/hid/logger.h"
 3559              		.file 69 "../libDaisy/src/daisy_pod.h"
 3560              		.file 70 "../libDaisy/src/per/gpio.h"
 3561              		.file 71 "../libDaisy/src/dev/sdram.h"
 3562              		.file 72 "/Library/DaisyToolchain/0.2.0/arm/lib/gcc/arm-none-eabi/10.3.1/include/stdarg.h"
 3563              		.file 73 "/Library/DaisyToolchain/0.2.0/arm/arm-none-eabi/include/stdio.h"
 3564              		.file 74 "../libDaisy/Middlewares/Third_Party/FatFs/src/integer.h"
 3565              		.file 75 "../libDaisy/Middlewares/Third_Party/FatFs/src/ff.h"
 3566              		.file 76 "/Library/DaisyToolchain/0.2.0/arm/arm-none-eabi/include/string.h"
 3567              		.file 77 "../DaisySP/Source/Control/adenv.h"
 3568              		.file 78 "/Library/DaisyToolchain/0.2.0/arm/arm-none-eabi/include/wchar.h"
 3569              		.file 79 "/Library/DaisyToolchain/0.2.0/arm/arm-none-eabi/include/time.h"
 3570              		.file 80 "/Library/DaisyToolchain/0.2.0/arm/arm-none-eabi/include/locale.h"
 3571              		.file 81 "AppState.h"
 3572              		.file 82 "UIManager.h"
 3573              		.file 83 "GrainPhasor.h"
 3574              		.file 84 "Grain.h"
 3575              		.file 85 "GrannyChordApp.h"
 3576              		.file 86 "../libDaisy/src/dev/sr_595.h"
 3577              		.file 87 "<built-in>"
ARM GAS  /var/folders/2p/02m_5p7958535cp2tpgps0400000gn/T//ccIfZOml.s 			page 101


DEFINED SYMBOLS
                            *ABS*:0000000000000000 GrannyChordApp.cpp
/var/folders/2p/02m_5p7958535cp2tpgps0400000gn/T//ccIfZOml.s:19     .text._ZNK5daisy6Switch10TimeHeldMsEv:0000000000000000 $t
/var/folders/2p/02m_5p7958535cp2tpgps0400000gn/T//ccIfZOml.s:25     .text._ZNK5daisy6Switch10TimeHeldMsEv:0000000000000000 _ZNK5daisy6Switch10TimeHeldMsEv
/var/folders/2p/02m_5p7958535cp2tpgps0400000gn/T//ccIfZOml.s:84     .text._ZNK5daisy6Switch10TimeHeldMsEv:0000000000000028 $d
/var/folders/2p/02m_5p7958535cp2tpgps0400000gn/T//ccIfZOml.s:89     .text._ZN14GrannyChordApp20HandleEncoderPressedEv:0000000000000000 $t
/var/folders/2p/02m_5p7958535cp2tpgps0400000gn/T//ccIfZOml.s:95     .text._ZN14GrannyChordApp20HandleEncoderPressedEv:0000000000000000 _ZN14GrannyChordApp20HandleEncoderPressedEv
/var/folders/2p/02m_5p7958535cp2tpgps0400000gn/T//ccIfZOml.s:136    .text._ZN14GrannyChordApp22HandleEncoderLongPressEv:0000000000000000 $t
/var/folders/2p/02m_5p7958535cp2tpgps0400000gn/T//ccIfZOml.s:142    .text._ZN14GrannyChordApp22HandleEncoderLongPressEv:0000000000000000 _ZN14GrannyChordApp22HandleEncoderLongPressEv
/var/folders/2p/02m_5p7958535cp2tpgps0400000gn/T//ccIfZOml.s:188    .text._ZN14GrannyChordApp19HandleFileSelectionEl:0000000000000000 $t
/var/folders/2p/02m_5p7958535cp2tpgps0400000gn/T//ccIfZOml.s:194    .text._ZN14GrannyChordApp19HandleFileSelectionEl:0000000000000000 _ZN14GrannyChordApp19HandleFileSelectionEl
/var/folders/2p/02m_5p7958535cp2tpgps0400000gn/T//ccIfZOml.s:250    .text._ZN14GrannyChordApp19HandleFileSelectionEl:0000000000000028 $d
/var/folders/2p/02m_5p7958535cp2tpgps0400000gn/T//ccIfZOml.s:257    .text._ZN14GrannyChordApp15UpdateSynthModeEv:0000000000000000 $t
/var/folders/2p/02m_5p7958535cp2tpgps0400000gn/T//ccIfZOml.s:263    .text._ZN14GrannyChordApp15UpdateSynthModeEv:0000000000000000 _ZN14GrannyChordApp15UpdateSynthModeEv
/var/folders/2p/02m_5p7958535cp2tpgps0400000gn/T//ccIfZOml.s:277    .text._ZN14GrannyChordApp15UpdateSynthModeEv:000000000000000c $d
/var/folders/2p/02m_5p7958535cp2tpgps0400000gn/T//ccIfZOml.s:319    .text._ZN14GrannyChordApp13HandleButton1Ev:0000000000000000 $t
/var/folders/2p/02m_5p7958535cp2tpgps0400000gn/T//ccIfZOml.s:325    .text._ZN14GrannyChordApp13HandleButton1Ev:0000000000000000 _ZN14GrannyChordApp13HandleButton1Ev
/var/folders/2p/02m_5p7958535cp2tpgps0400000gn/T//ccIfZOml.s:348    .text._ZN14GrannyChordApp24ToggleRandomnessControlsEv:0000000000000000 $t
/var/folders/2p/02m_5p7958535cp2tpgps0400000gn/T//ccIfZOml.s:354    .text._ZN14GrannyChordApp24ToggleRandomnessControlsEv:0000000000000000 _ZN14GrannyChordApp24ToggleRandomnessControlsEv
/var/folders/2p/02m_5p7958535cp2tpgps0400000gn/T//ccIfZOml.s:379    .text._ZN14GrannyChordApp13HandleButton2Ev:0000000000000000 $t
/var/folders/2p/02m_5p7958535cp2tpgps0400000gn/T//ccIfZOml.s:385    .text._ZN14GrannyChordApp13HandleButton2Ev:0000000000000000 _ZN14GrannyChordApp13HandleButton2Ev
/var/folders/2p/02m_5p7958535cp2tpgps0400000gn/T//ccIfZOml.s:408    .text._ZN14GrannyChordApp8ToggleFXEb:0000000000000000 $t
/var/folders/2p/02m_5p7958535cp2tpgps0400000gn/T//ccIfZOml.s:414    .text._ZN14GrannyChordApp8ToggleFXEb:0000000000000000 _ZN14GrannyChordApp8ToggleFXEb
/var/folders/2p/02m_5p7958535cp2tpgps0400000gn/T//ccIfZOml.s:452    .text._ZN14GrannyChordApp22HandleButton1LongPressEv:0000000000000000 $t
/var/folders/2p/02m_5p7958535cp2tpgps0400000gn/T//ccIfZOml.s:458    .text._ZN14GrannyChordApp22HandleButton1LongPressEv:0000000000000000 _ZN14GrannyChordApp22HandleButton1LongPressEv
/var/folders/2p/02m_5p7958535cp2tpgps0400000gn/T//ccIfZOml.s:482    .text._ZN14GrannyChordApp22HandleButton2LongPressEv:0000000000000000 $t
/var/folders/2p/02m_5p7958535cp2tpgps0400000gn/T//ccIfZOml.s:488    .text._ZN14GrannyChordApp22HandleButton2LongPressEv:0000000000000000 _ZN14GrannyChordApp22HandleButton2LongPressEv
/var/folders/2p/02m_5p7958535cp2tpgps0400000gn/T//ccIfZOml.s:512    .text._ZN14GrannyChordApp11InitFileMgrEv:0000000000000000 $t
/var/folders/2p/02m_5p7958535cp2tpgps0400000gn/T//ccIfZOml.s:518    .text._ZN14GrannyChordApp11InitFileMgrEv:0000000000000000 _ZN14GrannyChordApp11InitFileMgrEv
/var/folders/2p/02m_5p7958535cp2tpgps0400000gn/T//ccIfZOml.s:582    .text._ZN14GrannyChordApp9InitSynthEv:0000000000000000 $t
/var/folders/2p/02m_5p7958535cp2tpgps0400000gn/T//ccIfZOml.s:588    .text._ZN14GrannyChordApp9InitSynthEv:0000000000000000 _ZN14GrannyChordApp9InitSynthEv
/var/folders/2p/02m_5p7958535cp2tpgps0400000gn/T//ccIfZOml.s:612    .text._ZN14GrannyChordApp17ClearAudioBuffersEv:0000000000000000 $t
/var/folders/2p/02m_5p7958535cp2tpgps0400000gn/T//ccIfZOml.s:618    .text._ZN14GrannyChordApp17ClearAudioBuffersEv:0000000000000000 _ZN14GrannyChordApp17ClearAudioBuffersEv
/var/folders/2p/02m_5p7958535cp2tpgps0400000gn/T//ccIfZOml.s:659    .text._ZN14GrannyChordApp12InitPlaybackEv:0000000000000000 $t
/var/folders/2p/02m_5p7958535cp2tpgps0400000gn/T//ccIfZOml.s:665    .text._ZN14GrannyChordApp12InitPlaybackEv:0000000000000000 _ZN14GrannyChordApp12InitPlaybackEv
/var/folders/2p/02m_5p7958535cp2tpgps0400000gn/T//ccIfZOml.s:723    .text._ZN14GrannyChordApp17HandleStateChangeEv:0000000000000000 $t
/var/folders/2p/02m_5p7958535cp2tpgps0400000gn/T//ccIfZOml.s:729    .text._ZN14GrannyChordApp17HandleStateChangeEv:0000000000000000 _ZN14GrannyChordApp17HandleStateChangeEv
/var/folders/2p/02m_5p7958535cp2tpgps0400000gn/T//ccIfZOml.s:751    .text._ZN14GrannyChordApp17HandleStateChangeEv:0000000000000012 $d
/var/folders/2p/02m_5p7958535cp2tpgps0400000gn/T//ccIfZOml.s:755    .text._ZN14GrannyChordApp17HandleStateChangeEv:0000000000000016 $t
/var/folders/2p/02m_5p7958535cp2tpgps0400000gn/T//ccIfZOml.s:840    .text._ZN14GrannyChordApp8UpdateUIEv:0000000000000000 $t
/var/folders/2p/02m_5p7958535cp2tpgps0400000gn/T//ccIfZOml.s:846    .text._ZN14GrannyChordApp8UpdateUIEv:0000000000000000 _ZN14GrannyChordApp8UpdateUIEv
/var/folders/2p/02m_5p7958535cp2tpgps0400000gn/T//ccIfZOml.s:1076   .text._ZN14GrannyChordApp8UpdateUIEv:00000000000000cc $d
/var/folders/2p/02m_5p7958535cp2tpgps0400000gn/T//ccIfZOml.s:1084   .text._ZN14GrannyChordApp12InitRecordInEv:0000000000000000 $t
/var/folders/2p/02m_5p7958535cp2tpgps0400000gn/T//ccIfZOml.s:1090   .text._ZN14GrannyChordApp12InitRecordInEv:0000000000000000 _ZN14GrannyChordApp12InitRecordInEv
/var/folders/2p/02m_5p7958535cp2tpgps0400000gn/T//ccIfZOml.s:1113   .text._ZN14GrannyChordApp12InitRecordInEv:0000000000000008 $d
/var/folders/2p/02m_5p7958535cp2tpgps0400000gn/T//ccIfZOml.s:1120   .text._ZN14GrannyChordApp13InitWavWriterEv:0000000000000000 $t
/var/folders/2p/02m_5p7958535cp2tpgps0400000gn/T//ccIfZOml.s:1126   .text._ZN14GrannyChordApp13InitWavWriterEv:0000000000000000 _ZN14GrannyChordApp13InitWavWriterEv
/var/folders/2p/02m_5p7958535cp2tpgps0400000gn/T//ccIfZOml.s:1318   .text._ZN14GrannyChordApp13InitWavWriterEv:00000000000000a0 $d
/var/folders/2p/02m_5p7958535cp2tpgps0400000gn/T//ccIfZOml.s:1325   .text._ZN14GrannyChordApp6InitFXEv:0000000000000000 $t
/var/folders/2p/02m_5p7958535cp2tpgps0400000gn/T//ccIfZOml.s:1331   .text._ZN14GrannyChordApp6InitFXEv:0000000000000000 _ZN14GrannyChordApp6InitFXEv
/var/folders/2p/02m_5p7958535cp2tpgps0400000gn/T//ccIfZOml.s:1479   .text._ZN14GrannyChordApp6InitFXEv:000000000000005c $d
/var/folders/2p/02m_5p7958535cp2tpgps0400000gn/T//ccIfZOml.s:1489   .text._ZN14GrannyChordApp4InitEPsS0_:0000000000000000 $t
/var/folders/2p/02m_5p7958535cp2tpgps0400000gn/T//ccIfZOml.s:1495   .text._ZN14GrannyChordApp4InitEPsS0_:0000000000000000 _ZN14GrannyChordApp4InitEPsS0_
/var/folders/2p/02m_5p7958535cp2tpgps0400000gn/T//ccIfZOml.s:1601   .text._ZN14GrannyChordApp4InitEPsS0_:0000000000000058 $d
/var/folders/2p/02m_5p7958535cp2tpgps0400000gn/T//ccIfZOml.s:2259   .text._ZN14GrannyChordApp13AudioCallbackEPKPKfPPfj:0000000000000000 _ZN14GrannyChordApp13AudioCallbackEPKPKfPPfj
/var/folders/2p/02m_5p7958535cp2tpgps0400000gn/T//ccIfZOml.s:1608   .text._ZN14GrannyChordApp17InitPrevParamValsEv:0000000000000000 $t
/var/folders/2p/02m_5p7958535cp2tpgps0400000gn/T//ccIfZOml.s:1614   .text._ZN14GrannyChordApp17InitPrevParamValsEv:0000000000000000 _ZN14GrannyChordApp17InitPrevParamValsEv
ARM GAS  /var/folders/2p/02m_5p7958535cp2tpgps0400000gn/T//ccIfZOml.s 			page 102


/var/folders/2p/02m_5p7958535cp2tpgps0400000gn/T//ccIfZOml.s:1651   .text._ZN14GrannyChordApp9AudioIdleEPPfj:0000000000000000 $t
/var/folders/2p/02m_5p7958535cp2tpgps0400000gn/T//ccIfZOml.s:1657   .text._ZN14GrannyChordApp9AudioIdleEPPfj:0000000000000000 _ZN14GrannyChordApp9AudioIdleEPPfj
/var/folders/2p/02m_5p7958535cp2tpgps0400000gn/T//ccIfZOml.s:1707   .text._ZN14GrannyChordApp18ProcessWAVPlaybackEPPfj:0000000000000000 $t
/var/folders/2p/02m_5p7958535cp2tpgps0400000gn/T//ccIfZOml.s:1713   .text._ZN14GrannyChordApp18ProcessWAVPlaybackEPPfj:0000000000000000 _ZN14GrannyChordApp18ProcessWAVPlaybackEPPfj
/var/folders/2p/02m_5p7958535cp2tpgps0400000gn/T//ccIfZOml.s:1840   .text._ZN14GrannyChordApp18ProcessWAVPlaybackEPPfj:000000000000005c $d
/var/folders/2p/02m_5p7958535cp2tpgps0400000gn/T//ccIfZOml.s:1845   .text._ZN14GrannyChordApp15ProcessRecordInEPKPKfPPfj:0000000000000000 $t
/var/folders/2p/02m_5p7958535cp2tpgps0400000gn/T//ccIfZOml.s:1851   .text._ZN14GrannyChordApp15ProcessRecordInEPKPKfPPfj:0000000000000000 _ZN14GrannyChordApp15ProcessRecordInEPKPKfPPfj
/var/folders/2p/02m_5p7958535cp2tpgps0400000gn/T//ccIfZOml.s:1948   .text._ZN14GrannyChordApp15ProcessRecordInEPKPKfPPfj:000000000000007c $d
/var/folders/2p/02m_5p7958535cp2tpgps0400000gn/T//ccIfZOml.s:1954   .text._ZN14GrannyChordApp16ProcessSynthesisEPPfj:0000000000000000 $t
/var/folders/2p/02m_5p7958535cp2tpgps0400000gn/T//ccIfZOml.s:1960   .text._ZN14GrannyChordApp16ProcessSynthesisEPPfj:0000000000000000 _ZN14GrannyChordApp16ProcessSynthesisEPPfj
/var/folders/2p/02m_5p7958535cp2tpgps0400000gn/T//ccIfZOml.s:2118   .text._ZN14GrannyChordApp12ProcessAudioEPKPKfPPfj:0000000000000000 $t
/var/folders/2p/02m_5p7958535cp2tpgps0400000gn/T//ccIfZOml.s:2124   .text._ZN14GrannyChordApp12ProcessAudioEPKPKfPPfj:0000000000000000 _ZN14GrannyChordApp12ProcessAudioEPKPKfPPfj
/var/folders/2p/02m_5p7958535cp2tpgps0400000gn/T//ccIfZOml.s:2253   .text._ZN14GrannyChordApp13AudioCallbackEPKPKfPPfj:0000000000000000 $t
/var/folders/2p/02m_5p7958535cp2tpgps0400000gn/T//ccIfZOml.s:2287   .text._ZN14GrannyChordApp13AudioCallbackEPKPKfPPfj:0000000000000010 $d
/var/folders/2p/02m_5p7958535cp2tpgps0400000gn/T//ccIfZOml.s:2292   .text._ZN14GrannyChordApp16ProcessChordModeEPPfj:0000000000000000 $t
/var/folders/2p/02m_5p7958535cp2tpgps0400000gn/T//ccIfZOml.s:2298   .text._ZN14GrannyChordApp16ProcessChordModeEPPfj:0000000000000000 _ZN14GrannyChordApp16ProcessChordModeEPPfj
/var/folders/2p/02m_5p7958535cp2tpgps0400000gn/T//ccIfZOml.s:2312   .text._ZN14GrannyChordApp13RecordOutToSDEPPfj:0000000000000000 $t
/var/folders/2p/02m_5p7958535cp2tpgps0400000gn/T//ccIfZOml.s:2318   .text._ZN14GrannyChordApp13RecordOutToSDEPPfj:0000000000000000 _ZN14GrannyChordApp13RecordOutToSDEPPfj
/var/folders/2p/02m_5p7958535cp2tpgps0400000gn/T//ccIfZOml.s:2423   .text._ZN14GrannyChordApp17UpdateKnob1ParamsEf9SynthMode:0000000000000000 $t
/var/folders/2p/02m_5p7958535cp2tpgps0400000gn/T//ccIfZOml.s:2429   .text._ZN14GrannyChordApp17UpdateKnob1ParamsEf9SynthMode:0000000000000000 _ZN14GrannyChordApp17UpdateKnob1ParamsEf9SynthMode
/var/folders/2p/02m_5p7958535cp2tpgps0400000gn/T//ccIfZOml.s:2442   .text._ZN14GrannyChordApp17UpdateKnob1ParamsEf9SynthMode:0000000000000008 $d
/var/folders/2p/02m_5p7958535cp2tpgps0400000gn/T//ccIfZOml.s:2745   .text._ZN14GrannyChordApp17UpdateKnob1ParamsEf9SynthMode:0000000000000090 $d
/var/folders/2p/02m_5p7958535cp2tpgps0400000gn/T//ccIfZOml.s:2752   .text._ZN14GrannyChordApp17UpdateKnob2ParamsEf9SynthMode:0000000000000000 $t
/var/folders/2p/02m_5p7958535cp2tpgps0400000gn/T//ccIfZOml.s:2758   .text._ZN14GrannyChordApp17UpdateKnob2ParamsEf9SynthMode:0000000000000000 _ZN14GrannyChordApp17UpdateKnob2ParamsEf9SynthMode
/var/folders/2p/02m_5p7958535cp2tpgps0400000gn/T//ccIfZOml.s:2783   .text._ZN14GrannyChordApp17UpdateKnob2ParamsEf9SynthMode:0000000000000014 $d
/var/folders/2p/02m_5p7958535cp2tpgps0400000gn/T//ccIfZOml.s:3216   .text._ZN14GrannyChordApp17UpdateKnob2ParamsEf9SynthMode:00000000000000fc $d
/var/folders/2p/02m_5p7958535cp2tpgps0400000gn/T//ccIfZOml.s:3228   .text._ZN14GrannyChordApp17UpdateSynthParamsEv:0000000000000000 $t
/var/folders/2p/02m_5p7958535cp2tpgps0400000gn/T//ccIfZOml.s:3234   .text._ZN14GrannyChordApp17UpdateSynthParamsEv:0000000000000000 _ZN14GrannyChordApp17UpdateSynthParamsEv
/var/folders/2p/02m_5p7958535cp2tpgps0400000gn/T//ccIfZOml.s:3434   .text._ZN14GrannyChordApp17UpdateSynthParamsEv:00000000000000d0 $d
/var/folders/2p/02m_5p7958535cp2tpgps0400000gn/T//ccIfZOml.s:3445   .text._ZN14GrannyChordApp3RunEv:0000000000000000 $t
/var/folders/2p/02m_5p7958535cp2tpgps0400000gn/T//ccIfZOml.s:3451   .text._ZN14GrannyChordApp3RunEv:0000000000000000 _ZN14GrannyChordApp3RunEv
/var/folders/2p/02m_5p7958535cp2tpgps0400000gn/T//ccIfZOml.s:3494   .bss._ZN14GrannyChordApp9instance_E:0000000000000000 _ZN14GrannyChordApp9instance_E
/var/folders/2p/02m_5p7958535cp2tpgps0400000gn/T//ccIfZOml.s:3490   .bss._ZN14GrannyChordApp9instance_E:0000000000000000 $d
/var/folders/2p/02m_5p7958535cp2tpgps0400000gn/T//ccIfZOml.s:3497   .bss._ZZN14GrannyChordApp15ProcessRecordInEPKPKfPPfjE10record_pos:0000000000000000 $d
/var/folders/2p/02m_5p7958535cp2tpgps0400000gn/T//ccIfZOml.s:3501   .bss._ZZN14GrannyChordApp15ProcessRecordInEPKPKfPPfjE10record_pos:0000000000000000 _ZZN14GrannyChordApp15ProcessRecordInEPKPKfPPfjE10record_pos
/var/folders/2p/02m_5p7958535cp2tpgps0400000gn/T//ccIfZOml.s:284    .text._ZN14GrannyChordApp15UpdateSynthModeEv:0000000000000013 $d
/var/folders/2p/02m_5p7958535cp2tpgps0400000gn/T//ccIfZOml.s:284    .text._ZN14GrannyChordApp15UpdateSynthModeEv:0000000000000014 $t
/var/folders/2p/02m_5p7958535cp2tpgps0400000gn/T//ccIfZOml.s:2451   .text._ZN14GrannyChordApp17UpdateKnob1ParamsEf9SynthMode:0000000000000011 $d
/var/folders/2p/02m_5p7958535cp2tpgps0400000gn/T//ccIfZOml.s:2451   .text._ZN14GrannyChordApp17UpdateKnob1ParamsEf9SynthMode:0000000000000012 $t
/var/folders/2p/02m_5p7958535cp2tpgps0400000gn/T//ccIfZOml.s:2792   .text._ZN14GrannyChordApp17UpdateKnob2ParamsEf9SynthMode:000000000000001d $d
/var/folders/2p/02m_5p7958535cp2tpgps0400000gn/T//ccIfZOml.s:2792   .text._ZN14GrannyChordApp17UpdateKnob2ParamsEf9SynthMode:000000000000001e $t

UNDEFINED SYMBOLS
_ZN5daisy6System6GetNowEv
_ZN5daisy6LoggerILNS_17LoggerDestinationE1EE9PrintLineEPKcz
_ZN16AudioFileManager10SetBuffersEPsS0_
_ZN16AudioFileManager4InitEv
_ZN16AudioFileManager12ScanWavFilesEv
_ZN13GranularSynth4InitEPKsS1_j
memset
_ZN16AudioFileManager8LoadFileEt
_ZN5daisy6RgbLed6SetRedEf
_ZN5daisy8DaisyPod22ProcessDigitalControlsEv
_ZN5daisy8DaisyPod15AudioSampleRateEv
_ZN7daisysp10Compressor4InitEf
_ZN7daisysp8ReverbSc4InitEf
_ZN7daisysp10MoogLadder4InitEf
ARM GAS  /var/folders/2p/02m_5p7958535cp2tpgps0400000gn/T//ccIfZOml.s 			page 103


_ZN5daisy8DaisyPod17SetAudioBlockSizeEj
_ZN5daisy8DaisyPod18SetAudioSampleRateENS_9SaiHandle6Config10SampleRateE
time
_ZN5daisy8DaisyPod8StartAdcEv
_ZN5daisy8DaisyPod10StartAudioEPFvPKPKfPPfjE
rng_state
_ZN13GranularSynth13ProcessGrainsEPfS0_j
_ZN7daisysp10Compressor12ProcessBlockEPfS1_S1_j
_ZN7daisysp8ReverbSc7ProcessERKfS2_PfS3_
f_open
f_write
_ZN13GranularSynth12SetGrainSizeEf
_ZN13GranularSynth13SetPitchRatioEf
_ZN13GranularSynth6SetPanEf
_ZN13GranularSynth13SetPhasorModeEN11GrainPhasor4ModeE
_ZN13GranularSynth11SetSpawnPosEf
_ZN13GranularSynth15SetActiveGrainsEf
_ZN13GranularSynth15SetEnvelopeTypeEN5Grain12EnvelopeTypeE
tanf
_ZN5daisy13AnalogControl7ProcessEv
_ZN5daisy6System5DelayEm
