ARM GAS  /var/folders/2p/02m_5p7958535cp2tpgps0400000gn/T//ccx9FAOt.s 			page 1


   1              		.cpu cortex-m7
   2              		.arch armv7e-m
   3              		.fpu fpv5-d16
   4              		.eabi_attribute 28, 1
   5              		.eabi_attribute 20, 1
   6              		.eabi_attribute 21, 1
   7              		.eabi_attribute 23, 3
   8              		.eabi_attribute 24, 1
   9              		.eabi_attribute 25, 1
  10              		.eabi_attribute 26, 1
  11              		.eabi_attribute 30, 4
  12              		.eabi_attribute 34, 1
  13              		.eabi_attribute 18, 4
  14              		.file	"GrannyChordApp.cpp"
  15              		.text
  16              	.Ltext0:
  17              		.cfi_sections	.debug_frame
  18              		.section	.text._ZNK5daisy6Switch10TimeHeldMsEv,"axG",%progbits,_ZNK5daisy6Switch10TimeHeldMsEv,com
  19              		.align	1
  20              		.weak	_ZNK5daisy6Switch10TimeHeldMsEv
  21              		.syntax unified
  22              		.thumb
  23              		.thumb_func
  25              	_ZNK5daisy6Switch10TimeHeldMsEv:
  26              	.LVL0:
  27              	.LFB1646:
  28              		.file 1 "../libDaisy/src/hid/switch.h"
   1:../libDaisy/src/hid/switch.h **** #pragma once
   2:../libDaisy/src/hid/switch.h **** #ifndef DSY_SWITCH_H
   3:../libDaisy/src/hid/switch.h **** #define DSY_SWITCH_H
   4:../libDaisy/src/hid/switch.h **** #include "daisy_core.h"
   5:../libDaisy/src/hid/switch.h **** #include "per/gpio.h"
   6:../libDaisy/src/hid/switch.h **** #include "sys/system.h"
   7:../libDaisy/src/hid/switch.h **** 
   8:../libDaisy/src/hid/switch.h **** namespace daisy
   9:../libDaisy/src/hid/switch.h **** {
  10:../libDaisy/src/hid/switch.h **** /** 
  11:../libDaisy/src/hid/switch.h ****     Generic Class for handling momentary/latching switches \n 
  12:../libDaisy/src/hid/switch.h ****     Inspired/influenced by Mutable Instruments (pichenettes) Switch classes
  13:../libDaisy/src/hid/switch.h ****     @author Stephen Hensley
  14:../libDaisy/src/hid/switch.h ****     @date December 2019
  15:../libDaisy/src/hid/switch.h ****     @ingroup controls
  16:../libDaisy/src/hid/switch.h **** */
  17:../libDaisy/src/hid/switch.h **** class Switch
  18:../libDaisy/src/hid/switch.h **** {
  19:../libDaisy/src/hid/switch.h ****   public:
  20:../libDaisy/src/hid/switch.h ****     /** Specifies the expected behavior of the switch */
  21:../libDaisy/src/hid/switch.h ****     enum Type
  22:../libDaisy/src/hid/switch.h ****     {
  23:../libDaisy/src/hid/switch.h ****         TYPE_TOGGLE,    /**< & */
  24:../libDaisy/src/hid/switch.h ****         TYPE_MOMENTARY, /**< & */
  25:../libDaisy/src/hid/switch.h ****     };
  26:../libDaisy/src/hid/switch.h ****     /** Specifies whether the pressed is HIGH or LOW. */
  27:../libDaisy/src/hid/switch.h ****     enum Polarity
  28:../libDaisy/src/hid/switch.h ****     {
  29:../libDaisy/src/hid/switch.h ****         POLARITY_NORMAL,   /**< & */
  30:../libDaisy/src/hid/switch.h ****         POLARITY_INVERTED, /**< & */
ARM GAS  /var/folders/2p/02m_5p7958535cp2tpgps0400000gn/T//ccx9FAOt.s 			page 2


  31:../libDaisy/src/hid/switch.h ****     };
  32:../libDaisy/src/hid/switch.h **** 
  33:../libDaisy/src/hid/switch.h ****     /** Specifies whether to use built-in Pull Up/Down resistors to hold button at a given state wh
  34:../libDaisy/src/hid/switch.h ****     enum Pull
  35:../libDaisy/src/hid/switch.h ****     {
  36:../libDaisy/src/hid/switch.h ****         PULL_UP,   /**< & */
  37:../libDaisy/src/hid/switch.h ****         PULL_DOWN, /**< & */
  38:../libDaisy/src/hid/switch.h ****         PULL_NONE, /**< & */
  39:../libDaisy/src/hid/switch.h ****     };
  40:../libDaisy/src/hid/switch.h **** 
  41:../libDaisy/src/hid/switch.h ****     Switch() {}
  42:../libDaisy/src/hid/switch.h ****     ~Switch() {}
  43:../libDaisy/src/hid/switch.h **** 
  44:../libDaisy/src/hid/switch.h ****     /** 
  45:../libDaisy/src/hid/switch.h ****     Initializes the switch object with a given port/pin combo.
  46:../libDaisy/src/hid/switch.h ****     \param pin port/pin object to tell the switch which hardware pin to use.
  47:../libDaisy/src/hid/switch.h ****     \param update_rate Does nothing. Backwards compatibility until next breaking update.
  48:../libDaisy/src/hid/switch.h ****     \param t switch type -- Default: TYPE_MOMENTARY
  49:../libDaisy/src/hid/switch.h ****     \param pol switch polarity -- Default: POLARITY_INVERTED
  50:../libDaisy/src/hid/switch.h ****     \param pu switch pull up/down -- Default: PULL_UP
  51:../libDaisy/src/hid/switch.h ****     */
  52:../libDaisy/src/hid/switch.h ****     void
  53:../libDaisy/src/hid/switch.h ****     Init(dsy_gpio_pin pin, float update_rate, Type t, Polarity pol, Pull pu);
  54:../libDaisy/src/hid/switch.h **** 
  55:../libDaisy/src/hid/switch.h ****     /**
  56:../libDaisy/src/hid/switch.h ****        Simplified Init.
  57:../libDaisy/src/hid/switch.h ****        \param pin port/pin object to tell the switch which hardware pin to use.
  58:../libDaisy/src/hid/switch.h ****        \param update_rate Left for backwards compatibility until next breaking change.
  59:../libDaisy/src/hid/switch.h ****     */
  60:../libDaisy/src/hid/switch.h ****     void Init(dsy_gpio_pin pin, float update_rate = 0.f);
  61:../libDaisy/src/hid/switch.h **** 
  62:../libDaisy/src/hid/switch.h ****     /** 
  63:../libDaisy/src/hid/switch.h ****     Called at update_rate to debounce and handle timing for the switch.
  64:../libDaisy/src/hid/switch.h ****     In order for events not to be missed, its important that the Edge/Pressed checks
  65:../libDaisy/src/hid/switch.h ****     be made at the same rate as the debounce function is being called.
  66:../libDaisy/src/hid/switch.h ****     */
  67:../libDaisy/src/hid/switch.h ****     void Debounce();
  68:../libDaisy/src/hid/switch.h **** 
  69:../libDaisy/src/hid/switch.h ****     /** \return true if a button was just pressed. */
  70:../libDaisy/src/hid/switch.h ****     inline bool RisingEdge() const { return updated_ ? state_ == 0x7f : false; }
  71:../libDaisy/src/hid/switch.h **** 
  72:../libDaisy/src/hid/switch.h ****     /** \return true if the button was just released */
  73:../libDaisy/src/hid/switch.h ****     inline bool FallingEdge() const
  74:../libDaisy/src/hid/switch.h ****     {
  75:../libDaisy/src/hid/switch.h ****         return updated_ ? state_ == 0x80 : false;
  76:../libDaisy/src/hid/switch.h ****     }
  77:../libDaisy/src/hid/switch.h **** 
  78:../libDaisy/src/hid/switch.h ****     /** \return true if the button is held down (or if the toggle is on) */
  79:../libDaisy/src/hid/switch.h ****     inline bool Pressed() const { return state_ == 0xff; }
  80:../libDaisy/src/hid/switch.h **** 
  81:../libDaisy/src/hid/switch.h ****     /** \return true if the button is held down, without debouncing */
  82:../libDaisy/src/hid/switch.h ****     inline bool RawState()
  83:../libDaisy/src/hid/switch.h ****     {
  84:../libDaisy/src/hid/switch.h ****         return flip_ ? !dsy_gpio_read(&hw_gpio_) : dsy_gpio_read(&hw_gpio_);
  85:../libDaisy/src/hid/switch.h ****     }
  86:../libDaisy/src/hid/switch.h **** 
  87:../libDaisy/src/hid/switch.h ****     /** \return the time in milliseconds that the button has been held (or toggle has been on) */
ARM GAS  /var/folders/2p/02m_5p7958535cp2tpgps0400000gn/T//ccx9FAOt.s 			page 3


  88:../libDaisy/src/hid/switch.h ****     inline float TimeHeldMs() const
  29              		.loc 1 88 18 view -0
  30              		.cfi_startproc
  31              		@ args = 0, pretend = 0, frame = 0
  32              		@ frame_needed = 0, uses_anonymous_args = 0
  89:../libDaisy/src/hid/switch.h ****     {
  90:../libDaisy/src/hid/switch.h ****         return Pressed() ? System::GetNow() - rising_edge_time_ : 0;
  33              		.loc 1 90 9 view .LVU1
  34              	.LBB382:
  35              	.LBI382:
  79:../libDaisy/src/hid/switch.h **** 
  36              		.loc 1 79 17 view .LVU2
  37              	.LBB383:
  79:../libDaisy/src/hid/switch.h **** 
  38              		.loc 1 79 35 view .LVU3
  79:../libDaisy/src/hid/switch.h **** 
  39              		.loc 1 79 35 is_stmt 0 view .LVU4
  40              	.LBE383:
  41              	.LBE382:
  88:../libDaisy/src/hid/switch.h ****     {
  42              		.loc 1 88 18 view .LVU5
  43 0000 10B5     		push	{r4, lr}
  44              		.cfi_def_cfa_offset 8
  45              		.cfi_offset 4, -8
  46              		.cfi_offset 14, -4
  47              		.loc 1 90 26 view .LVU6
  48 0002 837A     		ldrb	r3, [r0, #10]	@ zero_extendqisi2
  88:../libDaisy/src/hid/switch.h ****     {
  49              		.loc 1 88 18 view .LVU7
  50 0004 0446     		mov	r4, r0
  51              		.loc 1 90 26 view .LVU8
  52 0006 FF2B     		cmp	r3, #255
  53 0008 0AD1     		bne	.L3
  54              	.LVL1:
  55              	.LBB384:
  56              	.LBI384:
  88:../libDaisy/src/hid/switch.h ****     {
  57              		.loc 1 88 18 is_stmt 1 view .LVU9
  58              	.LBB385:
  59              		.loc 1 90 42 is_stmt 0 view .LVU10
  60 000a FFF7FEFF 		bl	_ZN5daisy6System6GetNowEv
  61              	.LVL2:
  62              		.loc 1 90 45 view .LVU11
  63 000e 07EE900A 		vmov	s15, r0	@ int
  64 0012 B8EE670A 		vcvt.f32.u32	s0, s15
  65              		.loc 1 90 26 view .LVU12
  66 0016 D4ED037A 		vldr.32	s15, [r4, #12]
  67 001a 30EE670A 		vsub.f32	s0, s0, s15
  68              	.LVL3:
  69              	.L1:
  70              		.loc 1 90 26 view .LVU13
  71              	.LBE385:
  72              	.LBE384:
  91:../libDaisy/src/hid/switch.h ****     }
  73              		.loc 1 91 5 view .LVU14
  74 001e 10BD     		pop	{r4, pc}
  75              	.LVL4:
ARM GAS  /var/folders/2p/02m_5p7958535cp2tpgps0400000gn/T//ccx9FAOt.s 			page 4


  76              	.L3:
  90:../libDaisy/src/hid/switch.h ****     }
  77              		.loc 1 90 26 view .LVU15
  78 0020 9FED010A 		vldr.32	s0, .L4
  90:../libDaisy/src/hid/switch.h ****     }
  79              		.loc 1 90 67 view .LVU16
  80 0024 FBE7     		b	.L1
  81              	.L5:
  82 0026 00BF     		.align	2
  83              	.L4:
  84 0028 00000000 		.word	0
  85              		.cfi_endproc
  86              	.LFE1646:
  88              		.section	.text._ZN7daisysp7OnePole7ProcessEf,"axG",%progbits,_ZN7daisysp7OnePole7ProcessEf,comdat
  89              		.align	1
  90              		.weak	_ZN7daisysp7OnePole7ProcessEf
  91              		.syntax unified
  92              		.thumb
  93              		.thumb_func
  95              	_ZN7daisysp7OnePole7ProcessEf:
  96              	.LVL5:
  97              	.LFB4466:
  98              		.file 2 "../DaisySP/Source/Filters/onepole.h"
   1:../DaisySP/Source/Filters/onepole.h **** /*
   2:../DaisySP/Source/Filters/onepole.h **** Copyright (c) 2020 Electrosmith, Corp, Emilie Gillet
   3:../DaisySP/Source/Filters/onepole.h **** 
   4:../DaisySP/Source/Filters/onepole.h **** Use of this source code is governed by an MIT-style
   5:../DaisySP/Source/Filters/onepole.h **** license that can be found in the LICENSE file or at
   6:../DaisySP/Source/Filters/onepole.h **** https://opensource.org/licenses/MIT.
   7:../DaisySP/Source/Filters/onepole.h **** */
   8:../DaisySP/Source/Filters/onepole.h **** 
   9:../DaisySP/Source/Filters/onepole.h **** #ifndef DSY_ONEPOLE_H
  10:../DaisySP/Source/Filters/onepole.h **** #define DSY_ONEPOLE_H
  11:../DaisySP/Source/Filters/onepole.h **** 
  12:../DaisySP/Source/Filters/onepole.h **** #include "Utility/dsp.h"
  13:../DaisySP/Source/Filters/onepole.h **** #include <cmath>
  14:../DaisySP/Source/Filters/onepole.h **** #include <algorithm>
  15:../DaisySP/Source/Filters/onepole.h **** 
  16:../DaisySP/Source/Filters/onepole.h **** namespace daisysp
  17:../DaisySP/Source/Filters/onepole.h **** {
  18:../DaisySP/Source/Filters/onepole.h **** /**         
  19:../DaisySP/Source/Filters/onepole.h ****     @brief One Pole Lowpass / Highpass Filter
  20:../DaisySP/Source/Filters/onepole.h ****     @author beserge
  21:../DaisySP/Source/Filters/onepole.h ****     @date Dec 2023 
  22:../DaisySP/Source/Filters/onepole.h ****     Ported from pichenettes/stmlib/dsp/filter.h \n 
  23:../DaisySP/Source/Filters/onepole.h ****     \n to an independent module. \n
  24:../DaisySP/Source/Filters/onepole.h ****     Original code written by Emilie Gillet. \n
  25:../DaisySP/Source/Filters/onepole.h **** */
  26:../DaisySP/Source/Filters/onepole.h **** class OnePole
  27:../DaisySP/Source/Filters/onepole.h **** {
  28:../DaisySP/Source/Filters/onepole.h ****   public:
  29:../DaisySP/Source/Filters/onepole.h ****     OnePole() {}
  30:../DaisySP/Source/Filters/onepole.h ****     ~OnePole() {}
  31:../DaisySP/Source/Filters/onepole.h **** 
  32:../DaisySP/Source/Filters/onepole.h ****     /**
  33:../DaisySP/Source/Filters/onepole.h ****      * @brief Operational modes of the filter
  34:../DaisySP/Source/Filters/onepole.h ****      * - LOW_PASS = cuts out high frequency sound, lets low frequency sound pass through
ARM GAS  /var/folders/2p/02m_5p7958535cp2tpgps0400000gn/T//ccx9FAOt.s 			page 5


  35:../DaisySP/Source/Filters/onepole.h ****      * - HIGH_PASS = cuts out low frequency sound, lets high frequency sound pass through
  36:../DaisySP/Source/Filters/onepole.h ****      */
  37:../DaisySP/Source/Filters/onepole.h ****     enum FilterMode
  38:../DaisySP/Source/Filters/onepole.h ****     {
  39:../DaisySP/Source/Filters/onepole.h ****         FILTER_MODE_LOW_PASS,
  40:../DaisySP/Source/Filters/onepole.h ****         FILTER_MODE_HIGH_PASS
  41:../DaisySP/Source/Filters/onepole.h ****     };
  42:../DaisySP/Source/Filters/onepole.h **** 
  43:../DaisySP/Source/Filters/onepole.h ****     /** Initializes the module */
  44:../DaisySP/Source/Filters/onepole.h ****     void Init()
  45:../DaisySP/Source/Filters/onepole.h ****     {
  46:../DaisySP/Source/Filters/onepole.h ****         Reset();
  47:../DaisySP/Source/Filters/onepole.h ****         mode_ = FILTER_MODE_LOW_PASS;
  48:../DaisySP/Source/Filters/onepole.h ****     }
  49:../DaisySP/Source/Filters/onepole.h **** 
  50:../DaisySP/Source/Filters/onepole.h ****     /** Reset the module to its default state */
  51:../DaisySP/Source/Filters/onepole.h ****     inline void Reset() { state_ = 0.0f; }
  52:../DaisySP/Source/Filters/onepole.h **** 
  53:../DaisySP/Source/Filters/onepole.h ****     /** Set the filter cutoff frequency
  54:../DaisySP/Source/Filters/onepole.h ****     *   \param freq Cutoff frequency. Valid range from 0 to .497f
  55:../DaisySP/Source/Filters/onepole.h ****     */
  56:../DaisySP/Source/Filters/onepole.h ****     inline void SetFrequency(float freq)
  57:../DaisySP/Source/Filters/onepole.h ****     {
  58:../DaisySP/Source/Filters/onepole.h ****         // Clip coefficient to about 100.
  59:../DaisySP/Source/Filters/onepole.h ****         freq = freq < 0.497f ? freq : 0.497f;
  60:../DaisySP/Source/Filters/onepole.h **** 
  61:../DaisySP/Source/Filters/onepole.h ****         g_  = tanf(PI_F * freq);
  62:../DaisySP/Source/Filters/onepole.h ****         gi_ = 1.f / (1.f + g_);
  63:../DaisySP/Source/Filters/onepole.h ****     }
  64:../DaisySP/Source/Filters/onepole.h **** 
  65:../DaisySP/Source/Filters/onepole.h ****     /** Set the filter mode
  66:../DaisySP/Source/Filters/onepole.h ****     *   \param mode Filter mode. Can be lowpass or highpass
  67:../DaisySP/Source/Filters/onepole.h ****     */
  68:../DaisySP/Source/Filters/onepole.h ****     inline void SetFilterMode(FilterMode mode) { mode_ = mode; }
  69:../DaisySP/Source/Filters/onepole.h **** 
  70:../DaisySP/Source/Filters/onepole.h ****     /** Process audio through the filter
  71:../DaisySP/Source/Filters/onepole.h ****     *   \param in The next sample to be processed
  72:../DaisySP/Source/Filters/onepole.h ****     */
  73:../DaisySP/Source/Filters/onepole.h ****     inline float Process(float in)
  99              		.loc 2 73 18 is_stmt 1 view -0
 100              		.cfi_startproc
 101              		@ args = 0, pretend = 0, frame = 0
 102              		@ frame_needed = 0, uses_anonymous_args = 0
 103              		@ link register save eliminated.
  74:../DaisySP/Source/Filters/onepole.h ****     {
  75:../DaisySP/Source/Filters/onepole.h ****         float lp;
 104              		.loc 2 75 9 view .LVU18
  76:../DaisySP/Source/Filters/onepole.h ****         lp     = (g_ * in + state_) * gi_;
 105              		.loc 2 76 9 view .LVU19
 106              		.loc 2 76 19 is_stmt 0 view .LVU20
 107 0000 D0ED006A 		vldr.32	s13, [r0]
  73:../DaisySP/Source/Filters/onepole.h ****     {
 108              		.loc 2 73 18 view .LVU21
 109 0004 B0EE407A 		vmov.f32	s14, s0
 110              		.loc 2 76 27 view .LVU22
 111 0008 D0ED027A 		vldr.32	s15, [r0, #8]
  77:../DaisySP/Source/Filters/onepole.h ****         state_ = g_ * (in - lp) + lp;
ARM GAS  /var/folders/2p/02m_5p7958535cp2tpgps0400000gn/T//ccx9FAOt.s 			page 6


  78:../DaisySP/Source/Filters/onepole.h **** 
  79:../DaisySP/Source/Filters/onepole.h ****         switch(mode_)
 112              		.loc 2 79 16 view .LVU23
 113 000c 037B     		ldrb	r3, [r0, #12]	@ zero_extendqisi2
  76:../DaisySP/Source/Filters/onepole.h ****         state_ = g_ * (in - lp) + lp;
 114              		.loc 2 76 27 view .LVU24
 115 000e E6EE807A 		vfma.f32	s15, s13, s0
  76:../DaisySP/Source/Filters/onepole.h ****         state_ = g_ * (in - lp) + lp;
 116              		.loc 2 76 16 view .LVU25
 117 0012 90ED010A 		vldr.32	s0, [r0, #4]
 118              	.LVL6:
  76:../DaisySP/Source/Filters/onepole.h ****         state_ = g_ * (in - lp) + lp;
 119              		.loc 2 76 16 view .LVU26
 120 0016 27EE800A 		vmul.f32	s0, s15, s0
 121              	.LVL7:
  77:../DaisySP/Source/Filters/onepole.h ****         state_ = g_ * (in - lp) + lp;
 122              		.loc 2 77 9 is_stmt 1 view .LVU27
  77:../DaisySP/Source/Filters/onepole.h ****         state_ = g_ * (in - lp) + lp;
 123              		.loc 2 77 27 is_stmt 0 view .LVU28
 124 001a 77EE407A 		vsub.f32	s15, s14, s0
  77:../DaisySP/Source/Filters/onepole.h ****         state_ = g_ * (in - lp) + lp;
 125              		.loc 2 77 33 view .LVU29
 126 001e B0EE407A 		vmov.f32	s14, s0
 127              	.LVL8:
  77:../DaisySP/Source/Filters/onepole.h ****         state_ = g_ * (in - lp) + lp;
 128              		.loc 2 77 33 view .LVU30
 129 0022 A6EEA77A 		vfma.f32	s14, s13, s15
  77:../DaisySP/Source/Filters/onepole.h ****         state_ = g_ * (in - lp) + lp;
 130              		.loc 2 77 16 view .LVU31
 131 0026 80ED027A 		vstr.32	s14, [r0, #8]
 132              		.loc 2 79 9 is_stmt 1 view .LVU32
 133 002a 23B1     		cbz	r3, .L6
 134 002c 012B     		cmp	r3, #1
 135 002e 9FED020A 		vldr.32	s0, .L12
 136              	.LVL9:
 137              		.loc 2 79 9 is_stmt 0 view .LVU33
 138 0032 07FE800A 		vseleq.f32	s0, s15, s0
 139              	.L6:
  80:../DaisySP/Source/Filters/onepole.h ****         {
  81:../DaisySP/Source/Filters/onepole.h ****             case FILTER_MODE_LOW_PASS: return lp;
  82:../DaisySP/Source/Filters/onepole.h ****             case FILTER_MODE_HIGH_PASS: return in - lp;
  83:../DaisySP/Source/Filters/onepole.h ****         }
  84:../DaisySP/Source/Filters/onepole.h **** 
  85:../DaisySP/Source/Filters/onepole.h ****         return 0.0f;
  86:../DaisySP/Source/Filters/onepole.h ****     }
 140              		.loc 2 86 5 view .LVU34
 141 0036 7047     		bx	lr
 142              	.L13:
 143              		.align	2
 144              	.L12:
 145 0038 00000000 		.word	0
 146              		.cfi_endproc
 147              	.LFE4466:
 149              		.section	.rodata._ZN14GrannyChordApp12PrintCPULoadEv.str1.1,"aMS",%progbits,1
 150              	.LC0:
 151 0000 50726F63 		.ascii	"Processing Load %:\000"
 151      65737369 
ARM GAS  /var/folders/2p/02m_5p7958535cp2tpgps0400000gn/T//ccx9FAOt.s 			page 7


 151      6E67204C 
 151      6F616420 
 151      253A00
 152              	.LC1:
 153 0013 4D61783A 		.ascii	"Max: %c%d.%03d\000"
 153      20256325 
 153      642E2530 
 153      336400
 154              	.LC2:
 155 0022 4176673A 		.ascii	"Avg: %c%d.%03d\000"
 155      20256325 
 155      642E2530 
 155      336400
 156              	.LC3:
 157 0031 4D696E3A 		.ascii	"Min: %c%d.%03d\000"
 157      20256325 
 157      642E2530 
 157      336400
 158              		.section	.text._ZN14GrannyChordApp12PrintCPULoadEv,"ax",%progbits
 159              		.align	1
 160              		.global	_ZN14GrannyChordApp12PrintCPULoadEv
 161              		.syntax unified
 162              		.thumb
 163              		.thumb_func
 165              	_ZN14GrannyChordApp12PrintCPULoadEv:
 166              	.LVL10:
 167              	.LFB4904:
 168              		.file 3 "GrannyChordApp.cpp"
   1:GrannyChordApp.cpp **** #ifdef DEBUG_MODE // TODO: remove
   2:GrannyChordApp.cpp **** #pragma message("Debug mode is ON")
   3:GrannyChordApp.cpp **** #else
   4:GrannyChordApp.cpp **** #pragma message("Debug mode is OFF")
   5:GrannyChordApp.cpp **** #endif
   6:GrannyChordApp.cpp **** 
   7:GrannyChordApp.cpp **** #include "GrannyChordApp.h"
   8:GrannyChordApp.cpp **** 
   9:GrannyChordApp.cpp **** /* this is required for AudioCallback as it needs a static object */
  10:GrannyChordApp.cpp **** GrannyChordApp* GrannyChordApp::instance_ = nullptr;
  11:GrannyChordApp.cpp **** 
  12:GrannyChordApp.cpp **** 
  13:GrannyChordApp.cpp **** /// @brief Initialises app state and members and goes through app startup process
  14:GrannyChordApp.cpp **** /// @param left Left channel audio data buffer
  15:GrannyChordApp.cpp **** /// @param right Right channel audio data buffer
  16:GrannyChordApp.cpp **** void GrannyChordApp::Init(int16_t *left, int16_t *right){
  17:GrannyChordApp.cpp ****   left_buf_ = left, right_buf_ = right;
  18:GrannyChordApp.cpp ****   pod_.SetAudioBlockSize(2);
  19:GrannyChordApp.cpp ****   pod_.SetAudioSampleRate(SaiHandle::Config::SampleRate::SAI_48KHZ);
  20:GrannyChordApp.cpp **** 
  21:GrannyChordApp.cpp ****   curr_state_ = AppState::SelectFile;
  22:GrannyChordApp.cpp ****   if (!InitFileMgr()){
  23:GrannyChordApp.cpp ****     DebugPrint(pod_,"File manager failed to init");
  24:GrannyChordApp.cpp ****     pod_.led1.SetRed(1);
  25:GrannyChordApp.cpp ****     pod_.led2.SetRed(1);
  26:GrannyChordApp.cpp ****     pod_.UpdateLeds();
  27:GrannyChordApp.cpp ****     return;
  28:GrannyChordApp.cpp ****   }
  29:GrannyChordApp.cpp ****   loadmeter.Init(pod_.AudioSampleRate(), pod_.AudioBlockSize());
ARM GAS  /var/folders/2p/02m_5p7958535cp2tpgps0400000gn/T//ccx9FAOt.s 			page 8


  30:GrannyChordApp.cpp ****   InitFX();
  31:GrannyChordApp.cpp ****   InitPrevParamVals();
  32:GrannyChordApp.cpp ****   SeedRng();
  33:GrannyChordApp.cpp ****   synth_.Init(left_buf_, right_buf_, 0);
  34:GrannyChordApp.cpp ****   pod_.StartAdc();
  35:GrannyChordApp.cpp **** }
  36:GrannyChordApp.cpp **** 
  37:GrannyChordApp.cpp **** #ifdef DEBUG_MODE
  38:GrannyChordApp.cpp **** void GrannyChordApp::PrintCPULoad(){
 169              		.loc 3 38 36 is_stmt 1 view -0
 170              		.cfi_startproc
 171              		@ args = 0, pretend = 0, frame = 0
 172              		@ frame_needed = 0, uses_anonymous_args = 0
  39:GrannyChordApp.cpp ****   const float avgLoad = loadmeter.GetAvgCpuLoad();
 173              		.loc 3 39 3 view .LVU36
 174              	.LBB386:
 175              	.LBI386:
 176              		.file 4 "../libDaisy/src/util/CpuLoadMeter.h"
   1:../libDaisy/src/util/CpuLoadMeter.h **** #pragma once
   2:../libDaisy/src/util/CpuLoadMeter.h **** 
   3:../libDaisy/src/util/CpuLoadMeter.h **** #include "sys/system.h"
   4:../libDaisy/src/util/CpuLoadMeter.h **** #include <cmath>
   5:../libDaisy/src/util/CpuLoadMeter.h **** 
   6:../libDaisy/src/util/CpuLoadMeter.h **** namespace daisy
   7:../libDaisy/src/util/CpuLoadMeter.h **** {
   8:../libDaisy/src/util/CpuLoadMeter.h **** /** @brief CPU load metering
   9:../libDaisy/src/util/CpuLoadMeter.h ****  *  @author jelliesen
  10:../libDaisy/src/util/CpuLoadMeter.h ****  *  @addtogroup utility
  11:../libDaisy/src/util/CpuLoadMeter.h ****  * 
  12:../libDaisy/src/util/CpuLoadMeter.h ****  *  To measure the CPU load of your audio processing, create a CpuLoadMeter
  13:../libDaisy/src/util/CpuLoadMeter.h ****  *  and initialize it with your block size and sample rate.
  14:../libDaisy/src/util/CpuLoadMeter.h ****  *  Then at the beginning of the audio callback, call `OnBlockStart()`, 
  15:../libDaisy/src/util/CpuLoadMeter.h ****  *  and at the end of the audio callback, call `OnBlockEnd()`.
  16:../libDaisy/src/util/CpuLoadMeter.h ****  *  You can then read out the minimum, maximum and average CPU load.
  17:../libDaisy/src/util/CpuLoadMeter.h ****  */
  18:../libDaisy/src/util/CpuLoadMeter.h **** class CpuLoadMeter
  19:../libDaisy/src/util/CpuLoadMeter.h **** {
  20:../libDaisy/src/util/CpuLoadMeter.h ****   public:
  21:../libDaisy/src/util/CpuLoadMeter.h ****     CpuLoadMeter(){};
  22:../libDaisy/src/util/CpuLoadMeter.h **** 
  23:../libDaisy/src/util/CpuLoadMeter.h ****     /** Initializes the CpuLoadMeter for a particular sample rate and block size.
  24:../libDaisy/src/util/CpuLoadMeter.h ****      *  @param sampleRateInHz           The sample rate in Hz
  25:../libDaisy/src/util/CpuLoadMeter.h ****      *  @param blockSizeInSamples       The block size in samples
  26:../libDaisy/src/util/CpuLoadMeter.h ****      *  @param smoothingFilterCutoffHz  The cutoff frequency of the smoothing filter that's used to
  27:../libDaisy/src/util/CpuLoadMeter.h ****      *                                  create the average CPU load reading.
  28:../libDaisy/src/util/CpuLoadMeter.h ****      */
  29:../libDaisy/src/util/CpuLoadMeter.h ****     void Init(float sampleRateInHz,
  30:../libDaisy/src/util/CpuLoadMeter.h ****               int   blockSizeInSamples,
  31:../libDaisy/src/util/CpuLoadMeter.h ****               float smoothingFilterCutoffHz = 1.0f)
  32:../libDaisy/src/util/CpuLoadMeter.h ****     {
  33:../libDaisy/src/util/CpuLoadMeter.h ****         const auto secPerBlock = float(blockSizeInSamples) / sampleRateInHz;
  34:../libDaisy/src/util/CpuLoadMeter.h ****         const auto ticksPerS   = float(System::GetTickFreq());
  35:../libDaisy/src/util/CpuLoadMeter.h ****         ticksPerBlockInv_      = 1.0f / (ticksPerS * secPerBlock);
  36:../libDaisy/src/util/CpuLoadMeter.h **** 
  37:../libDaisy/src/util/CpuLoadMeter.h ****         // update filter coefficient for smoothing filter (1pole lowpass)
  38:../libDaisy/src/util/CpuLoadMeter.h ****         const auto blockRateInHz = sampleRateInHz / float(blockSizeInSamples);
  39:../libDaisy/src/util/CpuLoadMeter.h ****         const auto cutoffNormalized
ARM GAS  /var/folders/2p/02m_5p7958535cp2tpgps0400000gn/T//ccx9FAOt.s 			page 9


  40:../libDaisy/src/util/CpuLoadMeter.h ****             = smoothingFilterCutoffHz * 2.0f * 3.141592653f / blockRateInHz;
  41:../libDaisy/src/util/CpuLoadMeter.h ****         // according to
  42:../libDaisy/src/util/CpuLoadMeter.h ****         // https://en.wikipedia.org/wiki/Low-pass_filter#Simple_infinite_impulse_response_filter
  43:../libDaisy/src/util/CpuLoadMeter.h ****         smoothingConstant_ = cutoffNormalized / (cutoffNormalized + 1.0f);
  44:../libDaisy/src/util/CpuLoadMeter.h **** 
  45:../libDaisy/src/util/CpuLoadMeter.h ****         Reset();
  46:../libDaisy/src/util/CpuLoadMeter.h ****     }
  47:../libDaisy/src/util/CpuLoadMeter.h **** 
  48:../libDaisy/src/util/CpuLoadMeter.h ****     /** Call this at the beginning of your audio callback */
  49:../libDaisy/src/util/CpuLoadMeter.h ****     void OnBlockStart() { currentBlockStartTicks_ = System::GetTick(); }
  50:../libDaisy/src/util/CpuLoadMeter.h **** 
  51:../libDaisy/src/util/CpuLoadMeter.h ****     /** Call this at the end of your audio callback */
  52:../libDaisy/src/util/CpuLoadMeter.h ****     void OnBlockEnd()
  53:../libDaisy/src/util/CpuLoadMeter.h ****     {
  54:../libDaisy/src/util/CpuLoadMeter.h ****         const auto end         = System::GetTick();
  55:../libDaisy/src/util/CpuLoadMeter.h ****         const auto ticksPassed = end - currentBlockStartTicks_;
  56:../libDaisy/src/util/CpuLoadMeter.h ****         const auto currentBlockLoad
  57:../libDaisy/src/util/CpuLoadMeter.h ****             = float(ticksPassed) * ticksPerBlockInv_; // usPassed / usPerBlock
  58:../libDaisy/src/util/CpuLoadMeter.h **** 
  59:../libDaisy/src/util/CpuLoadMeter.h ****         if(firstCycle_)
  60:../libDaisy/src/util/CpuLoadMeter.h ****         {
  61:../libDaisy/src/util/CpuLoadMeter.h ****             max_ = min_ = avg_ = currentBlockLoad;
  62:../libDaisy/src/util/CpuLoadMeter.h ****             firstCycle_        = false;
  63:../libDaisy/src/util/CpuLoadMeter.h ****         }
  64:../libDaisy/src/util/CpuLoadMeter.h ****         else
  65:../libDaisy/src/util/CpuLoadMeter.h ****         {
  66:../libDaisy/src/util/CpuLoadMeter.h ****             if(currentBlockLoad > max_)
  67:../libDaisy/src/util/CpuLoadMeter.h ****                 max_ = currentBlockLoad;
  68:../libDaisy/src/util/CpuLoadMeter.h ****             if(currentBlockLoad < min_)
  69:../libDaisy/src/util/CpuLoadMeter.h ****                 min_ = currentBlockLoad;
  70:../libDaisy/src/util/CpuLoadMeter.h **** 
  71:../libDaisy/src/util/CpuLoadMeter.h ****             avg_ = smoothingConstant_ * currentBlockLoad
  72:../libDaisy/src/util/CpuLoadMeter.h ****                    + (1.0f - smoothingConstant_) * avg_;
  73:../libDaisy/src/util/CpuLoadMeter.h ****         }
  74:../libDaisy/src/util/CpuLoadMeter.h ****     }
  75:../libDaisy/src/util/CpuLoadMeter.h **** 
  76:../libDaisy/src/util/CpuLoadMeter.h ****     /** Returns the smoothed average CPU load in the range 0..1 */
  77:../libDaisy/src/util/CpuLoadMeter.h ****     float GetAvgCpuLoad() const { return avg_; }
 177              		.loc 4 77 11 view .LVU37
 178              	.LBB387:
 179              		.loc 4 77 35 view .LVU38
 180              	.LBE387:
 181              	.LBE386:
  38:GrannyChordApp.cpp ****   const float avgLoad = loadmeter.GetAvgCpuLoad();
 182              		.loc 3 38 36 is_stmt 0 view .LVU39
 183 0000 10B5     		push	{r4, lr}
 184              		.cfi_def_cfa_offset 8
 185              		.cfi_offset 4, -8
 186              		.cfi_offset 14, -4
 187 0002 2DED068B 		vpush.64	{d8, d9, d10}
 188              		.cfi_def_cfa_offset 32
 189              		.cfi_offset 80, -32
 190              		.cfi_offset 81, -28
 191              		.cfi_offset 82, -24
 192              		.cfi_offset 83, -20
 193              		.cfi_offset 84, -16
 194              		.cfi_offset 85, -12
ARM GAS  /var/folders/2p/02m_5p7958535cp2tpgps0400000gn/T//ccx9FAOt.s 			page 10


 195              	.LBB389:
 196              	.LBB390:
  78:../libDaisy/src/util/CpuLoadMeter.h ****     /** Returns the minimun CPU load observed since the last call to Reset(). */
  79:../libDaisy/src/util/CpuLoadMeter.h ****     float GetMinCpuLoad() const { return min_; }
  80:../libDaisy/src/util/CpuLoadMeter.h ****     /** Returns the maximum CPU load observed since the last call to Reset(). */
  81:../libDaisy/src/util/CpuLoadMeter.h ****     float GetMaxCpuLoad() const { return max_; }
 197              		.loc 4 81 42 view .LVU40
 198 0006 90ED049A 		vldr.32	s18, [r0, #16]
 199              	.LBE390:
 200              	.LBE389:
  40:GrannyChordApp.cpp ****   const float maxLoad = loadmeter.GetMaxCpuLoad();
  41:GrannyChordApp.cpp ****   const float minLoad = loadmeter.GetMinCpuLoad();
  42:GrannyChordApp.cpp ****   pod_.seed.PrintLine("Processing Load %:");
  43:GrannyChordApp.cpp ****   pod_.seed.PrintLine("Max: " FLT_FMT3, FLT_VAR3(maxLoad * 100.0f));
 201              		.loc 3 43 41 view .LVU41
 202 000a DFED37AA 		vldr.32	s21, .L21+8
 203              	.LBB392:
 204              	.LBB388:
  77:../libDaisy/src/util/CpuLoadMeter.h ****     /** Returns the minimun CPU load observed since the last call to Reset(). */
 205              		.loc 4 77 42 view .LVU42
 206 000e D0ED058A 		vldr.32	s17, [r0, #20]
 207              	.LVL11:
  77:../libDaisy/src/util/CpuLoadMeter.h ****     /** Returns the minimun CPU load observed since the last call to Reset(). */
 208              		.loc 4 77 42 view .LVU43
 209              	.LBE388:
 210              	.LBE392:
  40:GrannyChordApp.cpp ****   const float maxLoad = loadmeter.GetMaxCpuLoad();
 211              		.loc 3 40 3 is_stmt 1 view .LVU44
 212              	.LBB393:
 213              	.LBI389:
 214              		.loc 4 81 11 view .LVU45
 215              	.LBB391:
 216              		.loc 4 81 35 view .LVU46
 217              		.loc 4 81 35 is_stmt 0 view .LVU47
 218              	.LBE391:
 219              	.LBE393:
  41:GrannyChordApp.cpp ****   pod_.seed.PrintLine("Processing Load %:");
 220              		.loc 3 41 3 is_stmt 1 view .LVU48
 221              	.LBB394:
 222              	.LBI394:
  79:../libDaisy/src/util/CpuLoadMeter.h ****     /** Returns the maximum CPU load observed since the last call to Reset(). */
 223              		.loc 4 79 11 view .LVU49
 224              	.LBB395:
  79:../libDaisy/src/util/CpuLoadMeter.h ****     /** Returns the maximum CPU load observed since the last call to Reset(). */
 225              		.loc 4 79 35 view .LVU50
  79:../libDaisy/src/util/CpuLoadMeter.h ****     /** Returns the maximum CPU load observed since the last call to Reset(). */
 226              		.loc 4 79 42 is_stmt 0 view .LVU51
 227 0012 90ED038A 		vldr.32	s16, [r0, #12]
 228              	.LVL12:
  79:../libDaisy/src/util/CpuLoadMeter.h ****     /** Returns the maximum CPU load observed since the last call to Reset(). */
 229              		.loc 4 79 42 view .LVU52
 230              	.LBE395:
 231              	.LBE394:
  42:GrannyChordApp.cpp ****   pod_.seed.PrintLine("Max: " FLT_FMT3, FLT_VAR3(maxLoad * 100.0f));
 232              		.loc 3 42 3 is_stmt 1 view .LVU53
 233              	.LBB396:
 234              	.LBI396:
ARM GAS  /var/folders/2p/02m_5p7958535cp2tpgps0400000gn/T//ccx9FAOt.s 			page 11


 235              		.file 5 "../libDaisy/src/daisy_seed.h"
   1:../libDaisy/src/daisy_seed.h **** #pragma once
   2:../libDaisy/src/daisy_seed.h **** #ifndef DSY_SEED_H
   3:../libDaisy/src/daisy_seed.h **** #define DSY_SEED_H
   4:../libDaisy/src/daisy_seed.h **** 
   5:../libDaisy/src/daisy_seed.h **** #include "daisy.h"
   6:../libDaisy/src/daisy_seed.h **** 
   7:../libDaisy/src/daisy_seed.h **** //Uncomment this out if you're still using the rev2 hardware
   8:../libDaisy/src/daisy_seed.h **** //#define SEED_REV2
   9:../libDaisy/src/daisy_seed.h **** 
  10:../libDaisy/src/daisy_seed.h **** namespace daisy
  11:../libDaisy/src/daisy_seed.h **** {
  12:../libDaisy/src/daisy_seed.h **** /**
  13:../libDaisy/src/daisy_seed.h ****    @brief This is the higher-level interface for the Daisy board. \n 
  14:../libDaisy/src/daisy_seed.h ****     All basic peripheral configuration/initialization is setup here. \n
  15:../libDaisy/src/daisy_seed.h **** 
  16:../libDaisy/src/daisy_seed.h ****    @ingroup boards
  17:../libDaisy/src/daisy_seed.h **** */
  18:../libDaisy/src/daisy_seed.h **** class DaisySeed
  19:../libDaisy/src/daisy_seed.h **** {
  20:../libDaisy/src/daisy_seed.h ****   public:
  21:../libDaisy/src/daisy_seed.h ****     DaisySeed() {}
  22:../libDaisy/src/daisy_seed.h ****     ~DaisySeed() {}
  23:../libDaisy/src/daisy_seed.h **** 
  24:../libDaisy/src/daisy_seed.h ****     /** This function used to provide a pre-initialization configuraiton 
  25:../libDaisy/src/daisy_seed.h ****      *  it has since been deprecated, and does nothing.
  26:../libDaisy/src/daisy_seed.h ****      */
  27:../libDaisy/src/daisy_seed.h ****     void Configure();
  28:../libDaisy/src/daisy_seed.h **** 
  29:../libDaisy/src/daisy_seed.h ****     /** 
  30:../libDaisy/src/daisy_seed.h ****     Initializes the Daisy Seed and the following peripherals:
  31:../libDaisy/src/daisy_seed.h ****     SDRAM, QSPI, 24-bit 48kHz Audio via AK4556, Internal USB,
  32:../libDaisy/src/daisy_seed.h ****     as well as the built-in LED and Testpoint.
  33:../libDaisy/src/daisy_seed.h **** 
  34:../libDaisy/src/daisy_seed.h ****     ADCs, DACs, and other special peripherals (such as I2C, SPI, etc.)
  35:../libDaisy/src/daisy_seed.h ****     can be initialized using their specific initializers within libdaisy
  36:../libDaisy/src/daisy_seed.h ****     for a specific application.
  37:../libDaisy/src/daisy_seed.h ****     */
  38:../libDaisy/src/daisy_seed.h ****     void Init(bool boost = false);
  39:../libDaisy/src/daisy_seed.h **** 
  40:../libDaisy/src/daisy_seed.h ****     /** 
  41:../libDaisy/src/daisy_seed.h ****     Deinitializes all peripherals automatically handled by `Init`.
  42:../libDaisy/src/daisy_seed.h ****     */
  43:../libDaisy/src/daisy_seed.h ****     void DeInit();
  44:../libDaisy/src/daisy_seed.h **** 
  45:../libDaisy/src/daisy_seed.h ****     /** 
  46:../libDaisy/src/daisy_seed.h ****     Wait some ms before going on.
  47:../libDaisy/src/daisy_seed.h ****     \param del Delay time in ms.
  48:../libDaisy/src/daisy_seed.h ****     */
  49:../libDaisy/src/daisy_seed.h ****     void DelayMs(size_t del);
  50:../libDaisy/src/daisy_seed.h **** 
  51:../libDaisy/src/daisy_seed.h ****     /** 
  52:../libDaisy/src/daisy_seed.h ****     Returns the gpio_pin corresponding to the index 0-31.
  53:../libDaisy/src/daisy_seed.h ****     For the given GPIO on the Daisy Seed (labeled 1-32 in docs).
  54:../libDaisy/src/daisy_seed.h ****     */
  55:../libDaisy/src/daisy_seed.h ****     static dsy_gpio_pin GetPin(uint8_t pin_idx);
  56:../libDaisy/src/daisy_seed.h **** 
ARM GAS  /var/folders/2p/02m_5p7958535cp2tpgps0400000gn/T//ccx9FAOt.s 			page 12


  57:../libDaisy/src/daisy_seed.h ****     /** Begins the audio for the seeds builtin audio.
  58:../libDaisy/src/daisy_seed.h ****     the specified callback will get called whenever
  59:../libDaisy/src/daisy_seed.h ****     new data is ready to be prepared.
  60:../libDaisy/src/daisy_seed.h ****     */
  61:../libDaisy/src/daisy_seed.h ****     void StartAudio(AudioHandle::InterleavingAudioCallback cb);
  62:../libDaisy/src/daisy_seed.h **** 
  63:../libDaisy/src/daisy_seed.h ****     /** Begins the audio for the seeds builtin audio.
  64:../libDaisy/src/daisy_seed.h ****     the specified callback will get called whenever
  65:../libDaisy/src/daisy_seed.h ****     new data is ready to be prepared.
  66:../libDaisy/src/daisy_seed.h ****     This will use the newer non-interleaved callback.
  67:../libDaisy/src/daisy_seed.h ****     */
  68:../libDaisy/src/daisy_seed.h ****     void StartAudio(AudioHandle::AudioCallback cb);
  69:../libDaisy/src/daisy_seed.h **** 
  70:../libDaisy/src/daisy_seed.h ****     /** Changes to a new interleaved callback
  71:../libDaisy/src/daisy_seed.h ****      */
  72:../libDaisy/src/daisy_seed.h ****     void ChangeAudioCallback(AudioHandle::InterleavingAudioCallback cb);
  73:../libDaisy/src/daisy_seed.h **** 
  74:../libDaisy/src/daisy_seed.h ****     /** Changes to a new multichannel callback
  75:../libDaisy/src/daisy_seed.h ****      */
  76:../libDaisy/src/daisy_seed.h ****     void ChangeAudioCallback(AudioHandle::AudioCallback cb);
  77:../libDaisy/src/daisy_seed.h **** 
  78:../libDaisy/src/daisy_seed.h ****     /** Stops the audio if it is running. */
  79:../libDaisy/src/daisy_seed.h ****     void StopAudio();
  80:../libDaisy/src/daisy_seed.h **** 
  81:../libDaisy/src/daisy_seed.h ****     /** Updates the Audio Sample Rate, and reinitializes.
  82:../libDaisy/src/daisy_seed.h ****      ** Audio must be stopped for this to work.
  83:../libDaisy/src/daisy_seed.h ****      */
  84:../libDaisy/src/daisy_seed.h ****     void SetAudioSampleRate(SaiHandle::Config::SampleRate samplerate);
  85:../libDaisy/src/daisy_seed.h **** 
  86:../libDaisy/src/daisy_seed.h ****     /** Returns the audio sample rate in Hz as a floating point number.
  87:../libDaisy/src/daisy_seed.h ****      */
  88:../libDaisy/src/daisy_seed.h ****     float AudioSampleRate();
  89:../libDaisy/src/daisy_seed.h **** 
  90:../libDaisy/src/daisy_seed.h ****     /** Sets the number of samples processed per channel by the audio callback.
  91:../libDaisy/src/daisy_seed.h ****      */
  92:../libDaisy/src/daisy_seed.h ****     void SetAudioBlockSize(size_t blocksize);
  93:../libDaisy/src/daisy_seed.h **** 
  94:../libDaisy/src/daisy_seed.h ****     /** Returns the number of samples per channel in a block of audio. */
  95:../libDaisy/src/daisy_seed.h ****     size_t AudioBlockSize();
  96:../libDaisy/src/daisy_seed.h **** 
  97:../libDaisy/src/daisy_seed.h ****     /** Returns the rate in Hz that the Audio callback is called */
  98:../libDaisy/src/daisy_seed.h ****     float AudioCallbackRate() const;
  99:../libDaisy/src/daisy_seed.h **** 
 100:../libDaisy/src/daisy_seed.h ****     /** Returns the SAI Handle for the Daisy Seed 
 101:../libDaisy/src/daisy_seed.h ****      *  This can be useful when adding a secondary codec,
 102:../libDaisy/src/daisy_seed.h ****      *  the result of this function can be passed to the audio reinit 
 103:../libDaisy/src/daisy_seed.h ****      *  with an SAI2 configuration
 104:../libDaisy/src/daisy_seed.h ****      */
 105:../libDaisy/src/daisy_seed.h ****     const SaiHandle& AudioSaiHandle() const;
 106:../libDaisy/src/daisy_seed.h **** 
 107:../libDaisy/src/daisy_seed.h ****     /** Sets the state of the built in LED
 108:../libDaisy/src/daisy_seed.h ****      */
 109:../libDaisy/src/daisy_seed.h ****     void SetLed(bool state);
 110:../libDaisy/src/daisy_seed.h **** 
 111:../libDaisy/src/daisy_seed.h ****     /** Sets the state of the test point near pin 10
 112:../libDaisy/src/daisy_seed.h ****      */
 113:../libDaisy/src/daisy_seed.h ****     void SetTestPoint(bool state);
ARM GAS  /var/folders/2p/02m_5p7958535cp2tpgps0400000gn/T//ccx9FAOt.s 			page 13


 114:../libDaisy/src/daisy_seed.h **** 
 115:../libDaisy/src/daisy_seed.h ****     /** Print formatted debug log message
 116:../libDaisy/src/daisy_seed.h ****      */
 117:../libDaisy/src/daisy_seed.h ****     template <typename... VA>
 118:../libDaisy/src/daisy_seed.h ****     static void Print(const char* format, VA... va)
 119:../libDaisy/src/daisy_seed.h ****     {
 120:../libDaisy/src/daisy_seed.h ****         Log::Print(format, va...);
 121:../libDaisy/src/daisy_seed.h ****     }
 122:../libDaisy/src/daisy_seed.h **** 
 123:../libDaisy/src/daisy_seed.h ****     /** Print formatted debug log message with automatic line termination
 124:../libDaisy/src/daisy_seed.h ****     */
 125:../libDaisy/src/daisy_seed.h ****     template <typename... VA>
 126:../libDaisy/src/daisy_seed.h ****     static void PrintLine(const char* format, VA... va)
 236              		.loc 5 126 17 view .LVU54
 237              	.LBB397:
 127:../libDaisy/src/daisy_seed.h ****     {
 128:../libDaisy/src/daisy_seed.h ****         Log::PrintLine(format, va...);
 238              		.loc 5 128 23 is_stmt 0 view .LVU55
 239 0016 3548     		ldr	r0, .L21+12
 240              	.LVL13:
 241              		.loc 5 128 23 view .LVU56
 242 0018 FFF7FEFF 		bl	_ZN5daisy6LoggerILNS_17LoggerDestinationE1EE9PrintLineEPKcz
 243              	.LVL14:
 244              		.loc 5 128 23 view .LVU57
 245              	.LBE397:
 246              	.LBE396:
 247              		.loc 3 43 3 is_stmt 1 view .LVU58
 248              	.LBB398:
 249              	.LBI398:
 250              		.file 6 "/Library/DaisyToolchain/0.2.0/arm/arm-none-eabi/include/c++/10.3.1/bits/std_abs.h"
   1:/Library/DaisyToolchain/0.2.0/arm/arm-none-eabi/include/c++/10.3.1/bits/std_abs.h **** // -*- C++ -*- C library enhancements header.
   2:/Library/DaisyToolchain/0.2.0/arm/arm-none-eabi/include/c++/10.3.1/bits/std_abs.h **** 
   3:/Library/DaisyToolchain/0.2.0/arm/arm-none-eabi/include/c++/10.3.1/bits/std_abs.h **** // Copyright (C) 2016-2020 Free Software Foundation, Inc.
   4:/Library/DaisyToolchain/0.2.0/arm/arm-none-eabi/include/c++/10.3.1/bits/std_abs.h **** //
   5:/Library/DaisyToolchain/0.2.0/arm/arm-none-eabi/include/c++/10.3.1/bits/std_abs.h **** // This file is part of the GNU ISO C++ Library.  This library is free
   6:/Library/DaisyToolchain/0.2.0/arm/arm-none-eabi/include/c++/10.3.1/bits/std_abs.h **** // software; you can redistribute it and/or modify it under the
   7:/Library/DaisyToolchain/0.2.0/arm/arm-none-eabi/include/c++/10.3.1/bits/std_abs.h **** // terms of the GNU General Public License as published by the
   8:/Library/DaisyToolchain/0.2.0/arm/arm-none-eabi/include/c++/10.3.1/bits/std_abs.h **** // Free Software Foundation; either version 3, or (at your option)
   9:/Library/DaisyToolchain/0.2.0/arm/arm-none-eabi/include/c++/10.3.1/bits/std_abs.h **** // any later version.
  10:/Library/DaisyToolchain/0.2.0/arm/arm-none-eabi/include/c++/10.3.1/bits/std_abs.h **** 
  11:/Library/DaisyToolchain/0.2.0/arm/arm-none-eabi/include/c++/10.3.1/bits/std_abs.h **** // This library is distributed in the hope that it will be useful,
  12:/Library/DaisyToolchain/0.2.0/arm/arm-none-eabi/include/c++/10.3.1/bits/std_abs.h **** // but WITHOUT ANY WARRANTY; without even the implied warranty of
  13:/Library/DaisyToolchain/0.2.0/arm/arm-none-eabi/include/c++/10.3.1/bits/std_abs.h **** // MERCHANTABILITY or FITNESS FOR A PARTICULAR PURPOSE.  See the
  14:/Library/DaisyToolchain/0.2.0/arm/arm-none-eabi/include/c++/10.3.1/bits/std_abs.h **** // GNU General Public License for more details.
  15:/Library/DaisyToolchain/0.2.0/arm/arm-none-eabi/include/c++/10.3.1/bits/std_abs.h **** 
  16:/Library/DaisyToolchain/0.2.0/arm/arm-none-eabi/include/c++/10.3.1/bits/std_abs.h **** // Under Section 7 of GPL version 3, you are granted additional
  17:/Library/DaisyToolchain/0.2.0/arm/arm-none-eabi/include/c++/10.3.1/bits/std_abs.h **** // permissions described in the GCC Runtime Library Exception, version
  18:/Library/DaisyToolchain/0.2.0/arm/arm-none-eabi/include/c++/10.3.1/bits/std_abs.h **** // 3.1, as published by the Free Software Foundation.
  19:/Library/DaisyToolchain/0.2.0/arm/arm-none-eabi/include/c++/10.3.1/bits/std_abs.h **** 
  20:/Library/DaisyToolchain/0.2.0/arm/arm-none-eabi/include/c++/10.3.1/bits/std_abs.h **** // You should have received a copy of the GNU General Public License and
  21:/Library/DaisyToolchain/0.2.0/arm/arm-none-eabi/include/c++/10.3.1/bits/std_abs.h **** // a copy of the GCC Runtime Library Exception along with this program;
  22:/Library/DaisyToolchain/0.2.0/arm/arm-none-eabi/include/c++/10.3.1/bits/std_abs.h **** // see the files COPYING3 and COPYING.RUNTIME respectively.  If not, see
  23:/Library/DaisyToolchain/0.2.0/arm/arm-none-eabi/include/c++/10.3.1/bits/std_abs.h **** // <http://www.gnu.org/licenses/>.
  24:/Library/DaisyToolchain/0.2.0/arm/arm-none-eabi/include/c++/10.3.1/bits/std_abs.h **** 
  25:/Library/DaisyToolchain/0.2.0/arm/arm-none-eabi/include/c++/10.3.1/bits/std_abs.h **** /** @file include/bits/std_abs.h
  26:/Library/DaisyToolchain/0.2.0/arm/arm-none-eabi/include/c++/10.3.1/bits/std_abs.h ****  *  This is an internal header file, included by other library headers.
  27:/Library/DaisyToolchain/0.2.0/arm/arm-none-eabi/include/c++/10.3.1/bits/std_abs.h ****  *  Do not attempt to use it directly. @headername{cmath, cstdlib}
ARM GAS  /var/folders/2p/02m_5p7958535cp2tpgps0400000gn/T//ccx9FAOt.s 			page 14


  28:/Library/DaisyToolchain/0.2.0/arm/arm-none-eabi/include/c++/10.3.1/bits/std_abs.h ****  */
  29:/Library/DaisyToolchain/0.2.0/arm/arm-none-eabi/include/c++/10.3.1/bits/std_abs.h **** 
  30:/Library/DaisyToolchain/0.2.0/arm/arm-none-eabi/include/c++/10.3.1/bits/std_abs.h **** #ifndef _GLIBCXX_BITS_STD_ABS_H
  31:/Library/DaisyToolchain/0.2.0/arm/arm-none-eabi/include/c++/10.3.1/bits/std_abs.h **** #define _GLIBCXX_BITS_STD_ABS_H
  32:/Library/DaisyToolchain/0.2.0/arm/arm-none-eabi/include/c++/10.3.1/bits/std_abs.h **** 
  33:/Library/DaisyToolchain/0.2.0/arm/arm-none-eabi/include/c++/10.3.1/bits/std_abs.h **** #pragma GCC system_header
  34:/Library/DaisyToolchain/0.2.0/arm/arm-none-eabi/include/c++/10.3.1/bits/std_abs.h **** 
  35:/Library/DaisyToolchain/0.2.0/arm/arm-none-eabi/include/c++/10.3.1/bits/std_abs.h **** #include <bits/c++config.h>
  36:/Library/DaisyToolchain/0.2.0/arm/arm-none-eabi/include/c++/10.3.1/bits/std_abs.h **** 
  37:/Library/DaisyToolchain/0.2.0/arm/arm-none-eabi/include/c++/10.3.1/bits/std_abs.h **** #define _GLIBCXX_INCLUDE_NEXT_C_HEADERS
  38:/Library/DaisyToolchain/0.2.0/arm/arm-none-eabi/include/c++/10.3.1/bits/std_abs.h **** #include_next <stdlib.h>
  39:/Library/DaisyToolchain/0.2.0/arm/arm-none-eabi/include/c++/10.3.1/bits/std_abs.h **** #ifdef __CORRECT_ISO_CPP_MATH_H_PROTO
  40:/Library/DaisyToolchain/0.2.0/arm/arm-none-eabi/include/c++/10.3.1/bits/std_abs.h **** # include_next <math.h>
  41:/Library/DaisyToolchain/0.2.0/arm/arm-none-eabi/include/c++/10.3.1/bits/std_abs.h **** #endif
  42:/Library/DaisyToolchain/0.2.0/arm/arm-none-eabi/include/c++/10.3.1/bits/std_abs.h **** #undef _GLIBCXX_INCLUDE_NEXT_C_HEADERS
  43:/Library/DaisyToolchain/0.2.0/arm/arm-none-eabi/include/c++/10.3.1/bits/std_abs.h **** 
  44:/Library/DaisyToolchain/0.2.0/arm/arm-none-eabi/include/c++/10.3.1/bits/std_abs.h **** #undef abs
  45:/Library/DaisyToolchain/0.2.0/arm/arm-none-eabi/include/c++/10.3.1/bits/std_abs.h **** 
  46:/Library/DaisyToolchain/0.2.0/arm/arm-none-eabi/include/c++/10.3.1/bits/std_abs.h **** extern "C++"
  47:/Library/DaisyToolchain/0.2.0/arm/arm-none-eabi/include/c++/10.3.1/bits/std_abs.h **** {
  48:/Library/DaisyToolchain/0.2.0/arm/arm-none-eabi/include/c++/10.3.1/bits/std_abs.h **** namespace std _GLIBCXX_VISIBILITY(default)
  49:/Library/DaisyToolchain/0.2.0/arm/arm-none-eabi/include/c++/10.3.1/bits/std_abs.h **** {
  50:/Library/DaisyToolchain/0.2.0/arm/arm-none-eabi/include/c++/10.3.1/bits/std_abs.h **** _GLIBCXX_BEGIN_NAMESPACE_VERSION
  51:/Library/DaisyToolchain/0.2.0/arm/arm-none-eabi/include/c++/10.3.1/bits/std_abs.h **** 
  52:/Library/DaisyToolchain/0.2.0/arm/arm-none-eabi/include/c++/10.3.1/bits/std_abs.h ****   using ::abs;
  53:/Library/DaisyToolchain/0.2.0/arm/arm-none-eabi/include/c++/10.3.1/bits/std_abs.h **** 
  54:/Library/DaisyToolchain/0.2.0/arm/arm-none-eabi/include/c++/10.3.1/bits/std_abs.h **** #ifndef __CORRECT_ISO_CPP_STDLIB_H_PROTO
  55:/Library/DaisyToolchain/0.2.0/arm/arm-none-eabi/include/c++/10.3.1/bits/std_abs.h ****   inline long
  56:/Library/DaisyToolchain/0.2.0/arm/arm-none-eabi/include/c++/10.3.1/bits/std_abs.h ****   abs(long __i) { return __builtin_labs(__i); }
  57:/Library/DaisyToolchain/0.2.0/arm/arm-none-eabi/include/c++/10.3.1/bits/std_abs.h **** #endif
  58:/Library/DaisyToolchain/0.2.0/arm/arm-none-eabi/include/c++/10.3.1/bits/std_abs.h **** 
  59:/Library/DaisyToolchain/0.2.0/arm/arm-none-eabi/include/c++/10.3.1/bits/std_abs.h **** #ifdef _GLIBCXX_USE_LONG_LONG
  60:/Library/DaisyToolchain/0.2.0/arm/arm-none-eabi/include/c++/10.3.1/bits/std_abs.h ****   inline long long
  61:/Library/DaisyToolchain/0.2.0/arm/arm-none-eabi/include/c++/10.3.1/bits/std_abs.h ****   abs(long long __x) { return __builtin_llabs (__x); }
  62:/Library/DaisyToolchain/0.2.0/arm/arm-none-eabi/include/c++/10.3.1/bits/std_abs.h **** #endif
  63:/Library/DaisyToolchain/0.2.0/arm/arm-none-eabi/include/c++/10.3.1/bits/std_abs.h **** 
  64:/Library/DaisyToolchain/0.2.0/arm/arm-none-eabi/include/c++/10.3.1/bits/std_abs.h **** // _GLIBCXX_RESOLVE_LIB_DEFECTS
  65:/Library/DaisyToolchain/0.2.0/arm/arm-none-eabi/include/c++/10.3.1/bits/std_abs.h **** // 2192. Validity and return type of std::abs(0u) is unclear
  66:/Library/DaisyToolchain/0.2.0/arm/arm-none-eabi/include/c++/10.3.1/bits/std_abs.h **** // 2294. <cstdlib> should declare abs(double)
  67:/Library/DaisyToolchain/0.2.0/arm/arm-none-eabi/include/c++/10.3.1/bits/std_abs.h **** // 2735. std::abs(short), std::abs(signed char) and others should return int
  68:/Library/DaisyToolchain/0.2.0/arm/arm-none-eabi/include/c++/10.3.1/bits/std_abs.h **** 
  69:/Library/DaisyToolchain/0.2.0/arm/arm-none-eabi/include/c++/10.3.1/bits/std_abs.h **** #ifndef __CORRECT_ISO_CPP_MATH_H_PROTO
  70:/Library/DaisyToolchain/0.2.0/arm/arm-none-eabi/include/c++/10.3.1/bits/std_abs.h ****   inline _GLIBCXX_CONSTEXPR double
  71:/Library/DaisyToolchain/0.2.0/arm/arm-none-eabi/include/c++/10.3.1/bits/std_abs.h ****   abs(double __x)
  72:/Library/DaisyToolchain/0.2.0/arm/arm-none-eabi/include/c++/10.3.1/bits/std_abs.h ****   { return __builtin_fabs(__x); }
  73:/Library/DaisyToolchain/0.2.0/arm/arm-none-eabi/include/c++/10.3.1/bits/std_abs.h **** 
  74:/Library/DaisyToolchain/0.2.0/arm/arm-none-eabi/include/c++/10.3.1/bits/std_abs.h ****   inline _GLIBCXX_CONSTEXPR float
  75:/Library/DaisyToolchain/0.2.0/arm/arm-none-eabi/include/c++/10.3.1/bits/std_abs.h ****   abs(float __x)
 251              		.loc 6 75 3 view .LVU59
 252              	.LBB399:
  76:/Library/DaisyToolchain/0.2.0/arm/arm-none-eabi/include/c++/10.3.1/bits/std_abs.h ****   { return __builtin_fabsf(__x); }
 253              		.loc 6 76 5 view .LVU60
 254              	.LBE399:
 255              	.LBE398:
 256              		.loc 3 43 41 is_stmt 0 view .LVU61
 257 001c 29EE2A6A 		vmul.f32	s12, s18, s21
 258              	.LVL15:
ARM GAS  /var/folders/2p/02m_5p7958535cp2tpgps0400000gn/T//ccx9FAOt.s 			page 15


 259              		.loc 3 43 22 view .LVU62
 260 0020 9FED33AA 		vldr.32	s20, .L21+16
 261              	.LBB401:
 262              	.LBB402:
 263              		.loc 5 128 23 view .LVU63
 264 0024 3348     		ldr	r0, .L21+20
 265              	.LBE402:
 266              	.LBE401:
 267              		.loc 3 43 22 view .LVU64
 268 0026 B4EECA6A 		vcmpe.f32	s12, s20
 269              	.LBB405:
 270              	.LBB400:
 271              		.loc 6 76 31 view .LVU65
 272 002a B0EEC66A 		vabs.f32	s12, s12
 273              	.LVL16:
 274              		.loc 6 76 31 view .LVU66
 275              	.LBE400:
 276              	.LBE405:
 277              		.loc 3 43 41 view .LVU67
 278 002e 9FED2C9B 		vldr.64	d9, .L21
 279              	.LVL17:
 280              		.loc 3 43 22 view .LVU68
 281 0032 FDEEC67A 		vcvt.s32.f32	s15, s12
 282              	.LVL18:
 283              		.loc 6 76 5 is_stmt 1 view .LVU69
 284              		.loc 6 76 5 view .LVU70
 285              		.loc 3 43 22 is_stmt 0 view .LVU71
 286 0036 F1EE10FA 		vmrs	APSR_nzcv, FPSCR
 287              	.LVL19:
 288              	.LBB406:
 289              	.LBI401:
 126:../libDaisy/src/daisy_seed.h ****     {
 290              		.loc 5 126 17 is_stmt 1 view .LVU72
 291              	.LBE406:
 292              		.loc 3 43 41 is_stmt 0 view .LVU73
 293 003a B8EEE77A 		vcvt.f32.s32	s14, s15
 294              	.LVL20:
 295              	.LBB407:
 296              	.LBB403:
 297              		.loc 5 128 23 view .LVU74
 298 003e 17EE902A 		vmov	r2, s15	@ int
 299 0042 4CBF     		ite	mi
 300 0044 2D21     		movmi	r1, #45
 301 0046 2021     		movpl	r1, #32
 302              	.LBE403:
 303              	.LBE407:
 304              		.loc 3 43 41 view .LVU75
 305 0048 36EE476A 		vsub.f32	s12, s12, s14
 306              	.LVL21:
 307              		.loc 3 43 41 view .LVU76
 308 004c B7EEC66A 		vcvt.f64.f32	d6, s12
 309 0050 26EE096B 		vmul.f64	d6, d6, d9
 310              	.LBB408:
 311              	.LBB404:
 312              		.loc 5 128 23 view .LVU77
 313 0054 BDEEC67B 		vcvt.s32.f64	s14, d6
 314 0058 17EE103A 		vmov	r3, s14	@ int
ARM GAS  /var/folders/2p/02m_5p7958535cp2tpgps0400000gn/T//ccx9FAOt.s 			page 16


 315 005c FFF7FEFF 		bl	_ZN5daisy6LoggerILNS_17LoggerDestinationE1EE9PrintLineEPKcz
 316              	.LVL22:
 317              		.loc 5 128 23 view .LVU78
 318              	.LBE404:
 319              	.LBE408:
  44:GrannyChordApp.cpp ****   pod_.seed.PrintLine("Avg: " FLT_FMT3, FLT_VAR3(avgLoad * 100.0f));
 320              		.loc 3 44 3 is_stmt 1 view .LVU79
 321              	.LBB409:
 322              	.LBI409:
  75:/Library/DaisyToolchain/0.2.0/arm/arm-none-eabi/include/c++/10.3.1/bits/std_abs.h ****   { return __builtin_fabsf(__x); }
 323              		.loc 6 75 3 view .LVU80
 324              	.LBB410:
 325              		.loc 6 76 5 view .LVU81
 326              	.LBE410:
 327              	.LBE409:
 328              		.loc 3 44 41 is_stmt 0 view .LVU82
 329 0060 28EEAA6A 		vmul.f32	s12, s17, s21
 330              	.LVL23:
 331              	.LBB412:
 332              	.LBB413:
 333              		.loc 5 128 23 view .LVU83
 334 0064 2448     		ldr	r0, .L21+24
 335              	.LBE413:
 336              	.LBE412:
 337              		.loc 3 44 22 view .LVU84
 338 0066 B4EECA6A 		vcmpe.f32	s12, s20
 339              	.LBB417:
 340              	.LBB411:
 341              		.loc 6 76 31 view .LVU85
 342 006a B0EEC66A 		vabs.f32	s12, s12
 343              	.LVL24:
 344              		.loc 6 76 31 view .LVU86
 345              	.LBE411:
 346              	.LBE417:
 347              		.loc 3 44 22 view .LVU87
 348 006e F1EE10FA 		vmrs	APSR_nzcv, FPSCR
 349 0072 FDEEC67A 		vcvt.s32.f32	s15, s12
 350              	.LVL25:
 351              		.loc 6 76 5 is_stmt 1 view .LVU88
 352              		.loc 6 76 5 view .LVU89
 353              	.LBB418:
 354              	.LBI412:
 126:../libDaisy/src/daisy_seed.h ****     {
 355              		.loc 5 126 17 view .LVU90
 356              	.LBB414:
 357              		.loc 5 128 23 is_stmt 0 view .LVU91
 358 0076 4CBF     		ite	mi
 359 0078 2D21     		movmi	r1, #45
 360 007a 2021     		movpl	r1, #32
 361              	.LBE414:
 362              	.LBE418:
 363              		.loc 3 44 41 view .LVU92
 364 007c B8EEE77A 		vcvt.f32.s32	s14, s15
 365              	.LVL26:
 366              	.LBB419:
 367              	.LBB415:
 368              		.loc 5 128 23 view .LVU93
ARM GAS  /var/folders/2p/02m_5p7958535cp2tpgps0400000gn/T//ccx9FAOt.s 			page 17


 369 0080 17EE902A 		vmov	r2, s15	@ int
 370              	.LBE415:
 371              	.LBE419:
 372              		.loc 3 44 41 view .LVU94
 373 0084 36EE476A 		vsub.f32	s12, s12, s14
 374              	.LVL27:
 375              		.loc 3 44 41 view .LVU95
 376 0088 B7EEC66A 		vcvt.f64.f32	d6, s12
 377 008c 26EE096B 		vmul.f64	d6, d6, d9
 378              	.LBB420:
 379              	.LBB416:
 380              		.loc 5 128 23 view .LVU96
 381 0090 BDEEC67B 		vcvt.s32.f64	s14, d6
 382              	.LVL28:
 383              		.loc 5 128 23 view .LVU97
 384 0094 17EE103A 		vmov	r3, s14	@ int
 385 0098 FFF7FEFF 		bl	_ZN5daisy6LoggerILNS_17LoggerDestinationE1EE9PrintLineEPKcz
 386              	.LVL29:
 387              		.loc 5 128 23 view .LVU98
 388              	.LBE416:
 389              	.LBE420:
  45:GrannyChordApp.cpp ****   pod_.seed.PrintLine("Min: " FLT_FMT3, FLT_VAR3(minLoad * 100.0f));
 390              		.loc 3 45 3 is_stmt 1 view .LVU99
 391              	.LBB421:
 392              	.LBI421:
  75:/Library/DaisyToolchain/0.2.0/arm/arm-none-eabi/include/c++/10.3.1/bits/std_abs.h ****   { return __builtin_fabsf(__x); }
 393              		.loc 6 75 3 view .LVU100
 394              	.LBB422:
 395              		.loc 6 76 5 view .LVU101
 396              	.LBE422:
 397              	.LBE421:
 398              		.loc 3 45 41 is_stmt 0 view .LVU102
 399 009c 28EE2A7A 		vmul.f32	s14, s16, s21
 400              	.LVL30:
 401              	.LBB424:
 402              	.LBB425:
 403              		.loc 5 128 23 view .LVU103
 404 00a0 1648     		ldr	r0, .L21+28
 405              	.LBE425:
 406              	.LBE424:
 407              		.loc 3 45 22 view .LVU104
 408 00a2 B4EECA7A 		vcmpe.f32	s14, s20
 409              	.LBB430:
 410              	.LBB423:
 411              		.loc 6 76 31 view .LVU105
 412 00a6 B0EEC77A 		vabs.f32	s14, s14
 413              	.LVL31:
 414              		.loc 6 76 31 view .LVU106
 415              	.LBE423:
 416              	.LBE430:
 417              		.loc 3 45 22 view .LVU107
 418 00aa F1EE10FA 		vmrs	APSR_nzcv, FPSCR
 419 00ae FDEEC76A 		vcvt.s32.f32	s13, s14
 420              	.LVL32:
 421              		.loc 6 76 5 is_stmt 1 view .LVU108
 422              		.loc 6 76 5 view .LVU109
 423              	.LBB431:
ARM GAS  /var/folders/2p/02m_5p7958535cp2tpgps0400000gn/T//ccx9FAOt.s 			page 18


 424              	.LBI424:
 126:../libDaisy/src/daisy_seed.h ****     {
 425              		.loc 5 126 17 view .LVU110
 426              	.LBB426:
 427              		.loc 5 128 23 is_stmt 0 view .LVU111
 428 00b2 4CBF     		ite	mi
 429 00b4 2D21     		movmi	r1, #45
 430 00b6 2021     		movpl	r1, #32
 431              	.LBE426:
 432              	.LBE431:
 433              		.loc 3 45 41 view .LVU112
 434 00b8 F8EEE67A 		vcvt.f32.s32	s15, s13
 435              	.LVL33:
 436              	.LBB432:
 437              	.LBB427:
 438              		.loc 5 128 23 view .LVU113
 439 00bc 16EE902A 		vmov	r2, s13	@ int
 440              	.LBE427:
 441              	.LBE432:
 442              		.loc 3 45 41 view .LVU114
 443 00c0 37EE677A 		vsub.f32	s14, s14, s15
 444              	.LVL34:
 445              		.loc 3 45 41 view .LVU115
 446 00c4 B7EEC77A 		vcvt.f64.f32	d7, s14
 447 00c8 27EE097B 		vmul.f64	d7, d7, d9
  46:GrannyChordApp.cpp **** }
 448              		.loc 3 46 1 view .LVU116
 449 00cc BDEC068B 		vldm	sp!, {d8-d10}
 450              		.cfi_restore 84
 451              		.cfi_restore 85
 452              		.cfi_restore 82
 453              		.cfi_restore 83
 454              		.cfi_restore 80
 455              		.cfi_restore 81
 456              		.cfi_def_cfa_offset 8
 457              	.LVL35:
 458              	.LBB433:
 459              	.LBB428:
 460              		.loc 5 128 23 view .LVU117
 461 00d0 FDEEC77B 		vcvt.s32.f64	s15, d7
 462              	.LBE428:
 463              	.LBE433:
 464              		.loc 3 46 1 view .LVU118
 465 00d4 BDE81040 		pop	{r4, lr}
 466              		.cfi_restore 14
 467              		.cfi_restore 4
 468              		.cfi_def_cfa_offset 0
 469              	.LBB434:
 470              	.LBB429:
 471              		.loc 5 128 23 view .LVU119
 472 00d8 17EE903A 		vmov	r3, s15	@ int
 473 00dc FFF7FEBF 		b	_ZN5daisy6LoggerILNS_17LoggerDestinationE1EE9PrintLineEPKcz
 474              	.LVL36:
 475              	.L22:
 476              		.loc 5 128 23 view .LVU120
 477              		.align	3
 478              	.L21:
ARM GAS  /var/folders/2p/02m_5p7958535cp2tpgps0400000gn/T//ccx9FAOt.s 			page 19


 479 00e0 00000000 		.word	0
 480 00e4 00408F40 		.word	1083129856
 481 00e8 0000C842 		.word	1120403456
 482 00ec 00000000 		.word	.LC0
 483 00f0 00000000 		.word	0
 484 00f4 13000000 		.word	.LC1
 485 00f8 22000000 		.word	.LC2
 486 00fc 31000000 		.word	.LC3
 487              	.LBE429:
 488              	.LBE434:
 489              		.cfi_endproc
 490              	.LFE4904:
 492              		.section	.text._ZN14GrannyChordApp20HandleEncoderPressedEv,"ax",%progbits
 493              		.align	1
 494              		.global	_ZN14GrannyChordApp20HandleEncoderPressedEv
 495              		.syntax unified
 496              		.thumb
 497              		.thumb_func
 499              	_ZN14GrannyChordApp20HandleEncoderPressedEv:
 500              	.LVL37:
 501              	.LFB4910:
  47:GrannyChordApp.cpp **** #endif
  48:GrannyChordApp.cpp **** 
  49:GrannyChordApp.cpp **** /// @brief Loops whilst app is running, updating state and UI, handling 
  50:GrannyChordApp.cpp **** ///        state transitions, updating parameters and managing audio recordings
  51:GrannyChordApp.cpp **** void GrannyChordApp::Run(){
  52:GrannyChordApp.cpp ****   pod_.seed.PrintLine("app is running");
  53:GrannyChordApp.cpp ****   while(true){
  54:GrannyChordApp.cpp ****     // #ifdef DEBUG_MODE
  55:GrannyChordApp.cpp ****     // loop_count++;
  56:GrannyChordApp.cpp ****     // if (loop_count%2000000==0){
  57:GrannyChordApp.cpp ****     //   PrintCPULoad();
  58:GrannyChordApp.cpp ****     //   loop_count=0;
  59:GrannyChordApp.cpp ****     //   // System::Delay(500);
  60:GrannyChordApp.cpp ****     // }
  61:GrannyChordApp.cpp ****     // #endif
  62:GrannyChordApp.cpp **** 
  63:GrannyChordApp.cpp ****     if (recording_out_) {
  64:GrannyChordApp.cpp ****       sd_writer_.Write();
  65:GrannyChordApp.cpp ****       if (sd_writer_.GetLengthSeconds()>120){
  66:GrannyChordApp.cpp ****         sd_writer_.SaveFile();
  67:GrannyChordApp.cpp ****         recording_out_ = false;
  68:GrannyChordApp.cpp ****       }
  69:GrannyChordApp.cpp ****     }
  70:GrannyChordApp.cpp ****     UpdateUI();
  71:GrannyChordApp.cpp ****     UpdateSynthParams();
  72:GrannyChordApp.cpp ****     // System::Delay(1);
  73:GrannyChordApp.cpp ****   }
  74:GrannyChordApp.cpp **** }
  75:GrannyChordApp.cpp **** 
  76:GrannyChordApp.cpp **** /// @brief Handles hardware control inputs and calls state change methods
  77:GrannyChordApp.cpp **** void GrannyChordApp::UpdateUI(){
  78:GrannyChordApp.cpp ****   pod_.ProcessDigitalControls();
  79:GrannyChordApp.cpp **** 
  80:GrannyChordApp.cpp ****   if (pod_.encoder.TimeHeldMs() > 1000.0f) HandleEncoderLongPress();
  81:GrannyChordApp.cpp ****   else if (pod_.encoder.FallingEdge()) HandleEncoderPressed();
  82:GrannyChordApp.cpp **** 
ARM GAS  /var/folders/2p/02m_5p7958535cp2tpgps0400000gn/T//ccx9FAOt.s 			page 20


  83:GrannyChordApp.cpp ****   if (curr_state_==AppState::Synthesis){
  84:GrannyChordApp.cpp ****     ButtonHandler();
  85:GrannyChordApp.cpp ****   }
  86:GrannyChordApp.cpp **** 
  87:GrannyChordApp.cpp ****   int32_t encoder_inc = pod_.encoder.Increment();
  88:GrannyChordApp.cpp ****   if (encoder_inc!=0){
  89:GrannyChordApp.cpp ****     HandleEncoderIncrement(encoder_inc);
  90:GrannyChordApp.cpp ****   }
  91:GrannyChordApp.cpp ****   if (curr_state_ != next_state_){
  92:GrannyChordApp.cpp ****     #ifdef DEBUG_MODE
  93:GrannyChordApp.cpp ****     DebugPrintState(curr_state_);
  94:GrannyChordApp.cpp ****     DebugPrint(pod_, "switching states");
  95:GrannyChordApp.cpp ****     DebugPrintState(next_state_);
  96:GrannyChordApp.cpp ****     #endif
  97:GrannyChordApp.cpp ****     HandleStateChange();
  98:GrannyChordApp.cpp ****   }
  99:GrannyChordApp.cpp **** }
 100:GrannyChordApp.cpp **** 
 101:GrannyChordApp.cpp **** /// @brief handles transitions between states and prepares for next state
 102:GrannyChordApp.cpp **** void GrannyChordApp::HandleStateChange(){
 103:GrannyChordApp.cpp ****   switch(next_state_){
 104:GrannyChordApp.cpp ****     case AppState::SelectFile:
 105:GrannyChordApp.cpp ****       pod_.StopAudio();
 106:GrannyChordApp.cpp ****       curr_state_ = AppState::SelectFile;
 107:GrannyChordApp.cpp ****       break; 
 108:GrannyChordApp.cpp ****     case AppState::RecordIn:
 109:GrannyChordApp.cpp ****       InitRecordIn();
 110:GrannyChordApp.cpp ****       DebugPrint(pod_, "Recording in");
 111:GrannyChordApp.cpp ****       curr_state_ = AppState::RecordIn;  
 112:GrannyChordApp.cpp ****       break;
 113:GrannyChordApp.cpp ****     case AppState::PlayWAV:
 114:GrannyChordApp.cpp ****       InitPlayback(); 
 115:GrannyChordApp.cpp ****       curr_state_ = AppState::PlayWAV;
 116:GrannyChordApp.cpp ****       break;
 117:GrannyChordApp.cpp ****     case AppState::Synthesis:
 118:GrannyChordApp.cpp ****       InitSynth();
 119:GrannyChordApp.cpp ****       curr_state_ = AppState::Synthesis;
 120:GrannyChordApp.cpp ****       DebugPrint(pod_, "started audiocallback");
 121:GrannyChordApp.cpp ****       break;
 122:GrannyChordApp.cpp ****     case AppState::Error: 
 123:GrannyChordApp.cpp ****       curr_state_ = AppState::Error;
 124:GrannyChordApp.cpp ****       break;
 125:GrannyChordApp.cpp ****     default: 
 126:GrannyChordApp.cpp ****       break;
 127:GrannyChordApp.cpp ****   }
 128:GrannyChordApp.cpp ****   SetLed1AppState();
 129:GrannyChordApp.cpp **** }
 130:GrannyChordApp.cpp **** 
 131:GrannyChordApp.cpp **** /// @brief Handles when encoder is scrolled to select a file 
 132:GrannyChordApp.cpp **** /// @param encoder_inc amount the encoder has been scrolled/incremented
 133:GrannyChordApp.cpp **** void GrannyChordApp::HandleEncoderIncrement(int encoder_inc){
 134:GrannyChordApp.cpp ****   if (next_state_== AppState::SelectFile){
 135:GrannyChordApp.cpp ****     recorded_in_ = false;
 136:GrannyChordApp.cpp ****     HandleFileSelection(encoder_inc);
 137:GrannyChordApp.cpp ****   }
 138:GrannyChordApp.cpp ****   else if (curr_state_==AppState::PlayWAV){
 139:GrannyChordApp.cpp ****     recorded_in_ = false;
ARM GAS  /var/folders/2p/02m_5p7958535cp2tpgps0400000gn/T//ccx9FAOt.s 			page 21


 140:GrannyChordApp.cpp ****     next_state_ = AppState::SelectFile;
 141:GrannyChordApp.cpp ****   }
 142:GrannyChordApp.cpp **** }
 143:GrannyChordApp.cpp **** 
 144:GrannyChordApp.cpp **** /// @brief handles when the encoder is pressed down (not held)
 145:GrannyChordApp.cpp **** void GrannyChordApp::HandleEncoderPressed(){
 502              		.loc 3 145 44 is_stmt 1 view -0
 503              		.cfi_startproc
 504              		@ args = 0, pretend = 0, frame = 0
 505              		@ frame_needed = 0, uses_anonymous_args = 0
 506              		@ link register save eliminated.
 146:GrannyChordApp.cpp ****   switch(curr_state_){
 507              		.loc 3 146 3 view .LVU122
 508              		.loc 3 146 10 is_stmt 0 view .LVU123
 509 0000 D0F83834 		ldr	r3, [r0, #1080]
 510              		.loc 3 146 3 view .LVU124
 511 0004 012B     		cmp	r3, #1
 512 0006 0CD0     		beq	.L24
 513 0008 032B     		cmp	r3, #3
 514 000a 04D0     		beq	.L25
 515 000c 13B9     		cbnz	r3, .L23
 147:GrannyChordApp.cpp ****     case AppState::SelectFile:
 516              		.loc 3 147 5 is_stmt 1 view .LVU125
 148:GrannyChordApp.cpp ****       next_state_ = AppState::PlayWAV;
 517              		.loc 3 148 7 view .LVU126
 518              		.loc 3 148 19 is_stmt 0 view .LVU127
 519 000e 0123     		movs	r3, #1
 520              	.L27:
 149:GrannyChordApp.cpp ****       return;
 150:GrannyChordApp.cpp ****     case AppState::RecordIn: 
 151:GrannyChordApp.cpp ****       recorded_in_ = true;
 152:GrannyChordApp.cpp ****       next_state_ = AppState::PlayWAV; 
 153:GrannyChordApp.cpp ****       return;
 154:GrannyChordApp.cpp ****     case AppState::PlayWAV:
 155:GrannyChordApp.cpp ****       next_state_ = AppState::Synthesis;
 521              		.loc 3 155 19 view .LVU128
 522 0010 C0F83C34 		str	r3, [r0, #1084]
 156:GrannyChordApp.cpp ****       return;
 523              		.loc 3 156 7 is_stmt 1 view .LVU129
 524              	.L23:
 157:GrannyChordApp.cpp ****     default:
 158:GrannyChordApp.cpp ****       return;
 159:GrannyChordApp.cpp ****   }
 160:GrannyChordApp.cpp **** }
 525              		.loc 3 160 1 is_stmt 0 view .LVU130
 526 0014 7047     		bx	lr
 527              	.L25:
 150:GrannyChordApp.cpp ****       recorded_in_ = true;
 528              		.loc 3 150 5 is_stmt 1 view .LVU131
 151:GrannyChordApp.cpp ****       next_state_ = AppState::PlayWAV; 
 529              		.loc 3 151 7 view .LVU132
 151:GrannyChordApp.cpp ****       next_state_ = AppState::PlayWAV; 
 530              		.loc 3 151 20 is_stmt 0 view .LVU133
 531 0016 00F50042 		add	r2, r0, #32768
 532 001a 0123     		movs	r3, #1
 533 001c 82F86C38 		strb	r3, [r2, #2156]
 152:GrannyChordApp.cpp ****       return;
ARM GAS  /var/folders/2p/02m_5p7958535cp2tpgps0400000gn/T//ccx9FAOt.s 			page 22


 534              		.loc 3 152 7 is_stmt 1 view .LVU134
 535 0020 F6E7     		b	.L27
 536              	.L24:
 154:GrannyChordApp.cpp ****       next_state_ = AppState::Synthesis;
 537              		.loc 3 154 5 view .LVU135
 155:GrannyChordApp.cpp ****       return;
 538              		.loc 3 155 7 view .LVU136
 155:GrannyChordApp.cpp ****       return;
 539              		.loc 3 155 19 is_stmt 0 view .LVU137
 540 0022 0223     		movs	r3, #2
 541 0024 F4E7     		b	.L27
 542              		.cfi_endproc
 543              	.LFE4910:
 545              		.section	.text._ZN14GrannyChordApp22HandleEncoderLongPressEv,"ax",%progbits
 546              		.align	1
 547              		.global	_ZN14GrannyChordApp22HandleEncoderLongPressEv
 548              		.syntax unified
 549              		.thumb
 550              		.thumb_func
 552              	_ZN14GrannyChordApp22HandleEncoderLongPressEv:
 553              	.LVL38:
 554              	.LFB4911:
 161:GrannyChordApp.cpp **** 
 162:GrannyChordApp.cpp **** /// @brief switch between states by long pressing encoder.
 163:GrannyChordApp.cpp **** ///        much simpler than below!
 164:GrannyChordApp.cpp **** void GrannyChordApp::HandleEncoderLongPress(){
 555              		.loc 3 164 46 is_stmt 1 view -0
 556              		.cfi_startproc
 557              		@ args = 0, pretend = 0, frame = 0
 558              		@ frame_needed = 0, uses_anonymous_args = 0
 559              		.loc 3 164 46 is_stmt 0 view .LVU139
 560 0000 10B5     		push	{r4, lr}
 561              		.cfi_def_cfa_offset 8
 562              		.cfi_offset 4, -8
 563              		.cfi_offset 14, -4
 564 0002 0446     		mov	r4, r0
 565              	.LVL39:
 566              	.L34:
 165:GrannyChordApp.cpp ****   do { pod_.encoder.Debounce();  }
 567              		.loc 3 165 3 is_stmt 1 view .LVU140
 568              		.loc 3 165 8 view .LVU141
 569              		.loc 3 165 29 is_stmt 0 view .LVU142
 570 0004 E069     		ldr	r0, [r4, #28]
 571 0006 4030     		adds	r0, r0, #64
 572 0008 FFF7FEFF 		bl	_ZN5daisy7Encoder8DebounceEv
 573              	.LVL40:
 166:GrannyChordApp.cpp ****   while(!pod_.encoder.FallingEdge());
 574              		.loc 3 166 9 is_stmt 1 view .LVU143
 575              		.loc 3 166 10 is_stmt 0 view .LVU144
 576 000c E369     		ldr	r3, [r4, #28]
 577              	.LVL41:
 578              	.LBB439:
 579              	.LBI439:
 580              		.file 7 "../libDaisy/src/hid/encoder.h"
   1:../libDaisy/src/hid/encoder.h **** #pragma once
   2:../libDaisy/src/hid/encoder.h **** #ifndef DSY_ENCODER_H
   3:../libDaisy/src/hid/encoder.h **** #define DSY_ENCODER_H
ARM GAS  /var/folders/2p/02m_5p7958535cp2tpgps0400000gn/T//ccx9FAOt.s 			page 23


   4:../libDaisy/src/hid/encoder.h **** #include "daisy_core.h"
   5:../libDaisy/src/hid/encoder.h **** #include "per/gpio.h"
   6:../libDaisy/src/hid/encoder.h **** #include "hid/switch.h"
   7:../libDaisy/src/hid/encoder.h **** 
   8:../libDaisy/src/hid/encoder.h **** namespace daisy
   9:../libDaisy/src/hid/encoder.h **** {
  10:../libDaisy/src/hid/encoder.h **** /** 
  11:../libDaisy/src/hid/encoder.h ****     @brief Generic Class for handling Quadrature Encoders \n 
  12:../libDaisy/src/hid/encoder.h ****     Inspired/influenced by Mutable Instruments (pichenettes) Encoder classes
  13:../libDaisy/src/hid/encoder.h ****     @author Stephen Hensley
  14:../libDaisy/src/hid/encoder.h ****     @date December 2019
  15:../libDaisy/src/hid/encoder.h ****     @ingroup controls
  16:../libDaisy/src/hid/encoder.h **** */
  17:../libDaisy/src/hid/encoder.h **** class Encoder
  18:../libDaisy/src/hid/encoder.h **** {
  19:../libDaisy/src/hid/encoder.h ****   public:
  20:../libDaisy/src/hid/encoder.h ****     Encoder() {}
  21:../libDaisy/src/hid/encoder.h ****     ~Encoder() {}
  22:../libDaisy/src/hid/encoder.h **** 
  23:../libDaisy/src/hid/encoder.h ****     /** Initializes the encoder with the specified hardware pins.
  24:../libDaisy/src/hid/encoder.h ****      * Update rate is to be deprecated in a future release
  25:../libDaisy/src/hid/encoder.h ****      */
  26:../libDaisy/src/hid/encoder.h ****     void Init(dsy_gpio_pin a,
  27:../libDaisy/src/hid/encoder.h ****               dsy_gpio_pin b,
  28:../libDaisy/src/hid/encoder.h ****               dsy_gpio_pin click,
  29:../libDaisy/src/hid/encoder.h ****               float        update_rate = 0.f);
  30:../libDaisy/src/hid/encoder.h ****     /** Called at update_rate to debounce and handle timing for the switch.
  31:../libDaisy/src/hid/encoder.h ****      * In order for events not to be missed, its important that the Edge/Pressed checks be made at 
  32:../libDaisy/src/hid/encoder.h ****      */
  33:../libDaisy/src/hid/encoder.h ****     void Debounce();
  34:../libDaisy/src/hid/encoder.h **** 
  35:../libDaisy/src/hid/encoder.h ****     /** Returns +1 if the encoder was turned clockwise, -1 if it was turned counter-clockwise, or 0
  36:../libDaisy/src/hid/encoder.h ****     inline int32_t Increment() const { return updated_ ? inc_ : 0; }
  37:../libDaisy/src/hid/encoder.h **** 
  38:../libDaisy/src/hid/encoder.h ****     /** Returns true if the encoder was just pressed. */
  39:../libDaisy/src/hid/encoder.h ****     inline bool RisingEdge() const { return sw_.RisingEdge(); }
  40:../libDaisy/src/hid/encoder.h **** 
  41:../libDaisy/src/hid/encoder.h ****     /** Returns true if the encoder was just released. */
  42:../libDaisy/src/hid/encoder.h ****     inline bool FallingEdge() const { return sw_.FallingEdge(); }
 581              		.loc 7 42 17 is_stmt 1 view .LVU145
 582              	.LBE439:
 583              		.loc 7 42 39 view .LVU146
 584              	.LBB442:
 585              	.LBB440:
 586              	.LBI440:
  73:../libDaisy/src/hid/switch.h ****     {
 587              		.loc 1 73 17 view .LVU147
 588              	.LBB441:
  75:../libDaisy/src/hid/switch.h ****     }
 589              		.loc 1 75 9 view .LVU148
  75:../libDaisy/src/hid/switch.h ****     }
 590              		.loc 1 75 25 is_stmt 0 view .LVU149
 591 000e 93F84C20 		ldrb	r2, [r3, #76]	@ zero_extendqisi2
 592 0012 002A     		cmp	r2, #0
 593 0014 F6D0     		beq	.L34
 594              	.LVL42:
  75:../libDaisy/src/hid/switch.h ****     }
ARM GAS  /var/folders/2p/02m_5p7958535cp2tpgps0400000gn/T//ccx9FAOt.s 			page 24


 595              		.loc 1 75 25 view .LVU150
 596              	.LBE441:
 597              	.LBE440:
 598              	.LBE442:
 599              		.loc 3 166 9 view .LVU151
 600 0016 93F85230 		ldrb	r3, [r3, #82]	@ zero_extendqisi2
 601 001a 802B     		cmp	r3, #128
 602 001c F2D1     		bne	.L34
 167:GrannyChordApp.cpp ****   switch(curr_state_){
 603              		.loc 3 167 3 is_stmt 1 view .LVU152
 604              		.loc 3 167 10 is_stmt 0 view .LVU153
 605 001e D4F83834 		ldr	r3, [r4, #1080]
 606              		.loc 3 167 3 view .LVU154
 607 0022 012B     		cmp	r3, #1
 608 0024 08DC     		bgt	.L30
 609 0026 002B     		cmp	r3, #0
 610 0028 0CDB     		blt	.L28
 168:GrannyChordApp.cpp ****     case AppState::Synthesis:
 169:GrannyChordApp.cpp ****     case AppState::RecordIn:  
 170:GrannyChordApp.cpp ****       next_state_ = AppState::SelectFile;
 171:GrannyChordApp.cpp ****       return;
 172:GrannyChordApp.cpp ****     case AppState::SelectFile:
 611              		.loc 3 172 5 is_stmt 1 view .LVU155
 173:GrannyChordApp.cpp ****     case AppState::PlayWAV: 
 612              		.loc 3 173 5 view .LVU156
 174:GrannyChordApp.cpp ****       recorded_in_ = true;
 613              		.loc 3 174 7 view .LVU157
 614              		.loc 3 174 20 is_stmt 0 view .LVU158
 615 002a 04F50043 		add	r3, r4, #32768
 616 002e 0122     		movs	r2, #1
 617 0030 83F86C28 		strb	r2, [r3, #2156]
 175:GrannyChordApp.cpp ****       next_state_ = AppState::RecordIn;  
 618              		.loc 3 175 7 is_stmt 1 view .LVU159
 619              		.loc 3 175 19 is_stmt 0 view .LVU160
 620 0034 0323     		movs	r3, #3
 621 0036 03E0     		b	.L36
 622              	.L30:
 167:GrannyChordApp.cpp ****     case AppState::Synthesis:
 623              		.loc 3 167 3 view .LVU161
 624 0038 023B     		subs	r3, r3, #2
 625 003a 012B     		cmp	r3, #1
 626 003c 02D8     		bhi	.L28
 168:GrannyChordApp.cpp ****     case AppState::RecordIn:  
 627              		.loc 3 168 5 is_stmt 1 view .LVU162
 169:GrannyChordApp.cpp ****       next_state_ = AppState::SelectFile;
 628              		.loc 3 169 5 view .LVU163
 170:GrannyChordApp.cpp ****       return;
 629              		.loc 3 170 7 view .LVU164
 170:GrannyChordApp.cpp ****       return;
 630              		.loc 3 170 19 is_stmt 0 view .LVU165
 631 003e 0023     		movs	r3, #0
 632              	.L36:
 633              		.loc 3 175 19 view .LVU166
 634 0040 C4F83C34 		str	r3, [r4, #1084]
 176:GrannyChordApp.cpp ****       return;
 635              		.loc 3 176 7 is_stmt 1 view .LVU167
 636              	.L28:
ARM GAS  /var/folders/2p/02m_5p7958535cp2tpgps0400000gn/T//ccx9FAOt.s 			page 25


 177:GrannyChordApp.cpp ****     default:
 178:GrannyChordApp.cpp ****       return;
 179:GrannyChordApp.cpp ****   }
 180:GrannyChordApp.cpp **** }
 637              		.loc 3 180 1 is_stmt 0 view .LVU168
 638 0044 10BD     		pop	{r4, pc}
 639              		.loc 3 180 1 view .LVU169
 640              		.cfi_endproc
 641              	.LFE4911:
 643              		.section	.rodata._ZN14GrannyChordApp19HandleFileSelectionEl.str1.1,"aMS",%progbits,1
 644              	.LC4:
 645 0000 73656C65 		.ascii	"selected file %d %s\000"
 645      63746564 
 645      2066696C 
 645      65202564 
 645      20257300 
 646              		.section	.text._ZN14GrannyChordApp19HandleFileSelectionEl,"ax",%progbits
 647              		.align	1
 648              		.global	_ZN14GrannyChordApp19HandleFileSelectionEl
 649              		.syntax unified
 650              		.thumb
 651              		.thumb_func
 653              	_ZN14GrannyChordApp19HandleFileSelectionEl:
 654              	.LVL43:
 655              	.LFB4917:
 181:GrannyChordApp.cpp **** 
 182:GrannyChordApp.cpp **** /* this logic is required for button long presses:
 183:GrannyChordApp.cpp ****   the button update rate is extremely fast so without
 184:GrannyChordApp.cpp ****   a debounce delay, the method eg HandleButton1LongPress 
 185:GrannyChordApp.cpp ****   will be called many 1000s of times per second 
 186:GrannyChordApp.cpp ****   once time held > 1000ms, causing issues */
 187:GrannyChordApp.cpp **** void GrannyChordApp::ButtonHandler(){
 188:GrannyChordApp.cpp ****   unsigned long time_now = System::GetNow();
 189:GrannyChordApp.cpp ****   /* only check button events if there's been a gap between them */
 190:GrannyChordApp.cpp ****   if (time_now - last_action_time_ < DEBOUNCE_DELAY) {
 191:GrannyChordApp.cpp ****     return;
 192:GrannyChordApp.cpp ****   }
 193:GrannyChordApp.cpp **** 
 194:GrannyChordApp.cpp ****   /* store whether button 1 has been pressed down initiall*/
 195:GrannyChordApp.cpp ****   if (pod_.button1.RisingEdge()){
 196:GrannyChordApp.cpp ****     last_action_time_ = time_now;
 197:GrannyChordApp.cpp ****     btn1_long_press_fired_ = false;
 198:GrannyChordApp.cpp ****   }
 199:GrannyChordApp.cpp ****   
 200:GrannyChordApp.cpp ****   /* handle case when button 1 is held down */
 201:GrannyChordApp.cpp ****   if (pod_.button1.Pressed()){
 202:GrannyChordApp.cpp ****     float held_time = pod_.button1.TimeHeldMs();
 203:GrannyChordApp.cpp ****     if (held_time > LONG_PRESS_TIME && !btn1_long_press_fired_){
 204:GrannyChordApp.cpp ****       HandleButton1LongPress();
 205:GrannyChordApp.cpp ****       btn1_long_press_fired_ = true;
 206:GrannyChordApp.cpp ****       last_action_time_ = time_now;
 207:GrannyChordApp.cpp ****     }
 208:GrannyChordApp.cpp ****   }
 209:GrannyChordApp.cpp ****   
 210:GrannyChordApp.cpp ****   /* handle case when button 1 is released */
 211:GrannyChordApp.cpp ****   if (pod_.button1.FallingEdge()){
 212:GrannyChordApp.cpp ****     if (!btn1_long_press_fired_){
ARM GAS  /var/folders/2p/02m_5p7958535cp2tpgps0400000gn/T//ccx9FAOt.s 			page 26


 213:GrannyChordApp.cpp ****       HandleButton1();
 214:GrannyChordApp.cpp ****     }
 215:GrannyChordApp.cpp ****     last_action_time_ = time_now;
 216:GrannyChordApp.cpp ****     btn1_long_press_fired_ = false;
 217:GrannyChordApp.cpp ****   }
 218:GrannyChordApp.cpp **** 
 219:GrannyChordApp.cpp ****   /* store whether button 2 has been pressed down initially */
 220:GrannyChordApp.cpp ****   if (pod_.button2.RisingEdge()){
 221:GrannyChordApp.cpp ****     last_action_time_ = time_now;
 222:GrannyChordApp.cpp ****     btn2_long_press_fired_ = false;
 223:GrannyChordApp.cpp ****   }
 224:GrannyChordApp.cpp ****   
 225:GrannyChordApp.cpp ****   /* handle case when button 2 is held */
 226:GrannyChordApp.cpp ****   if (pod_.button2.Pressed()){
 227:GrannyChordApp.cpp ****     float held_time = pod_.button2.TimeHeldMs();
 228:GrannyChordApp.cpp ****     if (held_time > LONG_PRESS_TIME && !btn2_long_press_fired_){
 229:GrannyChordApp.cpp ****       HandleButton2LongPress();
 230:GrannyChordApp.cpp ****       btn2_long_press_fired_ = true;
 231:GrannyChordApp.cpp ****       last_action_time_ = time_now;
 232:GrannyChordApp.cpp ****     }
 233:GrannyChordApp.cpp ****   }
 234:GrannyChordApp.cpp ****   
 235:GrannyChordApp.cpp ****   /* handle case when button2 is released */
 236:GrannyChordApp.cpp ****   if (pod_.button2.FallingEdge()){
 237:GrannyChordApp.cpp ****     if (!btn2_long_press_fired_){
 238:GrannyChordApp.cpp ****       HandleButton2();
 239:GrannyChordApp.cpp ****     }
 240:GrannyChordApp.cpp ****     last_action_time_ = time_now;
 241:GrannyChordApp.cpp ****     btn2_long_press_fired_ = false;
 242:GrannyChordApp.cpp ****   }
 243:GrannyChordApp.cpp **** 
 244:GrannyChordApp.cpp ****   /* handle case when both buttons are held down */
 245:GrannyChordApp.cpp ****   if (pod_.button1.Pressed() && pod_.button2.Pressed()){
 246:GrannyChordApp.cpp ****     float heldTime1 = pod_.button1.TimeHeldMs();
 247:GrannyChordApp.cpp ****     float heldTime2 = pod_.button2.TimeHeldMs();
 248:GrannyChordApp.cpp ****     if (heldTime1 > LONG_PRESS_TIME &&
 249:GrannyChordApp.cpp ****         heldTime2 > LONG_PRESS_TIME &&
 250:GrannyChordApp.cpp ****         !both_btns_long_press_fired_) 
 251:GrannyChordApp.cpp ****     {
 252:GrannyChordApp.cpp ****       if (!recording_out_){
 253:GrannyChordApp.cpp ****         recording_out_ = true;
 254:GrannyChordApp.cpp ****         DebugPrint(pod_,"now recording out!");
 255:GrannyChordApp.cpp ****         RecordOutToSD();
 256:GrannyChordApp.cpp ****       } 
 257:GrannyChordApp.cpp ****       else{
 258:GrannyChordApp.cpp ****         DebugPrint(pod_, "finished recording out: %.2fs",sd_writer_.GetLengthSeconds());
 259:GrannyChordApp.cpp ****         FinishRecording();
 260:GrannyChordApp.cpp ****       }
 261:GrannyChordApp.cpp ****       both_btns_long_press_fired_ = true;
 262:GrannyChordApp.cpp ****       last_action_time_ = time_now;
 263:GrannyChordApp.cpp ****     }
 264:GrannyChordApp.cpp ****   } 
 265:GrannyChordApp.cpp ****   else{
 266:GrannyChordApp.cpp ****     both_btns_long_press_fired_ = false;
 267:GrannyChordApp.cpp ****   }
 268:GrannyChordApp.cpp **** }
 269:GrannyChordApp.cpp **** 
ARM GAS  /var/folders/2p/02m_5p7958535cp2tpgps0400000gn/T//ccx9FAOt.s 			page 27


 270:GrannyChordApp.cpp **** /// @brief Switch between synth parameter control modes
 271:GrannyChordApp.cpp **** void GrannyChordApp::HandleButton1(){
 272:GrannyChordApp.cpp ****   if (curr_synth_mode_!=SynthMode::Reverb &&
 273:GrannyChordApp.cpp ****       curr_synth_mode_!=SynthMode::Filter)
 274:GrannyChordApp.cpp ****   {
 275:GrannyChordApp.cpp ****     UpdateSynthMode();
 276:GrannyChordApp.cpp ****   }
 277:GrannyChordApp.cpp **** }
 278:GrannyChordApp.cpp **** 
 279:GrannyChordApp.cpp **** /// @brief Toggles on/off synth parameter randomness controls
 280:GrannyChordApp.cpp **** void GrannyChordApp::HandleButton2(){
 281:GrannyChordApp.cpp ****   if (curr_synth_mode_ != SynthMode::Reverb &&
 282:GrannyChordApp.cpp ****       curr_synth_mode_ != SynthMode::Filter &&
 283:GrannyChordApp.cpp ****       curr_synth_mode_ != SynthMode::Pan_PanRnd)
 284:GrannyChordApp.cpp ****   {
 285:GrannyChordApp.cpp ****     ToggleRandomnessControls();
 286:GrannyChordApp.cpp ****   }
 287:GrannyChordApp.cpp **** }
 288:GrannyChordApp.cpp **** 
 289:GrannyChordApp.cpp **** /// @brief Toggles on/off reverb control mode 
 290:GrannyChordApp.cpp **** void GrannyChordApp::HandleButton1LongPress(){
 291:GrannyChordApp.cpp ****   ToggleFX(true);
 292:GrannyChordApp.cpp **** }
 293:GrannyChordApp.cpp **** 
 294:GrannyChordApp.cpp **** /// @brief Toggles on/off filter control mode
 295:GrannyChordApp.cpp **** void GrannyChordApp::HandleButton2LongPress(){
 296:GrannyChordApp.cpp ****   ToggleFX(false);
 297:GrannyChordApp.cpp **** }
 298:GrannyChordApp.cpp **** 
 299:GrannyChordApp.cpp **** /// @brief Scrolls through list of files for user selection
 300:GrannyChordApp.cpp **** void GrannyChordApp::HandleFileSelection(int32_t encoder_inc){
 656              		.loc 3 300 62 is_stmt 1 view -0
 657              		.cfi_startproc
 658              		@ args = 0, pretend = 0, frame = 0
 659              		@ frame_needed = 0, uses_anonymous_args = 0
 301:GrannyChordApp.cpp ****   int file_count = filemgr_.GetFileCount();
 660              		.loc 3 301 3 view .LVU171
 661              		.loc 3 301 20 is_stmt 0 view .LVU172
 662 0000 D0F83034 		ldr	r3, [r0, #1072]
 663              	.LVL44:
 664              	.LBB443:
 665              	.LBI443:
 666              		.file 8 "AudioFileManager.h"
   1:AudioFileManager.h **** #pragma once
   2:AudioFileManager.h **** #include <stdio.h>
   3:AudioFileManager.h **** #include <stdint.h>
   4:AudioFileManager.h **** #include <vector>
   5:AudioFileManager.h **** #include "daisy_pod.h"
   6:AudioFileManager.h **** #include "constants_utils.h"
   7:AudioFileManager.h **** #include "debug_print.h"
   8:AudioFileManager.h **** 
   9:AudioFileManager.h **** using namespace daisy; 
  10:AudioFileManager.h **** 
  11:AudioFileManager.h **** class AudioFileManager {
  12:AudioFileManager.h ****   public:
  13:AudioFileManager.h ****     AudioFileManager(SdmmcHandler &sd, FatFSInterface &fsi, DaisyPod &pod, FIL *file)
  14:AudioFileManager.h ****       : sd_(sd), fsi_(fsi), pod_(pod), curr_file_(file), 
ARM GAS  /var/folders/2p/02m_5p7958535cp2tpgps0400000gn/T//ccx9FAOt.s 			page 28


  15:AudioFileManager.h ****         left_buf_(nullptr), right_buf_(nullptr) {};
  16:AudioFileManager.h ****     
  17:AudioFileManager.h ****     bool Init();
  18:AudioFileManager.h ****     bool ScanWavFiles();
  19:AudioFileManager.h ****     void SetBuffers(int16_t *left, int16_t *right);
  20:AudioFileManager.h ****     bool LoadFile(uint16_t file_idx);
  21:AudioFileManager.h ****     
  22:AudioFileManager.h ****     bool CloseFile();
  23:AudioFileManager.h ****     bool GetWavHeader(FIL *file);
  24:AudioFileManager.h **** 
  25:AudioFileManager.h ****     int16_t* GetLeftBuffer() const { return left_buf_; }
  26:AudioFileManager.h ****     int16_t* GetRightBuffer() const { return right_buf_; }
  27:AudioFileManager.h ****     size_t GetSamplesPerChannel() const { return header_.total_samples / header_.channels; }
  28:AudioFileManager.h ****     size_t GetTotalSamples() const { return header_.total_samples; }
  29:AudioFileManager.h ****     int16_t GetNumChannels() const { return header_.channels; }
  30:AudioFileManager.h ****     uint16_t GetFileCount() const { return file_count_; }
 667              		.loc 8 30 14 is_stmt 1 view .LVU173
 668              	.LBB444:
 669              		.loc 8 30 37 view .LVU174
 670              		.loc 8 30 37 is_stmt 0 view .LVU175
 671              	.LBE444:
 672              	.LBE443:
 300:GrannyChordApp.cpp ****   int file_count = filemgr_.GetFileCount();
 673              		.loc 3 300 62 view .LVU176
 674 0004 10B5     		push	{r4, lr}
 675              		.cfi_def_cfa_offset 8
 676              		.cfi_offset 4, -8
 677              		.cfi_offset 14, -4
 678              	.LBB446:
 679              	.LBB445:
 680              		.loc 8 30 44 view .LVU177
 681 0006 03F58052 		add	r2, r3, #4096
 682              	.LBE445:
 683              	.LBE446:
 302:GrannyChordApp.cpp ****   file_idx_ = (file_idx_ + encoder_inc + file_count) % file_count;
 684              		.loc 3 302 26 view .LVU178
 685 000a D0F8EC44 		ldr	r4, [r0, #1260]
 301:GrannyChordApp.cpp ****   file_idx_ = (file_idx_ + encoder_inc + file_count) % file_count;
 686              		.loc 3 301 42 view .LVU179
 687 000e D28B     		ldrh	r2, [r2, #30]
 688              	.LVL45:
 689              		.loc 3 302 3 is_stmt 1 view .LVU180
 690              		.loc 3 302 26 is_stmt 0 view .LVU181
 691 0010 2144     		add	r1, r1, r4
 692              	.LVL46:
 693              		.loc 3 302 40 view .LVU182
 694 0012 8C18     		adds	r4, r1, r2
 695              		.loc 3 302 54 view .LVU183
 696 0014 94FBF2F1 		sdiv	r1, r4, r2
 697 0018 02FB1144 		mls	r4, r2, r1, r4
 303:GrannyChordApp.cpp ****   filemgr_.GetName(file_idx_,fname_);
 698              		.loc 3 303 30 view .LVU184
 699 001c 00F59F62 		add	r2, r0, #1272
 700              	.LVL47:
 701              	.LBB447:
 702              	.LBB448:
  31:AudioFileManager.h ****     void GetName(uint16_t idx, char* name) const { strcpy(name, names_[idx]); }
ARM GAS  /var/folders/2p/02m_5p7958535cp2tpgps0400000gn/T//ccx9FAOt.s 			page 29


 703              		.loc 8 31 75 view .LVU185
 704 0020 A1B2     		uxth	r1, r4
 705              	.LBE448:
 706              	.LBE447:
 302:GrannyChordApp.cpp ****   filemgr_.GetName(file_idx_,fname_);
 707              		.loc 3 302 13 view .LVU186
 708 0022 C0F8EC44 		str	r4, [r0, #1260]
 709              		.loc 3 303 3 is_stmt 1 view .LVU187
 710              	.LVL48:
 711              	.LBB451:
 712              	.LBI447:
 713              		.loc 8 31 10 view .LVU188
 714              	.LBB449:
 715              		.loc 8 31 52 view .LVU189
 716              		.loc 8 31 58 is_stmt 0 view .LVU190
 717 0026 1046     		mov	r0, r2
 718              	.LVL49:
 719              		.loc 8 31 75 view .LVU191
 720 0028 03EBC111 		add	r1, r3, r1, lsl #7
 721              		.loc 8 31 58 view .LVU192
 722 002c 1C31     		adds	r1, r1, #28
 723 002e FFF7FEFF 		bl	strcpy
 724              	.LVL50:
 725              		.loc 8 31 58 view .LVU193
 726              	.LBE449:
 727              	.LBE451:
 728              	.LBB452:
 729              	.LBB453:
 730              		.loc 5 128 23 view .LVU194
 731 0032 2146     		mov	r1, r4
 732              	.LBE453:
 733              	.LBE452:
 734              	.LBB456:
 735              	.LBB450:
 736              		.loc 8 31 58 view .LVU195
 737 0034 0246     		mov	r2, r0
 738              	.LVL51:
 739              		.loc 8 31 58 view .LVU196
 740              	.LBE450:
 741              	.LBE456:
 304:GrannyChordApp.cpp ****   DebugPrint(pod_, "selected file %d %s",file_idx_,fname_);
 742              		.loc 3 304 3 is_stmt 1 view .LVU197
 743              		.loc 3 304 3 view .LVU198
 744              	.LBB457:
 745              	.LBI452:
 126:../libDaisy/src/daisy_seed.h ****     {
 746              		.loc 5 126 17 view .LVU199
 747              	.LBB454:
 748              		.loc 5 128 23 is_stmt 0 view .LVU200
 749 0036 0248     		ldr	r0, .L38
 750              	.LVL52:
 751              		.loc 5 128 23 view .LVU201
 752              	.LBE454:
 753              	.LBE457:
 305:GrannyChordApp.cpp **** }
 754              		.loc 3 305 1 view .LVU202
 755 0038 BDE81040 		pop	{r4, lr}
ARM GAS  /var/folders/2p/02m_5p7958535cp2tpgps0400000gn/T//ccx9FAOt.s 			page 30


 756              		.cfi_restore 14
 757              		.cfi_restore 4
 758              		.cfi_def_cfa_offset 0
 759              	.LBB458:
 760              	.LBB455:
 761              		.loc 5 128 23 view .LVU203
 762 003c FFF7FEBF 		b	_ZN5daisy6LoggerILNS_17LoggerDestinationE1EE9PrintLineEPKcz
 763              	.LVL53:
 764              	.L39:
 765              		.loc 5 128 23 view .LVU204
 766              		.align	2
 767              	.L38:
 768 0040 00000000 		.word	.LC4
 769              	.LBE455:
 770              	.LBE458:
 771              		.cfi_endproc
 772              	.LFE4917:
 774              		.section	.text._ZN14GrannyChordApp22HandleEncoderIncrementEi,"ax",%progbits
 775              		.align	1
 776              		.global	_ZN14GrannyChordApp22HandleEncoderIncrementEi
 777              		.syntax unified
 778              		.thumb
 779              		.thumb_func
 781              	_ZN14GrannyChordApp22HandleEncoderIncrementEi:
 782              	.LVL54:
 783              	.LFB4909:
 133:GrannyChordApp.cpp ****   if (next_state_== AppState::SelectFile){
 784              		.loc 3 133 61 is_stmt 1 view -0
 785              		.cfi_startproc
 786              		@ args = 0, pretend = 0, frame = 0
 787              		@ frame_needed = 0, uses_anonymous_args = 0
 788              		@ link register save eliminated.
 134:GrannyChordApp.cpp ****     recorded_in_ = false;
 789              		.loc 3 134 3 view .LVU206
 790 0000 D0F83C24 		ldr	r2, [r0, #1084]
 791 0004 2AB9     		cbnz	r2, .L41
 135:GrannyChordApp.cpp ****     HandleFileSelection(encoder_inc);
 792              		.loc 3 135 5 view .LVU207
 135:GrannyChordApp.cpp ****     HandleFileSelection(encoder_inc);
 793              		.loc 3 135 18 is_stmt 0 view .LVU208
 794 0006 00F50043 		add	r3, r0, #32768
 795 000a 83F86C28 		strb	r2, [r3, #2156]
 136:GrannyChordApp.cpp ****   }
 796              		.loc 3 136 5 is_stmt 1 view .LVU209
 136:GrannyChordApp.cpp ****   }
 797              		.loc 3 136 24 is_stmt 0 view .LVU210
 798 000e FFF7FEBF 		b	_ZN14GrannyChordApp19HandleFileSelectionEl
 799              	.LVL55:
 800              	.L41:
 801              	.LBB461:
 802              	.LBI461:
 133:GrannyChordApp.cpp ****   if (next_state_== AppState::SelectFile){
 803              		.loc 3 133 6 is_stmt 1 view .LVU211
 804              	.LBB462:
 138:GrannyChordApp.cpp ****     recorded_in_ = false;
 805              		.loc 3 138 8 view .LVU212
 806 0012 D0F83824 		ldr	r2, [r0, #1080]
ARM GAS  /var/folders/2p/02m_5p7958535cp2tpgps0400000gn/T//ccx9FAOt.s 			page 31


 807 0016 012A     		cmp	r2, #1
 139:GrannyChordApp.cpp ****     next_state_ = AppState::SelectFile;
 808              		.loc 3 139 5 view .LVU213
 139:GrannyChordApp.cpp ****     next_state_ = AppState::SelectFile;
 809              		.loc 3 139 18 is_stmt 0 view .LVU214
 810 0018 01BF     		itttt	eq
 811 001a 0022     		moveq	r2, #0
 812 001c 00F50041 		addeq	r1, r0, #32768
 813              	.LVL56:
 139:GrannyChordApp.cpp ****     next_state_ = AppState::SelectFile;
 814              		.loc 3 139 18 view .LVU215
 815 0020 81F86C28 		strbeq	r2, [r1, #2156]
 140:GrannyChordApp.cpp ****   }
 816              		.loc 3 140 5 is_stmt 1 view .LVU216
 140:GrannyChordApp.cpp ****   }
 817              		.loc 3 140 17 is_stmt 0 view .LVU217
 818 0024 C0F83C24 		streq	r2, [r0, #1084]
 819              	.LVL57:
 140:GrannyChordApp.cpp ****   }
 820              		.loc 3 140 17 view .LVU218
 821              	.LBE462:
 822              	.LBE461:
 142:GrannyChordApp.cpp **** 
 823              		.loc 3 142 1 view .LVU219
 824 0028 7047     		bx	lr
 825              		.cfi_endproc
 826              	.LFE4909:
 828              		.section	.text._ZN14GrannyChordApp11InitFileMgrEv,"ax",%progbits
 829              		.align	1
 830              		.global	_ZN14GrannyChordApp11InitFileMgrEv
 831              		.syntax unified
 832              		.thumb
 833              		.thumb_func
 835              	_ZN14GrannyChordApp11InitFileMgrEv:
 836              	.LVL58:
 837              	.LFB4922:
 306:GrannyChordApp.cpp **** 
 307:GrannyChordApp.cpp **** /// @brief iterates through synth parameter control modes
 308:GrannyChordApp.cpp **** void GrannyChordApp::UpdateSynthMode(){
 309:GrannyChordApp.cpp ****   DebugPrint(pod_, "next synth mode");
 310:GrannyChordApp.cpp ****   switch(curr_synth_mode_){
 311:GrannyChordApp.cpp ****     case SynthMode::Size_Position:
 312:GrannyChordApp.cpp ****       curr_synth_mode_ = SynthMode::Pitch_ActiveGrains;
 313:GrannyChordApp.cpp ****       break;
 314:GrannyChordApp.cpp ****     case SynthMode::Pitch_ActiveGrains:
 315:GrannyChordApp.cpp ****       curr_synth_mode_ = SynthMode::PhasorMode_EnvType;
 316:GrannyChordApp.cpp ****       break;
 317:GrannyChordApp.cpp ****     case SynthMode::PhasorMode_EnvType:
 318:GrannyChordApp.cpp ****       curr_synth_mode_ = SynthMode::Pan_PanRnd;
 319:GrannyChordApp.cpp ****       break;
 320:GrannyChordApp.cpp ****     case SynthMode::Pan_PanRnd:
 321:GrannyChordApp.cpp ****       curr_synth_mode_ = SynthMode::Size_Position;
 322:GrannyChordApp.cpp ****       break;
 323:GrannyChordApp.cpp ****     default:
 324:GrannyChordApp.cpp ****       break;
 325:GrannyChordApp.cpp ****   }
 326:GrannyChordApp.cpp ****   DebugPrintMode(curr_synth_mode_);
ARM GAS  /var/folders/2p/02m_5p7958535cp2tpgps0400000gn/T//ccx9FAOt.s 			page 32


 327:GrannyChordApp.cpp **** 
 328:GrannyChordApp.cpp ****   ResetPassThru();
 329:GrannyChordApp.cpp ****   SetLed1SynthMode();
 330:GrannyChordApp.cpp **** }
 331:GrannyChordApp.cpp **** 
 332:GrannyChordApp.cpp **** /// @brief Updates synth parameters based on current synth mode and adjusts
 333:GrannyChordApp.cpp **** ///        knob input values to account for knob jitter and deadzones around 0/1
 334:GrannyChordApp.cpp **** void GrannyChordApp::UpdateSynthParams(){
 335:GrannyChordApp.cpp ****   if (curr_state_!=AppState::Synthesis) return;
 336:GrannyChordApp.cpp ****   int mode_idx = static_cast<int>(curr_synth_mode_);
 337:GrannyChordApp.cpp **** 
 338:GrannyChordApp.cpp ****   /* set to 0 or 1 if very close to these bounds */
 339:GrannyChordApp.cpp ****   float knob1_val = MapKnobDeadzone(pod_.knob1.Process());
 340:GrannyChordApp.cpp ****   float knob2_val = MapKnobDeadzone(pod_.knob2.Process());
 341:GrannyChordApp.cpp **** 
 342:GrannyChordApp.cpp ****   /* only update parameter if knob has passed through previous value in this mode */
 343:GrannyChordApp.cpp ****   // paramcount++;
 344:GrannyChordApp.cpp ****   // if (paramcount%50000==0){
 345:GrannyChordApp.cpp ****   //   DebugPrint(pod_, "old knob1 is %.2f", knob1_val);
 346:GrannyChordApp.cpp ****   // }
 347:GrannyChordApp.cpp ****   knob1_val = UpdateKnobPassThru(knob1_val, &pass_thru_stored_k1[mode_idx], prev_param_vals_k1[mode
 348:GrannyChordApp.cpp ****   // if (paramcount%50000==0){
 349:GrannyChordApp.cpp ****   //   DebugPrint(pod_, "new knob1 is %.2f", knob1_val);
 350:GrannyChordApp.cpp ****   // }
 351:GrannyChordApp.cpp ****   // if (paramcount%50000==0){
 352:GrannyChordApp.cpp ****   //   DebugPrint(pod_, "old knob2 is %.2f", knob2_val);
 353:GrannyChordApp.cpp ****   // }
 354:GrannyChordApp.cpp ****   knob2_val = UpdateKnobPassThru(knob2_val, &pass_thru_stored_k2[mode_idx], prev_param_vals_k2[mode
 355:GrannyChordApp.cpp ****   // if (paramcount%50000==0){
 356:GrannyChordApp.cpp ****   //   DebugPrint(pod_, "new knob2 is %.2f", knob2_val);
 357:GrannyChordApp.cpp ****   //   paramcount=0;
 358:GrannyChordApp.cpp ****   // }
 359:GrannyChordApp.cpp **** 
 360:GrannyChordApp.cpp ****   if (CheckParamDelta(knob1_val,prev_param_vals_k1[mode_idx])){
 361:GrannyChordApp.cpp ****     UpdateKnob1Params(knob1_val,curr_synth_mode_);
 362:GrannyChordApp.cpp ****     prev_param_vals_k1[mode_idx] = knob1_val;
 363:GrannyChordApp.cpp ****   }
 364:GrannyChordApp.cpp ****   if(CheckParamDelta(knob2_val, prev_param_vals_k2[mode_idx])){
 365:GrannyChordApp.cpp ****     UpdateKnob2Params(knob2_val, curr_synth_mode_);
 366:GrannyChordApp.cpp ****     prev_param_vals_k2[mode_idx] = knob2_val;
 367:GrannyChordApp.cpp ****   }
 368:GrannyChordApp.cpp ****   synth_.UpdateGrainParams(); // NOTE: ADDED THIS
 369:GrannyChordApp.cpp **** }
 370:GrannyChordApp.cpp **** 
 371:GrannyChordApp.cpp **** /// @brief toggles on/off grain parameter randomness controls 
 372:GrannyChordApp.cpp **** void GrannyChordApp::ToggleRandomnessControls(){
 373:GrannyChordApp.cpp ****   DebugPrint(pod_, "rnd toggled changing from: ");
 374:GrannyChordApp.cpp ****   DebugPrintMode(curr_synth_mode_);
 375:GrannyChordApp.cpp ****   DebugPrint(pod_, "to :");
 376:GrannyChordApp.cpp ****   if (curr_synth_mode_ <= SynthMode::PhasorMode_EnvType_Rnd){
 377:GrannyChordApp.cpp ****     /* below works because regular modes are even, random modes are odd
 378:GrannyChordApp.cpp ****       so we can XOR their enum value to get the corresponding mode */
 379:GrannyChordApp.cpp ****     curr_synth_mode_ = static_cast<SynthMode>(static_cast<int>(curr_synth_mode_) ^ 1);
 380:GrannyChordApp.cpp ****     DebugPrintMode(curr_synth_mode_);
 381:GrannyChordApp.cpp **** 
 382:GrannyChordApp.cpp ****     ResetPassThru();
 383:GrannyChordApp.cpp ****     SetLed2();
ARM GAS  /var/folders/2p/02m_5p7958535cp2tpgps0400000gn/T//ccx9FAOt.s 			page 33


 384:GrannyChordApp.cpp ****   }
 385:GrannyChordApp.cpp **** }
 386:GrannyChordApp.cpp **** 
 387:GrannyChordApp.cpp **** /// @brief Toggles on/off FX controls 
 388:GrannyChordApp.cpp **** /// @param is_reverb_mode True for reverb mode, false for filter mode
 389:GrannyChordApp.cpp **** void GrannyChordApp::ToggleFX(bool is_reverb_mode){
 390:GrannyChordApp.cpp ****   switch (curr_synth_mode_){
 391:GrannyChordApp.cpp ****     case SynthMode::Reverb:
 392:GrannyChordApp.cpp ****       if (is_reverb_mode) curr_synth_mode_ = prev_synth_mode_;
 393:GrannyChordApp.cpp ****       else curr_synth_mode_ = SynthMode::Filter;
 394:GrannyChordApp.cpp ****       break;
 395:GrannyChordApp.cpp ****     case SynthMode::Filter:
 396:GrannyChordApp.cpp ****       if (!is_reverb_mode) curr_synth_mode_ = prev_synth_mode_;
 397:GrannyChordApp.cpp ****       else curr_synth_mode_ = SynthMode::Reverb;
 398:GrannyChordApp.cpp ****       break;
 399:GrannyChordApp.cpp ****     default:
 400:GrannyChordApp.cpp ****       prev_synth_mode_ = curr_synth_mode_;
 401:GrannyChordApp.cpp ****       if (is_reverb_mode) curr_synth_mode_= SynthMode::Reverb;
 402:GrannyChordApp.cpp ****       else curr_synth_mode_ = SynthMode::Filter;
 403:GrannyChordApp.cpp ****   }
 404:GrannyChordApp.cpp ****   DebugPrint(pod_, "changed fx, now:");
 405:GrannyChordApp.cpp ****   DebugPrintMode(curr_synth_mode_);
 406:GrannyChordApp.cpp **** 
 407:GrannyChordApp.cpp ****   ResetPassThru();
 408:GrannyChordApp.cpp ****   SetLed2();
 409:GrannyChordApp.cpp **** }
 410:GrannyChordApp.cpp **** 
 411:GrannyChordApp.cpp **** /// @brief Initialises file manager, sets audio data buffers and scans SD card for WAV files
 412:GrannyChordApp.cpp **** /// @return True on successful initialisation, false if init fails or no WAV files found
 413:GrannyChordApp.cpp **** bool GrannyChordApp::InitFileMgr(){
 838              		.loc 3 413 35 is_stmt 1 view -0
 839              		.cfi_startproc
 840              		@ args = 0, pretend = 0, frame = 0
 841              		@ frame_needed = 0, uses_anonymous_args = 0
 414:GrannyChordApp.cpp ****   filemgr_.SetBuffers(left_buf_,right_buf_);
 842              		.loc 3 414 3 view .LVU221
 413:GrannyChordApp.cpp ****   filemgr_.SetBuffers(left_buf_,right_buf_);
 843              		.loc 3 413 35 is_stmt 0 view .LVU222
 844 0000 10B5     		push	{r4, lr}
 845              		.cfi_def_cfa_offset 8
 846              		.cfi_offset 4, -8
 847              		.cfi_offset 14, -4
 413:GrannyChordApp.cpp ****   filemgr_.SetBuffers(left_buf_,right_buf_);
 848              		.loc 3 413 35 view .LVU223
 849 0002 0446     		mov	r4, r0
 850              		.loc 3 414 22 view .LVU224
 851 0004 D0F8E824 		ldr	r2, [r0, #1256]
 852 0008 D0F8E414 		ldr	r1, [r0, #1252]
 853 000c D0F83004 		ldr	r0, [r0, #1072]
 854              	.LVL59:
 855              		.loc 3 414 22 view .LVU225
 856 0010 FFF7FEFF 		bl	_ZN16AudioFileManager10SetBuffersEPsS0_
 857              	.LVL60:
 415:GrannyChordApp.cpp ****   if (!filemgr_.Init())return false;
 858              		.loc 3 415 3 is_stmt 1 view .LVU226
 859              		.loc 3 415 21 is_stmt 0 view .LVU227
 860 0014 D4F83004 		ldr	r0, [r4, #1072]
ARM GAS  /var/folders/2p/02m_5p7958535cp2tpgps0400000gn/T//ccx9FAOt.s 			page 34


 861 0018 FFF7FEFF 		bl	_ZN16AudioFileManager4InitEv
 862              	.LVL61:
 863              		.loc 3 415 3 view .LVU228
 864 001c 28B1     		cbz	r0, .L44
 865              	.LBB465:
 866              	.LBI465:
 413:GrannyChordApp.cpp ****   filemgr_.SetBuffers(left_buf_,right_buf_);
 867              		.loc 3 413 6 is_stmt 1 view .LVU229
 868              	.LVL62:
 869              	.LBB466:
 416:GrannyChordApp.cpp **** 
 417:GrannyChordApp.cpp ****   return filemgr_.ScanWavFiles();
 870              		.loc 3 417 3 view .LVU230
 871              		.loc 3 417 31 is_stmt 0 view .LVU231
 872 001e D4F83004 		ldr	r0, [r4, #1072]
 873              	.LBE466:
 874              	.LBE465:
 418:GrannyChordApp.cpp **** }
 875              		.loc 3 418 1 view .LVU232
 876 0022 BDE81040 		pop	{r4, lr}
 877              		.cfi_remember_state
 878              		.cfi_restore 14
 879              		.cfi_restore 4
 880              		.cfi_def_cfa_offset 0
 881              	.LVL63:
 882              	.LBB468:
 883              	.LBB467:
 417:GrannyChordApp.cpp **** }
 884              		.loc 3 417 31 view .LVU233
 885 0026 FFF7FEBF 		b	_ZN16AudioFileManager12ScanWavFilesEv
 886              	.LVL64:
 887              	.L44:
 888              		.cfi_restore_state
 417:GrannyChordApp.cpp **** }
 889              		.loc 3 417 31 view .LVU234
 890              	.LBE467:
 891              	.LBE468:
 892              		.loc 3 418 1 view .LVU235
 893 002a 10BD     		pop	{r4, pc}
 894              		.loc 3 418 1 view .LVU236
 895              		.cfi_endproc
 896              	.LFE4922:
 898              		.section	.rodata._ZN14GrannyChordApp12InitPlaybackEv.str1.1,"aMS",%progbits,1
 899              	.LC5:
 900 0000 6661696C 		.ascii	"failed to load file\000"
 900      65642074 
 900      6F206C6F 
 900      61642066 
 900      696C6500 
 901              	.LC6:
 902 0014 6C6F6164 		.ascii	"loaded file\000"
 902      65642066 
 902      696C6500 
 903              		.section	.text._ZN14GrannyChordApp12InitPlaybackEv,"ax",%progbits
 904              		.align	1
 905              		.global	_ZN14GrannyChordApp12InitPlaybackEv
 906              		.syntax unified
ARM GAS  /var/folders/2p/02m_5p7958535cp2tpgps0400000gn/T//ccx9FAOt.s 			page 35


 907              		.thumb
 908              		.thumb_func
 910              	_ZN14GrannyChordApp12InitPlaybackEv:
 911              	.LVL65:
 912              	.LFB4924:
 419:GrannyChordApp.cpp **** 
 420:GrannyChordApp.cpp **** /// @brief Calls synth initialisation function, passes audio data buffers and audio length
 421:GrannyChordApp.cpp **** void GrannyChordApp::InitSynth(){
 422:GrannyChordApp.cpp ****   synth_.Init(left_buf_, right_buf_, filemgr_.GetSamplesPerChannel());
 423:GrannyChordApp.cpp ****   InitPrevParamVals();
 424:GrannyChordApp.cpp ****   DebugPrint(pod_,"synth init ok - samples %u",filemgr_.GetSamplesPerChannel());
 425:GrannyChordApp.cpp **** }
 426:GrannyChordApp.cpp **** 
 427:GrannyChordApp.cpp **** /// @brief Initialises WAV playback state, resets playhead, sets current file audio length
 428:GrannyChordApp.cpp **** void GrannyChordApp::InitPlayback(){
 913              		.loc 3 428 36 is_stmt 1 view -0
 914              		.cfi_startproc
 915              		@ args = 0, pretend = 0, frame = 0
 916              		@ frame_needed = 0, uses_anonymous_args = 0
 429:GrannyChordApp.cpp ****   wav_playhead_ = 0;
 917              		.loc 3 429 3 view .LVU238
 918              		.loc 3 429 17 is_stmt 0 view .LVU239
 919 0000 0022     		movs	r2, #0
 430:GrannyChordApp.cpp ****   record_in_pos_  = 0;
 920              		.loc 3 430 19 view .LVU240
 921 0002 00F50043 		add	r3, r0, #32768
 428:GrannyChordApp.cpp ****   wav_playhead_ = 0;
 922              		.loc 3 428 36 view .LVU241
 923 0006 10B5     		push	{r4, lr}
 924              		.cfi_def_cfa_offset 8
 925              		.cfi_offset 4, -8
 926              		.cfi_offset 14, -4
 429:GrannyChordApp.cpp ****   wav_playhead_ = 0;
 927              		.loc 3 429 17 view .LVU242
 928 0008 C0F8F024 		str	r2, [r0, #1264]
 929              		.loc 3 430 3 is_stmt 1 view .LVU243
 428:GrannyChordApp.cpp ****   wav_playhead_ = 0;
 930              		.loc 3 428 36 is_stmt 0 view .LVU244
 931 000c 0446     		mov	r4, r0
 932              		.loc 3 430 19 view .LVU245
 933 000e C3F87028 		str	r2, [r3, #2160]
 431:GrannyChordApp.cpp ****   if (!recorded_in_){
 934              		.loc 3 431 3 is_stmt 1 view .LVU246
 935 0012 93F86C38 		ldrb	r3, [r3, #2156]	@ zero_extendqisi2
 936 0016 6BB9     		cbnz	r3, .L46
 432:GrannyChordApp.cpp ****     if (!filemgr_.LoadFile(file_idx_)) {
 937              		.loc 3 432 5 view .LVU247
 938              		.loc 3 432 27 is_stmt 0 view .LVU248
 939 0018 B0F8EC14 		ldrh	r1, [r0, #1260]
 940 001c D0F83004 		ldr	r0, [r0, #1072]
 941              	.LVL66:
 942              		.loc 3 432 27 view .LVU249
 943 0020 FFF7FEFF 		bl	_ZN16AudioFileManager8LoadFileEt
 944              	.LVL67:
 945              		.loc 3 432 5 view .LVU250
 946 0024 30B9     		cbnz	r0, .L46
 433:GrannyChordApp.cpp ****       DebugPrint(pod_,"failed to load file");
ARM GAS  /var/folders/2p/02m_5p7958535cp2tpgps0400000gn/T//ccx9FAOt.s 			page 36


 947              		.loc 3 433 7 is_stmt 1 view .LVU251
 948              		.loc 3 433 7 view .LVU252
 949              	.LVL68:
 950              	.LBB469:
 951              	.LBI469:
 126:../libDaisy/src/daisy_seed.h ****     {
 952              		.loc 5 126 17 view .LVU253
 953              	.LBB470:
 954              		.loc 5 128 23 is_stmt 0 view .LVU254
 955 0026 0848     		ldr	r0, .L49
 956 0028 FFF7FEFF 		bl	_ZN5daisy6LoggerILNS_17LoggerDestinationE1EE9PrintLineEPKcz
 957              	.LVL69:
 958              		.loc 5 128 23 view .LVU255
 959              	.LBE470:
 960              	.LBE469:
 434:GrannyChordApp.cpp ****       curr_state_=AppState::Error;
 961              		.loc 3 434 7 is_stmt 1 view .LVU256
 962              		.loc 3 434 18 is_stmt 0 view .LVU257
 963 002c 0523     		movs	r3, #5
 964 002e C4F83834 		str	r3, [r4, #1080]
 435:GrannyChordApp.cpp ****       return;
 965              		.loc 3 435 7 is_stmt 1 view .LVU258
 436:GrannyChordApp.cpp ****     }
 437:GrannyChordApp.cpp ****   }
 438:GrannyChordApp.cpp ****   DebugPrint(pod_, "loaded file");
 439:GrannyChordApp.cpp ****   pod_.StartAudio(AudioCallback);
 440:GrannyChordApp.cpp **** }
 966              		.loc 3 440 1 is_stmt 0 view .LVU259
 967 0032 10BD     		pop	{r4, pc}
 968              	.LVL70:
 969              	.L46:
 438:GrannyChordApp.cpp ****   pod_.StartAudio(AudioCallback);
 970              		.loc 3 438 3 is_stmt 1 view .LVU260
 438:GrannyChordApp.cpp ****   pod_.StartAudio(AudioCallback);
 971              		.loc 3 438 3 view .LVU261
 972              	.LBB471:
 973              	.LBI471:
 126:../libDaisy/src/daisy_seed.h ****     {
 974              		.loc 5 126 17 view .LVU262
 975              	.LBB472:
 976              		.loc 5 128 23 is_stmt 0 view .LVU263
 977 0034 0548     		ldr	r0, .L49+4
 978 0036 FFF7FEFF 		bl	_ZN5daisy6LoggerILNS_17LoggerDestinationE1EE9PrintLineEPKcz
 979              	.LVL71:
 980              		.loc 5 128 23 view .LVU264
 981              	.LBE472:
 982              	.LBE471:
 439:GrannyChordApp.cpp **** }
 983              		.loc 3 439 3 is_stmt 1 view .LVU265
 439:GrannyChordApp.cpp **** }
 984              		.loc 3 439 18 is_stmt 0 view .LVU266
 985 003a E069     		ldr	r0, [r4, #28]
 986 003c 0449     		ldr	r1, .L49+8
 987              		.loc 3 440 1 view .LVU267
 988 003e BDE81040 		pop	{r4, lr}
 989              		.cfi_restore 14
 990              		.cfi_restore 4
ARM GAS  /var/folders/2p/02m_5p7958535cp2tpgps0400000gn/T//ccx9FAOt.s 			page 37


 991              		.cfi_def_cfa_offset 0
 992              	.LVL72:
 439:GrannyChordApp.cpp **** }
 993              		.loc 3 439 18 view .LVU268
 994 0042 FFF7FEBF 		b	_ZN5daisy8DaisyPod10StartAudioEPFvPKPKfPPfjE
 995              	.LVL73:
 996              	.L50:
 997 0046 00BF     		.align	2
 998              	.L49:
 999 0048 00000000 		.word	.LC5
 1000 004c 14000000 		.word	.LC6
 1001 0050 00000000 		.word	_ZN14GrannyChordApp13AudioCallbackEPKPKfPPfj
 1002              		.cfi_endproc
 1003              	.LFE4924:
 1005              		.section	.text._ZN14GrannyChordApp12InitRecordInEv,"ax",%progbits
 1006              		.align	1
 1007              		.global	_ZN14GrannyChordApp12InitRecordInEv
 1008              		.syntax unified
 1009              		.thumb
 1010              		.thumb_func
 1012              	_ZN14GrannyChordApp12InitRecordInEv:
 1013              	.LVL74:
 1014              	.LFB4925:
 441:GrannyChordApp.cpp **** 
 442:GrannyChordApp.cpp **** /// @brief Initialises RecordIn state, clears audio buffers
 443:GrannyChordApp.cpp **** void GrannyChordApp::InitRecordIn(){
 1015              		.loc 3 443 36 is_stmt 1 view -0
 1016              		.cfi_startproc
 1017              		@ args = 0, pretend = 0, frame = 0
 1018              		@ frame_needed = 0, uses_anonymous_args = 0
 444:GrannyChordApp.cpp ****   memset(left_buf_, 0, CHNL_BUF_SIZE_ABS);
 1019              		.loc 3 444 3 view .LVU270
 443:GrannyChordApp.cpp ****   memset(left_buf_, 0, CHNL_BUF_SIZE_ABS);
 1020              		.loc 3 443 36 is_stmt 0 view .LVU271
 1021 0000 10B5     		push	{r4, lr}
 1022              		.cfi_def_cfa_offset 8
 1023              		.cfi_offset 4, -8
 1024              		.cfi_offset 14, -4
 443:GrannyChordApp.cpp ****   memset(left_buf_, 0, CHNL_BUF_SIZE_ABS);
 1025              		.loc 3 443 36 view .LVU272
 1026 0002 0446     		mov	r4, r0
 1027              		.loc 3 444 9 view .LVU273
 1028 0004 4FF08072 		mov	r2, #16777216
 1029 0008 0021     		movs	r1, #0
 1030 000a D0F8E404 		ldr	r0, [r0, #1252]
 1031              	.LVL75:
 1032              		.loc 3 444 9 view .LVU274
 1033 000e FFF7FEFF 		bl	memset
 1034              	.LVL76:
 445:GrannyChordApp.cpp ****   memset(right_buf_, 0, CHNL_BUF_SIZE_ABS);
 1035              		.loc 3 445 3 is_stmt 1 view .LVU275
 1036              		.loc 3 445 9 is_stmt 0 view .LVU276
 1037 0012 D4F8E804 		ldr	r0, [r4, #1256]
 1038 0016 4FF08072 		mov	r2, #16777216
 1039 001a 0021     		movs	r1, #0
 1040 001c FFF7FEFF 		bl	memset
 1041              	.LVL77:
ARM GAS  /var/folders/2p/02m_5p7958535cp2tpgps0400000gn/T//ccx9FAOt.s 			page 38


 446:GrannyChordApp.cpp ****   record_in_pos_ = 0;
 1042              		.loc 3 446 3 is_stmt 1 view .LVU277
 1043              		.loc 3 446 18 is_stmt 0 view .LVU278
 1044 0020 04F50044 		add	r4, r4, #32768
 1045              	.LVL78:
 1046              		.loc 3 446 18 view .LVU279
 1047 0024 0023     		movs	r3, #0
 1048 0026 C4F87038 		str	r3, [r4, #2160]
 447:GrannyChordApp.cpp **** }
 1049              		.loc 3 447 1 view .LVU280
 1050 002a 10BD     		pop	{r4, pc}
 1051              		.loc 3 447 1 view .LVU281
 1052              		.cfi_endproc
 1053              	.LFE4925:
 1055              		.section	.text._ZN14GrannyChordApp13InitWavWriterEv,"ax",%progbits
 1056              		.align	1
 1057              		.global	_ZN14GrannyChordApp13InitWavWriterEv
 1058              		.syntax unified
 1059              		.thumb
 1060              		.thumb_func
 1062              	_ZN14GrannyChordApp13InitWavWriterEv:
 1063              	.LVL79:
 1064              	.LFB4926:
 448:GrannyChordApp.cpp **** 
 449:GrannyChordApp.cpp **** // /// @brief Initialise object for recording out to SD card
 450:GrannyChordApp.cpp **** void GrannyChordApp::InitWavWriter(){
 1065              		.loc 3 450 37 is_stmt 1 view -0
 1066              		.cfi_startproc
 1067              		@ args = 0, pretend = 0, frame = 0
 1068              		@ frame_needed = 0, uses_anonymous_args = 0
 1069              		@ link register save eliminated.
 451:GrannyChordApp.cpp ****   WavWriter<16384>::Config cfg;
 1070              		.loc 3 451 3 view .LVU283
 452:GrannyChordApp.cpp ****   cfg.bitspersample = BIT_DEPTH;
 1071              		.loc 3 452 3 view .LVU284
 453:GrannyChordApp.cpp ****   cfg.channels = filemgr_.GetNumChannels();
 1072              		.loc 3 453 3 view .LVU285
 1073              	.LBB481:
 1074              	.LBI481:
  29:AudioFileManager.h ****     uint16_t GetFileCount() const { return file_count_; }
 1075              		.loc 8 29 13 view .LVU286
 1076              	.LBB482:
  29:AudioFileManager.h ****     uint16_t GetFileCount() const { return file_count_; }
 1077              		.loc 8 29 38 view .LVU287
  29:AudioFileManager.h ****     uint16_t GetFileCount() const { return file_count_; }
 1078              		.loc 8 29 53 is_stmt 0 view .LVU288
 1079 0000 D0F83034 		ldr	r3, [r0, #1072]
 1080              	.LBE482:
 1081              	.LBE481:
 1082              	.LBB484:
 1083              	.LBB485:
 1084              		.file 9 "../libDaisy/src/util/WavWriter.h"
   1:../libDaisy/src/util/WavWriter.h **** #pragma once
   2:../libDaisy/src/util/WavWriter.h **** #pragma once
   3:../libDaisy/src/util/WavWriter.h **** #include "fatfs.h"
   4:../libDaisy/src/util/WavWriter.h **** 
   5:../libDaisy/src/util/WavWriter.h **** namespace daisy
ARM GAS  /var/folders/2p/02m_5p7958535cp2tpgps0400000gn/T//ccx9FAOt.s 			page 39


   6:../libDaisy/src/util/WavWriter.h **** {
   7:../libDaisy/src/util/WavWriter.h **** /** Audio Recording Module
   8:../libDaisy/src/util/WavWriter.h ****  ** 
   9:../libDaisy/src/util/WavWriter.h ****  ** Record audio into a working buffer that is gradually written to a WAV file on an SD Card. 
  10:../libDaisy/src/util/WavWriter.h ****  **
  11:../libDaisy/src/util/WavWriter.h ****  ** Recordings are made with floating point input, and will be converted to the 
  12:../libDaisy/src/util/WavWriter.h ****  ** specified bits per sample internally 
  13:../libDaisy/src/util/WavWriter.h ****  **
  14:../libDaisy/src/util/WavWriter.h ****  ** For now only 16-bit and 32-bit (signed int) formats are supported
  15:../libDaisy/src/util/WavWriter.h ****  ** f32 and s24 formats will be added next
  16:../libDaisy/src/util/WavWriter.h ****  **
  17:../libDaisy/src/util/WavWriter.h ****  ** The transfer size determines the amount of internal memory used, and can have an
  18:../libDaisy/src/util/WavWriter.h ****  ** effect on the performance of the streaming behavior of the WavWriter.
  19:../libDaisy/src/util/WavWriter.h ****  ** Memory use can be calculated as: (2 * transfer_size) bytes
  20:../libDaisy/src/util/WavWriter.h ****  ** Performance optimal with sizes: 16384, 32768
  21:../libDaisy/src/util/WavWriter.h ****  ** 
  22:../libDaisy/src/util/WavWriter.h ****  ** To use:
  23:../libDaisy/src/util/WavWriter.h ****  ** 1. Create a WavWriter<size> object (e.g. WavWriter<32768> writer)
  24:../libDaisy/src/util/WavWriter.h ****  ** 2. Configure the settings as desired by creating a WavWriter<32768>::Config struct and setting 
  25:../libDaisy/src/util/WavWriter.h ****  ** 3. Initialize the object with the configuration struct.
  26:../libDaisy/src/util/WavWriter.h ****  ** 4. Open a new file for writing with: writer.OpenFile("FileName.wav")
  27:../libDaisy/src/util/WavWriter.h ****  ** 5. Write to it within your audio callback using: writer.Sample(value)
  28:../libDaisy/src/util/WavWriter.h ****  ** 6. Fill the Wav File on the SD Card with data from your main loop by running: writer.Write()
  29:../libDaisy/src/util/WavWriter.h ****  ** 7. When finished with the recording finalize, and close the file with: writer.SaveFile();
  30:../libDaisy/src/util/WavWriter.h ****  ** 
  31:../libDaisy/src/util/WavWriter.h ****  ** */
  32:../libDaisy/src/util/WavWriter.h **** template <size_t transfer_size>
  33:../libDaisy/src/util/WavWriter.h **** class WavWriter
  34:../libDaisy/src/util/WavWriter.h **** {
  35:../libDaisy/src/util/WavWriter.h ****   public:
  36:../libDaisy/src/util/WavWriter.h ****     WavWriter() {}
  37:../libDaisy/src/util/WavWriter.h ****     ~WavWriter() {}
  38:../libDaisy/src/util/WavWriter.h **** 
  39:../libDaisy/src/util/WavWriter.h ****     /** Return values for write related functions */
  40:../libDaisy/src/util/WavWriter.h ****     enum class Result
  41:../libDaisy/src/util/WavWriter.h ****     {
  42:../libDaisy/src/util/WavWriter.h ****         OK,
  43:../libDaisy/src/util/WavWriter.h ****         ERROR,
  44:../libDaisy/src/util/WavWriter.h ****     };
  45:../libDaisy/src/util/WavWriter.h **** 
  46:../libDaisy/src/util/WavWriter.h ****     /** Configuration structure for the wave writer.
  47:../libDaisy/src/util/WavWriter.h **** 	 ** */
  48:../libDaisy/src/util/WavWriter.h ****     struct Config
  49:../libDaisy/src/util/WavWriter.h ****     {
  50:../libDaisy/src/util/WavWriter.h ****         float   samplerate;
  51:../libDaisy/src/util/WavWriter.h ****         int32_t channels;
  52:../libDaisy/src/util/WavWriter.h ****         int32_t bitspersample;
  53:../libDaisy/src/util/WavWriter.h ****     };
  54:../libDaisy/src/util/WavWriter.h **** 
  55:../libDaisy/src/util/WavWriter.h ****     /** State of the internal Writing mechanism. 
  56:../libDaisy/src/util/WavWriter.h **** 	 ** When the buffer is a certain amount full one section will write its contents
  57:../libDaisy/src/util/WavWriter.h **** 	 ** while the other is still being written to. This is performed circularly
  58:../libDaisy/src/util/WavWriter.h **** 	 ** so that audio will be uninterrupted during writing. */
  59:../libDaisy/src/util/WavWriter.h ****     enum class BufferState
  60:../libDaisy/src/util/WavWriter.h ****     {
  61:../libDaisy/src/util/WavWriter.h ****         IDLE,
  62:../libDaisy/src/util/WavWriter.h ****         FLUSH0,
ARM GAS  /var/folders/2p/02m_5p7958535cp2tpgps0400000gn/T//ccx9FAOt.s 			page 40


  63:../libDaisy/src/util/WavWriter.h ****         FLUSH1,
  64:../libDaisy/src/util/WavWriter.h ****     };
  65:../libDaisy/src/util/WavWriter.h **** 
  66:../libDaisy/src/util/WavWriter.h ****     /**  Initializes the WavFile header, and prepares the object for recording. */
  67:../libDaisy/src/util/WavWriter.h ****     void Init(const Config &cfg)
  68:../libDaisy/src/util/WavWriter.h ****     {
  69:../libDaisy/src/util/WavWriter.h ****         cfg_       = cfg;
 1085              		.loc 9 69 9 view .LVU289
 1086 0004 00F5BF62 		add	r2, r0, #1528
 1087 0008 9FED287A 		vldr.32	s14, .L54
  70:../libDaisy/src/util/WavWriter.h ****         num_samps_ = 0;
 1088              		.loc 9 70 20 view .LVU290
 1089 000c 0021     		movs	r1, #0
 1090              	.LBE485:
 1091              	.LBE484:
 1092              	.LBB514:
 1093              	.LBB483:
  29:AudioFileManager.h ****     uint16_t GetFileCount() const { return file_count_; }
 1094              		.loc 8 29 53 view .LVU291
 1095 000e 03F58053 		add	r3, r3, #4096
 1096 0012 B3F92830 		ldrsh	r3, [r3, #40]
 1097              	.LVL80:
  29:AudioFileManager.h ****     uint16_t GetFileCount() const { return file_count_; }
 1098              		.loc 8 29 53 view .LVU292
 1099              	.LBE483:
 1100              	.LBE514:
 454:GrannyChordApp.cpp ****   cfg.samplerate = SAMPLE_RATE;
 1101              		.loc 3 454 3 is_stmt 1 view .LVU293
 455:GrannyChordApp.cpp ****   sd_writer_.Init(cfg);
 1102              		.loc 3 455 3 view .LVU294
 1103              	.LBB515:
 1104              	.LBI484:
  67:../libDaisy/src/util/WavWriter.h ****     {
 1105              		.loc 9 67 10 view .LVU295
 1106              	.LBB512:
  69:../libDaisy/src/util/WavWriter.h ****         num_samps_ = 0;
 1107              		.loc 9 69 9 is_stmt 0 view .LVU296
 1108 0016 82ED0D7A 		vstr.32	s14, [r2, #52]
 1109 001a 1022     		movs	r2, #16
 1110              	.LVL81:
 1111              	.LBB486:
 1112              	.LBB487:
  71:../libDaisy/src/util/WavWriter.h ****         // Prep the wav header according to config.
  72:../libDaisy/src/util/WavWriter.h ****         // Certain things (i.e. Size, etc. will have to wait until the finalization of the file, or
  73:../libDaisy/src/util/WavWriter.h ****         wavheader_.ChunkId       = kWavFileChunkId;     /** "RIFF" */
  74:../libDaisy/src/util/WavWriter.h ****         wavheader_.FileFormat    = kWavFileWaveId;      /** "WAVE" */
  75:../libDaisy/src/util/WavWriter.h ****         wavheader_.SubChunk1ID   = kWavFileSubChunk1Id; /** "fmt " */
  76:../libDaisy/src/util/WavWriter.h ****         wavheader_.SubChunk1Size = 16;                  // for PCM
  77:../libDaisy/src/util/WavWriter.h ****         wavheader_.AudioFormat   = WAVE_FORMAT_PCM;
  78:../libDaisy/src/util/WavWriter.h ****         wavheader_.NbrChannels   = cfg.channels;
  79:../libDaisy/src/util/WavWriter.h ****         wavheader_.SampleRate    = static_cast<int>(cfg.samplerate);
  80:../libDaisy/src/util/WavWriter.h ****         wavheader_.ByteRate      = CalcByteRate();
  81:../libDaisy/src/util/WavWriter.h ****         wavheader_.BlockAlign    = cfg_.channels * cfg_.bitspersample / 8;
  82:../libDaisy/src/util/WavWriter.h ****         wavheader_.BitPerSample  = cfg_.bitspersample;
  83:../libDaisy/src/util/WavWriter.h ****         wavheader_.SubChunk2ID   = kWavFileSubChunk2Id; /** "data" */
  84:../libDaisy/src/util/WavWriter.h ****         /** Also calcs SubChunk2Size */
  85:../libDaisy/src/util/WavWriter.h ****         wavheader_.FileSize = CalcFileSize();
ARM GAS  /var/folders/2p/02m_5p7958535cp2tpgps0400000gn/T//ccx9FAOt.s 			page 41


  86:../libDaisy/src/util/WavWriter.h ****         // This is calculated as part of the subchunk size
  87:../libDaisy/src/util/WavWriter.h ****     }
  88:../libDaisy/src/util/WavWriter.h **** 
  89:../libDaisy/src/util/WavWriter.h ****     /** Records the current sample into the working buffer,
  90:../libDaisy/src/util/WavWriter.h ****      ** queues writes to media when necessary. 
  91:../libDaisy/src/util/WavWriter.h ****      ** 
  92:../libDaisy/src/util/WavWriter.h ****      ** \param in should be a pointer to an array of samples */
  93:../libDaisy/src/util/WavWriter.h ****     void Sample(const float *in)
  94:../libDaisy/src/util/WavWriter.h ****     {
  95:../libDaisy/src/util/WavWriter.h ****         for(int32_t i = 0; i < cfg_.channels; i++)
  96:../libDaisy/src/util/WavWriter.h ****         {
  97:../libDaisy/src/util/WavWriter.h ****             switch(cfg_.bitspersample)
  98:../libDaisy/src/util/WavWriter.h ****             {
  99:../libDaisy/src/util/WavWriter.h ****                 case 16:
 100:../libDaisy/src/util/WavWriter.h ****                 {
 101:../libDaisy/src/util/WavWriter.h ****                     int16_t *tp;
 102:../libDaisy/src/util/WavWriter.h ****                     tp            = (int16_t *)transfer_buff;
 103:../libDaisy/src/util/WavWriter.h ****                     tp[wptr_ + i] = f2s16(in[i]);
 104:../libDaisy/src/util/WavWriter.h ****                 }
 105:../libDaisy/src/util/WavWriter.h ****                 break;
 106:../libDaisy/src/util/WavWriter.h ****                 case 32: transfer_buff[wptr_ + i] = f2s32(in[i]); break;
 107:../libDaisy/src/util/WavWriter.h ****                 default: break;
 108:../libDaisy/src/util/WavWriter.h ****             }
 109:../libDaisy/src/util/WavWriter.h ****         }
 110:../libDaisy/src/util/WavWriter.h ****         num_samps_++;
 111:../libDaisy/src/util/WavWriter.h ****         wptr_ += cfg_.channels;
 112:../libDaisy/src/util/WavWriter.h ****         size_t cap_point
 113:../libDaisy/src/util/WavWriter.h ****             = cfg_.bitspersample == 16 ? kTransferSamps * 2 : kTransferSamps;
 114:../libDaisy/src/util/WavWriter.h ****         if(wptr_ == cap_point)
 115:../libDaisy/src/util/WavWriter.h ****         {
 116:../libDaisy/src/util/WavWriter.h ****             bstate_ = BufferState::FLUSH0;
 117:../libDaisy/src/util/WavWriter.h ****         }
 118:../libDaisy/src/util/WavWriter.h ****         if(wptr_ >= cap_point * 2)
 119:../libDaisy/src/util/WavWriter.h ****         {
 120:../libDaisy/src/util/WavWriter.h ****             wptr_   = 0;
 121:../libDaisy/src/util/WavWriter.h ****             bstate_ = BufferState::FLUSH1;
 122:../libDaisy/src/util/WavWriter.h ****         }
 123:../libDaisy/src/util/WavWriter.h ****     }
 124:../libDaisy/src/util/WavWriter.h **** 
 125:../libDaisy/src/util/WavWriter.h ****     /** Check buffer state and write */
 126:../libDaisy/src/util/WavWriter.h ****     void Write()
 127:../libDaisy/src/util/WavWriter.h ****     {
 128:../libDaisy/src/util/WavWriter.h ****         if(bstate_ != BufferState::IDLE && IsRecording())
 129:../libDaisy/src/util/WavWriter.h ****         {
 130:../libDaisy/src/util/WavWriter.h ****             uint32_t     offset;
 131:../libDaisy/src/util/WavWriter.h ****             unsigned int bw = 0;
 132:../libDaisy/src/util/WavWriter.h ****             //offset          = bstate_ == BufferState::FLUSH0 ? 0 : transfer_size;
 133:../libDaisy/src/util/WavWriter.h ****             offset  = bstate_ == BufferState::FLUSH0 ? 0 : kTransferSamps;
 134:../libDaisy/src/util/WavWriter.h ****             bstate_ = BufferState::IDLE;
 135:../libDaisy/src/util/WavWriter.h ****             f_write(&fp_, &transfer_buff[offset], transfer_size, &bw);
 136:../libDaisy/src/util/WavWriter.h ****         }
 137:../libDaisy/src/util/WavWriter.h ****     }
 138:../libDaisy/src/util/WavWriter.h **** 
 139:../libDaisy/src/util/WavWriter.h ****     /** Finalizes the writing of the WAV file.
 140:../libDaisy/src/util/WavWriter.h **** 	 ** This overwrites the WAV Header with the correct
 141:../libDaisy/src/util/WavWriter.h **** 	 ** final size, and closes the fptr. */
 142:../libDaisy/src/util/WavWriter.h ****     void SaveFile()
ARM GAS  /var/folders/2p/02m_5p7958535cp2tpgps0400000gn/T//ccx9FAOt.s 			page 42


 143:../libDaisy/src/util/WavWriter.h ****     {
 144:../libDaisy/src/util/WavWriter.h ****         unsigned int bw = 0;
 145:../libDaisy/src/util/WavWriter.h ****         recording_      = false;
 146:../libDaisy/src/util/WavWriter.h ****         // We _should_ flush whatever's left in the transfer buff
 147:../libDaisy/src/util/WavWriter.h ****         // TODO: that.
 148:../libDaisy/src/util/WavWriter.h ****         wavheader_.FileSize = CalcFileSize();
 149:../libDaisy/src/util/WavWriter.h ****         f_lseek(&fp_, 0);
 150:../libDaisy/src/util/WavWriter.h ****         f_write(&fp_, &wavheader_, sizeof(wavheader_), &bw);
 151:../libDaisy/src/util/WavWriter.h ****         f_close(&fp_);
 152:../libDaisy/src/util/WavWriter.h ****     }
 153:../libDaisy/src/util/WavWriter.h **** 
 154:../libDaisy/src/util/WavWriter.h ****     /** Opens a file for writing. Writes the initial WAV Header, and gets ready for stream-based re
 155:../libDaisy/src/util/WavWriter.h ****     void OpenFile(const char *name)
 156:../libDaisy/src/util/WavWriter.h ****     {
 157:../libDaisy/src/util/WavWriter.h ****         if(f_open(&fp_, name, FA_WRITE | FA_CREATE_ALWAYS) == FR_OK)
 158:../libDaisy/src/util/WavWriter.h ****         {
 159:../libDaisy/src/util/WavWriter.h ****             unsigned int bw = 0;
 160:../libDaisy/src/util/WavWriter.h ****             if(f_write(&fp_, &wavheader_, sizeof(wavheader_), &bw) == FR_OK)
 161:../libDaisy/src/util/WavWriter.h ****             {
 162:../libDaisy/src/util/WavWriter.h ****                 recording_ = true;
 163:../libDaisy/src/util/WavWriter.h ****                 num_samps_ = 0;
 164:../libDaisy/src/util/WavWriter.h ****             }
 165:../libDaisy/src/util/WavWriter.h ****         }
 166:../libDaisy/src/util/WavWriter.h ****     }
 167:../libDaisy/src/util/WavWriter.h **** 
 168:../libDaisy/src/util/WavWriter.h ****     /** Returns whether recording is currently active or not. */
 169:../libDaisy/src/util/WavWriter.h ****     inline bool IsRecording() const { return recording_; }
 170:../libDaisy/src/util/WavWriter.h **** 
 171:../libDaisy/src/util/WavWriter.h ****     /** Returns the current length in samples of the recording. */
 172:../libDaisy/src/util/WavWriter.h ****     inline uint32_t GetLengthSamps() { return num_samps_; }
 173:../libDaisy/src/util/WavWriter.h **** 
 174:../libDaisy/src/util/WavWriter.h ****     /** Returns the current length of the recording in seconds. */
 175:../libDaisy/src/util/WavWriter.h ****     inline float GetLengthSeconds()
 176:../libDaisy/src/util/WavWriter.h ****     {
 177:../libDaisy/src/util/WavWriter.h ****         return (float)num_samps_ / (float)cfg_.samplerate;
 178:../libDaisy/src/util/WavWriter.h ****     }
 179:../libDaisy/src/util/WavWriter.h **** 
 180:../libDaisy/src/util/WavWriter.h ****   private:
 181:../libDaisy/src/util/WavWriter.h ****     /** Calculate the file size based on current recording */
 182:../libDaisy/src/util/WavWriter.h ****     inline uint32_t CalcFileSize()
 183:../libDaisy/src/util/WavWriter.h ****     {
 184:../libDaisy/src/util/WavWriter.h ****         wavheader_.SubCHunk2Size
 185:../libDaisy/src/util/WavWriter.h ****             = num_samps_ * cfg_.channels * cfg_.bitspersample / 8;
 186:../libDaisy/src/util/WavWriter.h ****         return 36 + wavheader_.SubCHunk2Size;
 187:../libDaisy/src/util/WavWriter.h ****     }
 188:../libDaisy/src/util/WavWriter.h **** 
 189:../libDaisy/src/util/WavWriter.h ****     /** Compute the byte rate given the user settings. */
 190:../libDaisy/src/util/WavWriter.h ****     inline uint32_t CalcByteRate()
 191:../libDaisy/src/util/WavWriter.h ****     {
 192:../libDaisy/src/util/WavWriter.h ****         return cfg_.samplerate * cfg_.channels * cfg_.bitspersample / 8;
 1113              		.loc 9 192 32 view .LVU297
 1114 001c 07EE903A 		vmov	s15, r3	@ int
 1115              	.LBE487:
 1116              	.LBE486:
  70:../libDaisy/src/util/WavWriter.h ****         // Prep the wav header according to config.
 1117              		.loc 9 70 20 view .LVU298
 1118 0020 C0F82416 		str	r1, [r0, #1572]
ARM GAS  /var/folders/2p/02m_5p7958535cp2tpgps0400000gn/T//ccx9FAOt.s 			page 43


  73:../libDaisy/src/util/WavWriter.h ****         wavheader_.FileFormat    = kWavFileWaveId;      /** "WAVE" */
 1119              		.loc 9 73 34 view .LVU299
 1120 0024 2249     		ldr	r1, .L54+4
 1121              	.LBB497:
 1122              	.LBB488:
 1123              		.loc 9 192 32 view .LVU300
 1124 0026 F8EEE77A 		vcvt.f32.s32	s15, s15
 1125              	.LBE488:
 1126              	.LBE497:
 1127              	.LBE512:
 1128              	.LBE515:
 453:GrannyChordApp.cpp ****   cfg.samplerate = SAMPLE_RATE;
 1129              		.loc 3 453 41 view .LVU301
 1130 002a C0F83036 		str	r3, [r0, #1584]
 1131              	.LBB516:
 1132              	.LBB513:
  73:../libDaisy/src/util/WavWriter.h ****         wavheader_.FileFormat    = kWavFileWaveId;      /** "WAVE" */
 1133              		.loc 9 73 34 view .LVU302
 1134 002e C0F8F815 		str	r1, [r0, #1528]
  74:../libDaisy/src/util/WavWriter.h ****         wavheader_.SubChunk1ID   = kWavFileSubChunk1Id; /** "fmt " */
 1135              		.loc 9 74 34 view .LVU303
 1136 0032 A1F57001 		sub	r1, r1, #15728640
  78:../libDaisy/src/util/WavWriter.h ****         wavheader_.SampleRate    = static_cast<int>(cfg.samplerate);
 1137              		.loc 9 78 34 view .LVU304
 1138 0036 A0F80E36 		strh	r3, [r0, #1550]	@ movhi
  81:../libDaisy/src/util/WavWriter.h ****         wavheader_.BitPerSample  = cfg_.bitspersample;
 1139              		.loc 9 81 71 view .LVU305
 1140 003a 1B01     		lsls	r3, r3, #4
 1141              	.LVL82:
 1142              	.LBB498:
 1143              	.LBB489:
 1144              		.loc 9 192 32 view .LVU306
 1145 003c 67EE877A 		vmul.f32	s15, s15, s14
 1146              	.LBE489:
 1147              	.LBE498:
  74:../libDaisy/src/util/WavWriter.h ****         wavheader_.SubChunk1ID   = kWavFileSubChunk1Id; /** "fmt " */
 1148              		.loc 9 74 34 view .LVU307
 1149 0040 A1F2FB71 		subw	r1, r1, #2043
 1150              	.LBB499:
 1151              	.LBB490:
 1152              		.loc 9 192 48 view .LVU308
 1153 0044 B3EE007A 		vmov.f32	s14, #1.6e+1
 1154              	.LBE490:
 1155              	.LBE499:
  81:../libDaisy/src/util/WavWriter.h ****         wavheader_.BitPerSample  = cfg_.bitspersample;
 1156              		.loc 9 81 71 view .LVU309
 1157 0048 48BF     		it	mi
 1158 004a 0733     		addmi	r3, r3, #7
  74:../libDaisy/src/util/WavWriter.h ****         wavheader_.SubChunk1ID   = kWavFileSubChunk1Id; /** "fmt " */
 1159              		.loc 9 74 34 view .LVU310
 1160 004c C0F80016 		str	r1, [r0, #1536]
  75:../libDaisy/src/util/WavWriter.h ****         wavheader_.SubChunk1Size = 16;                  // for PCM
 1161              		.loc 9 75 34 view .LVU311
 1162 0050 01F15B41 		add	r1, r1, #-620756992
  81:../libDaisy/src/util/WavWriter.h ****         wavheader_.BitPerSample  = cfg_.bitspersample;
 1163              		.loc 9 81 71 view .LVU312
 1164 0054 DB10     		asrs	r3, r3, #3
ARM GAS  /var/folders/2p/02m_5p7958535cp2tpgps0400000gn/T//ccx9FAOt.s 			page 44


  69:../libDaisy/src/util/WavWriter.h ****         num_samps_ = 0;
 1165              		.loc 9 69 9 view .LVU313
 1166 0056 C0F83426 		str	r2, [r0, #1588]
 1167              	.LBB500:
 1168              	.LBB491:
 1169              		.loc 9 192 48 view .LVU314
 1170 005a 67EE877A 		vmul.f32	s15, s15, s14
 1171              	.LBE491:
 1172              	.LBE500:
  75:../libDaisy/src/util/WavWriter.h ****         wavheader_.SubChunk1Size = 16;                  // for PCM
 1173              		.loc 9 75 34 view .LVU315
 1174 005e 01F5F111 		add	r1, r1, #1974272
 1175              	.LBB501:
 1176              	.LBB492:
 1177              		.loc 9 192 69 view .LVU316
 1178 0062 B4EE007A 		vmov.f32	s14, #1.25e-1
 1179              	.LBE492:
 1180              	.LBE501:
  81:../libDaisy/src/util/WavWriter.h ****         wavheader_.BitPerSample  = cfg_.bitspersample;
 1181              		.loc 9 81 34 view .LVU317
 1182 0066 A0F81836 		strh	r3, [r0, #1560]	@ movhi
  75:../libDaisy/src/util/WavWriter.h ****         wavheader_.SubChunk1Size = 16;                  // for PCM
 1183              		.loc 9 75 34 view .LVU318
 1184 006a 01F60F41 		addw	r1, r1, #3087
  83:../libDaisy/src/util/WavWriter.h ****         /** Also calcs SubChunk2Size */
 1185              		.loc 9 83 34 view .LVU319
 1186 006e 114B     		ldr	r3, .L54+8
  76:../libDaisy/src/util/WavWriter.h ****         wavheader_.AudioFormat   = WAVE_FORMAT_PCM;
 1187              		.loc 9 76 34 view .LVU320
 1188 0070 C0F80826 		str	r2, [r0, #1544]
 1189              	.LBB502:
 1190              	.LBB493:
 1191              		.loc 9 192 69 view .LVU321
 1192 0074 67EE877A 		vmul.f32	s15, s15, s14
 1193              	.LBE493:
 1194              	.LBE502:
  75:../libDaisy/src/util/WavWriter.h ****         wavheader_.SubChunk1Size = 16;                  // for PCM
 1195              		.loc 9 75 34 view .LVU322
 1196 0078 C0F80416 		str	r1, [r0, #1540]
  77:../libDaisy/src/util/WavWriter.h ****         wavheader_.NbrChannels   = cfg.channels;
 1197              		.loc 9 77 34 view .LVU323
 1198 007c 0121     		movs	r1, #1
  83:../libDaisy/src/util/WavWriter.h ****         /** Also calcs SubChunk2Size */
 1199              		.loc 9 83 34 view .LVU324
 1200 007e C0F81C36 		str	r3, [r0, #1564]
 1201              	.LBB503:
 1202              	.LBB504:
 185:../libDaisy/src/util/WavWriter.h ****         return 36 + wavheader_.SubCHunk2Size;
 1203              		.loc 9 185 13 view .LVU325
 1204 0082 0023     		movs	r3, #0
 1205              	.LBE504:
 1206              	.LBE503:
  82:../libDaisy/src/util/WavWriter.h ****         wavheader_.SubChunk2ID   = kWavFileSubChunk2Id; /** "data" */
 1207              		.loc 9 82 34 view .LVU326
 1208 0084 A0F81A26 		strh	r2, [r0, #1562]	@ movhi
 1209              	.LBB506:
 1210              	.LBB494:
ARM GAS  /var/folders/2p/02m_5p7958535cp2tpgps0400000gn/T//ccx9FAOt.s 			page 45


 1211              		.loc 9 192 71 view .LVU327
 1212 0088 FCEEE77A 		vcvt.u32.f32	s15, s15
 1213              	.LBE494:
 1214              	.LBE506:
  77:../libDaisy/src/util/WavWriter.h ****         wavheader_.NbrChannels   = cfg.channels;
 1215              		.loc 9 77 34 view .LVU328
 1216 008c A0F80C16 		strh	r1, [r0, #1548]	@ movhi
  79:../libDaisy/src/util/WavWriter.h ****         wavheader_.ByteRate      = CalcByteRate();
 1217              		.loc 9 79 34 view .LVU329
 1218 0090 4BF68031 		movw	r1, #48000
 1219              	.LBB507:
 1220              	.LBB505:
 185:../libDaisy/src/util/WavWriter.h ****         return 36 + wavheader_.SubCHunk2Size;
 1221              		.loc 9 185 13 view .LVU330
 1222 0094 C0F82036 		str	r3, [r0, #1568]
 1223              	.LBE505:
 1224              	.LBE507:
  85:../libDaisy/src/util/WavWriter.h ****         // This is calculated as part of the subchunk size
 1225              		.loc 9 85 29 view .LVU331
 1226 0098 2423     		movs	r3, #36
  79:../libDaisy/src/util/WavWriter.h ****         wavheader_.ByteRate      = CalcByteRate();
 1227              		.loc 9 79 34 view .LVU332
 1228 009a C0F81016 		str	r1, [r0, #1552]
 1229              	.LVL83:
 1230              	.LBB508:
 1231              	.LBI486:
 190:../libDaisy/src/util/WavWriter.h ****     {
 1232              		.loc 9 190 21 is_stmt 1 view .LVU333
 190:../libDaisy/src/util/WavWriter.h ****     {
 1233              		.loc 9 190 21 is_stmt 0 view .LVU334
 1234              	.LBE508:
 1235              	.LBB509:
 1236              	.LBI503:
 182:../libDaisy/src/util/WavWriter.h ****     {
 1237              		.loc 9 182 21 is_stmt 1 view .LVU335
 182:../libDaisy/src/util/WavWriter.h ****     {
 1238              		.loc 9 182 21 is_stmt 0 view .LVU336
 1239              	.LBE509:
 1240              	.LBB510:
 1241              	.LBB495:
 1242              		.loc 9 192 71 view .LVU337
 1243 009e 17EE901A 		vmov	r1, s15	@ int
 1244              	.LBE495:
 1245              	.LBE510:
  85:../libDaisy/src/util/WavWriter.h ****         // This is calculated as part of the subchunk size
 1246              		.loc 9 85 29 view .LVU338
 1247 00a2 C0F8FC35 		str	r3, [r0, #1532]
 1248              	.LVL84:
 1249              	.LBB511:
 1250              	.LBB496:
 1251              		.loc 9 192 71 view .LVU339
 1252 00a6 C0F81416 		str	r1, [r0, #1556]
 1253              	.LBE496:
 1254              	.LBE511:
 1255              	.LBE513:
 1256              	.LBE516:
 456:GrannyChordApp.cpp **** }
ARM GAS  /var/folders/2p/02m_5p7958535cp2tpgps0400000gn/T//ccx9FAOt.s 			page 46


 1257              		.loc 3 456 1 view .LVU340
 1258 00aa 7047     		bx	lr
 1259              	.L55:
 1260              		.align	2
 1261              	.L54:
 1262 00ac 00803B47 		.word	1195081728
 1263 00b0 52494646 		.word	1179011410
 1264 00b4 64617461 		.word	1635017060
 1265              		.cfi_endproc
 1266              	.LFE4926:
 1268              		.section	.text._ZN14GrannyChordApp6InitFXEv,"ax",%progbits
 1269              		.align	1
 1270              		.global	_ZN14GrannyChordApp6InitFXEv
 1271              		.syntax unified
 1272              		.thumb
 1273              		.thumb_func
 1275              	_ZN14GrannyChordApp6InitFXEv:
 1276              	.LVL85:
 1277              	.LFB4927:
 457:GrannyChordApp.cpp **** 
 458:GrannyChordApp.cpp **** /// @brief initialise reverb, compressor, filter configs for FX section 
 459:GrannyChordApp.cpp **** void GrannyChordApp::InitFX(){
 1278              		.loc 3 459 30 is_stmt 1 view -0
 1279              		.cfi_startproc
 1280              		@ args = 0, pretend = 0, frame = 0
 1281              		@ frame_needed = 0, uses_anonymous_args = 0
 460:GrannyChordApp.cpp ****   comp_.Init(pod_.AudioSampleRate());
 1282              		.loc 3 460 3 view .LVU342
 459:GrannyChordApp.cpp ****   comp_.Init(pod_.AudioSampleRate());
 1283              		.loc 3 459 30 is_stmt 0 view .LVU343
 1284 0000 38B5     		push	{r3, r4, r5, lr}
 1285              		.cfi_def_cfa_offset 16
 1286              		.cfi_offset 3, -16
 1287              		.cfi_offset 4, -12
 1288              		.cfi_offset 5, -8
 1289              		.cfi_offset 14, -4
 1290 0002 0546     		mov	r5, r0
 1291              		.loc 3 460 13 view .LVU344
 1292 0004 C069     		ldr	r0, [r0, #28]
 1293              	.LVL86:
 1294              		.loc 3 460 13 view .LVU345
 1295 0006 05F58964 		add	r4, r5, #1096
 459:GrannyChordApp.cpp ****   comp_.Init(pod_.AudioSampleRate());
 1296              		.loc 3 459 30 view .LVU346
 1297 000a 2DED028B 		vpush.64	{d8}
 1298              		.cfi_def_cfa_offset 24
 1299              		.cfi_offset 80, -24
 1300              		.cfi_offset 81, -20
 1301              		.loc 3 460 13 view .LVU347
 1302 000e FFF7FEFF 		bl	_ZN5daisy8DaisyPod15AudioSampleRateEv
 1303              	.LVL87:
 1304              	.LBB548:
 1305              	.LBB549:
 1306              	.LBB550:
 1307              	.LBB551:
 1308              		.file 10 "../DaisySP/Source/../DaisySP-LGPL/Source/Dynamics/compressor.h"
   1:../DaisySP/Source/../DaisySP-LGPL/Source/Dynamics/compressor.h **** /*
ARM GAS  /var/folders/2p/02m_5p7958535cp2tpgps0400000gn/T//ccx9FAOt.s 			page 47


   2:../DaisySP/Source/../DaisySP-LGPL/Source/Dynamics/compressor.h **** Copyright (c) 2023 Electrosmith, Corp, GRAME, Centre National de Creation Musicale.
   3:../DaisySP/Source/../DaisySP-LGPL/Source/Dynamics/compressor.h **** 
   4:../DaisySP/Source/../DaisySP-LGPL/Source/Dynamics/compressor.h **** Use of this source code is governed by the LGPL V2.1
   5:../DaisySP/Source/../DaisySP-LGPL/Source/Dynamics/compressor.h **** license that can be found in the LICENSE file or at
   6:../DaisySP/Source/../DaisySP-LGPL/Source/Dynamics/compressor.h **** https://opensource.org/license/lgpl-2-1/
   7:../DaisySP/Source/../DaisySP-LGPL/Source/Dynamics/compressor.h **** */
   8:../DaisySP/Source/../DaisySP-LGPL/Source/Dynamics/compressor.h **** 
   9:../DaisySP/Source/../DaisySP-LGPL/Source/Dynamics/compressor.h **** #pragma once
  10:../DaisySP/Source/../DaisySP-LGPL/Source/Dynamics/compressor.h **** #ifndef DSY_COMPRESSOR_H
  11:../DaisySP/Source/../DaisySP-LGPL/Source/Dynamics/compressor.h **** #define DSY_COMPRESSOR_H
  12:../DaisySP/Source/../DaisySP-LGPL/Source/Dynamics/compressor.h **** 
  13:../DaisySP/Source/../DaisySP-LGPL/Source/Dynamics/compressor.h **** #include "Utility/dsp.h"
  14:../DaisySP/Source/../DaisySP-LGPL/Source/Dynamics/compressor.h **** 
  15:../DaisySP/Source/../DaisySP-LGPL/Source/Dynamics/compressor.h **** namespace daisysp
  16:../DaisySP/Source/../DaisySP-LGPL/Source/Dynamics/compressor.h **** {
  17:../DaisySP/Source/../DaisySP-LGPL/Source/Dynamics/compressor.h **** /** dynamics compressor
  18:../DaisySP/Source/../DaisySP-LGPL/Source/Dynamics/compressor.h **** 
  19:../DaisySP/Source/../DaisySP-LGPL/Source/Dynamics/compressor.h **** influenced by compressor in soundpipe (from faust).
  20:../DaisySP/Source/../DaisySP-LGPL/Source/Dynamics/compressor.h **** 
  21:../DaisySP/Source/../DaisySP-LGPL/Source/Dynamics/compressor.h **** Modifications made to do:
  22:../DaisySP/Source/../DaisySP-LGPL/Source/Dynamics/compressor.h **** - Less calculations during each process loop (coefficients recalculated on parameter change).
  23:../DaisySP/Source/../DaisySP-LGPL/Source/Dynamics/compressor.h **** - C++-ified
  24:../DaisySP/Source/../DaisySP-LGPL/Source/Dynamics/compressor.h **** - added sidechain support
  25:../DaisySP/Source/../DaisySP-LGPL/Source/Dynamics/compressor.h **** - pulled gain apart for monitoring and multichannel support
  26:../DaisySP/Source/../DaisySP-LGPL/Source/Dynamics/compressor.h **** - improved readability
  27:../DaisySP/Source/../DaisySP-LGPL/Source/Dynamics/compressor.h **** - improved makeup-gain calculations
  28:../DaisySP/Source/../DaisySP-LGPL/Source/Dynamics/compressor.h **** - changing controls now costs a lot less
  29:../DaisySP/Source/../DaisySP-LGPL/Source/Dynamics/compressor.h **** - a lot less expensive
  30:../DaisySP/Source/../DaisySP-LGPL/Source/Dynamics/compressor.h **** 
  31:../DaisySP/Source/../DaisySP-LGPL/Source/Dynamics/compressor.h **** by: shensley, improved upon by AvAars
  32:../DaisySP/Source/../DaisySP-LGPL/Source/Dynamics/compressor.h **** \todo Add soft/hard knee settings
  33:../DaisySP/Source/../DaisySP-LGPL/Source/Dynamics/compressor.h **** */
  34:../DaisySP/Source/../DaisySP-LGPL/Source/Dynamics/compressor.h **** class Compressor
  35:../DaisySP/Source/../DaisySP-LGPL/Source/Dynamics/compressor.h **** {
  36:../DaisySP/Source/../DaisySP-LGPL/Source/Dynamics/compressor.h ****   public:
  37:../DaisySP/Source/../DaisySP-LGPL/Source/Dynamics/compressor.h ****     Compressor() {}
  38:../DaisySP/Source/../DaisySP-LGPL/Source/Dynamics/compressor.h ****     ~Compressor() {}
  39:../DaisySP/Source/../DaisySP-LGPL/Source/Dynamics/compressor.h ****     /** Initializes compressor
  40:../DaisySP/Source/../DaisySP-LGPL/Source/Dynamics/compressor.h ****         \param sample_rate rate at which samples will be produced by the audio engine.
  41:../DaisySP/Source/../DaisySP-LGPL/Source/Dynamics/compressor.h ****     */
  42:../DaisySP/Source/../DaisySP-LGPL/Source/Dynamics/compressor.h ****     void Init(float sample_rate);
  43:../DaisySP/Source/../DaisySP-LGPL/Source/Dynamics/compressor.h **** 
  44:../DaisySP/Source/../DaisySP-LGPL/Source/Dynamics/compressor.h ****     /** Compress the audio input signal, saves the calculated gain
  45:../DaisySP/Source/../DaisySP-LGPL/Source/Dynamics/compressor.h ****         \param in audio input signal
  46:../DaisySP/Source/../DaisySP-LGPL/Source/Dynamics/compressor.h ****     */
  47:../DaisySP/Source/../DaisySP-LGPL/Source/Dynamics/compressor.h ****     float Process(float in);
  48:../DaisySP/Source/../DaisySP-LGPL/Source/Dynamics/compressor.h **** 
  49:../DaisySP/Source/../DaisySP-LGPL/Source/Dynamics/compressor.h ****     /** Compresses the audio input signal, keyed by a secondary input.
  50:../DaisySP/Source/../DaisySP-LGPL/Source/Dynamics/compressor.h ****         \param in audio input signal (to be compressed)
  51:../DaisySP/Source/../DaisySP-LGPL/Source/Dynamics/compressor.h ****         \param key audio input that will be used to side-chain the compressor
  52:../DaisySP/Source/../DaisySP-LGPL/Source/Dynamics/compressor.h ****     */
  53:../DaisySP/Source/../DaisySP-LGPL/Source/Dynamics/compressor.h ****     float Process(float in, float key)
  54:../DaisySP/Source/../DaisySP-LGPL/Source/Dynamics/compressor.h ****     {
  55:../DaisySP/Source/../DaisySP-LGPL/Source/Dynamics/compressor.h ****         Process(key);
  56:../DaisySP/Source/../DaisySP-LGPL/Source/Dynamics/compressor.h ****         return Apply(in);
  57:../DaisySP/Source/../DaisySP-LGPL/Source/Dynamics/compressor.h ****     }
  58:../DaisySP/Source/../DaisySP-LGPL/Source/Dynamics/compressor.h **** 
ARM GAS  /var/folders/2p/02m_5p7958535cp2tpgps0400000gn/T//ccx9FAOt.s 			page 48


  59:../DaisySP/Source/../DaisySP-LGPL/Source/Dynamics/compressor.h ****     /** Apply compression to the audio signal, based on the previously calculated gain
  60:../DaisySP/Source/../DaisySP-LGPL/Source/Dynamics/compressor.h ****         \param in audio input signal
  61:../DaisySP/Source/../DaisySP-LGPL/Source/Dynamics/compressor.h ****     */
  62:../DaisySP/Source/../DaisySP-LGPL/Source/Dynamics/compressor.h ****     float Apply(float in) { return gain_ * in; }
  63:../DaisySP/Source/../DaisySP-LGPL/Source/Dynamics/compressor.h **** 
  64:../DaisySP/Source/../DaisySP-LGPL/Source/Dynamics/compressor.h ****     /** Compresses a block of audio
  65:../DaisySP/Source/../DaisySP-LGPL/Source/Dynamics/compressor.h ****         \param in audio input signal
  66:../DaisySP/Source/../DaisySP-LGPL/Source/Dynamics/compressor.h ****         \param out audio output signal
  67:../DaisySP/Source/../DaisySP-LGPL/Source/Dynamics/compressor.h ****         \param size the size of the block
  68:../DaisySP/Source/../DaisySP-LGPL/Source/Dynamics/compressor.h ****     */
  69:../DaisySP/Source/../DaisySP-LGPL/Source/Dynamics/compressor.h ****     void ProcessBlock(float *in, float *out, size_t size)
  70:../DaisySP/Source/../DaisySP-LGPL/Source/Dynamics/compressor.h ****     {
  71:../DaisySP/Source/../DaisySP-LGPL/Source/Dynamics/compressor.h ****         ProcessBlock(in, out, in, size);
  72:../DaisySP/Source/../DaisySP-LGPL/Source/Dynamics/compressor.h ****     }
  73:../DaisySP/Source/../DaisySP-LGPL/Source/Dynamics/compressor.h **** 
  74:../DaisySP/Source/../DaisySP-LGPL/Source/Dynamics/compressor.h ****     /** Compresses a block of audio, keyed by a secondary input
  75:../DaisySP/Source/../DaisySP-LGPL/Source/Dynamics/compressor.h ****         \param in audio input signal (to be compressed)
  76:../DaisySP/Source/../DaisySP-LGPL/Source/Dynamics/compressor.h ****         \param out audio output signal
  77:../DaisySP/Source/../DaisySP-LGPL/Source/Dynamics/compressor.h ****         \param key audio input that will be used to side-chain the compressor
  78:../DaisySP/Source/../DaisySP-LGPL/Source/Dynamics/compressor.h ****         \param size the size of the block
  79:../DaisySP/Source/../DaisySP-LGPL/Source/Dynamics/compressor.h ****     */
  80:../DaisySP/Source/../DaisySP-LGPL/Source/Dynamics/compressor.h ****     void ProcessBlock(float *in, float *out, float *key, size_t size);
  81:../DaisySP/Source/../DaisySP-LGPL/Source/Dynamics/compressor.h **** 
  82:../DaisySP/Source/../DaisySP-LGPL/Source/Dynamics/compressor.h ****     /** Compresses a block of multiple channels of audio, keyed by a secondary input
  83:../DaisySP/Source/../DaisySP-LGPL/Source/Dynamics/compressor.h ****         \param in audio input signals (to be compressed)
  84:../DaisySP/Source/../DaisySP-LGPL/Source/Dynamics/compressor.h ****         \param out audio output signals
  85:../DaisySP/Source/../DaisySP-LGPL/Source/Dynamics/compressor.h ****         \param key audio input that will be used to side-chain the compressor
  86:../DaisySP/Source/../DaisySP-LGPL/Source/Dynamics/compressor.h ****         \param channels the number of audio channels
  87:../DaisySP/Source/../DaisySP-LGPL/Source/Dynamics/compressor.h ****         \param size the size of the block
  88:../DaisySP/Source/../DaisySP-LGPL/Source/Dynamics/compressor.h ****     */
  89:../DaisySP/Source/../DaisySP-LGPL/Source/Dynamics/compressor.h ****     void ProcessBlock(float **in,
  90:../DaisySP/Source/../DaisySP-LGPL/Source/Dynamics/compressor.h ****                       float **out,
  91:../DaisySP/Source/../DaisySP-LGPL/Source/Dynamics/compressor.h ****                       float * key,
  92:../DaisySP/Source/../DaisySP-LGPL/Source/Dynamics/compressor.h ****                       size_t  channels,
  93:../DaisySP/Source/../DaisySP-LGPL/Source/Dynamics/compressor.h ****                       size_t  size);
  94:../DaisySP/Source/../DaisySP-LGPL/Source/Dynamics/compressor.h **** 
  95:../DaisySP/Source/../DaisySP-LGPL/Source/Dynamics/compressor.h ****     /** Gets the amount of gain reduction */
  96:../DaisySP/Source/../DaisySP-LGPL/Source/Dynamics/compressor.h ****     float GetRatio() { return ratio_; }
  97:../DaisySP/Source/../DaisySP-LGPL/Source/Dynamics/compressor.h **** 
  98:../DaisySP/Source/../DaisySP-LGPL/Source/Dynamics/compressor.h ****     /** Sets the amount of gain reduction applied to compressed signals
  99:../DaisySP/Source/../DaisySP-LGPL/Source/Dynamics/compressor.h ****      \param ratio Expects 1.0 -> 40. (untested with values < 1.0)
 100:../DaisySP/Source/../DaisySP-LGPL/Source/Dynamics/compressor.h ****     */
 101:../DaisySP/Source/../DaisySP-LGPL/Source/Dynamics/compressor.h ****     void SetRatio(float ratio)
 102:../DaisySP/Source/../DaisySP-LGPL/Source/Dynamics/compressor.h ****     {
 103:../DaisySP/Source/../DaisySP-LGPL/Source/Dynamics/compressor.h ****         ratio_ = ratio;
 104:../DaisySP/Source/../DaisySP-LGPL/Source/Dynamics/compressor.h ****         RecalculateRatio();
 105:../DaisySP/Source/../DaisySP-LGPL/Source/Dynamics/compressor.h ****     }
 106:../DaisySP/Source/../DaisySP-LGPL/Source/Dynamics/compressor.h **** 
 107:../DaisySP/Source/../DaisySP-LGPL/Source/Dynamics/compressor.h ****     /** Gets the threshold in dB */
 108:../DaisySP/Source/../DaisySP-LGPL/Source/Dynamics/compressor.h ****     float GetThreshold() { return thresh_; }
 109:../DaisySP/Source/../DaisySP-LGPL/Source/Dynamics/compressor.h **** 
 110:../DaisySP/Source/../DaisySP-LGPL/Source/Dynamics/compressor.h ****     /** Sets the threshold in dB at which compression will be applied
 111:../DaisySP/Source/../DaisySP-LGPL/Source/Dynamics/compressor.h ****      \param threshold Expects 0.0 -> -80.
 112:../DaisySP/Source/../DaisySP-LGPL/Source/Dynamics/compressor.h ****     */
 113:../DaisySP/Source/../DaisySP-LGPL/Source/Dynamics/compressor.h ****     void SetThreshold(float threshold)
 114:../DaisySP/Source/../DaisySP-LGPL/Source/Dynamics/compressor.h ****     {
 115:../DaisySP/Source/../DaisySP-LGPL/Source/Dynamics/compressor.h ****         thresh_ = threshold;
ARM GAS  /var/folders/2p/02m_5p7958535cp2tpgps0400000gn/T//ccx9FAOt.s 			page 49


 116:../DaisySP/Source/../DaisySP-LGPL/Source/Dynamics/compressor.h ****         RecalculateMakeup();
 117:../DaisySP/Source/../DaisySP-LGPL/Source/Dynamics/compressor.h ****     }
 118:../DaisySP/Source/../DaisySP-LGPL/Source/Dynamics/compressor.h **** 
 119:../DaisySP/Source/../DaisySP-LGPL/Source/Dynamics/compressor.h ****     /** Gets the envelope time for onset of compression */
 120:../DaisySP/Source/../DaisySP-LGPL/Source/Dynamics/compressor.h ****     float GetAttack() { return atk_; }
 121:../DaisySP/Source/../DaisySP-LGPL/Source/Dynamics/compressor.h **** 
 122:../DaisySP/Source/../DaisySP-LGPL/Source/Dynamics/compressor.h ****     /** Sets the envelope time for onset of compression for signals above the threshold.
 123:../DaisySP/Source/../DaisySP-LGPL/Source/Dynamics/compressor.h ****         \param attack Expects 0.001 -> 10
 124:../DaisySP/Source/../DaisySP-LGPL/Source/Dynamics/compressor.h ****     */
 125:../DaisySP/Source/../DaisySP-LGPL/Source/Dynamics/compressor.h ****     void SetAttack(float attack)
 126:../DaisySP/Source/../DaisySP-LGPL/Source/Dynamics/compressor.h ****     {
 127:../DaisySP/Source/../DaisySP-LGPL/Source/Dynamics/compressor.h ****         atk_ = attack;
 128:../DaisySP/Source/../DaisySP-LGPL/Source/Dynamics/compressor.h ****         RecalculateAttack();
 129:../DaisySP/Source/../DaisySP-LGPL/Source/Dynamics/compressor.h ****     }
 130:../DaisySP/Source/../DaisySP-LGPL/Source/Dynamics/compressor.h **** 
 131:../DaisySP/Source/../DaisySP-LGPL/Source/Dynamics/compressor.h ****     /** Gets the envelope time for release of compression */
 132:../DaisySP/Source/../DaisySP-LGPL/Source/Dynamics/compressor.h ****     float GetRelease() { return rel_; }
 133:../DaisySP/Source/../DaisySP-LGPL/Source/Dynamics/compressor.h **** 
 134:../DaisySP/Source/../DaisySP-LGPL/Source/Dynamics/compressor.h ****     /** Sets the envelope time for release of compression as input signal falls below threshold.
 135:../DaisySP/Source/../DaisySP-LGPL/Source/Dynamics/compressor.h ****         \param release Expects 0.001 -> 10
 136:../DaisySP/Source/../DaisySP-LGPL/Source/Dynamics/compressor.h ****     */
 137:../DaisySP/Source/../DaisySP-LGPL/Source/Dynamics/compressor.h ****     void SetRelease(float release)
 138:../DaisySP/Source/../DaisySP-LGPL/Source/Dynamics/compressor.h ****     {
 139:../DaisySP/Source/../DaisySP-LGPL/Source/Dynamics/compressor.h ****         rel_ = release;
 140:../DaisySP/Source/../DaisySP-LGPL/Source/Dynamics/compressor.h ****         RecalculateRelease();
 141:../DaisySP/Source/../DaisySP-LGPL/Source/Dynamics/compressor.h ****     }
 142:../DaisySP/Source/../DaisySP-LGPL/Source/Dynamics/compressor.h **** 
 143:../DaisySP/Source/../DaisySP-LGPL/Source/Dynamics/compressor.h ****     /** Gets the additional gain to make up for the compression */
 144:../DaisySP/Source/../DaisySP-LGPL/Source/Dynamics/compressor.h ****     float GetMakeup() { return makeup_gain_; }
 145:../DaisySP/Source/../DaisySP-LGPL/Source/Dynamics/compressor.h **** 
 146:../DaisySP/Source/../DaisySP-LGPL/Source/Dynamics/compressor.h ****     /** Manually sets the additional gain to make up for the compression
 147:../DaisySP/Source/../DaisySP-LGPL/Source/Dynamics/compressor.h ****         \param gain Expects 0.0 -> 80
 148:../DaisySP/Source/../DaisySP-LGPL/Source/Dynamics/compressor.h ****     */
 149:../DaisySP/Source/../DaisySP-LGPL/Source/Dynamics/compressor.h ****     void SetMakeup(float gain) { makeup_gain_ = gain; }
 150:../DaisySP/Source/../DaisySP-LGPL/Source/Dynamics/compressor.h **** 
 151:../DaisySP/Source/../DaisySP-LGPL/Source/Dynamics/compressor.h ****     /** Enables or disables the automatic makeup gain. Disabling sets the makeup gain to 0.0
 152:../DaisySP/Source/../DaisySP-LGPL/Source/Dynamics/compressor.h ****         \param enable true to enable, false to disable
 153:../DaisySP/Source/../DaisySP-LGPL/Source/Dynamics/compressor.h ****     */
 154:../DaisySP/Source/../DaisySP-LGPL/Source/Dynamics/compressor.h ****     void AutoMakeup(bool enable)
 155:../DaisySP/Source/../DaisySP-LGPL/Source/Dynamics/compressor.h ****     {
 156:../DaisySP/Source/../DaisySP-LGPL/Source/Dynamics/compressor.h ****         makeup_auto_ = enable;
 157:../DaisySP/Source/../DaisySP-LGPL/Source/Dynamics/compressor.h ****         makeup_gain_ = 0.0f;
 158:../DaisySP/Source/../DaisySP-LGPL/Source/Dynamics/compressor.h ****         RecalculateMakeup();
 159:../DaisySP/Source/../DaisySP-LGPL/Source/Dynamics/compressor.h ****     }
 160:../DaisySP/Source/../DaisySP-LGPL/Source/Dynamics/compressor.h **** 
 161:../DaisySP/Source/../DaisySP-LGPL/Source/Dynamics/compressor.h ****     /** Gets the gain reduction in dB
 162:../DaisySP/Source/../DaisySP-LGPL/Source/Dynamics/compressor.h ****     */
 163:../DaisySP/Source/../DaisySP-LGPL/Source/Dynamics/compressor.h ****     float GetGain() { return fastlog10f(gain_) * 20.0f; }
 164:../DaisySP/Source/../DaisySP-LGPL/Source/Dynamics/compressor.h **** 
 165:../DaisySP/Source/../DaisySP-LGPL/Source/Dynamics/compressor.h ****   private:
 166:../DaisySP/Source/../DaisySP-LGPL/Source/Dynamics/compressor.h ****     float ratio_, thresh_, atk_, rel_;
 167:../DaisySP/Source/../DaisySP-LGPL/Source/Dynamics/compressor.h ****     float makeup_gain_;
 168:../DaisySP/Source/../DaisySP-LGPL/Source/Dynamics/compressor.h ****     float gain_;
 169:../DaisySP/Source/../DaisySP-LGPL/Source/Dynamics/compressor.h **** 
 170:../DaisySP/Source/../DaisySP-LGPL/Source/Dynamics/compressor.h ****     // Recorded slope and gain, used in next sample
 171:../DaisySP/Source/../DaisySP-LGPL/Source/Dynamics/compressor.h ****     float slope_rec_, gain_rec_;
 172:../DaisySP/Source/../DaisySP-LGPL/Source/Dynamics/compressor.h **** 
ARM GAS  /var/folders/2p/02m_5p7958535cp2tpgps0400000gn/T//ccx9FAOt.s 			page 50


 173:../DaisySP/Source/../DaisySP-LGPL/Source/Dynamics/compressor.h ****     // Internals from faust
 174:../DaisySP/Source/../DaisySP-LGPL/Source/Dynamics/compressor.h ****     float atk_slo2_, ratio_mul_, atk_slo_, rel_slo_;
 175:../DaisySP/Source/../DaisySP-LGPL/Source/Dynamics/compressor.h **** 
 176:../DaisySP/Source/../DaisySP-LGPL/Source/Dynamics/compressor.h ****     int   sample_rate_;
 177:../DaisySP/Source/../DaisySP-LGPL/Source/Dynamics/compressor.h ****     float sample_rate_inv2_, sample_rate_inv_;
 178:../DaisySP/Source/../DaisySP-LGPL/Source/Dynamics/compressor.h **** 
 179:../DaisySP/Source/../DaisySP-LGPL/Source/Dynamics/compressor.h ****     // Auto makeup gain enable
 180:../DaisySP/Source/../DaisySP-LGPL/Source/Dynamics/compressor.h ****     bool makeup_auto_;
 181:../DaisySP/Source/../DaisySP-LGPL/Source/Dynamics/compressor.h **** 
 182:../DaisySP/Source/../DaisySP-LGPL/Source/Dynamics/compressor.h ****     // Methods for recalculating internals
 183:../DaisySP/Source/../DaisySP-LGPL/Source/Dynamics/compressor.h ****     void RecalculateRatio()
 184:../DaisySP/Source/../DaisySP-LGPL/Source/Dynamics/compressor.h ****     {
 185:../DaisySP/Source/../DaisySP-LGPL/Source/Dynamics/compressor.h ****         ratio_mul_ = ((1.0f - atk_slo2_) * ((1.0f / ratio_) - 1.0f));
 1309              		.loc 10 185 29 view .LVU348
 1310 0012 B7EE008A 		vmov.f32	s16, #1.0e+0
 1311              	.LBE551:
 1312              	.LBE550:
 1313              	.LBE549:
 1314              	.LBE548:
 1315              		.loc 3 460 13 view .LVU349
 1316 0016 2046     		mov	r0, r4
 1317 0018 FFF7FEFF 		bl	_ZN7daisysp10Compressor4InitEf
 1318              	.LVL88:
 461:GrannyChordApp.cpp **** 
 462:GrannyChordApp.cpp ****   comp_.SetRatio(4.0f);
 1319              		.loc 3 462 3 is_stmt 1 view .LVU350
 1320              	.LBB562:
 1321              	.LBI548:
 101:../DaisySP/Source/../DaisySP-LGPL/Source/Dynamics/compressor.h ****     {
 1322              		.loc 10 101 10 view .LVU351
 1323              	.LBB560:
 103:../DaisySP/Source/../DaisySP-LGPL/Source/Dynamics/compressor.h ****         RecalculateRatio();
 1324              		.loc 10 103 9 view .LVU352
 1325              	.LBB556:
 1326              	.LBB552:
 1327              		.loc 10 185 29 is_stmt 0 view .LVU353
 1328 001c D4ED087A 		vldr.32	s15, [r4, #32]
 1329              		.loc 10 185 42 view .LVU354
 1330 0020 BEEE087A 		vmov.f32	s14, #-7.5e-1
 1331              	.LBE552:
 1332              	.LBE556:
 103:../DaisySP/Source/../DaisySP-LGPL/Source/Dynamics/compressor.h ****         RecalculateRatio();
 1333              		.loc 10 103 16 view .LVU355
 1334 0024 4FF08143 		mov	r3, #1082130432
 1335              	.LBB557:
 1336              	.LBB553:
 1337              		.loc 10 185 29 view .LVU356
 1338 0028 78EE677A 		vsub.f32	s15, s16, s15
 1339              	.LBE553:
 1340              	.LBE557:
 103:../DaisySP/Source/../DaisySP-LGPL/Source/Dynamics/compressor.h ****         RecalculateRatio();
 1341              		.loc 10 103 16 view .LVU357
 1342 002c 2360     		str	r3, [r4]	@ float
 104:../DaisySP/Source/../DaisySP-LGPL/Source/Dynamics/compressor.h ****     }
 1343              		.loc 10 104 9 is_stmt 1 view .LVU358
 1344              	.LVL89:
 1345              	.LBB558:
ARM GAS  /var/folders/2p/02m_5p7958535cp2tpgps0400000gn/T//ccx9FAOt.s 			page 51


 1346              	.LBI550:
 183:../DaisySP/Source/../DaisySP-LGPL/Source/Dynamics/compressor.h ****     {
 1347              		.loc 10 183 10 view .LVU359
 1348              	.LBB554:
 1349              		.loc 10 185 9 view .LVU360
 1350              		.loc 10 185 42 is_stmt 0 view .LVU361
 1351 002e 67EE877A 		vmul.f32	s15, s15, s14
 1352              	.LBE554:
 1353              	.LBE558:
 1354              	.LBE560:
 1355              	.LBE562:
 1356              	.LBB563:
 1357              	.LBB564:
 1358              	.LBB565:
 1359              	.LBB566:
 186:../DaisySP/Source/../DaisySP-LGPL/Source/Dynamics/compressor.h ****     }
 187:../DaisySP/Source/../DaisySP-LGPL/Source/Dynamics/compressor.h **** 
 188:../DaisySP/Source/../DaisySP-LGPL/Source/Dynamics/compressor.h ****     void RecalculateAttack()
 189:../DaisySP/Source/../DaisySP-LGPL/Source/Dynamics/compressor.h ****     {
 190:../DaisySP/Source/../DaisySP-LGPL/Source/Dynamics/compressor.h ****         atk_slo_  = expf(-(sample_rate_inv_ / atk_));
 1360              		.loc 10 190 45 view .LVU362
 1361 0032 94ED0E7A 		vldr.32	s14, [r4, #56]
 1362              	.LBE566:
 1363              	.LBE565:
 1364              	.LBE564:
 1365              	.LBE563:
 1366              	.LBB586:
 1367              	.LBB561:
 1368              	.LBB559:
 1369              	.LBB555:
 185:../DaisySP/Source/../DaisySP-LGPL/Source/Dynamics/compressor.h ****     }
 1370              		.loc 10 185 20 view .LVU363
 1371 0036 C4ED097A 		vstr.32	s15, [r4, #36]
 1372              	.LVL90:
 185:../DaisySP/Source/../DaisySP-LGPL/Source/Dynamics/compressor.h ****     }
 1373              		.loc 10 185 20 view .LVU364
 1374              	.LBE555:
 1375              	.LBE559:
 1376              	.LBE561:
 1377              	.LBE586:
 463:GrannyChordApp.cpp ****   comp_.SetAttack(0.01f);
 1378              		.loc 3 463 3 is_stmt 1 view .LVU365
 1379              	.LBB587:
 1380              	.LBI563:
 125:../DaisySP/Source/../DaisySP-LGPL/Source/Dynamics/compressor.h ****     {
 1381              		.loc 10 125 10 view .LVU366
 1382              	.LBB583:
 127:../DaisySP/Source/../DaisySP-LGPL/Source/Dynamics/compressor.h ****         RecalculateAttack();
 1383              		.loc 10 127 9 view .LVU367
 127:../DaisySP/Source/../DaisySP-LGPL/Source/Dynamics/compressor.h ****         RecalculateAttack();
 1384              		.loc 10 127 14 is_stmt 0 view .LVU368
 1385 003a DFED337A 		vldr.32	s15, .L61
 1386              	.LBB579:
 1387              	.LBB575:
 1388              		.loc 10 190 45 view .LVU369
 1389 003e 87EE270A 		vdiv.f32	s0, s14, s15
 1390              	.LBE575:
ARM GAS  /var/folders/2p/02m_5p7958535cp2tpgps0400000gn/T//ccx9FAOt.s 			page 52


 1391              	.LBE579:
 127:../DaisySP/Source/../DaisySP-LGPL/Source/Dynamics/compressor.h ****         RecalculateAttack();
 1392              		.loc 10 127 14 view .LVU370
 1393 0042 C4ED027A 		vstr.32	s15, [r4, #8]
 128:../DaisySP/Source/../DaisySP-LGPL/Source/Dynamics/compressor.h ****     }
 1394              		.loc 10 128 9 is_stmt 1 view .LVU371
 1395              	.LVL91:
 1396              	.LBB580:
 1397              	.LBI565:
 188:../DaisySP/Source/../DaisySP-LGPL/Source/Dynamics/compressor.h ****     {
 1398              		.loc 10 188 10 view .LVU372
 1399              	.LBB576:
 1400              		.loc 10 190 9 view .LVU373
 1401              		.loc 10 190 25 is_stmt 0 view .LVU374
 1402 0046 B1EE400A 		vneg.f32	s0, s0
 1403 004a FFF7FEFF 		bl	expf
 1404              	.LVL92:
 191:../DaisySP/Source/../DaisySP-LGPL/Source/Dynamics/compressor.h ****         atk_slo2_ = expf(-(sample_rate_inv2_ / atk_));
 1405              		.loc 10 191 46 view .LVU375
 1406 004e 94ED0D7A 		vldr.32	s14, [r4, #52]
 1407 0052 D4ED027A 		vldr.32	s15, [r4, #8]
 190:../DaisySP/Source/../DaisySP-LGPL/Source/Dynamics/compressor.h ****         atk_slo2_ = expf(-(sample_rate_inv2_ / atk_));
 1408              		.loc 10 190 19 view .LVU376
 1409 0056 84ED0A0A 		vstr.32	s0, [r4, #40]
 1410              		.loc 10 191 9 is_stmt 1 view .LVU377
 1411              		.loc 10 191 46 is_stmt 0 view .LVU378
 1412 005a 87EE270A 		vdiv.f32	s0, s14, s15
 1413              		.loc 10 191 25 view .LVU379
 1414 005e B1EE400A 		vneg.f32	s0, s0
 1415 0062 FFF7FEFF 		bl	expf
 1416              	.LVL93:
 1417              	.LBB567:
 1418              	.LBB568:
 185:../DaisySP/Source/../DaisySP-LGPL/Source/Dynamics/compressor.h ****     }
 1419              		.loc 10 185 53 view .LVU380
 1420 0066 94ED007A 		vldr.32	s14, [r4]
 1421              	.LBE568:
 1422              	.LBE567:
 1423              		.loc 10 191 19 view .LVU381
 1424 006a 84ED080A 		vstr.32	s0, [r4, #32]
 192:../DaisySP/Source/../DaisySP-LGPL/Source/Dynamics/compressor.h **** 
 193:../DaisySP/Source/../DaisySP-LGPL/Source/Dynamics/compressor.h ****         RecalculateRatio();
 1425              		.loc 10 193 9 is_stmt 1 view .LVU382
 1426              	.LVL94:
 1427              	.LBB572:
 1428              	.LBI567:
 183:../DaisySP/Source/../DaisySP-LGPL/Source/Dynamics/compressor.h ****     {
 1429              		.loc 10 183 10 view .LVU383
 1430              	.LBB569:
 185:../DaisySP/Source/../DaisySP-LGPL/Source/Dynamics/compressor.h ****     }
 1431              		.loc 10 185 9 view .LVU384
 185:../DaisySP/Source/../DaisySP-LGPL/Source/Dynamics/compressor.h ****     }
 1432              		.loc 10 185 29 is_stmt 0 view .LVU385
 1433 006e 38EE400A 		vsub.f32	s0, s16, s0
 185:../DaisySP/Source/../DaisySP-LGPL/Source/Dynamics/compressor.h ****     }
 1434              		.loc 10 185 51 view .LVU386
 1435 0072 C8EE077A 		vdiv.f32	s15, s16, s14
ARM GAS  /var/folders/2p/02m_5p7958535cp2tpgps0400000gn/T//ccx9FAOt.s 			page 53


 1436              	.LBE569:
 1437              	.LBE572:
 1438              	.LBE576:
 1439              	.LBE580:
 1440              	.LBE583:
 1441              	.LBE587:
 1442              	.LBB588:
 1443              	.LBB589:
 1444              	.LBB590:
 1445              	.LBB591:
 194:../DaisySP/Source/../DaisySP-LGPL/Source/Dynamics/compressor.h ****     }
 195:../DaisySP/Source/../DaisySP-LGPL/Source/Dynamics/compressor.h **** 
 196:../DaisySP/Source/../DaisySP-LGPL/Source/Dynamics/compressor.h ****     void RecalculateRelease() { rel_slo_ = expf((-(sample_rate_inv_ / rel_))); }
 197:../DaisySP/Source/../DaisySP-LGPL/Source/Dynamics/compressor.h **** 
 198:../DaisySP/Source/../DaisySP-LGPL/Source/Dynamics/compressor.h ****     void RecalculateMakeup()
 199:../DaisySP/Source/../DaisySP-LGPL/Source/Dynamics/compressor.h ****     {
 200:../DaisySP/Source/../DaisySP-LGPL/Source/Dynamics/compressor.h ****         if(makeup_auto_)
 1446              		.loc 10 200 9 view .LVU387
 1447 0076 95F88434 		ldrb	r3, [r5, #1156]	@ zero_extendqisi2
 1448              	.LBE591:
 1449              	.LBE590:
 1450              	.LBE589:
 1451              	.LBE588:
 1452              	.LBB598:
 1453              	.LBB584:
 1454              	.LBB581:
 1455              	.LBB577:
 1456              	.LBB573:
 1457              	.LBB570:
 185:../DaisySP/Source/../DaisySP-LGPL/Source/Dynamics/compressor.h ****     }
 1458              		.loc 10 185 61 view .LVU388
 1459 007a 77EEC87A 		vsub.f32	s15, s15, s16
 185:../DaisySP/Source/../DaisySP-LGPL/Source/Dynamics/compressor.h ****     }
 1460              		.loc 10 185 42 view .LVU389
 1461 007e 27EE800A 		vmul.f32	s0, s15, s0
 1462              	.LBE570:
 1463              	.LBE573:
 1464              	.LBE577:
 1465              	.LBE581:
 1466              	.LBE584:
 1467              	.LBE598:
 1468              	.LBB599:
 1469              	.LBB596:
 115:../DaisySP/Source/../DaisySP-LGPL/Source/Dynamics/compressor.h ****         RecalculateMakeup();
 1470              		.loc 10 115 17 view .LVU390
 1471 0082 FBEE087A 		vmov.f32	s15, #-2.4e+1
 1472              	.LBE596:
 1473              	.LBE599:
 1474              	.LBB600:
 1475              	.LBB585:
 1476              	.LBB582:
 1477              	.LBB578:
 1478              	.LBB574:
 1479              	.LBB571:
 185:../DaisySP/Source/../DaisySP-LGPL/Source/Dynamics/compressor.h ****     }
 1480              		.loc 10 185 20 view .LVU391
 1481 0086 84ED090A 		vstr.32	s0, [r4, #36]
ARM GAS  /var/folders/2p/02m_5p7958535cp2tpgps0400000gn/T//ccx9FAOt.s 			page 54


 1482              	.LVL95:
 185:../DaisySP/Source/../DaisySP-LGPL/Source/Dynamics/compressor.h ****     }
 1483              		.loc 10 185 20 view .LVU392
 1484              	.LBE571:
 1485              	.LBE574:
 1486              	.LBE578:
 1487              	.LBE582:
 1488              	.LBE585:
 1489              	.LBE600:
 464:GrannyChordApp.cpp ****   comp_.SetThreshold(-24.0f);
 1490              		.loc 3 464 3 is_stmt 1 view .LVU393
 1491              	.LBB601:
 1492              	.LBI588:
 113:../DaisySP/Source/../DaisySP-LGPL/Source/Dynamics/compressor.h ****     {
 1493              		.loc 10 113 10 view .LVU394
 1494              	.LBB597:
 115:../DaisySP/Source/../DaisySP-LGPL/Source/Dynamics/compressor.h ****         RecalculateMakeup();
 1495              		.loc 10 115 9 view .LVU395
 115:../DaisySP/Source/../DaisySP-LGPL/Source/Dynamics/compressor.h ****         RecalculateMakeup();
 1496              		.loc 10 115 17 is_stmt 0 view .LVU396
 1497 008a C4ED017A 		vstr.32	s15, [r4, #4]
 116:../DaisySP/Source/../DaisySP-LGPL/Source/Dynamics/compressor.h ****     }
 1498              		.loc 10 116 9 is_stmt 1 view .LVU397
 1499              	.LVL96:
 1500              	.LBB595:
 1501              	.LBI590:
 198:../DaisySP/Source/../DaisySP-LGPL/Source/Dynamics/compressor.h ****     {
 1502              		.loc 10 198 10 view .LVU398
 1503              	.LBB594:
 1504              		.loc 10 200 9 view .LVU399
 1505 008e 5BB1     		cbz	r3, .L57
 1506              	.LVL97:
 1507              	.LBB592:
 1508              	.LBI592:
 198:../DaisySP/Source/../DaisySP-LGPL/Source/Dynamics/compressor.h ****     {
 1509              		.loc 10 198 10 view .LVU400
 1510              	.LBB593:
 201:../DaisySP/Source/../DaisySP-LGPL/Source/Dynamics/compressor.h ****             makeup_gain_ = fabsf(thresh_ - thresh_ / ratio_) * 0.5f;
 1511              		.loc 10 201 13 view .LVU401
 1512              		.loc 10 201 52 is_stmt 0 view .LVU402
 1513 0090 C7EE876A 		vdiv.f32	s13, s15, s14
 1514              		.loc 10 201 62 view .LVU403
 1515 0094 B6EE007A 		vmov.f32	s14, #5.0e-1
 1516              		.loc 10 201 42 view .LVU404
 1517 0098 77EEE67A 		vsub.f32	s15, s15, s13
 1518              		.loc 10 201 33 view .LVU405
 1519 009c F0EEE77A 		vabs.f32	s15, s15
 1520              		.loc 10 201 62 view .LVU406
 1521 00a0 67EE877A 		vmul.f32	s15, s15, s14
 1522              		.loc 10 201 26 view .LVU407
 1523 00a4 C4ED047A 		vstr.32	s15, [r4, #16]
 1524              	.LVL98:
 1525              	.L57:
 1526              		.loc 10 201 26 view .LVU408
 1527              	.LBE593:
 1528              	.LBE592:
 1529              	.LBE594:
ARM GAS  /var/folders/2p/02m_5p7958535cp2tpgps0400000gn/T//ccx9FAOt.s 			page 55


 1530              	.LBE595:
 1531              	.LBE597:
 1532              	.LBE601:
 465:GrannyChordApp.cpp ****   comp_.SetRelease(0.2f);
 1533              		.loc 3 465 3 is_stmt 1 view .LVU409
 1534              	.LBB602:
 1535              	.LBI602:
 137:../DaisySP/Source/../DaisySP-LGPL/Source/Dynamics/compressor.h ****     {
 1536              		.loc 10 137 10 view .LVU410
 1537              	.LBB603:
 139:../DaisySP/Source/../DaisySP-LGPL/Source/Dynamics/compressor.h ****         RecalculateRelease();
 1538              		.loc 10 139 9 view .LVU411
 139:../DaisySP/Source/../DaisySP-LGPL/Source/Dynamics/compressor.h ****         RecalculateRelease();
 1539              		.loc 10 139 14 is_stmt 0 view .LVU412
 1540 00a8 DFED187A 		vldr.32	s15, .L61+4
 1541              	.LBB604:
 1542              	.LBB605:
 196:../DaisySP/Source/../DaisySP-LGPL/Source/Dynamics/compressor.h **** 
 1543              		.loc 10 196 69 view .LVU413
 1544 00ac 94ED0E7A 		vldr.32	s14, [r4, #56]
 1545              	.LBE605:
 1546              	.LBE604:
 139:../DaisySP/Source/../DaisySP-LGPL/Source/Dynamics/compressor.h ****         RecalculateRelease();
 1547              		.loc 10 139 14 view .LVU414
 1548 00b0 C4ED037A 		vstr.32	s15, [r4, #12]
 140:../DaisySP/Source/../DaisySP-LGPL/Source/Dynamics/compressor.h ****     }
 1549              		.loc 10 140 9 is_stmt 1 view .LVU415
 1550              	.LVL99:
 1551              	.LBB608:
 1552              	.LBI604:
 196:../DaisySP/Source/../DaisySP-LGPL/Source/Dynamics/compressor.h **** 
 1553              		.loc 10 196 10 view .LVU416
 1554              	.LBB606:
 196:../DaisySP/Source/../DaisySP-LGPL/Source/Dynamics/compressor.h **** 
 1555              		.loc 10 196 33 view .LVU417
 196:../DaisySP/Source/../DaisySP-LGPL/Source/Dynamics/compressor.h **** 
 1556              		.loc 10 196 69 is_stmt 0 view .LVU418
 1557 00b4 87EE270A 		vdiv.f32	s0, s14, s15
 196:../DaisySP/Source/../DaisySP-LGPL/Source/Dynamics/compressor.h **** 
 1558              		.loc 10 196 48 view .LVU419
 1559 00b8 B1EE400A 		vneg.f32	s0, s0
 1560 00bc FFF7FEFF 		bl	expf
 1561              	.LVL100:
 1562              	.LBE606:
 1563              	.LBE608:
 1564              	.LBE603:
 1565              	.LBE602:
 466:GrannyChordApp.cpp ****   limiter_.Init();
 1566              		.loc 3 466 16 view .LVU420
 1567 00c0 05F59160 		add	r0, r5, #1160
 1568              	.LBB611:
 1569              	.LBB610:
 1570              	.LBB609:
 1571              	.LBB607:
 196:../DaisySP/Source/../DaisySP-LGPL/Source/Dynamics/compressor.h **** 
 1572              		.loc 10 196 42 view .LVU421
 1573 00c4 84ED0B0A 		vstr.32	s0, [r4, #44]
ARM GAS  /var/folders/2p/02m_5p7958535cp2tpgps0400000gn/T//ccx9FAOt.s 			page 56


 1574              	.LVL101:
 196:../DaisySP/Source/../DaisySP-LGPL/Source/Dynamics/compressor.h **** 
 1575              		.loc 10 196 42 view .LVU422
 1576              	.LBE607:
 1577              	.LBE609:
 1578              	.LBE610:
 1579              	.LBE611:
 1580              		.loc 3 466 3 is_stmt 1 view .LVU423
 467:GrannyChordApp.cpp **** 
 468:GrannyChordApp.cpp ****   reverb_.Init(SAMPLE_RATE_FLOAT);
 469:GrannyChordApp.cpp ****   lowpass_moog_.Init(SAMPLE_RATE_FLOAT);
 1581              		.loc 3 469 21 is_stmt 0 view .LVU424
 1582 00c8 05F59264 		add	r4, r5, #1168
 466:GrannyChordApp.cpp ****   limiter_.Init();
 1583              		.loc 3 466 16 view .LVU425
 1584 00cc FFF7FEFF 		bl	_ZN7daisysp7Limiter4InitEv
 1585              	.LVL102:
 468:GrannyChordApp.cpp ****   lowpass_moog_.Init(SAMPLE_RATE_FLOAT);
 1586              		.loc 3 468 3 is_stmt 1 view .LVU426
 468:GrannyChordApp.cpp ****   lowpass_moog_.Init(SAMPLE_RATE_FLOAT);
 1587              		.loc 3 468 15 is_stmt 0 view .LVU427
 1588 00d0 9FED0F0A 		vldr.32	s0, .L61+8
 1589 00d4 D5F88C04 		ldr	r0, [r5, #1164]
 1590 00d8 FFF7FEFF 		bl	_ZN7daisysp8ReverbSc4InitEf
 1591              	.LVL103:
 1592              		.loc 3 469 3 is_stmt 1 view .LVU428
 1593              		.loc 3 469 21 is_stmt 0 view .LVU429
 1594 00dc 9FED0C0A 		vldr.32	s0, .L61+8
 1595 00e0 2046     		mov	r0, r4
 1596 00e2 FFF7FEFF 		bl	_ZN7daisysp10MoogLadder4InitEf
 1597              	.LVL104:
 470:GrannyChordApp.cpp ****   lowpass_moog_.SetFreq(20000.0f);
 1598              		.loc 3 470 3 is_stmt 1 view .LVU430
 1599              	.LBB612:
 1600              	.LBI612:
 1601              		.file 11 "../DaisySP/Source/../DaisySP-LGPL/Source/Filters/moogladder.h"
   1:../DaisySP/Source/../DaisySP-LGPL/Source/Filters/moogladder.h **** /*
   2:../DaisySP/Source/../DaisySP-LGPL/Source/Filters/moogladder.h **** Copyright (c) 2023 Electrosmith, Corp, Victor Lazzarini, John ffitch (fast tanh), Bob Moog
   3:../DaisySP/Source/../DaisySP-LGPL/Source/Filters/moogladder.h **** 
   4:../DaisySP/Source/../DaisySP-LGPL/Source/Filters/moogladder.h **** Use of this source code is governed by the LGPL V2.1
   5:../DaisySP/Source/../DaisySP-LGPL/Source/Filters/moogladder.h **** license that can be found in the LICENSE file or at
   6:../DaisySP/Source/../DaisySP-LGPL/Source/Filters/moogladder.h **** https://opensource.org/license/lgpl-2-1/
   7:../DaisySP/Source/../DaisySP-LGPL/Source/Filters/moogladder.h **** */
   8:../DaisySP/Source/../DaisySP-LGPL/Source/Filters/moogladder.h **** 
   9:../DaisySP/Source/../DaisySP-LGPL/Source/Filters/moogladder.h **** #pragma once
  10:../DaisySP/Source/../DaisySP-LGPL/Source/Filters/moogladder.h **** #ifndef DSY_MOOGLADDER_H
  11:../DaisySP/Source/../DaisySP-LGPL/Source/Filters/moogladder.h **** #define DSY_MOOGLADDER_H
  12:../DaisySP/Source/../DaisySP-LGPL/Source/Filters/moogladder.h **** 
  13:../DaisySP/Source/../DaisySP-LGPL/Source/Filters/moogladder.h **** #include <stdint.h>
  14:../DaisySP/Source/../DaisySP-LGPL/Source/Filters/moogladder.h **** #ifdef __cplusplus
  15:../DaisySP/Source/../DaisySP-LGPL/Source/Filters/moogladder.h **** 
  16:../DaisySP/Source/../DaisySP-LGPL/Source/Filters/moogladder.h **** namespace daisysp
  17:../DaisySP/Source/../DaisySP-LGPL/Source/Filters/moogladder.h **** {
  18:../DaisySP/Source/../DaisySP-LGPL/Source/Filters/moogladder.h **** /** Moog ladder filter module*/
  19:../DaisySP/Source/../DaisySP-LGPL/Source/Filters/moogladder.h **** class MoogLadder
  20:../DaisySP/Source/../DaisySP-LGPL/Source/Filters/moogladder.h **** {
  21:../DaisySP/Source/../DaisySP-LGPL/Source/Filters/moogladder.h ****   public:
ARM GAS  /var/folders/2p/02m_5p7958535cp2tpgps0400000gn/T//ccx9FAOt.s 			page 57


  22:../DaisySP/Source/../DaisySP-LGPL/Source/Filters/moogladder.h ****     MoogLadder() {}
  23:../DaisySP/Source/../DaisySP-LGPL/Source/Filters/moogladder.h ****     ~MoogLadder() {}
  24:../DaisySP/Source/../DaisySP-LGPL/Source/Filters/moogladder.h ****     /** Initializes the MoogLadder module.
  25:../DaisySP/Source/../DaisySP-LGPL/Source/Filters/moogladder.h ****         sample_rate - The sample rate of the audio engine being run. 
  26:../DaisySP/Source/../DaisySP-LGPL/Source/Filters/moogladder.h ****     */
  27:../DaisySP/Source/../DaisySP-LGPL/Source/Filters/moogladder.h ****     void Init(float sample_rate);
  28:../DaisySP/Source/../DaisySP-LGPL/Source/Filters/moogladder.h **** 
  29:../DaisySP/Source/../DaisySP-LGPL/Source/Filters/moogladder.h **** 
  30:../DaisySP/Source/../DaisySP-LGPL/Source/Filters/moogladder.h ****     /** Processes the lowpass filter
  31:../DaisySP/Source/../DaisySP-LGPL/Source/Filters/moogladder.h ****     */
  32:../DaisySP/Source/../DaisySP-LGPL/Source/Filters/moogladder.h ****     float Process(float in);
  33:../DaisySP/Source/../DaisySP-LGPL/Source/Filters/moogladder.h **** 
  34:../DaisySP/Source/../DaisySP-LGPL/Source/Filters/moogladder.h ****     /** 
  35:../DaisySP/Source/../DaisySP-LGPL/Source/Filters/moogladder.h ****         Sets the cutoff frequency or half-way point of the filter.
  36:../DaisySP/Source/../DaisySP-LGPL/Source/Filters/moogladder.h ****         Arguments
  37:../DaisySP/Source/../DaisySP-LGPL/Source/Filters/moogladder.h ****         - freq - frequency value in Hz. Range: Any positive value.
  38:../DaisySP/Source/../DaisySP-LGPL/Source/Filters/moogladder.h ****     */
  39:../DaisySP/Source/../DaisySP-LGPL/Source/Filters/moogladder.h ****     inline void SetFreq(float freq) { freq_ = freq; }
 1602              		.loc 11 39 17 view .LVU431
 1603              	.LBB613:
 1604              		.loc 11 39 39 view .LVU432
 1605              		.loc 11 39 45 is_stmt 0 view .LVU433
 1606 00e6 0B4B     		ldr	r3, .L61+12
 1607              	.LBE613:
 1608              	.LBE612:
 1609              	.LBB615:
 1610              	.LBB616:
 1611              	.LBB617:
  51:../DaisySP/Source/Filters/onepole.h **** 
 1612              		.loc 2 51 34 view .LVU434
 1613 00e8 0022     		movs	r2, #0
 1614              	.LBE617:
 1615              	.LBE616:
 1616              	.LBE615:
 1617              	.LBB620:
 1618              	.LBB621:
  68:../DaisySP/Source/Filters/onepole.h **** 
 1619              		.loc 2 68 56 view .LVU435
 1620 00ea 0121     		movs	r1, #1
 1621              	.LBE621:
 1622              	.LBE620:
 1623              	.LBB623:
 1624              	.LBB614:
 1625              		.loc 11 39 45 view .LVU436
 1626 00ec A360     		str	r3, [r4, #8]	@ float
 1627              	.LVL105:
 1628              		.loc 11 39 45 view .LVU437
 1629              	.LBE614:
 1630              	.LBE623:
 471:GrannyChordApp.cpp ****   lowpass_moog_.SetRes(0.7f);
 1631              		.loc 3 471 3 is_stmt 1 view .LVU438
 1632              	.LBB624:
 1633              	.LBI624:
  40:../DaisySP/Source/../DaisySP-LGPL/Source/Filters/moogladder.h ****     /** 
  41:../DaisySP/Source/../DaisySP-LGPL/Source/Filters/moogladder.h ****         Sets the resonance of the filter.
  42:../DaisySP/Source/../DaisySP-LGPL/Source/Filters/moogladder.h ****     */
  43:../DaisySP/Source/../DaisySP-LGPL/Source/Filters/moogladder.h ****     inline void SetRes(float res) { res_ = res; }
ARM GAS  /var/folders/2p/02m_5p7958535cp2tpgps0400000gn/T//ccx9FAOt.s 			page 58


 1634              		.loc 11 43 17 view .LVU439
 1635              	.LBB625:
 1636              		.loc 11 43 37 view .LVU440
 1637              		.loc 11 43 42 is_stmt 0 view .LVU441
 1638 00ee 0A4B     		ldr	r3, .L61+16
 1639 00f0 6360     		str	r3, [r4, #4]	@ float
 1640              	.LVL106:
 1641              		.loc 11 43 42 view .LVU442
 1642              	.LBE625:
 1643              	.LBE624:
 472:GrannyChordApp.cpp ****   hipass_.Init();
 1644              		.loc 3 472 3 is_stmt 1 view .LVU443
 1645              	.LBB626:
 1646              	.LBI615:
  44:../DaisySP/Source/Filters/onepole.h ****     {
 1647              		.loc 2 44 10 view .LVU444
 1648              	.LBE626:
  46:../DaisySP/Source/Filters/onepole.h ****         mode_ = FILTER_MODE_LOW_PASS;
 1649              		.loc 2 46 9 view .LVU445
 1650              	.LBB627:
 1651              	.LBB619:
 1652              	.LBI616:
  51:../DaisySP/Source/Filters/onepole.h **** 
 1653              		.loc 2 51 17 view .LVU446
 1654              	.LBB618:
  51:../DaisySP/Source/Filters/onepole.h **** 
 1655              		.loc 2 51 27 view .LVU447
  51:../DaisySP/Source/Filters/onepole.h **** 
 1656              		.loc 2 51 34 is_stmt 0 view .LVU448
 1657 00f2 05F2D443 		addw	r3, r5, #1236
 1658              	.LVL107:
  51:../DaisySP/Source/Filters/onepole.h **** 
 1659              		.loc 2 51 34 view .LVU449
 1660 00f6 9A60     		str	r2, [r3, #8]	@ float
 1661              	.LVL108:
  51:../DaisySP/Source/Filters/onepole.h **** 
 1662              		.loc 2 51 34 view .LVU450
 1663              	.LBE618:
 1664              	.LBE619:
 1665              	.LBE627:
  47:../DaisySP/Source/Filters/onepole.h ****     }
 1666              		.loc 2 47 9 is_stmt 1 view .LVU451
 473:GrannyChordApp.cpp ****   hipass_.SetFilterMode(daisysp::OnePole::FilterMode::FILTER_MODE_HIGH_PASS);
 1667              		.loc 3 473 3 view .LVU452
 1668              	.LBB628:
 1669              	.LBI620:
  68:../DaisySP/Source/Filters/onepole.h **** 
 1670              		.loc 2 68 17 view .LVU453
 1671              	.LBB622:
  68:../DaisySP/Source/Filters/onepole.h **** 
 1672              		.loc 2 68 50 view .LVU454
  68:../DaisySP/Source/Filters/onepole.h **** 
 1673              		.loc 2 68 56 is_stmt 0 view .LVU455
 1674 00f8 85F8E014 		strb	r1, [r5, #1248]
 1675              	.LVL109:
  68:../DaisySP/Source/Filters/onepole.h **** 
 1676              		.loc 2 68 56 view .LVU456
ARM GAS  /var/folders/2p/02m_5p7958535cp2tpgps0400000gn/T//ccx9FAOt.s 			page 59


 1677              	.LBE622:
 1678              	.LBE628:
 474:GrannyChordApp.cpp ****   hipass_.SetFrequency(0.0f); // NOTE: CHECK THIS
 1679              		.loc 3 474 3 is_stmt 1 view .LVU457
 1680              	.LBB629:
 1681              	.LBI629:
  56:../DaisySP/Source/Filters/onepole.h ****     {
 1682              		.loc 2 56 17 view .LVU458
 1683              	.LBB630:
  59:../DaisySP/Source/Filters/onepole.h **** 
 1684              		.loc 2 59 9 view .LVU459
  61:../DaisySP/Source/Filters/onepole.h ****         gi_ = 1.f / (1.f + g_);
 1685              		.loc 2 61 9 view .LVU460
  62:../DaisySP/Source/Filters/onepole.h ****     }
 1686              		.loc 2 62 13 is_stmt 0 view .LVU461
 1687 00fc 83ED018A 		vstr.32	s16, [r3, #4]
  61:../DaisySP/Source/Filters/onepole.h ****         gi_ = 1.f / (1.f + g_);
 1688              		.loc 2 61 13 view .LVU462
 1689 0100 1A60     		str	r2, [r3]	@ float
  62:../DaisySP/Source/Filters/onepole.h ****     }
 1690              		.loc 2 62 9 is_stmt 1 view .LVU463
 1691              	.LVL110:
  62:../DaisySP/Source/Filters/onepole.h ****     }
 1692              		.loc 2 62 9 is_stmt 0 view .LVU464
 1693              	.LBE630:
 1694              	.LBE629:
 475:GrannyChordApp.cpp **** }
 1695              		.loc 3 475 1 view .LVU465
 1696 0102 BDEC028B 		vldm	sp!, {d8}
 1697              		.cfi_restore 80
 1698              		.cfi_restore 81
 1699              		.cfi_def_cfa_offset 16
 1700 0106 38BD     		pop	{r3, r4, r5, pc}
 1701              	.LVL111:
 1702              	.L62:
 1703              		.loc 3 475 1 view .LVU466
 1704              		.align	2
 1705              	.L61:
 1706 0108 0AD7233C 		.word	1008981770
 1707 010c CDCC4C3E 		.word	1045220557
 1708 0110 00803B47 		.word	1195081728
 1709 0114 00409C46 		.word	1184645120
 1710 0118 3333333F 		.word	1060320051
 1711              		.cfi_endproc
 1712              	.LFE4927:
 1714              		.section	.text._ZN14GrannyChordApp17InitPrevParamValsEv,"ax",%progbits
 1715              		.align	1
 1716              		.global	_ZN14GrannyChordApp17InitPrevParamValsEv
 1717              		.syntax unified
 1718              		.thumb
 1719              		.thumb_func
 1721              	_ZN14GrannyChordApp17InitPrevParamValsEv:
 1722              	.LVL112:
 1723              	.LFB4928:
 476:GrannyChordApp.cpp **** 
 477:GrannyChordApp.cpp **** /// @brief Initialise previous parameter value arrays to defaults
 478:GrannyChordApp.cpp **** void GrannyChordApp::InitPrevParamVals(){
ARM GAS  /var/folders/2p/02m_5p7958535cp2tpgps0400000gn/T//ccx9FAOt.s 			page 60


 1724              		.loc 3 478 41 is_stmt 1 view -0
 1725              		.cfi_startproc
 1726              		@ args = 0, pretend = 0, frame = 0
 1727              		@ frame_needed = 0, uses_anonymous_args = 0
 1728              		@ link register save eliminated.
 479:GrannyChordApp.cpp ****   for (int i=0; i < NUM_SYNTH_MODES;i++){
 1729              		.loc 3 479 3 view .LVU468
 1730              	.LBB631:
 1731              		.loc 3 479 19 view .LVU469
 1732 0000 00F5AF63 		add	r3, r0, #1400
 1733 0004 00F29450 		addw	r0, r0, #1428
 1734              	.LVL113:
 1735              	.L64:
 480:GrannyChordApp.cpp ****     prev_param_vals_k1[i] = 0.5f;
 1736              		.loc 3 480 5 discriminator 2 view .LVU470
 1737              		.loc 3 480 27 is_stmt 0 discriminator 2 view .LVU471
 1738 0008 4FF07C52 		mov	r2, #1056964608
 1739 000c 43F8042B 		str	r2, [r3], #4	@ float
 481:GrannyChordApp.cpp ****     prev_param_vals_k2[i] = 0.5f;
 1740              		.loc 3 481 5 is_stmt 1 discriminator 2 view .LVU472
 479:GrannyChordApp.cpp ****   for (int i=0; i < NUM_SYNTH_MODES;i++){
 1741              		.loc 3 479 19 is_stmt 0 discriminator 2 view .LVU473
 1742 0010 8342     		cmp	r3, r0
 1743              		.loc 3 481 27 discriminator 2 view .LVU474
 1744 0012 9A61     		str	r2, [r3, #24]	@ float
 479:GrannyChordApp.cpp ****   for (int i=0; i < NUM_SYNTH_MODES;i++){
 1745              		.loc 3 479 3 is_stmt 1 discriminator 2 view .LVU475
 479:GrannyChordApp.cpp ****   for (int i=0; i < NUM_SYNTH_MODES;i++){
 1746              		.loc 3 479 19 discriminator 2 view .LVU476
 1747 0014 F8D1     		bne	.L64
 1748              	.LBE631:
 482:GrannyChordApp.cpp ****   } 
 483:GrannyChordApp.cpp **** }
 1749              		.loc 3 483 1 is_stmt 0 view .LVU477
 1750 0016 7047     		bx	lr
 1751              		.cfi_endproc
 1752              	.LFE4928:
 1754              		.section	.rodata._ZN14GrannyChordApp4InitEPsS0_.str1.1,"aMS",%progbits,1
 1755              	.LC7:
 1756 0000 46696C65 		.ascii	"File manager failed to init\000"
 1756      206D616E 
 1756      61676572 
 1756      20666169 
 1756      6C656420 
 1757              		.section	.text._ZN14GrannyChordApp4InitEPsS0_,"ax",%progbits
 1758              		.align	1
 1759              		.global	_ZN14GrannyChordApp4InitEPsS0_
 1760              		.syntax unified
 1761              		.thumb
 1762              		.thumb_func
 1764              	_ZN14GrannyChordApp4InitEPsS0_:
 1765              	.LVL114:
 1766              	.LFB4903:
  16:GrannyChordApp.cpp ****   left_buf_ = left, right_buf_ = right;
 1767              		.loc 3 16 57 is_stmt 1 view -0
 1768              		.cfi_startproc
 1769              		@ args = 0, pretend = 0, frame = 0
ARM GAS  /var/folders/2p/02m_5p7958535cp2tpgps0400000gn/T//ccx9FAOt.s 			page 61


 1770              		@ frame_needed = 0, uses_anonymous_args = 0
  17:GrannyChordApp.cpp ****   pod_.SetAudioBlockSize(2);
 1771              		.loc 3 17 3 view .LVU479
  16:GrannyChordApp.cpp ****   left_buf_ = left, right_buf_ = right;
 1772              		.loc 3 16 57 is_stmt 0 view .LVU480
 1773 0000 38B5     		push	{r3, r4, r5, lr}
 1774              		.cfi_def_cfa_offset 16
 1775              		.cfi_offset 3, -16
 1776              		.cfi_offset 4, -12
 1777              		.cfi_offset 5, -8
 1778              		.cfi_offset 14, -4
 1779 0002 0446     		mov	r4, r0
  21:GrannyChordApp.cpp ****   if (!InitFileMgr()){
 1780              		.loc 3 21 15 view .LVU481
 1781 0004 0025     		movs	r5, #0
  16:GrannyChordApp.cpp ****   left_buf_ = left, right_buf_ = right;
 1782              		.loc 3 16 57 view .LVU482
 1783 0006 2DED048B 		vpush.64	{d8, d9}
 1784              		.cfi_def_cfa_offset 32
 1785              		.cfi_offset 80, -32
 1786              		.cfi_offset 81, -28
 1787              		.cfi_offset 82, -24
 1788              		.cfi_offset 83, -20
  17:GrannyChordApp.cpp ****   pod_.SetAudioBlockSize(2);
 1789              		.loc 3 17 13 view .LVU483
 1790 000a C0F8E414 		str	r1, [r0, #1252]
  18:GrannyChordApp.cpp ****   pod_.SetAudioSampleRate(SaiHandle::Config::SampleRate::SAI_48KHZ);
 1791              		.loc 3 18 25 view .LVU484
 1792 000e 0221     		movs	r1, #2
 1793              	.LVL115:
  17:GrannyChordApp.cpp ****   pod_.SetAudioBlockSize(2);
 1794              		.loc 3 17 32 view .LVU485
 1795 0010 C0F8E824 		str	r2, [r0, #1256]
  18:GrannyChordApp.cpp ****   pod_.SetAudioSampleRate(SaiHandle::Config::SampleRate::SAI_48KHZ);
 1796              		.loc 3 18 3 is_stmt 1 view .LVU486
  18:GrannyChordApp.cpp ****   pod_.SetAudioSampleRate(SaiHandle::Config::SampleRate::SAI_48KHZ);
 1797              		.loc 3 18 25 is_stmt 0 view .LVU487
 1798 0014 C069     		ldr	r0, [r0, #28]
 1799              	.LVL116:
  18:GrannyChordApp.cpp ****   pod_.SetAudioSampleRate(SaiHandle::Config::SampleRate::SAI_48KHZ);
 1800              		.loc 3 18 25 view .LVU488
 1801 0016 FFF7FEFF 		bl	_ZN5daisy8DaisyPod17SetAudioBlockSizeEj
 1802              	.LVL117:
  19:GrannyChordApp.cpp **** 
 1803              		.loc 3 19 3 is_stmt 1 view .LVU489
  19:GrannyChordApp.cpp **** 
 1804              		.loc 3 19 26 is_stmt 0 view .LVU490
 1805 001a E069     		ldr	r0, [r4, #28]
 1806 001c 0321     		movs	r1, #3
 1807 001e FFF7FEFF 		bl	_ZN5daisy8DaisyPod18SetAudioSampleRateENS_9SaiHandle6Config10SampleRateE
 1808              	.LVL118:
  21:GrannyChordApp.cpp ****   if (!InitFileMgr()){
 1809              		.loc 3 21 3 is_stmt 1 view .LVU491
  22:GrannyChordApp.cpp ****     DebugPrint(pod_,"File manager failed to init");
 1810              		.loc 3 22 19 is_stmt 0 view .LVU492
 1811 0022 2046     		mov	r0, r4
  21:GrannyChordApp.cpp ****   if (!InitFileMgr()){
ARM GAS  /var/folders/2p/02m_5p7958535cp2tpgps0400000gn/T//ccx9FAOt.s 			page 62


 1812              		.loc 3 21 15 view .LVU493
 1813 0024 C4F83854 		str	r5, [r4, #1080]
  22:GrannyChordApp.cpp ****     DebugPrint(pod_,"File manager failed to init");
 1814              		.loc 3 22 3 is_stmt 1 view .LVU494
  22:GrannyChordApp.cpp ****     DebugPrint(pod_,"File manager failed to init");
 1815              		.loc 3 22 19 is_stmt 0 view .LVU495
 1816 0028 FFF7FEFF 		bl	_ZN14GrannyChordApp11InitFileMgrEv
 1817              	.LVL119:
  22:GrannyChordApp.cpp ****     DebugPrint(pod_,"File manager failed to init");
 1818              		.loc 3 22 3 view .LVU496
 1819 002c B0B9     		cbnz	r0, .L67
  23:GrannyChordApp.cpp ****     pod_.led1.SetRed(1);
 1820              		.loc 3 23 5 is_stmt 1 view .LVU497
  23:GrannyChordApp.cpp ****     pod_.led1.SetRed(1);
 1821              		.loc 3 23 5 view .LVU498
 1822              	.LVL120:
 1823              	.LBB640:
 1824              	.LBI640:
 126:../libDaisy/src/daisy_seed.h ****     {
 1825              		.loc 5 126 17 view .LVU499
 1826              	.LBB641:
 1827              		.loc 5 128 23 is_stmt 0 view .LVU500
 1828 002e 3048     		ldr	r0, .L68
 1829 0030 FFF7FEFF 		bl	_ZN5daisy6LoggerILNS_17LoggerDestinationE1EE9PrintLineEPKcz
 1830              	.LVL121:
 1831              		.loc 5 128 23 view .LVU501
 1832              	.LBE641:
 1833              	.LBE640:
  24:GrannyChordApp.cpp ****     pod_.led2.SetRed(1);
 1834              		.loc 3 24 5 is_stmt 1 view .LVU502
  24:GrannyChordApp.cpp ****     pod_.led2.SetRed(1);
 1835              		.loc 3 24 21 is_stmt 0 view .LVU503
 1836 0034 E069     		ldr	r0, [r4, #28]
 1837 0036 B7EE000A 		vmov.f32	s0, #1.0e+0
 1838 003a D830     		adds	r0, r0, #216
 1839 003c FFF7FEFF 		bl	_ZN5daisy6RgbLed6SetRedEf
 1840              	.LVL122:
  25:GrannyChordApp.cpp ****     pod_.UpdateLeds();
 1841              		.loc 3 25 5 is_stmt 1 view .LVU504
  25:GrannyChordApp.cpp ****     pod_.UpdateLeds();
 1842              		.loc 3 25 21 is_stmt 0 view .LVU505
 1843 0040 E069     		ldr	r0, [r4, #28]
 1844 0042 B7EE000A 		vmov.f32	s0, #1.0e+0
 1845 0046 00F59670 		add	r0, r0, #300
 1846 004a FFF7FEFF 		bl	_ZN5daisy6RgbLed6SetRedEf
 1847              	.LVL123:
  26:GrannyChordApp.cpp ****     return;
 1848              		.loc 3 26 5 is_stmt 1 view .LVU506
  26:GrannyChordApp.cpp ****     return;
 1849              		.loc 3 26 20 is_stmt 0 view .LVU507
 1850 004e E069     		ldr	r0, [r4, #28]
  35:GrannyChordApp.cpp **** 
 1851              		.loc 3 35 1 view .LVU508
 1852 0050 BDEC048B 		vldm	sp!, {d8-d9}
 1853              		.cfi_remember_state
 1854              		.cfi_restore 82
 1855              		.cfi_restore 83
ARM GAS  /var/folders/2p/02m_5p7958535cp2tpgps0400000gn/T//ccx9FAOt.s 			page 63


 1856              		.cfi_restore 80
 1857              		.cfi_restore 81
 1858              		.cfi_def_cfa_offset 16
 1859 0054 BDE83840 		pop	{r3, r4, r5, lr}
 1860              		.cfi_restore 14
 1861              		.cfi_restore 5
 1862              		.cfi_restore 4
 1863              		.cfi_restore 3
 1864              		.cfi_def_cfa_offset 0
 1865              	.LVL124:
  26:GrannyChordApp.cpp ****     return;
 1866              		.loc 3 26 20 view .LVU509
 1867 0058 FFF7FEBF 		b	_ZN5daisy8DaisyPod10UpdateLedsEv
 1868              	.LVL125:
 1869              	.L67:
 1870              		.cfi_restore_state
  29:GrannyChordApp.cpp ****   InitFX();
 1871              		.loc 3 29 3 is_stmt 1 view .LVU510
  29:GrannyChordApp.cpp ****   InitFX();
 1872              		.loc 3 29 17 is_stmt 0 view .LVU511
 1873 005c E069     		ldr	r0, [r4, #28]
 1874 005e FFF7FEFF 		bl	_ZN5daisy8DaisyPod15AudioSampleRateEv
 1875              	.LVL126:
  29:GrannyChordApp.cpp ****   InitFX();
 1876              		.loc 3 29 61 view .LVU512
 1877 0062 E069     		ldr	r0, [r4, #28]
  29:GrannyChordApp.cpp ****   InitFX();
 1878              		.loc 3 29 17 view .LVU513
 1879 0064 F0EE408A 		vmov.f32	s17, s0
  29:GrannyChordApp.cpp ****   InitFX();
 1880              		.loc 3 29 61 view .LVU514
 1881 0068 FFF7FEFF 		bl	_ZN5daisy8DaisyPod14AudioBlockSizeEv
 1882              	.LVL127:
 1883              	.LBB642:
 1884              	.LBI642:
  29:../libDaisy/src/util/CpuLoadMeter.h ****               int   blockSizeInSamples,
 1885              		.loc 4 29 10 is_stmt 1 view .LVU515
 1886              	.LBB643:
  33:../libDaisy/src/util/CpuLoadMeter.h ****         const auto ticksPerS   = float(System::GetTickFreq());
 1887              		.loc 4 33 9 view .LVU516
  33:../libDaisy/src/util/CpuLoadMeter.h ****         const auto ticksPerS   = float(System::GetTickFreq());
 1888              		.loc 4 33 34 is_stmt 0 view .LVU517
 1889 006c 07EE900A 		vmov	s15, r0	@ int
 1890 0070 B8EEE78A 		vcvt.f32.s32	s16, s15
  34:../libDaisy/src/util/CpuLoadMeter.h ****         ticksPerBlockInv_      = 1.0f / (ticksPerS * secPerBlock);
 1891              		.loc 4 34 59 view .LVU518
 1892 0074 FFF7FEFF 		bl	_ZN5daisy6System11GetTickFreqEv
 1893              	.LVL128:
  34:../libDaisy/src/util/CpuLoadMeter.h ****         ticksPerBlockInv_      = 1.0f / (ticksPerS * secPerBlock);
 1894              		.loc 4 34 61 view .LVU519
 1895 0078 07EE900A 		vmov	s15, r0	@ int
  35:../libDaisy/src/util/CpuLoadMeter.h **** 
 1896              		.loc 4 35 39 view .LVU520
 1897 007c B7EE007A 		vmov.f32	s14, #1.0e+0
  39:../libDaisy/src/util/CpuLoadMeter.h ****             = smoothingFilterCutoffHz * 2.0f * 3.141592653f / blockRateInHz;
 1898              		.loc 4 39 20 view .LVU521
 1899 0080 9FED1C6A 		vldr.32	s12, .L68+4
ARM GAS  /var/folders/2p/02m_5p7958535cp2tpgps0400000gn/T//ccx9FAOt.s 			page 64


 1900              	.LBB644:
 1901              	.LBB645:
  82:../libDaisy/src/util/CpuLoadMeter.h **** 
  83:../libDaisy/src/util/CpuLoadMeter.h ****     /** Resets the minimun, maximum and average load readings. */
  84:../libDaisy/src/util/CpuLoadMeter.h ****     void Reset()
  85:../libDaisy/src/util/CpuLoadMeter.h ****     {
  86:../libDaisy/src/util/CpuLoadMeter.h ****         firstCycle_ = true;
 1902              		.loc 4 86 21 view .LVU522
 1903 0084 0123     		movs	r3, #1
 1904              	.LBE645:
 1905              	.LBE644:
  33:../libDaisy/src/util/CpuLoadMeter.h ****         const auto ticksPerS   = float(System::GetTickFreq());
 1906              		.loc 4 33 20 view .LVU523
 1907 0086 88EE289A 		vdiv.f32	s18, s16, s17
 1908              	.LVL129:
  34:../libDaisy/src/util/CpuLoadMeter.h ****         ticksPerBlockInv_      = 1.0f / (ticksPerS * secPerBlock);
 1909              		.loc 4 34 9 is_stmt 1 view .LVU524
  35:../libDaisy/src/util/CpuLoadMeter.h **** 
 1910              		.loc 4 35 9 view .LVU525
 1911              	.LBE643:
 1912              	.LBE642:
  30:GrannyChordApp.cpp ****   InitPrevParamVals();
 1913              		.loc 3 30 9 is_stmt 0 view .LVU526
 1914 008a 2046     		mov	r0, r4
 1915              	.LVL130:
 1916              	.LBB653:
 1917              	.LBB652:
 1918              	.LBB649:
 1919              	.LBB646:
 1920              		.loc 4 86 21 view .LVU527
 1921 008c 2370     		strb	r3, [r4]
  87:../libDaisy/src/util/CpuLoadMeter.h ****         avg_ = max_ = min_ = NAN;
 1922              		.loc 4 87 28 view .LVU528
 1923 008e 1A4B     		ldr	r3, .L68+8
 1924 0090 E360     		str	r3, [r4, #12]	@ float
 1925              	.LBE646:
 1926              	.LBE649:
  34:../libDaisy/src/util/CpuLoadMeter.h ****         ticksPerBlockInv_      = 1.0f / (ticksPerS * secPerBlock);
 1927              		.loc 4 34 61 view .LVU529
 1928 0092 F8EE677A 		vcvt.f32.u32	s15, s15
 1929              	.LVL131:
 1930              	.LBB650:
 1931              	.LBB647:
 1932              		.loc 4 87 21 view .LVU530
 1933 0096 2361     		str	r3, [r4, #16]	@ float
 1934              		.loc 4 87 14 view .LVU531
 1935 0098 6361     		str	r3, [r4, #20]	@ float
 1936              	.LBE647:
 1937              	.LBE650:
  35:../libDaisy/src/util/CpuLoadMeter.h **** 
 1938              		.loc 4 35 52 view .LVU532
 1939 009a 67EE897A 		vmul.f32	s15, s15, s18
 1940              	.LVL132:
  35:../libDaisy/src/util/CpuLoadMeter.h **** 
 1941              		.loc 4 35 39 view .LVU533
 1942 009e C7EE276A 		vdiv.f32	s13, s14, s15
  35:../libDaisy/src/util/CpuLoadMeter.h **** 
ARM GAS  /var/folders/2p/02m_5p7958535cp2tpgps0400000gn/T//ccx9FAOt.s 			page 65


 1943              		.loc 4 35 32 view .LVU534
 1944 00a2 C4ED016A 		vstr.32	s13, [r4, #4]
  38:../libDaisy/src/util/CpuLoadMeter.h ****         const auto cutoffNormalized
 1945              		.loc 4 38 9 is_stmt 1 view .LVU535
 1946              	.LVL133:
  39:../libDaisy/src/util/CpuLoadMeter.h ****             = smoothingFilterCutoffHz * 2.0f * 3.141592653f / blockRateInHz;
 1947              		.loc 4 39 9 view .LVU536
  38:../libDaisy/src/util/CpuLoadMeter.h ****         const auto cutoffNormalized
 1948              		.loc 4 38 20 is_stmt 0 view .LVU537
 1949 00a6 C8EE886A 		vdiv.f32	s13, s17, s16
 1950              	.LVL134:
  39:../libDaisy/src/util/CpuLoadMeter.h ****             = smoothingFilterCutoffHz * 2.0f * 3.141592653f / blockRateInHz;
 1951              		.loc 4 39 20 view .LVU538
 1952 00aa C6EE267A 		vdiv.f32	s15, s12, s13
 1953              	.LVL135:
  43:../libDaisy/src/util/CpuLoadMeter.h **** 
 1954              		.loc 4 43 9 is_stmt 1 view .LVU539
  43:../libDaisy/src/util/CpuLoadMeter.h **** 
 1955              		.loc 4 43 67 is_stmt 0 view .LVU540
 1956 00ae 37EE877A 		vadd.f32	s14, s15, s14
  43:../libDaisy/src/util/CpuLoadMeter.h **** 
 1957              		.loc 4 43 47 view .LVU541
 1958 00b2 C7EE876A 		vdiv.f32	s13, s15, s14
 1959              	.LVL136:
  43:../libDaisy/src/util/CpuLoadMeter.h **** 
 1960              		.loc 4 43 28 view .LVU542
 1961 00b6 C4ED066A 		vstr.32	s13, [r4, #24]
  45:../libDaisy/src/util/CpuLoadMeter.h ****     }
 1962              		.loc 4 45 9 is_stmt 1 view .LVU543
 1963              	.LVL137:
 1964              	.LBB651:
 1965              	.LBI644:
  84:../libDaisy/src/util/CpuLoadMeter.h ****     {
 1966              		.loc 4 84 10 view .LVU544
 1967              	.LBB648:
  86:../libDaisy/src/util/CpuLoadMeter.h ****         avg_ = max_ = min_ = NAN;
 1968              		.loc 4 86 9 view .LVU545
 1969              		.loc 4 87 9 view .LVU546
 1970              		.loc 4 87 9 is_stmt 0 view .LVU547
 1971              	.LBE648:
 1972              	.LBE651:
 1973              	.LBE652:
 1974              	.LBE653:
  30:GrannyChordApp.cpp ****   InitPrevParamVals();
 1975              		.loc 3 30 3 is_stmt 1 view .LVU548
  30:GrannyChordApp.cpp ****   InitPrevParamVals();
 1976              		.loc 3 30 9 is_stmt 0 view .LVU549
 1977 00ba FFF7FEFF 		bl	_ZN14GrannyChordApp6InitFXEv
 1978              	.LVL138:
  31:GrannyChordApp.cpp ****   SeedRng();
 1979              		.loc 3 31 3 is_stmt 1 view .LVU550
  31:GrannyChordApp.cpp ****   SeedRng();
 1980              		.loc 3 31 20 is_stmt 0 view .LVU551
 1981 00be 2046     		mov	r0, r4
 1982 00c0 FFF7FEFF 		bl	_ZN14GrannyChordApp17InitPrevParamValsEv
 1983              	.LVL139:
  32:GrannyChordApp.cpp ****   synth_.Init(left_buf_, right_buf_, 0);
ARM GAS  /var/folders/2p/02m_5p7958535cp2tpgps0400000gn/T//ccx9FAOt.s 			page 66


 1984              		.loc 3 32 3 is_stmt 1 view .LVU552
 1985              	.LBB654:
 1986              	.LBI654:
 1987              		.file 12 "constants_utils.h"
   1:constants_utils.h **** #pragma once
   2:constants_utils.h **** #include "stddef.h"
   3:constants_utils.h **** #include <time.h>
   4:constants_utils.h **** 
   5:constants_utils.h **** /* audio constants */
   6:constants_utils.h **** constexpr int SAMPLE_RATE = 48000;
   7:constants_utils.h **** constexpr float SAMPLE_RATE_FLOAT = 48000.f;
   8:constants_utils.h **** constexpr int BIT_DEPTH = 16;
   9:constants_utils.h **** 
  10:constants_utils.h **** /* delay line buffer size (2s @ 48kHz) */
  11:constants_utils.h **** constexpr size_t DELAY_TIME = 96000;
  12:constants_utils.h **** 
  13:constants_utils.h **** /* 16mb - max size of one stereo channel to be loaded into buffers */
  14:constants_utils.h **** constexpr size_t CHNL_BUF_SIZE_ABS = 16*1024*1024;
  15:constants_utils.h **** /* above is absolute size - each sample needs an int16 (2 bytes) so we do (abs_size)/2 */
  16:constants_utils.h **** constexpr size_t CHNL_BUF_SIZE_SAMPS = 8*1024*1024;
  17:constants_utils.h **** 
  18:constants_utils.h **** /* chunk size for reading audio into temporary buffer */
  19:constants_utils.h **** const size_t BUF_CHUNK_SZ = 16384;
  20:constants_utils.h **** 
  21:constants_utils.h **** /* file reading constants*/
  22:constants_utils.h **** static const uint16_t MAX_FILES = 32;                      
  23:constants_utils.h **** static const uint16_t MAX_FNAME_LEN = 128;
  24:constants_utils.h **** 
  25:constants_utils.h **** /* granular synth parameter constants */
  26:constants_utils.h **** constexpr int MIN_GRAINS = 1;
  27:constants_utils.h **** constexpr int MAX_GRAINS = 20;
  28:constants_utils.h **** static constexpr int NUM_ENV_TYPES = 4;
  29:constants_utils.h **** static constexpr int NUM_PHASOR_MODES = 4;
  30:constants_utils.h **** static constexpr int NUM_SYNTH_MODES = 7;
  31:constants_utils.h **** constexpr float PARAM_CHANGE_THRESHOLD = 0.01f;
  32:constants_utils.h **** constexpr float MIN_GRAIN_SIZE_MS = 50.0f;
  33:constants_utils.h **** constexpr float MAX_GRAIN_SIZE_MS = 1000.0f;
  34:constants_utils.h **** constexpr size_t MIN_GRAIN_SIZE_SAMPLES = 4800; /* 100ms at 48kHz */
  35:constants_utils.h **** constexpr size_t MAX_GRAIN_SIZE_SAMPLES = 144000; /* 3s at 48kHz */
  36:constants_utils.h **** constexpr float MIN_PITCH = 0.5f;
  37:constants_utils.h **** constexpr float MAX_PITCH = 3.0f;
  38:constants_utils.h **** 
  39:constants_utils.h **** /* integer clamp as can't use std::clamp */
  40:constants_utils.h **** inline constexpr size_t intclamp(size_t val, size_t min, size_t max){
  41:constants_utils.h ****   if (val < min) val = min;
  42:constants_utils.h ****   else if (val > max) val = max;
  43:constants_utils.h ****   return val;
  44:constants_utils.h **** }
  45:constants_utils.h **** 
  46:constants_utils.h **** /* converts milliseconds to number of samples */
  47:constants_utils.h **** inline constexpr size_t MsToSamples(float ms){
  48:constants_utils.h ****   return static_cast<size_t>(SAMPLE_RATE_FLOAT * (ms*0.001f));
  49:constants_utils.h **** }
  50:constants_utils.h **** 
  51:constants_utils.h **** /* converts number of samples to milliseconds */
  52:constants_utils.h **** inline constexpr float SamplesToMs(size_t samples){
  53:constants_utils.h ****   return (static_cast<float>(samples) * 1000.0f) / SAMPLE_RATE_FLOAT; 
ARM GAS  /var/folders/2p/02m_5p7958535cp2tpgps0400000gn/T//ccx9FAOt.s 			page 67


  54:constants_utils.h **** }
  55:constants_utils.h **** 
  56:constants_utils.h **** /* button event constants */
  57:constants_utils.h **** const unsigned long DEBOUNCE_DELAY = 50; 
  58:constants_utils.h **** const unsigned long LONG_PRESS_TIME = 1000;
  59:constants_utils.h **** 
  60:constants_utils.h **** /* hipass filter frequency range */
  61:constants_utils.h **** const float HIPASS_LOWER_BOUND = 0.0004f;
  62:constants_utils.h **** const float HIPASS_UPPER_BOUND = 0.005f;
  63:constants_utils.h **** 
  64:constants_utils.h **** /* lowpass filter frequency range */
  65:constants_utils.h **** const float LOPASS_LOWER_BOUND = 20.0f;
  66:constants_utils.h **** const float LOPASS_UPPER_BOUND = 18000.0f;
  67:constants_utils.h **** 
  68:constants_utils.h **** /* random number generator variables and helper functions */
  69:constants_utils.h **** extern uint32_t rng_state;
  70:constants_utils.h **** inline void SeedRng(){
 1988              		.loc 12 70 13 view .LVU553
 1989              	.LBB655:
  71:constants_utils.h ****   rng_state = static_cast<uint32_t>(time(nullptr));
 1990              		.loc 12 71 3 view .LVU554
 1991              		.loc 12 71 41 is_stmt 0 view .LVU555
 1992 00c4 2846     		mov	r0, r5
 1993 00c6 FFF7FEFF 		bl	time
 1994              	.LVL140:
 1995              		.loc 12 71 13 view .LVU556
 1996 00ca 0C4B     		ldr	r3, .L68+12
 1997              	.LBE655:
 1998              	.LBE654:
  33:GrannyChordApp.cpp ****   pod_.StartAdc();
 1999              		.loc 3 33 14 view .LVU557
 2000 00cc D4F8E824 		ldr	r2, [r4, #1256]
 2001              	.LBB657:
 2002              	.LBB656:
 2003              		.loc 12 71 13 view .LVU558
 2004 00d0 1860     		str	r0, [r3]
 2005              	.LBE656:
 2006              	.LBE657:
  33:GrannyChordApp.cpp ****   pod_.StartAdc();
 2007              		.loc 3 33 3 is_stmt 1 view .LVU559
  33:GrannyChordApp.cpp ****   pod_.StartAdc();
 2008              		.loc 3 33 14 is_stmt 0 view .LVU560
 2009 00d2 04F12000 		add	r0, r4, #32
 2010 00d6 2B46     		mov	r3, r5
 2011 00d8 D4F8E414 		ldr	r1, [r4, #1252]
 2012 00dc FFF7FEFF 		bl	_ZN13GranularSynth4InitEPsS0_j
 2013              	.LVL141:
  34:GrannyChordApp.cpp **** }
 2014              		.loc 3 34 3 is_stmt 1 view .LVU561
  34:GrannyChordApp.cpp **** }
 2015              		.loc 3 34 16 is_stmt 0 view .LVU562
 2016 00e0 E069     		ldr	r0, [r4, #28]
  35:GrannyChordApp.cpp **** 
 2017              		.loc 3 35 1 view .LVU563
 2018 00e2 BDEC048B 		vldm	sp!, {d8-d9}
 2019              		.cfi_restore 82
 2020              		.cfi_restore 83
ARM GAS  /var/folders/2p/02m_5p7958535cp2tpgps0400000gn/T//ccx9FAOt.s 			page 68


 2021              		.cfi_restore 80
 2022              		.cfi_restore 81
 2023              		.cfi_def_cfa_offset 16
 2024 00e6 BDE83840 		pop	{r3, r4, r5, lr}
 2025              		.cfi_restore 14
 2026              		.cfi_restore 5
 2027              		.cfi_restore 4
 2028              		.cfi_restore 3
 2029              		.cfi_def_cfa_offset 0
 2030              	.LVL142:
  34:GrannyChordApp.cpp **** }
 2031              		.loc 3 34 16 view .LVU564
 2032 00ea FFF7FEBF 		b	_ZN5daisy8DaisyPod8StartAdcEv
 2033              	.LVL143:
 2034              	.L69:
 2035 00ee 00BF     		.align	2
 2036              	.L68:
 2037 00f0 00000000 		.word	.LC7
 2038 00f4 DB0FC940 		.word	1086918619
 2039 00f8 0000C07F 		.word	2143289344
 2040 00fc 00000000 		.word	rng_state
 2041              		.cfi_endproc
 2042              	.LFE4903:
 2044              		.section	.rodata._ZN14GrannyChordApp9InitSynthEv.str1.1,"aMS",%progbits,1
 2045              	.LC8:
 2046 0000 73796E74 		.ascii	"synth init ok - samples %u\000"
 2046      6820696E 
 2046      6974206F 
 2046      6B202D20 
 2046      73616D70 
 2047              		.section	.text._ZN14GrannyChordApp9InitSynthEv,"ax",%progbits
 2048              		.align	1
 2049              		.global	_ZN14GrannyChordApp9InitSynthEv
 2050              		.syntax unified
 2051              		.thumb
 2052              		.thumb_func
 2054              	_ZN14GrannyChordApp9InitSynthEv:
 2055              	.LVL144:
 2056              	.LFB4923:
 421:GrannyChordApp.cpp ****   synth_.Init(left_buf_, right_buf_, filemgr_.GetSamplesPerChannel());
 2057              		.loc 3 421 33 is_stmt 1 view -0
 2058              		.cfi_startproc
 2059              		@ args = 0, pretend = 0, frame = 0
 2060              		@ frame_needed = 0, uses_anonymous_args = 0
 422:GrannyChordApp.cpp ****   InitPrevParamVals();
 2061              		.loc 3 422 3 view .LVU566
 422:GrannyChordApp.cpp ****   InitPrevParamVals();
 2062              		.loc 3 422 38 is_stmt 0 view .LVU567
 2063 0000 D0F83024 		ldr	r2, [r0, #1072]
 2064              	.LVL145:
 2065              	.LBB658:
 2066              	.LBI658:
  27:AudioFileManager.h ****     size_t GetTotalSamples() const { return header_.total_samples; }
 2067              		.loc 8 27 12 is_stmt 1 view .LVU568
 2068              	.LBB659:
  27:AudioFileManager.h ****     size_t GetTotalSamples() const { return header_.total_samples; }
 2069              		.loc 8 27 43 view .LVU569
ARM GAS  /var/folders/2p/02m_5p7958535cp2tpgps0400000gn/T//ccx9FAOt.s 			page 69


  27:AudioFileManager.h ****     size_t GetTotalSamples() const { return header_.total_samples; }
 2070              		.loc 8 27 43 is_stmt 0 view .LVU570
 2071              	.LBE659:
 2072              	.LBE658:
 422:GrannyChordApp.cpp ****   InitPrevParamVals();
 2073              		.loc 3 422 14 view .LVU571
 2074 0004 D0F8E414 		ldr	r1, [r0, #1252]
 2075              	.LBB661:
 2076              	.LBB660:
  27:AudioFileManager.h ****     size_t GetTotalSamples() const { return header_.total_samples; }
 2077              		.loc 8 27 58 view .LVU572
 2078 0008 02F58052 		add	r2, r2, #4096
  27:AudioFileManager.h ****     size_t GetTotalSamples() const { return header_.total_samples; }
 2079              		.loc 8 27 82 view .LVU573
 2080 000c B2F92830 		ldrsh	r3, [r2, #40]
 2081 0010 D26A     		ldr	r2, [r2, #44]
 2082              	.LBE660:
 2083              	.LBE661:
 421:GrannyChordApp.cpp ****   synth_.Init(left_buf_, right_buf_, filemgr_.GetSamplesPerChannel());
 2084              		.loc 3 421 33 view .LVU574
 2085 0012 10B5     		push	{r4, lr}
 2086              		.cfi_def_cfa_offset 8
 2087              		.cfi_offset 4, -8
 2088              		.cfi_offset 14, -4
 421:GrannyChordApp.cpp ****   synth_.Init(left_buf_, right_buf_, filemgr_.GetSamplesPerChannel());
 2089              		.loc 3 421 33 view .LVU575
 2090 0014 0446     		mov	r4, r0
 422:GrannyChordApp.cpp ****   InitPrevParamVals();
 2091              		.loc 3 422 14 view .LVU576
 2092 0016 2030     		adds	r0, r0, #32
 2093              	.LVL146:
 422:GrannyChordApp.cpp ****   InitPrevParamVals();
 2094              		.loc 3 422 14 view .LVU577
 2095 0018 B2FBF3F3 		udiv	r3, r2, r3
 2096 001c D0F8C824 		ldr	r2, [r0, #1224]
 2097 0020 FFF7FEFF 		bl	_ZN13GranularSynth4InitEPsS0_j
 2098              	.LVL147:
 423:GrannyChordApp.cpp ****   DebugPrint(pod_,"synth init ok - samples %u",filemgr_.GetSamplesPerChannel());
 2099              		.loc 3 423 3 is_stmt 1 view .LVU578
 423:GrannyChordApp.cpp ****   DebugPrint(pod_,"synth init ok - samples %u",filemgr_.GetSamplesPerChannel());
 2100              		.loc 3 423 20 is_stmt 0 view .LVU579
 2101 0024 2046     		mov	r0, r4
 2102 0026 FFF7FEFF 		bl	_ZN14GrannyChordApp17InitPrevParamValsEv
 2103              	.LVL148:
 424:GrannyChordApp.cpp **** }
 2104              		.loc 3 424 3 is_stmt 1 view .LVU580
 424:GrannyChordApp.cpp **** }
 2105              		.loc 3 424 3 view .LVU581
 2106 002a D4F83034 		ldr	r3, [r4, #1072]
 2107              	.LVL149:
 2108              	.LBB662:
 2109              	.LBI662:
  27:AudioFileManager.h ****     size_t GetTotalSamples() const { return header_.total_samples; }
 2110              		.loc 8 27 12 view .LVU582
 2111              	.LBB663:
  27:AudioFileManager.h ****     size_t GetTotalSamples() const { return header_.total_samples; }
 2112              		.loc 8 27 43 view .LVU583
ARM GAS  /var/folders/2p/02m_5p7958535cp2tpgps0400000gn/T//ccx9FAOt.s 			page 70


  27:AudioFileManager.h ****     size_t GetTotalSamples() const { return header_.total_samples; }
 2113              		.loc 8 27 43 is_stmt 0 view .LVU584
 2114              	.LBE663:
 2115              	.LBE662:
 2116              	.LBB665:
 2117              	.LBI665:
 126:../libDaisy/src/daisy_seed.h ****     {
 2118              		.loc 5 126 17 is_stmt 1 view .LVU585
 2119              	.LBB666:
 2120              		.loc 5 128 23 is_stmt 0 view .LVU586
 2121 002e 0648     		ldr	r0, .L71
 2122              	.LBE666:
 2123              	.LBE665:
 2124              	.LBB668:
 2125              	.LBB664:
  27:AudioFileManager.h ****     size_t GetTotalSamples() const { return header_.total_samples; }
 2126              		.loc 8 27 58 view .LVU587
 2127 0030 03F58053 		add	r3, r3, #4096
 2128              	.LVL150:
  27:AudioFileManager.h ****     size_t GetTotalSamples() const { return header_.total_samples; }
 2129              		.loc 8 27 82 view .LVU588
 2130 0034 B3F92820 		ldrsh	r2, [r3, #40]
 2131 0038 D96A     		ldr	r1, [r3, #44]
 2132              	.LBE664:
 2133              	.LBE668:
 425:GrannyChordApp.cpp **** 
 2134              		.loc 3 425 1 view .LVU589
 2135 003a BDE81040 		pop	{r4, lr}
 2136              		.cfi_restore 14
 2137              		.cfi_restore 4
 2138              		.cfi_def_cfa_offset 0
 2139              	.LVL151:
 2140              	.LBB669:
 2141              	.LBB667:
 2142              		.loc 5 128 23 view .LVU590
 2143 003e B1FBF2F1 		udiv	r1, r1, r2
 2144 0042 FFF7FEBF 		b	_ZN5daisy6LoggerILNS_17LoggerDestinationE1EE9PrintLineEPKcz
 2145              	.LVL152:
 2146              	.L72:
 2147              		.loc 5 128 23 view .LVU591
 2148 0046 00BF     		.align	2
 2149              	.L71:
 2150 0048 00000000 		.word	.LC8
 2151              	.LBE667:
 2152              	.LBE669:
 2153              		.cfi_endproc
 2154              	.LFE4923:
 2156              		.section	.text._ZN14GrannyChordApp13ResetPassThruEv,"ax",%progbits
 2157              		.align	1
 2158              		.global	_ZN14GrannyChordApp13ResetPassThruEv
 2159              		.syntax unified
 2160              		.thumb
 2161              		.thumb_func
 2163              	_ZN14GrannyChordApp13ResetPassThruEv:
 2164              	.LVL153:
 2165              	.LFB4929:
 484:GrannyChordApp.cpp **** 
ARM GAS  /var/folders/2p/02m_5p7958535cp2tpgps0400000gn/T//ccx9FAOt.s 			page 71


 485:GrannyChordApp.cpp **** void GrannyChordApp::ResetPassThru(){
 2166              		.loc 3 485 37 is_stmt 1 view -0
 2167              		.cfi_startproc
 2168              		@ args = 0, pretend = 0, frame = 0
 2169              		@ frame_needed = 0, uses_anonymous_args = 0
 2170              		@ link register save eliminated.
 486:GrannyChordApp.cpp ****   for (int i=0; i<NUM_SYNTH_MODES;i++){
 2171              		.loc 3 486 3 view .LVU593
 2172              	.LBB670:
 2173              		.loc 3 486 18 view .LVU594
 487:GrannyChordApp.cpp ****     pass_thru_k1[i]=false;
 2174              		.loc 3 487 20 is_stmt 0 view .LVU595
 2175 0000 0E22     		movs	r2, #14
 2176 0002 0021     		movs	r1, #0
 2177 0004 00F5BD60 		add	r0, r0, #1512
 2178              	.LVL154:
 2179              		.loc 3 487 20 view .LVU596
 2180 0008 FFF7FEBF 		b	memset
 2181              	.LVL155:
 2182              		.loc 3 487 20 view .LVU597
 2183              	.LBE670:
 2184              		.cfi_endproc
 2185              	.LFE4929:
 2187              		.section	.text._ZN14GrannyChordApp20ResetNewModePassThruEv,"ax",%progbits
 2188              		.align	1
 2189              		.global	_ZN14GrannyChordApp20ResetNewModePassThruEv
 2190              		.syntax unified
 2191              		.thumb
 2192              		.thumb_func
 2194              	_ZN14GrannyChordApp20ResetNewModePassThruEv:
 2195              	.LVL156:
 2196              	.LFB4930:
 488:GrannyChordApp.cpp ****     pass_thru_k2[i]=false;
 489:GrannyChordApp.cpp ****   }
 490:GrannyChordApp.cpp **** }
 491:GrannyChordApp.cpp **** 
 492:GrannyChordApp.cpp **** void GrannyChordApp::ResetNewModePassThru(){
 2197              		.loc 3 492 44 is_stmt 1 view -0
 2198              		.cfi_startproc
 2199              		@ args = 0, pretend = 0, frame = 0
 2200              		@ frame_needed = 0, uses_anonymous_args = 0
 2201              		@ link register save eliminated.
 493:GrannyChordApp.cpp ****   int mode_idx = static_cast<int>(curr_synth_mode_);
 2202              		.loc 3 493 3 view .LVU599
 2203              		.loc 3 493 7 is_stmt 0 view .LVU600
 2204 0000 D0F84034 		ldr	r3, [r0, #1088]
 2205              	.LVL157:
 494:GrannyChordApp.cpp ****   pass_thru_k1[mode_idx] = false;
 2206              		.loc 3 494 3 is_stmt 1 view .LVU601
 2207              		.loc 3 494 26 is_stmt 0 view .LVU602
 2208 0004 1844     		add	r0, r0, r3
 2209              	.LVL158:
 2210              		.loc 3 494 26 view .LVU603
 2211 0006 0023     		movs	r3, #0
 2212              	.LVL159:
 2213              		.loc 3 494 26 view .LVU604
 2214 0008 80F8E835 		strb	r3, [r0, #1512]
ARM GAS  /var/folders/2p/02m_5p7958535cp2tpgps0400000gn/T//ccx9FAOt.s 			page 72


 495:GrannyChordApp.cpp ****   pass_thru_k2[mode_idx] = false;
 2215              		.loc 3 495 3 is_stmt 1 view .LVU605
 2216              		.loc 3 495 26 is_stmt 0 view .LVU606
 2217 000c 80F8EF35 		strb	r3, [r0, #1519]
 496:GrannyChordApp.cpp **** }
 2218              		.loc 3 496 1 view .LVU607
 2219 0010 7047     		bx	lr
 2220              		.cfi_endproc
 2221              	.LFE4930:
 2223              		.section	.text._ZN14GrannyChordApp18ProcessWAVPlaybackEPPfj,"ax",%progbits
 2224              		.align	1
 2225              		.global	_ZN14GrannyChordApp18ProcessWAVPlaybackEPPfj
 2226              		.syntax unified
 2227              		.thumb
 2228              		.thumb_func
 2230              	_ZN14GrannyChordApp18ProcessWAVPlaybackEPPfj:
 2231              	.LVL160:
 2232              	.LFB4933:
 497:GrannyChordApp.cpp **** 
 498:GrannyChordApp.cpp **** /// @brief Master audio callback, called at audio rate, calls all audio processing methods
 499:GrannyChordApp.cpp **** /// @param in Audio input buffer
 500:GrannyChordApp.cpp **** /// @param out Audio output buffer
 501:GrannyChordApp.cpp **** /// @param size Number of samples to process in this call
 502:GrannyChordApp.cpp **** void GrannyChordApp::AudioCallback(AudioHandle::InputBuffer in, AudioHandle::OutputBuffer out, size
 503:GrannyChordApp.cpp ****   instance_->ProcessAudio(in,out,size);
 504:GrannyChordApp.cpp **** }
 505:GrannyChordApp.cpp **** 
 506:GrannyChordApp.cpp **** void GrannyChordApp::ProcessAudio(AudioHandle::InputBuffer in, AudioHandle::OutputBuffer out, size_
 507:GrannyChordApp.cpp ****   switch(curr_state_){
 508:GrannyChordApp.cpp ****     case AppState::PlayWAV:
 509:GrannyChordApp.cpp ****       if (wav_playhead_>= filemgr_.GetSamplesPerChannel() -1){
 510:GrannyChordApp.cpp ****         instance_->pod_.StopAudio();
 511:GrannyChordApp.cpp ****         DebugPrint(pod_, "stopped audio > len");
 512:GrannyChordApp.cpp ****         return;
 513:GrannyChordApp.cpp ****       }
 514:GrannyChordApp.cpp ****       ProcessWAVPlayback(out,size);
 515:GrannyChordApp.cpp ****       return;  
 516:GrannyChordApp.cpp ****     case AppState::RecordIn:
 517:GrannyChordApp.cpp ****       ProcessRecordIn(in, out, size);
 518:GrannyChordApp.cpp ****       return;
 519:GrannyChordApp.cpp ****     case AppState::Synthesis:
 520:GrannyChordApp.cpp ****       ProcessSynthesis(out,size);
 521:GrannyChordApp.cpp ****       return;
 522:GrannyChordApp.cpp ****     // case AppState::ChordMode:
 523:GrannyChordApp.cpp ****     // return;
 524:GrannyChordApp.cpp ****     default:
 525:GrannyChordApp.cpp ****       return;
 526:GrannyChordApp.cpp ****   }
 527:GrannyChordApp.cpp **** }
 528:GrannyChordApp.cpp **** 
 529:GrannyChordApp.cpp **** /// @brief Process audio for WAV playback mode and increment playback position
 530:GrannyChordApp.cpp **** /// @param out Output audio buffer
 531:GrannyChordApp.cpp **** /// @param size Number of samples to process in this call
 532:GrannyChordApp.cpp **** void GrannyChordApp::ProcessWAVPlayback(AudioHandle::OutputBuffer out, size_t size){
 2233              		.loc 3 532 84 is_stmt 1 view -0
 2234              		.cfi_startproc
 2235              		@ args = 0, pretend = 0, frame = 0
ARM GAS  /var/folders/2p/02m_5p7958535cp2tpgps0400000gn/T//ccx9FAOt.s 			page 73


 2236              		@ frame_needed = 0, uses_anonymous_args = 0
 533:GrannyChordApp.cpp ****   for (size_t i=0; i<size; i++){
 2237              		.loc 3 533 3 view .LVU609
 532:GrannyChordApp.cpp ****   for (size_t i=0; i<size; i++){
 2238              		.loc 3 532 84 is_stmt 0 view .LVU610
 2239 0000 70B5     		push	{r4, r5, r6, lr}
 2240              		.cfi_def_cfa_offset 16
 2241              		.cfi_offset 4, -16
 2242              		.cfi_offset 5, -12
 2243              		.cfi_offset 6, -8
 2244              		.cfi_offset 14, -4
 2245              	.LBB671:
 2246              		.loc 3 533 15 view .LVU611
 2247 0002 0024     		movs	r4, #0
 2248              	.LVL161:
 2249              	.L78:
 2250              		.loc 3 533 21 is_stmt 1 discriminator 1 view .LVU612
 2251 0004 9442     		cmp	r4, r2
 2252 0006 37D0     		beq	.L75
 534:GrannyChordApp.cpp ****     if (wav_playhead_ < filemgr_.GetSamplesPerChannel()){
 2253              		.loc 3 534 5 view .LVU613
 2254              		.loc 3 534 25 is_stmt 0 view .LVU614
 2255 0008 D0F83054 		ldr	r5, [r0, #1072]
 2256              	.LVL162:
 2257              	.LBB672:
 2258              	.LBI672:
  27:AudioFileManager.h ****     size_t GetTotalSamples() const { return header_.total_samples; }
 2259              		.loc 8 27 12 is_stmt 1 view .LVU615
 2260              	.LBB673:
  27:AudioFileManager.h ****     size_t GetTotalSamples() const { return header_.total_samples; }
 2261              		.loc 8 27 43 view .LVU616
  27:AudioFileManager.h ****     size_t GetTotalSamples() const { return header_.total_samples; }
 2262              		.loc 8 27 43 is_stmt 0 view .LVU617
 2263              	.LBE673:
 2264              	.LBE672:
 2265              		.loc 3 534 9 view .LVU618
 2266 000c D0F8F034 		ldr	r3, [r0, #1264]
 2267              	.LBB675:
 2268              	.LBB674:
  27:AudioFileManager.h ****     size_t GetTotalSamples() const { return header_.total_samples; }
 2269              		.loc 8 27 58 view .LVU619
 2270 0010 05F58055 		add	r5, r5, #4096
  27:AudioFileManager.h ****     size_t GetTotalSamples() const { return header_.total_samples; }
 2271              		.loc 8 27 82 view .LVU620
 2272 0014 B5F92860 		ldrsh	r6, [r5, #40]
 2273 0018 ED6A     		ldr	r5, [r5, #44]
 2274 001a B5FBF6F5 		udiv	r5, r5, r6
 2275              	.LBE674:
 2276              	.LBE675:
 2277              		.loc 3 534 5 view .LVU621
 2278 001e AB42     		cmp	r3, r5
 2279 0020 28D2     		bcs	.L77
 535:GrannyChordApp.cpp ****       out[0][i] = s162f(left_buf_[wav_playhead_]) * 0.5f;
 2280              		.loc 3 535 7 is_stmt 1 view .LVU622
 2281              	.LVL163:
 2282              	.LBB676:
 2283              	.LBI676:
ARM GAS  /var/folders/2p/02m_5p7958535cp2tpgps0400000gn/T//ccx9FAOt.s 			page 74


 2284              		.file 13 "../libDaisy/src/daisy_core.h"
   1:../libDaisy/src/daisy_core.h **** #pragma once
   2:../libDaisy/src/daisy_core.h **** #ifndef DSY_CORE_HW_H
   3:../libDaisy/src/daisy_core.h **** #define DSY_CORE_HW_H /**< & */
   4:../libDaisy/src/daisy_core.h **** #include <stdint.h>
   5:../libDaisy/src/daisy_core.h **** #include <stdlib.h>
   6:../libDaisy/src/daisy_core.h **** 
   7:../libDaisy/src/daisy_core.h **** #if defined(_MSC_VER)
   8:../libDaisy/src/daisy_core.h **** #define FORCE_INLINE __forceinline /**< & */
   9:../libDaisy/src/daisy_core.h **** #elif defined(__clang__)
  10:../libDaisy/src/daisy_core.h **** #define FORCE_INLINE inline __attribute__((always_inline)) /**< & */
  11:../libDaisy/src/daisy_core.h **** #pragma clang diagnostic ignored "-Wduplicate-decl-specifier"
  12:../libDaisy/src/daisy_core.h **** #elif defined(__GNUC__)
  13:../libDaisy/src/daisy_core.h **** #define FORCE_INLINE inline __attribute__((always_inline)) /**< & */
  14:../libDaisy/src/daisy_core.h **** #else
  15:../libDaisy/src/daisy_core.h **** #error unknown compiler
  16:../libDaisy/src/daisy_core.h **** #endif
  17:../libDaisy/src/daisy_core.h **** 
  18:../libDaisy/src/daisy_core.h **** /** @addtogroup utility
  19:../libDaisy/src/daisy_core.h ****     @{
  20:../libDaisy/src/daisy_core.h **** */
  21:../libDaisy/src/daisy_core.h **** 
  22:../libDaisy/src/daisy_core.h **** /** Macro for area of memory that is configured as cacheless
  23:../libDaisy/src/daisy_core.h **** This should be used primarily for DMA buffers, and the like.
  24:../libDaisy/src/daisy_core.h **** */
  25:../libDaisy/src/daisy_core.h **** #define DMA_BUFFER_MEM_SECTION __attribute__((section(".sram1_bss")))
  26:../libDaisy/src/daisy_core.h **** /** 
  27:../libDaisy/src/daisy_core.h **** THE DTCM RAM section is also non-cached. However, is not suitable 
  28:../libDaisy/src/daisy_core.h **** for DMA transfers. Performance is on par with internal SRAM w/ 
  29:../libDaisy/src/daisy_core.h **** cache enabled.
  30:../libDaisy/src/daisy_core.h **** */
  31:../libDaisy/src/daisy_core.h **** #define DTCM_MEM_SECTION __attribute__((section(".dtcmram_bss")))
  32:../libDaisy/src/daisy_core.h **** 
  33:../libDaisy/src/daisy_core.h **** #define FBIPMAX 0.999985f             /**< close to 1.0f-LSB at 16 bit */
  34:../libDaisy/src/daisy_core.h **** #define FBIPMIN (-FBIPMAX)            /**< - (1 - LSB) */
  35:../libDaisy/src/daisy_core.h **** #define U82F_SCALE 0.0078740f         /**< 1 / 127 */
  36:../libDaisy/src/daisy_core.h **** #define F2U8_SCALE 127.0f             /**< 128 - 1 */
  37:../libDaisy/src/daisy_core.h **** #define S82F_SCALE 0.0078125f         /**< 1 / (2**7) */
  38:../libDaisy/src/daisy_core.h **** #define F2S8_SCALE 127.0f             /**< (2 ** 7) - 1 */
  39:../libDaisy/src/daisy_core.h **** #define S162F_SCALE 3.0517578125e-05f /**< 1 / (2** 15) */
  40:../libDaisy/src/daisy_core.h **** #define F2S16_SCALE 32767.0f          /**< (2 ** 15) - 1 */
  41:../libDaisy/src/daisy_core.h **** #define F2S24_SCALE 8388608.0f        /**< 2 ** 23 */
  42:../libDaisy/src/daisy_core.h **** #define S242F_SCALE 1.192092896e-07f  /**< 1 / (2 ** 23) */
  43:../libDaisy/src/daisy_core.h **** #define S24SIGN 0x800000              /**< 2 ** 23 */
  44:../libDaisy/src/daisy_core.h **** #define S322F_SCALE 4.6566129e-10f    /**< 1 / (2** 31) */
  45:../libDaisy/src/daisy_core.h **** #define F2S32_SCALE 2147483647.f      /**< (2 ** 31) - 1 */
  46:../libDaisy/src/daisy_core.h **** 
  47:../libDaisy/src/daisy_core.h **** 
  48:../libDaisy/src/daisy_core.h **** /** shorthand macro for simplifying the reading of the left 
  49:../libDaisy/src/daisy_core.h ****  *  channel of a non-interleaved output buffer named out */
  50:../libDaisy/src/daisy_core.h **** #define OUT_L out[0]
  51:../libDaisy/src/daisy_core.h **** 
  52:../libDaisy/src/daisy_core.h **** /** shorthand macro for simplifying the reading of the right 
  53:../libDaisy/src/daisy_core.h ****  *  channel of a non-interleaved output buffer named out */
  54:../libDaisy/src/daisy_core.h **** #define OUT_R out[1]
  55:../libDaisy/src/daisy_core.h **** 
  56:../libDaisy/src/daisy_core.h **** /** shorthand macro for simplifying the reading of the left 
ARM GAS  /var/folders/2p/02m_5p7958535cp2tpgps0400000gn/T//ccx9FAOt.s 			page 75


  57:../libDaisy/src/daisy_core.h ****  *  channel of a non-interleaved input buffer named in */
  58:../libDaisy/src/daisy_core.h **** #define IN_L in[0]
  59:../libDaisy/src/daisy_core.h **** 
  60:../libDaisy/src/daisy_core.h **** /** shorthand macro for simplifying the reading of the right 
  61:../libDaisy/src/daisy_core.h ****  *  channel of a non-interleaved input buffer named in */
  62:../libDaisy/src/daisy_core.h **** #define IN_R in[1]
  63:../libDaisy/src/daisy_core.h **** 
  64:../libDaisy/src/daisy_core.h **** /** 
  65:../libDaisy/src/daisy_core.h ****     Computes cube.
  66:../libDaisy/src/daisy_core.h ****     \param x Number to be cubed
  67:../libDaisy/src/daisy_core.h ****     \return x ^ 3
  68:../libDaisy/src/daisy_core.h **** */
  69:../libDaisy/src/daisy_core.h **** FORCE_INLINE float cube(float x)
  70:../libDaisy/src/daisy_core.h **** {
  71:../libDaisy/src/daisy_core.h ****     return (x * x) * x;
  72:../libDaisy/src/daisy_core.h **** }
  73:../libDaisy/src/daisy_core.h **** 
  74:../libDaisy/src/daisy_core.h **** /** 
  75:../libDaisy/src/daisy_core.h ****     Converts unsigned 8-bit to float
  76:../libDaisy/src/daisy_core.h ****     \param x Number to be scaled.
  77:../libDaisy/src/daisy_core.h ****     \return Scaled number.
  78:../libDaisy/src/daisy_core.h **** */
  79:../libDaisy/src/daisy_core.h **** FORCE_INLINE float u82f(uint8_t x)
  80:../libDaisy/src/daisy_core.h **** {
  81:../libDaisy/src/daisy_core.h ****     return ((float)x - 127.f) * U82F_SCALE;
  82:../libDaisy/src/daisy_core.h **** }
  83:../libDaisy/src/daisy_core.h **** 
  84:../libDaisy/src/daisy_core.h **** /**
  85:../libDaisy/src/daisy_core.h ****     Converts float to unsigned 8-bit
  86:../libDaisy/src/daisy_core.h **** */
  87:../libDaisy/src/daisy_core.h **** FORCE_INLINE uint8_t f2u8(float x)
  88:../libDaisy/src/daisy_core.h **** {
  89:../libDaisy/src/daisy_core.h ****     x = x <= FBIPMIN ? FBIPMIN : x;
  90:../libDaisy/src/daisy_core.h ****     x = x >= FBIPMAX ? FBIPMAX : x;
  91:../libDaisy/src/daisy_core.h ****     return (uint8_t)((x * F2U8_SCALE) + F2U8_SCALE);
  92:../libDaisy/src/daisy_core.h **** }
  93:../libDaisy/src/daisy_core.h **** 
  94:../libDaisy/src/daisy_core.h **** 
  95:../libDaisy/src/daisy_core.h **** /** 
  96:../libDaisy/src/daisy_core.h ****     Converts Signed 8-bit to float
  97:../libDaisy/src/daisy_core.h ****     \param x Number to be scaled.
  98:../libDaisy/src/daisy_core.h ****     \return Scaled number.
  99:../libDaisy/src/daisy_core.h **** */
 100:../libDaisy/src/daisy_core.h **** FORCE_INLINE float s82f(int8_t x)
 101:../libDaisy/src/daisy_core.h **** {
 102:../libDaisy/src/daisy_core.h ****     return (float)x * S82F_SCALE;
 103:../libDaisy/src/daisy_core.h **** }
 104:../libDaisy/src/daisy_core.h **** 
 105:../libDaisy/src/daisy_core.h **** /**
 106:../libDaisy/src/daisy_core.h ****     Converts float to Signed 8-bit
 107:../libDaisy/src/daisy_core.h **** */
 108:../libDaisy/src/daisy_core.h **** FORCE_INLINE int8_t f2s8(float x)
 109:../libDaisy/src/daisy_core.h **** {
 110:../libDaisy/src/daisy_core.h ****     x = x <= FBIPMIN ? FBIPMIN : x;
 111:../libDaisy/src/daisy_core.h ****     x = x >= FBIPMAX ? FBIPMAX : x;
 112:../libDaisy/src/daisy_core.h ****     return (int32_t)(x * F2S8_SCALE);
 113:../libDaisy/src/daisy_core.h **** }
ARM GAS  /var/folders/2p/02m_5p7958535cp2tpgps0400000gn/T//ccx9FAOt.s 			page 76


 114:../libDaisy/src/daisy_core.h **** 
 115:../libDaisy/src/daisy_core.h **** /** 
 116:../libDaisy/src/daisy_core.h ****     Converts Signed 16-bit to float
 117:../libDaisy/src/daisy_core.h ****     \param x Number to be scaled.
 118:../libDaisy/src/daisy_core.h ****     \return Scaled number.
 119:../libDaisy/src/daisy_core.h **** */
 120:../libDaisy/src/daisy_core.h **** FORCE_INLINE float s162f(int16_t x)
 2285              		.loc 13 120 20 view .LVU623
 2286              	.LBB677:
 121:../libDaisy/src/daisy_core.h **** {
 122:../libDaisy/src/daisy_core.h ****     return (float)x * S162F_SCALE;
 2287              		.loc 13 122 5 view .LVU624
 2288              		.loc 13 122 5 is_stmt 0 view .LVU625
 2289              	.LBE677:
 2290              	.LBE676:
 2291              		.loc 3 535 24 view .LVU626
 2292 0022 D0F8E464 		ldr	r6, [r0, #1252]
 2293              		.loc 3 535 51 view .LVU627
 2294 0026 F6EE006A 		vmov.f32	s13, #5.0e-1
 2295              	.LBB682:
 2296              	.LBB678:
 2297              		.loc 13 122 23 view .LVU628
 2298 002a 9FED146A 		vldr.32	s12, .L80
 2299              		.loc 13 122 12 view .LVU629
 2300 002e 36F91360 		ldrsh	r6, [r6, r3, lsl #1]
 2301              	.LBE678:
 2302              	.LBE682:
 2303              		.loc 3 535 17 view .LVU630
 2304 0032 0D68     		ldr	r5, [r1]
 2305              	.LBB683:
 2306              	.LBB679:
 2307              		.loc 13 122 12 view .LVU631
 2308 0034 07EE106A 		vmov	s14, r6	@ int
 2309              	.LBE679:
 2310              	.LBE683:
 536:GrannyChordApp.cpp ****       out[1][i] = s162f(right_buf_[wav_playhead_]) * 0.5f;
 2311              		.loc 3 536 24 view .LVU632
 2312 0038 D0F8E864 		ldr	r6, [r0, #1256]
 535:GrannyChordApp.cpp ****       out[1][i] = s162f(right_buf_[wav_playhead_]) * 0.5f;
 2313              		.loc 3 535 17 view .LVU633
 2314 003c 05EB8405 		add	r5, r5, r4, lsl #2
 2315              	.LBB684:
 2316              	.LBB685:
 2317              		.loc 13 122 12 view .LVU634
 2318 0040 36F91360 		ldrsh	r6, [r6, r3, lsl #1]
 2319              	.LBE685:
 2320              	.LBE684:
 2321              	.LBB690:
 2322              	.LBB680:
 2323 0044 B8EEC77A 		vcvt.f32.s32	s14, s14
 2324              	.LBE680:
 2325              	.LBE690:
 537:GrannyChordApp.cpp ****       wav_playhead_++;
 2326              		.loc 3 537 20 view .LVU635
 2327 0048 0133     		adds	r3, r3, #1
 2328              	.LBB691:
 2329              	.LBB686:
ARM GAS  /var/folders/2p/02m_5p7958535cp2tpgps0400000gn/T//ccx9FAOt.s 			page 77


 2330              		.loc 13 122 12 view .LVU636
 2331 004a 07EE906A 		vmov	s15, r6	@ int
 2332              	.LBE686:
 2333              	.LBE691:
 2334              	.LBB692:
 2335              	.LBB681:
 2336              		.loc 13 122 23 view .LVU637
 2337 004e 27EE067A 		vmul.f32	s14, s14, s12
 2338              	.LBE681:
 2339              	.LBE692:
 2340              	.LBB693:
 2341              	.LBB687:
 2342              		.loc 13 122 12 view .LVU638
 2343 0052 F8EEE77A 		vcvt.f32.s32	s15, s15
 2344              	.LBE687:
 2345              	.LBE693:
 535:GrannyChordApp.cpp ****       out[1][i] = s162f(right_buf_[wav_playhead_]) * 0.5f;
 2346              		.loc 3 535 51 view .LVU639
 2347 0056 27EE267A 		vmul.f32	s14, s14, s13
 2348              	.LBB694:
 2349              	.LBB688:
 2350              		.loc 13 122 23 view .LVU640
 2351 005a 67EE867A 		vmul.f32	s15, s15, s12
 2352              	.LBE688:
 2353              	.LBE694:
 535:GrannyChordApp.cpp ****       out[1][i] = s162f(right_buf_[wav_playhead_]) * 0.5f;
 2354              		.loc 3 535 17 view .LVU641
 2355 005e 85ED007A 		vstr.32	s14, [r5]
 536:GrannyChordApp.cpp ****       out[1][i] = s162f(right_buf_[wav_playhead_]) * 0.5f;
 2356              		.loc 3 536 7 is_stmt 1 view .LVU642
 2357              	.LVL164:
 2358              	.LBB695:
 2359              	.LBI684:
 120:../libDaisy/src/daisy_core.h **** {
 2360              		.loc 13 120 20 view .LVU643
 2361              	.LBB689:
 2362              		.loc 13 122 5 view .LVU644
 2363              		.loc 13 122 5 is_stmt 0 view .LVU645
 2364              	.LBE689:
 2365              	.LBE695:
 536:GrannyChordApp.cpp ****       wav_playhead_++;
 2366              		.loc 3 536 17 view .LVU646
 2367 0062 4D68     		ldr	r5, [r1, #4]
 536:GrannyChordApp.cpp ****       wav_playhead_++;
 2368              		.loc 3 536 52 view .LVU647
 2369 0064 67EEA67A 		vmul.f32	s15, s15, s13
 536:GrannyChordApp.cpp ****       wav_playhead_++;
 2370              		.loc 3 536 17 view .LVU648
 2371 0068 05EB8405 		add	r5, r5, r4, lsl #2
 2372 006c C5ED007A 		vstr.32	s15, [r5]
 2373              		.loc 3 537 7 is_stmt 1 view .LVU649
 2374              		.loc 3 537 20 is_stmt 0 view .LVU650
 2375 0070 C0F8F034 		str	r3, [r0, #1264]
 2376              	.L77:
 533:GrannyChordApp.cpp ****     if (wav_playhead_ < filemgr_.GetSamplesPerChannel()){
 2377              		.loc 3 533 3 is_stmt 1 discriminator 2 view .LVU651
 2378 0074 0134     		adds	r4, r4, #1
ARM GAS  /var/folders/2p/02m_5p7958535cp2tpgps0400000gn/T//ccx9FAOt.s 			page 78


 2379              	.LVL165:
 533:GrannyChordApp.cpp ****     if (wav_playhead_ < filemgr_.GetSamplesPerChannel()){
 2380              		.loc 3 533 3 is_stmt 0 discriminator 2 view .LVU652
 2381 0076 C5E7     		b	.L78
 2382              	.L75:
 533:GrannyChordApp.cpp ****     if (wav_playhead_ < filemgr_.GetSamplesPerChannel()){
 2383              		.loc 3 533 3 discriminator 2 view .LVU653
 2384              	.LBE671:
 538:GrannyChordApp.cpp ****     }
 539:GrannyChordApp.cpp ****   }
 540:GrannyChordApp.cpp **** }
 2385              		.loc 3 540 1 view .LVU654
 2386 0078 70BD     		pop	{r4, r5, r6, pc}
 2387              	.LVL166:
 2388              	.L81:
 2389              		.loc 3 540 1 view .LVU655
 2390 007a 00BF     		.align	2
 2391              	.L80:
 2392 007c 00000038 		.word	939524096
 2393              		.cfi_endproc
 2394              	.LFE4933:
 2396              		.section	.text._ZN14GrannyChordApp15ProcessRecordInEPKPKfPPfj,"ax",%progbits
 2397              		.align	1
 2398              		.global	_ZN14GrannyChordApp15ProcessRecordInEPKPKfPPfj
 2399              		.syntax unified
 2400              		.thumb
 2401              		.thumb_func
 2403              	_ZN14GrannyChordApp15ProcessRecordInEPKPKfPPfj:
 2404              	.LVL167:
 2405              	.LFB4934:
 541:GrannyChordApp.cpp **** 
 542:GrannyChordApp.cpp **** /// @brief Process input audio when app is in RecordIn state
 543:GrannyChordApp.cpp **** /// @param in Input audio buffer
 544:GrannyChordApp.cpp **** /// @param out Output audio buffer
 545:GrannyChordApp.cpp **** /// @param size Number of samples to process in this call
 546:GrannyChordApp.cpp **** void GrannyChordApp::ProcessRecordIn(AudioHandle::InputBuffer in, AudioHandle::OutputBuffer out, si
 2406              		.loc 3 546 110 is_stmt 1 view -0
 2407              		.cfi_startproc
 2408              		@ args = 0, pretend = 0, frame = 0
 2409              		@ frame_needed = 0, uses_anonymous_args = 0
 547:GrannyChordApp.cpp ****   const size_t MAX_RECORDING_LEN = 120*48000; /* 120s @ 48kHZ */
 2410              		.loc 3 547 3 view .LVU657
 548:GrannyChordApp.cpp ****   for (size_t i=0; i<size;i++){
 2411              		.loc 3 548 3 view .LVU658
 546:GrannyChordApp.cpp ****   const size_t MAX_RECORDING_LEN = 120*48000; /* 120s @ 48kHZ */
 2412              		.loc 3 546 110 is_stmt 0 view .LVU659
 2413 0000 F0B5     		push	{r4, r5, r6, r7, lr}
 2414              		.cfi_def_cfa_offset 20
 2415              		.cfi_offset 4, -20
 2416              		.cfi_offset 5, -16
 2417              		.cfi_offset 6, -12
 2418              		.cfi_offset 7, -8
 2419              		.cfi_offset 14, -4
 2420              	.LBB696:
 2421              		.loc 3 548 15 view .LVU660
 2422 0002 0025     		movs	r5, #0
 2423              	.LVL168:
ARM GAS  /var/folders/2p/02m_5p7958535cp2tpgps0400000gn/T//ccx9FAOt.s 			page 79


 2424              	.L84:
 2425              		.loc 3 548 21 is_stmt 1 discriminator 3 view .LVU661
 2426 0004 9D42     		cmp	r5, r3
 2427 0006 31D0     		beq	.L82
 549:GrannyChordApp.cpp ****     /* send audio in straight to output for monitoring */
 550:GrannyChordApp.cpp ****     out[0][i]=in[0][i];
 2428              		.loc 3 550 5 discriminator 2 view .LVU662
 2429              		.loc 3 550 22 is_stmt 0 discriminator 2 view .LVU663
 2430 0008 0E68     		ldr	r6, [r1]
 551:GrannyChordApp.cpp ****     out[1][i]=in[1][i];
 552:GrannyChordApp.cpp ****     /* record audio in to SDRAM buffers */
 553:GrannyChordApp.cpp ****     left_buf_[record_in_pos_] = in[0][i];
 2431              		.loc 3 553 15 discriminator 2 view .LVU664
 2432 000a 00F5004C 		add	ip, r0, #32768
 550:GrannyChordApp.cpp ****     out[1][i]=in[1][i];
 2433              		.loc 3 550 14 discriminator 2 view .LVU665
 2434 000e 1468     		ldr	r4, [r2]
 550:GrannyChordApp.cpp ****     out[1][i]=in[1][i];
 2435              		.loc 3 550 22 discriminator 2 view .LVU666
 2436 0010 06EB8506 		add	r6, r6, r5, lsl #2
 550:GrannyChordApp.cpp ****     out[1][i]=in[1][i];
 2437              		.loc 3 550 14 discriminator 2 view .LVU667
 2438 0014 04EB8504 		add	r4, r4, r5, lsl #2
 550:GrannyChordApp.cpp ****     out[1][i]=in[1][i];
 2439              		.loc 3 550 22 discriminator 2 view .LVU668
 2440 0018 3768     		ldr	r7, [r6]	@ float
 550:GrannyChordApp.cpp ****     out[1][i]=in[1][i];
 2441              		.loc 3 550 14 discriminator 2 view .LVU669
 2442 001a 2760     		str	r7, [r4]	@ float
 551:GrannyChordApp.cpp ****     out[1][i]=in[1][i];
 2443              		.loc 3 551 5 is_stmt 1 discriminator 2 view .LVU670
 551:GrannyChordApp.cpp ****     out[1][i]=in[1][i];
 2444              		.loc 3 551 22 is_stmt 0 discriminator 2 view .LVU671
 2445 001c 4C68     		ldr	r4, [r1, #4]
 2446              		.loc 3 553 31 discriminator 2 view .LVU672
 2447 001e D0F8E474 		ldr	r7, [r0, #1252]
 551:GrannyChordApp.cpp ****     out[1][i]=in[1][i];
 2448              		.loc 3 551 22 discriminator 2 view .LVU673
 2449 0022 04EB8504 		add	r4, r4, r5, lsl #2
 2450 0026 D4ED007A 		vldr.32	s15, [r4]
 551:GrannyChordApp.cpp ****     out[1][i]=in[1][i];
 2451              		.loc 3 551 14 discriminator 2 view .LVU674
 2452 002a 5468     		ldr	r4, [r2, #4]
 2453 002c 04EB8504 		add	r4, r4, r5, lsl #2
 548:GrannyChordApp.cpp ****     /* send audio in straight to output for monitoring */
 2454              		.loc 3 548 3 discriminator 2 view .LVU675
 2455 0030 0135     		adds	r5, r5, #1
 2456              	.LVL169:
 551:GrannyChordApp.cpp ****     out[1][i]=in[1][i];
 2457              		.loc 3 551 14 discriminator 2 view .LVU676
 2458 0032 C4ED007A 		vstr.32	s15, [r4]
 2459              		.loc 3 553 5 is_stmt 1 discriminator 2 view .LVU677
 554:GrannyChordApp.cpp ****     right_buf_[record_in_pos_] = in[1][i];
 2460              		.loc 3 554 32 is_stmt 0 discriminator 2 view .LVU678
 2461 0036 FDEEE77A 		vcvt.s32.f32	s15, s15
 553:GrannyChordApp.cpp ****     right_buf_[record_in_pos_] = in[1][i];
 2462              		.loc 3 553 31 discriminator 2 view .LVU679
ARM GAS  /var/folders/2p/02m_5p7958535cp2tpgps0400000gn/T//ccx9FAOt.s 			page 80


 2463 003a 96ED007A 		vldr.32	s14, [r6]
 553:GrannyChordApp.cpp ****     right_buf_[record_in_pos_] = in[1][i];
 2464              		.loc 3 553 15 discriminator 2 view .LVU680
 2465 003e DCF87048 		ldr	r4, [ip, #2160]
 553:GrannyChordApp.cpp ****     right_buf_[record_in_pos_] = in[1][i];
 2466              		.loc 3 553 31 discriminator 2 view .LVU681
 2467 0042 BDEEC77A 		vcvt.s32.f32	s14, s14
 2468 0046 17EE106A 		vmov	r6, s14	@ int
 2469 004a 27F81460 		strh	r6, [r7, r4, lsl #1]	@ movhi
 2470              		.loc 3 554 5 is_stmt 1 discriminator 2 view .LVU682
 2471              		.loc 3 554 32 is_stmt 0 discriminator 2 view .LVU683
 2472 004e 17EE907A 		vmov	r7, s15	@ int
 2473 0052 D0F8E864 		ldr	r6, [r0, #1256]
 2474 0056 26F81470 		strh	r7, [r6, r4, lsl #1]	@ movhi
 555:GrannyChordApp.cpp ****     /* wrap around recording length - if it exceeds 120s,
 556:GrannyChordApp.cpp ****       the start of the recording will be overwritten */
 557:GrannyChordApp.cpp ****     record_in_pos_ = (record_in_pos_+1)%MAX_RECORDING_LEN;
 2475              		.loc 3 557 5 is_stmt 1 discriminator 2 view .LVU684
 2476              		.loc 3 557 37 is_stmt 0 discriminator 2 view .LVU685
 2477 005a 0134     		adds	r4, r4, #1
 2478              		.loc 3 557 40 discriminator 2 view .LVU686
 2479 005c 044E     		ldr	r6, .L86
 2480 005e B4FBF6F7 		udiv	r7, r4, r6
 2481 0062 06FB1744 		mls	r4, r6, r7, r4
 2482              		.loc 3 557 20 discriminator 2 view .LVU687
 2483 0066 CCF87048 		str	r4, [ip, #2160]
 548:GrannyChordApp.cpp ****     /* send audio in straight to output for monitoring */
 2484              		.loc 3 548 3 is_stmt 1 discriminator 2 view .LVU688
 2485              	.LVL170:
 548:GrannyChordApp.cpp ****     /* send audio in straight to output for monitoring */
 2486              		.loc 3 548 3 is_stmt 0 discriminator 2 view .LVU689
 2487 006a CBE7     		b	.L84
 2488              	.L82:
 548:GrannyChordApp.cpp ****     /* send audio in straight to output for monitoring */
 2489              		.loc 3 548 3 discriminator 2 view .LVU690
 2490              	.LBE696:
 558:GrannyChordApp.cpp ****   }
 559:GrannyChordApp.cpp **** }
 2491              		.loc 3 559 1 view .LVU691
 2492 006c F0BD     		pop	{r4, r5, r6, r7, pc}
 2493              	.LVL171:
 2494              	.L87:
 2495              		.loc 3 559 1 view .LVU692
 2496 006e 00BF     		.align	2
 2497              	.L86:
 2498 0070 00E45700 		.word	5760000
 2499              		.cfi_endproc
 2500              	.LFE4934:
 2502              		.section	.text._ZN14GrannyChordApp9ProcessFXE6Sample,"ax",%progbits
 2503              		.align	1
 2504              		.global	_ZN14GrannyChordApp9ProcessFXE6Sample
 2505              		.syntax unified
 2506              		.thumb
 2507              		.thumb_func
 2509              	_ZN14GrannyChordApp9ProcessFXE6Sample:
 2510              	.LVL172:
 2511              	.LFB4936:
ARM GAS  /var/folders/2p/02m_5p7958535cp2tpgps0400000gn/T//ccx9FAOt.s 			page 81


 560:GrannyChordApp.cpp **** 
 561:GrannyChordApp.cpp **** /// @brief Process audio through granular synth and mix to output buffer
 562:GrannyChordApp.cpp **** /// @param out Output audio buffer
 563:GrannyChordApp.cpp **** /// @param size Number of samples to process in this call
 564:GrannyChordApp.cpp **** void GrannyChordApp::ProcessSynthesis(AudioHandle::OutputBuffer out, size_t size){
 565:GrannyChordApp.cpp ****   Sample samp;
 566:GrannyChordApp.cpp ****   for (size_t i=0; i<size; i++){ 
 567:GrannyChordApp.cpp ****     samp = synth_.ProcessGrains();
 568:GrannyChordApp.cpp ****     samp = ProcessFX(samp);
 569:GrannyChordApp.cpp ****     // out[0][i] = samp.left;
 570:GrannyChordApp.cpp ****     // out[1][i] = samp.right;
 571:GrannyChordApp.cpp ****   }
 572:GrannyChordApp.cpp ****   limiter_.ProcessBlock(&samp.left, size, 1.0f);
 573:GrannyChordApp.cpp ****   limiter_.ProcessBlock(&samp.right, size, 1.0f);
 574:GrannyChordApp.cpp **** 
 575:GrannyChordApp.cpp ****   for (size_t i=0; i<size; i++){
 576:GrannyChordApp.cpp ****     out[0][i] = samp.left;
 577:GrannyChordApp.cpp ****     out[1][i] = samp.right;    
 578:GrannyChordApp.cpp ****     if (recording_out_ && sd_writer_.GetLengthSeconds()<120){
 579:GrannyChordApp.cpp ****       temp_interleaved_buf_[0]=out[0][i];
 580:GrannyChordApp.cpp ****       temp_interleaved_buf_[1]=out[1][i];
 581:GrannyChordApp.cpp ****       sd_writer_.Sample(temp_interleaved_buf_);
 582:GrannyChordApp.cpp ****     }
 583:GrannyChordApp.cpp ****   }
 584:GrannyChordApp.cpp **** }
 585:GrannyChordApp.cpp **** 
 586:GrannyChordApp.cpp **** Sample GrannyChordApp::ProcessFX(Sample in){
 2512              		.loc 3 586 44 is_stmt 1 view -0
 2513              		.cfi_startproc
 2514              		@ args = 0, pretend = 0, frame = 40
 2515              		@ frame_needed = 0, uses_anonymous_args = 0
 587:GrannyChordApp.cpp ****   Sample out;
 2516              		.loc 3 587 3 view .LVU694
 588:GrannyChordApp.cpp ****   /* hipass: remove rumble */
 589:GrannyChordApp.cpp ****   out.left = hipass_.Process(in.left);
 2517              		.loc 3 589 3 view .LVU695
 586:GrannyChordApp.cpp ****   Sample out;
 2518              		.loc 3 586 44 is_stmt 0 view .LVU696
 2519 0000 30B5     		push	{r4, r5, lr}
 2520              		.cfi_def_cfa_offset 12
 2521              		.cfi_offset 4, -12
 2522              		.cfi_offset 5, -8
 2523              		.cfi_offset 14, -4
 2524 0002 0446     		mov	r4, r0
 2525 0004 8DB0     		sub	sp, sp, #52
 2526              		.cfi_def_cfa_offset 64
 2527              		.loc 3 589 29 view .LVU697
 2528 0006 00F2D440 		addw	r0, r0, #1236
 2529              	.LVL173:
 586:GrannyChordApp.cpp ****   Sample out;
 2530              		.loc 3 586 44 view .LVU698
 2531 000a CDED070A 		vstr.32	s1, [sp, #28]
 590:GrannyChordApp.cpp ****   out.right = hipass_.Process(in.right);
 591:GrannyChordApp.cpp ****   // /* apply compression to reduce gain changes */
 592:GrannyChordApp.cpp ****   // out.left = comp_.Process(out.left);
 593:GrannyChordApp.cpp ****   // out.right = comp_.Process(out.right);
 594:GrannyChordApp.cpp **** 
ARM GAS  /var/folders/2p/02m_5p7958535cp2tpgps0400000gn/T//ccx9FAOt.s 			page 82


 595:GrannyChordApp.cpp ****   /* apply lowpass filter to sculpt sound */
 596:GrannyChordApp.cpp ****   out.left = lowpass_moog_.Process(out.left);
 597:GrannyChordApp.cpp ****   out.right = lowpass_moog_.Process(out.right);
 598:GrannyChordApp.cpp **** 
 599:GrannyChordApp.cpp ****   /* apply reverb */
 600:GrannyChordApp.cpp ****   reverb_.ProcessMix(out.left, out.right, &out.left, &out.right);
 2532              		.loc 3 600 21 view .LVU699
 2533 000e 08AD     		add	r5, sp, #32
 589:GrannyChordApp.cpp ****   out.right = hipass_.Process(in.right);
 2534              		.loc 3 589 29 view .LVU700
 2535 0010 0390     		str	r0, [sp, #12]
 2536 0012 FFF7FEFF 		bl	_ZN7daisysp7OnePole7ProcessEf
 2537              	.LVL174:
 590:GrannyChordApp.cpp ****   out.right = hipass_.Process(in.right);
 2538              		.loc 3 590 30 view .LVU701
 2539 0016 0398     		ldr	r0, [sp, #12]
 589:GrannyChordApp.cpp ****   out.right = hipass_.Process(in.right);
 2540              		.loc 3 589 12 view .LVU702
 2541 0018 8DED080A 		vstr.32	s0, [sp, #32]
 590:GrannyChordApp.cpp ****   out.right = hipass_.Process(in.right);
 2542              		.loc 3 590 3 is_stmt 1 view .LVU703
 590:GrannyChordApp.cpp ****   out.right = hipass_.Process(in.right);
 2543              		.loc 3 590 30 is_stmt 0 view .LVU704
 2544 001c 9DED070A 		vldr.32	s0, [sp, #28]
 2545 0020 FFF7FEFF 		bl	_ZN7daisysp7OnePole7ProcessEf
 2546              	.LVL175:
 596:GrannyChordApp.cpp ****   out.right = lowpass_moog_.Process(out.right);
 2547              		.loc 3 596 35 view .LVU705
 2548 0024 04F59260 		add	r0, r4, #1168
 590:GrannyChordApp.cpp ****   out.right = hipass_.Process(in.right);
 2549              		.loc 3 590 13 view .LVU706
 2550 0028 8DED090A 		vstr.32	s0, [sp, #36]
 596:GrannyChordApp.cpp ****   out.right = lowpass_moog_.Process(out.right);
 2551              		.loc 3 596 3 is_stmt 1 view .LVU707
 596:GrannyChordApp.cpp ****   out.right = lowpass_moog_.Process(out.right);
 2552              		.loc 3 596 35 is_stmt 0 view .LVU708
 2553 002c 9DED080A 		vldr.32	s0, [sp, #32]
 2554 0030 0390     		str	r0, [sp, #12]
 2555 0032 FFF7FEFF 		bl	_ZN7daisysp10MoogLadder7ProcessEf
 2556              	.LVL176:
 597:GrannyChordApp.cpp **** 
 2557              		.loc 3 597 36 view .LVU709
 2558 0036 0398     		ldr	r0, [sp, #12]
 596:GrannyChordApp.cpp ****   out.right = lowpass_moog_.Process(out.right);
 2559              		.loc 3 596 12 view .LVU710
 2560 0038 8DED080A 		vstr.32	s0, [sp, #32]
 597:GrannyChordApp.cpp **** 
 2561              		.loc 3 597 3 is_stmt 1 view .LVU711
 597:GrannyChordApp.cpp **** 
 2562              		.loc 3 597 36 is_stmt 0 view .LVU712
 2563 003c 9DED090A 		vldr.32	s0, [sp, #36]
 2564 0040 FFF7FEFF 		bl	_ZN7daisysp10MoogLadder7ProcessEf
 2565              	.LVL177:
 2566              		.loc 3 600 21 view .LVU713
 2567 0044 09AA     		add	r2, sp, #36
 2568 0046 2B46     		mov	r3, r5
 2569 0048 2946     		mov	r1, r5
ARM GAS  /var/folders/2p/02m_5p7958535cp2tpgps0400000gn/T//ccx9FAOt.s 			page 83


 2570 004a D4F88C04 		ldr	r0, [r4, #1164]
 2571 004e 0092     		str	r2, [sp]
 597:GrannyChordApp.cpp **** 
 2572              		.loc 3 597 13 view .LVU714
 2573 0050 8DED090A 		vstr.32	s0, [sp, #36]
 2574              		.loc 3 600 3 is_stmt 1 view .LVU715
 2575              		.loc 3 600 21 is_stmt 0 view .LVU716
 2576 0054 FFF7FEFF 		bl	_ZN7daisysp8ReverbSc10ProcessMixERKfS2_PfS3_
 2577              	.LVL178:
 601:GrannyChordApp.cpp ****   return out;
 2578              		.loc 3 601 3 is_stmt 1 view .LVU717
 2579              		.loc 3 601 10 is_stmt 0 view .LVU718
 2580 0058 0CAB     		add	r3, sp, #48
 2581 005a 95E80300 		ldm	r5, {r0, r1}
 2582 005e 03E90300 		stmdb	r3, {r0, r1}
 602:GrannyChordApp.cpp **** }
 2583              		.loc 3 602 1 view .LVU719
 2584 0062 9DED0A0A 		vldr.32	s0, [sp, #40]
 2585 0066 DDED0B0A 		vldr.32	s1, [sp, #44]
 2586 006a 0DB0     		add	sp, sp, #52
 2587              		.cfi_def_cfa_offset 12
 2588              		@ sp needed
 2589 006c 30BD     		pop	{r4, r5, pc}
 2590              		.loc 3 602 1 view .LVU720
 2591              		.cfi_endproc
 2592              	.LFE4936:
 2594              		.section	.text._ZN14GrannyChordApp16ProcessSynthesisEPPfj,"ax",%progbits
 2595              		.align	1
 2596              		.global	_ZN14GrannyChordApp16ProcessSynthesisEPPfj
 2597              		.syntax unified
 2598              		.thumb
 2599              		.thumb_func
 2601              	_ZN14GrannyChordApp16ProcessSynthesisEPPfj:
 2602              	.LVL179:
 2603              	.LFB4935:
 564:GrannyChordApp.cpp ****   Sample samp;
 2604              		.loc 3 564 82 is_stmt 1 view -0
 2605              		.cfi_startproc
 2606              		@ args = 0, pretend = 0, frame = 16
 2607              		@ frame_needed = 0, uses_anonymous_args = 0
 565:GrannyChordApp.cpp ****   for (size_t i=0; i<size; i++){ 
 2608              		.loc 3 565 3 view .LVU722
 566:GrannyChordApp.cpp ****     samp = synth_.ProcessGrains();
 2609              		.loc 3 566 3 view .LVU723
 564:GrannyChordApp.cpp ****   Sample samp;
 2610              		.loc 3 564 82 is_stmt 0 view .LVU724
 2611 0000 2DE9F04F 		push	{r4, r5, r6, r7, r8, r9, r10, fp, lr}
 2612              		.cfi_def_cfa_offset 36
 2613              		.cfi_offset 4, -36
 2614              		.cfi_offset 5, -32
 2615              		.cfi_offset 6, -28
 2616              		.cfi_offset 7, -24
 2617              		.cfi_offset 8, -20
 2618              		.cfi_offset 9, -16
 2619              		.cfi_offset 10, -12
 2620              		.cfi_offset 11, -8
 2621              		.cfi_offset 14, -4
ARM GAS  /var/folders/2p/02m_5p7958535cp2tpgps0400000gn/T//ccx9FAOt.s 			page 84


 2622 0004 0446     		mov	r4, r0
 2623 0006 85B0     		sub	sp, sp, #20
 2624              		.cfi_def_cfa_offset 56
 564:GrannyChordApp.cpp ****   Sample samp;
 2625              		.loc 3 564 82 view .LVU725
 2626 0008 0E46     		mov	r6, r1
 2627 000a 1546     		mov	r5, r2
 2628              	.LBB711:
 566:GrannyChordApp.cpp ****     samp = synth_.ProcessGrains();
 2629              		.loc 3 566 15 view .LVU726
 2630 000c 0027     		movs	r7, #0
 2631              	.LVL180:
 2632              	.L91:
 566:GrannyChordApp.cpp ****     samp = synth_.ProcessGrains();
 2633              		.loc 3 566 21 is_stmt 1 discriminator 3 view .LVU727
 2634 000e AF42     		cmp	r7, r5
 2635 0010 10D0     		beq	.L90
 567:GrannyChordApp.cpp ****     samp = ProcessFX(samp);
 2636              		.loc 3 567 5 discriminator 2 view .LVU728
 567:GrannyChordApp.cpp ****     samp = ProcessFX(samp);
 2637              		.loc 3 567 33 is_stmt 0 discriminator 2 view .LVU729
 2638 0012 04F12000 		add	r0, r4, #32
 566:GrannyChordApp.cpp ****     samp = synth_.ProcessGrains();
 2639              		.loc 3 566 3 discriminator 2 view .LVU730
 2640 0016 0137     		adds	r7, r7, #1
 2641              	.LVL181:
 567:GrannyChordApp.cpp ****     samp = ProcessFX(samp);
 2642              		.loc 3 567 33 discriminator 2 view .LVU731
 2643 0018 FFF7FEFF 		bl	_ZN13GranularSynth13ProcessGrainsEv
 2644              	.LVL182:
 568:GrannyChordApp.cpp ****     // out[0][i] = samp.left;
 2645              		.loc 3 568 26 discriminator 2 view .LVU732
 2646 001c 2046     		mov	r0, r4
 567:GrannyChordApp.cpp ****     samp = ProcessFX(samp);
 2647              		.loc 3 567 33 discriminator 2 view .LVU733
 2648 001e 8DED020A 		vstr.32	s0, [sp, #8]
 2649 0022 CDED030A 		vstr.32	s1, [sp, #12]
 568:GrannyChordApp.cpp ****     // out[0][i] = samp.left;
 2650              		.loc 3 568 5 is_stmt 1 discriminator 2 view .LVU734
 568:GrannyChordApp.cpp ****     // out[0][i] = samp.left;
 2651              		.loc 3 568 26 is_stmt 0 discriminator 2 view .LVU735
 2652 0026 FFF7FEFF 		bl	_ZN14GrannyChordApp9ProcessFXE6Sample
 2653              	.LVL183:
 2654 002a 8DED020A 		vstr.32	s0, [sp, #8]
 2655 002e CDED030A 		vstr.32	s1, [sp, #12]
 566:GrannyChordApp.cpp ****     samp = synth_.ProcessGrains();
 2656              		.loc 3 566 3 is_stmt 1 discriminator 2 view .LVU736
 2657              	.LVL184:
 566:GrannyChordApp.cpp ****     samp = synth_.ProcessGrains();
 2658              		.loc 3 566 3 is_stmt 0 discriminator 2 view .LVU737
 2659 0032 ECE7     		b	.L91
 2660              	.L90:
 566:GrannyChordApp.cpp ****     samp = synth_.ProcessGrains();
 2661              		.loc 3 566 3 discriminator 2 view .LVU738
 2662              	.LBE711:
 572:GrannyChordApp.cpp ****   limiter_.ProcessBlock(&samp.right, size, 1.0f);
 2663              		.loc 3 572 3 is_stmt 1 view .LVU739
ARM GAS  /var/folders/2p/02m_5p7958535cp2tpgps0400000gn/T//ccx9FAOt.s 			page 85


 572:GrannyChordApp.cpp ****   limiter_.ProcessBlock(&samp.right, size, 1.0f);
 2664              		.loc 3 572 24 is_stmt 0 view .LVU740
 2665 0034 04F59160 		add	r0, r4, #1160
 2666 0038 B7EE000A 		vmov.f32	s0, #1.0e+0
 2667 003c 2A46     		mov	r2, r5
 2668 003e 02A9     		add	r1, sp, #8
 2669 0040 0190     		str	r0, [sp, #4]
 2670 0042 FFF7FEFF 		bl	_ZN7daisysp7Limiter12ProcessBlockEPfjf
 2671              	.LVL185:
 573:GrannyChordApp.cpp **** 
 2672              		.loc 3 573 3 is_stmt 1 view .LVU741
 573:GrannyChordApp.cpp **** 
 2673              		.loc 3 573 24 is_stmt 0 view .LVU742
 2674 0046 0198     		ldr	r0, [sp, #4]
 2675 0048 B7EE000A 		vmov.f32	s0, #1.0e+0
 2676 004c 2A46     		mov	r2, r5
 2677 004e 03A9     		add	r1, sp, #12
 2678 0050 FFF7FEFF 		bl	_ZN7daisysp7Limiter12ProcessBlockEPfjf
 2679              	.LVL186:
 575:GrannyChordApp.cpp ****     out[0][i] = samp.left;
 2680              		.loc 3 575 3 is_stmt 1 view .LVU743
 2681              	.LBB712:
 575:GrannyChordApp.cpp ****     out[0][i] = samp.left;
 2682              		.loc 3 575 15 is_stmt 0 view .LVU744
 2683 0054 0020     		movs	r0, #0
 2684              	.LVL187:
 2685              	.L106:
 575:GrannyChordApp.cpp ****     out[0][i] = samp.left;
 2686              		.loc 3 575 21 is_stmt 1 discriminator 1 view .LVU745
 2687 0056 A842     		cmp	r0, r5
 2688 0058 00F0A280 		beq	.L89
 576:GrannyChordApp.cpp ****     out[1][i] = samp.right;    
 2689              		.loc 3 576 5 view .LVU746
 576:GrannyChordApp.cpp ****     out[1][i] = samp.right;    
 2690              		.loc 3 576 13 is_stmt 0 view .LVU747
 2691 005c 3268     		ldr	r2, [r6]
 576:GrannyChordApp.cpp ****     out[1][i] = samp.right;    
 2692              		.loc 3 576 22 view .LVU748
 2693 005e 029B     		ldr	r3, [sp, #8]	@ float
 576:GrannyChordApp.cpp ****     out[1][i] = samp.right;    
 2694              		.loc 3 576 13 view .LVU749
 2695 0060 02EB8002 		add	r2, r2, r0, lsl #2
 576:GrannyChordApp.cpp ****     out[1][i] = samp.right;    
 2696              		.loc 3 576 15 view .LVU750
 2697 0064 1360     		str	r3, [r2]	@ float
 577:GrannyChordApp.cpp ****     if (recording_out_ && sd_writer_.GetLengthSeconds()<120){
 2698              		.loc 3 577 5 is_stmt 1 view .LVU751
 577:GrannyChordApp.cpp ****     if (recording_out_ && sd_writer_.GetLengthSeconds()<120){
 2699              		.loc 3 577 13 is_stmt 0 view .LVU752
 2700 0066 7368     		ldr	r3, [r6, #4]
 577:GrannyChordApp.cpp ****     if (recording_out_ && sd_writer_.GetLengthSeconds()<120){
 2701              		.loc 3 577 22 view .LVU753
 2702 0068 0399     		ldr	r1, [sp, #12]	@ float
 577:GrannyChordApp.cpp ****     if (recording_out_ && sd_writer_.GetLengthSeconds()<120){
 2703              		.loc 3 577 13 view .LVU754
 2704 006a 03EB8003 		add	r3, r3, r0, lsl #2
 577:GrannyChordApp.cpp ****     if (recording_out_ && sd_writer_.GetLengthSeconds()<120){
ARM GAS  /var/folders/2p/02m_5p7958535cp2tpgps0400000gn/T//ccx9FAOt.s 			page 86


 2705              		.loc 3 577 15 view .LVU755
 2706 006e 1960     		str	r1, [r3]	@ float
 578:GrannyChordApp.cpp ****       temp_interleaved_buf_[0]=out[0][i];
 2707              		.loc 3 578 5 is_stmt 1 view .LVU756
 578:GrannyChordApp.cpp ****       temp_interleaved_buf_[0]=out[0][i];
 2708              		.loc 3 578 9 is_stmt 0 view .LVU757
 2709 0070 04F50041 		add	r1, r4, #32768
 578:GrannyChordApp.cpp ****       temp_interleaved_buf_[0]=out[0][i];
 2710              		.loc 3 578 24 view .LVU758
 2711 0074 91F87478 		ldrb	r7, [r1, #2164]	@ zero_extendqisi2
 2712 0078 002F     		cmp	r7, #0
 2713 007a 00F08F80 		beq	.L94
 2714              	.LVL188:
 2715              	.LBB713:
 2716              	.LBI713:
 175:../libDaisy/src/util/WavWriter.h ****     {
 2717              		.loc 9 175 18 is_stmt 1 discriminator 1 view .LVU759
 2718              	.LBB714:
 177:../libDaisy/src/util/WavWriter.h ****     }
 2719              		.loc 9 177 23 is_stmt 0 discriminator 1 view .LVU760
 2720 007e D4F824C6 		ldr	ip, [r4, #1572]
 2721              	.LVL189:
 177:../libDaisy/src/util/WavWriter.h ****     }
 2722              		.loc 9 177 48 discriminator 1 view .LVU761
 2723 0082 04F5BF67 		add	r7, r4, #1528
 177:../libDaisy/src/util/WavWriter.h ****     }
 2724              		.loc 9 177 16 discriminator 1 view .LVU762
 2725 0086 07EE90CA 		vmov	s15, ip	@ int
 2726 008a F8EE676A 		vcvt.f32.u32	s13, s15
 177:../libDaisy/src/util/WavWriter.h ****     }
 2727              		.loc 9 177 48 discriminator 1 view .LVU763
 2728 008e D7ED0D7A 		vldr.32	s15, [r7, #52]
 2729 0092 86EEA77A 		vdiv.f32	s14, s13, s15
 2730              	.LBE714:
 2731              	.LBE713:
 578:GrannyChordApp.cpp ****       temp_interleaved_buf_[0]=out[0][i];
 2732              		.loc 3 578 24 discriminator 1 view .LVU764
 2733 0096 DFED447A 		vldr.32	s15, .L114
 2734 009a B4EEE77A 		vcmpe.f32	s14, s15
 2735 009e F1EE10FA 		vmrs	APSR_nzcv, FPSCR
 2736 00a2 7BD5     		bpl	.L94
 579:GrannyChordApp.cpp ****       temp_interleaved_buf_[1]=out[1][i];
 2737              		.loc 3 579 7 is_stmt 1 view .LVU765
 579:GrannyChordApp.cpp ****       temp_interleaved_buf_[1]=out[1][i];
 2738              		.loc 3 579 40 is_stmt 0 view .LVU766
 2739 00a4 1768     		ldr	r7, [r2]	@ float
 579:GrannyChordApp.cpp ****       temp_interleaved_buf_[1]=out[1][i];
 2740              		.loc 3 579 31 view .LVU767
 2741 00a6 01F50862 		add	r2, r1, #2176
 2742              	.LBB715:
 2743              	.LBB716:
 2744              	.LBB717:
  95:../libDaisy/src/util/WavWriter.h ****         {
 2745              		.loc 9 95 37 view .LVU768
 2746 00aa D4F830B6 		ldr	fp, [r4, #1584]
 2747              	.LBE717:
 2748              	.LBE716:
ARM GAS  /var/folders/2p/02m_5p7958535cp2tpgps0400000gn/T//ccx9FAOt.s 			page 87


 2749              	.LBE715:
 579:GrannyChordApp.cpp ****       temp_interleaved_buf_[1]=out[1][i];
 2750              		.loc 3 579 31 view .LVU769
 2751 00ae 1760     		str	r7, [r2]	@ float
 580:GrannyChordApp.cpp ****       sd_writer_.Sample(temp_interleaved_buf_);
 2752              		.loc 3 580 7 is_stmt 1 view .LVU770
 2753              	.LBB745:
 2754              	.LBB742:
 2755              	.LBB739:
  95:../libDaisy/src/util/WavWriter.h ****         {
 2756              		.loc 9 95 21 is_stmt 0 view .LVU771
 2757 00b0 0027     		movs	r7, #0
 2758              	.LBE739:
 2759              	.LBE742:
 2760              	.LBE745:
 580:GrannyChordApp.cpp ****       sd_writer_.Sample(temp_interleaved_buf_);
 2761              		.loc 3 580 40 view .LVU772
 2762 00b2 1A68     		ldr	r2, [r3]	@ float
 580:GrannyChordApp.cpp ****       sd_writer_.Sample(temp_interleaved_buf_);
 2763              		.loc 3 580 31 view .LVU773
 2764 00b4 01F68403 		addw	r3, r1, #2180
 2765              	.LBB746:
 2766              	.LBB743:
 2767              	.LBB740:
 2768              	.LBB718:
  97:../libDaisy/src/util/WavWriter.h ****             {
 2769              		.loc 9 97 25 view .LVU774
 2770 00b8 D4F834E6 		ldr	lr, [r4, #1588]
 2771              	.LBE718:
 2772              	.LBE740:
 2773              	.LBE743:
 2774              	.LBE746:
 580:GrannyChordApp.cpp ****       sd_writer_.Sample(temp_interleaved_buf_);
 2775              		.loc 3 580 31 view .LVU775
 2776 00bc 1A60     		str	r2, [r3]	@ float
 581:GrannyChordApp.cpp ****     }
 2777              		.loc 3 581 7 is_stmt 1 view .LVU776
 2778              	.LVL190:
 2779              	.LBB747:
 2780              	.LBI715:
  93:../libDaisy/src/util/WavWriter.h ****     {
 2781              		.loc 9 93 10 view .LVU777
  93:../libDaisy/src/util/WavWriter.h ****     {
 2782              		.loc 9 93 10 is_stmt 0 view .LVU778
 2783 00be 04F50842 		add	r2, r4, #34816
 2784              	.LBB744:
 2785              	.LBB741:
 2786              	.LBB736:
 2787              	.LBB719:
 2788              	.LBB720:
 103:../libDaisy/src/util/WavWriter.h ****                 }
 2789              		.loc 9 103 24 view .LVU779
 2790 00c2 D4F82886 		ldr	r8, [r4, #1576]
 2791 00c6 8032     		adds	r2, r2, #128
 2792              	.LVL191:
 2793              	.L103:
 103:../libDaisy/src/util/WavWriter.h ****                 }
ARM GAS  /var/folders/2p/02m_5p7958535cp2tpgps0400000gn/T//ccx9FAOt.s 			page 88


 2794              		.loc 9 103 24 view .LVU780
 2795              	.LBE720:
 2796              	.LBE719:
 2797              	.LBE736:
  95:../libDaisy/src/util/WavWriter.h ****         {
 2798              		.loc 9 95 30 is_stmt 1 view .LVU781
 2799 00c8 BB45     		cmp	fp, r7
 2800 00ca 4ADD     		ble	.L97
 2801              	.LBB737:
  97:../libDaisy/src/util/WavWriter.h ****             {
 2802              		.loc 9 97 13 is_stmt 0 view .LVU782
 2803 00cc BEF1100F 		cmp	lr, #16
 2804 00d0 05D0     		beq	.L98
 2805 00d2 BEF1200F 		cmp	lr, #32
 2806 00d6 25D0     		beq	.L99
 2807              	.L100:
 2808              	.LBE737:
  95:../libDaisy/src/util/WavWriter.h ****         {
 2809              		.loc 9 95 9 is_stmt 1 view .LVU783
 2810 00d8 0137     		adds	r7, r7, #1
 2811              	.LVL192:
  95:../libDaisy/src/util/WavWriter.h ****         {
 2812              		.loc 9 95 9 is_stmt 0 view .LVU784
 2813 00da 0432     		adds	r2, r2, #4
 2814 00dc F4E7     		b	.L103
 2815              	.L98:
 2816              	.LVL193:
 2817              	.LBB738:
 2818              	.LBB735:
 2819              	.LBB727:
 103:../libDaisy/src/util/WavWriter.h ****                 }
 2820              		.loc 9 103 42 view .LVU785
 2821 00de D2ED007A 		vldr.32	s15, [r2]
 102:../libDaisy/src/util/WavWriter.h ****                     tp[wptr_ + i] = f2s16(in[i]);
 2822              		.loc 9 102 35 view .LVU786
 2823 00e2 04F5C769 		add	r9, r4, #1592
 2824              	.LVL194:
 2825              	.LBB721:
 2826              	.LBB722:
 123:../libDaisy/src/daisy_core.h **** }
 124:../libDaisy/src/daisy_core.h **** 
 125:../libDaisy/src/daisy_core.h **** /**
 126:../libDaisy/src/daisy_core.h ****     Converts float to Signed 16-bit
 127:../libDaisy/src/daisy_core.h **** */
 128:../libDaisy/src/daisy_core.h **** FORCE_INLINE int16_t f2s16(float x)
 129:../libDaisy/src/daisy_core.h **** {
 130:../libDaisy/src/daisy_core.h ****     x = x <= FBIPMIN ? FBIPMIN : x;
 2827              		.loc 13 130 22 view .LVU787
 2828 00e6 9FED317A 		vldr.32	s14, .L114+4
 2829              	.LBE722:
 2830              	.LBE721:
 103:../libDaisy/src/util/WavWriter.h ****                 }
 2831              		.loc 9 103 30 view .LVU788
 2832 00ea 07EB080A 		add	r10, r7, r8
 2833              	.LVL195:
 2834              	.LBB725:
 2835              	.LBI721:
ARM GAS  /var/folders/2p/02m_5p7958535cp2tpgps0400000gn/T//ccx9FAOt.s 			page 89


 128:../libDaisy/src/daisy_core.h **** {
 2836              		.loc 13 128 22 is_stmt 1 view .LVU789
 2837              	.LBB723:
 2838              		.loc 13 130 5 view .LVU790
 2839              		.loc 13 130 22 is_stmt 0 view .LVU791
 2840 00ee F4EEC77A 		vcmpe.f32	s15, s14
 2841 00f2 F1EE10FA 		vmrs	APSR_nzcv, FPSCR
 2842 00f6 12D9     		bls	.L107
 131:../libDaisy/src/daisy_core.h ****     x = x >= FBIPMAX ? FBIPMAX : x;
 2843              		.loc 13 131 5 is_stmt 1 view .LVU792
 2844              		.loc 13 131 22 is_stmt 0 view .LVU793
 2845 00f8 9FED2D7A 		vldr.32	s14, .L114+8
 2846 00fc F4EE477A 		vcmp.f32	s15, s14
 2847 0100 F1EE10FA 		vmrs	APSR_nzcv, FPSCR
 2848 0104 67FE277A 		vselge.f32	s15, s14, s15
 2849              	.LVL196:
 2850              	.L101:
 132:../libDaisy/src/daisy_core.h ****     return (int32_t)(x * F2S16_SCALE);
 2851              		.loc 13 132 5 is_stmt 1 view .LVU794
 2852              		.loc 13 132 24 is_stmt 0 view .LVU795
 2853 0108 9FED2A7A 		vldr.32	s14, .L114+12
 2854 010c 67EE877A 		vmul.f32	s15, s15, s14
 2855              		.loc 13 132 12 view .LVU796
 2856 0110 FDEEE77A 		vcvt.s32.f32	s15, s15
 2857              		.loc 13 132 37 view .LVU797
 2858 0114 17EE903A 		vmov	r3, s15	@ int
 2859 0118 29F81A30 		strh	r3, [r9, r10, lsl #1]	@ movhi
 2860              	.LBE723:
 2861              	.LBE725:
 2862              	.LBE727:
 105:../libDaisy/src/util/WavWriter.h ****                 case 32: transfer_buff[wptr_ + i] = f2s32(in[i]); break;
 2863              		.loc 9 105 17 view .LVU798
 2864 011c DCE7     		b	.L100
 2865              	.LVL197:
 2866              	.L107:
 2867              	.LBB728:
 2868              	.LBB726:
 2869              	.LBB724:
 130:../libDaisy/src/daisy_core.h ****     x = x >= FBIPMAX ? FBIPMAX : x;
 2870              		.loc 13 130 22 view .LVU799
 2871 011e F0EE477A 		vmov.f32	s15, s14
 2872              	.LVL198:
 130:../libDaisy/src/daisy_core.h ****     x = x >= FBIPMAX ? FBIPMAX : x;
 2873              		.loc 13 130 22 view .LVU800
 2874 0122 F1E7     		b	.L101
 2875              	.LVL199:
 2876              	.L99:
 130:../libDaisy/src/daisy_core.h ****     x = x >= FBIPMAX ? FBIPMAX : x;
 2877              		.loc 13 130 22 view .LVU801
 2878              	.LBE724:
 2879              	.LBE726:
 2880              	.LBE728:
 106:../libDaisy/src/util/WavWriter.h ****                 default: break;
 2881              		.loc 9 106 58 view .LVU802
 2882 0124 D2ED007A 		vldr.32	s15, [r2]
 106:../libDaisy/src/util/WavWriter.h ****                 default: break;
 2883              		.loc 9 106 46 view .LVU803
ARM GAS  /var/folders/2p/02m_5p7958535cp2tpgps0400000gn/T//ccx9FAOt.s 			page 90


 2884 0128 07EB0809 		add	r9, r7, r8
 2885              	.LVL200:
 2886              	.LBB729:
 2887              	.LBI729:
 133:../libDaisy/src/daisy_core.h **** }
 134:../libDaisy/src/daisy_core.h **** 
 135:../libDaisy/src/daisy_core.h **** /**
 136:../libDaisy/src/daisy_core.h ****     Converts Signed 24-bit to float
 137:../libDaisy/src/daisy_core.h ****  */
 138:../libDaisy/src/daisy_core.h **** FORCE_INLINE float s242f(int32_t x)
 139:../libDaisy/src/daisy_core.h **** {
 140:../libDaisy/src/daisy_core.h ****     x = (x ^ S24SIGN) - S24SIGN; //sign extend aka ((x<<8)>>8)
 141:../libDaisy/src/daisy_core.h ****     return (float)x * S242F_SCALE;
 142:../libDaisy/src/daisy_core.h **** }
 143:../libDaisy/src/daisy_core.h **** /**
 144:../libDaisy/src/daisy_core.h ****     Converts float to Signed 24-bit
 145:../libDaisy/src/daisy_core.h ****  */
 146:../libDaisy/src/daisy_core.h **** FORCE_INLINE int32_t f2s24(float x)
 147:../libDaisy/src/daisy_core.h **** {
 148:../libDaisy/src/daisy_core.h ****     x = x <= FBIPMIN ? FBIPMIN : x;
 149:../libDaisy/src/daisy_core.h ****     x = x >= FBIPMAX ? FBIPMAX : x;
 150:../libDaisy/src/daisy_core.h ****     return (int32_t)(x * F2S24_SCALE);
 151:../libDaisy/src/daisy_core.h **** }
 152:../libDaisy/src/daisy_core.h **** 
 153:../libDaisy/src/daisy_core.h **** /**
 154:../libDaisy/src/daisy_core.h ****     Converts Signed 32-bit to float
 155:../libDaisy/src/daisy_core.h ****  */
 156:../libDaisy/src/daisy_core.h **** FORCE_INLINE float s322f(int32_t x)
 157:../libDaisy/src/daisy_core.h **** {
 158:../libDaisy/src/daisy_core.h ****     return (float)x * S322F_SCALE;
 159:../libDaisy/src/daisy_core.h **** }
 160:../libDaisy/src/daisy_core.h **** /**
 161:../libDaisy/src/daisy_core.h ****     Converts float to Signed 24-bit
 162:../libDaisy/src/daisy_core.h ****  */
 163:../libDaisy/src/daisy_core.h **** FORCE_INLINE int32_t f2s32(float x)
 2888              		.loc 13 163 22 is_stmt 1 view .LVU804
 2889              	.LBB730:
 164:../libDaisy/src/daisy_core.h **** {
 165:../libDaisy/src/daisy_core.h ****     x = x <= FBIPMIN ? FBIPMIN : x;
 2890              		.loc 13 165 5 view .LVU805
 2891              		.loc 13 165 22 is_stmt 0 view .LVU806
 2892 012c 9FED1F7A 		vldr.32	s14, .L114+4
 2893 0130 F4EEC77A 		vcmpe.f32	s15, s14
 2894 0134 F1EE10FA 		vmrs	APSR_nzcv, FPSCR
 2895 0138 10D9     		bls	.L109
 166:../libDaisy/src/daisy_core.h ****     x = x >= FBIPMAX ? FBIPMAX : x;
 2896              		.loc 13 166 5 is_stmt 1 view .LVU807
 2897              		.loc 13 166 22 is_stmt 0 view .LVU808
 2898 013a 9FED1D7A 		vldr.32	s14, .L114+8
 2899 013e F4EE477A 		vcmp.f32	s15, s14
 2900 0142 F1EE10FA 		vmrs	APSR_nzcv, FPSCR
 2901 0146 67FE277A 		vselge.f32	s15, s14, s15
 2902              	.LVL201:
 2903              	.L102:
 167:../libDaisy/src/daisy_core.h ****     return (int32_t)(x * F2S32_SCALE);
 2904              		.loc 13 167 5 is_stmt 1 view .LVU809
 2905              		.loc 13 167 37 is_stmt 0 view .LVU810
ARM GAS  /var/folders/2p/02m_5p7958535cp2tpgps0400000gn/T//ccx9FAOt.s 			page 91


 2906 014a FEEEE07A 		vcvt.s32.f32	s15, s15, #31
 2907              	.LBE730:
 2908              	.LBE729:
 106:../libDaisy/src/util/WavWriter.h ****                 default: break;
 2909              		.loc 9 106 51 view .LVU811
 2910 014e 04EB8909 		add	r9, r4, r9, lsl #2
 2911              	.LBB733:
 2912              	.LBB731:
 2913              		.loc 13 167 37 view .LVU812
 2914 0152 17EE903A 		vmov	r3, s15	@ int
 2915 0156 C9F83836 		str	r3, [r9, #1592]
 2916              	.LBE731:
 2917              	.LBE733:
 106:../libDaisy/src/util/WavWriter.h ****                 default: break;
 2918              		.loc 9 106 67 view .LVU813
 2919 015a BDE7     		b	.L100
 2920              	.LVL202:
 2921              	.L109:
 2922              	.LBB734:
 2923              	.LBB732:
 165:../libDaisy/src/daisy_core.h ****     x = x >= FBIPMAX ? FBIPMAX : x;
 2924              		.loc 13 165 22 view .LVU814
 2925 015c F0EE477A 		vmov.f32	s15, s14
 2926              	.LVL203:
 165:../libDaisy/src/daisy_core.h ****     x = x >= FBIPMAX ? FBIPMAX : x;
 2927              		.loc 13 165 22 view .LVU815
 2928 0160 F3E7     		b	.L102
 2929              	.LVL204:
 2930              	.L97:
 165:../libDaisy/src/daisy_core.h ****     x = x >= FBIPMAX ? FBIPMAX : x;
 2931              		.loc 13 165 22 view .LVU816
 2932              	.LBE732:
 2933              	.LBE734:
 2934              	.LBE735:
 2935              	.LBE738:
 2936              	.LBE741:
 110:../libDaisy/src/util/WavWriter.h ****         wptr_ += cfg_.channels;
 2937              		.loc 9 110 9 view .LVU817
 2938 0162 0CF10102 		add	r2, ip, #1
 113:../libDaisy/src/util/WavWriter.h ****         if(wptr_ == cap_point)
 2939              		.loc 9 113 40 view .LVU818
 2940 0166 BEF1100F 		cmp	lr, #16
 111:../libDaisy/src/util/WavWriter.h ****         size_t cap_point
 2941              		.loc 9 111 15 view .LVU819
 2942 016a 0BEB0803 		add	r3, fp, r8
 110:../libDaisy/src/util/WavWriter.h ****         wptr_ += cfg_.channels;
 2943              		.loc 9 110 9 view .LVU820
 2944 016e C4F82426 		str	r2, [r4, #1572]
 113:../libDaisy/src/util/WavWriter.h ****         if(wptr_ == cap_point)
 2945              		.loc 9 113 40 view .LVU821
 2946 0172 0CBF     		ite	eq
 2947 0174 4FF40052 		moveq	r2, #8192
 2948 0178 4FF48052 		movne	r2, #4096
 2949              	.LVL205:
 111:../libDaisy/src/util/WavWriter.h ****         size_t cap_point
 2950              		.loc 9 111 15 view .LVU822
 2951 017c C4F82836 		str	r3, [r4, #1576]
ARM GAS  /var/folders/2p/02m_5p7958535cp2tpgps0400000gn/T//ccx9FAOt.s 			page 92


 114:../libDaisy/src/util/WavWriter.h ****         {
 2952              		.loc 9 114 9 view .LVU823
 2953 0180 9342     		cmp	r3, r2
 116:../libDaisy/src/util/WavWriter.h ****         }
 2954              		.loc 9 116 21 view .LVU824
 2955 0182 04BF     		itt	eq
 2956 0184 0127     		moveq	r7, #1
 2957              	.LVL206:
 116:../libDaisy/src/util/WavWriter.h ****         }
 2958              		.loc 9 116 21 view .LVU825
 2959 0186 C1F83876 		streq	r7, [r1, #1592]
 118:../libDaisy/src/util/WavWriter.h ****         {
 2960              		.loc 9 118 9 view .LVU826
 2961 018a B3EB420F 		cmp	r3, r2, lsl #1
 120:../libDaisy/src/util/WavWriter.h ****             bstate_ = BufferState::FLUSH1;
 2962              		.loc 9 120 21 view .LVU827
 2963 018e 21BF     		itttt	cs
 2964 0190 0023     		movcs	r3, #0
 2965 0192 C4F82836 		strcs	r3, [r4, #1576]
 121:../libDaisy/src/util/WavWriter.h ****         }
 2966              		.loc 9 121 21 view .LVU828
 2967 0196 0223     		movcs	r3, #2
 2968 0198 C1F83836 		strcs	r3, [r1, #1592]
 2969              	.LVL207:
 2970              	.L94:
 121:../libDaisy/src/util/WavWriter.h ****         }
 2971              		.loc 9 121 21 view .LVU829
 2972              	.LBE744:
 2973              	.LBE747:
 575:GrannyChordApp.cpp ****     out[0][i] = samp.left;
 2974              		.loc 3 575 3 is_stmt 1 discriminator 2 view .LVU830
 2975 019c 0130     		adds	r0, r0, #1
 2976              	.LVL208:
 575:GrannyChordApp.cpp ****     out[0][i] = samp.left;
 2977              		.loc 3 575 3 is_stmt 0 discriminator 2 view .LVU831
 2978 019e 5AE7     		b	.L106
 2979              	.L89:
 575:GrannyChordApp.cpp ****     out[0][i] = samp.left;
 2980              		.loc 3 575 3 discriminator 2 view .LVU832
 2981              	.LBE712:
 584:GrannyChordApp.cpp **** 
 2982              		.loc 3 584 1 view .LVU833
 2983 01a0 05B0     		add	sp, sp, #20
 2984              		.cfi_def_cfa_offset 36
 2985              		@ sp needed
 2986 01a2 BDE8F08F 		pop	{r4, r5, r6, r7, r8, r9, r10, fp, pc}
 2987              	.LVL209:
 2988              	.L115:
 584:GrannyChordApp.cpp **** 
 2989              		.loc 3 584 1 view .LVU834
 2990 01a6 00BF     		.align	2
 2991              	.L114:
 2992 01a8 0000F042 		.word	1123024896
 2993 01ac 04FF7FBF 		.word	-1082130684
 2994 01b0 04FF7F3F 		.word	1065352964
 2995 01b4 00FEFF46 		.word	1191181824
 2996              		.cfi_endproc
ARM GAS  /var/folders/2p/02m_5p7958535cp2tpgps0400000gn/T//ccx9FAOt.s 			page 93


 2997              	.LFE4935:
 2999              		.section	.rodata._ZN14GrannyChordApp12ProcessAudioEPKPKfPPfj.str1.1,"aMS",%progbits,1
 3000              	.LC9:
 3001 0000 73746F70 		.ascii	"stopped audio > len\000"
 3001      70656420 
 3001      61756469 
 3001      6F203E20 
 3001      6C656E00 
 3002              		.section	.text._ZN14GrannyChordApp12ProcessAudioEPKPKfPPfj,"ax",%progbits
 3003              		.align	1
 3004              		.global	_ZN14GrannyChordApp12ProcessAudioEPKPKfPPfj
 3005              		.syntax unified
 3006              		.thumb
 3007              		.thumb_func
 3009              	_ZN14GrannyChordApp12ProcessAudioEPKPKfPPfj:
 3010              	.LVL210:
 3011              	.LFB4932:
 506:GrannyChordApp.cpp ****   switch(curr_state_){
 3012              		.loc 3 506 107 is_stmt 1 view -0
 3013              		.cfi_startproc
 3014              		@ args = 0, pretend = 0, frame = 0
 3015              		@ frame_needed = 0, uses_anonymous_args = 0
 507:GrannyChordApp.cpp ****     case AppState::PlayWAV:
 3016              		.loc 3 507 3 view .LVU836
 506:GrannyChordApp.cpp ****   switch(curr_state_){
 3017              		.loc 3 506 107 is_stmt 0 view .LVU837
 3018 0000 2DE9F041 		push	{r4, r5, r6, r7, r8, lr}
 3019              		.cfi_def_cfa_offset 24
 3020              		.cfi_offset 4, -24
 3021              		.cfi_offset 5, -20
 3022              		.cfi_offset 6, -16
 3023              		.cfi_offset 7, -12
 3024              		.cfi_offset 8, -8
 3025              		.cfi_offset 14, -4
 507:GrannyChordApp.cpp ****     case AppState::PlayWAV:
 3026              		.loc 3 507 10 view .LVU838
 3027 0004 D0F83844 		ldr	r4, [r0, #1080]
 506:GrannyChordApp.cpp ****   switch(curr_state_){
 3028              		.loc 3 506 107 view .LVU839
 3029 0008 1646     		mov	r6, r2
 3030 000a 1F46     		mov	r7, r3
 507:GrannyChordApp.cpp ****     case AppState::PlayWAV:
 3031              		.loc 3 507 3 view .LVU840
 3032 000c 022C     		cmp	r4, #2
 3033 000e 25D0     		beq	.L117
 3034 0010 032C     		cmp	r4, #3
 3035 0012 1FD0     		beq	.L118
 3036 0014 012C     		cmp	r4, #1
 3037 0016 27D1     		bne	.L116
 3038              	.LVL211:
 3039              	.LBB754:
 3040              	.LBI754:
 506:GrannyChordApp.cpp ****   switch(curr_state_){
 3041              		.loc 3 506 6 is_stmt 1 view .LVU841
 3042              	.LBB755:
 508:GrannyChordApp.cpp ****       if (wav_playhead_>= filemgr_.GetSamplesPerChannel() -1){
 3043              		.loc 3 508 5 view .LVU842
ARM GAS  /var/folders/2p/02m_5p7958535cp2tpgps0400000gn/T//ccx9FAOt.s 			page 94


 509:GrannyChordApp.cpp ****         instance_->pod_.StopAudio();
 3044              		.loc 3 509 7 view .LVU843
 509:GrannyChordApp.cpp ****         instance_->pod_.StopAudio();
 3045              		.loc 3 509 27 is_stmt 0 view .LVU844
 3046 0018 D0F83034 		ldr	r3, [r0, #1072]
 3047              	.LVL212:
 3048              	.LBB756:
 3049              	.LBI756:
  27:AudioFileManager.h ****     size_t GetTotalSamples() const { return header_.total_samples; }
 3050              		.loc 8 27 12 is_stmt 1 view .LVU845
 3051              	.LBB757:
  27:AudioFileManager.h ****     size_t GetTotalSamples() const { return header_.total_samples; }
 3052              		.loc 8 27 43 view .LVU846
  27:AudioFileManager.h ****     size_t GetTotalSamples() const { return header_.total_samples; }
 3053              		.loc 8 27 58 is_stmt 0 view .LVU847
 3054 001c 03F58053 		add	r3, r3, #4096
  27:AudioFileManager.h ****     size_t GetTotalSamples() const { return header_.total_samples; }
 3055              		.loc 8 27 82 view .LVU848
 3056 0020 B3F92820 		ldrsh	r2, [r3, #40]
 3057              	.LVL213:
  27:AudioFileManager.h ****     size_t GetTotalSamples() const { return header_.total_samples; }
 3058              		.loc 8 27 82 view .LVU849
 3059 0024 DC6A     		ldr	r4, [r3, #44]
 3060              	.LBE757:
 3061              	.LBE756:
 509:GrannyChordApp.cpp ****         instance_->pod_.StopAudio();
 3062              		.loc 3 509 7 view .LVU850
 3063 0026 D0F8F034 		ldr	r3, [r0, #1264]
 3064              	.LBB759:
 3065              	.LBB758:
  27:AudioFileManager.h ****     size_t GetTotalSamples() const { return header_.total_samples; }
 3066              		.loc 8 27 82 view .LVU851
 3067 002a B4FBF2F4 		udiv	r4, r4, r2
 3068              	.LBE758:
 3069              	.LBE759:
 509:GrannyChordApp.cpp ****         instance_->pod_.StopAudio();
 3070              		.loc 3 509 59 view .LVU852
 3071 002e 013C     		subs	r4, r4, #1
 509:GrannyChordApp.cpp ****         instance_->pod_.StopAudio();
 3072              		.loc 3 509 7 view .LVU853
 3073 0030 A342     		cmp	r3, r4
 3074 0032 09D3     		bcc	.L120
 510:GrannyChordApp.cpp ****         DebugPrint(pod_, "stopped audio > len");
 3075              		.loc 3 510 9 is_stmt 1 view .LVU854
 510:GrannyChordApp.cpp ****         DebugPrint(pod_, "stopped audio > len");
 3076              		.loc 3 510 34 is_stmt 0 view .LVU855
 3077 0034 0D4B     		ldr	r3, .L121
 510:GrannyChordApp.cpp ****         DebugPrint(pod_, "stopped audio > len");
 3078              		.loc 3 510 20 view .LVU856
 3079 0036 1B68     		ldr	r3, [r3]
 510:GrannyChordApp.cpp ****         DebugPrint(pod_, "stopped audio > len");
 3080              		.loc 3 510 34 view .LVU857
 3081 0038 D869     		ldr	r0, [r3, #28]
 3082              	.LVL214:
 510:GrannyChordApp.cpp ****         DebugPrint(pod_, "stopped audio > len");
 3083              		.loc 3 510 34 view .LVU858
 3084 003a FFF7FEFF 		bl	_ZN5daisy8DaisyPod9StopAudioEv
ARM GAS  /var/folders/2p/02m_5p7958535cp2tpgps0400000gn/T//ccx9FAOt.s 			page 95


 3085              	.LVL215:
 511:GrannyChordApp.cpp ****         return;
 3086              		.loc 3 511 9 is_stmt 1 view .LVU859
 511:GrannyChordApp.cpp ****         return;
 3087              		.loc 3 511 9 view .LVU860
 3088              	.LBB760:
 3089              	.LBI760:
 126:../libDaisy/src/daisy_seed.h ****     {
 3090              		.loc 5 126 17 view .LVU861
 3091              	.LBB761:
 3092              		.loc 5 128 23 is_stmt 0 view .LVU862
 3093 003e 0C48     		ldr	r0, .L121+4
 3094              	.LBE761:
 3095              	.LBE760:
 3096              	.LBE755:
 3097              	.LBE754:
 527:GrannyChordApp.cpp **** 
 3098              		.loc 3 527 1 view .LVU863
 3099 0040 BDE8F041 		pop	{r4, r5, r6, r7, r8, lr}
 3100              		.cfi_remember_state
 3101              		.cfi_restore 14
 3102              		.cfi_restore 8
 3103              		.cfi_restore 7
 3104              		.cfi_restore 6
 3105              		.cfi_restore 5
 3106              		.cfi_restore 4
 3107              		.cfi_def_cfa_offset 0
 3108              	.LVL216:
 3109              	.LBB766:
 3110              	.LBB764:
 3111              	.LBB763:
 3112              	.LBB762:
 3113              		.loc 5 128 23 view .LVU864
 3114 0044 FFF7FEBF 		b	_ZN5daisy6LoggerILNS_17LoggerDestinationE1EE9PrintLineEPKcz
 3115              	.LVL217:
 3116              	.L120:
 3117              		.cfi_restore_state
 3118              		.loc 5 128 23 view .LVU865
 3119              	.LBE762:
 3120              	.LBE763:
 514:GrannyChordApp.cpp ****       return;  
 3121              		.loc 3 514 7 is_stmt 1 view .LVU866
 514:GrannyChordApp.cpp ****       return;  
 3122              		.loc 3 514 25 is_stmt 0 view .LVU867
 3123 0048 3A46     		mov	r2, r7
 3124 004a 3146     		mov	r1, r6
 3125              	.LVL218:
 514:GrannyChordApp.cpp ****       return;  
 3126              		.loc 3 514 25 view .LVU868
 3127              	.LBE764:
 3128              	.LBE766:
 527:GrannyChordApp.cpp **** 
 3129              		.loc 3 527 1 view .LVU869
 3130 004c BDE8F041 		pop	{r4, r5, r6, r7, r8, lr}
 3131              		.cfi_remember_state
 3132              		.cfi_restore 14
 3133              		.cfi_restore 8
ARM GAS  /var/folders/2p/02m_5p7958535cp2tpgps0400000gn/T//ccx9FAOt.s 			page 96


 3134              		.cfi_restore 7
 3135              		.cfi_restore 6
 3136              		.cfi_restore 5
 3137              		.cfi_restore 4
 3138              		.cfi_def_cfa_offset 0
 3139              	.LVL219:
 3140              	.LBB767:
 3141              	.LBB765:
 514:GrannyChordApp.cpp ****       return;  
 3142              		.loc 3 514 25 view .LVU870
 3143 0050 FFF7FEBF 		b	_ZN14GrannyChordApp18ProcessWAVPlaybackEPPfj
 3144              	.LVL220:
 3145              	.L118:
 3146              		.cfi_restore_state
 514:GrannyChordApp.cpp ****       return;  
 3147              		.loc 3 514 25 view .LVU871
 3148              	.LBE765:
 3149              	.LBE767:
 516:GrannyChordApp.cpp ****       ProcessRecordIn(in, out, size);
 3150              		.loc 3 516 5 is_stmt 1 view .LVU872
 517:GrannyChordApp.cpp ****       return;
 3151              		.loc 3 517 7 view .LVU873
 527:GrannyChordApp.cpp **** 
 3152              		.loc 3 527 1 is_stmt 0 view .LVU874
 3153 0054 BDE8F041 		pop	{r4, r5, r6, r7, r8, lr}
 3154              		.cfi_remember_state
 3155              		.cfi_restore 14
 3156              		.cfi_restore 8
 3157              		.cfi_restore 7
 3158              		.cfi_restore 6
 3159              		.cfi_restore 5
 3160              		.cfi_restore 4
 3161              		.cfi_def_cfa_offset 0
 517:GrannyChordApp.cpp ****       return;
 3162              		.loc 3 517 22 view .LVU875
 3163 0058 FFF7FEBF 		b	_ZN14GrannyChordApp15ProcessRecordInEPKPKfPPfj
 3164              	.LVL221:
 3165              	.L117:
 3166              		.cfi_restore_state
 519:GrannyChordApp.cpp ****       ProcessSynthesis(out,size);
 3167              		.loc 3 519 5 is_stmt 1 view .LVU876
 520:GrannyChordApp.cpp ****       return;
 3168              		.loc 3 520 7 view .LVU877
 520:GrannyChordApp.cpp ****       return;
 3169              		.loc 3 520 23 is_stmt 0 view .LVU878
 3170 005c 3146     		mov	r1, r6
 3171              	.LVL222:
 520:GrannyChordApp.cpp ****       return;
 3172              		.loc 3 520 23 view .LVU879
 3173 005e 1A46     		mov	r2, r3
 3174              	.LVL223:
 527:GrannyChordApp.cpp **** 
 3175              		.loc 3 527 1 view .LVU880
 3176 0060 BDE8F041 		pop	{r4, r5, r6, r7, r8, lr}
 3177              		.cfi_remember_state
 3178              		.cfi_restore 14
 3179              		.cfi_restore 8
ARM GAS  /var/folders/2p/02m_5p7958535cp2tpgps0400000gn/T//ccx9FAOt.s 			page 97


 3180              		.cfi_restore 7
 3181              		.cfi_restore 6
 3182              		.cfi_restore 5
 3183              		.cfi_restore 4
 3184              		.cfi_def_cfa_offset 0
 3185              	.LVL224:
 520:GrannyChordApp.cpp ****       return;
 3186              		.loc 3 520 23 view .LVU881
 3187 0064 FFF7FEBF 		b	_ZN14GrannyChordApp16ProcessSynthesisEPPfj
 3188              	.LVL225:
 3189              	.L116:
 3190              		.cfi_restore_state
 527:GrannyChordApp.cpp **** 
 3191              		.loc 3 527 1 view .LVU882
 3192 0068 BDE8F081 		pop	{r4, r5, r6, r7, r8, pc}
 3193              	.L122:
 3194              		.align	2
 3195              	.L121:
 3196 006c 00000000 		.word	.LANCHOR0
 3197 0070 00000000 		.word	.LC9
 3198              		.cfi_endproc
 3199              	.LFE4932:
 3201              		.section	.text._ZN14GrannyChordApp13AudioCallbackEPKPKfPPfj,"ax",%progbits
 3202              		.align	1
 3203              		.global	_ZN14GrannyChordApp13AudioCallbackEPKPKfPPfj
 3204              		.syntax unified
 3205              		.thumb
 3206              		.thumb_func
 3208              	_ZN14GrannyChordApp13AudioCallbackEPKPKfPPfj:
 3209              	.LVL226:
 3210              	.LFB4931:
 502:GrannyChordApp.cpp ****   instance_->ProcessAudio(in,out,size);
 3211              		.loc 3 502 108 is_stmt 1 view -0
 3212              		.cfi_startproc
 3213              		@ args = 0, pretend = 0, frame = 0
 3214              		@ frame_needed = 0, uses_anonymous_args = 0
 3215              		@ link register save eliminated.
 503:GrannyChordApp.cpp **** }
 3216              		.loc 3 503 3 view .LVU884
 502:GrannyChordApp.cpp ****   instance_->ProcessAudio(in,out,size);
 3217              		.loc 3 502 108 is_stmt 0 view .LVU885
 3218 0000 1346     		mov	r3, r2
 503:GrannyChordApp.cpp **** }
 3219              		.loc 3 503 26 view .LVU886
 3220 0002 0A46     		mov	r2, r1
 3221              	.LVL227:
 503:GrannyChordApp.cpp **** }
 3222              		.loc 3 503 26 view .LVU887
 3223 0004 0146     		mov	r1, r0
 3224              	.LVL228:
 503:GrannyChordApp.cpp **** }
 3225              		.loc 3 503 26 view .LVU888
 3226 0006 0248     		ldr	r0, .L124
 3227              	.LVL229:
 503:GrannyChordApp.cpp **** }
 3228              		.loc 3 503 26 view .LVU889
 3229 0008 0068     		ldr	r0, [r0]
ARM GAS  /var/folders/2p/02m_5p7958535cp2tpgps0400000gn/T//ccx9FAOt.s 			page 98


 3230 000a FFF7FEBF 		b	_ZN14GrannyChordApp12ProcessAudioEPKPKfPPfj
 3231              	.LVL230:
 3232              	.L125:
 503:GrannyChordApp.cpp **** }
 3233              		.loc 3 503 26 view .LVU890
 3234 000e 00BF     		.align	2
 3235              	.L124:
 3236 0010 00000000 		.word	.LANCHOR0
 3237              		.cfi_endproc
 3238              	.LFE4931:
 3240              		.section	.rodata._ZN14GrannyChordApp13RecordOutToSDEv.str1.1,"aMS",%progbits,1
 3241              	.LC10:
 3242 0000 7265636F 		.ascii	"recording_%d\000"
 3242      7264696E 
 3242      675F2564 
 3242      00
 3243              		.section	.text._ZN14GrannyChordApp13RecordOutToSDEv,"ax",%progbits
 3244              		.align	1
 3245              		.global	_ZN14GrannyChordApp13RecordOutToSDEv
 3246              		.syntax unified
 3247              		.thumb
 3248              		.thumb_func
 3250              	_ZN14GrannyChordApp13RecordOutToSDEv:
 3251              	.LVL231:
 3252              	.LFB4937:
 603:GrannyChordApp.cpp **** 
 604:GrannyChordApp.cpp **** /// @brief Process audio from chord mode and mix to output buffer
 605:GrannyChordApp.cpp **** /// @param out Output audio buffer
 606:GrannyChordApp.cpp **** /// @param size Number of samples to process in this call
 607:GrannyChordApp.cpp **** // void GrannyChordApp::ProcessChordMode(AudioHandle::OutputBuffer out, size_t size){
 608:GrannyChordApp.cpp **** //   // if (UserTriggeredChord()) {
 609:GrannyChordApp.cpp **** //   //   synth_.TriggerChord(out[0], out[1], size);
 610:GrannyChordApp.cpp **** //   // } else {
 611:GrannyChordApp.cpp **** //   //     std::memset(out[0], 0, size * sizeof(float));
 612:GrannyChordApp.cpp **** //   //     std::memset(out[1], 0, size * sizeof(float));
 613:GrannyChordApp.cpp **** //   // }
 614:GrannyChordApp.cpp **** // }
 615:GrannyChordApp.cpp **** 
 616:GrannyChordApp.cpp **** /// @brief Record granular synth or chord output audio to SD card
 617:GrannyChordApp.cpp **** /// @param out Output audio buffer
 618:GrannyChordApp.cpp **** /// @param size Number of samples to process in this call
 619:GrannyChordApp.cpp **** void GrannyChordApp::RecordOutToSD(){
 3253              		.loc 3 619 37 is_stmt 1 view -0
 3254              		.cfi_startproc
 3255              		@ args = 0, pretend = 0, frame = 40
 3256              		@ frame_needed = 0, uses_anonymous_args = 0
 620:GrannyChordApp.cpp ****   InitWavWriter();
 3257              		.loc 3 620 3 view .LVU892
 619:GrannyChordApp.cpp ****   InitWavWriter();
 3258              		.loc 3 619 37 is_stmt 0 view .LVU893
 3259 0000 F0B5     		push	{r4, r5, r6, r7, lr}
 3260              		.cfi_def_cfa_offset 20
 3261              		.cfi_offset 4, -20
 3262              		.cfi_offset 5, -16
 3263              		.cfi_offset 6, -12
 3264              		.cfi_offset 7, -8
 3265              		.cfi_offset 14, -4
ARM GAS  /var/folders/2p/02m_5p7958535cp2tpgps0400000gn/T//ccx9FAOt.s 			page 99


 621:GrannyChordApp.cpp ****   char name[32];
 622:GrannyChordApp.cpp ****   sprintf(name,"recording_%d",recording_count_);
 3266              		.loc 3 622 10 view .LVU894
 3267 0002 00F50045 		add	r5, r0, #32768
 619:GrannyChordApp.cpp ****   InitWavWriter();
 3268              		.loc 3 619 37 view .LVU895
 3269 0006 8BB0     		sub	sp, sp, #44
 3270              		.cfi_def_cfa_offset 64
 619:GrannyChordApp.cpp ****   InitWavWriter();
 3271              		.loc 3 619 37 view .LVU896
 3272 0008 0446     		mov	r4, r0
 620:GrannyChordApp.cpp ****   char name[32];
 3273              		.loc 3 620 16 view .LVU897
 3274 000a FFF7FEFF 		bl	_ZN14GrannyChordApp13InitWavWriterEv
 3275              	.LVL232:
 621:GrannyChordApp.cpp ****   char name[32];
 3276              		.loc 3 621 3 is_stmt 1 view .LVU898
 3277              		.loc 3 622 3 view .LVU899
 3278              		.loc 3 622 10 is_stmt 0 view .LVU900
 3279 000e D5F87828 		ldr	r2, [r5, #2168]
 3280 0012 02A8     		add	r0, sp, #8
 3281              	.LVL233:
 3282              		.loc 3 622 10 view .LVU901
 3283 0014 1249     		ldr	r1, .L129
 3284              	.LBB772:
 3285              	.LBB773:
 157:../libDaisy/src/util/WavWriter.h ****         {
 3286              		.loc 9 157 18 view .LVU902
 3287 0016 04F50646 		add	r6, r4, #34304
 3288              	.LBE773:
 3289              	.LBE772:
 3290              		.loc 3 622 10 view .LVU903
 3291 001a FFF7FEFF 		bl	sprintf
 3292              	.LVL234:
 623:GrannyChordApp.cpp ****   recording_count_++;
 3293              		.loc 3 623 3 is_stmt 1 view .LVU904
 3294              		.loc 3 623 19 is_stmt 0 view .LVU905
 3295 001e D5F87838 		ldr	r3, [r5, #2168]
 3296              	.LBB778:
 3297              	.LBB775:
 157:../libDaisy/src/util/WavWriter.h ****         {
 3298              		.loc 9 157 18 view .LVU906
 3299 0022 4036     		adds	r6, r6, #64
 3300 0024 0A22     		movs	r2, #10
 3301              	.LBE775:
 3302              	.LBE778:
 3303              		.loc 3 623 19 view .LVU907
 3304 0026 0133     		adds	r3, r3, #1
 3305              	.LBB779:
 3306              	.LBB776:
 157:../libDaisy/src/util/WavWriter.h ****         {
 3307              		.loc 9 157 18 view .LVU908
 3308 0028 02A9     		add	r1, sp, #8
 3309 002a 3046     		mov	r0, r6
 3310 002c 04F5BF67 		add	r7, r4, #1528
 3311              	.LBE776:
 3312              	.LBE779:
ARM GAS  /var/folders/2p/02m_5p7958535cp2tpgps0400000gn/T//ccx9FAOt.s 			page 100


 3313              		.loc 3 623 19 view .LVU909
 3314 0030 C5F87838 		str	r3, [r5, #2168]
 624:GrannyChordApp.cpp ****   sd_writer_.OpenFile(name);
 3315              		.loc 3 624 3 is_stmt 1 view .LVU910
 3316              	.LVL235:
 3317              	.LBB780:
 3318              	.LBI772:
 155:../libDaisy/src/util/WavWriter.h ****     {
 3319              		.loc 9 155 10 view .LVU911
 3320              	.LBB777:
 157:../libDaisy/src/util/WavWriter.h ****         {
 3321              		.loc 9 157 18 is_stmt 0 view .LVU912
 3322 0034 FFF7FEFF 		bl	f_open
 3323              	.LVL236:
 157:../libDaisy/src/util/WavWriter.h ****         {
 3324              		.loc 9 157 9 view .LVU913
 3325 0038 60B9     		cbnz	r0, .L127
 3326              	.LBB774:
 159:../libDaisy/src/util/WavWriter.h ****             if(f_write(&fp_, &wavheader_, sizeof(wavheader_), &bw) == FR_OK)
 3327              		.loc 9 159 26 view .LVU914
 3328 003a 0190     		str	r0, [sp, #4]
 160:../libDaisy/src/util/WavWriter.h ****             {
 3329              		.loc 9 160 23 view .LVU915
 3330 003c 01AB     		add	r3, sp, #4
 3331 003e 2C22     		movs	r2, #44
 3332 0040 3946     		mov	r1, r7
 3333 0042 3046     		mov	r0, r6
 3334 0044 FFF7FEFF 		bl	f_write
 3335              	.LVL237:
 160:../libDaisy/src/util/WavWriter.h ****             {
 3336              		.loc 9 160 13 view .LVU916
 3337 0048 20B9     		cbnz	r0, .L127
 162:../libDaisy/src/util/WavWriter.h ****                 num_samps_ = 0;
 3338              		.loc 9 162 28 view .LVU917
 3339 004a 0123     		movs	r3, #1
 3340 004c 85F83C36 		strb	r3, [r5, #1596]
 163:../libDaisy/src/util/WavWriter.h ****             }
 3341              		.loc 9 163 28 view .LVU918
 3342 0050 C4F82406 		str	r0, [r4, #1572]
 3343              	.L127:
 3344              	.LVL238:
 163:../libDaisy/src/util/WavWriter.h ****             }
 3345              		.loc 9 163 28 view .LVU919
 3346              	.LBE774:
 3347              	.LBE777:
 3348              	.LBE780:
 625:GrannyChordApp.cpp ****   recording_out_ = true;
 3349              		.loc 3 625 3 is_stmt 1 view .LVU920
 3350              		.loc 3 625 18 is_stmt 0 view .LVU921
 3351 0054 0123     		movs	r3, #1
 3352 0056 85F87438 		strb	r3, [r5, #2164]
 626:GrannyChordApp.cpp **** }
 3353              		.loc 3 626 1 view .LVU922
 3354 005a 0BB0     		add	sp, sp, #44
 3355              		.cfi_def_cfa_offset 20
 3356              		@ sp needed
 3357 005c F0BD     		pop	{r4, r5, r6, r7, pc}
ARM GAS  /var/folders/2p/02m_5p7958535cp2tpgps0400000gn/T//ccx9FAOt.s 			page 101


 3358              	.LVL239:
 3359              	.L130:
 3360              		.loc 3 626 1 view .LVU923
 3361 005e 00BF     		.align	2
 3362              	.L129:
 3363 0060 00000000 		.word	.LC10
 3364              		.cfi_endproc
 3365              	.LFE4937:
 3367              		.section	.rodata._ZN14GrannyChordApp17UpdateKnob1ParamsEf9SynthMode.str1.1,"aMS",%progbits,1
 3368              	.LC11:
 3369 0000 73657420 		.ascii	"set phasor mode to %.2f\000"
 3369      70686173 
 3369      6F72206D 
 3369      6F646520 
 3369      746F2025 
 3370              		.section	.text._ZN14GrannyChordApp17UpdateKnob1ParamsEf9SynthMode,"ax",%progbits
 3371              		.align	1
 3372              		.global	_ZN14GrannyChordApp17UpdateKnob1ParamsEf9SynthMode
 3373              		.syntax unified
 3374              		.thumb
 3375              		.thumb_func
 3377              	_ZN14GrannyChordApp17UpdateKnob1ParamsEf9SynthMode:
 3378              	.LVL240:
 3379              	.LFB4939:
 627:GrannyChordApp.cpp **** 
 628:GrannyChordApp.cpp **** /// @brief cleans up after recording to SD card is finished
 629:GrannyChordApp.cpp **** void GrannyChordApp::FinishRecording(){
 630:GrannyChordApp.cpp ****   sd_writer_.SaveFile();
 631:GrannyChordApp.cpp ****   recording_out_=false;
 632:GrannyChordApp.cpp **** }
 633:GrannyChordApp.cpp **** 
 634:GrannyChordApp.cpp **** /// @brief Updates synth parameters from hardware knob 1 input
 635:GrannyChordApp.cpp **** /// @param knob1_val float between 0-1 from knob input
 636:GrannyChordApp.cpp **** /// @param mode current synth mode that determines which parameters to update
 637:GrannyChordApp.cpp **** void GrannyChordApp::UpdateKnob1Params(float knob1_val, SynthMode mode){
 3380              		.loc 3 637 72 is_stmt 1 view -0
 3381              		.cfi_startproc
 3382              		@ args = 0, pretend = 0, frame = 0
 3383              		@ frame_needed = 0, uses_anonymous_args = 0
 638:GrannyChordApp.cpp ****   switch (mode){
 3384              		.loc 3 638 3 view .LVU925
 637:GrannyChordApp.cpp ****   switch (mode){
 3385              		.loc 3 637 72 is_stmt 0 view .LVU926
 3386 0000 10B5     		push	{r4, lr}
 3387              		.cfi_def_cfa_offset 8
 3388              		.cfi_offset 4, -8
 3389              		.cfi_offset 14, -4
 3390 0002 0446     		mov	r4, r0
 3391 0004 2DED028B 		vpush.64	{d8}
 3392              		.cfi_def_cfa_offset 16
 3393              		.cfi_offset 80, -16
 3394              		.cfi_offset 81, -12
 3395              		.loc 3 638 3 view .LVU927
 3396 0008 0829     		cmp	r1, #8
 3397 000a 40D8     		bhi	.L131
 3398 000c DFE801F0 		tbb	[pc, r1]
 3399              	.L134:
ARM GAS  /var/folders/2p/02m_5p7958535cp2tpgps0400000gn/T//ccx9FAOt.s 			page 102


 3400 0010 05       		.byte	(.L142-.L134)/2
 3401 0011 3B       		.byte	(.L141-.L134)/2
 3402 0012 0C       		.byte	(.L140-.L134)/2
 3403 0013 42       		.byte	(.L139-.L134)/2
 3404 0014 1A       		.byte	(.L138-.L134)/2
 3405 0015 45       		.byte	(.L137-.L134)/2
 3406 0016 13       		.byte	(.L136-.L134)/2
 3407 0017 48       		.byte	(.L135-.L134)/2
 3408 0018 4D       		.byte	(.L133-.L134)/2
 3409 0019 00       		.p2align 1
 3410              	.L142:
 639:GrannyChordApp.cpp ****     case SynthMode::Size_Position:
 3411              		.loc 3 639 5 is_stmt 1 view .LVU928
 640:GrannyChordApp.cpp ****       synth_.SetGrainSize(knob1_val);
 3412              		.loc 3 640 7 view .LVU929
 641:GrannyChordApp.cpp ****       return;
 642:GrannyChordApp.cpp ****     case SynthMode::Pitch_ActiveGrains:
 643:GrannyChordApp.cpp ****       synth_.SetPitchRatio(knob1_val);
 644:GrannyChordApp.cpp ****       return;
 645:GrannyChordApp.cpp ****     case SynthMode::Pan_PanRnd:
 646:GrannyChordApp.cpp ****       synth_.SetPan(knob1_val);
 647:GrannyChordApp.cpp ****       return;
 648:GrannyChordApp.cpp ****     case SynthMode::PhasorMode_EnvType:
 649:GrannyChordApp.cpp ****       knob1_val = round(fmap(knob1_val, 0, NUM_PHASOR_MODES));
 650:GrannyChordApp.cpp ****       DebugPrint(pod_, "set phasor mode to %.2f", knob1_val);
 651:GrannyChordApp.cpp ****       synth_.SetPhasorMode(static_cast<GrainPhasor::Mode>(knob1_val));
 652:GrannyChordApp.cpp ****       return;
 653:GrannyChordApp.cpp ****     case SynthMode::Size_Position_Rnd:
 654:GrannyChordApp.cpp ****       synth_.SetSizeRnd(knob1_val);
 655:GrannyChordApp.cpp ****       return;
 656:GrannyChordApp.cpp ****     case SynthMode::Pitch_ActiveGrains_Rnd:
 657:GrannyChordApp.cpp ****       synth_.SetPitchRnd(knob1_val);
 658:GrannyChordApp.cpp ****       return;
 659:GrannyChordApp.cpp ****     case SynthMode::PhasorMode_EnvType_Rnd:
 660:GrannyChordApp.cpp ****       synth_.SetPhasorRnd(knob1_val);
 661:GrannyChordApp.cpp ****       return;
 662:GrannyChordApp.cpp ****     case SynthMode::Reverb:
 663:GrannyChordApp.cpp ****       /* set reverb feedback ie tail length */
 664:GrannyChordApp.cpp ****       reverb_.SetFeedback(knob1_val); // NOTE check it doesn't clip
 665:GrannyChordApp.cpp ****       return;
 666:GrannyChordApp.cpp ****     case SynthMode::Filter:
 667:GrannyChordApp.cpp ****       /* map knob value to frequency range with an exponential curve */
 668:GrannyChordApp.cpp ****       knob1_val = fmap(knob1_val, LOPASS_LOWER_BOUND, LOPASS_UPPER_BOUND, daisysp::Mapping::EXP);
 669:GrannyChordApp.cpp ****       /* set cutoff frequency of low pass moog filter */
 670:GrannyChordApp.cpp ****       lowpass_moog_.SetFreq(knob1_val);
 671:GrannyChordApp.cpp ****       return;
 672:GrannyChordApp.cpp ****   }
 673:GrannyChordApp.cpp **** }
 3413              		.loc 3 673 1 is_stmt 0 view .LVU930
 3414 001a BDEC028B 		vldm	sp!, {d8}
 3415              		.cfi_remember_state
 3416              		.cfi_restore 80
 3417              		.cfi_restore 81
 3418              		.cfi_def_cfa_offset 8
 640:GrannyChordApp.cpp ****       synth_.SetGrainSize(knob1_val);
 3419              		.loc 3 640 26 view .LVU931
 3420 001e 2030     		adds	r0, r0, #32
ARM GAS  /var/folders/2p/02m_5p7958535cp2tpgps0400000gn/T//ccx9FAOt.s 			page 103


 3421              	.LVL241:
 3422              		.loc 3 673 1 view .LVU932
 3423 0020 BDE81040 		pop	{r4, lr}
 3424              		.cfi_restore 14
 3425              		.cfi_restore 4
 3426              		.cfi_def_cfa_offset 0
 3427              	.LVL242:
 640:GrannyChordApp.cpp ****       synth_.SetGrainSize(knob1_val);
 3428              		.loc 3 640 26 view .LVU933
 3429 0024 FFF7FEBF 		b	_ZN13GranularSynth12SetGrainSizeEf
 3430              	.LVL243:
 3431              	.L140:
 3432              		.cfi_restore_state
 642:GrannyChordApp.cpp ****       synth_.SetPitchRatio(knob1_val);
 3433              		.loc 3 642 5 is_stmt 1 view .LVU934
 643:GrannyChordApp.cpp ****       return;
 3434              		.loc 3 643 7 view .LVU935
 3435              		.loc 3 673 1 is_stmt 0 view .LVU936
 3436 0028 BDEC028B 		vldm	sp!, {d8}
 3437              		.cfi_remember_state
 3438              		.cfi_restore 80
 3439              		.cfi_restore 81
 3440              		.cfi_def_cfa_offset 8
 643:GrannyChordApp.cpp ****       return;
 3441              		.loc 3 643 27 view .LVU937
 3442 002c 2030     		adds	r0, r0, #32
 3443              	.LVL244:
 3444              		.loc 3 673 1 view .LVU938
 3445 002e BDE81040 		pop	{r4, lr}
 3446              		.cfi_restore 14
 3447              		.cfi_restore 4
 3448              		.cfi_def_cfa_offset 0
 3449              	.LVL245:
 643:GrannyChordApp.cpp ****       return;
 3450              		.loc 3 643 27 view .LVU939
 3451 0032 FFF7FEBF 		b	_ZN13GranularSynth13SetPitchRatioEf
 3452              	.LVL246:
 3453              	.L136:
 3454              		.cfi_restore_state
 645:GrannyChordApp.cpp ****       synth_.SetPan(knob1_val);
 3455              		.loc 3 645 5 is_stmt 1 view .LVU940
 646:GrannyChordApp.cpp ****       return;
 3456              		.loc 3 646 7 view .LVU941
 3457              		.loc 3 673 1 is_stmt 0 view .LVU942
 3458 0036 BDEC028B 		vldm	sp!, {d8}
 3459              		.cfi_remember_state
 3460              		.cfi_restore 80
 3461              		.cfi_restore 81
 3462              		.cfi_def_cfa_offset 8
 646:GrannyChordApp.cpp ****       return;
 3463              		.loc 3 646 20 view .LVU943
 3464 003a 2030     		adds	r0, r0, #32
 3465              	.LVL247:
 3466              		.loc 3 673 1 view .LVU944
 3467 003c BDE81040 		pop	{r4, lr}
 3468              		.cfi_restore 14
 3469              		.cfi_restore 4
ARM GAS  /var/folders/2p/02m_5p7958535cp2tpgps0400000gn/T//ccx9FAOt.s 			page 104


 3470              		.cfi_def_cfa_offset 0
 3471              	.LVL248:
 646:GrannyChordApp.cpp ****       return;
 3472              		.loc 3 646 20 view .LVU945
 3473 0040 FFF7FEBF 		b	_ZN13GranularSynth6SetPanEf
 3474              	.LVL249:
 3475              	.L138:
 3476              		.cfi_restore_state
 648:GrannyChordApp.cpp ****       knob1_val = round(fmap(knob1_val, 0, NUM_PHASOR_MODES));
 3477              		.loc 3 648 5 is_stmt 1 view .LVU946
 649:GrannyChordApp.cpp ****       DebugPrint(pod_, "set phasor mode to %.2f", knob1_val);
 3478              		.loc 3 649 7 view .LVU947
 3479              	.LBB809:
 3480              	.LBI809:
 3481              		.file 14 "../DaisySP/Source/Utility/dsp.h"
   1:../DaisySP/Source/Utility/dsp.h **** /*
   2:../DaisySP/Source/Utility/dsp.h **** Copyright (c) 2020 Electrosmith, Corp, Emilie Gillet
   3:../DaisySP/Source/Utility/dsp.h **** 
   4:../DaisySP/Source/Utility/dsp.h **** Use of this source code is governed by an MIT-style
   5:../DaisySP/Source/Utility/dsp.h **** license that can be found in the LICENSE file or at
   6:../DaisySP/Source/Utility/dsp.h **** https://opensource.org/licenses/MIT.
   7:../DaisySP/Source/Utility/dsp.h **** */
   8:../DaisySP/Source/Utility/dsp.h **** 
   9:../DaisySP/Source/Utility/dsp.h **** /** Helpful defines, functions, and other utilities for use in/with daisysp modules.
  10:../DaisySP/Source/Utility/dsp.h **** */
  11:../DaisySP/Source/Utility/dsp.h **** #pragma once
  12:../DaisySP/Source/Utility/dsp.h **** #ifndef DSY_CORE_DSP
  13:../DaisySP/Source/Utility/dsp.h **** #define DSY_CORE_DSP
  14:../DaisySP/Source/Utility/dsp.h **** #include <cassert>
  15:../DaisySP/Source/Utility/dsp.h **** #include <cstdint>
  16:../DaisySP/Source/Utility/dsp.h **** #include <random>
  17:../DaisySP/Source/Utility/dsp.h **** #include <cmath>
  18:../DaisySP/Source/Utility/dsp.h **** 
  19:../DaisySP/Source/Utility/dsp.h **** /** PIs
  20:../DaisySP/Source/Utility/dsp.h **** */
  21:../DaisySP/Source/Utility/dsp.h **** #define PI_F 3.1415927410125732421875f
  22:../DaisySP/Source/Utility/dsp.h **** #define TWOPI_F (2.0f * PI_F)
  23:../DaisySP/Source/Utility/dsp.h **** #define HALFPI_F (PI_F * 0.5f)
  24:../DaisySP/Source/Utility/dsp.h **** #define DSY_MIN(in, mn) (in < mn ? in : mn)
  25:../DaisySP/Source/Utility/dsp.h **** #define DSY_MAX(in, mx) (in > mx ? in : mx)
  26:../DaisySP/Source/Utility/dsp.h **** #define DSY_CLAMP(in, mn, mx) (DSY_MIN(DSY_MAX(in, mn), mx))
  27:../DaisySP/Source/Utility/dsp.h **** #define DSY_COUNTOF(_arr) (sizeof(_arr) / sizeof(_arr[0]))
  28:../DaisySP/Source/Utility/dsp.h **** 
  29:../DaisySP/Source/Utility/dsp.h **** namespace daisysp
  30:../DaisySP/Source/Utility/dsp.h **** {
  31:../DaisySP/Source/Utility/dsp.h **** //Avoids division for random floats. e.g. rand() * kRandFrac
  32:../DaisySP/Source/Utility/dsp.h **** static constexpr float kRandFrac = 1.f / (float)RAND_MAX;
  33:../DaisySP/Source/Utility/dsp.h **** 
  34:../DaisySP/Source/Utility/dsp.h **** //Convert from semitones to other units. e.g. 2 ^ (kOneTwelfth * x)
  35:../DaisySP/Source/Utility/dsp.h **** static constexpr float kOneTwelfth = 1.f / 12.f;
  36:../DaisySP/Source/Utility/dsp.h **** 
  37:../DaisySP/Source/Utility/dsp.h **** /** efficient floating point min/max
  38:../DaisySP/Source/Utility/dsp.h **** c/o stephen mccaul
  39:../DaisySP/Source/Utility/dsp.h **** */
  40:../DaisySP/Source/Utility/dsp.h **** inline float fmax(float a, float b)
  41:../DaisySP/Source/Utility/dsp.h **** {
  42:../DaisySP/Source/Utility/dsp.h ****     float r;
ARM GAS  /var/folders/2p/02m_5p7958535cp2tpgps0400000gn/T//ccx9FAOt.s 			page 105


  43:../DaisySP/Source/Utility/dsp.h **** #ifdef __arm__
  44:../DaisySP/Source/Utility/dsp.h ****     asm("vmaxnm.f32 %[d], %[n], %[m]" : [d] "=t"(r) : [n] "t"(a), [m] "t"(b) :);
  45:../DaisySP/Source/Utility/dsp.h **** #else
  46:../DaisySP/Source/Utility/dsp.h ****     r = (a > b) ? a : b;
  47:../DaisySP/Source/Utility/dsp.h **** #endif // __arm__
  48:../DaisySP/Source/Utility/dsp.h ****     return r;
  49:../DaisySP/Source/Utility/dsp.h **** }
  50:../DaisySP/Source/Utility/dsp.h **** 
  51:../DaisySP/Source/Utility/dsp.h **** inline float fmin(float a, float b)
  52:../DaisySP/Source/Utility/dsp.h **** {
  53:../DaisySP/Source/Utility/dsp.h ****     float r;
  54:../DaisySP/Source/Utility/dsp.h **** #ifdef __arm__
  55:../DaisySP/Source/Utility/dsp.h ****     asm("vminnm.f32 %[d], %[n], %[m]" : [d] "=t"(r) : [n] "t"(a), [m] "t"(b) :);
  56:../DaisySP/Source/Utility/dsp.h **** #else
  57:../DaisySP/Source/Utility/dsp.h ****     r = (a < b) ? a : b;
  58:../DaisySP/Source/Utility/dsp.h **** #endif // __arm__
  59:../DaisySP/Source/Utility/dsp.h ****     return r;
  60:../DaisySP/Source/Utility/dsp.h **** }
  61:../DaisySP/Source/Utility/dsp.h **** 
  62:../DaisySP/Source/Utility/dsp.h **** /** quick fp clamp
  63:../DaisySP/Source/Utility/dsp.h **** */
  64:../DaisySP/Source/Utility/dsp.h **** inline float fclamp(float in, float min, float max)
  65:../DaisySP/Source/Utility/dsp.h **** {
  66:../DaisySP/Source/Utility/dsp.h ****     return fmin(fmax(in, min), max);
  67:../DaisySP/Source/Utility/dsp.h **** }
  68:../DaisySP/Source/Utility/dsp.h **** 
  69:../DaisySP/Source/Utility/dsp.h **** /** From Musicdsp.org "Fast power and root estimates for 32bit floats)
  70:../DaisySP/Source/Utility/dsp.h **** Original code by Stefan Stenzel
  71:../DaisySP/Source/Utility/dsp.h **** These are approximations
  72:../DaisySP/Source/Utility/dsp.h **** */
  73:../DaisySP/Source/Utility/dsp.h **** inline float fastpower(float f, int n)
  74:../DaisySP/Source/Utility/dsp.h **** {
  75:../DaisySP/Source/Utility/dsp.h ****     long *lp, l;
  76:../DaisySP/Source/Utility/dsp.h ****     lp = (long *)(&f);
  77:../DaisySP/Source/Utility/dsp.h ****     l  = *lp;
  78:../DaisySP/Source/Utility/dsp.h ****     l -= 0x3F800000;
  79:../DaisySP/Source/Utility/dsp.h ****     l <<= (n - 1);
  80:../DaisySP/Source/Utility/dsp.h ****     l += 0x3F800000;
  81:../DaisySP/Source/Utility/dsp.h ****     *lp = l;
  82:../DaisySP/Source/Utility/dsp.h ****     return f;
  83:../DaisySP/Source/Utility/dsp.h **** }
  84:../DaisySP/Source/Utility/dsp.h **** 
  85:../DaisySP/Source/Utility/dsp.h **** inline float fastroot(float f, int n)
  86:../DaisySP/Source/Utility/dsp.h **** {
  87:../DaisySP/Source/Utility/dsp.h ****     long *lp, l;
  88:../DaisySP/Source/Utility/dsp.h ****     lp = (long *)(&f);
  89:../DaisySP/Source/Utility/dsp.h ****     l  = *lp;
  90:../DaisySP/Source/Utility/dsp.h ****     l -= 0x3F800000;
  91:../DaisySP/Source/Utility/dsp.h ****     l >>= (n - 1);
  92:../DaisySP/Source/Utility/dsp.h ****     l += 0x3F800000;
  93:../DaisySP/Source/Utility/dsp.h ****     *lp = l;
  94:../DaisySP/Source/Utility/dsp.h ****     return f;
  95:../DaisySP/Source/Utility/dsp.h **** }
  96:../DaisySP/Source/Utility/dsp.h **** 
  97:../DaisySP/Source/Utility/dsp.h **** /** Significantly more efficient than fmodf(x, 1.0f) for calculating
  98:../DaisySP/Source/Utility/dsp.h ****  *  the decimal part of a floating point value.
  99:../DaisySP/Source/Utility/dsp.h ****  */
ARM GAS  /var/folders/2p/02m_5p7958535cp2tpgps0400000gn/T//ccx9FAOt.s 			page 106


 100:../DaisySP/Source/Utility/dsp.h **** inline float fastmod1f(float x)
 101:../DaisySP/Source/Utility/dsp.h **** {
 102:../DaisySP/Source/Utility/dsp.h ****     return x - static_cast<int>(x);
 103:../DaisySP/Source/Utility/dsp.h **** }
 104:../DaisySP/Source/Utility/dsp.h **** 
 105:../DaisySP/Source/Utility/dsp.h **** /** From http://openaudio.blogspot.com/2017/02/faster-log10-and-pow.html
 106:../DaisySP/Source/Utility/dsp.h **** No approximation, pow10f(x) gives a 90% speed increase over powf(10.f, x)
 107:../DaisySP/Source/Utility/dsp.h **** */
 108:../DaisySP/Source/Utility/dsp.h **** inline float pow10f(float f)
 109:../DaisySP/Source/Utility/dsp.h **** {
 110:../DaisySP/Source/Utility/dsp.h ****     return expf(2.302585092994046f * f);
 111:../DaisySP/Source/Utility/dsp.h **** }
 112:../DaisySP/Source/Utility/dsp.h **** 
 113:../DaisySP/Source/Utility/dsp.h **** /* Original code for fastlog2f by Dr. Paul Beckmann from the ARM community forum, adapted from the 
 114:../DaisySP/Source/Utility/dsp.h **** About 25% performance increase over std::log10f
 115:../DaisySP/Source/Utility/dsp.h **** */
 116:../DaisySP/Source/Utility/dsp.h **** inline float fastlog2f(float f)
 117:../DaisySP/Source/Utility/dsp.h **** {
 118:../DaisySP/Source/Utility/dsp.h ****     float frac;
 119:../DaisySP/Source/Utility/dsp.h ****     int   exp;
 120:../DaisySP/Source/Utility/dsp.h ****     frac = frexpf(fabsf(f), &exp);
 121:../DaisySP/Source/Utility/dsp.h ****     f    = 1.23149591368684f;
 122:../DaisySP/Source/Utility/dsp.h ****     f *= frac;
 123:../DaisySP/Source/Utility/dsp.h ****     f += -4.11852516267426f;
 124:../DaisySP/Source/Utility/dsp.h ****     f *= frac;
 125:../DaisySP/Source/Utility/dsp.h ****     f += 6.02197014179219f;
 126:../DaisySP/Source/Utility/dsp.h ****     f *= frac;
 127:../DaisySP/Source/Utility/dsp.h ****     f += -3.13396450166353f;
 128:../DaisySP/Source/Utility/dsp.h ****     f += exp;
 129:../DaisySP/Source/Utility/dsp.h ****     return (f);
 130:../DaisySP/Source/Utility/dsp.h **** }
 131:../DaisySP/Source/Utility/dsp.h **** 
 132:../DaisySP/Source/Utility/dsp.h **** inline float fastlog10f(float f)
 133:../DaisySP/Source/Utility/dsp.h **** {
 134:../DaisySP/Source/Utility/dsp.h ****     return fastlog2f(f) * 0.3010299956639812f;
 135:../DaisySP/Source/Utility/dsp.h **** }
 136:../DaisySP/Source/Utility/dsp.h **** 
 137:../DaisySP/Source/Utility/dsp.h **** /** Midi to frequency helper
 138:../DaisySP/Source/Utility/dsp.h **** */
 139:../DaisySP/Source/Utility/dsp.h **** inline float mtof(float m)
 140:../DaisySP/Source/Utility/dsp.h **** {
 141:../DaisySP/Source/Utility/dsp.h ****     return powf(2, (m - 69.0f) / 12.0f) * 440.0f;
 142:../DaisySP/Source/Utility/dsp.h **** }
 143:../DaisySP/Source/Utility/dsp.h **** 
 144:../DaisySP/Source/Utility/dsp.h **** 
 145:../DaisySP/Source/Utility/dsp.h **** /** one pole lpf
 146:../DaisySP/Source/Utility/dsp.h **** out is passed by reference, and must be retained between
 147:../DaisySP/Source/Utility/dsp.h **** calls to properly filter the signal
 148:../DaisySP/Source/Utility/dsp.h **** coeff can be calculated:
 149:../DaisySP/Source/Utility/dsp.h **** coeff = 1.0 / (time * sample_rate) ; where time is in seconds
 150:../DaisySP/Source/Utility/dsp.h **** */
 151:../DaisySP/Source/Utility/dsp.h **** inline void fonepole(float &out, float in, float coeff)
 152:../DaisySP/Source/Utility/dsp.h **** {
 153:../DaisySP/Source/Utility/dsp.h ****     out += coeff * (in - out);
 154:../DaisySP/Source/Utility/dsp.h **** }
 155:../DaisySP/Source/Utility/dsp.h **** 
 156:../DaisySP/Source/Utility/dsp.h **** /** Curves to use with the fmap function */
ARM GAS  /var/folders/2p/02m_5p7958535cp2tpgps0400000gn/T//ccx9FAOt.s 			page 107


 157:../DaisySP/Source/Utility/dsp.h **** enum class Mapping
 158:../DaisySP/Source/Utility/dsp.h **** {
 159:../DaisySP/Source/Utility/dsp.h ****     LINEAR,
 160:../DaisySP/Source/Utility/dsp.h ****     EXP,
 161:../DaisySP/Source/Utility/dsp.h ****     LOG,
 162:../DaisySP/Source/Utility/dsp.h **** };
 163:../DaisySP/Source/Utility/dsp.h **** 
 164:../DaisySP/Source/Utility/dsp.h **** /** Maps a float between a specified range, using a specified curve.
 165:../DaisySP/Source/Utility/dsp.h ****  *
 166:../DaisySP/Source/Utility/dsp.h ****  *  \param in a value between 0 to 1 that will be mapped to the new range.
 167:../DaisySP/Source/Utility/dsp.h ****  *  \param min the new minimum value
 168:../DaisySP/Source/Utility/dsp.h ****  *  \param max the new maxmimum value
 169:../DaisySP/Source/Utility/dsp.h ****  *  \param curve a Mapping Value to adjust the response curve of the transformation
 170:../DaisySP/Source/Utility/dsp.h ****  *               defaults to Linear. @see Mapping
 171:../DaisySP/Source/Utility/dsp.h ****  *
 172:../DaisySP/Source/Utility/dsp.h ****  *  When using the log curve min and max, must be greater than zero.
 173:../DaisySP/Source/Utility/dsp.h ****  *
 174:../DaisySP/Source/Utility/dsp.h ****  *  \retval returns the transformed float within the new range.
 175:../DaisySP/Source/Utility/dsp.h **** */
 176:../DaisySP/Source/Utility/dsp.h **** inline float
 177:../DaisySP/Source/Utility/dsp.h **** fmap(float in, float min, float max, Mapping curve = Mapping::LINEAR)
 3482              		.loc 14 177 1 view .LVU948
 3483              	.LBE809:
 178:../DaisySP/Source/Utility/dsp.h **** {
 179:../DaisySP/Source/Utility/dsp.h ****     switch(curve)
 3484              		.loc 14 179 5 view .LVU949
 3485              	.LBB819:
 3486              	.LBB810:
 180:../DaisySP/Source/Utility/dsp.h ****     {
 181:../DaisySP/Source/Utility/dsp.h ****         case Mapping::EXP:
 182:../DaisySP/Source/Utility/dsp.h ****             return fclamp(min + (in * in) * (max - min), min, max);
 183:../DaisySP/Source/Utility/dsp.h ****         case Mapping::LOG:
 184:../DaisySP/Source/Utility/dsp.h ****         {
 185:../DaisySP/Source/Utility/dsp.h ****             const float a = 1.f / log10f(max / min);
 186:../DaisySP/Source/Utility/dsp.h ****             return fclamp(min * powf(10, in / a), min, max);
 187:../DaisySP/Source/Utility/dsp.h ****         }
 188:../DaisySP/Source/Utility/dsp.h ****         case Mapping::LINEAR:
 3487              		.loc 14 188 9 view .LVU950
 189:../DaisySP/Source/Utility/dsp.h ****         default: return fclamp(min + in * (max - min), min, max);
 3488              		.loc 14 189 9 view .LVU951
 3489              		.loc 14 189 18 view .LVU952
 3490              		.loc 14 189 31 is_stmt 0 view .LVU953
 3491 0044 9FED238A 		vldr.32	s16, .L144
 3492 0048 B1EE007A 		vmov.f32	s14, #4.0e+0
 3493              	.LBE810:
 3494              	.LBE819:
 3495              	.LBB820:
 3496              	.LBB821:
 3497              		.loc 5 128 23 view .LVU954
 3498 004c 2248     		ldr	r0, .L144+4
 3499              	.LVL250:
 3500              		.loc 5 128 23 view .LVU955
 3501              	.LBE821:
 3502              	.LBE820:
 3503              	.LBB823:
 3504              	.LBB817:
 3505              		.loc 14 189 31 view .LVU956
ARM GAS  /var/folders/2p/02m_5p7958535cp2tpgps0400000gn/T//ccx9FAOt.s 			page 108


 3506 004e F0EE487A 		vmov.f32	s15, s16
 3507 0052 E0EE077A 		vfma.f32	s15, s0, s14
 3508              	.LVL251:
 3509              	.LBB811:
 3510              	.LBI811:
  64:../DaisySP/Source/Utility/dsp.h **** {
 3511              		.loc 14 64 14 is_stmt 1 view .LVU957
 3512              	.LBE811:
 3513              	.LBE817:
 3514              	.LBE823:
  66:../DaisySP/Source/Utility/dsp.h **** }
 3515              		.loc 14 66 5 view .LVU958
 3516              	.LBB824:
 3517              	.LBB818:
 3518              	.LBB816:
 3519              	.LBB812:
 3520              	.LBI812:
  40:../DaisySP/Source/Utility/dsp.h **** {
 3521              		.loc 14 40 14 view .LVU959
 3522              	.LBB813:
  42:../DaisySP/Source/Utility/dsp.h **** #ifdef __arm__
 3523              		.loc 14 42 5 view .LVU960
  44:../DaisySP/Source/Utility/dsp.h **** #else
 3524              		.loc 14 44 5 view .LVU961
 3525              		.syntax unified
 3526              	@ 44 "../DaisySP/Source/Utility/dsp.h" 1
 3527 0056 87FE888A 		vmaxnm.f32 s16, s15, s16
 3528              	@ 0 "" 2
 3529              	.LVL252:
  48:../DaisySP/Source/Utility/dsp.h **** }
 3530              		.loc 14 48 5 view .LVU962
  48:../DaisySP/Source/Utility/dsp.h **** }
 3531              		.loc 14 48 5 is_stmt 0 view .LVU963
 3532              		.thumb
 3533              		.syntax unified
 3534              	.LBE813:
 3535              	.LBE812:
 3536              	.LBB814:
 3537              	.LBI814:
  51:../DaisySP/Source/Utility/dsp.h **** {
 3538              		.loc 14 51 14 is_stmt 1 view .LVU964
 3539              	.LBB815:
  53:../DaisySP/Source/Utility/dsp.h **** #ifdef __arm__
 3540              		.loc 14 53 5 view .LVU965
  55:../DaisySP/Source/Utility/dsp.h **** #else
 3541              		.loc 14 55 5 view .LVU966
 3542              		.syntax unified
 3543              	@ 55 "../DaisySP/Source/Utility/dsp.h" 1
 3544 005a 88FE478A 		vminnm.f32 s16, s16, s14
 3545              	@ 0 "" 2
 3546              	.LVL253:
  59:../DaisySP/Source/Utility/dsp.h **** }
 3547              		.loc 14 59 5 view .LVU967
  59:../DaisySP/Source/Utility/dsp.h **** }
 3548              		.loc 14 59 5 is_stmt 0 view .LVU968
 3549              		.thumb
 3550              		.syntax unified
ARM GAS  /var/folders/2p/02m_5p7958535cp2tpgps0400000gn/T//ccx9FAOt.s 			page 109


 3551              	.LBE815:
 3552              	.LBE814:
 3553              	.LBE816:
 3554              	.LBE818:
 3555              	.LBE824:
 3556              	.LBB825:
 3557              	.LBI825:
 3558              		.file 15 "/Library/DaisyToolchain/0.2.0/arm/arm-none-eabi/include/c++/10.3.1/cmath"
   1:/Library/DaisyToolchain/0.2.0/arm/arm-none-eabi/include/c++/10.3.1/cmath **** // -*- C++ -*- C forwarding header.
   2:/Library/DaisyToolchain/0.2.0/arm/arm-none-eabi/include/c++/10.3.1/cmath **** 
   3:/Library/DaisyToolchain/0.2.0/arm/arm-none-eabi/include/c++/10.3.1/cmath **** // Copyright (C) 1997-2020 Free Software Foundation, Inc.
   4:/Library/DaisyToolchain/0.2.0/arm/arm-none-eabi/include/c++/10.3.1/cmath **** //
   5:/Library/DaisyToolchain/0.2.0/arm/arm-none-eabi/include/c++/10.3.1/cmath **** // This file is part of the GNU ISO C++ Library.  This library is free
   6:/Library/DaisyToolchain/0.2.0/arm/arm-none-eabi/include/c++/10.3.1/cmath **** // software; you can redistribute it and/or modify it under the
   7:/Library/DaisyToolchain/0.2.0/arm/arm-none-eabi/include/c++/10.3.1/cmath **** // terms of the GNU General Public License as published by the
   8:/Library/DaisyToolchain/0.2.0/arm/arm-none-eabi/include/c++/10.3.1/cmath **** // Free Software Foundation; either version 3, or (at your option)
   9:/Library/DaisyToolchain/0.2.0/arm/arm-none-eabi/include/c++/10.3.1/cmath **** // any later version.
  10:/Library/DaisyToolchain/0.2.0/arm/arm-none-eabi/include/c++/10.3.1/cmath **** 
  11:/Library/DaisyToolchain/0.2.0/arm/arm-none-eabi/include/c++/10.3.1/cmath **** // This library is distributed in the hope that it will be useful,
  12:/Library/DaisyToolchain/0.2.0/arm/arm-none-eabi/include/c++/10.3.1/cmath **** // but WITHOUT ANY WARRANTY; without even the implied warranty of
  13:/Library/DaisyToolchain/0.2.0/arm/arm-none-eabi/include/c++/10.3.1/cmath **** // MERCHANTABILITY or FITNESS FOR A PARTICULAR PURPOSE.  See the
  14:/Library/DaisyToolchain/0.2.0/arm/arm-none-eabi/include/c++/10.3.1/cmath **** // GNU General Public License for more details.
  15:/Library/DaisyToolchain/0.2.0/arm/arm-none-eabi/include/c++/10.3.1/cmath **** 
  16:/Library/DaisyToolchain/0.2.0/arm/arm-none-eabi/include/c++/10.3.1/cmath **** // Under Section 7 of GPL version 3, you are granted additional
  17:/Library/DaisyToolchain/0.2.0/arm/arm-none-eabi/include/c++/10.3.1/cmath **** // permissions described in the GCC Runtime Library Exception, version
  18:/Library/DaisyToolchain/0.2.0/arm/arm-none-eabi/include/c++/10.3.1/cmath **** // 3.1, as published by the Free Software Foundation.
  19:/Library/DaisyToolchain/0.2.0/arm/arm-none-eabi/include/c++/10.3.1/cmath **** 
  20:/Library/DaisyToolchain/0.2.0/arm/arm-none-eabi/include/c++/10.3.1/cmath **** // You should have received a copy of the GNU General Public License and
  21:/Library/DaisyToolchain/0.2.0/arm/arm-none-eabi/include/c++/10.3.1/cmath **** // a copy of the GCC Runtime Library Exception along with this program;
  22:/Library/DaisyToolchain/0.2.0/arm/arm-none-eabi/include/c++/10.3.1/cmath **** // see the files COPYING3 and COPYING.RUNTIME respectively.  If not, see
  23:/Library/DaisyToolchain/0.2.0/arm/arm-none-eabi/include/c++/10.3.1/cmath **** // <http://www.gnu.org/licenses/>.
  24:/Library/DaisyToolchain/0.2.0/arm/arm-none-eabi/include/c++/10.3.1/cmath **** 
  25:/Library/DaisyToolchain/0.2.0/arm/arm-none-eabi/include/c++/10.3.1/cmath **** /** @file include/cmath
  26:/Library/DaisyToolchain/0.2.0/arm/arm-none-eabi/include/c++/10.3.1/cmath ****  *  This is a Standard C++ Library file.  You should @c \#include this file
  27:/Library/DaisyToolchain/0.2.0/arm/arm-none-eabi/include/c++/10.3.1/cmath ****  *  in your programs, rather than any of the @a *.h implementation files.
  28:/Library/DaisyToolchain/0.2.0/arm/arm-none-eabi/include/c++/10.3.1/cmath ****  *
  29:/Library/DaisyToolchain/0.2.0/arm/arm-none-eabi/include/c++/10.3.1/cmath ****  *  This is the C++ version of the Standard C Library header @c math.h,
  30:/Library/DaisyToolchain/0.2.0/arm/arm-none-eabi/include/c++/10.3.1/cmath ****  *  and its contents are (mostly) the same as that header, but are all
  31:/Library/DaisyToolchain/0.2.0/arm/arm-none-eabi/include/c++/10.3.1/cmath ****  *  contained in the namespace @c std (except for names which are defined
  32:/Library/DaisyToolchain/0.2.0/arm/arm-none-eabi/include/c++/10.3.1/cmath ****  *  as macros in C).
  33:/Library/DaisyToolchain/0.2.0/arm/arm-none-eabi/include/c++/10.3.1/cmath ****  */
  34:/Library/DaisyToolchain/0.2.0/arm/arm-none-eabi/include/c++/10.3.1/cmath **** 
  35:/Library/DaisyToolchain/0.2.0/arm/arm-none-eabi/include/c++/10.3.1/cmath **** //
  36:/Library/DaisyToolchain/0.2.0/arm/arm-none-eabi/include/c++/10.3.1/cmath **** // ISO C++ 14882: 26.5  C library
  37:/Library/DaisyToolchain/0.2.0/arm/arm-none-eabi/include/c++/10.3.1/cmath **** //
  38:/Library/DaisyToolchain/0.2.0/arm/arm-none-eabi/include/c++/10.3.1/cmath **** 
  39:/Library/DaisyToolchain/0.2.0/arm/arm-none-eabi/include/c++/10.3.1/cmath **** #pragma GCC system_header
  40:/Library/DaisyToolchain/0.2.0/arm/arm-none-eabi/include/c++/10.3.1/cmath **** 
  41:/Library/DaisyToolchain/0.2.0/arm/arm-none-eabi/include/c++/10.3.1/cmath **** #include <bits/c++config.h>
  42:/Library/DaisyToolchain/0.2.0/arm/arm-none-eabi/include/c++/10.3.1/cmath **** #include <bits/cpp_type_traits.h>
  43:/Library/DaisyToolchain/0.2.0/arm/arm-none-eabi/include/c++/10.3.1/cmath **** #include <ext/type_traits.h>
  44:/Library/DaisyToolchain/0.2.0/arm/arm-none-eabi/include/c++/10.3.1/cmath **** #define _GLIBCXX_INCLUDE_NEXT_C_HEADERS
  45:/Library/DaisyToolchain/0.2.0/arm/arm-none-eabi/include/c++/10.3.1/cmath **** #include_next <math.h>
  46:/Library/DaisyToolchain/0.2.0/arm/arm-none-eabi/include/c++/10.3.1/cmath **** #undef _GLIBCXX_INCLUDE_NEXT_C_HEADERS
  47:/Library/DaisyToolchain/0.2.0/arm/arm-none-eabi/include/c++/10.3.1/cmath **** #include <bits/std_abs.h>
  48:/Library/DaisyToolchain/0.2.0/arm/arm-none-eabi/include/c++/10.3.1/cmath **** 
  49:/Library/DaisyToolchain/0.2.0/arm/arm-none-eabi/include/c++/10.3.1/cmath **** #ifndef _GLIBCXX_CMATH
ARM GAS  /var/folders/2p/02m_5p7958535cp2tpgps0400000gn/T//ccx9FAOt.s 			page 110


  50:/Library/DaisyToolchain/0.2.0/arm/arm-none-eabi/include/c++/10.3.1/cmath **** #define _GLIBCXX_CMATH 1
  51:/Library/DaisyToolchain/0.2.0/arm/arm-none-eabi/include/c++/10.3.1/cmath **** 
  52:/Library/DaisyToolchain/0.2.0/arm/arm-none-eabi/include/c++/10.3.1/cmath **** // Get rid of those macros defined in <math.h> in lieu of real functions.
  53:/Library/DaisyToolchain/0.2.0/arm/arm-none-eabi/include/c++/10.3.1/cmath **** #undef div
  54:/Library/DaisyToolchain/0.2.0/arm/arm-none-eabi/include/c++/10.3.1/cmath **** #undef acos
  55:/Library/DaisyToolchain/0.2.0/arm/arm-none-eabi/include/c++/10.3.1/cmath **** #undef asin
  56:/Library/DaisyToolchain/0.2.0/arm/arm-none-eabi/include/c++/10.3.1/cmath **** #undef atan
  57:/Library/DaisyToolchain/0.2.0/arm/arm-none-eabi/include/c++/10.3.1/cmath **** #undef atan2
  58:/Library/DaisyToolchain/0.2.0/arm/arm-none-eabi/include/c++/10.3.1/cmath **** #undef ceil
  59:/Library/DaisyToolchain/0.2.0/arm/arm-none-eabi/include/c++/10.3.1/cmath **** #undef cos
  60:/Library/DaisyToolchain/0.2.0/arm/arm-none-eabi/include/c++/10.3.1/cmath **** #undef cosh
  61:/Library/DaisyToolchain/0.2.0/arm/arm-none-eabi/include/c++/10.3.1/cmath **** #undef exp
  62:/Library/DaisyToolchain/0.2.0/arm/arm-none-eabi/include/c++/10.3.1/cmath **** #undef fabs
  63:/Library/DaisyToolchain/0.2.0/arm/arm-none-eabi/include/c++/10.3.1/cmath **** #undef floor
  64:/Library/DaisyToolchain/0.2.0/arm/arm-none-eabi/include/c++/10.3.1/cmath **** #undef fmod
  65:/Library/DaisyToolchain/0.2.0/arm/arm-none-eabi/include/c++/10.3.1/cmath **** #undef frexp
  66:/Library/DaisyToolchain/0.2.0/arm/arm-none-eabi/include/c++/10.3.1/cmath **** #undef ldexp
  67:/Library/DaisyToolchain/0.2.0/arm/arm-none-eabi/include/c++/10.3.1/cmath **** #undef log
  68:/Library/DaisyToolchain/0.2.0/arm/arm-none-eabi/include/c++/10.3.1/cmath **** #undef log10
  69:/Library/DaisyToolchain/0.2.0/arm/arm-none-eabi/include/c++/10.3.1/cmath **** #undef modf
  70:/Library/DaisyToolchain/0.2.0/arm/arm-none-eabi/include/c++/10.3.1/cmath **** #undef pow
  71:/Library/DaisyToolchain/0.2.0/arm/arm-none-eabi/include/c++/10.3.1/cmath **** #undef sin
  72:/Library/DaisyToolchain/0.2.0/arm/arm-none-eabi/include/c++/10.3.1/cmath **** #undef sinh
  73:/Library/DaisyToolchain/0.2.0/arm/arm-none-eabi/include/c++/10.3.1/cmath **** #undef sqrt
  74:/Library/DaisyToolchain/0.2.0/arm/arm-none-eabi/include/c++/10.3.1/cmath **** #undef tan
  75:/Library/DaisyToolchain/0.2.0/arm/arm-none-eabi/include/c++/10.3.1/cmath **** #undef tanh
  76:/Library/DaisyToolchain/0.2.0/arm/arm-none-eabi/include/c++/10.3.1/cmath **** 
  77:/Library/DaisyToolchain/0.2.0/arm/arm-none-eabi/include/c++/10.3.1/cmath **** extern "C++"
  78:/Library/DaisyToolchain/0.2.0/arm/arm-none-eabi/include/c++/10.3.1/cmath **** {
  79:/Library/DaisyToolchain/0.2.0/arm/arm-none-eabi/include/c++/10.3.1/cmath **** namespace std _GLIBCXX_VISIBILITY(default)
  80:/Library/DaisyToolchain/0.2.0/arm/arm-none-eabi/include/c++/10.3.1/cmath **** {
  81:/Library/DaisyToolchain/0.2.0/arm/arm-none-eabi/include/c++/10.3.1/cmath **** _GLIBCXX_BEGIN_NAMESPACE_VERSION
  82:/Library/DaisyToolchain/0.2.0/arm/arm-none-eabi/include/c++/10.3.1/cmath **** 
  83:/Library/DaisyToolchain/0.2.0/arm/arm-none-eabi/include/c++/10.3.1/cmath ****   using ::acos;
  84:/Library/DaisyToolchain/0.2.0/arm/arm-none-eabi/include/c++/10.3.1/cmath **** 
  85:/Library/DaisyToolchain/0.2.0/arm/arm-none-eabi/include/c++/10.3.1/cmath **** #ifndef __CORRECT_ISO_CPP_MATH_H_PROTO
  86:/Library/DaisyToolchain/0.2.0/arm/arm-none-eabi/include/c++/10.3.1/cmath ****   inline _GLIBCXX_CONSTEXPR float
  87:/Library/DaisyToolchain/0.2.0/arm/arm-none-eabi/include/c++/10.3.1/cmath ****   acos(float __x)
  88:/Library/DaisyToolchain/0.2.0/arm/arm-none-eabi/include/c++/10.3.1/cmath ****   { return __builtin_acosf(__x); }
  89:/Library/DaisyToolchain/0.2.0/arm/arm-none-eabi/include/c++/10.3.1/cmath **** 
  90:/Library/DaisyToolchain/0.2.0/arm/arm-none-eabi/include/c++/10.3.1/cmath ****   inline _GLIBCXX_CONSTEXPR long double
  91:/Library/DaisyToolchain/0.2.0/arm/arm-none-eabi/include/c++/10.3.1/cmath ****   acos(long double __x)
  92:/Library/DaisyToolchain/0.2.0/arm/arm-none-eabi/include/c++/10.3.1/cmath ****   { return __builtin_acosl(__x); }
  93:/Library/DaisyToolchain/0.2.0/arm/arm-none-eabi/include/c++/10.3.1/cmath **** #endif
  94:/Library/DaisyToolchain/0.2.0/arm/arm-none-eabi/include/c++/10.3.1/cmath **** 
  95:/Library/DaisyToolchain/0.2.0/arm/arm-none-eabi/include/c++/10.3.1/cmath ****   template<typename _Tp>
  96:/Library/DaisyToolchain/0.2.0/arm/arm-none-eabi/include/c++/10.3.1/cmath ****     inline _GLIBCXX_CONSTEXPR
  97:/Library/DaisyToolchain/0.2.0/arm/arm-none-eabi/include/c++/10.3.1/cmath ****     typename __gnu_cxx::__enable_if<__is_integer<_Tp>::__value, 
  98:/Library/DaisyToolchain/0.2.0/arm/arm-none-eabi/include/c++/10.3.1/cmath ****                                     double>::__type
  99:/Library/DaisyToolchain/0.2.0/arm/arm-none-eabi/include/c++/10.3.1/cmath ****     acos(_Tp __x)
 100:/Library/DaisyToolchain/0.2.0/arm/arm-none-eabi/include/c++/10.3.1/cmath ****     { return __builtin_acos(__x); }
 101:/Library/DaisyToolchain/0.2.0/arm/arm-none-eabi/include/c++/10.3.1/cmath **** 
 102:/Library/DaisyToolchain/0.2.0/arm/arm-none-eabi/include/c++/10.3.1/cmath ****   using ::asin;
 103:/Library/DaisyToolchain/0.2.0/arm/arm-none-eabi/include/c++/10.3.1/cmath **** 
 104:/Library/DaisyToolchain/0.2.0/arm/arm-none-eabi/include/c++/10.3.1/cmath **** #ifndef __CORRECT_ISO_CPP_MATH_H_PROTO
 105:/Library/DaisyToolchain/0.2.0/arm/arm-none-eabi/include/c++/10.3.1/cmath ****   inline _GLIBCXX_CONSTEXPR float
 106:/Library/DaisyToolchain/0.2.0/arm/arm-none-eabi/include/c++/10.3.1/cmath ****   asin(float __x)
ARM GAS  /var/folders/2p/02m_5p7958535cp2tpgps0400000gn/T//ccx9FAOt.s 			page 111


 107:/Library/DaisyToolchain/0.2.0/arm/arm-none-eabi/include/c++/10.3.1/cmath ****   { return __builtin_asinf(__x); }
 108:/Library/DaisyToolchain/0.2.0/arm/arm-none-eabi/include/c++/10.3.1/cmath **** 
 109:/Library/DaisyToolchain/0.2.0/arm/arm-none-eabi/include/c++/10.3.1/cmath ****   inline _GLIBCXX_CONSTEXPR long double
 110:/Library/DaisyToolchain/0.2.0/arm/arm-none-eabi/include/c++/10.3.1/cmath ****   asin(long double __x)
 111:/Library/DaisyToolchain/0.2.0/arm/arm-none-eabi/include/c++/10.3.1/cmath ****   { return __builtin_asinl(__x); }
 112:/Library/DaisyToolchain/0.2.0/arm/arm-none-eabi/include/c++/10.3.1/cmath **** #endif
 113:/Library/DaisyToolchain/0.2.0/arm/arm-none-eabi/include/c++/10.3.1/cmath **** 
 114:/Library/DaisyToolchain/0.2.0/arm/arm-none-eabi/include/c++/10.3.1/cmath ****   template<typename _Tp>
 115:/Library/DaisyToolchain/0.2.0/arm/arm-none-eabi/include/c++/10.3.1/cmath ****     inline _GLIBCXX_CONSTEXPR
 116:/Library/DaisyToolchain/0.2.0/arm/arm-none-eabi/include/c++/10.3.1/cmath ****     typename __gnu_cxx::__enable_if<__is_integer<_Tp>::__value,
 117:/Library/DaisyToolchain/0.2.0/arm/arm-none-eabi/include/c++/10.3.1/cmath ****                                     double>::__type
 118:/Library/DaisyToolchain/0.2.0/arm/arm-none-eabi/include/c++/10.3.1/cmath ****     asin(_Tp __x)
 119:/Library/DaisyToolchain/0.2.0/arm/arm-none-eabi/include/c++/10.3.1/cmath ****     { return __builtin_asin(__x); }
 120:/Library/DaisyToolchain/0.2.0/arm/arm-none-eabi/include/c++/10.3.1/cmath **** 
 121:/Library/DaisyToolchain/0.2.0/arm/arm-none-eabi/include/c++/10.3.1/cmath ****   using ::atan;
 122:/Library/DaisyToolchain/0.2.0/arm/arm-none-eabi/include/c++/10.3.1/cmath **** 
 123:/Library/DaisyToolchain/0.2.0/arm/arm-none-eabi/include/c++/10.3.1/cmath **** #ifndef __CORRECT_ISO_CPP_MATH_H_PROTO
 124:/Library/DaisyToolchain/0.2.0/arm/arm-none-eabi/include/c++/10.3.1/cmath ****   inline _GLIBCXX_CONSTEXPR float
 125:/Library/DaisyToolchain/0.2.0/arm/arm-none-eabi/include/c++/10.3.1/cmath ****   atan(float __x)
 126:/Library/DaisyToolchain/0.2.0/arm/arm-none-eabi/include/c++/10.3.1/cmath ****   { return __builtin_atanf(__x); }
 127:/Library/DaisyToolchain/0.2.0/arm/arm-none-eabi/include/c++/10.3.1/cmath **** 
 128:/Library/DaisyToolchain/0.2.0/arm/arm-none-eabi/include/c++/10.3.1/cmath ****   inline _GLIBCXX_CONSTEXPR long double
 129:/Library/DaisyToolchain/0.2.0/arm/arm-none-eabi/include/c++/10.3.1/cmath ****   atan(long double __x)
 130:/Library/DaisyToolchain/0.2.0/arm/arm-none-eabi/include/c++/10.3.1/cmath ****   { return __builtin_atanl(__x); }
 131:/Library/DaisyToolchain/0.2.0/arm/arm-none-eabi/include/c++/10.3.1/cmath **** #endif
 132:/Library/DaisyToolchain/0.2.0/arm/arm-none-eabi/include/c++/10.3.1/cmath **** 
 133:/Library/DaisyToolchain/0.2.0/arm/arm-none-eabi/include/c++/10.3.1/cmath ****   template<typename _Tp>
 134:/Library/DaisyToolchain/0.2.0/arm/arm-none-eabi/include/c++/10.3.1/cmath ****     inline _GLIBCXX_CONSTEXPR
 135:/Library/DaisyToolchain/0.2.0/arm/arm-none-eabi/include/c++/10.3.1/cmath ****     typename __gnu_cxx::__enable_if<__is_integer<_Tp>::__value,
 136:/Library/DaisyToolchain/0.2.0/arm/arm-none-eabi/include/c++/10.3.1/cmath ****                                     double>::__type
 137:/Library/DaisyToolchain/0.2.0/arm/arm-none-eabi/include/c++/10.3.1/cmath ****     atan(_Tp __x)
 138:/Library/DaisyToolchain/0.2.0/arm/arm-none-eabi/include/c++/10.3.1/cmath ****     { return __builtin_atan(__x); }
 139:/Library/DaisyToolchain/0.2.0/arm/arm-none-eabi/include/c++/10.3.1/cmath **** 
 140:/Library/DaisyToolchain/0.2.0/arm/arm-none-eabi/include/c++/10.3.1/cmath ****   using ::atan2;
 141:/Library/DaisyToolchain/0.2.0/arm/arm-none-eabi/include/c++/10.3.1/cmath **** 
 142:/Library/DaisyToolchain/0.2.0/arm/arm-none-eabi/include/c++/10.3.1/cmath **** #ifndef __CORRECT_ISO_CPP_MATH_H_PROTO
 143:/Library/DaisyToolchain/0.2.0/arm/arm-none-eabi/include/c++/10.3.1/cmath ****   inline _GLIBCXX_CONSTEXPR float
 144:/Library/DaisyToolchain/0.2.0/arm/arm-none-eabi/include/c++/10.3.1/cmath ****   atan2(float __y, float __x)
 145:/Library/DaisyToolchain/0.2.0/arm/arm-none-eabi/include/c++/10.3.1/cmath ****   { return __builtin_atan2f(__y, __x); }
 146:/Library/DaisyToolchain/0.2.0/arm/arm-none-eabi/include/c++/10.3.1/cmath **** 
 147:/Library/DaisyToolchain/0.2.0/arm/arm-none-eabi/include/c++/10.3.1/cmath ****   inline _GLIBCXX_CONSTEXPR long double
 148:/Library/DaisyToolchain/0.2.0/arm/arm-none-eabi/include/c++/10.3.1/cmath ****   atan2(long double __y, long double __x)
 149:/Library/DaisyToolchain/0.2.0/arm/arm-none-eabi/include/c++/10.3.1/cmath ****   { return __builtin_atan2l(__y, __x); }
 150:/Library/DaisyToolchain/0.2.0/arm/arm-none-eabi/include/c++/10.3.1/cmath **** #endif
 151:/Library/DaisyToolchain/0.2.0/arm/arm-none-eabi/include/c++/10.3.1/cmath **** 
 152:/Library/DaisyToolchain/0.2.0/arm/arm-none-eabi/include/c++/10.3.1/cmath ****   template<typename _Tp, typename _Up>
 153:/Library/DaisyToolchain/0.2.0/arm/arm-none-eabi/include/c++/10.3.1/cmath ****     inline _GLIBCXX_CONSTEXPR
 154:/Library/DaisyToolchain/0.2.0/arm/arm-none-eabi/include/c++/10.3.1/cmath ****     typename __gnu_cxx::__promote_2<_Tp, _Up>::__type
 155:/Library/DaisyToolchain/0.2.0/arm/arm-none-eabi/include/c++/10.3.1/cmath ****     atan2(_Tp __y, _Up __x)
 156:/Library/DaisyToolchain/0.2.0/arm/arm-none-eabi/include/c++/10.3.1/cmath ****     {
 157:/Library/DaisyToolchain/0.2.0/arm/arm-none-eabi/include/c++/10.3.1/cmath ****       typedef typename __gnu_cxx::__promote_2<_Tp, _Up>::__type __type;
 158:/Library/DaisyToolchain/0.2.0/arm/arm-none-eabi/include/c++/10.3.1/cmath ****       return atan2(__type(__y), __type(__x));
 159:/Library/DaisyToolchain/0.2.0/arm/arm-none-eabi/include/c++/10.3.1/cmath ****     }
 160:/Library/DaisyToolchain/0.2.0/arm/arm-none-eabi/include/c++/10.3.1/cmath **** 
 161:/Library/DaisyToolchain/0.2.0/arm/arm-none-eabi/include/c++/10.3.1/cmath ****   using ::ceil;
 162:/Library/DaisyToolchain/0.2.0/arm/arm-none-eabi/include/c++/10.3.1/cmath **** 
 163:/Library/DaisyToolchain/0.2.0/arm/arm-none-eabi/include/c++/10.3.1/cmath **** #ifndef __CORRECT_ISO_CPP_MATH_H_PROTO
ARM GAS  /var/folders/2p/02m_5p7958535cp2tpgps0400000gn/T//ccx9FAOt.s 			page 112


 164:/Library/DaisyToolchain/0.2.0/arm/arm-none-eabi/include/c++/10.3.1/cmath ****   inline _GLIBCXX_CONSTEXPR float
 165:/Library/DaisyToolchain/0.2.0/arm/arm-none-eabi/include/c++/10.3.1/cmath ****   ceil(float __x)
 166:/Library/DaisyToolchain/0.2.0/arm/arm-none-eabi/include/c++/10.3.1/cmath ****   { return __builtin_ceilf(__x); }
 167:/Library/DaisyToolchain/0.2.0/arm/arm-none-eabi/include/c++/10.3.1/cmath **** 
 168:/Library/DaisyToolchain/0.2.0/arm/arm-none-eabi/include/c++/10.3.1/cmath ****   inline _GLIBCXX_CONSTEXPR long double
 169:/Library/DaisyToolchain/0.2.0/arm/arm-none-eabi/include/c++/10.3.1/cmath ****   ceil(long double __x)
 170:/Library/DaisyToolchain/0.2.0/arm/arm-none-eabi/include/c++/10.3.1/cmath ****   { return __builtin_ceill(__x); }
 171:/Library/DaisyToolchain/0.2.0/arm/arm-none-eabi/include/c++/10.3.1/cmath **** #endif
 172:/Library/DaisyToolchain/0.2.0/arm/arm-none-eabi/include/c++/10.3.1/cmath **** 
 173:/Library/DaisyToolchain/0.2.0/arm/arm-none-eabi/include/c++/10.3.1/cmath ****   template<typename _Tp>
 174:/Library/DaisyToolchain/0.2.0/arm/arm-none-eabi/include/c++/10.3.1/cmath ****     inline _GLIBCXX_CONSTEXPR
 175:/Library/DaisyToolchain/0.2.0/arm/arm-none-eabi/include/c++/10.3.1/cmath ****     typename __gnu_cxx::__enable_if<__is_integer<_Tp>::__value, 
 176:/Library/DaisyToolchain/0.2.0/arm/arm-none-eabi/include/c++/10.3.1/cmath ****                                     double>::__type
 177:/Library/DaisyToolchain/0.2.0/arm/arm-none-eabi/include/c++/10.3.1/cmath ****     ceil(_Tp __x)
 178:/Library/DaisyToolchain/0.2.0/arm/arm-none-eabi/include/c++/10.3.1/cmath ****     { return __builtin_ceil(__x); }
 179:/Library/DaisyToolchain/0.2.0/arm/arm-none-eabi/include/c++/10.3.1/cmath **** 
 180:/Library/DaisyToolchain/0.2.0/arm/arm-none-eabi/include/c++/10.3.1/cmath ****   using ::cos;
 181:/Library/DaisyToolchain/0.2.0/arm/arm-none-eabi/include/c++/10.3.1/cmath **** 
 182:/Library/DaisyToolchain/0.2.0/arm/arm-none-eabi/include/c++/10.3.1/cmath **** #ifndef __CORRECT_ISO_CPP_MATH_H_PROTO
 183:/Library/DaisyToolchain/0.2.0/arm/arm-none-eabi/include/c++/10.3.1/cmath ****   inline _GLIBCXX_CONSTEXPR float
 184:/Library/DaisyToolchain/0.2.0/arm/arm-none-eabi/include/c++/10.3.1/cmath ****   cos(float __x)
 185:/Library/DaisyToolchain/0.2.0/arm/arm-none-eabi/include/c++/10.3.1/cmath ****   { return __builtin_cosf(__x); }
 186:/Library/DaisyToolchain/0.2.0/arm/arm-none-eabi/include/c++/10.3.1/cmath **** 
 187:/Library/DaisyToolchain/0.2.0/arm/arm-none-eabi/include/c++/10.3.1/cmath ****   inline _GLIBCXX_CONSTEXPR long double
 188:/Library/DaisyToolchain/0.2.0/arm/arm-none-eabi/include/c++/10.3.1/cmath ****   cos(long double __x)
 189:/Library/DaisyToolchain/0.2.0/arm/arm-none-eabi/include/c++/10.3.1/cmath ****   { return __builtin_cosl(__x); }
 190:/Library/DaisyToolchain/0.2.0/arm/arm-none-eabi/include/c++/10.3.1/cmath **** #endif
 191:/Library/DaisyToolchain/0.2.0/arm/arm-none-eabi/include/c++/10.3.1/cmath **** 
 192:/Library/DaisyToolchain/0.2.0/arm/arm-none-eabi/include/c++/10.3.1/cmath ****   template<typename _Tp>
 193:/Library/DaisyToolchain/0.2.0/arm/arm-none-eabi/include/c++/10.3.1/cmath ****     inline _GLIBCXX_CONSTEXPR
 194:/Library/DaisyToolchain/0.2.0/arm/arm-none-eabi/include/c++/10.3.1/cmath ****     typename __gnu_cxx::__enable_if<__is_integer<_Tp>::__value,
 195:/Library/DaisyToolchain/0.2.0/arm/arm-none-eabi/include/c++/10.3.1/cmath ****                                     double>::__type
 196:/Library/DaisyToolchain/0.2.0/arm/arm-none-eabi/include/c++/10.3.1/cmath ****     cos(_Tp __x)
 197:/Library/DaisyToolchain/0.2.0/arm/arm-none-eabi/include/c++/10.3.1/cmath ****     { return __builtin_cos(__x); }
 198:/Library/DaisyToolchain/0.2.0/arm/arm-none-eabi/include/c++/10.3.1/cmath **** 
 199:/Library/DaisyToolchain/0.2.0/arm/arm-none-eabi/include/c++/10.3.1/cmath ****   using ::cosh;
 200:/Library/DaisyToolchain/0.2.0/arm/arm-none-eabi/include/c++/10.3.1/cmath **** 
 201:/Library/DaisyToolchain/0.2.0/arm/arm-none-eabi/include/c++/10.3.1/cmath **** #ifndef __CORRECT_ISO_CPP_MATH_H_PROTO
 202:/Library/DaisyToolchain/0.2.0/arm/arm-none-eabi/include/c++/10.3.1/cmath ****   inline _GLIBCXX_CONSTEXPR float
 203:/Library/DaisyToolchain/0.2.0/arm/arm-none-eabi/include/c++/10.3.1/cmath ****   cosh(float __x)
 204:/Library/DaisyToolchain/0.2.0/arm/arm-none-eabi/include/c++/10.3.1/cmath ****   { return __builtin_coshf(__x); }
 205:/Library/DaisyToolchain/0.2.0/arm/arm-none-eabi/include/c++/10.3.1/cmath **** 
 206:/Library/DaisyToolchain/0.2.0/arm/arm-none-eabi/include/c++/10.3.1/cmath ****   inline _GLIBCXX_CONSTEXPR long double
 207:/Library/DaisyToolchain/0.2.0/arm/arm-none-eabi/include/c++/10.3.1/cmath ****   cosh(long double __x)
 208:/Library/DaisyToolchain/0.2.0/arm/arm-none-eabi/include/c++/10.3.1/cmath ****   { return __builtin_coshl(__x); }
 209:/Library/DaisyToolchain/0.2.0/arm/arm-none-eabi/include/c++/10.3.1/cmath **** #endif
 210:/Library/DaisyToolchain/0.2.0/arm/arm-none-eabi/include/c++/10.3.1/cmath **** 
 211:/Library/DaisyToolchain/0.2.0/arm/arm-none-eabi/include/c++/10.3.1/cmath ****   template<typename _Tp>
 212:/Library/DaisyToolchain/0.2.0/arm/arm-none-eabi/include/c++/10.3.1/cmath ****     inline _GLIBCXX_CONSTEXPR
 213:/Library/DaisyToolchain/0.2.0/arm/arm-none-eabi/include/c++/10.3.1/cmath ****     typename __gnu_cxx::__enable_if<__is_integer<_Tp>::__value,
 214:/Library/DaisyToolchain/0.2.0/arm/arm-none-eabi/include/c++/10.3.1/cmath ****                                     double>::__type
 215:/Library/DaisyToolchain/0.2.0/arm/arm-none-eabi/include/c++/10.3.1/cmath ****     cosh(_Tp __x)
 216:/Library/DaisyToolchain/0.2.0/arm/arm-none-eabi/include/c++/10.3.1/cmath ****     { return __builtin_cosh(__x); }
 217:/Library/DaisyToolchain/0.2.0/arm/arm-none-eabi/include/c++/10.3.1/cmath **** 
 218:/Library/DaisyToolchain/0.2.0/arm/arm-none-eabi/include/c++/10.3.1/cmath ****   using ::exp;
 219:/Library/DaisyToolchain/0.2.0/arm/arm-none-eabi/include/c++/10.3.1/cmath **** 
 220:/Library/DaisyToolchain/0.2.0/arm/arm-none-eabi/include/c++/10.3.1/cmath **** #ifndef __CORRECT_ISO_CPP_MATH_H_PROTO
ARM GAS  /var/folders/2p/02m_5p7958535cp2tpgps0400000gn/T//ccx9FAOt.s 			page 113


 221:/Library/DaisyToolchain/0.2.0/arm/arm-none-eabi/include/c++/10.3.1/cmath ****   inline _GLIBCXX_CONSTEXPR float
 222:/Library/DaisyToolchain/0.2.0/arm/arm-none-eabi/include/c++/10.3.1/cmath ****   exp(float __x)
 223:/Library/DaisyToolchain/0.2.0/arm/arm-none-eabi/include/c++/10.3.1/cmath ****   { return __builtin_expf(__x); }
 224:/Library/DaisyToolchain/0.2.0/arm/arm-none-eabi/include/c++/10.3.1/cmath **** 
 225:/Library/DaisyToolchain/0.2.0/arm/arm-none-eabi/include/c++/10.3.1/cmath ****   inline _GLIBCXX_CONSTEXPR long double
 226:/Library/DaisyToolchain/0.2.0/arm/arm-none-eabi/include/c++/10.3.1/cmath ****   exp(long double __x)
 227:/Library/DaisyToolchain/0.2.0/arm/arm-none-eabi/include/c++/10.3.1/cmath ****   { return __builtin_expl(__x); }
 228:/Library/DaisyToolchain/0.2.0/arm/arm-none-eabi/include/c++/10.3.1/cmath **** #endif
 229:/Library/DaisyToolchain/0.2.0/arm/arm-none-eabi/include/c++/10.3.1/cmath **** 
 230:/Library/DaisyToolchain/0.2.0/arm/arm-none-eabi/include/c++/10.3.1/cmath ****   template<typename _Tp>
 231:/Library/DaisyToolchain/0.2.0/arm/arm-none-eabi/include/c++/10.3.1/cmath ****     inline _GLIBCXX_CONSTEXPR
 232:/Library/DaisyToolchain/0.2.0/arm/arm-none-eabi/include/c++/10.3.1/cmath ****     typename __gnu_cxx::__enable_if<__is_integer<_Tp>::__value,
 233:/Library/DaisyToolchain/0.2.0/arm/arm-none-eabi/include/c++/10.3.1/cmath ****                                     double>::__type
 234:/Library/DaisyToolchain/0.2.0/arm/arm-none-eabi/include/c++/10.3.1/cmath ****     exp(_Tp __x)
 235:/Library/DaisyToolchain/0.2.0/arm/arm-none-eabi/include/c++/10.3.1/cmath ****     { return __builtin_exp(__x); }
 236:/Library/DaisyToolchain/0.2.0/arm/arm-none-eabi/include/c++/10.3.1/cmath **** 
 237:/Library/DaisyToolchain/0.2.0/arm/arm-none-eabi/include/c++/10.3.1/cmath ****   using ::fabs;
 238:/Library/DaisyToolchain/0.2.0/arm/arm-none-eabi/include/c++/10.3.1/cmath **** 
 239:/Library/DaisyToolchain/0.2.0/arm/arm-none-eabi/include/c++/10.3.1/cmath **** #ifndef __CORRECT_ISO_CPP_MATH_H_PROTO
 240:/Library/DaisyToolchain/0.2.0/arm/arm-none-eabi/include/c++/10.3.1/cmath ****   inline _GLIBCXX_CONSTEXPR float
 241:/Library/DaisyToolchain/0.2.0/arm/arm-none-eabi/include/c++/10.3.1/cmath ****   fabs(float __x)
 242:/Library/DaisyToolchain/0.2.0/arm/arm-none-eabi/include/c++/10.3.1/cmath ****   { return __builtin_fabsf(__x); }
 243:/Library/DaisyToolchain/0.2.0/arm/arm-none-eabi/include/c++/10.3.1/cmath **** 
 244:/Library/DaisyToolchain/0.2.0/arm/arm-none-eabi/include/c++/10.3.1/cmath ****   inline _GLIBCXX_CONSTEXPR long double
 245:/Library/DaisyToolchain/0.2.0/arm/arm-none-eabi/include/c++/10.3.1/cmath ****   fabs(long double __x)
 246:/Library/DaisyToolchain/0.2.0/arm/arm-none-eabi/include/c++/10.3.1/cmath ****   { return __builtin_fabsl(__x); }
 247:/Library/DaisyToolchain/0.2.0/arm/arm-none-eabi/include/c++/10.3.1/cmath **** #endif
 248:/Library/DaisyToolchain/0.2.0/arm/arm-none-eabi/include/c++/10.3.1/cmath **** 
 249:/Library/DaisyToolchain/0.2.0/arm/arm-none-eabi/include/c++/10.3.1/cmath ****   template<typename _Tp>
 250:/Library/DaisyToolchain/0.2.0/arm/arm-none-eabi/include/c++/10.3.1/cmath ****     inline _GLIBCXX_CONSTEXPR
 251:/Library/DaisyToolchain/0.2.0/arm/arm-none-eabi/include/c++/10.3.1/cmath ****     typename __gnu_cxx::__enable_if<__is_integer<_Tp>::__value,
 252:/Library/DaisyToolchain/0.2.0/arm/arm-none-eabi/include/c++/10.3.1/cmath ****                                     double>::__type
 253:/Library/DaisyToolchain/0.2.0/arm/arm-none-eabi/include/c++/10.3.1/cmath ****     fabs(_Tp __x)
 254:/Library/DaisyToolchain/0.2.0/arm/arm-none-eabi/include/c++/10.3.1/cmath ****     { return __builtin_fabs(__x); }
 255:/Library/DaisyToolchain/0.2.0/arm/arm-none-eabi/include/c++/10.3.1/cmath **** 
 256:/Library/DaisyToolchain/0.2.0/arm/arm-none-eabi/include/c++/10.3.1/cmath ****   using ::floor;
 257:/Library/DaisyToolchain/0.2.0/arm/arm-none-eabi/include/c++/10.3.1/cmath **** 
 258:/Library/DaisyToolchain/0.2.0/arm/arm-none-eabi/include/c++/10.3.1/cmath **** #ifndef __CORRECT_ISO_CPP_MATH_H_PROTO
 259:/Library/DaisyToolchain/0.2.0/arm/arm-none-eabi/include/c++/10.3.1/cmath ****   inline _GLIBCXX_CONSTEXPR float
 260:/Library/DaisyToolchain/0.2.0/arm/arm-none-eabi/include/c++/10.3.1/cmath ****   floor(float __x)
 261:/Library/DaisyToolchain/0.2.0/arm/arm-none-eabi/include/c++/10.3.1/cmath ****   { return __builtin_floorf(__x); }
 262:/Library/DaisyToolchain/0.2.0/arm/arm-none-eabi/include/c++/10.3.1/cmath **** 
 263:/Library/DaisyToolchain/0.2.0/arm/arm-none-eabi/include/c++/10.3.1/cmath ****   inline _GLIBCXX_CONSTEXPR long double
 264:/Library/DaisyToolchain/0.2.0/arm/arm-none-eabi/include/c++/10.3.1/cmath ****   floor(long double __x)
 265:/Library/DaisyToolchain/0.2.0/arm/arm-none-eabi/include/c++/10.3.1/cmath ****   { return __builtin_floorl(__x); }
 266:/Library/DaisyToolchain/0.2.0/arm/arm-none-eabi/include/c++/10.3.1/cmath **** #endif
 267:/Library/DaisyToolchain/0.2.0/arm/arm-none-eabi/include/c++/10.3.1/cmath **** 
 268:/Library/DaisyToolchain/0.2.0/arm/arm-none-eabi/include/c++/10.3.1/cmath ****   template<typename _Tp>
 269:/Library/DaisyToolchain/0.2.0/arm/arm-none-eabi/include/c++/10.3.1/cmath ****     inline _GLIBCXX_CONSTEXPR
 270:/Library/DaisyToolchain/0.2.0/arm/arm-none-eabi/include/c++/10.3.1/cmath ****     typename __gnu_cxx::__enable_if<__is_integer<_Tp>::__value,
 271:/Library/DaisyToolchain/0.2.0/arm/arm-none-eabi/include/c++/10.3.1/cmath ****                                     double>::__type
 272:/Library/DaisyToolchain/0.2.0/arm/arm-none-eabi/include/c++/10.3.1/cmath ****     floor(_Tp __x)
 273:/Library/DaisyToolchain/0.2.0/arm/arm-none-eabi/include/c++/10.3.1/cmath ****     { return __builtin_floor(__x); }
 274:/Library/DaisyToolchain/0.2.0/arm/arm-none-eabi/include/c++/10.3.1/cmath **** 
 275:/Library/DaisyToolchain/0.2.0/arm/arm-none-eabi/include/c++/10.3.1/cmath ****   using ::fmod;
 276:/Library/DaisyToolchain/0.2.0/arm/arm-none-eabi/include/c++/10.3.1/cmath **** 
 277:/Library/DaisyToolchain/0.2.0/arm/arm-none-eabi/include/c++/10.3.1/cmath **** #ifndef __CORRECT_ISO_CPP_MATH_H_PROTO
ARM GAS  /var/folders/2p/02m_5p7958535cp2tpgps0400000gn/T//ccx9FAOt.s 			page 114


 278:/Library/DaisyToolchain/0.2.0/arm/arm-none-eabi/include/c++/10.3.1/cmath ****   inline _GLIBCXX_CONSTEXPR float
 279:/Library/DaisyToolchain/0.2.0/arm/arm-none-eabi/include/c++/10.3.1/cmath ****   fmod(float __x, float __y)
 280:/Library/DaisyToolchain/0.2.0/arm/arm-none-eabi/include/c++/10.3.1/cmath ****   { return __builtin_fmodf(__x, __y); }
 281:/Library/DaisyToolchain/0.2.0/arm/arm-none-eabi/include/c++/10.3.1/cmath **** 
 282:/Library/DaisyToolchain/0.2.0/arm/arm-none-eabi/include/c++/10.3.1/cmath ****   inline _GLIBCXX_CONSTEXPR long double
 283:/Library/DaisyToolchain/0.2.0/arm/arm-none-eabi/include/c++/10.3.1/cmath ****   fmod(long double __x, long double __y)
 284:/Library/DaisyToolchain/0.2.0/arm/arm-none-eabi/include/c++/10.3.1/cmath ****   { return __builtin_fmodl(__x, __y); }
 285:/Library/DaisyToolchain/0.2.0/arm/arm-none-eabi/include/c++/10.3.1/cmath **** #endif
 286:/Library/DaisyToolchain/0.2.0/arm/arm-none-eabi/include/c++/10.3.1/cmath **** 
 287:/Library/DaisyToolchain/0.2.0/arm/arm-none-eabi/include/c++/10.3.1/cmath ****   template<typename _Tp, typename _Up>
 288:/Library/DaisyToolchain/0.2.0/arm/arm-none-eabi/include/c++/10.3.1/cmath ****     inline _GLIBCXX_CONSTEXPR
 289:/Library/DaisyToolchain/0.2.0/arm/arm-none-eabi/include/c++/10.3.1/cmath ****     typename __gnu_cxx::__promote_2<_Tp, _Up>::__type
 290:/Library/DaisyToolchain/0.2.0/arm/arm-none-eabi/include/c++/10.3.1/cmath ****     fmod(_Tp __x, _Up __y)
 291:/Library/DaisyToolchain/0.2.0/arm/arm-none-eabi/include/c++/10.3.1/cmath ****     {
 292:/Library/DaisyToolchain/0.2.0/arm/arm-none-eabi/include/c++/10.3.1/cmath ****       typedef typename __gnu_cxx::__promote_2<_Tp, _Up>::__type __type;
 293:/Library/DaisyToolchain/0.2.0/arm/arm-none-eabi/include/c++/10.3.1/cmath ****       return fmod(__type(__x), __type(__y));
 294:/Library/DaisyToolchain/0.2.0/arm/arm-none-eabi/include/c++/10.3.1/cmath ****     }
 295:/Library/DaisyToolchain/0.2.0/arm/arm-none-eabi/include/c++/10.3.1/cmath **** 
 296:/Library/DaisyToolchain/0.2.0/arm/arm-none-eabi/include/c++/10.3.1/cmath ****   using ::frexp;
 297:/Library/DaisyToolchain/0.2.0/arm/arm-none-eabi/include/c++/10.3.1/cmath **** 
 298:/Library/DaisyToolchain/0.2.0/arm/arm-none-eabi/include/c++/10.3.1/cmath **** #ifndef __CORRECT_ISO_CPP_MATH_H_PROTO
 299:/Library/DaisyToolchain/0.2.0/arm/arm-none-eabi/include/c++/10.3.1/cmath ****   inline float
 300:/Library/DaisyToolchain/0.2.0/arm/arm-none-eabi/include/c++/10.3.1/cmath ****   frexp(float __x, int* __exp)
 301:/Library/DaisyToolchain/0.2.0/arm/arm-none-eabi/include/c++/10.3.1/cmath ****   { return __builtin_frexpf(__x, __exp); }
 302:/Library/DaisyToolchain/0.2.0/arm/arm-none-eabi/include/c++/10.3.1/cmath **** 
 303:/Library/DaisyToolchain/0.2.0/arm/arm-none-eabi/include/c++/10.3.1/cmath ****   inline long double
 304:/Library/DaisyToolchain/0.2.0/arm/arm-none-eabi/include/c++/10.3.1/cmath ****   frexp(long double __x, int* __exp)
 305:/Library/DaisyToolchain/0.2.0/arm/arm-none-eabi/include/c++/10.3.1/cmath ****   { return __builtin_frexpl(__x, __exp); }
 306:/Library/DaisyToolchain/0.2.0/arm/arm-none-eabi/include/c++/10.3.1/cmath **** #endif
 307:/Library/DaisyToolchain/0.2.0/arm/arm-none-eabi/include/c++/10.3.1/cmath **** 
 308:/Library/DaisyToolchain/0.2.0/arm/arm-none-eabi/include/c++/10.3.1/cmath ****   template<typename _Tp>
 309:/Library/DaisyToolchain/0.2.0/arm/arm-none-eabi/include/c++/10.3.1/cmath ****     inline _GLIBCXX_CONSTEXPR
 310:/Library/DaisyToolchain/0.2.0/arm/arm-none-eabi/include/c++/10.3.1/cmath ****     typename __gnu_cxx::__enable_if<__is_integer<_Tp>::__value, 
 311:/Library/DaisyToolchain/0.2.0/arm/arm-none-eabi/include/c++/10.3.1/cmath ****                                     double>::__type
 312:/Library/DaisyToolchain/0.2.0/arm/arm-none-eabi/include/c++/10.3.1/cmath ****     frexp(_Tp __x, int* __exp)
 313:/Library/DaisyToolchain/0.2.0/arm/arm-none-eabi/include/c++/10.3.1/cmath ****     { return __builtin_frexp(__x, __exp); }
 314:/Library/DaisyToolchain/0.2.0/arm/arm-none-eabi/include/c++/10.3.1/cmath **** 
 315:/Library/DaisyToolchain/0.2.0/arm/arm-none-eabi/include/c++/10.3.1/cmath ****   using ::ldexp;
 316:/Library/DaisyToolchain/0.2.0/arm/arm-none-eabi/include/c++/10.3.1/cmath **** 
 317:/Library/DaisyToolchain/0.2.0/arm/arm-none-eabi/include/c++/10.3.1/cmath **** #ifndef __CORRECT_ISO_CPP_MATH_H_PROTO
 318:/Library/DaisyToolchain/0.2.0/arm/arm-none-eabi/include/c++/10.3.1/cmath ****   inline _GLIBCXX_CONSTEXPR float
 319:/Library/DaisyToolchain/0.2.0/arm/arm-none-eabi/include/c++/10.3.1/cmath ****   ldexp(float __x, int __exp)
 320:/Library/DaisyToolchain/0.2.0/arm/arm-none-eabi/include/c++/10.3.1/cmath ****   { return __builtin_ldexpf(__x, __exp); }
 321:/Library/DaisyToolchain/0.2.0/arm/arm-none-eabi/include/c++/10.3.1/cmath **** 
 322:/Library/DaisyToolchain/0.2.0/arm/arm-none-eabi/include/c++/10.3.1/cmath ****   inline _GLIBCXX_CONSTEXPR long double
 323:/Library/DaisyToolchain/0.2.0/arm/arm-none-eabi/include/c++/10.3.1/cmath ****   ldexp(long double __x, int __exp)
 324:/Library/DaisyToolchain/0.2.0/arm/arm-none-eabi/include/c++/10.3.1/cmath ****   { return __builtin_ldexpl(__x, __exp); }
 325:/Library/DaisyToolchain/0.2.0/arm/arm-none-eabi/include/c++/10.3.1/cmath **** #endif
 326:/Library/DaisyToolchain/0.2.0/arm/arm-none-eabi/include/c++/10.3.1/cmath **** 
 327:/Library/DaisyToolchain/0.2.0/arm/arm-none-eabi/include/c++/10.3.1/cmath ****   template<typename _Tp>
 328:/Library/DaisyToolchain/0.2.0/arm/arm-none-eabi/include/c++/10.3.1/cmath ****     inline _GLIBCXX_CONSTEXPR
 329:/Library/DaisyToolchain/0.2.0/arm/arm-none-eabi/include/c++/10.3.1/cmath ****     typename __gnu_cxx::__enable_if<__is_integer<_Tp>::__value, 
 330:/Library/DaisyToolchain/0.2.0/arm/arm-none-eabi/include/c++/10.3.1/cmath ****                                     double>::__type
 331:/Library/DaisyToolchain/0.2.0/arm/arm-none-eabi/include/c++/10.3.1/cmath ****     ldexp(_Tp __x, int __exp)
 332:/Library/DaisyToolchain/0.2.0/arm/arm-none-eabi/include/c++/10.3.1/cmath ****     { return __builtin_ldexp(__x, __exp); }
 333:/Library/DaisyToolchain/0.2.0/arm/arm-none-eabi/include/c++/10.3.1/cmath **** 
 334:/Library/DaisyToolchain/0.2.0/arm/arm-none-eabi/include/c++/10.3.1/cmath ****   using ::log;
ARM GAS  /var/folders/2p/02m_5p7958535cp2tpgps0400000gn/T//ccx9FAOt.s 			page 115


 335:/Library/DaisyToolchain/0.2.0/arm/arm-none-eabi/include/c++/10.3.1/cmath **** 
 336:/Library/DaisyToolchain/0.2.0/arm/arm-none-eabi/include/c++/10.3.1/cmath **** #ifndef __CORRECT_ISO_CPP_MATH_H_PROTO
 337:/Library/DaisyToolchain/0.2.0/arm/arm-none-eabi/include/c++/10.3.1/cmath ****   inline _GLIBCXX_CONSTEXPR float
 338:/Library/DaisyToolchain/0.2.0/arm/arm-none-eabi/include/c++/10.3.1/cmath ****   log(float __x)
 339:/Library/DaisyToolchain/0.2.0/arm/arm-none-eabi/include/c++/10.3.1/cmath ****   { return __builtin_logf(__x); }
 340:/Library/DaisyToolchain/0.2.0/arm/arm-none-eabi/include/c++/10.3.1/cmath **** 
 341:/Library/DaisyToolchain/0.2.0/arm/arm-none-eabi/include/c++/10.3.1/cmath ****   inline _GLIBCXX_CONSTEXPR long double
 342:/Library/DaisyToolchain/0.2.0/arm/arm-none-eabi/include/c++/10.3.1/cmath ****   log(long double __x)
 343:/Library/DaisyToolchain/0.2.0/arm/arm-none-eabi/include/c++/10.3.1/cmath ****   { return __builtin_logl(__x); }
 344:/Library/DaisyToolchain/0.2.0/arm/arm-none-eabi/include/c++/10.3.1/cmath **** #endif
 345:/Library/DaisyToolchain/0.2.0/arm/arm-none-eabi/include/c++/10.3.1/cmath **** 
 346:/Library/DaisyToolchain/0.2.0/arm/arm-none-eabi/include/c++/10.3.1/cmath ****   template<typename _Tp>
 347:/Library/DaisyToolchain/0.2.0/arm/arm-none-eabi/include/c++/10.3.1/cmath ****     inline _GLIBCXX_CONSTEXPR
 348:/Library/DaisyToolchain/0.2.0/arm/arm-none-eabi/include/c++/10.3.1/cmath ****     typename __gnu_cxx::__enable_if<__is_integer<_Tp>::__value, 
 349:/Library/DaisyToolchain/0.2.0/arm/arm-none-eabi/include/c++/10.3.1/cmath ****                                     double>::__type
 350:/Library/DaisyToolchain/0.2.0/arm/arm-none-eabi/include/c++/10.3.1/cmath ****     log(_Tp __x)
 351:/Library/DaisyToolchain/0.2.0/arm/arm-none-eabi/include/c++/10.3.1/cmath ****     { return __builtin_log(__x); }
 352:/Library/DaisyToolchain/0.2.0/arm/arm-none-eabi/include/c++/10.3.1/cmath **** 
 353:/Library/DaisyToolchain/0.2.0/arm/arm-none-eabi/include/c++/10.3.1/cmath ****   using ::log10;
 354:/Library/DaisyToolchain/0.2.0/arm/arm-none-eabi/include/c++/10.3.1/cmath **** 
 355:/Library/DaisyToolchain/0.2.0/arm/arm-none-eabi/include/c++/10.3.1/cmath **** #ifndef __CORRECT_ISO_CPP_MATH_H_PROTO
 356:/Library/DaisyToolchain/0.2.0/arm/arm-none-eabi/include/c++/10.3.1/cmath ****   inline _GLIBCXX_CONSTEXPR float
 357:/Library/DaisyToolchain/0.2.0/arm/arm-none-eabi/include/c++/10.3.1/cmath ****   log10(float __x)
 358:/Library/DaisyToolchain/0.2.0/arm/arm-none-eabi/include/c++/10.3.1/cmath ****   { return __builtin_log10f(__x); }
 359:/Library/DaisyToolchain/0.2.0/arm/arm-none-eabi/include/c++/10.3.1/cmath **** 
 360:/Library/DaisyToolchain/0.2.0/arm/arm-none-eabi/include/c++/10.3.1/cmath ****   inline _GLIBCXX_CONSTEXPR long double
 361:/Library/DaisyToolchain/0.2.0/arm/arm-none-eabi/include/c++/10.3.1/cmath ****   log10(long double __x)
 362:/Library/DaisyToolchain/0.2.0/arm/arm-none-eabi/include/c++/10.3.1/cmath ****   { return __builtin_log10l(__x); }
 363:/Library/DaisyToolchain/0.2.0/arm/arm-none-eabi/include/c++/10.3.1/cmath **** #endif
 364:/Library/DaisyToolchain/0.2.0/arm/arm-none-eabi/include/c++/10.3.1/cmath **** 
 365:/Library/DaisyToolchain/0.2.0/arm/arm-none-eabi/include/c++/10.3.1/cmath ****   template<typename _Tp>
 366:/Library/DaisyToolchain/0.2.0/arm/arm-none-eabi/include/c++/10.3.1/cmath ****     inline _GLIBCXX_CONSTEXPR
 367:/Library/DaisyToolchain/0.2.0/arm/arm-none-eabi/include/c++/10.3.1/cmath ****     typename __gnu_cxx::__enable_if<__is_integer<_Tp>::__value,
 368:/Library/DaisyToolchain/0.2.0/arm/arm-none-eabi/include/c++/10.3.1/cmath ****                                     double>::__type
 369:/Library/DaisyToolchain/0.2.0/arm/arm-none-eabi/include/c++/10.3.1/cmath ****     log10(_Tp __x)
 370:/Library/DaisyToolchain/0.2.0/arm/arm-none-eabi/include/c++/10.3.1/cmath ****     { return __builtin_log10(__x); }
 371:/Library/DaisyToolchain/0.2.0/arm/arm-none-eabi/include/c++/10.3.1/cmath **** 
 372:/Library/DaisyToolchain/0.2.0/arm/arm-none-eabi/include/c++/10.3.1/cmath ****   using ::modf;
 373:/Library/DaisyToolchain/0.2.0/arm/arm-none-eabi/include/c++/10.3.1/cmath **** 
 374:/Library/DaisyToolchain/0.2.0/arm/arm-none-eabi/include/c++/10.3.1/cmath **** #ifndef __CORRECT_ISO_CPP_MATH_H_PROTO
 375:/Library/DaisyToolchain/0.2.0/arm/arm-none-eabi/include/c++/10.3.1/cmath ****   inline float
 376:/Library/DaisyToolchain/0.2.0/arm/arm-none-eabi/include/c++/10.3.1/cmath ****   modf(float __x, float* __iptr)
 377:/Library/DaisyToolchain/0.2.0/arm/arm-none-eabi/include/c++/10.3.1/cmath ****   { return __builtin_modff(__x, __iptr); }
 378:/Library/DaisyToolchain/0.2.0/arm/arm-none-eabi/include/c++/10.3.1/cmath **** 
 379:/Library/DaisyToolchain/0.2.0/arm/arm-none-eabi/include/c++/10.3.1/cmath ****   inline long double
 380:/Library/DaisyToolchain/0.2.0/arm/arm-none-eabi/include/c++/10.3.1/cmath ****   modf(long double __x, long double* __iptr)
 381:/Library/DaisyToolchain/0.2.0/arm/arm-none-eabi/include/c++/10.3.1/cmath ****   { return __builtin_modfl(__x, __iptr); }
 382:/Library/DaisyToolchain/0.2.0/arm/arm-none-eabi/include/c++/10.3.1/cmath **** #endif
 383:/Library/DaisyToolchain/0.2.0/arm/arm-none-eabi/include/c++/10.3.1/cmath **** 
 384:/Library/DaisyToolchain/0.2.0/arm/arm-none-eabi/include/c++/10.3.1/cmath ****   using ::pow;
 385:/Library/DaisyToolchain/0.2.0/arm/arm-none-eabi/include/c++/10.3.1/cmath **** 
 386:/Library/DaisyToolchain/0.2.0/arm/arm-none-eabi/include/c++/10.3.1/cmath **** #ifndef __CORRECT_ISO_CPP_MATH_H_PROTO
 387:/Library/DaisyToolchain/0.2.0/arm/arm-none-eabi/include/c++/10.3.1/cmath ****   inline _GLIBCXX_CONSTEXPR float
 388:/Library/DaisyToolchain/0.2.0/arm/arm-none-eabi/include/c++/10.3.1/cmath ****   pow(float __x, float __y)
 389:/Library/DaisyToolchain/0.2.0/arm/arm-none-eabi/include/c++/10.3.1/cmath ****   { return __builtin_powf(__x, __y); }
 390:/Library/DaisyToolchain/0.2.0/arm/arm-none-eabi/include/c++/10.3.1/cmath **** 
 391:/Library/DaisyToolchain/0.2.0/arm/arm-none-eabi/include/c++/10.3.1/cmath ****   inline _GLIBCXX_CONSTEXPR long double
ARM GAS  /var/folders/2p/02m_5p7958535cp2tpgps0400000gn/T//ccx9FAOt.s 			page 116


 392:/Library/DaisyToolchain/0.2.0/arm/arm-none-eabi/include/c++/10.3.1/cmath ****   pow(long double __x, long double __y)
 393:/Library/DaisyToolchain/0.2.0/arm/arm-none-eabi/include/c++/10.3.1/cmath ****   { return __builtin_powl(__x, __y); }
 394:/Library/DaisyToolchain/0.2.0/arm/arm-none-eabi/include/c++/10.3.1/cmath **** 
 395:/Library/DaisyToolchain/0.2.0/arm/arm-none-eabi/include/c++/10.3.1/cmath **** #if __cplusplus < 201103L
 396:/Library/DaisyToolchain/0.2.0/arm/arm-none-eabi/include/c++/10.3.1/cmath ****   // _GLIBCXX_RESOLVE_LIB_DEFECTS
 397:/Library/DaisyToolchain/0.2.0/arm/arm-none-eabi/include/c++/10.3.1/cmath ****   // DR 550. What should the return type of pow(float,int) be?
 398:/Library/DaisyToolchain/0.2.0/arm/arm-none-eabi/include/c++/10.3.1/cmath ****   inline double
 399:/Library/DaisyToolchain/0.2.0/arm/arm-none-eabi/include/c++/10.3.1/cmath ****   pow(double __x, int __i)
 400:/Library/DaisyToolchain/0.2.0/arm/arm-none-eabi/include/c++/10.3.1/cmath ****   { return __builtin_powi(__x, __i); }
 401:/Library/DaisyToolchain/0.2.0/arm/arm-none-eabi/include/c++/10.3.1/cmath **** 
 402:/Library/DaisyToolchain/0.2.0/arm/arm-none-eabi/include/c++/10.3.1/cmath ****   inline float
 403:/Library/DaisyToolchain/0.2.0/arm/arm-none-eabi/include/c++/10.3.1/cmath ****   pow(float __x, int __n)
 404:/Library/DaisyToolchain/0.2.0/arm/arm-none-eabi/include/c++/10.3.1/cmath ****   { return __builtin_powif(__x, __n); }
 405:/Library/DaisyToolchain/0.2.0/arm/arm-none-eabi/include/c++/10.3.1/cmath **** 
 406:/Library/DaisyToolchain/0.2.0/arm/arm-none-eabi/include/c++/10.3.1/cmath ****   inline long double
 407:/Library/DaisyToolchain/0.2.0/arm/arm-none-eabi/include/c++/10.3.1/cmath ****   pow(long double __x, int __n)
 408:/Library/DaisyToolchain/0.2.0/arm/arm-none-eabi/include/c++/10.3.1/cmath ****   { return __builtin_powil(__x, __n); }
 409:/Library/DaisyToolchain/0.2.0/arm/arm-none-eabi/include/c++/10.3.1/cmath **** #endif
 410:/Library/DaisyToolchain/0.2.0/arm/arm-none-eabi/include/c++/10.3.1/cmath **** #endif
 411:/Library/DaisyToolchain/0.2.0/arm/arm-none-eabi/include/c++/10.3.1/cmath **** 
 412:/Library/DaisyToolchain/0.2.0/arm/arm-none-eabi/include/c++/10.3.1/cmath ****   template<typename _Tp, typename _Up>
 413:/Library/DaisyToolchain/0.2.0/arm/arm-none-eabi/include/c++/10.3.1/cmath ****     inline _GLIBCXX_CONSTEXPR
 414:/Library/DaisyToolchain/0.2.0/arm/arm-none-eabi/include/c++/10.3.1/cmath ****     typename __gnu_cxx::__promote_2<_Tp, _Up>::__type
 415:/Library/DaisyToolchain/0.2.0/arm/arm-none-eabi/include/c++/10.3.1/cmath ****     pow(_Tp __x, _Up __y)
 416:/Library/DaisyToolchain/0.2.0/arm/arm-none-eabi/include/c++/10.3.1/cmath ****     {
 417:/Library/DaisyToolchain/0.2.0/arm/arm-none-eabi/include/c++/10.3.1/cmath ****       typedef typename __gnu_cxx::__promote_2<_Tp, _Up>::__type __type;
 418:/Library/DaisyToolchain/0.2.0/arm/arm-none-eabi/include/c++/10.3.1/cmath ****       return pow(__type(__x), __type(__y));
 419:/Library/DaisyToolchain/0.2.0/arm/arm-none-eabi/include/c++/10.3.1/cmath ****     }
 420:/Library/DaisyToolchain/0.2.0/arm/arm-none-eabi/include/c++/10.3.1/cmath **** 
 421:/Library/DaisyToolchain/0.2.0/arm/arm-none-eabi/include/c++/10.3.1/cmath ****   using ::sin;
 422:/Library/DaisyToolchain/0.2.0/arm/arm-none-eabi/include/c++/10.3.1/cmath **** 
 423:/Library/DaisyToolchain/0.2.0/arm/arm-none-eabi/include/c++/10.3.1/cmath **** #ifndef __CORRECT_ISO_CPP_MATH_H_PROTO
 424:/Library/DaisyToolchain/0.2.0/arm/arm-none-eabi/include/c++/10.3.1/cmath ****   inline _GLIBCXX_CONSTEXPR float
 425:/Library/DaisyToolchain/0.2.0/arm/arm-none-eabi/include/c++/10.3.1/cmath ****   sin(float __x)
 426:/Library/DaisyToolchain/0.2.0/arm/arm-none-eabi/include/c++/10.3.1/cmath ****   { return __builtin_sinf(__x); }
 427:/Library/DaisyToolchain/0.2.0/arm/arm-none-eabi/include/c++/10.3.1/cmath **** 
 428:/Library/DaisyToolchain/0.2.0/arm/arm-none-eabi/include/c++/10.3.1/cmath ****   inline _GLIBCXX_CONSTEXPR long double
 429:/Library/DaisyToolchain/0.2.0/arm/arm-none-eabi/include/c++/10.3.1/cmath ****   sin(long double __x)
 430:/Library/DaisyToolchain/0.2.0/arm/arm-none-eabi/include/c++/10.3.1/cmath ****   { return __builtin_sinl(__x); }
 431:/Library/DaisyToolchain/0.2.0/arm/arm-none-eabi/include/c++/10.3.1/cmath **** #endif
 432:/Library/DaisyToolchain/0.2.0/arm/arm-none-eabi/include/c++/10.3.1/cmath **** 
 433:/Library/DaisyToolchain/0.2.0/arm/arm-none-eabi/include/c++/10.3.1/cmath ****   template<typename _Tp>
 434:/Library/DaisyToolchain/0.2.0/arm/arm-none-eabi/include/c++/10.3.1/cmath ****     inline _GLIBCXX_CONSTEXPR
 435:/Library/DaisyToolchain/0.2.0/arm/arm-none-eabi/include/c++/10.3.1/cmath ****     typename __gnu_cxx::__enable_if<__is_integer<_Tp>::__value, 
 436:/Library/DaisyToolchain/0.2.0/arm/arm-none-eabi/include/c++/10.3.1/cmath ****                                     double>::__type
 437:/Library/DaisyToolchain/0.2.0/arm/arm-none-eabi/include/c++/10.3.1/cmath ****     sin(_Tp __x)
 438:/Library/DaisyToolchain/0.2.0/arm/arm-none-eabi/include/c++/10.3.1/cmath ****     { return __builtin_sin(__x); }
 439:/Library/DaisyToolchain/0.2.0/arm/arm-none-eabi/include/c++/10.3.1/cmath **** 
 440:/Library/DaisyToolchain/0.2.0/arm/arm-none-eabi/include/c++/10.3.1/cmath ****   using ::sinh;
 441:/Library/DaisyToolchain/0.2.0/arm/arm-none-eabi/include/c++/10.3.1/cmath **** 
 442:/Library/DaisyToolchain/0.2.0/arm/arm-none-eabi/include/c++/10.3.1/cmath **** #ifndef __CORRECT_ISO_CPP_MATH_H_PROTO
 443:/Library/DaisyToolchain/0.2.0/arm/arm-none-eabi/include/c++/10.3.1/cmath ****   inline _GLIBCXX_CONSTEXPR float
 444:/Library/DaisyToolchain/0.2.0/arm/arm-none-eabi/include/c++/10.3.1/cmath ****   sinh(float __x)
 445:/Library/DaisyToolchain/0.2.0/arm/arm-none-eabi/include/c++/10.3.1/cmath ****   { return __builtin_sinhf(__x); }
 446:/Library/DaisyToolchain/0.2.0/arm/arm-none-eabi/include/c++/10.3.1/cmath **** 
 447:/Library/DaisyToolchain/0.2.0/arm/arm-none-eabi/include/c++/10.3.1/cmath ****   inline _GLIBCXX_CONSTEXPR long double
 448:/Library/DaisyToolchain/0.2.0/arm/arm-none-eabi/include/c++/10.3.1/cmath ****   sinh(long double __x)
ARM GAS  /var/folders/2p/02m_5p7958535cp2tpgps0400000gn/T//ccx9FAOt.s 			page 117


 449:/Library/DaisyToolchain/0.2.0/arm/arm-none-eabi/include/c++/10.3.1/cmath ****   { return __builtin_sinhl(__x); }
 450:/Library/DaisyToolchain/0.2.0/arm/arm-none-eabi/include/c++/10.3.1/cmath **** #endif
 451:/Library/DaisyToolchain/0.2.0/arm/arm-none-eabi/include/c++/10.3.1/cmath **** 
 452:/Library/DaisyToolchain/0.2.0/arm/arm-none-eabi/include/c++/10.3.1/cmath ****   template<typename _Tp>
 453:/Library/DaisyToolchain/0.2.0/arm/arm-none-eabi/include/c++/10.3.1/cmath ****     inline _GLIBCXX_CONSTEXPR
 454:/Library/DaisyToolchain/0.2.0/arm/arm-none-eabi/include/c++/10.3.1/cmath ****     typename __gnu_cxx::__enable_if<__is_integer<_Tp>::__value, 
 455:/Library/DaisyToolchain/0.2.0/arm/arm-none-eabi/include/c++/10.3.1/cmath ****                                     double>::__type
 456:/Library/DaisyToolchain/0.2.0/arm/arm-none-eabi/include/c++/10.3.1/cmath ****     sinh(_Tp __x)
 457:/Library/DaisyToolchain/0.2.0/arm/arm-none-eabi/include/c++/10.3.1/cmath ****     { return __builtin_sinh(__x); }
 458:/Library/DaisyToolchain/0.2.0/arm/arm-none-eabi/include/c++/10.3.1/cmath **** 
 459:/Library/DaisyToolchain/0.2.0/arm/arm-none-eabi/include/c++/10.3.1/cmath ****   using ::sqrt;
 460:/Library/DaisyToolchain/0.2.0/arm/arm-none-eabi/include/c++/10.3.1/cmath **** 
 461:/Library/DaisyToolchain/0.2.0/arm/arm-none-eabi/include/c++/10.3.1/cmath **** #ifndef __CORRECT_ISO_CPP_MATH_H_PROTO
 462:/Library/DaisyToolchain/0.2.0/arm/arm-none-eabi/include/c++/10.3.1/cmath ****   inline _GLIBCXX_CONSTEXPR float
 463:/Library/DaisyToolchain/0.2.0/arm/arm-none-eabi/include/c++/10.3.1/cmath ****   sqrt(float __x)
 464:/Library/DaisyToolchain/0.2.0/arm/arm-none-eabi/include/c++/10.3.1/cmath ****   { return __builtin_sqrtf(__x); }
 465:/Library/DaisyToolchain/0.2.0/arm/arm-none-eabi/include/c++/10.3.1/cmath **** 
 466:/Library/DaisyToolchain/0.2.0/arm/arm-none-eabi/include/c++/10.3.1/cmath ****   inline _GLIBCXX_CONSTEXPR long double
 467:/Library/DaisyToolchain/0.2.0/arm/arm-none-eabi/include/c++/10.3.1/cmath ****   sqrt(long double __x)
 468:/Library/DaisyToolchain/0.2.0/arm/arm-none-eabi/include/c++/10.3.1/cmath ****   { return __builtin_sqrtl(__x); }
 469:/Library/DaisyToolchain/0.2.0/arm/arm-none-eabi/include/c++/10.3.1/cmath **** #endif
 470:/Library/DaisyToolchain/0.2.0/arm/arm-none-eabi/include/c++/10.3.1/cmath **** 
 471:/Library/DaisyToolchain/0.2.0/arm/arm-none-eabi/include/c++/10.3.1/cmath ****   template<typename _Tp>
 472:/Library/DaisyToolchain/0.2.0/arm/arm-none-eabi/include/c++/10.3.1/cmath ****     inline _GLIBCXX_CONSTEXPR
 473:/Library/DaisyToolchain/0.2.0/arm/arm-none-eabi/include/c++/10.3.1/cmath ****     typename __gnu_cxx::__enable_if<__is_integer<_Tp>::__value, 
 474:/Library/DaisyToolchain/0.2.0/arm/arm-none-eabi/include/c++/10.3.1/cmath ****                                     double>::__type
 475:/Library/DaisyToolchain/0.2.0/arm/arm-none-eabi/include/c++/10.3.1/cmath ****     sqrt(_Tp __x)
 476:/Library/DaisyToolchain/0.2.0/arm/arm-none-eabi/include/c++/10.3.1/cmath ****     { return __builtin_sqrt(__x); }
 477:/Library/DaisyToolchain/0.2.0/arm/arm-none-eabi/include/c++/10.3.1/cmath **** 
 478:/Library/DaisyToolchain/0.2.0/arm/arm-none-eabi/include/c++/10.3.1/cmath ****   using ::tan;
 479:/Library/DaisyToolchain/0.2.0/arm/arm-none-eabi/include/c++/10.3.1/cmath **** 
 480:/Library/DaisyToolchain/0.2.0/arm/arm-none-eabi/include/c++/10.3.1/cmath **** #ifndef __CORRECT_ISO_CPP_MATH_H_PROTO
 481:/Library/DaisyToolchain/0.2.0/arm/arm-none-eabi/include/c++/10.3.1/cmath ****   inline _GLIBCXX_CONSTEXPR float
 482:/Library/DaisyToolchain/0.2.0/arm/arm-none-eabi/include/c++/10.3.1/cmath ****   tan(float __x)
 483:/Library/DaisyToolchain/0.2.0/arm/arm-none-eabi/include/c++/10.3.1/cmath ****   { return __builtin_tanf(__x); }
 484:/Library/DaisyToolchain/0.2.0/arm/arm-none-eabi/include/c++/10.3.1/cmath **** 
 485:/Library/DaisyToolchain/0.2.0/arm/arm-none-eabi/include/c++/10.3.1/cmath ****   inline _GLIBCXX_CONSTEXPR long double
 486:/Library/DaisyToolchain/0.2.0/arm/arm-none-eabi/include/c++/10.3.1/cmath ****   tan(long double __x)
 487:/Library/DaisyToolchain/0.2.0/arm/arm-none-eabi/include/c++/10.3.1/cmath ****   { return __builtin_tanl(__x); }
 488:/Library/DaisyToolchain/0.2.0/arm/arm-none-eabi/include/c++/10.3.1/cmath **** #endif
 489:/Library/DaisyToolchain/0.2.0/arm/arm-none-eabi/include/c++/10.3.1/cmath **** 
 490:/Library/DaisyToolchain/0.2.0/arm/arm-none-eabi/include/c++/10.3.1/cmath ****   template<typename _Tp>
 491:/Library/DaisyToolchain/0.2.0/arm/arm-none-eabi/include/c++/10.3.1/cmath ****     inline _GLIBCXX_CONSTEXPR
 492:/Library/DaisyToolchain/0.2.0/arm/arm-none-eabi/include/c++/10.3.1/cmath ****     typename __gnu_cxx::__enable_if<__is_integer<_Tp>::__value, 
 493:/Library/DaisyToolchain/0.2.0/arm/arm-none-eabi/include/c++/10.3.1/cmath ****                                     double>::__type
 494:/Library/DaisyToolchain/0.2.0/arm/arm-none-eabi/include/c++/10.3.1/cmath ****     tan(_Tp __x)
 495:/Library/DaisyToolchain/0.2.0/arm/arm-none-eabi/include/c++/10.3.1/cmath ****     { return __builtin_tan(__x); }
 496:/Library/DaisyToolchain/0.2.0/arm/arm-none-eabi/include/c++/10.3.1/cmath **** 
 497:/Library/DaisyToolchain/0.2.0/arm/arm-none-eabi/include/c++/10.3.1/cmath ****   using ::tanh;
 498:/Library/DaisyToolchain/0.2.0/arm/arm-none-eabi/include/c++/10.3.1/cmath **** 
 499:/Library/DaisyToolchain/0.2.0/arm/arm-none-eabi/include/c++/10.3.1/cmath **** #ifndef __CORRECT_ISO_CPP_MATH_H_PROTO
 500:/Library/DaisyToolchain/0.2.0/arm/arm-none-eabi/include/c++/10.3.1/cmath ****   inline _GLIBCXX_CONSTEXPR float
 501:/Library/DaisyToolchain/0.2.0/arm/arm-none-eabi/include/c++/10.3.1/cmath ****   tanh(float __x)
 502:/Library/DaisyToolchain/0.2.0/arm/arm-none-eabi/include/c++/10.3.1/cmath ****   { return __builtin_tanhf(__x); }
 503:/Library/DaisyToolchain/0.2.0/arm/arm-none-eabi/include/c++/10.3.1/cmath **** 
 504:/Library/DaisyToolchain/0.2.0/arm/arm-none-eabi/include/c++/10.3.1/cmath ****   inline _GLIBCXX_CONSTEXPR long double
 505:/Library/DaisyToolchain/0.2.0/arm/arm-none-eabi/include/c++/10.3.1/cmath ****   tanh(long double __x)
ARM GAS  /var/folders/2p/02m_5p7958535cp2tpgps0400000gn/T//ccx9FAOt.s 			page 118


 506:/Library/DaisyToolchain/0.2.0/arm/arm-none-eabi/include/c++/10.3.1/cmath ****   { return __builtin_tanhl(__x); }
 507:/Library/DaisyToolchain/0.2.0/arm/arm-none-eabi/include/c++/10.3.1/cmath **** #endif
 508:/Library/DaisyToolchain/0.2.0/arm/arm-none-eabi/include/c++/10.3.1/cmath **** 
 509:/Library/DaisyToolchain/0.2.0/arm/arm-none-eabi/include/c++/10.3.1/cmath ****   template<typename _Tp>
 510:/Library/DaisyToolchain/0.2.0/arm/arm-none-eabi/include/c++/10.3.1/cmath ****     inline _GLIBCXX_CONSTEXPR
 511:/Library/DaisyToolchain/0.2.0/arm/arm-none-eabi/include/c++/10.3.1/cmath ****     typename __gnu_cxx::__enable_if<__is_integer<_Tp>::__value, 
 512:/Library/DaisyToolchain/0.2.0/arm/arm-none-eabi/include/c++/10.3.1/cmath ****                                     double>::__type
 513:/Library/DaisyToolchain/0.2.0/arm/arm-none-eabi/include/c++/10.3.1/cmath ****     tanh(_Tp __x)
 514:/Library/DaisyToolchain/0.2.0/arm/arm-none-eabi/include/c++/10.3.1/cmath ****     { return __builtin_tanh(__x); }
 515:/Library/DaisyToolchain/0.2.0/arm/arm-none-eabi/include/c++/10.3.1/cmath **** 
 516:/Library/DaisyToolchain/0.2.0/arm/arm-none-eabi/include/c++/10.3.1/cmath **** #if _GLIBCXX_USE_C99_MATH
 517:/Library/DaisyToolchain/0.2.0/arm/arm-none-eabi/include/c++/10.3.1/cmath **** #if !_GLIBCXX_USE_C99_FP_MACROS_DYNAMIC
 518:/Library/DaisyToolchain/0.2.0/arm/arm-none-eabi/include/c++/10.3.1/cmath **** 
 519:/Library/DaisyToolchain/0.2.0/arm/arm-none-eabi/include/c++/10.3.1/cmath **** // These are possible macros imported from C99-land.
 520:/Library/DaisyToolchain/0.2.0/arm/arm-none-eabi/include/c++/10.3.1/cmath **** #undef fpclassify
 521:/Library/DaisyToolchain/0.2.0/arm/arm-none-eabi/include/c++/10.3.1/cmath **** #undef isfinite
 522:/Library/DaisyToolchain/0.2.0/arm/arm-none-eabi/include/c++/10.3.1/cmath **** #undef isinf
 523:/Library/DaisyToolchain/0.2.0/arm/arm-none-eabi/include/c++/10.3.1/cmath **** #undef isnan
 524:/Library/DaisyToolchain/0.2.0/arm/arm-none-eabi/include/c++/10.3.1/cmath **** #undef isnormal
 525:/Library/DaisyToolchain/0.2.0/arm/arm-none-eabi/include/c++/10.3.1/cmath **** #undef signbit
 526:/Library/DaisyToolchain/0.2.0/arm/arm-none-eabi/include/c++/10.3.1/cmath **** #undef isgreater
 527:/Library/DaisyToolchain/0.2.0/arm/arm-none-eabi/include/c++/10.3.1/cmath **** #undef isgreaterequal
 528:/Library/DaisyToolchain/0.2.0/arm/arm-none-eabi/include/c++/10.3.1/cmath **** #undef isless
 529:/Library/DaisyToolchain/0.2.0/arm/arm-none-eabi/include/c++/10.3.1/cmath **** #undef islessequal
 530:/Library/DaisyToolchain/0.2.0/arm/arm-none-eabi/include/c++/10.3.1/cmath **** #undef islessgreater
 531:/Library/DaisyToolchain/0.2.0/arm/arm-none-eabi/include/c++/10.3.1/cmath **** #undef isunordered
 532:/Library/DaisyToolchain/0.2.0/arm/arm-none-eabi/include/c++/10.3.1/cmath **** 
 533:/Library/DaisyToolchain/0.2.0/arm/arm-none-eabi/include/c++/10.3.1/cmath **** #if __cplusplus >= 201103L
 534:/Library/DaisyToolchain/0.2.0/arm/arm-none-eabi/include/c++/10.3.1/cmath **** 
 535:/Library/DaisyToolchain/0.2.0/arm/arm-none-eabi/include/c++/10.3.1/cmath **** #ifndef __CORRECT_ISO_CPP11_MATH_H_PROTO_FP
 536:/Library/DaisyToolchain/0.2.0/arm/arm-none-eabi/include/c++/10.3.1/cmath ****   constexpr int
 537:/Library/DaisyToolchain/0.2.0/arm/arm-none-eabi/include/c++/10.3.1/cmath ****   fpclassify(float __x)
 538:/Library/DaisyToolchain/0.2.0/arm/arm-none-eabi/include/c++/10.3.1/cmath ****   { return __builtin_fpclassify(FP_NAN, FP_INFINITE, FP_NORMAL,
 539:/Library/DaisyToolchain/0.2.0/arm/arm-none-eabi/include/c++/10.3.1/cmath **** 				FP_SUBNORMAL, FP_ZERO, __x); }
 540:/Library/DaisyToolchain/0.2.0/arm/arm-none-eabi/include/c++/10.3.1/cmath **** 
 541:/Library/DaisyToolchain/0.2.0/arm/arm-none-eabi/include/c++/10.3.1/cmath ****   constexpr int
 542:/Library/DaisyToolchain/0.2.0/arm/arm-none-eabi/include/c++/10.3.1/cmath ****   fpclassify(double __x)
 543:/Library/DaisyToolchain/0.2.0/arm/arm-none-eabi/include/c++/10.3.1/cmath ****   { return __builtin_fpclassify(FP_NAN, FP_INFINITE, FP_NORMAL,
 544:/Library/DaisyToolchain/0.2.0/arm/arm-none-eabi/include/c++/10.3.1/cmath **** 				FP_SUBNORMAL, FP_ZERO, __x); }
 545:/Library/DaisyToolchain/0.2.0/arm/arm-none-eabi/include/c++/10.3.1/cmath **** 
 546:/Library/DaisyToolchain/0.2.0/arm/arm-none-eabi/include/c++/10.3.1/cmath ****   constexpr int
 547:/Library/DaisyToolchain/0.2.0/arm/arm-none-eabi/include/c++/10.3.1/cmath ****   fpclassify(long double __x)
 548:/Library/DaisyToolchain/0.2.0/arm/arm-none-eabi/include/c++/10.3.1/cmath ****   { return __builtin_fpclassify(FP_NAN, FP_INFINITE, FP_NORMAL,
 549:/Library/DaisyToolchain/0.2.0/arm/arm-none-eabi/include/c++/10.3.1/cmath **** 				FP_SUBNORMAL, FP_ZERO, __x); }
 550:/Library/DaisyToolchain/0.2.0/arm/arm-none-eabi/include/c++/10.3.1/cmath **** #endif
 551:/Library/DaisyToolchain/0.2.0/arm/arm-none-eabi/include/c++/10.3.1/cmath **** 
 552:/Library/DaisyToolchain/0.2.0/arm/arm-none-eabi/include/c++/10.3.1/cmath **** #ifndef __CORRECT_ISO_CPP11_MATH_H_PROTO_INT
 553:/Library/DaisyToolchain/0.2.0/arm/arm-none-eabi/include/c++/10.3.1/cmath ****   template<typename _Tp>
 554:/Library/DaisyToolchain/0.2.0/arm/arm-none-eabi/include/c++/10.3.1/cmath ****     constexpr typename __gnu_cxx::__enable_if<__is_integer<_Tp>::__value,
 555:/Library/DaisyToolchain/0.2.0/arm/arm-none-eabi/include/c++/10.3.1/cmath ****                                               int>::__type
 556:/Library/DaisyToolchain/0.2.0/arm/arm-none-eabi/include/c++/10.3.1/cmath ****     fpclassify(_Tp __x)
 557:/Library/DaisyToolchain/0.2.0/arm/arm-none-eabi/include/c++/10.3.1/cmath ****     { return __x != 0 ? FP_NORMAL : FP_ZERO; }
 558:/Library/DaisyToolchain/0.2.0/arm/arm-none-eabi/include/c++/10.3.1/cmath **** #endif
 559:/Library/DaisyToolchain/0.2.0/arm/arm-none-eabi/include/c++/10.3.1/cmath **** 
 560:/Library/DaisyToolchain/0.2.0/arm/arm-none-eabi/include/c++/10.3.1/cmath **** #ifndef __CORRECT_ISO_CPP11_MATH_H_PROTO_FP
 561:/Library/DaisyToolchain/0.2.0/arm/arm-none-eabi/include/c++/10.3.1/cmath ****   constexpr bool
 562:/Library/DaisyToolchain/0.2.0/arm/arm-none-eabi/include/c++/10.3.1/cmath ****   isfinite(float __x)
ARM GAS  /var/folders/2p/02m_5p7958535cp2tpgps0400000gn/T//ccx9FAOt.s 			page 119


 563:/Library/DaisyToolchain/0.2.0/arm/arm-none-eabi/include/c++/10.3.1/cmath ****   { return __builtin_isfinite(__x); }
 564:/Library/DaisyToolchain/0.2.0/arm/arm-none-eabi/include/c++/10.3.1/cmath **** 
 565:/Library/DaisyToolchain/0.2.0/arm/arm-none-eabi/include/c++/10.3.1/cmath ****   constexpr bool
 566:/Library/DaisyToolchain/0.2.0/arm/arm-none-eabi/include/c++/10.3.1/cmath ****   isfinite(double __x)
 567:/Library/DaisyToolchain/0.2.0/arm/arm-none-eabi/include/c++/10.3.1/cmath ****   { return __builtin_isfinite(__x); }
 568:/Library/DaisyToolchain/0.2.0/arm/arm-none-eabi/include/c++/10.3.1/cmath **** 
 569:/Library/DaisyToolchain/0.2.0/arm/arm-none-eabi/include/c++/10.3.1/cmath ****   constexpr bool
 570:/Library/DaisyToolchain/0.2.0/arm/arm-none-eabi/include/c++/10.3.1/cmath ****   isfinite(long double __x)
 571:/Library/DaisyToolchain/0.2.0/arm/arm-none-eabi/include/c++/10.3.1/cmath ****   { return __builtin_isfinite(__x); }
 572:/Library/DaisyToolchain/0.2.0/arm/arm-none-eabi/include/c++/10.3.1/cmath **** #endif
 573:/Library/DaisyToolchain/0.2.0/arm/arm-none-eabi/include/c++/10.3.1/cmath **** 
 574:/Library/DaisyToolchain/0.2.0/arm/arm-none-eabi/include/c++/10.3.1/cmath **** #ifndef __CORRECT_ISO_CPP11_MATH_H_PROTO_INT
 575:/Library/DaisyToolchain/0.2.0/arm/arm-none-eabi/include/c++/10.3.1/cmath ****   template<typename _Tp>
 576:/Library/DaisyToolchain/0.2.0/arm/arm-none-eabi/include/c++/10.3.1/cmath ****     constexpr typename __gnu_cxx::__enable_if<__is_integer<_Tp>::__value,
 577:/Library/DaisyToolchain/0.2.0/arm/arm-none-eabi/include/c++/10.3.1/cmath ****                                               bool>::__type
 578:/Library/DaisyToolchain/0.2.0/arm/arm-none-eabi/include/c++/10.3.1/cmath ****     isfinite(_Tp __x)
 579:/Library/DaisyToolchain/0.2.0/arm/arm-none-eabi/include/c++/10.3.1/cmath ****     { return true; }
 580:/Library/DaisyToolchain/0.2.0/arm/arm-none-eabi/include/c++/10.3.1/cmath **** #endif
 581:/Library/DaisyToolchain/0.2.0/arm/arm-none-eabi/include/c++/10.3.1/cmath **** 
 582:/Library/DaisyToolchain/0.2.0/arm/arm-none-eabi/include/c++/10.3.1/cmath **** #ifndef __CORRECT_ISO_CPP11_MATH_H_PROTO_FP
 583:/Library/DaisyToolchain/0.2.0/arm/arm-none-eabi/include/c++/10.3.1/cmath ****   constexpr bool
 584:/Library/DaisyToolchain/0.2.0/arm/arm-none-eabi/include/c++/10.3.1/cmath ****   isinf(float __x)
 585:/Library/DaisyToolchain/0.2.0/arm/arm-none-eabi/include/c++/10.3.1/cmath ****   { return __builtin_isinf(__x); }
 586:/Library/DaisyToolchain/0.2.0/arm/arm-none-eabi/include/c++/10.3.1/cmath **** 
 587:/Library/DaisyToolchain/0.2.0/arm/arm-none-eabi/include/c++/10.3.1/cmath **** #if _GLIBCXX_HAVE_OBSOLETE_ISINF \
 588:/Library/DaisyToolchain/0.2.0/arm/arm-none-eabi/include/c++/10.3.1/cmath ****   && !_GLIBCXX_NO_OBSOLETE_ISINF_ISNAN_DYNAMIC
 589:/Library/DaisyToolchain/0.2.0/arm/arm-none-eabi/include/c++/10.3.1/cmath ****   using ::isinf;
 590:/Library/DaisyToolchain/0.2.0/arm/arm-none-eabi/include/c++/10.3.1/cmath **** #else
 591:/Library/DaisyToolchain/0.2.0/arm/arm-none-eabi/include/c++/10.3.1/cmath ****   constexpr bool
 592:/Library/DaisyToolchain/0.2.0/arm/arm-none-eabi/include/c++/10.3.1/cmath ****   isinf(double __x)
 593:/Library/DaisyToolchain/0.2.0/arm/arm-none-eabi/include/c++/10.3.1/cmath ****   { return __builtin_isinf(__x); }
 594:/Library/DaisyToolchain/0.2.0/arm/arm-none-eabi/include/c++/10.3.1/cmath **** #endif
 595:/Library/DaisyToolchain/0.2.0/arm/arm-none-eabi/include/c++/10.3.1/cmath **** 
 596:/Library/DaisyToolchain/0.2.0/arm/arm-none-eabi/include/c++/10.3.1/cmath ****   constexpr bool
 597:/Library/DaisyToolchain/0.2.0/arm/arm-none-eabi/include/c++/10.3.1/cmath ****   isinf(long double __x)
 598:/Library/DaisyToolchain/0.2.0/arm/arm-none-eabi/include/c++/10.3.1/cmath ****   { return __builtin_isinf(__x); }
 599:/Library/DaisyToolchain/0.2.0/arm/arm-none-eabi/include/c++/10.3.1/cmath **** #endif
 600:/Library/DaisyToolchain/0.2.0/arm/arm-none-eabi/include/c++/10.3.1/cmath **** 
 601:/Library/DaisyToolchain/0.2.0/arm/arm-none-eabi/include/c++/10.3.1/cmath **** #ifndef __CORRECT_ISO_CPP11_MATH_H_PROTO_INT
 602:/Library/DaisyToolchain/0.2.0/arm/arm-none-eabi/include/c++/10.3.1/cmath ****   template<typename _Tp>
 603:/Library/DaisyToolchain/0.2.0/arm/arm-none-eabi/include/c++/10.3.1/cmath ****     constexpr typename __gnu_cxx::__enable_if<__is_integer<_Tp>::__value,
 604:/Library/DaisyToolchain/0.2.0/arm/arm-none-eabi/include/c++/10.3.1/cmath ****                                               bool>::__type
 605:/Library/DaisyToolchain/0.2.0/arm/arm-none-eabi/include/c++/10.3.1/cmath ****     isinf(_Tp __x)
 606:/Library/DaisyToolchain/0.2.0/arm/arm-none-eabi/include/c++/10.3.1/cmath ****     { return false; }
 607:/Library/DaisyToolchain/0.2.0/arm/arm-none-eabi/include/c++/10.3.1/cmath **** #endif
 608:/Library/DaisyToolchain/0.2.0/arm/arm-none-eabi/include/c++/10.3.1/cmath **** 
 609:/Library/DaisyToolchain/0.2.0/arm/arm-none-eabi/include/c++/10.3.1/cmath **** #ifndef __CORRECT_ISO_CPP11_MATH_H_PROTO_FP
 610:/Library/DaisyToolchain/0.2.0/arm/arm-none-eabi/include/c++/10.3.1/cmath ****   constexpr bool
 611:/Library/DaisyToolchain/0.2.0/arm/arm-none-eabi/include/c++/10.3.1/cmath ****   isnan(float __x)
 612:/Library/DaisyToolchain/0.2.0/arm/arm-none-eabi/include/c++/10.3.1/cmath ****   { return __builtin_isnan(__x); }
 613:/Library/DaisyToolchain/0.2.0/arm/arm-none-eabi/include/c++/10.3.1/cmath **** 
 614:/Library/DaisyToolchain/0.2.0/arm/arm-none-eabi/include/c++/10.3.1/cmath **** #if _GLIBCXX_HAVE_OBSOLETE_ISNAN \
 615:/Library/DaisyToolchain/0.2.0/arm/arm-none-eabi/include/c++/10.3.1/cmath ****   && !_GLIBCXX_NO_OBSOLETE_ISINF_ISNAN_DYNAMIC
 616:/Library/DaisyToolchain/0.2.0/arm/arm-none-eabi/include/c++/10.3.1/cmath ****   using ::isnan;
 617:/Library/DaisyToolchain/0.2.0/arm/arm-none-eabi/include/c++/10.3.1/cmath **** #else
 618:/Library/DaisyToolchain/0.2.0/arm/arm-none-eabi/include/c++/10.3.1/cmath ****   constexpr bool
 619:/Library/DaisyToolchain/0.2.0/arm/arm-none-eabi/include/c++/10.3.1/cmath ****   isnan(double __x)
ARM GAS  /var/folders/2p/02m_5p7958535cp2tpgps0400000gn/T//ccx9FAOt.s 			page 120


 620:/Library/DaisyToolchain/0.2.0/arm/arm-none-eabi/include/c++/10.3.1/cmath ****   { return __builtin_isnan(__x); }
 621:/Library/DaisyToolchain/0.2.0/arm/arm-none-eabi/include/c++/10.3.1/cmath **** #endif
 622:/Library/DaisyToolchain/0.2.0/arm/arm-none-eabi/include/c++/10.3.1/cmath **** 
 623:/Library/DaisyToolchain/0.2.0/arm/arm-none-eabi/include/c++/10.3.1/cmath ****   constexpr bool
 624:/Library/DaisyToolchain/0.2.0/arm/arm-none-eabi/include/c++/10.3.1/cmath ****   isnan(long double __x)
 625:/Library/DaisyToolchain/0.2.0/arm/arm-none-eabi/include/c++/10.3.1/cmath ****   { return __builtin_isnan(__x); }
 626:/Library/DaisyToolchain/0.2.0/arm/arm-none-eabi/include/c++/10.3.1/cmath **** #endif
 627:/Library/DaisyToolchain/0.2.0/arm/arm-none-eabi/include/c++/10.3.1/cmath **** 
 628:/Library/DaisyToolchain/0.2.0/arm/arm-none-eabi/include/c++/10.3.1/cmath **** #ifndef __CORRECT_ISO_CPP11_MATH_H_PROTO_INT
 629:/Library/DaisyToolchain/0.2.0/arm/arm-none-eabi/include/c++/10.3.1/cmath ****   template<typename _Tp>
 630:/Library/DaisyToolchain/0.2.0/arm/arm-none-eabi/include/c++/10.3.1/cmath ****     constexpr typename __gnu_cxx::__enable_if<__is_integer<_Tp>::__value,
 631:/Library/DaisyToolchain/0.2.0/arm/arm-none-eabi/include/c++/10.3.1/cmath ****                                               bool>::__type
 632:/Library/DaisyToolchain/0.2.0/arm/arm-none-eabi/include/c++/10.3.1/cmath ****     isnan(_Tp __x)
 633:/Library/DaisyToolchain/0.2.0/arm/arm-none-eabi/include/c++/10.3.1/cmath ****     { return false; }
 634:/Library/DaisyToolchain/0.2.0/arm/arm-none-eabi/include/c++/10.3.1/cmath **** #endif
 635:/Library/DaisyToolchain/0.2.0/arm/arm-none-eabi/include/c++/10.3.1/cmath **** 
 636:/Library/DaisyToolchain/0.2.0/arm/arm-none-eabi/include/c++/10.3.1/cmath **** #ifndef __CORRECT_ISO_CPP11_MATH_H_PROTO_FP
 637:/Library/DaisyToolchain/0.2.0/arm/arm-none-eabi/include/c++/10.3.1/cmath ****   constexpr bool
 638:/Library/DaisyToolchain/0.2.0/arm/arm-none-eabi/include/c++/10.3.1/cmath ****   isnormal(float __x)
 639:/Library/DaisyToolchain/0.2.0/arm/arm-none-eabi/include/c++/10.3.1/cmath ****   { return __builtin_isnormal(__x); }
 640:/Library/DaisyToolchain/0.2.0/arm/arm-none-eabi/include/c++/10.3.1/cmath **** 
 641:/Library/DaisyToolchain/0.2.0/arm/arm-none-eabi/include/c++/10.3.1/cmath ****   constexpr bool
 642:/Library/DaisyToolchain/0.2.0/arm/arm-none-eabi/include/c++/10.3.1/cmath ****   isnormal(double __x)
 643:/Library/DaisyToolchain/0.2.0/arm/arm-none-eabi/include/c++/10.3.1/cmath ****   { return __builtin_isnormal(__x); }
 644:/Library/DaisyToolchain/0.2.0/arm/arm-none-eabi/include/c++/10.3.1/cmath **** 
 645:/Library/DaisyToolchain/0.2.0/arm/arm-none-eabi/include/c++/10.3.1/cmath ****   constexpr bool
 646:/Library/DaisyToolchain/0.2.0/arm/arm-none-eabi/include/c++/10.3.1/cmath ****   isnormal(long double __x)
 647:/Library/DaisyToolchain/0.2.0/arm/arm-none-eabi/include/c++/10.3.1/cmath ****   { return __builtin_isnormal(__x); }
 648:/Library/DaisyToolchain/0.2.0/arm/arm-none-eabi/include/c++/10.3.1/cmath **** #endif
 649:/Library/DaisyToolchain/0.2.0/arm/arm-none-eabi/include/c++/10.3.1/cmath **** 
 650:/Library/DaisyToolchain/0.2.0/arm/arm-none-eabi/include/c++/10.3.1/cmath **** #ifndef __CORRECT_ISO_CPP11_MATH_H_PROTO_INT
 651:/Library/DaisyToolchain/0.2.0/arm/arm-none-eabi/include/c++/10.3.1/cmath ****   template<typename _Tp>
 652:/Library/DaisyToolchain/0.2.0/arm/arm-none-eabi/include/c++/10.3.1/cmath ****     constexpr typename __gnu_cxx::__enable_if<__is_integer<_Tp>::__value,
 653:/Library/DaisyToolchain/0.2.0/arm/arm-none-eabi/include/c++/10.3.1/cmath ****                                               bool>::__type
 654:/Library/DaisyToolchain/0.2.0/arm/arm-none-eabi/include/c++/10.3.1/cmath ****     isnormal(_Tp __x)
 655:/Library/DaisyToolchain/0.2.0/arm/arm-none-eabi/include/c++/10.3.1/cmath ****     { return __x != 0 ? true : false; }
 656:/Library/DaisyToolchain/0.2.0/arm/arm-none-eabi/include/c++/10.3.1/cmath **** #endif
 657:/Library/DaisyToolchain/0.2.0/arm/arm-none-eabi/include/c++/10.3.1/cmath **** 
 658:/Library/DaisyToolchain/0.2.0/arm/arm-none-eabi/include/c++/10.3.1/cmath **** #ifndef __CORRECT_ISO_CPP11_MATH_H_PROTO_FP
 659:/Library/DaisyToolchain/0.2.0/arm/arm-none-eabi/include/c++/10.3.1/cmath ****   // Note: middle-end/36757 is fixed, __builtin_signbit is type-generic.
 660:/Library/DaisyToolchain/0.2.0/arm/arm-none-eabi/include/c++/10.3.1/cmath ****   constexpr bool
 661:/Library/DaisyToolchain/0.2.0/arm/arm-none-eabi/include/c++/10.3.1/cmath ****   signbit(float __x)
 662:/Library/DaisyToolchain/0.2.0/arm/arm-none-eabi/include/c++/10.3.1/cmath ****   { return __builtin_signbit(__x); }
 663:/Library/DaisyToolchain/0.2.0/arm/arm-none-eabi/include/c++/10.3.1/cmath **** 
 664:/Library/DaisyToolchain/0.2.0/arm/arm-none-eabi/include/c++/10.3.1/cmath ****   constexpr bool
 665:/Library/DaisyToolchain/0.2.0/arm/arm-none-eabi/include/c++/10.3.1/cmath ****   signbit(double __x)
 666:/Library/DaisyToolchain/0.2.0/arm/arm-none-eabi/include/c++/10.3.1/cmath ****   { return __builtin_signbit(__x); }
 667:/Library/DaisyToolchain/0.2.0/arm/arm-none-eabi/include/c++/10.3.1/cmath **** 
 668:/Library/DaisyToolchain/0.2.0/arm/arm-none-eabi/include/c++/10.3.1/cmath ****   constexpr bool
 669:/Library/DaisyToolchain/0.2.0/arm/arm-none-eabi/include/c++/10.3.1/cmath ****   signbit(long double __x)
 670:/Library/DaisyToolchain/0.2.0/arm/arm-none-eabi/include/c++/10.3.1/cmath ****   { return __builtin_signbit(__x); }
 671:/Library/DaisyToolchain/0.2.0/arm/arm-none-eabi/include/c++/10.3.1/cmath **** #endif
 672:/Library/DaisyToolchain/0.2.0/arm/arm-none-eabi/include/c++/10.3.1/cmath **** 
 673:/Library/DaisyToolchain/0.2.0/arm/arm-none-eabi/include/c++/10.3.1/cmath **** #ifndef __CORRECT_ISO_CPP11_MATH_H_PROTO_INT
 674:/Library/DaisyToolchain/0.2.0/arm/arm-none-eabi/include/c++/10.3.1/cmath ****   template<typename _Tp>
 675:/Library/DaisyToolchain/0.2.0/arm/arm-none-eabi/include/c++/10.3.1/cmath ****     constexpr typename __gnu_cxx::__enable_if<__is_integer<_Tp>::__value,
 676:/Library/DaisyToolchain/0.2.0/arm/arm-none-eabi/include/c++/10.3.1/cmath ****                                               bool>::__type
ARM GAS  /var/folders/2p/02m_5p7958535cp2tpgps0400000gn/T//ccx9FAOt.s 			page 121


 677:/Library/DaisyToolchain/0.2.0/arm/arm-none-eabi/include/c++/10.3.1/cmath ****     signbit(_Tp __x)
 678:/Library/DaisyToolchain/0.2.0/arm/arm-none-eabi/include/c++/10.3.1/cmath ****     { return __x < 0 ? true : false; }
 679:/Library/DaisyToolchain/0.2.0/arm/arm-none-eabi/include/c++/10.3.1/cmath **** #endif
 680:/Library/DaisyToolchain/0.2.0/arm/arm-none-eabi/include/c++/10.3.1/cmath **** 
 681:/Library/DaisyToolchain/0.2.0/arm/arm-none-eabi/include/c++/10.3.1/cmath **** #ifndef __CORRECT_ISO_CPP11_MATH_H_PROTO_FP
 682:/Library/DaisyToolchain/0.2.0/arm/arm-none-eabi/include/c++/10.3.1/cmath ****   constexpr bool
 683:/Library/DaisyToolchain/0.2.0/arm/arm-none-eabi/include/c++/10.3.1/cmath ****   isgreater(float __x, float __y)
 684:/Library/DaisyToolchain/0.2.0/arm/arm-none-eabi/include/c++/10.3.1/cmath ****   { return __builtin_isgreater(__x, __y); }
 685:/Library/DaisyToolchain/0.2.0/arm/arm-none-eabi/include/c++/10.3.1/cmath **** 
 686:/Library/DaisyToolchain/0.2.0/arm/arm-none-eabi/include/c++/10.3.1/cmath ****   constexpr bool
 687:/Library/DaisyToolchain/0.2.0/arm/arm-none-eabi/include/c++/10.3.1/cmath ****   isgreater(double __x, double __y)
 688:/Library/DaisyToolchain/0.2.0/arm/arm-none-eabi/include/c++/10.3.1/cmath ****   { return __builtin_isgreater(__x, __y); }
 689:/Library/DaisyToolchain/0.2.0/arm/arm-none-eabi/include/c++/10.3.1/cmath **** 
 690:/Library/DaisyToolchain/0.2.0/arm/arm-none-eabi/include/c++/10.3.1/cmath ****   constexpr bool
 691:/Library/DaisyToolchain/0.2.0/arm/arm-none-eabi/include/c++/10.3.1/cmath ****   isgreater(long double __x, long double __y)
 692:/Library/DaisyToolchain/0.2.0/arm/arm-none-eabi/include/c++/10.3.1/cmath ****   { return __builtin_isgreater(__x, __y); }
 693:/Library/DaisyToolchain/0.2.0/arm/arm-none-eabi/include/c++/10.3.1/cmath **** #endif
 694:/Library/DaisyToolchain/0.2.0/arm/arm-none-eabi/include/c++/10.3.1/cmath **** 
 695:/Library/DaisyToolchain/0.2.0/arm/arm-none-eabi/include/c++/10.3.1/cmath **** #ifndef __CORRECT_ISO_CPP11_MATH_H_PROTO_INT
 696:/Library/DaisyToolchain/0.2.0/arm/arm-none-eabi/include/c++/10.3.1/cmath ****   template<typename _Tp, typename _Up>
 697:/Library/DaisyToolchain/0.2.0/arm/arm-none-eabi/include/c++/10.3.1/cmath ****     constexpr typename
 698:/Library/DaisyToolchain/0.2.0/arm/arm-none-eabi/include/c++/10.3.1/cmath ****     __gnu_cxx::__enable_if<(__is_arithmetic<_Tp>::__value
 699:/Library/DaisyToolchain/0.2.0/arm/arm-none-eabi/include/c++/10.3.1/cmath **** 			    && __is_arithmetic<_Up>::__value), bool>::__type
 700:/Library/DaisyToolchain/0.2.0/arm/arm-none-eabi/include/c++/10.3.1/cmath ****     isgreater(_Tp __x, _Up __y)
 701:/Library/DaisyToolchain/0.2.0/arm/arm-none-eabi/include/c++/10.3.1/cmath ****     {
 702:/Library/DaisyToolchain/0.2.0/arm/arm-none-eabi/include/c++/10.3.1/cmath ****       typedef typename __gnu_cxx::__promote_2<_Tp, _Up>::__type __type;
 703:/Library/DaisyToolchain/0.2.0/arm/arm-none-eabi/include/c++/10.3.1/cmath ****       return __builtin_isgreater(__type(__x), __type(__y));
 704:/Library/DaisyToolchain/0.2.0/arm/arm-none-eabi/include/c++/10.3.1/cmath ****     }
 705:/Library/DaisyToolchain/0.2.0/arm/arm-none-eabi/include/c++/10.3.1/cmath **** #endif
 706:/Library/DaisyToolchain/0.2.0/arm/arm-none-eabi/include/c++/10.3.1/cmath **** 
 707:/Library/DaisyToolchain/0.2.0/arm/arm-none-eabi/include/c++/10.3.1/cmath **** #ifndef __CORRECT_ISO_CPP11_MATH_H_PROTO_FP
 708:/Library/DaisyToolchain/0.2.0/arm/arm-none-eabi/include/c++/10.3.1/cmath ****   constexpr bool
 709:/Library/DaisyToolchain/0.2.0/arm/arm-none-eabi/include/c++/10.3.1/cmath ****   isgreaterequal(float __x, float __y)
 710:/Library/DaisyToolchain/0.2.0/arm/arm-none-eabi/include/c++/10.3.1/cmath ****   { return __builtin_isgreaterequal(__x, __y); }
 711:/Library/DaisyToolchain/0.2.0/arm/arm-none-eabi/include/c++/10.3.1/cmath **** 
 712:/Library/DaisyToolchain/0.2.0/arm/arm-none-eabi/include/c++/10.3.1/cmath ****   constexpr bool
 713:/Library/DaisyToolchain/0.2.0/arm/arm-none-eabi/include/c++/10.3.1/cmath ****   isgreaterequal(double __x, double __y)
 714:/Library/DaisyToolchain/0.2.0/arm/arm-none-eabi/include/c++/10.3.1/cmath ****   { return __builtin_isgreaterequal(__x, __y); }
 715:/Library/DaisyToolchain/0.2.0/arm/arm-none-eabi/include/c++/10.3.1/cmath **** 
 716:/Library/DaisyToolchain/0.2.0/arm/arm-none-eabi/include/c++/10.3.1/cmath ****   constexpr bool
 717:/Library/DaisyToolchain/0.2.0/arm/arm-none-eabi/include/c++/10.3.1/cmath ****   isgreaterequal(long double __x, long double __y)
 718:/Library/DaisyToolchain/0.2.0/arm/arm-none-eabi/include/c++/10.3.1/cmath ****   { return __builtin_isgreaterequal(__x, __y); }
 719:/Library/DaisyToolchain/0.2.0/arm/arm-none-eabi/include/c++/10.3.1/cmath **** #endif
 720:/Library/DaisyToolchain/0.2.0/arm/arm-none-eabi/include/c++/10.3.1/cmath **** 
 721:/Library/DaisyToolchain/0.2.0/arm/arm-none-eabi/include/c++/10.3.1/cmath **** #ifndef __CORRECT_ISO_CPP11_MATH_H_PROTO_INT
 722:/Library/DaisyToolchain/0.2.0/arm/arm-none-eabi/include/c++/10.3.1/cmath ****   template<typename _Tp, typename _Up>
 723:/Library/DaisyToolchain/0.2.0/arm/arm-none-eabi/include/c++/10.3.1/cmath ****     constexpr typename
 724:/Library/DaisyToolchain/0.2.0/arm/arm-none-eabi/include/c++/10.3.1/cmath ****     __gnu_cxx::__enable_if<(__is_arithmetic<_Tp>::__value
 725:/Library/DaisyToolchain/0.2.0/arm/arm-none-eabi/include/c++/10.3.1/cmath **** 			    && __is_arithmetic<_Up>::__value), bool>::__type
 726:/Library/DaisyToolchain/0.2.0/arm/arm-none-eabi/include/c++/10.3.1/cmath ****     isgreaterequal(_Tp __x, _Up __y)
 727:/Library/DaisyToolchain/0.2.0/arm/arm-none-eabi/include/c++/10.3.1/cmath ****     {
 728:/Library/DaisyToolchain/0.2.0/arm/arm-none-eabi/include/c++/10.3.1/cmath ****       typedef typename __gnu_cxx::__promote_2<_Tp, _Up>::__type __type;
 729:/Library/DaisyToolchain/0.2.0/arm/arm-none-eabi/include/c++/10.3.1/cmath ****       return __builtin_isgreaterequal(__type(__x), __type(__y));
 730:/Library/DaisyToolchain/0.2.0/arm/arm-none-eabi/include/c++/10.3.1/cmath ****     }
 731:/Library/DaisyToolchain/0.2.0/arm/arm-none-eabi/include/c++/10.3.1/cmath **** #endif
 732:/Library/DaisyToolchain/0.2.0/arm/arm-none-eabi/include/c++/10.3.1/cmath **** 
 733:/Library/DaisyToolchain/0.2.0/arm/arm-none-eabi/include/c++/10.3.1/cmath **** #ifndef __CORRECT_ISO_CPP11_MATH_H_PROTO_FP
ARM GAS  /var/folders/2p/02m_5p7958535cp2tpgps0400000gn/T//ccx9FAOt.s 			page 122


 734:/Library/DaisyToolchain/0.2.0/arm/arm-none-eabi/include/c++/10.3.1/cmath ****   constexpr bool
 735:/Library/DaisyToolchain/0.2.0/arm/arm-none-eabi/include/c++/10.3.1/cmath ****   isless(float __x, float __y)
 736:/Library/DaisyToolchain/0.2.0/arm/arm-none-eabi/include/c++/10.3.1/cmath ****   { return __builtin_isless(__x, __y); }
 737:/Library/DaisyToolchain/0.2.0/arm/arm-none-eabi/include/c++/10.3.1/cmath **** 
 738:/Library/DaisyToolchain/0.2.0/arm/arm-none-eabi/include/c++/10.3.1/cmath ****   constexpr bool
 739:/Library/DaisyToolchain/0.2.0/arm/arm-none-eabi/include/c++/10.3.1/cmath ****   isless(double __x, double __y)
 740:/Library/DaisyToolchain/0.2.0/arm/arm-none-eabi/include/c++/10.3.1/cmath ****   { return __builtin_isless(__x, __y); }
 741:/Library/DaisyToolchain/0.2.0/arm/arm-none-eabi/include/c++/10.3.1/cmath **** 
 742:/Library/DaisyToolchain/0.2.0/arm/arm-none-eabi/include/c++/10.3.1/cmath ****   constexpr bool
 743:/Library/DaisyToolchain/0.2.0/arm/arm-none-eabi/include/c++/10.3.1/cmath ****   isless(long double __x, long double __y)
 744:/Library/DaisyToolchain/0.2.0/arm/arm-none-eabi/include/c++/10.3.1/cmath ****   { return __builtin_isless(__x, __y); }
 745:/Library/DaisyToolchain/0.2.0/arm/arm-none-eabi/include/c++/10.3.1/cmath **** #endif
 746:/Library/DaisyToolchain/0.2.0/arm/arm-none-eabi/include/c++/10.3.1/cmath **** 
 747:/Library/DaisyToolchain/0.2.0/arm/arm-none-eabi/include/c++/10.3.1/cmath **** #ifndef __CORRECT_ISO_CPP11_MATH_H_PROTO_INT
 748:/Library/DaisyToolchain/0.2.0/arm/arm-none-eabi/include/c++/10.3.1/cmath ****   template<typename _Tp, typename _Up>
 749:/Library/DaisyToolchain/0.2.0/arm/arm-none-eabi/include/c++/10.3.1/cmath ****     constexpr typename
 750:/Library/DaisyToolchain/0.2.0/arm/arm-none-eabi/include/c++/10.3.1/cmath ****     __gnu_cxx::__enable_if<(__is_arithmetic<_Tp>::__value
 751:/Library/DaisyToolchain/0.2.0/arm/arm-none-eabi/include/c++/10.3.1/cmath **** 			    && __is_arithmetic<_Up>::__value), bool>::__type
 752:/Library/DaisyToolchain/0.2.0/arm/arm-none-eabi/include/c++/10.3.1/cmath ****     isless(_Tp __x, _Up __y)
 753:/Library/DaisyToolchain/0.2.0/arm/arm-none-eabi/include/c++/10.3.1/cmath ****     {
 754:/Library/DaisyToolchain/0.2.0/arm/arm-none-eabi/include/c++/10.3.1/cmath ****       typedef typename __gnu_cxx::__promote_2<_Tp, _Up>::__type __type;
 755:/Library/DaisyToolchain/0.2.0/arm/arm-none-eabi/include/c++/10.3.1/cmath ****       return __builtin_isless(__type(__x), __type(__y));
 756:/Library/DaisyToolchain/0.2.0/arm/arm-none-eabi/include/c++/10.3.1/cmath ****     }
 757:/Library/DaisyToolchain/0.2.0/arm/arm-none-eabi/include/c++/10.3.1/cmath **** #endif
 758:/Library/DaisyToolchain/0.2.0/arm/arm-none-eabi/include/c++/10.3.1/cmath **** 
 759:/Library/DaisyToolchain/0.2.0/arm/arm-none-eabi/include/c++/10.3.1/cmath **** #ifndef __CORRECT_ISO_CPP11_MATH_H_PROTO_FP
 760:/Library/DaisyToolchain/0.2.0/arm/arm-none-eabi/include/c++/10.3.1/cmath ****   constexpr bool
 761:/Library/DaisyToolchain/0.2.0/arm/arm-none-eabi/include/c++/10.3.1/cmath ****   islessequal(float __x, float __y)
 762:/Library/DaisyToolchain/0.2.0/arm/arm-none-eabi/include/c++/10.3.1/cmath ****   { return __builtin_islessequal(__x, __y); }
 763:/Library/DaisyToolchain/0.2.0/arm/arm-none-eabi/include/c++/10.3.1/cmath **** 
 764:/Library/DaisyToolchain/0.2.0/arm/arm-none-eabi/include/c++/10.3.1/cmath ****   constexpr bool
 765:/Library/DaisyToolchain/0.2.0/arm/arm-none-eabi/include/c++/10.3.1/cmath ****   islessequal(double __x, double __y)
 766:/Library/DaisyToolchain/0.2.0/arm/arm-none-eabi/include/c++/10.3.1/cmath ****   { return __builtin_islessequal(__x, __y); }
 767:/Library/DaisyToolchain/0.2.0/arm/arm-none-eabi/include/c++/10.3.1/cmath **** 
 768:/Library/DaisyToolchain/0.2.0/arm/arm-none-eabi/include/c++/10.3.1/cmath ****   constexpr bool
 769:/Library/DaisyToolchain/0.2.0/arm/arm-none-eabi/include/c++/10.3.1/cmath ****   islessequal(long double __x, long double __y)
 770:/Library/DaisyToolchain/0.2.0/arm/arm-none-eabi/include/c++/10.3.1/cmath ****   { return __builtin_islessequal(__x, __y); }
 771:/Library/DaisyToolchain/0.2.0/arm/arm-none-eabi/include/c++/10.3.1/cmath **** #endif
 772:/Library/DaisyToolchain/0.2.0/arm/arm-none-eabi/include/c++/10.3.1/cmath **** 
 773:/Library/DaisyToolchain/0.2.0/arm/arm-none-eabi/include/c++/10.3.1/cmath **** #ifndef __CORRECT_ISO_CPP11_MATH_H_PROTO_INT
 774:/Library/DaisyToolchain/0.2.0/arm/arm-none-eabi/include/c++/10.3.1/cmath ****   template<typename _Tp, typename _Up>
 775:/Library/DaisyToolchain/0.2.0/arm/arm-none-eabi/include/c++/10.3.1/cmath ****     constexpr typename
 776:/Library/DaisyToolchain/0.2.0/arm/arm-none-eabi/include/c++/10.3.1/cmath ****     __gnu_cxx::__enable_if<(__is_arithmetic<_Tp>::__value
 777:/Library/DaisyToolchain/0.2.0/arm/arm-none-eabi/include/c++/10.3.1/cmath **** 			    && __is_arithmetic<_Up>::__value), bool>::__type
 778:/Library/DaisyToolchain/0.2.0/arm/arm-none-eabi/include/c++/10.3.1/cmath ****     islessequal(_Tp __x, _Up __y)
 779:/Library/DaisyToolchain/0.2.0/arm/arm-none-eabi/include/c++/10.3.1/cmath ****     {
 780:/Library/DaisyToolchain/0.2.0/arm/arm-none-eabi/include/c++/10.3.1/cmath ****       typedef typename __gnu_cxx::__promote_2<_Tp, _Up>::__type __type;
 781:/Library/DaisyToolchain/0.2.0/arm/arm-none-eabi/include/c++/10.3.1/cmath ****       return __builtin_islessequal(__type(__x), __type(__y));
 782:/Library/DaisyToolchain/0.2.0/arm/arm-none-eabi/include/c++/10.3.1/cmath ****     }
 783:/Library/DaisyToolchain/0.2.0/arm/arm-none-eabi/include/c++/10.3.1/cmath **** #endif
 784:/Library/DaisyToolchain/0.2.0/arm/arm-none-eabi/include/c++/10.3.1/cmath **** 
 785:/Library/DaisyToolchain/0.2.0/arm/arm-none-eabi/include/c++/10.3.1/cmath **** #ifndef __CORRECT_ISO_CPP11_MATH_H_PROTO_FP
 786:/Library/DaisyToolchain/0.2.0/arm/arm-none-eabi/include/c++/10.3.1/cmath ****   constexpr bool
 787:/Library/DaisyToolchain/0.2.0/arm/arm-none-eabi/include/c++/10.3.1/cmath ****   islessgreater(float __x, float __y)
 788:/Library/DaisyToolchain/0.2.0/arm/arm-none-eabi/include/c++/10.3.1/cmath ****   { return __builtin_islessgreater(__x, __y); }
 789:/Library/DaisyToolchain/0.2.0/arm/arm-none-eabi/include/c++/10.3.1/cmath **** 
 790:/Library/DaisyToolchain/0.2.0/arm/arm-none-eabi/include/c++/10.3.1/cmath ****   constexpr bool
ARM GAS  /var/folders/2p/02m_5p7958535cp2tpgps0400000gn/T//ccx9FAOt.s 			page 123


 791:/Library/DaisyToolchain/0.2.0/arm/arm-none-eabi/include/c++/10.3.1/cmath ****   islessgreater(double __x, double __y)
 792:/Library/DaisyToolchain/0.2.0/arm/arm-none-eabi/include/c++/10.3.1/cmath ****   { return __builtin_islessgreater(__x, __y); }
 793:/Library/DaisyToolchain/0.2.0/arm/arm-none-eabi/include/c++/10.3.1/cmath **** 
 794:/Library/DaisyToolchain/0.2.0/arm/arm-none-eabi/include/c++/10.3.1/cmath ****   constexpr bool
 795:/Library/DaisyToolchain/0.2.0/arm/arm-none-eabi/include/c++/10.3.1/cmath ****   islessgreater(long double __x, long double __y)
 796:/Library/DaisyToolchain/0.2.0/arm/arm-none-eabi/include/c++/10.3.1/cmath ****   { return __builtin_islessgreater(__x, __y); }
 797:/Library/DaisyToolchain/0.2.0/arm/arm-none-eabi/include/c++/10.3.1/cmath **** #endif
 798:/Library/DaisyToolchain/0.2.0/arm/arm-none-eabi/include/c++/10.3.1/cmath **** 
 799:/Library/DaisyToolchain/0.2.0/arm/arm-none-eabi/include/c++/10.3.1/cmath **** #ifndef __CORRECT_ISO_CPP11_MATH_H_PROTO_INT
 800:/Library/DaisyToolchain/0.2.0/arm/arm-none-eabi/include/c++/10.3.1/cmath ****   template<typename _Tp, typename _Up>
 801:/Library/DaisyToolchain/0.2.0/arm/arm-none-eabi/include/c++/10.3.1/cmath ****     constexpr typename
 802:/Library/DaisyToolchain/0.2.0/arm/arm-none-eabi/include/c++/10.3.1/cmath ****     __gnu_cxx::__enable_if<(__is_arithmetic<_Tp>::__value
 803:/Library/DaisyToolchain/0.2.0/arm/arm-none-eabi/include/c++/10.3.1/cmath **** 			    && __is_arithmetic<_Up>::__value), bool>::__type
 804:/Library/DaisyToolchain/0.2.0/arm/arm-none-eabi/include/c++/10.3.1/cmath ****     islessgreater(_Tp __x, _Up __y)
 805:/Library/DaisyToolchain/0.2.0/arm/arm-none-eabi/include/c++/10.3.1/cmath ****     {
 806:/Library/DaisyToolchain/0.2.0/arm/arm-none-eabi/include/c++/10.3.1/cmath ****       typedef typename __gnu_cxx::__promote_2<_Tp, _Up>::__type __type;
 807:/Library/DaisyToolchain/0.2.0/arm/arm-none-eabi/include/c++/10.3.1/cmath ****       return __builtin_islessgreater(__type(__x), __type(__y));
 808:/Library/DaisyToolchain/0.2.0/arm/arm-none-eabi/include/c++/10.3.1/cmath ****     }
 809:/Library/DaisyToolchain/0.2.0/arm/arm-none-eabi/include/c++/10.3.1/cmath **** #endif
 810:/Library/DaisyToolchain/0.2.0/arm/arm-none-eabi/include/c++/10.3.1/cmath **** 
 811:/Library/DaisyToolchain/0.2.0/arm/arm-none-eabi/include/c++/10.3.1/cmath **** #ifndef __CORRECT_ISO_CPP11_MATH_H_PROTO_FP
 812:/Library/DaisyToolchain/0.2.0/arm/arm-none-eabi/include/c++/10.3.1/cmath ****   constexpr bool
 813:/Library/DaisyToolchain/0.2.0/arm/arm-none-eabi/include/c++/10.3.1/cmath ****   isunordered(float __x, float __y)
 814:/Library/DaisyToolchain/0.2.0/arm/arm-none-eabi/include/c++/10.3.1/cmath ****   { return __builtin_isunordered(__x, __y); }
 815:/Library/DaisyToolchain/0.2.0/arm/arm-none-eabi/include/c++/10.3.1/cmath **** 
 816:/Library/DaisyToolchain/0.2.0/arm/arm-none-eabi/include/c++/10.3.1/cmath ****   constexpr bool
 817:/Library/DaisyToolchain/0.2.0/arm/arm-none-eabi/include/c++/10.3.1/cmath ****   isunordered(double __x, double __y)
 818:/Library/DaisyToolchain/0.2.0/arm/arm-none-eabi/include/c++/10.3.1/cmath ****   { return __builtin_isunordered(__x, __y); }
 819:/Library/DaisyToolchain/0.2.0/arm/arm-none-eabi/include/c++/10.3.1/cmath **** 
 820:/Library/DaisyToolchain/0.2.0/arm/arm-none-eabi/include/c++/10.3.1/cmath ****   constexpr bool
 821:/Library/DaisyToolchain/0.2.0/arm/arm-none-eabi/include/c++/10.3.1/cmath ****   isunordered(long double __x, long double __y)
 822:/Library/DaisyToolchain/0.2.0/arm/arm-none-eabi/include/c++/10.3.1/cmath ****   { return __builtin_isunordered(__x, __y); }
 823:/Library/DaisyToolchain/0.2.0/arm/arm-none-eabi/include/c++/10.3.1/cmath **** #endif
 824:/Library/DaisyToolchain/0.2.0/arm/arm-none-eabi/include/c++/10.3.1/cmath **** 
 825:/Library/DaisyToolchain/0.2.0/arm/arm-none-eabi/include/c++/10.3.1/cmath **** #ifndef __CORRECT_ISO_CPP11_MATH_H_PROTO_INT
 826:/Library/DaisyToolchain/0.2.0/arm/arm-none-eabi/include/c++/10.3.1/cmath ****   template<typename _Tp, typename _Up>
 827:/Library/DaisyToolchain/0.2.0/arm/arm-none-eabi/include/c++/10.3.1/cmath ****     constexpr typename
 828:/Library/DaisyToolchain/0.2.0/arm/arm-none-eabi/include/c++/10.3.1/cmath ****     __gnu_cxx::__enable_if<(__is_arithmetic<_Tp>::__value
 829:/Library/DaisyToolchain/0.2.0/arm/arm-none-eabi/include/c++/10.3.1/cmath **** 			    && __is_arithmetic<_Up>::__value), bool>::__type
 830:/Library/DaisyToolchain/0.2.0/arm/arm-none-eabi/include/c++/10.3.1/cmath ****     isunordered(_Tp __x, _Up __y)
 831:/Library/DaisyToolchain/0.2.0/arm/arm-none-eabi/include/c++/10.3.1/cmath ****     {
 832:/Library/DaisyToolchain/0.2.0/arm/arm-none-eabi/include/c++/10.3.1/cmath ****       typedef typename __gnu_cxx::__promote_2<_Tp, _Up>::__type __type;
 833:/Library/DaisyToolchain/0.2.0/arm/arm-none-eabi/include/c++/10.3.1/cmath ****       return __builtin_isunordered(__type(__x), __type(__y));
 834:/Library/DaisyToolchain/0.2.0/arm/arm-none-eabi/include/c++/10.3.1/cmath ****     }
 835:/Library/DaisyToolchain/0.2.0/arm/arm-none-eabi/include/c++/10.3.1/cmath **** #endif
 836:/Library/DaisyToolchain/0.2.0/arm/arm-none-eabi/include/c++/10.3.1/cmath **** 
 837:/Library/DaisyToolchain/0.2.0/arm/arm-none-eabi/include/c++/10.3.1/cmath **** #else
 838:/Library/DaisyToolchain/0.2.0/arm/arm-none-eabi/include/c++/10.3.1/cmath **** 
 839:/Library/DaisyToolchain/0.2.0/arm/arm-none-eabi/include/c++/10.3.1/cmath ****   template<typename _Tp>
 840:/Library/DaisyToolchain/0.2.0/arm/arm-none-eabi/include/c++/10.3.1/cmath ****     inline typename __gnu_cxx::__enable_if<__is_arithmetic<_Tp>::__value,
 841:/Library/DaisyToolchain/0.2.0/arm/arm-none-eabi/include/c++/10.3.1/cmath **** 					   int>::__type
 842:/Library/DaisyToolchain/0.2.0/arm/arm-none-eabi/include/c++/10.3.1/cmath ****     fpclassify(_Tp __f)
 843:/Library/DaisyToolchain/0.2.0/arm/arm-none-eabi/include/c++/10.3.1/cmath ****     {
 844:/Library/DaisyToolchain/0.2.0/arm/arm-none-eabi/include/c++/10.3.1/cmath ****       typedef typename __gnu_cxx::__promote<_Tp>::__type __type;
 845:/Library/DaisyToolchain/0.2.0/arm/arm-none-eabi/include/c++/10.3.1/cmath ****       return __builtin_fpclassify(FP_NAN, FP_INFINITE, FP_NORMAL,
 846:/Library/DaisyToolchain/0.2.0/arm/arm-none-eabi/include/c++/10.3.1/cmath **** 				  FP_SUBNORMAL, FP_ZERO, __type(__f));
 847:/Library/DaisyToolchain/0.2.0/arm/arm-none-eabi/include/c++/10.3.1/cmath ****     }
ARM GAS  /var/folders/2p/02m_5p7958535cp2tpgps0400000gn/T//ccx9FAOt.s 			page 124


 848:/Library/DaisyToolchain/0.2.0/arm/arm-none-eabi/include/c++/10.3.1/cmath **** 
 849:/Library/DaisyToolchain/0.2.0/arm/arm-none-eabi/include/c++/10.3.1/cmath ****   template<typename _Tp>
 850:/Library/DaisyToolchain/0.2.0/arm/arm-none-eabi/include/c++/10.3.1/cmath ****     inline typename __gnu_cxx::__enable_if<__is_arithmetic<_Tp>::__value,
 851:/Library/DaisyToolchain/0.2.0/arm/arm-none-eabi/include/c++/10.3.1/cmath **** 					   int>::__type
 852:/Library/DaisyToolchain/0.2.0/arm/arm-none-eabi/include/c++/10.3.1/cmath ****     isfinite(_Tp __f)
 853:/Library/DaisyToolchain/0.2.0/arm/arm-none-eabi/include/c++/10.3.1/cmath ****     {
 854:/Library/DaisyToolchain/0.2.0/arm/arm-none-eabi/include/c++/10.3.1/cmath ****       typedef typename __gnu_cxx::__promote<_Tp>::__type __type;
 855:/Library/DaisyToolchain/0.2.0/arm/arm-none-eabi/include/c++/10.3.1/cmath ****       return __builtin_isfinite(__type(__f));
 856:/Library/DaisyToolchain/0.2.0/arm/arm-none-eabi/include/c++/10.3.1/cmath ****     }
 857:/Library/DaisyToolchain/0.2.0/arm/arm-none-eabi/include/c++/10.3.1/cmath **** 
 858:/Library/DaisyToolchain/0.2.0/arm/arm-none-eabi/include/c++/10.3.1/cmath ****   template<typename _Tp>
 859:/Library/DaisyToolchain/0.2.0/arm/arm-none-eabi/include/c++/10.3.1/cmath ****     inline typename __gnu_cxx::__enable_if<__is_arithmetic<_Tp>::__value,
 860:/Library/DaisyToolchain/0.2.0/arm/arm-none-eabi/include/c++/10.3.1/cmath **** 					   int>::__type
 861:/Library/DaisyToolchain/0.2.0/arm/arm-none-eabi/include/c++/10.3.1/cmath ****     isinf(_Tp __f)
 862:/Library/DaisyToolchain/0.2.0/arm/arm-none-eabi/include/c++/10.3.1/cmath ****     {
 863:/Library/DaisyToolchain/0.2.0/arm/arm-none-eabi/include/c++/10.3.1/cmath ****       typedef typename __gnu_cxx::__promote<_Tp>::__type __type;
 864:/Library/DaisyToolchain/0.2.0/arm/arm-none-eabi/include/c++/10.3.1/cmath ****       return __builtin_isinf(__type(__f));
 865:/Library/DaisyToolchain/0.2.0/arm/arm-none-eabi/include/c++/10.3.1/cmath ****     }
 866:/Library/DaisyToolchain/0.2.0/arm/arm-none-eabi/include/c++/10.3.1/cmath **** 
 867:/Library/DaisyToolchain/0.2.0/arm/arm-none-eabi/include/c++/10.3.1/cmath ****   template<typename _Tp>
 868:/Library/DaisyToolchain/0.2.0/arm/arm-none-eabi/include/c++/10.3.1/cmath ****     inline typename __gnu_cxx::__enable_if<__is_arithmetic<_Tp>::__value,
 869:/Library/DaisyToolchain/0.2.0/arm/arm-none-eabi/include/c++/10.3.1/cmath **** 					   int>::__type
 870:/Library/DaisyToolchain/0.2.0/arm/arm-none-eabi/include/c++/10.3.1/cmath ****     isnan(_Tp __f)
 871:/Library/DaisyToolchain/0.2.0/arm/arm-none-eabi/include/c++/10.3.1/cmath ****     {
 872:/Library/DaisyToolchain/0.2.0/arm/arm-none-eabi/include/c++/10.3.1/cmath ****       typedef typename __gnu_cxx::__promote<_Tp>::__type __type;
 873:/Library/DaisyToolchain/0.2.0/arm/arm-none-eabi/include/c++/10.3.1/cmath ****       return __builtin_isnan(__type(__f));
 874:/Library/DaisyToolchain/0.2.0/arm/arm-none-eabi/include/c++/10.3.1/cmath ****     }
 875:/Library/DaisyToolchain/0.2.0/arm/arm-none-eabi/include/c++/10.3.1/cmath **** 
 876:/Library/DaisyToolchain/0.2.0/arm/arm-none-eabi/include/c++/10.3.1/cmath ****   template<typename _Tp>
 877:/Library/DaisyToolchain/0.2.0/arm/arm-none-eabi/include/c++/10.3.1/cmath ****     inline typename __gnu_cxx::__enable_if<__is_arithmetic<_Tp>::__value,
 878:/Library/DaisyToolchain/0.2.0/arm/arm-none-eabi/include/c++/10.3.1/cmath **** 					   int>::__type
 879:/Library/DaisyToolchain/0.2.0/arm/arm-none-eabi/include/c++/10.3.1/cmath ****     isnormal(_Tp __f)
 880:/Library/DaisyToolchain/0.2.0/arm/arm-none-eabi/include/c++/10.3.1/cmath ****     {
 881:/Library/DaisyToolchain/0.2.0/arm/arm-none-eabi/include/c++/10.3.1/cmath ****       typedef typename __gnu_cxx::__promote<_Tp>::__type __type;
 882:/Library/DaisyToolchain/0.2.0/arm/arm-none-eabi/include/c++/10.3.1/cmath ****       return __builtin_isnormal(__type(__f));
 883:/Library/DaisyToolchain/0.2.0/arm/arm-none-eabi/include/c++/10.3.1/cmath ****     }
 884:/Library/DaisyToolchain/0.2.0/arm/arm-none-eabi/include/c++/10.3.1/cmath **** 
 885:/Library/DaisyToolchain/0.2.0/arm/arm-none-eabi/include/c++/10.3.1/cmath ****   template<typename _Tp>
 886:/Library/DaisyToolchain/0.2.0/arm/arm-none-eabi/include/c++/10.3.1/cmath ****     inline typename __gnu_cxx::__enable_if<__is_arithmetic<_Tp>::__value,
 887:/Library/DaisyToolchain/0.2.0/arm/arm-none-eabi/include/c++/10.3.1/cmath **** 					   int>::__type
 888:/Library/DaisyToolchain/0.2.0/arm/arm-none-eabi/include/c++/10.3.1/cmath ****     signbit(_Tp __f)
 889:/Library/DaisyToolchain/0.2.0/arm/arm-none-eabi/include/c++/10.3.1/cmath ****     {
 890:/Library/DaisyToolchain/0.2.0/arm/arm-none-eabi/include/c++/10.3.1/cmath ****       typedef typename __gnu_cxx::__promote<_Tp>::__type __type;
 891:/Library/DaisyToolchain/0.2.0/arm/arm-none-eabi/include/c++/10.3.1/cmath ****       return __builtin_signbit(__type(__f));
 892:/Library/DaisyToolchain/0.2.0/arm/arm-none-eabi/include/c++/10.3.1/cmath ****     }
 893:/Library/DaisyToolchain/0.2.0/arm/arm-none-eabi/include/c++/10.3.1/cmath **** 
 894:/Library/DaisyToolchain/0.2.0/arm/arm-none-eabi/include/c++/10.3.1/cmath ****   template<typename _Tp>
 895:/Library/DaisyToolchain/0.2.0/arm/arm-none-eabi/include/c++/10.3.1/cmath ****     inline typename __gnu_cxx::__enable_if<__is_arithmetic<_Tp>::__value,
 896:/Library/DaisyToolchain/0.2.0/arm/arm-none-eabi/include/c++/10.3.1/cmath **** 					   int>::__type
 897:/Library/DaisyToolchain/0.2.0/arm/arm-none-eabi/include/c++/10.3.1/cmath ****     isgreater(_Tp __f1, _Tp __f2)
 898:/Library/DaisyToolchain/0.2.0/arm/arm-none-eabi/include/c++/10.3.1/cmath ****     {
 899:/Library/DaisyToolchain/0.2.0/arm/arm-none-eabi/include/c++/10.3.1/cmath ****       typedef typename __gnu_cxx::__promote<_Tp>::__type __type;
 900:/Library/DaisyToolchain/0.2.0/arm/arm-none-eabi/include/c++/10.3.1/cmath ****       return __builtin_isgreater(__type(__f1), __type(__f2));
 901:/Library/DaisyToolchain/0.2.0/arm/arm-none-eabi/include/c++/10.3.1/cmath ****     }
 902:/Library/DaisyToolchain/0.2.0/arm/arm-none-eabi/include/c++/10.3.1/cmath **** 
 903:/Library/DaisyToolchain/0.2.0/arm/arm-none-eabi/include/c++/10.3.1/cmath ****   template<typename _Tp>
 904:/Library/DaisyToolchain/0.2.0/arm/arm-none-eabi/include/c++/10.3.1/cmath ****     inline typename __gnu_cxx::__enable_if<__is_arithmetic<_Tp>::__value,
ARM GAS  /var/folders/2p/02m_5p7958535cp2tpgps0400000gn/T//ccx9FAOt.s 			page 125


 905:/Library/DaisyToolchain/0.2.0/arm/arm-none-eabi/include/c++/10.3.1/cmath **** 					   int>::__type
 906:/Library/DaisyToolchain/0.2.0/arm/arm-none-eabi/include/c++/10.3.1/cmath ****     isgreaterequal(_Tp __f1, _Tp __f2)
 907:/Library/DaisyToolchain/0.2.0/arm/arm-none-eabi/include/c++/10.3.1/cmath ****     {
 908:/Library/DaisyToolchain/0.2.0/arm/arm-none-eabi/include/c++/10.3.1/cmath ****       typedef typename __gnu_cxx::__promote<_Tp>::__type __type;
 909:/Library/DaisyToolchain/0.2.0/arm/arm-none-eabi/include/c++/10.3.1/cmath ****       return __builtin_isgreaterequal(__type(__f1), __type(__f2));
 910:/Library/DaisyToolchain/0.2.0/arm/arm-none-eabi/include/c++/10.3.1/cmath ****     }
 911:/Library/DaisyToolchain/0.2.0/arm/arm-none-eabi/include/c++/10.3.1/cmath **** 
 912:/Library/DaisyToolchain/0.2.0/arm/arm-none-eabi/include/c++/10.3.1/cmath ****   template<typename _Tp>
 913:/Library/DaisyToolchain/0.2.0/arm/arm-none-eabi/include/c++/10.3.1/cmath ****     inline typename __gnu_cxx::__enable_if<__is_arithmetic<_Tp>::__value,
 914:/Library/DaisyToolchain/0.2.0/arm/arm-none-eabi/include/c++/10.3.1/cmath **** 					   int>::__type
 915:/Library/DaisyToolchain/0.2.0/arm/arm-none-eabi/include/c++/10.3.1/cmath ****     isless(_Tp __f1, _Tp __f2)
 916:/Library/DaisyToolchain/0.2.0/arm/arm-none-eabi/include/c++/10.3.1/cmath ****     {
 917:/Library/DaisyToolchain/0.2.0/arm/arm-none-eabi/include/c++/10.3.1/cmath ****       typedef typename __gnu_cxx::__promote<_Tp>::__type __type;
 918:/Library/DaisyToolchain/0.2.0/arm/arm-none-eabi/include/c++/10.3.1/cmath ****       return __builtin_isless(__type(__f1), __type(__f2));
 919:/Library/DaisyToolchain/0.2.0/arm/arm-none-eabi/include/c++/10.3.1/cmath ****     }
 920:/Library/DaisyToolchain/0.2.0/arm/arm-none-eabi/include/c++/10.3.1/cmath **** 
 921:/Library/DaisyToolchain/0.2.0/arm/arm-none-eabi/include/c++/10.3.1/cmath ****   template<typename _Tp>
 922:/Library/DaisyToolchain/0.2.0/arm/arm-none-eabi/include/c++/10.3.1/cmath ****     inline typename __gnu_cxx::__enable_if<__is_arithmetic<_Tp>::__value,
 923:/Library/DaisyToolchain/0.2.0/arm/arm-none-eabi/include/c++/10.3.1/cmath **** 					   int>::__type
 924:/Library/DaisyToolchain/0.2.0/arm/arm-none-eabi/include/c++/10.3.1/cmath ****     islessequal(_Tp __f1, _Tp __f2)
 925:/Library/DaisyToolchain/0.2.0/arm/arm-none-eabi/include/c++/10.3.1/cmath ****     {
 926:/Library/DaisyToolchain/0.2.0/arm/arm-none-eabi/include/c++/10.3.1/cmath ****       typedef typename __gnu_cxx::__promote<_Tp>::__type __type;
 927:/Library/DaisyToolchain/0.2.0/arm/arm-none-eabi/include/c++/10.3.1/cmath ****       return __builtin_islessequal(__type(__f1), __type(__f2));
 928:/Library/DaisyToolchain/0.2.0/arm/arm-none-eabi/include/c++/10.3.1/cmath ****     }
 929:/Library/DaisyToolchain/0.2.0/arm/arm-none-eabi/include/c++/10.3.1/cmath **** 
 930:/Library/DaisyToolchain/0.2.0/arm/arm-none-eabi/include/c++/10.3.1/cmath ****   template<typename _Tp>
 931:/Library/DaisyToolchain/0.2.0/arm/arm-none-eabi/include/c++/10.3.1/cmath ****     inline typename __gnu_cxx::__enable_if<__is_arithmetic<_Tp>::__value,
 932:/Library/DaisyToolchain/0.2.0/arm/arm-none-eabi/include/c++/10.3.1/cmath **** 					   int>::__type
 933:/Library/DaisyToolchain/0.2.0/arm/arm-none-eabi/include/c++/10.3.1/cmath ****     islessgreater(_Tp __f1, _Tp __f2)
 934:/Library/DaisyToolchain/0.2.0/arm/arm-none-eabi/include/c++/10.3.1/cmath ****     {
 935:/Library/DaisyToolchain/0.2.0/arm/arm-none-eabi/include/c++/10.3.1/cmath ****       typedef typename __gnu_cxx::__promote<_Tp>::__type __type;
 936:/Library/DaisyToolchain/0.2.0/arm/arm-none-eabi/include/c++/10.3.1/cmath ****       return __builtin_islessgreater(__type(__f1), __type(__f2));
 937:/Library/DaisyToolchain/0.2.0/arm/arm-none-eabi/include/c++/10.3.1/cmath ****     }
 938:/Library/DaisyToolchain/0.2.0/arm/arm-none-eabi/include/c++/10.3.1/cmath **** 
 939:/Library/DaisyToolchain/0.2.0/arm/arm-none-eabi/include/c++/10.3.1/cmath ****   template<typename _Tp>
 940:/Library/DaisyToolchain/0.2.0/arm/arm-none-eabi/include/c++/10.3.1/cmath ****     inline typename __gnu_cxx::__enable_if<__is_arithmetic<_Tp>::__value,
 941:/Library/DaisyToolchain/0.2.0/arm/arm-none-eabi/include/c++/10.3.1/cmath **** 					   int>::__type
 942:/Library/DaisyToolchain/0.2.0/arm/arm-none-eabi/include/c++/10.3.1/cmath ****     isunordered(_Tp __f1, _Tp __f2)
 943:/Library/DaisyToolchain/0.2.0/arm/arm-none-eabi/include/c++/10.3.1/cmath ****     {
 944:/Library/DaisyToolchain/0.2.0/arm/arm-none-eabi/include/c++/10.3.1/cmath ****       typedef typename __gnu_cxx::__promote<_Tp>::__type __type;
 945:/Library/DaisyToolchain/0.2.0/arm/arm-none-eabi/include/c++/10.3.1/cmath ****       return __builtin_isunordered(__type(__f1), __type(__f2));
 946:/Library/DaisyToolchain/0.2.0/arm/arm-none-eabi/include/c++/10.3.1/cmath ****     }
 947:/Library/DaisyToolchain/0.2.0/arm/arm-none-eabi/include/c++/10.3.1/cmath **** 
 948:/Library/DaisyToolchain/0.2.0/arm/arm-none-eabi/include/c++/10.3.1/cmath **** #endif // C++11
 949:/Library/DaisyToolchain/0.2.0/arm/arm-none-eabi/include/c++/10.3.1/cmath **** #endif /* _GLIBCXX_USE_C99_FP_MACROS_DYNAMIC */
 950:/Library/DaisyToolchain/0.2.0/arm/arm-none-eabi/include/c++/10.3.1/cmath **** #endif /* _GLIBCXX_USE_C99_MATH */
 951:/Library/DaisyToolchain/0.2.0/arm/arm-none-eabi/include/c++/10.3.1/cmath **** 
 952:/Library/DaisyToolchain/0.2.0/arm/arm-none-eabi/include/c++/10.3.1/cmath **** #if __cplusplus >= 201103L
 953:/Library/DaisyToolchain/0.2.0/arm/arm-none-eabi/include/c++/10.3.1/cmath **** 
 954:/Library/DaisyToolchain/0.2.0/arm/arm-none-eabi/include/c++/10.3.1/cmath **** #ifdef _GLIBCXX_USE_C99_MATH_TR1
 955:/Library/DaisyToolchain/0.2.0/arm/arm-none-eabi/include/c++/10.3.1/cmath **** 
 956:/Library/DaisyToolchain/0.2.0/arm/arm-none-eabi/include/c++/10.3.1/cmath **** #undef acosh
 957:/Library/DaisyToolchain/0.2.0/arm/arm-none-eabi/include/c++/10.3.1/cmath **** #undef acoshf
 958:/Library/DaisyToolchain/0.2.0/arm/arm-none-eabi/include/c++/10.3.1/cmath **** #undef acoshl
 959:/Library/DaisyToolchain/0.2.0/arm/arm-none-eabi/include/c++/10.3.1/cmath **** #undef asinh
 960:/Library/DaisyToolchain/0.2.0/arm/arm-none-eabi/include/c++/10.3.1/cmath **** #undef asinhf
 961:/Library/DaisyToolchain/0.2.0/arm/arm-none-eabi/include/c++/10.3.1/cmath **** #undef asinhl
ARM GAS  /var/folders/2p/02m_5p7958535cp2tpgps0400000gn/T//ccx9FAOt.s 			page 126


 962:/Library/DaisyToolchain/0.2.0/arm/arm-none-eabi/include/c++/10.3.1/cmath **** #undef atanh
 963:/Library/DaisyToolchain/0.2.0/arm/arm-none-eabi/include/c++/10.3.1/cmath **** #undef atanhf
 964:/Library/DaisyToolchain/0.2.0/arm/arm-none-eabi/include/c++/10.3.1/cmath **** #undef atanhl
 965:/Library/DaisyToolchain/0.2.0/arm/arm-none-eabi/include/c++/10.3.1/cmath **** #undef cbrt
 966:/Library/DaisyToolchain/0.2.0/arm/arm-none-eabi/include/c++/10.3.1/cmath **** #undef cbrtf
 967:/Library/DaisyToolchain/0.2.0/arm/arm-none-eabi/include/c++/10.3.1/cmath **** #undef cbrtl
 968:/Library/DaisyToolchain/0.2.0/arm/arm-none-eabi/include/c++/10.3.1/cmath **** #undef copysign
 969:/Library/DaisyToolchain/0.2.0/arm/arm-none-eabi/include/c++/10.3.1/cmath **** #undef copysignf
 970:/Library/DaisyToolchain/0.2.0/arm/arm-none-eabi/include/c++/10.3.1/cmath **** #undef copysignl
 971:/Library/DaisyToolchain/0.2.0/arm/arm-none-eabi/include/c++/10.3.1/cmath **** #undef erf
 972:/Library/DaisyToolchain/0.2.0/arm/arm-none-eabi/include/c++/10.3.1/cmath **** #undef erff
 973:/Library/DaisyToolchain/0.2.0/arm/arm-none-eabi/include/c++/10.3.1/cmath **** #undef erfl
 974:/Library/DaisyToolchain/0.2.0/arm/arm-none-eabi/include/c++/10.3.1/cmath **** #undef erfc
 975:/Library/DaisyToolchain/0.2.0/arm/arm-none-eabi/include/c++/10.3.1/cmath **** #undef erfcf
 976:/Library/DaisyToolchain/0.2.0/arm/arm-none-eabi/include/c++/10.3.1/cmath **** #undef erfcl
 977:/Library/DaisyToolchain/0.2.0/arm/arm-none-eabi/include/c++/10.3.1/cmath **** #undef exp2
 978:/Library/DaisyToolchain/0.2.0/arm/arm-none-eabi/include/c++/10.3.1/cmath **** #undef exp2f
 979:/Library/DaisyToolchain/0.2.0/arm/arm-none-eabi/include/c++/10.3.1/cmath **** #undef exp2l
 980:/Library/DaisyToolchain/0.2.0/arm/arm-none-eabi/include/c++/10.3.1/cmath **** #undef expm1
 981:/Library/DaisyToolchain/0.2.0/arm/arm-none-eabi/include/c++/10.3.1/cmath **** #undef expm1f
 982:/Library/DaisyToolchain/0.2.0/arm/arm-none-eabi/include/c++/10.3.1/cmath **** #undef expm1l
 983:/Library/DaisyToolchain/0.2.0/arm/arm-none-eabi/include/c++/10.3.1/cmath **** #undef fdim
 984:/Library/DaisyToolchain/0.2.0/arm/arm-none-eabi/include/c++/10.3.1/cmath **** #undef fdimf
 985:/Library/DaisyToolchain/0.2.0/arm/arm-none-eabi/include/c++/10.3.1/cmath **** #undef fdiml
 986:/Library/DaisyToolchain/0.2.0/arm/arm-none-eabi/include/c++/10.3.1/cmath **** #undef fma
 987:/Library/DaisyToolchain/0.2.0/arm/arm-none-eabi/include/c++/10.3.1/cmath **** #undef fmaf
 988:/Library/DaisyToolchain/0.2.0/arm/arm-none-eabi/include/c++/10.3.1/cmath **** #undef fmal
 989:/Library/DaisyToolchain/0.2.0/arm/arm-none-eabi/include/c++/10.3.1/cmath **** #undef fmax
 990:/Library/DaisyToolchain/0.2.0/arm/arm-none-eabi/include/c++/10.3.1/cmath **** #undef fmaxf
 991:/Library/DaisyToolchain/0.2.0/arm/arm-none-eabi/include/c++/10.3.1/cmath **** #undef fmaxl
 992:/Library/DaisyToolchain/0.2.0/arm/arm-none-eabi/include/c++/10.3.1/cmath **** #undef fmin
 993:/Library/DaisyToolchain/0.2.0/arm/arm-none-eabi/include/c++/10.3.1/cmath **** #undef fminf
 994:/Library/DaisyToolchain/0.2.0/arm/arm-none-eabi/include/c++/10.3.1/cmath **** #undef fminl
 995:/Library/DaisyToolchain/0.2.0/arm/arm-none-eabi/include/c++/10.3.1/cmath **** #undef hypot
 996:/Library/DaisyToolchain/0.2.0/arm/arm-none-eabi/include/c++/10.3.1/cmath **** #undef hypotf
 997:/Library/DaisyToolchain/0.2.0/arm/arm-none-eabi/include/c++/10.3.1/cmath **** #undef hypotl
 998:/Library/DaisyToolchain/0.2.0/arm/arm-none-eabi/include/c++/10.3.1/cmath **** #undef ilogb
 999:/Library/DaisyToolchain/0.2.0/arm/arm-none-eabi/include/c++/10.3.1/cmath **** #undef ilogbf
1000:/Library/DaisyToolchain/0.2.0/arm/arm-none-eabi/include/c++/10.3.1/cmath **** #undef ilogbl
1001:/Library/DaisyToolchain/0.2.0/arm/arm-none-eabi/include/c++/10.3.1/cmath **** #undef lgamma
1002:/Library/DaisyToolchain/0.2.0/arm/arm-none-eabi/include/c++/10.3.1/cmath **** #undef lgammaf
1003:/Library/DaisyToolchain/0.2.0/arm/arm-none-eabi/include/c++/10.3.1/cmath **** #undef lgammal
1004:/Library/DaisyToolchain/0.2.0/arm/arm-none-eabi/include/c++/10.3.1/cmath **** #ifndef _GLIBCXX_NO_C99_ROUNDING_FUNCS
1005:/Library/DaisyToolchain/0.2.0/arm/arm-none-eabi/include/c++/10.3.1/cmath **** #undef llrint
1006:/Library/DaisyToolchain/0.2.0/arm/arm-none-eabi/include/c++/10.3.1/cmath **** #undef llrintf
1007:/Library/DaisyToolchain/0.2.0/arm/arm-none-eabi/include/c++/10.3.1/cmath **** #undef llrintl
1008:/Library/DaisyToolchain/0.2.0/arm/arm-none-eabi/include/c++/10.3.1/cmath **** #undef llround
1009:/Library/DaisyToolchain/0.2.0/arm/arm-none-eabi/include/c++/10.3.1/cmath **** #undef llroundf
1010:/Library/DaisyToolchain/0.2.0/arm/arm-none-eabi/include/c++/10.3.1/cmath **** #undef llroundl
1011:/Library/DaisyToolchain/0.2.0/arm/arm-none-eabi/include/c++/10.3.1/cmath **** #endif
1012:/Library/DaisyToolchain/0.2.0/arm/arm-none-eabi/include/c++/10.3.1/cmath **** #undef log1p
1013:/Library/DaisyToolchain/0.2.0/arm/arm-none-eabi/include/c++/10.3.1/cmath **** #undef log1pf
1014:/Library/DaisyToolchain/0.2.0/arm/arm-none-eabi/include/c++/10.3.1/cmath **** #undef log1pl
1015:/Library/DaisyToolchain/0.2.0/arm/arm-none-eabi/include/c++/10.3.1/cmath **** #undef log2
1016:/Library/DaisyToolchain/0.2.0/arm/arm-none-eabi/include/c++/10.3.1/cmath **** #undef log2f
1017:/Library/DaisyToolchain/0.2.0/arm/arm-none-eabi/include/c++/10.3.1/cmath **** #undef log2l
1018:/Library/DaisyToolchain/0.2.0/arm/arm-none-eabi/include/c++/10.3.1/cmath **** #undef logb
ARM GAS  /var/folders/2p/02m_5p7958535cp2tpgps0400000gn/T//ccx9FAOt.s 			page 127


1019:/Library/DaisyToolchain/0.2.0/arm/arm-none-eabi/include/c++/10.3.1/cmath **** #undef logbf
1020:/Library/DaisyToolchain/0.2.0/arm/arm-none-eabi/include/c++/10.3.1/cmath **** #undef logbl
1021:/Library/DaisyToolchain/0.2.0/arm/arm-none-eabi/include/c++/10.3.1/cmath **** #undef lrint
1022:/Library/DaisyToolchain/0.2.0/arm/arm-none-eabi/include/c++/10.3.1/cmath **** #undef lrintf
1023:/Library/DaisyToolchain/0.2.0/arm/arm-none-eabi/include/c++/10.3.1/cmath **** #undef lrintl
1024:/Library/DaisyToolchain/0.2.0/arm/arm-none-eabi/include/c++/10.3.1/cmath **** #undef lround
1025:/Library/DaisyToolchain/0.2.0/arm/arm-none-eabi/include/c++/10.3.1/cmath **** #undef lroundf
1026:/Library/DaisyToolchain/0.2.0/arm/arm-none-eabi/include/c++/10.3.1/cmath **** #undef lroundl
1027:/Library/DaisyToolchain/0.2.0/arm/arm-none-eabi/include/c++/10.3.1/cmath **** #undef nan
1028:/Library/DaisyToolchain/0.2.0/arm/arm-none-eabi/include/c++/10.3.1/cmath **** #undef nanf
1029:/Library/DaisyToolchain/0.2.0/arm/arm-none-eabi/include/c++/10.3.1/cmath **** #undef nanl
1030:/Library/DaisyToolchain/0.2.0/arm/arm-none-eabi/include/c++/10.3.1/cmath **** #undef nearbyint
1031:/Library/DaisyToolchain/0.2.0/arm/arm-none-eabi/include/c++/10.3.1/cmath **** #undef nearbyintf
1032:/Library/DaisyToolchain/0.2.0/arm/arm-none-eabi/include/c++/10.3.1/cmath **** #undef nearbyintl
1033:/Library/DaisyToolchain/0.2.0/arm/arm-none-eabi/include/c++/10.3.1/cmath **** #undef nextafter
1034:/Library/DaisyToolchain/0.2.0/arm/arm-none-eabi/include/c++/10.3.1/cmath **** #undef nextafterf
1035:/Library/DaisyToolchain/0.2.0/arm/arm-none-eabi/include/c++/10.3.1/cmath **** #undef nextafterl
1036:/Library/DaisyToolchain/0.2.0/arm/arm-none-eabi/include/c++/10.3.1/cmath **** #undef nexttoward
1037:/Library/DaisyToolchain/0.2.0/arm/arm-none-eabi/include/c++/10.3.1/cmath **** #undef nexttowardf
1038:/Library/DaisyToolchain/0.2.0/arm/arm-none-eabi/include/c++/10.3.1/cmath **** #undef nexttowardl
1039:/Library/DaisyToolchain/0.2.0/arm/arm-none-eabi/include/c++/10.3.1/cmath **** #undef remainder
1040:/Library/DaisyToolchain/0.2.0/arm/arm-none-eabi/include/c++/10.3.1/cmath **** #undef remainderf
1041:/Library/DaisyToolchain/0.2.0/arm/arm-none-eabi/include/c++/10.3.1/cmath **** #undef remainderl
1042:/Library/DaisyToolchain/0.2.0/arm/arm-none-eabi/include/c++/10.3.1/cmath **** #undef remquo
1043:/Library/DaisyToolchain/0.2.0/arm/arm-none-eabi/include/c++/10.3.1/cmath **** #undef remquof
1044:/Library/DaisyToolchain/0.2.0/arm/arm-none-eabi/include/c++/10.3.1/cmath **** #undef remquol
1045:/Library/DaisyToolchain/0.2.0/arm/arm-none-eabi/include/c++/10.3.1/cmath **** #undef rint
1046:/Library/DaisyToolchain/0.2.0/arm/arm-none-eabi/include/c++/10.3.1/cmath **** #undef rintf
1047:/Library/DaisyToolchain/0.2.0/arm/arm-none-eabi/include/c++/10.3.1/cmath **** #undef rintl
1048:/Library/DaisyToolchain/0.2.0/arm/arm-none-eabi/include/c++/10.3.1/cmath **** #undef round
1049:/Library/DaisyToolchain/0.2.0/arm/arm-none-eabi/include/c++/10.3.1/cmath **** #undef roundf
1050:/Library/DaisyToolchain/0.2.0/arm/arm-none-eabi/include/c++/10.3.1/cmath **** #undef roundl
1051:/Library/DaisyToolchain/0.2.0/arm/arm-none-eabi/include/c++/10.3.1/cmath **** #undef scalbln
1052:/Library/DaisyToolchain/0.2.0/arm/arm-none-eabi/include/c++/10.3.1/cmath **** #undef scalblnf
1053:/Library/DaisyToolchain/0.2.0/arm/arm-none-eabi/include/c++/10.3.1/cmath **** #undef scalblnl
1054:/Library/DaisyToolchain/0.2.0/arm/arm-none-eabi/include/c++/10.3.1/cmath **** #undef scalbn
1055:/Library/DaisyToolchain/0.2.0/arm/arm-none-eabi/include/c++/10.3.1/cmath **** #undef scalbnf
1056:/Library/DaisyToolchain/0.2.0/arm/arm-none-eabi/include/c++/10.3.1/cmath **** #undef scalbnl
1057:/Library/DaisyToolchain/0.2.0/arm/arm-none-eabi/include/c++/10.3.1/cmath **** #undef tgamma
1058:/Library/DaisyToolchain/0.2.0/arm/arm-none-eabi/include/c++/10.3.1/cmath **** #undef tgammaf
1059:/Library/DaisyToolchain/0.2.0/arm/arm-none-eabi/include/c++/10.3.1/cmath **** #undef tgammal
1060:/Library/DaisyToolchain/0.2.0/arm/arm-none-eabi/include/c++/10.3.1/cmath **** #undef trunc
1061:/Library/DaisyToolchain/0.2.0/arm/arm-none-eabi/include/c++/10.3.1/cmath **** #undef truncf
1062:/Library/DaisyToolchain/0.2.0/arm/arm-none-eabi/include/c++/10.3.1/cmath **** #undef truncl
1063:/Library/DaisyToolchain/0.2.0/arm/arm-none-eabi/include/c++/10.3.1/cmath **** 
1064:/Library/DaisyToolchain/0.2.0/arm/arm-none-eabi/include/c++/10.3.1/cmath ****   // types
1065:/Library/DaisyToolchain/0.2.0/arm/arm-none-eabi/include/c++/10.3.1/cmath ****   using ::double_t;
1066:/Library/DaisyToolchain/0.2.0/arm/arm-none-eabi/include/c++/10.3.1/cmath ****   using ::float_t;
1067:/Library/DaisyToolchain/0.2.0/arm/arm-none-eabi/include/c++/10.3.1/cmath **** 
1068:/Library/DaisyToolchain/0.2.0/arm/arm-none-eabi/include/c++/10.3.1/cmath ****   // functions
1069:/Library/DaisyToolchain/0.2.0/arm/arm-none-eabi/include/c++/10.3.1/cmath ****   using ::acosh;
1070:/Library/DaisyToolchain/0.2.0/arm/arm-none-eabi/include/c++/10.3.1/cmath ****   using ::acoshf;
1071:/Library/DaisyToolchain/0.2.0/arm/arm-none-eabi/include/c++/10.3.1/cmath ****   using ::acoshl;
1072:/Library/DaisyToolchain/0.2.0/arm/arm-none-eabi/include/c++/10.3.1/cmath **** 
1073:/Library/DaisyToolchain/0.2.0/arm/arm-none-eabi/include/c++/10.3.1/cmath ****   using ::asinh;
1074:/Library/DaisyToolchain/0.2.0/arm/arm-none-eabi/include/c++/10.3.1/cmath ****   using ::asinhf;
1075:/Library/DaisyToolchain/0.2.0/arm/arm-none-eabi/include/c++/10.3.1/cmath ****   using ::asinhl;
ARM GAS  /var/folders/2p/02m_5p7958535cp2tpgps0400000gn/T//ccx9FAOt.s 			page 128


1076:/Library/DaisyToolchain/0.2.0/arm/arm-none-eabi/include/c++/10.3.1/cmath **** 
1077:/Library/DaisyToolchain/0.2.0/arm/arm-none-eabi/include/c++/10.3.1/cmath ****   using ::atanh;
1078:/Library/DaisyToolchain/0.2.0/arm/arm-none-eabi/include/c++/10.3.1/cmath ****   using ::atanhf;
1079:/Library/DaisyToolchain/0.2.0/arm/arm-none-eabi/include/c++/10.3.1/cmath ****   using ::atanhl;
1080:/Library/DaisyToolchain/0.2.0/arm/arm-none-eabi/include/c++/10.3.1/cmath **** 
1081:/Library/DaisyToolchain/0.2.0/arm/arm-none-eabi/include/c++/10.3.1/cmath ****   using ::cbrt;
1082:/Library/DaisyToolchain/0.2.0/arm/arm-none-eabi/include/c++/10.3.1/cmath ****   using ::cbrtf;
1083:/Library/DaisyToolchain/0.2.0/arm/arm-none-eabi/include/c++/10.3.1/cmath ****   using ::cbrtl;
1084:/Library/DaisyToolchain/0.2.0/arm/arm-none-eabi/include/c++/10.3.1/cmath **** 
1085:/Library/DaisyToolchain/0.2.0/arm/arm-none-eabi/include/c++/10.3.1/cmath ****   using ::copysign;
1086:/Library/DaisyToolchain/0.2.0/arm/arm-none-eabi/include/c++/10.3.1/cmath ****   using ::copysignf;
1087:/Library/DaisyToolchain/0.2.0/arm/arm-none-eabi/include/c++/10.3.1/cmath ****   using ::copysignl;
1088:/Library/DaisyToolchain/0.2.0/arm/arm-none-eabi/include/c++/10.3.1/cmath **** 
1089:/Library/DaisyToolchain/0.2.0/arm/arm-none-eabi/include/c++/10.3.1/cmath ****   using ::erf;
1090:/Library/DaisyToolchain/0.2.0/arm/arm-none-eabi/include/c++/10.3.1/cmath ****   using ::erff;
1091:/Library/DaisyToolchain/0.2.0/arm/arm-none-eabi/include/c++/10.3.1/cmath ****   using ::erfl;
1092:/Library/DaisyToolchain/0.2.0/arm/arm-none-eabi/include/c++/10.3.1/cmath **** 
1093:/Library/DaisyToolchain/0.2.0/arm/arm-none-eabi/include/c++/10.3.1/cmath ****   using ::erfc;
1094:/Library/DaisyToolchain/0.2.0/arm/arm-none-eabi/include/c++/10.3.1/cmath ****   using ::erfcf;
1095:/Library/DaisyToolchain/0.2.0/arm/arm-none-eabi/include/c++/10.3.1/cmath ****   using ::erfcl;
1096:/Library/DaisyToolchain/0.2.0/arm/arm-none-eabi/include/c++/10.3.1/cmath **** 
1097:/Library/DaisyToolchain/0.2.0/arm/arm-none-eabi/include/c++/10.3.1/cmath ****   using ::exp2;
1098:/Library/DaisyToolchain/0.2.0/arm/arm-none-eabi/include/c++/10.3.1/cmath ****   using ::exp2f;
1099:/Library/DaisyToolchain/0.2.0/arm/arm-none-eabi/include/c++/10.3.1/cmath ****   using ::exp2l;
1100:/Library/DaisyToolchain/0.2.0/arm/arm-none-eabi/include/c++/10.3.1/cmath **** 
1101:/Library/DaisyToolchain/0.2.0/arm/arm-none-eabi/include/c++/10.3.1/cmath ****   using ::expm1;
1102:/Library/DaisyToolchain/0.2.0/arm/arm-none-eabi/include/c++/10.3.1/cmath ****   using ::expm1f;
1103:/Library/DaisyToolchain/0.2.0/arm/arm-none-eabi/include/c++/10.3.1/cmath ****   using ::expm1l;
1104:/Library/DaisyToolchain/0.2.0/arm/arm-none-eabi/include/c++/10.3.1/cmath **** 
1105:/Library/DaisyToolchain/0.2.0/arm/arm-none-eabi/include/c++/10.3.1/cmath ****   using ::fdim;
1106:/Library/DaisyToolchain/0.2.0/arm/arm-none-eabi/include/c++/10.3.1/cmath ****   using ::fdimf;
1107:/Library/DaisyToolchain/0.2.0/arm/arm-none-eabi/include/c++/10.3.1/cmath ****   using ::fdiml;
1108:/Library/DaisyToolchain/0.2.0/arm/arm-none-eabi/include/c++/10.3.1/cmath **** 
1109:/Library/DaisyToolchain/0.2.0/arm/arm-none-eabi/include/c++/10.3.1/cmath ****   using ::fma;
1110:/Library/DaisyToolchain/0.2.0/arm/arm-none-eabi/include/c++/10.3.1/cmath ****   using ::fmaf;
1111:/Library/DaisyToolchain/0.2.0/arm/arm-none-eabi/include/c++/10.3.1/cmath ****   using ::fmal;
1112:/Library/DaisyToolchain/0.2.0/arm/arm-none-eabi/include/c++/10.3.1/cmath **** 
1113:/Library/DaisyToolchain/0.2.0/arm/arm-none-eabi/include/c++/10.3.1/cmath ****   using ::fmax;
1114:/Library/DaisyToolchain/0.2.0/arm/arm-none-eabi/include/c++/10.3.1/cmath ****   using ::fmaxf;
1115:/Library/DaisyToolchain/0.2.0/arm/arm-none-eabi/include/c++/10.3.1/cmath ****   using ::fmaxl;
1116:/Library/DaisyToolchain/0.2.0/arm/arm-none-eabi/include/c++/10.3.1/cmath **** 
1117:/Library/DaisyToolchain/0.2.0/arm/arm-none-eabi/include/c++/10.3.1/cmath ****   using ::fmin;
1118:/Library/DaisyToolchain/0.2.0/arm/arm-none-eabi/include/c++/10.3.1/cmath ****   using ::fminf;
1119:/Library/DaisyToolchain/0.2.0/arm/arm-none-eabi/include/c++/10.3.1/cmath ****   using ::fminl;
1120:/Library/DaisyToolchain/0.2.0/arm/arm-none-eabi/include/c++/10.3.1/cmath **** 
1121:/Library/DaisyToolchain/0.2.0/arm/arm-none-eabi/include/c++/10.3.1/cmath ****   using ::hypot;
1122:/Library/DaisyToolchain/0.2.0/arm/arm-none-eabi/include/c++/10.3.1/cmath ****   using ::hypotf;
1123:/Library/DaisyToolchain/0.2.0/arm/arm-none-eabi/include/c++/10.3.1/cmath ****   using ::hypotl;
1124:/Library/DaisyToolchain/0.2.0/arm/arm-none-eabi/include/c++/10.3.1/cmath **** 
1125:/Library/DaisyToolchain/0.2.0/arm/arm-none-eabi/include/c++/10.3.1/cmath ****   using ::ilogb;
1126:/Library/DaisyToolchain/0.2.0/arm/arm-none-eabi/include/c++/10.3.1/cmath ****   using ::ilogbf;
1127:/Library/DaisyToolchain/0.2.0/arm/arm-none-eabi/include/c++/10.3.1/cmath ****   using ::ilogbl;
1128:/Library/DaisyToolchain/0.2.0/arm/arm-none-eabi/include/c++/10.3.1/cmath **** 
1129:/Library/DaisyToolchain/0.2.0/arm/arm-none-eabi/include/c++/10.3.1/cmath ****   using ::lgamma;
1130:/Library/DaisyToolchain/0.2.0/arm/arm-none-eabi/include/c++/10.3.1/cmath ****   using ::lgammaf;
1131:/Library/DaisyToolchain/0.2.0/arm/arm-none-eabi/include/c++/10.3.1/cmath ****   using ::lgammal;
1132:/Library/DaisyToolchain/0.2.0/arm/arm-none-eabi/include/c++/10.3.1/cmath **** 
ARM GAS  /var/folders/2p/02m_5p7958535cp2tpgps0400000gn/T//ccx9FAOt.s 			page 129


1133:/Library/DaisyToolchain/0.2.0/arm/arm-none-eabi/include/c++/10.3.1/cmath **** #ifndef _GLIBCXX_NO_C99_ROUNDING_FUNCS
1134:/Library/DaisyToolchain/0.2.0/arm/arm-none-eabi/include/c++/10.3.1/cmath ****   using ::llrint;
1135:/Library/DaisyToolchain/0.2.0/arm/arm-none-eabi/include/c++/10.3.1/cmath ****   using ::llrintf;
1136:/Library/DaisyToolchain/0.2.0/arm/arm-none-eabi/include/c++/10.3.1/cmath ****   using ::llrintl;
1137:/Library/DaisyToolchain/0.2.0/arm/arm-none-eabi/include/c++/10.3.1/cmath **** 
1138:/Library/DaisyToolchain/0.2.0/arm/arm-none-eabi/include/c++/10.3.1/cmath ****   using ::llround;
1139:/Library/DaisyToolchain/0.2.0/arm/arm-none-eabi/include/c++/10.3.1/cmath ****   using ::llroundf;
1140:/Library/DaisyToolchain/0.2.0/arm/arm-none-eabi/include/c++/10.3.1/cmath ****   using ::llroundl;
1141:/Library/DaisyToolchain/0.2.0/arm/arm-none-eabi/include/c++/10.3.1/cmath **** #endif
1142:/Library/DaisyToolchain/0.2.0/arm/arm-none-eabi/include/c++/10.3.1/cmath **** 
1143:/Library/DaisyToolchain/0.2.0/arm/arm-none-eabi/include/c++/10.3.1/cmath ****   using ::log1p;
1144:/Library/DaisyToolchain/0.2.0/arm/arm-none-eabi/include/c++/10.3.1/cmath ****   using ::log1pf;
1145:/Library/DaisyToolchain/0.2.0/arm/arm-none-eabi/include/c++/10.3.1/cmath ****   using ::log1pl;
1146:/Library/DaisyToolchain/0.2.0/arm/arm-none-eabi/include/c++/10.3.1/cmath **** 
1147:/Library/DaisyToolchain/0.2.0/arm/arm-none-eabi/include/c++/10.3.1/cmath ****   using ::log2;
1148:/Library/DaisyToolchain/0.2.0/arm/arm-none-eabi/include/c++/10.3.1/cmath ****   using ::log2f;
1149:/Library/DaisyToolchain/0.2.0/arm/arm-none-eabi/include/c++/10.3.1/cmath ****   using ::log2l;
1150:/Library/DaisyToolchain/0.2.0/arm/arm-none-eabi/include/c++/10.3.1/cmath **** 
1151:/Library/DaisyToolchain/0.2.0/arm/arm-none-eabi/include/c++/10.3.1/cmath ****   using ::logb;
1152:/Library/DaisyToolchain/0.2.0/arm/arm-none-eabi/include/c++/10.3.1/cmath ****   using ::logbf;
1153:/Library/DaisyToolchain/0.2.0/arm/arm-none-eabi/include/c++/10.3.1/cmath ****   using ::logbl;
1154:/Library/DaisyToolchain/0.2.0/arm/arm-none-eabi/include/c++/10.3.1/cmath **** 
1155:/Library/DaisyToolchain/0.2.0/arm/arm-none-eabi/include/c++/10.3.1/cmath ****   using ::lrint;
1156:/Library/DaisyToolchain/0.2.0/arm/arm-none-eabi/include/c++/10.3.1/cmath ****   using ::lrintf;
1157:/Library/DaisyToolchain/0.2.0/arm/arm-none-eabi/include/c++/10.3.1/cmath ****   using ::lrintl;
1158:/Library/DaisyToolchain/0.2.0/arm/arm-none-eabi/include/c++/10.3.1/cmath **** 
1159:/Library/DaisyToolchain/0.2.0/arm/arm-none-eabi/include/c++/10.3.1/cmath ****   using ::lround;
1160:/Library/DaisyToolchain/0.2.0/arm/arm-none-eabi/include/c++/10.3.1/cmath ****   using ::lroundf;
1161:/Library/DaisyToolchain/0.2.0/arm/arm-none-eabi/include/c++/10.3.1/cmath ****   using ::lroundl;
1162:/Library/DaisyToolchain/0.2.0/arm/arm-none-eabi/include/c++/10.3.1/cmath **** 
1163:/Library/DaisyToolchain/0.2.0/arm/arm-none-eabi/include/c++/10.3.1/cmath ****   using ::nan;
1164:/Library/DaisyToolchain/0.2.0/arm/arm-none-eabi/include/c++/10.3.1/cmath ****   using ::nanf;
1165:/Library/DaisyToolchain/0.2.0/arm/arm-none-eabi/include/c++/10.3.1/cmath ****   using ::nanl;
1166:/Library/DaisyToolchain/0.2.0/arm/arm-none-eabi/include/c++/10.3.1/cmath **** 
1167:/Library/DaisyToolchain/0.2.0/arm/arm-none-eabi/include/c++/10.3.1/cmath ****   using ::nearbyint;
1168:/Library/DaisyToolchain/0.2.0/arm/arm-none-eabi/include/c++/10.3.1/cmath ****   using ::nearbyintf;
1169:/Library/DaisyToolchain/0.2.0/arm/arm-none-eabi/include/c++/10.3.1/cmath ****   using ::nearbyintl;
1170:/Library/DaisyToolchain/0.2.0/arm/arm-none-eabi/include/c++/10.3.1/cmath **** 
1171:/Library/DaisyToolchain/0.2.0/arm/arm-none-eabi/include/c++/10.3.1/cmath ****   using ::nextafter;
1172:/Library/DaisyToolchain/0.2.0/arm/arm-none-eabi/include/c++/10.3.1/cmath ****   using ::nextafterf;
1173:/Library/DaisyToolchain/0.2.0/arm/arm-none-eabi/include/c++/10.3.1/cmath ****   using ::nextafterl;
1174:/Library/DaisyToolchain/0.2.0/arm/arm-none-eabi/include/c++/10.3.1/cmath **** 
1175:/Library/DaisyToolchain/0.2.0/arm/arm-none-eabi/include/c++/10.3.1/cmath ****   using ::nexttoward;
1176:/Library/DaisyToolchain/0.2.0/arm/arm-none-eabi/include/c++/10.3.1/cmath ****   using ::nexttowardf;
1177:/Library/DaisyToolchain/0.2.0/arm/arm-none-eabi/include/c++/10.3.1/cmath ****   using ::nexttowardl;
1178:/Library/DaisyToolchain/0.2.0/arm/arm-none-eabi/include/c++/10.3.1/cmath **** 
1179:/Library/DaisyToolchain/0.2.0/arm/arm-none-eabi/include/c++/10.3.1/cmath ****   using ::remainder;
1180:/Library/DaisyToolchain/0.2.0/arm/arm-none-eabi/include/c++/10.3.1/cmath ****   using ::remainderf;
1181:/Library/DaisyToolchain/0.2.0/arm/arm-none-eabi/include/c++/10.3.1/cmath ****   using ::remainderl;
1182:/Library/DaisyToolchain/0.2.0/arm/arm-none-eabi/include/c++/10.3.1/cmath **** 
1183:/Library/DaisyToolchain/0.2.0/arm/arm-none-eabi/include/c++/10.3.1/cmath ****   using ::remquo;
1184:/Library/DaisyToolchain/0.2.0/arm/arm-none-eabi/include/c++/10.3.1/cmath ****   using ::remquof;
1185:/Library/DaisyToolchain/0.2.0/arm/arm-none-eabi/include/c++/10.3.1/cmath ****   using ::remquol;
1186:/Library/DaisyToolchain/0.2.0/arm/arm-none-eabi/include/c++/10.3.1/cmath **** 
1187:/Library/DaisyToolchain/0.2.0/arm/arm-none-eabi/include/c++/10.3.1/cmath ****   using ::rint;
1188:/Library/DaisyToolchain/0.2.0/arm/arm-none-eabi/include/c++/10.3.1/cmath ****   using ::rintf;
1189:/Library/DaisyToolchain/0.2.0/arm/arm-none-eabi/include/c++/10.3.1/cmath ****   using ::rintl;
ARM GAS  /var/folders/2p/02m_5p7958535cp2tpgps0400000gn/T//ccx9FAOt.s 			page 130


1190:/Library/DaisyToolchain/0.2.0/arm/arm-none-eabi/include/c++/10.3.1/cmath **** 
1191:/Library/DaisyToolchain/0.2.0/arm/arm-none-eabi/include/c++/10.3.1/cmath ****   using ::round;
1192:/Library/DaisyToolchain/0.2.0/arm/arm-none-eabi/include/c++/10.3.1/cmath ****   using ::roundf;
1193:/Library/DaisyToolchain/0.2.0/arm/arm-none-eabi/include/c++/10.3.1/cmath ****   using ::roundl;
1194:/Library/DaisyToolchain/0.2.0/arm/arm-none-eabi/include/c++/10.3.1/cmath **** 
1195:/Library/DaisyToolchain/0.2.0/arm/arm-none-eabi/include/c++/10.3.1/cmath ****   using ::scalbln;
1196:/Library/DaisyToolchain/0.2.0/arm/arm-none-eabi/include/c++/10.3.1/cmath ****   using ::scalblnf;
1197:/Library/DaisyToolchain/0.2.0/arm/arm-none-eabi/include/c++/10.3.1/cmath ****   using ::scalblnl;
1198:/Library/DaisyToolchain/0.2.0/arm/arm-none-eabi/include/c++/10.3.1/cmath **** 
1199:/Library/DaisyToolchain/0.2.0/arm/arm-none-eabi/include/c++/10.3.1/cmath ****   using ::scalbn;
1200:/Library/DaisyToolchain/0.2.0/arm/arm-none-eabi/include/c++/10.3.1/cmath ****   using ::scalbnf;
1201:/Library/DaisyToolchain/0.2.0/arm/arm-none-eabi/include/c++/10.3.1/cmath ****   using ::scalbnl;
1202:/Library/DaisyToolchain/0.2.0/arm/arm-none-eabi/include/c++/10.3.1/cmath **** 
1203:/Library/DaisyToolchain/0.2.0/arm/arm-none-eabi/include/c++/10.3.1/cmath ****   using ::tgamma;
1204:/Library/DaisyToolchain/0.2.0/arm/arm-none-eabi/include/c++/10.3.1/cmath ****   using ::tgammaf;
1205:/Library/DaisyToolchain/0.2.0/arm/arm-none-eabi/include/c++/10.3.1/cmath ****   using ::tgammal;
1206:/Library/DaisyToolchain/0.2.0/arm/arm-none-eabi/include/c++/10.3.1/cmath **** 
1207:/Library/DaisyToolchain/0.2.0/arm/arm-none-eabi/include/c++/10.3.1/cmath ****   using ::trunc;
1208:/Library/DaisyToolchain/0.2.0/arm/arm-none-eabi/include/c++/10.3.1/cmath ****   using ::truncf;
1209:/Library/DaisyToolchain/0.2.0/arm/arm-none-eabi/include/c++/10.3.1/cmath ****   using ::truncl;
1210:/Library/DaisyToolchain/0.2.0/arm/arm-none-eabi/include/c++/10.3.1/cmath **** 
1211:/Library/DaisyToolchain/0.2.0/arm/arm-none-eabi/include/c++/10.3.1/cmath ****   /// Additional overloads.
1212:/Library/DaisyToolchain/0.2.0/arm/arm-none-eabi/include/c++/10.3.1/cmath **** #ifndef __CORRECT_ISO_CPP11_MATH_H_PROTO_FP
1213:/Library/DaisyToolchain/0.2.0/arm/arm-none-eabi/include/c++/10.3.1/cmath ****   constexpr float
1214:/Library/DaisyToolchain/0.2.0/arm/arm-none-eabi/include/c++/10.3.1/cmath ****   acosh(float __x)
1215:/Library/DaisyToolchain/0.2.0/arm/arm-none-eabi/include/c++/10.3.1/cmath ****   { return __builtin_acoshf(__x); }
1216:/Library/DaisyToolchain/0.2.0/arm/arm-none-eabi/include/c++/10.3.1/cmath **** 
1217:/Library/DaisyToolchain/0.2.0/arm/arm-none-eabi/include/c++/10.3.1/cmath ****   constexpr long double
1218:/Library/DaisyToolchain/0.2.0/arm/arm-none-eabi/include/c++/10.3.1/cmath ****   acosh(long double __x)
1219:/Library/DaisyToolchain/0.2.0/arm/arm-none-eabi/include/c++/10.3.1/cmath ****   { return __builtin_acoshl(__x); }
1220:/Library/DaisyToolchain/0.2.0/arm/arm-none-eabi/include/c++/10.3.1/cmath **** #endif
1221:/Library/DaisyToolchain/0.2.0/arm/arm-none-eabi/include/c++/10.3.1/cmath **** 
1222:/Library/DaisyToolchain/0.2.0/arm/arm-none-eabi/include/c++/10.3.1/cmath **** #ifndef __CORRECT_ISO_CPP11_MATH_H_PROTO_INT
1223:/Library/DaisyToolchain/0.2.0/arm/arm-none-eabi/include/c++/10.3.1/cmath ****   template<typename _Tp>
1224:/Library/DaisyToolchain/0.2.0/arm/arm-none-eabi/include/c++/10.3.1/cmath ****     constexpr typename __gnu_cxx::__enable_if<__is_integer<_Tp>::__value, 
1225:/Library/DaisyToolchain/0.2.0/arm/arm-none-eabi/include/c++/10.3.1/cmath ****                                               double>::__type
1226:/Library/DaisyToolchain/0.2.0/arm/arm-none-eabi/include/c++/10.3.1/cmath ****     acosh(_Tp __x)
1227:/Library/DaisyToolchain/0.2.0/arm/arm-none-eabi/include/c++/10.3.1/cmath ****     { return __builtin_acosh(__x); }
1228:/Library/DaisyToolchain/0.2.0/arm/arm-none-eabi/include/c++/10.3.1/cmath **** #endif
1229:/Library/DaisyToolchain/0.2.0/arm/arm-none-eabi/include/c++/10.3.1/cmath **** 
1230:/Library/DaisyToolchain/0.2.0/arm/arm-none-eabi/include/c++/10.3.1/cmath **** #ifndef __CORRECT_ISO_CPP11_MATH_H_PROTO_FP
1231:/Library/DaisyToolchain/0.2.0/arm/arm-none-eabi/include/c++/10.3.1/cmath ****   constexpr float
1232:/Library/DaisyToolchain/0.2.0/arm/arm-none-eabi/include/c++/10.3.1/cmath ****   asinh(float __x)
1233:/Library/DaisyToolchain/0.2.0/arm/arm-none-eabi/include/c++/10.3.1/cmath ****   { return __builtin_asinhf(__x); }
1234:/Library/DaisyToolchain/0.2.0/arm/arm-none-eabi/include/c++/10.3.1/cmath **** 
1235:/Library/DaisyToolchain/0.2.0/arm/arm-none-eabi/include/c++/10.3.1/cmath ****   constexpr long double
1236:/Library/DaisyToolchain/0.2.0/arm/arm-none-eabi/include/c++/10.3.1/cmath ****   asinh(long double __x)
1237:/Library/DaisyToolchain/0.2.0/arm/arm-none-eabi/include/c++/10.3.1/cmath ****   { return __builtin_asinhl(__x); }
1238:/Library/DaisyToolchain/0.2.0/arm/arm-none-eabi/include/c++/10.3.1/cmath **** #endif
1239:/Library/DaisyToolchain/0.2.0/arm/arm-none-eabi/include/c++/10.3.1/cmath **** 
1240:/Library/DaisyToolchain/0.2.0/arm/arm-none-eabi/include/c++/10.3.1/cmath **** #ifndef __CORRECT_ISO_CPP11_MATH_H_PROTO_INT
1241:/Library/DaisyToolchain/0.2.0/arm/arm-none-eabi/include/c++/10.3.1/cmath ****   template<typename _Tp>
1242:/Library/DaisyToolchain/0.2.0/arm/arm-none-eabi/include/c++/10.3.1/cmath ****     constexpr typename __gnu_cxx::__enable_if<__is_integer<_Tp>::__value, 
1243:/Library/DaisyToolchain/0.2.0/arm/arm-none-eabi/include/c++/10.3.1/cmath ****                                               double>::__type
1244:/Library/DaisyToolchain/0.2.0/arm/arm-none-eabi/include/c++/10.3.1/cmath ****     asinh(_Tp __x)
1245:/Library/DaisyToolchain/0.2.0/arm/arm-none-eabi/include/c++/10.3.1/cmath ****     { return __builtin_asinh(__x); }
1246:/Library/DaisyToolchain/0.2.0/arm/arm-none-eabi/include/c++/10.3.1/cmath **** #endif
ARM GAS  /var/folders/2p/02m_5p7958535cp2tpgps0400000gn/T//ccx9FAOt.s 			page 131


1247:/Library/DaisyToolchain/0.2.0/arm/arm-none-eabi/include/c++/10.3.1/cmath **** 
1248:/Library/DaisyToolchain/0.2.0/arm/arm-none-eabi/include/c++/10.3.1/cmath **** #ifndef __CORRECT_ISO_CPP11_MATH_H_PROTO_FP
1249:/Library/DaisyToolchain/0.2.0/arm/arm-none-eabi/include/c++/10.3.1/cmath ****   constexpr float
1250:/Library/DaisyToolchain/0.2.0/arm/arm-none-eabi/include/c++/10.3.1/cmath ****   atanh(float __x)
1251:/Library/DaisyToolchain/0.2.0/arm/arm-none-eabi/include/c++/10.3.1/cmath ****   { return __builtin_atanhf(__x); }
1252:/Library/DaisyToolchain/0.2.0/arm/arm-none-eabi/include/c++/10.3.1/cmath **** 
1253:/Library/DaisyToolchain/0.2.0/arm/arm-none-eabi/include/c++/10.3.1/cmath ****   constexpr long double
1254:/Library/DaisyToolchain/0.2.0/arm/arm-none-eabi/include/c++/10.3.1/cmath ****   atanh(long double __x)
1255:/Library/DaisyToolchain/0.2.0/arm/arm-none-eabi/include/c++/10.3.1/cmath ****   { return __builtin_atanhl(__x); }
1256:/Library/DaisyToolchain/0.2.0/arm/arm-none-eabi/include/c++/10.3.1/cmath **** #endif
1257:/Library/DaisyToolchain/0.2.0/arm/arm-none-eabi/include/c++/10.3.1/cmath **** 
1258:/Library/DaisyToolchain/0.2.0/arm/arm-none-eabi/include/c++/10.3.1/cmath **** #ifndef __CORRECT_ISO_CPP11_MATH_H_PROTO_INT
1259:/Library/DaisyToolchain/0.2.0/arm/arm-none-eabi/include/c++/10.3.1/cmath ****   template<typename _Tp>
1260:/Library/DaisyToolchain/0.2.0/arm/arm-none-eabi/include/c++/10.3.1/cmath ****     constexpr typename __gnu_cxx::__enable_if<__is_integer<_Tp>::__value, 
1261:/Library/DaisyToolchain/0.2.0/arm/arm-none-eabi/include/c++/10.3.1/cmath ****                                               double>::__type
1262:/Library/DaisyToolchain/0.2.0/arm/arm-none-eabi/include/c++/10.3.1/cmath ****     atanh(_Tp __x)
1263:/Library/DaisyToolchain/0.2.0/arm/arm-none-eabi/include/c++/10.3.1/cmath ****     { return __builtin_atanh(__x); }
1264:/Library/DaisyToolchain/0.2.0/arm/arm-none-eabi/include/c++/10.3.1/cmath **** #endif
1265:/Library/DaisyToolchain/0.2.0/arm/arm-none-eabi/include/c++/10.3.1/cmath **** 
1266:/Library/DaisyToolchain/0.2.0/arm/arm-none-eabi/include/c++/10.3.1/cmath **** #ifndef __CORRECT_ISO_CPP11_MATH_H_PROTO_FP
1267:/Library/DaisyToolchain/0.2.0/arm/arm-none-eabi/include/c++/10.3.1/cmath ****   constexpr float
1268:/Library/DaisyToolchain/0.2.0/arm/arm-none-eabi/include/c++/10.3.1/cmath ****   cbrt(float __x)
1269:/Library/DaisyToolchain/0.2.0/arm/arm-none-eabi/include/c++/10.3.1/cmath ****   { return __builtin_cbrtf(__x); }
1270:/Library/DaisyToolchain/0.2.0/arm/arm-none-eabi/include/c++/10.3.1/cmath **** 
1271:/Library/DaisyToolchain/0.2.0/arm/arm-none-eabi/include/c++/10.3.1/cmath ****   constexpr long double
1272:/Library/DaisyToolchain/0.2.0/arm/arm-none-eabi/include/c++/10.3.1/cmath ****   cbrt(long double __x)
1273:/Library/DaisyToolchain/0.2.0/arm/arm-none-eabi/include/c++/10.3.1/cmath ****   { return __builtin_cbrtl(__x); }
1274:/Library/DaisyToolchain/0.2.0/arm/arm-none-eabi/include/c++/10.3.1/cmath **** #endif
1275:/Library/DaisyToolchain/0.2.0/arm/arm-none-eabi/include/c++/10.3.1/cmath **** 
1276:/Library/DaisyToolchain/0.2.0/arm/arm-none-eabi/include/c++/10.3.1/cmath **** #ifndef __CORRECT_ISO_CPP11_MATH_H_PROTO_INT
1277:/Library/DaisyToolchain/0.2.0/arm/arm-none-eabi/include/c++/10.3.1/cmath ****   template<typename _Tp>
1278:/Library/DaisyToolchain/0.2.0/arm/arm-none-eabi/include/c++/10.3.1/cmath ****     constexpr typename __gnu_cxx::__enable_if<__is_integer<_Tp>::__value, 
1279:/Library/DaisyToolchain/0.2.0/arm/arm-none-eabi/include/c++/10.3.1/cmath ****                                               double>::__type
1280:/Library/DaisyToolchain/0.2.0/arm/arm-none-eabi/include/c++/10.3.1/cmath ****     cbrt(_Tp __x)
1281:/Library/DaisyToolchain/0.2.0/arm/arm-none-eabi/include/c++/10.3.1/cmath ****     { return __builtin_cbrt(__x); }
1282:/Library/DaisyToolchain/0.2.0/arm/arm-none-eabi/include/c++/10.3.1/cmath **** #endif
1283:/Library/DaisyToolchain/0.2.0/arm/arm-none-eabi/include/c++/10.3.1/cmath **** 
1284:/Library/DaisyToolchain/0.2.0/arm/arm-none-eabi/include/c++/10.3.1/cmath **** #ifndef __CORRECT_ISO_CPP11_MATH_H_PROTO_FP
1285:/Library/DaisyToolchain/0.2.0/arm/arm-none-eabi/include/c++/10.3.1/cmath ****   constexpr float
1286:/Library/DaisyToolchain/0.2.0/arm/arm-none-eabi/include/c++/10.3.1/cmath ****   copysign(float __x, float __y)
1287:/Library/DaisyToolchain/0.2.0/arm/arm-none-eabi/include/c++/10.3.1/cmath ****   { return __builtin_copysignf(__x, __y); }
1288:/Library/DaisyToolchain/0.2.0/arm/arm-none-eabi/include/c++/10.3.1/cmath **** 
1289:/Library/DaisyToolchain/0.2.0/arm/arm-none-eabi/include/c++/10.3.1/cmath ****   constexpr long double
1290:/Library/DaisyToolchain/0.2.0/arm/arm-none-eabi/include/c++/10.3.1/cmath ****   copysign(long double __x, long double __y)
1291:/Library/DaisyToolchain/0.2.0/arm/arm-none-eabi/include/c++/10.3.1/cmath ****   { return __builtin_copysignl(__x, __y); }
1292:/Library/DaisyToolchain/0.2.0/arm/arm-none-eabi/include/c++/10.3.1/cmath **** #endif
1293:/Library/DaisyToolchain/0.2.0/arm/arm-none-eabi/include/c++/10.3.1/cmath **** 
1294:/Library/DaisyToolchain/0.2.0/arm/arm-none-eabi/include/c++/10.3.1/cmath **** #ifndef __CORRECT_ISO_CPP11_MATH_H_PROTO_INT
1295:/Library/DaisyToolchain/0.2.0/arm/arm-none-eabi/include/c++/10.3.1/cmath ****   template<typename _Tp, typename _Up>
1296:/Library/DaisyToolchain/0.2.0/arm/arm-none-eabi/include/c++/10.3.1/cmath ****     constexpr typename __gnu_cxx::__promote_2<_Tp, _Up>::__type
1297:/Library/DaisyToolchain/0.2.0/arm/arm-none-eabi/include/c++/10.3.1/cmath ****     copysign(_Tp __x, _Up __y)
1298:/Library/DaisyToolchain/0.2.0/arm/arm-none-eabi/include/c++/10.3.1/cmath ****     {
1299:/Library/DaisyToolchain/0.2.0/arm/arm-none-eabi/include/c++/10.3.1/cmath ****       typedef typename __gnu_cxx::__promote_2<_Tp, _Up>::__type __type;
1300:/Library/DaisyToolchain/0.2.0/arm/arm-none-eabi/include/c++/10.3.1/cmath ****       return copysign(__type(__x), __type(__y));
1301:/Library/DaisyToolchain/0.2.0/arm/arm-none-eabi/include/c++/10.3.1/cmath ****     }
1302:/Library/DaisyToolchain/0.2.0/arm/arm-none-eabi/include/c++/10.3.1/cmath **** #endif
1303:/Library/DaisyToolchain/0.2.0/arm/arm-none-eabi/include/c++/10.3.1/cmath **** 
ARM GAS  /var/folders/2p/02m_5p7958535cp2tpgps0400000gn/T//ccx9FAOt.s 			page 132


1304:/Library/DaisyToolchain/0.2.0/arm/arm-none-eabi/include/c++/10.3.1/cmath **** #ifndef __CORRECT_ISO_CPP11_MATH_H_PROTO_FP
1305:/Library/DaisyToolchain/0.2.0/arm/arm-none-eabi/include/c++/10.3.1/cmath ****   constexpr float
1306:/Library/DaisyToolchain/0.2.0/arm/arm-none-eabi/include/c++/10.3.1/cmath ****   erf(float __x)
1307:/Library/DaisyToolchain/0.2.0/arm/arm-none-eabi/include/c++/10.3.1/cmath ****   { return __builtin_erff(__x); }
1308:/Library/DaisyToolchain/0.2.0/arm/arm-none-eabi/include/c++/10.3.1/cmath **** 
1309:/Library/DaisyToolchain/0.2.0/arm/arm-none-eabi/include/c++/10.3.1/cmath ****   constexpr long double
1310:/Library/DaisyToolchain/0.2.0/arm/arm-none-eabi/include/c++/10.3.1/cmath ****   erf(long double __x)
1311:/Library/DaisyToolchain/0.2.0/arm/arm-none-eabi/include/c++/10.3.1/cmath ****   { return __builtin_erfl(__x); }
1312:/Library/DaisyToolchain/0.2.0/arm/arm-none-eabi/include/c++/10.3.1/cmath **** #endif
1313:/Library/DaisyToolchain/0.2.0/arm/arm-none-eabi/include/c++/10.3.1/cmath **** 
1314:/Library/DaisyToolchain/0.2.0/arm/arm-none-eabi/include/c++/10.3.1/cmath **** #ifndef __CORRECT_ISO_CPP11_MATH_H_PROTO_INT
1315:/Library/DaisyToolchain/0.2.0/arm/arm-none-eabi/include/c++/10.3.1/cmath ****   template<typename _Tp>
1316:/Library/DaisyToolchain/0.2.0/arm/arm-none-eabi/include/c++/10.3.1/cmath ****     constexpr typename __gnu_cxx::__enable_if<__is_integer<_Tp>::__value, 
1317:/Library/DaisyToolchain/0.2.0/arm/arm-none-eabi/include/c++/10.3.1/cmath ****                                               double>::__type
1318:/Library/DaisyToolchain/0.2.0/arm/arm-none-eabi/include/c++/10.3.1/cmath ****     erf(_Tp __x)
1319:/Library/DaisyToolchain/0.2.0/arm/arm-none-eabi/include/c++/10.3.1/cmath ****     { return __builtin_erf(__x); }
1320:/Library/DaisyToolchain/0.2.0/arm/arm-none-eabi/include/c++/10.3.1/cmath **** #endif
1321:/Library/DaisyToolchain/0.2.0/arm/arm-none-eabi/include/c++/10.3.1/cmath **** 
1322:/Library/DaisyToolchain/0.2.0/arm/arm-none-eabi/include/c++/10.3.1/cmath **** #ifndef __CORRECT_ISO_CPP11_MATH_H_PROTO_FP
1323:/Library/DaisyToolchain/0.2.0/arm/arm-none-eabi/include/c++/10.3.1/cmath ****   constexpr float
1324:/Library/DaisyToolchain/0.2.0/arm/arm-none-eabi/include/c++/10.3.1/cmath ****   erfc(float __x)
1325:/Library/DaisyToolchain/0.2.0/arm/arm-none-eabi/include/c++/10.3.1/cmath ****   { return __builtin_erfcf(__x); }
1326:/Library/DaisyToolchain/0.2.0/arm/arm-none-eabi/include/c++/10.3.1/cmath **** 
1327:/Library/DaisyToolchain/0.2.0/arm/arm-none-eabi/include/c++/10.3.1/cmath ****   constexpr long double
1328:/Library/DaisyToolchain/0.2.0/arm/arm-none-eabi/include/c++/10.3.1/cmath ****   erfc(long double __x)
1329:/Library/DaisyToolchain/0.2.0/arm/arm-none-eabi/include/c++/10.3.1/cmath ****   { return __builtin_erfcl(__x); }
1330:/Library/DaisyToolchain/0.2.0/arm/arm-none-eabi/include/c++/10.3.1/cmath **** #endif
1331:/Library/DaisyToolchain/0.2.0/arm/arm-none-eabi/include/c++/10.3.1/cmath **** 
1332:/Library/DaisyToolchain/0.2.0/arm/arm-none-eabi/include/c++/10.3.1/cmath **** #ifndef __CORRECT_ISO_CPP11_MATH_H_PROTO_INT
1333:/Library/DaisyToolchain/0.2.0/arm/arm-none-eabi/include/c++/10.3.1/cmath ****   template<typename _Tp>
1334:/Library/DaisyToolchain/0.2.0/arm/arm-none-eabi/include/c++/10.3.1/cmath ****     constexpr typename __gnu_cxx::__enable_if<__is_integer<_Tp>::__value, 
1335:/Library/DaisyToolchain/0.2.0/arm/arm-none-eabi/include/c++/10.3.1/cmath ****                                               double>::__type
1336:/Library/DaisyToolchain/0.2.0/arm/arm-none-eabi/include/c++/10.3.1/cmath ****     erfc(_Tp __x)
1337:/Library/DaisyToolchain/0.2.0/arm/arm-none-eabi/include/c++/10.3.1/cmath ****     { return __builtin_erfc(__x); }
1338:/Library/DaisyToolchain/0.2.0/arm/arm-none-eabi/include/c++/10.3.1/cmath **** #endif
1339:/Library/DaisyToolchain/0.2.0/arm/arm-none-eabi/include/c++/10.3.1/cmath **** 
1340:/Library/DaisyToolchain/0.2.0/arm/arm-none-eabi/include/c++/10.3.1/cmath **** #ifndef __CORRECT_ISO_CPP11_MATH_H_PROTO_FP
1341:/Library/DaisyToolchain/0.2.0/arm/arm-none-eabi/include/c++/10.3.1/cmath ****   constexpr float
1342:/Library/DaisyToolchain/0.2.0/arm/arm-none-eabi/include/c++/10.3.1/cmath ****   exp2(float __x)
1343:/Library/DaisyToolchain/0.2.0/arm/arm-none-eabi/include/c++/10.3.1/cmath ****   { return __builtin_exp2f(__x); }
1344:/Library/DaisyToolchain/0.2.0/arm/arm-none-eabi/include/c++/10.3.1/cmath **** 
1345:/Library/DaisyToolchain/0.2.0/arm/arm-none-eabi/include/c++/10.3.1/cmath ****   constexpr long double
1346:/Library/DaisyToolchain/0.2.0/arm/arm-none-eabi/include/c++/10.3.1/cmath ****   exp2(long double __x)
1347:/Library/DaisyToolchain/0.2.0/arm/arm-none-eabi/include/c++/10.3.1/cmath ****   { return __builtin_exp2l(__x); }
1348:/Library/DaisyToolchain/0.2.0/arm/arm-none-eabi/include/c++/10.3.1/cmath **** #endif
1349:/Library/DaisyToolchain/0.2.0/arm/arm-none-eabi/include/c++/10.3.1/cmath **** 
1350:/Library/DaisyToolchain/0.2.0/arm/arm-none-eabi/include/c++/10.3.1/cmath **** #ifndef __CORRECT_ISO_CPP11_MATH_H_PROTO_INT
1351:/Library/DaisyToolchain/0.2.0/arm/arm-none-eabi/include/c++/10.3.1/cmath ****   template<typename _Tp>
1352:/Library/DaisyToolchain/0.2.0/arm/arm-none-eabi/include/c++/10.3.1/cmath ****     constexpr typename __gnu_cxx::__enable_if<__is_integer<_Tp>::__value, 
1353:/Library/DaisyToolchain/0.2.0/arm/arm-none-eabi/include/c++/10.3.1/cmath ****                                               double>::__type
1354:/Library/DaisyToolchain/0.2.0/arm/arm-none-eabi/include/c++/10.3.1/cmath ****     exp2(_Tp __x)
1355:/Library/DaisyToolchain/0.2.0/arm/arm-none-eabi/include/c++/10.3.1/cmath ****     { return __builtin_exp2(__x); }
1356:/Library/DaisyToolchain/0.2.0/arm/arm-none-eabi/include/c++/10.3.1/cmath **** #endif
1357:/Library/DaisyToolchain/0.2.0/arm/arm-none-eabi/include/c++/10.3.1/cmath **** 
1358:/Library/DaisyToolchain/0.2.0/arm/arm-none-eabi/include/c++/10.3.1/cmath **** #ifndef __CORRECT_ISO_CPP11_MATH_H_PROTO_FP
1359:/Library/DaisyToolchain/0.2.0/arm/arm-none-eabi/include/c++/10.3.1/cmath ****   constexpr float
1360:/Library/DaisyToolchain/0.2.0/arm/arm-none-eabi/include/c++/10.3.1/cmath ****   expm1(float __x)
ARM GAS  /var/folders/2p/02m_5p7958535cp2tpgps0400000gn/T//ccx9FAOt.s 			page 133


1361:/Library/DaisyToolchain/0.2.0/arm/arm-none-eabi/include/c++/10.3.1/cmath ****   { return __builtin_expm1f(__x); }
1362:/Library/DaisyToolchain/0.2.0/arm/arm-none-eabi/include/c++/10.3.1/cmath **** 
1363:/Library/DaisyToolchain/0.2.0/arm/arm-none-eabi/include/c++/10.3.1/cmath ****   constexpr long double
1364:/Library/DaisyToolchain/0.2.0/arm/arm-none-eabi/include/c++/10.3.1/cmath ****   expm1(long double __x)
1365:/Library/DaisyToolchain/0.2.0/arm/arm-none-eabi/include/c++/10.3.1/cmath ****   { return __builtin_expm1l(__x); }
1366:/Library/DaisyToolchain/0.2.0/arm/arm-none-eabi/include/c++/10.3.1/cmath **** #endif
1367:/Library/DaisyToolchain/0.2.0/arm/arm-none-eabi/include/c++/10.3.1/cmath **** 
1368:/Library/DaisyToolchain/0.2.0/arm/arm-none-eabi/include/c++/10.3.1/cmath **** #ifndef __CORRECT_ISO_CPP11_MATH_H_PROTO_INT
1369:/Library/DaisyToolchain/0.2.0/arm/arm-none-eabi/include/c++/10.3.1/cmath ****   template<typename _Tp>
1370:/Library/DaisyToolchain/0.2.0/arm/arm-none-eabi/include/c++/10.3.1/cmath ****     constexpr typename __gnu_cxx::__enable_if<__is_integer<_Tp>::__value, 
1371:/Library/DaisyToolchain/0.2.0/arm/arm-none-eabi/include/c++/10.3.1/cmath ****                                               double>::__type
1372:/Library/DaisyToolchain/0.2.0/arm/arm-none-eabi/include/c++/10.3.1/cmath ****     expm1(_Tp __x)
1373:/Library/DaisyToolchain/0.2.0/arm/arm-none-eabi/include/c++/10.3.1/cmath ****     { return __builtin_expm1(__x); }
1374:/Library/DaisyToolchain/0.2.0/arm/arm-none-eabi/include/c++/10.3.1/cmath **** #endif
1375:/Library/DaisyToolchain/0.2.0/arm/arm-none-eabi/include/c++/10.3.1/cmath **** 
1376:/Library/DaisyToolchain/0.2.0/arm/arm-none-eabi/include/c++/10.3.1/cmath **** #ifndef __CORRECT_ISO_CPP11_MATH_H_PROTO_FP
1377:/Library/DaisyToolchain/0.2.0/arm/arm-none-eabi/include/c++/10.3.1/cmath ****   constexpr float
1378:/Library/DaisyToolchain/0.2.0/arm/arm-none-eabi/include/c++/10.3.1/cmath ****   fdim(float __x, float __y)
1379:/Library/DaisyToolchain/0.2.0/arm/arm-none-eabi/include/c++/10.3.1/cmath ****   { return __builtin_fdimf(__x, __y); }
1380:/Library/DaisyToolchain/0.2.0/arm/arm-none-eabi/include/c++/10.3.1/cmath **** 
1381:/Library/DaisyToolchain/0.2.0/arm/arm-none-eabi/include/c++/10.3.1/cmath ****   constexpr long double
1382:/Library/DaisyToolchain/0.2.0/arm/arm-none-eabi/include/c++/10.3.1/cmath ****   fdim(long double __x, long double __y)
1383:/Library/DaisyToolchain/0.2.0/arm/arm-none-eabi/include/c++/10.3.1/cmath ****   { return __builtin_fdiml(__x, __y); }
1384:/Library/DaisyToolchain/0.2.0/arm/arm-none-eabi/include/c++/10.3.1/cmath **** #endif
1385:/Library/DaisyToolchain/0.2.0/arm/arm-none-eabi/include/c++/10.3.1/cmath **** 
1386:/Library/DaisyToolchain/0.2.0/arm/arm-none-eabi/include/c++/10.3.1/cmath **** #ifndef __CORRECT_ISO_CPP11_MATH_H_PROTO_INT
1387:/Library/DaisyToolchain/0.2.0/arm/arm-none-eabi/include/c++/10.3.1/cmath ****   template<typename _Tp, typename _Up>
1388:/Library/DaisyToolchain/0.2.0/arm/arm-none-eabi/include/c++/10.3.1/cmath ****     constexpr typename __gnu_cxx::__promote_2<_Tp, _Up>::__type
1389:/Library/DaisyToolchain/0.2.0/arm/arm-none-eabi/include/c++/10.3.1/cmath ****     fdim(_Tp __x, _Up __y)
1390:/Library/DaisyToolchain/0.2.0/arm/arm-none-eabi/include/c++/10.3.1/cmath ****     {
1391:/Library/DaisyToolchain/0.2.0/arm/arm-none-eabi/include/c++/10.3.1/cmath ****       typedef typename __gnu_cxx::__promote_2<_Tp, _Up>::__type __type;
1392:/Library/DaisyToolchain/0.2.0/arm/arm-none-eabi/include/c++/10.3.1/cmath ****       return fdim(__type(__x), __type(__y));
1393:/Library/DaisyToolchain/0.2.0/arm/arm-none-eabi/include/c++/10.3.1/cmath ****     }
1394:/Library/DaisyToolchain/0.2.0/arm/arm-none-eabi/include/c++/10.3.1/cmath **** #endif
1395:/Library/DaisyToolchain/0.2.0/arm/arm-none-eabi/include/c++/10.3.1/cmath **** 
1396:/Library/DaisyToolchain/0.2.0/arm/arm-none-eabi/include/c++/10.3.1/cmath **** #ifndef __CORRECT_ISO_CPP11_MATH_H_PROTO_FP
1397:/Library/DaisyToolchain/0.2.0/arm/arm-none-eabi/include/c++/10.3.1/cmath ****   constexpr float
1398:/Library/DaisyToolchain/0.2.0/arm/arm-none-eabi/include/c++/10.3.1/cmath ****   fma(float __x, float __y, float __z)
1399:/Library/DaisyToolchain/0.2.0/arm/arm-none-eabi/include/c++/10.3.1/cmath ****   { return __builtin_fmaf(__x, __y, __z); }
1400:/Library/DaisyToolchain/0.2.0/arm/arm-none-eabi/include/c++/10.3.1/cmath **** 
1401:/Library/DaisyToolchain/0.2.0/arm/arm-none-eabi/include/c++/10.3.1/cmath ****   constexpr long double
1402:/Library/DaisyToolchain/0.2.0/arm/arm-none-eabi/include/c++/10.3.1/cmath ****   fma(long double __x, long double __y, long double __z)
1403:/Library/DaisyToolchain/0.2.0/arm/arm-none-eabi/include/c++/10.3.1/cmath ****   { return __builtin_fmal(__x, __y, __z); }
1404:/Library/DaisyToolchain/0.2.0/arm/arm-none-eabi/include/c++/10.3.1/cmath **** #endif
1405:/Library/DaisyToolchain/0.2.0/arm/arm-none-eabi/include/c++/10.3.1/cmath **** 
1406:/Library/DaisyToolchain/0.2.0/arm/arm-none-eabi/include/c++/10.3.1/cmath **** #ifndef __CORRECT_ISO_CPP11_MATH_H_PROTO_INT
1407:/Library/DaisyToolchain/0.2.0/arm/arm-none-eabi/include/c++/10.3.1/cmath ****   template<typename _Tp, typename _Up, typename _Vp>
1408:/Library/DaisyToolchain/0.2.0/arm/arm-none-eabi/include/c++/10.3.1/cmath ****     constexpr typename __gnu_cxx::__promote_3<_Tp, _Up, _Vp>::__type
1409:/Library/DaisyToolchain/0.2.0/arm/arm-none-eabi/include/c++/10.3.1/cmath ****     fma(_Tp __x, _Up __y, _Vp __z)
1410:/Library/DaisyToolchain/0.2.0/arm/arm-none-eabi/include/c++/10.3.1/cmath ****     {
1411:/Library/DaisyToolchain/0.2.0/arm/arm-none-eabi/include/c++/10.3.1/cmath ****       typedef typename __gnu_cxx::__promote_3<_Tp, _Up, _Vp>::__type __type;
1412:/Library/DaisyToolchain/0.2.0/arm/arm-none-eabi/include/c++/10.3.1/cmath ****       return fma(__type(__x), __type(__y), __type(__z));
1413:/Library/DaisyToolchain/0.2.0/arm/arm-none-eabi/include/c++/10.3.1/cmath ****     }
1414:/Library/DaisyToolchain/0.2.0/arm/arm-none-eabi/include/c++/10.3.1/cmath **** #endif
1415:/Library/DaisyToolchain/0.2.0/arm/arm-none-eabi/include/c++/10.3.1/cmath **** 
1416:/Library/DaisyToolchain/0.2.0/arm/arm-none-eabi/include/c++/10.3.1/cmath **** #ifndef __CORRECT_ISO_CPP11_MATH_H_PROTO_FP
1417:/Library/DaisyToolchain/0.2.0/arm/arm-none-eabi/include/c++/10.3.1/cmath ****   constexpr float
ARM GAS  /var/folders/2p/02m_5p7958535cp2tpgps0400000gn/T//ccx9FAOt.s 			page 134


1418:/Library/DaisyToolchain/0.2.0/arm/arm-none-eabi/include/c++/10.3.1/cmath ****   fmax(float __x, float __y)
1419:/Library/DaisyToolchain/0.2.0/arm/arm-none-eabi/include/c++/10.3.1/cmath ****   { return __builtin_fmaxf(__x, __y); }
1420:/Library/DaisyToolchain/0.2.0/arm/arm-none-eabi/include/c++/10.3.1/cmath **** 
1421:/Library/DaisyToolchain/0.2.0/arm/arm-none-eabi/include/c++/10.3.1/cmath ****   constexpr long double
1422:/Library/DaisyToolchain/0.2.0/arm/arm-none-eabi/include/c++/10.3.1/cmath ****   fmax(long double __x, long double __y)
1423:/Library/DaisyToolchain/0.2.0/arm/arm-none-eabi/include/c++/10.3.1/cmath ****   { return __builtin_fmaxl(__x, __y); }
1424:/Library/DaisyToolchain/0.2.0/arm/arm-none-eabi/include/c++/10.3.1/cmath **** #endif
1425:/Library/DaisyToolchain/0.2.0/arm/arm-none-eabi/include/c++/10.3.1/cmath **** 
1426:/Library/DaisyToolchain/0.2.0/arm/arm-none-eabi/include/c++/10.3.1/cmath **** #ifndef __CORRECT_ISO_CPP11_MATH_H_PROTO_INT
1427:/Library/DaisyToolchain/0.2.0/arm/arm-none-eabi/include/c++/10.3.1/cmath ****   template<typename _Tp, typename _Up>
1428:/Library/DaisyToolchain/0.2.0/arm/arm-none-eabi/include/c++/10.3.1/cmath ****     constexpr typename __gnu_cxx::__promote_2<_Tp, _Up>::__type
1429:/Library/DaisyToolchain/0.2.0/arm/arm-none-eabi/include/c++/10.3.1/cmath ****     fmax(_Tp __x, _Up __y)
1430:/Library/DaisyToolchain/0.2.0/arm/arm-none-eabi/include/c++/10.3.1/cmath ****     {
1431:/Library/DaisyToolchain/0.2.0/arm/arm-none-eabi/include/c++/10.3.1/cmath ****       typedef typename __gnu_cxx::__promote_2<_Tp, _Up>::__type __type;
1432:/Library/DaisyToolchain/0.2.0/arm/arm-none-eabi/include/c++/10.3.1/cmath ****       return fmax(__type(__x), __type(__y));
1433:/Library/DaisyToolchain/0.2.0/arm/arm-none-eabi/include/c++/10.3.1/cmath ****     }
1434:/Library/DaisyToolchain/0.2.0/arm/arm-none-eabi/include/c++/10.3.1/cmath **** #endif
1435:/Library/DaisyToolchain/0.2.0/arm/arm-none-eabi/include/c++/10.3.1/cmath **** 
1436:/Library/DaisyToolchain/0.2.0/arm/arm-none-eabi/include/c++/10.3.1/cmath **** #ifndef __CORRECT_ISO_CPP11_MATH_H_PROTO_FP
1437:/Library/DaisyToolchain/0.2.0/arm/arm-none-eabi/include/c++/10.3.1/cmath ****   constexpr float
1438:/Library/DaisyToolchain/0.2.0/arm/arm-none-eabi/include/c++/10.3.1/cmath ****   fmin(float __x, float __y)
1439:/Library/DaisyToolchain/0.2.0/arm/arm-none-eabi/include/c++/10.3.1/cmath ****   { return __builtin_fminf(__x, __y); }
1440:/Library/DaisyToolchain/0.2.0/arm/arm-none-eabi/include/c++/10.3.1/cmath **** 
1441:/Library/DaisyToolchain/0.2.0/arm/arm-none-eabi/include/c++/10.3.1/cmath ****   constexpr long double
1442:/Library/DaisyToolchain/0.2.0/arm/arm-none-eabi/include/c++/10.3.1/cmath ****   fmin(long double __x, long double __y)
1443:/Library/DaisyToolchain/0.2.0/arm/arm-none-eabi/include/c++/10.3.1/cmath ****   { return __builtin_fminl(__x, __y); }
1444:/Library/DaisyToolchain/0.2.0/arm/arm-none-eabi/include/c++/10.3.1/cmath **** #endif
1445:/Library/DaisyToolchain/0.2.0/arm/arm-none-eabi/include/c++/10.3.1/cmath **** 
1446:/Library/DaisyToolchain/0.2.0/arm/arm-none-eabi/include/c++/10.3.1/cmath **** #ifndef __CORRECT_ISO_CPP11_MATH_H_PROTO_INT
1447:/Library/DaisyToolchain/0.2.0/arm/arm-none-eabi/include/c++/10.3.1/cmath ****   template<typename _Tp, typename _Up>
1448:/Library/DaisyToolchain/0.2.0/arm/arm-none-eabi/include/c++/10.3.1/cmath ****     constexpr typename __gnu_cxx::__promote_2<_Tp, _Up>::__type
1449:/Library/DaisyToolchain/0.2.0/arm/arm-none-eabi/include/c++/10.3.1/cmath ****     fmin(_Tp __x, _Up __y)
1450:/Library/DaisyToolchain/0.2.0/arm/arm-none-eabi/include/c++/10.3.1/cmath ****     {
1451:/Library/DaisyToolchain/0.2.0/arm/arm-none-eabi/include/c++/10.3.1/cmath ****       typedef typename __gnu_cxx::__promote_2<_Tp, _Up>::__type __type;
1452:/Library/DaisyToolchain/0.2.0/arm/arm-none-eabi/include/c++/10.3.1/cmath ****       return fmin(__type(__x), __type(__y));
1453:/Library/DaisyToolchain/0.2.0/arm/arm-none-eabi/include/c++/10.3.1/cmath ****     }
1454:/Library/DaisyToolchain/0.2.0/arm/arm-none-eabi/include/c++/10.3.1/cmath **** #endif
1455:/Library/DaisyToolchain/0.2.0/arm/arm-none-eabi/include/c++/10.3.1/cmath **** 
1456:/Library/DaisyToolchain/0.2.0/arm/arm-none-eabi/include/c++/10.3.1/cmath **** #ifndef __CORRECT_ISO_CPP11_MATH_H_PROTO_FP
1457:/Library/DaisyToolchain/0.2.0/arm/arm-none-eabi/include/c++/10.3.1/cmath ****   constexpr float
1458:/Library/DaisyToolchain/0.2.0/arm/arm-none-eabi/include/c++/10.3.1/cmath ****   hypot(float __x, float __y)
1459:/Library/DaisyToolchain/0.2.0/arm/arm-none-eabi/include/c++/10.3.1/cmath ****   { return __builtin_hypotf(__x, __y); }
1460:/Library/DaisyToolchain/0.2.0/arm/arm-none-eabi/include/c++/10.3.1/cmath **** 
1461:/Library/DaisyToolchain/0.2.0/arm/arm-none-eabi/include/c++/10.3.1/cmath ****   constexpr long double
1462:/Library/DaisyToolchain/0.2.0/arm/arm-none-eabi/include/c++/10.3.1/cmath ****   hypot(long double __x, long double __y)
1463:/Library/DaisyToolchain/0.2.0/arm/arm-none-eabi/include/c++/10.3.1/cmath ****   { return __builtin_hypotl(__x, __y); }
1464:/Library/DaisyToolchain/0.2.0/arm/arm-none-eabi/include/c++/10.3.1/cmath **** #endif
1465:/Library/DaisyToolchain/0.2.0/arm/arm-none-eabi/include/c++/10.3.1/cmath **** 
1466:/Library/DaisyToolchain/0.2.0/arm/arm-none-eabi/include/c++/10.3.1/cmath **** #ifndef __CORRECT_ISO_CPP11_MATH_H_PROTO_INT
1467:/Library/DaisyToolchain/0.2.0/arm/arm-none-eabi/include/c++/10.3.1/cmath ****   template<typename _Tp, typename _Up>
1468:/Library/DaisyToolchain/0.2.0/arm/arm-none-eabi/include/c++/10.3.1/cmath ****     constexpr typename __gnu_cxx::__promote_2<_Tp, _Up>::__type
1469:/Library/DaisyToolchain/0.2.0/arm/arm-none-eabi/include/c++/10.3.1/cmath ****     hypot(_Tp __x, _Up __y)
1470:/Library/DaisyToolchain/0.2.0/arm/arm-none-eabi/include/c++/10.3.1/cmath ****     {
1471:/Library/DaisyToolchain/0.2.0/arm/arm-none-eabi/include/c++/10.3.1/cmath ****       typedef typename __gnu_cxx::__promote_2<_Tp, _Up>::__type __type;
1472:/Library/DaisyToolchain/0.2.0/arm/arm-none-eabi/include/c++/10.3.1/cmath ****       return hypot(__type(__x), __type(__y));
1473:/Library/DaisyToolchain/0.2.0/arm/arm-none-eabi/include/c++/10.3.1/cmath ****     }
1474:/Library/DaisyToolchain/0.2.0/arm/arm-none-eabi/include/c++/10.3.1/cmath **** #endif
ARM GAS  /var/folders/2p/02m_5p7958535cp2tpgps0400000gn/T//ccx9FAOt.s 			page 135


1475:/Library/DaisyToolchain/0.2.0/arm/arm-none-eabi/include/c++/10.3.1/cmath **** 
1476:/Library/DaisyToolchain/0.2.0/arm/arm-none-eabi/include/c++/10.3.1/cmath **** #ifndef __CORRECT_ISO_CPP11_MATH_H_PROTO_FP
1477:/Library/DaisyToolchain/0.2.0/arm/arm-none-eabi/include/c++/10.3.1/cmath ****   constexpr int
1478:/Library/DaisyToolchain/0.2.0/arm/arm-none-eabi/include/c++/10.3.1/cmath ****   ilogb(float __x)
1479:/Library/DaisyToolchain/0.2.0/arm/arm-none-eabi/include/c++/10.3.1/cmath ****   { return __builtin_ilogbf(__x); }
1480:/Library/DaisyToolchain/0.2.0/arm/arm-none-eabi/include/c++/10.3.1/cmath **** 
1481:/Library/DaisyToolchain/0.2.0/arm/arm-none-eabi/include/c++/10.3.1/cmath ****   constexpr int
1482:/Library/DaisyToolchain/0.2.0/arm/arm-none-eabi/include/c++/10.3.1/cmath ****   ilogb(long double __x)
1483:/Library/DaisyToolchain/0.2.0/arm/arm-none-eabi/include/c++/10.3.1/cmath ****   { return __builtin_ilogbl(__x); }
1484:/Library/DaisyToolchain/0.2.0/arm/arm-none-eabi/include/c++/10.3.1/cmath **** #endif
1485:/Library/DaisyToolchain/0.2.0/arm/arm-none-eabi/include/c++/10.3.1/cmath **** 
1486:/Library/DaisyToolchain/0.2.0/arm/arm-none-eabi/include/c++/10.3.1/cmath **** #ifndef __CORRECT_ISO_CPP11_MATH_H_PROTO_INT
1487:/Library/DaisyToolchain/0.2.0/arm/arm-none-eabi/include/c++/10.3.1/cmath ****   template<typename _Tp>
1488:/Library/DaisyToolchain/0.2.0/arm/arm-none-eabi/include/c++/10.3.1/cmath ****     constexpr
1489:/Library/DaisyToolchain/0.2.0/arm/arm-none-eabi/include/c++/10.3.1/cmath ****     typename __gnu_cxx::__enable_if<__is_integer<_Tp>::__value, 
1490:/Library/DaisyToolchain/0.2.0/arm/arm-none-eabi/include/c++/10.3.1/cmath ****                                     int>::__type
1491:/Library/DaisyToolchain/0.2.0/arm/arm-none-eabi/include/c++/10.3.1/cmath ****     ilogb(_Tp __x)
1492:/Library/DaisyToolchain/0.2.0/arm/arm-none-eabi/include/c++/10.3.1/cmath ****     { return __builtin_ilogb(__x); }
1493:/Library/DaisyToolchain/0.2.0/arm/arm-none-eabi/include/c++/10.3.1/cmath **** #endif
1494:/Library/DaisyToolchain/0.2.0/arm/arm-none-eabi/include/c++/10.3.1/cmath **** 
1495:/Library/DaisyToolchain/0.2.0/arm/arm-none-eabi/include/c++/10.3.1/cmath **** #ifndef __CORRECT_ISO_CPP11_MATH_H_PROTO_FP
1496:/Library/DaisyToolchain/0.2.0/arm/arm-none-eabi/include/c++/10.3.1/cmath ****   constexpr float
1497:/Library/DaisyToolchain/0.2.0/arm/arm-none-eabi/include/c++/10.3.1/cmath ****   lgamma(float __x)
1498:/Library/DaisyToolchain/0.2.0/arm/arm-none-eabi/include/c++/10.3.1/cmath ****   { return __builtin_lgammaf(__x); }
1499:/Library/DaisyToolchain/0.2.0/arm/arm-none-eabi/include/c++/10.3.1/cmath **** 
1500:/Library/DaisyToolchain/0.2.0/arm/arm-none-eabi/include/c++/10.3.1/cmath ****   constexpr long double
1501:/Library/DaisyToolchain/0.2.0/arm/arm-none-eabi/include/c++/10.3.1/cmath ****   lgamma(long double __x)
1502:/Library/DaisyToolchain/0.2.0/arm/arm-none-eabi/include/c++/10.3.1/cmath ****   { return __builtin_lgammal(__x); }
1503:/Library/DaisyToolchain/0.2.0/arm/arm-none-eabi/include/c++/10.3.1/cmath **** #endif
1504:/Library/DaisyToolchain/0.2.0/arm/arm-none-eabi/include/c++/10.3.1/cmath **** 
1505:/Library/DaisyToolchain/0.2.0/arm/arm-none-eabi/include/c++/10.3.1/cmath **** #ifndef __CORRECT_ISO_CPP11_MATH_H_PROTO_INT
1506:/Library/DaisyToolchain/0.2.0/arm/arm-none-eabi/include/c++/10.3.1/cmath ****   template<typename _Tp>
1507:/Library/DaisyToolchain/0.2.0/arm/arm-none-eabi/include/c++/10.3.1/cmath ****     constexpr typename __gnu_cxx::__enable_if<__is_integer<_Tp>::__value, 
1508:/Library/DaisyToolchain/0.2.0/arm/arm-none-eabi/include/c++/10.3.1/cmath ****                                               double>::__type
1509:/Library/DaisyToolchain/0.2.0/arm/arm-none-eabi/include/c++/10.3.1/cmath ****     lgamma(_Tp __x)
1510:/Library/DaisyToolchain/0.2.0/arm/arm-none-eabi/include/c++/10.3.1/cmath ****     { return __builtin_lgamma(__x); }
1511:/Library/DaisyToolchain/0.2.0/arm/arm-none-eabi/include/c++/10.3.1/cmath **** #endif
1512:/Library/DaisyToolchain/0.2.0/arm/arm-none-eabi/include/c++/10.3.1/cmath **** 
1513:/Library/DaisyToolchain/0.2.0/arm/arm-none-eabi/include/c++/10.3.1/cmath **** #ifndef __CORRECT_ISO_CPP11_MATH_H_PROTO_FP
1514:/Library/DaisyToolchain/0.2.0/arm/arm-none-eabi/include/c++/10.3.1/cmath ****   constexpr long long
1515:/Library/DaisyToolchain/0.2.0/arm/arm-none-eabi/include/c++/10.3.1/cmath ****   llrint(float __x)
1516:/Library/DaisyToolchain/0.2.0/arm/arm-none-eabi/include/c++/10.3.1/cmath ****   { return __builtin_llrintf(__x); }
1517:/Library/DaisyToolchain/0.2.0/arm/arm-none-eabi/include/c++/10.3.1/cmath **** 
1518:/Library/DaisyToolchain/0.2.0/arm/arm-none-eabi/include/c++/10.3.1/cmath ****   constexpr long long
1519:/Library/DaisyToolchain/0.2.0/arm/arm-none-eabi/include/c++/10.3.1/cmath ****   llrint(long double __x)
1520:/Library/DaisyToolchain/0.2.0/arm/arm-none-eabi/include/c++/10.3.1/cmath ****   { return __builtin_llrintl(__x); }
1521:/Library/DaisyToolchain/0.2.0/arm/arm-none-eabi/include/c++/10.3.1/cmath **** #endif
1522:/Library/DaisyToolchain/0.2.0/arm/arm-none-eabi/include/c++/10.3.1/cmath **** 
1523:/Library/DaisyToolchain/0.2.0/arm/arm-none-eabi/include/c++/10.3.1/cmath **** #ifndef __CORRECT_ISO_CPP11_MATH_H_PROTO_INT
1524:/Library/DaisyToolchain/0.2.0/arm/arm-none-eabi/include/c++/10.3.1/cmath ****   template<typename _Tp>
1525:/Library/DaisyToolchain/0.2.0/arm/arm-none-eabi/include/c++/10.3.1/cmath ****     constexpr typename __gnu_cxx::__enable_if<__is_integer<_Tp>::__value, 
1526:/Library/DaisyToolchain/0.2.0/arm/arm-none-eabi/include/c++/10.3.1/cmath ****                                               long long>::__type
1527:/Library/DaisyToolchain/0.2.0/arm/arm-none-eabi/include/c++/10.3.1/cmath ****     llrint(_Tp __x)
1528:/Library/DaisyToolchain/0.2.0/arm/arm-none-eabi/include/c++/10.3.1/cmath ****     { return __builtin_llrint(__x); }
1529:/Library/DaisyToolchain/0.2.0/arm/arm-none-eabi/include/c++/10.3.1/cmath **** #endif
1530:/Library/DaisyToolchain/0.2.0/arm/arm-none-eabi/include/c++/10.3.1/cmath **** 
1531:/Library/DaisyToolchain/0.2.0/arm/arm-none-eabi/include/c++/10.3.1/cmath **** #ifndef __CORRECT_ISO_CPP11_MATH_H_PROTO_FP
ARM GAS  /var/folders/2p/02m_5p7958535cp2tpgps0400000gn/T//ccx9FAOt.s 			page 136


1532:/Library/DaisyToolchain/0.2.0/arm/arm-none-eabi/include/c++/10.3.1/cmath ****   constexpr long long
1533:/Library/DaisyToolchain/0.2.0/arm/arm-none-eabi/include/c++/10.3.1/cmath ****   llround(float __x)
1534:/Library/DaisyToolchain/0.2.0/arm/arm-none-eabi/include/c++/10.3.1/cmath ****   { return __builtin_llroundf(__x); }
1535:/Library/DaisyToolchain/0.2.0/arm/arm-none-eabi/include/c++/10.3.1/cmath **** 
1536:/Library/DaisyToolchain/0.2.0/arm/arm-none-eabi/include/c++/10.3.1/cmath ****   constexpr long long
1537:/Library/DaisyToolchain/0.2.0/arm/arm-none-eabi/include/c++/10.3.1/cmath ****   llround(long double __x)
1538:/Library/DaisyToolchain/0.2.0/arm/arm-none-eabi/include/c++/10.3.1/cmath ****   { return __builtin_llroundl(__x); }
1539:/Library/DaisyToolchain/0.2.0/arm/arm-none-eabi/include/c++/10.3.1/cmath **** #endif
1540:/Library/DaisyToolchain/0.2.0/arm/arm-none-eabi/include/c++/10.3.1/cmath **** 
1541:/Library/DaisyToolchain/0.2.0/arm/arm-none-eabi/include/c++/10.3.1/cmath **** #ifndef __CORRECT_ISO_CPP11_MATH_H_PROTO_INT
1542:/Library/DaisyToolchain/0.2.0/arm/arm-none-eabi/include/c++/10.3.1/cmath ****   template<typename _Tp>
1543:/Library/DaisyToolchain/0.2.0/arm/arm-none-eabi/include/c++/10.3.1/cmath ****     constexpr typename __gnu_cxx::__enable_if<__is_integer<_Tp>::__value, 
1544:/Library/DaisyToolchain/0.2.0/arm/arm-none-eabi/include/c++/10.3.1/cmath ****                                               long long>::__type
1545:/Library/DaisyToolchain/0.2.0/arm/arm-none-eabi/include/c++/10.3.1/cmath ****     llround(_Tp __x)
1546:/Library/DaisyToolchain/0.2.0/arm/arm-none-eabi/include/c++/10.3.1/cmath ****     { return __builtin_llround(__x); }
1547:/Library/DaisyToolchain/0.2.0/arm/arm-none-eabi/include/c++/10.3.1/cmath **** #endif
1548:/Library/DaisyToolchain/0.2.0/arm/arm-none-eabi/include/c++/10.3.1/cmath **** 
1549:/Library/DaisyToolchain/0.2.0/arm/arm-none-eabi/include/c++/10.3.1/cmath **** #ifndef __CORRECT_ISO_CPP11_MATH_H_PROTO_FP
1550:/Library/DaisyToolchain/0.2.0/arm/arm-none-eabi/include/c++/10.3.1/cmath ****   constexpr float
1551:/Library/DaisyToolchain/0.2.0/arm/arm-none-eabi/include/c++/10.3.1/cmath ****   log1p(float __x)
1552:/Library/DaisyToolchain/0.2.0/arm/arm-none-eabi/include/c++/10.3.1/cmath ****   { return __builtin_log1pf(__x); }
1553:/Library/DaisyToolchain/0.2.0/arm/arm-none-eabi/include/c++/10.3.1/cmath **** 
1554:/Library/DaisyToolchain/0.2.0/arm/arm-none-eabi/include/c++/10.3.1/cmath ****   constexpr long double
1555:/Library/DaisyToolchain/0.2.0/arm/arm-none-eabi/include/c++/10.3.1/cmath ****   log1p(long double __x)
1556:/Library/DaisyToolchain/0.2.0/arm/arm-none-eabi/include/c++/10.3.1/cmath ****   { return __builtin_log1pl(__x); }
1557:/Library/DaisyToolchain/0.2.0/arm/arm-none-eabi/include/c++/10.3.1/cmath **** #endif
1558:/Library/DaisyToolchain/0.2.0/arm/arm-none-eabi/include/c++/10.3.1/cmath **** 
1559:/Library/DaisyToolchain/0.2.0/arm/arm-none-eabi/include/c++/10.3.1/cmath **** #ifndef __CORRECT_ISO_CPP11_MATH_H_PROTO_INT
1560:/Library/DaisyToolchain/0.2.0/arm/arm-none-eabi/include/c++/10.3.1/cmath ****   template<typename _Tp>
1561:/Library/DaisyToolchain/0.2.0/arm/arm-none-eabi/include/c++/10.3.1/cmath ****     constexpr typename __gnu_cxx::__enable_if<__is_integer<_Tp>::__value, 
1562:/Library/DaisyToolchain/0.2.0/arm/arm-none-eabi/include/c++/10.3.1/cmath ****                                               double>::__type
1563:/Library/DaisyToolchain/0.2.0/arm/arm-none-eabi/include/c++/10.3.1/cmath ****     log1p(_Tp __x)
1564:/Library/DaisyToolchain/0.2.0/arm/arm-none-eabi/include/c++/10.3.1/cmath ****     { return __builtin_log1p(__x); }
1565:/Library/DaisyToolchain/0.2.0/arm/arm-none-eabi/include/c++/10.3.1/cmath **** #endif
1566:/Library/DaisyToolchain/0.2.0/arm/arm-none-eabi/include/c++/10.3.1/cmath **** 
1567:/Library/DaisyToolchain/0.2.0/arm/arm-none-eabi/include/c++/10.3.1/cmath **** #ifndef __CORRECT_ISO_CPP11_MATH_H_PROTO_FP
1568:/Library/DaisyToolchain/0.2.0/arm/arm-none-eabi/include/c++/10.3.1/cmath ****   // DR 568.
1569:/Library/DaisyToolchain/0.2.0/arm/arm-none-eabi/include/c++/10.3.1/cmath ****   constexpr float
1570:/Library/DaisyToolchain/0.2.0/arm/arm-none-eabi/include/c++/10.3.1/cmath ****   log2(float __x)
1571:/Library/DaisyToolchain/0.2.0/arm/arm-none-eabi/include/c++/10.3.1/cmath ****   { return __builtin_log2f(__x); }
1572:/Library/DaisyToolchain/0.2.0/arm/arm-none-eabi/include/c++/10.3.1/cmath **** 
1573:/Library/DaisyToolchain/0.2.0/arm/arm-none-eabi/include/c++/10.3.1/cmath ****   constexpr long double
1574:/Library/DaisyToolchain/0.2.0/arm/arm-none-eabi/include/c++/10.3.1/cmath ****   log2(long double __x)
1575:/Library/DaisyToolchain/0.2.0/arm/arm-none-eabi/include/c++/10.3.1/cmath ****   { return __builtin_log2l(__x); }
1576:/Library/DaisyToolchain/0.2.0/arm/arm-none-eabi/include/c++/10.3.1/cmath **** #endif
1577:/Library/DaisyToolchain/0.2.0/arm/arm-none-eabi/include/c++/10.3.1/cmath **** 
1578:/Library/DaisyToolchain/0.2.0/arm/arm-none-eabi/include/c++/10.3.1/cmath **** #ifndef __CORRECT_ISO_CPP11_MATH_H_PROTO_INT
1579:/Library/DaisyToolchain/0.2.0/arm/arm-none-eabi/include/c++/10.3.1/cmath ****   template<typename _Tp>
1580:/Library/DaisyToolchain/0.2.0/arm/arm-none-eabi/include/c++/10.3.1/cmath ****     constexpr typename __gnu_cxx::__enable_if<__is_integer<_Tp>::__value, 
1581:/Library/DaisyToolchain/0.2.0/arm/arm-none-eabi/include/c++/10.3.1/cmath ****                                               double>::__type
1582:/Library/DaisyToolchain/0.2.0/arm/arm-none-eabi/include/c++/10.3.1/cmath ****     log2(_Tp __x)
1583:/Library/DaisyToolchain/0.2.0/arm/arm-none-eabi/include/c++/10.3.1/cmath ****     { return __builtin_log2(__x); }
1584:/Library/DaisyToolchain/0.2.0/arm/arm-none-eabi/include/c++/10.3.1/cmath **** #endif
1585:/Library/DaisyToolchain/0.2.0/arm/arm-none-eabi/include/c++/10.3.1/cmath **** 
1586:/Library/DaisyToolchain/0.2.0/arm/arm-none-eabi/include/c++/10.3.1/cmath **** #ifndef __CORRECT_ISO_CPP11_MATH_H_PROTO_FP
1587:/Library/DaisyToolchain/0.2.0/arm/arm-none-eabi/include/c++/10.3.1/cmath ****   constexpr float
1588:/Library/DaisyToolchain/0.2.0/arm/arm-none-eabi/include/c++/10.3.1/cmath ****   logb(float __x)
ARM GAS  /var/folders/2p/02m_5p7958535cp2tpgps0400000gn/T//ccx9FAOt.s 			page 137


1589:/Library/DaisyToolchain/0.2.0/arm/arm-none-eabi/include/c++/10.3.1/cmath ****   { return __builtin_logbf(__x); }
1590:/Library/DaisyToolchain/0.2.0/arm/arm-none-eabi/include/c++/10.3.1/cmath **** 
1591:/Library/DaisyToolchain/0.2.0/arm/arm-none-eabi/include/c++/10.3.1/cmath ****   constexpr long double
1592:/Library/DaisyToolchain/0.2.0/arm/arm-none-eabi/include/c++/10.3.1/cmath ****   logb(long double __x)
1593:/Library/DaisyToolchain/0.2.0/arm/arm-none-eabi/include/c++/10.3.1/cmath ****   { return __builtin_logbl(__x); }
1594:/Library/DaisyToolchain/0.2.0/arm/arm-none-eabi/include/c++/10.3.1/cmath **** #endif
1595:/Library/DaisyToolchain/0.2.0/arm/arm-none-eabi/include/c++/10.3.1/cmath **** 
1596:/Library/DaisyToolchain/0.2.0/arm/arm-none-eabi/include/c++/10.3.1/cmath **** #ifndef __CORRECT_ISO_CPP11_MATH_H_PROTO_INT
1597:/Library/DaisyToolchain/0.2.0/arm/arm-none-eabi/include/c++/10.3.1/cmath ****   template<typename _Tp>
1598:/Library/DaisyToolchain/0.2.0/arm/arm-none-eabi/include/c++/10.3.1/cmath ****     constexpr typename __gnu_cxx::__enable_if<__is_integer<_Tp>::__value, 
1599:/Library/DaisyToolchain/0.2.0/arm/arm-none-eabi/include/c++/10.3.1/cmath ****                                               double>::__type
1600:/Library/DaisyToolchain/0.2.0/arm/arm-none-eabi/include/c++/10.3.1/cmath ****     logb(_Tp __x)
1601:/Library/DaisyToolchain/0.2.0/arm/arm-none-eabi/include/c++/10.3.1/cmath ****     { return __builtin_logb(__x); }
1602:/Library/DaisyToolchain/0.2.0/arm/arm-none-eabi/include/c++/10.3.1/cmath **** #endif
1603:/Library/DaisyToolchain/0.2.0/arm/arm-none-eabi/include/c++/10.3.1/cmath **** 
1604:/Library/DaisyToolchain/0.2.0/arm/arm-none-eabi/include/c++/10.3.1/cmath **** #ifndef __CORRECT_ISO_CPP11_MATH_H_PROTO_FP
1605:/Library/DaisyToolchain/0.2.0/arm/arm-none-eabi/include/c++/10.3.1/cmath ****   constexpr long
1606:/Library/DaisyToolchain/0.2.0/arm/arm-none-eabi/include/c++/10.3.1/cmath ****   lrint(float __x)
1607:/Library/DaisyToolchain/0.2.0/arm/arm-none-eabi/include/c++/10.3.1/cmath ****   { return __builtin_lrintf(__x); }
1608:/Library/DaisyToolchain/0.2.0/arm/arm-none-eabi/include/c++/10.3.1/cmath **** 
1609:/Library/DaisyToolchain/0.2.0/arm/arm-none-eabi/include/c++/10.3.1/cmath ****   constexpr long
1610:/Library/DaisyToolchain/0.2.0/arm/arm-none-eabi/include/c++/10.3.1/cmath ****   lrint(long double __x)
1611:/Library/DaisyToolchain/0.2.0/arm/arm-none-eabi/include/c++/10.3.1/cmath ****   { return __builtin_lrintl(__x); }
1612:/Library/DaisyToolchain/0.2.0/arm/arm-none-eabi/include/c++/10.3.1/cmath **** #endif
1613:/Library/DaisyToolchain/0.2.0/arm/arm-none-eabi/include/c++/10.3.1/cmath **** 
1614:/Library/DaisyToolchain/0.2.0/arm/arm-none-eabi/include/c++/10.3.1/cmath **** #ifndef __CORRECT_ISO_CPP11_MATH_H_PROTO_INT
1615:/Library/DaisyToolchain/0.2.0/arm/arm-none-eabi/include/c++/10.3.1/cmath ****   template<typename _Tp>
1616:/Library/DaisyToolchain/0.2.0/arm/arm-none-eabi/include/c++/10.3.1/cmath ****     constexpr typename __gnu_cxx::__enable_if<__is_integer<_Tp>::__value, 
1617:/Library/DaisyToolchain/0.2.0/arm/arm-none-eabi/include/c++/10.3.1/cmath ****                                               long>::__type
1618:/Library/DaisyToolchain/0.2.0/arm/arm-none-eabi/include/c++/10.3.1/cmath ****     lrint(_Tp __x)
1619:/Library/DaisyToolchain/0.2.0/arm/arm-none-eabi/include/c++/10.3.1/cmath ****     { return __builtin_lrint(__x); }
1620:/Library/DaisyToolchain/0.2.0/arm/arm-none-eabi/include/c++/10.3.1/cmath **** #endif
1621:/Library/DaisyToolchain/0.2.0/arm/arm-none-eabi/include/c++/10.3.1/cmath **** 
1622:/Library/DaisyToolchain/0.2.0/arm/arm-none-eabi/include/c++/10.3.1/cmath **** #ifndef __CORRECT_ISO_CPP11_MATH_H_PROTO_FP
1623:/Library/DaisyToolchain/0.2.0/arm/arm-none-eabi/include/c++/10.3.1/cmath ****   constexpr long
1624:/Library/DaisyToolchain/0.2.0/arm/arm-none-eabi/include/c++/10.3.1/cmath ****   lround(float __x)
1625:/Library/DaisyToolchain/0.2.0/arm/arm-none-eabi/include/c++/10.3.1/cmath ****   { return __builtin_lroundf(__x); }
1626:/Library/DaisyToolchain/0.2.0/arm/arm-none-eabi/include/c++/10.3.1/cmath **** 
1627:/Library/DaisyToolchain/0.2.0/arm/arm-none-eabi/include/c++/10.3.1/cmath ****   constexpr long
1628:/Library/DaisyToolchain/0.2.0/arm/arm-none-eabi/include/c++/10.3.1/cmath ****   lround(long double __x)
1629:/Library/DaisyToolchain/0.2.0/arm/arm-none-eabi/include/c++/10.3.1/cmath ****   { return __builtin_lroundl(__x); }
1630:/Library/DaisyToolchain/0.2.0/arm/arm-none-eabi/include/c++/10.3.1/cmath **** #endif
1631:/Library/DaisyToolchain/0.2.0/arm/arm-none-eabi/include/c++/10.3.1/cmath **** 
1632:/Library/DaisyToolchain/0.2.0/arm/arm-none-eabi/include/c++/10.3.1/cmath **** #ifndef __CORRECT_ISO_CPP11_MATH_H_PROTO_INT
1633:/Library/DaisyToolchain/0.2.0/arm/arm-none-eabi/include/c++/10.3.1/cmath ****   template<typename _Tp>
1634:/Library/DaisyToolchain/0.2.0/arm/arm-none-eabi/include/c++/10.3.1/cmath ****     constexpr typename __gnu_cxx::__enable_if<__is_integer<_Tp>::__value, 
1635:/Library/DaisyToolchain/0.2.0/arm/arm-none-eabi/include/c++/10.3.1/cmath ****                                               long>::__type
1636:/Library/DaisyToolchain/0.2.0/arm/arm-none-eabi/include/c++/10.3.1/cmath ****     lround(_Tp __x)
1637:/Library/DaisyToolchain/0.2.0/arm/arm-none-eabi/include/c++/10.3.1/cmath ****     { return __builtin_lround(__x); }
1638:/Library/DaisyToolchain/0.2.0/arm/arm-none-eabi/include/c++/10.3.1/cmath **** #endif
1639:/Library/DaisyToolchain/0.2.0/arm/arm-none-eabi/include/c++/10.3.1/cmath **** 
1640:/Library/DaisyToolchain/0.2.0/arm/arm-none-eabi/include/c++/10.3.1/cmath **** #ifndef __CORRECT_ISO_CPP11_MATH_H_PROTO_FP
1641:/Library/DaisyToolchain/0.2.0/arm/arm-none-eabi/include/c++/10.3.1/cmath ****   constexpr float
1642:/Library/DaisyToolchain/0.2.0/arm/arm-none-eabi/include/c++/10.3.1/cmath ****   nearbyint(float __x)
1643:/Library/DaisyToolchain/0.2.0/arm/arm-none-eabi/include/c++/10.3.1/cmath ****   { return __builtin_nearbyintf(__x); }
1644:/Library/DaisyToolchain/0.2.0/arm/arm-none-eabi/include/c++/10.3.1/cmath **** 
1645:/Library/DaisyToolchain/0.2.0/arm/arm-none-eabi/include/c++/10.3.1/cmath ****   constexpr long double
ARM GAS  /var/folders/2p/02m_5p7958535cp2tpgps0400000gn/T//ccx9FAOt.s 			page 138


1646:/Library/DaisyToolchain/0.2.0/arm/arm-none-eabi/include/c++/10.3.1/cmath ****   nearbyint(long double __x)
1647:/Library/DaisyToolchain/0.2.0/arm/arm-none-eabi/include/c++/10.3.1/cmath ****   { return __builtin_nearbyintl(__x); }
1648:/Library/DaisyToolchain/0.2.0/arm/arm-none-eabi/include/c++/10.3.1/cmath **** #endif
1649:/Library/DaisyToolchain/0.2.0/arm/arm-none-eabi/include/c++/10.3.1/cmath **** 
1650:/Library/DaisyToolchain/0.2.0/arm/arm-none-eabi/include/c++/10.3.1/cmath **** #ifndef __CORRECT_ISO_CPP11_MATH_H_PROTO_INT
1651:/Library/DaisyToolchain/0.2.0/arm/arm-none-eabi/include/c++/10.3.1/cmath ****   template<typename _Tp>
1652:/Library/DaisyToolchain/0.2.0/arm/arm-none-eabi/include/c++/10.3.1/cmath ****     constexpr typename __gnu_cxx::__enable_if<__is_integer<_Tp>::__value, 
1653:/Library/DaisyToolchain/0.2.0/arm/arm-none-eabi/include/c++/10.3.1/cmath ****                                               double>::__type
1654:/Library/DaisyToolchain/0.2.0/arm/arm-none-eabi/include/c++/10.3.1/cmath ****     nearbyint(_Tp __x)
1655:/Library/DaisyToolchain/0.2.0/arm/arm-none-eabi/include/c++/10.3.1/cmath ****     { return __builtin_nearbyint(__x); }
1656:/Library/DaisyToolchain/0.2.0/arm/arm-none-eabi/include/c++/10.3.1/cmath **** #endif
1657:/Library/DaisyToolchain/0.2.0/arm/arm-none-eabi/include/c++/10.3.1/cmath **** 
1658:/Library/DaisyToolchain/0.2.0/arm/arm-none-eabi/include/c++/10.3.1/cmath **** #ifndef __CORRECT_ISO_CPP11_MATH_H_PROTO_FP
1659:/Library/DaisyToolchain/0.2.0/arm/arm-none-eabi/include/c++/10.3.1/cmath ****   constexpr float
1660:/Library/DaisyToolchain/0.2.0/arm/arm-none-eabi/include/c++/10.3.1/cmath ****   nextafter(float __x, float __y)
1661:/Library/DaisyToolchain/0.2.0/arm/arm-none-eabi/include/c++/10.3.1/cmath ****   { return __builtin_nextafterf(__x, __y); }
1662:/Library/DaisyToolchain/0.2.0/arm/arm-none-eabi/include/c++/10.3.1/cmath **** 
1663:/Library/DaisyToolchain/0.2.0/arm/arm-none-eabi/include/c++/10.3.1/cmath ****   constexpr long double
1664:/Library/DaisyToolchain/0.2.0/arm/arm-none-eabi/include/c++/10.3.1/cmath ****   nextafter(long double __x, long double __y)
1665:/Library/DaisyToolchain/0.2.0/arm/arm-none-eabi/include/c++/10.3.1/cmath ****   { return __builtin_nextafterl(__x, __y); }
1666:/Library/DaisyToolchain/0.2.0/arm/arm-none-eabi/include/c++/10.3.1/cmath **** #endif
1667:/Library/DaisyToolchain/0.2.0/arm/arm-none-eabi/include/c++/10.3.1/cmath **** 
1668:/Library/DaisyToolchain/0.2.0/arm/arm-none-eabi/include/c++/10.3.1/cmath **** #ifndef __CORRECT_ISO_CPP11_MATH_H_PROTO_INT
1669:/Library/DaisyToolchain/0.2.0/arm/arm-none-eabi/include/c++/10.3.1/cmath ****   template<typename _Tp, typename _Up>
1670:/Library/DaisyToolchain/0.2.0/arm/arm-none-eabi/include/c++/10.3.1/cmath ****     constexpr typename __gnu_cxx::__promote_2<_Tp, _Up>::__type
1671:/Library/DaisyToolchain/0.2.0/arm/arm-none-eabi/include/c++/10.3.1/cmath ****     nextafter(_Tp __x, _Up __y)
1672:/Library/DaisyToolchain/0.2.0/arm/arm-none-eabi/include/c++/10.3.1/cmath ****     {
1673:/Library/DaisyToolchain/0.2.0/arm/arm-none-eabi/include/c++/10.3.1/cmath ****       typedef typename __gnu_cxx::__promote_2<_Tp, _Up>::__type __type;
1674:/Library/DaisyToolchain/0.2.0/arm/arm-none-eabi/include/c++/10.3.1/cmath ****       return nextafter(__type(__x), __type(__y));
1675:/Library/DaisyToolchain/0.2.0/arm/arm-none-eabi/include/c++/10.3.1/cmath ****     }
1676:/Library/DaisyToolchain/0.2.0/arm/arm-none-eabi/include/c++/10.3.1/cmath **** #endif
1677:/Library/DaisyToolchain/0.2.0/arm/arm-none-eabi/include/c++/10.3.1/cmath **** 
1678:/Library/DaisyToolchain/0.2.0/arm/arm-none-eabi/include/c++/10.3.1/cmath **** #ifndef __CORRECT_ISO_CPP11_MATH_H_PROTO_FP
1679:/Library/DaisyToolchain/0.2.0/arm/arm-none-eabi/include/c++/10.3.1/cmath ****   constexpr float
1680:/Library/DaisyToolchain/0.2.0/arm/arm-none-eabi/include/c++/10.3.1/cmath ****   nexttoward(float __x, long double __y)
1681:/Library/DaisyToolchain/0.2.0/arm/arm-none-eabi/include/c++/10.3.1/cmath ****   { return __builtin_nexttowardf(__x, __y); }
1682:/Library/DaisyToolchain/0.2.0/arm/arm-none-eabi/include/c++/10.3.1/cmath **** 
1683:/Library/DaisyToolchain/0.2.0/arm/arm-none-eabi/include/c++/10.3.1/cmath ****   constexpr long double
1684:/Library/DaisyToolchain/0.2.0/arm/arm-none-eabi/include/c++/10.3.1/cmath ****   nexttoward(long double __x, long double __y)
1685:/Library/DaisyToolchain/0.2.0/arm/arm-none-eabi/include/c++/10.3.1/cmath ****   { return __builtin_nexttowardl(__x, __y); }
1686:/Library/DaisyToolchain/0.2.0/arm/arm-none-eabi/include/c++/10.3.1/cmath **** #endif
1687:/Library/DaisyToolchain/0.2.0/arm/arm-none-eabi/include/c++/10.3.1/cmath **** 
1688:/Library/DaisyToolchain/0.2.0/arm/arm-none-eabi/include/c++/10.3.1/cmath **** #ifndef __CORRECT_ISO_CPP11_MATH_H_PROTO_INT
1689:/Library/DaisyToolchain/0.2.0/arm/arm-none-eabi/include/c++/10.3.1/cmath ****   template<typename _Tp>
1690:/Library/DaisyToolchain/0.2.0/arm/arm-none-eabi/include/c++/10.3.1/cmath ****     constexpr typename __gnu_cxx::__enable_if<__is_integer<_Tp>::__value, 
1691:/Library/DaisyToolchain/0.2.0/arm/arm-none-eabi/include/c++/10.3.1/cmath ****                                               double>::__type
1692:/Library/DaisyToolchain/0.2.0/arm/arm-none-eabi/include/c++/10.3.1/cmath ****     nexttoward(_Tp __x, long double __y)
1693:/Library/DaisyToolchain/0.2.0/arm/arm-none-eabi/include/c++/10.3.1/cmath ****     { return __builtin_nexttoward(__x, __y); }
1694:/Library/DaisyToolchain/0.2.0/arm/arm-none-eabi/include/c++/10.3.1/cmath **** #endif
1695:/Library/DaisyToolchain/0.2.0/arm/arm-none-eabi/include/c++/10.3.1/cmath **** 
1696:/Library/DaisyToolchain/0.2.0/arm/arm-none-eabi/include/c++/10.3.1/cmath **** #ifndef __CORRECT_ISO_CPP11_MATH_H_PROTO_FP
1697:/Library/DaisyToolchain/0.2.0/arm/arm-none-eabi/include/c++/10.3.1/cmath ****   constexpr float
1698:/Library/DaisyToolchain/0.2.0/arm/arm-none-eabi/include/c++/10.3.1/cmath ****   remainder(float __x, float __y)
1699:/Library/DaisyToolchain/0.2.0/arm/arm-none-eabi/include/c++/10.3.1/cmath ****   { return __builtin_remainderf(__x, __y); }
1700:/Library/DaisyToolchain/0.2.0/arm/arm-none-eabi/include/c++/10.3.1/cmath **** 
1701:/Library/DaisyToolchain/0.2.0/arm/arm-none-eabi/include/c++/10.3.1/cmath ****   constexpr long double
1702:/Library/DaisyToolchain/0.2.0/arm/arm-none-eabi/include/c++/10.3.1/cmath ****   remainder(long double __x, long double __y)
ARM GAS  /var/folders/2p/02m_5p7958535cp2tpgps0400000gn/T//ccx9FAOt.s 			page 139


1703:/Library/DaisyToolchain/0.2.0/arm/arm-none-eabi/include/c++/10.3.1/cmath ****   { return __builtin_remainderl(__x, __y); }
1704:/Library/DaisyToolchain/0.2.0/arm/arm-none-eabi/include/c++/10.3.1/cmath **** #endif
1705:/Library/DaisyToolchain/0.2.0/arm/arm-none-eabi/include/c++/10.3.1/cmath **** 
1706:/Library/DaisyToolchain/0.2.0/arm/arm-none-eabi/include/c++/10.3.1/cmath **** #ifndef __CORRECT_ISO_CPP11_MATH_H_PROTO_INT
1707:/Library/DaisyToolchain/0.2.0/arm/arm-none-eabi/include/c++/10.3.1/cmath ****   template<typename _Tp, typename _Up>
1708:/Library/DaisyToolchain/0.2.0/arm/arm-none-eabi/include/c++/10.3.1/cmath ****     constexpr typename __gnu_cxx::__promote_2<_Tp, _Up>::__type
1709:/Library/DaisyToolchain/0.2.0/arm/arm-none-eabi/include/c++/10.3.1/cmath ****     remainder(_Tp __x, _Up __y)
1710:/Library/DaisyToolchain/0.2.0/arm/arm-none-eabi/include/c++/10.3.1/cmath ****     {
1711:/Library/DaisyToolchain/0.2.0/arm/arm-none-eabi/include/c++/10.3.1/cmath ****       typedef typename __gnu_cxx::__promote_2<_Tp, _Up>::__type __type;
1712:/Library/DaisyToolchain/0.2.0/arm/arm-none-eabi/include/c++/10.3.1/cmath ****       return remainder(__type(__x), __type(__y));
1713:/Library/DaisyToolchain/0.2.0/arm/arm-none-eabi/include/c++/10.3.1/cmath ****     }
1714:/Library/DaisyToolchain/0.2.0/arm/arm-none-eabi/include/c++/10.3.1/cmath **** #endif
1715:/Library/DaisyToolchain/0.2.0/arm/arm-none-eabi/include/c++/10.3.1/cmath **** 
1716:/Library/DaisyToolchain/0.2.0/arm/arm-none-eabi/include/c++/10.3.1/cmath **** #ifndef __CORRECT_ISO_CPP11_MATH_H_PROTO_FP
1717:/Library/DaisyToolchain/0.2.0/arm/arm-none-eabi/include/c++/10.3.1/cmath ****   inline float
1718:/Library/DaisyToolchain/0.2.0/arm/arm-none-eabi/include/c++/10.3.1/cmath ****   remquo(float __x, float __y, int* __pquo)
1719:/Library/DaisyToolchain/0.2.0/arm/arm-none-eabi/include/c++/10.3.1/cmath ****   { return __builtin_remquof(__x, __y, __pquo); }
1720:/Library/DaisyToolchain/0.2.0/arm/arm-none-eabi/include/c++/10.3.1/cmath **** 
1721:/Library/DaisyToolchain/0.2.0/arm/arm-none-eabi/include/c++/10.3.1/cmath ****   inline long double
1722:/Library/DaisyToolchain/0.2.0/arm/arm-none-eabi/include/c++/10.3.1/cmath ****   remquo(long double __x, long double __y, int* __pquo)
1723:/Library/DaisyToolchain/0.2.0/arm/arm-none-eabi/include/c++/10.3.1/cmath ****   { return __builtin_remquol(__x, __y, __pquo); }
1724:/Library/DaisyToolchain/0.2.0/arm/arm-none-eabi/include/c++/10.3.1/cmath **** #endif
1725:/Library/DaisyToolchain/0.2.0/arm/arm-none-eabi/include/c++/10.3.1/cmath **** 
1726:/Library/DaisyToolchain/0.2.0/arm/arm-none-eabi/include/c++/10.3.1/cmath **** #ifndef __CORRECT_ISO_CPP11_MATH_H_PROTO_INT
1727:/Library/DaisyToolchain/0.2.0/arm/arm-none-eabi/include/c++/10.3.1/cmath ****   template<typename _Tp, typename _Up>
1728:/Library/DaisyToolchain/0.2.0/arm/arm-none-eabi/include/c++/10.3.1/cmath ****     inline typename __gnu_cxx::__promote_2<_Tp, _Up>::__type
1729:/Library/DaisyToolchain/0.2.0/arm/arm-none-eabi/include/c++/10.3.1/cmath ****     remquo(_Tp __x, _Up __y, int* __pquo)
1730:/Library/DaisyToolchain/0.2.0/arm/arm-none-eabi/include/c++/10.3.1/cmath ****     {
1731:/Library/DaisyToolchain/0.2.0/arm/arm-none-eabi/include/c++/10.3.1/cmath ****       typedef typename __gnu_cxx::__promote_2<_Tp, _Up>::__type __type;
1732:/Library/DaisyToolchain/0.2.0/arm/arm-none-eabi/include/c++/10.3.1/cmath ****       return remquo(__type(__x), __type(__y), __pquo);
1733:/Library/DaisyToolchain/0.2.0/arm/arm-none-eabi/include/c++/10.3.1/cmath ****     }
1734:/Library/DaisyToolchain/0.2.0/arm/arm-none-eabi/include/c++/10.3.1/cmath **** #endif
1735:/Library/DaisyToolchain/0.2.0/arm/arm-none-eabi/include/c++/10.3.1/cmath **** 
1736:/Library/DaisyToolchain/0.2.0/arm/arm-none-eabi/include/c++/10.3.1/cmath **** #ifndef __CORRECT_ISO_CPP11_MATH_H_PROTO_FP
1737:/Library/DaisyToolchain/0.2.0/arm/arm-none-eabi/include/c++/10.3.1/cmath ****   constexpr float
1738:/Library/DaisyToolchain/0.2.0/arm/arm-none-eabi/include/c++/10.3.1/cmath ****   rint(float __x)
1739:/Library/DaisyToolchain/0.2.0/arm/arm-none-eabi/include/c++/10.3.1/cmath ****   { return __builtin_rintf(__x); }
1740:/Library/DaisyToolchain/0.2.0/arm/arm-none-eabi/include/c++/10.3.1/cmath **** 
1741:/Library/DaisyToolchain/0.2.0/arm/arm-none-eabi/include/c++/10.3.1/cmath ****   constexpr long double
1742:/Library/DaisyToolchain/0.2.0/arm/arm-none-eabi/include/c++/10.3.1/cmath ****   rint(long double __x)
1743:/Library/DaisyToolchain/0.2.0/arm/arm-none-eabi/include/c++/10.3.1/cmath ****   { return __builtin_rintl(__x); }
1744:/Library/DaisyToolchain/0.2.0/arm/arm-none-eabi/include/c++/10.3.1/cmath **** #endif
1745:/Library/DaisyToolchain/0.2.0/arm/arm-none-eabi/include/c++/10.3.1/cmath **** 
1746:/Library/DaisyToolchain/0.2.0/arm/arm-none-eabi/include/c++/10.3.1/cmath **** #ifndef __CORRECT_ISO_CPP11_MATH_H_PROTO_INT
1747:/Library/DaisyToolchain/0.2.0/arm/arm-none-eabi/include/c++/10.3.1/cmath ****   template<typename _Tp>
1748:/Library/DaisyToolchain/0.2.0/arm/arm-none-eabi/include/c++/10.3.1/cmath ****     constexpr typename __gnu_cxx::__enable_if<__is_integer<_Tp>::__value, 
1749:/Library/DaisyToolchain/0.2.0/arm/arm-none-eabi/include/c++/10.3.1/cmath ****                                               double>::__type
1750:/Library/DaisyToolchain/0.2.0/arm/arm-none-eabi/include/c++/10.3.1/cmath ****     rint(_Tp __x)
1751:/Library/DaisyToolchain/0.2.0/arm/arm-none-eabi/include/c++/10.3.1/cmath ****     { return __builtin_rint(__x); }
1752:/Library/DaisyToolchain/0.2.0/arm/arm-none-eabi/include/c++/10.3.1/cmath **** #endif
1753:/Library/DaisyToolchain/0.2.0/arm/arm-none-eabi/include/c++/10.3.1/cmath **** 
1754:/Library/DaisyToolchain/0.2.0/arm/arm-none-eabi/include/c++/10.3.1/cmath **** #ifndef __CORRECT_ISO_CPP11_MATH_H_PROTO_FP
1755:/Library/DaisyToolchain/0.2.0/arm/arm-none-eabi/include/c++/10.3.1/cmath ****   constexpr float
1756:/Library/DaisyToolchain/0.2.0/arm/arm-none-eabi/include/c++/10.3.1/cmath ****   round(float __x)
 3559              		.loc 15 1756 3 is_stmt 1 view .LVU969
 3560              	.LBB826:
1757:/Library/DaisyToolchain/0.2.0/arm/arm-none-eabi/include/c++/10.3.1/cmath ****   { return __builtin_roundf(__x); }
ARM GAS  /var/folders/2p/02m_5p7958535cp2tpgps0400000gn/T//ccx9FAOt.s 			page 140


 3561              		.loc 15 1757 5 view .LVU970
 3562              		.loc 15 1757 28 is_stmt 0 view .LVU971
 3563 005e B8FE488A 		vrinta.f32	s16, s16
 3564              	.LVL254:
 3565              		.loc 15 1757 28 view .LVU972
 3566              	.LBE826:
 3567              	.LBE825:
 650:GrannyChordApp.cpp ****       synth_.SetPhasorMode(static_cast<GrainPhasor::Mode>(knob1_val));
 3568              		.loc 3 650 7 is_stmt 1 view .LVU973
 650:GrannyChordApp.cpp ****       synth_.SetPhasorMode(static_cast<GrainPhasor::Mode>(knob1_val));
 3569              		.loc 3 650 7 view .LVU974
 3570              	.LBB827:
 3571              	.LBI820:
 126:../libDaisy/src/daisy_seed.h ****     {
 3572              		.loc 5 126 17 view .LVU975
 3573              	.LBB822:
 3574              		.loc 5 128 23 is_stmt 0 view .LVU976
 3575 0062 B7EEC87A 		vcvt.f64.f32	d7, s16
 3576 0066 53EC172B 		vmov	r2, r3, d7
 3577 006a FFF7FEFF 		bl	_ZN5daisy6LoggerILNS_17LoggerDestinationE1EE9PrintLineEPKcz
 3578              	.LVL255:
 3579              		.loc 5 128 23 view .LVU977
 3580              	.LBE822:
 3581              	.LBE827:
 651:GrannyChordApp.cpp ****       return;
 3582              		.loc 3 651 7 is_stmt 1 view .LVU978
 651:GrannyChordApp.cpp ****       return;
 3583              		.loc 3 651 27 is_stmt 0 view .LVU979
 3584 006e FDEEC87A 		vcvt.s32.f32	s15, s16
 3585 0072 04F12000 		add	r0, r4, #32
 3586              		.loc 3 673 1 view .LVU980
 3587 0076 BDEC028B 		vldm	sp!, {d8}
 3588              		.cfi_remember_state
 3589              		.cfi_restore 80
 3590              		.cfi_restore 81
 3591              		.cfi_def_cfa_offset 8
 3592              	.LVL256:
 651:GrannyChordApp.cpp ****       return;
 3593              		.loc 3 651 27 view .LVU981
 3594 007a 17EE901A 		vmov	r1, s15	@ int
 3595              		.loc 3 673 1 view .LVU982
 3596 007e BDE81040 		pop	{r4, lr}
 3597              		.cfi_restore 14
 3598              		.cfi_restore 4
 3599              		.cfi_def_cfa_offset 0
 3600              	.LVL257:
 651:GrannyChordApp.cpp ****       return;
 3601              		.loc 3 651 27 view .LVU983
 3602 0082 FFF7FEBF 		b	_ZN13GranularSynth13SetPhasorModeEN11GrainPhasor4ModeE
 3603              	.LVL258:
 3604              	.L141:
 3605              		.cfi_restore_state
 653:GrannyChordApp.cpp ****       synth_.SetSizeRnd(knob1_val);
 3606              		.loc 3 653 5 is_stmt 1 view .LVU984
 654:GrannyChordApp.cpp ****       return;
 3607              		.loc 3 654 7 view .LVU985
 3608              	.LBB828:
ARM GAS  /var/folders/2p/02m_5p7958535cp2tpgps0400000gn/T//ccx9FAOt.s 			page 141


 3609              	.LBI828:
 3610              		.file 16 "GranularSynth.h"
   1:GranularSynth.h **** #pragma once
   2:GranularSynth.h **** 
   3:GranularSynth.h **** #include "Grain.h"
   4:GranularSynth.h **** #include "daisy_pod.h"
   5:GranularSynth.h **** #include "debug_print.h"
   6:GranularSynth.h **** #include <vector>
   7:GranularSynth.h **** 
   8:GranularSynth.h **** class GranularSynth{
   9:GranularSynth.h ****   public:
  10:GranularSynth.h ****     GranularSynth(DaisyPod& pod) 
  11:GranularSynth.h ****       : pod_(pod), left_buf_(nullptr), right_buf_(nullptr), audio_len_(0),
  12:GranularSynth.h ****         grains_(){}
  13:GranularSynth.h **** 
  14:GranularSynth.h ****     void Init(int16_t *left, int16_t *right, size_t audio_len);
  15:GranularSynth.h ****     void Reset(size_t len);
  16:GranularSynth.h ****     void InitParams();
  17:GranularSynth.h ****     void UpdateGrainParams();
  18:GranularSynth.h ****     void ApplyRandomness();
  19:GranularSynth.h ****     void TriggerGrain();
  20:GranularSynth.h ****     Sample ProcessGrains();
  21:GranularSynth.h **** 
  22:GranularSynth.h ****     void SetEnvelopeType(Grain::EnvelopeType type);
  23:GranularSynth.h ****     void SetPhasorMode(GrainPhasor::Mode mode);
  24:GranularSynth.h ****     void SetPan(float pan);
  25:GranularSynth.h ****     
  26:GranularSynth.h ****     void SetGrainSize(float knob_val);
  27:GranularSynth.h ****     void SetSpawnPos(float knob_val);
  28:GranularSynth.h ****     void SetActiveGrains(float knob_val);
  29:GranularSynth.h ****     void SetPitchRatio(float ratio);
  30:GranularSynth.h **** 
  31:GranularSynth.h ****     void SetSizeRnd(float rnd){ rnd_size_ = rnd; }
 3611              		.loc 16 31 10 view .LVU986
 3612              	.LBB829:
 3613              		.loc 16 31 33 view .LVU987
 3614              		.loc 16 31 43 is_stmt 0 view .LVU988
 3615 0086 00F21444 		addw	r4, r0, #1044
 3616              	.LVL259:
 3617              	.L143:
 3618              		.loc 16 31 43 view .LVU989
 3619              	.LBE829:
 3620              	.LBE828:
 3621              	.LBB830:
 3622              	.LBB831:
  32:GranularSynth.h ****     void SetPositionRnd(float rnd){ rnd_spawn_pos_ = rnd; }
  33:GranularSynth.h ****     void SetPitchRnd(float rnd){ rnd_pitch_ = rnd; }
  34:GranularSynth.h ****     void SetCountRnd(float rnd){ rnd_count_ = rnd; }
  35:GranularSynth.h ****     void SetPanRnd(float rnd){ rnd_pan_ = rnd; }
  36:GranularSynth.h ****     void SetEnvRnd(float rnd){ rnd_envelope_ = rnd; }
  37:GranularSynth.h ****     void SetPhasorRnd(float rnd){ rnd_phasor_ = rnd; }
 3623              		.loc 16 37 47 view .LVU990
 3624 008a 84ED000A 		vstr.32	s0, [r4]
 3625              	.LVL260:
 3626              	.L131:
 3627              		.loc 16 37 47 view .LVU991
 3628              	.LBE831:
ARM GAS  /var/folders/2p/02m_5p7958535cp2tpgps0400000gn/T//ccx9FAOt.s 			page 142


 3629              	.LBE830:
 3630              		.loc 3 673 1 view .LVU992
 3631 008e BDEC028B 		vldm	sp!, {d8}
 3632              		.cfi_remember_state
 3633              		.cfi_restore 80
 3634              		.cfi_restore 81
 3635              		.cfi_def_cfa_offset 8
 3636 0092 10BD     		pop	{r4, pc}
 3637              	.LVL261:
 3638              	.L139:
 3639              		.cfi_restore_state
 656:GrannyChordApp.cpp ****       synth_.SetPitchRnd(knob1_val);
 3640              		.loc 3 656 5 is_stmt 1 view .LVU993
 657:GrannyChordApp.cpp ****       return;
 3641              		.loc 3 657 7 view .LVU994
 3642              	.LBB833:
 3643              	.LBI833:
  33:GranularSynth.h ****     void SetCountRnd(float rnd){ rnd_count_ = rnd; }
 3644              		.loc 16 33 10 view .LVU995
 3645              	.LBB834:
  33:GranularSynth.h ****     void SetCountRnd(float rnd){ rnd_count_ = rnd; }
 3646              		.loc 16 33 34 view .LVU996
  33:GranularSynth.h ****     void SetCountRnd(float rnd){ rnd_count_ = rnd; }
 3647              		.loc 16 33 45 is_stmt 0 view .LVU997
 3648 0094 00F58464 		add	r4, r0, #1056
 3649 0098 F7E7     		b	.L143
 3650              	.LVL262:
 3651              	.L137:
  33:GranularSynth.h ****     void SetCountRnd(float rnd){ rnd_count_ = rnd; }
 3652              		.loc 16 33 45 view .LVU998
 3653              	.LBE834:
 3654              	.LBE833:
 659:GrannyChordApp.cpp ****       synth_.SetPhasorRnd(knob1_val);
 3655              		.loc 3 659 5 is_stmt 1 view .LVU999
 660:GrannyChordApp.cpp ****       return;
 3656              		.loc 3 660 7 view .LVU1000
 3657              	.LBB835:
 3658              	.LBI830:
 3659              		.loc 16 37 10 view .LVU1001
 3660              	.LBB832:
 3661              		.loc 16 37 35 view .LVU1002
 3662              		.loc 16 37 47 is_stmt 0 view .LVU1003
 3663 009a 00F22C44 		addw	r4, r0, #1068
 3664 009e F4E7     		b	.L143
 3665              	.LVL263:
 3666              	.L135:
 3667              		.loc 16 37 47 view .LVU1004
 3668              	.LBE832:
 3669              	.LBE835:
 662:GrannyChordApp.cpp ****       /* set reverb feedback ie tail length */
 3670              		.loc 3 662 5 is_stmt 1 view .LVU1005
 664:GrannyChordApp.cpp ****       return;
 3671              		.loc 3 664 7 view .LVU1006
 3672              	.LBB836:
 3673              	.LBI836:
 3674              		.file 17 "../DaisySP/Source/../DaisySP-LGPL/Source/Effects/reverbsc.h"
   1:../DaisySP/Source/../DaisySP-LGPL/Source/Effects/reverbsc.h **** /*
ARM GAS  /var/folders/2p/02m_5p7958535cp2tpgps0400000gn/T//ccx9FAOt.s 			page 143


   2:../DaisySP/Source/../DaisySP-LGPL/Source/Effects/reverbsc.h **** Copyright (c) 2023 Electrosmith, Corp, Sean Costello, Istvan Varga, Paul Batchelor
   3:../DaisySP/Source/../DaisySP-LGPL/Source/Effects/reverbsc.h **** 
   4:../DaisySP/Source/../DaisySP-LGPL/Source/Effects/reverbsc.h **** Use of this source code is governed by the LGPL V2.1
   5:../DaisySP/Source/../DaisySP-LGPL/Source/Effects/reverbsc.h **** license that can be found in the LICENSE file or at
   6:../DaisySP/Source/../DaisySP-LGPL/Source/Effects/reverbsc.h **** https://opensource.org/license/lgpl-2-1/
   7:../DaisySP/Source/../DaisySP-LGPL/Source/Effects/reverbsc.h **** */
   8:../DaisySP/Source/../DaisySP-LGPL/Source/Effects/reverbsc.h **** 
   9:../DaisySP/Source/../DaisySP-LGPL/Source/Effects/reverbsc.h **** #pragma once
  10:../DaisySP/Source/../DaisySP-LGPL/Source/Effects/reverbsc.h **** #ifndef DSYSP_REVERBSC_H
  11:../DaisySP/Source/../DaisySP-LGPL/Source/Effects/reverbsc.h **** #define DSYSP_REVERBSC_H
  12:../DaisySP/Source/../DaisySP-LGPL/Source/Effects/reverbsc.h **** 
  13:../DaisySP/Source/../DaisySP-LGPL/Source/Effects/reverbsc.h **** #define DSY_REVERBSC_MAX_SIZE 98936
  14:../DaisySP/Source/../DaisySP-LGPL/Source/Effects/reverbsc.h **** // #define DSY_REVERBSC_MAX_SIZE 49468
  15:../DaisySP/Source/../DaisySP-LGPL/Source/Effects/reverbsc.h **** 
  16:../DaisySP/Source/../DaisySP-LGPL/Source/Effects/reverbsc.h **** namespace daisysp
  17:../DaisySP/Source/../DaisySP-LGPL/Source/Effects/reverbsc.h **** {
  18:../DaisySP/Source/../DaisySP-LGPL/Source/Effects/reverbsc.h **** /**Delay line for internal reverb use
  19:../DaisySP/Source/../DaisySP-LGPL/Source/Effects/reverbsc.h **** */
  20:../DaisySP/Source/../DaisySP-LGPL/Source/Effects/reverbsc.h **** typedef struct
  21:../DaisySP/Source/../DaisySP-LGPL/Source/Effects/reverbsc.h **** {
  22:../DaisySP/Source/../DaisySP-LGPL/Source/Effects/reverbsc.h ****     int    write_pos;         /**< write position */
  23:../DaisySP/Source/../DaisySP-LGPL/Source/Effects/reverbsc.h ****     int    buffer_size;       /**< buffer size */
  24:../DaisySP/Source/../DaisySP-LGPL/Source/Effects/reverbsc.h ****     int    read_pos;          /**< read position */
  25:../DaisySP/Source/../DaisySP-LGPL/Source/Effects/reverbsc.h ****     int    read_pos_frac;     /**< fractional component of read pos */
  26:../DaisySP/Source/../DaisySP-LGPL/Source/Effects/reverbsc.h ****     int    read_pos_frac_inc; /**< increment for fractional */
  27:../DaisySP/Source/../DaisySP-LGPL/Source/Effects/reverbsc.h ****     int    dummy;             /**<  dummy var */
  28:../DaisySP/Source/../DaisySP-LGPL/Source/Effects/reverbsc.h ****     int    seed_val;          /**< randseed */
  29:../DaisySP/Source/../DaisySP-LGPL/Source/Effects/reverbsc.h ****     int    rand_line_cnt;     /**< number of random lines */
  30:../DaisySP/Source/../DaisySP-LGPL/Source/Effects/reverbsc.h ****     float  filter_state;      /**< state of filter */
  31:../DaisySP/Source/../DaisySP-LGPL/Source/Effects/reverbsc.h ****     float *buf;               /**< buffer ptr */
  32:../DaisySP/Source/../DaisySP-LGPL/Source/Effects/reverbsc.h **** } ReverbScDl;
  33:../DaisySP/Source/../DaisySP-LGPL/Source/Effects/reverbsc.h **** 
  34:../DaisySP/Source/../DaisySP-LGPL/Source/Effects/reverbsc.h **** /** Stereo Reverb */
  35:../DaisySP/Source/../DaisySP-LGPL/Source/Effects/reverbsc.h **** class ReverbSc
  36:../DaisySP/Source/../DaisySP-LGPL/Source/Effects/reverbsc.h **** {
  37:../DaisySP/Source/../DaisySP-LGPL/Source/Effects/reverbsc.h ****   public:
  38:../DaisySP/Source/../DaisySP-LGPL/Source/Effects/reverbsc.h ****     ReverbSc() {}
  39:../DaisySP/Source/../DaisySP-LGPL/Source/Effects/reverbsc.h ****     ~ReverbSc() {}
  40:../DaisySP/Source/../DaisySP-LGPL/Source/Effects/reverbsc.h ****     /** Initializes the reverb module, and sets the sample_rate at which the Process function will 
  41:../DaisySP/Source/../DaisySP-LGPL/Source/Effects/reverbsc.h ****         Returns 0 if all good, or 1 if it runs out of delay times exceed maximum allowed.
  42:../DaisySP/Source/../DaisySP-LGPL/Source/Effects/reverbsc.h ****     */
  43:../DaisySP/Source/../DaisySP-LGPL/Source/Effects/reverbsc.h ****     int Init(float sample_rate);
  44:../DaisySP/Source/../DaisySP-LGPL/Source/Effects/reverbsc.h **** 
  45:../DaisySP/Source/../DaisySP-LGPL/Source/Effects/reverbsc.h ****     /** Process the input through the reverb, and updates values of out1, and out2 with the new pro
  46:../DaisySP/Source/../DaisySP-LGPL/Source/Effects/reverbsc.h ****     */
  47:../DaisySP/Source/../DaisySP-LGPL/Source/Effects/reverbsc.h ****     int Process(const float &in1, const float &in2, float *out1, float *out2);
  48:../DaisySP/Source/../DaisySP-LGPL/Source/Effects/reverbsc.h **** 
  49:../DaisySP/Source/../DaisySP-LGPL/Source/Effects/reverbsc.h ****     /* process using a simple wet/dry mix */
  50:../DaisySP/Source/../DaisySP-LGPL/Source/Effects/reverbsc.h ****     void ProcessMix(const float &in1, const float &in2, float *out1, float *out2);
  51:../DaisySP/Source/../DaisySP-LGPL/Source/Effects/reverbsc.h ****     void SetMix(float mix) { wet_mix_ = mix; }
  52:../DaisySP/Source/../DaisySP-LGPL/Source/Effects/reverbsc.h ****     /** controls the reverb time. reverb tail becomes infinite when set to 1.0
  53:../DaisySP/Source/../DaisySP-LGPL/Source/Effects/reverbsc.h ****         \param fb - sets reverb time. range: 0.0 to 1.0
  54:../DaisySP/Source/../DaisySP-LGPL/Source/Effects/reverbsc.h ****     */
  55:../DaisySP/Source/../DaisySP-LGPL/Source/Effects/reverbsc.h ****     inline void SetFeedback(const float &fb) { feedback_ = fb; }
 3675              		.loc 17 55 17 view .LVU1007
 3676              	.LBB837:
 3677              		.loc 17 55 48 view .LVU1008
ARM GAS  /var/folders/2p/02m_5p7958535cp2tpgps0400000gn/T//ccx9FAOt.s 			page 144


 3678              		.loc 17 55 58 is_stmt 0 view .LVU1009
 3679 00a0 D0F88C34 		ldr	r3, [r0, #1164]
 3680 00a4 83ED000A 		vstr.32	s0, [r3]
 3681              		.loc 17 55 64 view .LVU1010
 3682 00a8 F1E7     		b	.L131
 3683              	.LVL264:
 3684              	.L133:
 3685              		.loc 17 55 64 view .LVU1011
 3686              	.LBE837:
 3687              	.LBE836:
 666:GrannyChordApp.cpp ****       /* map knob value to frequency range with an exponential curve */
 3688              		.loc 3 666 5 is_stmt 1 view .LVU1012
 668:GrannyChordApp.cpp ****       /* set cutoff frequency of low pass moog filter */
 3689              		.loc 3 668 7 view .LVU1013
 3690              	.LBB838:
 3691              	.LBI838:
 177:../DaisySP/Source/Utility/dsp.h **** {
 3692              		.loc 14 177 1 view .LVU1014
 3693              	.LBE838:
 179:../DaisySP/Source/Utility/dsp.h ****     {
 3694              		.loc 14 179 5 view .LVU1015
 3695              	.LBB848:
 3696              	.LBB839:
 181:../DaisySP/Source/Utility/dsp.h ****             return fclamp(min + (in * in) * (max - min), min, max);
 3697              		.loc 14 181 9 view .LVU1016
 182:../DaisySP/Source/Utility/dsp.h ****         case Mapping::LOG:
 3698              		.loc 14 182 13 view .LVU1017
 182:../DaisySP/Source/Utility/dsp.h ****         case Mapping::LOG:
 3699              		.loc 14 182 26 is_stmt 0 view .LVU1018
 3700 00aa B3EE047A 		vmov.f32	s14, #2.0e+1
 3701 00ae DFED0B6A 		vldr.32	s13, .L144+8
 182:../DaisySP/Source/Utility/dsp.h ****         case Mapping::LOG:
 3702              		.loc 14 182 37 view .LVU1019
 3703 00b2 20EE000A 		vmul.f32	s0, s0, s0
 3704              	.LVL265:
 182:../DaisySP/Source/Utility/dsp.h ****         case Mapping::LOG:
 3705              		.loc 14 182 37 view .LVU1020
 3706              	.LBE839:
 3707              	.LBE848:
 3708              	.LBB849:
 3709              	.LBB850:
  39:../DaisySP/Source/../DaisySP-LGPL/Source/Filters/moogladder.h ****     /** 
 3710              		.loc 11 39 45 view .LVU1021
 3711 00b6 00F59264 		add	r4, r0, #1168
 3712              	.LBE850:
 3713              	.LBE849:
 3714              	.LBB852:
 3715              	.LBB846:
 182:../DaisySP/Source/Utility/dsp.h ****         case Mapping::LOG:
 3716              		.loc 14 182 26 view .LVU1022
 3717 00ba F0EE477A 		vmov.f32	s15, s14
 3718 00be E0EE267A 		vfma.f32	s15, s0, s13
 3719              	.LVL266:
 3720              	.LBB840:
 3721              	.LBI840:
  64:../DaisySP/Source/Utility/dsp.h **** {
 3722              		.loc 14 64 14 is_stmt 1 view .LVU1023
ARM GAS  /var/folders/2p/02m_5p7958535cp2tpgps0400000gn/T//ccx9FAOt.s 			page 145


 3723              	.LBE840:
 3724              	.LBE846:
 3725              	.LBE852:
  66:../DaisySP/Source/Utility/dsp.h **** }
 3726              		.loc 14 66 5 view .LVU1024
 3727              	.LBB853:
 3728              	.LBB847:
 3729              	.LBB845:
 3730              	.LBB841:
 3731              	.LBI841:
  40:../DaisySP/Source/Utility/dsp.h **** {
 3732              		.loc 14 40 14 view .LVU1025
 3733              	.LBB842:
  42:../DaisySP/Source/Utility/dsp.h **** #ifdef __arm__
 3734              		.loc 14 42 5 view .LVU1026
  44:../DaisySP/Source/Utility/dsp.h **** #else
 3735              		.loc 14 44 5 view .LVU1027
 3736              		.syntax unified
 3737              	@ 44 "../DaisySP/Source/Utility/dsp.h" 1
 3738 00c2 C7FE877A 		vmaxnm.f32 s15, s15, s14
 3739              	@ 0 "" 2
 3740              	.LVL267:
  48:../DaisySP/Source/Utility/dsp.h **** }
 3741              		.loc 14 48 5 view .LVU1028
  48:../DaisySP/Source/Utility/dsp.h **** }
 3742              		.loc 14 48 5 is_stmt 0 view .LVU1029
 3743              		.thumb
 3744              		.syntax unified
 3745              	.LBE842:
 3746              	.LBE841:
 3747              	.LBB843:
 3748              	.LBI843:
  51:../DaisySP/Source/Utility/dsp.h **** {
 3749              		.loc 14 51 14 is_stmt 1 view .LVU1030
 3750              	.LBB844:
  53:../DaisySP/Source/Utility/dsp.h **** #ifdef __arm__
 3751              		.loc 14 53 5 view .LVU1031
  55:../DaisySP/Source/Utility/dsp.h **** #else
 3752              		.loc 14 55 5 view .LVU1032
 3753 00c6 9FED067A 		vldr.32	s14, .L144+12
 3754              	.LVL268:
  55:../DaisySP/Source/Utility/dsp.h **** #else
 3755              		.loc 14 55 5 is_stmt 0 view .LVU1033
 3756              		.syntax unified
 3757              	@ 55 "../DaisySP/Source/Utility/dsp.h" 1
 3758 00ca C7FEC77A 		vminnm.f32 s15, s15, s14
 3759              	@ 0 "" 2
 3760              	.LVL269:
  59:../DaisySP/Source/Utility/dsp.h **** }
 3761              		.loc 14 59 5 is_stmt 1 view .LVU1034
  59:../DaisySP/Source/Utility/dsp.h **** }
 3762              		.loc 14 59 5 is_stmt 0 view .LVU1035
 3763              		.thumb
 3764              		.syntax unified
 3765              	.LBE844:
 3766              	.LBE843:
 3767              	.LBE845:
ARM GAS  /var/folders/2p/02m_5p7958535cp2tpgps0400000gn/T//ccx9FAOt.s 			page 146


 3768              	.LBE847:
 3769              	.LBE853:
 670:GrannyChordApp.cpp ****       return;
 3770              		.loc 3 670 7 is_stmt 1 view .LVU1036
 3771              	.LBB854:
 3772              	.LBI849:
  39:../DaisySP/Source/../DaisySP-LGPL/Source/Filters/moogladder.h ****     /** 
 3773              		.loc 11 39 17 view .LVU1037
 3774              	.LBB851:
  39:../DaisySP/Source/../DaisySP-LGPL/Source/Filters/moogladder.h ****     /** 
 3775              		.loc 11 39 39 view .LVU1038
  39:../DaisySP/Source/../DaisySP-LGPL/Source/Filters/moogladder.h ****     /** 
 3776              		.loc 11 39 45 is_stmt 0 view .LVU1039
 3777 00ce C4ED027A 		vstr.32	s15, [r4, #8]
 3778              	.LVL270:
  39:../DaisySP/Source/../DaisySP-LGPL/Source/Filters/moogladder.h ****     /** 
 3779              		.loc 11 39 53 view .LVU1040
 3780 00d2 DCE7     		b	.L131
 3781              	.L145:
 3782              		.align	2
 3783              	.L144:
 3784 00d4 00000000 		.word	0
 3785 00d8 00000000 		.word	.LC11
 3786 00dc 00788C46 		.word	1183610880
 3787 00e0 00A08C46 		.word	1183621120
 3788              	.LBE851:
 3789              	.LBE854:
 3790              		.cfi_endproc
 3791              	.LFE4939:
 3793              		.section	.rodata._ZN14GrannyChordApp17UpdateKnob2ParamsEf9SynthMode.str1.1,"aMS",%progbits,1
 3794              	.LC12:
 3795 0000 73657420 		.ascii	"set env type to %.2f\000"
 3795      656E7620 
 3795      74797065 
 3795      20746F20 
 3795      252E3266 
 3796              		.section	.text._ZN14GrannyChordApp17UpdateKnob2ParamsEf9SynthMode,"ax",%progbits
 3797              		.align	1
 3798              		.global	_ZN14GrannyChordApp17UpdateKnob2ParamsEf9SynthMode
 3799              		.syntax unified
 3800              		.thumb
 3801              		.thumb_func
 3803              	_ZN14GrannyChordApp17UpdateKnob2ParamsEf9SynthMode:
 3804              	.LVL271:
 3805              	.LFB4940:
 674:GrannyChordApp.cpp **** 
 675:GrannyChordApp.cpp **** /// @brief Updates synth parameters from hardware knob 2 input
 676:GrannyChordApp.cpp **** /// @param knob1_val float between 0-1 from knob input
 677:GrannyChordApp.cpp **** /// @param mode current synth mode that determines which parameters to update
 678:GrannyChordApp.cpp **** void GrannyChordApp::UpdateKnob2Params(float knob2_val, SynthMode mode){
 3806              		.loc 3 678 72 is_stmt 1 view -0
 3807              		.cfi_startproc
 3808              		@ args = 0, pretend = 0, frame = 0
 3809              		@ frame_needed = 0, uses_anonymous_args = 0
 679:GrannyChordApp.cpp ****   switch (mode){
 3810              		.loc 3 679 3 view .LVU1042
 678:GrannyChordApp.cpp ****   switch (mode){
ARM GAS  /var/folders/2p/02m_5p7958535cp2tpgps0400000gn/T//ccx9FAOt.s 			page 147


 3811              		.loc 3 678 72 is_stmt 0 view .LVU1043
 3812 0000 10B5     		push	{r4, lr}
 3813              		.cfi_def_cfa_offset 8
 3814              		.cfi_offset 4, -8
 3815              		.cfi_offset 14, -4
 3816 0002 0446     		mov	r4, r0
 3817 0004 2DED028B 		vpush.64	{d8}
 3818              		.cfi_def_cfa_offset 16
 3819              		.cfi_offset 80, -16
 3820              		.cfi_offset 81, -12
 3821              		.loc 3 679 3 view .LVU1044
 3822 0008 0829     		cmp	r1, #8
 3823 000a 18D8     		bhi	.L146
 3824 000c DFE801F0 		tbb	[pc, r1]
 3825              	.L149:
 3826 0010 05       		.byte	(.L157-.L149)/2
 3827 0011 3B       		.byte	(.L156-.L149)/2
 3828 0012 0C       		.byte	(.L155-.L149)/2
 3829 0013 3E       		.byte	(.L154-.L149)/2
 3830 0014 1A       		.byte	(.L153-.L149)/2
 3831 0015 41       		.byte	(.L152-.L149)/2
 3832 0016 13       		.byte	(.L151-.L149)/2
 3833 0017 44       		.byte	(.L150-.L149)/2
 3834 0018 4B       		.byte	(.L148-.L149)/2
 3835 0019 00       		.p2align 1
 3836              	.L157:
 680:GrannyChordApp.cpp ****     case SynthMode::Size_Position:
 3837              		.loc 3 680 5 is_stmt 1 view .LVU1045
 681:GrannyChordApp.cpp ****       synth_.SetSpawnPos(knob2_val);
 3838              		.loc 3 681 7 view .LVU1046
 682:GrannyChordApp.cpp ****       return;
 683:GrannyChordApp.cpp ****     case SynthMode::Pitch_ActiveGrains:
 684:GrannyChordApp.cpp ****       synth_.SetActiveGrains(knob2_val);
 685:GrannyChordApp.cpp ****       return;
 686:GrannyChordApp.cpp ****     case SynthMode::Pan_PanRnd:
 687:GrannyChordApp.cpp ****       synth_.SetPanRnd(knob2_val);
 688:GrannyChordApp.cpp ****       return;
 689:GrannyChordApp.cpp ****     case SynthMode::PhasorMode_EnvType:
 690:GrannyChordApp.cpp ****       knob2_val = round(fmap(knob2_val, 0, NUM_ENV_TYPES));
 691:GrannyChordApp.cpp **** 
 692:GrannyChordApp.cpp ****       DebugPrint(pod_, "set env type to %.2f", knob2_val);
 693:GrannyChordApp.cpp ****       synth_.SetEnvelopeType(static_cast<Grain::EnvelopeType>(knob2_val));
 694:GrannyChordApp.cpp ****       return;
 695:GrannyChordApp.cpp ****     case SynthMode::Size_Position_Rnd:
 696:GrannyChordApp.cpp ****       synth_.SetPositionRnd(knob2_val);
 697:GrannyChordApp.cpp ****       return;
 698:GrannyChordApp.cpp ****     case SynthMode::Pitch_ActiveGrains_Rnd:
 699:GrannyChordApp.cpp ****       synth_.SetCountRnd(knob2_val);
 700:GrannyChordApp.cpp ****       return;
 701:GrannyChordApp.cpp ****     case SynthMode::PhasorMode_EnvType_Rnd:
 702:GrannyChordApp.cpp ****       synth_.SetEnvRnd(knob2_val);
 703:GrannyChordApp.cpp ****       return;
 704:GrannyChordApp.cpp ****     case SynthMode::Reverb:
 705:GrannyChordApp.cpp ****       reverb_.SetMix(knob2_val);
 706:GrannyChordApp.cpp ****       return;
 707:GrannyChordApp.cpp ****     case SynthMode::Filter:
 708:GrannyChordApp.cpp ****       /* map knob value to frequency range with linear curve */
ARM GAS  /var/folders/2p/02m_5p7958535cp2tpgps0400000gn/T//ccx9FAOt.s 			page 148


 709:GrannyChordApp.cpp ****       knob2_val = fmap(knob2_val, HIPASS_LOWER_BOUND, HIPASS_UPPER_BOUND, daisysp::Mapping::EXP);
 710:GrannyChordApp.cpp ****       /* set cutoff frequency for high pass filter */
 711:GrannyChordApp.cpp ****       hipass_.SetFrequency(knob2_val);
 712:GrannyChordApp.cpp ****       return;
 713:GrannyChordApp.cpp ****   }
 714:GrannyChordApp.cpp **** }
 3839              		.loc 3 714 1 is_stmt 0 view .LVU1047
 3840 001a BDEC028B 		vldm	sp!, {d8}
 3841              		.cfi_remember_state
 3842              		.cfi_restore 80
 3843              		.cfi_restore 81
 3844              		.cfi_def_cfa_offset 8
 681:GrannyChordApp.cpp ****       synth_.SetSpawnPos(knob2_val);
 3845              		.loc 3 681 25 view .LVU1048
 3846 001e 2030     		adds	r0, r0, #32
 3847              	.LVL272:
 3848              		.loc 3 714 1 view .LVU1049
 3849 0020 BDE81040 		pop	{r4, lr}
 3850              		.cfi_restore 14
 3851              		.cfi_restore 4
 3852              		.cfi_def_cfa_offset 0
 3853              	.LVL273:
 681:GrannyChordApp.cpp ****       synth_.SetSpawnPos(knob2_val);
 3854              		.loc 3 681 25 view .LVU1050
 3855 0024 FFF7FEBF 		b	_ZN13GranularSynth11SetSpawnPosEf
 3856              	.LVL274:
 3857              	.L155:
 3858              		.cfi_restore_state
 683:GrannyChordApp.cpp ****       synth_.SetActiveGrains(knob2_val);
 3859              		.loc 3 683 5 is_stmt 1 view .LVU1051
 684:GrannyChordApp.cpp ****       return;
 3860              		.loc 3 684 7 view .LVU1052
 3861              		.loc 3 714 1 is_stmt 0 view .LVU1053
 3862 0028 BDEC028B 		vldm	sp!, {d8}
 3863              		.cfi_remember_state
 3864              		.cfi_restore 80
 3865              		.cfi_restore 81
 3866              		.cfi_def_cfa_offset 8
 684:GrannyChordApp.cpp ****       return;
 3867              		.loc 3 684 29 view .LVU1054
 3868 002c 2030     		adds	r0, r0, #32
 3869              	.LVL275:
 3870              		.loc 3 714 1 view .LVU1055
 3871 002e BDE81040 		pop	{r4, lr}
 3872              		.cfi_restore 14
 3873              		.cfi_restore 4
 3874              		.cfi_def_cfa_offset 0
 3875              	.LVL276:
 684:GrannyChordApp.cpp ****       return;
 3876              		.loc 3 684 29 view .LVU1056
 3877 0032 FFF7FEBF 		b	_ZN13GranularSynth15SetActiveGrainsEf
 3878              	.LVL277:
 3879              	.L151:
 3880              		.cfi_restore_state
 686:GrannyChordApp.cpp ****       synth_.SetPanRnd(knob2_val);
 3881              		.loc 3 686 5 is_stmt 1 view .LVU1057
 687:GrannyChordApp.cpp ****       return;
ARM GAS  /var/folders/2p/02m_5p7958535cp2tpgps0400000gn/T//ccx9FAOt.s 			page 149


 3882              		.loc 3 687 7 view .LVU1058
 3883              	.LBB885:
 3884              	.LBI885:
  35:GranularSynth.h ****     void SetEnvRnd(float rnd){ rnd_envelope_ = rnd; }
 3885              		.loc 16 35 10 view .LVU1059
 3886              	.LBB886:
  35:GranularSynth.h ****     void SetEnvRnd(float rnd){ rnd_envelope_ = rnd; }
 3887              		.loc 16 35 32 view .LVU1060
  35:GranularSynth.h ****     void SetEnvRnd(float rnd){ rnd_envelope_ = rnd; }
 3888              		.loc 16 35 41 is_stmt 0 view .LVU1061
 3889 0036 00F22444 		addw	r4, r0, #1060
 3890              	.LVL278:
 3891              	.L159:
  35:GranularSynth.h ****     void SetEnvRnd(float rnd){ rnd_envelope_ = rnd; }
 3892              		.loc 16 35 41 view .LVU1062
 3893              	.LBE886:
 3894              	.LBE885:
 3895              	.LBB887:
 3896              	.LBB888:
  36:GranularSynth.h ****     void SetPhasorRnd(float rnd){ rnd_phasor_ = rnd; }
 3897              		.loc 16 36 46 view .LVU1063
 3898 003a 84ED000A 		vstr.32	s0, [r4]
 3899              	.LVL279:
 3900              	.L146:
  36:GranularSynth.h ****     void SetPhasorRnd(float rnd){ rnd_phasor_ = rnd; }
 3901              		.loc 16 36 46 view .LVU1064
 3902              	.LBE888:
 3903              	.LBE887:
 3904              		.loc 3 714 1 view .LVU1065
 3905 003e BDEC028B 		vldm	sp!, {d8}
 3906              		.cfi_remember_state
 3907              		.cfi_restore 80
 3908              		.cfi_restore 81
 3909              		.cfi_def_cfa_offset 8
 3910 0042 10BD     		pop	{r4, pc}
 3911              	.LVL280:
 3912              	.L153:
 3913              		.cfi_restore_state
 689:GrannyChordApp.cpp ****       knob2_val = round(fmap(knob2_val, 0, NUM_ENV_TYPES));
 3914              		.loc 3 689 5 is_stmt 1 view .LVU1066
 690:GrannyChordApp.cpp **** 
 3915              		.loc 3 690 7 view .LVU1067
 3916              	.LBB890:
 3917              	.LBI890:
 177:../DaisySP/Source/Utility/dsp.h **** {
 3918              		.loc 14 177 1 view .LVU1068
 3919              	.LBE890:
 179:../DaisySP/Source/Utility/dsp.h ****     {
 3920              		.loc 14 179 5 view .LVU1069
 3921              	.LBB900:
 3922              	.LBB891:
 188:../DaisySP/Source/Utility/dsp.h ****         default: return fclamp(min + in * (max - min), min, max);
 3923              		.loc 14 188 9 view .LVU1070
 3924              		.loc 14 189 9 view .LVU1071
 3925              		.loc 14 189 18 view .LVU1072
 3926              		.loc 14 189 31 is_stmt 0 view .LVU1073
 3927 0044 9FED2E8A 		vldr.32	s16, .L160
ARM GAS  /var/folders/2p/02m_5p7958535cp2tpgps0400000gn/T//ccx9FAOt.s 			page 150


 3928 0048 B1EE007A 		vmov.f32	s14, #4.0e+0
 3929              	.LBE891:
 3930              	.LBE900:
 3931              	.LBB901:
 3932              	.LBB902:
 3933              		.loc 5 128 23 view .LVU1074
 3934 004c 2D48     		ldr	r0, .L160+4
 3935              	.LVL281:
 3936              		.loc 5 128 23 view .LVU1075
 3937              	.LBE902:
 3938              	.LBE901:
 3939              	.LBB904:
 3940              	.LBB898:
 3941              		.loc 14 189 31 view .LVU1076
 3942 004e F0EE487A 		vmov.f32	s15, s16
 3943 0052 E0EE077A 		vfma.f32	s15, s0, s14
 3944              	.LVL282:
 3945              	.LBB892:
 3946              	.LBI892:
  64:../DaisySP/Source/Utility/dsp.h **** {
 3947              		.loc 14 64 14 is_stmt 1 view .LVU1077
 3948              	.LBE892:
 3949              	.LBE898:
 3950              	.LBE904:
  66:../DaisySP/Source/Utility/dsp.h **** }
 3951              		.loc 14 66 5 view .LVU1078
 3952              	.LBB905:
 3953              	.LBB899:
 3954              	.LBB897:
 3955              	.LBB893:
 3956              	.LBI893:
  40:../DaisySP/Source/Utility/dsp.h **** {
 3957              		.loc 14 40 14 view .LVU1079
 3958              	.LBB894:
  42:../DaisySP/Source/Utility/dsp.h **** #ifdef __arm__
 3959              		.loc 14 42 5 view .LVU1080
  44:../DaisySP/Source/Utility/dsp.h **** #else
 3960              		.loc 14 44 5 view .LVU1081
 3961              		.syntax unified
 3962              	@ 44 "../DaisySP/Source/Utility/dsp.h" 1
 3963 0056 87FE888A 		vmaxnm.f32 s16, s15, s16
 3964              	@ 0 "" 2
 3965              	.LVL283:
  48:../DaisySP/Source/Utility/dsp.h **** }
 3966              		.loc 14 48 5 view .LVU1082
  48:../DaisySP/Source/Utility/dsp.h **** }
 3967              		.loc 14 48 5 is_stmt 0 view .LVU1083
 3968              		.thumb
 3969              		.syntax unified
 3970              	.LBE894:
 3971              	.LBE893:
 3972              	.LBB895:
 3973              	.LBI895:
  51:../DaisySP/Source/Utility/dsp.h **** {
 3974              		.loc 14 51 14 is_stmt 1 view .LVU1084
 3975              	.LBB896:
  53:../DaisySP/Source/Utility/dsp.h **** #ifdef __arm__
ARM GAS  /var/folders/2p/02m_5p7958535cp2tpgps0400000gn/T//ccx9FAOt.s 			page 151


 3976              		.loc 14 53 5 view .LVU1085
  55:../DaisySP/Source/Utility/dsp.h **** #else
 3977              		.loc 14 55 5 view .LVU1086
 3978              		.syntax unified
 3979              	@ 55 "../DaisySP/Source/Utility/dsp.h" 1
 3980 005a 88FE478A 		vminnm.f32 s16, s16, s14
 3981              	@ 0 "" 2
 3982              	.LVL284:
  59:../DaisySP/Source/Utility/dsp.h **** }
 3983              		.loc 14 59 5 view .LVU1087
  59:../DaisySP/Source/Utility/dsp.h **** }
 3984              		.loc 14 59 5 is_stmt 0 view .LVU1088
 3985              		.thumb
 3986              		.syntax unified
 3987              	.LBE896:
 3988              	.LBE895:
 3989              	.LBE897:
 3990              	.LBE899:
 3991              	.LBE905:
 3992              	.LBB906:
 3993              	.LBI906:
1756:/Library/DaisyToolchain/0.2.0/arm/arm-none-eabi/include/c++/10.3.1/cmath ****   { return __builtin_roundf(__x); }
 3994              		.loc 15 1756 3 is_stmt 1 view .LVU1089
 3995              	.LBB907:
 3996              		.loc 15 1757 5 view .LVU1090
 3997              		.loc 15 1757 28 is_stmt 0 view .LVU1091
 3998 005e B8FE488A 		vrinta.f32	s16, s16
 3999              	.LVL285:
 4000              		.loc 15 1757 28 view .LVU1092
 4001              	.LBE907:
 4002              	.LBE906:
 692:GrannyChordApp.cpp ****       synth_.SetEnvelopeType(static_cast<Grain::EnvelopeType>(knob2_val));
 4003              		.loc 3 692 7 is_stmt 1 view .LVU1093
 692:GrannyChordApp.cpp ****       synth_.SetEnvelopeType(static_cast<Grain::EnvelopeType>(knob2_val));
 4004              		.loc 3 692 7 view .LVU1094
 4005              	.LBB908:
 4006              	.LBI901:
 126:../libDaisy/src/daisy_seed.h ****     {
 4007              		.loc 5 126 17 view .LVU1095
 4008              	.LBB903:
 4009              		.loc 5 128 23 is_stmt 0 view .LVU1096
 4010 0062 B7EEC87A 		vcvt.f64.f32	d7, s16
 4011 0066 53EC172B 		vmov	r2, r3, d7
 4012 006a FFF7FEFF 		bl	_ZN5daisy6LoggerILNS_17LoggerDestinationE1EE9PrintLineEPKcz
 4013              	.LVL286:
 4014              		.loc 5 128 23 view .LVU1097
 4015              	.LBE903:
 4016              	.LBE908:
 693:GrannyChordApp.cpp ****       return;
 4017              		.loc 3 693 7 is_stmt 1 view .LVU1098
 693:GrannyChordApp.cpp ****       return;
 4018              		.loc 3 693 29 is_stmt 0 view .LVU1099
 4019 006e FDEEC87A 		vcvt.s32.f32	s15, s16
 4020 0072 04F12000 		add	r0, r4, #32
 4021              		.loc 3 714 1 view .LVU1100
 4022 0076 BDEC028B 		vldm	sp!, {d8}
 4023              		.cfi_remember_state
ARM GAS  /var/folders/2p/02m_5p7958535cp2tpgps0400000gn/T//ccx9FAOt.s 			page 152


 4024              		.cfi_restore 80
 4025              		.cfi_restore 81
 4026              		.cfi_def_cfa_offset 8
 4027              	.LVL287:
 693:GrannyChordApp.cpp ****       return;
 4028              		.loc 3 693 29 view .LVU1101
 4029 007a 17EE901A 		vmov	r1, s15	@ int
 4030              		.loc 3 714 1 view .LVU1102
 4031 007e BDE81040 		pop	{r4, lr}
 4032              		.cfi_restore 14
 4033              		.cfi_restore 4
 4034              		.cfi_def_cfa_offset 0
 4035              	.LVL288:
 693:GrannyChordApp.cpp ****       return;
 4036              		.loc 3 693 29 view .LVU1103
 4037 0082 FFF7FEBF 		b	_ZN13GranularSynth15SetEnvelopeTypeEN5Grain12EnvelopeTypeE
 4038              	.LVL289:
 4039              	.L156:
 4040              		.cfi_restore_state
 695:GrannyChordApp.cpp ****       synth_.SetPositionRnd(knob2_val);
 4041              		.loc 3 695 5 is_stmt 1 view .LVU1104
 696:GrannyChordApp.cpp ****       return;
 4042              		.loc 3 696 7 view .LVU1105
 4043              	.LBB909:
 4044              	.LBI909:
  32:GranularSynth.h ****     void SetPitchRnd(float rnd){ rnd_pitch_ = rnd; }
 4045              		.loc 16 32 10 view .LVU1106
 4046              	.LBB910:
  32:GranularSynth.h ****     void SetPitchRnd(float rnd){ rnd_pitch_ = rnd; }
 4047              		.loc 16 32 37 view .LVU1107
  32:GranularSynth.h ****     void SetPitchRnd(float rnd){ rnd_pitch_ = rnd; }
 4048              		.loc 16 32 52 is_stmt 0 view .LVU1108
 4049 0086 00F58364 		add	r4, r0, #1048
 4050 008a D6E7     		b	.L159
 4051              	.LVL290:
 4052              	.L154:
  32:GranularSynth.h ****     void SetPitchRnd(float rnd){ rnd_pitch_ = rnd; }
 4053              		.loc 16 32 52 view .LVU1109
 4054              	.LBE910:
 4055              	.LBE909:
 698:GrannyChordApp.cpp ****       synth_.SetCountRnd(knob2_val);
 4056              		.loc 3 698 5 is_stmt 1 view .LVU1110
 699:GrannyChordApp.cpp ****       return;
 4057              		.loc 3 699 7 view .LVU1111
 4058              	.LBB911:
 4059              	.LBI911:
  34:GranularSynth.h ****     void SetPanRnd(float rnd){ rnd_pan_ = rnd; }
 4060              		.loc 16 34 10 view .LVU1112
 4061              	.LBB912:
  34:GranularSynth.h ****     void SetPanRnd(float rnd){ rnd_pan_ = rnd; }
 4062              		.loc 16 34 34 view .LVU1113
  34:GranularSynth.h ****     void SetPanRnd(float rnd){ rnd_pan_ = rnd; }
 4063              		.loc 16 34 45 is_stmt 0 view .LVU1114
 4064 008c 00F21C44 		addw	r4, r0, #1052
 4065 0090 D3E7     		b	.L159
 4066              	.LVL291:
 4067              	.L152:
ARM GAS  /var/folders/2p/02m_5p7958535cp2tpgps0400000gn/T//ccx9FAOt.s 			page 153


  34:GranularSynth.h ****     void SetPanRnd(float rnd){ rnd_pan_ = rnd; }
 4068              		.loc 16 34 45 view .LVU1115
 4069              	.LBE912:
 4070              	.LBE911:
 701:GrannyChordApp.cpp ****       synth_.SetEnvRnd(knob2_val);
 4071              		.loc 3 701 5 is_stmt 1 view .LVU1116
 702:GrannyChordApp.cpp ****       return;
 4072              		.loc 3 702 7 view .LVU1117
 4073              	.LBB913:
 4074              	.LBI887:
  36:GranularSynth.h ****     void SetPhasorRnd(float rnd){ rnd_phasor_ = rnd; }
 4075              		.loc 16 36 10 view .LVU1118
 4076              	.LBB889:
  36:GranularSynth.h ****     void SetPhasorRnd(float rnd){ rnd_phasor_ = rnd; }
 4077              		.loc 16 36 32 view .LVU1119
  36:GranularSynth.h ****     void SetPhasorRnd(float rnd){ rnd_phasor_ = rnd; }
 4078              		.loc 16 36 46 is_stmt 0 view .LVU1120
 4079 0092 00F58564 		add	r4, r0, #1064
 4080 0096 D0E7     		b	.L159
 4081              	.LVL292:
 4082              	.L150:
  36:GranularSynth.h ****     void SetPhasorRnd(float rnd){ rnd_phasor_ = rnd; }
 4083              		.loc 16 36 46 view .LVU1121
 4084              	.LBE889:
 4085              	.LBE913:
 704:GrannyChordApp.cpp ****       reverb_.SetMix(knob2_val);
 4086              		.loc 3 704 5 is_stmt 1 view .LVU1122
 705:GrannyChordApp.cpp ****       return;
 4087              		.loc 3 705 7 view .LVU1123
 4088              	.LBB914:
 4089              	.LBI914:
  51:../DaisySP/Source/../DaisySP-LGPL/Source/Effects/reverbsc.h ****     /** controls the reverb time. reverb tail becomes infinite when set to 1.0
 4090              		.loc 17 51 10 view .LVU1124
 4091              	.LBB915:
  51:../DaisySP/Source/../DaisySP-LGPL/Source/Effects/reverbsc.h ****     /** controls the reverb time. reverb tail becomes infinite when set to 1.0
 4092              		.loc 17 51 30 view .LVU1125
  51:../DaisySP/Source/../DaisySP-LGPL/Source/Effects/reverbsc.h ****     /** controls the reverb time. reverb tail becomes infinite when set to 1.0
 4093              		.loc 17 51 39 is_stmt 0 view .LVU1126
 4094 0098 D0F88C34 		ldr	r3, [r0, #1164]
 4095 009c 03F5C123 		add	r3, r3, #395264
 4096 00a0 83EDD10A 		vstr.32	s0, [r3, #836]
  51:../DaisySP/Source/../DaisySP-LGPL/Source/Effects/reverbsc.h ****     /** controls the reverb time. reverb tail becomes infinite when set to 1.0
 4097              		.loc 17 51 46 view .LVU1127
 4098 00a4 CBE7     		b	.L146
 4099              	.LVL293:
 4100              	.L148:
  51:../DaisySP/Source/../DaisySP-LGPL/Source/Effects/reverbsc.h ****     /** controls the reverb time. reverb tail becomes infinite when set to 1.0
 4101              		.loc 17 51 46 view .LVU1128
 4102              	.LBE915:
 4103              	.LBE914:
 707:GrannyChordApp.cpp ****       /* map knob value to frequency range with linear curve */
 4104              		.loc 3 707 5 is_stmt 1 view .LVU1129
 709:GrannyChordApp.cpp ****       /* set cutoff frequency for high pass filter */
 4105              		.loc 3 709 7 view .LVU1130
 4106              	.LBB916:
 4107              	.LBI916:
 177:../DaisySP/Source/Utility/dsp.h **** {
ARM GAS  /var/folders/2p/02m_5p7958535cp2tpgps0400000gn/T//ccx9FAOt.s 			page 154


 4108              		.loc 14 177 1 view .LVU1131
 4109              	.LBE916:
 179:../DaisySP/Source/Utility/dsp.h ****     {
 4110              		.loc 14 179 5 view .LVU1132
 4111              	.LBB934:
 4112              	.LBB917:
 181:../DaisySP/Source/Utility/dsp.h ****             return fclamp(min + (in * in) * (max - min), min, max);
 4113              		.loc 14 181 9 view .LVU1133
 182:../DaisySP/Source/Utility/dsp.h ****         case Mapping::LOG:
 4114              		.loc 14 182 13 view .LVU1134
 182:../DaisySP/Source/Utility/dsp.h ****         case Mapping::LOG:
 4115              		.loc 14 182 26 is_stmt 0 view .LVU1135
 4116 00a6 9FED187A 		vldr.32	s14, .L160+8
 182:../DaisySP/Source/Utility/dsp.h ****         case Mapping::LOG:
 4117              		.loc 14 182 37 view .LVU1136
 4118 00aa 20EE000A 		vmul.f32	s0, s0, s0
 4119              	.LVL294:
 182:../DaisySP/Source/Utility/dsp.h ****         case Mapping::LOG:
 4120              		.loc 14 182 26 view .LVU1137
 4121 00ae DFED176A 		vldr.32	s13, .L160+12
 4122              	.LBE917:
 4123              	.LBE934:
 4124              	.LBB935:
 4125              	.LBB936:
  61:../DaisySP/Source/Filters/onepole.h ****         gi_ = 1.f / (1.f + g_);
 4126              		.loc 2 61 13 view .LVU1138
 4127 00b2 04F2D444 		addw	r4, r4, #1236
 4128              	.LBE936:
 4129              	.LBE935:
 4130              	.LBB939:
 4131              	.LBB931:
 182:../DaisySP/Source/Utility/dsp.h ****         case Mapping::LOG:
 4132              		.loc 14 182 26 view .LVU1139
 4133 00b6 F0EE477A 		vmov.f32	s15, s14
 4134 00ba E0EE267A 		vfma.f32	s15, s0, s13
 4135              	.LVL295:
 4136              	.LBB918:
 4137              	.LBI918:
  64:../DaisySP/Source/Utility/dsp.h **** {
 4138              		.loc 14 64 14 is_stmt 1 view .LVU1140
 4139              	.LBE918:
 4140              	.LBE931:
 4141              	.LBE939:
  66:../DaisySP/Source/Utility/dsp.h **** }
 4142              		.loc 14 66 5 view .LVU1141
 4143              	.LBB940:
 4144              	.LBB932:
 4145              	.LBB929:
 4146              	.LBB919:
 4147              	.LBI919:
  40:../DaisySP/Source/Utility/dsp.h **** {
 4148              		.loc 14 40 14 view .LVU1142
 4149              	.LBB920:
  42:../DaisySP/Source/Utility/dsp.h **** #ifdef __arm__
 4150              		.loc 14 42 5 view .LVU1143
  44:../DaisySP/Source/Utility/dsp.h **** #else
 4151              		.loc 14 44 5 view .LVU1144
ARM GAS  /var/folders/2p/02m_5p7958535cp2tpgps0400000gn/T//ccx9FAOt.s 			page 155


 4152              	.LBE920:
 4153              	.LBE919:
 4154              	.LBB922:
 4155              	.LBB923:
  55:../DaisySP/Source/Utility/dsp.h **** #else
 4156              		.loc 14 55 5 is_stmt 0 view .LVU1145
 4157 00be 9FED140A 		vldr.32	s0, .L160+16
 4158              	.LBE923:
 4159              	.LBE922:
 4160              	.LBB926:
 4161              	.LBB921:
  44:../DaisySP/Source/Utility/dsp.h **** #else
 4162              		.loc 14 44 5 view .LVU1146
 4163              		.syntax unified
 4164              	@ 44 "../DaisySP/Source/Utility/dsp.h" 1
 4165 00c2 C7FE877A 		vmaxnm.f32 s15, s15, s14
 4166              	@ 0 "" 2
 4167              	.LVL296:
  48:../DaisySP/Source/Utility/dsp.h **** }
 4168              		.loc 14 48 5 is_stmt 1 view .LVU1147
  48:../DaisySP/Source/Utility/dsp.h **** }
 4169              		.loc 14 48 5 is_stmt 0 view .LVU1148
 4170              		.thumb
 4171              		.syntax unified
 4172              	.LBE921:
 4173              	.LBE926:
 4174              	.LBB927:
 4175              	.LBI922:
  51:../DaisySP/Source/Utility/dsp.h **** {
 4176              		.loc 14 51 14 is_stmt 1 view .LVU1149
 4177              	.LBB924:
  53:../DaisySP/Source/Utility/dsp.h **** #ifdef __arm__
 4178              		.loc 14 53 5 view .LVU1150
  55:../DaisySP/Source/Utility/dsp.h **** #else
 4179              		.loc 14 55 5 view .LVU1151
 4180              	.LBE924:
 4181              	.LBE927:
 4182              	.LBE929:
 4183              	.LBE932:
 4184              	.LBE940:
 4185              	.LBB941:
 4186              	.LBB937:
  59:../DaisySP/Source/Filters/onepole.h **** 
 4187              		.loc 2 59 30 is_stmt 0 view .LVU1152
 4188 00c6 9FED137A 		vldr.32	s14, .L160+20
 4189              	.LVL297:
  59:../DaisySP/Source/Filters/onepole.h **** 
 4190              		.loc 2 59 30 view .LVU1153
 4191              	.LBE937:
 4192              	.LBE941:
 4193              	.LBB942:
 4194              	.LBB933:
 4195              	.LBB930:
 4196              	.LBB928:
 4197              	.LBB925:
  55:../DaisySP/Source/Utility/dsp.h **** #else
 4198              		.loc 14 55 5 view .LVU1154
ARM GAS  /var/folders/2p/02m_5p7958535cp2tpgps0400000gn/T//ccx9FAOt.s 			page 156


 4199              		.syntax unified
 4200              	@ 55 "../DaisySP/Source/Utility/dsp.h" 1
 4201 00ca C7FEC07A 		vminnm.f32 s15, s15, s0
 4202              	@ 0 "" 2
 4203              	.LVL298:
  59:../DaisySP/Source/Utility/dsp.h **** }
 4204              		.loc 14 59 5 is_stmt 1 view .LVU1155
  59:../DaisySP/Source/Utility/dsp.h **** }
 4205              		.loc 14 59 5 is_stmt 0 view .LVU1156
 4206              		.thumb
 4207              		.syntax unified
 4208              	.LBE925:
 4209              	.LBE928:
 4210              	.LBE930:
 4211              	.LBE933:
 4212              	.LBE942:
 711:GrannyChordApp.cpp ****       return;
 4213              		.loc 3 711 7 is_stmt 1 view .LVU1157
 4214              	.LBB943:
 4215              	.LBI935:
  56:../DaisySP/Source/Filters/onepole.h ****     {
 4216              		.loc 2 56 17 view .LVU1158
 4217              	.LBB938:
  59:../DaisySP/Source/Filters/onepole.h **** 
 4218              		.loc 2 59 9 view .LVU1159
  59:../DaisySP/Source/Filters/onepole.h **** 
 4219              		.loc 2 59 30 is_stmt 0 view .LVU1160
 4220 00ce F4EEC77A 		vcmpe.f32	s15, s14
  61:../DaisySP/Source/Filters/onepole.h ****         gi_ = 1.f / (1.f + g_);
 4221              		.loc 2 61 19 view .LVU1161
 4222 00d2 9FED110A 		vldr.32	s0, .L160+24
  59:../DaisySP/Source/Filters/onepole.h **** 
 4223              		.loc 2 59 30 view .LVU1162
 4224 00d6 F1EE10FA 		vmrs	APSR_nzcv, FPSCR
 4225 00da 58BF     		it	pl
 4226 00dc F0EE477A 		vmovpl.f32	s15, s14
 4227              	.LVL299:
  61:../DaisySP/Source/Filters/onepole.h ****         gi_ = 1.f / (1.f + g_);
 4228              		.loc 2 61 9 is_stmt 1 view .LVU1163
  61:../DaisySP/Source/Filters/onepole.h ****         gi_ = 1.f / (1.f + g_);
 4229              		.loc 2 61 19 is_stmt 0 view .LVU1164
 4230 00e0 27EE800A 		vmul.f32	s0, s15, s0
 4231 00e4 FFF7FEFF 		bl	tanf
 4232              	.LVL300:
  62:../DaisySP/Source/Filters/onepole.h ****     }
 4233              		.loc 2 62 26 view .LVU1165
 4234 00e8 F7EE007A 		vmov.f32	s15, #1.0e+0
  61:../DaisySP/Source/Filters/onepole.h ****         gi_ = 1.f / (1.f + g_);
 4235              		.loc 2 61 13 view .LVU1166
 4236 00ec 84ED000A 		vstr.32	s0, [r4]
  62:../DaisySP/Source/Filters/onepole.h ****     }
 4237              		.loc 2 62 9 is_stmt 1 view .LVU1167
  62:../DaisySP/Source/Filters/onepole.h ****     }
 4238              		.loc 2 62 26 is_stmt 0 view .LVU1168
 4239 00f0 30EE270A 		vadd.f32	s0, s0, s15
  62:../DaisySP/Source/Filters/onepole.h ****     }
 4240              		.loc 2 62 19 view .LVU1169
ARM GAS  /var/folders/2p/02m_5p7958535cp2tpgps0400000gn/T//ccx9FAOt.s 			page 157


 4241 00f4 87EE807A 		vdiv.f32	s14, s15, s0
  62:../DaisySP/Source/Filters/onepole.h ****     }
 4242              		.loc 2 62 13 view .LVU1170
 4243 00f8 84ED017A 		vstr.32	s14, [r4, #4]
  63:../DaisySP/Source/Filters/onepole.h **** 
 4244              		.loc 2 63 5 view .LVU1171
 4245 00fc 9FE7     		b	.L146
 4246              	.L161:
 4247 00fe 00BF     		.align	2
 4248              	.L160:
 4249 0100 00000000 		.word	0
 4250 0104 00000000 		.word	.LC12
 4251 0108 17B7D139 		.word	970045207
 4252 010c 99BB963B 		.word	999734169
 4253 0110 0AD7A33B 		.word	1000593162
 4254 0114 C976FE3E 		.word	1056863945
 4255 0118 DB0F4940 		.word	1078530011
 4256              	.LBE938:
 4257              	.LBE943:
 4258              		.cfi_endproc
 4259              	.LFE4940:
 4261              		.section	.text._ZN14GrannyChordApp17UpdateSynthParamsEv,"ax",%progbits
 4262              		.align	1
 4263              		.global	_ZN14GrannyChordApp17UpdateSynthParamsEv
 4264              		.syntax unified
 4265              		.thumb
 4266              		.thumb_func
 4268              	_ZN14GrannyChordApp17UpdateSynthParamsEv:
 4269              	.LVL301:
 4270              	.LFB4919:
 334:GrannyChordApp.cpp ****   if (curr_state_!=AppState::Synthesis) return;
 4271              		.loc 3 334 41 is_stmt 1 view -0
 4272              		.cfi_startproc
 4273              		@ args = 0, pretend = 0, frame = 0
 4274              		@ frame_needed = 0, uses_anonymous_args = 0
 335:GrannyChordApp.cpp ****   int mode_idx = static_cast<int>(curr_synth_mode_);
 4275              		.loc 3 335 3 view .LVU1173
 4276 0000 D0F83834 		ldr	r3, [r0, #1080]
 4277 0004 022B     		cmp	r3, #2
 334:GrannyChordApp.cpp ****   if (curr_state_!=AppState::Synthesis) return;
 4278              		.loc 3 334 41 is_stmt 0 view .LVU1174
 4279 0006 70B5     		push	{r4, r5, r6, lr}
 4280              		.cfi_def_cfa_offset 16
 4281              		.cfi_offset 4, -16
 4282              		.cfi_offset 5, -12
 4283              		.cfi_offset 6, -8
 4284              		.cfi_offset 14, -4
 4285 0008 0446     		mov	r4, r0
 4286 000a 2DED048B 		vpush.64	{d8, d9}
 4287              		.cfi_def_cfa_offset 32
 4288              		.cfi_offset 80, -32
 4289              		.cfi_offset 81, -28
 4290              		.cfi_offset 82, -24
 4291              		.cfi_offset 83, -20
 335:GrannyChordApp.cpp ****   int mode_idx = static_cast<int>(curr_synth_mode_);
 4292              		.loc 3 335 3 view .LVU1175
 4293 000e 40F0BA80 		bne	.L162
ARM GAS  /var/folders/2p/02m_5p7958535cp2tpgps0400000gn/T//ccx9FAOt.s 			page 158


 4294              	.LVL302:
 4295              	.LBB958:
 4296              	.LBI958:
 334:GrannyChordApp.cpp ****   if (curr_state_!=AppState::Synthesis) return;
 4297              		.loc 3 334 6 is_stmt 1 view .LVU1176
 4298              	.LBB959:
 336:GrannyChordApp.cpp **** 
 4299              		.loc 3 336 3 view .LVU1177
 336:GrannyChordApp.cpp **** 
 4300              		.loc 3 336 7 is_stmt 0 view .LVU1178
 4301 0012 D0F84054 		ldr	r5, [r0, #1088]
 4302              	.LVL303:
 339:GrannyChordApp.cpp ****   float knob2_val = MapKnobDeadzone(pod_.knob2.Process());
 4303              		.loc 3 339 3 is_stmt 1 view .LVU1179
 339:GrannyChordApp.cpp ****   float knob2_val = MapKnobDeadzone(pod_.knob2.Process());
 4304              		.loc 3 339 36 is_stmt 0 view .LVU1180
 4305 0016 C069     		ldr	r0, [r0, #28]
 4306              	.LVL304:
 4307              	.LBB960:
 4308              	.LBB961:
 715:GrannyChordApp.cpp **** 
 716:GrannyChordApp.cpp **** /* check parameter value change is over a certain level to avoid reading knob jitter */
 717:GrannyChordApp.cpp **** inline bool GrannyChordApp::CheckParamDelta(float curr_val, float prev_val){
 718:GrannyChordApp.cpp ****   return (fabsf(curr_val - prev_val)>0.01f);
 719:GrannyChordApp.cpp **** }
 720:GrannyChordApp.cpp **** 
 721:GrannyChordApp.cpp **** 
 722:GrannyChordApp.cpp **** /* knobs on the Pod have deadzones around 0 and 1 so we adjust for this */
 723:GrannyChordApp.cpp **** inline float GrannyChordApp::MapKnobDeadzone(float knob_val ){
 724:GrannyChordApp.cpp ****   if (knob_val<=0.01f) return 0.0f;
 4309              		.loc 3 724 3 view .LVU1181
 4310 0018 9FED5C9A 		vldr.32	s18, .L200
 4311              	.LBE961:
 4312              	.LBE960:
 339:GrannyChordApp.cpp ****   float knob2_val = MapKnobDeadzone(pod_.knob2.Process());
 4313              		.loc 3 339 36 view .LVU1182
 4314 001c 6830     		adds	r0, r0, #104
 4315 001e FFF7FEFF 		bl	_ZN5daisy13AnalogControl7ProcessEv
 4316              	.LVL305:
 4317              	.LBB964:
 4318              	.LBI960:
 723:GrannyChordApp.cpp ****   if (knob_val<=0.01f) return 0.0f;
 4319              		.loc 3 723 14 is_stmt 1 view .LVU1183
 4320              	.LBB962:
 4321              		.loc 3 724 3 view .LVU1184
 4322 0022 B4EEC90A 		vcmpe.f32	s0, s18
 4323 0026 F1EE10FA 		vmrs	APSR_nzcv, FPSCR
 4324 002a 4AD9     		bls	.L186
 725:GrannyChordApp.cpp ****   if (knob_val>=0.99f) return 1.0f;
 4325              		.loc 3 725 3 view .LVU1185
 4326              		.loc 3 725 31 is_stmt 0 view .LVU1186
 4327 002c DFED587A 		vldr.32	s15, .L200+4
 4328 0030 B4EE670A 		vcmp.f32	s0, s15
 4329 0034 F7EE007A 		vmov.f32	s15, #1.0e+0
 4330 0038 F1EE10FA 		vmrs	APSR_nzcv, FPSCR
 4331 003c 27FE808A 		vselge.f32	s16, s15, s0
 4332              	.L164:
ARM GAS  /var/folders/2p/02m_5p7958535cp2tpgps0400000gn/T//ccx9FAOt.s 			page 159


 4333              	.LVL306:
 4334              		.loc 3 725 31 view .LVU1187
 4335              	.LBE962:
 4336              	.LBE964:
 340:GrannyChordApp.cpp **** 
 4337              		.loc 3 340 3 is_stmt 1 view .LVU1188
 340:GrannyChordApp.cpp **** 
 4338              		.loc 3 340 36 is_stmt 0 view .LVU1189
 4339 0040 E069     		ldr	r0, [r4, #28]
 4340 0042 8830     		adds	r0, r0, #136
 4341 0044 FFF7FEFF 		bl	_ZN5daisy13AnalogControl7ProcessEv
 4342              	.LVL307:
 4343              	.LBB965:
 4344              	.LBI965:
 723:GrannyChordApp.cpp ****   if (knob_val<=0.01f) return 0.0f;
 4345              		.loc 3 723 14 is_stmt 1 view .LVU1190
 4346              	.LBB966:
 724:GrannyChordApp.cpp ****   if (knob_val>=0.99f) return 1.0f;
 4347              		.loc 3 724 3 view .LVU1191
 4348 0048 B4EEC90A 		vcmpe.f32	s0, s18
 4349 004c F1EE10FA 		vmrs	APSR_nzcv, FPSCR
 4350 0050 3AD9     		bls	.L187
 4351              		.loc 3 725 3 view .LVU1192
 4352              		.loc 3 725 31 is_stmt 0 view .LVU1193
 4353 0052 DFED4F7A 		vldr.32	s15, .L200+4
 4354 0056 B4EE670A 		vcmp.f32	s0, s15
 4355 005a F7EE007A 		vmov.f32	s15, #1.0e+0
 4356 005e F1EE10FA 		vmrs	APSR_nzcv, FPSCR
 4357 0062 27FE800A 		vselge.f32	s0, s15, s0
 4358              	.LVL308:
 4359              	.L166:
 4360              		.loc 3 725 31 view .LVU1194
 4361              	.LBE966:
 4362              	.LBE965:
 347:GrannyChordApp.cpp ****   // if (paramcount%50000==0){
 4363              		.loc 3 347 3 is_stmt 1 view .LVU1195
 4364 0066 04EB8503 		add	r3, r4, r5, lsl #2
 4365              	.LBB968:
 4366              	.LBB969:
 726:GrannyChordApp.cpp ****   return knob_val;
 727:GrannyChordApp.cpp **** }
 728:GrannyChordApp.cpp **** 
 729:GrannyChordApp.cpp **** /* here we check if the current value of the knob has moved through the last stored value 
 730:GrannyChordApp.cpp ****   before the synth mode changed, and only update the parameter once the current knob value
 731:GrannyChordApp.cpp ****   'passes through' the stored value - meaning if we set grain size to 0.1 then switch modes 
 732:GrannyChordApp.cpp ****   and move the knob to 0.8, if we switch back, grain size won't be updated again until the 
 733:GrannyChordApp.cpp ****   knob passes through this value.  */
 734:GrannyChordApp.cpp **** // inline float GrannyChordApp::UpdateKnobPassThru(float curr_knob_val, float *stored_knob_val, boo
 735:GrannyChordApp.cpp **** //   if (!(*pass_thru)){
 736:GrannyChordApp.cpp **** //     if (curr_knob_val >= (*stored_knob_val) || curr_knob_val <= (*stored_knob_val)) {
 737:GrannyChordApp.cpp **** //       (*pass_thru) = true;
 738:GrannyChordApp.cpp **** //     }
 739:GrannyChordApp.cpp **** //   } 
 740:GrannyChordApp.cpp **** //   if (*pass_thru){
 741:GrannyChordApp.cpp **** //     (*stored_knob_val) = curr_knob_val;
 742:GrannyChordApp.cpp **** //     return curr_knob_val;
 743:GrannyChordApp.cpp **** //   }
ARM GAS  /var/folders/2p/02m_5p7958535cp2tpgps0400000gn/T//ccx9FAOt.s 			page 160


 744:GrannyChordApp.cpp **** //   return (*stored_knob_val);
 745:GrannyChordApp.cpp **** // }
 746:GrannyChordApp.cpp **** 
 747:GrannyChordApp.cpp **** inline float GrannyChordApp::UpdateKnobPassThru(float curr_knob_val, float *stored_knob_val, float 
 748:GrannyChordApp.cpp ****   if (!(*pass_thru)){
 4367              		.loc 3 748 9 is_stmt 0 view .LVU1196
 4368 006a 6219     		adds	r2, r4, r5
 4369              	.LBE969:
 4370              	.LBE968:
 347:GrannyChordApp.cpp ****   // if (paramcount%50000==0){
 4371              		.loc 3 347 33 view .LVU1197
 4372 006c 03F5AF66 		add	r6, r3, #1400
 4373              	.LBB973:
 4374              	.LBB970:
 4375              		.loc 3 748 3 view .LVU1198
 4376 0070 92F8E815 		ldrb	r1, [r2, #1512]	@ zero_extendqisi2
 4377              	.LBE970:
 4378              	.LBE973:
 347:GrannyChordApp.cpp ****   // if (paramcount%50000==0){
 4379              		.loc 3 347 33 view .LVU1199
 4380 0074 D6ED007A 		vldr.32	s15, [r6]
 4381              	.LVL309:
 4382              	.LBB974:
 4383              	.LBI968:
 747:GrannyChordApp.cpp ****   if (!(*pass_thru)){
 4384              		.loc 3 747 14 is_stmt 1 view .LVU1200
 4385              	.LBB971:
 4386              		.loc 3 748 3 view .LVU1201
 4387 0078 F1B9     		cbnz	r1, .L168
 749:GrannyChordApp.cpp ****     if ((curr_knob_val >= prev_param_val && (*stored_knob_val) <= (prev_param_val)) ||
 4388              		.loc 3 749 5 view .LVU1202
 4389 007a F4EEC87A 		vcmpe.f32	s15, s16
 4390 007e F1EE10FA 		vmrs	APSR_nzcv, FPSCR
 4391 0082 08D8     		bhi	.L169
 4392              		.loc 3 749 46 is_stmt 0 view .LVU1203
 4393 0084 03F5B661 		add	r1, r3, #1456
 4394              		.loc 3 749 42 view .LVU1204
 4395 0088 91ED007A 		vldr.32	s14, [r1]
 4396 008c F4EEC77A 		vcmpe.f32	s15, s14
 4397 0090 F1EE10FA 		vmrs	APSR_nzcv, FPSCR
 4398 0094 0DDA     		bge	.L171
 4399              	.L169:
 4400              		.loc 3 749 85 view .LVU1205
 4401 0096 F4EEC87A 		vcmpe.f32	s15, s16
 4402 009a F1EE10FA 		vmrs	APSR_nzcv, FPSCR
 4403 009e 16DB     		blt	.L199
 750:GrannyChordApp.cpp ****         (curr_knob_val <= prev_param_val && (*stored_knob_val) >= (prev_param_val))) {
 4404              		.loc 3 750 46 view .LVU1206
 4405 00a0 03F5B661 		add	r1, r3, #1456
 4406              		.loc 3 750 42 view .LVU1207
 4407 00a4 91ED007A 		vldr.32	s14, [r1]
 4408 00a8 F4EEC77A 		vcmpe.f32	s15, s14
 4409 00ac F1EE10FA 		vmrs	APSR_nzcv, FPSCR
 4410 00b0 0DD8     		bhi	.L199
 4411              	.L171:
 751:GrannyChordApp.cpp ****           (*pass_thru) = true;
 4412              		.loc 3 751 11 is_stmt 1 view .LVU1208
ARM GAS  /var/folders/2p/02m_5p7958535cp2tpgps0400000gn/T//ccx9FAOt.s 			page 161


 4413              		.loc 3 751 24 is_stmt 0 view .LVU1209
 4414 00b2 0121     		movs	r1, #1
 4415 00b4 82F8E815 		strb	r1, [r2, #1512]
 4416              	.L168:
 752:GrannyChordApp.cpp ****     }
 753:GrannyChordApp.cpp **** } 
 754:GrannyChordApp.cpp ****   if (*pass_thru){
 4417              		.loc 3 754 3 is_stmt 1 view .LVU1210
 755:GrannyChordApp.cpp ****     (*stored_knob_val) = curr_knob_val;
 4418              		.loc 3 755 5 view .LVU1211
 4419              		.loc 3 755 24 is_stmt 0 view .LVU1212
 4420 00b8 03F5B661 		add	r1, r3, #1456
 4421 00bc 81ED008A 		vstr.32	s16, [r1]
 756:GrannyChordApp.cpp ****     return curr_knob_val;
 4422              		.loc 3 756 5 is_stmt 1 view .LVU1213
 4423              		.loc 3 756 12 is_stmt 0 view .LVU1214
 4424 00c0 07E0     		b	.L172
 4425              	.LVL310:
 4426              	.L186:
 4427              		.loc 3 756 12 view .LVU1215
 4428              	.LBE971:
 4429              	.LBE974:
 4430              	.LBB975:
 4431              	.LBB963:
 724:GrannyChordApp.cpp ****   if (knob_val>=0.99f) return 1.0f;
 4432              		.loc 3 724 31 view .LVU1216
 4433 00c2 9FED348A 		vldr.32	s16, .L200+8
 4434 00c6 BBE7     		b	.L164
 4435              	.LVL311:
 4436              	.L187:
 724:GrannyChordApp.cpp ****   if (knob_val>=0.99f) return 1.0f;
 4437              		.loc 3 724 31 view .LVU1217
 4438              	.LBE963:
 4439              	.LBE975:
 4440              	.LBB976:
 4441              	.LBB967:
 4442 00c8 9FED320A 		vldr.32	s0, .L200+8
 4443              	.LVL312:
 724:GrannyChordApp.cpp ****   if (knob_val>=0.99f) return 1.0f;
 4444              		.loc 3 724 31 view .LVU1218
 4445 00cc CBE7     		b	.L166
 4446              	.LVL313:
 4447              	.L199:
 724:GrannyChordApp.cpp ****   if (knob_val>=0.99f) return 1.0f;
 4448              		.loc 3 724 31 view .LVU1219
 4449              	.LBE967:
 4450              	.LBE976:
 4451              	.LBB977:
 4452              	.LBB972:
 757:GrannyChordApp.cpp ****   }
 758:GrannyChordApp.cpp ****   return prev_param_val;
 4453              		.loc 3 758 10 view .LVU1220
 4454 00ce B0EE678A 		vmov.f32	s16, s15
 4455              	.LVL314:
 4456              	.L172:
 4457              		.loc 3 758 10 view .LVU1221
 4458              	.LBE972:
ARM GAS  /var/folders/2p/02m_5p7958535cp2tpgps0400000gn/T//ccx9FAOt.s 			page 162


 4459              	.LBE977:
 354:GrannyChordApp.cpp ****   // if (paramcount%50000==0){
 4460              		.loc 3 354 3 is_stmt 1 view .LVU1222
 4461              	.LBB978:
 4462              	.LBI978:
 747:GrannyChordApp.cpp ****   if (!(*pass_thru)){
 4463              		.loc 3 747 14 view .LVU1223
 4464              	.LBB979:
 748:GrannyChordApp.cpp ****     if ((curr_knob_val >= prev_param_val && (*stored_knob_val) <= (prev_param_val)) ||
 4465              		.loc 3 748 3 view .LVU1224
 4466 00d2 92F8EF15 		ldrb	r1, [r2, #1519]	@ zero_extendqisi2
 4467 00d6 03F29455 		addw	r5, r3, #1428
 4468              	.LVL315:
 748:GrannyChordApp.cpp ****     if ((curr_knob_val >= prev_param_val && (*stored_knob_val) <= (prev_param_val)) ||
 4469              		.loc 3 748 3 is_stmt 0 view .LVU1225
 4470 00da 01BB     		cbnz	r1, .L175
 4471              	.LBE979:
 4472              	.LBE978:
 354:GrannyChordApp.cpp ****   // if (paramcount%50000==0){
 4473              		.loc 3 354 33 view .LVU1226
 4474 00dc D5ED008A 		vldr.32	s17, [r5]
 4475              	.LBB981:
 4476              	.LBB980:
 749:GrannyChordApp.cpp ****         (curr_knob_val <= prev_param_val && (*stored_knob_val) >= (prev_param_val))) {
 4477              		.loc 3 749 5 is_stmt 1 view .LVU1227
 4478 00e0 F4EEC08A 		vcmpe.f32	s17, s0
 4479 00e4 F1EE10FA 		vmrs	APSR_nzcv, FPSCR
 4480 00e8 08D8     		bhi	.L176
 749:GrannyChordApp.cpp ****         (curr_knob_val <= prev_param_val && (*stored_knob_val) >= (prev_param_val))) {
 4481              		.loc 3 749 46 is_stmt 0 view .LVU1228
 4482 00ea 03F2CC51 		addw	r1, r3, #1484
 749:GrannyChordApp.cpp ****         (curr_knob_val <= prev_param_val && (*stored_knob_val) >= (prev_param_val))) {
 4483              		.loc 3 749 42 view .LVU1229
 4484 00ee 91ED007A 		vldr.32	s14, [r1]
 4485 00f2 F4EEC78A 		vcmpe.f32	s17, s14
 4486 00f6 F1EE10FA 		vmrs	APSR_nzcv, FPSCR
 4487 00fa 0DDA     		bge	.L178
 4488              	.L176:
 749:GrannyChordApp.cpp ****         (curr_knob_val <= prev_param_val && (*stored_knob_val) >= (prev_param_val))) {
 4489              		.loc 3 749 85 view .LVU1230
 4490 00fc F4EEC08A 		vcmpe.f32	s17, s0
 4491 0100 F1EE10FA 		vmrs	APSR_nzcv, FPSCR
 4492 0104 11DB     		blt	.L179
 750:GrannyChordApp.cpp ****           (*pass_thru) = true;
 4493              		.loc 3 750 46 view .LVU1231
 4494 0106 03F2CC51 		addw	r1, r3, #1484
 750:GrannyChordApp.cpp ****           (*pass_thru) = true;
 4495              		.loc 3 750 42 view .LVU1232
 4496 010a 91ED007A 		vldr.32	s14, [r1]
 4497 010e F4EEC78A 		vcmpe.f32	s17, s14
 4498 0112 F1EE10FA 		vmrs	APSR_nzcv, FPSCR
 4499 0116 08D8     		bhi	.L179
 4500              	.L178:
 751:GrannyChordApp.cpp ****     }
 4501              		.loc 3 751 11 is_stmt 1 view .LVU1233
 751:GrannyChordApp.cpp ****     }
 4502              		.loc 3 751 24 is_stmt 0 view .LVU1234
ARM GAS  /var/folders/2p/02m_5p7958535cp2tpgps0400000gn/T//ccx9FAOt.s 			page 163


 4503 0118 0121     		movs	r1, #1
 4504 011a 82F8EF15 		strb	r1, [r2, #1519]
 4505              	.L175:
 754:GrannyChordApp.cpp ****     (*stored_knob_val) = curr_knob_val;
 4506              		.loc 3 754 3 is_stmt 1 view .LVU1235
 755:GrannyChordApp.cpp ****     return curr_knob_val;
 4507              		.loc 3 755 5 view .LVU1236
 756:GrannyChordApp.cpp ****   }
 4508              		.loc 3 756 12 is_stmt 0 view .LVU1237
 4509 011e F0EE408A 		vmov.f32	s17, s0
 755:GrannyChordApp.cpp ****     return curr_knob_val;
 4510              		.loc 3 755 24 view .LVU1238
 4511 0122 03F2CC53 		addw	r3, r3, #1484
 4512 0126 83ED000A 		vstr.32	s0, [r3]
 756:GrannyChordApp.cpp ****   }
 4513              		.loc 3 756 5 is_stmt 1 view .LVU1239
 4514              	.L179:
 4515              	.LVL316:
 756:GrannyChordApp.cpp ****   }
 4516              		.loc 3 756 5 is_stmt 0 view .LVU1240
 4517              	.LBE980:
 4518              	.LBE981:
 360:GrannyChordApp.cpp ****     UpdateKnob1Params(knob1_val,curr_synth_mode_);
 4519              		.loc 3 360 3 is_stmt 1 view .LVU1241
 4520              	.LBB982:
 4521              	.LBI982:
 717:GrannyChordApp.cpp ****   return (fabsf(curr_val - prev_val)>0.01f);
 4522              		.loc 3 717 13 view .LVU1242
 4523              	.LBB983:
 718:GrannyChordApp.cpp **** }
 4524              		.loc 3 718 3 view .LVU1243
 718:GrannyChordApp.cpp **** }
 4525              		.loc 3 718 26 is_stmt 0 view .LVU1244
 4526 012a 78EE677A 		vsub.f32	s15, s16, s15
 718:GrannyChordApp.cpp **** }
 4527              		.loc 3 718 16 view .LVU1245
 4528 012e F0EEE77A 		vabs.f32	s15, s15
 4529              	.LBE983:
 4530              	.LBE982:
 360:GrannyChordApp.cpp ****     UpdateKnob1Params(knob1_val,curr_synth_mode_);
 4531              		.loc 3 360 3 view .LVU1246
 4532 0132 F4EEC97A 		vcmpe.f32	s15, s18
 4533 0136 F1EE10FA 		vmrs	APSR_nzcv, FPSCR
 4534 013a 08DD     		ble	.L182
 361:GrannyChordApp.cpp ****     prev_param_vals_k1[mode_idx] = knob1_val;
 4535              		.loc 3 361 5 is_stmt 1 view .LVU1247
 361:GrannyChordApp.cpp ****     prev_param_vals_k1[mode_idx] = knob1_val;
 4536              		.loc 3 361 22 is_stmt 0 view .LVU1248
 4537 013c B0EE480A 		vmov.f32	s0, s16
 4538 0140 D4F84014 		ldr	r1, [r4, #1088]
 4539 0144 2046     		mov	r0, r4
 4540 0146 FFF7FEFF 		bl	_ZN14GrannyChordApp17UpdateKnob1ParamsEf9SynthMode
 4541              	.LVL317:
 362:GrannyChordApp.cpp ****   }
 4542              		.loc 3 362 5 is_stmt 1 view .LVU1249
 362:GrannyChordApp.cpp ****   }
 4543              		.loc 3 362 34 is_stmt 0 view .LVU1250
ARM GAS  /var/folders/2p/02m_5p7958535cp2tpgps0400000gn/T//ccx9FAOt.s 			page 164


 4544 014a 86ED008A 		vstr.32	s16, [r6]
 4545              	.L182:
 364:GrannyChordApp.cpp ****     UpdateKnob2Params(knob2_val, curr_synth_mode_);
 4546              		.loc 3 364 3 is_stmt 1 view .LVU1251
 4547              	.LVL318:
 4548              	.LBB984:
 4549              	.LBI984:
 717:GrannyChordApp.cpp ****   return (fabsf(curr_val - prev_val)>0.01f);
 4550              		.loc 3 717 13 view .LVU1252
 4551              	.LBB985:
 718:GrannyChordApp.cpp **** }
 4552              		.loc 3 718 3 view .LVU1253
 718:GrannyChordApp.cpp **** }
 4553              		.loc 3 718 26 is_stmt 0 view .LVU1254
 4554 014e D5ED007A 		vldr.32	s15, [r5]
 4555 0152 78EEE77A 		vsub.f32	s15, s17, s15
 718:GrannyChordApp.cpp **** }
 4556              		.loc 3 718 16 view .LVU1255
 4557 0156 F0EEE77A 		vabs.f32	s15, s15
 4558              	.LBE985:
 4559              	.LBE984:
 364:GrannyChordApp.cpp ****     UpdateKnob2Params(knob2_val, curr_synth_mode_);
 4560              		.loc 3 364 3 view .LVU1256
 4561 015a F4EEC97A 		vcmpe.f32	s15, s18
 4562 015e F1EE10FA 		vmrs	APSR_nzcv, FPSCR
 4563 0162 08DD     		ble	.L184
 365:GrannyChordApp.cpp ****     prev_param_vals_k2[mode_idx] = knob2_val;
 4564              		.loc 3 365 5 is_stmt 1 view .LVU1257
 365:GrannyChordApp.cpp ****     prev_param_vals_k2[mode_idx] = knob2_val;
 4565              		.loc 3 365 22 is_stmt 0 view .LVU1258
 4566 0164 B0EE680A 		vmov.f32	s0, s17
 4567 0168 D4F84014 		ldr	r1, [r4, #1088]
 4568 016c 2046     		mov	r0, r4
 4569 016e FFF7FEFF 		bl	_ZN14GrannyChordApp17UpdateKnob2ParamsEf9SynthMode
 4570              	.LVL319:
 366:GrannyChordApp.cpp ****   }
 4571              		.loc 3 366 5 is_stmt 1 view .LVU1259
 366:GrannyChordApp.cpp ****   }
 4572              		.loc 3 366 34 is_stmt 0 view .LVU1260
 4573 0172 C5ED008A 		vstr.32	s17, [r5]
 4574              	.L184:
 368:GrannyChordApp.cpp **** }
 4575              		.loc 3 368 3 is_stmt 1 view .LVU1261
 368:GrannyChordApp.cpp **** }
 4576              		.loc 3 368 27 is_stmt 0 view .LVU1262
 4577 0176 04F12000 		add	r0, r4, #32
 4578              	.LBE959:
 4579              	.LBE958:
 369:GrannyChordApp.cpp **** 
 4580              		.loc 3 369 1 view .LVU1263
 4581 017a BDEC048B 		vldm	sp!, {d8-d9}
 4582              		.cfi_remember_state
 4583              		.cfi_restore 82
 4584              		.cfi_restore 83
 4585              		.cfi_restore 80
 4586              		.cfi_restore 81
 4587              		.cfi_def_cfa_offset 16
ARM GAS  /var/folders/2p/02m_5p7958535cp2tpgps0400000gn/T//ccx9FAOt.s 			page 165


 4588              	.LVL320:
 369:GrannyChordApp.cpp **** 
 4589              		.loc 3 369 1 view .LVU1264
 4590 017e BDE87040 		pop	{r4, r5, r6, lr}
 4591              		.cfi_restore 14
 4592              		.cfi_restore 6
 4593              		.cfi_restore 5
 4594              		.cfi_restore 4
 4595              		.cfi_def_cfa_offset 0
 4596              	.LVL321:
 4597              	.LBB987:
 4598              	.LBB986:
 368:GrannyChordApp.cpp **** }
 4599              		.loc 3 368 27 view .LVU1265
 4600 0182 FFF7FEBF 		b	_ZN13GranularSynth17UpdateGrainParamsEv
 4601              	.LVL322:
 4602              	.L162:
 4603              		.cfi_restore_state
 368:GrannyChordApp.cpp **** }
 4604              		.loc 3 368 27 view .LVU1266
 4605              	.LBE986:
 4606              	.LBE987:
 369:GrannyChordApp.cpp **** 
 4607              		.loc 3 369 1 view .LVU1267
 4608 0186 BDEC048B 		vldm	sp!, {d8-d9}
 4609              		.cfi_restore 82
 4610              		.cfi_restore 83
 4611              		.cfi_restore 80
 4612              		.cfi_restore 81
 4613              		.cfi_def_cfa_offset 16
 4614 018a 70BD     		pop	{r4, r5, r6, pc}
 4615              	.L201:
 4616              		.align	2
 4617              	.L200:
 4618 018c 0AD7233C 		.word	1008981770
 4619 0190 A4707D3F 		.word	1065185444
 4620 0194 00000000 		.word	0
 4621              		.cfi_endproc
 4622              	.LFE4919:
 4624              		.section	.rodata._ZN14GrannyChordApp15DebugPrintStateE8AppState.str1.1,"aMS",%progbits,1
 4625              	.LC13:
 4626 0000 53746174 		.ascii	"State now in: SelectFile\000"
 4626      65206E6F 
 4626      7720696E 
 4626      3A205365 
 4626      6C656374 
 4627              	.LC14:
 4628 0019 53746174 		.ascii	"State now in: RecordIn\000"
 4628      65206E6F 
 4628      7720696E 
 4628      3A205265 
 4628      636F7264 
 4629              	.LC15:
 4630 0030 53746174 		.ascii	"State now in: PlayWAV\000"
 4630      65206E6F 
 4630      7720696E 
 4630      3A20506C 
ARM GAS  /var/folders/2p/02m_5p7958535cp2tpgps0400000gn/T//ccx9FAOt.s 			page 166


 4630      61795741 
 4631              	.LC16:
 4632 0046 53746174 		.ascii	"State now in: Synthesis\000"
 4632      65206E6F 
 4632      7720696E 
 4632      3A205379 
 4632      6E746865 
 4633              	.LC17:
 4634 005e 53746174 		.ascii	"State now in: Error\000"
 4634      65206E6F 
 4634      7720696E 
 4634      3A204572 
 4634      726F7200 
 4635              		.section	.text._ZN14GrannyChordApp15DebugPrintStateE8AppState,"ax",%progbits
 4636              		.align	1
 4637              		.global	_ZN14GrannyChordApp15DebugPrintStateE8AppState
 4638              		.syntax unified
 4639              		.thumb
 4640              		.thumb_func
 4642              	_ZN14GrannyChordApp15DebugPrintStateE8AppState:
 4643              	.LVL323:
 4644              	.LFB4944:
 759:GrannyChordApp.cpp **** }
 760:GrannyChordApp.cpp **** 
 761:GrannyChordApp.cpp **** 
 762:GrannyChordApp.cpp **** 
 763:GrannyChordApp.cpp **** 
 764:GrannyChordApp.cpp **** void GrannyChordApp::DebugPrintState(AppState state){
 4645              		.loc 3 764 53 is_stmt 1 view -0
 4646              		.cfi_startproc
 4647              		@ args = 0, pretend = 0, frame = 0
 4648              		@ frame_needed = 0, uses_anonymous_args = 0
 4649              		@ link register save eliminated.
 765:GrannyChordApp.cpp ****   switch(state){
 4650              		.loc 3 765 3 view .LVU1269
 4651 0000 0329     		cmp	r1, #3
 4652 0002 0CD8     		bhi	.L203
 4653 0004 DFE801F0 		tbb	[pc, r1]
 4654              	.L205:
 4655 0008 02       		.byte	(.L208-.L205)/2
 4656 0009 07       		.byte	(.L207-.L205)/2
 4657 000a 09       		.byte	(.L206-.L205)/2
 4658 000b 05       		.byte	(.L204-.L205)/2
 4659              		.p2align 1
 4660              	.L208:
 766:GrannyChordApp.cpp ****     case AppState::SelectFile:
 4661              		.loc 3 766 5 view .LVU1270
 767:GrannyChordApp.cpp ****       DebugPrint(pod_, "State now in: SelectFile");
 4662              		.loc 3 767 7 view .LVU1271
 4663              		.loc 3 767 7 view .LVU1272
 4664              	.LVL324:
 4665              	.LBB988:
 4666              	.LBI988:
 126:../libDaisy/src/daisy_seed.h ****     {
 4667              		.loc 5 126 17 view .LVU1273
 4668              	.LBB989:
 4669              		.loc 5 128 23 is_stmt 0 view .LVU1274
ARM GAS  /var/folders/2p/02m_5p7958535cp2tpgps0400000gn/T//ccx9FAOt.s 			page 167


 4670 000c 0548     		ldr	r0, .L210
 4671              	.LVL325:
 4672              	.L209:
 4673              		.loc 5 128 23 view .LVU1275
 4674              	.LBE989:
 4675              	.LBE988:
 4676              	.LBB990:
 4677              	.LBB991:
 4678 000e FFF7FEBF 		b	_ZN5daisy6LoggerILNS_17LoggerDestinationE1EE9PrintLineEPKcz
 4679              	.LVL326:
 4680              	.L204:
 4681              		.loc 5 128 23 view .LVU1276
 4682              	.LBE991:
 4683              	.LBE990:
 768:GrannyChordApp.cpp ****       return;
 769:GrannyChordApp.cpp ****     case AppState::RecordIn:
 4684              		.loc 3 769 5 is_stmt 1 view .LVU1277
 770:GrannyChordApp.cpp ****       DebugPrint(pod_, "State now in: RecordIn");
 4685              		.loc 3 770 7 view .LVU1278
 4686              		.loc 3 770 7 view .LVU1279
 4687              	.LBB993:
 4688              	.LBI993:
 126:../libDaisy/src/daisy_seed.h ****     {
 4689              		.loc 5 126 17 view .LVU1280
 4690              	.LBB994:
 4691              		.loc 5 128 23 is_stmt 0 view .LVU1281
 4692 0012 0548     		ldr	r0, .L210+4
 4693              	.LVL327:
 4694              		.loc 5 128 23 view .LVU1282
 4695 0014 FBE7     		b	.L209
 4696              	.LVL328:
 4697              	.L207:
 4698              		.loc 5 128 23 view .LVU1283
 4699              	.LBE994:
 4700              	.LBE993:
 771:GrannyChordApp.cpp ****       return;
 772:GrannyChordApp.cpp ****     case AppState::PlayWAV:
 4701              		.loc 3 772 5 is_stmt 1 view .LVU1284
 773:GrannyChordApp.cpp ****       DebugPrint(pod_, "State now in: PlayWAV");
 4702              		.loc 3 773 7 view .LVU1285
 4703              		.loc 3 773 7 view .LVU1286
 4704              	.LBB995:
 4705              	.LBI995:
 126:../libDaisy/src/daisy_seed.h ****     {
 4706              		.loc 5 126 17 view .LVU1287
 4707              	.LBB996:
 4708              		.loc 5 128 23 is_stmt 0 view .LVU1288
 4709 0016 0548     		ldr	r0, .L210+8
 4710              	.LVL329:
 4711              		.loc 5 128 23 view .LVU1289
 4712 0018 F9E7     		b	.L209
 4713              	.LVL330:
 4714              	.L206:
 4715              		.loc 5 128 23 view .LVU1290
 4716              	.LBE996:
 4717              	.LBE995:
 774:GrannyChordApp.cpp ****       return;
ARM GAS  /var/folders/2p/02m_5p7958535cp2tpgps0400000gn/T//ccx9FAOt.s 			page 168


 775:GrannyChordApp.cpp ****     case AppState::Synthesis:
 4718              		.loc 3 775 5 is_stmt 1 view .LVU1291
 776:GrannyChordApp.cpp ****       DebugPrint(pod_, "State now in: Synthesis");
 4719              		.loc 3 776 7 view .LVU1292
 4720              		.loc 3 776 7 view .LVU1293
 4721              	.LBB997:
 4722              	.LBI997:
 126:../libDaisy/src/daisy_seed.h ****     {
 4723              		.loc 5 126 17 view .LVU1294
 4724              	.LBB998:
 4725              		.loc 5 128 23 is_stmt 0 view .LVU1295
 4726 001a 0548     		ldr	r0, .L210+12
 4727              	.LVL331:
 4728              		.loc 5 128 23 view .LVU1296
 4729 001c F7E7     		b	.L209
 4730              	.LVL332:
 4731              	.L203:
 4732              		.loc 5 128 23 view .LVU1297
 4733              	.LBE998:
 4734              	.LBE997:
 777:GrannyChordApp.cpp ****       return;
 778:GrannyChordApp.cpp ****     // case AppState::ChordMode:
 779:GrannyChordApp.cpp ****       DebugPrint(pod_, "State now in: ChordMode");
 780:GrannyChordApp.cpp ****     case AppState::Error:
 4735              		.loc 3 780 5 is_stmt 1 view .LVU1298
 781:GrannyChordApp.cpp ****     default:
 4736              		.loc 3 781 5 view .LVU1299
 782:GrannyChordApp.cpp ****       DebugPrint(pod_, "State now in: Error");
 4737              		.loc 3 782 7 view .LVU1300
 4738              		.loc 3 782 7 view .LVU1301
 4739              	.LBB999:
 4740              	.LBI990:
 126:../libDaisy/src/daisy_seed.h ****     {
 4741              		.loc 5 126 17 view .LVU1302
 4742              	.LBB992:
 4743              		.loc 5 128 23 is_stmt 0 view .LVU1303
 4744 001e 0548     		ldr	r0, .L210+16
 4745              	.LVL333:
 4746              		.loc 5 128 23 view .LVU1304
 4747 0020 F5E7     		b	.L209
 4748              	.L211:
 4749 0022 00BF     		.align	2
 4750              	.L210:
 4751 0024 00000000 		.word	.LC13
 4752 0028 19000000 		.word	.LC14
 4753 002c 30000000 		.word	.LC15
 4754 0030 46000000 		.word	.LC16
 4755 0034 5E000000 		.word	.LC17
 4756              	.LBE992:
 4757              	.LBE999:
 4758              		.cfi_endproc
 4759              	.LFE4944:
 4761              		.section	.rodata._ZN14GrannyChordApp14DebugPrintModeE9SynthMode.str1.1,"aMS",%progbits,1
 4762              	.LC18:
 4763 0000 53746174 		.ascii	"State now in: SizePos\000"
 4763      65206E6F 
 4763      7720696E 
ARM GAS  /var/folders/2p/02m_5p7958535cp2tpgps0400000gn/T//ccx9FAOt.s 			page 169


 4763      3A205369 
 4763      7A65506F 
 4764              	.LC19:
 4765 0016 53746174 		.ascii	"State now in: SizePosRnd\000"
 4765      65206E6F 
 4765      7720696E 
 4765      3A205369 
 4765      7A65506F 
 4766              	.LC20:
 4767 002f 53746174 		.ascii	"State now in: PitchGrains\000"
 4767      65206E6F 
 4767      7720696E 
 4767      3A205069 
 4767      74636847 
 4768              	.LC21:
 4769 0049 53746174 		.ascii	"State now in: PitchGrainsRnd\000"
 4769      65206E6F 
 4769      7720696E 
 4769      3A205069 
 4769      74636847 
 4770              	.LC22:
 4771 0066 53746174 		.ascii	"State now in: PanPanRnd\000"
 4771      65206E6F 
 4771      7720696E 
 4771      3A205061 
 4771      6E50616E 
 4772              	.LC23:
 4773 007e 53746174 		.ascii	"State now in: PhasorEnv\000"
 4773      65206E6F 
 4773      7720696E 
 4773      3A205068 
 4773      61736F72 
 4774              	.LC24:
 4775 0096 53746174 		.ascii	"State now in: PhasorEnvRnd\000"
 4775      65206E6F 
 4775      7720696E 
 4775      3A205068 
 4775      61736F72 
 4776              	.LC25:
 4777 00b1 53746174 		.ascii	"State now in: Reverb\000"
 4777      65206E6F 
 4777      7720696E 
 4777      3A205265 
 4777      76657262 
 4778              	.LC26:
 4779 00c6 53746174 		.ascii	"State now in: Filter\000"
 4779      65206E6F 
 4779      7720696E 
 4779      3A204669 
 4779      6C746572 
 4780              		.section	.text._ZN14GrannyChordApp14DebugPrintModeE9SynthMode,"ax",%progbits
 4781              		.align	1
 4782              		.global	_ZN14GrannyChordApp14DebugPrintModeE9SynthMode
 4783              		.syntax unified
 4784              		.thumb
 4785              		.thumb_func
 4787              	_ZN14GrannyChordApp14DebugPrintModeE9SynthMode:
ARM GAS  /var/folders/2p/02m_5p7958535cp2tpgps0400000gn/T//ccx9FAOt.s 			page 170


 4788              	.LVL334:
 4789              	.LFB4945:
 783:GrannyChordApp.cpp ****       return;
 784:GrannyChordApp.cpp ****   }
 785:GrannyChordApp.cpp **** };
 786:GrannyChordApp.cpp **** 
 787:GrannyChordApp.cpp **** void GrannyChordApp::DebugPrintMode(SynthMode mode){
 4790              		.loc 3 787 52 is_stmt 1 view -0
 4791              		.cfi_startproc
 4792              		@ args = 0, pretend = 0, frame = 0
 4793              		@ frame_needed = 0, uses_anonymous_args = 0
 4794              		@ link register save eliminated.
 788:GrannyChordApp.cpp ****   switch(mode){
 4795              		.loc 3 788 3 view .LVU1306
 4796 0000 0829     		cmp	r1, #8
 4797 0002 19D8     		bhi	.L212
 4798 0004 DFE801F0 		tbb	[pc, r1]
 4799              	.L215:
 4800 0008 05       		.byte	(.L223-.L215)/2
 4801 0009 08       		.byte	(.L222-.L215)/2
 4802 000a 0A       		.byte	(.L221-.L215)/2
 4803 000b 0C       		.byte	(.L220-.L215)/2
 4804 000c 10       		.byte	(.L219-.L215)/2
 4805 000d 12       		.byte	(.L218-.L215)/2
 4806 000e 0E       		.byte	(.L217-.L215)/2
 4807 000f 14       		.byte	(.L216-.L215)/2
 4808 0010 16       		.byte	(.L214-.L215)/2
 4809 0011 00       		.p2align 1
 4810              	.L223:
 789:GrannyChordApp.cpp ****     case SynthMode::Size_Position:
 4811              		.loc 3 789 5 view .LVU1307
 790:GrannyChordApp.cpp ****       DebugPrint(pod_, "State now in: SizePos");
 4812              		.loc 3 790 7 view .LVU1308
 4813              		.loc 3 790 7 view .LVU1309
 4814              	.LVL335:
 4815              	.LBB1000:
 4816              	.LBI1000:
 126:../libDaisy/src/daisy_seed.h ****     {
 4817              		.loc 5 126 17 view .LVU1310
 4818              	.LBB1001:
 4819              		.loc 5 128 23 is_stmt 0 view .LVU1311
 4820 0012 0A48     		ldr	r0, .L225
 4821              	.LVL336:
 4822              	.L224:
 4823              		.loc 5 128 23 view .LVU1312
 4824              	.LBE1001:
 4825              	.LBE1000:
 4826              	.LBB1002:
 4827              	.LBB1003:
 4828 0014 FFF7FEBF 		b	_ZN5daisy6LoggerILNS_17LoggerDestinationE1EE9PrintLineEPKcz
 4829              	.LVL337:
 4830              	.L222:
 4831              		.loc 5 128 23 view .LVU1313
 4832              	.LBE1003:
 4833              	.LBE1002:
 791:GrannyChordApp.cpp ****       return;
 792:GrannyChordApp.cpp ****     case SynthMode::Size_Position_Rnd:
ARM GAS  /var/folders/2p/02m_5p7958535cp2tpgps0400000gn/T//ccx9FAOt.s 			page 171


 4834              		.loc 3 792 5 is_stmt 1 view .LVU1314
 793:GrannyChordApp.cpp ****       DebugPrint(pod_, "State now in: SizePosRnd");
 4835              		.loc 3 793 7 view .LVU1315
 4836              		.loc 3 793 7 view .LVU1316
 4837              	.LBB1005:
 4838              	.LBI1005:
 126:../libDaisy/src/daisy_seed.h ****     {
 4839              		.loc 5 126 17 view .LVU1317
 4840              	.LBB1006:
 4841              		.loc 5 128 23 is_stmt 0 view .LVU1318
 4842 0018 0948     		ldr	r0, .L225+4
 4843              	.LVL338:
 4844              		.loc 5 128 23 view .LVU1319
 4845 001a FBE7     		b	.L224
 4846              	.LVL339:
 4847              	.L221:
 4848              		.loc 5 128 23 view .LVU1320
 4849              	.LBE1006:
 4850              	.LBE1005:
 794:GrannyChordApp.cpp ****       return;
 795:GrannyChordApp.cpp ****     case SynthMode::Pitch_ActiveGrains:
 4851              		.loc 3 795 5 is_stmt 1 view .LVU1321
 796:GrannyChordApp.cpp ****       DebugPrint(pod_, "State now in: PitchGrains");
 4852              		.loc 3 796 7 view .LVU1322
 4853              		.loc 3 796 7 view .LVU1323
 4854              	.LBB1007:
 4855              	.LBI1007:
 126:../libDaisy/src/daisy_seed.h ****     {
 4856              		.loc 5 126 17 view .LVU1324
 4857              	.LBB1008:
 4858              		.loc 5 128 23 is_stmt 0 view .LVU1325
 4859 001c 0948     		ldr	r0, .L225+8
 4860              	.LVL340:
 4861              		.loc 5 128 23 view .LVU1326
 4862 001e F9E7     		b	.L224
 4863              	.LVL341:
 4864              	.L220:
 4865              		.loc 5 128 23 view .LVU1327
 4866              	.LBE1008:
 4867              	.LBE1007:
 797:GrannyChordApp.cpp ****       return;
 798:GrannyChordApp.cpp ****     case SynthMode::Pitch_ActiveGrains_Rnd:
 4868              		.loc 3 798 5 is_stmt 1 view .LVU1328
 799:GrannyChordApp.cpp ****       DebugPrint(pod_, "State now in: PitchGrainsRnd");
 4869              		.loc 3 799 7 view .LVU1329
 4870              		.loc 3 799 7 view .LVU1330
 4871              	.LBB1009:
 4872              	.LBI1009:
 126:../libDaisy/src/daisy_seed.h ****     {
 4873              		.loc 5 126 17 view .LVU1331
 4874              	.LBB1010:
 4875              		.loc 5 128 23 is_stmt 0 view .LVU1332
 4876 0020 0948     		ldr	r0, .L225+12
 4877              	.LVL342:
 4878              		.loc 5 128 23 view .LVU1333
 4879 0022 F7E7     		b	.L224
 4880              	.LVL343:
ARM GAS  /var/folders/2p/02m_5p7958535cp2tpgps0400000gn/T//ccx9FAOt.s 			page 172


 4881              	.L217:
 4882              		.loc 5 128 23 view .LVU1334
 4883              	.LBE1010:
 4884              	.LBE1009:
 800:GrannyChordApp.cpp ****       return;
 801:GrannyChordApp.cpp ****     case SynthMode::Pan_PanRnd:
 4885              		.loc 3 801 5 is_stmt 1 view .LVU1335
 802:GrannyChordApp.cpp ****       DebugPrint(pod_, "State now in: PanPanRnd");
 4886              		.loc 3 802 7 view .LVU1336
 4887              		.loc 3 802 7 view .LVU1337
 4888              	.LBB1011:
 4889              	.LBI1011:
 126:../libDaisy/src/daisy_seed.h ****     {
 4890              		.loc 5 126 17 view .LVU1338
 4891              	.LBB1012:
 4892              		.loc 5 128 23 is_stmt 0 view .LVU1339
 4893 0024 0948     		ldr	r0, .L225+16
 4894              	.LVL344:
 4895              		.loc 5 128 23 view .LVU1340
 4896 0026 F5E7     		b	.L224
 4897              	.LVL345:
 4898              	.L219:
 4899              		.loc 5 128 23 view .LVU1341
 4900              	.LBE1012:
 4901              	.LBE1011:
 803:GrannyChordApp.cpp ****       return;
 804:GrannyChordApp.cpp ****     case SynthMode::PhasorMode_EnvType:
 4902              		.loc 3 804 5 is_stmt 1 view .LVU1342
 805:GrannyChordApp.cpp ****       DebugPrint(pod_, "State now in: PhasorEnv");
 4903              		.loc 3 805 7 view .LVU1343
 4904              		.loc 3 805 7 view .LVU1344
 4905              	.LBB1013:
 4906              	.LBI1013:
 126:../libDaisy/src/daisy_seed.h ****     {
 4907              		.loc 5 126 17 view .LVU1345
 4908              	.LBB1014:
 4909              		.loc 5 128 23 is_stmt 0 view .LVU1346
 4910 0028 0948     		ldr	r0, .L225+20
 4911              	.LVL346:
 4912              		.loc 5 128 23 view .LVU1347
 4913 002a F3E7     		b	.L224
 4914              	.LVL347:
 4915              	.L218:
 4916              		.loc 5 128 23 view .LVU1348
 4917              	.LBE1014:
 4918              	.LBE1013:
 806:GrannyChordApp.cpp ****       return;
 807:GrannyChordApp.cpp ****     case SynthMode::PhasorMode_EnvType_Rnd:
 4919              		.loc 3 807 5 is_stmt 1 view .LVU1349
 808:GrannyChordApp.cpp ****       DebugPrint(pod_, "State now in: PhasorEnvRnd");
 4920              		.loc 3 808 7 view .LVU1350
 4921              		.loc 3 808 7 view .LVU1351
 4922              	.LBB1015:
 4923              	.LBI1015:
 126:../libDaisy/src/daisy_seed.h ****     {
 4924              		.loc 5 126 17 view .LVU1352
 4925              	.LBB1016:
ARM GAS  /var/folders/2p/02m_5p7958535cp2tpgps0400000gn/T//ccx9FAOt.s 			page 173


 4926              		.loc 5 128 23 is_stmt 0 view .LVU1353
 4927 002c 0948     		ldr	r0, .L225+24
 4928              	.LVL348:
 4929              		.loc 5 128 23 view .LVU1354
 4930 002e F1E7     		b	.L224
 4931              	.LVL349:
 4932              	.L216:
 4933              		.loc 5 128 23 view .LVU1355
 4934              	.LBE1016:
 4935              	.LBE1015:
 809:GrannyChordApp.cpp ****       return;
 810:GrannyChordApp.cpp ****     case SynthMode::Reverb:
 4936              		.loc 3 810 5 is_stmt 1 view .LVU1356
 811:GrannyChordApp.cpp ****       DebugPrint(pod_, "State now in: Reverb");
 4937              		.loc 3 811 7 view .LVU1357
 4938              		.loc 3 811 7 view .LVU1358
 4939              	.LBB1017:
 4940              	.LBI1017:
 126:../libDaisy/src/daisy_seed.h ****     {
 4941              		.loc 5 126 17 view .LVU1359
 4942              	.LBB1018:
 4943              		.loc 5 128 23 is_stmt 0 view .LVU1360
 4944 0030 0948     		ldr	r0, .L225+28
 4945              	.LVL350:
 4946              		.loc 5 128 23 view .LVU1361
 4947 0032 EFE7     		b	.L224
 4948              	.LVL351:
 4949              	.L214:
 4950              		.loc 5 128 23 view .LVU1362
 4951              	.LBE1018:
 4952              	.LBE1017:
 812:GrannyChordApp.cpp ****       return;
 813:GrannyChordApp.cpp ****     case SynthMode::Filter:
 4953              		.loc 3 813 5 is_stmt 1 view .LVU1363
 814:GrannyChordApp.cpp ****       DebugPrint(pod_, "State now in: Filter");
 4954              		.loc 3 814 7 view .LVU1364
 4955              		.loc 3 814 7 view .LVU1365
 4956              	.LBB1019:
 4957              	.LBI1002:
 126:../libDaisy/src/daisy_seed.h ****     {
 4958              		.loc 5 126 17 view .LVU1366
 4959              	.LBB1004:
 4960              		.loc 5 128 23 is_stmt 0 view .LVU1367
 4961 0034 0948     		ldr	r0, .L225+32
 4962              	.LVL352:
 4963              		.loc 5 128 23 view .LVU1368
 4964 0036 EDE7     		b	.L224
 4965              	.LVL353:
 4966              	.L212:
 4967              		.loc 5 128 23 view .LVU1369
 4968              	.LBE1004:
 4969              	.LBE1019:
 815:GrannyChordApp.cpp ****       return;
 816:GrannyChordApp.cpp ****   }
 817:GrannyChordApp.cpp **** };
 4970              		.loc 3 817 1 view .LVU1370
 4971 0038 7047     		bx	lr
ARM GAS  /var/folders/2p/02m_5p7958535cp2tpgps0400000gn/T//ccx9FAOt.s 			page 174


 4972              	.L226:
 4973 003a 00BF     		.align	2
 4974              	.L225:
 4975 003c 00000000 		.word	.LC18
 4976 0040 16000000 		.word	.LC19
 4977 0044 2F000000 		.word	.LC20
 4978 0048 49000000 		.word	.LC21
 4979 004c 66000000 		.word	.LC22
 4980 0050 7E000000 		.word	.LC23
 4981 0054 96000000 		.word	.LC24
 4982 0058 B1000000 		.word	.LC25
 4983 005c C6000000 		.word	.LC26
 4984              		.cfi_endproc
 4985              	.LFE4945:
 4987              		.section	.text._ZN14GrannyChordApp10SetupTimerEv,"ax",%progbits
 4988              		.align	1
 4989              		.global	_ZN14GrannyChordApp10SetupTimerEv
 4990              		.syntax unified
 4991              		.thumb
 4992              		.thumb_func
 4994              	_ZN14GrannyChordApp10SetupTimerEv:
 4995              	.LVL354:
 4996              	.LFB4946:
 818:GrannyChordApp.cpp **** 
 819:GrannyChordApp.cpp **** /// @brief sets up hardware timer peripheral, used for
 820:GrannyChordApp.cpp **** ///        timing led flashes on state/mode changes
 821:GrannyChordApp.cpp **** ///        (internal system delay is blocking so not used)
 822:GrannyChordApp.cpp **** void GrannyChordApp::SetupTimer(){
 4997              		.loc 3 822 34 is_stmt 1 view -0
 4998              		.cfi_startproc
 4999              		@ args = 0, pretend = 0, frame = 16
 5000              		@ frame_needed = 0, uses_anonymous_args = 0
 823:GrannyChordApp.cpp ****   TimerHandle::Config cfg;
 5001              		.loc 3 823 3 view .LVU1372
 822:GrannyChordApp.cpp ****   TimerHandle::Config cfg;
 5002              		.loc 3 822 34 is_stmt 0 view .LVU1373
 5003 0000 30B5     		push	{r4, r5, lr}
 5004              		.cfi_def_cfa_offset 12
 5005              		.cfi_offset 4, -12
 5006              		.cfi_offset 5, -8
 5007              		.cfi_offset 14, -4
 824:GrannyChordApp.cpp ****   cfg.periph = TimerHandle::Config::Peripheral::TIM_5;
 5008              		.loc 3 824 14 view .LVU1374
 5009 0002 0323     		movs	r3, #3
 822:GrannyChordApp.cpp ****   TimerHandle::Config cfg;
 5010              		.loc 3 822 34 view .LVU1375
 5011 0004 85B0     		sub	sp, sp, #20
 5012              		.cfi_def_cfa_offset 32
 5013              	.LVL355:
 5014              	.LBB1020:
 5015              	.LBI1020:
 5016              		.file 18 "../libDaisy/src/per/tim.h"
   1:../libDaisy/src/per/tim.h **** #pragma once
   2:../libDaisy/src/per/tim.h **** #ifndef DSY_TIM_H
   3:../libDaisy/src/per/tim.h **** #define DSY_TIM_H
   4:../libDaisy/src/per/tim.h **** 
   5:../libDaisy/src/per/tim.h **** #include <cstdint>
ARM GAS  /var/folders/2p/02m_5p7958535cp2tpgps0400000gn/T//ccx9FAOt.s 			page 175


   6:../libDaisy/src/per/tim.h **** 
   7:../libDaisy/src/per/tim.h **** namespace daisy
   8:../libDaisy/src/per/tim.h **** {
   9:../libDaisy/src/per/tim.h **** /** @brief Hardare timer peripheral support.
  10:../libDaisy/src/per/tim.h ****  ** 
  11:../libDaisy/src/per/tim.h ****  ** Supports general-function TIM peripherals:
  12:../libDaisy/src/per/tim.h ****  ** - TIM2, TIM3, TIM4, TIM5
  13:../libDaisy/src/per/tim.h ****  **
  14:../libDaisy/src/per/tim.h ****  ** DaisySeed, and many internal peripherals utilize TIM2 for timing/delay purposes.
  15:../libDaisy/src/per/tim.h ****  ** It is configured to be at the maximum frequency: typically 200MHz or 240MHz (boost) 
  16:../libDaisy/src/per/tim.h ****  ** for measuring/delaying for very short periods. 
  17:../libDaisy/src/per/tim.h ****  **
  18:../libDaisy/src/per/tim.h ****  ** The GetUs/GetMs functions are available for convenience (and backwards compatibility),
  19:../libDaisy/src/per/tim.h ****  ** but to avoid wrapping errors on math when doing time-delta calculations, using ticks is 
  20:../libDaisy/src/per/tim.h ****  ** recommended. The data can be converted to the final time-base after getting the difference in t
  21:../libDaisy/src/per/tim.h ****  ** (Using GetFreq() can be used for these time-base calculations).
  22:../libDaisy/src/per/tim.h ****  **
  23:../libDaisy/src/per/tim.h ****  ** User callbacks can be set, and changed at any point during operation. However,
  24:../libDaisy/src/per/tim.h ****  ** the Config::enable_irq must be set to true when initializing for the interrupts
  25:../libDaisy/src/per/tim.h ****  ** to turn on and function.
  26:../libDaisy/src/per/tim.h ****  **
  27:../libDaisy/src/per/tim.h ****  ** @todo Fix issues with realtime getters, and wrapping of the timer(s).
  28:../libDaisy/src/per/tim.h ****  **     - This very noticeable with default settings for the 16-bit counters.
  29:../libDaisy/src/per/tim.h ****  ** @todo Other General purpose timers
  30:../libDaisy/src/per/tim.h ****  ** @todo Non-internal clock sources
  31:../libDaisy/src/per/tim.h ****  ** @todo Use of the four-tim channels per tim
  32:../libDaisy/src/per/tim.h ****  **     - PWM, etc.
  33:../libDaisy/src/per/tim.h ****  **     - InputCapture/OutputCompare, etc.
  34:../libDaisy/src/per/tim.h ****  ** @todo HRTIM
  35:../libDaisy/src/per/tim.h ****  ** @todo Advanced timers (TIM1/TIM8)
  36:../libDaisy/src/per/tim.h ****  ** */
  37:../libDaisy/src/per/tim.h **** class TimerHandle
  38:../libDaisy/src/per/tim.h **** {
  39:../libDaisy/src/per/tim.h ****   public:
  40:../libDaisy/src/per/tim.h ****     /** @brief Configuration struct for the Peripheral
  41:../libDaisy/src/per/tim.h ****      *  @note These settings are used during initialization
  42:../libDaisy/src/per/tim.h ****      *   and changing them afterwards may not have the desired effect.
  43:../libDaisy/src/per/tim.h ****      */
  44:../libDaisy/src/per/tim.h ****     struct Config
  45:../libDaisy/src/per/tim.h ****     {
  46:../libDaisy/src/per/tim.h ****         /** @brief Hardware Timer to configure, and use. */
  47:../libDaisy/src/per/tim.h ****         enum class Peripheral
  48:../libDaisy/src/per/tim.h ****         {
  49:../libDaisy/src/per/tim.h ****             TIM_2 = 0, /**< 32-bit counter */
  50:../libDaisy/src/per/tim.h ****             TIM_3,     /**< 16-bit counter */
  51:../libDaisy/src/per/tim.h ****             TIM_4,     /**< 16-bit counter */
  52:../libDaisy/src/per/tim.h ****             TIM_5,     /**< 32-bit counter*/
  53:../libDaisy/src/per/tim.h ****         };
  54:../libDaisy/src/per/tim.h **** 
  55:../libDaisy/src/per/tim.h ****         /** @brief Direction of the auto-reload counter. 
  56:../libDaisy/src/per/tim.h ****          ** @todo Add support for the various  
  57:../libDaisy/src/per/tim.h ****          ** versions of Up/Down counters.
  58:../libDaisy/src/per/tim.h ****          ** */
  59:../libDaisy/src/per/tim.h ****         enum class CounterDir
  60:../libDaisy/src/per/tim.h ****         {
  61:../libDaisy/src/per/tim.h ****             UP = 0,
  62:../libDaisy/src/per/tim.h ****             DOWN,
ARM GAS  /var/folders/2p/02m_5p7958535cp2tpgps0400000gn/T//ccx9FAOt.s 			page 176


  63:../libDaisy/src/per/tim.h ****         };
  64:../libDaisy/src/per/tim.h **** 
  65:../libDaisy/src/per/tim.h ****         Peripheral periph; /**< Hardware Peripheral */
  66:../libDaisy/src/per/tim.h ****         CounterDir dir;    /**< Counter direction */
  67:../libDaisy/src/per/tim.h **** 
  68:../libDaisy/src/per/tim.h ****         /** @brief period in ticks at TIM frequency that counter will reset based on dir
  69:../libDaisy/src/per/tim.h ****          *  @note TIM3 and TIM4 are both 16-bit timers. So the period maximum is 0xffff.
  70:../libDaisy/src/per/tim.h ****         */
  71:../libDaisy/src/per/tim.h ****         uint32_t period;
  72:../libDaisy/src/per/tim.h ****         bool     enable_irq; /**< Enable interrupt for user based callback */
  73:../libDaisy/src/per/tim.h **** 
  74:../libDaisy/src/per/tim.h ****         /* @brief Constructor for default states */
  75:../libDaisy/src/per/tim.h ****         Config()
 5017              		.loc 18 75 9 is_stmt 1 view .LVU1376
 5018              	.LBE1020:
 5019              		.loc 3 824 14 is_stmt 0 view .LVU1377
 5020 0006 0025     		movs	r5, #0
 825:GrannyChordApp.cpp ****   cfg.period = 2000;
 826:GrannyChordApp.cpp ****   cfg.enable_irq = true;
 827:GrannyChordApp.cpp ****   timer_.Init(cfg);
 5021              		.loc 3 827 14 view .LVU1378
 5022 0008 00F50844 		add	r4, r0, #34816
 5023 000c 6946     		mov	r1, sp
 5024 000e 9034     		adds	r4, r4, #144
 824:GrannyChordApp.cpp ****   cfg.period = 2000;
 5025              		.loc 3 824 14 view .LVU1379
 5026 0010 CDE90035 		strd	r3, r5, [sp]
 825:GrannyChordApp.cpp ****   cfg.period = 2000;
 5027              		.loc 3 825 3 is_stmt 1 view .LVU1380
 825:GrannyChordApp.cpp ****   cfg.period = 2000;
 5028              		.loc 3 825 14 is_stmt 0 view .LVU1381
 5029 0014 4FF4FA63 		mov	r3, #2000
 5030              		.loc 3 827 14 view .LVU1382
 5031 0018 2046     		mov	r0, r4
 5032              	.LVL356:
 825:GrannyChordApp.cpp ****   cfg.period = 2000;
 5033              		.loc 3 825 14 view .LVU1383
 5034 001a 0293     		str	r3, [sp, #8]
 826:GrannyChordApp.cpp ****   timer_.Init(cfg);
 5035              		.loc 3 826 3 is_stmt 1 view .LVU1384
 826:GrannyChordApp.cpp ****   timer_.Init(cfg);
 5036              		.loc 3 826 18 is_stmt 0 view .LVU1385
 5037 001c 0123     		movs	r3, #1
 5038 001e 8DF80C30 		strb	r3, [sp, #12]
 5039              		.loc 3 827 3 is_stmt 1 view .LVU1386
 5040              		.loc 3 827 14 is_stmt 0 view .LVU1387
 5041 0022 FFF7FEFF 		bl	_ZN5daisy11TimerHandle4InitERKNS0_6ConfigE
 5042              	.LVL357:
 828:GrannyChordApp.cpp ****   timer_.SetPrescaler(9999);
 5043              		.loc 3 828 3 is_stmt 1 view .LVU1388
 5044              		.loc 3 828 22 is_stmt 0 view .LVU1389
 5045 0026 42F20F71 		movw	r1, #9999
 5046 002a 2046     		mov	r0, r4
 5047 002c FFF7FEFF 		bl	_ZN5daisy11TimerHandle12SetPrescalerEm
 5048              	.LVL358:
 829:GrannyChordApp.cpp ****   timer_.SetCallback(StaticLedCallback, nullptr);
 5049              		.loc 3 829 3 is_stmt 1 view .LVU1390
ARM GAS  /var/folders/2p/02m_5p7958535cp2tpgps0400000gn/T//ccx9FAOt.s 			page 177


 5050              		.loc 3 829 21 is_stmt 0 view .LVU1391
 5051 0030 2A46     		mov	r2, r5
 5052 0032 0349     		ldr	r1, .L228
 5053 0034 2046     		mov	r0, r4
 5054 0036 FFF7FEFF 		bl	_ZN5daisy11TimerHandle11SetCallbackEPFvPvES1_
 5055              	.LVL359:
 830:GrannyChordApp.cpp **** }
 5056              		.loc 3 830 1 view .LVU1392
 5057 003a 05B0     		add	sp, sp, #20
 5058              		.cfi_def_cfa_offset 12
 5059              	.LVL360:
 5060              		.loc 3 830 1 view .LVU1393
 5061              		@ sp needed
 5062 003c 30BD     		pop	{r4, r5, pc}
 5063              	.LVL361:
 5064              	.L229:
 5065              		.loc 3 830 1 view .LVU1394
 5066 003e 00BF     		.align	2
 5067              	.L228:
 5068 0040 00000000 		.word	_ZN14GrannyChordApp17StaticLedCallbackEPv
 5069              		.cfi_endproc
 5070              	.LFE4946:
 5072              		.section	.text._ZN14GrannyChordApp11LedCallbackEPv,"ax",%progbits
 5073              		.align	1
 5074              		.global	_ZN14GrannyChordApp11LedCallbackEPv
 5075              		.syntax unified
 5076              		.thumb
 5077              		.thumb_func
 5079              	_ZN14GrannyChordApp11LedCallbackEPv:
 5080              	.LVL362:
 5081              	.LFB4947:
 831:GrannyChordApp.cpp **** 
 832:GrannyChordApp.cpp **** /// @brief callback function called every timer period 
 833:GrannyChordApp.cpp **** void GrannyChordApp::LedCallback(void* data){
 5082              		.loc 3 833 45 is_stmt 1 view -0
 5083              		.cfi_startproc
 5084              		@ args = 0, pretend = 0, frame = 0
 5085              		@ frame_needed = 0, uses_anonymous_args = 0
 834:GrannyChordApp.cpp ****   if (led1_flash_count_ < 6) {
 5086              		.loc 3 834 3 view .LVU1396
 833:GrannyChordApp.cpp ****   if (led1_flash_count_ < 6) {
 5087              		.loc 3 833 45 is_stmt 0 view .LVU1397
 5088 0000 38B5     		push	{r3, r4, r5, lr}
 5089              		.cfi_def_cfa_offset 16
 5090              		.cfi_offset 3, -16
 5091              		.cfi_offset 4, -12
 5092              		.cfi_offset 5, -8
 5093              		.cfi_offset 14, -4
 5094              		.loc 3 834 7 view .LVU1398
 5095 0002 00F50044 		add	r4, r0, #32768
 833:GrannyChordApp.cpp ****   if (led1_flash_count_ < 6) {
 5096              		.loc 3 833 45 view .LVU1399
 5097 0006 0546     		mov	r5, r0
 835:GrannyChordApp.cpp ****       /* flash on/off for the first 6 callbacks (3 cycles) */
 836:GrannyChordApp.cpp ****       if (led1_flash_count_%2==0) pod_.led1.Set(rgb1_[0],rgb1_[1],rgb1_[2]);
 5098              		.loc 3 836 48 view .LVU1400
 5099 0008 C069     		ldr	r0, [r0, #28]
ARM GAS  /var/folders/2p/02m_5p7958535cp2tpgps0400000gn/T//ccx9FAOt.s 			page 178


 5100              	.LVL363:
 834:GrannyChordApp.cpp ****       /* flash on/off for the first 6 callbacks (3 cycles) */
 5101              		.loc 3 834 7 view .LVU1401
 5102 000a D4F8AC38 		ldr	r3, [r4, #2220]
 5103              		.loc 3 836 48 view .LVU1402
 5104 000e D830     		adds	r0, r0, #216
 834:GrannyChordApp.cpp ****       /* flash on/off for the first 6 callbacks (3 cycles) */
 5105              		.loc 3 834 3 view .LVU1403
 5106 0010 052B     		cmp	r3, #5
 5107 0012 4EDC     		bgt	.L231
 5108              		.loc 3 836 7 is_stmt 1 view .LVU1404
 5109 0014 DA07     		lsls	r2, r3, #31
 5110 0016 45D4     		bmi	.L232
 5111              		.loc 3 836 35 discriminator 1 view .LVU1405
 5112              		.loc 3 836 48 is_stmt 0 discriminator 1 view .LVU1406
 5113 0018 04F69C01 		addw	r1, r4, #2204
 5114              	.LVL364:
 5115              		.loc 3 836 48 discriminator 1 view .LVU1407
 5116 001c 04F69802 		addw	r2, r4, #2200
 5117 0020 04F69403 		addw	r3, r4, #2196
 5118 0024 91ED001A 		vldr.32	s2, [r1]
 5119 0028 D2ED000A 		vldr.32	s1, [r2]
 5120 002c 93ED000A 		vldr.32	s0, [r3]
 5121              	.L242:
 837:GrannyChordApp.cpp ****       else pod_.led1.Set(0,0,0);
 5122              		.loc 3 837 25 view .LVU1408
 5123 0030 FFF7FEFF 		bl	_ZN5daisy6RgbLed3SetEfff
 5124              	.LVL365:
 838:GrannyChordApp.cpp ****       led1_flash_count_++;
 5125              		.loc 3 838 7 is_stmt 1 view .LVU1409
 5126              		.loc 3 838 24 is_stmt 0 view .LVU1410
 5127 0034 D4F8AC38 		ldr	r3, [r4, #2220]
 5128 0038 0133     		adds	r3, r3, #1
 5129 003a C4F8AC38 		str	r3, [r4, #2220]
 5130              	.L234:
 839:GrannyChordApp.cpp ****   } 
 840:GrannyChordApp.cpp ****   else pod_.led1.Set(rgb1_[0],rgb1_[1],rgb1_[2]); /* stay solid after 3 flashes */
 841:GrannyChordApp.cpp **** 
 842:GrannyChordApp.cpp ****   if (led2_flash_count_ <6){
 5131              		.loc 3 842 3 is_stmt 1 view .LVU1411
 5132              		.loc 3 842 7 is_stmt 0 view .LVU1412
 5133 003e D4F8B038 		ldr	r3, [r4, #2224]
 843:GrannyChordApp.cpp ****     if (led2_flash_count_%2==0) pod_.led2.Set(rgb2_[0],rgb2_[1],rgb2_[2]);
 5134              		.loc 3 843 46 view .LVU1413
 5135 0042 E869     		ldr	r0, [r5, #28]
 842:GrannyChordApp.cpp ****     if (led2_flash_count_%2==0) pod_.led2.Set(rgb2_[0],rgb2_[1],rgb2_[2]);
 5136              		.loc 3 842 3 view .LVU1414
 5137 0044 052B     		cmp	r3, #5
 5138              		.loc 3 843 46 view .LVU1415
 5139 0046 00F59670 		add	r0, r0, #300
 842:GrannyChordApp.cpp ****     if (led2_flash_count_%2==0) pod_.led2.Set(rgb2_[0],rgb2_[1],rgb2_[2]);
 5140              		.loc 3 842 3 view .LVU1416
 5141 004a 48DC     		bgt	.L235
 5142              		.loc 3 843 5 is_stmt 1 view .LVU1417
 5143 004c DB07     		lsls	r3, r3, #31
 5144 004e 3FD4     		bmi	.L236
 5145              		.loc 3 843 33 discriminator 1 view .LVU1418
ARM GAS  /var/folders/2p/02m_5p7958535cp2tpgps0400000gn/T//ccx9FAOt.s 			page 179


 5146              		.loc 3 843 46 is_stmt 0 discriminator 1 view .LVU1419
 5147 0050 04F6A801 		addw	r1, r4, #2216
 5148 0054 04F6A402 		addw	r2, r4, #2212
 5149 0058 04F50A63 		add	r3, r4, #2208
 5150 005c 91ED001A 		vldr.32	s2, [r1]
 5151 0060 D2ED000A 		vldr.32	s1, [r2]
 5152 0064 93ED000A 		vldr.32	s0, [r3]
 5153              	.L243:
 844:GrannyChordApp.cpp ****     else pod_.led2.Set(0,0,0);
 5154              		.loc 3 844 23 view .LVU1420
 5155 0068 FFF7FEFF 		bl	_ZN5daisy6RgbLed3SetEfff
 5156              	.LVL366:
 845:GrannyChordApp.cpp ****     led2_flash_count_++;
 5157              		.loc 3 845 5 is_stmt 1 view .LVU1421
 5158              		.loc 3 845 22 is_stmt 0 view .LVU1422
 5159 006c D4F8B038 		ldr	r3, [r4, #2224]
 5160 0070 0133     		adds	r3, r3, #1
 5161 0072 C4F8B038 		str	r3, [r4, #2224]
 5162              	.L238:
 846:GrannyChordApp.cpp ****   } 
 847:GrannyChordApp.cpp ****   else pod_.led2.Set(rgb2_[0],rgb2_[1],rgb2_[2]);
 848:GrannyChordApp.cpp ****   if (recording_out_ || curr_state_ == AppState::RecordIn){
 5163              		.loc 3 848 3 is_stmt 1 view .LVU1423
 5164 0076 94F87418 		ldrb	r1, [r4, #2164]	@ zero_extendqisi2
 849:GrannyChordApp.cpp ****     pod_.seed.SetLed(seed_led_state_);
 850:GrannyChordApp.cpp ****     seed_led_state_ = !seed_led_state_;
 851:GrannyChordApp.cpp ****   }
 852:GrannyChordApp.cpp ****   else pod_.seed.SetLed(0); /* turn off seed led when not recording out */
 5165              		.loc 3 852 24 is_stmt 0 view .LVU1424
 5166 007a E869     		ldr	r0, [r5, #28]
 848:GrannyChordApp.cpp ****     pod_.seed.SetLed(seed_led_state_);
 5167              		.loc 3 848 3 view .LVU1425
 5168 007c 19B9     		cbnz	r1, .L239
 848:GrannyChordApp.cpp ****     pod_.seed.SetLed(seed_led_state_);
 5169              		.loc 3 848 22 discriminator 1 view .LVU1426
 5170 007e D5F83834 		ldr	r3, [r5, #1080]
 5171 0082 032B     		cmp	r3, #3
 5172 0084 3AD1     		bne	.L240
 5173              	.L239:
 849:GrannyChordApp.cpp ****     pod_.seed.SetLed(seed_led_state_);
 5174              		.loc 3 849 5 is_stmt 1 view .LVU1427
 849:GrannyChordApp.cpp ****     pod_.seed.SetLed(seed_led_state_);
 5175              		.loc 3 849 21 is_stmt 0 view .LVU1428
 5176 0086 94F8B418 		ldrb	r1, [r4, #2228]	@ zero_extendqisi2
 5177 008a FFF7FEFF 		bl	_ZN5daisy9DaisySeed6SetLedEb
 5178              	.LVL367:
 850:GrannyChordApp.cpp ****   }
 5179              		.loc 3 850 5 is_stmt 1 view .LVU1429
 850:GrannyChordApp.cpp ****   }
 5180              		.loc 3 850 23 is_stmt 0 view .LVU1430
 5181 008e 94F8B438 		ldrb	r3, [r4, #2228]	@ zero_extendqisi2
 5182 0092 83F00103 		eor	r3, r3, #1
 850:GrannyChordApp.cpp ****   }
 5183              		.loc 3 850 21 view .LVU1431
 5184 0096 84F8B438 		strb	r3, [r4, #2228]
 5185              	.L241:
 853:GrannyChordApp.cpp ****   pod_.UpdateLeds();
ARM GAS  /var/folders/2p/02m_5p7958535cp2tpgps0400000gn/T//ccx9FAOt.s 			page 180


 5186              		.loc 3 853 3 is_stmt 1 view .LVU1432
 5187              		.loc 3 853 18 is_stmt 0 view .LVU1433
 5188 009a E869     		ldr	r0, [r5, #28]
 854:GrannyChordApp.cpp **** }
 5189              		.loc 3 854 1 view .LVU1434
 5190 009c BDE83840 		pop	{r3, r4, r5, lr}
 5191              		.cfi_remember_state
 5192              		.cfi_restore 14
 5193              		.cfi_restore 5
 5194              		.cfi_restore 4
 5195              		.cfi_restore 3
 5196              		.cfi_def_cfa_offset 0
 5197              	.LVL368:
 853:GrannyChordApp.cpp ****   pod_.UpdateLeds();
 5198              		.loc 3 853 18 view .LVU1435
 5199 00a0 FFF7FEBF 		b	_ZN5daisy8DaisyPod10UpdateLedsEv
 5200              	.LVL369:
 5201              	.L232:
 5202              		.cfi_restore_state
 837:GrannyChordApp.cpp ****       led1_flash_count_++;
 5203              		.loc 3 837 12 is_stmt 1 view .LVU1436
 837:GrannyChordApp.cpp ****       led1_flash_count_++;
 5204              		.loc 3 837 25 is_stmt 0 view .LVU1437
 5205 00a4 9FED171A 		vldr.32	s2, .L244
 5206 00a8 F0EE410A 		vmov.f32	s1, s2
 5207 00ac B0EE410A 		vmov.f32	s0, s2
 5208 00b0 BEE7     		b	.L242
 5209              	.L231:
 840:GrannyChordApp.cpp **** 
 5210              		.loc 3 840 8 is_stmt 1 view .LVU1438
 840:GrannyChordApp.cpp **** 
 5211              		.loc 3 840 21 is_stmt 0 view .LVU1439
 5212 00b2 04F69C01 		addw	r1, r4, #2204
 5213              	.LVL370:
 840:GrannyChordApp.cpp **** 
 5214              		.loc 3 840 21 view .LVU1440
 5215 00b6 04F69802 		addw	r2, r4, #2200
 5216 00ba 04F69403 		addw	r3, r4, #2196
 5217 00be 91ED001A 		vldr.32	s2, [r1]
 5218 00c2 D2ED000A 		vldr.32	s1, [r2]
 5219 00c6 93ED000A 		vldr.32	s0, [r3]
 5220 00ca FFF7FEFF 		bl	_ZN5daisy6RgbLed3SetEfff
 5221              	.LVL371:
 5222 00ce B6E7     		b	.L234
 5223              	.L236:
 844:GrannyChordApp.cpp ****     led2_flash_count_++;
 5224              		.loc 3 844 10 is_stmt 1 view .LVU1441
 844:GrannyChordApp.cpp ****     led2_flash_count_++;
 5225              		.loc 3 844 23 is_stmt 0 view .LVU1442
 5226 00d0 9FED0C1A 		vldr.32	s2, .L244
 5227 00d4 F0EE410A 		vmov.f32	s1, s2
 5228 00d8 B0EE410A 		vmov.f32	s0, s2
 5229 00dc C4E7     		b	.L243
 5230              	.L235:
 847:GrannyChordApp.cpp ****   if (recording_out_ || curr_state_ == AppState::RecordIn){
 5231              		.loc 3 847 8 is_stmt 1 view .LVU1443
 847:GrannyChordApp.cpp ****   if (recording_out_ || curr_state_ == AppState::RecordIn){
ARM GAS  /var/folders/2p/02m_5p7958535cp2tpgps0400000gn/T//ccx9FAOt.s 			page 181


 5232              		.loc 3 847 21 is_stmt 0 view .LVU1444
 5233 00de 04F6A801 		addw	r1, r4, #2216
 5234 00e2 04F6A402 		addw	r2, r4, #2212
 5235 00e6 04F50A63 		add	r3, r4, #2208
 5236 00ea 91ED001A 		vldr.32	s2, [r1]
 5237 00ee D2ED000A 		vldr.32	s1, [r2]
 5238 00f2 93ED000A 		vldr.32	s0, [r3]
 5239 00f6 FFF7FEFF 		bl	_ZN5daisy6RgbLed3SetEfff
 5240              	.LVL372:
 5241 00fa BCE7     		b	.L238
 5242              	.L240:
 852:GrannyChordApp.cpp ****   pod_.UpdateLeds();
 5243              		.loc 3 852 8 is_stmt 1 view .LVU1445
 852:GrannyChordApp.cpp ****   pod_.UpdateLeds();
 5244              		.loc 3 852 24 is_stmt 0 view .LVU1446
 5245 00fc FFF7FEFF 		bl	_ZN5daisy9DaisySeed6SetLedEb
 5246              	.LVL373:
 5247 0100 CBE7     		b	.L241
 5248              	.L245:
 5249 0102 00BF     		.align	2
 5250              	.L244:
 5251 0104 00000000 		.word	0
 5252              		.cfi_endproc
 5253              	.LFE4947:
 5255              		.section	.text._ZN14GrannyChordApp17StaticLedCallbackEPv,"axG",%progbits,_ZN14GrannyChordApp17Stat
 5256              		.align	1
 5257              		.weak	_ZN14GrannyChordApp17StaticLedCallbackEPv
 5258              		.syntax unified
 5259              		.thumb
 5260              		.thumb_func
 5262              	_ZN14GrannyChordApp17StaticLedCallbackEPv:
 5263              	.LVL374:
 5264              	.LFB4902:
 5265              		.file 19 "GrannyChordApp.h"
   1:GrannyChordApp.h **** #pragma once 
   2:GrannyChordApp.h **** #include "daisy_pod.h"
   3:GrannyChordApp.h **** #include "daisysp.h"
   4:GrannyChordApp.h **** #include "GranularSynth.h"
   5:GrannyChordApp.h **** #include "AudioFileManager.h"
   6:GrannyChordApp.h **** #include "constants_utils.h"
   7:GrannyChordApp.h **** #include "debug_print.h"
   8:GrannyChordApp.h **** #include "DaisySP-LGPL-FX/reverb.h"
   9:GrannyChordApp.h **** #include "DaisySP-LGPL-FX/compressor.h"
  10:GrannyChordApp.h **** #include "DaisySP-LGPL-FX/moogladder.h"
  11:GrannyChordApp.h **** #include "AppState.h"
  12:GrannyChordApp.h **** 
  13:GrannyChordApp.h **** using namespace daisy;
  14:GrannyChordApp.h **** using namespace daisysp;
  15:GrannyChordApp.h **** 
  16:GrannyChordApp.h **** class GrannyChordApp {
  17:GrannyChordApp.h ****   public:
  18:GrannyChordApp.h ****   GrannyChordApp(DaisyPod& pod, GranularSynth& synth, AudioFileManager& filemgr, ReverbSc &reverb)
  19:GrannyChordApp.h ****         : pod_(pod), synth_(synth), 
  20:GrannyChordApp.h ****           filemgr_(filemgr), reverb_(reverb){
  21:GrannyChordApp.h ****             instance_ = this;
  22:GrannyChordApp.h ****           };
  23:GrannyChordApp.h **** 
ARM GAS  /var/folders/2p/02m_5p7958535cp2tpgps0400000gn/T//ccx9FAOt.s 			page 182


  24:GrannyChordApp.h ****     void Init(int16_t *left, int16_t *right);
  25:GrannyChordApp.h ****     void Run();
  26:GrannyChordApp.h **** 
  27:GrannyChordApp.h ****     CpuLoadMeter loadmeter;
  28:GrannyChordApp.h **** 
  29:GrannyChordApp.h ****     static void AudioCallback(AudioHandle::InputBuffer in, AudioHandle::OutputBuffer out, size_t si
  30:GrannyChordApp.h ****     void ProcessAudio(AudioHandle::InputBuffer in, AudioHandle::OutputBuffer out, size_t size);
  31:GrannyChordApp.h ****     static GrannyChordApp* instance_;
  32:GrannyChordApp.h **** 
  33:GrannyChordApp.h ****   private:
  34:GrannyChordApp.h ****     DaisyPod &pod_;
  35:GrannyChordApp.h ****     GranularSynth synth_;
  36:GrannyChordApp.h ****     AudioFileManager &filemgr_;
  37:GrannyChordApp.h ****     FIL *file_;
  38:GrannyChordApp.h **** 
  39:GrannyChordApp.h ****     /* UI and state objects */
  40:GrannyChordApp.h ****     AppState curr_state_;
  41:GrannyChordApp.h ****     AppState next_state_;
  42:GrannyChordApp.h ****     SynthMode curr_synth_mode_;
  43:GrannyChordApp.h ****     SynthMode prev_synth_mode_;
  44:GrannyChordApp.h **** 
  45:GrannyChordApp.h ****     /* audio FX and filters */
  46:GrannyChordApp.h ****     Compressor comp_;
  47:GrannyChordApp.h ****     Limiter limiter_;
  48:GrannyChordApp.h ****     ReverbSc& reverb_;
  49:GrannyChordApp.h ****     MoogLadder lowpass_moog_;
  50:GrannyChordApp.h ****     OnePole hipass_;
  51:GrannyChordApp.h **** 
  52:GrannyChordApp.h ****     /* audio data channel buffers */
  53:GrannyChordApp.h ****     int16_t *left_buf_;
  54:GrannyChordApp.h ****     int16_t *right_buf_;
  55:GrannyChordApp.h **** 
  56:GrannyChordApp.h ****     int file_idx_ = 0;
  57:GrannyChordApp.h ****     size_t wav_playhead_ = 0;
  58:GrannyChordApp.h ****     uint32_t audio_len_ = 0;
  59:GrannyChordApp.h ****     char fname_[MAX_FNAME_LEN];
  60:GrannyChordApp.h **** 
  61:GrannyChordApp.h ****     /* previous values for parameters controlled by knob 1*/
  62:GrannyChordApp.h ****     float prev_param_vals_k1[NUM_SYNTH_MODES] = {0};
  63:GrannyChordApp.h ****     float prev_param_vals_k2[NUM_SYNTH_MODES] = {0};
  64:GrannyChordApp.h **** 
  65:GrannyChordApp.h ****     /* stored previous knob values for passthru mode */
  66:GrannyChordApp.h ****     float pass_thru_stored_k1[NUM_SYNTH_MODES] {0.5f};
  67:GrannyChordApp.h ****     float pass_thru_stored_k2[NUM_SYNTH_MODES] {0.5f};
  68:GrannyChordApp.h ****     bool pass_thru_k1[NUM_SYNTH_MODES] = {false};
  69:GrannyChordApp.h ****     bool pass_thru_k2[NUM_SYNTH_MODES] = {false};
  70:GrannyChordApp.h **** 
  71:GrannyChordApp.h ****     /* objects/variables for recording in and out */
  72:GrannyChordApp.h ****     WavWriter<16384> sd_writer_;
  73:GrannyChordApp.h ****     bool recorded_in_ = false;
  74:GrannyChordApp.h ****     size_t record_in_pos_ = 0;
  75:GrannyChordApp.h ****     bool recording_out_ = false;
  76:GrannyChordApp.h ****     size_t recording_count_ = 0;
  77:GrannyChordApp.h ****     size_t loop_count=0;
  78:GrannyChordApp.h ****     float temp_interleaved_buf_[2];
  79:GrannyChordApp.h **** 
  80:GrannyChordApp.h ****     /* hardware input handler variables */
ARM GAS  /var/folders/2p/02m_5p7958535cp2tpgps0400000gn/T//ccx9FAOt.s 			page 183


  81:GrannyChordApp.h ****     size_t last_action_time_ = 0;
  82:GrannyChordApp.h ****     /* these bools track whether the button has just been long pressed
  83:GrannyChordApp.h ****       vs whether it's already known to be pressed down */
  84:GrannyChordApp.h ****     bool btn1_long_press_fired_ = false;
  85:GrannyChordApp.h ****     bool btn2_long_press_fired_ = false;
  86:GrannyChordApp.h ****     bool both_btns_long_press_fired_ = false;
  87:GrannyChordApp.h **** 
  88:GrannyChordApp.h ****     /* timer object and led callback variables */
  89:GrannyChordApp.h ****     TimerHandle timer_;
  90:GrannyChordApp.h ****     float rgb1_[3] = {0};
  91:GrannyChordApp.h ****     float rgb2_[3] = {0};
  92:GrannyChordApp.h ****     int led1_flash_count_=0;
  93:GrannyChordApp.h ****     int led2_flash_count_=0;
  94:GrannyChordApp.h ****     bool seed_led_state_=false;
  95:GrannyChordApp.h **** 
  96:GrannyChordApp.h ****     /* methods to init / prepare for state change */
  97:GrannyChordApp.h ****     bool InitFileMgr();
  98:GrannyChordApp.h ****     void InitPlayback();
  99:GrannyChordApp.h ****     void InitSynth();
 100:GrannyChordApp.h ****     void InitFX();
 101:GrannyChordApp.h ****     void InitRecordIn();
 102:GrannyChordApp.h ****     void InitWavWriter();
 103:GrannyChordApp.h ****     void InitPrevParamVals();
 104:GrannyChordApp.h ****     void ResetPassThru();
 105:GrannyChordApp.h ****     void ResetNewModePassThru();
 106:GrannyChordApp.h **** 
 107:GrannyChordApp.h ****     /* state change handlers */
 108:GrannyChordApp.h ****     void UpdateUI();
 109:GrannyChordApp.h ****     void UpdateSynthMode();
 110:GrannyChordApp.h ****     void HandleStateChange();
 111:GrannyChordApp.h ****     void HandleFileSelection(int32_t encoder_inc);
 112:GrannyChordApp.h **** 
 113:GrannyChordApp.h ****     /* audio input/output/recording methods based on state */
 114:GrannyChordApp.h ****     void ProcessWAVPlayback(AudioHandle::OutputBuffer out, size_t size);
 115:GrannyChordApp.h ****     void ProcessRecordIn(AudioHandle::InputBuffer in, AudioHandle::OutputBuffer out, size_t size);
 116:GrannyChordApp.h ****     void ProcessSynthesis(AudioHandle::OutputBuffer out, size_t size);
 117:GrannyChordApp.h ****     Sample ProcessFX(Sample in);
 118:GrannyChordApp.h ****     void ProcessChordMode(AudioHandle::OutputBuffer out, size_t size);
 119:GrannyChordApp.h ****     void RecordOutToSD();
 120:GrannyChordApp.h ****     void FinishRecording();
 121:GrannyChordApp.h **** 
 122:GrannyChordApp.h **** 
 123:GrannyChordApp.h ****     size_t paramcount=0;
 124:GrannyChordApp.h **** 
 125:GrannyChordApp.h **** 
 126:GrannyChordApp.h ****     
 127:GrannyChordApp.h **** 
 128:GrannyChordApp.h ****     /* hardware input handler methods */
 129:GrannyChordApp.h ****     void ButtonHandler();
 130:GrannyChordApp.h ****     void HandleEncoderIncrement(int encoder_inc);
 131:GrannyChordApp.h ****     void HandleEncoderPressed();
 132:GrannyChordApp.h ****     void HandleEncoderLongPress();
 133:GrannyChordApp.h ****     void HandleButton1();
 134:GrannyChordApp.h ****     void HandleButton2();
 135:GrannyChordApp.h ****     void HandleButton1LongPress();
 136:GrannyChordApp.h ****     void HandleButton2LongPress();
 137:GrannyChordApp.h ****     void ToggleRandomnessControls();
ARM GAS  /var/folders/2p/02m_5p7958535cp2tpgps0400000gn/T//ccx9FAOt.s 			page 184


 138:GrannyChordApp.h ****     /* true if reverb, false if filter */
 139:GrannyChordApp.h ****     void ToggleFX(bool is_reverb_mode);
 140:GrannyChordApp.h **** 
 141:GrannyChordApp.h ****     /* methods to update/init synth parameters */
 142:GrannyChordApp.h ****     void UpdateSynthParams();
 143:GrannyChordApp.h ****     void UpdateKnob1Params(float knob1_val, SynthMode mode);
 144:GrannyChordApp.h ****     void UpdateKnob2Params(float knob2_val, SynthMode mode);
 145:GrannyChordApp.h ****     // void UpdateChordParams();
 146:GrannyChordApp.h ****     inline bool CheckParamDelta(float curr_val, float prev_val);
 147:GrannyChordApp.h ****     inline float MapKnobDeadzone(float knob_val);
 148:GrannyChordApp.h ****     // inline float UpdateKnobPassThru(float curr_knob_val, float *stored_knob_val, bool *pass_thru
 149:GrannyChordApp.h ****     inline float UpdateKnobPassThru(float curr_knob_val, float *stored_knob_val, float prev_param_v
 150:GrannyChordApp.h **** 
 151:GrannyChordApp.h ****     /* timer and led methods */
 152:GrannyChordApp.h ****     void SetupTimer();
 153:GrannyChordApp.h ****     /* has to be static - timer won't take class member function in callback */
 154:GrannyChordApp.h ****     static void StaticLedCallback(void* data){
 5266              		.loc 19 154 17 is_stmt 1 view -0
 5267              		.cfi_startproc
 5268              		@ args = 0, pretend = 0, frame = 0
 5269              		@ frame_needed = 0, uses_anonymous_args = 0
 5270              		@ link register save eliminated.
 155:GrannyChordApp.h ****       instance_ -> LedCallback(data);
 5271              		.loc 19 155 7 view .LVU1448
 5272              		.loc 19 155 31 is_stmt 0 view .LVU1449
 5273 0000 024B     		ldr	r3, .L247
 154:GrannyChordApp.h ****       instance_ -> LedCallback(data);
 5274              		.loc 19 154 17 view .LVU1450
 5275 0002 0146     		mov	r1, r0
 5276              		.loc 19 155 31 view .LVU1451
 5277 0004 1868     		ldr	r0, [r3]
 5278              	.LVL375:
 5279              		.loc 19 155 31 view .LVU1452
 5280 0006 FFF7FEBF 		b	_ZN14GrannyChordApp11LedCallbackEPv
 5281              	.LVL376:
 5282              	.L248:
 5283              		.loc 19 155 31 view .LVU1453
 5284 000a 00BF     		.align	2
 5285              	.L247:
 5286 000c 00000000 		.word	.LANCHOR0
 5287              		.cfi_endproc
 5288              	.LFE4902:
 5290              		.section	.text._ZN14GrannyChordApp7SetRgb1Efff,"ax",%progbits
 5291              		.align	1
 5292              		.global	_ZN14GrannyChordApp7SetRgb1Efff
 5293              		.syntax unified
 5294              		.thumb
 5295              		.thumb_func
 5297              	_ZN14GrannyChordApp7SetRgb1Efff:
 5298              	.LVL377:
 5299              	.LFB4948:
 855:GrannyChordApp.cpp **** 
 856:GrannyChordApp.cpp **** /// @brief helper function to set led1 colours
 857:GrannyChordApp.cpp **** void GrannyChordApp::SetRgb1(float r, float g, float b){  
 5300              		.loc 3 857 56 is_stmt 1 view -0
 5301              		.cfi_startproc
 5302              		@ args = 0, pretend = 0, frame = 0
ARM GAS  /var/folders/2p/02m_5p7958535cp2tpgps0400000gn/T//ccx9FAOt.s 			page 185


 5303              		@ frame_needed = 0, uses_anonymous_args = 0
 5304              		@ link register save eliminated.
 858:GrannyChordApp.cpp ****   rgb1_[0]= r;
 5305              		.loc 3 858 3 view .LVU1455
 5306              		.loc 3 858 11 is_stmt 0 view .LVU1456
 5307 0000 00F50040 		add	r0, r0, #32768
 5308              	.LVL378:
 5309              		.loc 3 858 11 view .LVU1457
 5310 0004 00F69403 		addw	r3, r0, #2196
 5311 0008 83ED000A 		vstr.32	s0, [r3]
 859:GrannyChordApp.cpp ****   rgb1_[1]= g;
 5312              		.loc 3 859 3 is_stmt 1 view .LVU1458
 5313              		.loc 3 859 11 is_stmt 0 view .LVU1459
 5314 000c 00F69803 		addw	r3, r0, #2200
 860:GrannyChordApp.cpp ****   rgb1_[2]= b;
 5315              		.loc 3 860 11 view .LVU1460
 5316 0010 00F69C00 		addw	r0, r0, #2204
 5317              	.LVL379:
 859:GrannyChordApp.cpp ****   rgb1_[1]= g;
 5318              		.loc 3 859 11 view .LVU1461
 5319 0014 C3ED000A 		vstr.32	s1, [r3]
 5320              		.loc 3 860 3 is_stmt 1 view .LVU1462
 5321              		.loc 3 860 11 is_stmt 0 view .LVU1463
 5322 0018 80ED001A 		vstr.32	s2, [r0]
 861:GrannyChordApp.cpp **** }
 5323              		.loc 3 861 1 view .LVU1464
 5324 001c 7047     		bx	lr
 5325              		.cfi_endproc
 5326              	.LFE4948:
 5328              		.section	.text._ZN14GrannyChordApp7SetRgb2Efff,"ax",%progbits
 5329              		.align	1
 5330              		.global	_ZN14GrannyChordApp7SetRgb2Efff
 5331              		.syntax unified
 5332              		.thumb
 5333              		.thumb_func
 5335              	_ZN14GrannyChordApp7SetRgb2Efff:
 5336              	.LVL380:
 5337              	.LFB4949:
 862:GrannyChordApp.cpp **** 
 863:GrannyChordApp.cpp **** /// @brief helper function to set led2 colours
 864:GrannyChordApp.cpp **** void GrannyChordApp::SetRgb2(float r, float g, float b){
 5338              		.loc 3 864 56 is_stmt 1 view -0
 5339              		.cfi_startproc
 5340              		@ args = 0, pretend = 0, frame = 0
 5341              		@ frame_needed = 0, uses_anonymous_args = 0
 5342              		@ link register save eliminated.
 865:GrannyChordApp.cpp ****   rgb2_[0]= r;
 5343              		.loc 3 865 3 view .LVU1466
 5344              		.loc 3 865 11 is_stmt 0 view .LVU1467
 5345 0000 00F50040 		add	r0, r0, #32768
 5346              	.LVL381:
 5347              		.loc 3 865 11 view .LVU1468
 5348 0004 00F50A63 		add	r3, r0, #2208
 5349 0008 83ED000A 		vstr.32	s0, [r3]
 866:GrannyChordApp.cpp ****   rgb2_[1]= g;
 5350              		.loc 3 866 3 is_stmt 1 view .LVU1469
 5351              		.loc 3 866 11 is_stmt 0 view .LVU1470
ARM GAS  /var/folders/2p/02m_5p7958535cp2tpgps0400000gn/T//ccx9FAOt.s 			page 186


 5352 000c 00F6A403 		addw	r3, r0, #2212
 867:GrannyChordApp.cpp ****   rgb2_[2]= b;
 5353              		.loc 3 867 11 view .LVU1471
 5354 0010 00F6A800 		addw	r0, r0, #2216
 5355              	.LVL382:
 866:GrannyChordApp.cpp ****   rgb2_[1]= g;
 5356              		.loc 3 866 11 view .LVU1472
 5357 0014 C3ED000A 		vstr.32	s1, [r3]
 5358              		.loc 3 867 3 is_stmt 1 view .LVU1473
 5359              		.loc 3 867 11 is_stmt 0 view .LVU1474
 5360 0018 80ED001A 		vstr.32	s2, [r0]
 868:GrannyChordApp.cpp **** }
 5361              		.loc 3 868 1 view .LVU1475
 5362 001c 7047     		bx	lr
 5363              		.cfi_endproc
 5364              	.LFE4949:
 5366              		.section	.text._ZN14GrannyChordApp15SetLed1AppStateEv,"ax",%progbits
 5367              		.align	1
 5368              		.global	_ZN14GrannyChordApp15SetLed1AppStateEv
 5369              		.syntax unified
 5370              		.thumb
 5371              		.thumb_func
 5373              	_ZN14GrannyChordApp15SetLed1AppStateEv:
 5374              	.LVL383:
 5375              	.LFB4950:
 869:GrannyChordApp.cpp **** 
 870:GrannyChordApp.cpp **** /// @brief sets led colours based on app state
 871:GrannyChordApp.cpp **** void GrannyChordApp::SetLed1AppState(){
 5376              		.loc 3 871 39 is_stmt 1 view -0
 5377              		.cfi_startproc
 5378              		@ args = 0, pretend = 0, frame = 0
 5379              		@ frame_needed = 0, uses_anonymous_args = 0
 872:GrannyChordApp.cpp ****   switch(curr_state_){
 5380              		.loc 3 872 3 view .LVU1477
 5381 0000 D0F83834 		ldr	r3, [r0, #1080]
 871:GrannyChordApp.cpp ****   switch(curr_state_){
 5382              		.loc 3 871 39 is_stmt 0 view .LVU1478
 5383 0004 10B5     		push	{r4, lr}
 5384              		.cfi_def_cfa_offset 8
 5385              		.cfi_offset 4, -8
 5386              		.cfi_offset 14, -4
 871:GrannyChordApp.cpp ****   switch(curr_state_){
 5387              		.loc 3 871 39 view .LVU1479
 5388 0006 0446     		mov	r4, r0
 5389              		.loc 3 872 3 view .LVU1480
 5390 0008 052B     		cmp	r3, #5
 5391 000a 11D8     		bhi	.L252
 5392 000c DFE803F0 		tbb	[pc, r3]
 5393              	.L254:
 5394 0010 03       		.byte	(.L258-.L254)/2
 5395 0011 21       		.byte	(.L257-.L254)/2
 5396 0012 2E       		.byte	(.L256-.L254)/2
 5397 0013 39       		.byte	(.L255-.L254)/2
 5398 0014 46       		.byte	(.L253-.L254)/2
 5399 0015 46       		.byte	(.L253-.L254)/2
 5400              		.p2align 1
 5401              	.L258:
ARM GAS  /var/folders/2p/02m_5p7958535cp2tpgps0400000gn/T//ccx9FAOt.s 			page 187


 873:GrannyChordApp.cpp ****     case AppState::SelectFile:
 5402              		.loc 3 873 5 is_stmt 1 view .LVU1481
 874:GrannyChordApp.cpp ****       SetRgb1(0, 0, 0.7f); /* blue ? */
 5403              		.loc 3 874 7 view .LVU1482
 5404              	.LVL384:
 5405              	.LBB1021:
 5406              	.LBI1021:
 857:GrannyChordApp.cpp ****   rgb1_[0]= r;
 5407              		.loc 3 857 6 view .LVU1483
 5408              	.LBB1022:
 858:GrannyChordApp.cpp ****   rgb1_[1]= g;
 5409              		.loc 3 858 3 view .LVU1484
 858:GrannyChordApp.cpp ****   rgb1_[1]= g;
 5410              		.loc 3 858 11 is_stmt 0 view .LVU1485
 5411 0016 00F50043 		add	r3, r0, #32768
 5412 001a 0022     		movs	r2, #0
 5413 001c 03F69401 		addw	r1, r3, #2196
 5414 0020 0A60     		str	r2, [r1]	@ float
 859:GrannyChordApp.cpp ****   rgb1_[2]= b;
 5415              		.loc 3 859 3 is_stmt 1 view .LVU1486
 859:GrannyChordApp.cpp ****   rgb1_[2]= b;
 5416              		.loc 3 859 11 is_stmt 0 view .LVU1487
 5417 0022 03F69801 		addw	r1, r3, #2200
 860:GrannyChordApp.cpp **** }
 5418              		.loc 3 860 11 view .LVU1488
 5419 0026 03F69C03 		addw	r3, r3, #2204
 859:GrannyChordApp.cpp ****   rgb1_[2]= b;
 5420              		.loc 3 859 11 view .LVU1489
 5421 002a 0A60     		str	r2, [r1]	@ float
 860:GrannyChordApp.cpp **** }
 5422              		.loc 3 860 3 is_stmt 1 view .LVU1490
 860:GrannyChordApp.cpp **** }
 5423              		.loc 3 860 11 is_stmt 0 view .LVU1491
 5424 002c 264A     		ldr	r2, .L265
 5425              	.LVL385:
 5426              	.L263:
 860:GrannyChordApp.cpp **** }
 5427              		.loc 3 860 11 view .LVU1492
 5428              	.LBE1022:
 5429              	.LBE1021:
 5430              	.LBB1023:
 5431              	.LBB1024:
 5432 002e 1A60     		str	r2, [r3]	@ float
 5433              	.L252:
 5434              	.LBE1024:
 5435              	.LBE1023:
 875:GrannyChordApp.cpp ****       break;
 876:GrannyChordApp.cpp ****     case AppState::PlayWAV:
 877:GrannyChordApp.cpp ****       SetRgb1(0, 0.7f, 0.7f); /* cyan */
 878:GrannyChordApp.cpp ****       break;
 879:GrannyChordApp.cpp ****     case AppState::Synthesis:
 880:GrannyChordApp.cpp ****       SetRgb1(0, 0.7f, 0); /* green */
 881:GrannyChordApp.cpp ****       break;
 882:GrannyChordApp.cpp ****     case AppState::RecordIn:
 883:GrannyChordApp.cpp ****       SetRgb1(0.7f,0.7f,0);  /* yellow? */
 884:GrannyChordApp.cpp ****       break;
 885:GrannyChordApp.cpp ****     case AppState::ChordMode:
ARM GAS  /var/folders/2p/02m_5p7958535cp2tpgps0400000gn/T//ccx9FAOt.s 			page 188


 886:GrannyChordApp.cpp ****       SetRgb1(0.7f,0,1); /* violet/purple */
 887:GrannyChordApp.cpp ****       // break;
 888:GrannyChordApp.cpp ****     case AppState::Error:
 889:GrannyChordApp.cpp ****       SetRgb1(1, 0, 0); /* red */
 890:GrannyChordApp.cpp ****       pod_.led2.SetRed(1);
 891:GrannyChordApp.cpp ****       break;
 892:GrannyChordApp.cpp ****     default:
 893:GrannyChordApp.cpp ****       break;
 894:GrannyChordApp.cpp ****   }
 895:GrannyChordApp.cpp ****   if (curr_state_ != AppState::Synthesis) SetRgb2(0,0,0); /* turn off led2 */
 5436              		.loc 3 895 3 is_stmt 1 view .LVU1493
 5437 0030 D4F83834 		ldr	r3, [r4, #1080]
 5438 0034 022B     		cmp	r3, #2
 5439 0036 0BD0     		beq	.L251
 5440              		.loc 3 895 43 view .LVU1494
 5441              	.LVL386:
 5442              	.LBB1026:
 5443              	.LBI1026:
 864:GrannyChordApp.cpp ****   rgb2_[0]= r;
 5444              		.loc 3 864 6 view .LVU1495
 5445              	.LBB1027:
 865:GrannyChordApp.cpp ****   rgb2_[1]= g;
 5446              		.loc 3 865 3 view .LVU1496
 865:GrannyChordApp.cpp ****   rgb2_[1]= g;
 5447              		.loc 3 865 11 is_stmt 0 view .LVU1497
 5448 0038 04F50044 		add	r4, r4, #32768
 5449              	.LVL387:
 865:GrannyChordApp.cpp ****   rgb2_[1]= g;
 5450              		.loc 3 865 11 view .LVU1498
 5451 003c 0023     		movs	r3, #0
 5452 003e 04F50A62 		add	r2, r4, #2208
 5453 0042 1360     		str	r3, [r2]	@ float
 866:GrannyChordApp.cpp ****   rgb2_[2]= b;
 5454              		.loc 3 866 3 is_stmt 1 view .LVU1499
 866:GrannyChordApp.cpp ****   rgb2_[2]= b;
 5455              		.loc 3 866 11 is_stmt 0 view .LVU1500
 5456 0044 04F6A402 		addw	r2, r4, #2212
 867:GrannyChordApp.cpp **** }
 5457              		.loc 3 867 11 view .LVU1501
 5458 0048 04F6A804 		addw	r4, r4, #2216
 5459              	.LVL388:
 866:GrannyChordApp.cpp ****   rgb2_[2]= b;
 5460              		.loc 3 866 11 view .LVU1502
 5461 004c 1360     		str	r3, [r2]	@ float
 867:GrannyChordApp.cpp **** }
 5462              		.loc 3 867 3 is_stmt 1 view .LVU1503
 867:GrannyChordApp.cpp **** }
 5463              		.loc 3 867 11 is_stmt 0 view .LVU1504
 5464 004e 2360     		str	r3, [r4]	@ float
 5465              	.LVL389:
 5466              	.L251:
 867:GrannyChordApp.cpp **** }
 5467              		.loc 3 867 11 view .LVU1505
 5468              	.LBE1027:
 5469              	.LBE1026:
 896:GrannyChordApp.cpp **** }
 5470              		.loc 3 896 1 view .LVU1506
ARM GAS  /var/folders/2p/02m_5p7958535cp2tpgps0400000gn/T//ccx9FAOt.s 			page 189


 5471 0050 10BD     		pop	{r4, pc}
 5472              	.LVL390:
 5473              	.L257:
 876:GrannyChordApp.cpp ****       SetRgb1(0, 0.7f, 0.7f); /* cyan */
 5474              		.loc 3 876 5 is_stmt 1 view .LVU1507
 877:GrannyChordApp.cpp ****       break;
 5475              		.loc 3 877 7 view .LVU1508
 5476              	.LBB1028:
 5477              	.LBI1023:
 857:GrannyChordApp.cpp ****   rgb1_[0]= r;
 5478              		.loc 3 857 6 view .LVU1509
 5479              	.LBB1025:
 858:GrannyChordApp.cpp ****   rgb1_[1]= g;
 5480              		.loc 3 858 3 view .LVU1510
 858:GrannyChordApp.cpp ****   rgb1_[1]= g;
 5481              		.loc 3 858 11 is_stmt 0 view .LVU1511
 5482 0052 00F50043 		add	r3, r0, #32768
 5483 0056 0021     		movs	r1, #0
 5484 0058 03F69402 		addw	r2, r3, #2196
 5485 005c 1160     		str	r1, [r2]	@ float
 859:GrannyChordApp.cpp ****   rgb1_[2]= b;
 5486              		.loc 3 859 3 is_stmt 1 view .LVU1512
 859:GrannyChordApp.cpp ****   rgb1_[2]= b;
 5487              		.loc 3 859 11 is_stmt 0 view .LVU1513
 5488 005e 03F69801 		addw	r1, r3, #2200
 5489 0062 194A     		ldr	r2, .L265
 5490 0064 0A60     		str	r2, [r1]	@ float
 5491              	.LVL391:
 5492              	.L264:
 860:GrannyChordApp.cpp **** }
 5493              		.loc 3 860 3 is_stmt 1 view .LVU1514
 860:GrannyChordApp.cpp **** }
 5494              		.loc 3 860 11 is_stmt 0 view .LVU1515
 5495 0066 03F69C03 		addw	r3, r3, #2204
 5496 006a E0E7     		b	.L263
 5497              	.LVL392:
 5498              	.L256:
 860:GrannyChordApp.cpp **** }
 5499              		.loc 3 860 11 view .LVU1516
 5500              	.LBE1025:
 5501              	.LBE1028:
 879:GrannyChordApp.cpp ****       SetRgb1(0, 0.7f, 0); /* green */
 5502              		.loc 3 879 5 is_stmt 1 view .LVU1517
 880:GrannyChordApp.cpp ****       break;
 5503              		.loc 3 880 7 view .LVU1518
 5504              	.LBB1029:
 5505              	.LBI1029:
 857:GrannyChordApp.cpp ****   rgb1_[0]= r;
 5506              		.loc 3 857 6 view .LVU1519
 5507              	.LBB1030:
 858:GrannyChordApp.cpp ****   rgb1_[1]= g;
 5508              		.loc 3 858 3 view .LVU1520
 858:GrannyChordApp.cpp ****   rgb1_[1]= g;
 5509              		.loc 3 858 11 is_stmt 0 view .LVU1521
 5510 006c 00F50043 		add	r3, r0, #32768
 5511 0070 0022     		movs	r2, #0
 859:GrannyChordApp.cpp ****   rgb1_[2]= b;
ARM GAS  /var/folders/2p/02m_5p7958535cp2tpgps0400000gn/T//ccx9FAOt.s 			page 190


 5512              		.loc 3 859 11 view .LVU1522
 5513 0072 1548     		ldr	r0, .L265
 5514              	.LVL393:
 858:GrannyChordApp.cpp ****   rgb1_[1]= g;
 5515              		.loc 3 858 11 view .LVU1523
 5516 0074 03F69401 		addw	r1, r3, #2196
 5517 0078 0A60     		str	r2, [r1]	@ float
 859:GrannyChordApp.cpp ****   rgb1_[2]= b;
 5518              		.loc 3 859 3 is_stmt 1 view .LVU1524
 859:GrannyChordApp.cpp ****   rgb1_[2]= b;
 5519              		.loc 3 859 11 is_stmt 0 view .LVU1525
 5520 007a 03F69801 		addw	r1, r3, #2200
 5521 007e 0860     		str	r0, [r1]	@ float
 860:GrannyChordApp.cpp **** }
 5522              		.loc 3 860 3 is_stmt 1 view .LVU1526
 5523 0080 F1E7     		b	.L264
 5524              	.LVL394:
 5525              	.L255:
 860:GrannyChordApp.cpp **** }
 5526              		.loc 3 860 3 is_stmt 0 view .LVU1527
 5527              	.LBE1030:
 5528              	.LBE1029:
 882:GrannyChordApp.cpp ****       SetRgb1(0.7f,0.7f,0);  /* yellow? */
 5529              		.loc 3 882 5 is_stmt 1 view .LVU1528
 883:GrannyChordApp.cpp ****       break;
 5530              		.loc 3 883 7 view .LVU1529
 5531              	.LBB1031:
 5532              	.LBI1031:
 857:GrannyChordApp.cpp ****   rgb1_[0]= r;
 5533              		.loc 3 857 6 view .LVU1530
 5534              	.LBB1032:
 858:GrannyChordApp.cpp ****   rgb1_[1]= g;
 5535              		.loc 3 858 3 view .LVU1531
 858:GrannyChordApp.cpp ****   rgb1_[1]= g;
 5536              		.loc 3 858 11 is_stmt 0 view .LVU1532
 5537 0082 00F50043 		add	r3, r0, #32768
 5538 0086 104A     		ldr	r2, .L265
 5539 0088 03F69401 		addw	r1, r3, #2196
 5540 008c 0A60     		str	r2, [r1]	@ float
 859:GrannyChordApp.cpp ****   rgb1_[2]= b;
 5541              		.loc 3 859 3 is_stmt 1 view .LVU1533
 859:GrannyChordApp.cpp ****   rgb1_[2]= b;
 5542              		.loc 3 859 11 is_stmt 0 view .LVU1534
 5543 008e 03F69801 		addw	r1, r3, #2200
 860:GrannyChordApp.cpp **** }
 5544              		.loc 3 860 11 view .LVU1535
 5545 0092 03F69C03 		addw	r3, r3, #2204
 859:GrannyChordApp.cpp ****   rgb1_[2]= b;
 5546              		.loc 3 859 11 view .LVU1536
 5547 0096 0A60     		str	r2, [r1]	@ float
 860:GrannyChordApp.cpp **** }
 5548              		.loc 3 860 3 is_stmt 1 view .LVU1537
 860:GrannyChordApp.cpp **** }
 5549              		.loc 3 860 11 is_stmt 0 view .LVU1538
 5550 0098 0022     		movs	r2, #0
 5551 009a C8E7     		b	.L263
 5552              	.LVL395:
ARM GAS  /var/folders/2p/02m_5p7958535cp2tpgps0400000gn/T//ccx9FAOt.s 			page 191


 5553              	.L253:
 860:GrannyChordApp.cpp **** }
 5554              		.loc 3 860 11 view .LVU1539
 5555              	.LBE1032:
 5556              	.LBE1031:
 888:GrannyChordApp.cpp ****       SetRgb1(1, 0, 0); /* red */
 5557              		.loc 3 888 5 is_stmt 1 view .LVU1540
 889:GrannyChordApp.cpp ****       pod_.led2.SetRed(1);
 5558              		.loc 3 889 7 view .LVU1541
 5559              	.LBB1033:
 5560              	.LBI1033:
 857:GrannyChordApp.cpp ****   rgb1_[0]= r;
 5561              		.loc 3 857 6 view .LVU1542
 5562              	.LBB1034:
 858:GrannyChordApp.cpp ****   rgb1_[1]= g;
 5563              		.loc 3 858 3 view .LVU1543
 858:GrannyChordApp.cpp ****   rgb1_[1]= g;
 5564              		.loc 3 858 11 is_stmt 0 view .LVU1544
 5565 009c 00F50043 		add	r3, r0, #32768
 5566 00a0 B7EE000A 		vmov.f32	s0, #1.0e+0
 5567              	.LBE1034:
 5568              	.LBE1033:
 890:GrannyChordApp.cpp ****       break;
 5569              		.loc 3 890 23 view .LVU1545
 5570 00a4 C069     		ldr	r0, [r0, #28]
 5571              	.LVL396:
 5572              	.LBB1037:
 5573              	.LBB1035:
 858:GrannyChordApp.cpp ****   rgb1_[1]= g;
 5574              		.loc 3 858 11 view .LVU1546
 5575 00a6 03F69402 		addw	r2, r3, #2196
 859:GrannyChordApp.cpp ****   rgb1_[2]= b;
 5576              		.loc 3 859 11 view .LVU1547
 5577 00aa 03F69801 		addw	r1, r3, #2200
 860:GrannyChordApp.cpp **** }
 5578              		.loc 3 860 11 view .LVU1548
 5579 00ae 03F69C03 		addw	r3, r3, #2204
 5580              	.LBE1035:
 5581              	.LBE1037:
 890:GrannyChordApp.cpp ****       break;
 5582              		.loc 3 890 23 view .LVU1549
 5583 00b2 00F59670 		add	r0, r0, #300
 5584              	.LBB1038:
 5585              	.LBB1036:
 858:GrannyChordApp.cpp ****   rgb1_[1]= g;
 5586              		.loc 3 858 11 view .LVU1550
 5587 00b6 82ED000A 		vstr.32	s0, [r2]
 859:GrannyChordApp.cpp ****   rgb1_[2]= b;
 5588              		.loc 3 859 3 is_stmt 1 view .LVU1551
 859:GrannyChordApp.cpp ****   rgb1_[2]= b;
 5589              		.loc 3 859 11 is_stmt 0 view .LVU1552
 5590 00ba 0022     		movs	r2, #0
 5591 00bc 0A60     		str	r2, [r1]	@ float
 860:GrannyChordApp.cpp **** }
 5592              		.loc 3 860 3 is_stmt 1 view .LVU1553
 860:GrannyChordApp.cpp **** }
 5593              		.loc 3 860 11 is_stmt 0 view .LVU1554
ARM GAS  /var/folders/2p/02m_5p7958535cp2tpgps0400000gn/T//ccx9FAOt.s 			page 192


 5594 00be 1A60     		str	r2, [r3]	@ float
 5595              	.LVL397:
 860:GrannyChordApp.cpp **** }
 5596              		.loc 3 860 11 view .LVU1555
 5597              	.LBE1036:
 5598              	.LBE1038:
 890:GrannyChordApp.cpp ****       break;
 5599              		.loc 3 890 7 is_stmt 1 view .LVU1556
 890:GrannyChordApp.cpp ****       break;
 5600              		.loc 3 890 23 is_stmt 0 view .LVU1557
 5601 00c0 FFF7FEFF 		bl	_ZN5daisy6RgbLed6SetRedEf
 5602              	.LVL398:
 891:GrannyChordApp.cpp ****     default:
 5603              		.loc 3 891 7 is_stmt 1 view .LVU1558
 5604 00c4 B4E7     		b	.L252
 5605              	.L266:
 5606 00c6 00BF     		.align	2
 5607              	.L265:
 5608 00c8 3333333F 		.word	1060320051
 5609              		.cfi_endproc
 5610              	.LFE4950:
 5612              		.section	.rodata._ZN14GrannyChordApp17HandleStateChangeEv.str1.1,"aMS",%progbits,1
 5613              	.LC27:
 5614 0000 5265636F 		.ascii	"Recording in\000"
 5614      7264696E 
 5614      6720696E 
 5614      00
 5615              	.LC28:
 5616 000d 73746172 		.ascii	"started audiocallback\000"
 5616      74656420 
 5616      61756469 
 5616      6F63616C 
 5616      6C626163 
 5617              		.section	.text._ZN14GrannyChordApp17HandleStateChangeEv,"ax",%progbits
 5618              		.align	1
 5619              		.global	_ZN14GrannyChordApp17HandleStateChangeEv
 5620              		.syntax unified
 5621              		.thumb
 5622              		.thumb_func
 5624              	_ZN14GrannyChordApp17HandleStateChangeEv:
 5625              	.LVL399:
 5626              	.LFB4908:
 102:GrannyChordApp.cpp ****   switch(next_state_){
 5627              		.loc 3 102 41 view -0
 5628              		.cfi_startproc
 5629              		@ args = 0, pretend = 0, frame = 0
 5630              		@ frame_needed = 0, uses_anonymous_args = 0
 103:GrannyChordApp.cpp ****     case AppState::SelectFile:
 5631              		.loc 3 103 3 view .LVU1560
 5632 0000 D0F83C34 		ldr	r3, [r0, #1084]
 102:GrannyChordApp.cpp ****   switch(next_state_){
 5633              		.loc 3 102 41 is_stmt 0 view .LVU1561
 5634 0004 10B5     		push	{r4, lr}
 5635              		.cfi_def_cfa_offset 8
 5636              		.cfi_offset 4, -8
 5637              		.cfi_offset 14, -4
 102:GrannyChordApp.cpp ****   switch(next_state_){
ARM GAS  /var/folders/2p/02m_5p7958535cp2tpgps0400000gn/T//ccx9FAOt.s 			page 193


 5638              		.loc 3 102 41 view .LVU1562
 5639 0006 0446     		mov	r4, r0
 103:GrannyChordApp.cpp ****     case AppState::SelectFile:
 5640              		.loc 3 103 3 view .LVU1563
 5641 0008 052B     		cmp	r3, #5
 5642 000a 1ED8     		bhi	.L268
 5643 000c DFE803F0 		tbb	[pc, r3]
 5644              	.L270:
 5645 0010 03       		.byte	(.L274-.L270)/2
 5646 0011 11       		.byte	(.L273-.L270)/2
 5647 0012 15       		.byte	(.L272-.L270)/2
 5648 0013 0A       		.byte	(.L271-.L270)/2
 5649 0014 1D       		.byte	(.L268-.L270)/2
 5650 0015 22       		.byte	(.L269-.L270)/2
 5651              		.p2align 1
 5652              	.L274:
 104:GrannyChordApp.cpp ****       pod_.StopAudio();
 5653              		.loc 3 104 5 is_stmt 1 view .LVU1564
 105:GrannyChordApp.cpp ****       curr_state_ = AppState::SelectFile;
 5654              		.loc 3 105 7 view .LVU1565
 105:GrannyChordApp.cpp ****       curr_state_ = AppState::SelectFile;
 5655              		.loc 3 105 21 is_stmt 0 view .LVU1566
 5656 0016 C069     		ldr	r0, [r0, #28]
 5657              	.LVL400:
 105:GrannyChordApp.cpp ****       curr_state_ = AppState::SelectFile;
 5658              		.loc 3 105 21 view .LVU1567
 5659 0018 FFF7FEFF 		bl	_ZN5daisy8DaisyPod9StopAudioEv
 5660              	.LVL401:
 106:GrannyChordApp.cpp ****       break; 
 5661              		.loc 3 106 7 is_stmt 1 view .LVU1568
 106:GrannyChordApp.cpp ****       break; 
 5662              		.loc 3 106 19 is_stmt 0 view .LVU1569
 5663 001c 0023     		movs	r3, #0
 5664              	.L275:
 123:GrannyChordApp.cpp ****       break;
 5665              		.loc 3 123 19 view .LVU1570
 5666 001e C4F83834 		str	r3, [r4, #1080]
 124:GrannyChordApp.cpp ****     default: 
 5667              		.loc 3 124 7 is_stmt 1 view .LVU1571
 5668 0022 12E0     		b	.L268
 5669              	.LVL402:
 5670              	.L271:
 108:GrannyChordApp.cpp ****       InitRecordIn();
 5671              		.loc 3 108 5 view .LVU1572
 109:GrannyChordApp.cpp ****       DebugPrint(pod_, "Recording in");
 5672              		.loc 3 109 7 view .LVU1573
 109:GrannyChordApp.cpp ****       DebugPrint(pod_, "Recording in");
 5673              		.loc 3 109 19 is_stmt 0 view .LVU1574
 5674 0024 FFF7FEFF 		bl	_ZN14GrannyChordApp12InitRecordInEv
 5675              	.LVL403:
 110:GrannyChordApp.cpp ****       curr_state_ = AppState::RecordIn;  
 5676              		.loc 3 110 7 is_stmt 1 view .LVU1575
 110:GrannyChordApp.cpp ****       curr_state_ = AppState::RecordIn;  
 5677              		.loc 3 110 7 view .LVU1576
 5678              	.LBB1039:
 5679              	.LBI1039:
 126:../libDaisy/src/daisy_seed.h ****     {
ARM GAS  /var/folders/2p/02m_5p7958535cp2tpgps0400000gn/T//ccx9FAOt.s 			page 194


 5680              		.loc 5 126 17 view .LVU1577
 5681              	.LBB1040:
 5682              		.loc 5 128 23 is_stmt 0 view .LVU1578
 5683 0028 0B48     		ldr	r0, .L276
 5684 002a FFF7FEFF 		bl	_ZN5daisy6LoggerILNS_17LoggerDestinationE1EE9PrintLineEPKcz
 5685              	.LVL404:
 5686              		.loc 5 128 23 view .LVU1579
 5687              	.LBE1040:
 5688              	.LBE1039:
 111:GrannyChordApp.cpp ****       break;
 5689              		.loc 3 111 7 is_stmt 1 view .LVU1580
 111:GrannyChordApp.cpp ****       break;
 5690              		.loc 3 111 19 is_stmt 0 view .LVU1581
 5691 002e 0323     		movs	r3, #3
 5692 0030 F5E7     		b	.L275
 5693              	.LVL405:
 5694              	.L273:
 113:GrannyChordApp.cpp ****       InitPlayback(); 
 5695              		.loc 3 113 5 is_stmt 1 view .LVU1582
 114:GrannyChordApp.cpp ****       curr_state_ = AppState::PlayWAV;
 5696              		.loc 3 114 7 view .LVU1583
 114:GrannyChordApp.cpp ****       curr_state_ = AppState::PlayWAV;
 5697              		.loc 3 114 19 is_stmt 0 view .LVU1584
 5698 0032 FFF7FEFF 		bl	_ZN14GrannyChordApp12InitPlaybackEv
 5699              	.LVL406:
 115:GrannyChordApp.cpp ****       break;
 5700              		.loc 3 115 7 is_stmt 1 view .LVU1585
 115:GrannyChordApp.cpp ****       break;
 5701              		.loc 3 115 19 is_stmt 0 view .LVU1586
 5702 0036 0123     		movs	r3, #1
 5703 0038 F1E7     		b	.L275
 5704              	.LVL407:
 5705              	.L272:
 117:GrannyChordApp.cpp ****       InitSynth();
 5706              		.loc 3 117 5 is_stmt 1 view .LVU1587
 118:GrannyChordApp.cpp ****       curr_state_ = AppState::Synthesis;
 5707              		.loc 3 118 7 view .LVU1588
 118:GrannyChordApp.cpp ****       curr_state_ = AppState::Synthesis;
 5708              		.loc 3 118 16 is_stmt 0 view .LVU1589
 5709 003a FFF7FEFF 		bl	_ZN14GrannyChordApp9InitSynthEv
 5710              	.LVL408:
 119:GrannyChordApp.cpp ****       DebugPrint(pod_, "started audiocallback");
 5711              		.loc 3 119 7 is_stmt 1 view .LVU1590
 119:GrannyChordApp.cpp ****       DebugPrint(pod_, "started audiocallback");
 5712              		.loc 3 119 19 is_stmt 0 view .LVU1591
 5713 003e 0223     		movs	r3, #2
 5714              	.LBB1041:
 5715              	.LBB1042:
 5716              		.loc 5 128 23 view .LVU1592
 5717 0040 0648     		ldr	r0, .L276+4
 5718              	.LBE1042:
 5719              	.LBE1041:
 119:GrannyChordApp.cpp ****       DebugPrint(pod_, "started audiocallback");
 5720              		.loc 3 119 19 view .LVU1593
 5721 0042 C4F83834 		str	r3, [r4, #1080]
 120:GrannyChordApp.cpp ****       break;
 5722              		.loc 3 120 7 is_stmt 1 view .LVU1594
ARM GAS  /var/folders/2p/02m_5p7958535cp2tpgps0400000gn/T//ccx9FAOt.s 			page 195


 120:GrannyChordApp.cpp ****       break;
 5723              		.loc 3 120 7 view .LVU1595
 5724              	.LVL409:
 5725              	.LBB1044:
 5726              	.LBI1041:
 126:../libDaisy/src/daisy_seed.h ****     {
 5727              		.loc 5 126 17 view .LVU1596
 5728              	.LBB1043:
 5729              		.loc 5 128 23 is_stmt 0 view .LVU1597
 5730 0046 FFF7FEFF 		bl	_ZN5daisy6LoggerILNS_17LoggerDestinationE1EE9PrintLineEPKcz
 5731              	.LVL410:
 5732              	.L268:
 5733              		.loc 5 128 23 view .LVU1598
 5734              	.LBE1043:
 5735              	.LBE1044:
 128:GrannyChordApp.cpp **** }
 5736              		.loc 3 128 3 is_stmt 1 view .LVU1599
 128:GrannyChordApp.cpp **** }
 5737              		.loc 3 128 18 is_stmt 0 view .LVU1600
 5738 004a 2046     		mov	r0, r4
 129:GrannyChordApp.cpp **** 
 5739              		.loc 3 129 1 view .LVU1601
 5740 004c BDE81040 		pop	{r4, lr}
 5741              		.cfi_remember_state
 5742              		.cfi_restore 14
 5743              		.cfi_restore 4
 5744              		.cfi_def_cfa_offset 0
 5745              	.LVL411:
 128:GrannyChordApp.cpp **** }
 5746              		.loc 3 128 18 view .LVU1602
 5747 0050 FFF7FEBF 		b	_ZN14GrannyChordApp15SetLed1AppStateEv
 5748              	.LVL412:
 5749              	.L269:
 5750              		.cfi_restore_state
 122:GrannyChordApp.cpp ****       curr_state_ = AppState::Error;
 5751              		.loc 3 122 5 is_stmt 1 view .LVU1603
 123:GrannyChordApp.cpp ****       break;
 5752              		.loc 3 123 7 view .LVU1604
 123:GrannyChordApp.cpp ****       break;
 5753              		.loc 3 123 19 is_stmt 0 view .LVU1605
 5754 0054 0523     		movs	r3, #5
 5755 0056 E2E7     		b	.L275
 5756              	.L277:
 5757              		.align	2
 5758              	.L276:
 5759 0058 00000000 		.word	.LC27
 5760 005c 0D000000 		.word	.LC28
 5761              		.cfi_endproc
 5762              	.LFE4908:
 5764              		.section	.text._ZN14GrannyChordApp16SetLed1SynthModeEv,"ax",%progbits
 5765              		.align	1
 5766              		.global	_ZN14GrannyChordApp16SetLed1SynthModeEv
 5767              		.syntax unified
 5768              		.thumb
 5769              		.thumb_func
 5771              	_ZN14GrannyChordApp16SetLed1SynthModeEv:
 5772              	.LVL413:
ARM GAS  /var/folders/2p/02m_5p7958535cp2tpgps0400000gn/T//ccx9FAOt.s 			page 196


 5773              	.LFB4951:
 897:GrannyChordApp.cpp **** 
 898:GrannyChordApp.cpp **** /// @brief sets led 1 colours based on synth mode (regular param controls)
 899:GrannyChordApp.cpp **** void GrannyChordApp::SetLed1SynthMode(){
 5774              		.loc 3 899 40 is_stmt 1 view -0
 5775              		.cfi_startproc
 5776              		@ args = 0, pretend = 0, frame = 0
 5777              		@ frame_needed = 0, uses_anonymous_args = 0
 5778              		@ link register save eliminated.
 900:GrannyChordApp.cpp ****   if (curr_state_ == AppState::Synthesis){
 5779              		.loc 3 900 3 view .LVU1607
 5780 0000 D0F83834 		ldr	r3, [r0, #1080]
 5781 0004 022B     		cmp	r3, #2
 5782 0006 24D1     		bne	.L278
 5783              	.LVL414:
 5784              	.LBB1055:
 5785              	.LBI1055:
 899:GrannyChordApp.cpp ****   if (curr_state_ == AppState::Synthesis){
 5786              		.loc 3 899 6 view .LVU1608
 5787              	.LBB1056:
 901:GrannyChordApp.cpp ****     switch(curr_synth_mode_){
 5788              		.loc 3 901 5 view .LVU1609
 5789 0008 D0F84034 		ldr	r3, [r0, #1088]
 5790 000c 062B     		cmp	r3, #6
 5791 000e 20D8     		bhi	.L278
 5792 0010 DFE803F0 		tbb	[pc, r3]
 5793              	.L281:
 5794 0014 04       		.byte	(.L284-.L281)/2
 5795 0015 1F       		.byte	(.L278-.L281)/2
 5796 0016 11       		.byte	(.L283-.L281)/2
 5797 0017 1F       		.byte	(.L278-.L281)/2
 5798 0018 20       		.byte	(.L282-.L281)/2
 5799 0019 1F       		.byte	(.L278-.L281)/2
 5800 001a 2D       		.byte	(.L280-.L281)/2
 5801 001b 00       		.p2align 1
 5802              	.L284:
 902:GrannyChordApp.cpp ****       case SynthMode::Size_Position:
 5803              		.loc 3 902 7 view .LVU1610
 903:GrannyChordApp.cpp ****         SetRgb1(0, 0.7f, 0); /* green */
 5804              		.loc 3 903 9 view .LVU1611
 5805              	.LVL415:
 5806              	.LBB1057:
 5807              	.LBI1057:
 857:GrannyChordApp.cpp ****   rgb1_[0]= r;
 5808              		.loc 3 857 6 view .LVU1612
 5809              	.LBB1058:
 858:GrannyChordApp.cpp ****   rgb1_[1]= g;
 5810              		.loc 3 858 3 view .LVU1613
 858:GrannyChordApp.cpp ****   rgb1_[1]= g;
 5811              		.loc 3 858 11 is_stmt 0 view .LVU1614
 5812 001c 00F50040 		add	r0, r0, #32768
 5813              	.LVL416:
 858:GrannyChordApp.cpp ****   rgb1_[1]= g;
 5814              		.loc 3 858 11 view .LVU1615
 5815 0020 0023     		movs	r3, #0
 859:GrannyChordApp.cpp ****   rgb1_[2]= b;
 5816              		.loc 3 859 11 view .LVU1616
ARM GAS  /var/folders/2p/02m_5p7958535cp2tpgps0400000gn/T//ccx9FAOt.s 			page 197


 5817 0022 1849     		ldr	r1, .L287
 858:GrannyChordApp.cpp ****   rgb1_[1]= g;
 5818              		.loc 3 858 11 view .LVU1617
 5819 0024 00F69402 		addw	r2, r0, #2196
 5820 0028 1360     		str	r3, [r2]	@ float
 859:GrannyChordApp.cpp ****   rgb1_[2]= b;
 5821              		.loc 3 859 3 is_stmt 1 view .LVU1618
 859:GrannyChordApp.cpp ****   rgb1_[2]= b;
 5822              		.loc 3 859 11 is_stmt 0 view .LVU1619
 5823 002a 00F69802 		addw	r2, r0, #2200
 5824              	.LVL417:
 5825              	.L285:
 859:GrannyChordApp.cpp ****   rgb1_[2]= b;
 5826              		.loc 3 859 11 view .LVU1620
 5827              	.LBE1058:
 5828              	.LBE1057:
 5829              	.LBB1059:
 5830              	.LBB1060:
 860:GrannyChordApp.cpp **** }
 5831              		.loc 3 860 11 view .LVU1621
 5832 002e 00F69C00 		addw	r0, r0, #2204
 859:GrannyChordApp.cpp ****   rgb1_[2]= b;
 5833              		.loc 3 859 11 view .LVU1622
 5834 0032 1160     		str	r1, [r2]	@ float
 860:GrannyChordApp.cpp **** }
 5835              		.loc 3 860 3 is_stmt 1 view .LVU1623
 5836 0034 0CE0     		b	.L286
 5837              	.LVL418:
 5838              	.L283:
 860:GrannyChordApp.cpp **** }
 5839              		.loc 3 860 3 is_stmt 0 view .LVU1624
 5840              	.LBE1060:
 5841              	.LBE1059:
 904:GrannyChordApp.cpp ****         break;
 905:GrannyChordApp.cpp ****       case SynthMode::Pitch_ActiveGrains:
 5842              		.loc 3 905 7 is_stmt 1 view .LVU1625
 906:GrannyChordApp.cpp ****         SetRgb1(0.9f, 0.6f, 0); /* orange */
 5843              		.loc 3 906 9 view .LVU1626
 5844              	.LBB1063:
 5845              	.LBI1063:
 857:GrannyChordApp.cpp ****   rgb1_[0]= r;
 5846              		.loc 3 857 6 view .LVU1627
 5847              	.LBB1064:
 858:GrannyChordApp.cpp ****   rgb1_[1]= g;
 5848              		.loc 3 858 3 view .LVU1628
 858:GrannyChordApp.cpp ****   rgb1_[1]= g;
 5849              		.loc 3 858 11 is_stmt 0 view .LVU1629
 5850 0036 00F50040 		add	r0, r0, #32768
 5851              	.LVL419:
 858:GrannyChordApp.cpp ****   rgb1_[1]= g;
 5852              		.loc 3 858 11 view .LVU1630
 5853 003a 134A     		ldr	r2, .L287+4
 5854 003c 00F69403 		addw	r3, r0, #2196
 5855 0040 1A60     		str	r2, [r3]	@ float
 859:GrannyChordApp.cpp ****   rgb1_[2]= b;
 5856              		.loc 3 859 3 is_stmt 1 view .LVU1631
 859:GrannyChordApp.cpp ****   rgb1_[2]= b;
ARM GAS  /var/folders/2p/02m_5p7958535cp2tpgps0400000gn/T//ccx9FAOt.s 			page 198


 5857              		.loc 3 859 11 is_stmt 0 view .LVU1632
 5858 0042 00F69803 		addw	r3, r0, #2200
 5859 0046 114A     		ldr	r2, .L287+8
 860:GrannyChordApp.cpp **** }
 5860              		.loc 3 860 11 view .LVU1633
 5861 0048 00F69C00 		addw	r0, r0, #2204
 5862              	.LVL420:
 859:GrannyChordApp.cpp ****   rgb1_[2]= b;
 5863              		.loc 3 859 11 view .LVU1634
 5864 004c 1A60     		str	r2, [r3]	@ float
 860:GrannyChordApp.cpp **** }
 5865              		.loc 3 860 3 is_stmt 1 view .LVU1635
 860:GrannyChordApp.cpp **** }
 5866              		.loc 3 860 11 is_stmt 0 view .LVU1636
 5867 004e 0023     		movs	r3, #0
 5868              	.LVL421:
 5869              	.L286:
 860:GrannyChordApp.cpp **** }
 5870              		.loc 3 860 11 view .LVU1637
 5871              	.LBE1064:
 5872              	.LBE1063:
 5873              	.LBB1065:
 5874              	.LBB1061:
 5875 0050 0360     		str	r3, [r0]	@ float
 5876              	.LVL422:
 5877              	.L278:
 860:GrannyChordApp.cpp **** }
 5878              		.loc 3 860 11 view .LVU1638
 5879              	.LBE1061:
 5880              	.LBE1065:
 5881              	.LBE1056:
 5882              	.LBE1055:
 907:GrannyChordApp.cpp ****         break;
 908:GrannyChordApp.cpp ****       case SynthMode::PhasorMode_EnvType:
 909:GrannyChordApp.cpp ****         SetRgb1(0, 0, 0.7f); /* blue */
 910:GrannyChordApp.cpp ****         break;
 911:GrannyChordApp.cpp ****       case SynthMode::Pan_PanRnd:
 912:GrannyChordApp.cpp ****         SetRgb1(0.7f, 0, 0.7f); /* pink */
 913:GrannyChordApp.cpp ****         break;
 914:GrannyChordApp.cpp ****       default:
 915:GrannyChordApp.cpp ****         break;
 916:GrannyChordApp.cpp ****     }
 917:GrannyChordApp.cpp ****   }
 918:GrannyChordApp.cpp **** }
 5883              		.loc 3 918 1 view .LVU1639
 5884 0052 7047     		bx	lr
 5885              	.LVL423:
 5886              	.L282:
 5887              	.LBB1070:
 5888              	.LBB1069:
 908:GrannyChordApp.cpp ****         SetRgb1(0, 0, 0.7f); /* blue */
 5889              		.loc 3 908 7 is_stmt 1 view .LVU1640
 909:GrannyChordApp.cpp ****         break;
 5890              		.loc 3 909 9 view .LVU1641
 5891              	.LBB1066:
 5892              	.LBI1066:
 857:GrannyChordApp.cpp ****   rgb1_[0]= r;
ARM GAS  /var/folders/2p/02m_5p7958535cp2tpgps0400000gn/T//ccx9FAOt.s 			page 199


 5893              		.loc 3 857 6 view .LVU1642
 5894              	.LBB1067:
 858:GrannyChordApp.cpp ****   rgb1_[1]= g;
 5895              		.loc 3 858 3 view .LVU1643
 858:GrannyChordApp.cpp ****   rgb1_[1]= g;
 5896              		.loc 3 858 11 is_stmt 0 view .LVU1644
 5897 0054 00F50040 		add	r0, r0, #32768
 5898              	.LVL424:
 858:GrannyChordApp.cpp ****   rgb1_[1]= g;
 5899              		.loc 3 858 11 view .LVU1645
 5900 0058 0023     		movs	r3, #0
 5901 005a 00F69402 		addw	r2, r0, #2196
 5902 005e 1360     		str	r3, [r2]	@ float
 859:GrannyChordApp.cpp ****   rgb1_[2]= b;
 5903              		.loc 3 859 3 is_stmt 1 view .LVU1646
 859:GrannyChordApp.cpp ****   rgb1_[2]= b;
 5904              		.loc 3 859 11 is_stmt 0 view .LVU1647
 5905 0060 00F69802 		addw	r2, r0, #2200
 860:GrannyChordApp.cpp **** }
 5906              		.loc 3 860 11 view .LVU1648
 5907 0064 00F69C00 		addw	r0, r0, #2204
 5908              	.LVL425:
 859:GrannyChordApp.cpp ****   rgb1_[2]= b;
 5909              		.loc 3 859 11 view .LVU1649
 5910 0068 1360     		str	r3, [r2]	@ float
 860:GrannyChordApp.cpp **** }
 5911              		.loc 3 860 3 is_stmt 1 view .LVU1650
 860:GrannyChordApp.cpp **** }
 5912              		.loc 3 860 11 is_stmt 0 view .LVU1651
 5913 006a 064B     		ldr	r3, .L287
 5914 006c F0E7     		b	.L286
 5915              	.LVL426:
 5916              	.L280:
 860:GrannyChordApp.cpp **** }
 5917              		.loc 3 860 11 view .LVU1652
 5918              	.LBE1067:
 5919              	.LBE1066:
 911:GrannyChordApp.cpp ****         SetRgb1(0.7f, 0, 0.7f); /* pink */
 5920              		.loc 3 911 7 is_stmt 1 view .LVU1653
 912:GrannyChordApp.cpp ****         break;
 5921              		.loc 3 912 9 view .LVU1654
 5922              	.LBB1068:
 5923              	.LBI1059:
 857:GrannyChordApp.cpp ****   rgb1_[0]= r;
 5924              		.loc 3 857 6 view .LVU1655
 5925              	.LBB1062:
 858:GrannyChordApp.cpp ****   rgb1_[1]= g;
 5926              		.loc 3 858 3 view .LVU1656
 858:GrannyChordApp.cpp ****   rgb1_[1]= g;
 5927              		.loc 3 858 11 is_stmt 0 view .LVU1657
 5928 006e 00F50040 		add	r0, r0, #32768
 5929              	.LVL427:
 858:GrannyChordApp.cpp ****   rgb1_[1]= g;
 5930              		.loc 3 858 11 view .LVU1658
 5931 0072 044B     		ldr	r3, .L287
 859:GrannyChordApp.cpp ****   rgb1_[2]= b;
 5932              		.loc 3 859 11 view .LVU1659
ARM GAS  /var/folders/2p/02m_5p7958535cp2tpgps0400000gn/T//ccx9FAOt.s 			page 200


 5933 0074 0021     		movs	r1, #0
 858:GrannyChordApp.cpp ****   rgb1_[1]= g;
 5934              		.loc 3 858 11 view .LVU1660
 5935 0076 00F69402 		addw	r2, r0, #2196
 5936 007a 1360     		str	r3, [r2]	@ float
 859:GrannyChordApp.cpp ****   rgb1_[2]= b;
 5937              		.loc 3 859 3 is_stmt 1 view .LVU1661
 859:GrannyChordApp.cpp ****   rgb1_[2]= b;
 5938              		.loc 3 859 11 is_stmt 0 view .LVU1662
 5939 007c 00F69802 		addw	r2, r0, #2200
 5940 0080 D5E7     		b	.L285
 5941              	.L288:
 5942 0082 00BF     		.align	2
 5943              	.L287:
 5944 0084 3333333F 		.word	1060320051
 5945 0088 6666663F 		.word	1063675494
 5946 008c 9A99193F 		.word	1058642330
 5947              	.LBE1062:
 5948              	.LBE1068:
 5949              	.LBE1069:
 5950              	.LBE1070:
 5951              		.cfi_endproc
 5952              	.LFE4951:
 5954              		.section	.rodata._ZN14GrannyChordApp15UpdateSynthModeEv.str1.1,"aMS",%progbits,1
 5955              	.LC29:
 5956 0000 6E657874 		.ascii	"next synth mode\000"
 5956      2073796E 
 5956      7468206D 
 5956      6F646500 
 5957              		.section	.text._ZN14GrannyChordApp15UpdateSynthModeEv,"ax",%progbits
 5958              		.align	1
 5959              		.global	_ZN14GrannyChordApp15UpdateSynthModeEv
 5960              		.syntax unified
 5961              		.thumb
 5962              		.thumb_func
 5964              	_ZN14GrannyChordApp15UpdateSynthModeEv:
 5965              	.LVL428:
 5966              	.LFB4918:
 308:GrannyChordApp.cpp ****   DebugPrint(pod_, "next synth mode");
 5967              		.loc 3 308 39 is_stmt 1 view -0
 5968              		.cfi_startproc
 5969              		@ args = 0, pretend = 0, frame = 0
 5970              		@ frame_needed = 0, uses_anonymous_args = 0
 309:GrannyChordApp.cpp ****   switch(curr_synth_mode_){
 5971              		.loc 3 309 3 view .LVU1664
 309:GrannyChordApp.cpp ****   switch(curr_synth_mode_){
 5972              		.loc 3 309 3 view .LVU1665
 5973              	.LBB1071:
 5974              	.LBI1071:
 126:../libDaisy/src/daisy_seed.h ****     {
 5975              		.loc 5 126 17 view .LVU1666
 5976              	.LBE1071:
 308:GrannyChordApp.cpp ****   DebugPrint(pod_, "next synth mode");
 5977              		.loc 3 308 39 is_stmt 0 view .LVU1667
 5978 0000 10B5     		push	{r4, lr}
 5979              		.cfi_def_cfa_offset 8
 5980              		.cfi_offset 4, -8
ARM GAS  /var/folders/2p/02m_5p7958535cp2tpgps0400000gn/T//ccx9FAOt.s 			page 201


 5981              		.cfi_offset 14, -4
 308:GrannyChordApp.cpp ****   DebugPrint(pod_, "next synth mode");
 5982              		.loc 3 308 39 view .LVU1668
 5983 0002 0446     		mov	r4, r0
 5984              	.LBB1073:
 5985              	.LBB1072:
 5986              		.loc 5 128 23 view .LVU1669
 5987 0004 1148     		ldr	r0, .L297
 5988              	.LVL429:
 5989              		.loc 5 128 23 view .LVU1670
 5990 0006 FFF7FEFF 		bl	_ZN5daisy6LoggerILNS_17LoggerDestinationE1EE9PrintLineEPKcz
 5991              	.LVL430:
 5992              		.loc 5 128 23 view .LVU1671
 5993              	.LBE1072:
 5994              	.LBE1073:
 310:GrannyChordApp.cpp ****     case SynthMode::Size_Position:
 5995              		.loc 3 310 3 is_stmt 1 view .LVU1672
 5996 000a D4F84034 		ldr	r3, [r4, #1088]
 5997 000e 062B     		cmp	r3, #6
 5998 0010 08D8     		bhi	.L290
 5999 0012 DFE803F0 		tbb	[pc, r3]
 6000              	.L292:
 6001 0016 04       		.byte	(.L295-.L292)/2
 6002 0017 07       		.byte	(.L290-.L292)/2
 6003 0018 14       		.byte	(.L294-.L292)/2
 6004 0019 07       		.byte	(.L290-.L292)/2
 6005 001a 16       		.byte	(.L293-.L292)/2
 6006 001b 07       		.byte	(.L290-.L292)/2
 6007 001c 18       		.byte	(.L291-.L292)/2
 6008 001d 00       		.p2align 1
 6009              	.L295:
 311:GrannyChordApp.cpp ****       curr_synth_mode_ = SynthMode::Pitch_ActiveGrains;
 6010              		.loc 3 311 5 view .LVU1673
 312:GrannyChordApp.cpp ****       break;
 6011              		.loc 3 312 7 view .LVU1674
 312:GrannyChordApp.cpp ****       break;
 6012              		.loc 3 312 24 is_stmt 0 view .LVU1675
 6013 001e 0223     		movs	r3, #2
 6014              	.L296:
 321:GrannyChordApp.cpp ****       break;
 6015              		.loc 3 321 24 view .LVU1676
 6016 0020 C4F84034 		str	r3, [r4, #1088]
 322:GrannyChordApp.cpp ****     default:
 6017              		.loc 3 322 7 is_stmt 1 view .LVU1677
 6018              	.L290:
 326:GrannyChordApp.cpp **** 
 6019              		.loc 3 326 3 view .LVU1678
 326:GrannyChordApp.cpp **** 
 6020              		.loc 3 326 17 is_stmt 0 view .LVU1679
 6021 0024 D4F84014 		ldr	r1, [r4, #1088]
 6022 0028 2046     		mov	r0, r4
 6023 002a FFF7FEFF 		bl	_ZN14GrannyChordApp14DebugPrintModeE9SynthMode
 6024              	.LVL431:
 328:GrannyChordApp.cpp ****   SetLed1SynthMode();
 6025              		.loc 3 328 3 is_stmt 1 view .LVU1680
 328:GrannyChordApp.cpp ****   SetLed1SynthMode();
 6026              		.loc 3 328 16 is_stmt 0 view .LVU1681
ARM GAS  /var/folders/2p/02m_5p7958535cp2tpgps0400000gn/T//ccx9FAOt.s 			page 202


 6027 002e 2046     		mov	r0, r4
 6028 0030 FFF7FEFF 		bl	_ZN14GrannyChordApp13ResetPassThruEv
 6029              	.LVL432:
 329:GrannyChordApp.cpp **** }
 6030              		.loc 3 329 3 is_stmt 1 view .LVU1682
 329:GrannyChordApp.cpp **** }
 6031              		.loc 3 329 19 is_stmt 0 view .LVU1683
 6032 0034 2046     		mov	r0, r4
 330:GrannyChordApp.cpp **** 
 6033              		.loc 3 330 1 view .LVU1684
 6034 0036 BDE81040 		pop	{r4, lr}
 6035              		.cfi_remember_state
 6036              		.cfi_restore 14
 6037              		.cfi_restore 4
 6038              		.cfi_def_cfa_offset 0
 6039              	.LVL433:
 329:GrannyChordApp.cpp **** }
 6040              		.loc 3 329 19 view .LVU1685
 6041 003a FFF7FEBF 		b	_ZN14GrannyChordApp16SetLed1SynthModeEv
 6042              	.LVL434:
 6043              	.L294:
 6044              		.cfi_restore_state
 314:GrannyChordApp.cpp ****       curr_synth_mode_ = SynthMode::PhasorMode_EnvType;
 6045              		.loc 3 314 5 is_stmt 1 view .LVU1686
 315:GrannyChordApp.cpp ****       break;
 6046              		.loc 3 315 7 view .LVU1687
 315:GrannyChordApp.cpp ****       break;
 6047              		.loc 3 315 24 is_stmt 0 view .LVU1688
 6048 003e 0423     		movs	r3, #4
 6049 0040 EEE7     		b	.L296
 6050              	.L293:
 317:GrannyChordApp.cpp ****       curr_synth_mode_ = SynthMode::Pan_PanRnd;
 6051              		.loc 3 317 5 is_stmt 1 view .LVU1689
 318:GrannyChordApp.cpp ****       break;
 6052              		.loc 3 318 7 view .LVU1690
 318:GrannyChordApp.cpp ****       break;
 6053              		.loc 3 318 24 is_stmt 0 view .LVU1691
 6054 0042 0623     		movs	r3, #6
 6055 0044 ECE7     		b	.L296
 6056              	.L291:
 320:GrannyChordApp.cpp ****       curr_synth_mode_ = SynthMode::Size_Position;
 6057              		.loc 3 320 5 is_stmt 1 view .LVU1692
 321:GrannyChordApp.cpp ****       break;
 6058              		.loc 3 321 7 view .LVU1693
 321:GrannyChordApp.cpp ****       break;
 6059              		.loc 3 321 24 is_stmt 0 view .LVU1694
 6060 0046 0023     		movs	r3, #0
 6061 0048 EAE7     		b	.L296
 6062              	.L298:
 6063 004a 00BF     		.align	2
 6064              	.L297:
 6065 004c 00000000 		.word	.LC29
 6066              		.cfi_endproc
 6067              	.LFE4918:
 6069              		.section	.text._ZN14GrannyChordApp13HandleButton1Ev,"ax",%progbits
 6070              		.align	1
 6071              		.global	_ZN14GrannyChordApp13HandleButton1Ev
ARM GAS  /var/folders/2p/02m_5p7958535cp2tpgps0400000gn/T//ccx9FAOt.s 			page 203


 6072              		.syntax unified
 6073              		.thumb
 6074              		.thumb_func
 6076              	_ZN14GrannyChordApp13HandleButton1Ev:
 6077              	.LVL435:
 6078              	.LFB4913:
 271:GrannyChordApp.cpp ****   if (curr_synth_mode_!=SynthMode::Reverb &&
 6079              		.loc 3 271 37 is_stmt 1 view -0
 6080              		.cfi_startproc
 6081              		@ args = 0, pretend = 0, frame = 0
 6082              		@ frame_needed = 0, uses_anonymous_args = 0
 6083              		@ link register save eliminated.
 272:GrannyChordApp.cpp ****       curr_synth_mode_!=SynthMode::Filter)
 6084              		.loc 3 272 3 view .LVU1696
 272:GrannyChordApp.cpp ****       curr_synth_mode_!=SynthMode::Filter)
 6085              		.loc 3 272 43 is_stmt 0 view .LVU1697
 6086 0000 D0F84034 		ldr	r3, [r0, #1088]
 6087 0004 073B     		subs	r3, r3, #7
 272:GrannyChordApp.cpp ****       curr_synth_mode_!=SynthMode::Filter)
 6088              		.loc 3 272 3 view .LVU1698
 6089 0006 012B     		cmp	r3, #1
 6090 0008 01D9     		bls	.L299
 275:GrannyChordApp.cpp ****   }
 6091              		.loc 3 275 5 is_stmt 1 view .LVU1699
 275:GrannyChordApp.cpp ****   }
 6092              		.loc 3 275 20 is_stmt 0 view .LVU1700
 6093 000a FFF7FEBF 		b	_ZN14GrannyChordApp15UpdateSynthModeEv
 6094              	.LVL436:
 6095              	.L299:
 277:GrannyChordApp.cpp **** 
 6096              		.loc 3 277 1 view .LVU1701
 6097 000e 7047     		bx	lr
 6098              		.cfi_endproc
 6099              	.LFE4913:
 6101              		.section	.text._ZN14GrannyChordApp7SetLed2Ev,"ax",%progbits
 6102              		.align	1
 6103              		.global	_ZN14GrannyChordApp7SetLed2Ev
 6104              		.syntax unified
 6105              		.thumb
 6106              		.thumb_func
 6108              	_ZN14GrannyChordApp7SetLed2Ev:
 6109              	.LVL437:
 6110              	.LFB4952:
 919:GrannyChordApp.cpp **** 
 920:GrannyChordApp.cpp **** /// @brief sets led 2 colours based on synth mode (random, regular or FX)
 921:GrannyChordApp.cpp **** void GrannyChordApp::SetLed2(){
 6111              		.loc 3 921 31 is_stmt 1 view -0
 6112              		.cfi_startproc
 6113              		@ args = 0, pretend = 0, frame = 0
 6114              		@ frame_needed = 0, uses_anonymous_args = 0
 6115              		@ link register save eliminated.
 922:GrannyChordApp.cpp ****   if (curr_state_==AppState::Synthesis){
 6116              		.loc 3 922 3 view .LVU1703
 6117 0000 D0F83834 		ldr	r3, [r0, #1080]
 6118 0004 022B     		cmp	r3, #2
 6119 0006 17D1     		bne	.L301
 6120              	.LVL438:
ARM GAS  /var/folders/2p/02m_5p7958535cp2tpgps0400000gn/T//ccx9FAOt.s 			page 204


 6121              	.LBB1084:
 6122              	.LBI1084:
 921:GrannyChordApp.cpp ****   if (curr_state_==AppState::Synthesis){
 6123              		.loc 3 921 6 view .LVU1704
 6124              	.LBB1085:
 923:GrannyChordApp.cpp ****     switch(curr_synth_mode_){
 6125              		.loc 3 923 5 view .LVU1705
 6126 0008 D0F84034 		ldr	r3, [r0, #1088]
 6127 000c 082B     		cmp	r3, #8
 6128 000e 13D8     		bhi	.L301
 6129 0010 DFE803F0 		tbb	[pc, r3]
 6130              	.L304:
 6131 0014 05       		.byte	(.L306-.L304)/2
 6132 0015 13       		.byte	(.L307-.L304)/2
 6133 0016 05       		.byte	(.L306-.L304)/2
 6134 0017 13       		.byte	(.L307-.L304)/2
 6135 0018 05       		.byte	(.L306-.L304)/2
 6136 0019 13       		.byte	(.L307-.L304)/2
 6137 001a 05       		.byte	(.L306-.L304)/2
 6138 001b 1E       		.byte	(.L305-.L304)/2
 6139 001c 28       		.byte	(.L303-.L304)/2
 6140 001d 00       		.p2align 1
 6141              	.L306:
 924:GrannyChordApp.cpp ****       case SynthMode::Size_Position:
 6142              		.loc 3 924 7 view .LVU1706
 925:GrannyChordApp.cpp ****       case SynthMode::Pitch_ActiveGrains:
 6143              		.loc 3 925 7 view .LVU1707
 926:GrannyChordApp.cpp ****       case SynthMode::PhasorMode_EnvType:
 6144              		.loc 3 926 7 view .LVU1708
 927:GrannyChordApp.cpp ****       case SynthMode::Pan_PanRnd:
 6145              		.loc 3 927 7 view .LVU1709
 928:GrannyChordApp.cpp ****         SetRgb2(0, 0.7f, 0); /* green for regular mode */
 6146              		.loc 3 928 9 view .LVU1710
 6147              	.LVL439:
 6148              	.LBB1086:
 6149              	.LBI1086:
 864:GrannyChordApp.cpp ****   rgb2_[0]= r;
 6150              		.loc 3 864 6 view .LVU1711
 6151              	.LBB1087:
 865:GrannyChordApp.cpp ****   rgb2_[1]= g;
 6152              		.loc 3 865 3 view .LVU1712
 865:GrannyChordApp.cpp ****   rgb2_[1]= g;
 6153              		.loc 3 865 11 is_stmt 0 view .LVU1713
 6154 001e 00F50040 		add	r0, r0, #32768
 6155              	.LVL440:
 865:GrannyChordApp.cpp ****   rgb2_[1]= g;
 6156              		.loc 3 865 11 view .LVU1714
 6157 0022 0023     		movs	r3, #0
 866:GrannyChordApp.cpp ****   rgb2_[2]= b;
 6158              		.loc 3 866 11 view .LVU1715
 6159 0024 1649     		ldr	r1, .L311
 865:GrannyChordApp.cpp ****   rgb2_[1]= g;
 6160              		.loc 3 865 11 view .LVU1716
 6161 0026 00F50A62 		add	r2, r0, #2208
 6162 002a 1360     		str	r3, [r2]	@ float
 866:GrannyChordApp.cpp ****   rgb2_[2]= b;
 6163              		.loc 3 866 3 is_stmt 1 view .LVU1717
ARM GAS  /var/folders/2p/02m_5p7958535cp2tpgps0400000gn/T//ccx9FAOt.s 			page 205


 866:GrannyChordApp.cpp ****   rgb2_[2]= b;
 6164              		.loc 3 866 11 is_stmt 0 view .LVU1718
 6165 002c 00F6A402 		addw	r2, r0, #2212
 6166 0030 1160     		str	r1, [r2]	@ float
 867:GrannyChordApp.cpp **** }
 6167              		.loc 3 867 3 is_stmt 1 view .LVU1719
 6168              	.LVL441:
 6169              	.L309:
 867:GrannyChordApp.cpp **** }
 6170              		.loc 3 867 3 is_stmt 0 view .LVU1720
 6171              	.LBE1087:
 6172              	.LBE1086:
 6173              	.LBB1088:
 6174              	.LBB1089:
 867:GrannyChordApp.cpp **** }
 6175              		.loc 3 867 3 is_stmt 1 view .LVU1721
 867:GrannyChordApp.cpp **** }
 6176              		.loc 3 867 11 is_stmt 0 view .LVU1722
 6177 0032 00F6A800 		addw	r0, r0, #2216
 6178              	.L308:
 6179              	.LBE1089:
 6180              	.LBE1088:
 6181              	.LBB1092:
 6182              	.LBB1093:
 6183 0036 0360     		str	r3, [r0]	@ float
 6184              	.LBE1093:
 6185              	.LBE1092:
 929:GrannyChordApp.cpp ****         return;
 930:GrannyChordApp.cpp ****       case SynthMode::Size_Position_Rnd:
 931:GrannyChordApp.cpp ****       case SynthMode::Pitch_ActiveGrains_Rnd:
 932:GrannyChordApp.cpp ****       case SynthMode::PhasorMode_EnvType_Rnd:
 933:GrannyChordApp.cpp ****         SetRgb2(0.7f, 0, 0); /* red for random mode */
 934:GrannyChordApp.cpp ****         return;
 935:GrannyChordApp.cpp ****       case SynthMode::Reverb:
 936:GrannyChordApp.cpp ****         SetRgb2(0,0.7f,0.7f); /* cyan for reverb */
 937:GrannyChordApp.cpp ****         return;
 938:GrannyChordApp.cpp ****       case SynthMode::Filter:
 939:GrannyChordApp.cpp ****         SetRgb2(0.9f,0.9f,0); /* yellow for filter */
 940:GrannyChordApp.cpp ****         return;
 6186              		.loc 3 940 9 is_stmt 1 view .LVU1723
 6187              	.LVL442:
 6188              	.L301:
 6189              		.loc 3 940 9 is_stmt 0 view .LVU1724
 6190              	.LBE1085:
 6191              	.LBE1084:
 941:GrannyChordApp.cpp ****     }
 942:GrannyChordApp.cpp ****   }
 943:GrannyChordApp.cpp **** }
 6192              		.loc 3 943 1 view .LVU1725
 6193 0038 7047     		bx	lr
 6194              	.LVL443:
 6195              	.L307:
 6196              	.LBB1101:
 6197              	.LBB1100:
 930:GrannyChordApp.cpp ****       case SynthMode::Pitch_ActiveGrains_Rnd:
 6198              		.loc 3 930 7 is_stmt 1 view .LVU1726
 931:GrannyChordApp.cpp ****       case SynthMode::PhasorMode_EnvType_Rnd:
ARM GAS  /var/folders/2p/02m_5p7958535cp2tpgps0400000gn/T//ccx9FAOt.s 			page 206


 6199              		.loc 3 931 7 view .LVU1727
 932:GrannyChordApp.cpp ****         SetRgb2(0.7f, 0, 0); /* red for random mode */
 6200              		.loc 3 932 7 view .LVU1728
 933:GrannyChordApp.cpp ****         return;
 6201              		.loc 3 933 9 view .LVU1729
 6202              	.LBB1095:
 6203              	.LBI1095:
 864:GrannyChordApp.cpp ****   rgb2_[0]= r;
 6204              		.loc 3 864 6 view .LVU1730
 6205              	.LBB1096:
 865:GrannyChordApp.cpp ****   rgb2_[1]= g;
 6206              		.loc 3 865 3 view .LVU1731
 865:GrannyChordApp.cpp ****   rgb2_[1]= g;
 6207              		.loc 3 865 11 is_stmt 0 view .LVU1732
 6208 003a 00F50040 		add	r0, r0, #32768
 6209              	.LVL444:
 865:GrannyChordApp.cpp ****   rgb2_[1]= g;
 6210              		.loc 3 865 11 view .LVU1733
 6211 003e 104A     		ldr	r2, .L311
 6212 0040 00F50A63 		add	r3, r0, #2208
 6213 0044 1A60     		str	r2, [r3]	@ float
 866:GrannyChordApp.cpp ****   rgb2_[2]= b;
 6214              		.loc 3 866 3 is_stmt 1 view .LVU1734
 866:GrannyChordApp.cpp ****   rgb2_[2]= b;
 6215              		.loc 3 866 11 is_stmt 0 view .LVU1735
 6216 0046 00F6A402 		addw	r2, r0, #2212
 6217 004a 0023     		movs	r3, #0
 6218              	.LVL445:
 6219              	.L310:
 866:GrannyChordApp.cpp ****   rgb2_[2]= b;
 6220              		.loc 3 866 11 view .LVU1736
 6221              	.LBE1096:
 6222              	.LBE1095:
 6223              	.LBB1097:
 6224              	.LBB1090:
 6225 004c 1360     		str	r3, [r2]	@ float
 6226 004e F0E7     		b	.L309
 6227              	.LVL446:
 6228              	.L305:
 866:GrannyChordApp.cpp ****   rgb2_[2]= b;
 6229              		.loc 3 866 11 view .LVU1737
 6230              	.LBE1090:
 6231              	.LBE1097:
 935:GrannyChordApp.cpp ****         SetRgb2(0,0.7f,0.7f); /* cyan for reverb */
 6232              		.loc 3 935 7 is_stmt 1 view .LVU1738
 936:GrannyChordApp.cpp ****         return;
 6233              		.loc 3 936 9 view .LVU1739
 6234              	.LBB1098:
 6235              	.LBI1088:
 864:GrannyChordApp.cpp ****   rgb2_[0]= r;
 6236              		.loc 3 864 6 view .LVU1740
 6237              	.LBB1091:
 865:GrannyChordApp.cpp ****   rgb2_[1]= g;
 6238              		.loc 3 865 3 view .LVU1741
 865:GrannyChordApp.cpp ****   rgb2_[1]= g;
 6239              		.loc 3 865 11 is_stmt 0 view .LVU1742
 6240 0050 00F50040 		add	r0, r0, #32768
ARM GAS  /var/folders/2p/02m_5p7958535cp2tpgps0400000gn/T//ccx9FAOt.s 			page 207


 6241              	.LVL447:
 865:GrannyChordApp.cpp ****   rgb2_[1]= g;
 6242              		.loc 3 865 11 view .LVU1743
 6243 0054 0022     		movs	r2, #0
 6244 0056 00F50A63 		add	r3, r0, #2208
 6245 005a 1A60     		str	r2, [r3]	@ float
 866:GrannyChordApp.cpp ****   rgb2_[2]= b;
 6246              		.loc 3 866 3 is_stmt 1 view .LVU1744
 866:GrannyChordApp.cpp ****   rgb2_[2]= b;
 6247              		.loc 3 866 11 is_stmt 0 view .LVU1745
 6248 005c 00F6A402 		addw	r2, r0, #2212
 6249 0060 074B     		ldr	r3, .L311
 6250 0062 F3E7     		b	.L310
 6251              	.LVL448:
 6252              	.L303:
 866:GrannyChordApp.cpp ****   rgb2_[2]= b;
 6253              		.loc 3 866 11 view .LVU1746
 6254              	.LBE1091:
 6255              	.LBE1098:
 938:GrannyChordApp.cpp ****         SetRgb2(0.9f,0.9f,0); /* yellow for filter */
 6256              		.loc 3 938 7 is_stmt 1 view .LVU1747
 939:GrannyChordApp.cpp ****         return;
 6257              		.loc 3 939 9 view .LVU1748
 6258              	.LBB1099:
 6259              	.LBI1092:
 864:GrannyChordApp.cpp ****   rgb2_[0]= r;
 6260              		.loc 3 864 6 view .LVU1749
 6261              	.LBB1094:
 865:GrannyChordApp.cpp ****   rgb2_[1]= g;
 6262              		.loc 3 865 3 view .LVU1750
 865:GrannyChordApp.cpp ****   rgb2_[1]= g;
 6263              		.loc 3 865 11 is_stmt 0 view .LVU1751
 6264 0064 00F50040 		add	r0, r0, #32768
 6265              	.LVL449:
 865:GrannyChordApp.cpp ****   rgb2_[1]= g;
 6266              		.loc 3 865 11 view .LVU1752
 6267 0068 064B     		ldr	r3, .L311+4
 6268 006a 00F50A62 		add	r2, r0, #2208
 6269 006e 1360     		str	r3, [r2]	@ float
 866:GrannyChordApp.cpp ****   rgb2_[2]= b;
 6270              		.loc 3 866 3 is_stmt 1 view .LVU1753
 866:GrannyChordApp.cpp ****   rgb2_[2]= b;
 6271              		.loc 3 866 11 is_stmt 0 view .LVU1754
 6272 0070 00F6A402 		addw	r2, r0, #2212
 867:GrannyChordApp.cpp **** }
 6273              		.loc 3 867 11 view .LVU1755
 6274 0074 00F6A800 		addw	r0, r0, #2216
 6275              	.LVL450:
 866:GrannyChordApp.cpp ****   rgb2_[2]= b;
 6276              		.loc 3 866 11 view .LVU1756
 6277 0078 1360     		str	r3, [r2]	@ float
 867:GrannyChordApp.cpp **** }
 6278              		.loc 3 867 3 is_stmt 1 view .LVU1757
 867:GrannyChordApp.cpp **** }
 6279              		.loc 3 867 11 is_stmt 0 view .LVU1758
 6280 007a 0023     		movs	r3, #0
 6281 007c DBE7     		b	.L308
ARM GAS  /var/folders/2p/02m_5p7958535cp2tpgps0400000gn/T//ccx9FAOt.s 			page 208


 6282              	.L312:
 6283 007e 00BF     		.align	2
 6284              	.L311:
 6285 0080 3333333F 		.word	1060320051
 6286 0084 6666663F 		.word	1063675494
 6287              	.LBE1094:
 6288              	.LBE1099:
 6289              	.LBE1100:
 6290              	.LBE1101:
 6291              		.cfi_endproc
 6292              	.LFE4952:
 6294              		.section	.rodata._ZN14GrannyChordApp24ToggleRandomnessControlsEv.str1.1,"aMS",%progbits,1
 6295              	.LC30:
 6296 0000 726E6420 		.ascii	"rnd toggled changing from: \000"
 6296      746F6767 
 6296      6C656420 
 6296      6368616E 
 6296      67696E67 
 6297              	.LC31:
 6298 001c 746F203A 		.ascii	"to :\000"
 6298      00
 6299              		.section	.text._ZN14GrannyChordApp24ToggleRandomnessControlsEv,"ax",%progbits
 6300              		.align	1
 6301              		.global	_ZN14GrannyChordApp24ToggleRandomnessControlsEv
 6302              		.syntax unified
 6303              		.thumb
 6304              		.thumb_func
 6306              	_ZN14GrannyChordApp24ToggleRandomnessControlsEv:
 6307              	.LVL451:
 6308              	.LFB4920:
 372:GrannyChordApp.cpp ****   DebugPrint(pod_, "rnd toggled changing from: ");
 6309              		.loc 3 372 48 is_stmt 1 view -0
 6310              		.cfi_startproc
 6311              		@ args = 0, pretend = 0, frame = 0
 6312              		@ frame_needed = 0, uses_anonymous_args = 0
 373:GrannyChordApp.cpp ****   DebugPrintMode(curr_synth_mode_);
 6313              		.loc 3 373 3 view .LVU1760
 373:GrannyChordApp.cpp ****   DebugPrintMode(curr_synth_mode_);
 6314              		.loc 3 373 3 view .LVU1761
 6315              	.LBB1102:
 6316              	.LBI1102:
 126:../libDaisy/src/daisy_seed.h ****     {
 6317              		.loc 5 126 17 view .LVU1762
 6318              	.LBE1102:
 372:GrannyChordApp.cpp ****   DebugPrint(pod_, "rnd toggled changing from: ");
 6319              		.loc 3 372 48 is_stmt 0 view .LVU1763
 6320 0000 10B5     		push	{r4, lr}
 6321              		.cfi_def_cfa_offset 8
 6322              		.cfi_offset 4, -8
 6323              		.cfi_offset 14, -4
 372:GrannyChordApp.cpp ****   DebugPrint(pod_, "rnd toggled changing from: ");
 6324              		.loc 3 372 48 view .LVU1764
 6325 0002 0446     		mov	r4, r0
 6326              	.LBB1104:
 6327              	.LBB1103:
 6328              		.loc 5 128 23 view .LVU1765
 6329 0004 0F48     		ldr	r0, .L315
ARM GAS  /var/folders/2p/02m_5p7958535cp2tpgps0400000gn/T//ccx9FAOt.s 			page 209


 6330              	.LVL452:
 6331              		.loc 5 128 23 view .LVU1766
 6332 0006 FFF7FEFF 		bl	_ZN5daisy6LoggerILNS_17LoggerDestinationE1EE9PrintLineEPKcz
 6333              	.LVL453:
 6334              		.loc 5 128 23 view .LVU1767
 6335              	.LBE1103:
 6336              	.LBE1104:
 374:GrannyChordApp.cpp ****   DebugPrint(pod_, "to :");
 6337              		.loc 3 374 3 is_stmt 1 view .LVU1768
 374:GrannyChordApp.cpp ****   DebugPrint(pod_, "to :");
 6338              		.loc 3 374 17 is_stmt 0 view .LVU1769
 6339 000a D4F84014 		ldr	r1, [r4, #1088]
 6340 000e 2046     		mov	r0, r4
 6341 0010 FFF7FEFF 		bl	_ZN14GrannyChordApp14DebugPrintModeE9SynthMode
 6342              	.LVL454:
 375:GrannyChordApp.cpp ****   if (curr_synth_mode_ <= SynthMode::PhasorMode_EnvType_Rnd){
 6343              		.loc 3 375 3 is_stmt 1 view .LVU1770
 375:GrannyChordApp.cpp ****   if (curr_synth_mode_ <= SynthMode::PhasorMode_EnvType_Rnd){
 6344              		.loc 3 375 3 view .LVU1771
 6345              	.LBB1105:
 6346              	.LBI1105:
 126:../libDaisy/src/daisy_seed.h ****     {
 6347              		.loc 5 126 17 view .LVU1772
 6348              	.LBB1106:
 6349              		.loc 5 128 23 is_stmt 0 view .LVU1773
 6350 0014 0C48     		ldr	r0, .L315+4
 6351 0016 FFF7FEFF 		bl	_ZN5daisy6LoggerILNS_17LoggerDestinationE1EE9PrintLineEPKcz
 6352              	.LVL455:
 6353              		.loc 5 128 23 view .LVU1774
 6354              	.LBE1106:
 6355              	.LBE1105:
 376:GrannyChordApp.cpp ****     /* below works because regular modes are even, random modes are odd
 6356              		.loc 3 376 3 is_stmt 1 view .LVU1775
 376:GrannyChordApp.cpp ****     /* below works because regular modes are even, random modes are odd
 6357              		.loc 3 376 7 is_stmt 0 view .LVU1776
 6358 001a D4F84014 		ldr	r1, [r4, #1088]
 376:GrannyChordApp.cpp ****     /* below works because regular modes are even, random modes are odd
 6359              		.loc 3 376 3 view .LVU1777
 6360 001e 0529     		cmp	r1, #5
 6361 0020 0EDC     		bgt	.L313
 379:GrannyChordApp.cpp ****     DebugPrintMode(curr_synth_mode_);
 6362              		.loc 3 379 5 is_stmt 1 view .LVU1778
 379:GrannyChordApp.cpp ****     DebugPrintMode(curr_synth_mode_);
 6363              		.loc 3 379 82 is_stmt 0 view .LVU1779
 6364 0022 81F00101 		eor	r1, r1, #1
 380:GrannyChordApp.cpp **** 
 6365              		.loc 3 380 19 view .LVU1780
 6366 0026 2046     		mov	r0, r4
 379:GrannyChordApp.cpp ****     DebugPrintMode(curr_synth_mode_);
 6367              		.loc 3 379 22 view .LVU1781
 6368 0028 C4F84014 		str	r1, [r4, #1088]
 380:GrannyChordApp.cpp **** 
 6369              		.loc 3 380 5 is_stmt 1 view .LVU1782
 380:GrannyChordApp.cpp **** 
 6370              		.loc 3 380 19 is_stmt 0 view .LVU1783
 6371 002c FFF7FEFF 		bl	_ZN14GrannyChordApp14DebugPrintModeE9SynthMode
 6372              	.LVL456:
ARM GAS  /var/folders/2p/02m_5p7958535cp2tpgps0400000gn/T//ccx9FAOt.s 			page 210


 382:GrannyChordApp.cpp ****     SetLed2();
 6373              		.loc 3 382 5 is_stmt 1 view .LVU1784
 382:GrannyChordApp.cpp ****     SetLed2();
 6374              		.loc 3 382 18 is_stmt 0 view .LVU1785
 6375 0030 2046     		mov	r0, r4
 6376 0032 FFF7FEFF 		bl	_ZN14GrannyChordApp13ResetPassThruEv
 6377              	.LVL457:
 383:GrannyChordApp.cpp ****   }
 6378              		.loc 3 383 5 is_stmt 1 view .LVU1786
 383:GrannyChordApp.cpp ****   }
 6379              		.loc 3 383 12 is_stmt 0 view .LVU1787
 6380 0036 2046     		mov	r0, r4
 385:GrannyChordApp.cpp **** 
 6381              		.loc 3 385 1 view .LVU1788
 6382 0038 BDE81040 		pop	{r4, lr}
 6383              		.cfi_remember_state
 6384              		.cfi_restore 14
 6385              		.cfi_restore 4
 6386              		.cfi_def_cfa_offset 0
 6387              	.LVL458:
 383:GrannyChordApp.cpp ****   }
 6388              		.loc 3 383 12 view .LVU1789
 6389 003c FFF7FEBF 		b	_ZN14GrannyChordApp7SetLed2Ev
 6390              	.LVL459:
 6391              	.L313:
 6392              		.cfi_restore_state
 385:GrannyChordApp.cpp **** 
 6393              		.loc 3 385 1 view .LVU1790
 6394 0040 10BD     		pop	{r4, pc}
 6395              	.LVL460:
 6396              	.L316:
 385:GrannyChordApp.cpp **** 
 6397              		.loc 3 385 1 view .LVU1791
 6398 0042 00BF     		.align	2
 6399              	.L315:
 6400 0044 00000000 		.word	.LC30
 6401 0048 1C000000 		.word	.LC31
 6402              		.cfi_endproc
 6403              	.LFE4920:
 6405              		.section	.text._ZN14GrannyChordApp13HandleButton2Ev,"ax",%progbits
 6406              		.align	1
 6407              		.global	_ZN14GrannyChordApp13HandleButton2Ev
 6408              		.syntax unified
 6409              		.thumb
 6410              		.thumb_func
 6412              	_ZN14GrannyChordApp13HandleButton2Ev:
 6413              	.LVL461:
 6414              	.LFB4914:
 280:GrannyChordApp.cpp ****   if (curr_synth_mode_ != SynthMode::Reverb &&
 6415              		.loc 3 280 37 is_stmt 1 view -0
 6416              		.cfi_startproc
 6417              		@ args = 0, pretend = 0, frame = 0
 6418              		@ frame_needed = 0, uses_anonymous_args = 0
 6419              		@ link register save eliminated.
 281:GrannyChordApp.cpp ****       curr_synth_mode_ != SynthMode::Filter &&
 6420              		.loc 3 281 3 view .LVU1793
 282:GrannyChordApp.cpp ****       curr_synth_mode_ != SynthMode::Pan_PanRnd)
ARM GAS  /var/folders/2p/02m_5p7958535cp2tpgps0400000gn/T//ccx9FAOt.s 			page 211


 6421              		.loc 3 282 45 is_stmt 0 view .LVU1794
 6422 0000 D0F84034 		ldr	r3, [r0, #1088]
 6423 0004 063B     		subs	r3, r3, #6
 281:GrannyChordApp.cpp ****       curr_synth_mode_ != SynthMode::Filter &&
 6424              		.loc 3 281 3 view .LVU1795
 6425 0006 022B     		cmp	r3, #2
 6426 0008 01D9     		bls	.L317
 285:GrannyChordApp.cpp ****   }
 6427              		.loc 3 285 5 is_stmt 1 view .LVU1796
 285:GrannyChordApp.cpp ****   }
 6428              		.loc 3 285 29 is_stmt 0 view .LVU1797
 6429 000a FFF7FEBF 		b	_ZN14GrannyChordApp24ToggleRandomnessControlsEv
 6430              	.LVL462:
 6431              	.L317:
 287:GrannyChordApp.cpp **** 
 6432              		.loc 3 287 1 view .LVU1798
 6433 000e 7047     		bx	lr
 6434              		.cfi_endproc
 6435              	.LFE4914:
 6437              		.section	.rodata._ZN14GrannyChordApp8ToggleFXEb.str1.1,"aMS",%progbits,1
 6438              	.LC32:
 6439 0000 6368616E 		.ascii	"changed fx, now:\000"
 6439      67656420 
 6439      66782C20 
 6439      6E6F773A 
 6439      00
 6440              		.section	.text._ZN14GrannyChordApp8ToggleFXEb,"ax",%progbits
 6441              		.align	1
 6442              		.global	_ZN14GrannyChordApp8ToggleFXEb
 6443              		.syntax unified
 6444              		.thumb
 6445              		.thumb_func
 6447              	_ZN14GrannyChordApp8ToggleFXEb:
 6448              	.LVL463:
 6449              	.LFB4921:
 389:GrannyChordApp.cpp ****   switch (curr_synth_mode_){
 6450              		.loc 3 389 51 is_stmt 1 view -0
 6451              		.cfi_startproc
 6452              		@ args = 0, pretend = 0, frame = 0
 6453              		@ frame_needed = 0, uses_anonymous_args = 0
 390:GrannyChordApp.cpp ****     case SynthMode::Reverb:
 6454              		.loc 3 390 3 view .LVU1800
 390:GrannyChordApp.cpp ****     case SynthMode::Reverb:
 6455              		.loc 3 390 11 is_stmt 0 view .LVU1801
 6456 0000 D0F84034 		ldr	r3, [r0, #1088]
 390:GrannyChordApp.cpp ****     case SynthMode::Reverb:
 6457              		.loc 3 390 3 view .LVU1802
 6458 0004 072B     		cmp	r3, #7
 389:GrannyChordApp.cpp ****   switch (curr_synth_mode_){
 6459              		.loc 3 389 51 view .LVU1803
 6460 0006 10B5     		push	{r4, lr}
 6461              		.cfi_def_cfa_offset 8
 6462              		.cfi_offset 4, -8
 6463              		.cfi_offset 14, -4
 389:GrannyChordApp.cpp ****   switch (curr_synth_mode_){
 6464              		.loc 3 389 51 view .LVU1804
 6465 0008 0446     		mov	r4, r0
ARM GAS  /var/folders/2p/02m_5p7958535cp2tpgps0400000gn/T//ccx9FAOt.s 			page 212


 390:GrannyChordApp.cpp ****     case SynthMode::Reverb:
 6466              		.loc 3 390 3 view .LVU1805
 6467 000a 06D0     		beq	.L320
 6468 000c 082B     		cmp	r3, #8
 6469 000e 1AD0     		beq	.L321
 399:GrannyChordApp.cpp ****       prev_synth_mode_ = curr_synth_mode_;
 6470              		.loc 3 399 5 is_stmt 1 view .LVU1806
 400:GrannyChordApp.cpp ****       if (is_reverb_mode) curr_synth_mode_= SynthMode::Reverb;
 6471              		.loc 3 400 7 view .LVU1807
 400:GrannyChordApp.cpp ****       if (is_reverb_mode) curr_synth_mode_= SynthMode::Reverb;
 6472              		.loc 3 400 24 is_stmt 0 view .LVU1808
 6473 0010 C0F84434 		str	r3, [r0, #1092]
 401:GrannyChordApp.cpp ****       else curr_synth_mode_ = SynthMode::Filter;
 6474              		.loc 3 401 7 is_stmt 1 view .LVU1809
 6475 0014 C9B9     		cbnz	r1, .L326
 6476              	.L323:
 393:GrannyChordApp.cpp ****       break;
 6477              		.loc 3 393 12 view .LVU1810
 393:GrannyChordApp.cpp ****       break;
 6478              		.loc 3 393 29 is_stmt 0 view .LVU1811
 6479 0016 0823     		movs	r3, #8
 6480 0018 03E0     		b	.L334
 6481              	.L320:
 391:GrannyChordApp.cpp ****       if (is_reverb_mode) curr_synth_mode_ = prev_synth_mode_;
 6482              		.loc 3 391 5 is_stmt 1 view .LVU1812
 392:GrannyChordApp.cpp ****       else curr_synth_mode_ = SynthMode::Filter;
 6483              		.loc 3 392 7 view .LVU1813
 6484 001a 0029     		cmp	r1, #0
 6485 001c FBD0     		beq	.L323
 6486              	.L325:
 392:GrannyChordApp.cpp ****       else curr_synth_mode_ = SynthMode::Filter;
 6487              		.loc 3 392 27 discriminator 1 view .LVU1814
 392:GrannyChordApp.cpp ****       else curr_synth_mode_ = SynthMode::Filter;
 6488              		.loc 3 392 44 is_stmt 0 discriminator 1 view .LVU1815
 6489 001e D4F84434 		ldr	r3, [r4, #1092]
 6490              	.L334:
 393:GrannyChordApp.cpp ****       break;
 6491              		.loc 3 393 29 view .LVU1816
 6492 0022 C4F84034 		str	r3, [r4, #1088]
 404:GrannyChordApp.cpp ****   DebugPrintMode(curr_synth_mode_);
 6493              		.loc 3 404 3 is_stmt 1 view .LVU1817
 404:GrannyChordApp.cpp ****   DebugPrintMode(curr_synth_mode_);
 6494              		.loc 3 404 3 view .LVU1818
 6495              	.LVL464:
 6496              	.LBB1107:
 6497              	.LBI1107:
 126:../libDaisy/src/daisy_seed.h ****     {
 6498              		.loc 5 126 17 view .LVU1819
 6499              	.LBB1108:
 6500              		.loc 5 128 23 is_stmt 0 view .LVU1820
 6501 0026 0A48     		ldr	r0, .L335
 6502              	.LVL465:
 6503              		.loc 5 128 23 view .LVU1821
 6504 0028 FFF7FEFF 		bl	_ZN5daisy6LoggerILNS_17LoggerDestinationE1EE9PrintLineEPKcz
 6505              	.LVL466:
 6506              		.loc 5 128 23 view .LVU1822
 6507              	.LBE1108:
ARM GAS  /var/folders/2p/02m_5p7958535cp2tpgps0400000gn/T//ccx9FAOt.s 			page 213


 6508              	.LBE1107:
 405:GrannyChordApp.cpp **** 
 6509              		.loc 3 405 3 is_stmt 1 view .LVU1823
 405:GrannyChordApp.cpp **** 
 6510              		.loc 3 405 17 is_stmt 0 view .LVU1824
 6511 002c D4F84014 		ldr	r1, [r4, #1088]
 6512 0030 2046     		mov	r0, r4
 6513 0032 FFF7FEFF 		bl	_ZN14GrannyChordApp14DebugPrintModeE9SynthMode
 6514              	.LVL467:
 407:GrannyChordApp.cpp ****   SetLed2();
 6515              		.loc 3 407 3 is_stmt 1 view .LVU1825
 407:GrannyChordApp.cpp ****   SetLed2();
 6516              		.loc 3 407 16 is_stmt 0 view .LVU1826
 6517 0036 2046     		mov	r0, r4
 6518 0038 FFF7FEFF 		bl	_ZN14GrannyChordApp13ResetPassThruEv
 6519              	.LVL468:
 408:GrannyChordApp.cpp **** }
 6520              		.loc 3 408 3 is_stmt 1 view .LVU1827
 408:GrannyChordApp.cpp **** }
 6521              		.loc 3 408 10 is_stmt 0 view .LVU1828
 6522 003c 2046     		mov	r0, r4
 409:GrannyChordApp.cpp **** 
 6523              		.loc 3 409 1 view .LVU1829
 6524 003e BDE81040 		pop	{r4, lr}
 6525              		.cfi_remember_state
 6526              		.cfi_restore 14
 6527              		.cfi_restore 4
 6528              		.cfi_def_cfa_offset 0
 6529              	.LVL469:
 408:GrannyChordApp.cpp **** }
 6530              		.loc 3 408 10 view .LVU1830
 6531 0042 FFF7FEBF 		b	_ZN14GrannyChordApp7SetLed2Ev
 6532              	.LVL470:
 6533              	.L321:
 6534              		.cfi_restore_state
 395:GrannyChordApp.cpp ****       if (!is_reverb_mode) curr_synth_mode_ = prev_synth_mode_;
 6535              		.loc 3 395 5 is_stmt 1 view .LVU1831
 396:GrannyChordApp.cpp ****       else curr_synth_mode_ = SynthMode::Reverb;
 6536              		.loc 3 396 7 view .LVU1832
 6537 0046 0029     		cmp	r1, #0
 6538 0048 E9D0     		beq	.L325
 6539              	.L326:
 397:GrannyChordApp.cpp ****       break;
 6540              		.loc 3 397 12 view .LVU1833
 397:GrannyChordApp.cpp ****       break;
 6541              		.loc 3 397 29 is_stmt 0 view .LVU1834
 6542 004a 0723     		movs	r3, #7
 6543 004c E9E7     		b	.L334
 6544              	.L336:
 6545 004e 00BF     		.align	2
 6546              	.L335:
 6547 0050 00000000 		.word	.LC32
 6548              		.cfi_endproc
 6549              	.LFE4921:
 6551              		.section	.text._ZN14GrannyChordApp22HandleButton1LongPressEv,"ax",%progbits
 6552              		.align	1
 6553              		.global	_ZN14GrannyChordApp22HandleButton1LongPressEv
ARM GAS  /var/folders/2p/02m_5p7958535cp2tpgps0400000gn/T//ccx9FAOt.s 			page 214


 6554              		.syntax unified
 6555              		.thumb
 6556              		.thumb_func
 6558              	_ZN14GrannyChordApp22HandleButton1LongPressEv:
 6559              	.LVL471:
 6560              	.LFB4915:
 290:GrannyChordApp.cpp ****   ToggleFX(true);
 6561              		.loc 3 290 46 is_stmt 1 view -0
 6562              		.cfi_startproc
 6563              		@ args = 0, pretend = 0, frame = 0
 6564              		@ frame_needed = 0, uses_anonymous_args = 0
 6565              		@ link register save eliminated.
 291:GrannyChordApp.cpp **** }
 6566              		.loc 3 291 3 view .LVU1836
 291:GrannyChordApp.cpp **** }
 6567              		.loc 3 291 11 is_stmt 0 view .LVU1837
 6568 0000 0121     		movs	r1, #1
 6569 0002 FFF7FEBF 		b	_ZN14GrannyChordApp8ToggleFXEb
 6570              	.LVL472:
 291:GrannyChordApp.cpp **** }
 6571              		.loc 3 291 11 view .LVU1838
 6572              		.cfi_endproc
 6573              	.LFE4915:
 6575              		.section	.text._ZN14GrannyChordApp22HandleButton2LongPressEv,"ax",%progbits
 6576              		.align	1
 6577              		.global	_ZN14GrannyChordApp22HandleButton2LongPressEv
 6578              		.syntax unified
 6579              		.thumb
 6580              		.thumb_func
 6582              	_ZN14GrannyChordApp22HandleButton2LongPressEv:
 6583              	.LVL473:
 6584              	.LFB4916:
 295:GrannyChordApp.cpp ****   ToggleFX(false);
 6585              		.loc 3 295 46 is_stmt 1 view -0
 6586              		.cfi_startproc
 6587              		@ args = 0, pretend = 0, frame = 0
 6588              		@ frame_needed = 0, uses_anonymous_args = 0
 6589              		@ link register save eliminated.
 296:GrannyChordApp.cpp **** }
 6590              		.loc 3 296 3 view .LVU1840
 296:GrannyChordApp.cpp **** }
 6591              		.loc 3 296 11 is_stmt 0 view .LVU1841
 6592 0000 0021     		movs	r1, #0
 6593 0002 FFF7FEBF 		b	_ZN14GrannyChordApp8ToggleFXEb
 6594              	.LVL474:
 296:GrannyChordApp.cpp **** }
 6595              		.loc 3 296 11 view .LVU1842
 6596              		.cfi_endproc
 6597              	.LFE4916:
 6599              		.section	.text._ZN5daisy9WavWriterILj16384EE8SaveFileEv,"axG",%progbits,_ZN5daisy9WavWriterILj1638
 6600              		.align	1
 6601              		.weak	_ZN5daisy9WavWriterILj16384EE8SaveFileEv
 6602              		.syntax unified
 6603              		.thumb
 6604              		.thumb_func
 6606              	_ZN5daisy9WavWriterILj16384EE8SaveFileEv:
 6607              	.LVL475:
ARM GAS  /var/folders/2p/02m_5p7958535cp2tpgps0400000gn/T//ccx9FAOt.s 			page 215


 6608              	.LFB5280:
 142:../libDaisy/src/util/WavWriter.h ****     {
 6609              		.loc 9 142 10 is_stmt 1 view -0
 6610              		.cfi_startproc
 6611              		@ args = 0, pretend = 0, frame = 8
 6612              		@ frame_needed = 0, uses_anonymous_args = 0
 142:../libDaisy/src/util/WavWriter.h ****     {
 6613              		.loc 9 142 10 is_stmt 0 view .LVU1844
 6614 0000 37B5     		push	{r0, r1, r2, r4, r5, lr}
 6615              		.cfi_def_cfa_offset 24
 6616              		.cfi_offset 4, -12
 6617              		.cfi_offset 5, -8
 6618              		.cfi_offset 14, -4
 145:../libDaisy/src/util/WavWriter.h ****         // We _should_ flush whatever's left in the transfer buff
 6619              		.loc 9 145 25 view .LVU1845
 6620 0002 00F50043 		add	r3, r0, #32768
 144:../libDaisy/src/util/WavWriter.h ****         recording_      = false;
 6621              		.loc 9 144 22 view .LVU1846
 6622 0006 0021     		movs	r1, #0
 149:../libDaisy/src/util/WavWriter.h ****         f_write(&fp_, &wavheader_, sizeof(wavheader_), &bw);
 6623              		.loc 9 149 16 view .LVU1847
 6624 0008 00F50045 		add	r5, r0, #32768
 142:../libDaisy/src/util/WavWriter.h ****     {
 6625              		.loc 9 142 10 view .LVU1848
 6626 000c 0446     		mov	r4, r0
 145:../libDaisy/src/util/WavWriter.h ****         // We _should_ flush whatever's left in the transfer buff
 6627              		.loc 9 145 25 view .LVU1849
 6628 000e 83F84410 		strb	r1, [r3, #68]
 6629              	.LVL476:
 6630              	.LBB1111:
 6631              	.LBI1111:
 182:../libDaisy/src/util/WavWriter.h ****     {
 6632              		.loc 9 182 21 is_stmt 1 view .LVU1850
 6633              	.LBE1111:
 149:../libDaisy/src/util/WavWriter.h ****         f_write(&fp_, &wavheader_, sizeof(wavheader_), &bw);
 6634              		.loc 9 149 16 is_stmt 0 view .LVU1851
 6635 0012 4835     		adds	r5, r5, #72
 144:../libDaisy/src/util/WavWriter.h ****         recording_      = false;
 6636              		.loc 9 144 22 view .LVU1852
 6637 0014 0191     		str	r1, [sp, #4]
 6638              	.LBB1113:
 6639              	.LBB1112:
 185:../libDaisy/src/util/WavWriter.h ****         return 36 + wavheader_.SubCHunk2Size;
 6640              		.loc 9 185 42 view .LVU1853
 6641 0016 D0E90E32 		ldrd	r3, r2, [r0, #56]
 6642 001a 5343     		muls	r3, r2, r3
 6643 001c C26A     		ldr	r2, [r0, #44]
 6644 001e 5343     		muls	r3, r2, r3
 185:../libDaisy/src/util/WavWriter.h ****         return 36 + wavheader_.SubCHunk2Size;
 6645              		.loc 9 185 63 view .LVU1854
 6646 0020 DB08     		lsrs	r3, r3, #3
 185:../libDaisy/src/util/WavWriter.h ****         return 36 + wavheader_.SubCHunk2Size;
 6647              		.loc 9 185 13 view .LVU1855
 6648 0022 8362     		str	r3, [r0, #40]
 6649              	.LVL477:
 186:../libDaisy/src/util/WavWriter.h ****     }
 6650              		.loc 9 186 32 view .LVU1856
ARM GAS  /var/folders/2p/02m_5p7958535cp2tpgps0400000gn/T//ccx9FAOt.s 			page 216


 6651 0024 2433     		adds	r3, r3, #36
 6652              	.LBE1112:
 6653              	.LBE1113:
 148:../libDaisy/src/util/WavWriter.h ****         f_lseek(&fp_, 0);
 6654              		.loc 9 148 29 view .LVU1857
 6655 0026 4360     		str	r3, [r0, #4]
 149:../libDaisy/src/util/WavWriter.h ****         f_write(&fp_, &wavheader_, sizeof(wavheader_), &bw);
 6656              		.loc 9 149 16 view .LVU1858
 6657 0028 2846     		mov	r0, r5
 6658              	.LVL478:
 149:../libDaisy/src/util/WavWriter.h ****         f_write(&fp_, &wavheader_, sizeof(wavheader_), &bw);
 6659              		.loc 9 149 16 view .LVU1859
 6660 002a FFF7FEFF 		bl	f_lseek
 6661              	.LVL479:
 150:../libDaisy/src/util/WavWriter.h ****         f_close(&fp_);
 6662              		.loc 9 150 16 view .LVU1860
 6663 002e 01AB     		add	r3, sp, #4
 6664 0030 2C22     		movs	r2, #44
 6665 0032 2146     		mov	r1, r4
 6666 0034 2846     		mov	r0, r5
 6667 0036 FFF7FEFF 		bl	f_write
 6668              	.LVL480:
 151:../libDaisy/src/util/WavWriter.h ****     }
 6669              		.loc 9 151 16 view .LVU1861
 6670 003a 2846     		mov	r0, r5
 6671 003c FFF7FEFF 		bl	f_close
 6672              	.LVL481:
 152:../libDaisy/src/util/WavWriter.h **** 
 6673              		.loc 9 152 5 view .LVU1862
 6674 0040 03B0     		add	sp, sp, #12
 6675              		.cfi_def_cfa_offset 12
 6676              		@ sp needed
 6677 0042 30BD     		pop	{r4, r5, pc}
 152:../libDaisy/src/util/WavWriter.h **** 
 6678              		.loc 9 152 5 view .LVU1863
 6679              		.cfi_endproc
 6680              	.LFE5280:
 6682              		.section	.text._ZN14GrannyChordApp15FinishRecordingEv,"ax",%progbits
 6683              		.align	1
 6684              		.global	_ZN14GrannyChordApp15FinishRecordingEv
 6685              		.syntax unified
 6686              		.thumb
 6687              		.thumb_func
 6689              	_ZN14GrannyChordApp15FinishRecordingEv:
 6690              	.LVL482:
 6691              	.LFB4938:
 629:GrannyChordApp.cpp ****   sd_writer_.SaveFile();
 6692              		.loc 3 629 39 is_stmt 1 view -0
 6693              		.cfi_startproc
 6694              		@ args = 0, pretend = 0, frame = 0
 6695              		@ frame_needed = 0, uses_anonymous_args = 0
 630:GrannyChordApp.cpp ****   recording_out_=false;
 6696              		.loc 3 630 3 view .LVU1865
 629:GrannyChordApp.cpp ****   sd_writer_.SaveFile();
 6697              		.loc 3 629 39 is_stmt 0 view .LVU1866
 6698 0000 10B5     		push	{r4, lr}
 6699              		.cfi_def_cfa_offset 8
ARM GAS  /var/folders/2p/02m_5p7958535cp2tpgps0400000gn/T//ccx9FAOt.s 			page 217


 6700              		.cfi_offset 4, -8
 6701              		.cfi_offset 14, -4
 629:GrannyChordApp.cpp ****   sd_writer_.SaveFile();
 6702              		.loc 3 629 39 view .LVU1867
 6703 0002 0446     		mov	r4, r0
 630:GrannyChordApp.cpp ****   recording_out_=false;
 6704              		.loc 3 630 22 view .LVU1868
 6705 0004 00F5BF60 		add	r0, r0, #1528
 6706              	.LVL483:
 630:GrannyChordApp.cpp ****   recording_out_=false;
 6707              		.loc 3 630 22 view .LVU1869
 6708 0008 FFF7FEFF 		bl	_ZN5daisy9WavWriterILj16384EE8SaveFileEv
 6709              	.LVL484:
 631:GrannyChordApp.cpp **** }
 6710              		.loc 3 631 3 is_stmt 1 view .LVU1870
 631:GrannyChordApp.cpp **** }
 6711              		.loc 3 631 17 is_stmt 0 view .LVU1871
 6712 000c 0023     		movs	r3, #0
 6713 000e 04F50044 		add	r4, r4, #32768
 6714              	.LVL485:
 631:GrannyChordApp.cpp **** }
 6715              		.loc 3 631 17 view .LVU1872
 6716 0012 84F87438 		strb	r3, [r4, #2164]
 632:GrannyChordApp.cpp **** 
 6717              		.loc 3 632 1 view .LVU1873
 6718 0016 10BD     		pop	{r4, pc}
 632:GrannyChordApp.cpp **** 
 6719              		.loc 3 632 1 view .LVU1874
 6720              		.cfi_endproc
 6721              	.LFE4938:
 6723              		.section	.rodata._ZN14GrannyChordApp13ButtonHandlerEv.str1.1,"aMS",%progbits,1
 6724              	.LC33:
 6725 0000 6E6F7720 		.ascii	"now recording out!\000"
 6725      7265636F 
 6725      7264696E 
 6725      67206F75 
 6725      742100
 6726              	.LC34:
 6727 0013 66696E69 		.ascii	"finished recording out: %.2fs\000"
 6727      73686564 
 6727      20726563 
 6727      6F726469 
 6727      6E67206F 
 6728              		.section	.text._ZN14GrannyChordApp13ButtonHandlerEv,"ax",%progbits
 6729              		.align	1
 6730              		.global	_ZN14GrannyChordApp13ButtonHandlerEv
 6731              		.syntax unified
 6732              		.thumb
 6733              		.thumb_func
 6735              	_ZN14GrannyChordApp13ButtonHandlerEv:
 6736              	.LVL486:
 6737              	.LFB4912:
 187:GrannyChordApp.cpp ****   unsigned long time_now = System::GetNow();
 6738              		.loc 3 187 37 is_stmt 1 view -0
 6739              		.cfi_startproc
 6740              		@ args = 0, pretend = 0, frame = 0
 6741              		@ frame_needed = 0, uses_anonymous_args = 0
ARM GAS  /var/folders/2p/02m_5p7958535cp2tpgps0400000gn/T//ccx9FAOt.s 			page 218


 188:GrannyChordApp.cpp ****   /* only check button events if there's been a gap between them */
 6742              		.loc 3 188 3 view .LVU1876
 187:GrannyChordApp.cpp ****   unsigned long time_now = System::GetNow();
 6743              		.loc 3 187 37 is_stmt 0 view .LVU1877
 6744 0000 70B5     		push	{r4, r5, r6, lr}
 6745              		.cfi_def_cfa_offset 16
 6746              		.cfi_offset 4, -16
 6747              		.cfi_offset 5, -12
 6748              		.cfi_offset 6, -8
 6749              		.cfi_offset 14, -4
 6750 0002 0546     		mov	r5, r0
 190:GrannyChordApp.cpp ****     return;
 6751              		.loc 3 190 18 view .LVU1878
 6752 0004 05F50044 		add	r4, r5, #32768
 187:GrannyChordApp.cpp ****   unsigned long time_now = System::GetNow();
 6753              		.loc 3 187 37 view .LVU1879
 6754 0008 2DED028B 		vpush.64	{d8}
 6755              		.cfi_def_cfa_offset 24
 6756              		.cfi_offset 80, -24
 6757              		.cfi_offset 81, -20
 188:GrannyChordApp.cpp ****   /* only check button events if there's been a gap between them */
 6758              		.loc 3 188 42 view .LVU1880
 6759 000c FFF7FEFF 		bl	_ZN5daisy6System6GetNowEv
 6760              	.LVL487:
 190:GrannyChordApp.cpp ****     return;
 6761              		.loc 3 190 16 view .LVU1881
 6762 0010 D4F88838 		ldr	r3, [r4, #2184]
 188:GrannyChordApp.cpp ****   /* only check button events if there's been a gap between them */
 6763              		.loc 3 188 42 view .LVU1882
 6764 0014 0646     		mov	r6, r0
 6765              	.LVL488:
 190:GrannyChordApp.cpp ****     return;
 6766              		.loc 3 190 3 is_stmt 1 view .LVU1883
 190:GrannyChordApp.cpp ****     return;
 6767              		.loc 3 190 16 is_stmt 0 view .LVU1884
 6768 0016 C31A     		subs	r3, r0, r3
 190:GrannyChordApp.cpp ****     return;
 6769              		.loc 3 190 3 view .LVU1885
 6770 0018 312B     		cmp	r3, #49
 6771 001a 40F28B80 		bls	.L341
 195:GrannyChordApp.cpp ****     last_action_time_ = time_now;
 6772              		.loc 3 195 3 is_stmt 1 view .LVU1886
 195:GrannyChordApp.cpp ****     last_action_time_ = time_now;
 6773              		.loc 3 195 7 is_stmt 0 view .LVU1887
 6774 001e E869     		ldr	r0, [r5, #28]
 6775              	.LVL489:
 6776              	.LBB1142:
 6777              	.LBI1142:
  70:../libDaisy/src/hid/switch.h **** 
 6778              		.loc 1 70 17 is_stmt 1 view .LVU1888
 6779              	.LBB1143:
  70:../libDaisy/src/hid/switch.h **** 
 6780              		.loc 1 70 38 view .LVU1889
  70:../libDaisy/src/hid/switch.h **** 
 6781              		.loc 1 70 54 is_stmt 0 view .LVU1890
 6782 0020 90F8B430 		ldrb	r3, [r0, #180]	@ zero_extendqisi2
 6783 0024 43B1     		cbz	r3, .L344
ARM GAS  /var/folders/2p/02m_5p7958535cp2tpgps0400000gn/T//ccx9FAOt.s 			page 219


 6784              	.LVL490:
  70:../libDaisy/src/hid/switch.h **** 
 6785              		.loc 1 70 54 view .LVU1891
 6786              	.LBE1143:
 6787              	.LBE1142:
 195:GrannyChordApp.cpp ****     last_action_time_ = time_now;
 6788              		.loc 3 195 3 view .LVU1892
 6789 0026 90F8BA30 		ldrb	r3, [r0, #186]	@ zero_extendqisi2
 6790 002a 7F2B     		cmp	r3, #127
 196:GrannyChordApp.cpp ****     btn1_long_press_fired_ = false;
 6791              		.loc 3 196 5 is_stmt 1 view .LVU1893
 197:GrannyChordApp.cpp ****   }
 6792              		.loc 3 197 28 is_stmt 0 view .LVU1894
 6793 002c 02BF     		ittt	eq
 6794 002e 0023     		moveq	r3, #0
 196:GrannyChordApp.cpp ****     btn1_long_press_fired_ = false;
 6795              		.loc 3 196 23 view .LVU1895
 6796 0030 C4F88868 		streq	r6, [r4, #2184]
 197:GrannyChordApp.cpp ****   }
 6797              		.loc 3 197 5 is_stmt 1 view .LVU1896
 197:GrannyChordApp.cpp ****   }
 6798              		.loc 3 197 28 is_stmt 0 view .LVU1897
 6799 0034 84F88C38 		strbeq	r3, [r4, #2188]
 6800              	.L344:
 201:GrannyChordApp.cpp ****     float held_time = pod_.button1.TimeHeldMs();
 6801              		.loc 3 201 3 is_stmt 1 view .LVU1898
 6802              	.LVL491:
 6803              	.LBB1144:
 6804              	.LBB1145:
 6805              	.LBI1145:
  79:../libDaisy/src/hid/switch.h **** 
 6806              		.loc 1 79 17 view .LVU1899
 6807              	.LBB1146:
  79:../libDaisy/src/hid/switch.h **** 
 6808              		.loc 1 79 35 view .LVU1900
  79:../libDaisy/src/hid/switch.h **** 
 6809              		.loc 1 79 35 is_stmt 0 view .LVU1901
 6810              	.LBE1146:
 6811              	.LBE1145:
 201:GrannyChordApp.cpp ****     float held_time = pod_.button1.TimeHeldMs();
 6812              		.loc 3 201 3 view .LVU1902
 6813 0038 90F8BA30 		ldrb	r3, [r0, #186]	@ zero_extendqisi2
 6814 003c FF2B     		cmp	r3, #255
 6815 003e 14D1     		bne	.L346
 6816              	.LBB1147:
 202:GrannyChordApp.cpp ****     if (held_time > LONG_PRESS_TIME && !btn1_long_press_fired_){
 6817              		.loc 3 202 5 is_stmt 1 view .LVU1903
 202:GrannyChordApp.cpp ****     if (held_time > LONG_PRESS_TIME && !btn1_long_press_fired_){
 6818              		.loc 3 202 46 is_stmt 0 view .LVU1904
 6819 0040 B030     		adds	r0, r0, #176
 6820 0042 FFF7FEFF 		bl	_ZNK5daisy6Switch10TimeHeldMsEv
 6821              	.LVL492:
 203:GrannyChordApp.cpp ****       HandleButton1LongPress();
 6822              		.loc 3 203 5 is_stmt 1 view .LVU1905
 6823 0046 DFED587A 		vldr.32	s15, .L379
 6824 004a B4EEE70A 		vcmpe.f32	s0, s15
 6825 004e F1EE10FA 		vmrs	APSR_nzcv, FPSCR
ARM GAS  /var/folders/2p/02m_5p7958535cp2tpgps0400000gn/T//ccx9FAOt.s 			page 220


 6826 0052 0ADD     		ble	.L346
 203:GrannyChordApp.cpp ****       HandleButton1LongPress();
 6827              		.loc 3 203 37 is_stmt 0 discriminator 1 view .LVU1906
 6828 0054 94F88C38 		ldrb	r3, [r4, #2188]	@ zero_extendqisi2
 6829 0058 3BB9     		cbnz	r3, .L346
 204:GrannyChordApp.cpp ****       btn1_long_press_fired_ = true;
 6830              		.loc 3 204 7 is_stmt 1 view .LVU1907
 204:GrannyChordApp.cpp ****       btn1_long_press_fired_ = true;
 6831              		.loc 3 204 29 is_stmt 0 view .LVU1908
 6832 005a 2846     		mov	r0, r5
 6833 005c FFF7FEFF 		bl	_ZN14GrannyChordApp22HandleButton1LongPressEv
 6834              	.LVL493:
 205:GrannyChordApp.cpp ****       last_action_time_ = time_now;
 6835              		.loc 3 205 7 is_stmt 1 view .LVU1909
 205:GrannyChordApp.cpp ****       last_action_time_ = time_now;
 6836              		.loc 3 205 30 is_stmt 0 view .LVU1910
 6837 0060 0123     		movs	r3, #1
 206:GrannyChordApp.cpp ****     }
 6838              		.loc 3 206 25 view .LVU1911
 6839 0062 C4F88868 		str	r6, [r4, #2184]
 205:GrannyChordApp.cpp ****       last_action_time_ = time_now;
 6840              		.loc 3 205 30 view .LVU1912
 6841 0066 84F88C38 		strb	r3, [r4, #2188]
 206:GrannyChordApp.cpp ****     }
 6842              		.loc 3 206 7 is_stmt 1 view .LVU1913
 6843              	.L346:
 206:GrannyChordApp.cpp ****     }
 6844              		.loc 3 206 7 is_stmt 0 view .LVU1914
 6845              	.LBE1147:
 6846              	.LBE1144:
 211:GrannyChordApp.cpp ****     if (!btn1_long_press_fired_){
 6847              		.loc 3 211 3 is_stmt 1 view .LVU1915
 211:GrannyChordApp.cpp ****     if (!btn1_long_press_fired_){
 6848              		.loc 3 211 7 is_stmt 0 view .LVU1916
 6849 006a EB69     		ldr	r3, [r5, #28]
 6850              	.LVL494:
 6851              	.LBB1148:
 6852              	.LBI1148:
  73:../libDaisy/src/hid/switch.h ****     {
 6853              		.loc 1 73 17 is_stmt 1 view .LVU1917
 6854              	.LBB1149:
  75:../libDaisy/src/hid/switch.h ****     }
 6855              		.loc 1 75 9 view .LVU1918
  75:../libDaisy/src/hid/switch.h ****     }
 6856              		.loc 1 75 25 is_stmt 0 view .LVU1919
 6857 006c 93F8B420 		ldrb	r2, [r3, #180]	@ zero_extendqisi2
 6858 0070 72B1     		cbz	r2, .L349
 6859              	.LVL495:
  75:../libDaisy/src/hid/switch.h ****     }
 6860              		.loc 1 75 25 view .LVU1920
 6861              	.LBE1149:
 6862              	.LBE1148:
 211:GrannyChordApp.cpp ****     if (!btn1_long_press_fired_){
 6863              		.loc 3 211 3 view .LVU1921
 6864 0072 93F8BA30 		ldrb	r3, [r3, #186]	@ zero_extendqisi2
 6865 0076 802B     		cmp	r3, #128
 6866 0078 0AD1     		bne	.L349
ARM GAS  /var/folders/2p/02m_5p7958535cp2tpgps0400000gn/T//ccx9FAOt.s 			page 221


 212:GrannyChordApp.cpp ****       HandleButton1();
 6867              		.loc 3 212 5 is_stmt 1 view .LVU1922
 6868 007a 94F88C38 		ldrb	r3, [r4, #2188]	@ zero_extendqisi2
 6869 007e 13B9     		cbnz	r3, .L350
 213:GrannyChordApp.cpp ****     }
 6870              		.loc 3 213 7 view .LVU1923
 213:GrannyChordApp.cpp ****     }
 6871              		.loc 3 213 20 is_stmt 0 view .LVU1924
 6872 0080 2846     		mov	r0, r5
 6873 0082 FFF7FEFF 		bl	_ZN14GrannyChordApp13HandleButton1Ev
 6874              	.LVL496:
 6875              	.L350:
 215:GrannyChordApp.cpp ****     btn1_long_press_fired_ = false;
 6876              		.loc 3 215 5 is_stmt 1 view .LVU1925
 216:GrannyChordApp.cpp ****   }
 6877              		.loc 3 216 28 is_stmt 0 view .LVU1926
 6878 0086 0023     		movs	r3, #0
 215:GrannyChordApp.cpp ****     btn1_long_press_fired_ = false;
 6879              		.loc 3 215 23 view .LVU1927
 6880 0088 C4F88868 		str	r6, [r4, #2184]
 216:GrannyChordApp.cpp ****   }
 6881              		.loc 3 216 5 is_stmt 1 view .LVU1928
 216:GrannyChordApp.cpp ****   }
 6882              		.loc 3 216 28 is_stmt 0 view .LVU1929
 6883 008c 84F88C38 		strb	r3, [r4, #2188]
 6884              	.L349:
 220:GrannyChordApp.cpp ****     last_action_time_ = time_now;
 6885              		.loc 3 220 3 is_stmt 1 view .LVU1930
 220:GrannyChordApp.cpp ****     last_action_time_ = time_now;
 6886              		.loc 3 220 7 is_stmt 0 view .LVU1931
 6887 0090 E869     		ldr	r0, [r5, #28]
 6888              	.LVL497:
 6889              	.LBB1150:
 6890              	.LBI1150:
  70:../libDaisy/src/hid/switch.h **** 
 6891              		.loc 1 70 17 is_stmt 1 view .LVU1932
 6892              	.LBB1151:
  70:../libDaisy/src/hid/switch.h **** 
 6893              		.loc 1 70 38 view .LVU1933
  70:../libDaisy/src/hid/switch.h **** 
 6894              		.loc 1 70 54 is_stmt 0 view .LVU1934
 6895 0092 90F8C430 		ldrb	r3, [r0, #196]	@ zero_extendqisi2
 6896 0096 43B1     		cbz	r3, .L351
 6897              	.LVL498:
  70:../libDaisy/src/hid/switch.h **** 
 6898              		.loc 1 70 54 view .LVU1935
 6899              	.LBE1151:
 6900              	.LBE1150:
 220:GrannyChordApp.cpp ****     last_action_time_ = time_now;
 6901              		.loc 3 220 3 view .LVU1936
 6902 0098 90F8CA30 		ldrb	r3, [r0, #202]	@ zero_extendqisi2
 6903 009c 7F2B     		cmp	r3, #127
 221:GrannyChordApp.cpp ****     btn2_long_press_fired_ = false;
 6904              		.loc 3 221 5 is_stmt 1 view .LVU1937
 222:GrannyChordApp.cpp ****   }
 6905              		.loc 3 222 28 is_stmt 0 view .LVU1938
 6906 009e 02BF     		ittt	eq
ARM GAS  /var/folders/2p/02m_5p7958535cp2tpgps0400000gn/T//ccx9FAOt.s 			page 222


 6907 00a0 0023     		moveq	r3, #0
 221:GrannyChordApp.cpp ****     btn2_long_press_fired_ = false;
 6908              		.loc 3 221 23 view .LVU1939
 6909 00a2 C4F88868 		streq	r6, [r4, #2184]
 222:GrannyChordApp.cpp ****   }
 6910              		.loc 3 222 5 is_stmt 1 view .LVU1940
 222:GrannyChordApp.cpp ****   }
 6911              		.loc 3 222 28 is_stmt 0 view .LVU1941
 6912 00a6 84F88D38 		strbeq	r3, [r4, #2189]
 6913              	.L351:
 226:GrannyChordApp.cpp ****     float held_time = pod_.button2.TimeHeldMs();
 6914              		.loc 3 226 3 is_stmt 1 view .LVU1942
 6915              	.LVL499:
 6916              	.LBB1152:
 6917              	.LBB1153:
 6918              	.LBI1153:
  79:../libDaisy/src/hid/switch.h **** 
 6919              		.loc 1 79 17 view .LVU1943
 6920              	.LBB1154:
  79:../libDaisy/src/hid/switch.h **** 
 6921              		.loc 1 79 35 view .LVU1944
  79:../libDaisy/src/hid/switch.h **** 
 6922              		.loc 1 79 35 is_stmt 0 view .LVU1945
 6923              	.LBE1154:
 6924              	.LBE1153:
 226:GrannyChordApp.cpp ****     float held_time = pod_.button2.TimeHeldMs();
 6925              		.loc 3 226 3 view .LVU1946
 6926 00aa 90F8CA30 		ldrb	r3, [r0, #202]	@ zero_extendqisi2
 6927 00ae FF2B     		cmp	r3, #255
 6928 00b0 14D1     		bne	.L353
 6929              	.LBB1155:
 227:GrannyChordApp.cpp ****     if (held_time > LONG_PRESS_TIME && !btn2_long_press_fired_){
 6930              		.loc 3 227 5 is_stmt 1 view .LVU1947
 227:GrannyChordApp.cpp ****     if (held_time > LONG_PRESS_TIME && !btn2_long_press_fired_){
 6931              		.loc 3 227 46 is_stmt 0 view .LVU1948
 6932 00b2 C030     		adds	r0, r0, #192
 6933 00b4 FFF7FEFF 		bl	_ZNK5daisy6Switch10TimeHeldMsEv
 6934              	.LVL500:
 228:GrannyChordApp.cpp ****       HandleButton2LongPress();
 6935              		.loc 3 228 5 is_stmt 1 view .LVU1949
 6936 00b8 DFED3B7A 		vldr.32	s15, .L379
 6937 00bc B4EEE70A 		vcmpe.f32	s0, s15
 6938 00c0 F1EE10FA 		vmrs	APSR_nzcv, FPSCR
 6939 00c4 0ADD     		ble	.L353
 228:GrannyChordApp.cpp ****       HandleButton2LongPress();
 6940              		.loc 3 228 37 is_stmt 0 discriminator 1 view .LVU1950
 6941 00c6 94F88D38 		ldrb	r3, [r4, #2189]	@ zero_extendqisi2
 6942 00ca 3BB9     		cbnz	r3, .L353
 229:GrannyChordApp.cpp ****       btn2_long_press_fired_ = true;
 6943              		.loc 3 229 7 is_stmt 1 view .LVU1951
 229:GrannyChordApp.cpp ****       btn2_long_press_fired_ = true;
 6944              		.loc 3 229 29 is_stmt 0 view .LVU1952
 6945 00cc 2846     		mov	r0, r5
 6946 00ce FFF7FEFF 		bl	_ZN14GrannyChordApp22HandleButton2LongPressEv
 6947              	.LVL501:
 230:GrannyChordApp.cpp ****       last_action_time_ = time_now;
 6948              		.loc 3 230 7 is_stmt 1 view .LVU1953
ARM GAS  /var/folders/2p/02m_5p7958535cp2tpgps0400000gn/T//ccx9FAOt.s 			page 223


 230:GrannyChordApp.cpp ****       last_action_time_ = time_now;
 6949              		.loc 3 230 30 is_stmt 0 view .LVU1954
 6950 00d2 0123     		movs	r3, #1
 231:GrannyChordApp.cpp ****     }
 6951              		.loc 3 231 25 view .LVU1955
 6952 00d4 C4F88868 		str	r6, [r4, #2184]
 230:GrannyChordApp.cpp ****       last_action_time_ = time_now;
 6953              		.loc 3 230 30 view .LVU1956
 6954 00d8 84F88D38 		strb	r3, [r4, #2189]
 231:GrannyChordApp.cpp ****     }
 6955              		.loc 3 231 7 is_stmt 1 view .LVU1957
 6956              	.L353:
 231:GrannyChordApp.cpp ****     }
 6957              		.loc 3 231 7 is_stmt 0 view .LVU1958
 6958              	.LBE1155:
 6959              	.LBE1152:
 236:GrannyChordApp.cpp ****     if (!btn2_long_press_fired_){
 6960              		.loc 3 236 3 is_stmt 1 view .LVU1959
 236:GrannyChordApp.cpp ****     if (!btn2_long_press_fired_){
 6961              		.loc 3 236 7 is_stmt 0 view .LVU1960
 6962 00dc EB69     		ldr	r3, [r5, #28]
 6963              	.LVL502:
 6964              	.LBB1156:
 6965              	.LBI1156:
  73:../libDaisy/src/hid/switch.h ****     {
 6966              		.loc 1 73 17 is_stmt 1 view .LVU1961
 6967              	.LBB1157:
  75:../libDaisy/src/hid/switch.h ****     }
 6968              		.loc 1 75 9 view .LVU1962
  75:../libDaisy/src/hid/switch.h ****     }
 6969              		.loc 1 75 25 is_stmt 0 view .LVU1963
 6970 00de 93F8C420 		ldrb	r2, [r3, #196]	@ zero_extendqisi2
 6971 00e2 72B1     		cbz	r2, .L356
 6972              	.LVL503:
  75:../libDaisy/src/hid/switch.h ****     }
 6973              		.loc 1 75 25 view .LVU1964
 6974              	.LBE1157:
 6975              	.LBE1156:
 236:GrannyChordApp.cpp ****     if (!btn2_long_press_fired_){
 6976              		.loc 3 236 3 view .LVU1965
 6977 00e4 93F8CA30 		ldrb	r3, [r3, #202]	@ zero_extendqisi2
 6978 00e8 802B     		cmp	r3, #128
 6979 00ea 0AD1     		bne	.L356
 237:GrannyChordApp.cpp ****       HandleButton2();
 6980              		.loc 3 237 5 is_stmt 1 view .LVU1966
 6981 00ec 94F88D38 		ldrb	r3, [r4, #2189]	@ zero_extendqisi2
 6982 00f0 13B9     		cbnz	r3, .L357
 238:GrannyChordApp.cpp ****     }
 6983              		.loc 3 238 7 view .LVU1967
 238:GrannyChordApp.cpp ****     }
 6984              		.loc 3 238 20 is_stmt 0 view .LVU1968
 6985 00f2 2846     		mov	r0, r5
 6986 00f4 FFF7FEFF 		bl	_ZN14GrannyChordApp13HandleButton2Ev
 6987              	.LVL504:
 6988              	.L357:
 240:GrannyChordApp.cpp ****     btn2_long_press_fired_ = false;
 6989              		.loc 3 240 5 is_stmt 1 view .LVU1969
ARM GAS  /var/folders/2p/02m_5p7958535cp2tpgps0400000gn/T//ccx9FAOt.s 			page 224


 241:GrannyChordApp.cpp ****   }
 6990              		.loc 3 241 28 is_stmt 0 view .LVU1970
 6991 00f8 0023     		movs	r3, #0
 240:GrannyChordApp.cpp ****     btn2_long_press_fired_ = false;
 6992              		.loc 3 240 23 view .LVU1971
 6993 00fa C4F88868 		str	r6, [r4, #2184]
 241:GrannyChordApp.cpp ****   }
 6994              		.loc 3 241 5 is_stmt 1 view .LVU1972
 241:GrannyChordApp.cpp ****   }
 6995              		.loc 3 241 28 is_stmt 0 view .LVU1973
 6996 00fe 84F88D38 		strb	r3, [r4, #2189]
 6997              	.L356:
 245:GrannyChordApp.cpp ****     float heldTime1 = pod_.button1.TimeHeldMs();
 6998              		.loc 3 245 3 is_stmt 1 view .LVU1974
 6999              	.LBB1158:
 245:GrannyChordApp.cpp ****     float heldTime1 = pod_.button1.TimeHeldMs();
 7000              		.loc 3 245 7 is_stmt 0 view .LVU1975
 7001 0102 E869     		ldr	r0, [r5, #28]
 7002              	.LVL505:
 7003              	.LBB1159:
 7004              	.LBI1159:
  79:../libDaisy/src/hid/switch.h **** 
 7005              		.loc 1 79 17 is_stmt 1 view .LVU1976
 7006              	.LBB1160:
  79:../libDaisy/src/hid/switch.h **** 
 7007              		.loc 1 79 35 view .LVU1977
  79:../libDaisy/src/hid/switch.h **** 
 7008              		.loc 1 79 35 is_stmt 0 view .LVU1978
 7009              	.LBE1160:
 7010              	.LBE1159:
 245:GrannyChordApp.cpp ****     float heldTime1 = pod_.button1.TimeHeldMs();
 7011              		.loc 3 245 30 view .LVU1979
 7012 0104 90F8BA30 		ldrb	r3, [r0, #186]	@ zero_extendqisi2
 7013 0108 FF2B     		cmp	r3, #255
 7014 010a 16D1     		bne	.L358
 7015              	.LVL506:
 7016              	.LBB1161:
 7017              	.LBI1161:
  79:../libDaisy/src/hid/switch.h **** 
 7018              		.loc 1 79 17 is_stmt 1 discriminator 1 view .LVU1980
 7019              	.LBB1162:
  79:../libDaisy/src/hid/switch.h **** 
 7020              		.loc 1 79 35 discriminator 1 view .LVU1981
  79:../libDaisy/src/hid/switch.h **** 
 7021              		.loc 1 79 35 is_stmt 0 discriminator 1 view .LVU1982
 7022              	.LBE1162:
 7023              	.LBE1161:
 245:GrannyChordApp.cpp ****     float heldTime1 = pod_.button1.TimeHeldMs();
 7024              		.loc 3 245 30 discriminator 1 view .LVU1983
 7025 010c 90F8CA30 		ldrb	r3, [r0, #202]	@ zero_extendqisi2
 7026 0110 FF2B     		cmp	r3, #255
 7027 0112 12D1     		bne	.L358
 7028              	.LBB1163:
 246:GrannyChordApp.cpp ****     float heldTime2 = pod_.button2.TimeHeldMs();
 7029              		.loc 3 246 5 is_stmt 1 view .LVU1984
 246:GrannyChordApp.cpp ****     float heldTime2 = pod_.button2.TimeHeldMs();
 7030              		.loc 3 246 46 is_stmt 0 view .LVU1985
ARM GAS  /var/folders/2p/02m_5p7958535cp2tpgps0400000gn/T//ccx9FAOt.s 			page 225


 7031 0114 B030     		adds	r0, r0, #176
 7032 0116 FFF7FEFF 		bl	_ZNK5daisy6Switch10TimeHeldMsEv
 7033              	.LVL507:
 247:GrannyChordApp.cpp ****     if (heldTime1 > LONG_PRESS_TIME &&
 7034              		.loc 3 247 46 view .LVU1986
 7035 011a E869     		ldr	r0, [r5, #28]
 246:GrannyChordApp.cpp ****     float heldTime2 = pod_.button2.TimeHeldMs();
 7036              		.loc 3 246 46 view .LVU1987
 7037 011c B0EE408A 		vmov.f32	s16, s0
 7038              	.LVL508:
 247:GrannyChordApp.cpp ****     if (heldTime1 > LONG_PRESS_TIME &&
 7039              		.loc 3 247 5 is_stmt 1 view .LVU1988
 247:GrannyChordApp.cpp ****     if (heldTime1 > LONG_PRESS_TIME &&
 7040              		.loc 3 247 46 is_stmt 0 view .LVU1989
 7041 0120 C030     		adds	r0, r0, #192
 7042 0122 FFF7FEFF 		bl	_ZNK5daisy6Switch10TimeHeldMsEv
 7043              	.LVL509:
 248:GrannyChordApp.cpp ****         heldTime2 > LONG_PRESS_TIME &&
 7044              		.loc 3 248 5 is_stmt 1 view .LVU1990
 7045 0126 DFED207A 		vldr.32	s15, .L379
 7046 012a B4EEE78A 		vcmpe.f32	s16, s15
 7047 012e F1EE10FA 		vmrs	APSR_nzcv, FPSCR
 7048 0132 06DC     		bgt	.L359
 7049              	.LVL510:
 7050              	.L341:
 248:GrannyChordApp.cpp ****         heldTime2 > LONG_PRESS_TIME &&
 7051              		.loc 3 248 5 is_stmt 0 view .LVU1991
 7052              	.LBE1163:
 7053              	.LBE1158:
 268:GrannyChordApp.cpp **** 
 7054              		.loc 3 268 1 view .LVU1992
 7055 0134 BDEC028B 		vldm	sp!, {d8}
 7056              		.cfi_remember_state
 7057              		.cfi_restore 80
 7058              		.cfi_restore 81
 7059              		.cfi_def_cfa_offset 16
 7060 0138 70BD     		pop	{r4, r5, r6, pc}
 7061              	.LVL511:
 7062              	.L358:
 7063              		.cfi_restore_state
 7064              	.LBB1179:
 266:GrannyChordApp.cpp ****   }
 7065              		.loc 3 266 5 is_stmt 1 discriminator 4 view .LVU1993
 266:GrannyChordApp.cpp ****   }
 7066              		.loc 3 266 33 is_stmt 0 discriminator 4 view .LVU1994
 7067 013a 0023     		movs	r3, #0
 7068 013c 84F88E38 		strb	r3, [r4, #2190]
 7069 0140 F8E7     		b	.L341
 7070              	.LVL512:
 7071              	.L359:
 7072              	.LBB1178:
 248:GrannyChordApp.cpp ****         heldTime2 > LONG_PRESS_TIME &&
 7073              		.loc 3 248 37 discriminator 1 view .LVU1995
 7074 0142 B4EEE70A 		vcmpe.f32	s0, s15
 7075 0146 F1EE10FA 		vmrs	APSR_nzcv, FPSCR
 7076 014a F3DD     		ble	.L341
 249:GrannyChordApp.cpp ****         !both_btns_long_press_fired_) 
ARM GAS  /var/folders/2p/02m_5p7958535cp2tpgps0400000gn/T//ccx9FAOt.s 			page 226


 7077              		.loc 3 249 37 view .LVU1996
 7078 014c 94F88E38 		ldrb	r3, [r4, #2190]	@ zero_extendqisi2
 7079 0150 002B     		cmp	r3, #0
 7080 0152 EFD1     		bne	.L341
 252:GrannyChordApp.cpp ****         recording_out_ = true;
 7081              		.loc 3 252 7 is_stmt 1 view .LVU1997
 7082 0154 94F87438 		ldrb	r3, [r4, #2164]	@ zero_extendqisi2
 7083 0158 73B9     		cbnz	r3, .L362
 253:GrannyChordApp.cpp ****         DebugPrint(pod_,"now recording out!");
 7084              		.loc 3 253 9 view .LVU1998
 253:GrannyChordApp.cpp ****         DebugPrint(pod_,"now recording out!");
 7085              		.loc 3 253 24 is_stmt 0 view .LVU1999
 7086 015a 0123     		movs	r3, #1
 7087              	.LBB1164:
 7088              	.LBB1165:
 7089              		.loc 5 128 23 view .LVU2000
 7090 015c 1348     		ldr	r0, .L379+4
 7091              	.LBE1165:
 7092              	.LBE1164:
 253:GrannyChordApp.cpp ****         DebugPrint(pod_,"now recording out!");
 7093              		.loc 3 253 24 view .LVU2001
 7094 015e 84F87438 		strb	r3, [r4, #2164]
 254:GrannyChordApp.cpp ****         RecordOutToSD();
 7095              		.loc 3 254 9 is_stmt 1 view .LVU2002
 254:GrannyChordApp.cpp ****         RecordOutToSD();
 7096              		.loc 3 254 9 view .LVU2003
 7097              	.LVL513:
 7098              	.LBB1167:
 7099              	.LBI1164:
 126:../libDaisy/src/daisy_seed.h ****     {
 7100              		.loc 5 126 17 view .LVU2004
 7101              	.LBB1166:
 7102              		.loc 5 128 23 is_stmt 0 view .LVU2005
 7103 0162 FFF7FEFF 		bl	_ZN5daisy6LoggerILNS_17LoggerDestinationE1EE9PrintLineEPKcz
 7104              	.LVL514:
 7105              		.loc 5 128 23 view .LVU2006
 7106              	.LBE1166:
 7107              	.LBE1167:
 255:GrannyChordApp.cpp ****       } 
 7108              		.loc 3 255 9 is_stmt 1 view .LVU2007
 255:GrannyChordApp.cpp ****       } 
 7109              		.loc 3 255 22 is_stmt 0 view .LVU2008
 7110 0166 2846     		mov	r0, r5
 7111 0168 FFF7FEFF 		bl	_ZN14GrannyChordApp13RecordOutToSDEv
 7112              	.LVL515:
 7113              	.L363:
 261:GrannyChordApp.cpp ****       last_action_time_ = time_now;
 7114              		.loc 3 261 7 is_stmt 1 view .LVU2009
 261:GrannyChordApp.cpp ****       last_action_time_ = time_now;
 7115              		.loc 3 261 35 is_stmt 0 view .LVU2010
 7116 016c 0123     		movs	r3, #1
 262:GrannyChordApp.cpp ****     }
 7117              		.loc 3 262 25 view .LVU2011
 7118 016e C4F88868 		str	r6, [r4, #2184]
 261:GrannyChordApp.cpp ****       last_action_time_ = time_now;
 7119              		.loc 3 261 35 view .LVU2012
 7120 0172 84F88E38 		strb	r3, [r4, #2190]
ARM GAS  /var/folders/2p/02m_5p7958535cp2tpgps0400000gn/T//ccx9FAOt.s 			page 227


 262:GrannyChordApp.cpp ****     }
 7121              		.loc 3 262 7 is_stmt 1 view .LVU2013
 7122 0176 DDE7     		b	.L341
 7123              	.LVL516:
 7124              	.L362:
 258:GrannyChordApp.cpp ****         FinishRecording();
 7125              		.loc 3 258 9 view .LVU2014
 258:GrannyChordApp.cpp ****         FinishRecording();
 7126              		.loc 3 258 9 view .LVU2015
 7127              	.LBB1168:
 7128              	.LBI1168:
 175:../libDaisy/src/util/WavWriter.h ****     {
 7129              		.loc 9 175 18 view .LVU2016
 175:../libDaisy/src/util/WavWriter.h ****     {
 7130              		.loc 9 175 18 is_stmt 0 view .LVU2017
 7131              	.LBE1168:
 7132              	.LBB1171:
 7133              	.LBI1171:
 126:../libDaisy/src/daisy_seed.h ****     {
 7134              		.loc 5 126 17 is_stmt 1 view .LVU2018
 7135              	.LBE1171:
 7136              	.LBB1174:
 7137              	.LBB1169:
 177:../libDaisy/src/util/WavWriter.h ****     }
 7138              		.loc 9 177 16 is_stmt 0 view .LVU2019
 7139 0178 D5F82436 		ldr	r3, [r5, #1572]
 7140              	.LBE1169:
 7141              	.LBE1174:
 7142              	.LBB1175:
 7143              	.LBB1172:
 7144              		.loc 5 128 23 view .LVU2020
 7145 017c 0C48     		ldr	r0, .L379+8
 7146              	.LBE1172:
 7147              	.LBE1175:
 7148              	.LBB1176:
 7149              	.LBB1170:
 177:../libDaisy/src/util/WavWriter.h ****     }
 7150              		.loc 9 177 16 view .LVU2021
 7151 017e 07EE903A 		vmov	s15, r3	@ int
 177:../libDaisy/src/util/WavWriter.h ****     }
 7152              		.loc 9 177 48 view .LVU2022
 7153 0182 05F5BF63 		add	r3, r5, #1528
 177:../libDaisy/src/util/WavWriter.h ****     }
 7154              		.loc 9 177 16 view .LVU2023
 7155 0186 F8EE677A 		vcvt.f32.u32	s15, s15
 177:../libDaisy/src/util/WavWriter.h ****     }
 7156              		.loc 9 177 48 view .LVU2024
 7157 018a D3ED0D6A 		vldr.32	s13, [r3, #52]
 7158 018e 87EEA67A 		vdiv.f32	s14, s15, s13
 7159              	.LBE1170:
 7160              	.LBE1176:
 7161              	.LBB1177:
 7162              	.LBB1173:
 7163              		.loc 5 128 23 view .LVU2025
 7164 0192 B7EEC77A 		vcvt.f64.f32	d7, s14
 7165 0196 53EC172B 		vmov	r2, r3, d7
 7166 019a FFF7FEFF 		bl	_ZN5daisy6LoggerILNS_17LoggerDestinationE1EE9PrintLineEPKcz
ARM GAS  /var/folders/2p/02m_5p7958535cp2tpgps0400000gn/T//ccx9FAOt.s 			page 228


 7167              	.LVL517:
 7168              		.loc 5 128 23 view .LVU2026
 7169              	.LBE1173:
 7170              	.LBE1177:
 259:GrannyChordApp.cpp ****       }
 7171              		.loc 3 259 9 is_stmt 1 view .LVU2027
 259:GrannyChordApp.cpp ****       }
 7172              		.loc 3 259 24 is_stmt 0 view .LVU2028
 7173 019e 2846     		mov	r0, r5
 7174 01a0 FFF7FEFF 		bl	_ZN14GrannyChordApp15FinishRecordingEv
 7175              	.LVL518:
 7176 01a4 E2E7     		b	.L363
 7177              	.L380:
 7178 01a6 00BF     		.align	2
 7179              	.L379:
 7180 01a8 00007A44 		.word	1148846080
 7181 01ac 00000000 		.word	.LC33
 7182 01b0 13000000 		.word	.LC34
 7183              	.LBE1178:
 7184              	.LBE1179:
 7185              		.cfi_endproc
 7186              	.LFE4912:
 7188              		.section	.rodata._ZN14GrannyChordApp8UpdateUIEv.str1.1,"aMS",%progbits,1
 7189              	.LC35:
 7190 0000 73776974 		.ascii	"switching states\000"
 7190      6368696E 
 7190      67207374 
 7190      61746573 
 7190      00
 7191              		.section	.text._ZN14GrannyChordApp8UpdateUIEv,"ax",%progbits
 7192              		.align	1
 7193              		.global	_ZN14GrannyChordApp8UpdateUIEv
 7194              		.syntax unified
 7195              		.thumb
 7196              		.thumb_func
 7198              	_ZN14GrannyChordApp8UpdateUIEv:
 7199              	.LVL519:
 7200              	.LFB4907:
  77:GrannyChordApp.cpp ****   pod_.ProcessDigitalControls();
 7201              		.loc 3 77 32 is_stmt 1 view -0
 7202              		.cfi_startproc
 7203              		@ args = 0, pretend = 0, frame = 0
 7204              		@ frame_needed = 0, uses_anonymous_args = 0
  78:GrannyChordApp.cpp **** 
 7205              		.loc 3 78 3 view .LVU2030
  77:GrannyChordApp.cpp ****   pod_.ProcessDigitalControls();
 7206              		.loc 3 77 32 is_stmt 0 view .LVU2031
 7207 0000 10B5     		push	{r4, lr}
 7208              		.cfi_def_cfa_offset 8
 7209              		.cfi_offset 4, -8
 7210              		.cfi_offset 14, -4
  77:GrannyChordApp.cpp ****   pod_.ProcessDigitalControls();
 7211              		.loc 3 77 32 view .LVU2032
 7212 0002 0446     		mov	r4, r0
  78:GrannyChordApp.cpp **** 
 7213              		.loc 3 78 30 view .LVU2033
 7214 0004 C069     		ldr	r0, [r0, #28]
ARM GAS  /var/folders/2p/02m_5p7958535cp2tpgps0400000gn/T//ccx9FAOt.s 			page 229


 7215              	.LVL520:
  78:GrannyChordApp.cpp **** 
 7216              		.loc 3 78 30 view .LVU2034
 7217 0006 FFF7FEFF 		bl	_ZN5daisy8DaisyPod22ProcessDigitalControlsEv
 7218              	.LVL521:
  80:GrannyChordApp.cpp ****   else if (pod_.encoder.FallingEdge()) HandleEncoderPressed();
 7219              		.loc 3 80 3 is_stmt 1 view .LVU2035
 7220              	.LBB1190:
 7221              	.LBI1190:
  43:../libDaisy/src/hid/encoder.h **** 
  44:../libDaisy/src/hid/encoder.h ****     /** Returns true while the encoder is held down.*/
  45:../libDaisy/src/hid/encoder.h ****     inline bool Pressed() const { return sw_.Pressed(); }
  46:../libDaisy/src/hid/encoder.h **** 
  47:../libDaisy/src/hid/encoder.h ****     /** Returns the time in milliseconds that the encoder has been held down. */
  48:../libDaisy/src/hid/encoder.h ****     inline float TimeHeldMs() const { return sw_.TimeHeldMs(); }
 7222              		.loc 7 48 18 view .LVU2036
 7223              	.LBB1191:
 7224              		.loc 7 48 39 view .LVU2037
 7225              		.loc 7 48 60 is_stmt 0 view .LVU2038
 7226 000a E069     		ldr	r0, [r4, #28]
 7227 000c 4830     		adds	r0, r0, #72
 7228 000e FFF7FEFF 		bl	_ZNK5daisy6Switch10TimeHeldMsEv
 7229              	.LVL522:
 7230              		.loc 7 48 60 view .LVU2039
 7231              	.LBE1191:
 7232              	.LBE1190:
  80:GrannyChordApp.cpp ****   else if (pod_.encoder.FallingEdge()) HandleEncoderPressed();
 7233              		.loc 3 80 3 view .LVU2040
 7234 0012 DFED1F7A 		vldr.32	s15, .L399
 7235 0016 B4EEE70A 		vcmpe.f32	s0, s15
 7236 001a F1EE10FA 		vmrs	APSR_nzcv, FPSCR
 7237 001e 28DD     		ble	.L398
  80:GrannyChordApp.cpp ****   else if (pod_.encoder.FallingEdge()) HandleEncoderPressed();
 7238              		.loc 3 80 44 is_stmt 1 discriminator 1 view .LVU2041
  80:GrannyChordApp.cpp ****   else if (pod_.encoder.FallingEdge()) HandleEncoderPressed();
 7239              		.loc 3 80 66 is_stmt 0 discriminator 1 view .LVU2042
 7240 0020 2046     		mov	r0, r4
 7241 0022 FFF7FEFF 		bl	_ZN14GrannyChordApp22HandleEncoderLongPressEv
 7242              	.LVL523:
 7243              	.L384:
  83:GrannyChordApp.cpp ****     ButtonHandler();
 7244              		.loc 3 83 3 is_stmt 1 view .LVU2043
 7245 0026 D4F83834 		ldr	r3, [r4, #1080]
 7246 002a 022B     		cmp	r3, #2
 7247 002c 02D1     		bne	.L385
  84:GrannyChordApp.cpp ****   }
 7248              		.loc 3 84 5 view .LVU2044
  84:GrannyChordApp.cpp ****   }
 7249              		.loc 3 84 18 is_stmt 0 view .LVU2045
 7250 002e 2046     		mov	r0, r4
 7251 0030 FFF7FEFF 		bl	_ZN14GrannyChordApp13ButtonHandlerEv
 7252              	.LVL524:
 7253              	.L385:
  87:GrannyChordApp.cpp ****   if (encoder_inc!=0){
 7254              		.loc 3 87 3 is_stmt 1 view .LVU2046
  87:GrannyChordApp.cpp ****   if (encoder_inc!=0){
 7255              		.loc 3 87 25 is_stmt 0 view .LVU2047
ARM GAS  /var/folders/2p/02m_5p7958535cp2tpgps0400000gn/T//ccx9FAOt.s 			page 230


 7256 0034 E369     		ldr	r3, [r4, #28]
 7257              	.LVL525:
 7258              	.LBB1192:
 7259              	.LBI1192:
  36:../libDaisy/src/hid/encoder.h **** 
 7260              		.loc 7 36 20 is_stmt 1 view .LVU2048
 7261              	.LBB1193:
  36:../libDaisy/src/hid/encoder.h **** 
 7262              		.loc 7 36 40 view .LVU2049
  36:../libDaisy/src/hid/encoder.h **** 
 7263              		.loc 7 36 56 is_stmt 0 view .LVU2050
 7264 0036 93F84420 		ldrb	r2, [r3, #68]	@ zero_extendqisi2
 7265 003a 22B1     		cbz	r2, .L386
 7266 003c 596E     		ldr	r1, [r3, #100]
 7267              	.LVL526:
  36:../libDaisy/src/hid/encoder.h **** 
 7268              		.loc 7 36 56 view .LVU2051
 7269              	.LBE1193:
 7270              	.LBE1192:
  88:GrannyChordApp.cpp ****     HandleEncoderIncrement(encoder_inc);
 7271              		.loc 3 88 3 is_stmt 1 view .LVU2052
 7272 003e 11B1     		cbz	r1, .L386
  89:GrannyChordApp.cpp ****   }
 7273              		.loc 3 89 5 view .LVU2053
  89:GrannyChordApp.cpp ****   }
 7274              		.loc 3 89 27 is_stmt 0 view .LVU2054
 7275 0040 2046     		mov	r0, r4
 7276 0042 FFF7FEFF 		bl	_ZN14GrannyChordApp22HandleEncoderIncrementEi
 7277              	.LVL527:
 7278              	.L386:
  91:GrannyChordApp.cpp ****     #ifdef DEBUG_MODE
 7279              		.loc 3 91 3 is_stmt 1 view .LVU2055
  91:GrannyChordApp.cpp ****     #ifdef DEBUG_MODE
 7280              		.loc 3 91 7 is_stmt 0 view .LVU2056
 7281 0046 D4F83814 		ldr	r1, [r4, #1080]
  91:GrannyChordApp.cpp ****     #ifdef DEBUG_MODE
 7282              		.loc 3 91 3 view .LVU2057
 7283 004a D4F83C34 		ldr	r3, [r4, #1084]
 7284 004e 9942     		cmp	r1, r3
 7285 0050 1CD0     		beq	.L381
  93:GrannyChordApp.cpp ****     DebugPrint(pod_, "switching states");
 7286              		.loc 3 93 5 is_stmt 1 view .LVU2058
  93:GrannyChordApp.cpp ****     DebugPrint(pod_, "switching states");
 7287              		.loc 3 93 20 is_stmt 0 view .LVU2059
 7288 0052 2046     		mov	r0, r4
 7289 0054 FFF7FEFF 		bl	_ZN14GrannyChordApp15DebugPrintStateE8AppState
 7290              	.LVL528:
  94:GrannyChordApp.cpp ****     DebugPrintState(next_state_);
 7291              		.loc 3 94 5 is_stmt 1 view .LVU2060
  94:GrannyChordApp.cpp ****     DebugPrintState(next_state_);
 7292              		.loc 3 94 5 view .LVU2061
 7293              	.LBB1194:
 7294              	.LBI1194:
 126:../libDaisy/src/daisy_seed.h ****     {
 7295              		.loc 5 126 17 view .LVU2062
 7296              	.LBB1195:
 7297              		.loc 5 128 23 is_stmt 0 view .LVU2063
ARM GAS  /var/folders/2p/02m_5p7958535cp2tpgps0400000gn/T//ccx9FAOt.s 			page 231


 7298 0058 0E48     		ldr	r0, .L399+4
 7299 005a FFF7FEFF 		bl	_ZN5daisy6LoggerILNS_17LoggerDestinationE1EE9PrintLineEPKcz
 7300              	.LVL529:
 7301              		.loc 5 128 23 view .LVU2064
 7302              	.LBE1195:
 7303              	.LBE1194:
  95:GrannyChordApp.cpp ****     #endif
 7304              		.loc 3 95 5 is_stmt 1 view .LVU2065
  95:GrannyChordApp.cpp ****     #endif
 7305              		.loc 3 95 20 is_stmt 0 view .LVU2066
 7306 005e 2046     		mov	r0, r4
 7307 0060 D4F83C14 		ldr	r1, [r4, #1084]
 7308 0064 FFF7FEFF 		bl	_ZN14GrannyChordApp15DebugPrintStateE8AppState
 7309              	.LVL530:
  97:GrannyChordApp.cpp ****   }
 7310              		.loc 3 97 5 is_stmt 1 view .LVU2067
  97:GrannyChordApp.cpp ****   }
 7311              		.loc 3 97 22 is_stmt 0 view .LVU2068
 7312 0068 2046     		mov	r0, r4
  99:GrannyChordApp.cpp **** 
 7313              		.loc 3 99 1 view .LVU2069
 7314 006a BDE81040 		pop	{r4, lr}
 7315              		.cfi_remember_state
 7316              		.cfi_restore 14
 7317              		.cfi_restore 4
 7318              		.cfi_def_cfa_offset 0
 7319              	.LVL531:
  97:GrannyChordApp.cpp ****   }
 7320              		.loc 3 97 22 view .LVU2070
 7321 006e FFF7FEBF 		b	_ZN14GrannyChordApp17HandleStateChangeEv
 7322              	.LVL532:
 7323              	.L398:
 7324              		.cfi_restore_state
  81:GrannyChordApp.cpp **** 
 7325              		.loc 3 81 8 is_stmt 1 view .LVU2071
  81:GrannyChordApp.cpp **** 
 7326              		.loc 3 81 12 is_stmt 0 view .LVU2072
 7327 0072 E369     		ldr	r3, [r4, #28]
 7328              	.LVL533:
 7329              	.LBB1196:
 7330              	.LBI1196:
  42:../libDaisy/src/hid/encoder.h **** 
 7331              		.loc 7 42 17 is_stmt 1 view .LVU2073
 7332              	.LBE1196:
  42:../libDaisy/src/hid/encoder.h **** 
 7333              		.loc 7 42 39 view .LVU2074
 7334              	.LBB1199:
 7335              	.LBB1197:
 7336              	.LBI1197:
  73:../libDaisy/src/hid/switch.h ****     {
 7337              		.loc 1 73 17 view .LVU2075
 7338              	.LBB1198:
  75:../libDaisy/src/hid/switch.h ****     }
 7339              		.loc 1 75 9 view .LVU2076
  75:../libDaisy/src/hid/switch.h ****     }
 7340              		.loc 1 75 25 is_stmt 0 view .LVU2077
 7341 0074 93F84C20 		ldrb	r2, [r3, #76]	@ zero_extendqisi2
ARM GAS  /var/folders/2p/02m_5p7958535cp2tpgps0400000gn/T//ccx9FAOt.s 			page 232


 7342 0078 002A     		cmp	r2, #0
 7343 007a D4D0     		beq	.L384
 7344              	.LVL534:
  75:../libDaisy/src/hid/switch.h ****     }
 7345              		.loc 1 75 25 view .LVU2078
 7346              	.LBE1198:
 7347              	.LBE1197:
 7348              	.LBE1199:
  81:GrannyChordApp.cpp **** 
 7349              		.loc 3 81 8 view .LVU2079
 7350 007c 93F85230 		ldrb	r3, [r3, #82]	@ zero_extendqisi2
 7351 0080 802B     		cmp	r3, #128
 7352 0082 D0D1     		bne	.L384
  81:GrannyChordApp.cpp **** 
 7353              		.loc 3 81 40 is_stmt 1 discriminator 1 view .LVU2080
  81:GrannyChordApp.cpp **** 
 7354              		.loc 3 81 60 is_stmt 0 discriminator 1 view .LVU2081
 7355 0084 2046     		mov	r0, r4
 7356 0086 FFF7FEFF 		bl	_ZN14GrannyChordApp20HandleEncoderPressedEv
 7357              	.LVL535:
 7358 008a CCE7     		b	.L384
 7359              	.L381:
  99:GrannyChordApp.cpp **** 
 7360              		.loc 3 99 1 view .LVU2082
 7361 008c 10BD     		pop	{r4, pc}
 7362              	.LVL536:
 7363              	.L400:
  99:GrannyChordApp.cpp **** 
 7364              		.loc 3 99 1 view .LVU2083
 7365 008e 00BF     		.align	2
 7366              	.L399:
 7367 0090 00007A44 		.word	1148846080
 7368 0094 00000000 		.word	.LC35
 7369              		.cfi_endproc
 7370              	.LFE4907:
 7372              		.section	.rodata._ZN14GrannyChordApp3RunEv.str1.1,"aMS",%progbits,1
 7373              	.LC36:
 7374 0000 61707020 		.ascii	"app is running\000"
 7374      69732072 
 7374      756E6E69 
 7374      6E6700
 7375              		.section	.text._ZN14GrannyChordApp3RunEv,"ax",%progbits
 7376              		.align	1
 7377              		.global	_ZN14GrannyChordApp3RunEv
 7378              		.syntax unified
 7379              		.thumb
 7380              		.thumb_func
 7382              	_ZN14GrannyChordApp3RunEv:
 7383              	.LVL537:
 7384              	.LFB4906:
  51:GrannyChordApp.cpp ****   pod_.seed.PrintLine("app is running");
 7385              		.loc 3 51 27 is_stmt 1 view -0
 7386              		.cfi_startproc
 7387              		@ Volatile: function does not return.
 7388              		@ args = 0, pretend = 0, frame = 8
 7389              		@ frame_needed = 0, uses_anonymous_args = 0
  52:GrannyChordApp.cpp ****   while(true){
ARM GAS  /var/folders/2p/02m_5p7958535cp2tpgps0400000gn/T//ccx9FAOt.s 			page 233


 7390              		.loc 3 52 3 view .LVU2085
 7391              	.LBB1210:
 7392              	.LBI1210:
 126:../libDaisy/src/daisy_seed.h ****     {
 7393              		.loc 5 126 17 view .LVU2086
 7394              	.LBE1210:
  51:GrannyChordApp.cpp ****   pod_.seed.PrintLine("app is running");
 7395              		.loc 3 51 27 is_stmt 0 view .LVU2087
 7396 0000 0446     		mov	r4, r0
 7397 0002 07B5     		push	{r0, r1, r2, lr}
 7398              		.cfi_def_cfa_offset 16
 7399              		.cfi_offset 14, -4
 7400              	.LBB1212:
 7401              	.LBB1211:
 7402              		.loc 5 128 23 view .LVU2088
 7403 0004 2048     		ldr	r0, .L417
 7404              	.LVL538:
 7405              		.loc 5 128 23 view .LVU2089
 7406 0006 FFF7FEFF 		bl	_ZN5daisy6LoggerILNS_17LoggerDestinationE1EE9PrintLineEPKcz
 7407              	.LVL539:
 7408              	.L408:
 7409              		.loc 5 128 23 view .LVU2090
 7410              	.LBE1211:
 7411              	.LBE1212:
  53:GrannyChordApp.cpp ****     // #ifdef DEBUG_MODE
 7412              		.loc 3 53 3 is_stmt 1 view .LVU2091
  63:GrannyChordApp.cpp ****       sd_writer_.Write();
 7413              		.loc 3 63 5 view .LVU2092
  63:GrannyChordApp.cpp ****       sd_writer_.Write();
 7414              		.loc 3 63 9 is_stmt 0 view .LVU2093
 7415 000a 04F50045 		add	r5, r4, #32768
  63:GrannyChordApp.cpp ****       sd_writer_.Write();
 7416              		.loc 3 63 5 view .LVU2094
 7417 000e 95F87438 		ldrb	r3, [r5, #2164]	@ zero_extendqisi2
 7418 0012 93B3     		cbz	r3, .L403
 7419              	.LBB1213:
 7420              	.LBB1214:
 128:../libDaisy/src/util/WavWriter.h ****         {
 7421              		.loc 9 128 12 view .LVU2095
 7422 0014 D5F83826 		ldr	r2, [r5, #1592]
 7423              	.LBE1214:
 7424              	.LBE1213:
  64:GrannyChordApp.cpp ****       if (sd_writer_.GetLengthSeconds()>120){
 7425              		.loc 3 64 23 view .LVU2096
 7426 0018 04F5BF66 		add	r6, r4, #1528
  64:GrannyChordApp.cpp ****       if (sd_writer_.GetLengthSeconds()>120){
 7427              		.loc 3 64 7 is_stmt 1 view .LVU2097
 7428              	.LVL540:
 7429              	.LBB1218:
 7430              	.LBI1213:
 126:../libDaisy/src/util/WavWriter.h ****     {
 7431              		.loc 9 126 10 view .LVU2098
 7432              	.LBB1217:
 128:../libDaisy/src/util/WavWriter.h ****         {
 7433              		.loc 9 128 41 is_stmt 0 view .LVU2099
 7434 001c B2B1     		cbz	r2, .L404
 7435              	.LVL541:
ARM GAS  /var/folders/2p/02m_5p7958535cp2tpgps0400000gn/T//ccx9FAOt.s 			page 234


 7436              	.LBB1215:
 7437              	.LBI1215:
 169:../libDaisy/src/util/WavWriter.h **** 
 7438              		.loc 9 169 17 is_stmt 1 view .LVU2100
 169:../libDaisy/src/util/WavWriter.h **** 
 7439              		.loc 9 169 17 is_stmt 0 view .LVU2101
 7440              	.LBE1215:
 128:../libDaisy/src/util/WavWriter.h ****         {
 7441              		.loc 9 128 41 view .LVU2102
 7442 001e 95F83C36 		ldrb	r3, [r5, #1596]	@ zero_extendqisi2
 7443 0022 9BB1     		cbz	r3, .L404
 7444              	.LBB1216:
 131:../libDaisy/src/util/WavWriter.h ****             //offset          = bstate_ == BufferState::FLUSH0 ? 0 : transfer_size;
 7445              		.loc 9 131 26 view .LVU2103
 7446 0024 0023     		movs	r3, #0
 133:../libDaisy/src/util/WavWriter.h ****             bstate_ = BufferState::IDLE;
 7447              		.loc 9 133 54 view .LVU2104
 7448 0026 012A     		cmp	r2, #1
 135:../libDaisy/src/util/WavWriter.h ****         }
 7449              		.loc 9 135 20 view .LVU2105
 7450 0028 06F50040 		add	r0, r6, #32768
 7451 002c 4FF48042 		mov	r2, #16384
 133:../libDaisy/src/util/WavWriter.h ****             bstate_ = BufferState::IDLE;
 7452              		.loc 9 133 54 view .LVU2106
 7453 0030 0CBF     		ite	eq
 7454 0032 1946     		moveq	r1, r3
 7455 0034 4FF48051 		movne	r1, #4096
 7456              	.LVL542:
 131:../libDaisy/src/util/WavWriter.h ****             //offset          = bstate_ == BufferState::FLUSH0 ? 0 : transfer_size;
 7457              		.loc 9 131 26 view .LVU2107
 7458 0038 0193     		str	r3, [sp, #4]
 135:../libDaisy/src/util/WavWriter.h ****         }
 7459              		.loc 9 135 20 view .LVU2108
 7460 003a 4830     		adds	r0, r0, #72
 135:../libDaisy/src/util/WavWriter.h ****         }
 7461              		.loc 9 135 41 view .LVU2109
 7462 003c 1031     		adds	r1, r1, #16
 7463              	.LVL543:
 134:../libDaisy/src/util/WavWriter.h ****             f_write(&fp_, &transfer_buff[offset], transfer_size, &bw);
 7464              		.loc 9 134 21 view .LVU2110
 7465 003e C5F83836 		str	r3, [r5, #1592]
 135:../libDaisy/src/util/WavWriter.h ****         }
 7466              		.loc 9 135 20 view .LVU2111
 7467 0042 01AB     		add	r3, sp, #4
 7468 0044 06EB8101 		add	r1, r6, r1, lsl #2
 7469              	.LVL544:
 135:../libDaisy/src/util/WavWriter.h ****         }
 7470              		.loc 9 135 20 view .LVU2112
 7471 0048 FFF7FEFF 		bl	f_write
 7472              	.LVL545:
 7473              	.L404:
 135:../libDaisy/src/util/WavWriter.h ****         }
 7474              		.loc 9 135 20 view .LVU2113
 7475              	.LBE1216:
 7476              	.LBE1217:
 7477              	.LBE1218:
  65:GrannyChordApp.cpp ****         sd_writer_.SaveFile();
ARM GAS  /var/folders/2p/02m_5p7958535cp2tpgps0400000gn/T//ccx9FAOt.s 			page 235


 7478              		.loc 3 65 7 is_stmt 1 view .LVU2114
 7479              	.LBB1219:
 7480              	.LBI1219:
 175:../libDaisy/src/util/WavWriter.h ****     {
 7481              		.loc 9 175 18 view .LVU2115
 7482              	.LBB1220:
 177:../libDaisy/src/util/WavWriter.h ****     }
 7483              		.loc 9 177 16 is_stmt 0 view .LVU2116
 7484 004c D4F82436 		ldr	r3, [r4, #1572]
 177:../libDaisy/src/util/WavWriter.h ****     }
 7485              		.loc 9 177 48 view .LVU2117
 7486 0050 D6ED0D6A 		vldr.32	s13, [r6, #52]
 177:../libDaisy/src/util/WavWriter.h ****     }
 7487              		.loc 9 177 16 view .LVU2118
 7488 0054 07EE903A 		vmov	s15, r3	@ int
 7489 0058 F8EE677A 		vcvt.f32.u32	s15, s15
 177:../libDaisy/src/util/WavWriter.h ****     }
 7490              		.loc 9 177 48 view .LVU2119
 7491 005c 87EEA67A 		vdiv.f32	s14, s15, s13
 7492              	.LBE1220:
 7493              	.LBE1219:
  65:GrannyChordApp.cpp ****         sd_writer_.SaveFile();
 7494              		.loc 3 65 7 view .LVU2120
 7495 0060 DFED0A7A 		vldr.32	s15, .L417+4
 7496 0064 B4EEE77A 		vcmpe.f32	s14, s15
 7497 0068 F1EE10FA 		vmrs	APSR_nzcv, FPSCR
 7498 006c 05DD     		ble	.L403
  66:GrannyChordApp.cpp ****         recording_out_ = false;
 7499              		.loc 3 66 9 is_stmt 1 view .LVU2121
  66:GrannyChordApp.cpp ****         recording_out_ = false;
 7500              		.loc 3 66 28 is_stmt 0 view .LVU2122
 7501 006e 3046     		mov	r0, r6
 7502 0070 FFF7FEFF 		bl	_ZN5daisy9WavWriterILj16384EE8SaveFileEv
 7503              	.LVL546:
  67:GrannyChordApp.cpp ****       }
 7504              		.loc 3 67 9 is_stmt 1 view .LVU2123
  67:GrannyChordApp.cpp ****       }
 7505              		.loc 3 67 24 is_stmt 0 view .LVU2124
 7506 0074 0023     		movs	r3, #0
 7507 0076 85F87438 		strb	r3, [r5, #2164]
 7508              	.L403:
  70:GrannyChordApp.cpp ****     UpdateSynthParams();
 7509              		.loc 3 70 5 is_stmt 1 view .LVU2125
  70:GrannyChordApp.cpp ****     UpdateSynthParams();
 7510              		.loc 3 70 13 is_stmt 0 view .LVU2126
 7511 007a 2046     		mov	r0, r4
 7512 007c FFF7FEFF 		bl	_ZN14GrannyChordApp8UpdateUIEv
 7513              	.LVL547:
  71:GrannyChordApp.cpp ****     // System::Delay(1);
 7514              		.loc 3 71 5 is_stmt 1 view .LVU2127
  71:GrannyChordApp.cpp ****     // System::Delay(1);
 7515              		.loc 3 71 22 is_stmt 0 view .LVU2128
 7516 0080 2046     		mov	r0, r4
 7517 0082 FFF7FEFF 		bl	_ZN14GrannyChordApp17UpdateSynthParamsEv
 7518              	.LVL548:
  53:GrannyChordApp.cpp ****     // #ifdef DEBUG_MODE
 7519              		.loc 3 53 3 is_stmt 1 view .LVU2129
ARM GAS  /var/folders/2p/02m_5p7958535cp2tpgps0400000gn/T//ccx9FAOt.s 			page 236


  63:GrannyChordApp.cpp ****       sd_writer_.Write();
 7520              		.loc 3 63 5 is_stmt 0 view .LVU2130
 7521 0086 C0E7     		b	.L408
 7522              	.L418:
 7523              		.align	2
 7524              	.L417:
 7525 0088 00000000 		.word	.LC36
 7526 008c 0000F042 		.word	1123024896
 7527              		.cfi_endproc
 7528              	.LFE4906:
 7530              		.global	_ZN14GrannyChordApp9instance_E
 7531              		.section	.bss._ZN14GrannyChordApp9instance_E,"aw",%nobits
 7532              		.align	2
 7533              		.set	.LANCHOR0,. + 0
 7536              	_ZN14GrannyChordApp9instance_E:
 7537 0000 00000000 		.space	4
 7538              		.text
 7539              	.Letext0:
 7540              		.file 20 "/Library/DaisyToolchain/0.2.0/arm/arm-none-eabi/include/machine/_default_types.h"
 7541              		.file 21 "/Library/DaisyToolchain/0.2.0/arm/arm-none-eabi/include/sys/_stdint.h"
 7542              		.file 22 "/Library/DaisyToolchain/0.2.0/arm/arm-none-eabi/include/stdint.h"
 7543              		.file 23 "/Library/DaisyToolchain/0.2.0/arm/lib/gcc/arm-none-eabi/10.3.1/include/stddef.h"
 7544              		.file 24 "/Library/DaisyToolchain/0.2.0/arm/arm-none-eabi/include/c++/10.3.1/cstdlib"
 7545              		.file 25 "/Library/DaisyToolchain/0.2.0/arm/arm-none-eabi/include/c++/10.3.1/cstdint"
 7546              		.file 26 "/Library/DaisyToolchain/0.2.0/arm/arm-none-eabi/include/c++/10.3.1/arm-none-eabi/thumb/v
 7547              		.file 27 "/Library/DaisyToolchain/0.2.0/arm/arm-none-eabi/include/c++/10.3.1/type_traits"
 7548              		.file 28 "/Library/DaisyToolchain/0.2.0/arm/arm-none-eabi/include/c++/10.3.1/debug/debug.h"
 7549              		.file 29 "/Library/DaisyToolchain/0.2.0/arm/arm-none-eabi/include/c++/10.3.1/bits/algorithmfwd.h"
 7550              		.file 30 "/Library/DaisyToolchain/0.2.0/arm/arm-none-eabi/include/c++/10.3.1/bits/stl_pair.h"
 7551              		.file 31 "/Library/DaisyToolchain/0.2.0/arm/arm-none-eabi/include/c++/10.3.1/bits/exception_ptr.h"
 7552              		.file 32 "/Library/DaisyToolchain/0.2.0/arm/arm-none-eabi/include/c++/10.3.1/initializer_list"
 7553              		.file 33 "/Library/DaisyToolchain/0.2.0/arm/arm-none-eabi/include/c++/10.3.1/cstdarg"
 7554              		.file 34 "/Library/DaisyToolchain/0.2.0/arm/arm-none-eabi/include/c++/10.3.1/cstdio"
 7555              		.file 35 "/Library/DaisyToolchain/0.2.0/arm/arm-none-eabi/include/c++/10.3.1/cstring"
 7556              		.file 36 "/Library/DaisyToolchain/0.2.0/arm/arm-none-eabi/include/c++/10.3.1/cwchar"
 7557              		.file 37 "/Library/DaisyToolchain/0.2.0/arm/arm-none-eabi/include/c++/10.3.1/clocale"
 7558              		.file 38 "/Library/DaisyToolchain/0.2.0/arm/arm-none-eabi/include/c++/10.3.1/bits/basic_string.h"
 7559              		.file 39 "/Library/DaisyToolchain/0.2.0/arm/arm-none-eabi/include/c++/10.3.1/bits/stl_iterator.h"
 7560              		.file 40 "/Library/DaisyToolchain/0.2.0/arm/arm-none-eabi/include/c++/10.3.1/bits/predefined_ops.h
 7561              		.file 41 "/Library/DaisyToolchain/0.2.0/arm/arm-none-eabi/include/sys/_types.h"
 7562              		.file 42 "/Library/DaisyToolchain/0.2.0/arm/arm-none-eabi/include/sys/reent.h"
 7563              		.file 43 "/Library/DaisyToolchain/0.2.0/arm/arm-none-eabi/include/sys/lock.h"
 7564              		.file 44 "/Library/DaisyToolchain/0.2.0/arm/arm-none-eabi/include/math.h"
 7565              		.file 45 "/Library/DaisyToolchain/0.2.0/arm/arm-none-eabi/include/stdlib.h"
 7566              		.file 46 "/Library/DaisyToolchain/0.2.0/arm/arm-none-eabi/include/c++/10.3.1/math.h"
 7567              		.file 47 "/Library/DaisyToolchain/0.2.0/arm/arm-none-eabi/include/c++/10.3.1/stdlib.h"
 7568              		.file 48 "../libDaisy/src/sys/system.h"
 7569              		.file 49 "../libDaisy/src/per/qspi.h"
 7570              		.file 50 "../libDaisy/src/per/dac.h"
 7571              		.file 51 "../libDaisy/src/per/sai.h"
 7572              		.file 52 "../libDaisy/src/hid/audio.h"
 7573              		.file 53 "../libDaisy/src/per/adc.h"
 7574              		.file 54 "../libDaisy/src/per/uart.h"
 7575              		.file 55 "../libDaisy/src/hid/MidiEvent.h"
 7576              		.file 56 "../libDaisy/src/hid/midi_parser.h"
 7577              		.file 57 "../libDaisy/src/hid/usb.h"
 7578              		.file 58 "../libDaisy/src/hid/midi.h"
ARM GAS  /var/folders/2p/02m_5p7958535cp2tpgps0400000gn/T//ccx9FAOt.s 			page 237


 7579              		.file 59 "../libDaisy/src/util/FIFO.h"
 7580              		.file 60 "../libDaisy/src/hid/ctrl.h"
 7581              		.file 61 "../libDaisy/src/hid/logger_impl.h"
 7582              		.file 62 "../libDaisy/src/per/sdmmc.h"
 7583              		.file 63 "../libDaisy/src/util/wav_format.h"
 7584              		.file 64 "../libDaisy/src/hid/led.h"
 7585              		.file 65 "../libDaisy/src/util/color.h"
 7586              		.file 66 "../libDaisy/src/hid/rgb_led.h"
 7587              		.file 67 "../libDaisy/src/dev/max11300.h"
 7588              		.file 68 "../libDaisy/src/sys/fatfs.h"
 7589              		.file 69 "../libDaisy/src/hid/logger.h"
 7590              		.file 70 "../libDaisy/src/daisy_pod.h"
 7591              		.file 71 "../libDaisy/src/per/gpio.h"
 7592              		.file 72 "../libDaisy/src/dev/sdram.h"
 7593              		.file 73 "/Library/DaisyToolchain/0.2.0/arm/lib/gcc/arm-none-eabi/10.3.1/include/stdarg.h"
 7594              		.file 74 "/Library/DaisyToolchain/0.2.0/arm/arm-none-eabi/include/stdio.h"
 7595              		.file 75 "../libDaisy/Middlewares/Third_Party/FatFs/src/integer.h"
 7596              		.file 76 "../libDaisy/Middlewares/Third_Party/FatFs/src/ff.h"
 7597              		.file 77 "/Library/DaisyToolchain/0.2.0/arm/arm-none-eabi/include/string.h"
 7598              		.file 78 "../DaisySP/Source/Control/adenv.h"
 7599              		.file 79 "../DaisySP/Source/Dynamics/limiter.h"
 7600              		.file 80 "/Library/DaisyToolchain/0.2.0/arm/arm-none-eabi/include/wchar.h"
 7601              		.file 81 "/Library/DaisyToolchain/0.2.0/arm/arm-none-eabi/include/time.h"
 7602              		.file 82 "/Library/DaisyToolchain/0.2.0/arm/arm-none-eabi/include/locale.h"
 7603              		.file 83 "sample.h"
 7604              		.file 84 "../libDaisy/src/dev/sr_595.h"
 7605              		.file 85 "GrainPhasor.h"
 7606              		.file 86 "Grain.h"
 7607              		.file 87 "AppState.h"
 7608              		.file 88 "<built-in>"
ARM GAS  /var/folders/2p/02m_5p7958535cp2tpgps0400000gn/T//ccx9FAOt.s 			page 238


DEFINED SYMBOLS
                            *ABS*:0000000000000000 GrannyChordApp.cpp
/var/folders/2p/02m_5p7958535cp2tpgps0400000gn/T//ccx9FAOt.s:19     .text._ZNK5daisy6Switch10TimeHeldMsEv:0000000000000000 $t
/var/folders/2p/02m_5p7958535cp2tpgps0400000gn/T//ccx9FAOt.s:25     .text._ZNK5daisy6Switch10TimeHeldMsEv:0000000000000000 _ZNK5daisy6Switch10TimeHeldMsEv
/var/folders/2p/02m_5p7958535cp2tpgps0400000gn/T//ccx9FAOt.s:84     .text._ZNK5daisy6Switch10TimeHeldMsEv:0000000000000028 $d
/var/folders/2p/02m_5p7958535cp2tpgps0400000gn/T//ccx9FAOt.s:89     .text._ZN7daisysp7OnePole7ProcessEf:0000000000000000 $t
/var/folders/2p/02m_5p7958535cp2tpgps0400000gn/T//ccx9FAOt.s:95     .text._ZN7daisysp7OnePole7ProcessEf:0000000000000000 _ZN7daisysp7OnePole7ProcessEf
/var/folders/2p/02m_5p7958535cp2tpgps0400000gn/T//ccx9FAOt.s:145    .text._ZN7daisysp7OnePole7ProcessEf:0000000000000038 $d
/var/folders/2p/02m_5p7958535cp2tpgps0400000gn/T//ccx9FAOt.s:159    .text._ZN14GrannyChordApp12PrintCPULoadEv:0000000000000000 $t
/var/folders/2p/02m_5p7958535cp2tpgps0400000gn/T//ccx9FAOt.s:165    .text._ZN14GrannyChordApp12PrintCPULoadEv:0000000000000000 _ZN14GrannyChordApp12PrintCPULoadEv
/var/folders/2p/02m_5p7958535cp2tpgps0400000gn/T//ccx9FAOt.s:479    .text._ZN14GrannyChordApp12PrintCPULoadEv:00000000000000e0 $d
/var/folders/2p/02m_5p7958535cp2tpgps0400000gn/T//ccx9FAOt.s:493    .text._ZN14GrannyChordApp20HandleEncoderPressedEv:0000000000000000 $t
/var/folders/2p/02m_5p7958535cp2tpgps0400000gn/T//ccx9FAOt.s:499    .text._ZN14GrannyChordApp20HandleEncoderPressedEv:0000000000000000 _ZN14GrannyChordApp20HandleEncoderPressedEv
/var/folders/2p/02m_5p7958535cp2tpgps0400000gn/T//ccx9FAOt.s:546    .text._ZN14GrannyChordApp22HandleEncoderLongPressEv:0000000000000000 $t
/var/folders/2p/02m_5p7958535cp2tpgps0400000gn/T//ccx9FAOt.s:552    .text._ZN14GrannyChordApp22HandleEncoderLongPressEv:0000000000000000 _ZN14GrannyChordApp22HandleEncoderLongPressEv
/var/folders/2p/02m_5p7958535cp2tpgps0400000gn/T//ccx9FAOt.s:647    .text._ZN14GrannyChordApp19HandleFileSelectionEl:0000000000000000 $t
/var/folders/2p/02m_5p7958535cp2tpgps0400000gn/T//ccx9FAOt.s:653    .text._ZN14GrannyChordApp19HandleFileSelectionEl:0000000000000000 _ZN14GrannyChordApp19HandleFileSelectionEl
/var/folders/2p/02m_5p7958535cp2tpgps0400000gn/T//ccx9FAOt.s:768    .text._ZN14GrannyChordApp19HandleFileSelectionEl:0000000000000040 $d
/var/folders/2p/02m_5p7958535cp2tpgps0400000gn/T//ccx9FAOt.s:775    .text._ZN14GrannyChordApp22HandleEncoderIncrementEi:0000000000000000 $t
/var/folders/2p/02m_5p7958535cp2tpgps0400000gn/T//ccx9FAOt.s:781    .text._ZN14GrannyChordApp22HandleEncoderIncrementEi:0000000000000000 _ZN14GrannyChordApp22HandleEncoderIncrementEi
/var/folders/2p/02m_5p7958535cp2tpgps0400000gn/T//ccx9FAOt.s:829    .text._ZN14GrannyChordApp11InitFileMgrEv:0000000000000000 $t
/var/folders/2p/02m_5p7958535cp2tpgps0400000gn/T//ccx9FAOt.s:835    .text._ZN14GrannyChordApp11InitFileMgrEv:0000000000000000 _ZN14GrannyChordApp11InitFileMgrEv
/var/folders/2p/02m_5p7958535cp2tpgps0400000gn/T//ccx9FAOt.s:904    .text._ZN14GrannyChordApp12InitPlaybackEv:0000000000000000 $t
/var/folders/2p/02m_5p7958535cp2tpgps0400000gn/T//ccx9FAOt.s:910    .text._ZN14GrannyChordApp12InitPlaybackEv:0000000000000000 _ZN14GrannyChordApp12InitPlaybackEv
/var/folders/2p/02m_5p7958535cp2tpgps0400000gn/T//ccx9FAOt.s:999    .text._ZN14GrannyChordApp12InitPlaybackEv:0000000000000048 $d
/var/folders/2p/02m_5p7958535cp2tpgps0400000gn/T//ccx9FAOt.s:3208   .text._ZN14GrannyChordApp13AudioCallbackEPKPKfPPfj:0000000000000000 _ZN14GrannyChordApp13AudioCallbackEPKPKfPPfj
/var/folders/2p/02m_5p7958535cp2tpgps0400000gn/T//ccx9FAOt.s:1006   .text._ZN14GrannyChordApp12InitRecordInEv:0000000000000000 $t
/var/folders/2p/02m_5p7958535cp2tpgps0400000gn/T//ccx9FAOt.s:1012   .text._ZN14GrannyChordApp12InitRecordInEv:0000000000000000 _ZN14GrannyChordApp12InitRecordInEv
/var/folders/2p/02m_5p7958535cp2tpgps0400000gn/T//ccx9FAOt.s:1056   .text._ZN14GrannyChordApp13InitWavWriterEv:0000000000000000 $t
/var/folders/2p/02m_5p7958535cp2tpgps0400000gn/T//ccx9FAOt.s:1062   .text._ZN14GrannyChordApp13InitWavWriterEv:0000000000000000 _ZN14GrannyChordApp13InitWavWriterEv
/var/folders/2p/02m_5p7958535cp2tpgps0400000gn/T//ccx9FAOt.s:1262   .text._ZN14GrannyChordApp13InitWavWriterEv:00000000000000ac $d
/var/folders/2p/02m_5p7958535cp2tpgps0400000gn/T//ccx9FAOt.s:1269   .text._ZN14GrannyChordApp6InitFXEv:0000000000000000 $t
/var/folders/2p/02m_5p7958535cp2tpgps0400000gn/T//ccx9FAOt.s:1275   .text._ZN14GrannyChordApp6InitFXEv:0000000000000000 _ZN14GrannyChordApp6InitFXEv
/var/folders/2p/02m_5p7958535cp2tpgps0400000gn/T//ccx9FAOt.s:1706   .text._ZN14GrannyChordApp6InitFXEv:0000000000000108 $d
/var/folders/2p/02m_5p7958535cp2tpgps0400000gn/T//ccx9FAOt.s:1715   .text._ZN14GrannyChordApp17InitPrevParamValsEv:0000000000000000 $t
/var/folders/2p/02m_5p7958535cp2tpgps0400000gn/T//ccx9FAOt.s:1721   .text._ZN14GrannyChordApp17InitPrevParamValsEv:0000000000000000 _ZN14GrannyChordApp17InitPrevParamValsEv
/var/folders/2p/02m_5p7958535cp2tpgps0400000gn/T//ccx9FAOt.s:1758   .text._ZN14GrannyChordApp4InitEPsS0_:0000000000000000 $t
/var/folders/2p/02m_5p7958535cp2tpgps0400000gn/T//ccx9FAOt.s:1764   .text._ZN14GrannyChordApp4InitEPsS0_:0000000000000000 _ZN14GrannyChordApp4InitEPsS0_
/var/folders/2p/02m_5p7958535cp2tpgps0400000gn/T//ccx9FAOt.s:2037   .text._ZN14GrannyChordApp4InitEPsS0_:00000000000000f0 $d
/var/folders/2p/02m_5p7958535cp2tpgps0400000gn/T//ccx9FAOt.s:2048   .text._ZN14GrannyChordApp9InitSynthEv:0000000000000000 $t
/var/folders/2p/02m_5p7958535cp2tpgps0400000gn/T//ccx9FAOt.s:2054   .text._ZN14GrannyChordApp9InitSynthEv:0000000000000000 _ZN14GrannyChordApp9InitSynthEv
/var/folders/2p/02m_5p7958535cp2tpgps0400000gn/T//ccx9FAOt.s:2150   .text._ZN14GrannyChordApp9InitSynthEv:0000000000000048 $d
/var/folders/2p/02m_5p7958535cp2tpgps0400000gn/T//ccx9FAOt.s:2157   .text._ZN14GrannyChordApp13ResetPassThruEv:0000000000000000 $t
/var/folders/2p/02m_5p7958535cp2tpgps0400000gn/T//ccx9FAOt.s:2163   .text._ZN14GrannyChordApp13ResetPassThruEv:0000000000000000 _ZN14GrannyChordApp13ResetPassThruEv
/var/folders/2p/02m_5p7958535cp2tpgps0400000gn/T//ccx9FAOt.s:2188   .text._ZN14GrannyChordApp20ResetNewModePassThruEv:0000000000000000 $t
/var/folders/2p/02m_5p7958535cp2tpgps0400000gn/T//ccx9FAOt.s:2194   .text._ZN14GrannyChordApp20ResetNewModePassThruEv:0000000000000000 _ZN14GrannyChordApp20ResetNewModePassThruEv
/var/folders/2p/02m_5p7958535cp2tpgps0400000gn/T//ccx9FAOt.s:2224   .text._ZN14GrannyChordApp18ProcessWAVPlaybackEPPfj:0000000000000000 $t
/var/folders/2p/02m_5p7958535cp2tpgps0400000gn/T//ccx9FAOt.s:2230   .text._ZN14GrannyChordApp18ProcessWAVPlaybackEPPfj:0000000000000000 _ZN14GrannyChordApp18ProcessWAVPlaybackEPPfj
/var/folders/2p/02m_5p7958535cp2tpgps0400000gn/T//ccx9FAOt.s:2392   .text._ZN14GrannyChordApp18ProcessWAVPlaybackEPPfj:000000000000007c $d
/var/folders/2p/02m_5p7958535cp2tpgps0400000gn/T//ccx9FAOt.s:2397   .text._ZN14GrannyChordApp15ProcessRecordInEPKPKfPPfj:0000000000000000 $t
/var/folders/2p/02m_5p7958535cp2tpgps0400000gn/T//ccx9FAOt.s:2403   .text._ZN14GrannyChordApp15ProcessRecordInEPKPKfPPfj:0000000000000000 _ZN14GrannyChordApp15ProcessRecordInEPKPKfPPfj
/var/folders/2p/02m_5p7958535cp2tpgps0400000gn/T//ccx9FAOt.s:2498   .text._ZN14GrannyChordApp15ProcessRecordInEPKPKfPPfj:0000000000000070 $d
/var/folders/2p/02m_5p7958535cp2tpgps0400000gn/T//ccx9FAOt.s:2503   .text._ZN14GrannyChordApp9ProcessFXE6Sample:0000000000000000 $t
/var/folders/2p/02m_5p7958535cp2tpgps0400000gn/T//ccx9FAOt.s:2509   .text._ZN14GrannyChordApp9ProcessFXE6Sample:0000000000000000 _ZN14GrannyChordApp9ProcessFXE6Sample
/var/folders/2p/02m_5p7958535cp2tpgps0400000gn/T//ccx9FAOt.s:2595   .text._ZN14GrannyChordApp16ProcessSynthesisEPPfj:0000000000000000 $t
/var/folders/2p/02m_5p7958535cp2tpgps0400000gn/T//ccx9FAOt.s:2601   .text._ZN14GrannyChordApp16ProcessSynthesisEPPfj:0000000000000000 _ZN14GrannyChordApp16ProcessSynthesisEPPfj
/var/folders/2p/02m_5p7958535cp2tpgps0400000gn/T//ccx9FAOt.s:2992   .text._ZN14GrannyChordApp16ProcessSynthesisEPPfj:00000000000001a8 $d
ARM GAS  /var/folders/2p/02m_5p7958535cp2tpgps0400000gn/T//ccx9FAOt.s 			page 239


/var/folders/2p/02m_5p7958535cp2tpgps0400000gn/T//ccx9FAOt.s:3003   .text._ZN14GrannyChordApp12ProcessAudioEPKPKfPPfj:0000000000000000 $t
/var/folders/2p/02m_5p7958535cp2tpgps0400000gn/T//ccx9FAOt.s:3009   .text._ZN14GrannyChordApp12ProcessAudioEPKPKfPPfj:0000000000000000 _ZN14GrannyChordApp12ProcessAudioEPKPKfPPfj
/var/folders/2p/02m_5p7958535cp2tpgps0400000gn/T//ccx9FAOt.s:3196   .text._ZN14GrannyChordApp12ProcessAudioEPKPKfPPfj:000000000000006c $d
/var/folders/2p/02m_5p7958535cp2tpgps0400000gn/T//ccx9FAOt.s:3202   .text._ZN14GrannyChordApp13AudioCallbackEPKPKfPPfj:0000000000000000 $t
/var/folders/2p/02m_5p7958535cp2tpgps0400000gn/T//ccx9FAOt.s:3236   .text._ZN14GrannyChordApp13AudioCallbackEPKPKfPPfj:0000000000000010 $d
/var/folders/2p/02m_5p7958535cp2tpgps0400000gn/T//ccx9FAOt.s:3244   .text._ZN14GrannyChordApp13RecordOutToSDEv:0000000000000000 $t
/var/folders/2p/02m_5p7958535cp2tpgps0400000gn/T//ccx9FAOt.s:3250   .text._ZN14GrannyChordApp13RecordOutToSDEv:0000000000000000 _ZN14GrannyChordApp13RecordOutToSDEv
/var/folders/2p/02m_5p7958535cp2tpgps0400000gn/T//ccx9FAOt.s:3363   .text._ZN14GrannyChordApp13RecordOutToSDEv:0000000000000060 $d
/var/folders/2p/02m_5p7958535cp2tpgps0400000gn/T//ccx9FAOt.s:3371   .text._ZN14GrannyChordApp17UpdateKnob1ParamsEf9SynthMode:0000000000000000 $t
/var/folders/2p/02m_5p7958535cp2tpgps0400000gn/T//ccx9FAOt.s:3377   .text._ZN14GrannyChordApp17UpdateKnob1ParamsEf9SynthMode:0000000000000000 _ZN14GrannyChordApp17UpdateKnob1ParamsEf9SynthMode
/var/folders/2p/02m_5p7958535cp2tpgps0400000gn/T//ccx9FAOt.s:3400   .text._ZN14GrannyChordApp17UpdateKnob1ParamsEf9SynthMode:0000000000000010 $d
/var/folders/2p/02m_5p7958535cp2tpgps0400000gn/T//ccx9FAOt.s:3784   .text._ZN14GrannyChordApp17UpdateKnob1ParamsEf9SynthMode:00000000000000d4 $d
/var/folders/2p/02m_5p7958535cp2tpgps0400000gn/T//ccx9FAOt.s:3797   .text._ZN14GrannyChordApp17UpdateKnob2ParamsEf9SynthMode:0000000000000000 $t
/var/folders/2p/02m_5p7958535cp2tpgps0400000gn/T//ccx9FAOt.s:3803   .text._ZN14GrannyChordApp17UpdateKnob2ParamsEf9SynthMode:0000000000000000 _ZN14GrannyChordApp17UpdateKnob2ParamsEf9SynthMode
/var/folders/2p/02m_5p7958535cp2tpgps0400000gn/T//ccx9FAOt.s:3826   .text._ZN14GrannyChordApp17UpdateKnob2ParamsEf9SynthMode:0000000000000010 $d
/var/folders/2p/02m_5p7958535cp2tpgps0400000gn/T//ccx9FAOt.s:4249   .text._ZN14GrannyChordApp17UpdateKnob2ParamsEf9SynthMode:0000000000000100 $d
/var/folders/2p/02m_5p7958535cp2tpgps0400000gn/T//ccx9FAOt.s:4262   .text._ZN14GrannyChordApp17UpdateSynthParamsEv:0000000000000000 $t
/var/folders/2p/02m_5p7958535cp2tpgps0400000gn/T//ccx9FAOt.s:4268   .text._ZN14GrannyChordApp17UpdateSynthParamsEv:0000000000000000 _ZN14GrannyChordApp17UpdateSynthParamsEv
/var/folders/2p/02m_5p7958535cp2tpgps0400000gn/T//ccx9FAOt.s:4618   .text._ZN14GrannyChordApp17UpdateSynthParamsEv:000000000000018c $d
/var/folders/2p/02m_5p7958535cp2tpgps0400000gn/T//ccx9FAOt.s:4636   .text._ZN14GrannyChordApp15DebugPrintStateE8AppState:0000000000000000 $t
/var/folders/2p/02m_5p7958535cp2tpgps0400000gn/T//ccx9FAOt.s:4642   .text._ZN14GrannyChordApp15DebugPrintStateE8AppState:0000000000000000 _ZN14GrannyChordApp15DebugPrintStateE8AppState
/var/folders/2p/02m_5p7958535cp2tpgps0400000gn/T//ccx9FAOt.s:4655   .text._ZN14GrannyChordApp15DebugPrintStateE8AppState:0000000000000008 $d
/var/folders/2p/02m_5p7958535cp2tpgps0400000gn/T//ccx9FAOt.s:4659   .text._ZN14GrannyChordApp15DebugPrintStateE8AppState:000000000000000c $t
/var/folders/2p/02m_5p7958535cp2tpgps0400000gn/T//ccx9FAOt.s:4751   .text._ZN14GrannyChordApp15DebugPrintStateE8AppState:0000000000000024 $d
/var/folders/2p/02m_5p7958535cp2tpgps0400000gn/T//ccx9FAOt.s:4781   .text._ZN14GrannyChordApp14DebugPrintModeE9SynthMode:0000000000000000 $t
/var/folders/2p/02m_5p7958535cp2tpgps0400000gn/T//ccx9FAOt.s:4787   .text._ZN14GrannyChordApp14DebugPrintModeE9SynthMode:0000000000000000 _ZN14GrannyChordApp14DebugPrintModeE9SynthMode
/var/folders/2p/02m_5p7958535cp2tpgps0400000gn/T//ccx9FAOt.s:4800   .text._ZN14GrannyChordApp14DebugPrintModeE9SynthMode:0000000000000008 $d
/var/folders/2p/02m_5p7958535cp2tpgps0400000gn/T//ccx9FAOt.s:4975   .text._ZN14GrannyChordApp14DebugPrintModeE9SynthMode:000000000000003c $d
/var/folders/2p/02m_5p7958535cp2tpgps0400000gn/T//ccx9FAOt.s:4988   .text._ZN14GrannyChordApp10SetupTimerEv:0000000000000000 $t
/var/folders/2p/02m_5p7958535cp2tpgps0400000gn/T//ccx9FAOt.s:4994   .text._ZN14GrannyChordApp10SetupTimerEv:0000000000000000 _ZN14GrannyChordApp10SetupTimerEv
/var/folders/2p/02m_5p7958535cp2tpgps0400000gn/T//ccx9FAOt.s:5068   .text._ZN14GrannyChordApp10SetupTimerEv:0000000000000040 $d
/var/folders/2p/02m_5p7958535cp2tpgps0400000gn/T//ccx9FAOt.s:5262   .text._ZN14GrannyChordApp17StaticLedCallbackEPv:0000000000000000 _ZN14GrannyChordApp17StaticLedCallbackEPv
/var/folders/2p/02m_5p7958535cp2tpgps0400000gn/T//ccx9FAOt.s:5073   .text._ZN14GrannyChordApp11LedCallbackEPv:0000000000000000 $t
/var/folders/2p/02m_5p7958535cp2tpgps0400000gn/T//ccx9FAOt.s:5079   .text._ZN14GrannyChordApp11LedCallbackEPv:0000000000000000 _ZN14GrannyChordApp11LedCallbackEPv
/var/folders/2p/02m_5p7958535cp2tpgps0400000gn/T//ccx9FAOt.s:5251   .text._ZN14GrannyChordApp11LedCallbackEPv:0000000000000104 $d
/var/folders/2p/02m_5p7958535cp2tpgps0400000gn/T//ccx9FAOt.s:5256   .text._ZN14GrannyChordApp17StaticLedCallbackEPv:0000000000000000 $t
/var/folders/2p/02m_5p7958535cp2tpgps0400000gn/T//ccx9FAOt.s:5286   .text._ZN14GrannyChordApp17StaticLedCallbackEPv:000000000000000c $d
/var/folders/2p/02m_5p7958535cp2tpgps0400000gn/T//ccx9FAOt.s:5291   .text._ZN14GrannyChordApp7SetRgb1Efff:0000000000000000 $t
/var/folders/2p/02m_5p7958535cp2tpgps0400000gn/T//ccx9FAOt.s:5297   .text._ZN14GrannyChordApp7SetRgb1Efff:0000000000000000 _ZN14GrannyChordApp7SetRgb1Efff
/var/folders/2p/02m_5p7958535cp2tpgps0400000gn/T//ccx9FAOt.s:5329   .text._ZN14GrannyChordApp7SetRgb2Efff:0000000000000000 $t
/var/folders/2p/02m_5p7958535cp2tpgps0400000gn/T//ccx9FAOt.s:5335   .text._ZN14GrannyChordApp7SetRgb2Efff:0000000000000000 _ZN14GrannyChordApp7SetRgb2Efff
/var/folders/2p/02m_5p7958535cp2tpgps0400000gn/T//ccx9FAOt.s:5367   .text._ZN14GrannyChordApp15SetLed1AppStateEv:0000000000000000 $t
/var/folders/2p/02m_5p7958535cp2tpgps0400000gn/T//ccx9FAOt.s:5373   .text._ZN14GrannyChordApp15SetLed1AppStateEv:0000000000000000 _ZN14GrannyChordApp15SetLed1AppStateEv
/var/folders/2p/02m_5p7958535cp2tpgps0400000gn/T//ccx9FAOt.s:5394   .text._ZN14GrannyChordApp15SetLed1AppStateEv:0000000000000010 $d
/var/folders/2p/02m_5p7958535cp2tpgps0400000gn/T//ccx9FAOt.s:5400   .text._ZN14GrannyChordApp15SetLed1AppStateEv:0000000000000016 $t
/var/folders/2p/02m_5p7958535cp2tpgps0400000gn/T//ccx9FAOt.s:5608   .text._ZN14GrannyChordApp15SetLed1AppStateEv:00000000000000c8 $d
/var/folders/2p/02m_5p7958535cp2tpgps0400000gn/T//ccx9FAOt.s:5618   .text._ZN14GrannyChordApp17HandleStateChangeEv:0000000000000000 $t
/var/folders/2p/02m_5p7958535cp2tpgps0400000gn/T//ccx9FAOt.s:5624   .text._ZN14GrannyChordApp17HandleStateChangeEv:0000000000000000 _ZN14GrannyChordApp17HandleStateChangeEv
/var/folders/2p/02m_5p7958535cp2tpgps0400000gn/T//ccx9FAOt.s:5645   .text._ZN14GrannyChordApp17HandleStateChangeEv:0000000000000010 $d
/var/folders/2p/02m_5p7958535cp2tpgps0400000gn/T//ccx9FAOt.s:5651   .text._ZN14GrannyChordApp17HandleStateChangeEv:0000000000000016 $t
/var/folders/2p/02m_5p7958535cp2tpgps0400000gn/T//ccx9FAOt.s:5759   .text._ZN14GrannyChordApp17HandleStateChangeEv:0000000000000058 $d
/var/folders/2p/02m_5p7958535cp2tpgps0400000gn/T//ccx9FAOt.s:5765   .text._ZN14GrannyChordApp16SetLed1SynthModeEv:0000000000000000 $t
/var/folders/2p/02m_5p7958535cp2tpgps0400000gn/T//ccx9FAOt.s:5771   .text._ZN14GrannyChordApp16SetLed1SynthModeEv:0000000000000000 _ZN14GrannyChordApp16SetLed1SynthModeEv
/var/folders/2p/02m_5p7958535cp2tpgps0400000gn/T//ccx9FAOt.s:5794   .text._ZN14GrannyChordApp16SetLed1SynthModeEv:0000000000000014 $d
/var/folders/2p/02m_5p7958535cp2tpgps0400000gn/T//ccx9FAOt.s:5944   .text._ZN14GrannyChordApp16SetLed1SynthModeEv:0000000000000084 $d
/var/folders/2p/02m_5p7958535cp2tpgps0400000gn/T//ccx9FAOt.s:5958   .text._ZN14GrannyChordApp15UpdateSynthModeEv:0000000000000000 $t
/var/folders/2p/02m_5p7958535cp2tpgps0400000gn/T//ccx9FAOt.s:5964   .text._ZN14GrannyChordApp15UpdateSynthModeEv:0000000000000000 _ZN14GrannyChordApp15UpdateSynthModeEv
ARM GAS  /var/folders/2p/02m_5p7958535cp2tpgps0400000gn/T//ccx9FAOt.s 			page 240


/var/folders/2p/02m_5p7958535cp2tpgps0400000gn/T//ccx9FAOt.s:6001   .text._ZN14GrannyChordApp15UpdateSynthModeEv:0000000000000016 $d
/var/folders/2p/02m_5p7958535cp2tpgps0400000gn/T//ccx9FAOt.s:6065   .text._ZN14GrannyChordApp15UpdateSynthModeEv:000000000000004c $d
/var/folders/2p/02m_5p7958535cp2tpgps0400000gn/T//ccx9FAOt.s:6070   .text._ZN14GrannyChordApp13HandleButton1Ev:0000000000000000 $t
/var/folders/2p/02m_5p7958535cp2tpgps0400000gn/T//ccx9FAOt.s:6076   .text._ZN14GrannyChordApp13HandleButton1Ev:0000000000000000 _ZN14GrannyChordApp13HandleButton1Ev
/var/folders/2p/02m_5p7958535cp2tpgps0400000gn/T//ccx9FAOt.s:6102   .text._ZN14GrannyChordApp7SetLed2Ev:0000000000000000 $t
/var/folders/2p/02m_5p7958535cp2tpgps0400000gn/T//ccx9FAOt.s:6108   .text._ZN14GrannyChordApp7SetLed2Ev:0000000000000000 _ZN14GrannyChordApp7SetLed2Ev
/var/folders/2p/02m_5p7958535cp2tpgps0400000gn/T//ccx9FAOt.s:6131   .text._ZN14GrannyChordApp7SetLed2Ev:0000000000000014 $d
/var/folders/2p/02m_5p7958535cp2tpgps0400000gn/T//ccx9FAOt.s:6285   .text._ZN14GrannyChordApp7SetLed2Ev:0000000000000080 $d
/var/folders/2p/02m_5p7958535cp2tpgps0400000gn/T//ccx9FAOt.s:6300   .text._ZN14GrannyChordApp24ToggleRandomnessControlsEv:0000000000000000 $t
/var/folders/2p/02m_5p7958535cp2tpgps0400000gn/T//ccx9FAOt.s:6306   .text._ZN14GrannyChordApp24ToggleRandomnessControlsEv:0000000000000000 _ZN14GrannyChordApp24ToggleRandomnessControlsEv
/var/folders/2p/02m_5p7958535cp2tpgps0400000gn/T//ccx9FAOt.s:6400   .text._ZN14GrannyChordApp24ToggleRandomnessControlsEv:0000000000000044 $d
/var/folders/2p/02m_5p7958535cp2tpgps0400000gn/T//ccx9FAOt.s:6406   .text._ZN14GrannyChordApp13HandleButton2Ev:0000000000000000 $t
/var/folders/2p/02m_5p7958535cp2tpgps0400000gn/T//ccx9FAOt.s:6412   .text._ZN14GrannyChordApp13HandleButton2Ev:0000000000000000 _ZN14GrannyChordApp13HandleButton2Ev
/var/folders/2p/02m_5p7958535cp2tpgps0400000gn/T//ccx9FAOt.s:6441   .text._ZN14GrannyChordApp8ToggleFXEb:0000000000000000 $t
/var/folders/2p/02m_5p7958535cp2tpgps0400000gn/T//ccx9FAOt.s:6447   .text._ZN14GrannyChordApp8ToggleFXEb:0000000000000000 _ZN14GrannyChordApp8ToggleFXEb
/var/folders/2p/02m_5p7958535cp2tpgps0400000gn/T//ccx9FAOt.s:6547   .text._ZN14GrannyChordApp8ToggleFXEb:0000000000000050 $d
/var/folders/2p/02m_5p7958535cp2tpgps0400000gn/T//ccx9FAOt.s:6552   .text._ZN14GrannyChordApp22HandleButton1LongPressEv:0000000000000000 $t
/var/folders/2p/02m_5p7958535cp2tpgps0400000gn/T//ccx9FAOt.s:6558   .text._ZN14GrannyChordApp22HandleButton1LongPressEv:0000000000000000 _ZN14GrannyChordApp22HandleButton1LongPressEv
/var/folders/2p/02m_5p7958535cp2tpgps0400000gn/T//ccx9FAOt.s:6576   .text._ZN14GrannyChordApp22HandleButton2LongPressEv:0000000000000000 $t
/var/folders/2p/02m_5p7958535cp2tpgps0400000gn/T//ccx9FAOt.s:6582   .text._ZN14GrannyChordApp22HandleButton2LongPressEv:0000000000000000 _ZN14GrannyChordApp22HandleButton2LongPressEv
/var/folders/2p/02m_5p7958535cp2tpgps0400000gn/T//ccx9FAOt.s:6600   .text._ZN5daisy9WavWriterILj16384EE8SaveFileEv:0000000000000000 $t
/var/folders/2p/02m_5p7958535cp2tpgps0400000gn/T//ccx9FAOt.s:6606   .text._ZN5daisy9WavWriterILj16384EE8SaveFileEv:0000000000000000 _ZN5daisy9WavWriterILj16384EE8SaveFileEv
/var/folders/2p/02m_5p7958535cp2tpgps0400000gn/T//ccx9FAOt.s:6683   .text._ZN14GrannyChordApp15FinishRecordingEv:0000000000000000 $t
/var/folders/2p/02m_5p7958535cp2tpgps0400000gn/T//ccx9FAOt.s:6689   .text._ZN14GrannyChordApp15FinishRecordingEv:0000000000000000 _ZN14GrannyChordApp15FinishRecordingEv
/var/folders/2p/02m_5p7958535cp2tpgps0400000gn/T//ccx9FAOt.s:6729   .text._ZN14GrannyChordApp13ButtonHandlerEv:0000000000000000 $t
/var/folders/2p/02m_5p7958535cp2tpgps0400000gn/T//ccx9FAOt.s:6735   .text._ZN14GrannyChordApp13ButtonHandlerEv:0000000000000000 _ZN14GrannyChordApp13ButtonHandlerEv
/var/folders/2p/02m_5p7958535cp2tpgps0400000gn/T//ccx9FAOt.s:7180   .text._ZN14GrannyChordApp13ButtonHandlerEv:00000000000001a8 $d
/var/folders/2p/02m_5p7958535cp2tpgps0400000gn/T//ccx9FAOt.s:7192   .text._ZN14GrannyChordApp8UpdateUIEv:0000000000000000 $t
/var/folders/2p/02m_5p7958535cp2tpgps0400000gn/T//ccx9FAOt.s:7198   .text._ZN14GrannyChordApp8UpdateUIEv:0000000000000000 _ZN14GrannyChordApp8UpdateUIEv
/var/folders/2p/02m_5p7958535cp2tpgps0400000gn/T//ccx9FAOt.s:7367   .text._ZN14GrannyChordApp8UpdateUIEv:0000000000000090 $d
/var/folders/2p/02m_5p7958535cp2tpgps0400000gn/T//ccx9FAOt.s:7376   .text._ZN14GrannyChordApp3RunEv:0000000000000000 $t
/var/folders/2p/02m_5p7958535cp2tpgps0400000gn/T//ccx9FAOt.s:7382   .text._ZN14GrannyChordApp3RunEv:0000000000000000 _ZN14GrannyChordApp3RunEv
/var/folders/2p/02m_5p7958535cp2tpgps0400000gn/T//ccx9FAOt.s:7525   .text._ZN14GrannyChordApp3RunEv:0000000000000088 $d
/var/folders/2p/02m_5p7958535cp2tpgps0400000gn/T//ccx9FAOt.s:7536   .bss._ZN14GrannyChordApp9instance_E:0000000000000000 _ZN14GrannyChordApp9instance_E
/var/folders/2p/02m_5p7958535cp2tpgps0400000gn/T//ccx9FAOt.s:7532   .bss._ZN14GrannyChordApp9instance_E:0000000000000000 $d
/var/folders/2p/02m_5p7958535cp2tpgps0400000gn/T//ccx9FAOt.s:3409   .text._ZN14GrannyChordApp17UpdateKnob1ParamsEf9SynthMode:0000000000000019 $d
/var/folders/2p/02m_5p7958535cp2tpgps0400000gn/T//ccx9FAOt.s:3409   .text._ZN14GrannyChordApp17UpdateKnob1ParamsEf9SynthMode:000000000000001a $t
/var/folders/2p/02m_5p7958535cp2tpgps0400000gn/T//ccx9FAOt.s:3835   .text._ZN14GrannyChordApp17UpdateKnob2ParamsEf9SynthMode:0000000000000019 $d
/var/folders/2p/02m_5p7958535cp2tpgps0400000gn/T//ccx9FAOt.s:3835   .text._ZN14GrannyChordApp17UpdateKnob2ParamsEf9SynthMode:000000000000001a $t
/var/folders/2p/02m_5p7958535cp2tpgps0400000gn/T//ccx9FAOt.s:4809   .text._ZN14GrannyChordApp14DebugPrintModeE9SynthMode:0000000000000011 $d
/var/folders/2p/02m_5p7958535cp2tpgps0400000gn/T//ccx9FAOt.s:4809   .text._ZN14GrannyChordApp14DebugPrintModeE9SynthMode:0000000000000012 $t
/var/folders/2p/02m_5p7958535cp2tpgps0400000gn/T//ccx9FAOt.s:5801   .text._ZN14GrannyChordApp16SetLed1SynthModeEv:000000000000001b $d
/var/folders/2p/02m_5p7958535cp2tpgps0400000gn/T//ccx9FAOt.s:5801   .text._ZN14GrannyChordApp16SetLed1SynthModeEv:000000000000001c $t
/var/folders/2p/02m_5p7958535cp2tpgps0400000gn/T//ccx9FAOt.s:6008   .text._ZN14GrannyChordApp15UpdateSynthModeEv:000000000000001d $d
/var/folders/2p/02m_5p7958535cp2tpgps0400000gn/T//ccx9FAOt.s:6008   .text._ZN14GrannyChordApp15UpdateSynthModeEv:000000000000001e $t
/var/folders/2p/02m_5p7958535cp2tpgps0400000gn/T//ccx9FAOt.s:6140   .text._ZN14GrannyChordApp7SetLed2Ev:000000000000001d $d
/var/folders/2p/02m_5p7958535cp2tpgps0400000gn/T//ccx9FAOt.s:6140   .text._ZN14GrannyChordApp7SetLed2Ev:000000000000001e $t

UNDEFINED SYMBOLS
_ZN5daisy6System6GetNowEv
_ZN5daisy6LoggerILNS_17LoggerDestinationE1EE9PrintLineEPKcz
_ZN5daisy7Encoder8DebounceEv
strcpy
_ZN16AudioFileManager10SetBuffersEPsS0_
_ZN16AudioFileManager4InitEv
_ZN16AudioFileManager12ScanWavFilesEv
_ZN16AudioFileManager8LoadFileEt
ARM GAS  /var/folders/2p/02m_5p7958535cp2tpgps0400000gn/T//ccx9FAOt.s 			page 241


_ZN5daisy8DaisyPod10StartAudioEPFvPKPKfPPfjE
memset
_ZN5daisy8DaisyPod15AudioSampleRateEv
_ZN7daisysp10Compressor4InitEf
expf
_ZN7daisysp7Limiter4InitEv
_ZN7daisysp8ReverbSc4InitEf
_ZN7daisysp10MoogLadder4InitEf
_ZN5daisy8DaisyPod17SetAudioBlockSizeEj
_ZN5daisy8DaisyPod18SetAudioSampleRateENS_9SaiHandle6Config10SampleRateE
_ZN5daisy6RgbLed6SetRedEf
_ZN5daisy8DaisyPod10UpdateLedsEv
_ZN5daisy8DaisyPod14AudioBlockSizeEv
_ZN5daisy6System11GetTickFreqEv
time
_ZN13GranularSynth4InitEPsS0_j
_ZN5daisy8DaisyPod8StartAdcEv
rng_state
_ZN7daisysp10MoogLadder7ProcessEf
_ZN7daisysp8ReverbSc10ProcessMixERKfS2_PfS3_
_ZN13GranularSynth13ProcessGrainsEv
_ZN7daisysp7Limiter12ProcessBlockEPfjf
_ZN5daisy8DaisyPod9StopAudioEv
sprintf
f_open
f_write
_ZN13GranularSynth12SetGrainSizeEf
_ZN13GranularSynth13SetPitchRatioEf
_ZN13GranularSynth6SetPanEf
_ZN13GranularSynth13SetPhasorModeEN11GrainPhasor4ModeE
_ZN13GranularSynth11SetSpawnPosEf
_ZN13GranularSynth15SetActiveGrainsEf
_ZN13GranularSynth15SetEnvelopeTypeEN5Grain12EnvelopeTypeE
tanf
_ZN5daisy13AnalogControl7ProcessEv
_ZN13GranularSynth17UpdateGrainParamsEv
_ZN5daisy11TimerHandle4InitERKNS0_6ConfigE
_ZN5daisy11TimerHandle12SetPrescalerEm
_ZN5daisy11TimerHandle11SetCallbackEPFvPvES1_
_ZN5daisy6RgbLed3SetEfff
_ZN5daisy9DaisySeed6SetLedEb
f_lseek
f_close
_ZN5daisy8DaisyPod22ProcessDigitalControlsEv
