ARM GAS  /var/folders/2p/02m_5p7958535cp2tpgps0400000gn/T//cchBTf64.s 			page 1


   1              		.cpu cortex-m7
   2              		.arch armv7e-m
   3              		.fpu fpv5-d16
   4              		.eabi_attribute 28, 1
   5              		.eabi_attribute 20, 1
   6              		.eabi_attribute 21, 1
   7              		.eabi_attribute 23, 3
   8              		.eabi_attribute 24, 1
   9              		.eabi_attribute 25, 1
  10              		.eabi_attribute 26, 1
  11              		.eabi_attribute 30, 4
  12              		.eabi_attribute 34, 1
  13              		.eabi_attribute 18, 4
  14              		.file	"GrannyChordApp.cpp"
  15              		.text
  16              	.Ltext0:
  17              		.cfi_sections	.debug_frame
  18              		.section	.text._ZNK5daisy6Switch10TimeHeldMsEv,"axG",%progbits,_ZNK5daisy6Switch10TimeHeldMsEv,com
  19              		.align	1
  20              		.weak	_ZNK5daisy6Switch10TimeHeldMsEv
  21              		.syntax unified
  22              		.thumb
  23              		.thumb_func
  25              	_ZNK5daisy6Switch10TimeHeldMsEv:
  26              	.LVL0:
  27              	.LFB1646:
  28              		.file 1 "../libDaisy/src/hid/switch.h"
   1:../libDaisy/src/hid/switch.h **** #pragma once
   2:../libDaisy/src/hid/switch.h **** #ifndef DSY_SWITCH_H
   3:../libDaisy/src/hid/switch.h **** #define DSY_SWITCH_H
   4:../libDaisy/src/hid/switch.h **** #include "daisy_core.h"
   5:../libDaisy/src/hid/switch.h **** #include "per/gpio.h"
   6:../libDaisy/src/hid/switch.h **** #include "sys/system.h"
   7:../libDaisy/src/hid/switch.h **** 
   8:../libDaisy/src/hid/switch.h **** namespace daisy
   9:../libDaisy/src/hid/switch.h **** {
  10:../libDaisy/src/hid/switch.h **** /** 
  11:../libDaisy/src/hid/switch.h ****     Generic Class for handling momentary/latching switches \n 
  12:../libDaisy/src/hid/switch.h ****     Inspired/influenced by Mutable Instruments (pichenettes) Switch classes
  13:../libDaisy/src/hid/switch.h ****     @author Stephen Hensley
  14:../libDaisy/src/hid/switch.h ****     @date December 2019
  15:../libDaisy/src/hid/switch.h ****     @ingroup controls
  16:../libDaisy/src/hid/switch.h **** */
  17:../libDaisy/src/hid/switch.h **** class Switch
  18:../libDaisy/src/hid/switch.h **** {
  19:../libDaisy/src/hid/switch.h ****   public:
  20:../libDaisy/src/hid/switch.h ****     /** Specifies the expected behavior of the switch */
  21:../libDaisy/src/hid/switch.h ****     enum Type
  22:../libDaisy/src/hid/switch.h ****     {
  23:../libDaisy/src/hid/switch.h ****         TYPE_TOGGLE,    /**< & */
  24:../libDaisy/src/hid/switch.h ****         TYPE_MOMENTARY, /**< & */
  25:../libDaisy/src/hid/switch.h ****     };
  26:../libDaisy/src/hid/switch.h ****     /** Specifies whether the pressed is HIGH or LOW. */
  27:../libDaisy/src/hid/switch.h ****     enum Polarity
  28:../libDaisy/src/hid/switch.h ****     {
  29:../libDaisy/src/hid/switch.h ****         POLARITY_NORMAL,   /**< & */
  30:../libDaisy/src/hid/switch.h ****         POLARITY_INVERTED, /**< & */
ARM GAS  /var/folders/2p/02m_5p7958535cp2tpgps0400000gn/T//cchBTf64.s 			page 2


  31:../libDaisy/src/hid/switch.h ****     };
  32:../libDaisy/src/hid/switch.h **** 
  33:../libDaisy/src/hid/switch.h ****     /** Specifies whether to use built-in Pull Up/Down resistors to hold button at a given state wh
  34:../libDaisy/src/hid/switch.h ****     enum Pull
  35:../libDaisy/src/hid/switch.h ****     {
  36:../libDaisy/src/hid/switch.h ****         PULL_UP,   /**< & */
  37:../libDaisy/src/hid/switch.h ****         PULL_DOWN, /**< & */
  38:../libDaisy/src/hid/switch.h ****         PULL_NONE, /**< & */
  39:../libDaisy/src/hid/switch.h ****     };
  40:../libDaisy/src/hid/switch.h **** 
  41:../libDaisy/src/hid/switch.h ****     Switch() {}
  42:../libDaisy/src/hid/switch.h ****     ~Switch() {}
  43:../libDaisy/src/hid/switch.h **** 
  44:../libDaisy/src/hid/switch.h ****     /** 
  45:../libDaisy/src/hid/switch.h ****     Initializes the switch object with a given port/pin combo.
  46:../libDaisy/src/hid/switch.h ****     \param pin port/pin object to tell the switch which hardware pin to use.
  47:../libDaisy/src/hid/switch.h ****     \param update_rate Does nothing. Backwards compatibility until next breaking update.
  48:../libDaisy/src/hid/switch.h ****     \param t switch type -- Default: TYPE_MOMENTARY
  49:../libDaisy/src/hid/switch.h ****     \param pol switch polarity -- Default: POLARITY_INVERTED
  50:../libDaisy/src/hid/switch.h ****     \param pu switch pull up/down -- Default: PULL_UP
  51:../libDaisy/src/hid/switch.h ****     */
  52:../libDaisy/src/hid/switch.h ****     void
  53:../libDaisy/src/hid/switch.h ****     Init(dsy_gpio_pin pin, float update_rate, Type t, Polarity pol, Pull pu);
  54:../libDaisy/src/hid/switch.h **** 
  55:../libDaisy/src/hid/switch.h ****     /**
  56:../libDaisy/src/hid/switch.h ****        Simplified Init.
  57:../libDaisy/src/hid/switch.h ****        \param pin port/pin object to tell the switch which hardware pin to use.
  58:../libDaisy/src/hid/switch.h ****        \param update_rate Left for backwards compatibility until next breaking change.
  59:../libDaisy/src/hid/switch.h ****     */
  60:../libDaisy/src/hid/switch.h ****     void Init(dsy_gpio_pin pin, float update_rate = 0.f);
  61:../libDaisy/src/hid/switch.h **** 
  62:../libDaisy/src/hid/switch.h ****     /** 
  63:../libDaisy/src/hid/switch.h ****     Called at update_rate to debounce and handle timing for the switch.
  64:../libDaisy/src/hid/switch.h ****     In order for events not to be missed, its important that the Edge/Pressed checks
  65:../libDaisy/src/hid/switch.h ****     be made at the same rate as the debounce function is being called.
  66:../libDaisy/src/hid/switch.h ****     */
  67:../libDaisy/src/hid/switch.h ****     void Debounce();
  68:../libDaisy/src/hid/switch.h **** 
  69:../libDaisy/src/hid/switch.h ****     /** \return true if a button was just pressed. */
  70:../libDaisy/src/hid/switch.h ****     inline bool RisingEdge() const { return updated_ ? state_ == 0x7f : false; }
  71:../libDaisy/src/hid/switch.h **** 
  72:../libDaisy/src/hid/switch.h ****     /** \return true if the button was just released */
  73:../libDaisy/src/hid/switch.h ****     inline bool FallingEdge() const
  74:../libDaisy/src/hid/switch.h ****     {
  75:../libDaisy/src/hid/switch.h ****         return updated_ ? state_ == 0x80 : false;
  76:../libDaisy/src/hid/switch.h ****     }
  77:../libDaisy/src/hid/switch.h **** 
  78:../libDaisy/src/hid/switch.h ****     /** \return true if the button is held down (or if the toggle is on) */
  79:../libDaisy/src/hid/switch.h ****     inline bool Pressed() const { return state_ == 0xff; }
  80:../libDaisy/src/hid/switch.h **** 
  81:../libDaisy/src/hid/switch.h ****     /** \return true if the button is held down, without debouncing */
  82:../libDaisy/src/hid/switch.h ****     inline bool RawState()
  83:../libDaisy/src/hid/switch.h ****     {
  84:../libDaisy/src/hid/switch.h ****         return flip_ ? !dsy_gpio_read(&hw_gpio_) : dsy_gpio_read(&hw_gpio_);
  85:../libDaisy/src/hid/switch.h ****     }
  86:../libDaisy/src/hid/switch.h **** 
  87:../libDaisy/src/hid/switch.h ****     /** \return the time in milliseconds that the button has been held (or toggle has been on) */
ARM GAS  /var/folders/2p/02m_5p7958535cp2tpgps0400000gn/T//cchBTf64.s 			page 3


  88:../libDaisy/src/hid/switch.h ****     inline float TimeHeldMs() const
  29              		.loc 1 88 18 view -0
  30              		.cfi_startproc
  31              		@ args = 0, pretend = 0, frame = 0
  32              		@ frame_needed = 0, uses_anonymous_args = 0
  89:../libDaisy/src/hid/switch.h ****     {
  90:../libDaisy/src/hid/switch.h ****         return Pressed() ? System::GetNow() - rising_edge_time_ : 0;
  33              		.loc 1 90 9 view .LVU1
  34              	.LBB251:
  35              	.LBI251:
  79:../libDaisy/src/hid/switch.h **** 
  36              		.loc 1 79 17 view .LVU2
  37              	.LBB252:
  79:../libDaisy/src/hid/switch.h **** 
  38              		.loc 1 79 35 view .LVU3
  79:../libDaisy/src/hid/switch.h **** 
  39              		.loc 1 79 35 is_stmt 0 view .LVU4
  40              	.LBE252:
  41              	.LBE251:
  88:../libDaisy/src/hid/switch.h ****     {
  42              		.loc 1 88 18 view .LVU5
  43 0000 10B5     		push	{r4, lr}
  44              		.cfi_def_cfa_offset 8
  45              		.cfi_offset 4, -8
  46              		.cfi_offset 14, -4
  47              		.loc 1 90 26 view .LVU6
  48 0002 837A     		ldrb	r3, [r0, #10]	@ zero_extendqisi2
  88:../libDaisy/src/hid/switch.h ****     {
  49              		.loc 1 88 18 view .LVU7
  50 0004 0446     		mov	r4, r0
  51              		.loc 1 90 26 view .LVU8
  52 0006 FF2B     		cmp	r3, #255
  53 0008 0AD1     		bne	.L3
  54              	.LVL1:
  55              	.LBB253:
  56              	.LBI253:
  88:../libDaisy/src/hid/switch.h ****     {
  57              		.loc 1 88 18 is_stmt 1 view .LVU9
  58              	.LBB254:
  59              		.loc 1 90 42 is_stmt 0 view .LVU10
  60 000a FFF7FEFF 		bl	_ZN5daisy6System6GetNowEv
  61              	.LVL2:
  62              		.loc 1 90 45 view .LVU11
  63 000e 07EE900A 		vmov	s15, r0	@ int
  64 0012 B8EE670A 		vcvt.f32.u32	s0, s15
  65              		.loc 1 90 26 view .LVU12
  66 0016 D4ED037A 		vldr.32	s15, [r4, #12]
  67 001a 30EE670A 		vsub.f32	s0, s0, s15
  68              	.LVL3:
  69              	.L1:
  70              		.loc 1 90 26 view .LVU13
  71              	.LBE254:
  72              	.LBE253:
  91:../libDaisy/src/hid/switch.h ****     }
  73              		.loc 1 91 5 view .LVU14
  74 001e 10BD     		pop	{r4, pc}
  75              	.LVL4:
ARM GAS  /var/folders/2p/02m_5p7958535cp2tpgps0400000gn/T//cchBTf64.s 			page 4


  76              	.L3:
  90:../libDaisy/src/hid/switch.h ****     }
  77              		.loc 1 90 26 view .LVU15
  78 0020 9FED010A 		vldr.32	s0, .L4
  90:../libDaisy/src/hid/switch.h ****     }
  79              		.loc 1 90 67 view .LVU16
  80 0024 FBE7     		b	.L1
  81              	.L5:
  82 0026 00BF     		.align	2
  83              	.L4:
  84 0028 00000000 		.word	0
  85              		.cfi_endproc
  86              	.LFE1646:
  88              		.section	.text._ZN7daisysp7OnePole7ProcessEf,"axG",%progbits,_ZN7daisysp7OnePole7ProcessEf,comdat
  89              		.align	1
  90              		.weak	_ZN7daisysp7OnePole7ProcessEf
  91              		.syntax unified
  92              		.thumb
  93              		.thumb_func
  95              	_ZN7daisysp7OnePole7ProcessEf:
  96              	.LVL5:
  97              	.LFB4466:
  98              		.file 2 "../DaisySP/Source/Filters/onepole.h"
   1:../DaisySP/Source/Filters/onepole.h **** /*
   2:../DaisySP/Source/Filters/onepole.h **** Copyright (c) 2020 Electrosmith, Corp, Emilie Gillet
   3:../DaisySP/Source/Filters/onepole.h **** 
   4:../DaisySP/Source/Filters/onepole.h **** Use of this source code is governed by an MIT-style
   5:../DaisySP/Source/Filters/onepole.h **** license that can be found in the LICENSE file or at
   6:../DaisySP/Source/Filters/onepole.h **** https://opensource.org/licenses/MIT.
   7:../DaisySP/Source/Filters/onepole.h **** */
   8:../DaisySP/Source/Filters/onepole.h **** 
   9:../DaisySP/Source/Filters/onepole.h **** #ifndef DSY_ONEPOLE_H
  10:../DaisySP/Source/Filters/onepole.h **** #define DSY_ONEPOLE_H
  11:../DaisySP/Source/Filters/onepole.h **** 
  12:../DaisySP/Source/Filters/onepole.h **** #include "Utility/dsp.h"
  13:../DaisySP/Source/Filters/onepole.h **** #include <cmath>
  14:../DaisySP/Source/Filters/onepole.h **** #include <algorithm>
  15:../DaisySP/Source/Filters/onepole.h **** 
  16:../DaisySP/Source/Filters/onepole.h **** namespace daisysp
  17:../DaisySP/Source/Filters/onepole.h **** {
  18:../DaisySP/Source/Filters/onepole.h **** /**         
  19:../DaisySP/Source/Filters/onepole.h ****     @brief One Pole Lowpass / Highpass Filter
  20:../DaisySP/Source/Filters/onepole.h ****     @author beserge
  21:../DaisySP/Source/Filters/onepole.h ****     @date Dec 2023 
  22:../DaisySP/Source/Filters/onepole.h ****     Ported from pichenettes/stmlib/dsp/filter.h \n 
  23:../DaisySP/Source/Filters/onepole.h ****     \n to an independent module. \n
  24:../DaisySP/Source/Filters/onepole.h ****     Original code written by Emilie Gillet. \n
  25:../DaisySP/Source/Filters/onepole.h **** */
  26:../DaisySP/Source/Filters/onepole.h **** class OnePole
  27:../DaisySP/Source/Filters/onepole.h **** {
  28:../DaisySP/Source/Filters/onepole.h ****   public:
  29:../DaisySP/Source/Filters/onepole.h ****     OnePole() {}
  30:../DaisySP/Source/Filters/onepole.h ****     ~OnePole() {}
  31:../DaisySP/Source/Filters/onepole.h **** 
  32:../DaisySP/Source/Filters/onepole.h ****     /**
  33:../DaisySP/Source/Filters/onepole.h ****      * @brief Operational modes of the filter
  34:../DaisySP/Source/Filters/onepole.h ****      * - LOW_PASS = cuts out high frequency sound, lets low frequency sound pass through
ARM GAS  /var/folders/2p/02m_5p7958535cp2tpgps0400000gn/T//cchBTf64.s 			page 5


  35:../DaisySP/Source/Filters/onepole.h ****      * - HIGH_PASS = cuts out low frequency sound, lets high frequency sound pass through
  36:../DaisySP/Source/Filters/onepole.h ****      */
  37:../DaisySP/Source/Filters/onepole.h ****     enum FilterMode
  38:../DaisySP/Source/Filters/onepole.h ****     {
  39:../DaisySP/Source/Filters/onepole.h ****         FILTER_MODE_LOW_PASS,
  40:../DaisySP/Source/Filters/onepole.h ****         FILTER_MODE_HIGH_PASS
  41:../DaisySP/Source/Filters/onepole.h ****     };
  42:../DaisySP/Source/Filters/onepole.h **** 
  43:../DaisySP/Source/Filters/onepole.h ****     /** Initializes the module */
  44:../DaisySP/Source/Filters/onepole.h ****     void Init()
  45:../DaisySP/Source/Filters/onepole.h ****     {
  46:../DaisySP/Source/Filters/onepole.h ****         Reset();
  47:../DaisySP/Source/Filters/onepole.h ****         mode_ = FILTER_MODE_LOW_PASS;
  48:../DaisySP/Source/Filters/onepole.h ****     }
  49:../DaisySP/Source/Filters/onepole.h **** 
  50:../DaisySP/Source/Filters/onepole.h ****     /** Reset the module to its default state */
  51:../DaisySP/Source/Filters/onepole.h ****     inline void Reset() { state_ = 0.0f; }
  52:../DaisySP/Source/Filters/onepole.h **** 
  53:../DaisySP/Source/Filters/onepole.h ****     /** Set the filter cutoff frequency
  54:../DaisySP/Source/Filters/onepole.h ****     *   \param freq Cutoff frequency. Valid range from 0 to .497f
  55:../DaisySP/Source/Filters/onepole.h ****     */
  56:../DaisySP/Source/Filters/onepole.h ****     inline void SetFrequency(float freq)
  57:../DaisySP/Source/Filters/onepole.h ****     {
  58:../DaisySP/Source/Filters/onepole.h ****         // Clip coefficient to about 100.
  59:../DaisySP/Source/Filters/onepole.h ****         freq = freq < 0.497f ? freq : 0.497f;
  60:../DaisySP/Source/Filters/onepole.h **** 
  61:../DaisySP/Source/Filters/onepole.h ****         g_  = tanf(PI_F * freq);
  62:../DaisySP/Source/Filters/onepole.h ****         gi_ = 1.f / (1.f + g_);
  63:../DaisySP/Source/Filters/onepole.h ****     }
  64:../DaisySP/Source/Filters/onepole.h **** 
  65:../DaisySP/Source/Filters/onepole.h ****     /** Set the filter mode
  66:../DaisySP/Source/Filters/onepole.h ****     *   \param mode Filter mode. Can be lowpass or highpass
  67:../DaisySP/Source/Filters/onepole.h ****     */
  68:../DaisySP/Source/Filters/onepole.h ****     inline void SetFilterMode(FilterMode mode) { mode_ = mode; }
  69:../DaisySP/Source/Filters/onepole.h **** 
  70:../DaisySP/Source/Filters/onepole.h ****     /** Process audio through the filter
  71:../DaisySP/Source/Filters/onepole.h ****     *   \param in The next sample to be processed
  72:../DaisySP/Source/Filters/onepole.h ****     */
  73:../DaisySP/Source/Filters/onepole.h ****     inline float Process(float in)
  99              		.loc 2 73 18 is_stmt 1 view -0
 100              		.cfi_startproc
 101              		@ args = 0, pretend = 0, frame = 0
 102              		@ frame_needed = 0, uses_anonymous_args = 0
 103              		@ link register save eliminated.
  74:../DaisySP/Source/Filters/onepole.h ****     {
  75:../DaisySP/Source/Filters/onepole.h ****         float lp;
 104              		.loc 2 75 9 view .LVU18
  76:../DaisySP/Source/Filters/onepole.h ****         lp     = (g_ * in + state_) * gi_;
 105              		.loc 2 76 9 view .LVU19
 106              		.loc 2 76 19 is_stmt 0 view .LVU20
 107 0000 D0ED006A 		vldr.32	s13, [r0]
  73:../DaisySP/Source/Filters/onepole.h ****     {
 108              		.loc 2 73 18 view .LVU21
 109 0004 B0EE407A 		vmov.f32	s14, s0
 110              		.loc 2 76 27 view .LVU22
 111 0008 D0ED027A 		vldr.32	s15, [r0, #8]
  77:../DaisySP/Source/Filters/onepole.h ****         state_ = g_ * (in - lp) + lp;
ARM GAS  /var/folders/2p/02m_5p7958535cp2tpgps0400000gn/T//cchBTf64.s 			page 6


  78:../DaisySP/Source/Filters/onepole.h **** 
  79:../DaisySP/Source/Filters/onepole.h ****         switch(mode_)
 112              		.loc 2 79 16 view .LVU23
 113 000c 037B     		ldrb	r3, [r0, #12]	@ zero_extendqisi2
  76:../DaisySP/Source/Filters/onepole.h ****         state_ = g_ * (in - lp) + lp;
 114              		.loc 2 76 27 view .LVU24
 115 000e E6EE807A 		vfma.f32	s15, s13, s0
  76:../DaisySP/Source/Filters/onepole.h ****         state_ = g_ * (in - lp) + lp;
 116              		.loc 2 76 16 view .LVU25
 117 0012 90ED010A 		vldr.32	s0, [r0, #4]
 118              	.LVL6:
  76:../DaisySP/Source/Filters/onepole.h ****         state_ = g_ * (in - lp) + lp;
 119              		.loc 2 76 16 view .LVU26
 120 0016 27EE800A 		vmul.f32	s0, s15, s0
 121              	.LVL7:
  77:../DaisySP/Source/Filters/onepole.h ****         state_ = g_ * (in - lp) + lp;
 122              		.loc 2 77 9 is_stmt 1 view .LVU27
  77:../DaisySP/Source/Filters/onepole.h ****         state_ = g_ * (in - lp) + lp;
 123              		.loc 2 77 27 is_stmt 0 view .LVU28
 124 001a 77EE407A 		vsub.f32	s15, s14, s0
  77:../DaisySP/Source/Filters/onepole.h ****         state_ = g_ * (in - lp) + lp;
 125              		.loc 2 77 33 view .LVU29
 126 001e B0EE407A 		vmov.f32	s14, s0
 127              	.LVL8:
  77:../DaisySP/Source/Filters/onepole.h ****         state_ = g_ * (in - lp) + lp;
 128              		.loc 2 77 33 view .LVU30
 129 0022 A6EEA77A 		vfma.f32	s14, s13, s15
  77:../DaisySP/Source/Filters/onepole.h ****         state_ = g_ * (in - lp) + lp;
 130              		.loc 2 77 16 view .LVU31
 131 0026 80ED027A 		vstr.32	s14, [r0, #8]
 132              		.loc 2 79 9 is_stmt 1 view .LVU32
 133 002a 23B1     		cbz	r3, .L6
 134 002c 012B     		cmp	r3, #1
 135 002e 9FED020A 		vldr.32	s0, .L12
 136              	.LVL9:
 137              		.loc 2 79 9 is_stmt 0 view .LVU33
 138 0032 07FE800A 		vseleq.f32	s0, s15, s0
 139              	.L6:
  80:../DaisySP/Source/Filters/onepole.h ****         {
  81:../DaisySP/Source/Filters/onepole.h ****             case FILTER_MODE_LOW_PASS: return lp;
  82:../DaisySP/Source/Filters/onepole.h ****             case FILTER_MODE_HIGH_PASS: return in - lp;
  83:../DaisySP/Source/Filters/onepole.h ****         }
  84:../DaisySP/Source/Filters/onepole.h **** 
  85:../DaisySP/Source/Filters/onepole.h ****         return 0.0f;
  86:../DaisySP/Source/Filters/onepole.h ****     }
 140              		.loc 2 86 5 view .LVU34
 141 0036 7047     		bx	lr
 142              	.L13:
 143              		.align	2
 144              	.L12:
 145 0038 00000000 		.word	0
 146              		.cfi_endproc
 147              	.LFE4466:
 149              		.section	.rodata._ZN14GrannyChordApp12PrintCPULoadEv.str1.1,"aMS",%progbits,1
 150              	.LC0:
 151 0000 50726F63 		.ascii	"Processing Load %:\000"
 151      65737369 
ARM GAS  /var/folders/2p/02m_5p7958535cp2tpgps0400000gn/T//cchBTf64.s 			page 7


 151      6E67204C 
 151      6F616420 
 151      253A00
 152              	.LC1:
 153 0013 4D61783A 		.ascii	"Max: %c%d.%03d\000"
 153      20256325 
 153      642E2530 
 153      336400
 154              	.LC2:
 155 0022 4176673A 		.ascii	"Avg: %c%d.%03d\000"
 155      20256325 
 155      642E2530 
 155      336400
 156              	.LC3:
 157 0031 4D696E3A 		.ascii	"Min: %c%d.%03d\000"
 157      20256325 
 157      642E2530 
 157      336400
 158              		.section	.text._ZN14GrannyChordApp12PrintCPULoadEv,"ax",%progbits
 159              		.align	1
 160              		.global	_ZN14GrannyChordApp12PrintCPULoadEv
 161              		.syntax unified
 162              		.thumb
 163              		.thumb_func
 165              	_ZN14GrannyChordApp12PrintCPULoadEv:
 166              	.LVL10:
 167              	.LFB4912:
 168              		.file 3 "GrannyChordApp.cpp"
   1:GrannyChordApp.cpp **** #ifdef DEBUG_MODE // TODO: remove
   2:GrannyChordApp.cpp **** #pragma message("Debug mode is ON")
   3:GrannyChordApp.cpp **** #else
   4:GrannyChordApp.cpp **** #pragma message("Debug mode is OFF")
   5:GrannyChordApp.cpp **** #endif
   6:GrannyChordApp.cpp **** 
   7:GrannyChordApp.cpp **** #include "GrannyChordApp.h"
   8:GrannyChordApp.cpp **** 
   9:GrannyChordApp.cpp **** /* this is required for AudioCallback as it needs a static object */
  10:GrannyChordApp.cpp **** GrannyChordApp* GrannyChordApp::instance_ = nullptr;
  11:GrannyChordApp.cpp **** 
  12:GrannyChordApp.cpp **** 
  13:GrannyChordApp.cpp **** /// @brief Initialises app state and members and goes through app startup process
  14:GrannyChordApp.cpp **** /// @param left Left channel audio data buffer
  15:GrannyChordApp.cpp **** /// @param right Right channel audio data buffer
  16:GrannyChordApp.cpp **** void GrannyChordApp::Init(int16_t *left, int16_t *right){
  17:GrannyChordApp.cpp ****   left_buf_ = left, right_buf_ = right;
  18:GrannyChordApp.cpp ****   pod_.SetAudioBlockSize(2);
  19:GrannyChordApp.cpp ****   pod_.SetAudioSampleRate(SaiHandle::Config::SampleRate::SAI_48KHZ);
  20:GrannyChordApp.cpp **** 
  21:GrannyChordApp.cpp ****   curr_state_ = AppState::SelectFile;
  22:GrannyChordApp.cpp ****   // SetupTimer();
  23:GrannyChordApp.cpp ****   if (!InitFileMgr()){
  24:GrannyChordApp.cpp ****     DebugPrint(pod_,"File manager failed to init");
  25:GrannyChordApp.cpp ****     pod_.led1.SetRed(1);
  26:GrannyChordApp.cpp ****     pod_.led2.SetRed(1);
  27:GrannyChordApp.cpp ****     pod_.UpdateLeds();
  28:GrannyChordApp.cpp ****     return;
  29:GrannyChordApp.cpp ****   }
ARM GAS  /var/folders/2p/02m_5p7958535cp2tpgps0400000gn/T//cchBTf64.s 			page 8


  30:GrannyChordApp.cpp ****   loadmeter.Init(pod_.AudioSampleRate(), pod_.AudioBlockSize());
  31:GrannyChordApp.cpp ****   InitFX();
  32:GrannyChordApp.cpp ****   InitPrevParamVals();
  33:GrannyChordApp.cpp ****   SeedRng();
  34:GrannyChordApp.cpp ****   synth_.Init(left_buf_, right_buf_, 0);
  35:GrannyChordApp.cpp ****   pod_.StartAdc();
  36:GrannyChordApp.cpp **** }
  37:GrannyChordApp.cpp **** 
  38:GrannyChordApp.cpp **** #ifdef DEBUG_MODE
  39:GrannyChordApp.cpp **** void GrannyChordApp::PrintCPULoad(){
 169              		.loc 3 39 36 is_stmt 1 view -0
 170              		.cfi_startproc
 171              		@ args = 0, pretend = 0, frame = 0
 172              		@ frame_needed = 0, uses_anonymous_args = 0
  40:GrannyChordApp.cpp ****   const float avgLoad = loadmeter.GetAvgCpuLoad();
 173              		.loc 3 40 3 view .LVU36
 174              	.LBB255:
 175              	.LBI255:
 176              		.file 4 "../libDaisy/src/util/CpuLoadMeter.h"
   1:../libDaisy/src/util/CpuLoadMeter.h **** #pragma once
   2:../libDaisy/src/util/CpuLoadMeter.h **** 
   3:../libDaisy/src/util/CpuLoadMeter.h **** #include "sys/system.h"
   4:../libDaisy/src/util/CpuLoadMeter.h **** #include <cmath>
   5:../libDaisy/src/util/CpuLoadMeter.h **** 
   6:../libDaisy/src/util/CpuLoadMeter.h **** namespace daisy
   7:../libDaisy/src/util/CpuLoadMeter.h **** {
   8:../libDaisy/src/util/CpuLoadMeter.h **** /** @brief CPU load metering
   9:../libDaisy/src/util/CpuLoadMeter.h ****  *  @author jelliesen
  10:../libDaisy/src/util/CpuLoadMeter.h ****  *  @addtogroup utility
  11:../libDaisy/src/util/CpuLoadMeter.h ****  * 
  12:../libDaisy/src/util/CpuLoadMeter.h ****  *  To measure the CPU load of your audio processing, create a CpuLoadMeter
  13:../libDaisy/src/util/CpuLoadMeter.h ****  *  and initialize it with your block size and sample rate.
  14:../libDaisy/src/util/CpuLoadMeter.h ****  *  Then at the beginning of the audio callback, call `OnBlockStart()`, 
  15:../libDaisy/src/util/CpuLoadMeter.h ****  *  and at the end of the audio callback, call `OnBlockEnd()`.
  16:../libDaisy/src/util/CpuLoadMeter.h ****  *  You can then read out the minimum, maximum and average CPU load.
  17:../libDaisy/src/util/CpuLoadMeter.h ****  */
  18:../libDaisy/src/util/CpuLoadMeter.h **** class CpuLoadMeter
  19:../libDaisy/src/util/CpuLoadMeter.h **** {
  20:../libDaisy/src/util/CpuLoadMeter.h ****   public:
  21:../libDaisy/src/util/CpuLoadMeter.h ****     CpuLoadMeter(){};
  22:../libDaisy/src/util/CpuLoadMeter.h **** 
  23:../libDaisy/src/util/CpuLoadMeter.h ****     /** Initializes the CpuLoadMeter for a particular sample rate and block size.
  24:../libDaisy/src/util/CpuLoadMeter.h ****      *  @param sampleRateInHz           The sample rate in Hz
  25:../libDaisy/src/util/CpuLoadMeter.h ****      *  @param blockSizeInSamples       The block size in samples
  26:../libDaisy/src/util/CpuLoadMeter.h ****      *  @param smoothingFilterCutoffHz  The cutoff frequency of the smoothing filter that's used to
  27:../libDaisy/src/util/CpuLoadMeter.h ****      *                                  create the average CPU load reading.
  28:../libDaisy/src/util/CpuLoadMeter.h ****      */
  29:../libDaisy/src/util/CpuLoadMeter.h ****     void Init(float sampleRateInHz,
  30:../libDaisy/src/util/CpuLoadMeter.h ****               int   blockSizeInSamples,
  31:../libDaisy/src/util/CpuLoadMeter.h ****               float smoothingFilterCutoffHz = 1.0f)
  32:../libDaisy/src/util/CpuLoadMeter.h ****     {
  33:../libDaisy/src/util/CpuLoadMeter.h ****         const auto secPerBlock = float(blockSizeInSamples) / sampleRateInHz;
  34:../libDaisy/src/util/CpuLoadMeter.h ****         const auto ticksPerS   = float(System::GetTickFreq());
  35:../libDaisy/src/util/CpuLoadMeter.h ****         ticksPerBlockInv_      = 1.0f / (ticksPerS * secPerBlock);
  36:../libDaisy/src/util/CpuLoadMeter.h **** 
  37:../libDaisy/src/util/CpuLoadMeter.h ****         // update filter coefficient for smoothing filter (1pole lowpass)
  38:../libDaisy/src/util/CpuLoadMeter.h ****         const auto blockRateInHz = sampleRateInHz / float(blockSizeInSamples);
ARM GAS  /var/folders/2p/02m_5p7958535cp2tpgps0400000gn/T//cchBTf64.s 			page 9


  39:../libDaisy/src/util/CpuLoadMeter.h ****         const auto cutoffNormalized
  40:../libDaisy/src/util/CpuLoadMeter.h ****             = smoothingFilterCutoffHz * 2.0f * 3.141592653f / blockRateInHz;
  41:../libDaisy/src/util/CpuLoadMeter.h ****         // according to
  42:../libDaisy/src/util/CpuLoadMeter.h ****         // https://en.wikipedia.org/wiki/Low-pass_filter#Simple_infinite_impulse_response_filter
  43:../libDaisy/src/util/CpuLoadMeter.h ****         smoothingConstant_ = cutoffNormalized / (cutoffNormalized + 1.0f);
  44:../libDaisy/src/util/CpuLoadMeter.h **** 
  45:../libDaisy/src/util/CpuLoadMeter.h ****         Reset();
  46:../libDaisy/src/util/CpuLoadMeter.h ****     }
  47:../libDaisy/src/util/CpuLoadMeter.h **** 
  48:../libDaisy/src/util/CpuLoadMeter.h ****     /** Call this at the beginning of your audio callback */
  49:../libDaisy/src/util/CpuLoadMeter.h ****     void OnBlockStart() { currentBlockStartTicks_ = System::GetTick(); }
  50:../libDaisy/src/util/CpuLoadMeter.h **** 
  51:../libDaisy/src/util/CpuLoadMeter.h ****     /** Call this at the end of your audio callback */
  52:../libDaisy/src/util/CpuLoadMeter.h ****     void OnBlockEnd()
  53:../libDaisy/src/util/CpuLoadMeter.h ****     {
  54:../libDaisy/src/util/CpuLoadMeter.h ****         const auto end         = System::GetTick();
  55:../libDaisy/src/util/CpuLoadMeter.h ****         const auto ticksPassed = end - currentBlockStartTicks_;
  56:../libDaisy/src/util/CpuLoadMeter.h ****         const auto currentBlockLoad
  57:../libDaisy/src/util/CpuLoadMeter.h ****             = float(ticksPassed) * ticksPerBlockInv_; // usPassed / usPerBlock
  58:../libDaisy/src/util/CpuLoadMeter.h **** 
  59:../libDaisy/src/util/CpuLoadMeter.h ****         if(firstCycle_)
  60:../libDaisy/src/util/CpuLoadMeter.h ****         {
  61:../libDaisy/src/util/CpuLoadMeter.h ****             max_ = min_ = avg_ = currentBlockLoad;
  62:../libDaisy/src/util/CpuLoadMeter.h ****             firstCycle_        = false;
  63:../libDaisy/src/util/CpuLoadMeter.h ****         }
  64:../libDaisy/src/util/CpuLoadMeter.h ****         else
  65:../libDaisy/src/util/CpuLoadMeter.h ****         {
  66:../libDaisy/src/util/CpuLoadMeter.h ****             if(currentBlockLoad > max_)
  67:../libDaisy/src/util/CpuLoadMeter.h ****                 max_ = currentBlockLoad;
  68:../libDaisy/src/util/CpuLoadMeter.h ****             if(currentBlockLoad < min_)
  69:../libDaisy/src/util/CpuLoadMeter.h ****                 min_ = currentBlockLoad;
  70:../libDaisy/src/util/CpuLoadMeter.h **** 
  71:../libDaisy/src/util/CpuLoadMeter.h ****             avg_ = smoothingConstant_ * currentBlockLoad
  72:../libDaisy/src/util/CpuLoadMeter.h ****                    + (1.0f - smoothingConstant_) * avg_;
  73:../libDaisy/src/util/CpuLoadMeter.h ****         }
  74:../libDaisy/src/util/CpuLoadMeter.h ****     }
  75:../libDaisy/src/util/CpuLoadMeter.h **** 
  76:../libDaisy/src/util/CpuLoadMeter.h ****     /** Returns the smoothed average CPU load in the range 0..1 */
  77:../libDaisy/src/util/CpuLoadMeter.h ****     float GetAvgCpuLoad() const { return avg_; }
 177              		.loc 4 77 11 view .LVU37
 178              	.LBB256:
 179              		.loc 4 77 35 view .LVU38
 180              	.LBE256:
 181              	.LBE255:
  39:GrannyChordApp.cpp ****   const float avgLoad = loadmeter.GetAvgCpuLoad();
 182              		.loc 3 39 36 is_stmt 0 view .LVU39
 183 0000 10B5     		push	{r4, lr}
 184              		.cfi_def_cfa_offset 8
 185              		.cfi_offset 4, -8
 186              		.cfi_offset 14, -4
 187 0002 2DED068B 		vpush.64	{d8, d9, d10}
 188              		.cfi_def_cfa_offset 32
 189              		.cfi_offset 80, -32
 190              		.cfi_offset 81, -28
 191              		.cfi_offset 82, -24
 192              		.cfi_offset 83, -20
 193              		.cfi_offset 84, -16
ARM GAS  /var/folders/2p/02m_5p7958535cp2tpgps0400000gn/T//cchBTf64.s 			page 10


 194              		.cfi_offset 85, -12
 195              	.LBB258:
 196              	.LBB259:
  78:../libDaisy/src/util/CpuLoadMeter.h ****     /** Returns the minimun CPU load observed since the last call to Reset(). */
  79:../libDaisy/src/util/CpuLoadMeter.h ****     float GetMinCpuLoad() const { return min_; }
  80:../libDaisy/src/util/CpuLoadMeter.h ****     /** Returns the maximum CPU load observed since the last call to Reset(). */
  81:../libDaisy/src/util/CpuLoadMeter.h ****     float GetMaxCpuLoad() const { return max_; }
 197              		.loc 4 81 42 view .LVU40
 198 0006 90ED049A 		vldr.32	s18, [r0, #16]
 199              	.LBE259:
 200              	.LBE258:
  41:GrannyChordApp.cpp ****   const float maxLoad = loadmeter.GetMaxCpuLoad();
  42:GrannyChordApp.cpp ****   const float minLoad = loadmeter.GetMinCpuLoad();
  43:GrannyChordApp.cpp ****   pod_.seed.PrintLine("Processing Load %:");
  44:GrannyChordApp.cpp ****   pod_.seed.PrintLine("Max: " FLT_FMT3, FLT_VAR3(maxLoad * 100.0f));
 201              		.loc 3 44 41 view .LVU41
 202 000a DFED37AA 		vldr.32	s21, .L21+8
 203              	.LBB261:
 204              	.LBB257:
  77:../libDaisy/src/util/CpuLoadMeter.h ****     /** Returns the minimun CPU load observed since the last call to Reset(). */
 205              		.loc 4 77 42 view .LVU42
 206 000e D0ED058A 		vldr.32	s17, [r0, #20]
 207              	.LVL11:
  77:../libDaisy/src/util/CpuLoadMeter.h ****     /** Returns the minimun CPU load observed since the last call to Reset(). */
 208              		.loc 4 77 42 view .LVU43
 209              	.LBE257:
 210              	.LBE261:
  41:GrannyChordApp.cpp ****   const float maxLoad = loadmeter.GetMaxCpuLoad();
 211              		.loc 3 41 3 is_stmt 1 view .LVU44
 212              	.LBB262:
 213              	.LBI258:
 214              		.loc 4 81 11 view .LVU45
 215              	.LBB260:
 216              		.loc 4 81 35 view .LVU46
 217              		.loc 4 81 35 is_stmt 0 view .LVU47
 218              	.LBE260:
 219              	.LBE262:
  42:GrannyChordApp.cpp ****   pod_.seed.PrintLine("Processing Load %:");
 220              		.loc 3 42 3 is_stmt 1 view .LVU48
 221              	.LBB263:
 222              	.LBI263:
  79:../libDaisy/src/util/CpuLoadMeter.h ****     /** Returns the maximum CPU load observed since the last call to Reset(). */
 223              		.loc 4 79 11 view .LVU49
 224              	.LBB264:
  79:../libDaisy/src/util/CpuLoadMeter.h ****     /** Returns the maximum CPU load observed since the last call to Reset(). */
 225              		.loc 4 79 35 view .LVU50
  79:../libDaisy/src/util/CpuLoadMeter.h ****     /** Returns the maximum CPU load observed since the last call to Reset(). */
 226              		.loc 4 79 42 is_stmt 0 view .LVU51
 227 0012 90ED038A 		vldr.32	s16, [r0, #12]
 228              	.LVL12:
  79:../libDaisy/src/util/CpuLoadMeter.h ****     /** Returns the maximum CPU load observed since the last call to Reset(). */
 229              		.loc 4 79 42 view .LVU52
 230              	.LBE264:
 231              	.LBE263:
  43:GrannyChordApp.cpp ****   pod_.seed.PrintLine("Max: " FLT_FMT3, FLT_VAR3(maxLoad * 100.0f));
 232              		.loc 3 43 3 is_stmt 1 view .LVU53
 233              	.LBB265:
ARM GAS  /var/folders/2p/02m_5p7958535cp2tpgps0400000gn/T//cchBTf64.s 			page 11


 234              	.LBI265:
 235              		.file 5 "../libDaisy/src/daisy_seed.h"
   1:../libDaisy/src/daisy_seed.h **** #pragma once
   2:../libDaisy/src/daisy_seed.h **** #ifndef DSY_SEED_H
   3:../libDaisy/src/daisy_seed.h **** #define DSY_SEED_H
   4:../libDaisy/src/daisy_seed.h **** 
   5:../libDaisy/src/daisy_seed.h **** #include "daisy.h"
   6:../libDaisy/src/daisy_seed.h **** 
   7:../libDaisy/src/daisy_seed.h **** //Uncomment this out if you're still using the rev2 hardware
   8:../libDaisy/src/daisy_seed.h **** //#define SEED_REV2
   9:../libDaisy/src/daisy_seed.h **** 
  10:../libDaisy/src/daisy_seed.h **** namespace daisy
  11:../libDaisy/src/daisy_seed.h **** {
  12:../libDaisy/src/daisy_seed.h **** /**
  13:../libDaisy/src/daisy_seed.h ****    @brief This is the higher-level interface for the Daisy board. \n 
  14:../libDaisy/src/daisy_seed.h ****     All basic peripheral configuration/initialization is setup here. \n
  15:../libDaisy/src/daisy_seed.h **** 
  16:../libDaisy/src/daisy_seed.h ****    @ingroup boards
  17:../libDaisy/src/daisy_seed.h **** */
  18:../libDaisy/src/daisy_seed.h **** class DaisySeed
  19:../libDaisy/src/daisy_seed.h **** {
  20:../libDaisy/src/daisy_seed.h ****   public:
  21:../libDaisy/src/daisy_seed.h ****     DaisySeed() {}
  22:../libDaisy/src/daisy_seed.h ****     ~DaisySeed() {}
  23:../libDaisy/src/daisy_seed.h **** 
  24:../libDaisy/src/daisy_seed.h ****     /** This function used to provide a pre-initialization configuraiton 
  25:../libDaisy/src/daisy_seed.h ****      *  it has since been deprecated, and does nothing.
  26:../libDaisy/src/daisy_seed.h ****      */
  27:../libDaisy/src/daisy_seed.h ****     void Configure();
  28:../libDaisy/src/daisy_seed.h **** 
  29:../libDaisy/src/daisy_seed.h ****     /** 
  30:../libDaisy/src/daisy_seed.h ****     Initializes the Daisy Seed and the following peripherals:
  31:../libDaisy/src/daisy_seed.h ****     SDRAM, QSPI, 24-bit 48kHz Audio via AK4556, Internal USB,
  32:../libDaisy/src/daisy_seed.h ****     as well as the built-in LED and Testpoint.
  33:../libDaisy/src/daisy_seed.h **** 
  34:../libDaisy/src/daisy_seed.h ****     ADCs, DACs, and other special peripherals (such as I2C, SPI, etc.)
  35:../libDaisy/src/daisy_seed.h ****     can be initialized using their specific initializers within libdaisy
  36:../libDaisy/src/daisy_seed.h ****     for a specific application.
  37:../libDaisy/src/daisy_seed.h ****     */
  38:../libDaisy/src/daisy_seed.h ****     void Init(bool boost = false);
  39:../libDaisy/src/daisy_seed.h **** 
  40:../libDaisy/src/daisy_seed.h ****     /** 
  41:../libDaisy/src/daisy_seed.h ****     Deinitializes all peripherals automatically handled by `Init`.
  42:../libDaisy/src/daisy_seed.h ****     */
  43:../libDaisy/src/daisy_seed.h ****     void DeInit();
  44:../libDaisy/src/daisy_seed.h **** 
  45:../libDaisy/src/daisy_seed.h ****     /** 
  46:../libDaisy/src/daisy_seed.h ****     Wait some ms before going on.
  47:../libDaisy/src/daisy_seed.h ****     \param del Delay time in ms.
  48:../libDaisy/src/daisy_seed.h ****     */
  49:../libDaisy/src/daisy_seed.h ****     void DelayMs(size_t del);
  50:../libDaisy/src/daisy_seed.h **** 
  51:../libDaisy/src/daisy_seed.h ****     /** 
  52:../libDaisy/src/daisy_seed.h ****     Returns the gpio_pin corresponding to the index 0-31.
  53:../libDaisy/src/daisy_seed.h ****     For the given GPIO on the Daisy Seed (labeled 1-32 in docs).
  54:../libDaisy/src/daisy_seed.h ****     */
  55:../libDaisy/src/daisy_seed.h ****     static dsy_gpio_pin GetPin(uint8_t pin_idx);
ARM GAS  /var/folders/2p/02m_5p7958535cp2tpgps0400000gn/T//cchBTf64.s 			page 12


  56:../libDaisy/src/daisy_seed.h **** 
  57:../libDaisy/src/daisy_seed.h ****     /** Begins the audio for the seeds builtin audio.
  58:../libDaisy/src/daisy_seed.h ****     the specified callback will get called whenever
  59:../libDaisy/src/daisy_seed.h ****     new data is ready to be prepared.
  60:../libDaisy/src/daisy_seed.h ****     */
  61:../libDaisy/src/daisy_seed.h ****     void StartAudio(AudioHandle::InterleavingAudioCallback cb);
  62:../libDaisy/src/daisy_seed.h **** 
  63:../libDaisy/src/daisy_seed.h ****     /** Begins the audio for the seeds builtin audio.
  64:../libDaisy/src/daisy_seed.h ****     the specified callback will get called whenever
  65:../libDaisy/src/daisy_seed.h ****     new data is ready to be prepared.
  66:../libDaisy/src/daisy_seed.h ****     This will use the newer non-interleaved callback.
  67:../libDaisy/src/daisy_seed.h ****     */
  68:../libDaisy/src/daisy_seed.h ****     void StartAudio(AudioHandle::AudioCallback cb);
  69:../libDaisy/src/daisy_seed.h **** 
  70:../libDaisy/src/daisy_seed.h ****     /** Changes to a new interleaved callback
  71:../libDaisy/src/daisy_seed.h ****      */
  72:../libDaisy/src/daisy_seed.h ****     void ChangeAudioCallback(AudioHandle::InterleavingAudioCallback cb);
  73:../libDaisy/src/daisy_seed.h **** 
  74:../libDaisy/src/daisy_seed.h ****     /** Changes to a new multichannel callback
  75:../libDaisy/src/daisy_seed.h ****      */
  76:../libDaisy/src/daisy_seed.h ****     void ChangeAudioCallback(AudioHandle::AudioCallback cb);
  77:../libDaisy/src/daisy_seed.h **** 
  78:../libDaisy/src/daisy_seed.h ****     /** Stops the audio if it is running. */
  79:../libDaisy/src/daisy_seed.h ****     void StopAudio();
  80:../libDaisy/src/daisy_seed.h **** 
  81:../libDaisy/src/daisy_seed.h ****     /** Updates the Audio Sample Rate, and reinitializes.
  82:../libDaisy/src/daisy_seed.h ****      ** Audio must be stopped for this to work.
  83:../libDaisy/src/daisy_seed.h ****      */
  84:../libDaisy/src/daisy_seed.h ****     void SetAudioSampleRate(SaiHandle::Config::SampleRate samplerate);
  85:../libDaisy/src/daisy_seed.h **** 
  86:../libDaisy/src/daisy_seed.h ****     /** Returns the audio sample rate in Hz as a floating point number.
  87:../libDaisy/src/daisy_seed.h ****      */
  88:../libDaisy/src/daisy_seed.h ****     float AudioSampleRate();
  89:../libDaisy/src/daisy_seed.h **** 
  90:../libDaisy/src/daisy_seed.h ****     /** Sets the number of samples processed per channel by the audio callback.
  91:../libDaisy/src/daisy_seed.h ****      */
  92:../libDaisy/src/daisy_seed.h ****     void SetAudioBlockSize(size_t blocksize);
  93:../libDaisy/src/daisy_seed.h **** 
  94:../libDaisy/src/daisy_seed.h ****     /** Returns the number of samples per channel in a block of audio. */
  95:../libDaisy/src/daisy_seed.h ****     size_t AudioBlockSize();
  96:../libDaisy/src/daisy_seed.h **** 
  97:../libDaisy/src/daisy_seed.h ****     /** Returns the rate in Hz that the Audio callback is called */
  98:../libDaisy/src/daisy_seed.h ****     float AudioCallbackRate() const;
  99:../libDaisy/src/daisy_seed.h **** 
 100:../libDaisy/src/daisy_seed.h ****     /** Returns the SAI Handle for the Daisy Seed 
 101:../libDaisy/src/daisy_seed.h ****      *  This can be useful when adding a secondary codec,
 102:../libDaisy/src/daisy_seed.h ****      *  the result of this function can be passed to the audio reinit 
 103:../libDaisy/src/daisy_seed.h ****      *  with an SAI2 configuration
 104:../libDaisy/src/daisy_seed.h ****      */
 105:../libDaisy/src/daisy_seed.h ****     const SaiHandle& AudioSaiHandle() const;
 106:../libDaisy/src/daisy_seed.h **** 
 107:../libDaisy/src/daisy_seed.h ****     /** Sets the state of the built in LED
 108:../libDaisy/src/daisy_seed.h ****      */
 109:../libDaisy/src/daisy_seed.h ****     void SetLed(bool state);
 110:../libDaisy/src/daisy_seed.h **** 
 111:../libDaisy/src/daisy_seed.h ****     /** Sets the state of the test point near pin 10
 112:../libDaisy/src/daisy_seed.h ****      */
ARM GAS  /var/folders/2p/02m_5p7958535cp2tpgps0400000gn/T//cchBTf64.s 			page 13


 113:../libDaisy/src/daisy_seed.h ****     void SetTestPoint(bool state);
 114:../libDaisy/src/daisy_seed.h **** 
 115:../libDaisy/src/daisy_seed.h ****     /** Print formatted debug log message
 116:../libDaisy/src/daisy_seed.h ****      */
 117:../libDaisy/src/daisy_seed.h ****     template <typename... VA>
 118:../libDaisy/src/daisy_seed.h ****     static void Print(const char* format, VA... va)
 119:../libDaisy/src/daisy_seed.h ****     {
 120:../libDaisy/src/daisy_seed.h ****         Log::Print(format, va...);
 121:../libDaisy/src/daisy_seed.h ****     }
 122:../libDaisy/src/daisy_seed.h **** 
 123:../libDaisy/src/daisy_seed.h ****     /** Print formatted debug log message with automatic line termination
 124:../libDaisy/src/daisy_seed.h ****     */
 125:../libDaisy/src/daisy_seed.h ****     template <typename... VA>
 126:../libDaisy/src/daisy_seed.h ****     static void PrintLine(const char* format, VA... va)
 236              		.loc 5 126 17 view .LVU54
 237              	.LBB266:
 127:../libDaisy/src/daisy_seed.h ****     {
 128:../libDaisy/src/daisy_seed.h ****         Log::PrintLine(format, va...);
 238              		.loc 5 128 23 is_stmt 0 view .LVU55
 239 0016 3548     		ldr	r0, .L21+12
 240              	.LVL13:
 241              		.loc 5 128 23 view .LVU56
 242 0018 FFF7FEFF 		bl	_ZN5daisy6LoggerILNS_17LoggerDestinationE1EE9PrintLineEPKcz
 243              	.LVL14:
 244              		.loc 5 128 23 view .LVU57
 245              	.LBE266:
 246              	.LBE265:
 247              		.loc 3 44 3 is_stmt 1 view .LVU58
 248              	.LBB267:
 249              	.LBI267:
 250              		.file 6 "/Library/DaisyToolchain/0.2.0/arm/arm-none-eabi/include/c++/10.3.1/bits/std_abs.h"
   1:/Library/DaisyToolchain/0.2.0/arm/arm-none-eabi/include/c++/10.3.1/bits/std_abs.h **** // -*- C++ -*- C library enhancements header.
   2:/Library/DaisyToolchain/0.2.0/arm/arm-none-eabi/include/c++/10.3.1/bits/std_abs.h **** 
   3:/Library/DaisyToolchain/0.2.0/arm/arm-none-eabi/include/c++/10.3.1/bits/std_abs.h **** // Copyright (C) 2016-2020 Free Software Foundation, Inc.
   4:/Library/DaisyToolchain/0.2.0/arm/arm-none-eabi/include/c++/10.3.1/bits/std_abs.h **** //
   5:/Library/DaisyToolchain/0.2.0/arm/arm-none-eabi/include/c++/10.3.1/bits/std_abs.h **** // This file is part of the GNU ISO C++ Library.  This library is free
   6:/Library/DaisyToolchain/0.2.0/arm/arm-none-eabi/include/c++/10.3.1/bits/std_abs.h **** // software; you can redistribute it and/or modify it under the
   7:/Library/DaisyToolchain/0.2.0/arm/arm-none-eabi/include/c++/10.3.1/bits/std_abs.h **** // terms of the GNU General Public License as published by the
   8:/Library/DaisyToolchain/0.2.0/arm/arm-none-eabi/include/c++/10.3.1/bits/std_abs.h **** // Free Software Foundation; either version 3, or (at your option)
   9:/Library/DaisyToolchain/0.2.0/arm/arm-none-eabi/include/c++/10.3.1/bits/std_abs.h **** // any later version.
  10:/Library/DaisyToolchain/0.2.0/arm/arm-none-eabi/include/c++/10.3.1/bits/std_abs.h **** 
  11:/Library/DaisyToolchain/0.2.0/arm/arm-none-eabi/include/c++/10.3.1/bits/std_abs.h **** // This library is distributed in the hope that it will be useful,
  12:/Library/DaisyToolchain/0.2.0/arm/arm-none-eabi/include/c++/10.3.1/bits/std_abs.h **** // but WITHOUT ANY WARRANTY; without even the implied warranty of
  13:/Library/DaisyToolchain/0.2.0/arm/arm-none-eabi/include/c++/10.3.1/bits/std_abs.h **** // MERCHANTABILITY or FITNESS FOR A PARTICULAR PURPOSE.  See the
  14:/Library/DaisyToolchain/0.2.0/arm/arm-none-eabi/include/c++/10.3.1/bits/std_abs.h **** // GNU General Public License for more details.
  15:/Library/DaisyToolchain/0.2.0/arm/arm-none-eabi/include/c++/10.3.1/bits/std_abs.h **** 
  16:/Library/DaisyToolchain/0.2.0/arm/arm-none-eabi/include/c++/10.3.1/bits/std_abs.h **** // Under Section 7 of GPL version 3, you are granted additional
  17:/Library/DaisyToolchain/0.2.0/arm/arm-none-eabi/include/c++/10.3.1/bits/std_abs.h **** // permissions described in the GCC Runtime Library Exception, version
  18:/Library/DaisyToolchain/0.2.0/arm/arm-none-eabi/include/c++/10.3.1/bits/std_abs.h **** // 3.1, as published by the Free Software Foundation.
  19:/Library/DaisyToolchain/0.2.0/arm/arm-none-eabi/include/c++/10.3.1/bits/std_abs.h **** 
  20:/Library/DaisyToolchain/0.2.0/arm/arm-none-eabi/include/c++/10.3.1/bits/std_abs.h **** // You should have received a copy of the GNU General Public License and
  21:/Library/DaisyToolchain/0.2.0/arm/arm-none-eabi/include/c++/10.3.1/bits/std_abs.h **** // a copy of the GCC Runtime Library Exception along with this program;
  22:/Library/DaisyToolchain/0.2.0/arm/arm-none-eabi/include/c++/10.3.1/bits/std_abs.h **** // see the files COPYING3 and COPYING.RUNTIME respectively.  If not, see
  23:/Library/DaisyToolchain/0.2.0/arm/arm-none-eabi/include/c++/10.3.1/bits/std_abs.h **** // <http://www.gnu.org/licenses/>.
  24:/Library/DaisyToolchain/0.2.0/arm/arm-none-eabi/include/c++/10.3.1/bits/std_abs.h **** 
  25:/Library/DaisyToolchain/0.2.0/arm/arm-none-eabi/include/c++/10.3.1/bits/std_abs.h **** /** @file include/bits/std_abs.h
  26:/Library/DaisyToolchain/0.2.0/arm/arm-none-eabi/include/c++/10.3.1/bits/std_abs.h ****  *  This is an internal header file, included by other library headers.
ARM GAS  /var/folders/2p/02m_5p7958535cp2tpgps0400000gn/T//cchBTf64.s 			page 14


  27:/Library/DaisyToolchain/0.2.0/arm/arm-none-eabi/include/c++/10.3.1/bits/std_abs.h ****  *  Do not attempt to use it directly. @headername{cmath, cstdlib}
  28:/Library/DaisyToolchain/0.2.0/arm/arm-none-eabi/include/c++/10.3.1/bits/std_abs.h ****  */
  29:/Library/DaisyToolchain/0.2.0/arm/arm-none-eabi/include/c++/10.3.1/bits/std_abs.h **** 
  30:/Library/DaisyToolchain/0.2.0/arm/arm-none-eabi/include/c++/10.3.1/bits/std_abs.h **** #ifndef _GLIBCXX_BITS_STD_ABS_H
  31:/Library/DaisyToolchain/0.2.0/arm/arm-none-eabi/include/c++/10.3.1/bits/std_abs.h **** #define _GLIBCXX_BITS_STD_ABS_H
  32:/Library/DaisyToolchain/0.2.0/arm/arm-none-eabi/include/c++/10.3.1/bits/std_abs.h **** 
  33:/Library/DaisyToolchain/0.2.0/arm/arm-none-eabi/include/c++/10.3.1/bits/std_abs.h **** #pragma GCC system_header
  34:/Library/DaisyToolchain/0.2.0/arm/arm-none-eabi/include/c++/10.3.1/bits/std_abs.h **** 
  35:/Library/DaisyToolchain/0.2.0/arm/arm-none-eabi/include/c++/10.3.1/bits/std_abs.h **** #include <bits/c++config.h>
  36:/Library/DaisyToolchain/0.2.0/arm/arm-none-eabi/include/c++/10.3.1/bits/std_abs.h **** 
  37:/Library/DaisyToolchain/0.2.0/arm/arm-none-eabi/include/c++/10.3.1/bits/std_abs.h **** #define _GLIBCXX_INCLUDE_NEXT_C_HEADERS
  38:/Library/DaisyToolchain/0.2.0/arm/arm-none-eabi/include/c++/10.3.1/bits/std_abs.h **** #include_next <stdlib.h>
  39:/Library/DaisyToolchain/0.2.0/arm/arm-none-eabi/include/c++/10.3.1/bits/std_abs.h **** #ifdef __CORRECT_ISO_CPP_MATH_H_PROTO
  40:/Library/DaisyToolchain/0.2.0/arm/arm-none-eabi/include/c++/10.3.1/bits/std_abs.h **** # include_next <math.h>
  41:/Library/DaisyToolchain/0.2.0/arm/arm-none-eabi/include/c++/10.3.1/bits/std_abs.h **** #endif
  42:/Library/DaisyToolchain/0.2.0/arm/arm-none-eabi/include/c++/10.3.1/bits/std_abs.h **** #undef _GLIBCXX_INCLUDE_NEXT_C_HEADERS
  43:/Library/DaisyToolchain/0.2.0/arm/arm-none-eabi/include/c++/10.3.1/bits/std_abs.h **** 
  44:/Library/DaisyToolchain/0.2.0/arm/arm-none-eabi/include/c++/10.3.1/bits/std_abs.h **** #undef abs
  45:/Library/DaisyToolchain/0.2.0/arm/arm-none-eabi/include/c++/10.3.1/bits/std_abs.h **** 
  46:/Library/DaisyToolchain/0.2.0/arm/arm-none-eabi/include/c++/10.3.1/bits/std_abs.h **** extern "C++"
  47:/Library/DaisyToolchain/0.2.0/arm/arm-none-eabi/include/c++/10.3.1/bits/std_abs.h **** {
  48:/Library/DaisyToolchain/0.2.0/arm/arm-none-eabi/include/c++/10.3.1/bits/std_abs.h **** namespace std _GLIBCXX_VISIBILITY(default)
  49:/Library/DaisyToolchain/0.2.0/arm/arm-none-eabi/include/c++/10.3.1/bits/std_abs.h **** {
  50:/Library/DaisyToolchain/0.2.0/arm/arm-none-eabi/include/c++/10.3.1/bits/std_abs.h **** _GLIBCXX_BEGIN_NAMESPACE_VERSION
  51:/Library/DaisyToolchain/0.2.0/arm/arm-none-eabi/include/c++/10.3.1/bits/std_abs.h **** 
  52:/Library/DaisyToolchain/0.2.0/arm/arm-none-eabi/include/c++/10.3.1/bits/std_abs.h ****   using ::abs;
  53:/Library/DaisyToolchain/0.2.0/arm/arm-none-eabi/include/c++/10.3.1/bits/std_abs.h **** 
  54:/Library/DaisyToolchain/0.2.0/arm/arm-none-eabi/include/c++/10.3.1/bits/std_abs.h **** #ifndef __CORRECT_ISO_CPP_STDLIB_H_PROTO
  55:/Library/DaisyToolchain/0.2.0/arm/arm-none-eabi/include/c++/10.3.1/bits/std_abs.h ****   inline long
  56:/Library/DaisyToolchain/0.2.0/arm/arm-none-eabi/include/c++/10.3.1/bits/std_abs.h ****   abs(long __i) { return __builtin_labs(__i); }
  57:/Library/DaisyToolchain/0.2.0/arm/arm-none-eabi/include/c++/10.3.1/bits/std_abs.h **** #endif
  58:/Library/DaisyToolchain/0.2.0/arm/arm-none-eabi/include/c++/10.3.1/bits/std_abs.h **** 
  59:/Library/DaisyToolchain/0.2.0/arm/arm-none-eabi/include/c++/10.3.1/bits/std_abs.h **** #ifdef _GLIBCXX_USE_LONG_LONG
  60:/Library/DaisyToolchain/0.2.0/arm/arm-none-eabi/include/c++/10.3.1/bits/std_abs.h ****   inline long long
  61:/Library/DaisyToolchain/0.2.0/arm/arm-none-eabi/include/c++/10.3.1/bits/std_abs.h ****   abs(long long __x) { return __builtin_llabs (__x); }
  62:/Library/DaisyToolchain/0.2.0/arm/arm-none-eabi/include/c++/10.3.1/bits/std_abs.h **** #endif
  63:/Library/DaisyToolchain/0.2.0/arm/arm-none-eabi/include/c++/10.3.1/bits/std_abs.h **** 
  64:/Library/DaisyToolchain/0.2.0/arm/arm-none-eabi/include/c++/10.3.1/bits/std_abs.h **** // _GLIBCXX_RESOLVE_LIB_DEFECTS
  65:/Library/DaisyToolchain/0.2.0/arm/arm-none-eabi/include/c++/10.3.1/bits/std_abs.h **** // 2192. Validity and return type of std::abs(0u) is unclear
  66:/Library/DaisyToolchain/0.2.0/arm/arm-none-eabi/include/c++/10.3.1/bits/std_abs.h **** // 2294. <cstdlib> should declare abs(double)
  67:/Library/DaisyToolchain/0.2.0/arm/arm-none-eabi/include/c++/10.3.1/bits/std_abs.h **** // 2735. std::abs(short), std::abs(signed char) and others should return int
  68:/Library/DaisyToolchain/0.2.0/arm/arm-none-eabi/include/c++/10.3.1/bits/std_abs.h **** 
  69:/Library/DaisyToolchain/0.2.0/arm/arm-none-eabi/include/c++/10.3.1/bits/std_abs.h **** #ifndef __CORRECT_ISO_CPP_MATH_H_PROTO
  70:/Library/DaisyToolchain/0.2.0/arm/arm-none-eabi/include/c++/10.3.1/bits/std_abs.h ****   inline _GLIBCXX_CONSTEXPR double
  71:/Library/DaisyToolchain/0.2.0/arm/arm-none-eabi/include/c++/10.3.1/bits/std_abs.h ****   abs(double __x)
  72:/Library/DaisyToolchain/0.2.0/arm/arm-none-eabi/include/c++/10.3.1/bits/std_abs.h ****   { return __builtin_fabs(__x); }
  73:/Library/DaisyToolchain/0.2.0/arm/arm-none-eabi/include/c++/10.3.1/bits/std_abs.h **** 
  74:/Library/DaisyToolchain/0.2.0/arm/arm-none-eabi/include/c++/10.3.1/bits/std_abs.h ****   inline _GLIBCXX_CONSTEXPR float
  75:/Library/DaisyToolchain/0.2.0/arm/arm-none-eabi/include/c++/10.3.1/bits/std_abs.h ****   abs(float __x)
 251              		.loc 6 75 3 view .LVU59
 252              	.LBB268:
  76:/Library/DaisyToolchain/0.2.0/arm/arm-none-eabi/include/c++/10.3.1/bits/std_abs.h ****   { return __builtin_fabsf(__x); }
 253              		.loc 6 76 5 view .LVU60
 254              	.LBE268:
 255              	.LBE267:
 256              		.loc 3 44 41 is_stmt 0 view .LVU61
 257 001c 29EE2A6A 		vmul.f32	s12, s18, s21
ARM GAS  /var/folders/2p/02m_5p7958535cp2tpgps0400000gn/T//cchBTf64.s 			page 15


 258              	.LVL15:
 259              		.loc 3 44 22 view .LVU62
 260 0020 9FED33AA 		vldr.32	s20, .L21+16
 261              	.LBB270:
 262              	.LBB271:
 263              		.loc 5 128 23 view .LVU63
 264 0024 3348     		ldr	r0, .L21+20
 265              	.LBE271:
 266              	.LBE270:
 267              		.loc 3 44 22 view .LVU64
 268 0026 B4EECA6A 		vcmpe.f32	s12, s20
 269              	.LBB274:
 270              	.LBB269:
 271              		.loc 6 76 31 view .LVU65
 272 002a B0EEC66A 		vabs.f32	s12, s12
 273              	.LVL16:
 274              		.loc 6 76 31 view .LVU66
 275              	.LBE269:
 276              	.LBE274:
 277              		.loc 3 44 41 view .LVU67
 278 002e 9FED2C9B 		vldr.64	d9, .L21
 279              	.LVL17:
 280              		.loc 3 44 22 view .LVU68
 281 0032 FDEEC67A 		vcvt.s32.f32	s15, s12
 282              	.LVL18:
 283              		.loc 6 76 5 is_stmt 1 view .LVU69
 284              		.loc 6 76 5 view .LVU70
 285              		.loc 3 44 22 is_stmt 0 view .LVU71
 286 0036 F1EE10FA 		vmrs	APSR_nzcv, FPSCR
 287              	.LVL19:
 288              	.LBB275:
 289              	.LBI270:
 126:../libDaisy/src/daisy_seed.h ****     {
 290              		.loc 5 126 17 is_stmt 1 view .LVU72
 291              	.LBE275:
 292              		.loc 3 44 41 is_stmt 0 view .LVU73
 293 003a B8EEE77A 		vcvt.f32.s32	s14, s15
 294              	.LVL20:
 295              	.LBB276:
 296              	.LBB272:
 297              		.loc 5 128 23 view .LVU74
 298 003e 17EE902A 		vmov	r2, s15	@ int
 299 0042 4CBF     		ite	mi
 300 0044 2D21     		movmi	r1, #45
 301 0046 2021     		movpl	r1, #32
 302              	.LBE272:
 303              	.LBE276:
 304              		.loc 3 44 41 view .LVU75
 305 0048 36EE476A 		vsub.f32	s12, s12, s14
 306              	.LVL21:
 307              		.loc 3 44 41 view .LVU76
 308 004c B7EEC66A 		vcvt.f64.f32	d6, s12
 309 0050 26EE096B 		vmul.f64	d6, d6, d9
 310              	.LBB277:
 311              	.LBB273:
 312              		.loc 5 128 23 view .LVU77
 313 0054 BDEEC67B 		vcvt.s32.f64	s14, d6
ARM GAS  /var/folders/2p/02m_5p7958535cp2tpgps0400000gn/T//cchBTf64.s 			page 16


 314 0058 17EE103A 		vmov	r3, s14	@ int
 315 005c FFF7FEFF 		bl	_ZN5daisy6LoggerILNS_17LoggerDestinationE1EE9PrintLineEPKcz
 316              	.LVL22:
 317              		.loc 5 128 23 view .LVU78
 318              	.LBE273:
 319              	.LBE277:
  45:GrannyChordApp.cpp ****   pod_.seed.PrintLine("Avg: " FLT_FMT3, FLT_VAR3(avgLoad * 100.0f));
 320              		.loc 3 45 3 is_stmt 1 view .LVU79
 321              	.LBB278:
 322              	.LBI278:
  75:/Library/DaisyToolchain/0.2.0/arm/arm-none-eabi/include/c++/10.3.1/bits/std_abs.h ****   { return __builtin_fabsf(__x); }
 323              		.loc 6 75 3 view .LVU80
 324              	.LBB279:
 325              		.loc 6 76 5 view .LVU81
 326              	.LBE279:
 327              	.LBE278:
 328              		.loc 3 45 41 is_stmt 0 view .LVU82
 329 0060 28EEAA6A 		vmul.f32	s12, s17, s21
 330              	.LVL23:
 331              	.LBB281:
 332              	.LBB282:
 333              		.loc 5 128 23 view .LVU83
 334 0064 2448     		ldr	r0, .L21+24
 335              	.LBE282:
 336              	.LBE281:
 337              		.loc 3 45 22 view .LVU84
 338 0066 B4EECA6A 		vcmpe.f32	s12, s20
 339              	.LBB286:
 340              	.LBB280:
 341              		.loc 6 76 31 view .LVU85
 342 006a B0EEC66A 		vabs.f32	s12, s12
 343              	.LVL24:
 344              		.loc 6 76 31 view .LVU86
 345              	.LBE280:
 346              	.LBE286:
 347              		.loc 3 45 22 view .LVU87
 348 006e F1EE10FA 		vmrs	APSR_nzcv, FPSCR
 349 0072 FDEEC67A 		vcvt.s32.f32	s15, s12
 350              	.LVL25:
 351              		.loc 6 76 5 is_stmt 1 view .LVU88
 352              		.loc 6 76 5 view .LVU89
 353              	.LBB287:
 354              	.LBI281:
 126:../libDaisy/src/daisy_seed.h ****     {
 355              		.loc 5 126 17 view .LVU90
 356              	.LBB283:
 357              		.loc 5 128 23 is_stmt 0 view .LVU91
 358 0076 4CBF     		ite	mi
 359 0078 2D21     		movmi	r1, #45
 360 007a 2021     		movpl	r1, #32
 361              	.LBE283:
 362              	.LBE287:
 363              		.loc 3 45 41 view .LVU92
 364 007c B8EEE77A 		vcvt.f32.s32	s14, s15
 365              	.LVL26:
 366              	.LBB288:
 367              	.LBB284:
ARM GAS  /var/folders/2p/02m_5p7958535cp2tpgps0400000gn/T//cchBTf64.s 			page 17


 368              		.loc 5 128 23 view .LVU93
 369 0080 17EE902A 		vmov	r2, s15	@ int
 370              	.LBE284:
 371              	.LBE288:
 372              		.loc 3 45 41 view .LVU94
 373 0084 36EE476A 		vsub.f32	s12, s12, s14
 374              	.LVL27:
 375              		.loc 3 45 41 view .LVU95
 376 0088 B7EEC66A 		vcvt.f64.f32	d6, s12
 377 008c 26EE096B 		vmul.f64	d6, d6, d9
 378              	.LBB289:
 379              	.LBB285:
 380              		.loc 5 128 23 view .LVU96
 381 0090 BDEEC67B 		vcvt.s32.f64	s14, d6
 382              	.LVL28:
 383              		.loc 5 128 23 view .LVU97
 384 0094 17EE103A 		vmov	r3, s14	@ int
 385 0098 FFF7FEFF 		bl	_ZN5daisy6LoggerILNS_17LoggerDestinationE1EE9PrintLineEPKcz
 386              	.LVL29:
 387              		.loc 5 128 23 view .LVU98
 388              	.LBE285:
 389              	.LBE289:
  46:GrannyChordApp.cpp ****   pod_.seed.PrintLine("Min: " FLT_FMT3, FLT_VAR3(minLoad * 100.0f));
 390              		.loc 3 46 3 is_stmt 1 view .LVU99
 391              	.LBB290:
 392              	.LBI290:
  75:/Library/DaisyToolchain/0.2.0/arm/arm-none-eabi/include/c++/10.3.1/bits/std_abs.h ****   { return __builtin_fabsf(__x); }
 393              		.loc 6 75 3 view .LVU100
 394              	.LBB291:
 395              		.loc 6 76 5 view .LVU101
 396              	.LBE291:
 397              	.LBE290:
 398              		.loc 3 46 41 is_stmt 0 view .LVU102
 399 009c 28EE2A7A 		vmul.f32	s14, s16, s21
 400              	.LVL30:
 401              	.LBB293:
 402              	.LBB294:
 403              		.loc 5 128 23 view .LVU103
 404 00a0 1648     		ldr	r0, .L21+28
 405              	.LBE294:
 406              	.LBE293:
 407              		.loc 3 46 22 view .LVU104
 408 00a2 B4EECA7A 		vcmpe.f32	s14, s20
 409              	.LBB299:
 410              	.LBB292:
 411              		.loc 6 76 31 view .LVU105
 412 00a6 B0EEC77A 		vabs.f32	s14, s14
 413              	.LVL31:
 414              		.loc 6 76 31 view .LVU106
 415              	.LBE292:
 416              	.LBE299:
 417              		.loc 3 46 22 view .LVU107
 418 00aa F1EE10FA 		vmrs	APSR_nzcv, FPSCR
 419 00ae FDEEC76A 		vcvt.s32.f32	s13, s14
 420              	.LVL32:
 421              		.loc 6 76 5 is_stmt 1 view .LVU108
 422              		.loc 6 76 5 view .LVU109
ARM GAS  /var/folders/2p/02m_5p7958535cp2tpgps0400000gn/T//cchBTf64.s 			page 18


 423              	.LBB300:
 424              	.LBI293:
 126:../libDaisy/src/daisy_seed.h ****     {
 425              		.loc 5 126 17 view .LVU110
 426              	.LBB295:
 427              		.loc 5 128 23 is_stmt 0 view .LVU111
 428 00b2 4CBF     		ite	mi
 429 00b4 2D21     		movmi	r1, #45
 430 00b6 2021     		movpl	r1, #32
 431              	.LBE295:
 432              	.LBE300:
 433              		.loc 3 46 41 view .LVU112
 434 00b8 F8EEE67A 		vcvt.f32.s32	s15, s13
 435              	.LVL33:
 436              	.LBB301:
 437              	.LBB296:
 438              		.loc 5 128 23 view .LVU113
 439 00bc 16EE902A 		vmov	r2, s13	@ int
 440              	.LBE296:
 441              	.LBE301:
 442              		.loc 3 46 41 view .LVU114
 443 00c0 37EE677A 		vsub.f32	s14, s14, s15
 444              	.LVL34:
 445              		.loc 3 46 41 view .LVU115
 446 00c4 B7EEC77A 		vcvt.f64.f32	d7, s14
 447 00c8 27EE097B 		vmul.f64	d7, d7, d9
  47:GrannyChordApp.cpp **** }
 448              		.loc 3 47 1 view .LVU116
 449 00cc BDEC068B 		vldm	sp!, {d8-d10}
 450              		.cfi_restore 84
 451              		.cfi_restore 85
 452              		.cfi_restore 82
 453              		.cfi_restore 83
 454              		.cfi_restore 80
 455              		.cfi_restore 81
 456              		.cfi_def_cfa_offset 8
 457              	.LVL35:
 458              	.LBB302:
 459              	.LBB297:
 460              		.loc 5 128 23 view .LVU117
 461 00d0 FDEEC77B 		vcvt.s32.f64	s15, d7
 462              	.LBE297:
 463              	.LBE302:
 464              		.loc 3 47 1 view .LVU118
 465 00d4 BDE81040 		pop	{r4, lr}
 466              		.cfi_restore 14
 467              		.cfi_restore 4
 468              		.cfi_def_cfa_offset 0
 469              	.LBB303:
 470              	.LBB298:
 471              		.loc 5 128 23 view .LVU119
 472 00d8 17EE903A 		vmov	r3, s15	@ int
 473 00dc FFF7FEBF 		b	_ZN5daisy6LoggerILNS_17LoggerDestinationE1EE9PrintLineEPKcz
 474              	.LVL36:
 475              	.L22:
 476              		.loc 5 128 23 view .LVU120
 477              		.align	3
ARM GAS  /var/folders/2p/02m_5p7958535cp2tpgps0400000gn/T//cchBTf64.s 			page 19


 478              	.L21:
 479 00e0 00000000 		.word	0
 480 00e4 00408F40 		.word	1083129856
 481 00e8 0000C842 		.word	1120403456
 482 00ec 00000000 		.word	.LC0
 483 00f0 00000000 		.word	0
 484 00f4 13000000 		.word	.LC1
 485 00f8 22000000 		.word	.LC2
 486 00fc 31000000 		.word	.LC3
 487              	.LBE298:
 488              	.LBE303:
 489              		.cfi_endproc
 490              	.LFE4912:
 492              		.section	.text._ZN14GrannyChordApp20HandleEncoderPressedEv,"ax",%progbits
 493              		.align	1
 494              		.global	_ZN14GrannyChordApp20HandleEncoderPressedEv
 495              		.syntax unified
 496              		.thumb
 497              		.thumb_func
 499              	_ZN14GrannyChordApp20HandleEncoderPressedEv:
 500              	.LVL37:
 501              	.LFB4918:
  48:GrannyChordApp.cpp **** #endif
  49:GrannyChordApp.cpp **** 
  50:GrannyChordApp.cpp **** /// @brief Loops whilst app is running, updating state and UI, handling 
  51:GrannyChordApp.cpp **** ///        state transitions, updating parameters and managing audio recordings
  52:GrannyChordApp.cpp **** void GrannyChordApp::Run(){
  53:GrannyChordApp.cpp ****   pod_.seed.PrintLine("app is running");
  54:GrannyChordApp.cpp ****   while(true){
  55:GrannyChordApp.cpp ****     // #ifdef DEBUG_MODE
  56:GrannyChordApp.cpp ****     // loop_count++;
  57:GrannyChordApp.cpp ****     // if (loop_count%2000000==0){
  58:GrannyChordApp.cpp ****     //   PrintCPULoad();
  59:GrannyChordApp.cpp ****     //   loop_count=0;
  60:GrannyChordApp.cpp ****     //   // System::Delay(500);
  61:GrannyChordApp.cpp ****     // }
  62:GrannyChordApp.cpp ****     // #endif
  63:GrannyChordApp.cpp **** 
  64:GrannyChordApp.cpp ****     if (recording_out_) {
  65:GrannyChordApp.cpp ****       sd_writer_.Write();
  66:GrannyChordApp.cpp ****       if (sd_writer_.GetLengthSeconds()>120){
  67:GrannyChordApp.cpp ****         sd_writer_.SaveFile();
  68:GrannyChordApp.cpp ****         recording_out_ = false;
  69:GrannyChordApp.cpp ****       }
  70:GrannyChordApp.cpp ****     }
  71:GrannyChordApp.cpp ****     UpdateUI();
  72:GrannyChordApp.cpp ****     UpdateSynthParams();
  73:GrannyChordApp.cpp ****     // System::Delay(1);
  74:GrannyChordApp.cpp ****   }
  75:GrannyChordApp.cpp **** }
  76:GrannyChordApp.cpp **** 
  77:GrannyChordApp.cpp **** /// @brief Handles hardware control inputs and calls state change methods
  78:GrannyChordApp.cpp **** void GrannyChordApp::UpdateUI(){
  79:GrannyChordApp.cpp ****   pod_.ProcessDigitalControls();
  80:GrannyChordApp.cpp **** 
  81:GrannyChordApp.cpp ****   if (pod_.encoder.TimeHeldMs() > 1000.0f) HandleEncoderLongPress();
  82:GrannyChordApp.cpp ****   else if (pod_.encoder.FallingEdge()) HandleEncoderPressed();
ARM GAS  /var/folders/2p/02m_5p7958535cp2tpgps0400000gn/T//cchBTf64.s 			page 20


  83:GrannyChordApp.cpp **** 
  84:GrannyChordApp.cpp ****   if (curr_state_==AppState::Synthesis){
  85:GrannyChordApp.cpp ****     ButtonHandler();
  86:GrannyChordApp.cpp ****   }
  87:GrannyChordApp.cpp **** 
  88:GrannyChordApp.cpp ****   int32_t encoder_inc = pod_.encoder.Increment();
  89:GrannyChordApp.cpp ****   if (encoder_inc!=0){
  90:GrannyChordApp.cpp ****     HandleEncoderIncrement(encoder_inc);
  91:GrannyChordApp.cpp ****   }
  92:GrannyChordApp.cpp ****   if (curr_state_ != next_state_){
  93:GrannyChordApp.cpp ****     #ifdef DEBUG_MODE
  94:GrannyChordApp.cpp ****     DebugPrintState(curr_state_);
  95:GrannyChordApp.cpp ****     DebugPrint(pod_, "switching states");
  96:GrannyChordApp.cpp ****     DebugPrintState(next_state_);
  97:GrannyChordApp.cpp ****     #endif
  98:GrannyChordApp.cpp ****     HandleStateChange();
  99:GrannyChordApp.cpp ****   }
 100:GrannyChordApp.cpp **** }
 101:GrannyChordApp.cpp **** 
 102:GrannyChordApp.cpp **** /// @brief handles transitions between states and prepares for next state
 103:GrannyChordApp.cpp **** void GrannyChordApp::HandleStateChange(){
 104:GrannyChordApp.cpp ****   switch(next_state_){
 105:GrannyChordApp.cpp ****     case AppState::SelectFile:
 106:GrannyChordApp.cpp ****       pod_.StopAudio();
 107:GrannyChordApp.cpp ****       DebugPrint(pod_, "stopped audio for select file");
 108:GrannyChordApp.cpp ****       curr_state_ = AppState::SelectFile;
 109:GrannyChordApp.cpp ****       break; 
 110:GrannyChordApp.cpp ****     case AppState::RecordIn:
 111:GrannyChordApp.cpp ****       InitRecordIn();
 112:GrannyChordApp.cpp ****       DebugPrint(pod_, "Recording in");
 113:GrannyChordApp.cpp ****       curr_state_ = AppState::RecordIn;  
 114:GrannyChordApp.cpp ****       break;
 115:GrannyChordApp.cpp ****     case AppState::PlayWAV:
 116:GrannyChordApp.cpp ****       InitPlayback(); 
 117:GrannyChordApp.cpp ****       curr_state_ = AppState::PlayWAV;
 118:GrannyChordApp.cpp ****       break;
 119:GrannyChordApp.cpp ****     case AppState::Synthesis:
 120:GrannyChordApp.cpp ****       InitSynth();
 121:GrannyChordApp.cpp ****       curr_state_ = AppState::Synthesis;
 122:GrannyChordApp.cpp ****       DebugPrint(pod_, "started audiocallback");
 123:GrannyChordApp.cpp ****       break;
 124:GrannyChordApp.cpp ****     case AppState::Error: 
 125:GrannyChordApp.cpp ****       curr_state_ = AppState::Error;
 126:GrannyChordApp.cpp ****       break;
 127:GrannyChordApp.cpp ****     default: 
 128:GrannyChordApp.cpp ****       break;
 129:GrannyChordApp.cpp ****   }
 130:GrannyChordApp.cpp ****   SetLed1AppState();
 131:GrannyChordApp.cpp **** }
 132:GrannyChordApp.cpp **** 
 133:GrannyChordApp.cpp **** /// @brief Handles when encoder is scrolled to select a file 
 134:GrannyChordApp.cpp **** /// @param encoder_inc amount the encoder has been scrolled/incremented
 135:GrannyChordApp.cpp **** void GrannyChordApp::HandleEncoderIncrement(int encoder_inc){
 136:GrannyChordApp.cpp ****   if (next_state_== AppState::SelectFile){
 137:GrannyChordApp.cpp ****     recorded_in_ = false;
 138:GrannyChordApp.cpp ****     HandleFileSelection(encoder_inc);
 139:GrannyChordApp.cpp ****   }
ARM GAS  /var/folders/2p/02m_5p7958535cp2tpgps0400000gn/T//cchBTf64.s 			page 21


 140:GrannyChordApp.cpp ****   else if (curr_state_==AppState::PlayWAV){
 141:GrannyChordApp.cpp ****     recorded_in_ = false;
 142:GrannyChordApp.cpp ****     next_state_ = AppState::SelectFile;
 143:GrannyChordApp.cpp ****   }
 144:GrannyChordApp.cpp **** }
 145:GrannyChordApp.cpp **** 
 146:GrannyChordApp.cpp **** /// @brief handles when the encoder is pressed down (not held)
 147:GrannyChordApp.cpp **** void GrannyChordApp::HandleEncoderPressed(){
 502              		.loc 3 147 44 is_stmt 1 view -0
 503              		.cfi_startproc
 504              		@ args = 0, pretend = 0, frame = 0
 505              		@ frame_needed = 0, uses_anonymous_args = 0
 506              		@ link register save eliminated.
 148:GrannyChordApp.cpp ****   switch(curr_state_){
 507              		.loc 3 148 3 view .LVU122
 508              		.loc 3 148 10 is_stmt 0 view .LVU123
 509 0000 D0F87832 		ldr	r3, [r0, #632]
 510              		.loc 3 148 3 view .LVU124
 511 0004 012B     		cmp	r3, #1
 512 0006 0CD0     		beq	.L24
 513 0008 032B     		cmp	r3, #3
 514 000a 04D0     		beq	.L25
 515 000c 13B9     		cbnz	r3, .L23
 149:GrannyChordApp.cpp ****     case AppState::SelectFile:
 516              		.loc 3 149 5 is_stmt 1 view .LVU125
 150:GrannyChordApp.cpp ****       next_state_ = AppState::PlayWAV;
 517              		.loc 3 150 7 view .LVU126
 518              		.loc 3 150 19 is_stmt 0 view .LVU127
 519 000e 0123     		movs	r3, #1
 520              	.L27:
 151:GrannyChordApp.cpp ****       return;
 152:GrannyChordApp.cpp ****     case AppState::RecordIn: 
 153:GrannyChordApp.cpp ****       recorded_in_ = true;
 154:GrannyChordApp.cpp ****       next_state_ = AppState::PlayWAV; 
 155:GrannyChordApp.cpp ****       return;
 156:GrannyChordApp.cpp ****     case AppState::PlayWAV:
 157:GrannyChordApp.cpp ****       next_state_ = AppState::Synthesis;
 521              		.loc 3 157 19 view .LVU128
 522 0010 C0F87C32 		str	r3, [r0, #636]
 158:GrannyChordApp.cpp ****       return;
 523              		.loc 3 158 7 is_stmt 1 view .LVU129
 524              	.L23:
 159:GrannyChordApp.cpp ****     default:
 160:GrannyChordApp.cpp ****       return;
 161:GrannyChordApp.cpp ****   }
 162:GrannyChordApp.cpp **** }
 525              		.loc 3 162 1 is_stmt 0 view .LVU130
 526 0014 7047     		bx	lr
 527              	.L25:
 152:GrannyChordApp.cpp ****       recorded_in_ = true;
 528              		.loc 3 152 5 is_stmt 1 view .LVU131
 153:GrannyChordApp.cpp ****       next_state_ = AppState::PlayWAV; 
 529              		.loc 3 153 7 view .LVU132
 153:GrannyChordApp.cpp ****       next_state_ = AppState::PlayWAV; 
 530              		.loc 3 153 20 is_stmt 0 view .LVU133
 531 0016 00F55042 		add	r2, r0, #53248
 532 001a 0123     		movs	r3, #1
ARM GAS  /var/folders/2p/02m_5p7958535cp2tpgps0400000gn/T//cchBTf64.s 			page 22


 533 001c 82F82832 		strb	r3, [r2, #552]
 154:GrannyChordApp.cpp ****       return;
 534              		.loc 3 154 7 is_stmt 1 view .LVU134
 535 0020 F6E7     		b	.L27
 536              	.L24:
 156:GrannyChordApp.cpp ****       next_state_ = AppState::Synthesis;
 537              		.loc 3 156 5 view .LVU135
 157:GrannyChordApp.cpp ****       return;
 538              		.loc 3 157 7 view .LVU136
 157:GrannyChordApp.cpp ****       return;
 539              		.loc 3 157 19 is_stmt 0 view .LVU137
 540 0022 0223     		movs	r3, #2
 541 0024 F4E7     		b	.L27
 542              		.cfi_endproc
 543              	.LFE4918:
 545              		.section	.text._ZN14GrannyChordApp22HandleEncoderLongPressEv,"ax",%progbits
 546              		.align	1
 547              		.global	_ZN14GrannyChordApp22HandleEncoderLongPressEv
 548              		.syntax unified
 549              		.thumb
 550              		.thumb_func
 552              	_ZN14GrannyChordApp22HandleEncoderLongPressEv:
 553              	.LVL38:
 554              	.LFB4919:
 163:GrannyChordApp.cpp **** 
 164:GrannyChordApp.cpp **** /// @brief switch between states by long pressing encoder.
 165:GrannyChordApp.cpp **** ///        much simpler than below!
 166:GrannyChordApp.cpp **** void GrannyChordApp::HandleEncoderLongPress(){
 555              		.loc 3 166 46 is_stmt 1 view -0
 556              		.cfi_startproc
 557              		@ args = 0, pretend = 0, frame = 0
 558              		@ frame_needed = 0, uses_anonymous_args = 0
 559              		.loc 3 166 46 is_stmt 0 view .LVU139
 560 0000 10B5     		push	{r4, lr}
 561              		.cfi_def_cfa_offset 8
 562              		.cfi_offset 4, -8
 563              		.cfi_offset 14, -4
 564 0002 0446     		mov	r4, r0
 565              	.LVL39:
 566              	.L34:
 167:GrannyChordApp.cpp ****   do { pod_.encoder.Debounce();  }
 567              		.loc 3 167 3 is_stmt 1 view .LVU140
 568              		.loc 3 167 8 view .LVU141
 569              		.loc 3 167 29 is_stmt 0 view .LVU142
 570 0004 E069     		ldr	r0, [r4, #28]
 571 0006 4030     		adds	r0, r0, #64
 572 0008 FFF7FEFF 		bl	_ZN5daisy7Encoder8DebounceEv
 573              	.LVL40:
 168:GrannyChordApp.cpp ****   while(!pod_.encoder.FallingEdge());
 574              		.loc 3 168 9 is_stmt 1 view .LVU143
 575              		.loc 3 168 10 is_stmt 0 view .LVU144
 576 000c E369     		ldr	r3, [r4, #28]
 577              	.LVL41:
 578              	.LBB308:
 579              	.LBI308:
 580              		.file 7 "../libDaisy/src/hid/encoder.h"
   1:../libDaisy/src/hid/encoder.h **** #pragma once
ARM GAS  /var/folders/2p/02m_5p7958535cp2tpgps0400000gn/T//cchBTf64.s 			page 23


   2:../libDaisy/src/hid/encoder.h **** #ifndef DSY_ENCODER_H
   3:../libDaisy/src/hid/encoder.h **** #define DSY_ENCODER_H
   4:../libDaisy/src/hid/encoder.h **** #include "daisy_core.h"
   5:../libDaisy/src/hid/encoder.h **** #include "per/gpio.h"
   6:../libDaisy/src/hid/encoder.h **** #include "hid/switch.h"
   7:../libDaisy/src/hid/encoder.h **** 
   8:../libDaisy/src/hid/encoder.h **** namespace daisy
   9:../libDaisy/src/hid/encoder.h **** {
  10:../libDaisy/src/hid/encoder.h **** /** 
  11:../libDaisy/src/hid/encoder.h ****     @brief Generic Class for handling Quadrature Encoders \n 
  12:../libDaisy/src/hid/encoder.h ****     Inspired/influenced by Mutable Instruments (pichenettes) Encoder classes
  13:../libDaisy/src/hid/encoder.h ****     @author Stephen Hensley
  14:../libDaisy/src/hid/encoder.h ****     @date December 2019
  15:../libDaisy/src/hid/encoder.h ****     @ingroup controls
  16:../libDaisy/src/hid/encoder.h **** */
  17:../libDaisy/src/hid/encoder.h **** class Encoder
  18:../libDaisy/src/hid/encoder.h **** {
  19:../libDaisy/src/hid/encoder.h ****   public:
  20:../libDaisy/src/hid/encoder.h ****     Encoder() {}
  21:../libDaisy/src/hid/encoder.h ****     ~Encoder() {}
  22:../libDaisy/src/hid/encoder.h **** 
  23:../libDaisy/src/hid/encoder.h ****     /** Initializes the encoder with the specified hardware pins.
  24:../libDaisy/src/hid/encoder.h ****      * Update rate is to be deprecated in a future release
  25:../libDaisy/src/hid/encoder.h ****      */
  26:../libDaisy/src/hid/encoder.h ****     void Init(dsy_gpio_pin a,
  27:../libDaisy/src/hid/encoder.h ****               dsy_gpio_pin b,
  28:../libDaisy/src/hid/encoder.h ****               dsy_gpio_pin click,
  29:../libDaisy/src/hid/encoder.h ****               float        update_rate = 0.f);
  30:../libDaisy/src/hid/encoder.h ****     /** Called at update_rate to debounce and handle timing for the switch.
  31:../libDaisy/src/hid/encoder.h ****      * In order for events not to be missed, its important that the Edge/Pressed checks be made at 
  32:../libDaisy/src/hid/encoder.h ****      */
  33:../libDaisy/src/hid/encoder.h ****     void Debounce();
  34:../libDaisy/src/hid/encoder.h **** 
  35:../libDaisy/src/hid/encoder.h ****     /** Returns +1 if the encoder was turned clockwise, -1 if it was turned counter-clockwise, or 0
  36:../libDaisy/src/hid/encoder.h ****     inline int32_t Increment() const { return updated_ ? inc_ : 0; }
  37:../libDaisy/src/hid/encoder.h **** 
  38:../libDaisy/src/hid/encoder.h ****     /** Returns true if the encoder was just pressed. */
  39:../libDaisy/src/hid/encoder.h ****     inline bool RisingEdge() const { return sw_.RisingEdge(); }
  40:../libDaisy/src/hid/encoder.h **** 
  41:../libDaisy/src/hid/encoder.h ****     /** Returns true if the encoder was just released. */
  42:../libDaisy/src/hid/encoder.h ****     inline bool FallingEdge() const { return sw_.FallingEdge(); }
 581              		.loc 7 42 17 is_stmt 1 view .LVU145
 582              	.LBE308:
 583              		.loc 7 42 39 view .LVU146
 584              	.LBB311:
 585              	.LBB309:
 586              	.LBI309:
  73:../libDaisy/src/hid/switch.h ****     {
 587              		.loc 1 73 17 view .LVU147
 588              	.LBB310:
  75:../libDaisy/src/hid/switch.h ****     }
 589              		.loc 1 75 9 view .LVU148
  75:../libDaisy/src/hid/switch.h ****     }
 590              		.loc 1 75 25 is_stmt 0 view .LVU149
 591 000e 93F84C20 		ldrb	r2, [r3, #76]	@ zero_extendqisi2
 592 0012 002A     		cmp	r2, #0
 593 0014 F6D0     		beq	.L34
ARM GAS  /var/folders/2p/02m_5p7958535cp2tpgps0400000gn/T//cchBTf64.s 			page 24


 594              	.LVL42:
  75:../libDaisy/src/hid/switch.h ****     }
 595              		.loc 1 75 25 view .LVU150
 596              	.LBE310:
 597              	.LBE309:
 598              	.LBE311:
 599              		.loc 3 168 9 view .LVU151
 600 0016 93F85230 		ldrb	r3, [r3, #82]	@ zero_extendqisi2
 601 001a 802B     		cmp	r3, #128
 602 001c F2D1     		bne	.L34
 169:GrannyChordApp.cpp ****   switch(curr_state_){
 603              		.loc 3 169 3 is_stmt 1 view .LVU152
 604              		.loc 3 169 10 is_stmt 0 view .LVU153
 605 001e D4F87832 		ldr	r3, [r4, #632]
 606              		.loc 3 169 3 view .LVU154
 607 0022 012B     		cmp	r3, #1
 608 0024 08DC     		bgt	.L30
 609 0026 002B     		cmp	r3, #0
 610 0028 0CDB     		blt	.L28
 170:GrannyChordApp.cpp ****     case AppState::Synthesis:
 171:GrannyChordApp.cpp ****     case AppState::RecordIn:  
 172:GrannyChordApp.cpp ****       next_state_ = AppState::SelectFile;
 173:GrannyChordApp.cpp ****       return;
 174:GrannyChordApp.cpp ****     case AppState::SelectFile:
 611              		.loc 3 174 5 is_stmt 1 view .LVU155
 175:GrannyChordApp.cpp ****     case AppState::PlayWAV: 
 612              		.loc 3 175 5 view .LVU156
 176:GrannyChordApp.cpp ****       recorded_in_ = true;
 613              		.loc 3 176 7 view .LVU157
 614              		.loc 3 176 20 is_stmt 0 view .LVU158
 615 002a 04F55043 		add	r3, r4, #53248
 616 002e 0122     		movs	r2, #1
 617 0030 83F82822 		strb	r2, [r3, #552]
 177:GrannyChordApp.cpp ****       next_state_ = AppState::RecordIn;  
 618              		.loc 3 177 7 is_stmt 1 view .LVU159
 619              		.loc 3 177 19 is_stmt 0 view .LVU160
 620 0034 0323     		movs	r3, #3
 621 0036 03E0     		b	.L36
 622              	.L30:
 169:GrannyChordApp.cpp ****     case AppState::Synthesis:
 623              		.loc 3 169 3 view .LVU161
 624 0038 023B     		subs	r3, r3, #2
 625 003a 012B     		cmp	r3, #1
 626 003c 02D8     		bhi	.L28
 170:GrannyChordApp.cpp ****     case AppState::RecordIn:  
 627              		.loc 3 170 5 is_stmt 1 view .LVU162
 171:GrannyChordApp.cpp ****       next_state_ = AppState::SelectFile;
 628              		.loc 3 171 5 view .LVU163
 172:GrannyChordApp.cpp ****       return;
 629              		.loc 3 172 7 view .LVU164
 172:GrannyChordApp.cpp ****       return;
 630              		.loc 3 172 19 is_stmt 0 view .LVU165
 631 003e 0023     		movs	r3, #0
 632              	.L36:
 633              		.loc 3 177 19 view .LVU166
 634 0040 C4F87C32 		str	r3, [r4, #636]
 178:GrannyChordApp.cpp ****       return;
ARM GAS  /var/folders/2p/02m_5p7958535cp2tpgps0400000gn/T//cchBTf64.s 			page 25


 635              		.loc 3 178 7 is_stmt 1 view .LVU167
 636              	.L28:
 179:GrannyChordApp.cpp ****     default:
 180:GrannyChordApp.cpp ****       return;
 181:GrannyChordApp.cpp ****   }
 182:GrannyChordApp.cpp **** }
 637              		.loc 3 182 1 is_stmt 0 view .LVU168
 638 0044 10BD     		pop	{r4, pc}
 639              		.loc 3 182 1 view .LVU169
 640              		.cfi_endproc
 641              	.LFE4919:
 643              		.section	.text._ZN14GrannyChordApp22HandleButton1LongPressEv,"ax",%progbits
 644              		.align	1
 645              		.global	_ZN14GrannyChordApp22HandleButton1LongPressEv
 646              		.syntax unified
 647              		.thumb
 648              		.thumb_func
 650              	_ZN14GrannyChordApp22HandleButton1LongPressEv:
 651              	.LVL43:
 652              	.LFB4923:
 183:GrannyChordApp.cpp **** 
 184:GrannyChordApp.cpp **** /* this logic is required for button long presses:
 185:GrannyChordApp.cpp ****   the button update rate is extremely fast so without
 186:GrannyChordApp.cpp ****   a debounce delay, the method eg HandleButton1LongPress 
 187:GrannyChordApp.cpp ****   will be called many 1000s of times per second 
 188:GrannyChordApp.cpp ****   once time held > 1000ms, causing issues */
 189:GrannyChordApp.cpp **** void GrannyChordApp::ButtonHandler(){
 190:GrannyChordApp.cpp ****   unsigned long time_now = System::GetNow();
 191:GrannyChordApp.cpp ****   /* only check button events if there's been a gap between them */
 192:GrannyChordApp.cpp ****   if (time_now - last_action_time_ < DEBOUNCE_DELAY) {
 193:GrannyChordApp.cpp ****     return;
 194:GrannyChordApp.cpp ****   }
 195:GrannyChordApp.cpp **** 
 196:GrannyChordApp.cpp ****   /* store whether button 1 has been pressed down initiall*/
 197:GrannyChordApp.cpp ****   if (pod_.button1.RisingEdge()){
 198:GrannyChordApp.cpp ****     last_action_time_ = time_now;
 199:GrannyChordApp.cpp ****     btn1_long_press_fired_ = false;
 200:GrannyChordApp.cpp ****   }
 201:GrannyChordApp.cpp ****   
 202:GrannyChordApp.cpp ****   /* handle case when button 1 is held down */
 203:GrannyChordApp.cpp ****   if (pod_.button1.Pressed()){
 204:GrannyChordApp.cpp ****     float held_time = pod_.button1.TimeHeldMs();
 205:GrannyChordApp.cpp ****     if (held_time > LONG_PRESS_TIME && !btn1_long_press_fired_){
 206:GrannyChordApp.cpp ****       HandleButton1LongPress();
 207:GrannyChordApp.cpp ****       btn1_long_press_fired_ = true;
 208:GrannyChordApp.cpp ****       last_action_time_ = time_now;
 209:GrannyChordApp.cpp ****     }
 210:GrannyChordApp.cpp ****   }
 211:GrannyChordApp.cpp ****   
 212:GrannyChordApp.cpp ****   /* handle case when button 1 is released */
 213:GrannyChordApp.cpp ****   if (pod_.button1.FallingEdge()){
 214:GrannyChordApp.cpp ****     if (!btn1_long_press_fired_){
 215:GrannyChordApp.cpp ****       HandleButton1();
 216:GrannyChordApp.cpp ****     }
 217:GrannyChordApp.cpp ****     last_action_time_ = time_now;
 218:GrannyChordApp.cpp ****     btn1_long_press_fired_ = false;
 219:GrannyChordApp.cpp ****   }
ARM GAS  /var/folders/2p/02m_5p7958535cp2tpgps0400000gn/T//cchBTf64.s 			page 26


 220:GrannyChordApp.cpp **** 
 221:GrannyChordApp.cpp ****   /* store whether button 2 has been pressed down initially */
 222:GrannyChordApp.cpp ****   if (pod_.button2.RisingEdge()){
 223:GrannyChordApp.cpp ****     last_action_time_ = time_now;
 224:GrannyChordApp.cpp ****     btn2_long_press_fired_ = false;
 225:GrannyChordApp.cpp ****   }
 226:GrannyChordApp.cpp ****   
 227:GrannyChordApp.cpp ****   /* handle case when button 2 is held */
 228:GrannyChordApp.cpp ****   if (pod_.button2.Pressed()){
 229:GrannyChordApp.cpp ****     float held_time = pod_.button2.TimeHeldMs();
 230:GrannyChordApp.cpp ****     if (held_time > LONG_PRESS_TIME && !btn2_long_press_fired_){
 231:GrannyChordApp.cpp ****       HandleButton2LongPress();
 232:GrannyChordApp.cpp ****       btn2_long_press_fired_ = true;
 233:GrannyChordApp.cpp ****       last_action_time_ = time_now;
 234:GrannyChordApp.cpp ****     }
 235:GrannyChordApp.cpp ****   }
 236:GrannyChordApp.cpp ****   
 237:GrannyChordApp.cpp ****   /* handle case when button2 is released */
 238:GrannyChordApp.cpp ****   if (pod_.button2.FallingEdge()){
 239:GrannyChordApp.cpp ****     if (!btn2_long_press_fired_){
 240:GrannyChordApp.cpp ****       HandleButton2();
 241:GrannyChordApp.cpp ****     }
 242:GrannyChordApp.cpp ****     last_action_time_ = time_now;
 243:GrannyChordApp.cpp ****     btn2_long_press_fired_ = false;
 244:GrannyChordApp.cpp ****   }
 245:GrannyChordApp.cpp **** 
 246:GrannyChordApp.cpp ****   /* handle case when both buttons are held down */
 247:GrannyChordApp.cpp ****   if (pod_.button1.Pressed() && pod_.button2.Pressed()){
 248:GrannyChordApp.cpp ****     float heldTime1 = pod_.button1.TimeHeldMs();
 249:GrannyChordApp.cpp ****     float heldTime2 = pod_.button2.TimeHeldMs();
 250:GrannyChordApp.cpp ****     if (heldTime1 > LONG_PRESS_TIME &&
 251:GrannyChordApp.cpp ****         heldTime2 > LONG_PRESS_TIME &&
 252:GrannyChordApp.cpp ****         !both_btns_long_press_fired_) 
 253:GrannyChordApp.cpp ****     {
 254:GrannyChordApp.cpp ****       if (!recording_out_){
 255:GrannyChordApp.cpp ****         recording_out_ = true;
 256:GrannyChordApp.cpp ****         DebugPrint(pod_,"now recording out!");
 257:GrannyChordApp.cpp ****         RecordOutToSD();
 258:GrannyChordApp.cpp ****       } 
 259:GrannyChordApp.cpp ****       else{
 260:GrannyChordApp.cpp ****         DebugPrint(pod_, "finished recording out: %.2fs",sd_writer_.GetLengthSeconds());
 261:GrannyChordApp.cpp ****         FinishRecording();
 262:GrannyChordApp.cpp ****       }
 263:GrannyChordApp.cpp ****       both_btns_long_press_fired_ = true;
 264:GrannyChordApp.cpp ****       last_action_time_ = time_now;
 265:GrannyChordApp.cpp ****     }
 266:GrannyChordApp.cpp ****   } 
 267:GrannyChordApp.cpp ****   else{
 268:GrannyChordApp.cpp ****     both_btns_long_press_fired_ = false;
 269:GrannyChordApp.cpp ****   }
 270:GrannyChordApp.cpp **** }
 271:GrannyChordApp.cpp **** 
 272:GrannyChordApp.cpp **** /// @brief Switch between synth parameter control modes
 273:GrannyChordApp.cpp **** void GrannyChordApp::HandleButton1(){
 274:GrannyChordApp.cpp ****   UpdateSynthModeA();
 275:GrannyChordApp.cpp **** }
 276:GrannyChordApp.cpp **** 
ARM GAS  /var/folders/2p/02m_5p7958535cp2tpgps0400000gn/T//cchBTf64.s 			page 27


 277:GrannyChordApp.cpp **** /// @brief Toggles on/off synth parameter randomness controls
 278:GrannyChordApp.cpp **** void GrannyChordApp::HandleButton2(){
 279:GrannyChordApp.cpp ****     UpdateSynthModeB();
 280:GrannyChordApp.cpp **** }
 281:GrannyChordApp.cpp **** 
 282:GrannyChordApp.cpp **** /// @brief Toggles on/off reverb control mode 
 283:GrannyChordApp.cpp **** void GrannyChordApp::HandleButton1LongPress(){
 653              		.loc 3 283 46 is_stmt 1 view -0
 654              		.cfi_startproc
 655              		@ args = 0, pretend = 0, frame = 0
 656              		@ frame_needed = 0, uses_anonymous_args = 0
 657              		@ link register save eliminated.
 284:GrannyChordApp.cpp ****   // TODO: chord mode? 
 285:GrannyChordApp.cpp **** }
 658              		.loc 3 285 1 is_stmt 0 view .LVU171
 659 0000 7047     		bx	lr
 660              		.cfi_endproc
 661              	.LFE4923:
 663              		.section	.text._ZN14GrannyChordApp22HandleButton2LongPressEv,"ax",%progbits
 664              		.align	1
 665              		.global	_ZN14GrannyChordApp22HandleButton2LongPressEv
 666              		.syntax unified
 667              		.thumb
 668              		.thumb_func
 670              	_ZN14GrannyChordApp22HandleButton2LongPressEv:
 671              	.LFB5567:
 672              		.cfi_startproc
 673              		@ args = 0, pretend = 0, frame = 0
 674              		@ frame_needed = 0, uses_anonymous_args = 0
 675              		@ link register save eliminated.
 676 0000 7047     		bx	lr
 677              		.cfi_endproc
 678              	.LFE5567:
 680              		.section	.rodata._ZN14GrannyChordApp19HandleFileSelectionEl.str1.1,"aMS",%progbits,1
 681              	.LC4:
 682 0000 73656C65 		.ascii	"selected file %d %s\000"
 682      63746564 
 682      2066696C 
 682      65202564 
 682      20257300 
 683              		.section	.text._ZN14GrannyChordApp19HandleFileSelectionEl,"ax",%progbits
 684              		.align	1
 685              		.global	_ZN14GrannyChordApp19HandleFileSelectionEl
 686              		.syntax unified
 687              		.thumb
 688              		.thumb_func
 690              	_ZN14GrannyChordApp19HandleFileSelectionEl:
 691              	.LVL44:
 692              	.LFB4925:
 286:GrannyChordApp.cpp **** 
 287:GrannyChordApp.cpp **** /// @brief Toggles on/off filter control mode
 288:GrannyChordApp.cpp **** void GrannyChordApp::HandleButton2LongPress(){
 289:GrannyChordApp.cpp ****   // TODO: RECORD OUT? 
 290:GrannyChordApp.cpp **** }
 291:GrannyChordApp.cpp **** 
 292:GrannyChordApp.cpp **** /// @brief Scrolls through list of files for user selection
 293:GrannyChordApp.cpp **** void GrannyChordApp::HandleFileSelection(int32_t encoder_inc){
ARM GAS  /var/folders/2p/02m_5p7958535cp2tpgps0400000gn/T//cchBTf64.s 			page 28


 693              		.loc 3 293 62 is_stmt 1 view -0
 694              		.cfi_startproc
 695              		@ args = 0, pretend = 0, frame = 0
 696              		@ frame_needed = 0, uses_anonymous_args = 0
 294:GrannyChordApp.cpp ****   int file_count = filemgr_.GetFileCount();
 697              		.loc 3 294 3 view .LVU173
 293:GrannyChordApp.cpp ****   int file_count = filemgr_.GetFileCount();
 698              		.loc 3 293 62 is_stmt 0 view .LVU174
 699 0000 38B5     		push	{r3, r4, r5, lr}
 700              		.cfi_def_cfa_offset 16
 701              		.cfi_offset 3, -16
 702              		.cfi_offset 4, -12
 703              		.cfi_offset 5, -8
 704              		.cfi_offset 14, -4
 705              		.loc 3 294 20 view .LVU175
 706 0002 D0F87032 		ldr	r3, [r0, #624]
 707              	.LVL45:
 708              	.LBB312:
 709              	.LBI312:
 710              		.file 8 "AudioFileManager.h"
   1:AudioFileManager.h **** #pragma once
   2:AudioFileManager.h **** #include <stdio.h>
   3:AudioFileManager.h **** #include <stdint.h>
   4:AudioFileManager.h **** #include <vector>
   5:AudioFileManager.h **** #include "daisy_pod.h"
   6:AudioFileManager.h **** #include "constants_utils.h"
   7:AudioFileManager.h **** #include "debug_print.h"
   8:AudioFileManager.h **** 
   9:AudioFileManager.h **** using namespace daisy; 
  10:AudioFileManager.h **** 
  11:AudioFileManager.h **** class AudioFileManager {
  12:AudioFileManager.h ****   public:
  13:AudioFileManager.h ****     AudioFileManager(SdmmcHandler &sd, FatFSInterface &fsi, DaisyPod &pod, FIL *file)
  14:AudioFileManager.h ****       : sd_(sd), fsi_(fsi), pod_(pod), curr_file_(file), 
  15:AudioFileManager.h ****         left_buf_(nullptr), right_buf_(nullptr) {};
  16:AudioFileManager.h ****     
  17:AudioFileManager.h ****     bool Init();
  18:AudioFileManager.h ****     bool ScanWavFiles();
  19:AudioFileManager.h ****     void SetBuffers(int16_t *left, int16_t *right);
  20:AudioFileManager.h ****     bool LoadFile(uint16_t file_idx);
  21:AudioFileManager.h ****     
  22:AudioFileManager.h ****     bool CloseFile();
  23:AudioFileManager.h ****     bool GetWavHeader(FIL *file);
  24:AudioFileManager.h **** 
  25:AudioFileManager.h ****     int16_t* GetLeftBuffer() const { return left_buf_; }
  26:AudioFileManager.h ****     int16_t* GetRightBuffer() const { return right_buf_; }
  27:AudioFileManager.h ****     size_t GetSamplesPerChannel() const { return header_.total_samples / header_.channels; }
  28:AudioFileManager.h ****     size_t GetTotalSamples() const { return header_.total_samples; }
  29:AudioFileManager.h ****     int16_t GetNumChannels() const { return header_.channels; }
  30:AudioFileManager.h ****     uint16_t GetFileCount() const { return file_count_; }
 711              		.loc 8 30 14 is_stmt 1 view .LVU176
 712              	.LBB313:
 713              		.loc 8 30 37 view .LVU177
 714              		.loc 8 30 37 is_stmt 0 view .LVU178
 715              	.LBE313:
 716              	.LBE312:
 295:GrannyChordApp.cpp ****   file_idx_ = (file_idx_ + encoder_inc + file_count) % file_count;
ARM GAS  /var/folders/2p/02m_5p7958535cp2tpgps0400000gn/T//cchBTf64.s 			page 29


 717              		.loc 3 295 16 view .LVU179
 718 0006 00F58045 		add	r5, r0, #16384
 719              	.LBB315:
 720              	.LBB314:
 721              		.loc 8 30 44 view .LVU180
 722 000a 03F58052 		add	r2, r3, #4096
 723              	.LBE314:
 724              	.LBE315:
 725              		.loc 3 295 26 view .LVU181
 726 000e D5F8A44E 		ldr	r4, [r5, #3748]
 294:GrannyChordApp.cpp ****   file_idx_ = (file_idx_ + encoder_inc + file_count) % file_count;
 727              		.loc 3 294 42 view .LVU182
 728 0012 D28B     		ldrh	r2, [r2, #30]
 729              	.LVL46:
 730              		.loc 3 295 3 is_stmt 1 view .LVU183
 731              		.loc 3 295 26 is_stmt 0 view .LVU184
 732 0014 2144     		add	r1, r1, r4
 733              	.LVL47:
 734              		.loc 3 295 40 view .LVU185
 735 0016 8C18     		adds	r4, r1, r2
 736              		.loc 3 295 54 view .LVU186
 737 0018 94FBF2F1 		sdiv	r1, r4, r2
 738 001c 02FB1144 		mls	r4, r2, r1, r4
 296:GrannyChordApp.cpp ****   filemgr_.GetName(file_idx_,fname_);
 739              		.loc 3 296 30 view .LVU187
 740 0020 00F59D42 		add	r2, r0, #20096
 741              	.LVL48:
 742              	.LBB316:
 743              	.LBB317:
  31:AudioFileManager.h ****     void GetName(uint16_t idx, char* name) const { strcpy(name, names_[idx]); }
 744              		.loc 8 31 75 view .LVU188
 745 0024 A1B2     		uxth	r1, r4
 746              	.LBE317:
 747              	.LBE316:
 748              		.loc 3 296 30 view .LVU189
 749 0026 3032     		adds	r2, r2, #48
 295:GrannyChordApp.cpp ****   filemgr_.GetName(file_idx_,fname_);
 750              		.loc 3 295 13 view .LVU190
 751 0028 C5F8A44E 		str	r4, [r5, #3748]
 752              		.loc 3 296 3 is_stmt 1 view .LVU191
 753              	.LVL49:
 754              	.LBB320:
 755              	.LBI316:
 756              		.loc 8 31 10 view .LVU192
 757              	.LBB318:
 758              		.loc 8 31 52 view .LVU193
 759              		.loc 8 31 75 is_stmt 0 view .LVU194
 760 002c 03EBC111 		add	r1, r3, r1, lsl #7
 761              		.loc 8 31 58 view .LVU195
 762 0030 1046     		mov	r0, r2
 763              	.LVL50:
 764              		.loc 8 31 58 view .LVU196
 765 0032 1C31     		adds	r1, r1, #28
 766 0034 FFF7FEFF 		bl	strcpy
 767              	.LVL51:
 768              		.loc 8 31 58 view .LVU197
 769              	.LBE318:
ARM GAS  /var/folders/2p/02m_5p7958535cp2tpgps0400000gn/T//cchBTf64.s 			page 30


 770              	.LBE320:
 771              	.LBB321:
 772              	.LBB322:
 773              		.loc 5 128 23 view .LVU198
 774 0038 2146     		mov	r1, r4
 775              	.LBE322:
 776              	.LBE321:
 777              	.LBB325:
 778              	.LBB319:
 779              		.loc 8 31 58 view .LVU199
 780 003a 0246     		mov	r2, r0
 781              	.LVL52:
 782              		.loc 8 31 58 view .LVU200
 783              	.LBE319:
 784              	.LBE325:
 297:GrannyChordApp.cpp ****   DebugPrint(pod_, "selected file %d %s",file_idx_,fname_);
 785              		.loc 3 297 3 is_stmt 1 view .LVU201
 786              		.loc 3 297 3 view .LVU202
 787              	.LBB326:
 788              	.LBI321:
 126:../libDaisy/src/daisy_seed.h ****     {
 789              		.loc 5 126 17 view .LVU203
 790              	.LBB323:
 791              		.loc 5 128 23 is_stmt 0 view .LVU204
 792 003c 0248     		ldr	r0, .L40
 793              	.LVL53:
 794              		.loc 5 128 23 view .LVU205
 795              	.LBE323:
 796              	.LBE326:
 298:GrannyChordApp.cpp **** }
 797              		.loc 3 298 1 view .LVU206
 798 003e BDE83840 		pop	{r3, r4, r5, lr}
 799              		.cfi_restore 14
 800              		.cfi_restore 5
 801              		.cfi_restore 4
 802              		.cfi_restore 3
 803              		.cfi_def_cfa_offset 0
 804              	.LVL54:
 805              	.LBB327:
 806              	.LBB324:
 807              		.loc 5 128 23 view .LVU207
 808 0042 FFF7FEBF 		b	_ZN5daisy6LoggerILNS_17LoggerDestinationE1EE9PrintLineEPKcz
 809              	.LVL55:
 810              	.L41:
 811              		.loc 5 128 23 view .LVU208
 812 0046 00BF     		.align	2
 813              	.L40:
 814 0048 00000000 		.word	.LC4
 815              	.LBE324:
 816              	.LBE327:
 817              		.cfi_endproc
 818              	.LFE4925:
 820              		.section	.text._ZN14GrannyChordApp22HandleEncoderIncrementEi,"ax",%progbits
 821              		.align	1
 822              		.global	_ZN14GrannyChordApp22HandleEncoderIncrementEi
 823              		.syntax unified
 824              		.thumb
ARM GAS  /var/folders/2p/02m_5p7958535cp2tpgps0400000gn/T//cchBTf64.s 			page 31


 825              		.thumb_func
 827              	_ZN14GrannyChordApp22HandleEncoderIncrementEi:
 828              	.LVL56:
 829              	.LFB4917:
 135:GrannyChordApp.cpp ****   if (next_state_== AppState::SelectFile){
 830              		.loc 3 135 61 is_stmt 1 view -0
 831              		.cfi_startproc
 832              		@ args = 0, pretend = 0, frame = 0
 833              		@ frame_needed = 0, uses_anonymous_args = 0
 834              		@ link register save eliminated.
 136:GrannyChordApp.cpp ****     recorded_in_ = false;
 835              		.loc 3 136 3 view .LVU210
 836 0000 D0F87C22 		ldr	r2, [r0, #636]
 837 0004 2AB9     		cbnz	r2, .L43
 137:GrannyChordApp.cpp ****     HandleFileSelection(encoder_inc);
 838              		.loc 3 137 5 view .LVU211
 137:GrannyChordApp.cpp ****     HandleFileSelection(encoder_inc);
 839              		.loc 3 137 18 is_stmt 0 view .LVU212
 840 0006 00F55043 		add	r3, r0, #53248
 841 000a 83F82822 		strb	r2, [r3, #552]
 138:GrannyChordApp.cpp ****   }
 842              		.loc 3 138 5 is_stmt 1 view .LVU213
 138:GrannyChordApp.cpp ****   }
 843              		.loc 3 138 24 is_stmt 0 view .LVU214
 844 000e FFF7FEBF 		b	_ZN14GrannyChordApp19HandleFileSelectionEl
 845              	.LVL57:
 846              	.L43:
 847              	.LBB330:
 848              	.LBI330:
 135:GrannyChordApp.cpp ****   if (next_state_== AppState::SelectFile){
 849              		.loc 3 135 6 is_stmt 1 view .LVU215
 850              	.LBB331:
 140:GrannyChordApp.cpp ****     recorded_in_ = false;
 851              		.loc 3 140 8 view .LVU216
 852 0012 D0F87822 		ldr	r2, [r0, #632]
 853 0016 012A     		cmp	r2, #1
 141:GrannyChordApp.cpp ****     next_state_ = AppState::SelectFile;
 854              		.loc 3 141 5 view .LVU217
 141:GrannyChordApp.cpp ****     next_state_ = AppState::SelectFile;
 855              		.loc 3 141 18 is_stmt 0 view .LVU218
 856 0018 01BF     		itttt	eq
 857 001a 0022     		moveq	r2, #0
 858 001c 00F55041 		addeq	r1, r0, #53248
 859              	.LVL58:
 141:GrannyChordApp.cpp ****     next_state_ = AppState::SelectFile;
 860              		.loc 3 141 18 view .LVU219
 861 0020 81F82822 		strbeq	r2, [r1, #552]
 142:GrannyChordApp.cpp ****   }
 862              		.loc 3 142 5 is_stmt 1 view .LVU220
 142:GrannyChordApp.cpp ****   }
 863              		.loc 3 142 17 is_stmt 0 view .LVU221
 864 0024 C0F87C22 		streq	r2, [r0, #636]
 865              	.LVL59:
 142:GrannyChordApp.cpp ****   }
 866              		.loc 3 142 17 view .LVU222
 867              	.LBE331:
 868              	.LBE330:
ARM GAS  /var/folders/2p/02m_5p7958535cp2tpgps0400000gn/T//cchBTf64.s 			page 32


 144:GrannyChordApp.cpp **** 
 869              		.loc 3 144 1 view .LVU223
 870 0028 7047     		bx	lr
 871              		.cfi_endproc
 872              	.LFE4917:
 874              		.section	.text._ZN14GrannyChordApp11InitFileMgrEv,"ax",%progbits
 875              		.align	1
 876              		.global	_ZN14GrannyChordApp11InitFileMgrEv
 877              		.syntax unified
 878              		.thumb
 879              		.thumb_func
 881              	_ZN14GrannyChordApp11InitFileMgrEv:
 882              	.LVL60:
 883              	.LFB4929:
 299:GrannyChordApp.cpp **** 
 300:GrannyChordApp.cpp **** /// @brief iterates through synth parameter control modes when button 1 pressed
 301:GrannyChordApp.cpp **** /// if we are in an 'even' mode, go to the next 'eveb' mode. 
 302:GrannyChordApp.cpp **** /// if we are in an 'odd' mode, go to the corresponding 'even' mode
 303:GrannyChordApp.cpp **** void GrannyChordApp::UpdateSynthModeA(){
 304:GrannyChordApp.cpp ****   DebugPrint(pod_, "next synth mode");
 305:GrannyChordApp.cpp ****   int mode_idx = static_cast<int>(curr_synth_mode_);
 306:GrannyChordApp.cpp ****   if (mode_idx%2 == 0){
 307:GrannyChordApp.cpp ****     mode_idx = (mode_idx + 2) % 8;
 308:GrannyChordApp.cpp ****   }
 309:GrannyChordApp.cpp ****   else {
 310:GrannyChordApp.cpp ****     /* XOR the enum value to get corresponding mode index */
 311:GrannyChordApp.cpp ****     mode_idx = mode_idx ^ 1;
 312:GrannyChordApp.cpp ****   }
 313:GrannyChordApp.cpp **** 
 314:GrannyChordApp.cpp ****   curr_synth_mode_ = static_cast<SynthMode>(mode_idx);
 315:GrannyChordApp.cpp ****   DebugPrintMode(curr_synth_mode_);
 316:GrannyChordApp.cpp ****   // ResetPassThru();
 317:GrannyChordApp.cpp ****   SetLed1SynthMode();
 318:GrannyChordApp.cpp ****   SetLed2();
 319:GrannyChordApp.cpp ****   mode_changed_ = true;
 320:GrannyChordApp.cpp **** }
 321:GrannyChordApp.cpp **** 
 322:GrannyChordApp.cpp **** /// @brief iterates through synth parameter control modes when button 2 pressed
 323:GrannyChordApp.cpp **** /// if we are in an 'even' mode, go to the corresponding 'odd' mode. 
 324:GrannyChordApp.cpp **** /// if we are in an 'odd' mode, go to the next 'odd' mode
 325:GrannyChordApp.cpp **** void GrannyChordApp::UpdateSynthModeB(){
 326:GrannyChordApp.cpp ****   DebugPrint(pod_, "next synth mode");
 327:GrannyChordApp.cpp ****   int mode_idx = static_cast<int>(curr_synth_mode_);
 328:GrannyChordApp.cpp ****   if (mode_idx %2 != 0){
 329:GrannyChordApp.cpp ****     mode_idx = (mode_idx + 2) % 8;
 330:GrannyChordApp.cpp ****   }
 331:GrannyChordApp.cpp ****   else {
 332:GrannyChordApp.cpp ****     mode_idx = mode_idx ^ 1;
 333:GrannyChordApp.cpp ****   }
 334:GrannyChordApp.cpp **** 
 335:GrannyChordApp.cpp ****   curr_synth_mode_ = static_cast<SynthMode>(mode_idx);
 336:GrannyChordApp.cpp ****   DebugPrintMode(curr_synth_mode_);
 337:GrannyChordApp.cpp ****   // ResetPassThru();
 338:GrannyChordApp.cpp ****   SetLed1SynthMode();
 339:GrannyChordApp.cpp ****   SetLed2();
 340:GrannyChordApp.cpp ****   mode_changed_ = true;
 341:GrannyChordApp.cpp **** }
ARM GAS  /var/folders/2p/02m_5p7958535cp2tpgps0400000gn/T//cchBTf64.s 			page 33


 342:GrannyChordApp.cpp **** 
 343:GrannyChordApp.cpp **** /// @brief Updates synth parameters based on current synth mode and adjusts
 344:GrannyChordApp.cpp **** ///        knob input values to account for knob jitter and deadzones around 0/1
 345:GrannyChordApp.cpp **** void GrannyChordApp::UpdateSynthParams(){
 346:GrannyChordApp.cpp ****   if (curr_state_!=AppState::Synthesis) return;
 347:GrannyChordApp.cpp ****   int mode_idx = static_cast<int>(curr_synth_mode_);
 348:GrannyChordApp.cpp **** 
 349:GrannyChordApp.cpp ****   /* set to 0 or 1 if very close to these bounds */
 350:GrannyChordApp.cpp ****   float knob1_val = MapKnobDeadzone(pod_.knob1.Process());
 351:GrannyChordApp.cpp ****   float knob2_val = MapKnobDeadzone(pod_.knob2.Process());
 352:GrannyChordApp.cpp ****   
 353:GrannyChordApp.cpp ****   counter++;
 354:GrannyChordApp.cpp **** 
 355:GrannyChordApp.cpp ****   /* only update parameter if knob has passed through previous value in this mode */
 356:GrannyChordApp.cpp ****   // if (UpdateKnobPassThru(knob1_val,prev_param_k1[mode_idx])){
 357:GrannyChordApp.cpp ****     UpdateKnob1Params(knob1_val,curr_synth_mode_);
 358:GrannyChordApp.cpp ****     prev_param_k1[mode_idx] = knob1_val;
 359:GrannyChordApp.cpp ****     if (counter%96000==0){
 360:GrannyChordApp.cpp ****       DebugPrint(pod_, "new k1v: %f",knob1_val);
 361:GrannyChordApp.cpp ****     }
 362:GrannyChordApp.cpp ****   // }
 363:GrannyChordApp.cpp ****   // if (UpdateKnobPassThru(knob2_val,prev_param_k2[mode_idx])){
 364:GrannyChordApp.cpp ****     UpdateKnob2Params(knob2_val, curr_synth_mode_);
 365:GrannyChordApp.cpp ****     prev_param_k2[mode_idx] = knob2_val;
 366:GrannyChordApp.cpp ****     if (counter%96000==0){
 367:GrannyChordApp.cpp ****       DebugPrint(pod_, "new k2v: %f",knob2_val);
 368:GrannyChordApp.cpp ****     }
 369:GrannyChordApp.cpp ****   // }
 370:GrannyChordApp.cpp **** }
 371:GrannyChordApp.cpp **** 
 372:GrannyChordApp.cpp **** /// @brief Initialises file manager, sets audio data buffers and scans SD card for WAV files
 373:GrannyChordApp.cpp **** /// @return True on successful initialisation, false if init fails or no WAV files found
 374:GrannyChordApp.cpp **** bool GrannyChordApp::InitFileMgr(){
 884              		.loc 3 374 35 is_stmt 1 view -0
 885              		.cfi_startproc
 886              		@ args = 0, pretend = 0, frame = 0
 887              		@ frame_needed = 0, uses_anonymous_args = 0
 375:GrannyChordApp.cpp ****   filemgr_.SetBuffers(left_buf_,right_buf_);
 888              		.loc 3 375 3 view .LVU225
 889              		.loc 3 375 22 is_stmt 0 view .LVU226
 890 0000 00F58043 		add	r3, r0, #16384
 374:GrannyChordApp.cpp ****   filemgr_.SetBuffers(left_buf_,right_buf_);
 891              		.loc 3 374 35 view .LVU227
 892 0004 10B5     		push	{r4, lr}
 893              		.cfi_def_cfa_offset 8
 894              		.cfi_offset 4, -8
 895              		.cfi_offset 14, -4
 374:GrannyChordApp.cpp ****   filemgr_.SetBuffers(left_buf_,right_buf_);
 896              		.loc 3 374 35 view .LVU228
 897 0006 0446     		mov	r4, r0
 898              		.loc 3 375 22 view .LVU229
 899 0008 D3F8A02E 		ldr	r2, [r3, #3744]
 900 000c D0F87002 		ldr	r0, [r0, #624]
 901              	.LVL61:
 902              		.loc 3 375 22 view .LVU230
 903 0010 D3F89C1E 		ldr	r1, [r3, #3740]
 904 0014 FFF7FEFF 		bl	_ZN16AudioFileManager10SetBuffersEPsS0_
ARM GAS  /var/folders/2p/02m_5p7958535cp2tpgps0400000gn/T//cchBTf64.s 			page 34


 905              	.LVL62:
 376:GrannyChordApp.cpp ****   if (!filemgr_.Init())return false;
 906              		.loc 3 376 3 is_stmt 1 view .LVU231
 907              		.loc 3 376 21 is_stmt 0 view .LVU232
 908 0018 D4F87002 		ldr	r0, [r4, #624]
 909 001c FFF7FEFF 		bl	_ZN16AudioFileManager4InitEv
 910              	.LVL63:
 911              		.loc 3 376 3 view .LVU233
 912 0020 28B1     		cbz	r0, .L46
 913              	.LBB334:
 914              	.LBI334:
 374:GrannyChordApp.cpp ****   filemgr_.SetBuffers(left_buf_,right_buf_);
 915              		.loc 3 374 6 is_stmt 1 view .LVU234
 916              	.LVL64:
 917              	.LBB335:
 377:GrannyChordApp.cpp **** 
 378:GrannyChordApp.cpp ****   return filemgr_.ScanWavFiles();
 918              		.loc 3 378 3 view .LVU235
 919              		.loc 3 378 31 is_stmt 0 view .LVU236
 920 0022 D4F87002 		ldr	r0, [r4, #624]
 921              	.LBE335:
 922              	.LBE334:
 379:GrannyChordApp.cpp **** }
 923              		.loc 3 379 1 view .LVU237
 924 0026 BDE81040 		pop	{r4, lr}
 925              		.cfi_remember_state
 926              		.cfi_restore 14
 927              		.cfi_restore 4
 928              		.cfi_def_cfa_offset 0
 929              	.LVL65:
 930              	.LBB337:
 931              	.LBB336:
 378:GrannyChordApp.cpp **** }
 932              		.loc 3 378 31 view .LVU238
 933 002a FFF7FEBF 		b	_ZN16AudioFileManager12ScanWavFilesEv
 934              	.LVL66:
 935              	.L46:
 936              		.cfi_restore_state
 378:GrannyChordApp.cpp **** }
 937              		.loc 3 378 31 view .LVU239
 938              	.LBE336:
 939              	.LBE337:
 940              		.loc 3 379 1 view .LVU240
 941 002e 10BD     		pop	{r4, pc}
 942              		.loc 3 379 1 view .LVU241
 943              		.cfi_endproc
 944              	.LFE4929:
 946              		.section	.rodata._ZN14GrannyChordApp12InitPlaybackEv.str1.1,"aMS",%progbits,1
 947              	.LC5:
 948 0000 6661696C 		.ascii	"failed to load file\000"
 948      65642074 
 948      6F206C6F 
 948      61642066 
 948      696C6500 
 949              	.LC6:
 950 0014 6C6F6164 		.ascii	"loaded file\000"
 950      65642066 
ARM GAS  /var/folders/2p/02m_5p7958535cp2tpgps0400000gn/T//cchBTf64.s 			page 35


 950      696C6500 
 951              		.section	.text._ZN14GrannyChordApp12InitPlaybackEv,"ax",%progbits
 952              		.align	1
 953              		.global	_ZN14GrannyChordApp12InitPlaybackEv
 954              		.syntax unified
 955              		.thumb
 956              		.thumb_func
 958              	_ZN14GrannyChordApp12InitPlaybackEv:
 959              	.LVL67:
 960              	.LFB4931:
 380:GrannyChordApp.cpp **** 
 381:GrannyChordApp.cpp **** /// @brief Calls synth initialisation function, passes audio data buffers and audio length
 382:GrannyChordApp.cpp **** void GrannyChordApp::InitSynth(){
 383:GrannyChordApp.cpp ****   synth_.Init(left_buf_, right_buf_, filemgr_.GetSamplesPerChannel());
 384:GrannyChordApp.cpp ****   InitPrevParamVals();
 385:GrannyChordApp.cpp ****   DebugPrint(pod_,"synth init ok - samples %u",filemgr_.GetSamplesPerChannel());
 386:GrannyChordApp.cpp **** }
 387:GrannyChordApp.cpp **** 
 388:GrannyChordApp.cpp **** /// @brief Initialises WAV playback state, resets playhead, sets current file audio length
 389:GrannyChordApp.cpp **** void GrannyChordApp::InitPlayback(){
 961              		.loc 3 389 36 is_stmt 1 view -0
 962              		.cfi_startproc
 963              		@ args = 0, pretend = 0, frame = 0
 964              		@ frame_needed = 0, uses_anonymous_args = 0
 390:GrannyChordApp.cpp ****   wav_playhead_ = 0;
 965              		.loc 3 390 3 view .LVU243
 966              		.loc 3 390 17 is_stmt 0 view .LVU244
 967 0000 0021     		movs	r1, #0
 391:GrannyChordApp.cpp ****   record_in_pos_  = 0;
 968              		.loc 3 391 19 view .LVU245
 969 0002 00F55042 		add	r2, r0, #53248
 390:GrannyChordApp.cpp ****   wav_playhead_ = 0;
 970              		.loc 3 390 17 view .LVU246
 971 0006 00F58043 		add	r3, r0, #16384
 389:GrannyChordApp.cpp ****   wav_playhead_ = 0;
 972              		.loc 3 389 36 view .LVU247
 973 000a 10B5     		push	{r4, lr}
 974              		.cfi_def_cfa_offset 8
 975              		.cfi_offset 4, -8
 976              		.cfi_offset 14, -4
 390:GrannyChordApp.cpp ****   wav_playhead_ = 0;
 977              		.loc 3 390 17 view .LVU248
 978 000c C3F8A81E 		str	r1, [r3, #3752]
 979              		.loc 3 391 3 is_stmt 1 view .LVU249
 389:GrannyChordApp.cpp ****   wav_playhead_ = 0;
 980              		.loc 3 389 36 is_stmt 0 view .LVU250
 981 0010 0446     		mov	r4, r0
 982              		.loc 3 391 19 view .LVU251
 983 0012 C2F82C12 		str	r1, [r2, #556]
 392:GrannyChordApp.cpp ****   if (!recorded_in_){
 984              		.loc 3 392 3 is_stmt 1 view .LVU252
 985 0016 92F82822 		ldrb	r2, [r2, #552]	@ zero_extendqisi2
 986 001a 6AB9     		cbnz	r2, .L48
 393:GrannyChordApp.cpp ****     if (!filemgr_.LoadFile(file_idx_)) {
 987              		.loc 3 393 5 view .LVU253
 988              		.loc 3 393 27 is_stmt 0 view .LVU254
 989 001c B3F8A41E 		ldrh	r1, [r3, #3748]
ARM GAS  /var/folders/2p/02m_5p7958535cp2tpgps0400000gn/T//cchBTf64.s 			page 36


 990 0020 D0F87002 		ldr	r0, [r0, #624]
 991              	.LVL68:
 992              		.loc 3 393 27 view .LVU255
 993 0024 FFF7FEFF 		bl	_ZN16AudioFileManager8LoadFileEt
 994              	.LVL69:
 995              		.loc 3 393 5 view .LVU256
 996 0028 30B9     		cbnz	r0, .L48
 394:GrannyChordApp.cpp ****       DebugPrint(pod_,"failed to load file");
 997              		.loc 3 394 7 is_stmt 1 view .LVU257
 998              		.loc 3 394 7 view .LVU258
 999              	.LVL70:
 1000              	.LBB338:
 1001              	.LBI338:
 126:../libDaisy/src/daisy_seed.h ****     {
 1002              		.loc 5 126 17 view .LVU259
 1003              	.LBB339:
 1004              		.loc 5 128 23 is_stmt 0 view .LVU260
 1005 002a 0848     		ldr	r0, .L51
 1006 002c FFF7FEFF 		bl	_ZN5daisy6LoggerILNS_17LoggerDestinationE1EE9PrintLineEPKcz
 1007              	.LVL71:
 1008              		.loc 5 128 23 view .LVU261
 1009              	.LBE339:
 1010              	.LBE338:
 395:GrannyChordApp.cpp ****       curr_state_=AppState::Error;
 1011              		.loc 3 395 7 is_stmt 1 view .LVU262
 1012              		.loc 3 395 18 is_stmt 0 view .LVU263
 1013 0030 0523     		movs	r3, #5
 1014 0032 C4F87832 		str	r3, [r4, #632]
 396:GrannyChordApp.cpp ****       return;
 1015              		.loc 3 396 7 is_stmt 1 view .LVU264
 397:GrannyChordApp.cpp ****     }
 398:GrannyChordApp.cpp ****   }
 399:GrannyChordApp.cpp ****   DebugPrint(pod_, "loaded file");
 400:GrannyChordApp.cpp ****   pod_.StartAudio(AudioCallback);
 401:GrannyChordApp.cpp **** }
 1016              		.loc 3 401 1 is_stmt 0 view .LVU265
 1017 0036 10BD     		pop	{r4, pc}
 1018              	.LVL72:
 1019              	.L48:
 399:GrannyChordApp.cpp ****   pod_.StartAudio(AudioCallback);
 1020              		.loc 3 399 3 is_stmt 1 view .LVU266
 399:GrannyChordApp.cpp ****   pod_.StartAudio(AudioCallback);
 1021              		.loc 3 399 3 view .LVU267
 1022              	.LBB340:
 1023              	.LBI340:
 126:../libDaisy/src/daisy_seed.h ****     {
 1024              		.loc 5 126 17 view .LVU268
 1025              	.LBB341:
 1026              		.loc 5 128 23 is_stmt 0 view .LVU269
 1027 0038 0548     		ldr	r0, .L51+4
 1028 003a FFF7FEFF 		bl	_ZN5daisy6LoggerILNS_17LoggerDestinationE1EE9PrintLineEPKcz
 1029              	.LVL73:
 1030              		.loc 5 128 23 view .LVU270
 1031              	.LBE341:
 1032              	.LBE340:
 400:GrannyChordApp.cpp **** }
 1033              		.loc 3 400 3 is_stmt 1 view .LVU271
ARM GAS  /var/folders/2p/02m_5p7958535cp2tpgps0400000gn/T//cchBTf64.s 			page 37


 400:GrannyChordApp.cpp **** }
 1034              		.loc 3 400 18 is_stmt 0 view .LVU272
 1035 003e E069     		ldr	r0, [r4, #28]
 1036 0040 0449     		ldr	r1, .L51+8
 1037              		.loc 3 401 1 view .LVU273
 1038 0042 BDE81040 		pop	{r4, lr}
 1039              		.cfi_restore 14
 1040              		.cfi_restore 4
 1041              		.cfi_def_cfa_offset 0
 1042              	.LVL74:
 400:GrannyChordApp.cpp **** }
 1043              		.loc 3 400 18 view .LVU274
 1044 0046 FFF7FEBF 		b	_ZN5daisy8DaisyPod10StartAudioEPFvPKPKfPPfjE
 1045              	.LVL75:
 1046              	.L52:
 1047 004a 00BF     		.align	2
 1048              	.L51:
 1049 004c 00000000 		.word	.LC5
 1050 0050 14000000 		.word	.LC6
 1051 0054 00000000 		.word	_ZN14GrannyChordApp13AudioCallbackEPKPKfPPfj
 1052              		.cfi_endproc
 1053              	.LFE4931:
 1055              		.section	.text._ZN14GrannyChordApp12InitRecordInEv,"ax",%progbits
 1056              		.align	1
 1057              		.global	_ZN14GrannyChordApp12InitRecordInEv
 1058              		.syntax unified
 1059              		.thumb
 1060              		.thumb_func
 1062              	_ZN14GrannyChordApp12InitRecordInEv:
 1063              	.LVL76:
 1064              	.LFB4932:
 402:GrannyChordApp.cpp **** 
 403:GrannyChordApp.cpp **** /// @brief Initialises RecordIn state, clears audio buffers
 404:GrannyChordApp.cpp **** void GrannyChordApp::InitRecordIn(){
 1065              		.loc 3 404 36 is_stmt 1 view -0
 1066              		.cfi_startproc
 1067              		@ args = 0, pretend = 0, frame = 0
 1068              		@ frame_needed = 0, uses_anonymous_args = 0
 405:GrannyChordApp.cpp ****   memset(left_buf_, 0, CHNL_BUF_SIZE_ABS);
 1069              		.loc 3 405 3 view .LVU276
 404:GrannyChordApp.cpp ****   memset(left_buf_, 0, CHNL_BUF_SIZE_ABS);
 1070              		.loc 3 404 36 is_stmt 0 view .LVU277
 1071 0000 38B5     		push	{r3, r4, r5, lr}
 1072              		.cfi_def_cfa_offset 16
 1073              		.cfi_offset 3, -16
 1074              		.cfi_offset 4, -12
 1075              		.cfi_offset 5, -8
 1076              		.cfi_offset 14, -4
 1077              		.loc 3 405 10 view .LVU278
 1078 0002 00F58045 		add	r5, r0, #16384
 404:GrannyChordApp.cpp ****   memset(left_buf_, 0, CHNL_BUF_SIZE_ABS);
 1079              		.loc 3 404 36 view .LVU279
 1080 0006 0446     		mov	r4, r0
 1081              		.loc 3 405 9 view .LVU280
 1082 0008 4FF08072 		mov	r2, #16777216
 1083 000c 0021     		movs	r1, #0
 1084 000e D5F89C0E 		ldr	r0, [r5, #3740]
ARM GAS  /var/folders/2p/02m_5p7958535cp2tpgps0400000gn/T//cchBTf64.s 			page 38


 1085              	.LVL77:
 406:GrannyChordApp.cpp ****   memset(right_buf_, 0, CHNL_BUF_SIZE_ABS);
 407:GrannyChordApp.cpp ****   record_in_pos_ = 0;
 1086              		.loc 3 407 18 view .LVU281
 1087 0012 04F55044 		add	r4, r4, #53248
 1088              	.LVL78:
 405:GrannyChordApp.cpp ****   memset(right_buf_, 0, CHNL_BUF_SIZE_ABS);
 1089              		.loc 3 405 9 view .LVU282
 1090 0016 FFF7FEFF 		bl	memset
 1091              	.LVL79:
 406:GrannyChordApp.cpp ****   memset(right_buf_, 0, CHNL_BUF_SIZE_ABS);
 1092              		.loc 3 406 3 is_stmt 1 view .LVU283
 406:GrannyChordApp.cpp ****   memset(right_buf_, 0, CHNL_BUF_SIZE_ABS);
 1093              		.loc 3 406 9 is_stmt 0 view .LVU284
 1094 001a 4FF08072 		mov	r2, #16777216
 1095 001e 0021     		movs	r1, #0
 1096 0020 D5F8A00E 		ldr	r0, [r5, #3744]
 1097 0024 FFF7FEFF 		bl	memset
 1098              	.LVL80:
 1099              		.loc 3 407 3 is_stmt 1 view .LVU285
 1100              		.loc 3 407 18 is_stmt 0 view .LVU286
 1101 0028 0023     		movs	r3, #0
 1102 002a C4F82C32 		str	r3, [r4, #556]
 408:GrannyChordApp.cpp **** }
 1103              		.loc 3 408 1 view .LVU287
 1104 002e 38BD     		pop	{r3, r4, r5, pc}
 1105              		.loc 3 408 1 view .LVU288
 1106              		.cfi_endproc
 1107              	.LFE4932:
 1109              		.section	.text._ZN14GrannyChordApp13InitWavWriterEv,"ax",%progbits
 1110              		.align	1
 1111              		.global	_ZN14GrannyChordApp13InitWavWriterEv
 1112              		.syntax unified
 1113              		.thumb
 1114              		.thumb_func
 1116              	_ZN14GrannyChordApp13InitWavWriterEv:
 1117              	.LVL81:
 1118              	.LFB4933:
 409:GrannyChordApp.cpp **** 
 410:GrannyChordApp.cpp **** // /// @brief Initialise object for recording out to SD card
 411:GrannyChordApp.cpp **** void GrannyChordApp::InitWavWriter(){
 1119              		.loc 3 411 37 is_stmt 1 view -0
 1120              		.cfi_startproc
 1121              		@ args = 0, pretend = 0, frame = 0
 1122              		@ frame_needed = 0, uses_anonymous_args = 0
 1123              		@ link register save eliminated.
 412:GrannyChordApp.cpp ****   WavWriter<16384>::Config cfg;
 1124              		.loc 3 412 3 view .LVU290
 413:GrannyChordApp.cpp ****   cfg.bitspersample = BIT_DEPTH;
 1125              		.loc 3 413 3 view .LVU291
 414:GrannyChordApp.cpp ****   cfg.channels = filemgr_.GetNumChannels();
 1126              		.loc 3 414 3 view .LVU292
 1127              	.LBB350:
 1128              	.LBI350:
  29:AudioFileManager.h ****     uint16_t GetFileCount() const { return file_count_; }
 1129              		.loc 8 29 13 view .LVU293
 1130              	.LBB351:
ARM GAS  /var/folders/2p/02m_5p7958535cp2tpgps0400000gn/T//cchBTf64.s 			page 39


  29:AudioFileManager.h ****     uint16_t GetFileCount() const { return file_count_; }
 1131              		.loc 8 29 38 view .LVU294
  29:AudioFileManager.h ****     uint16_t GetFileCount() const { return file_count_; }
 1132              		.loc 8 29 53 is_stmt 0 view .LVU295
 1133 0000 D0F87032 		ldr	r3, [r0, #624]
 1134              	.LBE351:
 1135              	.LBE350:
 1136              	.LBB354:
 1137              	.LBB355:
 1138              		.file 9 "../libDaisy/src/util/WavWriter.h"
   1:../libDaisy/src/util/WavWriter.h **** #pragma once
   2:../libDaisy/src/util/WavWriter.h **** #pragma once
   3:../libDaisy/src/util/WavWriter.h **** #include "fatfs.h"
   4:../libDaisy/src/util/WavWriter.h **** 
   5:../libDaisy/src/util/WavWriter.h **** namespace daisy
   6:../libDaisy/src/util/WavWriter.h **** {
   7:../libDaisy/src/util/WavWriter.h **** /** Audio Recording Module
   8:../libDaisy/src/util/WavWriter.h ****  ** 
   9:../libDaisy/src/util/WavWriter.h ****  ** Record audio into a working buffer that is gradually written to a WAV file on an SD Card. 
  10:../libDaisy/src/util/WavWriter.h ****  **
  11:../libDaisy/src/util/WavWriter.h ****  ** Recordings are made with floating point input, and will be converted to the 
  12:../libDaisy/src/util/WavWriter.h ****  ** specified bits per sample internally 
  13:../libDaisy/src/util/WavWriter.h ****  **
  14:../libDaisy/src/util/WavWriter.h ****  ** For now only 16-bit and 32-bit (signed int) formats are supported
  15:../libDaisy/src/util/WavWriter.h ****  ** f32 and s24 formats will be added next
  16:../libDaisy/src/util/WavWriter.h ****  **
  17:../libDaisy/src/util/WavWriter.h ****  ** The transfer size determines the amount of internal memory used, and can have an
  18:../libDaisy/src/util/WavWriter.h ****  ** effect on the performance of the streaming behavior of the WavWriter.
  19:../libDaisy/src/util/WavWriter.h ****  ** Memory use can be calculated as: (2 * transfer_size) bytes
  20:../libDaisy/src/util/WavWriter.h ****  ** Performance optimal with sizes: 16384, 32768
  21:../libDaisy/src/util/WavWriter.h ****  ** 
  22:../libDaisy/src/util/WavWriter.h ****  ** To use:
  23:../libDaisy/src/util/WavWriter.h ****  ** 1. Create a WavWriter<size> object (e.g. WavWriter<32768> writer)
  24:../libDaisy/src/util/WavWriter.h ****  ** 2. Configure the settings as desired by creating a WavWriter<32768>::Config struct and setting 
  25:../libDaisy/src/util/WavWriter.h ****  ** 3. Initialize the object with the configuration struct.
  26:../libDaisy/src/util/WavWriter.h ****  ** 4. Open a new file for writing with: writer.OpenFile("FileName.wav")
  27:../libDaisy/src/util/WavWriter.h ****  ** 5. Write to it within your audio callback using: writer.Sample(value)
  28:../libDaisy/src/util/WavWriter.h ****  ** 6. Fill the Wav File on the SD Card with data from your main loop by running: writer.Write()
  29:../libDaisy/src/util/WavWriter.h ****  ** 7. When finished with the recording finalize, and close the file with: writer.SaveFile();
  30:../libDaisy/src/util/WavWriter.h ****  ** 
  31:../libDaisy/src/util/WavWriter.h ****  ** */
  32:../libDaisy/src/util/WavWriter.h **** template <size_t transfer_size>
  33:../libDaisy/src/util/WavWriter.h **** class WavWriter
  34:../libDaisy/src/util/WavWriter.h **** {
  35:../libDaisy/src/util/WavWriter.h ****   public:
  36:../libDaisy/src/util/WavWriter.h ****     WavWriter() {}
  37:../libDaisy/src/util/WavWriter.h ****     ~WavWriter() {}
  38:../libDaisy/src/util/WavWriter.h **** 
  39:../libDaisy/src/util/WavWriter.h ****     /** Return values for write related functions */
  40:../libDaisy/src/util/WavWriter.h ****     enum class Result
  41:../libDaisy/src/util/WavWriter.h ****     {
  42:../libDaisy/src/util/WavWriter.h ****         OK,
  43:../libDaisy/src/util/WavWriter.h ****         ERROR,
  44:../libDaisy/src/util/WavWriter.h ****     };
  45:../libDaisy/src/util/WavWriter.h **** 
  46:../libDaisy/src/util/WavWriter.h ****     /** Configuration structure for the wave writer.
  47:../libDaisy/src/util/WavWriter.h **** 	 ** */
ARM GAS  /var/folders/2p/02m_5p7958535cp2tpgps0400000gn/T//cchBTf64.s 			page 40


  48:../libDaisy/src/util/WavWriter.h ****     struct Config
  49:../libDaisy/src/util/WavWriter.h ****     {
  50:../libDaisy/src/util/WavWriter.h ****         float   samplerate;
  51:../libDaisy/src/util/WavWriter.h ****         int32_t channels;
  52:../libDaisy/src/util/WavWriter.h ****         int32_t bitspersample;
  53:../libDaisy/src/util/WavWriter.h ****     };
  54:../libDaisy/src/util/WavWriter.h **** 
  55:../libDaisy/src/util/WavWriter.h ****     /** State of the internal Writing mechanism. 
  56:../libDaisy/src/util/WavWriter.h **** 	 ** When the buffer is a certain amount full one section will write its contents
  57:../libDaisy/src/util/WavWriter.h **** 	 ** while the other is still being written to. This is performed circularly
  58:../libDaisy/src/util/WavWriter.h **** 	 ** so that audio will be uninterrupted during writing. */
  59:../libDaisy/src/util/WavWriter.h ****     enum class BufferState
  60:../libDaisy/src/util/WavWriter.h ****     {
  61:../libDaisy/src/util/WavWriter.h ****         IDLE,
  62:../libDaisy/src/util/WavWriter.h ****         FLUSH0,
  63:../libDaisy/src/util/WavWriter.h ****         FLUSH1,
  64:../libDaisy/src/util/WavWriter.h ****     };
  65:../libDaisy/src/util/WavWriter.h **** 
  66:../libDaisy/src/util/WavWriter.h ****     /**  Initializes the WavFile header, and prepares the object for recording. */
  67:../libDaisy/src/util/WavWriter.h ****     void Init(const Config &cfg)
  68:../libDaisy/src/util/WavWriter.h ****     {
  69:../libDaisy/src/util/WavWriter.h ****         cfg_       = cfg;
 1139              		.loc 9 69 9 view .LVU296
 1140 0004 00F58040 		add	r0, r0, #16384
 1141              	.LVL82:
 1142              		.loc 9 69 9 view .LVU297
 1143 0008 9FED2A7A 		vldr.32	s14, .L56
  70:../libDaisy/src/util/WavWriter.h ****         num_samps_ = 0;
 1144              		.loc 9 70 20 view .LVU298
 1145 000c 0021     		movs	r1, #0
 1146              	.LBE355:
 1147              	.LBE354:
 1148              	.LBB384:
 1149              	.LBB352:
  29:AudioFileManager.h ****     uint16_t GetFileCount() const { return file_count_; }
 1150              		.loc 8 29 53 view .LVU299
 1151 000e 03F58053 		add	r3, r3, #4096
 1152              	.LVL83:
  29:AudioFileManager.h ****     uint16_t GetFileCount() const { return file_count_; }
 1153              		.loc 8 29 53 view .LVU300
 1154              	.LBE352:
 1155              	.LBE384:
 1156              	.LBB385:
 1157              	.LBB381:
  69:../libDaisy/src/util/WavWriter.h ****         num_samps_ = 0;
 1158              		.loc 9 69 9 view .LVU301
 1159 0012 00F6B472 		addw	r2, r0, #4020
 1160              	.LBE381:
 1161              	.LBE385:
 1162              	.LBB386:
 1163              	.LBB353:
  29:AudioFileManager.h ****     uint16_t GetFileCount() const { return file_count_; }
 1164              		.loc 8 29 53 view .LVU302
 1165 0016 B3F92830 		ldrsh	r3, [r3, #40]
 1166              	.LVL84:
  29:AudioFileManager.h ****     uint16_t GetFileCount() const { return file_count_; }
 1167              		.loc 8 29 53 view .LVU303
ARM GAS  /var/folders/2p/02m_5p7958535cp2tpgps0400000gn/T//cchBTf64.s 			page 41


 1168              	.LBE353:
 1169              	.LBE386:
 415:GrannyChordApp.cpp ****   cfg.samplerate = SAMPLE_RATE;
 1170              		.loc 3 415 3 is_stmt 1 view .LVU304
 416:GrannyChordApp.cpp ****   sd_writer_.Init(cfg);
 1171              		.loc 3 416 3 view .LVU305
 1172              	.LBB387:
 1173              	.LBI354:
  67:../libDaisy/src/util/WavWriter.h ****     {
 1174              		.loc 9 67 10 view .LVU306
 1175              	.LBB382:
  69:../libDaisy/src/util/WavWriter.h ****         num_samps_ = 0;
 1176              		.loc 9 69 9 is_stmt 0 view .LVU307
 1177 001a 82ED0D7A 		vstr.32	s14, [r2, #52]
 1178 001e 1022     		movs	r2, #16
 1179              	.LBB356:
 1180              	.LBB357:
  71:../libDaisy/src/util/WavWriter.h ****         // Prep the wav header according to config.
  72:../libDaisy/src/util/WavWriter.h ****         // Certain things (i.e. Size, etc. will have to wait until the finalization of the file, or
  73:../libDaisy/src/util/WavWriter.h ****         wavheader_.ChunkId       = kWavFileChunkId;     /** "RIFF" */
  74:../libDaisy/src/util/WavWriter.h ****         wavheader_.FileFormat    = kWavFileWaveId;      /** "WAVE" */
  75:../libDaisy/src/util/WavWriter.h ****         wavheader_.SubChunk1ID   = kWavFileSubChunk1Id; /** "fmt " */
  76:../libDaisy/src/util/WavWriter.h ****         wavheader_.SubChunk1Size = 16;                  // for PCM
  77:../libDaisy/src/util/WavWriter.h ****         wavheader_.AudioFormat   = WAVE_FORMAT_PCM;
  78:../libDaisy/src/util/WavWriter.h ****         wavheader_.NbrChannels   = cfg.channels;
  79:../libDaisy/src/util/WavWriter.h ****         wavheader_.SampleRate    = static_cast<int>(cfg.samplerate);
  80:../libDaisy/src/util/WavWriter.h ****         wavheader_.ByteRate      = CalcByteRate();
  81:../libDaisy/src/util/WavWriter.h ****         wavheader_.BlockAlign    = cfg_.channels * cfg_.bitspersample / 8;
  82:../libDaisy/src/util/WavWriter.h ****         wavheader_.BitPerSample  = cfg_.bitspersample;
  83:../libDaisy/src/util/WavWriter.h ****         wavheader_.SubChunk2ID   = kWavFileSubChunk2Id; /** "data" */
  84:../libDaisy/src/util/WavWriter.h ****         /** Also calcs SubChunk2Size */
  85:../libDaisy/src/util/WavWriter.h ****         wavheader_.FileSize = CalcFileSize();
  86:../libDaisy/src/util/WavWriter.h ****         // This is calculated as part of the subchunk size
  87:../libDaisy/src/util/WavWriter.h ****     }
  88:../libDaisy/src/util/WavWriter.h **** 
  89:../libDaisy/src/util/WavWriter.h ****     /** Records the current sample into the working buffer,
  90:../libDaisy/src/util/WavWriter.h ****      ** queues writes to media when necessary. 
  91:../libDaisy/src/util/WavWriter.h ****      ** 
  92:../libDaisy/src/util/WavWriter.h ****      ** \param in should be a pointer to an array of samples */
  93:../libDaisy/src/util/WavWriter.h ****     void Sample(const float *in)
  94:../libDaisy/src/util/WavWriter.h ****     {
  95:../libDaisy/src/util/WavWriter.h ****         for(int32_t i = 0; i < cfg_.channels; i++)
  96:../libDaisy/src/util/WavWriter.h ****         {
  97:../libDaisy/src/util/WavWriter.h ****             switch(cfg_.bitspersample)
  98:../libDaisy/src/util/WavWriter.h ****             {
  99:../libDaisy/src/util/WavWriter.h ****                 case 16:
 100:../libDaisy/src/util/WavWriter.h ****                 {
 101:../libDaisy/src/util/WavWriter.h ****                     int16_t *tp;
 102:../libDaisy/src/util/WavWriter.h ****                     tp            = (int16_t *)transfer_buff;
 103:../libDaisy/src/util/WavWriter.h ****                     tp[wptr_ + i] = f2s16(in[i]);
 104:../libDaisy/src/util/WavWriter.h ****                 }
 105:../libDaisy/src/util/WavWriter.h ****                 break;
 106:../libDaisy/src/util/WavWriter.h ****                 case 32: transfer_buff[wptr_ + i] = f2s32(in[i]); break;
 107:../libDaisy/src/util/WavWriter.h ****                 default: break;
 108:../libDaisy/src/util/WavWriter.h ****             }
 109:../libDaisy/src/util/WavWriter.h ****         }
 110:../libDaisy/src/util/WavWriter.h ****         num_samps_++;
ARM GAS  /var/folders/2p/02m_5p7958535cp2tpgps0400000gn/T//cchBTf64.s 			page 42


 111:../libDaisy/src/util/WavWriter.h ****         wptr_ += cfg_.channels;
 112:../libDaisy/src/util/WavWriter.h ****         size_t cap_point
 113:../libDaisy/src/util/WavWriter.h ****             = cfg_.bitspersample == 16 ? kTransferSamps * 2 : kTransferSamps;
 114:../libDaisy/src/util/WavWriter.h ****         if(wptr_ == cap_point)
 115:../libDaisy/src/util/WavWriter.h ****         {
 116:../libDaisy/src/util/WavWriter.h ****             bstate_ = BufferState::FLUSH0;
 117:../libDaisy/src/util/WavWriter.h ****         }
 118:../libDaisy/src/util/WavWriter.h ****         if(wptr_ >= cap_point * 2)
 119:../libDaisy/src/util/WavWriter.h ****         {
 120:../libDaisy/src/util/WavWriter.h ****             wptr_   = 0;
 121:../libDaisy/src/util/WavWriter.h ****             bstate_ = BufferState::FLUSH1;
 122:../libDaisy/src/util/WavWriter.h ****         }
 123:../libDaisy/src/util/WavWriter.h ****     }
 124:../libDaisy/src/util/WavWriter.h **** 
 125:../libDaisy/src/util/WavWriter.h ****     /** Check buffer state and write */
 126:../libDaisy/src/util/WavWriter.h ****     void Write()
 127:../libDaisy/src/util/WavWriter.h ****     {
 128:../libDaisy/src/util/WavWriter.h ****         if(bstate_ != BufferState::IDLE && IsRecording())
 129:../libDaisy/src/util/WavWriter.h ****         {
 130:../libDaisy/src/util/WavWriter.h ****             uint32_t     offset;
 131:../libDaisy/src/util/WavWriter.h ****             unsigned int bw = 0;
 132:../libDaisy/src/util/WavWriter.h ****             //offset          = bstate_ == BufferState::FLUSH0 ? 0 : transfer_size;
 133:../libDaisy/src/util/WavWriter.h ****             offset  = bstate_ == BufferState::FLUSH0 ? 0 : kTransferSamps;
 134:../libDaisy/src/util/WavWriter.h ****             bstate_ = BufferState::IDLE;
 135:../libDaisy/src/util/WavWriter.h ****             f_write(&fp_, &transfer_buff[offset], transfer_size, &bw);
 136:../libDaisy/src/util/WavWriter.h ****         }
 137:../libDaisy/src/util/WavWriter.h ****     }
 138:../libDaisy/src/util/WavWriter.h **** 
 139:../libDaisy/src/util/WavWriter.h ****     /** Finalizes the writing of the WAV file.
 140:../libDaisy/src/util/WavWriter.h **** 	 ** This overwrites the WAV Header with the correct
 141:../libDaisy/src/util/WavWriter.h **** 	 ** final size, and closes the fptr. */
 142:../libDaisy/src/util/WavWriter.h ****     void SaveFile()
 143:../libDaisy/src/util/WavWriter.h ****     {
 144:../libDaisy/src/util/WavWriter.h ****         unsigned int bw = 0;
 145:../libDaisy/src/util/WavWriter.h ****         recording_      = false;
 146:../libDaisy/src/util/WavWriter.h ****         // We _should_ flush whatever's left in the transfer buff
 147:../libDaisy/src/util/WavWriter.h ****         // TODO: that.
 148:../libDaisy/src/util/WavWriter.h ****         wavheader_.FileSize = CalcFileSize();
 149:../libDaisy/src/util/WavWriter.h ****         f_lseek(&fp_, 0);
 150:../libDaisy/src/util/WavWriter.h ****         f_write(&fp_, &wavheader_, sizeof(wavheader_), &bw);
 151:../libDaisy/src/util/WavWriter.h ****         f_close(&fp_);
 152:../libDaisy/src/util/WavWriter.h ****     }
 153:../libDaisy/src/util/WavWriter.h **** 
 154:../libDaisy/src/util/WavWriter.h ****     /** Opens a file for writing. Writes the initial WAV Header, and gets ready for stream-based re
 155:../libDaisy/src/util/WavWriter.h ****     void OpenFile(const char *name)
 156:../libDaisy/src/util/WavWriter.h ****     {
 157:../libDaisy/src/util/WavWriter.h ****         if(f_open(&fp_, name, FA_WRITE | FA_CREATE_ALWAYS) == FR_OK)
 158:../libDaisy/src/util/WavWriter.h ****         {
 159:../libDaisy/src/util/WavWriter.h ****             unsigned int bw = 0;
 160:../libDaisy/src/util/WavWriter.h ****             if(f_write(&fp_, &wavheader_, sizeof(wavheader_), &bw) == FR_OK)
 161:../libDaisy/src/util/WavWriter.h ****             {
 162:../libDaisy/src/util/WavWriter.h ****                 recording_ = true;
 163:../libDaisy/src/util/WavWriter.h ****                 num_samps_ = 0;
 164:../libDaisy/src/util/WavWriter.h ****             }
 165:../libDaisy/src/util/WavWriter.h ****         }
 166:../libDaisy/src/util/WavWriter.h ****     }
 167:../libDaisy/src/util/WavWriter.h **** 
ARM GAS  /var/folders/2p/02m_5p7958535cp2tpgps0400000gn/T//cchBTf64.s 			page 43


 168:../libDaisy/src/util/WavWriter.h ****     /** Returns whether recording is currently active or not. */
 169:../libDaisy/src/util/WavWriter.h ****     inline bool IsRecording() const { return recording_; }
 170:../libDaisy/src/util/WavWriter.h **** 
 171:../libDaisy/src/util/WavWriter.h ****     /** Returns the current length in samples of the recording. */
 172:../libDaisy/src/util/WavWriter.h ****     inline uint32_t GetLengthSamps() { return num_samps_; }
 173:../libDaisy/src/util/WavWriter.h **** 
 174:../libDaisy/src/util/WavWriter.h ****     /** Returns the current length of the recording in seconds. */
 175:../libDaisy/src/util/WavWriter.h ****     inline float GetLengthSeconds()
 176:../libDaisy/src/util/WavWriter.h ****     {
 177:../libDaisy/src/util/WavWriter.h ****         return (float)num_samps_ / (float)cfg_.samplerate;
 178:../libDaisy/src/util/WavWriter.h ****     }
 179:../libDaisy/src/util/WavWriter.h **** 
 180:../libDaisy/src/util/WavWriter.h ****   private:
 181:../libDaisy/src/util/WavWriter.h ****     /** Calculate the file size based on current recording */
 182:../libDaisy/src/util/WavWriter.h ****     inline uint32_t CalcFileSize()
 183:../libDaisy/src/util/WavWriter.h ****     {
 184:../libDaisy/src/util/WavWriter.h ****         wavheader_.SubCHunk2Size
 185:../libDaisy/src/util/WavWriter.h ****             = num_samps_ * cfg_.channels * cfg_.bitspersample / 8;
 186:../libDaisy/src/util/WavWriter.h ****         return 36 + wavheader_.SubCHunk2Size;
 187:../libDaisy/src/util/WavWriter.h ****     }
 188:../libDaisy/src/util/WavWriter.h **** 
 189:../libDaisy/src/util/WavWriter.h ****     /** Compute the byte rate given the user settings. */
 190:../libDaisy/src/util/WavWriter.h ****     inline uint32_t CalcByteRate()
 191:../libDaisy/src/util/WavWriter.h ****     {
 192:../libDaisy/src/util/WavWriter.h ****         return cfg_.samplerate * cfg_.channels * cfg_.bitspersample / 8;
 1181              		.loc 9 192 32 view .LVU308
 1182 0020 07EE903A 		vmov	s15, r3	@ int
 1183              	.LBE357:
 1184              	.LBE356:
 1185              	.LBE382:
 1186              	.LBE387:
 414:GrannyChordApp.cpp ****   cfg.samplerate = SAMPLE_RATE;
 1187              		.loc 3 414 41 view .LVU309
 1188 0024 C0F8EC3F 		str	r3, [r0, #4076]
 1189              	.LBB388:
 1190              	.LBB383:
  78:../libDaisy/src/util/WavWriter.h ****         wavheader_.SampleRate    = static_cast<int>(cfg.samplerate);
 1191              		.loc 9 78 34 view .LVU310
 1192 0028 A0F8CA3F 		strh	r3, [r0, #4042]	@ movhi
  81:../libDaisy/src/util/WavWriter.h ****         wavheader_.BitPerSample  = cfg_.bitspersample;
 1193              		.loc 9 81 71 view .LVU311
 1194 002c 1B01     		lsls	r3, r3, #4
 1195              	.LVL85:
 1196              	.LBB367:
 1197              	.LBB358:
 1198              		.loc 9 192 32 view .LVU312
 1199 002e F8EEE77A 		vcvt.f32.s32	s15, s15
 1200              	.LBE358:
 1201              	.LBE367:
  70:../libDaisy/src/util/WavWriter.h ****         // Prep the wav header according to config.
 1202              		.loc 9 70 20 view .LVU313
 1203 0032 C0F8E01F 		str	r1, [r0, #4064]
  81:../libDaisy/src/util/WavWriter.h ****         wavheader_.BitPerSample  = cfg_.bitspersample;
 1204              		.loc 9 81 71 view .LVU314
 1205 0036 48BF     		it	mi
 1206 0038 0733     		addmi	r3, r3, #7
  73:../libDaisy/src/util/WavWriter.h ****         wavheader_.FileFormat    = kWavFileWaveId;      /** "WAVE" */
ARM GAS  /var/folders/2p/02m_5p7958535cp2tpgps0400000gn/T//cchBTf64.s 			page 44


 1207              		.loc 9 73 34 view .LVU315
 1208 003a 1F49     		ldr	r1, .L56+4
  69:../libDaisy/src/util/WavWriter.h ****         num_samps_ = 0;
 1209              		.loc 9 69 9 view .LVU316
 1210 003c C0F8F02F 		str	r2, [r0, #4080]
 1211              	.LBB368:
 1212              	.LBB359:
 1213              		.loc 9 192 32 view .LVU317
 1214 0040 67EE877A 		vmul.f32	s15, s15, s14
 1215              	.LBE359:
 1216              	.LBE368:
  81:../libDaisy/src/util/WavWriter.h ****         wavheader_.BitPerSample  = cfg_.bitspersample;
 1217              		.loc 9 81 71 view .LVU318
 1218 0044 DB10     		asrs	r3, r3, #3
 1219              	.LBB369:
 1220              	.LBB360:
 1221              		.loc 9 192 48 view .LVU319
 1222 0046 B3EE007A 		vmov.f32	s14, #1.6e+1
 1223              	.LBE360:
 1224              	.LBE369:
  73:../libDaisy/src/util/WavWriter.h ****         wavheader_.FileFormat    = kWavFileWaveId;      /** "WAVE" */
 1225              		.loc 9 73 34 view .LVU320
 1226 004a C0F8B41F 		str	r1, [r0, #4020]
  74:../libDaisy/src/util/WavWriter.h ****         wavheader_.SubChunk1ID   = kWavFileSubChunk1Id; /** "fmt " */
 1227              		.loc 9 74 34 view .LVU321
 1228 004e A1F57001 		sub	r1, r1, #15728640
  81:../libDaisy/src/util/WavWriter.h ****         wavheader_.BitPerSample  = cfg_.bitspersample;
 1229              		.loc 9 81 34 view .LVU322
 1230 0052 A0F8D43F 		strh	r3, [r0, #4052]	@ movhi
  82:../libDaisy/src/util/WavWriter.h ****         wavheader_.SubChunk2ID   = kWavFileSubChunk2Id; /** "data" */
 1231              		.loc 9 82 34 view .LVU323
 1232 0056 1023     		movs	r3, #16
  76:../libDaisy/src/util/WavWriter.h ****         wavheader_.AudioFormat   = WAVE_FORMAT_PCM;
 1233              		.loc 9 76 34 view .LVU324
 1234 0058 C0F8C42F 		str	r2, [r0, #4036]
 1235              	.LBB370:
 1236              	.LBB361:
 1237              		.loc 9 192 48 view .LVU325
 1238 005c 67EE877A 		vmul.f32	s15, s15, s14
 1239              	.LBE361:
 1240              	.LBE370:
  74:../libDaisy/src/util/WavWriter.h ****         wavheader_.SubChunk1ID   = kWavFileSubChunk1Id; /** "fmt " */
 1241              		.loc 9 74 34 view .LVU326
 1242 0060 A1F2FB71 		subw	r1, r1, #2043
 1243              	.LBB371:
 1244              	.LBB362:
 1245              		.loc 9 192 69 view .LVU327
 1246 0064 B4EE007A 		vmov.f32	s14, #1.25e-1
 1247              	.LBE362:
 1248              	.LBE371:
  77:../libDaisy/src/util/WavWriter.h ****         wavheader_.NbrChannels   = cfg.channels;
 1249              		.loc 9 77 34 view .LVU328
 1250 0068 0122     		movs	r2, #1
  74:../libDaisy/src/util/WavWriter.h ****         wavheader_.SubChunk1ID   = kWavFileSubChunk1Id; /** "fmt " */
 1251              		.loc 9 74 34 view .LVU329
 1252 006a C0F8BC1F 		str	r1, [r0, #4028]
  75:../libDaisy/src/util/WavWriter.h ****         wavheader_.SubChunk1Size = 16;                  // for PCM
ARM GAS  /var/folders/2p/02m_5p7958535cp2tpgps0400000gn/T//cchBTf64.s 			page 45


 1253              		.loc 9 75 34 view .LVU330
 1254 006e 01F15B41 		add	r1, r1, #-620756992
  82:../libDaisy/src/util/WavWriter.h ****         wavheader_.SubChunk2ID   = kWavFileSubChunk2Id; /** "data" */
 1255              		.loc 9 82 34 view .LVU331
 1256 0072 A0F8D63F 		strh	r3, [r0, #4054]	@ movhi
 1257              	.LBB372:
 1258              	.LBB363:
 1259              		.loc 9 192 69 view .LVU332
 1260 0076 67EE877A 		vmul.f32	s15, s15, s14
 1261              	.LBE363:
 1262              	.LBE372:
  83:../libDaisy/src/util/WavWriter.h ****         /** Also calcs SubChunk2Size */
 1263              		.loc 9 83 34 view .LVU333
 1264 007a 104B     		ldr	r3, .L56+8
  75:../libDaisy/src/util/WavWriter.h ****         wavheader_.SubChunk1Size = 16;                  // for PCM
 1265              		.loc 9 75 34 view .LVU334
 1266 007c 01F5F111 		add	r1, r1, #1974272
  77:../libDaisy/src/util/WavWriter.h ****         wavheader_.NbrChannels   = cfg.channels;
 1267              		.loc 9 77 34 view .LVU335
 1268 0080 A0F8C82F 		strh	r2, [r0, #4040]	@ movhi
  83:../libDaisy/src/util/WavWriter.h ****         /** Also calcs SubChunk2Size */
 1269              		.loc 9 83 34 view .LVU336
 1270 0084 C0F8D83F 		str	r3, [r0, #4056]
  79:../libDaisy/src/util/WavWriter.h ****         wavheader_.ByteRate      = CalcByteRate();
 1271              		.loc 9 79 34 view .LVU337
 1272 0088 4BF68032 		movw	r2, #48000
 1273              	.LBB373:
 1274              	.LBB364:
 1275              		.loc 9 192 71 view .LVU338
 1276 008c FCEEE77A 		vcvt.u32.f32	s15, s15
 1277              	.LBE364:
 1278              	.LBE373:
 1279              	.LBB374:
 1280              	.LBB375:
 185:../libDaisy/src/util/WavWriter.h ****         return 36 + wavheader_.SubCHunk2Size;
 1281              		.loc 9 185 13 view .LVU339
 1282 0090 0023     		movs	r3, #0
 1283              	.LBE375:
 1284              	.LBE374:
  75:../libDaisy/src/util/WavWriter.h ****         wavheader_.SubChunk1Size = 16;                  // for PCM
 1285              		.loc 9 75 34 view .LVU340
 1286 0092 01F60F41 		addw	r1, r1, #3087
  79:../libDaisy/src/util/WavWriter.h ****         wavheader_.ByteRate      = CalcByteRate();
 1287              		.loc 9 79 34 view .LVU341
 1288 0096 C0F8CC2F 		str	r2, [r0, #4044]
 1289              	.LVL86:
 1290              	.LBB377:
 1291              	.LBI356:
 190:../libDaisy/src/util/WavWriter.h ****     {
 1292              		.loc 9 190 21 is_stmt 1 view .LVU342
 190:../libDaisy/src/util/WavWriter.h ****     {
 1293              		.loc 9 190 21 is_stmt 0 view .LVU343
 1294              	.LBE377:
 1295              	.LBB378:
 1296              	.LBI374:
 182:../libDaisy/src/util/WavWriter.h ****     {
 1297              		.loc 9 182 21 is_stmt 1 view .LVU344
ARM GAS  /var/folders/2p/02m_5p7958535cp2tpgps0400000gn/T//cchBTf64.s 			page 46


 1298              	.LBB376:
 185:../libDaisy/src/util/WavWriter.h ****         return 36 + wavheader_.SubCHunk2Size;
 1299              		.loc 9 185 13 is_stmt 0 view .LVU345
 1300 009a C0F8DC3F 		str	r3, [r0, #4060]
 185:../libDaisy/src/util/WavWriter.h ****         return 36 + wavheader_.SubCHunk2Size;
 1301              		.loc 9 185 13 view .LVU346
 1302              	.LBE376:
 1303              	.LBE378:
  85:../libDaisy/src/util/WavWriter.h ****         // This is calculated as part of the subchunk size
 1304              		.loc 9 85 29 view .LVU347
 1305 009e 2423     		movs	r3, #36
 1306              	.LBB379:
 1307              	.LBB365:
 1308              		.loc 9 192 71 view .LVU348
 1309 00a0 17EE902A 		vmov	r2, s15	@ int
 1310              	.LBE365:
 1311              	.LBE379:
  75:../libDaisy/src/util/WavWriter.h ****         wavheader_.SubChunk1Size = 16;                  // for PCM
 1312              		.loc 9 75 34 view .LVU349
 1313 00a4 C0F8C01F 		str	r1, [r0, #4032]
  85:../libDaisy/src/util/WavWriter.h ****         // This is calculated as part of the subchunk size
 1314              		.loc 9 85 29 view .LVU350
 1315 00a8 C0F8B83F 		str	r3, [r0, #4024]
 1316              	.LVL87:
 1317              	.LBB380:
 1318              	.LBB366:
 1319              		.loc 9 192 71 view .LVU351
 1320 00ac C0F8D02F 		str	r2, [r0, #4048]
 1321              	.LBE366:
 1322              	.LBE380:
 1323              	.LBE383:
 1324              	.LBE388:
 417:GrannyChordApp.cpp **** }
 1325              		.loc 3 417 1 view .LVU352
 1326 00b0 7047     		bx	lr
 1327              	.L57:
 1328 00b2 00BF     		.align	2
 1329              	.L56:
 1330 00b4 00803B47 		.word	1195081728
 1331 00b8 52494646 		.word	1179011410
 1332 00bc 64617461 		.word	1635017060
 1333              		.cfi_endproc
 1334              	.LFE4933:
 1336              		.section	.text._ZN14GrannyChordApp6InitFXEv,"ax",%progbits
 1337              		.align	1
 1338              		.global	_ZN14GrannyChordApp6InitFXEv
 1339              		.syntax unified
 1340              		.thumb
 1341              		.thumb_func
 1343              	_ZN14GrannyChordApp6InitFXEv:
 1344              	.LVL88:
 1345              	.LFB4934:
 418:GrannyChordApp.cpp **** 
 419:GrannyChordApp.cpp **** /// @brief initialise reverb, compressor, filter configs for FX section 
 420:GrannyChordApp.cpp **** void GrannyChordApp::InitFX(){
 1346              		.loc 3 420 30 is_stmt 1 view -0
 1347              		.cfi_startproc
ARM GAS  /var/folders/2p/02m_5p7958535cp2tpgps0400000gn/T//cchBTf64.s 			page 47


 1348              		@ args = 0, pretend = 0, frame = 8
 1349              		@ frame_needed = 0, uses_anonymous_args = 0
 421:GrannyChordApp.cpp ****   comp_.Init(SAMPLE_RATE_FLOAT);
 1350              		.loc 3 421 3 view .LVU354
 420:GrannyChordApp.cpp ****   comp_.Init(SAMPLE_RATE_FLOAT);
 1351              		.loc 3 420 30 is_stmt 0 view .LVU355
 1352 0000 13B5     		push	{r0, r1, r4, lr}
 1353              		.cfi_def_cfa_offset 16
 1354              		.cfi_offset 4, -8
 1355              		.cfi_offset 14, -4
 1356              		.loc 3 421 13 view .LVU356
 1357 0002 9FED1E0A 		vldr.32	s0, .L59
 420:GrannyChordApp.cpp ****   comp_.Init(SAMPLE_RATE_FLOAT);
 1358              		.loc 3 420 30 view .LVU357
 1359 0006 0446     		mov	r4, r0
 1360              		.loc 3 421 13 view .LVU358
 1361 0008 00F52370 		add	r0, r0, #652
 1362              	.LVL89:
 1363              		.loc 3 421 13 view .LVU359
 1364 000c 8DED010A 		vstr.32	s0, [sp, #4]	@ int
 1365 0010 FFF7FEFF 		bl	_ZN7daisysp10Compressor4InitEf
 1366              	.LVL90:
 422:GrannyChordApp.cpp ****   limiter_.Init();
 1367              		.loc 3 422 3 is_stmt 1 view .LVU360
 1368              		.loc 3 422 16 is_stmt 0 view .LVU361
 1369 0014 04F53370 		add	r0, r4, #716
 1370 0018 FFF7FEFF 		bl	_ZN7daisysp7Limiter4InitEv
 1371              	.LVL91:
 423:GrannyChordApp.cpp ****   
 424:GrannyChordApp.cpp ****   chorus_.Init(SAMPLE_RATE_FLOAT);
 1372              		.loc 3 424 3 is_stmt 1 view .LVU362
 1373              		.loc 3 424 15 is_stmt 0 view .LVU363
 1374 001c 9DED010A 		vldr.32	s0, [sp, #4]	@ int
 1375 0020 04F53570 		add	r0, r4, #724
 1376 0024 FFF7FEFF 		bl	_ZN7daisysp6Chorus4InitEf
 1377              	.LVL92:
 425:GrannyChordApp.cpp ****   reverb_.Init(SAMPLE_RATE_FLOAT);
 1378              		.loc 3 425 3 is_stmt 1 view .LVU364
 1379              		.loc 3 425 15 is_stmt 0 view .LVU365
 1380 0028 9DED010A 		vldr.32	s0, [sp, #4]	@ int
 1381 002c D4F8D002 		ldr	r0, [r4, #720]
 1382 0030 FFF7FEFF 		bl	_ZN7daisysp8ReverbSc4InitEf
 1383              	.LVL93:
 426:GrannyChordApp.cpp ****   
 427:GrannyChordApp.cpp ****   lowpass_moog_.Init(SAMPLE_RATE_FLOAT);
 1384              		.loc 3 427 3 is_stmt 1 view .LVU366
 1385              		.loc 3 427 21 is_stmt 0 view .LVU367
 1386 0034 04F59C40 		add	r0, r4, #19968
 1387              	.LBB404:
 1388              	.LBB405:
 1389              		.file 10 "../DaisySP/Source/../DaisySP-LGPL/Source/Filters/moogladder.h"
   1:../DaisySP/Source/../DaisySP-LGPL/Source/Filters/moogladder.h **** /*
   2:../DaisySP/Source/../DaisySP-LGPL/Source/Filters/moogladder.h **** Copyright (c) 2023 Electrosmith, Corp, Victor Lazzarini, John ffitch (fast tanh), Bob Moog
   3:../DaisySP/Source/../DaisySP-LGPL/Source/Filters/moogladder.h **** 
   4:../DaisySP/Source/../DaisySP-LGPL/Source/Filters/moogladder.h **** Use of this source code is governed by the LGPL V2.1
   5:../DaisySP/Source/../DaisySP-LGPL/Source/Filters/moogladder.h **** license that can be found in the LICENSE file or at
   6:../DaisySP/Source/../DaisySP-LGPL/Source/Filters/moogladder.h **** https://opensource.org/license/lgpl-2-1/
ARM GAS  /var/folders/2p/02m_5p7958535cp2tpgps0400000gn/T//cchBTf64.s 			page 48


   7:../DaisySP/Source/../DaisySP-LGPL/Source/Filters/moogladder.h **** */
   8:../DaisySP/Source/../DaisySP-LGPL/Source/Filters/moogladder.h **** 
   9:../DaisySP/Source/../DaisySP-LGPL/Source/Filters/moogladder.h **** #pragma once
  10:../DaisySP/Source/../DaisySP-LGPL/Source/Filters/moogladder.h **** #ifndef DSY_MOOGLADDER_H
  11:../DaisySP/Source/../DaisySP-LGPL/Source/Filters/moogladder.h **** #define DSY_MOOGLADDER_H
  12:../DaisySP/Source/../DaisySP-LGPL/Source/Filters/moogladder.h **** 
  13:../DaisySP/Source/../DaisySP-LGPL/Source/Filters/moogladder.h **** #include <stdint.h>
  14:../DaisySP/Source/../DaisySP-LGPL/Source/Filters/moogladder.h **** #ifdef __cplusplus
  15:../DaisySP/Source/../DaisySP-LGPL/Source/Filters/moogladder.h **** 
  16:../DaisySP/Source/../DaisySP-LGPL/Source/Filters/moogladder.h **** namespace daisysp
  17:../DaisySP/Source/../DaisySP-LGPL/Source/Filters/moogladder.h **** {
  18:../DaisySP/Source/../DaisySP-LGPL/Source/Filters/moogladder.h **** /** Moog ladder filter module*/
  19:../DaisySP/Source/../DaisySP-LGPL/Source/Filters/moogladder.h **** class MoogLadder
  20:../DaisySP/Source/../DaisySP-LGPL/Source/Filters/moogladder.h **** {
  21:../DaisySP/Source/../DaisySP-LGPL/Source/Filters/moogladder.h ****   public:
  22:../DaisySP/Source/../DaisySP-LGPL/Source/Filters/moogladder.h ****     MoogLadder() {}
  23:../DaisySP/Source/../DaisySP-LGPL/Source/Filters/moogladder.h ****     ~MoogLadder() {}
  24:../DaisySP/Source/../DaisySP-LGPL/Source/Filters/moogladder.h ****     /** Initializes the MoogLadder module.
  25:../DaisySP/Source/../DaisySP-LGPL/Source/Filters/moogladder.h ****         sample_rate - The sample rate of the audio engine being run. 
  26:../DaisySP/Source/../DaisySP-LGPL/Source/Filters/moogladder.h ****     */
  27:../DaisySP/Source/../DaisySP-LGPL/Source/Filters/moogladder.h ****     void Init(float sample_rate);
  28:../DaisySP/Source/../DaisySP-LGPL/Source/Filters/moogladder.h **** 
  29:../DaisySP/Source/../DaisySP-LGPL/Source/Filters/moogladder.h **** 
  30:../DaisySP/Source/../DaisySP-LGPL/Source/Filters/moogladder.h ****     /** Processes the lowpass filter
  31:../DaisySP/Source/../DaisySP-LGPL/Source/Filters/moogladder.h ****     */
  32:../DaisySP/Source/../DaisySP-LGPL/Source/Filters/moogladder.h ****     float Process(float in);
  33:../DaisySP/Source/../DaisySP-LGPL/Source/Filters/moogladder.h **** 
  34:../DaisySP/Source/../DaisySP-LGPL/Source/Filters/moogladder.h ****     /** 
  35:../DaisySP/Source/../DaisySP-LGPL/Source/Filters/moogladder.h ****         Sets the cutoff frequency or half-way point of the filter.
  36:../DaisySP/Source/../DaisySP-LGPL/Source/Filters/moogladder.h ****         Arguments
  37:../DaisySP/Source/../DaisySP-LGPL/Source/Filters/moogladder.h ****         - freq - frequency value in Hz. Range: Any positive value.
  38:../DaisySP/Source/../DaisySP-LGPL/Source/Filters/moogladder.h ****     */
  39:../DaisySP/Source/../DaisySP-LGPL/Source/Filters/moogladder.h ****     inline void SetFreq(float freq) { freq_ = freq; }
 1390              		.loc 10 39 45 view .LVU368
 1391 0038 04F58044 		add	r4, r4, #16384
 1392              	.LVL94:
 1393              		.loc 10 39 45 view .LVU369
 1394              	.LBE405:
 1395              	.LBE404:
 1396              		.loc 3 427 21 view .LVU370
 1397 003c 9DED010A 		vldr.32	s0, [sp, #4]	@ int
 1398 0040 3030     		adds	r0, r0, #48
 1399 0042 FFF7FEFF 		bl	_ZN7daisysp10MoogLadder4InitEf
 1400              	.LVL95:
 428:GrannyChordApp.cpp ****   lowpass_moog_.SetFreq(LOPASS_UPPER_BOUND);
 1401              		.loc 3 428 3 is_stmt 1 view .LVU371
 1402              	.LBB407:
 1403              	.LBI404:
 1404              		.loc 10 39 17 view .LVU372
 1405              	.LBB406:
 1406              		.loc 10 39 39 view .LVU373
 1407              		.loc 10 39 45 is_stmt 0 view .LVU374
 1408 0046 04F56363 		add	r3, r4, #3632
 1409 004a 0D4A     		ldr	r2, .L59+4
 1410 004c 9A60     		str	r2, [r3, #8]	@ float
 1411              	.LVL96:
 1412              		.loc 10 39 45 view .LVU375
ARM GAS  /var/folders/2p/02m_5p7958535cp2tpgps0400000gn/T//cchBTf64.s 			page 49


 1413              	.LBE406:
 1414              	.LBE407:
 429:GrannyChordApp.cpp ****   lowpass_moog_.SetRes(0.7f);
 1415              		.loc 3 429 3 is_stmt 1 view .LVU376
 1416              	.LBB408:
 1417              	.LBI408:
  40:../DaisySP/Source/../DaisySP-LGPL/Source/Filters/moogladder.h ****     /** 
  41:../DaisySP/Source/../DaisySP-LGPL/Source/Filters/moogladder.h ****         Sets the resonance of the filter.
  42:../DaisySP/Source/../DaisySP-LGPL/Source/Filters/moogladder.h ****     */
  43:../DaisySP/Source/../DaisySP-LGPL/Source/Filters/moogladder.h ****     inline void SetRes(float res) { res_ = res; }
 1418              		.loc 10 43 17 view .LVU377
 1419              	.LBB409:
 1420              		.loc 10 43 37 view .LVU378
 1421              		.loc 10 43 42 is_stmt 0 view .LVU379
 1422 004e 0D4A     		ldr	r2, .L59+8
 1423 0050 5A60     		str	r2, [r3, #4]	@ float
 1424              	.LVL97:
 1425              		.loc 10 43 42 view .LVU380
 1426              	.LBE409:
 1427              	.LBE408:
 430:GrannyChordApp.cpp ****   
 431:GrannyChordApp.cpp ****   hipass_.Init();
 1428              		.loc 3 431 3 is_stmt 1 view .LVU381
 1429              	.LBB410:
 1430              	.LBI410:
  44:../DaisySP/Source/Filters/onepole.h ****     {
 1431              		.loc 2 44 10 view .LVU382
 1432              	.LBE410:
  46:../DaisySP/Source/Filters/onepole.h ****         mode_ = FILTER_MODE_LOW_PASS;
 1433              		.loc 2 46 9 view .LVU383
 1434              	.LBB415:
 1435              	.LBB411:
 1436              	.LBI411:
  51:../DaisySP/Source/Filters/onepole.h **** 
 1437              		.loc 2 51 17 view .LVU384
 1438              	.LBB412:
  51:../DaisySP/Source/Filters/onepole.h **** 
 1439              		.loc 2 51 27 view .LVU385
  51:../DaisySP/Source/Filters/onepole.h **** 
 1440              		.loc 2 51 34 is_stmt 0 view .LVU386
 1441 0052 04F67463 		addw	r3, r4, #3700
 1442 0056 0022     		movs	r2, #0
 1443              	.LBE412:
 1444              	.LBE411:
 1445              	.LBE415:
 1446              	.LBB416:
 1447              	.LBB417:
  61:../DaisySP/Source/Filters/onepole.h ****         gi_ = 1.f / (1.f + g_);
 1448              		.loc 2 61 13 view .LVU387
 1449 0058 04F68C64 		addw	r4, r4, #3724
 1450              	.LVL98:
  61:../DaisySP/Source/Filters/onepole.h ****         gi_ = 1.f / (1.f + g_);
 1451              		.loc 2 61 13 view .LVU388
 1452              	.LBE417:
 1453              	.LBE416:
 1454              	.LBB419:
 1455              	.LBB414:
ARM GAS  /var/folders/2p/02m_5p7958535cp2tpgps0400000gn/T//cchBTf64.s 			page 50


 1456              	.LBB413:
  51:../DaisySP/Source/Filters/onepole.h **** 
 1457              		.loc 2 51 34 view .LVU389
 1458 005c 9A60     		str	r2, [r3, #8]	@ float
  51:../DaisySP/Source/Filters/onepole.h **** 
 1459              		.loc 2 51 34 view .LVU390
 1460              	.LBE413:
 1461              	.LBE414:
 1462              	.LBE419:
  47:../DaisySP/Source/Filters/onepole.h ****     }
 1463              		.loc 2 47 9 is_stmt 1 view .LVU391
 432:GrannyChordApp.cpp ****   hipass_.SetFilterMode(daisysp::OnePole::FilterMode::FILTER_MODE_HIGH_PASS);
 1464              		.loc 3 432 3 view .LVU392
 1465              	.LVL99:
 1466              	.LBB420:
 1467              	.LBI420:
  68:../DaisySP/Source/Filters/onepole.h **** 
 1468              		.loc 2 68 17 view .LVU393
 1469              	.LBB421:
  68:../DaisySP/Source/Filters/onepole.h **** 
 1470              		.loc 2 68 50 view .LVU394
  68:../DaisySP/Source/Filters/onepole.h **** 
 1471              		.loc 2 68 56 is_stmt 0 view .LVU395
 1472 005e 0122     		movs	r2, #1
 1473 0060 04F80C2C 		strb	r2, [r4, #-12]
 1474              	.LVL100:
  68:../DaisySP/Source/Filters/onepole.h **** 
 1475              		.loc 2 68 56 view .LVU396
 1476              	.LBE421:
 1477              	.LBE420:
 433:GrannyChordApp.cpp ****   hipass_.SetFrequency(HIPASS_LOWER_BOUND);
 1478              		.loc 3 433 3 is_stmt 1 view .LVU397
 1479              	.LBB422:
 1480              	.LBI422:
  56:../DaisySP/Source/Filters/onepole.h ****     {
 1481              		.loc 2 56 17 view .LVU398
 1482              	.LBB423:
  59:../DaisySP/Source/Filters/onepole.h **** 
 1483              		.loc 2 59 9 view .LVU399
  61:../DaisySP/Source/Filters/onepole.h ****         gi_ = 1.f / (1.f + g_);
 1484              		.loc 2 61 9 view .LVU400
  61:../DaisySP/Source/Filters/onepole.h ****         gi_ = 1.f / (1.f + g_);
 1485              		.loc 2 61 13 is_stmt 0 view .LVU401
 1486 0064 084A     		ldr	r2, .L59+12
 1487 0066 1A60     		str	r2, [r3]	@ float
  62:../DaisySP/Source/Filters/onepole.h ****     }
 1488              		.loc 2 62 9 is_stmt 1 view .LVU402
  62:../DaisySP/Source/Filters/onepole.h ****     }
 1489              		.loc 2 62 13 is_stmt 0 view .LVU403
 1490 0068 084A     		ldr	r2, .L59+16
 1491 006a 5A60     		str	r2, [r3, #4]	@ float
 1492              	.LVL101:
  62:../DaisySP/Source/Filters/onepole.h ****     }
 1493              		.loc 2 62 13 view .LVU404
 1494              	.LBE423:
 1495              	.LBE422:
 434:GrannyChordApp.cpp **** 
ARM GAS  /var/folders/2p/02m_5p7958535cp2tpgps0400000gn/T//cchBTf64.s 			page 51


 435:GrannyChordApp.cpp ****   hicut_.SetFilterMode(daisysp::OnePole::FilterMode::FILTER_MODE_LOW_PASS);
 1496              		.loc 3 435 3 is_stmt 1 view .LVU405
 1497              	.LBB424:
 1498              	.LBI424:
  68:../DaisySP/Source/Filters/onepole.h **** 
 1499              		.loc 2 68 17 view .LVU406
 1500              	.LBB425:
  68:../DaisySP/Source/Filters/onepole.h **** 
 1501              		.loc 2 68 50 view .LVU407
  68:../DaisySP/Source/Filters/onepole.h **** 
 1502              		.loc 2 68 56 is_stmt 0 view .LVU408
 1503 006c 0023     		movs	r3, #0
 1504 006e 2373     		strb	r3, [r4, #12]
 1505              	.LVL102:
  68:../DaisySP/Source/Filters/onepole.h **** 
 1506              		.loc 2 68 56 view .LVU409
 1507              	.LBE425:
 1508              	.LBE424:
 436:GrannyChordApp.cpp ****   hicut_.SetFrequency(HICUT_FREQ);
 1509              		.loc 3 436 3 is_stmt 1 view .LVU410
 1510              	.LBB426:
 1511              	.LBI416:
  56:../DaisySP/Source/Filters/onepole.h ****     {
 1512              		.loc 2 56 17 view .LVU411
 1513              	.LBB418:
  59:../DaisySP/Source/Filters/onepole.h **** 
 1514              		.loc 2 59 9 view .LVU412
  61:../DaisySP/Source/Filters/onepole.h ****         gi_ = 1.f / (1.f + g_);
 1515              		.loc 2 61 9 view .LVU413
  61:../DaisySP/Source/Filters/onepole.h ****         gi_ = 1.f / (1.f + g_);
 1516              		.loc 2 61 13 is_stmt 0 view .LVU414
 1517 0070 074B     		ldr	r3, .L59+20
 1518 0072 2360     		str	r3, [r4]	@ float
  62:../DaisySP/Source/Filters/onepole.h ****     }
 1519              		.loc 2 62 9 is_stmt 1 view .LVU415
  62:../DaisySP/Source/Filters/onepole.h ****     }
 1520              		.loc 2 62 13 is_stmt 0 view .LVU416
 1521 0074 074B     		ldr	r3, .L59+24
 1522 0076 6360     		str	r3, [r4, #4]	@ float
 1523              	.LVL103:
  62:../DaisySP/Source/Filters/onepole.h ****     }
 1524              		.loc 2 62 13 view .LVU417
 1525              	.LBE418:
 1526              	.LBE426:
 437:GrannyChordApp.cpp **** }
 1527              		.loc 3 437 1 view .LVU418
 1528 0078 02B0     		add	sp, sp, #8
 1529              		.cfi_def_cfa_offset 8
 1530              		@ sp needed
 1531 007a 10BD     		pop	{r4, pc}
 1532              	.LVL104:
 1533              	.L60:
 1534              		.loc 3 437 1 view .LVU419
 1535              		.align	2
 1536              	.L59:
 1537 007c 00803B47 		.word	1195081728
 1538 0080 00A08C46 		.word	1183621120
ARM GAS  /var/folders/2p/02m_5p7958535cp2tpgps0400000gn/T//cchBTf64.s 			page 52


 1539 0084 3333333F 		.word	1060320051
 1540 0088 C4B5A43A 		.word	983872964
 1541 008c C0AD7F3F 		.word	1065332160
 1542 0090 A178EF3F 		.word	1072658593
 1543 0094 DE57B23E 		.word	1051875294
 1544              		.cfi_endproc
 1545              	.LFE4934:
 1547              		.section	.text._ZN14GrannyChordApp17InitPrevParamValsEv,"ax",%progbits
 1548              		.align	1
 1549              		.global	_ZN14GrannyChordApp17InitPrevParamValsEv
 1550              		.syntax unified
 1551              		.thumb
 1552              		.thumb_func
 1554              	_ZN14GrannyChordApp17InitPrevParamValsEv:
 1555              	.LVL105:
 1556              	.LFB4935:
 438:GrannyChordApp.cpp **** 
 439:GrannyChordApp.cpp **** /// @brief Initialise previous parameter value arrays to defaults
 440:GrannyChordApp.cpp **** void GrannyChordApp::InitPrevParamVals(){
 1557              		.loc 3 440 41 is_stmt 1 view -0
 1558              		.cfi_startproc
 1559              		@ args = 0, pretend = 0, frame = 0
 1560              		@ frame_needed = 0, uses_anonymous_args = 0
 1561              		@ link register save eliminated.
 441:GrannyChordApp.cpp ****   for (int i=0; i < NUM_SYNTH_MODES;i++){
 1562              		.loc 3 441 3 view .LVU421
 1563              	.LBB427:
 1564              		.loc 3 441 19 view .LVU422
 1565 0000 00F59E43 		add	r3, r0, #20224
 1566 0004 00F59E40 		add	r0, r0, #20224
 1567              	.LVL106:
 1568              		.loc 3 441 19 is_stmt 0 view .LVU423
 1569 0008 3033     		adds	r3, r3, #48
 1570 000a 5030     		adds	r0, r0, #80
 1571              	.LVL107:
 1572              	.L62:
 442:GrannyChordApp.cpp ****     prev_param_k1[i] = 0.5f;
 1573              		.loc 3 442 5 is_stmt 1 discriminator 2 view .LVU424
 1574              		.loc 3 442 22 is_stmt 0 discriminator 2 view .LVU425
 1575 000c 4FF07C52 		mov	r2, #1056964608
 1576 0010 43F8042B 		str	r2, [r3], #4	@ float
 443:GrannyChordApp.cpp ****     prev_param_k2[i] = 0.5f;
 1577              		.loc 3 443 5 is_stmt 1 discriminator 2 view .LVU426
 441:GrannyChordApp.cpp ****   for (int i=0; i < NUM_SYNTH_MODES;i++){
 1578              		.loc 3 441 19 is_stmt 0 discriminator 2 view .LVU427
 1579 0014 8342     		cmp	r3, r0
 1580              		.loc 3 443 22 discriminator 2 view .LVU428
 1581 0016 DA61     		str	r2, [r3, #28]	@ float
 441:GrannyChordApp.cpp ****   for (int i=0; i < NUM_SYNTH_MODES;i++){
 1582              		.loc 3 441 3 is_stmt 1 discriminator 2 view .LVU429
 441:GrannyChordApp.cpp ****   for (int i=0; i < NUM_SYNTH_MODES;i++){
 1583              		.loc 3 441 19 discriminator 2 view .LVU430
 1584 0018 F8D1     		bne	.L62
 1585              	.LBE427:
 444:GrannyChordApp.cpp ****   } 
 445:GrannyChordApp.cpp **** }
 1586              		.loc 3 445 1 is_stmt 0 view .LVU431
ARM GAS  /var/folders/2p/02m_5p7958535cp2tpgps0400000gn/T//cchBTf64.s 			page 53


 1587 001a 7047     		bx	lr
 1588              		.cfi_endproc
 1589              	.LFE4935:
 1591              		.section	.rodata._ZN14GrannyChordApp4InitEPsS0_.str1.1,"aMS",%progbits,1
 1592              	.LC7:
 1593 0000 46696C65 		.ascii	"File manager failed to init\000"
 1593      206D616E 
 1593      61676572 
 1593      20666169 
 1593      6C656420 
 1594              		.section	.text._ZN14GrannyChordApp4InitEPsS0_,"ax",%progbits
 1595              		.align	1
 1596              		.global	_ZN14GrannyChordApp4InitEPsS0_
 1597              		.syntax unified
 1598              		.thumb
 1599              		.thumb_func
 1601              	_ZN14GrannyChordApp4InitEPsS0_:
 1602              	.LVL108:
 1603              	.LFB4911:
  16:GrannyChordApp.cpp ****   left_buf_ = left, right_buf_ = right;
 1604              		.loc 3 16 57 is_stmt 1 view -0
 1605              		.cfi_startproc
 1606              		@ args = 0, pretend = 0, frame = 0
 1607              		@ frame_needed = 0, uses_anonymous_args = 0
  17:GrannyChordApp.cpp ****   pod_.SetAudioBlockSize(2);
 1608              		.loc 3 17 3 view .LVU433
  16:GrannyChordApp.cpp ****   left_buf_ = left, right_buf_ = right;
 1609              		.loc 3 16 57 is_stmt 0 view .LVU434
 1610 0000 70B5     		push	{r4, r5, r6, lr}
 1611              		.cfi_def_cfa_offset 16
 1612              		.cfi_offset 4, -16
 1613              		.cfi_offset 5, -12
 1614              		.cfi_offset 6, -8
 1615              		.cfi_offset 14, -4
  17:GrannyChordApp.cpp ****   pod_.SetAudioBlockSize(2);
 1616              		.loc 3 17 13 view .LVU435
 1617 0002 00F58045 		add	r5, r0, #16384
  16:GrannyChordApp.cpp ****   left_buf_ = left, right_buf_ = right;
 1618              		.loc 3 16 57 view .LVU436
 1619 0006 0446     		mov	r4, r0
  21:GrannyChordApp.cpp ****   // SetupTimer();
 1620              		.loc 3 21 15 view .LVU437
 1621 0008 0026     		movs	r6, #0
  18:GrannyChordApp.cpp ****   pod_.SetAudioSampleRate(SaiHandle::Config::SampleRate::SAI_48KHZ);
 1622              		.loc 3 18 25 view .LVU438
 1623 000a C069     		ldr	r0, [r0, #28]
 1624              	.LVL109:
  16:GrannyChordApp.cpp ****   left_buf_ = left, right_buf_ = right;
 1625              		.loc 3 16 57 view .LVU439
 1626 000c 2DED048B 		vpush.64	{d8, d9}
 1627              		.cfi_def_cfa_offset 32
 1628              		.cfi_offset 80, -32
 1629              		.cfi_offset 81, -28
 1630              		.cfi_offset 82, -24
 1631              		.cfi_offset 83, -20
  17:GrannyChordApp.cpp ****   pod_.SetAudioBlockSize(2);
 1632              		.loc 3 17 13 view .LVU440
ARM GAS  /var/folders/2p/02m_5p7958535cp2tpgps0400000gn/T//cchBTf64.s 			page 54


 1633 0010 C5F89C1E 		str	r1, [r5, #3740]
  18:GrannyChordApp.cpp ****   pod_.SetAudioSampleRate(SaiHandle::Config::SampleRate::SAI_48KHZ);
 1634              		.loc 3 18 25 view .LVU441
 1635 0014 0221     		movs	r1, #2
 1636              	.LVL110:
  17:GrannyChordApp.cpp ****   pod_.SetAudioBlockSize(2);
 1637              		.loc 3 17 32 view .LVU442
 1638 0016 C5F8A02E 		str	r2, [r5, #3744]
  18:GrannyChordApp.cpp ****   pod_.SetAudioSampleRate(SaiHandle::Config::SampleRate::SAI_48KHZ);
 1639              		.loc 3 18 3 is_stmt 1 view .LVU443
  18:GrannyChordApp.cpp ****   pod_.SetAudioSampleRate(SaiHandle::Config::SampleRate::SAI_48KHZ);
 1640              		.loc 3 18 25 is_stmt 0 view .LVU444
 1641 001a FFF7FEFF 		bl	_ZN5daisy8DaisyPod17SetAudioBlockSizeEj
 1642              	.LVL111:
  19:GrannyChordApp.cpp **** 
 1643              		.loc 3 19 3 is_stmt 1 view .LVU445
  19:GrannyChordApp.cpp **** 
 1644              		.loc 3 19 26 is_stmt 0 view .LVU446
 1645 001e E069     		ldr	r0, [r4, #28]
 1646 0020 0321     		movs	r1, #3
 1647 0022 FFF7FEFF 		bl	_ZN5daisy8DaisyPod18SetAudioSampleRateENS_9SaiHandle6Config10SampleRateE
 1648              	.LVL112:
  21:GrannyChordApp.cpp ****   // SetupTimer();
 1649              		.loc 3 21 3 is_stmt 1 view .LVU447
  23:GrannyChordApp.cpp ****     DebugPrint(pod_,"File manager failed to init");
 1650              		.loc 3 23 19 is_stmt 0 view .LVU448
 1651 0026 2046     		mov	r0, r4
  21:GrannyChordApp.cpp ****   // SetupTimer();
 1652              		.loc 3 21 15 view .LVU449
 1653 0028 C4F87862 		str	r6, [r4, #632]
  23:GrannyChordApp.cpp ****     DebugPrint(pod_,"File manager failed to init");
 1654              		.loc 3 23 3 is_stmt 1 view .LVU450
  23:GrannyChordApp.cpp ****     DebugPrint(pod_,"File manager failed to init");
 1655              		.loc 3 23 19 is_stmt 0 view .LVU451
 1656 002c FFF7FEFF 		bl	_ZN14GrannyChordApp11InitFileMgrEv
 1657              	.LVL113:
  23:GrannyChordApp.cpp ****     DebugPrint(pod_,"File manager failed to init");
 1658              		.loc 3 23 3 view .LVU452
 1659 0030 B0B9     		cbnz	r0, .L65
  24:GrannyChordApp.cpp ****     pod_.led1.SetRed(1);
 1660              		.loc 3 24 5 is_stmt 1 view .LVU453
  24:GrannyChordApp.cpp ****     pod_.led1.SetRed(1);
 1661              		.loc 3 24 5 view .LVU454
 1662              	.LVL114:
 1663              	.LBB436:
 1664              	.LBI436:
 126:../libDaisy/src/daisy_seed.h ****     {
 1665              		.loc 5 126 17 view .LVU455
 1666              	.LBB437:
 1667              		.loc 5 128 23 is_stmt 0 view .LVU456
 1668 0032 3048     		ldr	r0, .L66
 1669 0034 FFF7FEFF 		bl	_ZN5daisy6LoggerILNS_17LoggerDestinationE1EE9PrintLineEPKcz
 1670              	.LVL115:
 1671              		.loc 5 128 23 view .LVU457
 1672              	.LBE437:
 1673              	.LBE436:
  25:GrannyChordApp.cpp ****     pod_.led2.SetRed(1);
ARM GAS  /var/folders/2p/02m_5p7958535cp2tpgps0400000gn/T//cchBTf64.s 			page 55


 1674              		.loc 3 25 5 is_stmt 1 view .LVU458
  25:GrannyChordApp.cpp ****     pod_.led2.SetRed(1);
 1675              		.loc 3 25 21 is_stmt 0 view .LVU459
 1676 0038 E069     		ldr	r0, [r4, #28]
 1677 003a B7EE000A 		vmov.f32	s0, #1.0e+0
 1678 003e D830     		adds	r0, r0, #216
 1679 0040 FFF7FEFF 		bl	_ZN5daisy6RgbLed6SetRedEf
 1680              	.LVL116:
  26:GrannyChordApp.cpp ****     pod_.UpdateLeds();
 1681              		.loc 3 26 5 is_stmt 1 view .LVU460
  26:GrannyChordApp.cpp ****     pod_.UpdateLeds();
 1682              		.loc 3 26 21 is_stmt 0 view .LVU461
 1683 0044 E069     		ldr	r0, [r4, #28]
 1684 0046 B7EE000A 		vmov.f32	s0, #1.0e+0
 1685 004a 00F59670 		add	r0, r0, #300
 1686 004e FFF7FEFF 		bl	_ZN5daisy6RgbLed6SetRedEf
 1687              	.LVL117:
  27:GrannyChordApp.cpp ****     return;
 1688              		.loc 3 27 5 is_stmt 1 view .LVU462
  27:GrannyChordApp.cpp ****     return;
 1689              		.loc 3 27 20 is_stmt 0 view .LVU463
 1690 0052 E069     		ldr	r0, [r4, #28]
  36:GrannyChordApp.cpp **** 
 1691              		.loc 3 36 1 view .LVU464
 1692 0054 BDEC048B 		vldm	sp!, {d8-d9}
 1693              		.cfi_remember_state
 1694              		.cfi_restore 82
 1695              		.cfi_restore 83
 1696              		.cfi_restore 80
 1697              		.cfi_restore 81
 1698              		.cfi_def_cfa_offset 16
 1699 0058 BDE87040 		pop	{r4, r5, r6, lr}
 1700              		.cfi_restore 14
 1701              		.cfi_restore 6
 1702              		.cfi_restore 5
 1703              		.cfi_restore 4
 1704              		.cfi_def_cfa_offset 0
 1705              	.LVL118:
  27:GrannyChordApp.cpp ****     return;
 1706              		.loc 3 27 20 view .LVU465
 1707 005c FFF7FEBF 		b	_ZN5daisy8DaisyPod10UpdateLedsEv
 1708              	.LVL119:
 1709              	.L65:
 1710              		.cfi_restore_state
  30:GrannyChordApp.cpp ****   InitFX();
 1711              		.loc 3 30 3 is_stmt 1 view .LVU466
  30:GrannyChordApp.cpp ****   InitFX();
 1712              		.loc 3 30 17 is_stmt 0 view .LVU467
 1713 0060 E069     		ldr	r0, [r4, #28]
 1714 0062 FFF7FEFF 		bl	_ZN5daisy8DaisyPod15AudioSampleRateEv
 1715              	.LVL120:
  30:GrannyChordApp.cpp ****   InitFX();
 1716              		.loc 3 30 61 view .LVU468
 1717 0066 E069     		ldr	r0, [r4, #28]
  30:GrannyChordApp.cpp ****   InitFX();
 1718              		.loc 3 30 17 view .LVU469
 1719 0068 F0EE408A 		vmov.f32	s17, s0
ARM GAS  /var/folders/2p/02m_5p7958535cp2tpgps0400000gn/T//cchBTf64.s 			page 56


  30:GrannyChordApp.cpp ****   InitFX();
 1720              		.loc 3 30 61 view .LVU470
 1721 006c FFF7FEFF 		bl	_ZN5daisy8DaisyPod14AudioBlockSizeEv
 1722              	.LVL121:
 1723              	.LBB438:
 1724              	.LBI438:
  29:../libDaisy/src/util/CpuLoadMeter.h ****               int   blockSizeInSamples,
 1725              		.loc 4 29 10 is_stmt 1 view .LVU471
 1726              	.LBB439:
  33:../libDaisy/src/util/CpuLoadMeter.h ****         const auto ticksPerS   = float(System::GetTickFreq());
 1727              		.loc 4 33 9 view .LVU472
  33:../libDaisy/src/util/CpuLoadMeter.h ****         const auto ticksPerS   = float(System::GetTickFreq());
 1728              		.loc 4 33 34 is_stmt 0 view .LVU473
 1729 0070 07EE900A 		vmov	s15, r0	@ int
 1730 0074 B8EEE78A 		vcvt.f32.s32	s16, s15
  34:../libDaisy/src/util/CpuLoadMeter.h ****         ticksPerBlockInv_      = 1.0f / (ticksPerS * secPerBlock);
 1731              		.loc 4 34 59 view .LVU474
 1732 0078 FFF7FEFF 		bl	_ZN5daisy6System11GetTickFreqEv
 1733              	.LVL122:
  34:../libDaisy/src/util/CpuLoadMeter.h ****         ticksPerBlockInv_      = 1.0f / (ticksPerS * secPerBlock);
 1734              		.loc 4 34 61 view .LVU475
 1735 007c 07EE900A 		vmov	s15, r0	@ int
  35:../libDaisy/src/util/CpuLoadMeter.h **** 
 1736              		.loc 4 35 39 view .LVU476
 1737 0080 B7EE007A 		vmov.f32	s14, #1.0e+0
  39:../libDaisy/src/util/CpuLoadMeter.h ****             = smoothingFilterCutoffHz * 2.0f * 3.141592653f / blockRateInHz;
 1738              		.loc 4 39 20 view .LVU477
 1739 0084 9FED1C6A 		vldr.32	s12, .L66+4
 1740              	.LBB440:
 1741              	.LBB441:
  82:../libDaisy/src/util/CpuLoadMeter.h **** 
  83:../libDaisy/src/util/CpuLoadMeter.h ****     /** Resets the minimun, maximum and average load readings. */
  84:../libDaisy/src/util/CpuLoadMeter.h ****     void Reset()
  85:../libDaisy/src/util/CpuLoadMeter.h ****     {
  86:../libDaisy/src/util/CpuLoadMeter.h ****         firstCycle_ = true;
 1742              		.loc 4 86 21 view .LVU478
 1743 0088 0123     		movs	r3, #1
 1744              	.LBE441:
 1745              	.LBE440:
  33:../libDaisy/src/util/CpuLoadMeter.h ****         const auto ticksPerS   = float(System::GetTickFreq());
 1746              		.loc 4 33 20 view .LVU479
 1747 008a 88EE289A 		vdiv.f32	s18, s16, s17
 1748              	.LVL123:
  34:../libDaisy/src/util/CpuLoadMeter.h ****         ticksPerBlockInv_      = 1.0f / (ticksPerS * secPerBlock);
 1749              		.loc 4 34 9 is_stmt 1 view .LVU480
  35:../libDaisy/src/util/CpuLoadMeter.h **** 
 1750              		.loc 4 35 9 view .LVU481
 1751              	.LBE439:
 1752              	.LBE438:
  31:GrannyChordApp.cpp ****   InitPrevParamVals();
 1753              		.loc 3 31 9 is_stmt 0 view .LVU482
 1754 008e 2046     		mov	r0, r4
 1755              	.LVL124:
 1756              	.LBB449:
 1757              	.LBB448:
 1758              	.LBB445:
 1759              	.LBB442:
ARM GAS  /var/folders/2p/02m_5p7958535cp2tpgps0400000gn/T//cchBTf64.s 			page 57


 1760              		.loc 4 86 21 view .LVU483
 1761 0090 2370     		strb	r3, [r4]
  87:../libDaisy/src/util/CpuLoadMeter.h ****         avg_ = max_ = min_ = NAN;
 1762              		.loc 4 87 28 view .LVU484
 1763 0092 1A4B     		ldr	r3, .L66+8
 1764 0094 E360     		str	r3, [r4, #12]	@ float
 1765              	.LBE442:
 1766              	.LBE445:
  34:../libDaisy/src/util/CpuLoadMeter.h ****         ticksPerBlockInv_      = 1.0f / (ticksPerS * secPerBlock);
 1767              		.loc 4 34 61 view .LVU485
 1768 0096 F8EE677A 		vcvt.f32.u32	s15, s15
 1769              	.LVL125:
 1770              	.LBB446:
 1771              	.LBB443:
 1772              		.loc 4 87 21 view .LVU486
 1773 009a 2361     		str	r3, [r4, #16]	@ float
 1774              		.loc 4 87 14 view .LVU487
 1775 009c 6361     		str	r3, [r4, #20]	@ float
 1776              	.LBE443:
 1777              	.LBE446:
  35:../libDaisy/src/util/CpuLoadMeter.h **** 
 1778              		.loc 4 35 52 view .LVU488
 1779 009e 67EE897A 		vmul.f32	s15, s15, s18
 1780              	.LVL126:
  35:../libDaisy/src/util/CpuLoadMeter.h **** 
 1781              		.loc 4 35 39 view .LVU489
 1782 00a2 C7EE276A 		vdiv.f32	s13, s14, s15
  35:../libDaisy/src/util/CpuLoadMeter.h **** 
 1783              		.loc 4 35 32 view .LVU490
 1784 00a6 C4ED016A 		vstr.32	s13, [r4, #4]
  38:../libDaisy/src/util/CpuLoadMeter.h ****         const auto cutoffNormalized
 1785              		.loc 4 38 9 is_stmt 1 view .LVU491
 1786              	.LVL127:
  39:../libDaisy/src/util/CpuLoadMeter.h ****             = smoothingFilterCutoffHz * 2.0f * 3.141592653f / blockRateInHz;
 1787              		.loc 4 39 9 view .LVU492
  38:../libDaisy/src/util/CpuLoadMeter.h ****         const auto cutoffNormalized
 1788              		.loc 4 38 20 is_stmt 0 view .LVU493
 1789 00aa C8EE886A 		vdiv.f32	s13, s17, s16
 1790              	.LVL128:
  39:../libDaisy/src/util/CpuLoadMeter.h ****             = smoothingFilterCutoffHz * 2.0f * 3.141592653f / blockRateInHz;
 1791              		.loc 4 39 20 view .LVU494
 1792 00ae C6EE267A 		vdiv.f32	s15, s12, s13
 1793              	.LVL129:
  43:../libDaisy/src/util/CpuLoadMeter.h **** 
 1794              		.loc 4 43 9 is_stmt 1 view .LVU495
  43:../libDaisy/src/util/CpuLoadMeter.h **** 
 1795              		.loc 4 43 67 is_stmt 0 view .LVU496
 1796 00b2 37EE877A 		vadd.f32	s14, s15, s14
  43:../libDaisy/src/util/CpuLoadMeter.h **** 
 1797              		.loc 4 43 47 view .LVU497
 1798 00b6 C7EE876A 		vdiv.f32	s13, s15, s14
 1799              	.LVL130:
  43:../libDaisy/src/util/CpuLoadMeter.h **** 
 1800              		.loc 4 43 28 view .LVU498
 1801 00ba C4ED066A 		vstr.32	s13, [r4, #24]
  45:../libDaisy/src/util/CpuLoadMeter.h ****     }
 1802              		.loc 4 45 9 is_stmt 1 view .LVU499
ARM GAS  /var/folders/2p/02m_5p7958535cp2tpgps0400000gn/T//cchBTf64.s 			page 58


 1803              	.LVL131:
 1804              	.LBB447:
 1805              	.LBI440:
  84:../libDaisy/src/util/CpuLoadMeter.h ****     {
 1806              		.loc 4 84 10 view .LVU500
 1807              	.LBB444:
  86:../libDaisy/src/util/CpuLoadMeter.h ****         avg_ = max_ = min_ = NAN;
 1808              		.loc 4 86 9 view .LVU501
 1809              		.loc 4 87 9 view .LVU502
 1810              		.loc 4 87 9 is_stmt 0 view .LVU503
 1811              	.LBE444:
 1812              	.LBE447:
 1813              	.LBE448:
 1814              	.LBE449:
  31:GrannyChordApp.cpp ****   InitPrevParamVals();
 1815              		.loc 3 31 3 is_stmt 1 view .LVU504
  31:GrannyChordApp.cpp ****   InitPrevParamVals();
 1816              		.loc 3 31 9 is_stmt 0 view .LVU505
 1817 00be FFF7FEFF 		bl	_ZN14GrannyChordApp6InitFXEv
 1818              	.LVL132:
  32:GrannyChordApp.cpp ****   SeedRng();
 1819              		.loc 3 32 3 is_stmt 1 view .LVU506
  32:GrannyChordApp.cpp ****   SeedRng();
 1820              		.loc 3 32 20 is_stmt 0 view .LVU507
 1821 00c2 2046     		mov	r0, r4
 1822 00c4 FFF7FEFF 		bl	_ZN14GrannyChordApp17InitPrevParamValsEv
 1823              	.LVL133:
  33:GrannyChordApp.cpp ****   synth_.Init(left_buf_, right_buf_, 0);
 1824              		.loc 3 33 3 is_stmt 1 view .LVU508
 1825              	.LBB450:
 1826              	.LBI450:
 1827              		.file 11 "constants_utils.h"
   1:constants_utils.h **** #pragma once
   2:constants_utils.h **** #include "stddef.h"
   3:constants_utils.h **** #include <time.h>
   4:constants_utils.h **** 
   5:constants_utils.h **** /* audio constants */
   6:constants_utils.h **** constexpr int SAMPLE_RATE = 48000;
   7:constants_utils.h **** constexpr float SAMPLE_RATE_FLOAT = 48000.f;
   8:constants_utils.h **** constexpr int BIT_DEPTH = 16;
   9:constants_utils.h **** 
  10:constants_utils.h **** /* delay line buffer size (2s @ 48kHz) */
  11:constants_utils.h **** constexpr size_t DELAY_TIME = 96000;
  12:constants_utils.h **** 
  13:constants_utils.h **** /* maximum length of recording to SD card */
  14:constants_utils.h **** constexpr size_t MAX_REC_OUT_LEN = 120;
  15:constants_utils.h **** 
  16:constants_utils.h **** /* 16mb - max size of one stereo channel to be loaded into buffers */
  17:constants_utils.h **** constexpr size_t CHNL_BUF_SIZE_ABS = 16*1024*1024;
  18:constants_utils.h **** /* above is absolute size - each sample needs an int16 (2 bytes) so we do (abs_size)/2 */
  19:constants_utils.h **** constexpr size_t CHNL_BUF_SIZE_SAMPS = 8*1024*1024;
  20:constants_utils.h **** 
  21:constants_utils.h **** /* chunk size for reading audio into temporary buffer */
  22:constants_utils.h **** const size_t BUF_CHUNK_SZ = 16384;
  23:constants_utils.h **** 
  24:constants_utils.h **** /* file reading constants*/
  25:constants_utils.h **** static const uint16_t MAX_FILES = 32;                      
ARM GAS  /var/folders/2p/02m_5p7958535cp2tpgps0400000gn/T//cchBTf64.s 			page 59


  26:constants_utils.h **** static const uint16_t MAX_FNAME_LEN = 128;
  27:constants_utils.h **** 
  28:constants_utils.h **** /* granular synth parameter constants */
  29:constants_utils.h **** constexpr int MIN_GRAINS = 1;
  30:constants_utils.h **** constexpr int MAX_GRAINS = 10;
  31:constants_utils.h **** static constexpr int NUM_SYNTH_MODES = 8;
  32:constants_utils.h **** constexpr float PARAM_CHANGE_THRESHOLD = 0.01f;
  33:constants_utils.h **** constexpr float MIN_GRAIN_SIZE_MS = 100.0f;
  34:constants_utils.h **** constexpr float MAX_GRAIN_SIZE_MS = 3000.0f;
  35:constants_utils.h **** constexpr size_t MIN_GRAIN_SIZE_SAMPLES = 4800; /* 100ms at 48kHz */
  36:constants_utils.h **** constexpr size_t MAX_GRAIN_SIZE_SAMPLES = 144000; /* 3s at 48kHz */
  37:constants_utils.h **** constexpr float MIN_PITCH = 0.5f;
  38:constants_utils.h **** constexpr float MAX_PITCH = 3.0f;
  39:constants_utils.h **** 
  40:constants_utils.h **** /* button event constants */
  41:constants_utils.h **** const unsigned long DEBOUNCE_DELAY = 50; 
  42:constants_utils.h **** const unsigned long LONG_PRESS_TIME = 1000;
  43:constants_utils.h **** 
  44:constants_utils.h **** /* hipass filter frequency range */
  45:constants_utils.h **** const float HIPASS_LOWER_BOUND = 0.0004f;
  46:constants_utils.h **** const float HIPASS_UPPER_BOUND = 0.01f;
  47:constants_utils.h **** 
  48:constants_utils.h **** /* lowpass filter frequency range */
  49:constants_utils.h **** const float LOPASS_LOWER_BOUND = 20.0f;
  50:constants_utils.h **** const float LOPASS_UPPER_BOUND = 18000.0f;
  51:constants_utils.h **** 
  52:constants_utils.h **** // const float HICUT_FREQ = 0.3125f; /* 15000Hz @ 48kHz sample rate */
  53:constants_utils.h **** const float HICUT_FREQ = 0.34375; /* 16500Hz @ 48kHz sample rate */
  54:constants_utils.h **** 
  55:constants_utils.h **** /* random number generator variables and helper functions */
  56:constants_utils.h **** extern uint32_t rng_state;
  57:constants_utils.h **** inline void SeedRng(){
 1828              		.loc 11 57 13 view .LVU509
 1829              	.LBB451:
  58:constants_utils.h ****   rng_state = static_cast<uint32_t>(time(nullptr));
 1830              		.loc 11 58 3 view .LVU510
 1831              		.loc 11 58 41 is_stmt 0 view .LVU511
 1832 00c8 3046     		mov	r0, r6
 1833 00ca FFF7FEFF 		bl	time
 1834              	.LVL134:
 1835              		.loc 11 58 13 view .LVU512
 1836 00ce 0C4B     		ldr	r3, .L66+12
 1837              	.LBE451:
 1838              	.LBE450:
  34:GrannyChordApp.cpp ****   pod_.StartAdc();
 1839              		.loc 3 34 14 view .LVU513
 1840 00d0 D5F8A02E 		ldr	r2, [r5, #3744]
 1841              	.LBB453:
 1842              	.LBB452:
 1843              		.loc 11 58 13 view .LVU514
 1844 00d4 1860     		str	r0, [r3]
 1845              	.LBE452:
 1846              	.LBE453:
  34:GrannyChordApp.cpp ****   pod_.StartAdc();
 1847              		.loc 3 34 3 is_stmt 1 view .LVU515
  34:GrannyChordApp.cpp ****   pod_.StartAdc();
 1848              		.loc 3 34 14 is_stmt 0 view .LVU516
ARM GAS  /var/folders/2p/02m_5p7958535cp2tpgps0400000gn/T//cchBTf64.s 			page 60


 1849 00d6 04F12000 		add	r0, r4, #32
 1850 00da 3346     		mov	r3, r6
 1851 00dc D5F89C1E 		ldr	r1, [r5, #3740]
 1852 00e0 FFF7FEFF 		bl	_ZN13GranularSynth4InitEPsS0_j
 1853              	.LVL135:
  35:GrannyChordApp.cpp **** }
 1854              		.loc 3 35 3 is_stmt 1 view .LVU517
  35:GrannyChordApp.cpp **** }
 1855              		.loc 3 35 16 is_stmt 0 view .LVU518
 1856 00e4 E069     		ldr	r0, [r4, #28]
  36:GrannyChordApp.cpp **** 
 1857              		.loc 3 36 1 view .LVU519
 1858 00e6 BDEC048B 		vldm	sp!, {d8-d9}
 1859              		.cfi_restore 82
 1860              		.cfi_restore 83
 1861              		.cfi_restore 80
 1862              		.cfi_restore 81
 1863              		.cfi_def_cfa_offset 16
 1864 00ea BDE87040 		pop	{r4, r5, r6, lr}
 1865              		.cfi_restore 14
 1866              		.cfi_restore 6
 1867              		.cfi_restore 5
 1868              		.cfi_restore 4
 1869              		.cfi_def_cfa_offset 0
 1870              	.LVL136:
  35:GrannyChordApp.cpp **** }
 1871              		.loc 3 35 16 view .LVU520
 1872 00ee FFF7FEBF 		b	_ZN5daisy8DaisyPod8StartAdcEv
 1873              	.LVL137:
 1874              	.L67:
 1875 00f2 00BF     		.align	2
 1876              	.L66:
 1877 00f4 00000000 		.word	.LC7
 1878 00f8 DB0FC940 		.word	1086918619
 1879 00fc 0000C07F 		.word	2143289344
 1880 0100 00000000 		.word	rng_state
 1881              		.cfi_endproc
 1882              	.LFE4911:
 1884              		.section	.rodata._ZN14GrannyChordApp9InitSynthEv.str1.1,"aMS",%progbits,1
 1885              	.LC8:
 1886 0000 73796E74 		.ascii	"synth init ok - samples %u\000"
 1886      6820696E 
 1886      6974206F 
 1886      6B202D20 
 1886      73616D70 
 1887              		.section	.text._ZN14GrannyChordApp9InitSynthEv,"ax",%progbits
 1888              		.align	1
 1889              		.global	_ZN14GrannyChordApp9InitSynthEv
 1890              		.syntax unified
 1891              		.thumb
 1892              		.thumb_func
 1894              	_ZN14GrannyChordApp9InitSynthEv:
 1895              	.LVL138:
 1896              	.LFB4930:
 382:GrannyChordApp.cpp ****   synth_.Init(left_buf_, right_buf_, filemgr_.GetSamplesPerChannel());
 1897              		.loc 3 382 33 is_stmt 1 view -0
 1898              		.cfi_startproc
ARM GAS  /var/folders/2p/02m_5p7958535cp2tpgps0400000gn/T//cchBTf64.s 			page 61


 1899              		@ args = 0, pretend = 0, frame = 0
 1900              		@ frame_needed = 0, uses_anonymous_args = 0
 383:GrannyChordApp.cpp ****   InitPrevParamVals();
 1901              		.loc 3 383 3 view .LVU522
 383:GrannyChordApp.cpp ****   InitPrevParamVals();
 1902              		.loc 3 383 38 is_stmt 0 view .LVU523
 1903 0000 D0F87022 		ldr	r2, [r0, #624]
 1904              	.LVL139:
 1905              	.LBB454:
 1906              	.LBI454:
  27:AudioFileManager.h ****     size_t GetTotalSamples() const { return header_.total_samples; }
 1907              		.loc 8 27 12 is_stmt 1 view .LVU524
 1908              	.LBB455:
  27:AudioFileManager.h ****     size_t GetTotalSamples() const { return header_.total_samples; }
 1909              		.loc 8 27 43 view .LVU525
  27:AudioFileManager.h ****     size_t GetTotalSamples() const { return header_.total_samples; }
 1910              		.loc 8 27 43 is_stmt 0 view .LVU526
 1911              	.LBE455:
 1912              	.LBE454:
 383:GrannyChordApp.cpp ****   InitPrevParamVals();
 1913              		.loc 3 383 14 view .LVU527
 1914 0004 00F58041 		add	r1, r0, #16384
 1915              	.LBB457:
 1916              	.LBB456:
  27:AudioFileManager.h ****     size_t GetTotalSamples() const { return header_.total_samples; }
 1917              		.loc 8 27 58 view .LVU528
 1918 0008 02F58052 		add	r2, r2, #4096
  27:AudioFileManager.h ****     size_t GetTotalSamples() const { return header_.total_samples; }
 1919              		.loc 8 27 82 view .LVU529
 1920 000c B2F92830 		ldrsh	r3, [r2, #40]
 1921 0010 D26A     		ldr	r2, [r2, #44]
 1922              	.LBE456:
 1923              	.LBE457:
 382:GrannyChordApp.cpp ****   synth_.Init(left_buf_, right_buf_, filemgr_.GetSamplesPerChannel());
 1924              		.loc 3 382 33 view .LVU530
 1925 0012 10B5     		push	{r4, lr}
 1926              		.cfi_def_cfa_offset 8
 1927              		.cfi_offset 4, -8
 1928              		.cfi_offset 14, -4
 382:GrannyChordApp.cpp ****   synth_.Init(left_buf_, right_buf_, filemgr_.GetSamplesPerChannel());
 1929              		.loc 3 382 33 view .LVU531
 1930 0014 0446     		mov	r4, r0
 383:GrannyChordApp.cpp ****   InitPrevParamVals();
 1931              		.loc 3 383 14 view .LVU532
 1932 0016 2030     		adds	r0, r0, #32
 1933              	.LVL140:
 383:GrannyChordApp.cpp ****   InitPrevParamVals();
 1934              		.loc 3 383 14 view .LVU533
 1935 0018 B2FBF3F3 		udiv	r3, r2, r3
 1936 001c D1F8A02E 		ldr	r2, [r1, #3744]
 1937 0020 D1F89C1E 		ldr	r1, [r1, #3740]
 1938 0024 FFF7FEFF 		bl	_ZN13GranularSynth4InitEPsS0_j
 1939              	.LVL141:
 384:GrannyChordApp.cpp ****   DebugPrint(pod_,"synth init ok - samples %u",filemgr_.GetSamplesPerChannel());
 1940              		.loc 3 384 3 is_stmt 1 view .LVU534
 384:GrannyChordApp.cpp ****   DebugPrint(pod_,"synth init ok - samples %u",filemgr_.GetSamplesPerChannel());
 1941              		.loc 3 384 20 is_stmt 0 view .LVU535
ARM GAS  /var/folders/2p/02m_5p7958535cp2tpgps0400000gn/T//cchBTf64.s 			page 62


 1942 0028 2046     		mov	r0, r4
 1943 002a FFF7FEFF 		bl	_ZN14GrannyChordApp17InitPrevParamValsEv
 1944              	.LVL142:
 385:GrannyChordApp.cpp **** }
 1945              		.loc 3 385 3 is_stmt 1 view .LVU536
 385:GrannyChordApp.cpp **** }
 1946              		.loc 3 385 3 view .LVU537
 1947 002e D4F87032 		ldr	r3, [r4, #624]
 1948              	.LVL143:
 1949              	.LBB458:
 1950              	.LBI458:
  27:AudioFileManager.h ****     size_t GetTotalSamples() const { return header_.total_samples; }
 1951              		.loc 8 27 12 view .LVU538
 1952              	.LBB459:
  27:AudioFileManager.h ****     size_t GetTotalSamples() const { return header_.total_samples; }
 1953              		.loc 8 27 43 view .LVU539
  27:AudioFileManager.h ****     size_t GetTotalSamples() const { return header_.total_samples; }
 1954              		.loc 8 27 43 is_stmt 0 view .LVU540
 1955              	.LBE459:
 1956              	.LBE458:
 1957              	.LBB461:
 1958              	.LBI461:
 126:../libDaisy/src/daisy_seed.h ****     {
 1959              		.loc 5 126 17 is_stmt 1 view .LVU541
 1960              	.LBB462:
 1961              		.loc 5 128 23 is_stmt 0 view .LVU542
 1962 0032 0648     		ldr	r0, .L69
 1963              	.LBE462:
 1964              	.LBE461:
 1965              	.LBB464:
 1966              	.LBB460:
  27:AudioFileManager.h ****     size_t GetTotalSamples() const { return header_.total_samples; }
 1967              		.loc 8 27 58 view .LVU543
 1968 0034 03F58053 		add	r3, r3, #4096
 1969              	.LVL144:
  27:AudioFileManager.h ****     size_t GetTotalSamples() const { return header_.total_samples; }
 1970              		.loc 8 27 82 view .LVU544
 1971 0038 B3F92820 		ldrsh	r2, [r3, #40]
 1972 003c D96A     		ldr	r1, [r3, #44]
 1973              	.LBE460:
 1974              	.LBE464:
 386:GrannyChordApp.cpp **** 
 1975              		.loc 3 386 1 view .LVU545
 1976 003e BDE81040 		pop	{r4, lr}
 1977              		.cfi_restore 14
 1978              		.cfi_restore 4
 1979              		.cfi_def_cfa_offset 0
 1980              	.LVL145:
 1981              	.LBB465:
 1982              	.LBB463:
 1983              		.loc 5 128 23 view .LVU546
 1984 0042 B1FBF2F1 		udiv	r1, r1, r2
 1985 0046 FFF7FEBF 		b	_ZN5daisy6LoggerILNS_17LoggerDestinationE1EE9PrintLineEPKcz
 1986              	.LVL146:
 1987              	.L70:
 1988              		.loc 5 128 23 view .LVU547
 1989 004a 00BF     		.align	2
ARM GAS  /var/folders/2p/02m_5p7958535cp2tpgps0400000gn/T//cchBTf64.s 			page 63


 1990              	.L69:
 1991 004c 00000000 		.word	.LC8
 1992              	.LBE463:
 1993              	.LBE465:
 1994              		.cfi_endproc
 1995              	.LFE4930:
 1997              		.section	.text._ZN14GrannyChordApp13ResetPassThruEv,"ax",%progbits
 1998              		.align	1
 1999              		.global	_ZN14GrannyChordApp13ResetPassThruEv
 2000              		.syntax unified
 2001              		.thumb
 2002              		.thumb_func
 2004              	_ZN14GrannyChordApp13ResetPassThruEv:
 2005              	.LVL147:
 2006              	.LFB4936:
 446:GrannyChordApp.cpp **** 
 447:GrannyChordApp.cpp **** void GrannyChordApp::ResetPassThru(){
 2007              		.loc 3 447 37 is_stmt 1 view -0
 2008              		.cfi_startproc
 2009              		@ args = 0, pretend = 0, frame = 0
 2010              		@ frame_needed = 0, uses_anonymous_args = 0
 448:GrannyChordApp.cpp ****     int mode_idx = static_cast<int>(curr_synth_mode_);
 2011              		.loc 3 448 5 view .LVU549
 447:GrannyChordApp.cpp ****     int mode_idx = static_cast<int>(curr_synth_mode_);
 2012              		.loc 3 447 37 is_stmt 0 view .LVU550
 2013 0000 38B5     		push	{r3, r4, r5, lr}
 2014              		.cfi_def_cfa_offset 16
 2015              		.cfi_offset 3, -16
 2016              		.cfi_offset 4, -12
 2017              		.cfi_offset 5, -8
 2018              		.cfi_offset 14, -4
 447:GrannyChordApp.cpp ****     int mode_idx = static_cast<int>(curr_synth_mode_);
 2019              		.loc 3 447 37 view .LVU551
 2020 0002 0446     		mov	r4, r0
 2021              		.loc 3 448 9 view .LVU552
 2022 0004 D0F88052 		ldr	r5, [r0, #640]
 2023              	.LVL148:
 449:GrannyChordApp.cpp ****     stored_k1[mode_idx] = pod_.knob1.Process();
 2024              		.loc 3 449 5 is_stmt 1 view .LVU553
 2025              		.loc 3 449 45 is_stmt 0 view .LVU554
 2026 0008 C069     		ldr	r0, [r0, #28]
 2027              	.LVL149:
 2028              		.loc 3 449 45 view .LVU555
 2029 000a 04EB8505 		add	r5, r4, r5, lsl #2
 2030              	.LVL150:
 2031              		.loc 3 449 45 view .LVU556
 2032 000e 6830     		adds	r0, r0, #104
 2033              		.loc 3 449 25 view .LVU557
 2034 0010 05F58045 		add	r5, r5, #16384
 2035              		.loc 3 449 45 view .LVU558
 2036 0014 FFF7FEFF 		bl	_ZN5daisy13AnalogControl7ProcessEv
 2037              	.LVL151:
 2038              		.loc 3 449 25 view .LVU559
 2039 0018 05F57763 		add	r3, r5, #3952
 450:GrannyChordApp.cpp ****     stored_k2[mode_idx] = pod_.knob2.Process();
 2040              		.loc 3 450 25 view .LVU560
 2041 001c 05F57965 		add	r5, r5, #3984
ARM GAS  /var/folders/2p/02m_5p7958535cp2tpgps0400000gn/T//cchBTf64.s 			page 64


 449:GrannyChordApp.cpp ****     stored_k1[mode_idx] = pod_.knob1.Process();
 2042              		.loc 3 449 25 view .LVU561
 2043 0020 83ED000A 		vstr.32	s0, [r3]
 2044              		.loc 3 450 5 is_stmt 1 view .LVU562
 2045              		.loc 3 450 45 is_stmt 0 view .LVU563
 2046 0024 E069     		ldr	r0, [r4, #28]
 451:GrannyChordApp.cpp ****     pass_thru_k1 = false;
 2047              		.loc 3 451 18 view .LVU564
 2048 0026 04F58044 		add	r4, r4, #16384
 2049              	.LVL152:
 450:GrannyChordApp.cpp ****     stored_k2[mode_idx] = pod_.knob2.Process();
 2050              		.loc 3 450 45 view .LVU565
 2051 002a 8830     		adds	r0, r0, #136
 2052 002c FFF7FEFF 		bl	_ZN5daisy13AnalogControl7ProcessEv
 2053              	.LVL153:
 2054              		.loc 3 451 18 view .LVU566
 2055 0030 0023     		movs	r3, #0
 450:GrannyChordApp.cpp ****     stored_k2[mode_idx] = pod_.knob2.Process();
 2056              		.loc 3 450 25 view .LVU567
 2057 0032 85ED000A 		vstr.32	s0, [r5]
 2058              		.loc 3 451 5 is_stmt 1 view .LVU568
 452:GrannyChordApp.cpp ****     pass_thru_k2 = false;
 2059              		.loc 3 452 5 view .LVU569
 451:GrannyChordApp.cpp ****     pass_thru_k1 = false;
 2060              		.loc 3 451 18 is_stmt 0 view .LVU570
 2061 0036 A4F8B03F 		strh	r3, [r4, #4016]	@ movhi
 453:GrannyChordApp.cpp **** }
 2062              		.loc 3 453 1 view .LVU571
 2063 003a 38BD     		pop	{r3, r4, r5, pc}
 2064              		.loc 3 453 1 view .LVU572
 2065              		.cfi_endproc
 2066              	.LFE4936:
 2068              		.section	.rodata._ZN14GrannyChordApp18ProcessWAVPlaybackEPPfj.str1.1,"aMS",%progbits,1
 2069              	.LC9:
 2070 0000 6C3A2025 		.ascii	"l: %f, r: %f\000"
 2070      662C2072 
 2070      3A202566 
 2070      00
 2071              		.section	.text._ZN14GrannyChordApp18ProcessWAVPlaybackEPPfj,"ax",%progbits
 2072              		.align	1
 2073              		.global	_ZN14GrannyChordApp18ProcessWAVPlaybackEPPfj
 2074              		.syntax unified
 2075              		.thumb
 2076              		.thumb_func
 2078              	_ZN14GrannyChordApp18ProcessWAVPlaybackEPPfj:
 2079              	.LVL154:
 2080              	.LFB4939:
 454:GrannyChordApp.cpp **** 
 455:GrannyChordApp.cpp **** /// @brief Master audio callback, called at audio rate, calls all audio processing methods
 456:GrannyChordApp.cpp **** /// @param in Audio input buffer
 457:GrannyChordApp.cpp **** /// @param out Audio output buffer
 458:GrannyChordApp.cpp **** /// @param size Number of samples to process in this call
 459:GrannyChordApp.cpp **** void GrannyChordApp::AudioCallback(AudioHandle::InputBuffer in, AudioHandle::OutputBuffer out, size
 460:GrannyChordApp.cpp ****   instance_->ProcessAudio(in,out,size);
 461:GrannyChordApp.cpp **** }
 462:GrannyChordApp.cpp **** 
 463:GrannyChordApp.cpp **** void GrannyChordApp::ProcessAudio(AudioHandle::InputBuffer in, AudioHandle::OutputBuffer out, size_
ARM GAS  /var/folders/2p/02m_5p7958535cp2tpgps0400000gn/T//cchBTf64.s 			page 65


 464:GrannyChordApp.cpp ****   switch(curr_state_){
 465:GrannyChordApp.cpp ****     case AppState::PlayWAV:
 466:GrannyChordApp.cpp ****       if (wav_playhead_>= filemgr_.GetSamplesPerChannel() -1){
 467:GrannyChordApp.cpp ****         instance_->pod_.StopAudio();
 468:GrannyChordApp.cpp ****         DebugPrint(pod_, "stopped audio > len"); 
 469:GrannyChordApp.cpp ****         return;
 470:GrannyChordApp.cpp ****       }
 471:GrannyChordApp.cpp ****       ProcessWAVPlayback(out,size);
 472:GrannyChordApp.cpp ****       return;  
 473:GrannyChordApp.cpp ****     case AppState::RecordIn:
 474:GrannyChordApp.cpp ****       ProcessRecordIn(in, out, size);
 475:GrannyChordApp.cpp ****       return;
 476:GrannyChordApp.cpp ****     case AppState::Synthesis:
 477:GrannyChordApp.cpp ****       ProcessSynthesis(out,size);
 478:GrannyChordApp.cpp ****       return;
 479:GrannyChordApp.cpp ****     // case AppState::ChordMode:
 480:GrannyChordApp.cpp ****     // return;
 481:GrannyChordApp.cpp ****     default:
 482:GrannyChordApp.cpp ****       return;
 483:GrannyChordApp.cpp ****   }
 484:GrannyChordApp.cpp **** }
 485:GrannyChordApp.cpp **** 
 486:GrannyChordApp.cpp **** /// @brief Process audio for WAV playback mode and increment playback position
 487:GrannyChordApp.cpp **** /// @param out Output audio buffer
 488:GrannyChordApp.cpp **** /// @param size Number of samples to process in this call
 489:GrannyChordApp.cpp **** void GrannyChordApp::ProcessWAVPlayback(AudioHandle::OutputBuffer out, size_t size){
 2081              		.loc 3 489 84 is_stmt 1 view -0
 2082              		.cfi_startproc
 2083              		@ args = 0, pretend = 0, frame = 0
 2084              		@ frame_needed = 0, uses_anonymous_args = 0
 490:GrannyChordApp.cpp ****   for (size_t i=0; i<size; i++){
 2085              		.loc 3 490 3 view .LVU574
 489:GrannyChordApp.cpp ****   for (size_t i=0; i<size; i++){
 2086              		.loc 3 489 84 is_stmt 0 view .LVU575
 2087 0000 2DE9F341 		push	{r0, r1, r4, r5, r6, r7, r8, lr}
 2088              		.cfi_def_cfa_offset 32
 2089              		.cfi_offset 4, -24
 2090              		.cfi_offset 5, -20
 2091              		.cfi_offset 6, -16
 2092              		.cfi_offset 7, -12
 2093              		.cfi_offset 8, -8
 2094              		.cfi_offset 14, -4
 489:GrannyChordApp.cpp ****   for (size_t i=0; i<size; i++){
 2095              		.loc 3 489 84 view .LVU576
 2096 0004 0646     		mov	r6, r0
 2097 0006 0D46     		mov	r5, r1
 2098 0008 9046     		mov	r8, r2
 2099              	.LBB475:
 2100              		.loc 3 490 15 view .LVU577
 2101 000a 0024     		movs	r4, #0
 2102              	.LVL155:
 2103              	.L76:
 2104              		.loc 3 490 21 is_stmt 1 discriminator 1 view .LVU578
 2105 000c 4445     		cmp	r4, r8
 2106 000e 5ED0     		beq	.L72
 491:GrannyChordApp.cpp ****     counter++;
 2107              		.loc 3 491 5 view .LVU579
ARM GAS  /var/folders/2p/02m_5p7958535cp2tpgps0400000gn/T//cchBTf64.s 			page 66


 2108 0010 06F5504C 		add	ip, r6, #53248
 492:GrannyChordApp.cpp ****     if (wav_playhead_ < filemgr_.GetSamplesPerChannel()){
 2109              		.loc 3 492 25 is_stmt 0 view .LVU580
 2110 0014 D6F87072 		ldr	r7, [r6, #624]
 2111              		.loc 3 492 9 view .LVU581
 2112 0018 06F58040 		add	r0, r6, #16384
 491:GrannyChordApp.cpp ****     counter++;
 2113              		.loc 3 491 12 view .LVU582
 2114 001c DCF87432 		ldr	r3, [ip, #628]
 2115              	.LBB476:
 2116              	.LBB477:
  27:AudioFileManager.h ****     size_t GetTotalSamples() const { return header_.total_samples; }
 2117              		.loc 8 27 58 view .LVU583
 2118 0020 07F58057 		add	r7, r7, #4096
 2119              	.LBE477:
 2120              	.LBE476:
 491:GrannyChordApp.cpp ****     counter++;
 2121              		.loc 3 491 12 view .LVU584
 2122 0024 0133     		adds	r3, r3, #1
 2123              	.LBB481:
 2124              	.LBB478:
  27:AudioFileManager.h ****     size_t GetTotalSamples() const { return header_.total_samples; }
 2125              		.loc 8 27 82 view .LVU585
 2126 0026 B7F928E0 		ldrsh	lr, [r7, #40]
 2127              	.LBE478:
 2128              	.LBE481:
 491:GrannyChordApp.cpp ****     counter++;
 2129              		.loc 3 491 12 view .LVU586
 2130 002a CCF87432 		str	r3, [ip, #628]
 2131              		.loc 3 492 5 is_stmt 1 view .LVU587
 2132              	.LBB482:
 2133              	.LBI476:
  27:AudioFileManager.h ****     size_t GetTotalSamples() const { return header_.total_samples; }
 2134              		.loc 8 27 12 view .LVU588
 2135              	.LBB479:
  27:AudioFileManager.h ****     size_t GetTotalSamples() const { return header_.total_samples; }
 2136              		.loc 8 27 43 view .LVU589
  27:AudioFileManager.h ****     size_t GetTotalSamples() const { return header_.total_samples; }
 2137              		.loc 8 27 82 is_stmt 0 view .LVU590
 2138 002e FA6A     		ldr	r2, [r7, #44]
 2139              	.LBE479:
 2140              	.LBE482:
 2141              		.loc 3 492 9 view .LVU591
 2142 0030 D0F8A81E 		ldr	r1, [r0, #3752]
 2143              	.LBB483:
 2144              	.LBB480:
  27:AudioFileManager.h ****     size_t GetTotalSamples() const { return header_.total_samples; }
 2145              		.loc 8 27 82 view .LVU592
 2146 0034 B2FBFEF2 		udiv	r2, r2, lr
 2147              	.LBE480:
 2148              	.LBE483:
 2149              		.loc 3 492 5 view .LVU593
 2150 0038 9142     		cmp	r1, r2
 2151 003a 28D2     		bcs	.L74
 493:GrannyChordApp.cpp ****       out[0][i] = s162f(left_buf_[wav_playhead_]) * 0.5f;
 2152              		.loc 3 493 7 is_stmt 1 view .LVU594
 2153              	.LBB484:
ARM GAS  /var/folders/2p/02m_5p7958535cp2tpgps0400000gn/T//cchBTf64.s 			page 67


 2154              	.LBI484:
 2155              		.file 12 "../libDaisy/src/daisy_core.h"
   1:../libDaisy/src/daisy_core.h **** #pragma once
   2:../libDaisy/src/daisy_core.h **** #ifndef DSY_CORE_HW_H
   3:../libDaisy/src/daisy_core.h **** #define DSY_CORE_HW_H /**< & */
   4:../libDaisy/src/daisy_core.h **** #include <stdint.h>
   5:../libDaisy/src/daisy_core.h **** #include <stdlib.h>
   6:../libDaisy/src/daisy_core.h **** 
   7:../libDaisy/src/daisy_core.h **** #if defined(_MSC_VER)
   8:../libDaisy/src/daisy_core.h **** #define FORCE_INLINE __forceinline /**< & */
   9:../libDaisy/src/daisy_core.h **** #elif defined(__clang__)
  10:../libDaisy/src/daisy_core.h **** #define FORCE_INLINE inline __attribute__((always_inline)) /**< & */
  11:../libDaisy/src/daisy_core.h **** #pragma clang diagnostic ignored "-Wduplicate-decl-specifier"
  12:../libDaisy/src/daisy_core.h **** #elif defined(__GNUC__)
  13:../libDaisy/src/daisy_core.h **** #define FORCE_INLINE inline __attribute__((always_inline)) /**< & */
  14:../libDaisy/src/daisy_core.h **** #else
  15:../libDaisy/src/daisy_core.h **** #error unknown compiler
  16:../libDaisy/src/daisy_core.h **** #endif
  17:../libDaisy/src/daisy_core.h **** 
  18:../libDaisy/src/daisy_core.h **** /** @addtogroup utility
  19:../libDaisy/src/daisy_core.h ****     @{
  20:../libDaisy/src/daisy_core.h **** */
  21:../libDaisy/src/daisy_core.h **** 
  22:../libDaisy/src/daisy_core.h **** /** Macro for area of memory that is configured as cacheless
  23:../libDaisy/src/daisy_core.h **** This should be used primarily for DMA buffers, and the like.
  24:../libDaisy/src/daisy_core.h **** */
  25:../libDaisy/src/daisy_core.h **** #define DMA_BUFFER_MEM_SECTION __attribute__((section(".sram1_bss")))
  26:../libDaisy/src/daisy_core.h **** /** 
  27:../libDaisy/src/daisy_core.h **** THE DTCM RAM section is also non-cached. However, is not suitable 
  28:../libDaisy/src/daisy_core.h **** for DMA transfers. Performance is on par with internal SRAM w/ 
  29:../libDaisy/src/daisy_core.h **** cache enabled.
  30:../libDaisy/src/daisy_core.h **** */
  31:../libDaisy/src/daisy_core.h **** #define DTCM_MEM_SECTION __attribute__((section(".dtcmram_bss")))
  32:../libDaisy/src/daisy_core.h **** 
  33:../libDaisy/src/daisy_core.h **** #define FBIPMAX 0.999985f             /**< close to 1.0f-LSB at 16 bit */
  34:../libDaisy/src/daisy_core.h **** #define FBIPMIN (-FBIPMAX)            /**< - (1 - LSB) */
  35:../libDaisy/src/daisy_core.h **** #define U82F_SCALE 0.0078740f         /**< 1 / 127 */
  36:../libDaisy/src/daisy_core.h **** #define F2U8_SCALE 127.0f             /**< 128 - 1 */
  37:../libDaisy/src/daisy_core.h **** #define S82F_SCALE 0.0078125f         /**< 1 / (2**7) */
  38:../libDaisy/src/daisy_core.h **** #define F2S8_SCALE 127.0f             /**< (2 ** 7) - 1 */
  39:../libDaisy/src/daisy_core.h **** #define S162F_SCALE 3.0517578125e-05f /**< 1 / (2** 15) */
  40:../libDaisy/src/daisy_core.h **** #define F2S16_SCALE 32767.0f          /**< (2 ** 15) - 1 */
  41:../libDaisy/src/daisy_core.h **** #define F2S24_SCALE 8388608.0f        /**< 2 ** 23 */
  42:../libDaisy/src/daisy_core.h **** #define S242F_SCALE 1.192092896e-07f  /**< 1 / (2 ** 23) */
  43:../libDaisy/src/daisy_core.h **** #define S24SIGN 0x800000              /**< 2 ** 23 */
  44:../libDaisy/src/daisy_core.h **** #define S322F_SCALE 4.6566129e-10f    /**< 1 / (2** 31) */
  45:../libDaisy/src/daisy_core.h **** #define F2S32_SCALE 2147483647.f      /**< (2 ** 31) - 1 */
  46:../libDaisy/src/daisy_core.h **** 
  47:../libDaisy/src/daisy_core.h **** 
  48:../libDaisy/src/daisy_core.h **** /** shorthand macro for simplifying the reading of the left 
  49:../libDaisy/src/daisy_core.h ****  *  channel of a non-interleaved output buffer named out */
  50:../libDaisy/src/daisy_core.h **** #define OUT_L out[0]
  51:../libDaisy/src/daisy_core.h **** 
  52:../libDaisy/src/daisy_core.h **** /** shorthand macro for simplifying the reading of the right 
  53:../libDaisy/src/daisy_core.h ****  *  channel of a non-interleaved output buffer named out */
  54:../libDaisy/src/daisy_core.h **** #define OUT_R out[1]
  55:../libDaisy/src/daisy_core.h **** 
ARM GAS  /var/folders/2p/02m_5p7958535cp2tpgps0400000gn/T//cchBTf64.s 			page 68


  56:../libDaisy/src/daisy_core.h **** /** shorthand macro for simplifying the reading of the left 
  57:../libDaisy/src/daisy_core.h ****  *  channel of a non-interleaved input buffer named in */
  58:../libDaisy/src/daisy_core.h **** #define IN_L in[0]
  59:../libDaisy/src/daisy_core.h **** 
  60:../libDaisy/src/daisy_core.h **** /** shorthand macro for simplifying the reading of the right 
  61:../libDaisy/src/daisy_core.h ****  *  channel of a non-interleaved input buffer named in */
  62:../libDaisy/src/daisy_core.h **** #define IN_R in[1]
  63:../libDaisy/src/daisy_core.h **** 
  64:../libDaisy/src/daisy_core.h **** /** 
  65:../libDaisy/src/daisy_core.h ****     Computes cube.
  66:../libDaisy/src/daisy_core.h ****     \param x Number to be cubed
  67:../libDaisy/src/daisy_core.h ****     \return x ^ 3
  68:../libDaisy/src/daisy_core.h **** */
  69:../libDaisy/src/daisy_core.h **** FORCE_INLINE float cube(float x)
  70:../libDaisy/src/daisy_core.h **** {
  71:../libDaisy/src/daisy_core.h ****     return (x * x) * x;
  72:../libDaisy/src/daisy_core.h **** }
  73:../libDaisy/src/daisy_core.h **** 
  74:../libDaisy/src/daisy_core.h **** /** 
  75:../libDaisy/src/daisy_core.h ****     Converts unsigned 8-bit to float
  76:../libDaisy/src/daisy_core.h ****     \param x Number to be scaled.
  77:../libDaisy/src/daisy_core.h ****     \return Scaled number.
  78:../libDaisy/src/daisy_core.h **** */
  79:../libDaisy/src/daisy_core.h **** FORCE_INLINE float u82f(uint8_t x)
  80:../libDaisy/src/daisy_core.h **** {
  81:../libDaisy/src/daisy_core.h ****     return ((float)x - 127.f) * U82F_SCALE;
  82:../libDaisy/src/daisy_core.h **** }
  83:../libDaisy/src/daisy_core.h **** 
  84:../libDaisy/src/daisy_core.h **** /**
  85:../libDaisy/src/daisy_core.h ****     Converts float to unsigned 8-bit
  86:../libDaisy/src/daisy_core.h **** */
  87:../libDaisy/src/daisy_core.h **** FORCE_INLINE uint8_t f2u8(float x)
  88:../libDaisy/src/daisy_core.h **** {
  89:../libDaisy/src/daisy_core.h ****     x = x <= FBIPMIN ? FBIPMIN : x;
  90:../libDaisy/src/daisy_core.h ****     x = x >= FBIPMAX ? FBIPMAX : x;
  91:../libDaisy/src/daisy_core.h ****     return (uint8_t)((x * F2U8_SCALE) + F2U8_SCALE);
  92:../libDaisy/src/daisy_core.h **** }
  93:../libDaisy/src/daisy_core.h **** 
  94:../libDaisy/src/daisy_core.h **** 
  95:../libDaisy/src/daisy_core.h **** /** 
  96:../libDaisy/src/daisy_core.h ****     Converts Signed 8-bit to float
  97:../libDaisy/src/daisy_core.h ****     \param x Number to be scaled.
  98:../libDaisy/src/daisy_core.h ****     \return Scaled number.
  99:../libDaisy/src/daisy_core.h **** */
 100:../libDaisy/src/daisy_core.h **** FORCE_INLINE float s82f(int8_t x)
 101:../libDaisy/src/daisy_core.h **** {
 102:../libDaisy/src/daisy_core.h ****     return (float)x * S82F_SCALE;
 103:../libDaisy/src/daisy_core.h **** }
 104:../libDaisy/src/daisy_core.h **** 
 105:../libDaisy/src/daisy_core.h **** /**
 106:../libDaisy/src/daisy_core.h ****     Converts float to Signed 8-bit
 107:../libDaisy/src/daisy_core.h **** */
 108:../libDaisy/src/daisy_core.h **** FORCE_INLINE int8_t f2s8(float x)
 109:../libDaisy/src/daisy_core.h **** {
 110:../libDaisy/src/daisy_core.h ****     x = x <= FBIPMIN ? FBIPMIN : x;
 111:../libDaisy/src/daisy_core.h ****     x = x >= FBIPMAX ? FBIPMAX : x;
 112:../libDaisy/src/daisy_core.h ****     return (int32_t)(x * F2S8_SCALE);
ARM GAS  /var/folders/2p/02m_5p7958535cp2tpgps0400000gn/T//cchBTf64.s 			page 69


 113:../libDaisy/src/daisy_core.h **** }
 114:../libDaisy/src/daisy_core.h **** 
 115:../libDaisy/src/daisy_core.h **** /** 
 116:../libDaisy/src/daisy_core.h ****     Converts Signed 16-bit to float
 117:../libDaisy/src/daisy_core.h ****     \param x Number to be scaled.
 118:../libDaisy/src/daisy_core.h ****     \return Scaled number.
 119:../libDaisy/src/daisy_core.h **** */
 120:../libDaisy/src/daisy_core.h **** FORCE_INLINE float s162f(int16_t x)
 2156              		.loc 12 120 20 view .LVU595
 2157              	.LBB485:
 121:../libDaisy/src/daisy_core.h **** {
 122:../libDaisy/src/daisy_core.h ****     return (float)x * S162F_SCALE;
 2158              		.loc 12 122 5 view .LVU596
 2159              	.LBE485:
 2160              	.LBE484:
 2161              		.loc 3 493 24 is_stmt 0 view .LVU597
 2162 003c D0F89C7E 		ldr	r7, [r0, #3740]
 2163              		.loc 3 493 51 view .LVU598
 2164 0040 F6EE006A 		vmov.f32	s13, #5.0e-1
 2165              	.LBB490:
 2166              	.LBB486:
 2167              		.loc 12 122 23 view .LVU599
 2168 0044 9FED236A 		vldr.32	s12, .L77
 2169              		.loc 12 122 12 view .LVU600
 2170 0048 37F91170 		ldrsh	r7, [r7, r1, lsl #1]
 2171              	.LBE486:
 2172              	.LBE490:
 2173              		.loc 3 493 17 view .LVU601
 2174 004c 2A68     		ldr	r2, [r5]
 2175              	.LBB491:
 2176              	.LBB487:
 2177              		.loc 12 122 12 view .LVU602
 2178 004e 07EE107A 		vmov	s14, r7	@ int
 2179              	.LBE487:
 2180              	.LBE491:
 494:GrannyChordApp.cpp ****       out[1][i] = s162f(right_buf_[wav_playhead_]) * 0.5f;
 2181              		.loc 3 494 24 view .LVU603
 2182 0052 D0F8A07E 		ldr	r7, [r0, #3744]
 493:GrannyChordApp.cpp ****       out[1][i] = s162f(right_buf_[wav_playhead_]) * 0.5f;
 2183              		.loc 3 493 17 view .LVU604
 2184 0056 02EB8402 		add	r2, r2, r4, lsl #2
 2185              	.LBB492:
 2186              	.LBB493:
 2187              		.loc 12 122 12 view .LVU605
 2188 005a 37F91170 		ldrsh	r7, [r7, r1, lsl #1]
 2189              	.LBE493:
 2190              	.LBE492:
 2191              	.LBB498:
 2192              	.LBB488:
 2193 005e B8EEC77A 		vcvt.f32.s32	s14, s14
 2194              	.LBE488:
 2195              	.LBE498:
 495:GrannyChordApp.cpp ****       wav_playhead_++;
 2196              		.loc 3 495 20 view .LVU606
 2197 0062 0131     		adds	r1, r1, #1
 2198              	.LBB499:
 2199              	.LBB494:
ARM GAS  /var/folders/2p/02m_5p7958535cp2tpgps0400000gn/T//cchBTf64.s 			page 70


 2200              		.loc 12 122 12 view .LVU607
 2201 0064 07EE907A 		vmov	s15, r7	@ int
 2202              	.LBE494:
 2203              	.LBE499:
 2204              	.LBB500:
 2205              	.LBB489:
 2206              		.loc 12 122 23 view .LVU608
 2207 0068 27EE067A 		vmul.f32	s14, s14, s12
 2208              	.LBE489:
 2209              	.LBE500:
 2210              	.LBB501:
 2211              	.LBB495:
 2212              		.loc 12 122 12 view .LVU609
 2213 006c F8EEE77A 		vcvt.f32.s32	s15, s15
 2214              	.LBE495:
 2215              	.LBE501:
 493:GrannyChordApp.cpp ****       out[1][i] = s162f(right_buf_[wav_playhead_]) * 0.5f;
 2216              		.loc 3 493 51 view .LVU610
 2217 0070 27EE267A 		vmul.f32	s14, s14, s13
 2218              	.LBB502:
 2219              	.LBB496:
 2220              		.loc 12 122 23 view .LVU611
 2221 0074 67EE867A 		vmul.f32	s15, s15, s12
 2222              	.LBE496:
 2223              	.LBE502:
 493:GrannyChordApp.cpp ****       out[1][i] = s162f(right_buf_[wav_playhead_]) * 0.5f;
 2224              		.loc 3 493 17 view .LVU612
 2225 0078 82ED007A 		vstr.32	s14, [r2]
 494:GrannyChordApp.cpp ****       out[1][i] = s162f(right_buf_[wav_playhead_]) * 0.5f;
 2226              		.loc 3 494 7 is_stmt 1 view .LVU613
 2227              	.LBB503:
 2228              	.LBI492:
 120:../libDaisy/src/daisy_core.h **** {
 2229              		.loc 12 120 20 view .LVU614
 2230              	.LBB497:
 2231              		.loc 12 122 5 view .LVU615
 2232              	.LBE497:
 2233              	.LBE503:
 494:GrannyChordApp.cpp ****       wav_playhead_++;
 2234              		.loc 3 494 17 is_stmt 0 view .LVU616
 2235 007c 6A68     		ldr	r2, [r5, #4]
 494:GrannyChordApp.cpp ****       wav_playhead_++;
 2236              		.loc 3 494 52 view .LVU617
 2237 007e 67EEA67A 		vmul.f32	s15, s15, s13
 494:GrannyChordApp.cpp ****       wav_playhead_++;
 2238              		.loc 3 494 17 view .LVU618
 2239 0082 02EB8402 		add	r2, r2, r4, lsl #2
 2240 0086 C2ED007A 		vstr.32	s15, [r2]
 2241              		.loc 3 495 7 is_stmt 1 view .LVU619
 2242              		.loc 3 495 20 is_stmt 0 view .LVU620
 2243 008a C0F8A81E 		str	r1, [r0, #3752]
 2244              	.L74:
 496:GrannyChordApp.cpp ****     }
 497:GrannyChordApp.cpp ****     if (counter%128000==0){
 2245              		.loc 3 497 5 is_stmt 1 view .LVU621
 2246 008e 4FF4FA32 		mov	r2, #128000
 2247 0092 B3FBF2F1 		udiv	r1, r3, r2
ARM GAS  /var/folders/2p/02m_5p7958535cp2tpgps0400000gn/T//cchBTf64.s 			page 71


 2248 0096 02FB1133 		mls	r3, r2, r1, r3
 2249 009a B3B9     		cbnz	r3, .L75
 498:GrannyChordApp.cpp ****       counter=0;
 2250              		.loc 3 498 7 view .LVU622
 2251              		.loc 3 498 14 is_stmt 0 view .LVU623
 2252 009c CCF87432 		str	r3, [ip, #628]
 499:GrannyChordApp.cpp ****       DebugPrint(pod_, "l: %f, r: %f", out[0][i],out[1][i]);
 2253              		.loc 3 499 7 is_stmt 1 view .LVU624
 2254              		.loc 3 499 7 view .LVU625
 2255              	.LVL156:
 2256              	.LBB504:
 2257              	.LBI504:
 126:../libDaisy/src/daisy_seed.h ****     {
 2258              		.loc 5 126 17 view .LVU626
 2259              	.LBE504:
 2260              		.loc 3 499 7 is_stmt 0 view .LVU627
 2261 00a0 2B68     		ldr	r3, [r5]
 2262              	.LBB508:
 2263              	.LBB505:
 2264              		.loc 5 128 23 view .LVU628
 2265 00a2 0D48     		ldr	r0, .L77+4
 2266              	.LBE505:
 2267              	.LBE508:
 2268              		.loc 3 499 7 view .LVU629
 2269 00a4 03EB8403 		add	r3, r3, r4, lsl #2
 2270              	.LVL157:
 2271              	.LBB509:
 2272              	.LBB506:
 2273              		.loc 5 128 23 view .LVU630
 2274 00a8 D3ED006A 		vldr.32	s13, [r3]
 2275              	.LBE506:
 2276              	.LBE509:
 2277              		.loc 3 499 7 view .LVU631
 2278 00ac 6B68     		ldr	r3, [r5, #4]
 2279              	.LVL158:
 2280              		.loc 3 499 7 view .LVU632
 2281 00ae 03EB8403 		add	r3, r3, r4, lsl #2
 2282              	.LVL159:
 2283              	.LBB510:
 2284              	.LBB507:
 2285              		.loc 5 128 23 view .LVU633
 2286 00b2 93ED007A 		vldr.32	s14, [r3]
 2287 00b6 B7EEC77A 		vcvt.f64.f32	d7, s14
 2288 00ba 8DED007B 		vstr.64	d7, [sp]
 2289              	.LVL160:
 2290              		.loc 5 128 23 view .LVU634
 2291 00be B7EEE67A 		vcvt.f64.f32	d7, s13
 2292 00c2 53EC172B 		vmov	r2, r3, d7
 2293 00c6 FFF7FEFF 		bl	_ZN5daisy6LoggerILNS_17LoggerDestinationE1EE9PrintLineEPKcz
 2294              	.LVL161:
 2295              	.L75:
 2296              		.loc 5 128 23 view .LVU635
 2297              	.LBE507:
 2298              	.LBE510:
 490:GrannyChordApp.cpp ****     counter++;
 2299              		.loc 3 490 3 is_stmt 1 discriminator 2 view .LVU636
 2300 00ca 0134     		adds	r4, r4, #1
ARM GAS  /var/folders/2p/02m_5p7958535cp2tpgps0400000gn/T//cchBTf64.s 			page 72


 2301              	.LVL162:
 490:GrannyChordApp.cpp ****     counter++;
 2302              		.loc 3 490 3 is_stmt 0 discriminator 2 view .LVU637
 2303 00cc 9EE7     		b	.L76
 2304              	.L72:
 490:GrannyChordApp.cpp ****     counter++;
 2305              		.loc 3 490 3 discriminator 2 view .LVU638
 2306              	.LBE475:
 500:GrannyChordApp.cpp ****     }
 501:GrannyChordApp.cpp ****   }
 502:GrannyChordApp.cpp **** }
 2307              		.loc 3 502 1 view .LVU639
 2308 00ce 02B0     		add	sp, sp, #8
 2309              		.cfi_def_cfa_offset 24
 2310              		@ sp needed
 2311 00d0 BDE8F081 		pop	{r4, r5, r6, r7, r8, pc}
 2312              	.LVL163:
 2313              	.L78:
 2314              		.loc 3 502 1 view .LVU640
 2315              		.align	2
 2316              	.L77:
 2317 00d4 00000038 		.word	939524096
 2318 00d8 00000000 		.word	.LC9
 2319              		.cfi_endproc
 2320              	.LFE4939:
 2322              		.section	.text._ZN14GrannyChordApp15ProcessRecordInEPKPKfPPfj,"ax",%progbits
 2323              		.align	1
 2324              		.global	_ZN14GrannyChordApp15ProcessRecordInEPKPKfPPfj
 2325              		.syntax unified
 2326              		.thumb
 2327              		.thumb_func
 2329              	_ZN14GrannyChordApp15ProcessRecordInEPKPKfPPfj:
 2330              	.LVL164:
 2331              	.LFB4940:
 503:GrannyChordApp.cpp **** 
 504:GrannyChordApp.cpp **** /// @brief Process input audio when app is in RecordIn state
 505:GrannyChordApp.cpp **** /// @param in Input audio buffer
 506:GrannyChordApp.cpp **** /// @param out Output audio buffer
 507:GrannyChordApp.cpp **** /// @param size Number of samples to process in this call
 508:GrannyChordApp.cpp **** void GrannyChordApp::ProcessRecordIn(AudioHandle::InputBuffer in, AudioHandle::OutputBuffer out, si
 2332              		.loc 3 508 110 is_stmt 1 view -0
 2333              		.cfi_startproc
 2334              		@ args = 0, pretend = 0, frame = 0
 2335              		@ frame_needed = 0, uses_anonymous_args = 0
 509:GrannyChordApp.cpp ****   const size_t MAX_RECORDING_LEN = 120*48000; /* 120s @ 48kHZ */
 2336              		.loc 3 509 3 view .LVU642
 510:GrannyChordApp.cpp ****   for (size_t i=0; i<size;i++){
 2337              		.loc 3 510 3 view .LVU643
 508:GrannyChordApp.cpp ****   const size_t MAX_RECORDING_LEN = 120*48000; /* 120s @ 48kHZ */
 2338              		.loc 3 508 110 is_stmt 0 view .LVU644
 2339 0000 F0B5     		push	{r4, r5, r6, r7, lr}
 2340              		.cfi_def_cfa_offset 20
 2341              		.cfi_offset 4, -20
 2342              		.cfi_offset 5, -16
 2343              		.cfi_offset 6, -12
 2344              		.cfi_offset 7, -8
 2345              		.cfi_offset 14, -4
ARM GAS  /var/folders/2p/02m_5p7958535cp2tpgps0400000gn/T//cchBTf64.s 			page 73


 2346              	.LBB511:
 2347              		.loc 3 510 15 view .LVU645
 2348 0002 0025     		movs	r5, #0
 2349              	.LVL165:
 2350              	.L81:
 2351              		.loc 3 510 21 is_stmt 1 discriminator 3 view .LVU646
 2352 0004 9D42     		cmp	r5, r3
 2353 0006 33D0     		beq	.L79
 511:GrannyChordApp.cpp ****     /* send audio in straight to output for monitoring */
 512:GrannyChordApp.cpp ****     out[0][i]=in[0][i];
 2354              		.loc 3 512 5 discriminator 2 view .LVU647
 2355              		.loc 3 512 22 is_stmt 0 discriminator 2 view .LVU648
 2356 0008 0E68     		ldr	r6, [r1]
 513:GrannyChordApp.cpp ****     out[1][i]=in[1][i];
 514:GrannyChordApp.cpp ****     /* record audio in to SDRAM buffers */
 515:GrannyChordApp.cpp ****     left_buf_[record_in_pos_] = in[0][i];
 2357              		.loc 3 515 15 discriminator 2 view .LVU649
 2358 000a 00F5504C 		add	ip, r0, #53248
 512:GrannyChordApp.cpp ****     out[1][i]=in[1][i];
 2359              		.loc 3 512 14 discriminator 2 view .LVU650
 2360 000e 1468     		ldr	r4, [r2]
 2361              		.loc 3 515 31 discriminator 2 view .LVU651
 2362 0010 00F5804E 		add	lr, r0, #16384
 512:GrannyChordApp.cpp ****     out[1][i]=in[1][i];
 2363              		.loc 3 512 22 discriminator 2 view .LVU652
 2364 0014 06EB8506 		add	r6, r6, r5, lsl #2
 512:GrannyChordApp.cpp ****     out[1][i]=in[1][i];
 2365              		.loc 3 512 14 discriminator 2 view .LVU653
 2366 0018 04EB8504 		add	r4, r4, r5, lsl #2
 512:GrannyChordApp.cpp ****     out[1][i]=in[1][i];
 2367              		.loc 3 512 22 discriminator 2 view .LVU654
 2368 001c 3768     		ldr	r7, [r6]	@ float
 512:GrannyChordApp.cpp ****     out[1][i]=in[1][i];
 2369              		.loc 3 512 14 discriminator 2 view .LVU655
 2370 001e 2760     		str	r7, [r4]	@ float
 513:GrannyChordApp.cpp ****     out[1][i]=in[1][i];
 2371              		.loc 3 513 5 is_stmt 1 discriminator 2 view .LVU656
 513:GrannyChordApp.cpp ****     out[1][i]=in[1][i];
 2372              		.loc 3 513 22 is_stmt 0 discriminator 2 view .LVU657
 2373 0020 4C68     		ldr	r4, [r1, #4]
 2374              		.loc 3 515 31 discriminator 2 view .LVU658
 2375 0022 DEF89C7E 		ldr	r7, [lr, #3740]
 513:GrannyChordApp.cpp ****     out[1][i]=in[1][i];
 2376              		.loc 3 513 22 discriminator 2 view .LVU659
 2377 0026 04EB8504 		add	r4, r4, r5, lsl #2
 2378 002a D4ED007A 		vldr.32	s15, [r4]
 513:GrannyChordApp.cpp ****     out[1][i]=in[1][i];
 2379              		.loc 3 513 14 discriminator 2 view .LVU660
 2380 002e 5468     		ldr	r4, [r2, #4]
 2381 0030 04EB8504 		add	r4, r4, r5, lsl #2
 510:GrannyChordApp.cpp ****     /* send audio in straight to output for monitoring */
 2382              		.loc 3 510 3 discriminator 2 view .LVU661
 2383 0034 0135     		adds	r5, r5, #1
 2384              	.LVL166:
 513:GrannyChordApp.cpp ****     out[1][i]=in[1][i];
 2385              		.loc 3 513 14 discriminator 2 view .LVU662
 2386 0036 C4ED007A 		vstr.32	s15, [r4]
ARM GAS  /var/folders/2p/02m_5p7958535cp2tpgps0400000gn/T//cchBTf64.s 			page 74


 2387              		.loc 3 515 5 is_stmt 1 discriminator 2 view .LVU663
 516:GrannyChordApp.cpp ****     right_buf_[record_in_pos_] = in[1][i];
 2388              		.loc 3 516 32 is_stmt 0 discriminator 2 view .LVU664
 2389 003a FDEEE77A 		vcvt.s32.f32	s15, s15
 515:GrannyChordApp.cpp ****     right_buf_[record_in_pos_] = in[1][i];
 2390              		.loc 3 515 31 discriminator 2 view .LVU665
 2391 003e 96ED007A 		vldr.32	s14, [r6]
 515:GrannyChordApp.cpp ****     right_buf_[record_in_pos_] = in[1][i];
 2392              		.loc 3 515 15 discriminator 2 view .LVU666
 2393 0042 DCF82C42 		ldr	r4, [ip, #556]
 515:GrannyChordApp.cpp ****     right_buf_[record_in_pos_] = in[1][i];
 2394              		.loc 3 515 31 discriminator 2 view .LVU667
 2395 0046 BDEEC77A 		vcvt.s32.f32	s14, s14
 2396 004a 17EE106A 		vmov	r6, s14	@ int
 2397 004e 27F81460 		strh	r6, [r7, r4, lsl #1]	@ movhi
 2398              		.loc 3 516 5 is_stmt 1 discriminator 2 view .LVU668
 2399              		.loc 3 516 32 is_stmt 0 discriminator 2 view .LVU669
 2400 0052 17EE907A 		vmov	r7, s15	@ int
 2401 0056 DEF8A06E 		ldr	r6, [lr, #3744]
 2402 005a 26F81470 		strh	r7, [r6, r4, lsl #1]	@ movhi
 517:GrannyChordApp.cpp ****     /* wrap around recording length - if it exceeds 120s,
 518:GrannyChordApp.cpp ****       the start of the recording will be overwritten */
 519:GrannyChordApp.cpp ****     record_in_pos_ = (record_in_pos_+1)%MAX_RECORDING_LEN;
 2403              		.loc 3 519 5 is_stmt 1 discriminator 2 view .LVU670
 2404              		.loc 3 519 37 is_stmt 0 discriminator 2 view .LVU671
 2405 005e 0134     		adds	r4, r4, #1
 2406              		.loc 3 519 40 discriminator 2 view .LVU672
 2407 0060 044E     		ldr	r6, .L83
 2408 0062 B4FBF6F7 		udiv	r7, r4, r6
 2409 0066 06FB1744 		mls	r4, r6, r7, r4
 2410              		.loc 3 519 20 discriminator 2 view .LVU673
 2411 006a CCF82C42 		str	r4, [ip, #556]
 510:GrannyChordApp.cpp ****     /* send audio in straight to output for monitoring */
 2412              		.loc 3 510 3 is_stmt 1 discriminator 2 view .LVU674
 2413              	.LVL167:
 510:GrannyChordApp.cpp ****     /* send audio in straight to output for monitoring */
 2414              		.loc 3 510 3 is_stmt 0 discriminator 2 view .LVU675
 2415 006e C9E7     		b	.L81
 2416              	.L79:
 510:GrannyChordApp.cpp ****     /* send audio in straight to output for monitoring */
 2417              		.loc 3 510 3 discriminator 2 view .LVU676
 2418              	.LBE511:
 520:GrannyChordApp.cpp ****   }
 521:GrannyChordApp.cpp **** }
 2419              		.loc 3 521 1 view .LVU677
 2420 0070 F0BD     		pop	{r4, r5, r6, r7, pc}
 2421              	.LVL168:
 2422              	.L84:
 2423              		.loc 3 521 1 view .LVU678
 2424 0072 00BF     		.align	2
 2425              	.L83:
 2426 0074 00E45700 		.word	5760000
 2427              		.cfi_endproc
 2428              	.LFE4940:
 2430              		.section	.text._ZN14GrannyChordApp16ProcessSynthesisEPPfj,"ax",%progbits
 2431              		.align	1
 2432              		.global	_ZN14GrannyChordApp16ProcessSynthesisEPPfj
ARM GAS  /var/folders/2p/02m_5p7958535cp2tpgps0400000gn/T//cchBTf64.s 			page 75


 2433              		.syntax unified
 2434              		.thumb
 2435              		.thumb_func
 2437              	_ZN14GrannyChordApp16ProcessSynthesisEPPfj:
 2438              	.LVL169:
 2439              	.LFB4941:
 522:GrannyChordApp.cpp **** 
 523:GrannyChordApp.cpp **** /// @brief Process audio through granular synth and mix to output buffer
 524:GrannyChordApp.cpp **** /// @param out Output audio buffer
 525:GrannyChordApp.cpp **** /// @param size Number of samples to process in this call
 526:GrannyChordApp.cpp **** void GrannyChordApp::ProcessSynthesis(AudioHandle::OutputBuffer out, size_t size){
 2440              		.loc 3 526 82 is_stmt 1 view -0
 2441              		.cfi_startproc
 2442              		@ args = 0, pretend = 0, frame = 8
 2443              		@ frame_needed = 0, uses_anonymous_args = 0
 527:GrannyChordApp.cpp ****   // Sample samp;
 528:GrannyChordApp.cpp ****   for (size_t i=0; i<size; i++){ 
 2444              		.loc 3 528 3 view .LVU680
 526:GrannyChordApp.cpp ****   // Sample samp;
 2445              		.loc 3 526 82 is_stmt 0 view .LVU681
 2446 0000 F7B5     		push	{r0, r1, r2, r4, r5, r6, r7, lr}
 2447              		.cfi_def_cfa_offset 32
 2448              		.cfi_offset 4, -20
 2449              		.cfi_offset 5, -16
 2450              		.cfi_offset 6, -12
 2451              		.cfi_offset 7, -8
 2452              		.cfi_offset 14, -4
 526:GrannyChordApp.cpp ****   // Sample samp;
 2453              		.loc 3 526 82 view .LVU682
 2454 0002 0646     		mov	r6, r0
 2455 0004 0D46     		mov	r5, r1
 2456 0006 1746     		mov	r7, r2
 2457              	.LBB512:
 2458              		.loc 3 528 15 view .LVU683
 2459 0008 0024     		movs	r4, #0
 2460              	.LVL170:
 2461              	.L87:
 2462              		.loc 3 528 21 is_stmt 1 discriminator 3 view .LVU684
 2463 000a BC42     		cmp	r4, r7
 2464 000c 0FD0     		beq	.L85
 2465              	.LBB513:
 529:GrannyChordApp.cpp ****     Sample samp = synth_.ProcessGrains();
 2466              		.loc 3 529 5 discriminator 2 view .LVU685
 2467              		.loc 3 529 40 is_stmt 0 discriminator 2 view .LVU686
 2468 000e 06F12000 		add	r0, r6, #32
 2469 0012 FFF7FEFF 		bl	_ZN13GranularSynth13ProcessGrainsEv
 2470              	.LVL171:
 530:GrannyChordApp.cpp ****     out[0][i] = samp.left;
 2471              		.loc 3 530 5 is_stmt 1 discriminator 2 view .LVU687
 2472              		.loc 3 530 15 is_stmt 0 discriminator 2 view .LVU688
 2473 0016 2B68     		ldr	r3, [r5]
 2474 0018 03EB8403 		add	r3, r3, r4, lsl #2
 2475 001c 83ED000A 		vstr.32	s0, [r3]
 531:GrannyChordApp.cpp ****     out[1][i] = samp.right;
 2476              		.loc 3 531 5 is_stmt 1 discriminator 2 view .LVU689
 2477              		.loc 3 531 15 is_stmt 0 discriminator 2 view .LVU690
 2478 0020 6B68     		ldr	r3, [r5, #4]
ARM GAS  /var/folders/2p/02m_5p7958535cp2tpgps0400000gn/T//cchBTf64.s 			page 76


 2479 0022 03EB8403 		add	r3, r3, r4, lsl #2
 2480              	.LBE513:
 528:GrannyChordApp.cpp ****     Sample samp = synth_.ProcessGrains();
 2481              		.loc 3 528 3 discriminator 2 view .LVU691
 2482 0026 0134     		adds	r4, r4, #1
 2483              	.LVL172:
 2484              	.LBB514:
 2485              		.loc 3 531 15 discriminator 2 view .LVU692
 2486 0028 C3ED000A 		vstr.32	s1, [r3]
 2487              	.LBE514:
 528:GrannyChordApp.cpp ****     Sample samp = synth_.ProcessGrains();
 2488              		.loc 3 528 3 is_stmt 1 discriminator 2 view .LVU693
 2489              	.LVL173:
 528:GrannyChordApp.cpp ****     Sample samp = synth_.ProcessGrains();
 2490              		.loc 3 528 3 is_stmt 0 discriminator 2 view .LVU694
 2491 002c EDE7     		b	.L87
 2492              	.L85:
 528:GrannyChordApp.cpp ****     Sample samp = synth_.ProcessGrains();
 2493              		.loc 3 528 3 discriminator 2 view .LVU695
 2494              	.LBE512:
 532:GrannyChordApp.cpp ****   }
 533:GrannyChordApp.cpp **** 
 534:GrannyChordApp.cpp ****     // samp = ProcessFX(samp);
 535:GrannyChordApp.cpp ****     // out[0][i] = samp.left;
 536:GrannyChordApp.cpp ****     // out[1][i] = samp.right;
 537:GrannyChordApp.cpp ****     // limiter_.ProcessBlock(&samp.left, 1, 0.0f);
 538:GrannyChordApp.cpp ****     // limiter_.ProcessBlock(&samp.right, 1, 0.0f);
 539:GrannyChordApp.cpp ****     // if (counter%128000==0){
 540:GrannyChordApp.cpp ****     //   counter=0;
 541:GrannyChordApp.cpp ****     //   DebugPrint(pod_, "l: %f, r: %f", samp.left, samp.right);
 542:GrannyChordApp.cpp ****     // }
 543:GrannyChordApp.cpp ****     // out[0][i] = samp.left;
 544:GrannyChordApp.cpp ****     // out[1][i] = samp.right;
 545:GrannyChordApp.cpp **** 
 546:GrannyChordApp.cpp ****     //NOTE: TURN BACK ON 
 547:GrannyChordApp.cpp ****     // if (recording_out_ && sd_writer_.GetLengthSeconds()<MAX_REC_OUT_LEN){
 548:GrannyChordApp.cpp ****     //   temp_interleaved_buf_[0]=out[0][i];
 549:GrannyChordApp.cpp ****     //   temp_interleaved_buf_[1]=out[1][i];
 550:GrannyChordApp.cpp ****     //   sd_writer_.Sample(temp_interleaved_buf_);
 551:GrannyChordApp.cpp ****     // }
 552:GrannyChordApp.cpp ****   // }
 553:GrannyChordApp.cpp **** }
 2495              		.loc 3 553 1 view .LVU696
 2496 002e 03B0     		add	sp, sp, #12
 2497              		.cfi_def_cfa_offset 20
 2498              		@ sp needed
 2499 0030 F0BD     		pop	{r4, r5, r6, r7, pc}
 2500              		.loc 3 553 1 view .LVU697
 2501              		.cfi_endproc
 2502              	.LFE4941:
 2504              		.section	.rodata._ZN14GrannyChordApp12ProcessAudioEPKPKfPPfj.str1.1,"aMS",%progbits,1
 2505              	.LC10:
 2506 0000 73746F70 		.ascii	"stopped audio > len\000"
 2506      70656420 
 2506      61756469 
 2506      6F203E20 
 2506      6C656E00 
ARM GAS  /var/folders/2p/02m_5p7958535cp2tpgps0400000gn/T//cchBTf64.s 			page 77


 2507              		.section	.text._ZN14GrannyChordApp12ProcessAudioEPKPKfPPfj,"ax",%progbits
 2508              		.align	1
 2509              		.global	_ZN14GrannyChordApp12ProcessAudioEPKPKfPPfj
 2510              		.syntax unified
 2511              		.thumb
 2512              		.thumb_func
 2514              	_ZN14GrannyChordApp12ProcessAudioEPKPKfPPfj:
 2515              	.LVL174:
 2516              	.LFB4938:
 463:GrannyChordApp.cpp ****   switch(curr_state_){
 2517              		.loc 3 463 107 is_stmt 1 view -0
 2518              		.cfi_startproc
 2519              		@ args = 0, pretend = 0, frame = 0
 2520              		@ frame_needed = 0, uses_anonymous_args = 0
 464:GrannyChordApp.cpp ****     case AppState::PlayWAV:
 2521              		.loc 3 464 3 view .LVU699
 463:GrannyChordApp.cpp ****   switch(curr_state_){
 2522              		.loc 3 463 107 is_stmt 0 view .LVU700
 2523 0000 2DE9F041 		push	{r4, r5, r6, r7, r8, lr}
 2524              		.cfi_def_cfa_offset 24
 2525              		.cfi_offset 4, -24
 2526              		.cfi_offset 5, -20
 2527              		.cfi_offset 6, -16
 2528              		.cfi_offset 7, -12
 2529              		.cfi_offset 8, -8
 2530              		.cfi_offset 14, -4
 464:GrannyChordApp.cpp ****     case AppState::PlayWAV:
 2531              		.loc 3 464 10 view .LVU701
 2532 0004 D0F87852 		ldr	r5, [r0, #632]
 463:GrannyChordApp.cpp ****   switch(curr_state_){
 2533              		.loc 3 463 107 view .LVU702
 2534 0008 1646     		mov	r6, r2
 2535 000a 1F46     		mov	r7, r3
 464:GrannyChordApp.cpp ****     case AppState::PlayWAV:
 2536              		.loc 3 464 3 view .LVU703
 2537 000c 022D     		cmp	r5, #2
 2538 000e 27D0     		beq	.L89
 2539 0010 032D     		cmp	r5, #3
 2540 0012 21D0     		beq	.L90
 2541 0014 012D     		cmp	r5, #1
 2542 0016 29D1     		bne	.L88
 2543              	.LVL175:
 2544              	.LBB521:
 2545              	.LBI521:
 463:GrannyChordApp.cpp ****   switch(curr_state_){
 2546              		.loc 3 463 6 is_stmt 1 view .LVU704
 2547              	.LBB522:
 465:GrannyChordApp.cpp ****       if (wav_playhead_>= filemgr_.GetSamplesPerChannel() -1){
 2548              		.loc 3 465 5 view .LVU705
 466:GrannyChordApp.cpp ****         instance_->pod_.StopAudio();
 2549              		.loc 3 466 7 view .LVU706
 466:GrannyChordApp.cpp ****         instance_->pod_.StopAudio();
 2550              		.loc 3 466 27 is_stmt 0 view .LVU707
 2551 0018 D0F87032 		ldr	r3, [r0, #624]
 2552              	.LVL176:
 2553              	.LBB523:
 2554              	.LBI523:
ARM GAS  /var/folders/2p/02m_5p7958535cp2tpgps0400000gn/T//cchBTf64.s 			page 78


  27:AudioFileManager.h ****     size_t GetTotalSamples() const { return header_.total_samples; }
 2555              		.loc 8 27 12 is_stmt 1 view .LVU708
 2556              	.LBB524:
  27:AudioFileManager.h ****     size_t GetTotalSamples() const { return header_.total_samples; }
 2557              		.loc 8 27 43 view .LVU709
  27:AudioFileManager.h ****     size_t GetTotalSamples() const { return header_.total_samples; }
 2558              		.loc 8 27 43 is_stmt 0 view .LVU710
 2559              	.LBE524:
 2560              	.LBE523:
 466:GrannyChordApp.cpp ****         instance_->pod_.StopAudio();
 2561              		.loc 3 466 11 view .LVU711
 2562 001c 00F58044 		add	r4, r0, #16384
 2563              	.LBB527:
 2564              	.LBB525:
  27:AudioFileManager.h ****     size_t GetTotalSamples() const { return header_.total_samples; }
 2565              		.loc 8 27 58 view .LVU712
 2566 0020 03F58053 		add	r3, r3, #4096
  27:AudioFileManager.h ****     size_t GetTotalSamples() const { return header_.total_samples; }
 2567              		.loc 8 27 82 view .LVU713
 2568 0024 B3F92820 		ldrsh	r2, [r3, #40]
 2569              	.LVL177:
  27:AudioFileManager.h ****     size_t GetTotalSamples() const { return header_.total_samples; }
 2570              		.loc 8 27 82 view .LVU714
 2571 0028 DD6A     		ldr	r5, [r3, #44]
 2572              	.LBE525:
 2573              	.LBE527:
 466:GrannyChordApp.cpp ****         instance_->pod_.StopAudio();
 2574              		.loc 3 466 7 view .LVU715
 2575 002a D4F8A83E 		ldr	r3, [r4, #3752]
 2576              	.LBB528:
 2577              	.LBB526:
  27:AudioFileManager.h ****     size_t GetTotalSamples() const { return header_.total_samples; }
 2578              		.loc 8 27 82 view .LVU716
 2579 002e B5FBF2F5 		udiv	r5, r5, r2
 2580              	.LBE526:
 2581              	.LBE528:
 466:GrannyChordApp.cpp ****         instance_->pod_.StopAudio();
 2582              		.loc 3 466 59 view .LVU717
 2583 0032 013D     		subs	r5, r5, #1
 466:GrannyChordApp.cpp ****         instance_->pod_.StopAudio();
 2584              		.loc 3 466 7 view .LVU718
 2585 0034 AB42     		cmp	r3, r5
 2586 0036 09D3     		bcc	.L92
 467:GrannyChordApp.cpp ****         DebugPrint(pod_, "stopped audio > len"); 
 2587              		.loc 3 467 9 is_stmt 1 view .LVU719
 467:GrannyChordApp.cpp ****         DebugPrint(pod_, "stopped audio > len"); 
 2588              		.loc 3 467 34 is_stmt 0 view .LVU720
 2589 0038 0D4B     		ldr	r3, .L93
 467:GrannyChordApp.cpp ****         DebugPrint(pod_, "stopped audio > len"); 
 2590              		.loc 3 467 20 view .LVU721
 2591 003a 1B68     		ldr	r3, [r3]
 467:GrannyChordApp.cpp ****         DebugPrint(pod_, "stopped audio > len"); 
 2592              		.loc 3 467 34 view .LVU722
 2593 003c D869     		ldr	r0, [r3, #28]
 2594              	.LVL178:
 467:GrannyChordApp.cpp ****         DebugPrint(pod_, "stopped audio > len"); 
 2595              		.loc 3 467 34 view .LVU723
ARM GAS  /var/folders/2p/02m_5p7958535cp2tpgps0400000gn/T//cchBTf64.s 			page 79


 2596 003e FFF7FEFF 		bl	_ZN5daisy8DaisyPod9StopAudioEv
 2597              	.LVL179:
 468:GrannyChordApp.cpp ****         return;
 2598              		.loc 3 468 9 is_stmt 1 view .LVU724
 468:GrannyChordApp.cpp ****         return;
 2599              		.loc 3 468 9 view .LVU725
 2600              	.LBB529:
 2601              	.LBI529:
 126:../libDaisy/src/daisy_seed.h ****     {
 2602              		.loc 5 126 17 view .LVU726
 2603              	.LBB530:
 2604              		.loc 5 128 23 is_stmt 0 view .LVU727
 2605 0042 0C48     		ldr	r0, .L93+4
 2606              	.LBE530:
 2607              	.LBE529:
 2608              	.LBE522:
 2609              	.LBE521:
 484:GrannyChordApp.cpp **** 
 2610              		.loc 3 484 1 view .LVU728
 2611 0044 BDE8F041 		pop	{r4, r5, r6, r7, r8, lr}
 2612              		.cfi_remember_state
 2613              		.cfi_restore 14
 2614              		.cfi_restore 8
 2615              		.cfi_restore 7
 2616              		.cfi_restore 6
 2617              		.cfi_restore 5
 2618              		.cfi_restore 4
 2619              		.cfi_def_cfa_offset 0
 2620              	.LVL180:
 2621              	.LBB535:
 2622              	.LBB533:
 2623              	.LBB532:
 2624              	.LBB531:
 2625              		.loc 5 128 23 view .LVU729
 2626 0048 FFF7FEBF 		b	_ZN5daisy6LoggerILNS_17LoggerDestinationE1EE9PrintLineEPKcz
 2627              	.LVL181:
 2628              	.L92:
 2629              		.cfi_restore_state
 2630              		.loc 5 128 23 view .LVU730
 2631              	.LBE531:
 2632              	.LBE532:
 471:GrannyChordApp.cpp ****       return;  
 2633              		.loc 3 471 7 is_stmt 1 view .LVU731
 471:GrannyChordApp.cpp ****       return;  
 2634              		.loc 3 471 25 is_stmt 0 view .LVU732
 2635 004c 3A46     		mov	r2, r7
 2636 004e 3146     		mov	r1, r6
 2637              	.LVL182:
 471:GrannyChordApp.cpp ****       return;  
 2638              		.loc 3 471 25 view .LVU733
 2639              	.LBE533:
 2640              	.LBE535:
 484:GrannyChordApp.cpp **** 
 2641              		.loc 3 484 1 view .LVU734
 2642 0050 BDE8F041 		pop	{r4, r5, r6, r7, r8, lr}
 2643              		.cfi_remember_state
 2644              		.cfi_restore 14
ARM GAS  /var/folders/2p/02m_5p7958535cp2tpgps0400000gn/T//cchBTf64.s 			page 80


 2645              		.cfi_restore 8
 2646              		.cfi_restore 7
 2647              		.cfi_restore 6
 2648              		.cfi_restore 5
 2649              		.cfi_restore 4
 2650              		.cfi_def_cfa_offset 0
 2651              	.LVL183:
 2652              	.LBB536:
 2653              	.LBB534:
 471:GrannyChordApp.cpp ****       return;  
 2654              		.loc 3 471 25 view .LVU735
 2655 0054 FFF7FEBF 		b	_ZN14GrannyChordApp18ProcessWAVPlaybackEPPfj
 2656              	.LVL184:
 2657              	.L90:
 2658              		.cfi_restore_state
 471:GrannyChordApp.cpp ****       return;  
 2659              		.loc 3 471 25 view .LVU736
 2660              	.LBE534:
 2661              	.LBE536:
 473:GrannyChordApp.cpp ****       ProcessRecordIn(in, out, size);
 2662              		.loc 3 473 5 is_stmt 1 view .LVU737
 474:GrannyChordApp.cpp ****       return;
 2663              		.loc 3 474 7 view .LVU738
 484:GrannyChordApp.cpp **** 
 2664              		.loc 3 484 1 is_stmt 0 view .LVU739
 2665 0058 BDE8F041 		pop	{r4, r5, r6, r7, r8, lr}
 2666              		.cfi_remember_state
 2667              		.cfi_restore 14
 2668              		.cfi_restore 8
 2669              		.cfi_restore 7
 2670              		.cfi_restore 6
 2671              		.cfi_restore 5
 2672              		.cfi_restore 4
 2673              		.cfi_def_cfa_offset 0
 474:GrannyChordApp.cpp ****       return;
 2674              		.loc 3 474 22 view .LVU740
 2675 005c FFF7FEBF 		b	_ZN14GrannyChordApp15ProcessRecordInEPKPKfPPfj
 2676              	.LVL185:
 2677              	.L89:
 2678              		.cfi_restore_state
 476:GrannyChordApp.cpp ****       ProcessSynthesis(out,size);
 2679              		.loc 3 476 5 is_stmt 1 view .LVU741
 477:GrannyChordApp.cpp ****       return;
 2680              		.loc 3 477 7 view .LVU742
 477:GrannyChordApp.cpp ****       return;
 2681              		.loc 3 477 23 is_stmt 0 view .LVU743
 2682 0060 3146     		mov	r1, r6
 2683              	.LVL186:
 477:GrannyChordApp.cpp ****       return;
 2684              		.loc 3 477 23 view .LVU744
 2685 0062 1A46     		mov	r2, r3
 2686              	.LVL187:
 484:GrannyChordApp.cpp **** 
 2687              		.loc 3 484 1 view .LVU745
 2688 0064 BDE8F041 		pop	{r4, r5, r6, r7, r8, lr}
 2689              		.cfi_remember_state
 2690              		.cfi_restore 14
ARM GAS  /var/folders/2p/02m_5p7958535cp2tpgps0400000gn/T//cchBTf64.s 			page 81


 2691              		.cfi_restore 8
 2692              		.cfi_restore 7
 2693              		.cfi_restore 6
 2694              		.cfi_restore 5
 2695              		.cfi_restore 4
 2696              		.cfi_def_cfa_offset 0
 2697              	.LVL188:
 477:GrannyChordApp.cpp ****       return;
 2698              		.loc 3 477 23 view .LVU746
 2699 0068 FFF7FEBF 		b	_ZN14GrannyChordApp16ProcessSynthesisEPPfj
 2700              	.LVL189:
 2701              	.L88:
 2702              		.cfi_restore_state
 484:GrannyChordApp.cpp **** 
 2703              		.loc 3 484 1 view .LVU747
 2704 006c BDE8F081 		pop	{r4, r5, r6, r7, r8, pc}
 2705              	.L94:
 2706              		.align	2
 2707              	.L93:
 2708 0070 00000000 		.word	.LANCHOR0
 2709 0074 00000000 		.word	.LC10
 2710              		.cfi_endproc
 2711              	.LFE4938:
 2713              		.section	.text._ZN14GrannyChordApp13AudioCallbackEPKPKfPPfj,"ax",%progbits
 2714              		.align	1
 2715              		.global	_ZN14GrannyChordApp13AudioCallbackEPKPKfPPfj
 2716              		.syntax unified
 2717              		.thumb
 2718              		.thumb_func
 2720              	_ZN14GrannyChordApp13AudioCallbackEPKPKfPPfj:
 2721              	.LVL190:
 2722              	.LFB4937:
 459:GrannyChordApp.cpp ****   instance_->ProcessAudio(in,out,size);
 2723              		.loc 3 459 108 is_stmt 1 view -0
 2724              		.cfi_startproc
 2725              		@ args = 0, pretend = 0, frame = 0
 2726              		@ frame_needed = 0, uses_anonymous_args = 0
 2727              		@ link register save eliminated.
 460:GrannyChordApp.cpp **** }
 2728              		.loc 3 460 3 view .LVU749
 459:GrannyChordApp.cpp ****   instance_->ProcessAudio(in,out,size);
 2729              		.loc 3 459 108 is_stmt 0 view .LVU750
 2730 0000 1346     		mov	r3, r2
 460:GrannyChordApp.cpp **** }
 2731              		.loc 3 460 26 view .LVU751
 2732 0002 0A46     		mov	r2, r1
 2733              	.LVL191:
 460:GrannyChordApp.cpp **** }
 2734              		.loc 3 460 26 view .LVU752
 2735 0004 0146     		mov	r1, r0
 2736              	.LVL192:
 460:GrannyChordApp.cpp **** }
 2737              		.loc 3 460 26 view .LVU753
 2738 0006 0248     		ldr	r0, .L96
 2739              	.LVL193:
 460:GrannyChordApp.cpp **** }
 2740              		.loc 3 460 26 view .LVU754
ARM GAS  /var/folders/2p/02m_5p7958535cp2tpgps0400000gn/T//cchBTf64.s 			page 82


 2741 0008 0068     		ldr	r0, [r0]
 2742 000a FFF7FEBF 		b	_ZN14GrannyChordApp12ProcessAudioEPKPKfPPfj
 2743              	.LVL194:
 2744              	.L97:
 460:GrannyChordApp.cpp **** }
 2745              		.loc 3 460 26 view .LVU755
 2746 000e 00BF     		.align	2
 2747              	.L96:
 2748 0010 00000000 		.word	.LANCHOR0
 2749              		.cfi_endproc
 2750              	.LFE4937:
 2752              		.section	.text._ZN14GrannyChordApp9ProcessFXE6Sample,"ax",%progbits
 2753              		.align	1
 2754              		.global	_ZN14GrannyChordApp9ProcessFXE6Sample
 2755              		.syntax unified
 2756              		.thumb
 2757              		.thumb_func
 2759              	_ZN14GrannyChordApp9ProcessFXE6Sample:
 2760              	.LVL195:
 2761              	.LFB4942:
 554:GrannyChordApp.cpp **** 
 555:GrannyChordApp.cpp **** Sample GrannyChordApp::ProcessFX(Sample in){
 2762              		.loc 3 555 44 is_stmt 1 view -0
 2763              		.cfi_startproc
 2764              		@ args = 0, pretend = 0, frame = 40
 2765              		@ frame_needed = 0, uses_anonymous_args = 0
 556:GrannyChordApp.cpp ****   Sample out;
 2766              		.loc 3 556 3 view .LVU757
 557:GrannyChordApp.cpp ****   /* hipass: remove rumble */
 558:GrannyChordApp.cpp ****   out.left = hipass_.Process(in.left);
 2767              		.loc 3 558 3 view .LVU758
 555:GrannyChordApp.cpp ****   Sample out;
 2768              		.loc 3 555 44 is_stmt 0 view .LVU759
 2769 0000 30B5     		push	{r4, r5, lr}
 2770              		.cfi_def_cfa_offset 12
 2771              		.cfi_offset 4, -12
 2772              		.cfi_offset 5, -8
 2773              		.cfi_offset 14, -4
 2774              		.loc 3 558 29 view .LVU760
 2775 0002 00F59C45 		add	r5, r0, #19968
 555:GrannyChordApp.cpp ****   Sample out;
 2776              		.loc 3 555 44 view .LVU761
 2777 0006 0446     		mov	r4, r0
 2778              		.loc 3 558 29 view .LVU762
 2779 0008 7435     		adds	r5, r5, #116
 555:GrannyChordApp.cpp ****   Sample out;
 2780              		.loc 3 555 44 view .LVU763
 2781 000a 2DED048B 		vpush.64	{d8, d9}
 2782              		.cfi_def_cfa_offset 28
 2783              		.cfi_offset 80, -28
 2784              		.cfi_offset 81, -24
 2785              		.cfi_offset 82, -20
 2786              		.cfi_offset 83, -16
 2787 000e 8DB0     		sub	sp, sp, #52
 2788              		.cfi_def_cfa_offset 80
 2789              		.loc 3 558 29 view .LVU764
 2790 0010 2846     		mov	r0, r5
ARM GAS  /var/folders/2p/02m_5p7958535cp2tpgps0400000gn/T//cchBTf64.s 			page 83


 2791              	.LVL196:
 555:GrannyChordApp.cpp ****   Sample out;
 2792              		.loc 3 555 44 view .LVU765
 2793 0012 CDED070A 		vstr.32	s1, [sp, #28]
 2794              		.loc 3 558 29 view .LVU766
 2795 0016 FFF7FEFF 		bl	_ZN7daisysp7OnePole7ProcessEf
 2796              	.LVL197:
 559:GrannyChordApp.cpp ****   out.right = hipass_.Process(in.right);
 2797              		.loc 3 559 30 view .LVU767
 2798 001a 2846     		mov	r0, r5
 558:GrannyChordApp.cpp ****   out.right = hipass_.Process(in.right);
 2799              		.loc 3 558 12 view .LVU768
 2800 001c 8DED080A 		vstr.32	s0, [sp, #32]
 2801              		.loc 3 559 3 is_stmt 1 view .LVU769
 560:GrannyChordApp.cpp **** 
 561:GrannyChordApp.cpp ****   // /* apply compression to reduce gain changes */
 562:GrannyChordApp.cpp ****   out.left = comp_.Process(out.left);
 563:GrannyChordApp.cpp ****   out.right = comp_.Process(out.right);
 564:GrannyChordApp.cpp **** 
 565:GrannyChordApp.cpp ****   /* apply lowpass filter */
 566:GrannyChordApp.cpp ****   out.left = lowpass_moog_.Process(out.left);
 2802              		.loc 3 566 35 is_stmt 0 view .LVU770
 2803 0020 04F59C45 		add	r5, r4, #19968
 559:GrannyChordApp.cpp **** 
 2804              		.loc 3 559 30 view .LVU771
 2805 0024 9DED070A 		vldr.32	s0, [sp, #28]
 2806 0028 FFF7FEFF 		bl	_ZN7daisysp7OnePole7ProcessEf
 2807              	.LVL198:
 562:GrannyChordApp.cpp ****   out.right = comp_.Process(out.right);
 2808              		.loc 3 562 27 view .LVU772
 2809 002c 04F52370 		add	r0, r4, #652
 2810              		.loc 3 566 35 view .LVU773
 2811 0030 3035     		adds	r5, r5, #48
 559:GrannyChordApp.cpp **** 
 2812              		.loc 3 559 13 view .LVU774
 2813 0032 8DED090A 		vstr.32	s0, [sp, #36]
 562:GrannyChordApp.cpp ****   out.right = comp_.Process(out.right);
 2814              		.loc 3 562 3 is_stmt 1 view .LVU775
 562:GrannyChordApp.cpp ****   out.right = comp_.Process(out.right);
 2815              		.loc 3 562 27 is_stmt 0 view .LVU776
 2816 0036 9DED080A 		vldr.32	s0, [sp, #32]
 2817 003a 0390     		str	r0, [sp, #12]
 2818 003c FFF7FEFF 		bl	_ZN7daisysp10Compressor7ProcessEf
 2819              	.LVL199:
 563:GrannyChordApp.cpp **** 
 2820              		.loc 3 563 28 view .LVU777
 2821 0040 0398     		ldr	r0, [sp, #12]
 562:GrannyChordApp.cpp ****   out.right = comp_.Process(out.right);
 2822              		.loc 3 562 12 view .LVU778
 2823 0042 8DED080A 		vstr.32	s0, [sp, #32]
 563:GrannyChordApp.cpp **** 
 2824              		.loc 3 563 3 is_stmt 1 view .LVU779
 563:GrannyChordApp.cpp **** 
 2825              		.loc 3 563 28 is_stmt 0 view .LVU780
 2826 0046 9DED090A 		vldr.32	s0, [sp, #36]
 2827 004a FFF7FEFF 		bl	_ZN7daisysp10Compressor7ProcessEf
 2828              	.LVL200:
ARM GAS  /var/folders/2p/02m_5p7958535cp2tpgps0400000gn/T//cchBTf64.s 			page 84


 2829              		.loc 3 566 35 view .LVU781
 2830 004e 2846     		mov	r0, r5
 563:GrannyChordApp.cpp **** 
 2831              		.loc 3 563 13 view .LVU782
 2832 0050 8DED090A 		vstr.32	s0, [sp, #36]
 2833              		.loc 3 566 3 is_stmt 1 view .LVU783
 2834              		.loc 3 566 35 is_stmt 0 view .LVU784
 2835 0054 9DED080A 		vldr.32	s0, [sp, #32]
 2836 0058 FFF7FEFF 		bl	_ZN7daisysp10MoogLadder7ProcessEf
 2837              	.LVL201:
 567:GrannyChordApp.cpp ****   out.right = lowpass_moog_.Process(out.right);
 2838              		.loc 3 567 36 view .LVU785
 2839 005c 2846     		mov	r0, r5
 566:GrannyChordApp.cpp ****   out.right = lowpass_moog_.Process(out.right);
 2840              		.loc 3 566 12 view .LVU786
 2841 005e 8DED080A 		vstr.32	s0, [sp, #32]
 2842              		.loc 3 567 3 is_stmt 1 view .LVU787
 568:GrannyChordApp.cpp **** 
 569:GrannyChordApp.cpp ****   /* apply stereo rotation */
 570:GrannyChordApp.cpp ****   out = rotator_.Process(out);
 571:GrannyChordApp.cpp **** 
 572:GrannyChordApp.cpp ****   /* apply chorus */
 573:GrannyChordApp.cpp ****   out.left = chorus_.Process(out.left);
 574:GrannyChordApp.cpp ****   out.right = chorus_.Process(out.right);
 575:GrannyChordApp.cpp **** 
 576:GrannyChordApp.cpp ****   /* apply reverb */
 577:GrannyChordApp.cpp ****   reverb_.ProcessMix(out.left, out.right, &out.left, &out.right);
 2843              		.loc 3 577 21 is_stmt 0 view .LVU788
 2844 0062 08AD     		add	r5, sp, #32
 567:GrannyChordApp.cpp **** 
 2845              		.loc 3 567 36 view .LVU789
 2846 0064 9DED090A 		vldr.32	s0, [sp, #36]
 2847 0068 FFF7FEFF 		bl	_ZN7daisysp10MoogLadder7ProcessEf
 2848              	.LVL202:
 2849              	.LBB543:
 2850              	.LBB544:
 2851              		.file 13 "StereoRotator.h"
   1:StereoRotator.h **** #include <cmath>
   2:StereoRotator.h **** 
   3:StereoRotator.h **** class StereoRotator{
   4:StereoRotator.h ****   public:
   5:StereoRotator.h ****     StereoRotator(){}
   6:StereoRotator.h **** 
   7:StereoRotator.h ****     void SetFreq(float freq){
   8:StereoRotator.h ****       freq_ = freq;
   9:StereoRotator.h ****     }
  10:StereoRotator.h **** 
  11:StereoRotator.h ****     Sample Process(Sample in){
  12:StereoRotator.h ****       rotation_  += (2*M_PI*freq_)/SAMPLE_RATE_FLOAT;
 2852              		.loc 13 12 29 view .LVU790
 2853 006c 04F58043 		add	r3, r4, #16384
 2854              	.LBE544:
 2855              	.LBE543:
 567:GrannyChordApp.cpp **** 
 2856              		.loc 3 567 36 view .LVU791
 2857 0070 F0EE408A 		vmov.f32	s17, s0
 570:GrannyChordApp.cpp **** 
ARM GAS  /var/folders/2p/02m_5p7958535cp2tpgps0400000gn/T//cchBTf64.s 			page 85


 2858              		.loc 3 570 3 is_stmt 1 view .LVU792
 2859              	.LVL203:
 570:GrannyChordApp.cpp **** 
 2860              		.loc 3 570 3 is_stmt 0 view .LVU793
 2861 0074 9DED089A 		vldr.32	s18, [sp, #32]
 2862              	.LVL204:
 2863              	.LBB552:
 2864              	.LBI543:
  11:StereoRotator.h ****       rotation_  += (2*M_PI*freq_)/SAMPLE_RATE_FLOAT;
 2865              		.loc 13 11 12 is_stmt 1 view .LVU794
 2866              	.LBB549:
 2867              		.loc 13 12 7 view .LVU795
 2868              		.loc 13 12 29 is_stmt 0 view .LVU796
 2869 0078 03F68462 		addw	r2, r3, #3716
  13:StereoRotator.h ****       if (rotation_ >2*M_PI){
  14:StereoRotator.h ****         rotation_  -= 2*M_PI;
  15:StereoRotator.h ****       }
  16:StereoRotator.h ****       Sample out;
  17:StereoRotator.h ****       out.left = (in.left*cos(rotation_)) - (in.right*sin(rotation_));
 2870              		.loc 13 17 30 view .LVU797
 2871 007c 03F68463 		addw	r3, r3, #3716
  12:StereoRotator.h ****       if (rotation_ >2*M_PI){
 2872              		.loc 13 12 29 view .LVU798
 2873 0080 92ED015A 		vldr.32	s10, [r2, #4]
  12:StereoRotator.h ****       if (rotation_ >2*M_PI){
 2874              		.loc 13 12 28 view .LVU799
 2875 0084 9FED384B 		vldr.64	d4, .L101
  12:StereoRotator.h ****       if (rotation_ >2*M_PI){
 2876              		.loc 13 12 29 view .LVU800
 2877 0088 B7EEC55A 		vcvt.f64.f32	d5, s10
  12:StereoRotator.h ****       if (rotation_ >2*M_PI){
 2878              		.loc 13 12 35 view .LVU801
 2879 008c 9FED387B 		vldr.64	d7, .L101+8
  12:StereoRotator.h ****       if (rotation_ >2*M_PI){
 2880              		.loc 13 12 28 view .LVU802
 2881 0090 25EE045B 		vmul.f64	d5, d5, d4
  12:StereoRotator.h ****       if (rotation_ >2*M_PI){
 2882              		.loc 13 12 35 view .LVU803
 2883 0094 85EE076B 		vdiv.f64	d6, d5, d7
  12:StereoRotator.h ****       if (rotation_ >2*M_PI){
 2884              		.loc 13 12 18 view .LVU804
 2885 0098 92ED007A 		vldr.32	s14, [r2]
 2886 009c B7EEC77A 		vcvt.f64.f32	d7, s14
 2887 00a0 36EE076B 		vadd.f64	d6, d6, d7
 2888 00a4 B7EEC66B 		vcvt.f32.f64	s12, d6
  13:StereoRotator.h ****       if (rotation_ >2*M_PI){
 2889              		.loc 13 13 7 is_stmt 1 view .LVU805
  13:StereoRotator.h ****       if (rotation_ >2*M_PI){
 2890              		.loc 13 13 11 is_stmt 0 view .LVU806
 2891 00a8 B7EEC67A 		vcvt.f64.f32	d7, s12
  13:StereoRotator.h ****       if (rotation_ >2*M_PI){
 2892              		.loc 13 13 7 view .LVU807
 2893 00ac B4EEC47B 		vcmpe.f64	d7, d4
 2894 00b0 F1EE10FA 		vmrs	APSR_nzcv, FPSCR
  14:StereoRotator.h ****       }
 2895              		.loc 13 14 20 view .LVU808
 2896 00b4 C9BF     		itett	gt
ARM GAS  /var/folders/2p/02m_5p7958535cp2tpgps0400000gn/T//cchBTf64.s 			page 86


 2897 00b6 37EE447B 		vsubgt.f64	d7, d7, d4
  12:StereoRotator.h ****       if (rotation_ >2*M_PI){
 2898              		.loc 13 12 18 view .LVU809
 2899 00ba 82ED006A 		vstrle.32	s12, [r2]
  14:StereoRotator.h ****       }
 2900              		.loc 13 14 9 is_stmt 1 view .LVU810
  14:StereoRotator.h ****       }
 2901              		.loc 13 14 20 is_stmt 0 view .LVU811
 2902 00be B7EEC77B 		vcvtgt.f32.f64	s14, d7
 2903 00c2 82ED007A 		vstrgt.32	s14, [r2]
  16:StereoRotator.h ****       out.left = (in.left*cos(rotation_)) - (in.right*sin(rotation_));
 2904              		.loc 13 16 7 is_stmt 1 view .LVU812
 2905              		.loc 13 17 7 view .LVU813
 2906              		.loc 13 17 30 is_stmt 0 view .LVU814
 2907 00c6 D3ED009A 		vldr.32	s19, [r3]
 2908              	.LVL205:
 2909              	.LBB545:
 2910              	.LBI545:
 2911              		.file 14 "/Library/DaisyToolchain/0.2.0/arm/arm-none-eabi/include/c++/10.3.1/cmath"
   1:/Library/DaisyToolchain/0.2.0/arm/arm-none-eabi/include/c++/10.3.1/cmath **** // -*- C++ -*- C forwarding header.
   2:/Library/DaisyToolchain/0.2.0/arm/arm-none-eabi/include/c++/10.3.1/cmath **** 
   3:/Library/DaisyToolchain/0.2.0/arm/arm-none-eabi/include/c++/10.3.1/cmath **** // Copyright (C) 1997-2020 Free Software Foundation, Inc.
   4:/Library/DaisyToolchain/0.2.0/arm/arm-none-eabi/include/c++/10.3.1/cmath **** //
   5:/Library/DaisyToolchain/0.2.0/arm/arm-none-eabi/include/c++/10.3.1/cmath **** // This file is part of the GNU ISO C++ Library.  This library is free
   6:/Library/DaisyToolchain/0.2.0/arm/arm-none-eabi/include/c++/10.3.1/cmath **** // software; you can redistribute it and/or modify it under the
   7:/Library/DaisyToolchain/0.2.0/arm/arm-none-eabi/include/c++/10.3.1/cmath **** // terms of the GNU General Public License as published by the
   8:/Library/DaisyToolchain/0.2.0/arm/arm-none-eabi/include/c++/10.3.1/cmath **** // Free Software Foundation; either version 3, or (at your option)
   9:/Library/DaisyToolchain/0.2.0/arm/arm-none-eabi/include/c++/10.3.1/cmath **** // any later version.
  10:/Library/DaisyToolchain/0.2.0/arm/arm-none-eabi/include/c++/10.3.1/cmath **** 
  11:/Library/DaisyToolchain/0.2.0/arm/arm-none-eabi/include/c++/10.3.1/cmath **** // This library is distributed in the hope that it will be useful,
  12:/Library/DaisyToolchain/0.2.0/arm/arm-none-eabi/include/c++/10.3.1/cmath **** // but WITHOUT ANY WARRANTY; without even the implied warranty of
  13:/Library/DaisyToolchain/0.2.0/arm/arm-none-eabi/include/c++/10.3.1/cmath **** // MERCHANTABILITY or FITNESS FOR A PARTICULAR PURPOSE.  See the
  14:/Library/DaisyToolchain/0.2.0/arm/arm-none-eabi/include/c++/10.3.1/cmath **** // GNU General Public License for more details.
  15:/Library/DaisyToolchain/0.2.0/arm/arm-none-eabi/include/c++/10.3.1/cmath **** 
  16:/Library/DaisyToolchain/0.2.0/arm/arm-none-eabi/include/c++/10.3.1/cmath **** // Under Section 7 of GPL version 3, you are granted additional
  17:/Library/DaisyToolchain/0.2.0/arm/arm-none-eabi/include/c++/10.3.1/cmath **** // permissions described in the GCC Runtime Library Exception, version
  18:/Library/DaisyToolchain/0.2.0/arm/arm-none-eabi/include/c++/10.3.1/cmath **** // 3.1, as published by the Free Software Foundation.
  19:/Library/DaisyToolchain/0.2.0/arm/arm-none-eabi/include/c++/10.3.1/cmath **** 
  20:/Library/DaisyToolchain/0.2.0/arm/arm-none-eabi/include/c++/10.3.1/cmath **** // You should have received a copy of the GNU General Public License and
  21:/Library/DaisyToolchain/0.2.0/arm/arm-none-eabi/include/c++/10.3.1/cmath **** // a copy of the GCC Runtime Library Exception along with this program;
  22:/Library/DaisyToolchain/0.2.0/arm/arm-none-eabi/include/c++/10.3.1/cmath **** // see the files COPYING3 and COPYING.RUNTIME respectively.  If not, see
  23:/Library/DaisyToolchain/0.2.0/arm/arm-none-eabi/include/c++/10.3.1/cmath **** // <http://www.gnu.org/licenses/>.
  24:/Library/DaisyToolchain/0.2.0/arm/arm-none-eabi/include/c++/10.3.1/cmath **** 
  25:/Library/DaisyToolchain/0.2.0/arm/arm-none-eabi/include/c++/10.3.1/cmath **** /** @file include/cmath
  26:/Library/DaisyToolchain/0.2.0/arm/arm-none-eabi/include/c++/10.3.1/cmath ****  *  This is a Standard C++ Library file.  You should @c \#include this file
  27:/Library/DaisyToolchain/0.2.0/arm/arm-none-eabi/include/c++/10.3.1/cmath ****  *  in your programs, rather than any of the @a *.h implementation files.
  28:/Library/DaisyToolchain/0.2.0/arm/arm-none-eabi/include/c++/10.3.1/cmath ****  *
  29:/Library/DaisyToolchain/0.2.0/arm/arm-none-eabi/include/c++/10.3.1/cmath ****  *  This is the C++ version of the Standard C Library header @c math.h,
  30:/Library/DaisyToolchain/0.2.0/arm/arm-none-eabi/include/c++/10.3.1/cmath ****  *  and its contents are (mostly) the same as that header, but are all
  31:/Library/DaisyToolchain/0.2.0/arm/arm-none-eabi/include/c++/10.3.1/cmath ****  *  contained in the namespace @c std (except for names which are defined
  32:/Library/DaisyToolchain/0.2.0/arm/arm-none-eabi/include/c++/10.3.1/cmath ****  *  as macros in C).
  33:/Library/DaisyToolchain/0.2.0/arm/arm-none-eabi/include/c++/10.3.1/cmath ****  */
  34:/Library/DaisyToolchain/0.2.0/arm/arm-none-eabi/include/c++/10.3.1/cmath **** 
  35:/Library/DaisyToolchain/0.2.0/arm/arm-none-eabi/include/c++/10.3.1/cmath **** //
  36:/Library/DaisyToolchain/0.2.0/arm/arm-none-eabi/include/c++/10.3.1/cmath **** // ISO C++ 14882: 26.5  C library
  37:/Library/DaisyToolchain/0.2.0/arm/arm-none-eabi/include/c++/10.3.1/cmath **** //
  38:/Library/DaisyToolchain/0.2.0/arm/arm-none-eabi/include/c++/10.3.1/cmath **** 
ARM GAS  /var/folders/2p/02m_5p7958535cp2tpgps0400000gn/T//cchBTf64.s 			page 87


  39:/Library/DaisyToolchain/0.2.0/arm/arm-none-eabi/include/c++/10.3.1/cmath **** #pragma GCC system_header
  40:/Library/DaisyToolchain/0.2.0/arm/arm-none-eabi/include/c++/10.3.1/cmath **** 
  41:/Library/DaisyToolchain/0.2.0/arm/arm-none-eabi/include/c++/10.3.1/cmath **** #include <bits/c++config.h>
  42:/Library/DaisyToolchain/0.2.0/arm/arm-none-eabi/include/c++/10.3.1/cmath **** #include <bits/cpp_type_traits.h>
  43:/Library/DaisyToolchain/0.2.0/arm/arm-none-eabi/include/c++/10.3.1/cmath **** #include <ext/type_traits.h>
  44:/Library/DaisyToolchain/0.2.0/arm/arm-none-eabi/include/c++/10.3.1/cmath **** #define _GLIBCXX_INCLUDE_NEXT_C_HEADERS
  45:/Library/DaisyToolchain/0.2.0/arm/arm-none-eabi/include/c++/10.3.1/cmath **** #include_next <math.h>
  46:/Library/DaisyToolchain/0.2.0/arm/arm-none-eabi/include/c++/10.3.1/cmath **** #undef _GLIBCXX_INCLUDE_NEXT_C_HEADERS
  47:/Library/DaisyToolchain/0.2.0/arm/arm-none-eabi/include/c++/10.3.1/cmath **** #include <bits/std_abs.h>
  48:/Library/DaisyToolchain/0.2.0/arm/arm-none-eabi/include/c++/10.3.1/cmath **** 
  49:/Library/DaisyToolchain/0.2.0/arm/arm-none-eabi/include/c++/10.3.1/cmath **** #ifndef _GLIBCXX_CMATH
  50:/Library/DaisyToolchain/0.2.0/arm/arm-none-eabi/include/c++/10.3.1/cmath **** #define _GLIBCXX_CMATH 1
  51:/Library/DaisyToolchain/0.2.0/arm/arm-none-eabi/include/c++/10.3.1/cmath **** 
  52:/Library/DaisyToolchain/0.2.0/arm/arm-none-eabi/include/c++/10.3.1/cmath **** // Get rid of those macros defined in <math.h> in lieu of real functions.
  53:/Library/DaisyToolchain/0.2.0/arm/arm-none-eabi/include/c++/10.3.1/cmath **** #undef div
  54:/Library/DaisyToolchain/0.2.0/arm/arm-none-eabi/include/c++/10.3.1/cmath **** #undef acos
  55:/Library/DaisyToolchain/0.2.0/arm/arm-none-eabi/include/c++/10.3.1/cmath **** #undef asin
  56:/Library/DaisyToolchain/0.2.0/arm/arm-none-eabi/include/c++/10.3.1/cmath **** #undef atan
  57:/Library/DaisyToolchain/0.2.0/arm/arm-none-eabi/include/c++/10.3.1/cmath **** #undef atan2
  58:/Library/DaisyToolchain/0.2.0/arm/arm-none-eabi/include/c++/10.3.1/cmath **** #undef ceil
  59:/Library/DaisyToolchain/0.2.0/arm/arm-none-eabi/include/c++/10.3.1/cmath **** #undef cos
  60:/Library/DaisyToolchain/0.2.0/arm/arm-none-eabi/include/c++/10.3.1/cmath **** #undef cosh
  61:/Library/DaisyToolchain/0.2.0/arm/arm-none-eabi/include/c++/10.3.1/cmath **** #undef exp
  62:/Library/DaisyToolchain/0.2.0/arm/arm-none-eabi/include/c++/10.3.1/cmath **** #undef fabs
  63:/Library/DaisyToolchain/0.2.0/arm/arm-none-eabi/include/c++/10.3.1/cmath **** #undef floor
  64:/Library/DaisyToolchain/0.2.0/arm/arm-none-eabi/include/c++/10.3.1/cmath **** #undef fmod
  65:/Library/DaisyToolchain/0.2.0/arm/arm-none-eabi/include/c++/10.3.1/cmath **** #undef frexp
  66:/Library/DaisyToolchain/0.2.0/arm/arm-none-eabi/include/c++/10.3.1/cmath **** #undef ldexp
  67:/Library/DaisyToolchain/0.2.0/arm/arm-none-eabi/include/c++/10.3.1/cmath **** #undef log
  68:/Library/DaisyToolchain/0.2.0/arm/arm-none-eabi/include/c++/10.3.1/cmath **** #undef log10
  69:/Library/DaisyToolchain/0.2.0/arm/arm-none-eabi/include/c++/10.3.1/cmath **** #undef modf
  70:/Library/DaisyToolchain/0.2.0/arm/arm-none-eabi/include/c++/10.3.1/cmath **** #undef pow
  71:/Library/DaisyToolchain/0.2.0/arm/arm-none-eabi/include/c++/10.3.1/cmath **** #undef sin
  72:/Library/DaisyToolchain/0.2.0/arm/arm-none-eabi/include/c++/10.3.1/cmath **** #undef sinh
  73:/Library/DaisyToolchain/0.2.0/arm/arm-none-eabi/include/c++/10.3.1/cmath **** #undef sqrt
  74:/Library/DaisyToolchain/0.2.0/arm/arm-none-eabi/include/c++/10.3.1/cmath **** #undef tan
  75:/Library/DaisyToolchain/0.2.0/arm/arm-none-eabi/include/c++/10.3.1/cmath **** #undef tanh
  76:/Library/DaisyToolchain/0.2.0/arm/arm-none-eabi/include/c++/10.3.1/cmath **** 
  77:/Library/DaisyToolchain/0.2.0/arm/arm-none-eabi/include/c++/10.3.1/cmath **** extern "C++"
  78:/Library/DaisyToolchain/0.2.0/arm/arm-none-eabi/include/c++/10.3.1/cmath **** {
  79:/Library/DaisyToolchain/0.2.0/arm/arm-none-eabi/include/c++/10.3.1/cmath **** namespace std _GLIBCXX_VISIBILITY(default)
  80:/Library/DaisyToolchain/0.2.0/arm/arm-none-eabi/include/c++/10.3.1/cmath **** {
  81:/Library/DaisyToolchain/0.2.0/arm/arm-none-eabi/include/c++/10.3.1/cmath **** _GLIBCXX_BEGIN_NAMESPACE_VERSION
  82:/Library/DaisyToolchain/0.2.0/arm/arm-none-eabi/include/c++/10.3.1/cmath **** 
  83:/Library/DaisyToolchain/0.2.0/arm/arm-none-eabi/include/c++/10.3.1/cmath ****   using ::acos;
  84:/Library/DaisyToolchain/0.2.0/arm/arm-none-eabi/include/c++/10.3.1/cmath **** 
  85:/Library/DaisyToolchain/0.2.0/arm/arm-none-eabi/include/c++/10.3.1/cmath **** #ifndef __CORRECT_ISO_CPP_MATH_H_PROTO
  86:/Library/DaisyToolchain/0.2.0/arm/arm-none-eabi/include/c++/10.3.1/cmath ****   inline _GLIBCXX_CONSTEXPR float
  87:/Library/DaisyToolchain/0.2.0/arm/arm-none-eabi/include/c++/10.3.1/cmath ****   acos(float __x)
  88:/Library/DaisyToolchain/0.2.0/arm/arm-none-eabi/include/c++/10.3.1/cmath ****   { return __builtin_acosf(__x); }
  89:/Library/DaisyToolchain/0.2.0/arm/arm-none-eabi/include/c++/10.3.1/cmath **** 
  90:/Library/DaisyToolchain/0.2.0/arm/arm-none-eabi/include/c++/10.3.1/cmath ****   inline _GLIBCXX_CONSTEXPR long double
  91:/Library/DaisyToolchain/0.2.0/arm/arm-none-eabi/include/c++/10.3.1/cmath ****   acos(long double __x)
  92:/Library/DaisyToolchain/0.2.0/arm/arm-none-eabi/include/c++/10.3.1/cmath ****   { return __builtin_acosl(__x); }
  93:/Library/DaisyToolchain/0.2.0/arm/arm-none-eabi/include/c++/10.3.1/cmath **** #endif
  94:/Library/DaisyToolchain/0.2.0/arm/arm-none-eabi/include/c++/10.3.1/cmath **** 
  95:/Library/DaisyToolchain/0.2.0/arm/arm-none-eabi/include/c++/10.3.1/cmath ****   template<typename _Tp>
ARM GAS  /var/folders/2p/02m_5p7958535cp2tpgps0400000gn/T//cchBTf64.s 			page 88


  96:/Library/DaisyToolchain/0.2.0/arm/arm-none-eabi/include/c++/10.3.1/cmath ****     inline _GLIBCXX_CONSTEXPR
  97:/Library/DaisyToolchain/0.2.0/arm/arm-none-eabi/include/c++/10.3.1/cmath ****     typename __gnu_cxx::__enable_if<__is_integer<_Tp>::__value, 
  98:/Library/DaisyToolchain/0.2.0/arm/arm-none-eabi/include/c++/10.3.1/cmath ****                                     double>::__type
  99:/Library/DaisyToolchain/0.2.0/arm/arm-none-eabi/include/c++/10.3.1/cmath ****     acos(_Tp __x)
 100:/Library/DaisyToolchain/0.2.0/arm/arm-none-eabi/include/c++/10.3.1/cmath ****     { return __builtin_acos(__x); }
 101:/Library/DaisyToolchain/0.2.0/arm/arm-none-eabi/include/c++/10.3.1/cmath **** 
 102:/Library/DaisyToolchain/0.2.0/arm/arm-none-eabi/include/c++/10.3.1/cmath ****   using ::asin;
 103:/Library/DaisyToolchain/0.2.0/arm/arm-none-eabi/include/c++/10.3.1/cmath **** 
 104:/Library/DaisyToolchain/0.2.0/arm/arm-none-eabi/include/c++/10.3.1/cmath **** #ifndef __CORRECT_ISO_CPP_MATH_H_PROTO
 105:/Library/DaisyToolchain/0.2.0/arm/arm-none-eabi/include/c++/10.3.1/cmath ****   inline _GLIBCXX_CONSTEXPR float
 106:/Library/DaisyToolchain/0.2.0/arm/arm-none-eabi/include/c++/10.3.1/cmath ****   asin(float __x)
 107:/Library/DaisyToolchain/0.2.0/arm/arm-none-eabi/include/c++/10.3.1/cmath ****   { return __builtin_asinf(__x); }
 108:/Library/DaisyToolchain/0.2.0/arm/arm-none-eabi/include/c++/10.3.1/cmath **** 
 109:/Library/DaisyToolchain/0.2.0/arm/arm-none-eabi/include/c++/10.3.1/cmath ****   inline _GLIBCXX_CONSTEXPR long double
 110:/Library/DaisyToolchain/0.2.0/arm/arm-none-eabi/include/c++/10.3.1/cmath ****   asin(long double __x)
 111:/Library/DaisyToolchain/0.2.0/arm/arm-none-eabi/include/c++/10.3.1/cmath ****   { return __builtin_asinl(__x); }
 112:/Library/DaisyToolchain/0.2.0/arm/arm-none-eabi/include/c++/10.3.1/cmath **** #endif
 113:/Library/DaisyToolchain/0.2.0/arm/arm-none-eabi/include/c++/10.3.1/cmath **** 
 114:/Library/DaisyToolchain/0.2.0/arm/arm-none-eabi/include/c++/10.3.1/cmath ****   template<typename _Tp>
 115:/Library/DaisyToolchain/0.2.0/arm/arm-none-eabi/include/c++/10.3.1/cmath ****     inline _GLIBCXX_CONSTEXPR
 116:/Library/DaisyToolchain/0.2.0/arm/arm-none-eabi/include/c++/10.3.1/cmath ****     typename __gnu_cxx::__enable_if<__is_integer<_Tp>::__value,
 117:/Library/DaisyToolchain/0.2.0/arm/arm-none-eabi/include/c++/10.3.1/cmath ****                                     double>::__type
 118:/Library/DaisyToolchain/0.2.0/arm/arm-none-eabi/include/c++/10.3.1/cmath ****     asin(_Tp __x)
 119:/Library/DaisyToolchain/0.2.0/arm/arm-none-eabi/include/c++/10.3.1/cmath ****     { return __builtin_asin(__x); }
 120:/Library/DaisyToolchain/0.2.0/arm/arm-none-eabi/include/c++/10.3.1/cmath **** 
 121:/Library/DaisyToolchain/0.2.0/arm/arm-none-eabi/include/c++/10.3.1/cmath ****   using ::atan;
 122:/Library/DaisyToolchain/0.2.0/arm/arm-none-eabi/include/c++/10.3.1/cmath **** 
 123:/Library/DaisyToolchain/0.2.0/arm/arm-none-eabi/include/c++/10.3.1/cmath **** #ifndef __CORRECT_ISO_CPP_MATH_H_PROTO
 124:/Library/DaisyToolchain/0.2.0/arm/arm-none-eabi/include/c++/10.3.1/cmath ****   inline _GLIBCXX_CONSTEXPR float
 125:/Library/DaisyToolchain/0.2.0/arm/arm-none-eabi/include/c++/10.3.1/cmath ****   atan(float __x)
 126:/Library/DaisyToolchain/0.2.0/arm/arm-none-eabi/include/c++/10.3.1/cmath ****   { return __builtin_atanf(__x); }
 127:/Library/DaisyToolchain/0.2.0/arm/arm-none-eabi/include/c++/10.3.1/cmath **** 
 128:/Library/DaisyToolchain/0.2.0/arm/arm-none-eabi/include/c++/10.3.1/cmath ****   inline _GLIBCXX_CONSTEXPR long double
 129:/Library/DaisyToolchain/0.2.0/arm/arm-none-eabi/include/c++/10.3.1/cmath ****   atan(long double __x)
 130:/Library/DaisyToolchain/0.2.0/arm/arm-none-eabi/include/c++/10.3.1/cmath ****   { return __builtin_atanl(__x); }
 131:/Library/DaisyToolchain/0.2.0/arm/arm-none-eabi/include/c++/10.3.1/cmath **** #endif
 132:/Library/DaisyToolchain/0.2.0/arm/arm-none-eabi/include/c++/10.3.1/cmath **** 
 133:/Library/DaisyToolchain/0.2.0/arm/arm-none-eabi/include/c++/10.3.1/cmath ****   template<typename _Tp>
 134:/Library/DaisyToolchain/0.2.0/arm/arm-none-eabi/include/c++/10.3.1/cmath ****     inline _GLIBCXX_CONSTEXPR
 135:/Library/DaisyToolchain/0.2.0/arm/arm-none-eabi/include/c++/10.3.1/cmath ****     typename __gnu_cxx::__enable_if<__is_integer<_Tp>::__value,
 136:/Library/DaisyToolchain/0.2.0/arm/arm-none-eabi/include/c++/10.3.1/cmath ****                                     double>::__type
 137:/Library/DaisyToolchain/0.2.0/arm/arm-none-eabi/include/c++/10.3.1/cmath ****     atan(_Tp __x)
 138:/Library/DaisyToolchain/0.2.0/arm/arm-none-eabi/include/c++/10.3.1/cmath ****     { return __builtin_atan(__x); }
 139:/Library/DaisyToolchain/0.2.0/arm/arm-none-eabi/include/c++/10.3.1/cmath **** 
 140:/Library/DaisyToolchain/0.2.0/arm/arm-none-eabi/include/c++/10.3.1/cmath ****   using ::atan2;
 141:/Library/DaisyToolchain/0.2.0/arm/arm-none-eabi/include/c++/10.3.1/cmath **** 
 142:/Library/DaisyToolchain/0.2.0/arm/arm-none-eabi/include/c++/10.3.1/cmath **** #ifndef __CORRECT_ISO_CPP_MATH_H_PROTO
 143:/Library/DaisyToolchain/0.2.0/arm/arm-none-eabi/include/c++/10.3.1/cmath ****   inline _GLIBCXX_CONSTEXPR float
 144:/Library/DaisyToolchain/0.2.0/arm/arm-none-eabi/include/c++/10.3.1/cmath ****   atan2(float __y, float __x)
 145:/Library/DaisyToolchain/0.2.0/arm/arm-none-eabi/include/c++/10.3.1/cmath ****   { return __builtin_atan2f(__y, __x); }
 146:/Library/DaisyToolchain/0.2.0/arm/arm-none-eabi/include/c++/10.3.1/cmath **** 
 147:/Library/DaisyToolchain/0.2.0/arm/arm-none-eabi/include/c++/10.3.1/cmath ****   inline _GLIBCXX_CONSTEXPR long double
 148:/Library/DaisyToolchain/0.2.0/arm/arm-none-eabi/include/c++/10.3.1/cmath ****   atan2(long double __y, long double __x)
 149:/Library/DaisyToolchain/0.2.0/arm/arm-none-eabi/include/c++/10.3.1/cmath ****   { return __builtin_atan2l(__y, __x); }
 150:/Library/DaisyToolchain/0.2.0/arm/arm-none-eabi/include/c++/10.3.1/cmath **** #endif
 151:/Library/DaisyToolchain/0.2.0/arm/arm-none-eabi/include/c++/10.3.1/cmath **** 
 152:/Library/DaisyToolchain/0.2.0/arm/arm-none-eabi/include/c++/10.3.1/cmath ****   template<typename _Tp, typename _Up>
ARM GAS  /var/folders/2p/02m_5p7958535cp2tpgps0400000gn/T//cchBTf64.s 			page 89


 153:/Library/DaisyToolchain/0.2.0/arm/arm-none-eabi/include/c++/10.3.1/cmath ****     inline _GLIBCXX_CONSTEXPR
 154:/Library/DaisyToolchain/0.2.0/arm/arm-none-eabi/include/c++/10.3.1/cmath ****     typename __gnu_cxx::__promote_2<_Tp, _Up>::__type
 155:/Library/DaisyToolchain/0.2.0/arm/arm-none-eabi/include/c++/10.3.1/cmath ****     atan2(_Tp __y, _Up __x)
 156:/Library/DaisyToolchain/0.2.0/arm/arm-none-eabi/include/c++/10.3.1/cmath ****     {
 157:/Library/DaisyToolchain/0.2.0/arm/arm-none-eabi/include/c++/10.3.1/cmath ****       typedef typename __gnu_cxx::__promote_2<_Tp, _Up>::__type __type;
 158:/Library/DaisyToolchain/0.2.0/arm/arm-none-eabi/include/c++/10.3.1/cmath ****       return atan2(__type(__y), __type(__x));
 159:/Library/DaisyToolchain/0.2.0/arm/arm-none-eabi/include/c++/10.3.1/cmath ****     }
 160:/Library/DaisyToolchain/0.2.0/arm/arm-none-eabi/include/c++/10.3.1/cmath **** 
 161:/Library/DaisyToolchain/0.2.0/arm/arm-none-eabi/include/c++/10.3.1/cmath ****   using ::ceil;
 162:/Library/DaisyToolchain/0.2.0/arm/arm-none-eabi/include/c++/10.3.1/cmath **** 
 163:/Library/DaisyToolchain/0.2.0/arm/arm-none-eabi/include/c++/10.3.1/cmath **** #ifndef __CORRECT_ISO_CPP_MATH_H_PROTO
 164:/Library/DaisyToolchain/0.2.0/arm/arm-none-eabi/include/c++/10.3.1/cmath ****   inline _GLIBCXX_CONSTEXPR float
 165:/Library/DaisyToolchain/0.2.0/arm/arm-none-eabi/include/c++/10.3.1/cmath ****   ceil(float __x)
 166:/Library/DaisyToolchain/0.2.0/arm/arm-none-eabi/include/c++/10.3.1/cmath ****   { return __builtin_ceilf(__x); }
 167:/Library/DaisyToolchain/0.2.0/arm/arm-none-eabi/include/c++/10.3.1/cmath **** 
 168:/Library/DaisyToolchain/0.2.0/arm/arm-none-eabi/include/c++/10.3.1/cmath ****   inline _GLIBCXX_CONSTEXPR long double
 169:/Library/DaisyToolchain/0.2.0/arm/arm-none-eabi/include/c++/10.3.1/cmath ****   ceil(long double __x)
 170:/Library/DaisyToolchain/0.2.0/arm/arm-none-eabi/include/c++/10.3.1/cmath ****   { return __builtin_ceill(__x); }
 171:/Library/DaisyToolchain/0.2.0/arm/arm-none-eabi/include/c++/10.3.1/cmath **** #endif
 172:/Library/DaisyToolchain/0.2.0/arm/arm-none-eabi/include/c++/10.3.1/cmath **** 
 173:/Library/DaisyToolchain/0.2.0/arm/arm-none-eabi/include/c++/10.3.1/cmath ****   template<typename _Tp>
 174:/Library/DaisyToolchain/0.2.0/arm/arm-none-eabi/include/c++/10.3.1/cmath ****     inline _GLIBCXX_CONSTEXPR
 175:/Library/DaisyToolchain/0.2.0/arm/arm-none-eabi/include/c++/10.3.1/cmath ****     typename __gnu_cxx::__enable_if<__is_integer<_Tp>::__value, 
 176:/Library/DaisyToolchain/0.2.0/arm/arm-none-eabi/include/c++/10.3.1/cmath ****                                     double>::__type
 177:/Library/DaisyToolchain/0.2.0/arm/arm-none-eabi/include/c++/10.3.1/cmath ****     ceil(_Tp __x)
 178:/Library/DaisyToolchain/0.2.0/arm/arm-none-eabi/include/c++/10.3.1/cmath ****     { return __builtin_ceil(__x); }
 179:/Library/DaisyToolchain/0.2.0/arm/arm-none-eabi/include/c++/10.3.1/cmath **** 
 180:/Library/DaisyToolchain/0.2.0/arm/arm-none-eabi/include/c++/10.3.1/cmath ****   using ::cos;
 181:/Library/DaisyToolchain/0.2.0/arm/arm-none-eabi/include/c++/10.3.1/cmath **** 
 182:/Library/DaisyToolchain/0.2.0/arm/arm-none-eabi/include/c++/10.3.1/cmath **** #ifndef __CORRECT_ISO_CPP_MATH_H_PROTO
 183:/Library/DaisyToolchain/0.2.0/arm/arm-none-eabi/include/c++/10.3.1/cmath ****   inline _GLIBCXX_CONSTEXPR float
 184:/Library/DaisyToolchain/0.2.0/arm/arm-none-eabi/include/c++/10.3.1/cmath ****   cos(float __x)
 2912              		.loc 14 184 3 is_stmt 1 view .LVU815
 2913              	.LBB546:
 185:/Library/DaisyToolchain/0.2.0/arm/arm-none-eabi/include/c++/10.3.1/cmath ****   { return __builtin_cosf(__x); }
 2914              		.loc 14 185 5 view .LVU816
 2915              		.loc 14 185 26 is_stmt 0 view .LVU817
 2916 00ca B0EE690A 		vmov.f32	s0, s19
 2917              	.LVL206:
 2918              		.loc 14 185 26 view .LVU818
 2919 00ce FFF7FEFF 		bl	cosf
 2920              	.LVL207:
 2921 00d2 B0EE408A 		vmov.f32	s16, s0
 2922              	.LVL208:
 2923              		.loc 14 185 26 view .LVU819
 2924              	.LBE546:
 2925              	.LBE545:
 2926              	.LBB547:
 2927              	.LBI547:
 186:/Library/DaisyToolchain/0.2.0/arm/arm-none-eabi/include/c++/10.3.1/cmath **** 
 187:/Library/DaisyToolchain/0.2.0/arm/arm-none-eabi/include/c++/10.3.1/cmath ****   inline _GLIBCXX_CONSTEXPR long double
 188:/Library/DaisyToolchain/0.2.0/arm/arm-none-eabi/include/c++/10.3.1/cmath ****   cos(long double __x)
 189:/Library/DaisyToolchain/0.2.0/arm/arm-none-eabi/include/c++/10.3.1/cmath ****   { return __builtin_cosl(__x); }
 190:/Library/DaisyToolchain/0.2.0/arm/arm-none-eabi/include/c++/10.3.1/cmath **** #endif
 191:/Library/DaisyToolchain/0.2.0/arm/arm-none-eabi/include/c++/10.3.1/cmath **** 
 192:/Library/DaisyToolchain/0.2.0/arm/arm-none-eabi/include/c++/10.3.1/cmath ****   template<typename _Tp>
 193:/Library/DaisyToolchain/0.2.0/arm/arm-none-eabi/include/c++/10.3.1/cmath ****     inline _GLIBCXX_CONSTEXPR
ARM GAS  /var/folders/2p/02m_5p7958535cp2tpgps0400000gn/T//cchBTf64.s 			page 90


 194:/Library/DaisyToolchain/0.2.0/arm/arm-none-eabi/include/c++/10.3.1/cmath ****     typename __gnu_cxx::__enable_if<__is_integer<_Tp>::__value,
 195:/Library/DaisyToolchain/0.2.0/arm/arm-none-eabi/include/c++/10.3.1/cmath ****                                     double>::__type
 196:/Library/DaisyToolchain/0.2.0/arm/arm-none-eabi/include/c++/10.3.1/cmath ****     cos(_Tp __x)
 197:/Library/DaisyToolchain/0.2.0/arm/arm-none-eabi/include/c++/10.3.1/cmath ****     { return __builtin_cos(__x); }
 198:/Library/DaisyToolchain/0.2.0/arm/arm-none-eabi/include/c++/10.3.1/cmath **** 
 199:/Library/DaisyToolchain/0.2.0/arm/arm-none-eabi/include/c++/10.3.1/cmath ****   using ::cosh;
 200:/Library/DaisyToolchain/0.2.0/arm/arm-none-eabi/include/c++/10.3.1/cmath **** 
 201:/Library/DaisyToolchain/0.2.0/arm/arm-none-eabi/include/c++/10.3.1/cmath **** #ifndef __CORRECT_ISO_CPP_MATH_H_PROTO
 202:/Library/DaisyToolchain/0.2.0/arm/arm-none-eabi/include/c++/10.3.1/cmath ****   inline _GLIBCXX_CONSTEXPR float
 203:/Library/DaisyToolchain/0.2.0/arm/arm-none-eabi/include/c++/10.3.1/cmath ****   cosh(float __x)
 204:/Library/DaisyToolchain/0.2.0/arm/arm-none-eabi/include/c++/10.3.1/cmath ****   { return __builtin_coshf(__x); }
 205:/Library/DaisyToolchain/0.2.0/arm/arm-none-eabi/include/c++/10.3.1/cmath **** 
 206:/Library/DaisyToolchain/0.2.0/arm/arm-none-eabi/include/c++/10.3.1/cmath ****   inline _GLIBCXX_CONSTEXPR long double
 207:/Library/DaisyToolchain/0.2.0/arm/arm-none-eabi/include/c++/10.3.1/cmath ****   cosh(long double __x)
 208:/Library/DaisyToolchain/0.2.0/arm/arm-none-eabi/include/c++/10.3.1/cmath ****   { return __builtin_coshl(__x); }
 209:/Library/DaisyToolchain/0.2.0/arm/arm-none-eabi/include/c++/10.3.1/cmath **** #endif
 210:/Library/DaisyToolchain/0.2.0/arm/arm-none-eabi/include/c++/10.3.1/cmath **** 
 211:/Library/DaisyToolchain/0.2.0/arm/arm-none-eabi/include/c++/10.3.1/cmath ****   template<typename _Tp>
 212:/Library/DaisyToolchain/0.2.0/arm/arm-none-eabi/include/c++/10.3.1/cmath ****     inline _GLIBCXX_CONSTEXPR
 213:/Library/DaisyToolchain/0.2.0/arm/arm-none-eabi/include/c++/10.3.1/cmath ****     typename __gnu_cxx::__enable_if<__is_integer<_Tp>::__value,
 214:/Library/DaisyToolchain/0.2.0/arm/arm-none-eabi/include/c++/10.3.1/cmath ****                                     double>::__type
 215:/Library/DaisyToolchain/0.2.0/arm/arm-none-eabi/include/c++/10.3.1/cmath ****     cosh(_Tp __x)
 216:/Library/DaisyToolchain/0.2.0/arm/arm-none-eabi/include/c++/10.3.1/cmath ****     { return __builtin_cosh(__x); }
 217:/Library/DaisyToolchain/0.2.0/arm/arm-none-eabi/include/c++/10.3.1/cmath **** 
 218:/Library/DaisyToolchain/0.2.0/arm/arm-none-eabi/include/c++/10.3.1/cmath ****   using ::exp;
 219:/Library/DaisyToolchain/0.2.0/arm/arm-none-eabi/include/c++/10.3.1/cmath **** 
 220:/Library/DaisyToolchain/0.2.0/arm/arm-none-eabi/include/c++/10.3.1/cmath **** #ifndef __CORRECT_ISO_CPP_MATH_H_PROTO
 221:/Library/DaisyToolchain/0.2.0/arm/arm-none-eabi/include/c++/10.3.1/cmath ****   inline _GLIBCXX_CONSTEXPR float
 222:/Library/DaisyToolchain/0.2.0/arm/arm-none-eabi/include/c++/10.3.1/cmath ****   exp(float __x)
 223:/Library/DaisyToolchain/0.2.0/arm/arm-none-eabi/include/c++/10.3.1/cmath ****   { return __builtin_expf(__x); }
 224:/Library/DaisyToolchain/0.2.0/arm/arm-none-eabi/include/c++/10.3.1/cmath **** 
 225:/Library/DaisyToolchain/0.2.0/arm/arm-none-eabi/include/c++/10.3.1/cmath ****   inline _GLIBCXX_CONSTEXPR long double
 226:/Library/DaisyToolchain/0.2.0/arm/arm-none-eabi/include/c++/10.3.1/cmath ****   exp(long double __x)
 227:/Library/DaisyToolchain/0.2.0/arm/arm-none-eabi/include/c++/10.3.1/cmath ****   { return __builtin_expl(__x); }
 228:/Library/DaisyToolchain/0.2.0/arm/arm-none-eabi/include/c++/10.3.1/cmath **** #endif
 229:/Library/DaisyToolchain/0.2.0/arm/arm-none-eabi/include/c++/10.3.1/cmath **** 
 230:/Library/DaisyToolchain/0.2.0/arm/arm-none-eabi/include/c++/10.3.1/cmath ****   template<typename _Tp>
 231:/Library/DaisyToolchain/0.2.0/arm/arm-none-eabi/include/c++/10.3.1/cmath ****     inline _GLIBCXX_CONSTEXPR
 232:/Library/DaisyToolchain/0.2.0/arm/arm-none-eabi/include/c++/10.3.1/cmath ****     typename __gnu_cxx::__enable_if<__is_integer<_Tp>::__value,
 233:/Library/DaisyToolchain/0.2.0/arm/arm-none-eabi/include/c++/10.3.1/cmath ****                                     double>::__type
 234:/Library/DaisyToolchain/0.2.0/arm/arm-none-eabi/include/c++/10.3.1/cmath ****     exp(_Tp __x)
 235:/Library/DaisyToolchain/0.2.0/arm/arm-none-eabi/include/c++/10.3.1/cmath ****     { return __builtin_exp(__x); }
 236:/Library/DaisyToolchain/0.2.0/arm/arm-none-eabi/include/c++/10.3.1/cmath **** 
 237:/Library/DaisyToolchain/0.2.0/arm/arm-none-eabi/include/c++/10.3.1/cmath ****   using ::fabs;
 238:/Library/DaisyToolchain/0.2.0/arm/arm-none-eabi/include/c++/10.3.1/cmath **** 
 239:/Library/DaisyToolchain/0.2.0/arm/arm-none-eabi/include/c++/10.3.1/cmath **** #ifndef __CORRECT_ISO_CPP_MATH_H_PROTO
 240:/Library/DaisyToolchain/0.2.0/arm/arm-none-eabi/include/c++/10.3.1/cmath ****   inline _GLIBCXX_CONSTEXPR float
 241:/Library/DaisyToolchain/0.2.0/arm/arm-none-eabi/include/c++/10.3.1/cmath ****   fabs(float __x)
 242:/Library/DaisyToolchain/0.2.0/arm/arm-none-eabi/include/c++/10.3.1/cmath ****   { return __builtin_fabsf(__x); }
 243:/Library/DaisyToolchain/0.2.0/arm/arm-none-eabi/include/c++/10.3.1/cmath **** 
 244:/Library/DaisyToolchain/0.2.0/arm/arm-none-eabi/include/c++/10.3.1/cmath ****   inline _GLIBCXX_CONSTEXPR long double
 245:/Library/DaisyToolchain/0.2.0/arm/arm-none-eabi/include/c++/10.3.1/cmath ****   fabs(long double __x)
 246:/Library/DaisyToolchain/0.2.0/arm/arm-none-eabi/include/c++/10.3.1/cmath ****   { return __builtin_fabsl(__x); }
 247:/Library/DaisyToolchain/0.2.0/arm/arm-none-eabi/include/c++/10.3.1/cmath **** #endif
 248:/Library/DaisyToolchain/0.2.0/arm/arm-none-eabi/include/c++/10.3.1/cmath **** 
 249:/Library/DaisyToolchain/0.2.0/arm/arm-none-eabi/include/c++/10.3.1/cmath ****   template<typename _Tp>
 250:/Library/DaisyToolchain/0.2.0/arm/arm-none-eabi/include/c++/10.3.1/cmath ****     inline _GLIBCXX_CONSTEXPR
ARM GAS  /var/folders/2p/02m_5p7958535cp2tpgps0400000gn/T//cchBTf64.s 			page 91


 251:/Library/DaisyToolchain/0.2.0/arm/arm-none-eabi/include/c++/10.3.1/cmath ****     typename __gnu_cxx::__enable_if<__is_integer<_Tp>::__value,
 252:/Library/DaisyToolchain/0.2.0/arm/arm-none-eabi/include/c++/10.3.1/cmath ****                                     double>::__type
 253:/Library/DaisyToolchain/0.2.0/arm/arm-none-eabi/include/c++/10.3.1/cmath ****     fabs(_Tp __x)
 254:/Library/DaisyToolchain/0.2.0/arm/arm-none-eabi/include/c++/10.3.1/cmath ****     { return __builtin_fabs(__x); }
 255:/Library/DaisyToolchain/0.2.0/arm/arm-none-eabi/include/c++/10.3.1/cmath **** 
 256:/Library/DaisyToolchain/0.2.0/arm/arm-none-eabi/include/c++/10.3.1/cmath ****   using ::floor;
 257:/Library/DaisyToolchain/0.2.0/arm/arm-none-eabi/include/c++/10.3.1/cmath **** 
 258:/Library/DaisyToolchain/0.2.0/arm/arm-none-eabi/include/c++/10.3.1/cmath **** #ifndef __CORRECT_ISO_CPP_MATH_H_PROTO
 259:/Library/DaisyToolchain/0.2.0/arm/arm-none-eabi/include/c++/10.3.1/cmath ****   inline _GLIBCXX_CONSTEXPR float
 260:/Library/DaisyToolchain/0.2.0/arm/arm-none-eabi/include/c++/10.3.1/cmath ****   floor(float __x)
 261:/Library/DaisyToolchain/0.2.0/arm/arm-none-eabi/include/c++/10.3.1/cmath ****   { return __builtin_floorf(__x); }
 262:/Library/DaisyToolchain/0.2.0/arm/arm-none-eabi/include/c++/10.3.1/cmath **** 
 263:/Library/DaisyToolchain/0.2.0/arm/arm-none-eabi/include/c++/10.3.1/cmath ****   inline _GLIBCXX_CONSTEXPR long double
 264:/Library/DaisyToolchain/0.2.0/arm/arm-none-eabi/include/c++/10.3.1/cmath ****   floor(long double __x)
 265:/Library/DaisyToolchain/0.2.0/arm/arm-none-eabi/include/c++/10.3.1/cmath ****   { return __builtin_floorl(__x); }
 266:/Library/DaisyToolchain/0.2.0/arm/arm-none-eabi/include/c++/10.3.1/cmath **** #endif
 267:/Library/DaisyToolchain/0.2.0/arm/arm-none-eabi/include/c++/10.3.1/cmath **** 
 268:/Library/DaisyToolchain/0.2.0/arm/arm-none-eabi/include/c++/10.3.1/cmath ****   template<typename _Tp>
 269:/Library/DaisyToolchain/0.2.0/arm/arm-none-eabi/include/c++/10.3.1/cmath ****     inline _GLIBCXX_CONSTEXPR
 270:/Library/DaisyToolchain/0.2.0/arm/arm-none-eabi/include/c++/10.3.1/cmath ****     typename __gnu_cxx::__enable_if<__is_integer<_Tp>::__value,
 271:/Library/DaisyToolchain/0.2.0/arm/arm-none-eabi/include/c++/10.3.1/cmath ****                                     double>::__type
 272:/Library/DaisyToolchain/0.2.0/arm/arm-none-eabi/include/c++/10.3.1/cmath ****     floor(_Tp __x)
 273:/Library/DaisyToolchain/0.2.0/arm/arm-none-eabi/include/c++/10.3.1/cmath ****     { return __builtin_floor(__x); }
 274:/Library/DaisyToolchain/0.2.0/arm/arm-none-eabi/include/c++/10.3.1/cmath **** 
 275:/Library/DaisyToolchain/0.2.0/arm/arm-none-eabi/include/c++/10.3.1/cmath ****   using ::fmod;
 276:/Library/DaisyToolchain/0.2.0/arm/arm-none-eabi/include/c++/10.3.1/cmath **** 
 277:/Library/DaisyToolchain/0.2.0/arm/arm-none-eabi/include/c++/10.3.1/cmath **** #ifndef __CORRECT_ISO_CPP_MATH_H_PROTO
 278:/Library/DaisyToolchain/0.2.0/arm/arm-none-eabi/include/c++/10.3.1/cmath ****   inline _GLIBCXX_CONSTEXPR float
 279:/Library/DaisyToolchain/0.2.0/arm/arm-none-eabi/include/c++/10.3.1/cmath ****   fmod(float __x, float __y)
 280:/Library/DaisyToolchain/0.2.0/arm/arm-none-eabi/include/c++/10.3.1/cmath ****   { return __builtin_fmodf(__x, __y); }
 281:/Library/DaisyToolchain/0.2.0/arm/arm-none-eabi/include/c++/10.3.1/cmath **** 
 282:/Library/DaisyToolchain/0.2.0/arm/arm-none-eabi/include/c++/10.3.1/cmath ****   inline _GLIBCXX_CONSTEXPR long double
 283:/Library/DaisyToolchain/0.2.0/arm/arm-none-eabi/include/c++/10.3.1/cmath ****   fmod(long double __x, long double __y)
 284:/Library/DaisyToolchain/0.2.0/arm/arm-none-eabi/include/c++/10.3.1/cmath ****   { return __builtin_fmodl(__x, __y); }
 285:/Library/DaisyToolchain/0.2.0/arm/arm-none-eabi/include/c++/10.3.1/cmath **** #endif
 286:/Library/DaisyToolchain/0.2.0/arm/arm-none-eabi/include/c++/10.3.1/cmath **** 
 287:/Library/DaisyToolchain/0.2.0/arm/arm-none-eabi/include/c++/10.3.1/cmath ****   template<typename _Tp, typename _Up>
 288:/Library/DaisyToolchain/0.2.0/arm/arm-none-eabi/include/c++/10.3.1/cmath ****     inline _GLIBCXX_CONSTEXPR
 289:/Library/DaisyToolchain/0.2.0/arm/arm-none-eabi/include/c++/10.3.1/cmath ****     typename __gnu_cxx::__promote_2<_Tp, _Up>::__type
 290:/Library/DaisyToolchain/0.2.0/arm/arm-none-eabi/include/c++/10.3.1/cmath ****     fmod(_Tp __x, _Up __y)
 291:/Library/DaisyToolchain/0.2.0/arm/arm-none-eabi/include/c++/10.3.1/cmath ****     {
 292:/Library/DaisyToolchain/0.2.0/arm/arm-none-eabi/include/c++/10.3.1/cmath ****       typedef typename __gnu_cxx::__promote_2<_Tp, _Up>::__type __type;
 293:/Library/DaisyToolchain/0.2.0/arm/arm-none-eabi/include/c++/10.3.1/cmath ****       return fmod(__type(__x), __type(__y));
 294:/Library/DaisyToolchain/0.2.0/arm/arm-none-eabi/include/c++/10.3.1/cmath ****     }
 295:/Library/DaisyToolchain/0.2.0/arm/arm-none-eabi/include/c++/10.3.1/cmath **** 
 296:/Library/DaisyToolchain/0.2.0/arm/arm-none-eabi/include/c++/10.3.1/cmath ****   using ::frexp;
 297:/Library/DaisyToolchain/0.2.0/arm/arm-none-eabi/include/c++/10.3.1/cmath **** 
 298:/Library/DaisyToolchain/0.2.0/arm/arm-none-eabi/include/c++/10.3.1/cmath **** #ifndef __CORRECT_ISO_CPP_MATH_H_PROTO
 299:/Library/DaisyToolchain/0.2.0/arm/arm-none-eabi/include/c++/10.3.1/cmath ****   inline float
 300:/Library/DaisyToolchain/0.2.0/arm/arm-none-eabi/include/c++/10.3.1/cmath ****   frexp(float __x, int* __exp)
 301:/Library/DaisyToolchain/0.2.0/arm/arm-none-eabi/include/c++/10.3.1/cmath ****   { return __builtin_frexpf(__x, __exp); }
 302:/Library/DaisyToolchain/0.2.0/arm/arm-none-eabi/include/c++/10.3.1/cmath **** 
 303:/Library/DaisyToolchain/0.2.0/arm/arm-none-eabi/include/c++/10.3.1/cmath ****   inline long double
 304:/Library/DaisyToolchain/0.2.0/arm/arm-none-eabi/include/c++/10.3.1/cmath ****   frexp(long double __x, int* __exp)
 305:/Library/DaisyToolchain/0.2.0/arm/arm-none-eabi/include/c++/10.3.1/cmath ****   { return __builtin_frexpl(__x, __exp); }
 306:/Library/DaisyToolchain/0.2.0/arm/arm-none-eabi/include/c++/10.3.1/cmath **** #endif
 307:/Library/DaisyToolchain/0.2.0/arm/arm-none-eabi/include/c++/10.3.1/cmath **** 
ARM GAS  /var/folders/2p/02m_5p7958535cp2tpgps0400000gn/T//cchBTf64.s 			page 92


 308:/Library/DaisyToolchain/0.2.0/arm/arm-none-eabi/include/c++/10.3.1/cmath ****   template<typename _Tp>
 309:/Library/DaisyToolchain/0.2.0/arm/arm-none-eabi/include/c++/10.3.1/cmath ****     inline _GLIBCXX_CONSTEXPR
 310:/Library/DaisyToolchain/0.2.0/arm/arm-none-eabi/include/c++/10.3.1/cmath ****     typename __gnu_cxx::__enable_if<__is_integer<_Tp>::__value, 
 311:/Library/DaisyToolchain/0.2.0/arm/arm-none-eabi/include/c++/10.3.1/cmath ****                                     double>::__type
 312:/Library/DaisyToolchain/0.2.0/arm/arm-none-eabi/include/c++/10.3.1/cmath ****     frexp(_Tp __x, int* __exp)
 313:/Library/DaisyToolchain/0.2.0/arm/arm-none-eabi/include/c++/10.3.1/cmath ****     { return __builtin_frexp(__x, __exp); }
 314:/Library/DaisyToolchain/0.2.0/arm/arm-none-eabi/include/c++/10.3.1/cmath **** 
 315:/Library/DaisyToolchain/0.2.0/arm/arm-none-eabi/include/c++/10.3.1/cmath ****   using ::ldexp;
 316:/Library/DaisyToolchain/0.2.0/arm/arm-none-eabi/include/c++/10.3.1/cmath **** 
 317:/Library/DaisyToolchain/0.2.0/arm/arm-none-eabi/include/c++/10.3.1/cmath **** #ifndef __CORRECT_ISO_CPP_MATH_H_PROTO
 318:/Library/DaisyToolchain/0.2.0/arm/arm-none-eabi/include/c++/10.3.1/cmath ****   inline _GLIBCXX_CONSTEXPR float
 319:/Library/DaisyToolchain/0.2.0/arm/arm-none-eabi/include/c++/10.3.1/cmath ****   ldexp(float __x, int __exp)
 320:/Library/DaisyToolchain/0.2.0/arm/arm-none-eabi/include/c++/10.3.1/cmath ****   { return __builtin_ldexpf(__x, __exp); }
 321:/Library/DaisyToolchain/0.2.0/arm/arm-none-eabi/include/c++/10.3.1/cmath **** 
 322:/Library/DaisyToolchain/0.2.0/arm/arm-none-eabi/include/c++/10.3.1/cmath ****   inline _GLIBCXX_CONSTEXPR long double
 323:/Library/DaisyToolchain/0.2.0/arm/arm-none-eabi/include/c++/10.3.1/cmath ****   ldexp(long double __x, int __exp)
 324:/Library/DaisyToolchain/0.2.0/arm/arm-none-eabi/include/c++/10.3.1/cmath ****   { return __builtin_ldexpl(__x, __exp); }
 325:/Library/DaisyToolchain/0.2.0/arm/arm-none-eabi/include/c++/10.3.1/cmath **** #endif
 326:/Library/DaisyToolchain/0.2.0/arm/arm-none-eabi/include/c++/10.3.1/cmath **** 
 327:/Library/DaisyToolchain/0.2.0/arm/arm-none-eabi/include/c++/10.3.1/cmath ****   template<typename _Tp>
 328:/Library/DaisyToolchain/0.2.0/arm/arm-none-eabi/include/c++/10.3.1/cmath ****     inline _GLIBCXX_CONSTEXPR
 329:/Library/DaisyToolchain/0.2.0/arm/arm-none-eabi/include/c++/10.3.1/cmath ****     typename __gnu_cxx::__enable_if<__is_integer<_Tp>::__value, 
 330:/Library/DaisyToolchain/0.2.0/arm/arm-none-eabi/include/c++/10.3.1/cmath ****                                     double>::__type
 331:/Library/DaisyToolchain/0.2.0/arm/arm-none-eabi/include/c++/10.3.1/cmath ****     ldexp(_Tp __x, int __exp)
 332:/Library/DaisyToolchain/0.2.0/arm/arm-none-eabi/include/c++/10.3.1/cmath ****     { return __builtin_ldexp(__x, __exp); }
 333:/Library/DaisyToolchain/0.2.0/arm/arm-none-eabi/include/c++/10.3.1/cmath **** 
 334:/Library/DaisyToolchain/0.2.0/arm/arm-none-eabi/include/c++/10.3.1/cmath ****   using ::log;
 335:/Library/DaisyToolchain/0.2.0/arm/arm-none-eabi/include/c++/10.3.1/cmath **** 
 336:/Library/DaisyToolchain/0.2.0/arm/arm-none-eabi/include/c++/10.3.1/cmath **** #ifndef __CORRECT_ISO_CPP_MATH_H_PROTO
 337:/Library/DaisyToolchain/0.2.0/arm/arm-none-eabi/include/c++/10.3.1/cmath ****   inline _GLIBCXX_CONSTEXPR float
 338:/Library/DaisyToolchain/0.2.0/arm/arm-none-eabi/include/c++/10.3.1/cmath ****   log(float __x)
 339:/Library/DaisyToolchain/0.2.0/arm/arm-none-eabi/include/c++/10.3.1/cmath ****   { return __builtin_logf(__x); }
 340:/Library/DaisyToolchain/0.2.0/arm/arm-none-eabi/include/c++/10.3.1/cmath **** 
 341:/Library/DaisyToolchain/0.2.0/arm/arm-none-eabi/include/c++/10.3.1/cmath ****   inline _GLIBCXX_CONSTEXPR long double
 342:/Library/DaisyToolchain/0.2.0/arm/arm-none-eabi/include/c++/10.3.1/cmath ****   log(long double __x)
 343:/Library/DaisyToolchain/0.2.0/arm/arm-none-eabi/include/c++/10.3.1/cmath ****   { return __builtin_logl(__x); }
 344:/Library/DaisyToolchain/0.2.0/arm/arm-none-eabi/include/c++/10.3.1/cmath **** #endif
 345:/Library/DaisyToolchain/0.2.0/arm/arm-none-eabi/include/c++/10.3.1/cmath **** 
 346:/Library/DaisyToolchain/0.2.0/arm/arm-none-eabi/include/c++/10.3.1/cmath ****   template<typename _Tp>
 347:/Library/DaisyToolchain/0.2.0/arm/arm-none-eabi/include/c++/10.3.1/cmath ****     inline _GLIBCXX_CONSTEXPR
 348:/Library/DaisyToolchain/0.2.0/arm/arm-none-eabi/include/c++/10.3.1/cmath ****     typename __gnu_cxx::__enable_if<__is_integer<_Tp>::__value, 
 349:/Library/DaisyToolchain/0.2.0/arm/arm-none-eabi/include/c++/10.3.1/cmath ****                                     double>::__type
 350:/Library/DaisyToolchain/0.2.0/arm/arm-none-eabi/include/c++/10.3.1/cmath ****     log(_Tp __x)
 351:/Library/DaisyToolchain/0.2.0/arm/arm-none-eabi/include/c++/10.3.1/cmath ****     { return __builtin_log(__x); }
 352:/Library/DaisyToolchain/0.2.0/arm/arm-none-eabi/include/c++/10.3.1/cmath **** 
 353:/Library/DaisyToolchain/0.2.0/arm/arm-none-eabi/include/c++/10.3.1/cmath ****   using ::log10;
 354:/Library/DaisyToolchain/0.2.0/arm/arm-none-eabi/include/c++/10.3.1/cmath **** 
 355:/Library/DaisyToolchain/0.2.0/arm/arm-none-eabi/include/c++/10.3.1/cmath **** #ifndef __CORRECT_ISO_CPP_MATH_H_PROTO
 356:/Library/DaisyToolchain/0.2.0/arm/arm-none-eabi/include/c++/10.3.1/cmath ****   inline _GLIBCXX_CONSTEXPR float
 357:/Library/DaisyToolchain/0.2.0/arm/arm-none-eabi/include/c++/10.3.1/cmath ****   log10(float __x)
 358:/Library/DaisyToolchain/0.2.0/arm/arm-none-eabi/include/c++/10.3.1/cmath ****   { return __builtin_log10f(__x); }
 359:/Library/DaisyToolchain/0.2.0/arm/arm-none-eabi/include/c++/10.3.1/cmath **** 
 360:/Library/DaisyToolchain/0.2.0/arm/arm-none-eabi/include/c++/10.3.1/cmath ****   inline _GLIBCXX_CONSTEXPR long double
 361:/Library/DaisyToolchain/0.2.0/arm/arm-none-eabi/include/c++/10.3.1/cmath ****   log10(long double __x)
 362:/Library/DaisyToolchain/0.2.0/arm/arm-none-eabi/include/c++/10.3.1/cmath ****   { return __builtin_log10l(__x); }
 363:/Library/DaisyToolchain/0.2.0/arm/arm-none-eabi/include/c++/10.3.1/cmath **** #endif
 364:/Library/DaisyToolchain/0.2.0/arm/arm-none-eabi/include/c++/10.3.1/cmath **** 
ARM GAS  /var/folders/2p/02m_5p7958535cp2tpgps0400000gn/T//cchBTf64.s 			page 93


 365:/Library/DaisyToolchain/0.2.0/arm/arm-none-eabi/include/c++/10.3.1/cmath ****   template<typename _Tp>
 366:/Library/DaisyToolchain/0.2.0/arm/arm-none-eabi/include/c++/10.3.1/cmath ****     inline _GLIBCXX_CONSTEXPR
 367:/Library/DaisyToolchain/0.2.0/arm/arm-none-eabi/include/c++/10.3.1/cmath ****     typename __gnu_cxx::__enable_if<__is_integer<_Tp>::__value,
 368:/Library/DaisyToolchain/0.2.0/arm/arm-none-eabi/include/c++/10.3.1/cmath ****                                     double>::__type
 369:/Library/DaisyToolchain/0.2.0/arm/arm-none-eabi/include/c++/10.3.1/cmath ****     log10(_Tp __x)
 370:/Library/DaisyToolchain/0.2.0/arm/arm-none-eabi/include/c++/10.3.1/cmath ****     { return __builtin_log10(__x); }
 371:/Library/DaisyToolchain/0.2.0/arm/arm-none-eabi/include/c++/10.3.1/cmath **** 
 372:/Library/DaisyToolchain/0.2.0/arm/arm-none-eabi/include/c++/10.3.1/cmath ****   using ::modf;
 373:/Library/DaisyToolchain/0.2.0/arm/arm-none-eabi/include/c++/10.3.1/cmath **** 
 374:/Library/DaisyToolchain/0.2.0/arm/arm-none-eabi/include/c++/10.3.1/cmath **** #ifndef __CORRECT_ISO_CPP_MATH_H_PROTO
 375:/Library/DaisyToolchain/0.2.0/arm/arm-none-eabi/include/c++/10.3.1/cmath ****   inline float
 376:/Library/DaisyToolchain/0.2.0/arm/arm-none-eabi/include/c++/10.3.1/cmath ****   modf(float __x, float* __iptr)
 377:/Library/DaisyToolchain/0.2.0/arm/arm-none-eabi/include/c++/10.3.1/cmath ****   { return __builtin_modff(__x, __iptr); }
 378:/Library/DaisyToolchain/0.2.0/arm/arm-none-eabi/include/c++/10.3.1/cmath **** 
 379:/Library/DaisyToolchain/0.2.0/arm/arm-none-eabi/include/c++/10.3.1/cmath ****   inline long double
 380:/Library/DaisyToolchain/0.2.0/arm/arm-none-eabi/include/c++/10.3.1/cmath ****   modf(long double __x, long double* __iptr)
 381:/Library/DaisyToolchain/0.2.0/arm/arm-none-eabi/include/c++/10.3.1/cmath ****   { return __builtin_modfl(__x, __iptr); }
 382:/Library/DaisyToolchain/0.2.0/arm/arm-none-eabi/include/c++/10.3.1/cmath **** #endif
 383:/Library/DaisyToolchain/0.2.0/arm/arm-none-eabi/include/c++/10.3.1/cmath **** 
 384:/Library/DaisyToolchain/0.2.0/arm/arm-none-eabi/include/c++/10.3.1/cmath ****   using ::pow;
 385:/Library/DaisyToolchain/0.2.0/arm/arm-none-eabi/include/c++/10.3.1/cmath **** 
 386:/Library/DaisyToolchain/0.2.0/arm/arm-none-eabi/include/c++/10.3.1/cmath **** #ifndef __CORRECT_ISO_CPP_MATH_H_PROTO
 387:/Library/DaisyToolchain/0.2.0/arm/arm-none-eabi/include/c++/10.3.1/cmath ****   inline _GLIBCXX_CONSTEXPR float
 388:/Library/DaisyToolchain/0.2.0/arm/arm-none-eabi/include/c++/10.3.1/cmath ****   pow(float __x, float __y)
 389:/Library/DaisyToolchain/0.2.0/arm/arm-none-eabi/include/c++/10.3.1/cmath ****   { return __builtin_powf(__x, __y); }
 390:/Library/DaisyToolchain/0.2.0/arm/arm-none-eabi/include/c++/10.3.1/cmath **** 
 391:/Library/DaisyToolchain/0.2.0/arm/arm-none-eabi/include/c++/10.3.1/cmath ****   inline _GLIBCXX_CONSTEXPR long double
 392:/Library/DaisyToolchain/0.2.0/arm/arm-none-eabi/include/c++/10.3.1/cmath ****   pow(long double __x, long double __y)
 393:/Library/DaisyToolchain/0.2.0/arm/arm-none-eabi/include/c++/10.3.1/cmath ****   { return __builtin_powl(__x, __y); }
 394:/Library/DaisyToolchain/0.2.0/arm/arm-none-eabi/include/c++/10.3.1/cmath **** 
 395:/Library/DaisyToolchain/0.2.0/arm/arm-none-eabi/include/c++/10.3.1/cmath **** #if __cplusplus < 201103L
 396:/Library/DaisyToolchain/0.2.0/arm/arm-none-eabi/include/c++/10.3.1/cmath ****   // _GLIBCXX_RESOLVE_LIB_DEFECTS
 397:/Library/DaisyToolchain/0.2.0/arm/arm-none-eabi/include/c++/10.3.1/cmath ****   // DR 550. What should the return type of pow(float,int) be?
 398:/Library/DaisyToolchain/0.2.0/arm/arm-none-eabi/include/c++/10.3.1/cmath ****   inline double
 399:/Library/DaisyToolchain/0.2.0/arm/arm-none-eabi/include/c++/10.3.1/cmath ****   pow(double __x, int __i)
 400:/Library/DaisyToolchain/0.2.0/arm/arm-none-eabi/include/c++/10.3.1/cmath ****   { return __builtin_powi(__x, __i); }
 401:/Library/DaisyToolchain/0.2.0/arm/arm-none-eabi/include/c++/10.3.1/cmath **** 
 402:/Library/DaisyToolchain/0.2.0/arm/arm-none-eabi/include/c++/10.3.1/cmath ****   inline float
 403:/Library/DaisyToolchain/0.2.0/arm/arm-none-eabi/include/c++/10.3.1/cmath ****   pow(float __x, int __n)
 404:/Library/DaisyToolchain/0.2.0/arm/arm-none-eabi/include/c++/10.3.1/cmath ****   { return __builtin_powif(__x, __n); }
 405:/Library/DaisyToolchain/0.2.0/arm/arm-none-eabi/include/c++/10.3.1/cmath **** 
 406:/Library/DaisyToolchain/0.2.0/arm/arm-none-eabi/include/c++/10.3.1/cmath ****   inline long double
 407:/Library/DaisyToolchain/0.2.0/arm/arm-none-eabi/include/c++/10.3.1/cmath ****   pow(long double __x, int __n)
 408:/Library/DaisyToolchain/0.2.0/arm/arm-none-eabi/include/c++/10.3.1/cmath ****   { return __builtin_powil(__x, __n); }
 409:/Library/DaisyToolchain/0.2.0/arm/arm-none-eabi/include/c++/10.3.1/cmath **** #endif
 410:/Library/DaisyToolchain/0.2.0/arm/arm-none-eabi/include/c++/10.3.1/cmath **** #endif
 411:/Library/DaisyToolchain/0.2.0/arm/arm-none-eabi/include/c++/10.3.1/cmath **** 
 412:/Library/DaisyToolchain/0.2.0/arm/arm-none-eabi/include/c++/10.3.1/cmath ****   template<typename _Tp, typename _Up>
 413:/Library/DaisyToolchain/0.2.0/arm/arm-none-eabi/include/c++/10.3.1/cmath ****     inline _GLIBCXX_CONSTEXPR
 414:/Library/DaisyToolchain/0.2.0/arm/arm-none-eabi/include/c++/10.3.1/cmath ****     typename __gnu_cxx::__promote_2<_Tp, _Up>::__type
 415:/Library/DaisyToolchain/0.2.0/arm/arm-none-eabi/include/c++/10.3.1/cmath ****     pow(_Tp __x, _Up __y)
 416:/Library/DaisyToolchain/0.2.0/arm/arm-none-eabi/include/c++/10.3.1/cmath ****     {
 417:/Library/DaisyToolchain/0.2.0/arm/arm-none-eabi/include/c++/10.3.1/cmath ****       typedef typename __gnu_cxx::__promote_2<_Tp, _Up>::__type __type;
 418:/Library/DaisyToolchain/0.2.0/arm/arm-none-eabi/include/c++/10.3.1/cmath ****       return pow(__type(__x), __type(__y));
 419:/Library/DaisyToolchain/0.2.0/arm/arm-none-eabi/include/c++/10.3.1/cmath ****     }
 420:/Library/DaisyToolchain/0.2.0/arm/arm-none-eabi/include/c++/10.3.1/cmath **** 
 421:/Library/DaisyToolchain/0.2.0/arm/arm-none-eabi/include/c++/10.3.1/cmath ****   using ::sin;
ARM GAS  /var/folders/2p/02m_5p7958535cp2tpgps0400000gn/T//cchBTf64.s 			page 94


 422:/Library/DaisyToolchain/0.2.0/arm/arm-none-eabi/include/c++/10.3.1/cmath **** 
 423:/Library/DaisyToolchain/0.2.0/arm/arm-none-eabi/include/c++/10.3.1/cmath **** #ifndef __CORRECT_ISO_CPP_MATH_H_PROTO
 424:/Library/DaisyToolchain/0.2.0/arm/arm-none-eabi/include/c++/10.3.1/cmath ****   inline _GLIBCXX_CONSTEXPR float
 425:/Library/DaisyToolchain/0.2.0/arm/arm-none-eabi/include/c++/10.3.1/cmath ****   sin(float __x)
 2928              		.loc 14 425 3 is_stmt 1 view .LVU820
 2929              	.LBB548:
 426:/Library/DaisyToolchain/0.2.0/arm/arm-none-eabi/include/c++/10.3.1/cmath ****   { return __builtin_sinf(__x); }
 2930              		.loc 14 426 5 view .LVU821
 2931              		.loc 14 426 26 is_stmt 0 view .LVU822
 2932 00d6 B0EE690A 		vmov.f32	s0, s19
 2933 00da FFF7FEFF 		bl	sinf
 2934              	.LVL209:
 2935              		.loc 14 426 26 view .LVU823
 2936              	.LBE548:
 2937              	.LBE547:
 2938              		.loc 13 17 43 view .LVU824
 2939 00de 60EE687A 		vnmul.f32	s15, s0, s17
 2940              	.LBE549:
 2941              	.LBE552:
 573:GrannyChordApp.cpp ****   out.right = chorus_.Process(out.right);
 2942              		.loc 3 573 29 view .LVU825
 2943 00e2 04F53570 		add	r0, r4, #724
 2944              	.LBB553:
 2945              	.LBB550:
 2946              		.loc 13 17 43 view .LVU826
 2947 00e6 E9EE087A 		vfma.f32	s15, s18, s16
 2948              	.LVL210:
  18:StereoRotator.h ****       out.right =(in.left*sin(rotation_)) - (in.right*cos(rotation_));
 2949              		.loc 13 18 7 is_stmt 1 view .LVU827
 2950              		.loc 13 18 7 is_stmt 0 view .LVU828
 2951              	.LBE550:
 2952              	.LBE553:
 2953              		.loc 14 426 5 is_stmt 1 view .LVU829
 185:/Library/DaisyToolchain/0.2.0/arm/arm-none-eabi/include/c++/10.3.1/cmath **** 
 2954              		.loc 14 185 5 view .LVU830
 573:GrannyChordApp.cpp ****   out.right = chorus_.Process(out.right);
 2955              		.loc 3 573 29 is_stmt 0 view .LVU831
 2956 00ea 0390     		str	r0, [sp, #12]
 2957              	.LBB554:
 2958              	.LBB551:
 2959              		.loc 13 18 43 view .LVU832
 2960 00ec 28EE688A 		vnmul.f32	s16, s16, s17
 2961 00f0 A9EE008A 		vfma.f32	s16, s18, s0
 2962              	.LVL211:
  19:StereoRotator.h ****       return out;
 2963              		.loc 13 19 7 is_stmt 1 view .LVU833
 2964              		.loc 13 19 7 is_stmt 0 view .LVU834
 2965              	.LBE551:
 2966              	.LBE554:
 573:GrannyChordApp.cpp ****   out.right = chorus_.Process(out.right);
 2967              		.loc 3 573 29 view .LVU835
 2968 00f4 B0EE670A 		vmov.f32	s0, s15
 570:GrannyChordApp.cpp **** 
 2969              		.loc 3 570 29 view .LVU836
 2970 00f8 CDED087A 		vstr.32	s15, [sp, #32]
 2971 00fc 8DED098A 		vstr.32	s16, [sp, #36]
 573:GrannyChordApp.cpp ****   out.right = chorus_.Process(out.right);
ARM GAS  /var/folders/2p/02m_5p7958535cp2tpgps0400000gn/T//cchBTf64.s 			page 95


 2972              		.loc 3 573 3 is_stmt 1 view .LVU837
 573:GrannyChordApp.cpp ****   out.right = chorus_.Process(out.right);
 2973              		.loc 3 573 29 is_stmt 0 view .LVU838
 2974 0100 FFF7FEFF 		bl	_ZN7daisysp6Chorus7ProcessEf
 2975              	.LVL212:
 574:GrannyChordApp.cpp **** 
 2976              		.loc 3 574 30 view .LVU839
 2977 0104 0398     		ldr	r0, [sp, #12]
 573:GrannyChordApp.cpp ****   out.right = chorus_.Process(out.right);
 2978              		.loc 3 573 12 view .LVU840
 2979 0106 8DED080A 		vstr.32	s0, [sp, #32]
 574:GrannyChordApp.cpp **** 
 2980              		.loc 3 574 3 is_stmt 1 view .LVU841
 574:GrannyChordApp.cpp **** 
 2981              		.loc 3 574 30 is_stmt 0 view .LVU842
 2982 010a 9DED090A 		vldr.32	s0, [sp, #36]
 2983 010e FFF7FEFF 		bl	_ZN7daisysp6Chorus7ProcessEf
 2984              	.LVL213:
 2985              		.loc 3 577 21 view .LVU843
 2986 0112 09AA     		add	r2, sp, #36
 2987 0114 2B46     		mov	r3, r5
 2988 0116 2946     		mov	r1, r5
 2989 0118 0092     		str	r2, [sp]
 2990 011a D4F8D002 		ldr	r0, [r4, #720]
 578:GrannyChordApp.cpp **** 
 579:GrannyChordApp.cpp ****   out.left = hicut_.Process(out.left);
 2991              		.loc 3 579 28 view .LVU844
 2992 011e 04F59D44 		add	r4, r4, #20096
 2993              	.LVL214:
 574:GrannyChordApp.cpp **** 
 2994              		.loc 3 574 13 view .LVU845
 2995 0122 8DED090A 		vstr.32	s0, [sp, #36]
 577:GrannyChordApp.cpp **** 
 2996              		.loc 3 577 3 is_stmt 1 view .LVU846
 577:GrannyChordApp.cpp **** 
 2997              		.loc 3 577 21 is_stmt 0 view .LVU847
 2998 0126 FFF7FEFF 		bl	_ZN7daisysp8ReverbSc10ProcessMixERKfS2_PfS3_
 2999              	.LVL215:
 3000              		.loc 3 579 3 is_stmt 1 view .LVU848
 3001              		.loc 3 579 28 is_stmt 0 view .LVU849
 3002 012a 0C34     		adds	r4, r4, #12
 3003              	.LVL216:
 3004              		.loc 3 579 28 view .LVU850
 3005 012c 9DED080A 		vldr.32	s0, [sp, #32]
 3006 0130 2046     		mov	r0, r4
 3007 0132 FFF7FEFF 		bl	_ZN7daisysp7OnePole7ProcessEf
 3008              	.LVL217:
 580:GrannyChordApp.cpp ****   out.right = hicut_.Process(out.right);
 3009              		.loc 3 580 29 view .LVU851
 3010 0136 2046     		mov	r0, r4
 579:GrannyChordApp.cpp ****   out.right = hicut_.Process(out.right);
 3011              		.loc 3 579 12 view .LVU852
 3012 0138 8DED080A 		vstr.32	s0, [sp, #32]
 3013              		.loc 3 580 3 is_stmt 1 view .LVU853
 3014              		.loc 3 580 29 is_stmt 0 view .LVU854
 3015 013c 9DED090A 		vldr.32	s0, [sp, #36]
 3016 0140 FFF7FEFF 		bl	_ZN7daisysp7OnePole7ProcessEf
ARM GAS  /var/folders/2p/02m_5p7958535cp2tpgps0400000gn/T//cchBTf64.s 			page 96


 3017              	.LVL218:
 581:GrannyChordApp.cpp ****   return out;
 3018              		.loc 3 581 10 view .LVU855
 3019 0144 0CAB     		add	r3, sp, #48
 580:GrannyChordApp.cpp ****   out.right = hicut_.Process(out.right);
 3020              		.loc 3 580 13 view .LVU856
 3021 0146 8DED090A 		vstr.32	s0, [sp, #36]
 3022              		.loc 3 581 3 is_stmt 1 view .LVU857
 3023              		.loc 3 581 10 is_stmt 0 view .LVU858
 3024 014a 95E80300 		ldm	r5, {r0, r1}
 3025 014e 03E90300 		stmdb	r3, {r0, r1}
 582:GrannyChordApp.cpp **** }
 3026              		.loc 3 582 1 view .LVU859
 3027 0152 9DED0A0A 		vldr.32	s0, [sp, #40]
 3028 0156 DDED0B0A 		vldr.32	s1, [sp, #44]
 3029 015a 0DB0     		add	sp, sp, #52
 3030              		.cfi_def_cfa_offset 28
 3031              		@ sp needed
 3032 015c BDEC048B 		vldm	sp!, {d8-d9}
 3033              		.cfi_restore 82
 3034              		.cfi_restore 83
 3035              		.cfi_restore 80
 3036              		.cfi_restore 81
 3037              		.cfi_def_cfa_offset 12
 3038 0160 30BD     		pop	{r4, r5, pc}
 3039              	.LVL219:
 3040              	.L102:
 3041              		.loc 3 582 1 view .LVU860
 3042 0162 00BFAFF3 		.align	3
 3042      0080
 3043              	.L101:
 3044 0168 182D4454 		.word	1413754136
 3045 016c FB211940 		.word	1075388923
 3046 0170 00000000 		.word	0
 3047 0174 0070E740 		.word	1088909312
 3048              		.cfi_endproc
 3049              	.LFE4942:
 3051              		.section	.rodata._ZN14GrannyChordApp13RecordOutToSDEv.str1.1,"aMS",%progbits,1
 3052              	.LC11:
 3053 0000 7265636F 		.ascii	"recording_%d\000"
 3053      7264696E 
 3053      675F2564 
 3053      00
 3054              		.section	.text._ZN14GrannyChordApp13RecordOutToSDEv,"ax",%progbits
 3055              		.align	1
 3056              		.global	_ZN14GrannyChordApp13RecordOutToSDEv
 3057              		.syntax unified
 3058              		.thumb
 3059              		.thumb_func
 3061              	_ZN14GrannyChordApp13RecordOutToSDEv:
 3062              	.LVL220:
 3063              	.LFB4943:
 583:GrannyChordApp.cpp **** 
 584:GrannyChordApp.cpp **** /// @brief Process audio from chord mode and mix to output buffer
 585:GrannyChordApp.cpp **** /// @param out Output audio buffer
 586:GrannyChordApp.cpp **** /// @param size Number of samples to process in this call
 587:GrannyChordApp.cpp **** // void GrannyChordApp::ProcessChordMode(AudioHandle::OutputBuffer out, size_t size){
ARM GAS  /var/folders/2p/02m_5p7958535cp2tpgps0400000gn/T//cchBTf64.s 			page 97


 588:GrannyChordApp.cpp **** //   // if (UserTriggeredChord()) {
 589:GrannyChordApp.cpp **** //   //   synth_.TriggerChord(out[0], out[1], size);
 590:GrannyChordApp.cpp **** //   // } else {
 591:GrannyChordApp.cpp **** //   //     std::memset(out[0], 0, size * sizeof(float));
 592:GrannyChordApp.cpp **** //   //     std::memset(out[1], 0, size * sizeof(float));
 593:GrannyChordApp.cpp **** //   // }
 594:GrannyChordApp.cpp **** // }
 595:GrannyChordApp.cpp **** 
 596:GrannyChordApp.cpp **** /// @brief Record granular synth or chord output audio to SD card
 597:GrannyChordApp.cpp **** /// @param out Output audio buffer
 598:GrannyChordApp.cpp **** /// @param size Number of samples to process in this call
 599:GrannyChordApp.cpp **** void GrannyChordApp::RecordOutToSD(){
 3064              		.loc 3 599 37 is_stmt 1 view -0
 3065              		.cfi_startproc
 3066              		@ args = 0, pretend = 0, frame = 40
 3067              		@ frame_needed = 0, uses_anonymous_args = 0
 600:GrannyChordApp.cpp ****   InitWavWriter();
 3068              		.loc 3 600 3 view .LVU862
 599:GrannyChordApp.cpp ****   InitWavWriter();
 3069              		.loc 3 599 37 is_stmt 0 view .LVU863
 3070 0000 F0B5     		push	{r4, r5, r6, r7, lr}
 3071              		.cfi_def_cfa_offset 20
 3072              		.cfi_offset 4, -20
 3073              		.cfi_offset 5, -16
 3074              		.cfi_offset 6, -12
 3075              		.cfi_offset 7, -8
 3076              		.cfi_offset 14, -4
 3077 0002 0446     		mov	r4, r0
 3078 0004 8BB0     		sub	sp, sp, #44
 3079              		.cfi_def_cfa_offset 64
 3080              		.loc 3 600 16 view .LVU864
 3081 0006 FFF7FEFF 		bl	_ZN14GrannyChordApp13InitWavWriterEv
 3082              	.LVL221:
 601:GrannyChordApp.cpp ****   char name[32];
 3083              		.loc 3 601 3 is_stmt 1 view .LVU865
 602:GrannyChordApp.cpp ****   sprintf(name,"recording_%d",recording_count_);
 3084              		.loc 3 602 3 view .LVU866
 3085              		.loc 3 602 10 is_stmt 0 view .LVU867
 3086 000a 1749     		ldr	r1, .L106
 3087 000c 04F55045 		add	r5, r4, #53248
 3088 0010 02A8     		add	r0, sp, #8
 3089              	.LBB559:
 3090              	.LBB560:
 157:../libDaisy/src/util/WavWriter.h ****         {
 3091              		.loc 9 157 18 view .LVU868
 3092 0012 04F54F46 		add	r6, r4, #52992
 3093 0016 04F59F47 		add	r7, r4, #20352
 3094              	.LBE560:
 3095              	.LBE559:
 3096              		.loc 3 602 10 view .LVU869
 3097 001a D5F83422 		ldr	r2, [r5, #564]
 3098 001e FFF7FEFF 		bl	sprintf
 3099              	.LVL222:
 603:GrannyChordApp.cpp ****   recording_count_++;
 3100              		.loc 3 603 3 is_stmt 1 view .LVU870
 3101              		.loc 3 603 19 is_stmt 0 view .LVU871
 3102 0022 D5F83432 		ldr	r3, [r5, #564]
ARM GAS  /var/folders/2p/02m_5p7958535cp2tpgps0400000gn/T//cchBTf64.s 			page 98


 3103              	.LBB565:
 3104              	.LBB562:
 157:../libDaisy/src/util/WavWriter.h ****         {
 3105              		.loc 9 157 18 view .LVU872
 3106 0026 FC36     		adds	r6, r6, #252
 3107 0028 0A22     		movs	r2, #10
 3108              	.LBE562:
 3109              	.LBE565:
 3110              		.loc 3 603 19 view .LVU873
 3111 002a 0133     		adds	r3, r3, #1
 3112              	.LBB566:
 3113              	.LBB563:
 157:../libDaisy/src/util/WavWriter.h ****         {
 3114              		.loc 9 157 18 view .LVU874
 3115 002c 02A9     		add	r1, sp, #8
 3116 002e 3046     		mov	r0, r6
 3117 0030 3437     		adds	r7, r7, #52
 3118              	.LBE563:
 3119              	.LBE566:
 3120              		.loc 3 603 19 view .LVU875
 3121 0032 C5F83432 		str	r3, [r5, #564]
 604:GrannyChordApp.cpp ****   sd_writer_.OpenFile(name);
 3122              		.loc 3 604 3 is_stmt 1 view .LVU876
 3123              	.LVL223:
 3124              	.LBB567:
 3125              	.LBI559:
 155:../libDaisy/src/util/WavWriter.h ****     {
 3126              		.loc 9 155 10 view .LVU877
 3127              	.LBB564:
 157:../libDaisy/src/util/WavWriter.h ****         {
 3128              		.loc 9 157 18 is_stmt 0 view .LVU878
 3129 0036 FFF7FEFF 		bl	f_open
 3130              	.LVL224:
 157:../libDaisy/src/util/WavWriter.h ****         {
 3131              		.loc 9 157 9 view .LVU879
 3132 003a 80B9     		cbnz	r0, .L104
 3133              	.LBB561:
 159:../libDaisy/src/util/WavWriter.h ****             if(f_write(&fp_, &wavheader_, sizeof(wavheader_), &bw) == FR_OK)
 3134              		.loc 9 159 26 view .LVU880
 3135 003c 0190     		str	r0, [sp, #4]
 160:../libDaisy/src/util/WavWriter.h ****             {
 3136              		.loc 9 160 23 view .LVU881
 3137 003e 01AB     		add	r3, sp, #4
 3138 0040 2C22     		movs	r2, #44
 3139 0042 3946     		mov	r1, r7
 3140 0044 3046     		mov	r0, r6
 3141 0046 FFF7FEFF 		bl	f_write
 3142              	.LVL225:
 160:../libDaisy/src/util/WavWriter.h ****             {
 3143              		.loc 9 160 13 view .LVU882
 3144 004a 40B9     		cbnz	r0, .L104
 162:../libDaisy/src/util/WavWriter.h ****                 num_samps_ = 0;
 3145              		.loc 9 162 28 view .LVU883
 3146 004c 04F58043 		add	r3, r4, #16384
 3147 0050 0122     		movs	r2, #1
 3148 0052 04F54044 		add	r4, r4, #49152
 3149              	.LVL226:
ARM GAS  /var/folders/2p/02m_5p7958535cp2tpgps0400000gn/T//cchBTf64.s 			page 99


 162:../libDaisy/src/util/WavWriter.h ****                 num_samps_ = 0;
 3150              		.loc 9 162 28 view .LVU884
 3151 0056 84F8F82F 		strb	r2, [r4, #4088]
 163:../libDaisy/src/util/WavWriter.h ****             }
 3152              		.loc 9 163 28 view .LVU885
 3153 005a C3F8E00F 		str	r0, [r3, #4064]
 3154              	.LVL227:
 3155              	.L104:
 163:../libDaisy/src/util/WavWriter.h ****             }
 3156              		.loc 9 163 28 view .LVU886
 3157              	.LBE561:
 3158              	.LBE564:
 3159              	.LBE567:
 605:GrannyChordApp.cpp ****   recording_out_ = true;
 3160              		.loc 3 605 3 is_stmt 1 view .LVU887
 3161              		.loc 3 605 18 is_stmt 0 view .LVU888
 3162 005e 0123     		movs	r3, #1
 3163 0060 85F83032 		strb	r3, [r5, #560]
 606:GrannyChordApp.cpp **** }
 3164              		.loc 3 606 1 view .LVU889
 3165 0064 0BB0     		add	sp, sp, #44
 3166              		.cfi_def_cfa_offset 20
 3167              		@ sp needed
 3168 0066 F0BD     		pop	{r4, r5, r6, r7, pc}
 3169              	.LVL228:
 3170              	.L107:
 3171              		.loc 3 606 1 view .LVU890
 3172              		.align	2
 3173              	.L106:
 3174 0068 00000000 		.word	.LC11
 3175              		.cfi_endproc
 3176              	.LFE4943:
 3178              		.section	.rodata._ZN14GrannyChordApp17UpdateKnob1ParamsEf9SynthMode.str1.1,"aMS",%progbits,1
 3179              	.LC12:
 3180 0000 73657420 		.ascii	"set grain size to %u\000"
 3180      67726169 
 3180      6E207369 
 3180      7A652074 
 3180      6F202575 
 3181              	.LC13:
 3182 0015 73657420 		.ascii	"set pitch to %f\000"
 3182      70697463 
 3182      6820746F 
 3182      20256600 
 3183              		.section	.text._ZN14GrannyChordApp17UpdateKnob1ParamsEf9SynthMode,"ax",%progbits
 3184              		.align	1
 3185              		.global	_ZN14GrannyChordApp17UpdateKnob1ParamsEf9SynthMode
 3186              		.syntax unified
 3187              		.thumb
 3188              		.thumb_func
 3190              	_ZN14GrannyChordApp17UpdateKnob1ParamsEf9SynthMode:
 3191              	.LVL229:
 3192              	.LFB4945:
 607:GrannyChordApp.cpp **** 
 608:GrannyChordApp.cpp **** /// @brief cleans up after recording to SD card is finished
 609:GrannyChordApp.cpp **** void GrannyChordApp::FinishRecording(){
 610:GrannyChordApp.cpp ****   sd_writer_.SaveFile();
ARM GAS  /var/folders/2p/02m_5p7958535cp2tpgps0400000gn/T//cchBTf64.s 			page 100


 611:GrannyChordApp.cpp ****   recording_out_=false;
 612:GrannyChordApp.cpp **** }
 613:GrannyChordApp.cpp **** 
 614:GrannyChordApp.cpp **** /// @brief Updates synth parameters from hardware knob 1 input
 615:GrannyChordApp.cpp **** /// @param knob1_val float between 0-1 from knob input
 616:GrannyChordApp.cpp **** /// @param mode current synth mode that determines which parameters to update
 617:GrannyChordApp.cpp **** void GrannyChordApp::UpdateKnob1Params(float knob1_val, SynthMode mode){
 3193              		.loc 3 617 72 is_stmt 1 view -0
 3194              		.cfi_startproc
 3195              		@ args = 0, pretend = 0, frame = 0
 3196              		@ frame_needed = 0, uses_anonymous_args = 0
 618:GrannyChordApp.cpp ****   switch (mode){
 3197              		.loc 3 618 3 view .LVU892
 617:GrannyChordApp.cpp ****   switch (mode){
 3198              		.loc 3 617 72 is_stmt 0 view .LVU893
 3199 0000 10B5     		push	{r4, lr}
 3200              		.cfi_def_cfa_offset 8
 3201              		.cfi_offset 4, -8
 3202              		.cfi_offset 14, -4
 617:GrannyChordApp.cpp ****   switch (mode){
 3203              		.loc 3 617 72 view .LVU894
 3204 0002 0446     		mov	r4, r0
 3205              		.loc 3 618 3 view .LVU895
 3206 0004 11B1     		cbz	r1, .L109
 3207 0006 0229     		cmp	r1, #2
 3208 0008 16D0     		beq	.L110
 3209              	.LVL230:
 3210              	.L108:
 619:GrannyChordApp.cpp ****     case SynthMode::Size_Position:
 620:GrannyChordApp.cpp ****       synth_.SetGrainSize(knob1_val);
 621:GrannyChordApp.cpp ****       if (counter%128000==0){
 622:GrannyChordApp.cpp ****         DebugPrint(pod_, "set grain size to %u",synth_.GetSize());
 623:GrannyChordApp.cpp ****       }
 624:GrannyChordApp.cpp ****       return;
 625:GrannyChordApp.cpp ****     case SynthMode::Pitch_ActiveGrains:
 626:GrannyChordApp.cpp ****       synth_.SetPitchRatio(knob1_val);
 627:GrannyChordApp.cpp ****       if (counter%128000==0){
 628:GrannyChordApp.cpp ****         DebugPrint(pod_, "set pitch to %f",synth_.GetPitch());
 629:GrannyChordApp.cpp ****       }
 630:GrannyChordApp.cpp ****       return;
 631:GrannyChordApp.cpp ****     case SynthMode::Pan_Direction:
 632:GrannyChordApp.cpp ****       // synth_.SetPan(knob1_val);
 633:GrannyChordApp.cpp ****       return;
 634:GrannyChordApp.cpp ****     case SynthMode::Reverb:
 635:GrannyChordApp.cpp ****        /* set reverb feedback ie tail length */
 636:GrannyChordApp.cpp ****       // reverb_.SetFeedback(knob1_val); // NOTE check it doesn't clip
 637:GrannyChordApp.cpp ****       return;
 638:GrannyChordApp.cpp ****     case SynthMode::Size_Position_Rnd:
 639:GrannyChordApp.cpp ****       // synth_.SetSizeRnd(knob1_val);
 640:GrannyChordApp.cpp ****       return;
 641:GrannyChordApp.cpp ****     case SynthMode::Pitch_ActiveGrains_Rnd:
 642:GrannyChordApp.cpp ****       // synth_.SetPitchRnd(knob1_val);
 643:GrannyChordApp.cpp ****       return;
 644:GrannyChordApp.cpp ****     case SynthMode::PanRnd_Chorus:
 645:GrannyChordApp.cpp ****       // rotator_.SetFreq(knob1_val*2.0f);
 646:GrannyChordApp.cpp ****       return;     
 647:GrannyChordApp.cpp ****     case SynthMode::Filter:
ARM GAS  /var/folders/2p/02m_5p7958535cp2tpgps0400000gn/T//cchBTf64.s 			page 101


 648:GrannyChordApp.cpp ****       /* map knob value to frequency range with an exponential curve */
 649:GrannyChordApp.cpp ****       // knob1_val = fmap(knob1_val, LOPASS_LOWER_BOUND, LOPASS_UPPER_BOUND, daisysp::Mapping::EXP)
 650:GrannyChordApp.cpp ****       /* set cutoff frequency of low pass moog filter */
 651:GrannyChordApp.cpp ****       // lowpass_moog_.SetFreq(knob1_val);
 652:GrannyChordApp.cpp ****       return;
 653:GrannyChordApp.cpp ****   }
 654:GrannyChordApp.cpp **** }
 3211              		.loc 3 654 1 view .LVU896
 3212 000a 10BD     		pop	{r4, pc}
 3213              	.LVL231:
 3214              	.L109:
 3215              	.LBB580:
 3216              	.LBI580:
 617:GrannyChordApp.cpp ****   switch (mode){
 3217              		.loc 3 617 6 is_stmt 1 view .LVU897
 3218              	.LBB581:
 619:GrannyChordApp.cpp ****     case SynthMode::Size_Position:
 3219              		.loc 3 619 5 view .LVU898
 620:GrannyChordApp.cpp ****       if (counter%128000==0){
 3220              		.loc 3 620 7 view .LVU899
 620:GrannyChordApp.cpp ****       if (counter%128000==0){
 3221              		.loc 3 620 26 is_stmt 0 view .LVU900
 3222 000c 2030     		adds	r0, r0, #32
 3223              	.LVL232:
 620:GrannyChordApp.cpp ****       if (counter%128000==0){
 3224              		.loc 3 620 26 view .LVU901
 3225 000e FFF7FEFF 		bl	_ZN13GranularSynth12SetGrainSizeEf
 3226              	.LVL233:
 621:GrannyChordApp.cpp ****         DebugPrint(pod_, "set grain size to %u",synth_.GetSize());
 3227              		.loc 3 621 7 is_stmt 1 view .LVU902
 621:GrannyChordApp.cpp ****         DebugPrint(pod_, "set grain size to %u",synth_.GetSize());
 3228              		.loc 3 621 11 is_stmt 0 view .LVU903
 3229 0012 04F55043 		add	r3, r4, #53248
 620:GrannyChordApp.cpp ****       if (counter%128000==0){
 3230              		.loc 3 620 26 view .LVU904
 3231 0016 4FF4FA32 		mov	r2, #128000
 3232 001a D3F87432 		ldr	r3, [r3, #628]
 3233 001e B3FBF2F1 		udiv	r1, r3, r2
 3234 0022 02FB1133 		mls	r3, r2, r1, r3
 621:GrannyChordApp.cpp ****         DebugPrint(pod_, "set grain size to %u",synth_.GetSize());
 3235              		.loc 3 621 7 view .LVU905
 3236 0026 002B     		cmp	r3, #0
 3237 0028 EFD1     		bne	.L108
 622:GrannyChordApp.cpp ****       }
 3238              		.loc 3 622 9 is_stmt 1 view .LVU906
 622:GrannyChordApp.cpp ****       }
 3239              		.loc 3 622 9 view .LVU907
 3240              	.LVL234:
 3241              	.LBB582:
 3242              	.LBI582:
 3243              		.file 15 "GranularSynth.h"
   1:GranularSynth.h **** #pragma once
   2:GranularSynth.h **** 
   3:GranularSynth.h **** #include "Grain.h"
   4:GranularSynth.h **** #include "daisy_pod.h"
   5:GranularSynth.h **** #include "debug_print.h"
   6:GranularSynth.h **** #include <vector>
ARM GAS  /var/folders/2p/02m_5p7958535cp2tpgps0400000gn/T//cchBTf64.s 			page 102


   7:GranularSynth.h **** 
   8:GranularSynth.h **** class GranularSynth{
   9:GranularSynth.h ****   public:
  10:GranularSynth.h ****     GranularSynth(DaisyPod& pod) 
  11:GranularSynth.h ****       : pod_(pod), left_buf_(nullptr), right_buf_(nullptr), audio_len_(0),
  12:GranularSynth.h ****         grains_(){}
  13:GranularSynth.h **** 
  14:GranularSynth.h ****     void Init(int16_t *left, int16_t *right, size_t audio_len);
  15:GranularSynth.h ****     void Reset(size_t len);
  16:GranularSynth.h ****     void InitParams();
  17:GranularSynth.h ****     void UpdateGrainParams();
  18:GranularSynth.h ****     void ApplyRandomness();
  19:GranularSynth.h ****     void TriggerGrain();
  20:GranularSynth.h ****     Sample ProcessGrains();
  21:GranularSynth.h **** 
  22:GranularSynth.h ****     void SetPan(float pan);    
  23:GranularSynth.h ****     void SetGrainSize(float knob_val);
  24:GranularSynth.h ****     void SetSpawnPos(float knob_val);
  25:GranularSynth.h ****     void SetActiveGrains(float knob_val);
  26:GranularSynth.h ****     void SetPitchRatio(float ratio);
  27:GranularSynth.h ****     void SetDirection(float direction);
  28:GranularSynth.h **** 
  29:GranularSynth.h ****     void SetSizeRnd(float rnd){ rnd_size_ = rnd; }
  30:GranularSynth.h ****     void SetPositionRnd(float rnd){ rnd_spawn_pos_ = rnd; }
  31:GranularSynth.h ****     void SetPitchRnd(float rnd){ rnd_pitch_ = rnd; }
  32:GranularSynth.h ****     void SetCountRnd(float rnd){ rnd_count_ = rnd; }
  33:GranularSynth.h ****     void SetPanRnd(float rnd){ rnd_pan_ = rnd; }
  34:GranularSynth.h **** 
  35:GranularSynth.h ****     /* used to set chorus pan */
  36:GranularSynth.h ****     float GetPan(){ return pan_; }
  37:GranularSynth.h ****     size_t GetSize(){ return grain_size_; }
 3244              		.loc 15 37 12 view .LVU908
 3245              	.LBB583:
 3246              		.loc 15 37 23 view .LVU909
 3247              		.loc 15 37 23 is_stmt 0 view .LVU910
 3248              	.LBE583:
 3249              	.LBE582:
 3250              	.LBB584:
 3251              	.LBI584:
 126:../libDaisy/src/daisy_seed.h ****     {
 3252              		.loc 5 126 17 is_stmt 1 view .LVU911
 3253              	.LBB585:
 3254              		.loc 5 128 23 is_stmt 0 view .LVU912
 3255 002a D4F84412 		ldr	r1, [r4, #580]
 3256 002e 0F48     		ldr	r0, .L114
 3257              	.LBE585:
 3258              	.LBE584:
 3259              	.LBE581:
 3260              	.LBE580:
 3261              		.loc 3 654 1 view .LVU913
 3262 0030 BDE81040 		pop	{r4, lr}
 3263              		.cfi_remember_state
 3264              		.cfi_restore 14
 3265              		.cfi_restore 4
 3266              		.cfi_def_cfa_offset 0
 3267              	.LVL235:
 3268              	.LBB589:
ARM GAS  /var/folders/2p/02m_5p7958535cp2tpgps0400000gn/T//cchBTf64.s 			page 103


 3269              	.LBB588:
 3270              	.LBB587:
 3271              	.LBB586:
 3272              		.loc 5 128 23 view .LVU914
 3273 0034 FFF7FEBF 		b	_ZN5daisy6LoggerILNS_17LoggerDestinationE1EE9PrintLineEPKcz
 3274              	.LVL236:
 3275              	.L110:
 3276              		.cfi_restore_state
 3277              		.loc 5 128 23 view .LVU915
 3278              	.LBE586:
 3279              	.LBE587:
 3280              	.LBE588:
 3281              	.LBE589:
 625:GrannyChordApp.cpp ****       synth_.SetPitchRatio(knob1_val);
 3282              		.loc 3 625 5 is_stmt 1 view .LVU916
 626:GrannyChordApp.cpp ****       if (counter%128000==0){
 3283              		.loc 3 626 7 view .LVU917
 626:GrannyChordApp.cpp ****       if (counter%128000==0){
 3284              		.loc 3 626 27 is_stmt 0 view .LVU918
 3285 0038 2030     		adds	r0, r0, #32
 3286              	.LVL237:
 626:GrannyChordApp.cpp ****       if (counter%128000==0){
 3287              		.loc 3 626 27 view .LVU919
 3288 003a FFF7FEFF 		bl	_ZN13GranularSynth13SetPitchRatioEf
 3289              	.LVL238:
 627:GrannyChordApp.cpp ****         DebugPrint(pod_, "set pitch to %f",synth_.GetPitch());
 3290              		.loc 3 627 7 is_stmt 1 view .LVU920
 627:GrannyChordApp.cpp ****         DebugPrint(pod_, "set pitch to %f",synth_.GetPitch());
 3291              		.loc 3 627 11 is_stmt 0 view .LVU921
 3292 003e 04F55043 		add	r3, r4, #53248
 626:GrannyChordApp.cpp ****       if (counter%128000==0){
 3293              		.loc 3 626 27 view .LVU922
 3294 0042 4FF4FA32 		mov	r2, #128000
 3295 0046 D3F87432 		ldr	r3, [r3, #628]
 3296 004a B3FBF2F1 		udiv	r1, r3, r2
 3297 004e 02FB1133 		mls	r3, r2, r1, r3
 627:GrannyChordApp.cpp ****         DebugPrint(pod_, "set pitch to %f",synth_.GetPitch());
 3298              		.loc 3 627 7 view .LVU923
 3299 0052 002B     		cmp	r3, #0
 3300 0054 D9D1     		bne	.L108
 628:GrannyChordApp.cpp ****       }
 3301              		.loc 3 628 9 is_stmt 1 view .LVU924
 628:GrannyChordApp.cpp ****       }
 3302              		.loc 3 628 9 view .LVU925
 3303              	.LVL239:
 3304              	.LBB590:
 3305              	.LBI590:
  38:GranularSynth.h ****     float GetPitch(){ return pitch_ratio_; }
 3306              		.loc 15 38 11 view .LVU926
 3307              	.LBB591:
 3308              		.loc 15 38 23 view .LVU927
 3309              		.loc 15 38 23 is_stmt 0 view .LVU928
 3310              	.LBE591:
 3311              	.LBE590:
 3312              	.LBB592:
 3313              	.LBI592:
 126:../libDaisy/src/daisy_seed.h ****     {
ARM GAS  /var/folders/2p/02m_5p7958535cp2tpgps0400000gn/T//cchBTf64.s 			page 104


 3314              		.loc 5 126 17 is_stmt 1 view .LVU929
 3315              	.LBB593:
 3316              		.loc 5 128 23 is_stmt 0 view .LVU930
 3317 0056 D4ED947A 		vldr.32	s15, [r4, #592]
 3318 005a 0548     		ldr	r0, .L114+4
 3319 005c B7EEE77A 		vcvt.f64.f32	d7, s15
 3320              	.LBE593:
 3321              	.LBE592:
 3322              		.loc 3 654 1 view .LVU931
 3323 0060 BDE81040 		pop	{r4, lr}
 3324              		.cfi_restore 14
 3325              		.cfi_restore 4
 3326              		.cfi_def_cfa_offset 0
 3327              	.LVL240:
 3328              	.LBB595:
 3329              	.LBB594:
 3330              		.loc 5 128 23 view .LVU932
 3331 0064 53EC172B 		vmov	r2, r3, d7
 3332 0068 FFF7FEBF 		b	_ZN5daisy6LoggerILNS_17LoggerDestinationE1EE9PrintLineEPKcz
 3333              	.LVL241:
 3334              	.L115:
 3335              		.loc 5 128 23 view .LVU933
 3336              		.align	2
 3337              	.L114:
 3338 006c 00000000 		.word	.LC12
 3339 0070 15000000 		.word	.LC13
 3340              	.LBE594:
 3341              	.LBE595:
 3342              		.cfi_endproc
 3343              	.LFE4945:
 3345              		.section	.rodata._ZN14GrannyChordApp17UpdateKnob2ParamsEf9SynthMode.str1.1,"aMS",%progbits,1
 3346              	.LC14:
 3347 0000 73657420 		.ascii	"set pos to %u\000"
 3347      706F7320 
 3347      746F2025 
 3347      7500
 3348              	.LC15:
 3349 000e 73657420 		.ascii	"set active grains to %u\000"
 3349      61637469 
 3349      76652067 
 3349      7261696E 
 3349      7320746F 
 3350              		.section	.text._ZN14GrannyChordApp17UpdateKnob2ParamsEf9SynthMode,"ax",%progbits
 3351              		.align	1
 3352              		.global	_ZN14GrannyChordApp17UpdateKnob2ParamsEf9SynthMode
 3353              		.syntax unified
 3354              		.thumb
 3355              		.thumb_func
 3357              	_ZN14GrannyChordApp17UpdateKnob2ParamsEf9SynthMode:
 3358              	.LVL242:
 3359              	.LFB4946:
 655:GrannyChordApp.cpp **** 
 656:GrannyChordApp.cpp **** /// @brief Updates synth parameters from hardware knob 2 input
 657:GrannyChordApp.cpp **** /// @param knob1_val float between 0-1 from knob input
 658:GrannyChordApp.cpp **** /// @param mode current synth mode that determines which parameters to update
 659:GrannyChordApp.cpp **** void GrannyChordApp::UpdateKnob2Params(float knob2_val, SynthMode mode){
 3360              		.loc 3 659 72 is_stmt 1 view -0
ARM GAS  /var/folders/2p/02m_5p7958535cp2tpgps0400000gn/T//cchBTf64.s 			page 105


 3361              		.cfi_startproc
 3362              		@ args = 0, pretend = 0, frame = 0
 3363              		@ frame_needed = 0, uses_anonymous_args = 0
 660:GrannyChordApp.cpp ****   switch (mode){
 3364              		.loc 3 660 3 view .LVU935
 3365 0000 0229     		cmp	r1, #2
 659:GrannyChordApp.cpp ****   switch (mode){
 3366              		.loc 3 659 72 is_stmt 0 view .LVU936
 3367 0002 10B5     		push	{r4, lr}
 3368              		.cfi_def_cfa_offset 8
 3369              		.cfi_offset 4, -8
 3370              		.cfi_offset 14, -4
 659:GrannyChordApp.cpp ****   switch (mode){
 3371              		.loc 3 659 72 view .LVU937
 3372 0004 0446     		mov	r4, r0
 3373              		.loc 3 660 3 view .LVU938
 3374 0006 17D0     		beq	.L117
 3375 0008 0429     		cmp	r1, #4
 3376 000a 27D0     		beq	.L118
 3377 000c 59BB     		cbnz	r1, .L116
 661:GrannyChordApp.cpp ****     case SynthMode::Size_Position:
 3378              		.loc 3 661 5 is_stmt 1 view .LVU939
 662:GrannyChordApp.cpp ****       synth_.SetSpawnPos(knob2_val);
 3379              		.loc 3 662 7 view .LVU940
 3380              		.loc 3 662 25 is_stmt 0 view .LVU941
 3381 000e 2030     		adds	r0, r0, #32
 3382              	.LVL243:
 3383              		.loc 3 662 25 view .LVU942
 3384 0010 FFF7FEFF 		bl	_ZN13GranularSynth11SetSpawnPosEf
 3385              	.LVL244:
 663:GrannyChordApp.cpp ****       if (counter%128000==0){
 3386              		.loc 3 663 7 is_stmt 1 view .LVU943
 3387              		.loc 3 663 11 is_stmt 0 view .LVU944
 3388 0014 04F55043 		add	r3, r4, #53248
 662:GrannyChordApp.cpp ****       synth_.SetSpawnPos(knob2_val);
 3389              		.loc 3 662 25 view .LVU945
 3390 0018 4FF4FA32 		mov	r2, #128000
 3391 001c D3F87432 		ldr	r3, [r3, #628]
 3392 0020 B3FBF2F1 		udiv	r1, r3, r2
 3393 0024 02FB1133 		mls	r3, r2, r1, r3
 3394              		.loc 3 663 7 view .LVU946
 3395 0028 EBB9     		cbnz	r3, .L116
 664:GrannyChordApp.cpp ****         DebugPrint(pod_, "set pos to %u",synth_.GetPos());
 3396              		.loc 3 664 9 is_stmt 1 view .LVU947
 3397              		.loc 3 664 9 view .LVU948
 3398              	.LVL245:
 3399              	.LBB596:
 3400              	.LBI596:
  39:GranularSynth.h ****     size_t GetPos() { return spawn_pos_; }
 3401              		.loc 15 39 12 view .LVU949
 3402              	.LBB597:
 3403              		.loc 15 39 23 view .LVU950
 3404              		.loc 15 39 23 is_stmt 0 view .LVU951
 3405              	.LBE597:
 3406              	.LBE596:
 3407              	.LBB598:
 3408              	.LBI598:
ARM GAS  /var/folders/2p/02m_5p7958535cp2tpgps0400000gn/T//cchBTf64.s 			page 106


 126:../libDaisy/src/daisy_seed.h ****     {
 3409              		.loc 5 126 17 is_stmt 1 view .LVU952
 3410              	.LBB599:
 3411              		.loc 5 128 23 is_stmt 0 view .LVU953
 3412 002a D4F84812 		ldr	r1, [r4, #584]
 3413 002e 0E48     		ldr	r0, .L123
 3414              	.LVL246:
 3415              	.L122:
 3416              		.loc 5 128 23 view .LVU954
 3417              	.LBE599:
 3418              	.LBE598:
 665:GrannyChordApp.cpp ****       }
 666:GrannyChordApp.cpp ****       return;
 667:GrannyChordApp.cpp ****     case SynthMode::Pitch_ActiveGrains:
 668:GrannyChordApp.cpp ****       synth_.SetActiveGrains(knob2_val);
 669:GrannyChordApp.cpp ****       if (counter%128000==0){
 670:GrannyChordApp.cpp ****         DebugPrint(pod_, "set active grains to %u",synth_.GetCount());
 671:GrannyChordApp.cpp ****       }
 672:GrannyChordApp.cpp ****       return;
 673:GrannyChordApp.cpp ****     case SynthMode::Pan_Direction:
 674:GrannyChordApp.cpp ****       synth_.SetDirection(knob2_val);
 675:GrannyChordApp.cpp ****       return;
 676:GrannyChordApp.cpp ****     case SynthMode::Reverb:
 677:GrannyChordApp.cpp ****         // reverb_.SetMix(knob2_val);
 678:GrannyChordApp.cpp ****         return;
 679:GrannyChordApp.cpp ****     case SynthMode::Size_Position_Rnd:
 680:GrannyChordApp.cpp ****       // synth_.SetPositionRnd(knob2_val);
 681:GrannyChordApp.cpp ****       return;
 682:GrannyChordApp.cpp ****     case SynthMode::Pitch_ActiveGrains_Rnd:
 683:GrannyChordApp.cpp ****       // synth_.SetCountRnd(knob2_val);
 684:GrannyChordApp.cpp ****       return;
 685:GrannyChordApp.cpp ****     case SynthMode::PanRnd_Chorus:
 686:GrannyChordApp.cpp ****       /* set chorus left/right channel to (synth pan +/- 10%) */
 687:GrannyChordApp.cpp ****       // chorus_.SetPan(fclamp(synth_.GetPan()+0.1f,0,1), (fclamp(synth_.GetPan()-0.1f,0,1)));
 688:GrannyChordApp.cpp ****       // chorus_.SetLfoDepth(knob2_val);
 689:GrannyChordApp.cpp ****       return;
 690:GrannyChordApp.cpp ****     case SynthMode::Filter:
 691:GrannyChordApp.cpp ****       /* map knob value to frequency range with linear curve */
 692:GrannyChordApp.cpp ****       // knob2_val = fmap(knob2_val, HIPASS_LOWER_BOUND, HIPASS_UPPER_BOUND, daisysp::Mapping::EXP)
 693:GrannyChordApp.cpp ****       /* set cutoff frequency for high pass filter */
 694:GrannyChordApp.cpp ****       // hipass_.SetFrequency(knob2_val);
 695:GrannyChordApp.cpp ****       return;
 696:GrannyChordApp.cpp ****   }
 697:GrannyChordApp.cpp **** }
 3419              		.loc 3 697 1 view .LVU955
 3420 0030 BDE81040 		pop	{r4, lr}
 3421              		.cfi_remember_state
 3422              		.cfi_restore 14
 3423              		.cfi_restore 4
 3424              		.cfi_def_cfa_offset 0
 3425              	.LVL247:
 3426              	.LBB600:
 3427              	.LBB601:
 3428              		.loc 5 128 23 view .LVU956
 3429 0034 FFF7FEBF 		b	_ZN5daisy6LoggerILNS_17LoggerDestinationE1EE9PrintLineEPKcz
 3430              	.LVL248:
 3431              	.L117:
ARM GAS  /var/folders/2p/02m_5p7958535cp2tpgps0400000gn/T//cchBTf64.s 			page 107


 3432              		.cfi_restore_state
 3433              		.loc 5 128 23 view .LVU957
 3434              	.LBE601:
 3435              	.LBE600:
 667:GrannyChordApp.cpp ****       synth_.SetActiveGrains(knob2_val);
 3436              		.loc 3 667 5 is_stmt 1 view .LVU958
 668:GrannyChordApp.cpp ****       if (counter%128000==0){
 3437              		.loc 3 668 7 view .LVU959
 668:GrannyChordApp.cpp ****       if (counter%128000==0){
 3438              		.loc 3 668 29 is_stmt 0 view .LVU960
 3439 0038 2030     		adds	r0, r0, #32
 3440              	.LVL249:
 668:GrannyChordApp.cpp ****       if (counter%128000==0){
 3441              		.loc 3 668 29 view .LVU961
 3442 003a FFF7FEFF 		bl	_ZN13GranularSynth15SetActiveGrainsEf
 3443              	.LVL250:
 669:GrannyChordApp.cpp ****         DebugPrint(pod_, "set active grains to %u",synth_.GetCount());
 3444              		.loc 3 669 7 is_stmt 1 view .LVU962
 669:GrannyChordApp.cpp ****         DebugPrint(pod_, "set active grains to %u",synth_.GetCount());
 3445              		.loc 3 669 11 is_stmt 0 view .LVU963
 3446 003e 04F55043 		add	r3, r4, #53248
 668:GrannyChordApp.cpp ****       if (counter%128000==0){
 3447              		.loc 3 668 29 view .LVU964
 3448 0042 4FF4FA32 		mov	r2, #128000
 3449 0046 D3F87432 		ldr	r3, [r3, #628]
 3450 004a B3FBF2F1 		udiv	r1, r3, r2
 3451 004e 02FB1133 		mls	r3, r2, r1, r3
 669:GrannyChordApp.cpp ****         DebugPrint(pod_, "set active grains to %u",synth_.GetCount());
 3452              		.loc 3 669 7 view .LVU965
 3453 0052 43B9     		cbnz	r3, .L116
 670:GrannyChordApp.cpp ****       }
 3454              		.loc 3 670 9 is_stmt 1 view .LVU966
 670:GrannyChordApp.cpp ****       }
 3455              		.loc 3 670 9 view .LVU967
 3456              	.LVL251:
 3457              	.LBB603:
 3458              	.LBI603:
  40:GranularSynth.h ****     size_t GetCount(){ return active_count_; }
 3459              		.loc 15 40 12 view .LVU968
 3460              	.LBB604:
 3461              		.loc 15 40 24 view .LVU969
 3462              		.loc 15 40 24 is_stmt 0 view .LVU970
 3463              	.LBE604:
 3464              	.LBE603:
 3465              	.LBB605:
 3466              	.LBI600:
 126:../libDaisy/src/daisy_seed.h ****     {
 3467              		.loc 5 126 17 is_stmt 1 view .LVU971
 3468              	.LBB602:
 3469              		.loc 5 128 23 is_stmt 0 view .LVU972
 3470 0054 D4F84C12 		ldr	r1, [r4, #588]
 3471 0058 0448     		ldr	r0, .L123+4
 3472 005a E9E7     		b	.L122
 3473              	.LVL252:
 3474              	.L118:
 3475              		.loc 5 128 23 view .LVU973
 3476              	.LBE602:
ARM GAS  /var/folders/2p/02m_5p7958535cp2tpgps0400000gn/T//cchBTf64.s 			page 108


 3477              	.LBE605:
 673:GrannyChordApp.cpp ****       synth_.SetDirection(knob2_val);
 3478              		.loc 3 673 5 is_stmt 1 view .LVU974
 674:GrannyChordApp.cpp ****       return;
 3479              		.loc 3 674 7 view .LVU975
 674:GrannyChordApp.cpp ****       return;
 3480              		.loc 3 674 26 is_stmt 0 view .LVU976
 3481 005c 2030     		adds	r0, r0, #32
 3482              	.LVL253:
 3483              		.loc 3 697 1 view .LVU977
 3484 005e BDE81040 		pop	{r4, lr}
 3485              		.cfi_remember_state
 3486              		.cfi_restore 14
 3487              		.cfi_restore 4
 3488              		.cfi_def_cfa_offset 0
 3489              	.LVL254:
 674:GrannyChordApp.cpp ****       return;
 3490              		.loc 3 674 26 view .LVU978
 3491 0062 FFF7FEBF 		b	_ZN13GranularSynth12SetDirectionEf
 3492              	.LVL255:
 3493              	.L116:
 3494              		.cfi_restore_state
 3495              		.loc 3 697 1 view .LVU979
 3496 0066 10BD     		pop	{r4, pc}
 3497              	.LVL256:
 3498              	.L124:
 3499              		.loc 3 697 1 view .LVU980
 3500              		.align	2
 3501              	.L123:
 3502 0068 00000000 		.word	.LC14
 3503 006c 0E000000 		.word	.LC15
 3504              		.cfi_endproc
 3505              	.LFE4946:
 3507              		.section	.rodata._ZN14GrannyChordApp17UpdateSynthParamsEv.str1.1,"aMS",%progbits,1
 3508              	.LC16:
 3509 0000 6E657720 		.ascii	"new k1v: %f\000"
 3509      6B31763A 
 3509      20256600 
 3510              	.LC17:
 3511 000c 6E657720 		.ascii	"new k2v: %f\000"
 3511      6B32763A 
 3511      20256600 
 3512              		.section	.text._ZN14GrannyChordApp17UpdateSynthParamsEv,"ax",%progbits
 3513              		.align	1
 3514              		.global	_ZN14GrannyChordApp17UpdateSynthParamsEv
 3515              		.syntax unified
 3516              		.thumb
 3517              		.thumb_func
 3519              	_ZN14GrannyChordApp17UpdateSynthParamsEv:
 3520              	.LVL257:
 3521              	.LFB4928:
 345:GrannyChordApp.cpp ****   if (curr_state_!=AppState::Synthesis) return;
 3522              		.loc 3 345 41 is_stmt 1 view -0
 3523              		.cfi_startproc
 3524              		@ args = 0, pretend = 0, frame = 0
 3525              		@ frame_needed = 0, uses_anonymous_args = 0
 346:GrannyChordApp.cpp ****   int mode_idx = static_cast<int>(curr_synth_mode_);
ARM GAS  /var/folders/2p/02m_5p7958535cp2tpgps0400000gn/T//cchBTf64.s 			page 109


 3526              		.loc 3 346 3 view .LVU982
 3527 0000 D0F87832 		ldr	r3, [r0, #632]
 3528 0004 022B     		cmp	r3, #2
 345:GrannyChordApp.cpp ****   if (curr_state_!=AppState::Synthesis) return;
 3529              		.loc 3 345 41 is_stmt 0 view .LVU983
 3530 0006 2DE9F041 		push	{r4, r5, r6, r7, r8, lr}
 3531              		.cfi_def_cfa_offset 24
 3532              		.cfi_offset 4, -24
 3533              		.cfi_offset 5, -20
 3534              		.cfi_offset 6, -16
 3535              		.cfi_offset 7, -12
 3536              		.cfi_offset 8, -8
 3537              		.cfi_offset 14, -4
 3538 000a 0446     		mov	r4, r0
 3539 000c 2DED048B 		vpush.64	{d8, d9}
 3540              		.cfi_def_cfa_offset 40
 3541              		.cfi_offset 80, -40
 3542              		.cfi_offset 81, -36
 3543              		.cfi_offset 82, -32
 3544              		.cfi_offset 83, -28
 346:GrannyChordApp.cpp ****   int mode_idx = static_cast<int>(curr_synth_mode_);
 3545              		.loc 3 346 3 view .LVU984
 3546 0010 73D1     		bne	.L125
 3547              	.LVL258:
 3548              	.LBB616:
 3549              	.LBI616:
 345:GrannyChordApp.cpp ****   if (curr_state_!=AppState::Synthesis) return;
 3550              		.loc 3 345 6 is_stmt 1 view .LVU985
 3551              	.LBB617:
 347:GrannyChordApp.cpp **** 
 3552              		.loc 3 347 3 view .LVU986
 347:GrannyChordApp.cpp **** 
 3553              		.loc 3 347 7 is_stmt 0 view .LVU987
 3554 0012 D0F88052 		ldr	r5, [r0, #640]
 3555              	.LVL259:
 350:GrannyChordApp.cpp ****   float knob2_val = MapKnobDeadzone(pod_.knob2.Process());
 3556              		.loc 3 350 3 is_stmt 1 view .LVU988
 350:GrannyChordApp.cpp ****   float knob2_val = MapKnobDeadzone(pod_.knob2.Process());
 3557              		.loc 3 350 36 is_stmt 0 view .LVU989
 3558 0016 C069     		ldr	r0, [r0, #28]
 3559              	.LVL260:
 3560              	.LBB618:
 3561              	.LBB619:
 698:GrannyChordApp.cpp **** 
 699:GrannyChordApp.cpp **** /* knobs on the Pod have deadzones around 0 and 1 so we adjust for this */
 700:GrannyChordApp.cpp **** inline float GrannyChordApp::MapKnobDeadzone(float knob_val ){
 701:GrannyChordApp.cpp ****   if (knob_val<=0.01f) return 0.0f;
 3562              		.loc 3 701 3 view .LVU990
 3563 0018 9FED3A9A 		vldr.32	s18, .L138
 3564              	.LBE619:
 3565              	.LBE618:
 350:GrannyChordApp.cpp ****   float knob2_val = MapKnobDeadzone(pod_.knob2.Process());
 3566              		.loc 3 350 36 view .LVU991
 3567 001c 6830     		adds	r0, r0, #104
 3568 001e FFF7FEFF 		bl	_ZN5daisy13AnalogControl7ProcessEv
 3569              	.LVL261:
 3570              	.LBB622:
ARM GAS  /var/folders/2p/02m_5p7958535cp2tpgps0400000gn/T//cchBTf64.s 			page 110


 3571              	.LBI618:
 700:GrannyChordApp.cpp ****   if (knob_val<=0.01f) return 0.0f;
 3572              		.loc 3 700 14 is_stmt 1 view .LVU992
 3573              	.LBB620:
 3574              		.loc 3 701 3 view .LVU993
 3575 0022 B4EEC90A 		vcmpe.f32	s0, s18
 3576 0026 F1EE10FA 		vmrs	APSR_nzcv, FPSCR
 3577 002a 60D9     		bls	.L134
 702:GrannyChordApp.cpp ****   if (knob_val>=0.99f) return 1.0f;
 3578              		.loc 3 702 3 view .LVU994
 3579              		.loc 3 702 31 is_stmt 0 view .LVU995
 3580 002c DFED367A 		vldr.32	s15, .L138+4
 3581 0030 B4EE670A 		vcmp.f32	s0, s15
 3582 0034 F7EE007A 		vmov.f32	s15, #1.0e+0
 3583 0038 F1EE10FA 		vmrs	APSR_nzcv, FPSCR
 3584 003c 67FE808A 		vselge.f32	s17, s15, s0
 3585              	.L128:
 3586              	.LVL262:
 3587              		.loc 3 702 31 view .LVU996
 3588              	.LBE620:
 3589              	.LBE622:
 351:GrannyChordApp.cpp ****   
 3590              		.loc 3 351 3 is_stmt 1 view .LVU997
 351:GrannyChordApp.cpp ****   
 3591              		.loc 3 351 36 is_stmt 0 view .LVU998
 3592 0040 E069     		ldr	r0, [r4, #28]
 3593 0042 8830     		adds	r0, r0, #136
 3594 0044 FFF7FEFF 		bl	_ZN5daisy13AnalogControl7ProcessEv
 3595              	.LVL263:
 3596              	.LBB623:
 3597              	.LBI623:
 700:GrannyChordApp.cpp ****   if (knob_val<=0.01f) return 0.0f;
 3598              		.loc 3 700 14 is_stmt 1 view .LVU999
 3599              	.LBB624:
 701:GrannyChordApp.cpp ****   if (knob_val>=0.99f) return 1.0f;
 3600              		.loc 3 701 3 view .LVU1000
 3601 0048 B4EEC90A 		vcmpe.f32	s0, s18
 3602 004c F1EE10FA 		vmrs	APSR_nzcv, FPSCR
 3603 0050 50D9     		bls	.L135
 3604              		.loc 3 702 3 view .LVU1001
 3605              		.loc 3 702 31 is_stmt 0 view .LVU1002
 3606 0052 DFED2D7A 		vldr.32	s15, .L138+4
 3607 0056 B4EE670A 		vcmp.f32	s0, s15
 3608 005a F7EE007A 		vmov.f32	s15, #1.0e+0
 3609 005e F1EE10FA 		vmrs	APSR_nzcv, FPSCR
 3610 0062 27FE808A 		vselge.f32	s16, s15, s0
 3611              	.L130:
 3612              	.LVL264:
 3613              		.loc 3 702 31 view .LVU1003
 3614              	.LBE624:
 3615              	.LBE623:
 353:GrannyChordApp.cpp **** 
 3616              		.loc 3 353 3 is_stmt 1 view .LVU1004
 353:GrannyChordApp.cpp **** 
 3617              		.loc 3 353 10 is_stmt 0 view .LVU1005
 3618 0066 04F55046 		add	r6, r4, #53248
 3619 006a 04EB8505 		add	r5, r4, r5, lsl #2
ARM GAS  /var/folders/2p/02m_5p7958535cp2tpgps0400000gn/T//cchBTf64.s 			page 111


 3620              	.LVL265:
 357:GrannyChordApp.cpp ****     prev_param_k1[mode_idx] = knob1_val;
 3621              		.loc 3 357 22 view .LVU1006
 3622 006e B0EE680A 		vmov.f32	s0, s17
 3623 0072 D4F88012 		ldr	r1, [r4, #640]
 353:GrannyChordApp.cpp **** 
 3624              		.loc 3 353 10 view .LVU1007
 3625 0076 D6F87432 		ldr	r3, [r6, #628]
 358:GrannyChordApp.cpp ****     if (counter%96000==0){
 3626              		.loc 3 358 29 view .LVU1008
 3627 007a 05F58045 		add	r5, r5, #16384
 357:GrannyChordApp.cpp ****     prev_param_k1[mode_idx] = knob1_val;
 3628              		.loc 3 357 22 view .LVU1009
 3629 007e 2046     		mov	r0, r4
 358:GrannyChordApp.cpp ****     if (counter%96000==0){
 3630              		.loc 3 358 29 view .LVU1010
 3631 0080 224F     		ldr	r7, .L138+8
 353:GrannyChordApp.cpp **** 
 3632              		.loc 3 353 10 view .LVU1011
 3633 0082 0133     		adds	r3, r3, #1
 3634 0084 C6F87432 		str	r3, [r6, #628]
 357:GrannyChordApp.cpp ****     prev_param_k1[mode_idx] = knob1_val;
 3635              		.loc 3 357 5 is_stmt 1 view .LVU1012
 357:GrannyChordApp.cpp ****     prev_param_k1[mode_idx] = knob1_val;
 3636              		.loc 3 357 22 is_stmt 0 view .LVU1013
 3637 0088 FFF7FEFF 		bl	_ZN14GrannyChordApp17UpdateKnob1ParamsEf9SynthMode
 3638              	.LVL266:
 358:GrannyChordApp.cpp ****     if (counter%96000==0){
 3639              		.loc 3 358 5 is_stmt 1 view .LVU1014
 358:GrannyChordApp.cpp ****     if (counter%96000==0){
 3640              		.loc 3 358 29 is_stmt 0 view .LVU1015
 3641 008c 05F57363 		add	r3, r5, #3888
 359:GrannyChordApp.cpp ****       DebugPrint(pod_, "new k1v: %f",knob1_val);
 3642              		.loc 3 359 5 view .LVU1016
 3643 0090 4AF6C362 		movw	r2, #44739
 358:GrannyChordApp.cpp ****     if (counter%96000==0){
 3644              		.loc 3 358 29 view .LVU1017
 3645 0094 C3ED008A 		vstr.32	s17, [r3]
 359:GrannyChordApp.cpp ****       DebugPrint(pod_, "new k1v: %f",knob1_val);
 3646              		.loc 3 359 5 is_stmt 1 view .LVU1018
 358:GrannyChordApp.cpp ****     if (counter%96000==0){
 3647              		.loc 3 358 29 is_stmt 0 view .LVU1019
 3648 0098 D6F87432 		ldr	r3, [r6, #628]
 3649 009c 7B43     		muls	r3, r7, r3
 359:GrannyChordApp.cpp ****       DebugPrint(pod_, "new k1v: %f",knob1_val);
 3650              		.loc 3 359 5 view .LVU1020
 3651 009e B2EB332F 		cmp	r2, r3, ror #8
 3652 00a2 06D3     		bcc	.L132
 360:GrannyChordApp.cpp ****     }
 3653              		.loc 3 360 7 is_stmt 1 view .LVU1021
 360:GrannyChordApp.cpp ****     }
 3654              		.loc 3 360 7 view .LVU1022
 3655              	.LVL267:
 3656              	.LBB626:
 3657              	.LBI626:
 126:../libDaisy/src/daisy_seed.h ****     {
 3658              		.loc 5 126 17 view .LVU1023
ARM GAS  /var/folders/2p/02m_5p7958535cp2tpgps0400000gn/T//cchBTf64.s 			page 112


 3659              	.LBB627:
 3660              		.loc 5 128 23 is_stmt 0 view .LVU1024
 3661 00a4 B7EEE87A 		vcvt.f64.f32	d7, s17
 3662 00a8 1948     		ldr	r0, .L138+12
 3663 00aa 53EC172B 		vmov	r2, r3, d7
 3664 00ae FFF7FEFF 		bl	_ZN5daisy6LoggerILNS_17LoggerDestinationE1EE9PrintLineEPKcz
 3665              	.LVL268:
 3666              	.L132:
 3667              		.loc 5 128 23 view .LVU1025
 3668              	.LBE627:
 3669              	.LBE626:
 364:GrannyChordApp.cpp ****     prev_param_k2[mode_idx] = knob2_val;
 3670              		.loc 3 364 5 is_stmt 1 view .LVU1026
 365:GrannyChordApp.cpp ****     if (counter%96000==0){
 3671              		.loc 3 365 29 is_stmt 0 view .LVU1027
 3672 00b2 05F57565 		add	r5, r5, #3920
 364:GrannyChordApp.cpp ****     prev_param_k2[mode_idx] = knob2_val;
 3673              		.loc 3 364 22 view .LVU1028
 3674 00b6 B0EE480A 		vmov.f32	s0, s16
 3675 00ba D4F88012 		ldr	r1, [r4, #640]
 3676 00be 2046     		mov	r0, r4
 3677 00c0 FFF7FEFF 		bl	_ZN14GrannyChordApp17UpdateKnob2ParamsEf9SynthMode
 3678              	.LVL269:
 365:GrannyChordApp.cpp ****     if (counter%96000==0){
 3679              		.loc 3 365 5 is_stmt 1 view .LVU1029
 365:GrannyChordApp.cpp ****     if (counter%96000==0){
 3680              		.loc 3 365 29 is_stmt 0 view .LVU1030
 3681 00c4 85ED008A 		vstr.32	s16, [r5]
 366:GrannyChordApp.cpp ****       DebugPrint(pod_, "new k2v: %f",knob2_val);
 3682              		.loc 3 366 5 is_stmt 1 view .LVU1031
 365:GrannyChordApp.cpp ****     if (counter%96000==0){
 3683              		.loc 3 365 29 is_stmt 0 view .LVU1032
 3684 00c8 D6F87432 		ldr	r3, [r6, #628]
 366:GrannyChordApp.cpp ****       DebugPrint(pod_, "new k2v: %f",knob2_val);
 3685              		.loc 3 366 5 view .LVU1033
 3686 00cc 4AF6C362 		movw	r2, #44739
 365:GrannyChordApp.cpp ****     if (counter%96000==0){
 3687              		.loc 3 365 29 view .LVU1034
 3688 00d0 7B43     		muls	r3, r7, r3
 366:GrannyChordApp.cpp ****       DebugPrint(pod_, "new k2v: %f",knob2_val);
 3689              		.loc 3 366 5 view .LVU1035
 3690 00d2 B2EB332F 		cmp	r2, r3, ror #8
 3691 00d6 10D3     		bcc	.L125
 367:GrannyChordApp.cpp ****     }
 3692              		.loc 3 367 7 is_stmt 1 view .LVU1036
 367:GrannyChordApp.cpp ****     }
 3693              		.loc 3 367 7 view .LVU1037
 3694              	.LVL270:
 3695              	.LBB628:
 3696              	.LBI628:
 126:../libDaisy/src/daisy_seed.h ****     {
 3697              		.loc 5 126 17 view .LVU1038
 3698              	.LBB629:
 3699              		.loc 5 128 23 is_stmt 0 view .LVU1039
 3700 00d8 B7EEC87A 		vcvt.f64.f32	d7, s16
 3701 00dc 0D48     		ldr	r0, .L138+16
 3702              	.LBE629:
ARM GAS  /var/folders/2p/02m_5p7958535cp2tpgps0400000gn/T//cchBTf64.s 			page 113


 3703              	.LBE628:
 3704              	.LBE617:
 3705              	.LBE616:
 370:GrannyChordApp.cpp **** 
 3706              		.loc 3 370 1 view .LVU1040
 3707 00de BDEC048B 		vldm	sp!, {d8-d9}
 3708              		.cfi_remember_state
 3709              		.cfi_restore 82
 3710              		.cfi_restore 83
 3711              		.cfi_restore 80
 3712              		.cfi_restore 81
 3713              		.cfi_def_cfa_offset 24
 3714              	.LVL271:
 3715              	.LBB638:
 3716              	.LBB636:
 3717              	.LBB632:
 3718              	.LBB630:
 3719              		.loc 5 128 23 view .LVU1041
 3720 00e2 53EC172B 		vmov	r2, r3, d7
 3721              	.LBE630:
 3722              	.LBE632:
 3723              	.LBE636:
 3724              	.LBE638:
 370:GrannyChordApp.cpp **** 
 3725              		.loc 3 370 1 view .LVU1042
 3726 00e6 BDE8F041 		pop	{r4, r5, r6, r7, r8, lr}
 3727              		.cfi_restore 14
 3728              		.cfi_restore 8
 3729              		.cfi_restore 7
 3730              		.cfi_restore 6
 3731              		.cfi_restore 5
 3732              		.cfi_restore 4
 3733              		.cfi_def_cfa_offset 0
 3734              	.LVL272:
 3735              	.LBB639:
 3736              	.LBB637:
 3737              	.LBB633:
 3738              	.LBB631:
 3739              		.loc 5 128 23 view .LVU1043
 3740 00ea FFF7FEBF 		b	_ZN5daisy6LoggerILNS_17LoggerDestinationE1EE9PrintLineEPKcz
 3741              	.LVL273:
 3742              	.L134:
 3743              		.cfi_restore_state
 3744              		.loc 5 128 23 view .LVU1044
 3745              	.LBE631:
 3746              	.LBE633:
 3747              	.LBB634:
 3748              	.LBB621:
 701:GrannyChordApp.cpp ****   if (knob_val>=0.99f) return 1.0f;
 3749              		.loc 3 701 31 view .LVU1045
 3750 00ee DFED0A8A 		vldr.32	s17, .L138+20
 3751 00f2 A5E7     		b	.L128
 3752              	.LVL274:
 3753              	.L135:
 701:GrannyChordApp.cpp ****   if (knob_val>=0.99f) return 1.0f;
 3754              		.loc 3 701 31 view .LVU1046
 3755              	.LBE621:
ARM GAS  /var/folders/2p/02m_5p7958535cp2tpgps0400000gn/T//cchBTf64.s 			page 114


 3756              	.LBE634:
 3757              	.LBB635:
 3758              	.LBB625:
 3759 00f4 9FED088A 		vldr.32	s16, .L138+20
 3760 00f8 B5E7     		b	.L130
 3761              	.LVL275:
 3762              	.L125:
 701:GrannyChordApp.cpp ****   if (knob_val>=0.99f) return 1.0f;
 3763              		.loc 3 701 31 view .LVU1047
 3764              	.LBE625:
 3765              	.LBE635:
 3766              	.LBE637:
 3767              	.LBE639:
 370:GrannyChordApp.cpp **** 
 3768              		.loc 3 370 1 view .LVU1048
 3769 00fa BDEC048B 		vldm	sp!, {d8-d9}
 3770              		.cfi_restore 82
 3771              		.cfi_restore 83
 3772              		.cfi_restore 80
 3773              		.cfi_restore 81
 3774              		.cfi_def_cfa_offset 24
 3775 00fe BDE8F081 		pop	{r4, r5, r6, r7, r8, pc}
 3776              	.LVL276:
 3777              	.L139:
 370:GrannyChordApp.cpp **** 
 3778              		.loc 3 370 1 view .LVU1049
 3779 0102 00BF     		.align	2
 3780              	.L138:
 3781 0104 0AD7233C 		.word	1008981770
 3782 0108 A4707D3F 		.word	1065185444
 3783 010c 4728A3B7 		.word	-1214044089
 3784 0110 00000000 		.word	.LC16
 3785 0114 0C000000 		.word	.LC17
 3786 0118 00000000 		.word	0
 3787              		.cfi_endproc
 3788              	.LFE4928:
 3790              		.section	.rodata._ZN14GrannyChordApp15DebugPrintStateE8AppState.str1.1,"aMS",%progbits,1
 3791              	.LC18:
 3792 0000 53746174 		.ascii	"State now in: SelectFile\000"
 3792      65206E6F 
 3792      7720696E 
 3792      3A205365 
 3792      6C656374 
 3793              	.LC19:
 3794 0019 53746174 		.ascii	"State now in: RecordIn\000"
 3794      65206E6F 
 3794      7720696E 
 3794      3A205265 
 3794      636F7264 
 3795              	.LC20:
 3796 0030 53746174 		.ascii	"State now in: PlayWAV\000"
 3796      65206E6F 
 3796      7720696E 
 3796      3A20506C 
 3796      61795741 
 3797              	.LC21:
 3798 0046 53746174 		.ascii	"State now in: Synthesis\000"
ARM GAS  /var/folders/2p/02m_5p7958535cp2tpgps0400000gn/T//cchBTf64.s 			page 115


 3798      65206E6F 
 3798      7720696E 
 3798      3A205379 
 3798      6E746865 
 3799              	.LC22:
 3800 005e 53746174 		.ascii	"State now in: Error\000"
 3800      65206E6F 
 3800      7720696E 
 3800      3A204572 
 3800      726F7200 
 3801              		.section	.text._ZN14GrannyChordApp15DebugPrintStateE8AppState,"ax",%progbits
 3802              		.align	1
 3803              		.global	_ZN14GrannyChordApp15DebugPrintStateE8AppState
 3804              		.syntax unified
 3805              		.thumb
 3806              		.thumb_func
 3808              	_ZN14GrannyChordApp15DebugPrintStateE8AppState:
 3809              	.LVL277:
 3810              	.LFB4949:
 703:GrannyChordApp.cpp ****   return knob_val;
 704:GrannyChordApp.cpp **** }
 705:GrannyChordApp.cpp **** 
 706:GrannyChordApp.cpp **** inline bool GrannyChordApp::UpdateKnobPassThru(float curr_knob_val, float prev_param){
 707:GrannyChordApp.cpp ****   if (mode_changed_){
 708:GrannyChordApp.cpp ****     if (fabs(curr_knob_val - prev_param)<0.0001){
 709:GrannyChordApp.cpp ****       mode_changed_ = false;
 710:GrannyChordApp.cpp ****       return true;
 711:GrannyChordApp.cpp ****     }
 712:GrannyChordApp.cpp ****     else return false;
 713:GrannyChordApp.cpp ****   }
 714:GrannyChordApp.cpp ****   else return true;
 715:GrannyChordApp.cpp **** }
 716:GrannyChordApp.cpp **** 
 717:GrannyChordApp.cpp **** 
 718:GrannyChordApp.cpp **** 
 719:GrannyChordApp.cpp **** void GrannyChordApp::DebugPrintState(AppState state){
 3811              		.loc 3 719 53 is_stmt 1 view -0
 3812              		.cfi_startproc
 3813              		@ args = 0, pretend = 0, frame = 0
 3814              		@ frame_needed = 0, uses_anonymous_args = 0
 3815              		@ link register save eliminated.
 720:GrannyChordApp.cpp ****   switch(state){
 3816              		.loc 3 720 3 view .LVU1051
 3817 0000 0329     		cmp	r1, #3
 3818 0002 0CD8     		bhi	.L141
 3819 0004 DFE801F0 		tbb	[pc, r1]
 3820              	.L143:
 3821 0008 02       		.byte	(.L146-.L143)/2
 3822 0009 07       		.byte	(.L145-.L143)/2
 3823 000a 09       		.byte	(.L144-.L143)/2
 3824 000b 05       		.byte	(.L142-.L143)/2
 3825              		.p2align 1
 3826              	.L146:
 721:GrannyChordApp.cpp ****     case AppState::SelectFile:
 3827              		.loc 3 721 5 view .LVU1052
 722:GrannyChordApp.cpp ****       DebugPrint(pod_, "State now in: SelectFile");
 3828              		.loc 3 722 7 view .LVU1053
ARM GAS  /var/folders/2p/02m_5p7958535cp2tpgps0400000gn/T//cchBTf64.s 			page 116


 3829              		.loc 3 722 7 view .LVU1054
 3830              	.LVL278:
 3831              	.LBB640:
 3832              	.LBI640:
 126:../libDaisy/src/daisy_seed.h ****     {
 3833              		.loc 5 126 17 view .LVU1055
 3834              	.LBB641:
 3835              		.loc 5 128 23 is_stmt 0 view .LVU1056
 3836 000c 0548     		ldr	r0, .L148
 3837              	.LVL279:
 3838              	.L147:
 3839              		.loc 5 128 23 view .LVU1057
 3840              	.LBE641:
 3841              	.LBE640:
 3842              	.LBB642:
 3843              	.LBB643:
 3844 000e FFF7FEBF 		b	_ZN5daisy6LoggerILNS_17LoggerDestinationE1EE9PrintLineEPKcz
 3845              	.LVL280:
 3846              	.L142:
 3847              		.loc 5 128 23 view .LVU1058
 3848              	.LBE643:
 3849              	.LBE642:
 723:GrannyChordApp.cpp ****       return;
 724:GrannyChordApp.cpp ****     case AppState::RecordIn:
 3850              		.loc 3 724 5 is_stmt 1 view .LVU1059
 725:GrannyChordApp.cpp ****       DebugPrint(pod_, "State now in: RecordIn");
 3851              		.loc 3 725 7 view .LVU1060
 3852              		.loc 3 725 7 view .LVU1061
 3853              	.LBB645:
 3854              	.LBI645:
 126:../libDaisy/src/daisy_seed.h ****     {
 3855              		.loc 5 126 17 view .LVU1062
 3856              	.LBB646:
 3857              		.loc 5 128 23 is_stmt 0 view .LVU1063
 3858 0012 0548     		ldr	r0, .L148+4
 3859              	.LVL281:
 3860              		.loc 5 128 23 view .LVU1064
 3861 0014 FBE7     		b	.L147
 3862              	.LVL282:
 3863              	.L145:
 3864              		.loc 5 128 23 view .LVU1065
 3865              	.LBE646:
 3866              	.LBE645:
 726:GrannyChordApp.cpp ****       return;
 727:GrannyChordApp.cpp ****     case AppState::PlayWAV:
 3867              		.loc 3 727 5 is_stmt 1 view .LVU1066
 728:GrannyChordApp.cpp ****       DebugPrint(pod_, "State now in: PlayWAV");
 3868              		.loc 3 728 7 view .LVU1067
 3869              		.loc 3 728 7 view .LVU1068
 3870              	.LBB647:
 3871              	.LBI647:
 126:../libDaisy/src/daisy_seed.h ****     {
 3872              		.loc 5 126 17 view .LVU1069
 3873              	.LBB648:
 3874              		.loc 5 128 23 is_stmt 0 view .LVU1070
 3875 0016 0548     		ldr	r0, .L148+8
 3876              	.LVL283:
ARM GAS  /var/folders/2p/02m_5p7958535cp2tpgps0400000gn/T//cchBTf64.s 			page 117


 3877              		.loc 5 128 23 view .LVU1071
 3878 0018 F9E7     		b	.L147
 3879              	.LVL284:
 3880              	.L144:
 3881              		.loc 5 128 23 view .LVU1072
 3882              	.LBE648:
 3883              	.LBE647:
 729:GrannyChordApp.cpp ****       return;
 730:GrannyChordApp.cpp ****     case AppState::Synthesis:
 3884              		.loc 3 730 5 is_stmt 1 view .LVU1073
 731:GrannyChordApp.cpp ****       DebugPrint(pod_, "State now in: Synthesis");
 3885              		.loc 3 731 7 view .LVU1074
 3886              		.loc 3 731 7 view .LVU1075
 3887              	.LBB649:
 3888              	.LBI649:
 126:../libDaisy/src/daisy_seed.h ****     {
 3889              		.loc 5 126 17 view .LVU1076
 3890              	.LBB650:
 3891              		.loc 5 128 23 is_stmt 0 view .LVU1077
 3892 001a 0548     		ldr	r0, .L148+12
 3893              	.LVL285:
 3894              		.loc 5 128 23 view .LVU1078
 3895 001c F7E7     		b	.L147
 3896              	.LVL286:
 3897              	.L141:
 3898              		.loc 5 128 23 view .LVU1079
 3899              	.LBE650:
 3900              	.LBE649:
 732:GrannyChordApp.cpp ****       return;
 733:GrannyChordApp.cpp ****     // case AppState::ChordMode:
 734:GrannyChordApp.cpp ****       DebugPrint(pod_, "State now in: ChordMode");
 735:GrannyChordApp.cpp ****     case AppState::Error:
 3901              		.loc 3 735 5 is_stmt 1 view .LVU1080
 736:GrannyChordApp.cpp ****     default:
 3902              		.loc 3 736 5 view .LVU1081
 737:GrannyChordApp.cpp ****       DebugPrint(pod_, "State now in: Error");
 3903              		.loc 3 737 7 view .LVU1082
 3904              		.loc 3 737 7 view .LVU1083
 3905              	.LBB651:
 3906              	.LBI642:
 126:../libDaisy/src/daisy_seed.h ****     {
 3907              		.loc 5 126 17 view .LVU1084
 3908              	.LBB644:
 3909              		.loc 5 128 23 is_stmt 0 view .LVU1085
 3910 001e 0548     		ldr	r0, .L148+16
 3911              	.LVL287:
 3912              		.loc 5 128 23 view .LVU1086
 3913 0020 F5E7     		b	.L147
 3914              	.L149:
 3915 0022 00BF     		.align	2
 3916              	.L148:
 3917 0024 00000000 		.word	.LC18
 3918 0028 19000000 		.word	.LC19
 3919 002c 30000000 		.word	.LC20
 3920 0030 46000000 		.word	.LC21
 3921 0034 5E000000 		.word	.LC22
 3922              	.LBE644:
ARM GAS  /var/folders/2p/02m_5p7958535cp2tpgps0400000gn/T//cchBTf64.s 			page 118


 3923              	.LBE651:
 3924              		.cfi_endproc
 3925              	.LFE4949:
 3927              		.section	.rodata._ZN14GrannyChordApp14DebugPrintModeE9SynthMode.str1.1,"aMS",%progbits,1
 3928              	.LC23:
 3929 0000 53746174 		.ascii	"State now in: SizePos\000"
 3929      65206E6F 
 3929      7720696E 
 3929      3A205369 
 3929      7A65506F 
 3930              	.LC24:
 3931 0016 53746174 		.ascii	"State now in: SizePosRnd\000"
 3931      65206E6F 
 3931      7720696E 
 3931      3A205369 
 3931      7A65506F 
 3932              	.LC25:
 3933 002f 53746174 		.ascii	"State now in: PitchGrains\000"
 3933      65206E6F 
 3933      7720696E 
 3933      3A205069 
 3933      74636847 
 3934              	.LC26:
 3935 0049 53746174 		.ascii	"State now in: PitchGrainsRnd\000"
 3935      65206E6F 
 3935      7720696E 
 3935      3A205069 
 3935      74636847 
 3936              	.LC27:
 3937 0066 53746174 		.ascii	"State now in: PanDirection\000"
 3937      65206E6F 
 3937      7720696E 
 3937      3A205061 
 3937      6E446972 
 3938              	.LC28:
 3939 0081 53746174 		.ascii	"State now in: Rotator_Chorus\000"
 3939      65206E6F 
 3939      7720696E 
 3939      3A20526F 
 3939      7461746F 
 3940              	.LC29:
 3941 009e 53746174 		.ascii	"State now in: Reverb\000"
 3941      65206E6F 
 3941      7720696E 
 3941      3A205265 
 3941      76657262 
 3942              	.LC30:
 3943 00b3 53746174 		.ascii	"State now in: Filter\000"
 3943      65206E6F 
 3943      7720696E 
 3943      3A204669 
 3943      6C746572 
 3944              		.section	.text._ZN14GrannyChordApp14DebugPrintModeE9SynthMode,"ax",%progbits
 3945              		.align	1
 3946              		.global	_ZN14GrannyChordApp14DebugPrintModeE9SynthMode
 3947              		.syntax unified
 3948              		.thumb
ARM GAS  /var/folders/2p/02m_5p7958535cp2tpgps0400000gn/T//cchBTf64.s 			page 119


 3949              		.thumb_func
 3951              	_ZN14GrannyChordApp14DebugPrintModeE9SynthMode:
 3952              	.LVL288:
 3953              	.LFB4950:
 738:GrannyChordApp.cpp ****       return;
 739:GrannyChordApp.cpp ****   }
 740:GrannyChordApp.cpp **** };
 741:GrannyChordApp.cpp **** 
 742:GrannyChordApp.cpp **** void GrannyChordApp::DebugPrintMode(SynthMode mode){
 3954              		.loc 3 742 52 is_stmt 1 view -0
 3955              		.cfi_startproc
 3956              		@ args = 0, pretend = 0, frame = 0
 3957              		@ frame_needed = 0, uses_anonymous_args = 0
 3958              		@ link register save eliminated.
 743:GrannyChordApp.cpp ****   switch(mode){
 3959              		.loc 3 743 3 view .LVU1088
 3960 0000 0729     		cmp	r1, #7
 3961 0002 16D8     		bhi	.L150
 3962 0004 DFE801F0 		tbb	[pc, r1]
 3963              	.L153:
 3964 0008 04       		.byte	(.L160-.L153)/2
 3965 0009 07       		.byte	(.L159-.L153)/2
 3966 000a 09       		.byte	(.L158-.L153)/2
 3967 000b 0B       		.byte	(.L157-.L153)/2
 3968 000c 0D       		.byte	(.L156-.L153)/2
 3969 000d 0F       		.byte	(.L155-.L153)/2
 3970 000e 11       		.byte	(.L154-.L153)/2
 3971 000f 13       		.byte	(.L152-.L153)/2
 3972              		.p2align 1
 3973              	.L160:
 744:GrannyChordApp.cpp ****     case SynthMode::Size_Position:
 3974              		.loc 3 744 5 view .LVU1089
 745:GrannyChordApp.cpp ****       DebugPrint(pod_, "State now in: SizePos");
 3975              		.loc 3 745 7 view .LVU1090
 3976              		.loc 3 745 7 view .LVU1091
 3977              	.LVL289:
 3978              	.LBB652:
 3979              	.LBI652:
 126:../libDaisy/src/daisy_seed.h ****     {
 3980              		.loc 5 126 17 view .LVU1092
 3981              	.LBB653:
 3982              		.loc 5 128 23 is_stmt 0 view .LVU1093
 3983 0010 0848     		ldr	r0, .L162
 3984              	.LVL290:
 3985              	.L161:
 3986              		.loc 5 128 23 view .LVU1094
 3987              	.LBE653:
 3988              	.LBE652:
 3989              	.LBB654:
 3990              	.LBB655:
 3991 0012 FFF7FEBF 		b	_ZN5daisy6LoggerILNS_17LoggerDestinationE1EE9PrintLineEPKcz
 3992              	.LVL291:
 3993              	.L159:
 3994              		.loc 5 128 23 view .LVU1095
 3995              	.LBE655:
 3996              	.LBE654:
 746:GrannyChordApp.cpp ****       return;
ARM GAS  /var/folders/2p/02m_5p7958535cp2tpgps0400000gn/T//cchBTf64.s 			page 120


 747:GrannyChordApp.cpp ****     case SynthMode::Size_Position_Rnd:
 3997              		.loc 3 747 5 is_stmt 1 view .LVU1096
 748:GrannyChordApp.cpp ****       DebugPrint(pod_, "State now in: SizePosRnd");
 3998              		.loc 3 748 7 view .LVU1097
 3999              		.loc 3 748 7 view .LVU1098
 4000              	.LBB657:
 4001              	.LBI657:
 126:../libDaisy/src/daisy_seed.h ****     {
 4002              		.loc 5 126 17 view .LVU1099
 4003              	.LBB658:
 4004              		.loc 5 128 23 is_stmt 0 view .LVU1100
 4005 0016 0848     		ldr	r0, .L162+4
 4006              	.LVL292:
 4007              		.loc 5 128 23 view .LVU1101
 4008 0018 FBE7     		b	.L161
 4009              	.LVL293:
 4010              	.L158:
 4011              		.loc 5 128 23 view .LVU1102
 4012              	.LBE658:
 4013              	.LBE657:
 749:GrannyChordApp.cpp ****       return;
 750:GrannyChordApp.cpp ****     case SynthMode::Pitch_ActiveGrains:
 4014              		.loc 3 750 5 is_stmt 1 view .LVU1103
 751:GrannyChordApp.cpp ****       DebugPrint(pod_, "State now in: PitchGrains");
 4015              		.loc 3 751 7 view .LVU1104
 4016              		.loc 3 751 7 view .LVU1105
 4017              	.LBB659:
 4018              	.LBI659:
 126:../libDaisy/src/daisy_seed.h ****     {
 4019              		.loc 5 126 17 view .LVU1106
 4020              	.LBB660:
 4021              		.loc 5 128 23 is_stmt 0 view .LVU1107
 4022 001a 0848     		ldr	r0, .L162+8
 4023              	.LVL294:
 4024              		.loc 5 128 23 view .LVU1108
 4025 001c F9E7     		b	.L161
 4026              	.LVL295:
 4027              	.L157:
 4028              		.loc 5 128 23 view .LVU1109
 4029              	.LBE660:
 4030              	.LBE659:
 752:GrannyChordApp.cpp ****       return;
 753:GrannyChordApp.cpp ****     case SynthMode::Pitch_ActiveGrains_Rnd:
 4031              		.loc 3 753 5 is_stmt 1 view .LVU1110
 754:GrannyChordApp.cpp ****       DebugPrint(pod_, "State now in: PitchGrainsRnd");
 4032              		.loc 3 754 7 view .LVU1111
 4033              		.loc 3 754 7 view .LVU1112
 4034              	.LBB661:
 4035              	.LBI661:
 126:../libDaisy/src/daisy_seed.h ****     {
 4036              		.loc 5 126 17 view .LVU1113
 4037              	.LBB662:
 4038              		.loc 5 128 23 is_stmt 0 view .LVU1114
 4039 001e 0848     		ldr	r0, .L162+12
 4040              	.LVL296:
 4041              		.loc 5 128 23 view .LVU1115
 4042 0020 F7E7     		b	.L161
ARM GAS  /var/folders/2p/02m_5p7958535cp2tpgps0400000gn/T//cchBTf64.s 			page 121


 4043              	.LVL297:
 4044              	.L156:
 4045              		.loc 5 128 23 view .LVU1116
 4046              	.LBE662:
 4047              	.LBE661:
 755:GrannyChordApp.cpp ****       return;
 756:GrannyChordApp.cpp ****     case SynthMode::Pan_Direction:
 4048              		.loc 3 756 5 is_stmt 1 view .LVU1117
 757:GrannyChordApp.cpp ****       DebugPrint(pod_, "State now in: PanDirection");
 4049              		.loc 3 757 7 view .LVU1118
 4050              		.loc 3 757 7 view .LVU1119
 4051              	.LBB663:
 4052              	.LBI663:
 126:../libDaisy/src/daisy_seed.h ****     {
 4053              		.loc 5 126 17 view .LVU1120
 4054              	.LBB664:
 4055              		.loc 5 128 23 is_stmt 0 view .LVU1121
 4056 0022 0848     		ldr	r0, .L162+16
 4057              	.LVL298:
 4058              		.loc 5 128 23 view .LVU1122
 4059 0024 F5E7     		b	.L161
 4060              	.LVL299:
 4061              	.L155:
 4062              		.loc 5 128 23 view .LVU1123
 4063              	.LBE664:
 4064              	.LBE663:
 758:GrannyChordApp.cpp ****       return;
 759:GrannyChordApp.cpp ****     case SynthMode::PanRnd_Chorus:
 4065              		.loc 3 759 5 is_stmt 1 view .LVU1124
 760:GrannyChordApp.cpp ****       DebugPrint(pod_, "State now in: Rotator_Chorus");
 4066              		.loc 3 760 7 view .LVU1125
 4067              		.loc 3 760 7 view .LVU1126
 4068              	.LBB665:
 4069              	.LBI665:
 126:../libDaisy/src/daisy_seed.h ****     {
 4070              		.loc 5 126 17 view .LVU1127
 4071              	.LBB666:
 4072              		.loc 5 128 23 is_stmt 0 view .LVU1128
 4073 0026 0848     		ldr	r0, .L162+20
 4074              	.LVL300:
 4075              		.loc 5 128 23 view .LVU1129
 4076 0028 F3E7     		b	.L161
 4077              	.LVL301:
 4078              	.L154:
 4079              		.loc 5 128 23 view .LVU1130
 4080              	.LBE666:
 4081              	.LBE665:
 761:GrannyChordApp.cpp ****       return;
 762:GrannyChordApp.cpp ****     case SynthMode::Reverb:
 4082              		.loc 3 762 5 is_stmt 1 view .LVU1131
 763:GrannyChordApp.cpp ****       DebugPrint(pod_, "State now in: Reverb");
 4083              		.loc 3 763 7 view .LVU1132
 4084              		.loc 3 763 7 view .LVU1133
 4085              	.LBB667:
 4086              	.LBI667:
 126:../libDaisy/src/daisy_seed.h ****     {
 4087              		.loc 5 126 17 view .LVU1134
ARM GAS  /var/folders/2p/02m_5p7958535cp2tpgps0400000gn/T//cchBTf64.s 			page 122


 4088              	.LBB668:
 4089              		.loc 5 128 23 is_stmt 0 view .LVU1135
 4090 002a 0848     		ldr	r0, .L162+24
 4091              	.LVL302:
 4092              		.loc 5 128 23 view .LVU1136
 4093 002c F1E7     		b	.L161
 4094              	.LVL303:
 4095              	.L152:
 4096              		.loc 5 128 23 view .LVU1137
 4097              	.LBE668:
 4098              	.LBE667:
 764:GrannyChordApp.cpp ****       return;
 765:GrannyChordApp.cpp ****     case SynthMode::Filter:
 4099              		.loc 3 765 5 is_stmt 1 view .LVU1138
 766:GrannyChordApp.cpp ****       DebugPrint(pod_, "State now in: Filter");
 4100              		.loc 3 766 7 view .LVU1139
 4101              		.loc 3 766 7 view .LVU1140
 4102              	.LBB669:
 4103              	.LBI654:
 126:../libDaisy/src/daisy_seed.h ****     {
 4104              		.loc 5 126 17 view .LVU1141
 4105              	.LBB656:
 4106              		.loc 5 128 23 is_stmt 0 view .LVU1142
 4107 002e 0848     		ldr	r0, .L162+28
 4108              	.LVL304:
 4109              		.loc 5 128 23 view .LVU1143
 4110 0030 EFE7     		b	.L161
 4111              	.LVL305:
 4112              	.L150:
 4113              		.loc 5 128 23 view .LVU1144
 4114              	.LBE656:
 4115              	.LBE669:
 767:GrannyChordApp.cpp ****       return;
 768:GrannyChordApp.cpp ****   }
 769:GrannyChordApp.cpp **** };
 4116              		.loc 3 769 1 view .LVU1145
 4117 0032 7047     		bx	lr
 4118              	.L163:
 4119              		.align	2
 4120              	.L162:
 4121 0034 00000000 		.word	.LC23
 4122 0038 16000000 		.word	.LC24
 4123 003c 2F000000 		.word	.LC25
 4124 0040 49000000 		.word	.LC26
 4125 0044 66000000 		.word	.LC27
 4126 0048 81000000 		.word	.LC28
 4127 004c 9E000000 		.word	.LC29
 4128 0050 B3000000 		.word	.LC30
 4129              		.cfi_endproc
 4130              	.LFE4950:
 4132              		.section	.text._ZN14GrannyChordApp11LedCallbackEv,"ax",%progbits
 4133              		.align	1
 4134              		.global	_ZN14GrannyChordApp11LedCallbackEv
 4135              		.syntax unified
 4136              		.thumb
 4137              		.thumb_func
 4139              	_ZN14GrannyChordApp11LedCallbackEv:
ARM GAS  /var/folders/2p/02m_5p7958535cp2tpgps0400000gn/T//cchBTf64.s 			page 123


 4140              	.LVL306:
 4141              	.LFB4952:
 770:GrannyChordApp.cpp **** 
 771:GrannyChordApp.cpp **** /// @brief sets up hardware timer peripheral, used for
 772:GrannyChordApp.cpp **** ///        timing led flashes on state/mode changes
 773:GrannyChordApp.cpp **** ///        (internal system delay is blocking so not used)
 774:GrannyChordApp.cpp **** void GrannyChordApp::SetupTimer(){
 775:GrannyChordApp.cpp ****   TimerHandle::Config cfg;
 776:GrannyChordApp.cpp ****   cfg.periph = TimerHandle::Config::Peripheral::TIM_5;
 777:GrannyChordApp.cpp ****   cfg.period = 4000;
 778:GrannyChordApp.cpp ****   cfg.enable_irq = true;
 779:GrannyChordApp.cpp ****   timer_.Init(cfg);
 780:GrannyChordApp.cpp ****   timer_.SetPrescaler(9999);
 781:GrannyChordApp.cpp ****   timer_.SetCallback(StaticLedCallback, nullptr);
 782:GrannyChordApp.cpp ****   SetLed1AppState();
 783:GrannyChordApp.cpp ****   timer_.Start();
 784:GrannyChordApp.cpp **** }
 785:GrannyChordApp.cpp **** 
 786:GrannyChordApp.cpp **** /// @brief callback function called every timer period 
 787:GrannyChordApp.cpp **** void GrannyChordApp::LedCallback(){
 4142              		.loc 3 787 35 is_stmt 1 view -0
 4143              		.cfi_startproc
 4144              		@ args = 0, pretend = 0, frame = 0
 4145              		@ frame_needed = 0, uses_anonymous_args = 0
 788:GrannyChordApp.cpp ****   if (led1_flash_count_ < 7) {
 4146              		.loc 3 788 3 view .LVU1147
 787:GrannyChordApp.cpp ****   if (led1_flash_count_ < 7) {
 4147              		.loc 3 787 35 is_stmt 0 view .LVU1148
 4148 0000 38B5     		push	{r3, r4, r5, lr}
 4149              		.cfi_def_cfa_offset 16
 4150              		.cfi_offset 3, -16
 4151              		.cfi_offset 4, -12
 4152              		.cfi_offset 5, -8
 4153              		.cfi_offset 14, -4
 4154              		.loc 3 788 7 view .LVU1149
 4155 0002 00F55044 		add	r4, r0, #53248
 787:GrannyChordApp.cpp ****   if (led1_flash_count_ < 7) {
 4156              		.loc 3 787 35 view .LVU1150
 4157 0006 0546     		mov	r5, r0
 789:GrannyChordApp.cpp ****       /* flash on/off for the first 6 callbacks (3 cycles) */
 790:GrannyChordApp.cpp ****       if (led1_flash_count_%2==0) { pod_.led1.Set(rgb1_[0],rgb1_[1],rgb1_[2]); }
 4158              		.loc 3 790 50 view .LVU1151
 4159 0008 C069     		ldr	r0, [r0, #28]
 4160              	.LVL307:
 788:GrannyChordApp.cpp ****       /* flash on/off for the first 6 callbacks (3 cycles) */
 4161              		.loc 3 788 7 view .LVU1152
 4162 000a D4F86832 		ldr	r3, [r4, #616]
 4163              		.loc 3 790 50 view .LVU1153
 4164 000e D830     		adds	r0, r0, #216
 788:GrannyChordApp.cpp ****       /* flash on/off for the first 6 callbacks (3 cycles) */
 4165              		.loc 3 788 3 view .LVU1154
 4166 0010 062B     		cmp	r3, #6
 4167 0012 49DC     		bgt	.L165
 4168              		.loc 3 790 7 is_stmt 1 view .LVU1155
 4169 0014 DA07     		lsls	r2, r3, #31
 4170              		.loc 3 790 37 view .LVU1156
 791:GrannyChordApp.cpp ****       else { pod_.led1.Set(0,0,0);}
ARM GAS  /var/folders/2p/02m_5p7958535cp2tpgps0400000gn/T//cchBTf64.s 			page 124


 4171              		.loc 3 791 27 is_stmt 0 view .LVU1157
 4172 0016 4BBF     		itete	mi
 4173 0018 9FED2E1A 		vldrmi.32	s2, .L178
 790:GrannyChordApp.cpp ****       else { pod_.led1.Set(0,0,0);}
 4174              		.loc 3 790 50 view .LVU1158
 4175 001c 94ED961A 		vldrpl.32	s2, [r4, #600]
 4176              		.loc 3 791 27 view .LVU1159
 4177 0020 F0EE410A 		vmovmi.f32	s1, s2
 790:GrannyChordApp.cpp ****       else { pod_.led1.Set(0,0,0);}
 4178              		.loc 3 790 50 view .LVU1160
 4179 0024 D4ED950A 		vldrpl.32	s1, [r4, #596]
 4180              		.loc 3 791 27 view .LVU1161
 4181 0028 4CBF     		ite	mi
 4182 002a B0EE410A 		vmovmi.f32	s0, s2
 790:GrannyChordApp.cpp ****       else { pod_.led1.Set(0,0,0);}
 4183              		.loc 3 790 50 view .LVU1162
 4184 002e 94ED940A 		vldrpl.32	s0, [r4, #592]
 4185              		.loc 3 791 14 is_stmt 1 view .LVU1163
 4186              		.loc 3 791 27 is_stmt 0 view .LVU1164
 4187 0032 FFF7FEFF 		bl	_ZN5daisy6RgbLed3SetEfff
 4188              	.LVL308:
 792:GrannyChordApp.cpp ****       led1_flash_count_++;
 4189              		.loc 3 792 7 is_stmt 1 view .LVU1165
 4190              		.loc 3 792 24 is_stmt 0 view .LVU1166
 4191 0036 D4F86832 		ldr	r3, [r4, #616]
 4192 003a 0133     		adds	r3, r3, #1
 4193 003c C4F86832 		str	r3, [r4, #616]
 4194              	.L168:
 793:GrannyChordApp.cpp ****   }
 794:GrannyChordApp.cpp ****   else pod_.led1.Set(rgb1_[0],rgb1_[1],rgb1_[2]); /* stay solid after 3 flashes */
 795:GrannyChordApp.cpp **** 
 796:GrannyChordApp.cpp ****   if (led2_flash_count_ <7){
 4195              		.loc 3 796 3 is_stmt 1 view .LVU1167
 4196              		.loc 3 796 7 is_stmt 0 view .LVU1168
 4197 0040 D4F86C32 		ldr	r3, [r4, #620]
 797:GrannyChordApp.cpp ****     if (led2_flash_count_%2==0) { pod_.led2.Set(rgb2_[0],rgb2_[1],rgb2_[2]); }
 4198              		.loc 3 797 48 view .LVU1169
 4199 0044 E869     		ldr	r0, [r5, #28]
 796:GrannyChordApp.cpp ****     if (led2_flash_count_%2==0) { pod_.led2.Set(rgb2_[0],rgb2_[1],rgb2_[2]); }
 4200              		.loc 3 796 3 view .LVU1170
 4201 0046 062B     		cmp	r3, #6
 4202              		.loc 3 797 48 view .LVU1171
 4203 0048 00F59670 		add	r0, r0, #300
 796:GrannyChordApp.cpp ****     if (led2_flash_count_%2==0) { pod_.led2.Set(rgb2_[0],rgb2_[1],rgb2_[2]); }
 4204              		.loc 3 796 3 view .LVU1172
 4205 004c 35DC     		bgt	.L169
 4206              		.loc 3 797 5 is_stmt 1 view .LVU1173
 4207 004e DB07     		lsls	r3, r3, #31
 4208              		.loc 3 797 35 view .LVU1174
 798:GrannyChordApp.cpp ****     else { pod_.led2.Set(0,0,0); }
 4209              		.loc 3 798 25 is_stmt 0 view .LVU1175
 4210 0050 4BBF     		itete	mi
 4211 0052 9FED201A 		vldrmi.32	s2, .L178
 797:GrannyChordApp.cpp ****     if (led2_flash_count_%2==0) { pod_.led2.Set(rgb2_[0],rgb2_[1],rgb2_[2]); }
 4212              		.loc 3 797 48 view .LVU1176
 4213 0056 94ED991A 		vldrpl.32	s2, [r4, #612]
 4214              		.loc 3 798 25 view .LVU1177
ARM GAS  /var/folders/2p/02m_5p7958535cp2tpgps0400000gn/T//cchBTf64.s 			page 125


 4215 005a F0EE410A 		vmovmi.f32	s1, s2
 797:GrannyChordApp.cpp ****     if (led2_flash_count_%2==0) { pod_.led2.Set(rgb2_[0],rgb2_[1],rgb2_[2]); }
 4216              		.loc 3 797 48 view .LVU1178
 4217 005e D4ED980A 		vldrpl.32	s1, [r4, #608]
 4218              		.loc 3 798 25 view .LVU1179
 4219 0062 4CBF     		ite	mi
 4220 0064 B0EE410A 		vmovmi.f32	s0, s2
 797:GrannyChordApp.cpp ****     if (led2_flash_count_%2==0) { pod_.led2.Set(rgb2_[0],rgb2_[1],rgb2_[2]); }
 4221              		.loc 3 797 48 view .LVU1180
 4222 0068 94ED970A 		vldrpl.32	s0, [r4, #604]
 4223              		.loc 3 798 12 is_stmt 1 view .LVU1181
 4224              		.loc 3 798 25 is_stmt 0 view .LVU1182
 4225 006c FFF7FEFF 		bl	_ZN5daisy6RgbLed3SetEfff
 4226              	.LVL309:
 799:GrannyChordApp.cpp ****     led2_flash_count_++;
 4227              		.loc 3 799 5 is_stmt 1 view .LVU1183
 4228              		.loc 3 799 22 is_stmt 0 view .LVU1184
 4229 0070 D4F86C32 		ldr	r3, [r4, #620]
 4230 0074 0133     		adds	r3, r3, #1
 4231 0076 C4F86C32 		str	r3, [r4, #620]
 4232              	.L172:
 800:GrannyChordApp.cpp ****   } 
 801:GrannyChordApp.cpp ****   else pod_.led2.Set(rgb2_[0],rgb2_[1],rgb2_[2]);
 802:GrannyChordApp.cpp **** 
 803:GrannyChordApp.cpp ****   if (recording_out_ || curr_state_ == AppState::RecordIn){
 4233              		.loc 3 803 3 is_stmt 1 view .LVU1185
 4234 007a 94F83012 		ldrb	r1, [r4, #560]	@ zero_extendqisi2
 804:GrannyChordApp.cpp ****     pod_.seed.SetLed(seed_led_state_);
 805:GrannyChordApp.cpp ****     seed_led_state_ = !seed_led_state_;
 806:GrannyChordApp.cpp ****   }
 807:GrannyChordApp.cpp ****   else pod_.seed.SetLed(0); /* turn off seed led when not recording out */
 4235              		.loc 3 807 24 is_stmt 0 view .LVU1186
 4236 007e E869     		ldr	r0, [r5, #28]
 803:GrannyChordApp.cpp ****     pod_.seed.SetLed(seed_led_state_);
 4237              		.loc 3 803 3 view .LVU1187
 4238 0080 19B9     		cbnz	r1, .L173
 803:GrannyChordApp.cpp ****     pod_.seed.SetLed(seed_led_state_);
 4239              		.loc 3 803 22 discriminator 1 view .LVU1188
 4240 0082 D5F87832 		ldr	r3, [r5, #632]
 4241 0086 032B     		cmp	r3, #3
 4242 0088 20D1     		bne	.L174
 4243              	.L173:
 804:GrannyChordApp.cpp ****     pod_.seed.SetLed(seed_led_state_);
 4244              		.loc 3 804 5 is_stmt 1 view .LVU1189
 804:GrannyChordApp.cpp ****     pod_.seed.SetLed(seed_led_state_);
 4245              		.loc 3 804 21 is_stmt 0 view .LVU1190
 4246 008a 94F87012 		ldrb	r1, [r4, #624]	@ zero_extendqisi2
 4247 008e FFF7FEFF 		bl	_ZN5daisy9DaisySeed6SetLedEb
 4248              	.LVL310:
 805:GrannyChordApp.cpp ****   }
 4249              		.loc 3 805 5 is_stmt 1 view .LVU1191
 805:GrannyChordApp.cpp ****   }
 4250              		.loc 3 805 23 is_stmt 0 view .LVU1192
 4251 0092 94F87032 		ldrb	r3, [r4, #624]	@ zero_extendqisi2
 4252 0096 83F00103 		eor	r3, r3, #1
 805:GrannyChordApp.cpp ****   }
 4253              		.loc 3 805 21 view .LVU1193
ARM GAS  /var/folders/2p/02m_5p7958535cp2tpgps0400000gn/T//cchBTf64.s 			page 126


 4254 009a 84F87032 		strb	r3, [r4, #624]
 4255              	.L175:
 808:GrannyChordApp.cpp ****   pod_.UpdateLeds();
 4256              		.loc 3 808 3 is_stmt 1 view .LVU1194
 4257              		.loc 3 808 18 is_stmt 0 view .LVU1195
 4258 009e E869     		ldr	r0, [r5, #28]
 809:GrannyChordApp.cpp **** }
 4259              		.loc 3 809 1 view .LVU1196
 4260 00a0 BDE83840 		pop	{r3, r4, r5, lr}
 4261              		.cfi_remember_state
 4262              		.cfi_restore 14
 4263              		.cfi_restore 5
 4264              		.cfi_restore 4
 4265              		.cfi_restore 3
 4266              		.cfi_def_cfa_offset 0
 4267              	.LVL311:
 808:GrannyChordApp.cpp ****   pod_.UpdateLeds();
 4268              		.loc 3 808 18 view .LVU1197
 4269 00a4 FFF7FEBF 		b	_ZN5daisy8DaisyPod10UpdateLedsEv
 4270              	.LVL312:
 4271              	.L165:
 4272              		.cfi_restore_state
 794:GrannyChordApp.cpp **** 
 4273              		.loc 3 794 8 is_stmt 1 view .LVU1198
 794:GrannyChordApp.cpp **** 
 4274              		.loc 3 794 21 is_stmt 0 view .LVU1199
 4275 00a8 94ED961A 		vldr.32	s2, [r4, #600]
 4276 00ac D4ED950A 		vldr.32	s1, [r4, #596]
 4277 00b0 94ED940A 		vldr.32	s0, [r4, #592]
 4278 00b4 FFF7FEFF 		bl	_ZN5daisy6RgbLed3SetEfff
 4279              	.LVL313:
 4280 00b8 C2E7     		b	.L168
 4281              	.L169:
 801:GrannyChordApp.cpp **** 
 4282              		.loc 3 801 8 is_stmt 1 view .LVU1200
 801:GrannyChordApp.cpp **** 
 4283              		.loc 3 801 21 is_stmt 0 view .LVU1201
 4284 00ba 94ED991A 		vldr.32	s2, [r4, #612]
 4285 00be D4ED980A 		vldr.32	s1, [r4, #608]
 4286 00c2 94ED970A 		vldr.32	s0, [r4, #604]
 4287 00c6 FFF7FEFF 		bl	_ZN5daisy6RgbLed3SetEfff
 4288              	.LVL314:
 4289 00ca D6E7     		b	.L172
 4290              	.L174:
 807:GrannyChordApp.cpp ****   pod_.UpdateLeds();
 4291              		.loc 3 807 8 is_stmt 1 view .LVU1202
 807:GrannyChordApp.cpp ****   pod_.UpdateLeds();
 4292              		.loc 3 807 24 is_stmt 0 view .LVU1203
 4293 00cc FFF7FEFF 		bl	_ZN5daisy9DaisySeed6SetLedEb
 4294              	.LVL315:
 4295 00d0 E5E7     		b	.L175
 4296              	.L179:
 4297 00d2 00BF     		.align	2
 4298              	.L178:
 4299 00d4 00000000 		.word	0
 4300              		.cfi_endproc
 4301              	.LFE4952:
ARM GAS  /var/folders/2p/02m_5p7958535cp2tpgps0400000gn/T//cchBTf64.s 			page 127


 4303              		.section	.text._ZN14GrannyChordApp17StaticLedCallbackEPv,"axG",%progbits,_ZN14GrannyChordApp17Stat
 4304              		.align	1
 4305              		.weak	_ZN14GrannyChordApp17StaticLedCallbackEPv
 4306              		.syntax unified
 4307              		.thumb
 4308              		.thumb_func
 4310              	_ZN14GrannyChordApp17StaticLedCallbackEPv:
 4311              	.LVL316:
 4312              	.LFB4910:
 4313              		.file 16 "GrannyChordApp.h"
   1:GrannyChordApp.h **** #pragma once 
   2:GrannyChordApp.h **** #include "daisy_pod.h"
   3:GrannyChordApp.h **** #include "daisysp.h"
   4:GrannyChordApp.h **** #include "GranularSynth.h"
   5:GrannyChordApp.h **** #include "AudioFileManager.h"
   6:GrannyChordApp.h **** #include "constants_utils.h"
   7:GrannyChordApp.h **** #include "debug_print.h"
   8:GrannyChordApp.h **** #include "DaisySP-LGPL-FX/reverb.h"
   9:GrannyChordApp.h **** #include "DaisySP-LGPL-FX/compressor.h"
  10:GrannyChordApp.h **** #include "DaisySP-LGPL-FX/moogladder.h"
  11:GrannyChordApp.h **** #include "StereoRotator.h"
  12:GrannyChordApp.h **** #include "AppState.h"
  13:GrannyChordApp.h **** 
  14:GrannyChordApp.h **** using namespace daisy;
  15:GrannyChordApp.h **** using namespace daisysp;
  16:GrannyChordApp.h **** 
  17:GrannyChordApp.h **** class GrannyChordApp {
  18:GrannyChordApp.h ****   public:
  19:GrannyChordApp.h ****   GrannyChordApp(DaisyPod& pod, GranularSynth& synth, AudioFileManager& filemgr, ReverbSc &reverb)
  20:GrannyChordApp.h ****         : pod_(pod), synth_(synth), 
  21:GrannyChordApp.h ****           filemgr_(filemgr), reverb_(reverb){
  22:GrannyChordApp.h ****             instance_ = this;
  23:GrannyChordApp.h ****           };
  24:GrannyChordApp.h **** 
  25:GrannyChordApp.h ****     void Init(int16_t *left, int16_t *right);
  26:GrannyChordApp.h ****     void Run();
  27:GrannyChordApp.h **** 
  28:GrannyChordApp.h ****     CpuLoadMeter loadmeter;
  29:GrannyChordApp.h **** 
  30:GrannyChordApp.h ****     static void AudioCallback(AudioHandle::InputBuffer in, AudioHandle::OutputBuffer out, size_t si
  31:GrannyChordApp.h ****     void ProcessAudio(AudioHandle::InputBuffer in, AudioHandle::OutputBuffer out, size_t size);
  32:GrannyChordApp.h ****     static GrannyChordApp* instance_;
  33:GrannyChordApp.h **** 
  34:GrannyChordApp.h ****   private:
  35:GrannyChordApp.h ****     DaisyPod &pod_;
  36:GrannyChordApp.h ****     GranularSynth synth_;
  37:GrannyChordApp.h ****     AudioFileManager &filemgr_;
  38:GrannyChordApp.h ****     FIL *file_;
  39:GrannyChordApp.h **** 
  40:GrannyChordApp.h ****     /* UI and state objects */
  41:GrannyChordApp.h ****     AppState curr_state_;
  42:GrannyChordApp.h ****     AppState next_state_;
  43:GrannyChordApp.h ****     SynthMode curr_synth_mode_;
  44:GrannyChordApp.h ****     SynthMode prev_synth_mode_;
  45:GrannyChordApp.h ****     bool mode_changed_;
  46:GrannyChordApp.h **** 
  47:GrannyChordApp.h ****     /* audio FX and filters */
ARM GAS  /var/folders/2p/02m_5p7958535cp2tpgps0400000gn/T//cchBTf64.s 			page 128


  48:GrannyChordApp.h ****     Compressor comp_;
  49:GrannyChordApp.h ****     Limiter limiter_;
  50:GrannyChordApp.h ****     ReverbSc& reverb_;
  51:GrannyChordApp.h ****     Chorus chorus_;
  52:GrannyChordApp.h ****     MoogLadder lowpass_moog_;
  53:GrannyChordApp.h ****     OnePole hipass_;
  54:GrannyChordApp.h ****     StereoRotator rotator_;
  55:GrannyChordApp.h ****     /* filter to reduce high end noise */
  56:GrannyChordApp.h ****     OnePole hicut_;
  57:GrannyChordApp.h **** 
  58:GrannyChordApp.h ****     /* audio data channel buffers */
  59:GrannyChordApp.h ****     int16_t *left_buf_;
  60:GrannyChordApp.h ****     int16_t *right_buf_;
  61:GrannyChordApp.h **** 
  62:GrannyChordApp.h ****     int file_idx_ = 0;
  63:GrannyChordApp.h ****     size_t wav_playhead_ = 0;
  64:GrannyChordApp.h ****     uint32_t audio_len_ = 0;
  65:GrannyChordApp.h ****     char fname_[MAX_FNAME_LEN];
  66:GrannyChordApp.h **** 
  67:GrannyChordApp.h ****     /* previous values for parameters controlled by knob 1*/
  68:GrannyChordApp.h ****     float prev_param_k1[NUM_SYNTH_MODES] = {0};
  69:GrannyChordApp.h ****     float prev_param_k2[NUM_SYNTH_MODES] = {0};
  70:GrannyChordApp.h **** 
  71:GrannyChordApp.h ****     /* stored previous knob values for passthru mode */
  72:GrannyChordApp.h ****     float stored_k1[NUM_SYNTH_MODES] = {0.5f};
  73:GrannyChordApp.h ****     float stored_k2[NUM_SYNTH_MODES] = {0.5f};
  74:GrannyChordApp.h ****     bool pass_thru_k1 = false;
  75:GrannyChordApp.h ****     bool pass_thru_k2 = false;
  76:GrannyChordApp.h **** 
  77:GrannyChordApp.h ****     /* objects/variables for recording in and out */
  78:GrannyChordApp.h ****     WavWriter<16384> sd_writer_;
  79:GrannyChordApp.h ****     bool recorded_in_ = false;
  80:GrannyChordApp.h ****     size_t record_in_pos_ = 0;
  81:GrannyChordApp.h ****     bool recording_out_ = false;
  82:GrannyChordApp.h ****     size_t recording_count_ = 0;
  83:GrannyChordApp.h ****     size_t loop_count=0;
  84:GrannyChordApp.h ****     float temp_interleaved_buf_[2];
  85:GrannyChordApp.h **** 
  86:GrannyChordApp.h ****     /* hardware input handler variables */
  87:GrannyChordApp.h ****     size_t last_action_time_ = 0;
  88:GrannyChordApp.h ****     /* these bools track whether the button has just been long pressed
  89:GrannyChordApp.h ****       vs whether it's already known to be pressed down */
  90:GrannyChordApp.h ****     bool btn1_long_press_fired_ = false;
  91:GrannyChordApp.h ****     bool btn2_long_press_fired_ = false;
  92:GrannyChordApp.h ****     bool both_btns_long_press_fired_ = false;
  93:GrannyChordApp.h **** 
  94:GrannyChordApp.h ****     /* timer object and led callback variables */
  95:GrannyChordApp.h ****     TimerHandle timer_;
  96:GrannyChordApp.h ****     float rgb1_[3] = {0};
  97:GrannyChordApp.h ****     float rgb2_[3] = {0};
  98:GrannyChordApp.h ****     int led1_flash_count_=0;
  99:GrannyChordApp.h ****     int led2_flash_count_=0;
 100:GrannyChordApp.h ****     bool seed_led_state_=false;
 101:GrannyChordApp.h **** 
 102:GrannyChordApp.h ****     /* methods to init / prepare for state change */
 103:GrannyChordApp.h ****     bool InitFileMgr();
 104:GrannyChordApp.h ****     void InitPlayback();
ARM GAS  /var/folders/2p/02m_5p7958535cp2tpgps0400000gn/T//cchBTf64.s 			page 129


 105:GrannyChordApp.h ****     void InitSynth();
 106:GrannyChordApp.h ****     void InitFX();
 107:GrannyChordApp.h ****     void InitRecordIn();
 108:GrannyChordApp.h ****     void InitWavWriter();
 109:GrannyChordApp.h ****     void InitPrevParamVals();
 110:GrannyChordApp.h ****     void ResetPassThru();
 111:GrannyChordApp.h **** 
 112:GrannyChordApp.h ****     /* state change handlers */
 113:GrannyChordApp.h ****     void UpdateUI();
 114:GrannyChordApp.h ****     void UpdateSynthModeA();
 115:GrannyChordApp.h ****     void UpdateSynthModeB();
 116:GrannyChordApp.h ****     void HandleStateChange();
 117:GrannyChordApp.h ****     void HandleFileSelection(int32_t encoder_inc);
 118:GrannyChordApp.h **** 
 119:GrannyChordApp.h ****     /* audio input/output/recording methods based on state */
 120:GrannyChordApp.h ****     void ProcessWAVPlayback(AudioHandle::OutputBuffer out, size_t size);
 121:GrannyChordApp.h ****     void ProcessRecordIn(AudioHandle::InputBuffer in, AudioHandle::OutputBuffer out, size_t size);
 122:GrannyChordApp.h ****     void ProcessSynthesis(AudioHandle::OutputBuffer out, size_t size);
 123:GrannyChordApp.h ****     Sample ProcessFX(Sample in);
 124:GrannyChordApp.h ****     void ProcessChordMode(AudioHandle::OutputBuffer out, size_t size);
 125:GrannyChordApp.h ****     void RecordOutToSD();
 126:GrannyChordApp.h ****     void FinishRecording();
 127:GrannyChordApp.h **** 
 128:GrannyChordApp.h ****     /* hardware input handler methods */
 129:GrannyChordApp.h ****     void ButtonHandler();
 130:GrannyChordApp.h ****     void HandleEncoderIncrement(int encoder_inc);
 131:GrannyChordApp.h ****     void HandleEncoderPressed();
 132:GrannyChordApp.h ****     void HandleEncoderLongPress();
 133:GrannyChordApp.h ****     void HandleButton1();
 134:GrannyChordApp.h ****     void HandleButton2();
 135:GrannyChordApp.h ****     void HandleButton1LongPress();
 136:GrannyChordApp.h ****     void HandleButton2LongPress();
 137:GrannyChordApp.h **** 
 138:GrannyChordApp.h ****     /* methods to update/init synth parameters */
 139:GrannyChordApp.h ****     void UpdateSynthParams();
 140:GrannyChordApp.h ****     void UpdateKnob1Params(float knob1_val, SynthMode mode);
 141:GrannyChordApp.h ****     void UpdateKnob2Params(float knob2_val, SynthMode mode);
 142:GrannyChordApp.h ****     // void UpdateChordParams();
 143:GrannyChordApp.h ****     inline float MapKnobDeadzone(float knob_val);
 144:GrannyChordApp.h ****     inline bool UpdateKnobPassThru(float curr_knob_val, float prev_param);
 145:GrannyChordApp.h **** 
 146:GrannyChordApp.h ****     /* timer and led methods */
 147:GrannyChordApp.h ****     void SetupTimer();
 148:GrannyChordApp.h ****     /* has to be static - timer won't take class member function in callback */
 149:GrannyChordApp.h ****     static void StaticLedCallback(void* data){
 4314              		.loc 16 149 17 is_stmt 1 view -0
 4315              		.cfi_startproc
 4316              		@ args = 0, pretend = 0, frame = 0
 4317              		@ frame_needed = 0, uses_anonymous_args = 0
 4318              		@ link register save eliminated.
 150:GrannyChordApp.h ****       instance_ -> LedCallback();
 4319              		.loc 16 150 7 view .LVU1205
 4320              		.loc 16 150 31 is_stmt 0 view .LVU1206
 4321 0000 014B     		ldr	r3, .L181
 4322 0002 1868     		ldr	r0, [r3]
 4323              	.LVL317:
 4324              		.loc 16 150 31 view .LVU1207
ARM GAS  /var/folders/2p/02m_5p7958535cp2tpgps0400000gn/T//cchBTf64.s 			page 130


 4325 0004 FFF7FEBF 		b	_ZN14GrannyChordApp11LedCallbackEv
 4326              	.LVL318:
 4327              	.L182:
 4328              		.align	2
 4329              	.L181:
 4330 0008 00000000 		.word	.LANCHOR0
 4331              		.cfi_endproc
 4332              	.LFE4910:
 4334              		.section	.text._ZN14GrannyChordApp7SetRgb1Efff,"ax",%progbits
 4335              		.align	1
 4336              		.global	_ZN14GrannyChordApp7SetRgb1Efff
 4337              		.syntax unified
 4338              		.thumb
 4339              		.thumb_func
 4341              	_ZN14GrannyChordApp7SetRgb1Efff:
 4342              	.LVL319:
 4343              	.LFB4953:
 810:GrannyChordApp.cpp **** 
 811:GrannyChordApp.cpp **** /// @brief helper function to set led1 colours
 812:GrannyChordApp.cpp **** void GrannyChordApp::SetRgb1(float r, float g, float b){  
 4344              		.loc 3 812 56 is_stmt 1 view -0
 4345              		.cfi_startproc
 4346              		@ args = 0, pretend = 0, frame = 0
 4347              		@ frame_needed = 0, uses_anonymous_args = 0
 4348              		@ link register save eliminated.
 813:GrannyChordApp.cpp ****   rgb1_[0]= r;
 4349              		.loc 3 813 3 view .LVU1209
 4350              		.loc 3 813 11 is_stmt 0 view .LVU1210
 4351 0000 00F55040 		add	r0, r0, #53248
 4352              	.LVL320:
 4353              		.loc 3 813 11 view .LVU1211
 4354 0004 80ED940A 		vstr.32	s0, [r0, #592]
 814:GrannyChordApp.cpp ****   rgb1_[1]= g;
 4355              		.loc 3 814 3 is_stmt 1 view .LVU1212
 4356              		.loc 3 814 11 is_stmt 0 view .LVU1213
 4357 0008 C0ED950A 		vstr.32	s1, [r0, #596]
 815:GrannyChordApp.cpp ****   rgb1_[2]= b;
 4358              		.loc 3 815 3 is_stmt 1 view .LVU1214
 4359              		.loc 3 815 11 is_stmt 0 view .LVU1215
 4360 000c 80ED961A 		vstr.32	s2, [r0, #600]
 816:GrannyChordApp.cpp **** }
 4361              		.loc 3 816 1 view .LVU1216
 4362 0010 7047     		bx	lr
 4363              		.cfi_endproc
 4364              	.LFE4953:
 4366              		.section	.text._ZN14GrannyChordApp7SetRgb2Efff,"ax",%progbits
 4367              		.align	1
 4368              		.global	_ZN14GrannyChordApp7SetRgb2Efff
 4369              		.syntax unified
 4370              		.thumb
 4371              		.thumb_func
 4373              	_ZN14GrannyChordApp7SetRgb2Efff:
 4374              	.LVL321:
 4375              	.LFB4954:
 817:GrannyChordApp.cpp **** 
 818:GrannyChordApp.cpp **** /// @brief helper function to set led2 colours
 819:GrannyChordApp.cpp **** void GrannyChordApp::SetRgb2(float r, float g, float b){
ARM GAS  /var/folders/2p/02m_5p7958535cp2tpgps0400000gn/T//cchBTf64.s 			page 131


 4376              		.loc 3 819 56 is_stmt 1 view -0
 4377              		.cfi_startproc
 4378              		@ args = 0, pretend = 0, frame = 0
 4379              		@ frame_needed = 0, uses_anonymous_args = 0
 4380              		@ link register save eliminated.
 820:GrannyChordApp.cpp ****   rgb2_[0]= r;
 4381              		.loc 3 820 3 view .LVU1218
 4382              		.loc 3 820 11 is_stmt 0 view .LVU1219
 4383 0000 00F55040 		add	r0, r0, #53248
 4384              	.LVL322:
 4385              		.loc 3 820 11 view .LVU1220
 4386 0004 80ED970A 		vstr.32	s0, [r0, #604]
 821:GrannyChordApp.cpp ****   rgb2_[1]= g;
 4387              		.loc 3 821 3 is_stmt 1 view .LVU1221
 4388              		.loc 3 821 11 is_stmt 0 view .LVU1222
 4389 0008 C0ED980A 		vstr.32	s1, [r0, #608]
 822:GrannyChordApp.cpp ****   rgb2_[2]= b;
 4390              		.loc 3 822 3 is_stmt 1 view .LVU1223
 4391              		.loc 3 822 11 is_stmt 0 view .LVU1224
 4392 000c 80ED991A 		vstr.32	s2, [r0, #612]
 823:GrannyChordApp.cpp **** }
 4393              		.loc 3 823 1 view .LVU1225
 4394 0010 7047     		bx	lr
 4395              		.cfi_endproc
 4396              	.LFE4954:
 4398              		.section	.text._ZN14GrannyChordApp15SetLed1AppStateEv,"ax",%progbits
 4399              		.align	1
 4400              		.global	_ZN14GrannyChordApp15SetLed1AppStateEv
 4401              		.syntax unified
 4402              		.thumb
 4403              		.thumb_func
 4405              	_ZN14GrannyChordApp15SetLed1AppStateEv:
 4406              	.LVL323:
 4407              	.LFB4955:
 824:GrannyChordApp.cpp **** 
 825:GrannyChordApp.cpp **** /// @brief sets led colours based on app state
 826:GrannyChordApp.cpp **** void GrannyChordApp::SetLed1AppState(){
 4408              		.loc 3 826 39 is_stmt 1 view -0
 4409              		.cfi_startproc
 4410              		@ args = 0, pretend = 0, frame = 0
 4411              		@ frame_needed = 0, uses_anonymous_args = 0
 827:GrannyChordApp.cpp ****   switch(curr_state_){
 4412              		.loc 3 827 3 view .LVU1227
 826:GrannyChordApp.cpp ****   switch(curr_state_){
 4413              		.loc 3 826 39 is_stmt 0 view .LVU1228
 4414 0000 38B5     		push	{r3, r4, r5, lr}
 4415              		.cfi_def_cfa_offset 16
 4416              		.cfi_offset 3, -16
 4417              		.cfi_offset 4, -12
 4418              		.cfi_offset 5, -8
 4419              		.cfi_offset 14, -4
 4420              		.loc 3 827 3 view .LVU1229
 4421 0002 D0F87832 		ldr	r3, [r0, #632]
 826:GrannyChordApp.cpp ****   switch(curr_state_){
 4422              		.loc 3 826 39 view .LVU1230
 4423 0006 0546     		mov	r5, r0
 4424 0008 00F55044 		add	r4, r0, #53248
ARM GAS  /var/folders/2p/02m_5p7958535cp2tpgps0400000gn/T//cchBTf64.s 			page 132


 4425              		.loc 3 827 3 view .LVU1231
 4426 000c 052B     		cmp	r3, #5
 4427 000e 0CD8     		bhi	.L186
 4428 0010 DFE803F0 		tbb	[pc, r3]
 4429              	.L188:
 4430 0014 03       		.byte	(.L192-.L188)/2
 4431 0015 1A       		.byte	(.L191-.L188)/2
 4432 0016 21       		.byte	(.L190-.L188)/2
 4433 0017 28       		.byte	(.L189-.L188)/2
 4434 0018 2F       		.byte	(.L187-.L188)/2
 4435 0019 2F       		.byte	(.L187-.L188)/2
 4436              		.p2align 1
 4437              	.L192:
 828:GrannyChordApp.cpp ****     case AppState::SelectFile:
 4438              		.loc 3 828 5 is_stmt 1 view .LVU1232
 829:GrannyChordApp.cpp ****       SetRgb1(0, 0, 0.7f); /* blue ? */
 4439              		.loc 3 829 7 view .LVU1233
 4440              	.LVL324:
 4441              	.LBB670:
 4442              	.LBI670:
 812:GrannyChordApp.cpp ****   rgb1_[0]= r;
 4443              		.loc 3 812 6 view .LVU1234
 4444              	.LBB671:
 813:GrannyChordApp.cpp ****   rgb1_[1]= g;
 4445              		.loc 3 813 3 view .LVU1235
 813:GrannyChordApp.cpp ****   rgb1_[1]= g;
 4446              		.loc 3 813 11 is_stmt 0 view .LVU1236
 4447 001a 0023     		movs	r3, #0
 4448 001c C4F85032 		str	r3, [r4, #592]	@ float
 814:GrannyChordApp.cpp ****   rgb1_[2]= b;
 4449              		.loc 3 814 3 is_stmt 1 view .LVU1237
 814:GrannyChordApp.cpp ****   rgb1_[2]= b;
 4450              		.loc 3 814 11 is_stmt 0 view .LVU1238
 4451 0020 C4F85432 		str	r3, [r4, #596]	@ float
 815:GrannyChordApp.cpp **** }
 4452              		.loc 3 815 3 is_stmt 1 view .LVU1239
 815:GrannyChordApp.cpp **** }
 4453              		.loc 3 815 11 is_stmt 0 view .LVU1240
 4454 0024 1A4B     		ldr	r3, .L198
 4455              	.LVL325:
 4456              	.L197:
 815:GrannyChordApp.cpp **** }
 4457              		.loc 3 815 11 view .LVU1241
 4458              	.LBE671:
 4459              	.LBE670:
 4460              	.LBB672:
 4461              	.LBB673:
 815:GrannyChordApp.cpp **** }
 4462              		.loc 3 815 3 is_stmt 1 view .LVU1242
 815:GrannyChordApp.cpp **** }
 4463              		.loc 3 815 11 is_stmt 0 view .LVU1243
 4464 0026 C4F85832 		str	r3, [r4, #600]	@ float
 4465              	.LVL326:
 4466              	.L186:
 815:GrannyChordApp.cpp **** }
 4467              		.loc 3 815 11 view .LVU1244
 4468              	.LBE673:
ARM GAS  /var/folders/2p/02m_5p7958535cp2tpgps0400000gn/T//cchBTf64.s 			page 133


 4469              	.LBE672:
 830:GrannyChordApp.cpp ****       break;
 831:GrannyChordApp.cpp ****     case AppState::PlayWAV:
 832:GrannyChordApp.cpp ****       SetRgb1(0, 0.7f, 0.7f); /* cyan */
 833:GrannyChordApp.cpp ****       break;
 834:GrannyChordApp.cpp ****     case AppState::Synthesis:
 835:GrannyChordApp.cpp ****       SetRgb1(0, 0.7f, 0); /* green */
 836:GrannyChordApp.cpp ****       break;
 837:GrannyChordApp.cpp ****     case AppState::RecordIn:
 838:GrannyChordApp.cpp ****       SetRgb1(0.7f,0.7f,0);  /* yellow? */
 839:GrannyChordApp.cpp ****       break;
 840:GrannyChordApp.cpp ****     case AppState::ChordMode:
 841:GrannyChordApp.cpp ****       SetRgb1(0.7f,0,1); /* violet/purple */
 842:GrannyChordApp.cpp ****       // break;
 843:GrannyChordApp.cpp ****     case AppState::Error:
 844:GrannyChordApp.cpp ****       SetRgb1(1, 0, 0); /* red */
 845:GrannyChordApp.cpp ****       pod_.led2.SetRed(1);
 846:GrannyChordApp.cpp ****       break;
 847:GrannyChordApp.cpp ****     default:
 848:GrannyChordApp.cpp ****       break;
 849:GrannyChordApp.cpp ****   }
 850:GrannyChordApp.cpp ****   if (curr_state_ != AppState::Synthesis) SetRgb2(0,0,0); /* turn off led2 */
 4470              		.loc 3 850 3 is_stmt 1 view .LVU1245
 4471 002a D5F87832 		ldr	r3, [r5, #632]
 4472 002e 022B     		cmp	r3, #2
 4473              		.loc 3 850 43 view .LVU1246
 4474              	.LVL327:
 4475              	.LBB675:
 4476              	.LBI675:
 819:GrannyChordApp.cpp ****   rgb2_[0]= r;
 4477              		.loc 3 819 6 view .LVU1247
 4478              	.LBB676:
 820:GrannyChordApp.cpp ****   rgb2_[1]= g;
 4479              		.loc 3 820 3 view .LVU1248
 820:GrannyChordApp.cpp ****   rgb2_[1]= g;
 4480              		.loc 3 820 11 is_stmt 0 view .LVU1249
 4481 0030 1FBF     		itttt	ne
 4482 0032 0023     		movne	r3, #0
 4483 0034 C4F85C32 		strne	r3, [r4, #604]	@ float
 821:GrannyChordApp.cpp ****   rgb2_[2]= b;
 4484              		.loc 3 821 3 is_stmt 1 view .LVU1250
 821:GrannyChordApp.cpp ****   rgb2_[2]= b;
 4485              		.loc 3 821 11 is_stmt 0 view .LVU1251
 4486 0038 C4F86032 		strne	r3, [r4, #608]	@ float
 822:GrannyChordApp.cpp **** }
 4487              		.loc 3 822 3 is_stmt 1 view .LVU1252
 822:GrannyChordApp.cpp **** }
 4488              		.loc 3 822 11 is_stmt 0 view .LVU1253
 4489 003c C4F86432 		strne	r3, [r4, #612]	@ float
 4490              	.LVL328:
 822:GrannyChordApp.cpp **** }
 4491              		.loc 3 822 11 view .LVU1254
 4492              	.LBE676:
 4493              	.LBE675:
 851:GrannyChordApp.cpp ****   led1_flash_count_=0;
 4494              		.loc 3 851 3 is_stmt 1 view .LVU1255
 4495              		.loc 3 851 20 is_stmt 0 view .LVU1256
ARM GAS  /var/folders/2p/02m_5p7958535cp2tpgps0400000gn/T//cchBTf64.s 			page 134


 4496 0040 0023     		movs	r3, #0
 4497 0042 C4F86832 		str	r3, [r4, #616]
 852:GrannyChordApp.cpp **** }
 4498              		.loc 3 852 1 view .LVU1257
 4499 0046 38BD     		pop	{r3, r4, r5, pc}
 4500              	.LVL329:
 4501              	.L191:
 831:GrannyChordApp.cpp ****       SetRgb1(0, 0.7f, 0.7f); /* cyan */
 4502              		.loc 3 831 5 is_stmt 1 view .LVU1258
 832:GrannyChordApp.cpp ****       break;
 4503              		.loc 3 832 7 view .LVU1259
 4504              	.LBB677:
 4505              	.LBI672:
 812:GrannyChordApp.cpp ****   rgb1_[0]= r;
 4506              		.loc 3 812 6 view .LVU1260
 4507              	.LBB674:
 813:GrannyChordApp.cpp ****   rgb1_[1]= g;
 4508              		.loc 3 813 3 view .LVU1261
 813:GrannyChordApp.cpp ****   rgb1_[1]= g;
 4509              		.loc 3 813 11 is_stmt 0 view .LVU1262
 4510 0048 0023     		movs	r3, #0
 4511 004a C4F85032 		str	r3, [r4, #592]	@ float
 814:GrannyChordApp.cpp ****   rgb1_[2]= b;
 4512              		.loc 3 814 3 is_stmt 1 view .LVU1263
 814:GrannyChordApp.cpp ****   rgb1_[2]= b;
 4513              		.loc 3 814 11 is_stmt 0 view .LVU1264
 4514 004e 104B     		ldr	r3, .L198
 4515 0050 C4F85432 		str	r3, [r4, #596]	@ float
 4516 0054 E7E7     		b	.L197
 4517              	.LVL330:
 4518              	.L190:
 814:GrannyChordApp.cpp ****   rgb1_[2]= b;
 4519              		.loc 3 814 11 view .LVU1265
 4520              	.LBE674:
 4521              	.LBE677:
 834:GrannyChordApp.cpp ****       SetRgb1(0, 0.7f, 0); /* green */
 4522              		.loc 3 834 5 is_stmt 1 view .LVU1266
 835:GrannyChordApp.cpp ****       break;
 4523              		.loc 3 835 7 view .LVU1267
 4524              	.LBB678:
 4525              	.LBI678:
 812:GrannyChordApp.cpp ****   rgb1_[0]= r;
 4526              		.loc 3 812 6 view .LVU1268
 4527              	.LBB679:
 813:GrannyChordApp.cpp ****   rgb1_[1]= g;
 4528              		.loc 3 813 3 view .LVU1269
 813:GrannyChordApp.cpp ****   rgb1_[1]= g;
 4529              		.loc 3 813 11 is_stmt 0 view .LVU1270
 4530 0056 0023     		movs	r3, #0
 814:GrannyChordApp.cpp ****   rgb1_[2]= b;
 4531              		.loc 3 814 11 view .LVU1271
 4532 0058 0D4A     		ldr	r2, .L198
 813:GrannyChordApp.cpp ****   rgb1_[1]= g;
 4533              		.loc 3 813 11 view .LVU1272
 4534 005a C4F85032 		str	r3, [r4, #592]	@ float
 814:GrannyChordApp.cpp ****   rgb1_[2]= b;
 4535              		.loc 3 814 3 is_stmt 1 view .LVU1273
ARM GAS  /var/folders/2p/02m_5p7958535cp2tpgps0400000gn/T//cchBTf64.s 			page 135


 814:GrannyChordApp.cpp ****   rgb1_[2]= b;
 4536              		.loc 3 814 11 is_stmt 0 view .LVU1274
 4537 005e C4F85422 		str	r2, [r4, #596]	@ float
 815:GrannyChordApp.cpp **** }
 4538              		.loc 3 815 3 is_stmt 1 view .LVU1275
 4539 0062 E0E7     		b	.L197
 4540              	.LVL331:
 4541              	.L189:
 815:GrannyChordApp.cpp **** }
 4542              		.loc 3 815 3 is_stmt 0 view .LVU1276
 4543              	.LBE679:
 4544              	.LBE678:
 837:GrannyChordApp.cpp ****       SetRgb1(0.7f,0.7f,0);  /* yellow? */
 4545              		.loc 3 837 5 is_stmt 1 view .LVU1277
 838:GrannyChordApp.cpp ****       break;
 4546              		.loc 3 838 7 view .LVU1278
 4547              	.LBB680:
 4548              	.LBI680:
 812:GrannyChordApp.cpp ****   rgb1_[0]= r;
 4549              		.loc 3 812 6 view .LVU1279
 4550              	.LBB681:
 813:GrannyChordApp.cpp ****   rgb1_[1]= g;
 4551              		.loc 3 813 3 view .LVU1280
 813:GrannyChordApp.cpp ****   rgb1_[1]= g;
 4552              		.loc 3 813 11 is_stmt 0 view .LVU1281
 4553 0064 0A4B     		ldr	r3, .L198
 4554 0066 C4F85032 		str	r3, [r4, #592]	@ float
 814:GrannyChordApp.cpp ****   rgb1_[2]= b;
 4555              		.loc 3 814 3 is_stmt 1 view .LVU1282
 814:GrannyChordApp.cpp ****   rgb1_[2]= b;
 4556              		.loc 3 814 11 is_stmt 0 view .LVU1283
 4557 006a C4F85432 		str	r3, [r4, #596]	@ float
 815:GrannyChordApp.cpp **** }
 4558              		.loc 3 815 3 is_stmt 1 view .LVU1284
 815:GrannyChordApp.cpp **** }
 4559              		.loc 3 815 11 is_stmt 0 view .LVU1285
 4560 006e 0023     		movs	r3, #0
 4561 0070 D9E7     		b	.L197
 4562              	.LVL332:
 4563              	.L187:
 815:GrannyChordApp.cpp **** }
 4564              		.loc 3 815 11 view .LVU1286
 4565              	.LBE681:
 4566              	.LBE680:
 843:GrannyChordApp.cpp ****       SetRgb1(1, 0, 0); /* red */
 4567              		.loc 3 843 5 is_stmt 1 view .LVU1287
 844:GrannyChordApp.cpp ****       pod_.led2.SetRed(1);
 4568              		.loc 3 844 7 view .LVU1288
 4569              	.LBB682:
 4570              	.LBI682:
 812:GrannyChordApp.cpp ****   rgb1_[0]= r;
 4571              		.loc 3 812 6 view .LVU1289
 4572              	.LBB683:
 813:GrannyChordApp.cpp ****   rgb1_[1]= g;
 4573              		.loc 3 813 3 view .LVU1290
 813:GrannyChordApp.cpp ****   rgb1_[1]= g;
 4574              		.loc 3 813 11 is_stmt 0 view .LVU1291
ARM GAS  /var/folders/2p/02m_5p7958535cp2tpgps0400000gn/T//cchBTf64.s 			page 136


 4575 0072 B7EE000A 		vmov.f32	s0, #1.0e+0
 814:GrannyChordApp.cpp ****   rgb1_[2]= b;
 4576              		.loc 3 814 11 view .LVU1292
 4577 0076 0023     		movs	r3, #0
 4578              	.LBE683:
 4579              	.LBE682:
 845:GrannyChordApp.cpp ****       break;
 4580              		.loc 3 845 23 view .LVU1293
 4581 0078 C069     		ldr	r0, [r0, #28]
 4582              	.LVL333:
 4583              	.LBB686:
 4584              	.LBB684:
 814:GrannyChordApp.cpp ****   rgb1_[2]= b;
 4585              		.loc 3 814 11 view .LVU1294
 4586 007a C4F85432 		str	r3, [r4, #596]	@ float
 4587              	.LBE684:
 4588              	.LBE686:
 845:GrannyChordApp.cpp ****       break;
 4589              		.loc 3 845 23 view .LVU1295
 4590 007e 00F59670 		add	r0, r0, #300
 4591              	.LBB687:
 4592              	.LBB685:
 813:GrannyChordApp.cpp ****   rgb1_[1]= g;
 4593              		.loc 3 813 11 view .LVU1296
 4594 0082 84ED940A 		vstr.32	s0, [r4, #592]
 814:GrannyChordApp.cpp ****   rgb1_[2]= b;
 4595              		.loc 3 814 3 is_stmt 1 view .LVU1297
 815:GrannyChordApp.cpp **** }
 4596              		.loc 3 815 3 view .LVU1298
 815:GrannyChordApp.cpp **** }
 4597              		.loc 3 815 11 is_stmt 0 view .LVU1299
 4598 0086 C4F85832 		str	r3, [r4, #600]	@ float
 4599              	.LVL334:
 815:GrannyChordApp.cpp **** }
 4600              		.loc 3 815 11 view .LVU1300
 4601              	.LBE685:
 4602              	.LBE687:
 845:GrannyChordApp.cpp ****       break;
 4603              		.loc 3 845 7 is_stmt 1 view .LVU1301
 845:GrannyChordApp.cpp ****       break;
 4604              		.loc 3 845 23 is_stmt 0 view .LVU1302
 4605 008a FFF7FEFF 		bl	_ZN5daisy6RgbLed6SetRedEf
 4606              	.LVL335:
 846:GrannyChordApp.cpp ****     default:
 4607              		.loc 3 846 7 is_stmt 1 view .LVU1303
 4608 008e CCE7     		b	.L186
 4609              	.L199:
 4610              		.align	2
 4611              	.L198:
 4612 0090 3333333F 		.word	1060320051
 4613              		.cfi_endproc
 4614              	.LFE4955:
 4616              		.section	.text._ZN14GrannyChordApp10SetupTimerEv,"ax",%progbits
 4617              		.align	1
 4618              		.global	_ZN14GrannyChordApp10SetupTimerEv
 4619              		.syntax unified
 4620              		.thumb
ARM GAS  /var/folders/2p/02m_5p7958535cp2tpgps0400000gn/T//cchBTf64.s 			page 137


 4621              		.thumb_func
 4623              	_ZN14GrannyChordApp10SetupTimerEv:
 4624              	.LVL336:
 4625              	.LFB4951:
 774:GrannyChordApp.cpp ****   TimerHandle::Config cfg;
 4626              		.loc 3 774 34 view -0
 4627              		.cfi_startproc
 4628              		@ args = 0, pretend = 0, frame = 16
 4629              		@ frame_needed = 0, uses_anonymous_args = 0
 775:GrannyChordApp.cpp ****   cfg.periph = TimerHandle::Config::Peripheral::TIM_5;
 4630              		.loc 3 775 3 view .LVU1305
 774:GrannyChordApp.cpp ****   TimerHandle::Config cfg;
 4631              		.loc 3 774 34 is_stmt 0 view .LVU1306
 4632 0000 7FB5     		push	{r0, r1, r2, r3, r4, r5, r6, lr}
 4633              		.cfi_def_cfa_offset 32
 4634              		.cfi_offset 4, -16
 4635              		.cfi_offset 5, -12
 4636              		.cfi_offset 6, -8
 4637              		.cfi_offset 14, -4
 4638              	.LVL337:
 4639              	.LBB688:
 4640              	.LBI688:
 4641              		.file 17 "../libDaisy/src/per/tim.h"
   1:../libDaisy/src/per/tim.h **** #pragma once
   2:../libDaisy/src/per/tim.h **** #ifndef DSY_TIM_H
   3:../libDaisy/src/per/tim.h **** #define DSY_TIM_H
   4:../libDaisy/src/per/tim.h **** 
   5:../libDaisy/src/per/tim.h **** #include <cstdint>
   6:../libDaisy/src/per/tim.h **** 
   7:../libDaisy/src/per/tim.h **** namespace daisy
   8:../libDaisy/src/per/tim.h **** {
   9:../libDaisy/src/per/tim.h **** /** @brief Hardare timer peripheral support.
  10:../libDaisy/src/per/tim.h ****  ** 
  11:../libDaisy/src/per/tim.h ****  ** Supports general-function TIM peripherals:
  12:../libDaisy/src/per/tim.h ****  ** - TIM2, TIM3, TIM4, TIM5
  13:../libDaisy/src/per/tim.h ****  **
  14:../libDaisy/src/per/tim.h ****  ** DaisySeed, and many internal peripherals utilize TIM2 for timing/delay purposes.
  15:../libDaisy/src/per/tim.h ****  ** It is configured to be at the maximum frequency: typically 200MHz or 240MHz (boost) 
  16:../libDaisy/src/per/tim.h ****  ** for measuring/delaying for very short periods. 
  17:../libDaisy/src/per/tim.h ****  **
  18:../libDaisy/src/per/tim.h ****  ** The GetUs/GetMs functions are available for convenience (and backwards compatibility),
  19:../libDaisy/src/per/tim.h ****  ** but to avoid wrapping errors on math when doing time-delta calculations, using ticks is 
  20:../libDaisy/src/per/tim.h ****  ** recommended. The data can be converted to the final time-base after getting the difference in t
  21:../libDaisy/src/per/tim.h ****  ** (Using GetFreq() can be used for these time-base calculations).
  22:../libDaisy/src/per/tim.h ****  **
  23:../libDaisy/src/per/tim.h ****  ** User callbacks can be set, and changed at any point during operation. However,
  24:../libDaisy/src/per/tim.h ****  ** the Config::enable_irq must be set to true when initializing for the interrupts
  25:../libDaisy/src/per/tim.h ****  ** to turn on and function.
  26:../libDaisy/src/per/tim.h ****  **
  27:../libDaisy/src/per/tim.h ****  ** @todo Fix issues with realtime getters, and wrapping of the timer(s).
  28:../libDaisy/src/per/tim.h ****  **     - This very noticeable with default settings for the 16-bit counters.
  29:../libDaisy/src/per/tim.h ****  ** @todo Other General purpose timers
  30:../libDaisy/src/per/tim.h ****  ** @todo Non-internal clock sources
  31:../libDaisy/src/per/tim.h ****  ** @todo Use of the four-tim channels per tim
  32:../libDaisy/src/per/tim.h ****  **     - PWM, etc.
  33:../libDaisy/src/per/tim.h ****  **     - InputCapture/OutputCompare, etc.
  34:../libDaisy/src/per/tim.h ****  ** @todo HRTIM
ARM GAS  /var/folders/2p/02m_5p7958535cp2tpgps0400000gn/T//cchBTf64.s 			page 138


  35:../libDaisy/src/per/tim.h ****  ** @todo Advanced timers (TIM1/TIM8)
  36:../libDaisy/src/per/tim.h ****  ** */
  37:../libDaisy/src/per/tim.h **** class TimerHandle
  38:../libDaisy/src/per/tim.h **** {
  39:../libDaisy/src/per/tim.h ****   public:
  40:../libDaisy/src/per/tim.h ****     /** @brief Configuration struct for the Peripheral
  41:../libDaisy/src/per/tim.h ****      *  @note These settings are used during initialization
  42:../libDaisy/src/per/tim.h ****      *   and changing them afterwards may not have the desired effect.
  43:../libDaisy/src/per/tim.h ****      */
  44:../libDaisy/src/per/tim.h ****     struct Config
  45:../libDaisy/src/per/tim.h ****     {
  46:../libDaisy/src/per/tim.h ****         /** @brief Hardware Timer to configure, and use. */
  47:../libDaisy/src/per/tim.h ****         enum class Peripheral
  48:../libDaisy/src/per/tim.h ****         {
  49:../libDaisy/src/per/tim.h ****             TIM_2 = 0, /**< 32-bit counter */
  50:../libDaisy/src/per/tim.h ****             TIM_3,     /**< 16-bit counter */
  51:../libDaisy/src/per/tim.h ****             TIM_4,     /**< 16-bit counter */
  52:../libDaisy/src/per/tim.h ****             TIM_5,     /**< 32-bit counter*/
  53:../libDaisy/src/per/tim.h ****         };
  54:../libDaisy/src/per/tim.h **** 
  55:../libDaisy/src/per/tim.h ****         /** @brief Direction of the auto-reload counter. 
  56:../libDaisy/src/per/tim.h ****          ** @todo Add support for the various  
  57:../libDaisy/src/per/tim.h ****          ** versions of Up/Down counters.
  58:../libDaisy/src/per/tim.h ****          ** */
  59:../libDaisy/src/per/tim.h ****         enum class CounterDir
  60:../libDaisy/src/per/tim.h ****         {
  61:../libDaisy/src/per/tim.h ****             UP = 0,
  62:../libDaisy/src/per/tim.h ****             DOWN,
  63:../libDaisy/src/per/tim.h ****         };
  64:../libDaisy/src/per/tim.h **** 
  65:../libDaisy/src/per/tim.h ****         Peripheral periph; /**< Hardware Peripheral */
  66:../libDaisy/src/per/tim.h ****         CounterDir dir;    /**< Counter direction */
  67:../libDaisy/src/per/tim.h **** 
  68:../libDaisy/src/per/tim.h ****         /** @brief period in ticks at TIM frequency that counter will reset based on dir
  69:../libDaisy/src/per/tim.h ****          *  @note TIM3 and TIM4 are both 16-bit timers. So the period maximum is 0xffff.
  70:../libDaisy/src/per/tim.h ****         */
  71:../libDaisy/src/per/tim.h ****         uint32_t period;
  72:../libDaisy/src/per/tim.h ****         bool     enable_irq; /**< Enable interrupt for user based callback */
  73:../libDaisy/src/per/tim.h **** 
  74:../libDaisy/src/per/tim.h ****         /* @brief Constructor for default states */
  75:../libDaisy/src/per/tim.h ****         Config()
 4642              		.loc 17 75 9 is_stmt 1 view .LVU1307
 4643              	.LBE688:
 776:GrannyChordApp.cpp ****   cfg.period = 4000;
 4644              		.loc 3 776 14 is_stmt 0 view .LVU1308
 4645 0002 0026     		movs	r6, #0
 4646 0004 0323     		movs	r3, #3
 779:GrannyChordApp.cpp ****   timer_.SetPrescaler(9999);
 4647              		.loc 3 779 14 view .LVU1309
 4648 0006 00F55244 		add	r4, r0, #53760
 774:GrannyChordApp.cpp ****   TimerHandle::Config cfg;
 4649              		.loc 3 774 34 view .LVU1310
 4650 000a 0546     		mov	r5, r0
 779:GrannyChordApp.cpp ****   timer_.SetPrescaler(9999);
 4651              		.loc 3 779 14 view .LVU1311
 4652 000c 6946     		mov	r1, sp
 4653 000e 4C34     		adds	r4, r4, #76
ARM GAS  /var/folders/2p/02m_5p7958535cp2tpgps0400000gn/T//cchBTf64.s 			page 139


 776:GrannyChordApp.cpp ****   cfg.period = 4000;
 4654              		.loc 3 776 14 view .LVU1312
 4655 0010 CDE90036 		strd	r3, r6, [sp]
 777:GrannyChordApp.cpp ****   cfg.enable_irq = true;
 4656              		.loc 3 777 3 is_stmt 1 view .LVU1313
 777:GrannyChordApp.cpp ****   cfg.enable_irq = true;
 4657              		.loc 3 777 14 is_stmt 0 view .LVU1314
 4658 0014 4FF47A63 		mov	r3, #4000
 779:GrannyChordApp.cpp ****   timer_.SetPrescaler(9999);
 4659              		.loc 3 779 14 view .LVU1315
 4660 0018 2046     		mov	r0, r4
 4661              	.LVL338:
 777:GrannyChordApp.cpp ****   cfg.enable_irq = true;
 4662              		.loc 3 777 14 view .LVU1316
 4663 001a 0293     		str	r3, [sp, #8]
 778:GrannyChordApp.cpp ****   timer_.Init(cfg);
 4664              		.loc 3 778 3 is_stmt 1 view .LVU1317
 778:GrannyChordApp.cpp ****   timer_.Init(cfg);
 4665              		.loc 3 778 18 is_stmt 0 view .LVU1318
 4666 001c 0123     		movs	r3, #1
 4667 001e 8DF80C30 		strb	r3, [sp, #12]
 779:GrannyChordApp.cpp ****   timer_.SetPrescaler(9999);
 4668              		.loc 3 779 3 is_stmt 1 view .LVU1319
 779:GrannyChordApp.cpp ****   timer_.SetPrescaler(9999);
 4669              		.loc 3 779 14 is_stmt 0 view .LVU1320
 4670 0022 FFF7FEFF 		bl	_ZN5daisy11TimerHandle4InitERKNS0_6ConfigE
 4671              	.LVL339:
 780:GrannyChordApp.cpp ****   timer_.SetCallback(StaticLedCallback, nullptr);
 4672              		.loc 3 780 3 is_stmt 1 view .LVU1321
 780:GrannyChordApp.cpp ****   timer_.SetCallback(StaticLedCallback, nullptr);
 4673              		.loc 3 780 22 is_stmt 0 view .LVU1322
 4674 0026 42F20F71 		movw	r1, #9999
 4675 002a 2046     		mov	r0, r4
 4676 002c FFF7FEFF 		bl	_ZN5daisy11TimerHandle12SetPrescalerEm
 4677              	.LVL340:
 781:GrannyChordApp.cpp ****   SetLed1AppState();
 4678              		.loc 3 781 3 is_stmt 1 view .LVU1323
 781:GrannyChordApp.cpp ****   SetLed1AppState();
 4679              		.loc 3 781 21 is_stmt 0 view .LVU1324
 4680 0030 3246     		mov	r2, r6
 4681 0032 0649     		ldr	r1, .L201
 4682 0034 2046     		mov	r0, r4
 4683 0036 FFF7FEFF 		bl	_ZN5daisy11TimerHandle11SetCallbackEPFvPvES1_
 4684              	.LVL341:
 782:GrannyChordApp.cpp ****   timer_.Start();
 4685              		.loc 3 782 3 is_stmt 1 view .LVU1325
 782:GrannyChordApp.cpp ****   timer_.Start();
 4686              		.loc 3 782 18 is_stmt 0 view .LVU1326
 4687 003a 2846     		mov	r0, r5
 4688 003c FFF7FEFF 		bl	_ZN14GrannyChordApp15SetLed1AppStateEv
 4689              	.LVL342:
 783:GrannyChordApp.cpp **** }
 4690              		.loc 3 783 3 is_stmt 1 view .LVU1327
 783:GrannyChordApp.cpp **** }
 4691              		.loc 3 783 15 is_stmt 0 view .LVU1328
 4692 0040 2046     		mov	r0, r4
 4693 0042 FFF7FEFF 		bl	_ZN5daisy11TimerHandle5StartEv
ARM GAS  /var/folders/2p/02m_5p7958535cp2tpgps0400000gn/T//cchBTf64.s 			page 140


 4694              	.LVL343:
 784:GrannyChordApp.cpp **** 
 4695              		.loc 3 784 1 view .LVU1329
 4696 0046 04B0     		add	sp, sp, #16
 4697              		.cfi_def_cfa_offset 16
 4698              	.LVL344:
 784:GrannyChordApp.cpp **** 
 4699              		.loc 3 784 1 view .LVU1330
 4700              		@ sp needed
 4701 0048 70BD     		pop	{r4, r5, r6, pc}
 4702              	.LVL345:
 4703              	.L202:
 784:GrannyChordApp.cpp **** 
 4704              		.loc 3 784 1 view .LVU1331
 4705 004a 00BF     		.align	2
 4706              	.L201:
 4707 004c 00000000 		.word	_ZN14GrannyChordApp17StaticLedCallbackEPv
 4708              		.cfi_endproc
 4709              	.LFE4951:
 4711              		.section	.rodata._ZN14GrannyChordApp17HandleStateChangeEv.str1.1,"aMS",%progbits,1
 4712              	.LC31:
 4713 0000 73746F70 		.ascii	"stopped audio for select file\000"
 4713      70656420 
 4713      61756469 
 4713      6F20666F 
 4713      72207365 
 4714              	.LC32:
 4715 001e 5265636F 		.ascii	"Recording in\000"
 4715      7264696E 
 4715      6720696E 
 4715      00
 4716              	.LC33:
 4717 002b 73746172 		.ascii	"started audiocallback\000"
 4717      74656420 
 4717      61756469 
 4717      6F63616C 
 4717      6C626163 
 4718              		.section	.text._ZN14GrannyChordApp17HandleStateChangeEv,"ax",%progbits
 4719              		.align	1
 4720              		.global	_ZN14GrannyChordApp17HandleStateChangeEv
 4721              		.syntax unified
 4722              		.thumb
 4723              		.thumb_func
 4725              	_ZN14GrannyChordApp17HandleStateChangeEv:
 4726              	.LVL346:
 4727              	.LFB4916:
 103:GrannyChordApp.cpp ****   switch(next_state_){
 4728              		.loc 3 103 41 is_stmt 1 view -0
 4729              		.cfi_startproc
 4730              		@ args = 0, pretend = 0, frame = 0
 4731              		@ frame_needed = 0, uses_anonymous_args = 0
 104:GrannyChordApp.cpp ****     case AppState::SelectFile:
 4732              		.loc 3 104 3 view .LVU1333
 4733 0000 D0F87C32 		ldr	r3, [r0, #636]
 103:GrannyChordApp.cpp ****   switch(next_state_){
 4734              		.loc 3 103 41 is_stmt 0 view .LVU1334
 4735 0004 10B5     		push	{r4, lr}
ARM GAS  /var/folders/2p/02m_5p7958535cp2tpgps0400000gn/T//cchBTf64.s 			page 141


 4736              		.cfi_def_cfa_offset 8
 4737              		.cfi_offset 4, -8
 4738              		.cfi_offset 14, -4
 103:GrannyChordApp.cpp ****   switch(next_state_){
 4739              		.loc 3 103 41 view .LVU1335
 4740 0006 0446     		mov	r4, r0
 104:GrannyChordApp.cpp ****     case AppState::SelectFile:
 4741              		.loc 3 104 3 view .LVU1336
 4742 0008 052B     		cmp	r3, #5
 4743 000a 21D8     		bhi	.L204
 4744 000c DFE803F0 		tbb	[pc, r3]
 4745              	.L206:
 4746 0010 03       		.byte	(.L210-.L206)/2
 4747 0011 14       		.byte	(.L209-.L206)/2
 4748 0012 18       		.byte	(.L208-.L206)/2
 4749 0013 0D       		.byte	(.L207-.L206)/2
 4750 0014 20       		.byte	(.L204-.L206)/2
 4751 0015 25       		.byte	(.L205-.L206)/2
 4752              		.p2align 1
 4753              	.L210:
 105:GrannyChordApp.cpp ****       pod_.StopAudio();
 4754              		.loc 3 105 5 is_stmt 1 view .LVU1337
 106:GrannyChordApp.cpp ****       DebugPrint(pod_, "stopped audio for select file");
 4755              		.loc 3 106 7 view .LVU1338
 106:GrannyChordApp.cpp ****       DebugPrint(pod_, "stopped audio for select file");
 4756              		.loc 3 106 21 is_stmt 0 view .LVU1339
 4757 0016 C069     		ldr	r0, [r0, #28]
 4758              	.LVL347:
 106:GrannyChordApp.cpp ****       DebugPrint(pod_, "stopped audio for select file");
 4759              		.loc 3 106 21 view .LVU1340
 4760 0018 FFF7FEFF 		bl	_ZN5daisy8DaisyPod9StopAudioEv
 4761              	.LVL348:
 107:GrannyChordApp.cpp ****       curr_state_ = AppState::SelectFile;
 4762              		.loc 3 107 7 is_stmt 1 view .LVU1341
 107:GrannyChordApp.cpp ****       curr_state_ = AppState::SelectFile;
 4763              		.loc 3 107 7 view .LVU1342
 4764              	.LBB689:
 4765              	.LBI689:
 126:../libDaisy/src/daisy_seed.h ****     {
 4766              		.loc 5 126 17 view .LVU1343
 4767              	.LBB690:
 4768              		.loc 5 128 23 is_stmt 0 view .LVU1344
 4769 001c 1048     		ldr	r0, .L212
 4770 001e FFF7FEFF 		bl	_ZN5daisy6LoggerILNS_17LoggerDestinationE1EE9PrintLineEPKcz
 4771              	.LVL349:
 4772              		.loc 5 128 23 view .LVU1345
 4773              	.LBE690:
 4774              	.LBE689:
 108:GrannyChordApp.cpp ****       break; 
 4775              		.loc 3 108 7 is_stmt 1 view .LVU1346
 108:GrannyChordApp.cpp ****       break; 
 4776              		.loc 3 108 19 is_stmt 0 view .LVU1347
 4777 0022 0023     		movs	r3, #0
 4778              	.L211:
 125:GrannyChordApp.cpp ****       break;
 4779              		.loc 3 125 19 view .LVU1348
 4780 0024 C4F87832 		str	r3, [r4, #632]
ARM GAS  /var/folders/2p/02m_5p7958535cp2tpgps0400000gn/T//cchBTf64.s 			page 142


 126:GrannyChordApp.cpp ****     default: 
 4781              		.loc 3 126 7 is_stmt 1 view .LVU1349
 4782 0028 12E0     		b	.L204
 4783              	.LVL350:
 4784              	.L207:
 110:GrannyChordApp.cpp ****       InitRecordIn();
 4785              		.loc 3 110 5 view .LVU1350
 111:GrannyChordApp.cpp ****       DebugPrint(pod_, "Recording in");
 4786              		.loc 3 111 7 view .LVU1351
 111:GrannyChordApp.cpp ****       DebugPrint(pod_, "Recording in");
 4787              		.loc 3 111 19 is_stmt 0 view .LVU1352
 4788 002a FFF7FEFF 		bl	_ZN14GrannyChordApp12InitRecordInEv
 4789              	.LVL351:
 112:GrannyChordApp.cpp ****       curr_state_ = AppState::RecordIn;  
 4790              		.loc 3 112 7 is_stmt 1 view .LVU1353
 112:GrannyChordApp.cpp ****       curr_state_ = AppState::RecordIn;  
 4791              		.loc 3 112 7 view .LVU1354
 4792              	.LBB691:
 4793              	.LBI691:
 126:../libDaisy/src/daisy_seed.h ****     {
 4794              		.loc 5 126 17 view .LVU1355
 4795              	.LBB692:
 4796              		.loc 5 128 23 is_stmt 0 view .LVU1356
 4797 002e 0D48     		ldr	r0, .L212+4
 4798 0030 FFF7FEFF 		bl	_ZN5daisy6LoggerILNS_17LoggerDestinationE1EE9PrintLineEPKcz
 4799              	.LVL352:
 4800              		.loc 5 128 23 view .LVU1357
 4801              	.LBE692:
 4802              	.LBE691:
 113:GrannyChordApp.cpp ****       break;
 4803              		.loc 3 113 7 is_stmt 1 view .LVU1358
 113:GrannyChordApp.cpp ****       break;
 4804              		.loc 3 113 19 is_stmt 0 view .LVU1359
 4805 0034 0323     		movs	r3, #3
 4806 0036 F5E7     		b	.L211
 4807              	.LVL353:
 4808              	.L209:
 115:GrannyChordApp.cpp ****       InitPlayback(); 
 4809              		.loc 3 115 5 is_stmt 1 view .LVU1360
 116:GrannyChordApp.cpp ****       curr_state_ = AppState::PlayWAV;
 4810              		.loc 3 116 7 view .LVU1361
 116:GrannyChordApp.cpp ****       curr_state_ = AppState::PlayWAV;
 4811              		.loc 3 116 19 is_stmt 0 view .LVU1362
 4812 0038 FFF7FEFF 		bl	_ZN14GrannyChordApp12InitPlaybackEv
 4813              	.LVL354:
 117:GrannyChordApp.cpp ****       break;
 4814              		.loc 3 117 7 is_stmt 1 view .LVU1363
 117:GrannyChordApp.cpp ****       break;
 4815              		.loc 3 117 19 is_stmt 0 view .LVU1364
 4816 003c 0123     		movs	r3, #1
 4817 003e F1E7     		b	.L211
 4818              	.LVL355:
 4819              	.L208:
 119:GrannyChordApp.cpp ****       InitSynth();
 4820              		.loc 3 119 5 is_stmt 1 view .LVU1365
 120:GrannyChordApp.cpp ****       curr_state_ = AppState::Synthesis;
 4821              		.loc 3 120 7 view .LVU1366
ARM GAS  /var/folders/2p/02m_5p7958535cp2tpgps0400000gn/T//cchBTf64.s 			page 143


 120:GrannyChordApp.cpp ****       curr_state_ = AppState::Synthesis;
 4822              		.loc 3 120 16 is_stmt 0 view .LVU1367
 4823 0040 FFF7FEFF 		bl	_ZN14GrannyChordApp9InitSynthEv
 4824              	.LVL356:
 121:GrannyChordApp.cpp ****       DebugPrint(pod_, "started audiocallback");
 4825              		.loc 3 121 7 is_stmt 1 view .LVU1368
 121:GrannyChordApp.cpp ****       DebugPrint(pod_, "started audiocallback");
 4826              		.loc 3 121 19 is_stmt 0 view .LVU1369
 4827 0044 0223     		movs	r3, #2
 4828              	.LBB693:
 4829              	.LBB694:
 4830              		.loc 5 128 23 view .LVU1370
 4831 0046 0848     		ldr	r0, .L212+8
 4832              	.LBE694:
 4833              	.LBE693:
 121:GrannyChordApp.cpp ****       DebugPrint(pod_, "started audiocallback");
 4834              		.loc 3 121 19 view .LVU1371
 4835 0048 C4F87832 		str	r3, [r4, #632]
 122:GrannyChordApp.cpp ****       break;
 4836              		.loc 3 122 7 is_stmt 1 view .LVU1372
 122:GrannyChordApp.cpp ****       break;
 4837              		.loc 3 122 7 view .LVU1373
 4838              	.LVL357:
 4839              	.LBB696:
 4840              	.LBI693:
 126:../libDaisy/src/daisy_seed.h ****     {
 4841              		.loc 5 126 17 view .LVU1374
 4842              	.LBB695:
 4843              		.loc 5 128 23 is_stmt 0 view .LVU1375
 4844 004c FFF7FEFF 		bl	_ZN5daisy6LoggerILNS_17LoggerDestinationE1EE9PrintLineEPKcz
 4845              	.LVL358:
 4846              	.L204:
 4847              		.loc 5 128 23 view .LVU1376
 4848              	.LBE695:
 4849              	.LBE696:
 130:GrannyChordApp.cpp **** }
 4850              		.loc 3 130 3 is_stmt 1 view .LVU1377
 130:GrannyChordApp.cpp **** }
 4851              		.loc 3 130 18 is_stmt 0 view .LVU1378
 4852 0050 2046     		mov	r0, r4
 131:GrannyChordApp.cpp **** 
 4853              		.loc 3 131 1 view .LVU1379
 4854 0052 BDE81040 		pop	{r4, lr}
 4855              		.cfi_remember_state
 4856              		.cfi_restore 14
 4857              		.cfi_restore 4
 4858              		.cfi_def_cfa_offset 0
 4859              	.LVL359:
 130:GrannyChordApp.cpp **** }
 4860              		.loc 3 130 18 view .LVU1380
 4861 0056 FFF7FEBF 		b	_ZN14GrannyChordApp15SetLed1AppStateEv
 4862              	.LVL360:
 4863              	.L205:
 4864              		.cfi_restore_state
 124:GrannyChordApp.cpp ****       curr_state_ = AppState::Error;
 4865              		.loc 3 124 5 is_stmt 1 view .LVU1381
 125:GrannyChordApp.cpp ****       break;
ARM GAS  /var/folders/2p/02m_5p7958535cp2tpgps0400000gn/T//cchBTf64.s 			page 144


 4866              		.loc 3 125 7 view .LVU1382
 125:GrannyChordApp.cpp ****       break;
 4867              		.loc 3 125 19 is_stmt 0 view .LVU1383
 4868 005a 0523     		movs	r3, #5
 4869 005c E2E7     		b	.L211
 4870              	.L213:
 4871 005e 00BF     		.align	2
 4872              	.L212:
 4873 0060 00000000 		.word	.LC31
 4874 0064 1E000000 		.word	.LC32
 4875 0068 2B000000 		.word	.LC33
 4876              		.cfi_endproc
 4877              	.LFE4916:
 4879              		.section	.text._ZN14GrannyChordApp16SetLed1SynthModeEv,"ax",%progbits
 4880              		.align	1
 4881              		.global	_ZN14GrannyChordApp16SetLed1SynthModeEv
 4882              		.syntax unified
 4883              		.thumb
 4884              		.thumb_func
 4886              	_ZN14GrannyChordApp16SetLed1SynthModeEv:
 4887              	.LVL361:
 4888              	.LFB4956:
 853:GrannyChordApp.cpp **** 
 854:GrannyChordApp.cpp **** /// @brief sets led 1 colours based on synth mode (regular param controls)
 855:GrannyChordApp.cpp **** void GrannyChordApp::SetLed1SynthMode(){
 4889              		.loc 3 855 40 is_stmt 1 view -0
 4890              		.cfi_startproc
 4891              		@ args = 0, pretend = 0, frame = 0
 4892              		@ frame_needed = 0, uses_anonymous_args = 0
 4893              		@ link register save eliminated.
 856:GrannyChordApp.cpp ****   if (curr_state_ == AppState::Synthesis){
 4894              		.loc 3 856 3 view .LVU1385
 4895 0000 D0F87832 		ldr	r3, [r0, #632]
 4896 0004 022B     		cmp	r3, #2
 4897 0006 00F55043 		add	r3, r0, #53248
 4898 000a 11D1     		bne	.L215
 857:GrannyChordApp.cpp ****     switch(curr_synth_mode_){
 4899              		.loc 3 857 5 view .LVU1386
 4900 000c D0F88022 		ldr	r2, [r0, #640]
 4901 0010 062A     		cmp	r2, #6
 4902 0012 0DD8     		bhi	.L215
 4903 0014 DFE802F0 		tbb	[pc, r2]
 4904              	.L217:
 4905 0018 04       		.byte	(.L220-.L217)/2
 4906 0019 0C       		.byte	(.L215-.L217)/2
 4907 001a 10       		.byte	(.L219-.L217)/2
 4908 001b 0C       		.byte	(.L215-.L217)/2
 4909 001c 18       		.byte	(.L218-.L217)/2
 4910 001d 0C       		.byte	(.L215-.L217)/2
 4911 001e 1F       		.byte	(.L216-.L217)/2
 4912 001f 00       		.p2align 1
 4913              	.L220:
 858:GrannyChordApp.cpp ****       case SynthMode::Size_Position:
 4914              		.loc 3 858 7 view .LVU1387
 859:GrannyChordApp.cpp ****         SetRgb1(0, 0.7f, 0); /* green */
 4915              		.loc 3 859 9 view .LVU1388
 4916              	.LVL362:
ARM GAS  /var/folders/2p/02m_5p7958535cp2tpgps0400000gn/T//cchBTf64.s 			page 145


 4917              	.LBB697:
 4918              	.LBI697:
 812:GrannyChordApp.cpp ****   rgb1_[0]= r;
 4919              		.loc 3 812 6 view .LVU1389
 4920              	.LBB698:
 813:GrannyChordApp.cpp ****   rgb1_[1]= g;
 4921              		.loc 3 813 3 view .LVU1390
 813:GrannyChordApp.cpp ****   rgb1_[1]= g;
 4922              		.loc 3 813 11 is_stmt 0 view .LVU1391
 4923 0020 0022     		movs	r2, #0
 814:GrannyChordApp.cpp ****   rgb1_[2]= b;
 4924              		.loc 3 814 11 view .LVU1392
 4925 0022 1149     		ldr	r1, .L222
 813:GrannyChordApp.cpp ****   rgb1_[1]= g;
 4926              		.loc 3 813 11 view .LVU1393
 4927 0024 C3F85022 		str	r2, [r3, #592]	@ float
 814:GrannyChordApp.cpp ****   rgb1_[2]= b;
 4928              		.loc 3 814 3 is_stmt 1 view .LVU1394
 814:GrannyChordApp.cpp ****   rgb1_[2]= b;
 4929              		.loc 3 814 11 is_stmt 0 view .LVU1395
 4930 0028 C3F85412 		str	r1, [r3, #596]	@ float
 815:GrannyChordApp.cpp **** }
 4931              		.loc 3 815 3 is_stmt 1 view .LVU1396
 4932              	.LVL363:
 4933              	.L221:
 815:GrannyChordApp.cpp **** }
 4934              		.loc 3 815 3 is_stmt 0 view .LVU1397
 4935              	.LBE698:
 4936              	.LBE697:
 4937              	.LBB699:
 4938              	.LBB700:
 815:GrannyChordApp.cpp **** }
 4939              		.loc 3 815 11 view .LVU1398
 4940 002c C3F85822 		str	r2, [r3, #600]	@ float
 4941              	.L215:
 4942              	.LBE700:
 4943              	.LBE699:
 860:GrannyChordApp.cpp ****         break;
 861:GrannyChordApp.cpp ****       case SynthMode::Pitch_ActiveGrains:
 862:GrannyChordApp.cpp ****         SetRgb1(0.9f, 0.6f, 0); /* orange */
 863:GrannyChordApp.cpp ****         break;
 864:GrannyChordApp.cpp ****       case SynthMode::Pan_Direction:
 865:GrannyChordApp.cpp ****         SetRgb1(0,0.7f,0.7f); /* cyan */
 866:GrannyChordApp.cpp ****         break;
 867:GrannyChordApp.cpp ****       case SynthMode::Reverb:
 868:GrannyChordApp.cpp ****         SetRgb1(0.8f, 0, 0.7f); /* pink */
 869:GrannyChordApp.cpp ****         break;
 870:GrannyChordApp.cpp ****       default:
 871:GrannyChordApp.cpp ****         break;
 872:GrannyChordApp.cpp ****     }
 873:GrannyChordApp.cpp ****   }
 874:GrannyChordApp.cpp ****   led2_flash_count_=0;
 4944              		.loc 3 874 3 is_stmt 1 view .LVU1399
 4945              		.loc 3 874 20 is_stmt 0 view .LVU1400
 4946 0030 0022     		movs	r2, #0
 4947 0032 C3F86C22 		str	r2, [r3, #620]
 875:GrannyChordApp.cpp **** }
ARM GAS  /var/folders/2p/02m_5p7958535cp2tpgps0400000gn/T//cchBTf64.s 			page 146


 4948              		.loc 3 875 1 view .LVU1401
 4949 0036 7047     		bx	lr
 4950              	.L219:
 861:GrannyChordApp.cpp ****         SetRgb1(0.9f, 0.6f, 0); /* orange */
 4951              		.loc 3 861 7 is_stmt 1 view .LVU1402
 862:GrannyChordApp.cpp ****         break;
 4952              		.loc 3 862 9 view .LVU1403
 4953              	.LVL364:
 4954              	.LBB702:
 4955              	.LBI702:
 812:GrannyChordApp.cpp ****   rgb1_[0]= r;
 4956              		.loc 3 812 6 view .LVU1404
 4957              	.LBB703:
 813:GrannyChordApp.cpp ****   rgb1_[1]= g;
 4958              		.loc 3 813 3 view .LVU1405
 813:GrannyChordApp.cpp ****   rgb1_[1]= g;
 4959              		.loc 3 813 11 is_stmt 0 view .LVU1406
 4960 0038 0C4A     		ldr	r2, .L222+4
 4961 003a C3F85022 		str	r2, [r3, #592]	@ float
 814:GrannyChordApp.cpp ****   rgb1_[2]= b;
 4962              		.loc 3 814 3 is_stmt 1 view .LVU1407
 814:GrannyChordApp.cpp ****   rgb1_[2]= b;
 4963              		.loc 3 814 11 is_stmt 0 view .LVU1408
 4964 003e 0C4A     		ldr	r2, .L222+8
 4965 0040 C3F85422 		str	r2, [r3, #596]	@ float
 815:GrannyChordApp.cpp **** }
 4966              		.loc 3 815 3 is_stmt 1 view .LVU1409
 815:GrannyChordApp.cpp **** }
 4967              		.loc 3 815 11 is_stmt 0 view .LVU1410
 4968 0044 0022     		movs	r2, #0
 4969 0046 F1E7     		b	.L221
 4970              	.LVL365:
 4971              	.L218:
 815:GrannyChordApp.cpp **** }
 4972              		.loc 3 815 11 view .LVU1411
 4973              	.LBE703:
 4974              	.LBE702:
 864:GrannyChordApp.cpp ****         SetRgb1(0,0.7f,0.7f); /* cyan */
 4975              		.loc 3 864 7 is_stmt 1 view .LVU1412
 865:GrannyChordApp.cpp ****         break;
 4976              		.loc 3 865 9 view .LVU1413
 4977              	.LBB704:
 4978              	.LBI704:
 812:GrannyChordApp.cpp ****   rgb1_[0]= r;
 4979              		.loc 3 812 6 view .LVU1414
 4980              	.LBB705:
 813:GrannyChordApp.cpp ****   rgb1_[1]= g;
 4981              		.loc 3 813 3 view .LVU1415
 813:GrannyChordApp.cpp ****   rgb1_[1]= g;
 4982              		.loc 3 813 11 is_stmt 0 view .LVU1416
 4983 0048 0022     		movs	r2, #0
 4984 004a C3F85022 		str	r2, [r3, #592]	@ float
 814:GrannyChordApp.cpp ****   rgb1_[2]= b;
 4985              		.loc 3 814 3 is_stmt 1 view .LVU1417
 814:GrannyChordApp.cpp ****   rgb1_[2]= b;
 4986              		.loc 3 814 11 is_stmt 0 view .LVU1418
 4987 004e 064A     		ldr	r2, .L222
ARM GAS  /var/folders/2p/02m_5p7958535cp2tpgps0400000gn/T//cchBTf64.s 			page 147


 4988 0050 C3F85422 		str	r2, [r3, #596]	@ float
 815:GrannyChordApp.cpp **** }
 4989              		.loc 3 815 3 is_stmt 1 view .LVU1419
 4990 0054 EAE7     		b	.L221
 4991              	.LVL366:
 4992              	.L216:
 815:GrannyChordApp.cpp **** }
 4993              		.loc 3 815 3 is_stmt 0 view .LVU1420
 4994              	.LBE705:
 4995              	.LBE704:
 867:GrannyChordApp.cpp ****         SetRgb1(0.8f, 0, 0.7f); /* pink */
 4996              		.loc 3 867 7 is_stmt 1 view .LVU1421
 868:GrannyChordApp.cpp ****         break;
 4997              		.loc 3 868 9 view .LVU1422
 4998              	.LBB706:
 4999              	.LBI699:
 812:GrannyChordApp.cpp ****   rgb1_[0]= r;
 5000              		.loc 3 812 6 view .LVU1423
 5001              	.LBB701:
 813:GrannyChordApp.cpp ****   rgb1_[1]= g;
 5002              		.loc 3 813 3 view .LVU1424
 813:GrannyChordApp.cpp ****   rgb1_[1]= g;
 5003              		.loc 3 813 11 is_stmt 0 view .LVU1425
 5004 0056 074A     		ldr	r2, .L222+12
 5005 0058 C3F85022 		str	r2, [r3, #592]	@ float
 814:GrannyChordApp.cpp ****   rgb1_[2]= b;
 5006              		.loc 3 814 3 is_stmt 1 view .LVU1426
 814:GrannyChordApp.cpp ****   rgb1_[2]= b;
 5007              		.loc 3 814 11 is_stmt 0 view .LVU1427
 5008 005c 0022     		movs	r2, #0
 5009 005e C3F85422 		str	r2, [r3, #596]	@ float
 815:GrannyChordApp.cpp **** }
 5010              		.loc 3 815 3 is_stmt 1 view .LVU1428
 815:GrannyChordApp.cpp **** }
 5011              		.loc 3 815 11 is_stmt 0 view .LVU1429
 5012 0062 014A     		ldr	r2, .L222
 5013 0064 E2E7     		b	.L221
 5014              	.L223:
 5015 0066 00BF     		.align	2
 5016              	.L222:
 5017 0068 3333333F 		.word	1060320051
 5018 006c 6666663F 		.word	1063675494
 5019 0070 9A99193F 		.word	1058642330
 5020 0074 CDCC4C3F 		.word	1061997773
 5021              	.LBE701:
 5022              	.LBE706:
 5023              		.cfi_endproc
 5024              	.LFE4956:
 5026              		.section	.text._ZN14GrannyChordApp7SetLed2Ev,"ax",%progbits
 5027              		.align	1
 5028              		.global	_ZN14GrannyChordApp7SetLed2Ev
 5029              		.syntax unified
 5030              		.thumb
 5031              		.thumb_func
 5033              	_ZN14GrannyChordApp7SetLed2Ev:
 5034              	.LVL367:
 5035              	.LFB4957:
ARM GAS  /var/folders/2p/02m_5p7958535cp2tpgps0400000gn/T//cchBTf64.s 			page 148


 876:GrannyChordApp.cpp ****         // SetRgb2(0.9f,0.9f,0); /* yellow */
 877:GrannyChordApp.cpp **** 
 878:GrannyChordApp.cpp **** /// @brief sets led 2 colours based on synth mode (random, regular or FX)
 879:GrannyChordApp.cpp **** void GrannyChordApp::SetLed2(){
 5036              		.loc 3 879 31 is_stmt 1 view -0
 5037              		.cfi_startproc
 5038              		@ args = 0, pretend = 0, frame = 0
 5039              		@ frame_needed = 0, uses_anonymous_args = 0
 5040              		@ link register save eliminated.
 880:GrannyChordApp.cpp ****   if (curr_state_==AppState::Synthesis){
 5041              		.loc 3 880 3 view .LVU1431
 5042 0000 D0F87832 		ldr	r3, [r0, #632]
 5043 0004 022B     		cmp	r3, #2
 5044 0006 00F55043 		add	r3, r0, #53248
 5045 000a 17D1     		bne	.L225
 881:GrannyChordApp.cpp ****     switch(curr_synth_mode_){
 5046              		.loc 3 881 5 view .LVU1432
 5047 000c D0F88022 		ldr	r2, [r0, #640]
 5048 0010 072A     		cmp	r2, #7
 5049 0012 13D8     		bhi	.L225
 5050 0014 DFE802F0 		tbb	[pc, r2]
 5051              	.L227:
 5052 0018 04       		.byte	(.L228-.L227)/2
 5053 0019 0A       		.byte	(.L230-.L227)/2
 5054 001a 04       		.byte	(.L228-.L227)/2
 5055 001b 16       		.byte	(.L229-.L227)/2
 5056 001c 04       		.byte	(.L228-.L227)/2
 5057 001d 1E       		.byte	(.L226-.L227)/2
 5058 001e 04       		.byte	(.L228-.L227)/2
 5059 001f 1E       		.byte	(.L226-.L227)/2
 5060              		.p2align 1
 5061              	.L228:
 882:GrannyChordApp.cpp ****       case SynthMode::Size_Position:
 5062              		.loc 3 882 7 view .LVU1433
 883:GrannyChordApp.cpp ****       case SynthMode::Pitch_ActiveGrains:
 5063              		.loc 3 883 7 view .LVU1434
 884:GrannyChordApp.cpp ****       case SynthMode::Pan_Direction:
 5064              		.loc 3 884 7 view .LVU1435
 885:GrannyChordApp.cpp ****       case SynthMode::Reverb:
 5065              		.loc 3 885 7 view .LVU1436
 886:GrannyChordApp.cpp ****         SetRgb2(0, 0, 0); /* off in even mode */
 5066              		.loc 3 886 9 view .LVU1437
 5067              	.LVL368:
 5068              	.LBB707:
 5069              	.LBI707:
 819:GrannyChordApp.cpp ****   rgb2_[0]= r;
 5070              		.loc 3 819 6 view .LVU1438
 5071              	.LBB708:
 820:GrannyChordApp.cpp ****   rgb2_[1]= g;
 5072              		.loc 3 820 3 view .LVU1439
 820:GrannyChordApp.cpp ****   rgb2_[1]= g;
 5073              		.loc 3 820 11 is_stmt 0 view .LVU1440
 5074 0020 0022     		movs	r2, #0
 5075 0022 C3F85C22 		str	r2, [r3, #604]	@ float
 821:GrannyChordApp.cpp ****   rgb2_[2]= b;
 5076              		.loc 3 821 3 is_stmt 1 view .LVU1441
 5077              	.LVL369:
ARM GAS  /var/folders/2p/02m_5p7958535cp2tpgps0400000gn/T//cchBTf64.s 			page 149


 5078              	.L232:
 821:GrannyChordApp.cpp ****   rgb2_[2]= b;
 5079              		.loc 3 821 3 is_stmt 0 view .LVU1442
 5080              	.LBE708:
 5081              	.LBE707:
 5082              	.LBB709:
 5083              	.LBB710:
 821:GrannyChordApp.cpp ****   rgb2_[2]= b;
 5084              		.loc 3 821 11 view .LVU1443
 5085 0026 C3F86022 		str	r2, [r3, #608]	@ float
 5086 002a 05E0     		b	.L231
 5087              	.L230:
 5088              	.LBE710:
 5089              	.LBE709:
 887:GrannyChordApp.cpp ****         break;
 888:GrannyChordApp.cpp ****       case SynthMode::Size_Position_Rnd:
 5090              		.loc 3 888 7 is_stmt 1 view .LVU1444
 889:GrannyChordApp.cpp ****         SetRgb2(0, 0.7f, 0); /* green */
 5091              		.loc 3 889 9 view .LVU1445
 5092              	.LVL370:
 5093              	.LBB713:
 5094              	.LBI713:
 819:GrannyChordApp.cpp ****   rgb2_[0]= r;
 5095              		.loc 3 819 6 view .LVU1446
 5096              	.LBB714:
 820:GrannyChordApp.cpp ****   rgb2_[1]= g;
 5097              		.loc 3 820 3 view .LVU1447
 820:GrannyChordApp.cpp ****   rgb2_[1]= g;
 5098              		.loc 3 820 11 is_stmt 0 view .LVU1448
 5099 002c 0022     		movs	r2, #0
 821:GrannyChordApp.cpp ****   rgb2_[2]= b;
 5100              		.loc 3 821 11 view .LVU1449
 5101 002e 0C49     		ldr	r1, .L233
 820:GrannyChordApp.cpp ****   rgb2_[1]= g;
 5102              		.loc 3 820 11 view .LVU1450
 5103 0030 C3F85C22 		str	r2, [r3, #604]	@ float
 821:GrannyChordApp.cpp ****   rgb2_[2]= b;
 5104              		.loc 3 821 3 is_stmt 1 view .LVU1451
 821:GrannyChordApp.cpp ****   rgb2_[2]= b;
 5105              		.loc 3 821 11 is_stmt 0 view .LVU1452
 5106 0034 C3F86012 		str	r1, [r3, #608]	@ float
 822:GrannyChordApp.cpp **** }
 5107              		.loc 3 822 3 is_stmt 1 view .LVU1453
 5108              	.LVL371:
 5109              	.L231:
 822:GrannyChordApp.cpp **** }
 5110              		.loc 3 822 3 is_stmt 0 view .LVU1454
 5111              	.LBE714:
 5112              	.LBE713:
 5113              	.LBB715:
 5114              	.LBB711:
 822:GrannyChordApp.cpp **** }
 5115              		.loc 3 822 3 is_stmt 1 view .LVU1455
 822:GrannyChordApp.cpp **** }
 5116              		.loc 3 822 11 is_stmt 0 view .LVU1456
 5117 0038 C3F86422 		str	r2, [r3, #612]	@ float
 5118              	.L225:
ARM GAS  /var/folders/2p/02m_5p7958535cp2tpgps0400000gn/T//cchBTf64.s 			page 150


 5119              	.LBE711:
 5120              	.LBE715:
 890:GrannyChordApp.cpp ****         break;
 891:GrannyChordApp.cpp ****       case SynthMode::Pitch_ActiveGrains_Rnd:
 892:GrannyChordApp.cpp ****         SetRgb2(0.9f, 0.6f, 0); /* orange */
 893:GrannyChordApp.cpp ****         break;
 894:GrannyChordApp.cpp ****       case SynthMode::PanRnd_Chorus:
 895:GrannyChordApp.cpp ****          SetRgb2(0,0.7f,0.7f); /* cyan */
 896:GrannyChordApp.cpp ****         break;
 897:GrannyChordApp.cpp ****       case SynthMode::Filter:
 898:GrannyChordApp.cpp ****         SetRgb2(0,0.7f,0.7f); /* cyan for reverb */
 899:GrannyChordApp.cpp ****         break;
 900:GrannyChordApp.cpp ****       default:
 901:GrannyChordApp.cpp ****         break;
 902:GrannyChordApp.cpp ****     }
 903:GrannyChordApp.cpp ****   }
 904:GrannyChordApp.cpp ****   led2_flash_count_=0;
 5121              		.loc 3 904 3 is_stmt 1 view .LVU1457
 5122              		.loc 3 904 20 is_stmt 0 view .LVU1458
 5123 003c 0022     		movs	r2, #0
 5124 003e C3F86C22 		str	r2, [r3, #620]
 905:GrannyChordApp.cpp **** }
 5125              		.loc 3 905 1 view .LVU1459
 5126 0042 7047     		bx	lr
 5127              	.L229:
 891:GrannyChordApp.cpp ****         SetRgb2(0.9f, 0.6f, 0); /* orange */
 5128              		.loc 3 891 7 is_stmt 1 view .LVU1460
 892:GrannyChordApp.cpp ****         break;
 5129              		.loc 3 892 9 view .LVU1461
 5130              	.LVL372:
 5131              	.LBB716:
 5132              	.LBI716:
 819:GrannyChordApp.cpp ****   rgb2_[0]= r;
 5133              		.loc 3 819 6 view .LVU1462
 5134              	.LBB717:
 820:GrannyChordApp.cpp ****   rgb2_[1]= g;
 5135              		.loc 3 820 3 view .LVU1463
 820:GrannyChordApp.cpp ****   rgb2_[1]= g;
 5136              		.loc 3 820 11 is_stmt 0 view .LVU1464
 5137 0044 074A     		ldr	r2, .L233+4
 5138 0046 C3F85C22 		str	r2, [r3, #604]	@ float
 821:GrannyChordApp.cpp ****   rgb2_[2]= b;
 5139              		.loc 3 821 3 is_stmt 1 view .LVU1465
 821:GrannyChordApp.cpp ****   rgb2_[2]= b;
 5140              		.loc 3 821 11 is_stmt 0 view .LVU1466
 5141 004a 074A     		ldr	r2, .L233+8
 5142 004c C3F86022 		str	r2, [r3, #608]	@ float
 822:GrannyChordApp.cpp **** }
 5143              		.loc 3 822 3 is_stmt 1 view .LVU1467
 822:GrannyChordApp.cpp **** }
 5144              		.loc 3 822 11 is_stmt 0 view .LVU1468
 5145 0050 0022     		movs	r2, #0
 5146 0052 F1E7     		b	.L231
 5147              	.LVL373:
 5148              	.L226:
 822:GrannyChordApp.cpp **** }
 5149              		.loc 3 822 11 view .LVU1469
ARM GAS  /var/folders/2p/02m_5p7958535cp2tpgps0400000gn/T//cchBTf64.s 			page 151


 5150              	.LBE717:
 5151              	.LBE716:
 894:GrannyChordApp.cpp ****          SetRgb2(0,0.7f,0.7f); /* cyan */
 5152              		.loc 3 894 7 is_stmt 1 view .LVU1470
 895:GrannyChordApp.cpp ****         break;
 5153              		.loc 3 895 10 view .LVU1471
 5154              	.LBB718:
 5155              	.LBI709:
 819:GrannyChordApp.cpp ****   rgb2_[0]= r;
 5156              		.loc 3 819 6 view .LVU1472
 5157              	.LBB712:
 820:GrannyChordApp.cpp ****   rgb2_[1]= g;
 5158              		.loc 3 820 3 view .LVU1473
 820:GrannyChordApp.cpp ****   rgb2_[1]= g;
 5159              		.loc 3 820 11 is_stmt 0 view .LVU1474
 5160 0054 0022     		movs	r2, #0
 5161 0056 C3F85C22 		str	r2, [r3, #604]	@ float
 821:GrannyChordApp.cpp ****   rgb2_[2]= b;
 5162              		.loc 3 821 3 is_stmt 1 view .LVU1475
 821:GrannyChordApp.cpp ****   rgb2_[2]= b;
 5163              		.loc 3 821 11 is_stmt 0 view .LVU1476
 5164 005a 014A     		ldr	r2, .L233
 5165 005c E3E7     		b	.L232
 5166              	.L234:
 5167 005e 00BF     		.align	2
 5168              	.L233:
 5169 0060 3333333F 		.word	1060320051
 5170 0064 6666663F 		.word	1063675494
 5171 0068 9A99193F 		.word	1058642330
 5172              	.LBE712:
 5173              	.LBE718:
 5174              		.cfi_endproc
 5175              	.LFE4957:
 5177              		.section	.rodata._ZN14GrannyChordApp16UpdateSynthModeAEv.str1.1,"aMS",%progbits,1
 5178              	.LC34:
 5179 0000 6E657874 		.ascii	"next synth mode\000"
 5179      2073796E 
 5179      7468206D 
 5179      6F646500 
 5180              		.section	.text._ZN14GrannyChordApp16UpdateSynthModeAEv,"ax",%progbits
 5181              		.align	1
 5182              		.global	_ZN14GrannyChordApp16UpdateSynthModeAEv
 5183              		.syntax unified
 5184              		.thumb
 5185              		.thumb_func
 5187              	_ZN14GrannyChordApp16UpdateSynthModeAEv:
 5188              	.LVL374:
 5189              	.LFB4926:
 303:GrannyChordApp.cpp ****   DebugPrint(pod_, "next synth mode");
 5190              		.loc 3 303 40 is_stmt 1 view -0
 5191              		.cfi_startproc
 5192              		@ args = 0, pretend = 0, frame = 0
 5193              		@ frame_needed = 0, uses_anonymous_args = 0
 304:GrannyChordApp.cpp ****   int mode_idx = static_cast<int>(curr_synth_mode_);
 5194              		.loc 3 304 3 view .LVU1478
 304:GrannyChordApp.cpp ****   int mode_idx = static_cast<int>(curr_synth_mode_);
 5195              		.loc 3 304 3 view .LVU1479
ARM GAS  /var/folders/2p/02m_5p7958535cp2tpgps0400000gn/T//cchBTf64.s 			page 152


 5196              	.LBB719:
 5197              	.LBI719:
 126:../libDaisy/src/daisy_seed.h ****     {
 5198              		.loc 5 126 17 view .LVU1480
 5199              	.LBE719:
 303:GrannyChordApp.cpp ****   DebugPrint(pod_, "next synth mode");
 5200              		.loc 3 303 40 is_stmt 0 view .LVU1481
 5201 0000 10B5     		push	{r4, lr}
 5202              		.cfi_def_cfa_offset 8
 5203              		.cfi_offset 4, -8
 5204              		.cfi_offset 14, -4
 303:GrannyChordApp.cpp ****   DebugPrint(pod_, "next synth mode");
 5205              		.loc 3 303 40 view .LVU1482
 5206 0002 0446     		mov	r4, r0
 5207              	.LBB721:
 5208              	.LBB720:
 5209              		.loc 5 128 23 view .LVU1483
 5210 0004 0F48     		ldr	r0, .L238
 5211              	.LVL375:
 5212              		.loc 5 128 23 view .LVU1484
 5213 0006 FFF7FEFF 		bl	_ZN5daisy6LoggerILNS_17LoggerDestinationE1EE9PrintLineEPKcz
 5214              	.LVL376:
 5215              		.loc 5 128 23 view .LVU1485
 5216              	.LBE720:
 5217              	.LBE721:
 305:GrannyChordApp.cpp ****   if (mode_idx%2 == 0){
 5218              		.loc 3 305 3 is_stmt 1 view .LVU1486
 305:GrannyChordApp.cpp ****   if (mode_idx%2 == 0){
 5219              		.loc 3 305 7 is_stmt 0 view .LVU1487
 5220 000a D4F88012 		ldr	r1, [r4, #640]
 5221              	.LVL377:
 306:GrannyChordApp.cpp ****     mode_idx = (mode_idx + 2) % 8;
 5222              		.loc 3 306 3 is_stmt 1 view .LVU1488
 5223 000e CB07     		lsls	r3, r1, #31
 5224 0010 15D4     		bmi	.L236
 307:GrannyChordApp.cpp ****   }
 5225              		.loc 3 307 5 view .LVU1489
 307:GrannyChordApp.cpp ****   }
 5226              		.loc 3 307 26 is_stmt 0 view .LVU1490
 5227 0012 0231     		adds	r1, r1, #2
 5228              	.LVL378:
 307:GrannyChordApp.cpp ****   }
 5229              		.loc 3 307 14 view .LVU1491
 5230 0014 4B42     		rsbs	r3, r1, #0
 5231 0016 01F00701 		and	r1, r1, #7
 5232 001a 03F00703 		and	r3, r3, #7
 5233 001e 58BF     		it	pl
 5234 0020 5942     		rsbpl	r1, r3, #0
 5235              	.LVL379:
 5236              	.L237:
 314:GrannyChordApp.cpp ****   DebugPrintMode(curr_synth_mode_);
 5237              		.loc 3 314 3 is_stmt 1 view .LVU1492
 314:GrannyChordApp.cpp ****   DebugPrintMode(curr_synth_mode_);
 5238              		.loc 3 314 20 is_stmt 0 view .LVU1493
 5239 0022 C4F88012 		str	r1, [r4, #640]
 315:GrannyChordApp.cpp ****   // ResetPassThru();
 5240              		.loc 3 315 3 is_stmt 1 view .LVU1494
ARM GAS  /var/folders/2p/02m_5p7958535cp2tpgps0400000gn/T//cchBTf64.s 			page 153


 315:GrannyChordApp.cpp ****   // ResetPassThru();
 5241              		.loc 3 315 17 is_stmt 0 view .LVU1495
 5242 0026 2046     		mov	r0, r4
 5243 0028 FFF7FEFF 		bl	_ZN14GrannyChordApp14DebugPrintModeE9SynthMode
 5244              	.LVL380:
 317:GrannyChordApp.cpp ****   SetLed2();
 5245              		.loc 3 317 3 is_stmt 1 view .LVU1496
 317:GrannyChordApp.cpp ****   SetLed2();
 5246              		.loc 3 317 19 is_stmt 0 view .LVU1497
 5247 002c 2046     		mov	r0, r4
 5248 002e FFF7FEFF 		bl	_ZN14GrannyChordApp16SetLed1SynthModeEv
 5249              	.LVL381:
 318:GrannyChordApp.cpp ****   mode_changed_ = true;
 5250              		.loc 3 318 3 is_stmt 1 view .LVU1498
 318:GrannyChordApp.cpp ****   mode_changed_ = true;
 5251              		.loc 3 318 10 is_stmt 0 view .LVU1499
 5252 0032 FFF7FEFF 		bl	_ZN14GrannyChordApp7SetLed2Ev
 5253              	.LVL382:
 319:GrannyChordApp.cpp **** }
 5254              		.loc 3 319 3 is_stmt 1 view .LVU1500
 319:GrannyChordApp.cpp **** }
 5255              		.loc 3 319 17 is_stmt 0 view .LVU1501
 5256 0036 0123     		movs	r3, #1
 5257 0038 84F88832 		strb	r3, [r4, #648]
 320:GrannyChordApp.cpp **** 
 5258              		.loc 3 320 1 view .LVU1502
 5259 003c 10BD     		pop	{r4, pc}
 5260              	.LVL383:
 5261              	.L236:
 311:GrannyChordApp.cpp ****   }
 5262              		.loc 3 311 5 is_stmt 1 view .LVU1503
 311:GrannyChordApp.cpp ****   }
 5263              		.loc 3 311 14 is_stmt 0 view .LVU1504
 5264 003e 81F00101 		eor	r1, r1, #1
 5265              	.LVL384:
 311:GrannyChordApp.cpp ****   }
 5266              		.loc 3 311 14 view .LVU1505
 5267 0042 EEE7     		b	.L237
 5268              	.L239:
 5269              		.align	2
 5270              	.L238:
 5271 0044 00000000 		.word	.LC34
 5272              		.cfi_endproc
 5273              	.LFE4926:
 5275              		.section	.text._ZN14GrannyChordApp13HandleButton1Ev,"ax",%progbits
 5276              		.align	1
 5277              		.global	_ZN14GrannyChordApp13HandleButton1Ev
 5278              		.syntax unified
 5279              		.thumb
 5280              		.thumb_func
 5282              	_ZN14GrannyChordApp13HandleButton1Ev:
 5283              	.LVL385:
 5284              	.LFB4921:
 273:GrannyChordApp.cpp ****   UpdateSynthModeA();
 5285              		.loc 3 273 37 is_stmt 1 view -0
 5286              		.cfi_startproc
 5287              		@ args = 0, pretend = 0, frame = 0
ARM GAS  /var/folders/2p/02m_5p7958535cp2tpgps0400000gn/T//cchBTf64.s 			page 154


 5288              		@ frame_needed = 0, uses_anonymous_args = 0
 5289              		@ link register save eliminated.
 274:GrannyChordApp.cpp **** }
 5290              		.loc 3 274 3 view .LVU1507
 274:GrannyChordApp.cpp **** }
 5291              		.loc 3 274 19 is_stmt 0 view .LVU1508
 5292 0000 FFF7FEBF 		b	_ZN14GrannyChordApp16UpdateSynthModeAEv
 5293              	.LVL386:
 274:GrannyChordApp.cpp **** }
 5294              		.loc 3 274 19 view .LVU1509
 5295              		.cfi_endproc
 5296              	.LFE4921:
 5298              		.section	.text._ZN14GrannyChordApp16UpdateSynthModeBEv,"ax",%progbits
 5299              		.align	1
 5300              		.global	_ZN14GrannyChordApp16UpdateSynthModeBEv
 5301              		.syntax unified
 5302              		.thumb
 5303              		.thumb_func
 5305              	_ZN14GrannyChordApp16UpdateSynthModeBEv:
 5306              	.LVL387:
 5307              	.LFB4927:
 325:GrannyChordApp.cpp ****   DebugPrint(pod_, "next synth mode");
 5308              		.loc 3 325 40 is_stmt 1 view -0
 5309              		.cfi_startproc
 5310              		@ args = 0, pretend = 0, frame = 0
 5311              		@ frame_needed = 0, uses_anonymous_args = 0
 326:GrannyChordApp.cpp ****   int mode_idx = static_cast<int>(curr_synth_mode_);
 5312              		.loc 3 326 3 view .LVU1511
 326:GrannyChordApp.cpp ****   int mode_idx = static_cast<int>(curr_synth_mode_);
 5313              		.loc 3 326 3 view .LVU1512
 5314              	.LBB722:
 5315              	.LBI722:
 126:../libDaisy/src/daisy_seed.h ****     {
 5316              		.loc 5 126 17 view .LVU1513
 5317              	.LBE722:
 325:GrannyChordApp.cpp ****   DebugPrint(pod_, "next synth mode");
 5318              		.loc 3 325 40 is_stmt 0 view .LVU1514
 5319 0000 10B5     		push	{r4, lr}
 5320              		.cfi_def_cfa_offset 8
 5321              		.cfi_offset 4, -8
 5322              		.cfi_offset 14, -4
 325:GrannyChordApp.cpp ****   DebugPrint(pod_, "next synth mode");
 5323              		.loc 3 325 40 view .LVU1515
 5324 0002 0446     		mov	r4, r0
 5325              	.LBB724:
 5326              	.LBB723:
 5327              		.loc 5 128 23 view .LVU1516
 5328 0004 0F48     		ldr	r0, .L244
 5329              	.LVL388:
 5330              		.loc 5 128 23 view .LVU1517
 5331 0006 FFF7FEFF 		bl	_ZN5daisy6LoggerILNS_17LoggerDestinationE1EE9PrintLineEPKcz
 5332              	.LVL389:
 5333              		.loc 5 128 23 view .LVU1518
 5334              	.LBE723:
 5335              	.LBE724:
 327:GrannyChordApp.cpp ****   if (mode_idx %2 != 0){
 5336              		.loc 3 327 3 is_stmt 1 view .LVU1519
ARM GAS  /var/folders/2p/02m_5p7958535cp2tpgps0400000gn/T//cchBTf64.s 			page 155


 327:GrannyChordApp.cpp ****   if (mode_idx %2 != 0){
 5337              		.loc 3 327 7 is_stmt 0 view .LVU1520
 5338 000a D4F88012 		ldr	r1, [r4, #640]
 5339              	.LVL390:
 328:GrannyChordApp.cpp ****     mode_idx = (mode_idx + 2) % 8;
 5340              		.loc 3 328 3 is_stmt 1 view .LVU1521
 5341 000e CB07     		lsls	r3, r1, #31
 5342 0010 15D5     		bpl	.L242
 329:GrannyChordApp.cpp ****   }
 5343              		.loc 3 329 5 view .LVU1522
 329:GrannyChordApp.cpp ****   }
 5344              		.loc 3 329 26 is_stmt 0 view .LVU1523
 5345 0012 0231     		adds	r1, r1, #2
 5346              	.LVL391:
 329:GrannyChordApp.cpp ****   }
 5347              		.loc 3 329 14 view .LVU1524
 5348 0014 4B42     		rsbs	r3, r1, #0
 5349 0016 01F00701 		and	r1, r1, #7
 5350 001a 03F00703 		and	r3, r3, #7
 5351 001e 58BF     		it	pl
 5352 0020 5942     		rsbpl	r1, r3, #0
 5353              	.LVL392:
 5354              	.L243:
 335:GrannyChordApp.cpp ****   DebugPrintMode(curr_synth_mode_);
 5355              		.loc 3 335 3 is_stmt 1 view .LVU1525
 335:GrannyChordApp.cpp ****   DebugPrintMode(curr_synth_mode_);
 5356              		.loc 3 335 20 is_stmt 0 view .LVU1526
 5357 0022 C4F88012 		str	r1, [r4, #640]
 336:GrannyChordApp.cpp ****   // ResetPassThru();
 5358              		.loc 3 336 3 is_stmt 1 view .LVU1527
 336:GrannyChordApp.cpp ****   // ResetPassThru();
 5359              		.loc 3 336 17 is_stmt 0 view .LVU1528
 5360 0026 2046     		mov	r0, r4
 5361 0028 FFF7FEFF 		bl	_ZN14GrannyChordApp14DebugPrintModeE9SynthMode
 5362              	.LVL393:
 338:GrannyChordApp.cpp ****   SetLed2();
 5363              		.loc 3 338 3 is_stmt 1 view .LVU1529
 338:GrannyChordApp.cpp ****   SetLed2();
 5364              		.loc 3 338 19 is_stmt 0 view .LVU1530
 5365 002c 2046     		mov	r0, r4
 5366 002e FFF7FEFF 		bl	_ZN14GrannyChordApp16SetLed1SynthModeEv
 5367              	.LVL394:
 339:GrannyChordApp.cpp ****   mode_changed_ = true;
 5368              		.loc 3 339 3 is_stmt 1 view .LVU1531
 339:GrannyChordApp.cpp ****   mode_changed_ = true;
 5369              		.loc 3 339 10 is_stmt 0 view .LVU1532
 5370 0032 FFF7FEFF 		bl	_ZN14GrannyChordApp7SetLed2Ev
 5371              	.LVL395:
 340:GrannyChordApp.cpp **** }
 5372              		.loc 3 340 3 is_stmt 1 view .LVU1533
 340:GrannyChordApp.cpp **** }
 5373              		.loc 3 340 17 is_stmt 0 view .LVU1534
 5374 0036 0123     		movs	r3, #1
 5375 0038 84F88832 		strb	r3, [r4, #648]
 341:GrannyChordApp.cpp **** 
 5376              		.loc 3 341 1 view .LVU1535
 5377 003c 10BD     		pop	{r4, pc}
ARM GAS  /var/folders/2p/02m_5p7958535cp2tpgps0400000gn/T//cchBTf64.s 			page 156


 5378              	.LVL396:
 5379              	.L242:
 332:GrannyChordApp.cpp ****   }
 5380              		.loc 3 332 5 is_stmt 1 view .LVU1536
 332:GrannyChordApp.cpp ****   }
 5381              		.loc 3 332 14 is_stmt 0 view .LVU1537
 5382 003e 81F00101 		eor	r1, r1, #1
 5383              	.LVL397:
 332:GrannyChordApp.cpp ****   }
 5384              		.loc 3 332 14 view .LVU1538
 5385 0042 EEE7     		b	.L243
 5386              	.L245:
 5387              		.align	2
 5388              	.L244:
 5389 0044 00000000 		.word	.LC34
 5390              		.cfi_endproc
 5391              	.LFE4927:
 5393              		.section	.text._ZN14GrannyChordApp13HandleButton2Ev,"ax",%progbits
 5394              		.align	1
 5395              		.global	_ZN14GrannyChordApp13HandleButton2Ev
 5396              		.syntax unified
 5397              		.thumb
 5398              		.thumb_func
 5400              	_ZN14GrannyChordApp13HandleButton2Ev:
 5401              	.LVL398:
 5402              	.LFB4922:
 278:GrannyChordApp.cpp ****     UpdateSynthModeB();
 5403              		.loc 3 278 37 is_stmt 1 view -0
 5404              		.cfi_startproc
 5405              		@ args = 0, pretend = 0, frame = 0
 5406              		@ frame_needed = 0, uses_anonymous_args = 0
 5407              		@ link register save eliminated.
 279:GrannyChordApp.cpp **** }
 5408              		.loc 3 279 5 view .LVU1540
 279:GrannyChordApp.cpp **** }
 5409              		.loc 3 279 21 is_stmt 0 view .LVU1541
 5410 0000 FFF7FEBF 		b	_ZN14GrannyChordApp16UpdateSynthModeBEv
 5411              	.LVL399:
 279:GrannyChordApp.cpp **** }
 5412              		.loc 3 279 21 view .LVU1542
 5413              		.cfi_endproc
 5414              	.LFE4922:
 5416              		.section	.text._ZN5daisy9WavWriterILj16384EE8SaveFileEv,"axG",%progbits,_ZN5daisy9WavWriterILj1638
 5417              		.align	1
 5418              		.weak	_ZN5daisy9WavWriterILj16384EE8SaveFileEv
 5419              		.syntax unified
 5420              		.thumb
 5421              		.thumb_func
 5423              	_ZN5daisy9WavWriterILj16384EE8SaveFileEv:
 5424              	.LVL400:
 5425              	.LFB5285:
 142:../libDaisy/src/util/WavWriter.h ****     {
 5426              		.loc 9 142 10 is_stmt 1 view -0
 5427              		.cfi_startproc
 5428              		@ args = 0, pretend = 0, frame = 8
 5429              		@ frame_needed = 0, uses_anonymous_args = 0
 142:../libDaisy/src/util/WavWriter.h ****     {
ARM GAS  /var/folders/2p/02m_5p7958535cp2tpgps0400000gn/T//cchBTf64.s 			page 157


 5430              		.loc 9 142 10 is_stmt 0 view .LVU1544
 5431 0000 37B5     		push	{r0, r1, r2, r4, r5, lr}
 5432              		.cfi_def_cfa_offset 24
 5433              		.cfi_offset 4, -12
 5434              		.cfi_offset 5, -8
 5435              		.cfi_offset 14, -4
 145:../libDaisy/src/util/WavWriter.h ****         // We _should_ flush whatever's left in the transfer buff
 5436              		.loc 9 145 25 view .LVU1545
 5437 0002 00F50043 		add	r3, r0, #32768
 144:../libDaisy/src/util/WavWriter.h ****         recording_      = false;
 5438              		.loc 9 144 22 view .LVU1546
 5439 0006 0021     		movs	r1, #0
 149:../libDaisy/src/util/WavWriter.h ****         f_write(&fp_, &wavheader_, sizeof(wavheader_), &bw);
 5440              		.loc 9 149 16 view .LVU1547
 5441 0008 00F50045 		add	r5, r0, #32768
 142:../libDaisy/src/util/WavWriter.h ****     {
 5442              		.loc 9 142 10 view .LVU1548
 5443 000c 0446     		mov	r4, r0
 145:../libDaisy/src/util/WavWriter.h ****         // We _should_ flush whatever's left in the transfer buff
 5444              		.loc 9 145 25 view .LVU1549
 5445 000e 83F84410 		strb	r1, [r3, #68]
 5446              	.LVL401:
 5447              	.LBB727:
 5448              	.LBI727:
 182:../libDaisy/src/util/WavWriter.h ****     {
 5449              		.loc 9 182 21 is_stmt 1 view .LVU1550
 5450              	.LBE727:
 149:../libDaisy/src/util/WavWriter.h ****         f_write(&fp_, &wavheader_, sizeof(wavheader_), &bw);
 5451              		.loc 9 149 16 is_stmt 0 view .LVU1551
 5452 0012 4835     		adds	r5, r5, #72
 144:../libDaisy/src/util/WavWriter.h ****         recording_      = false;
 5453              		.loc 9 144 22 view .LVU1552
 5454 0014 0191     		str	r1, [sp, #4]
 5455              	.LBB729:
 5456              	.LBB728:
 185:../libDaisy/src/util/WavWriter.h ****         return 36 + wavheader_.SubCHunk2Size;
 5457              		.loc 9 185 42 view .LVU1553
 5458 0016 D0E90E32 		ldrd	r3, r2, [r0, #56]
 5459 001a 5343     		muls	r3, r2, r3
 5460 001c C26A     		ldr	r2, [r0, #44]
 5461 001e 5343     		muls	r3, r2, r3
 185:../libDaisy/src/util/WavWriter.h ****         return 36 + wavheader_.SubCHunk2Size;
 5462              		.loc 9 185 63 view .LVU1554
 5463 0020 DB08     		lsrs	r3, r3, #3
 185:../libDaisy/src/util/WavWriter.h ****         return 36 + wavheader_.SubCHunk2Size;
 5464              		.loc 9 185 13 view .LVU1555
 5465 0022 8362     		str	r3, [r0, #40]
 5466              	.LVL402:
 186:../libDaisy/src/util/WavWriter.h ****     }
 5467              		.loc 9 186 32 view .LVU1556
 5468 0024 2433     		adds	r3, r3, #36
 5469              	.LBE728:
 5470              	.LBE729:
 148:../libDaisy/src/util/WavWriter.h ****         f_lseek(&fp_, 0);
 5471              		.loc 9 148 29 view .LVU1557
 5472 0026 4360     		str	r3, [r0, #4]
 149:../libDaisy/src/util/WavWriter.h ****         f_write(&fp_, &wavheader_, sizeof(wavheader_), &bw);
ARM GAS  /var/folders/2p/02m_5p7958535cp2tpgps0400000gn/T//cchBTf64.s 			page 158


 5473              		.loc 9 149 16 view .LVU1558
 5474 0028 2846     		mov	r0, r5
 5475              	.LVL403:
 149:../libDaisy/src/util/WavWriter.h ****         f_write(&fp_, &wavheader_, sizeof(wavheader_), &bw);
 5476              		.loc 9 149 16 view .LVU1559
 5477 002a FFF7FEFF 		bl	f_lseek
 5478              	.LVL404:
 150:../libDaisy/src/util/WavWriter.h ****         f_close(&fp_);
 5479              		.loc 9 150 16 view .LVU1560
 5480 002e 01AB     		add	r3, sp, #4
 5481 0030 2C22     		movs	r2, #44
 5482 0032 2146     		mov	r1, r4
 5483 0034 2846     		mov	r0, r5
 5484 0036 FFF7FEFF 		bl	f_write
 5485              	.LVL405:
 151:../libDaisy/src/util/WavWriter.h ****     }
 5486              		.loc 9 151 16 view .LVU1561
 5487 003a 2846     		mov	r0, r5
 5488 003c FFF7FEFF 		bl	f_close
 5489              	.LVL406:
 152:../libDaisy/src/util/WavWriter.h **** 
 5490              		.loc 9 152 5 view .LVU1562
 5491 0040 03B0     		add	sp, sp, #12
 5492              		.cfi_def_cfa_offset 12
 5493              		@ sp needed
 5494 0042 30BD     		pop	{r4, r5, pc}
 152:../libDaisy/src/util/WavWriter.h **** 
 5495              		.loc 9 152 5 view .LVU1563
 5496              		.cfi_endproc
 5497              	.LFE5285:
 5499              		.section	.text._ZN14GrannyChordApp15FinishRecordingEv,"ax",%progbits
 5500              		.align	1
 5501              		.global	_ZN14GrannyChordApp15FinishRecordingEv
 5502              		.syntax unified
 5503              		.thumb
 5504              		.thumb_func
 5506              	_ZN14GrannyChordApp15FinishRecordingEv:
 5507              	.LVL407:
 5508              	.LFB4944:
 609:GrannyChordApp.cpp ****   sd_writer_.SaveFile();
 5509              		.loc 3 609 39 is_stmt 1 view -0
 5510              		.cfi_startproc
 5511              		@ args = 0, pretend = 0, frame = 0
 5512              		@ frame_needed = 0, uses_anonymous_args = 0
 610:GrannyChordApp.cpp ****   recording_out_=false;
 5513              		.loc 3 610 3 view .LVU1565
 609:GrannyChordApp.cpp ****   sd_writer_.SaveFile();
 5514              		.loc 3 609 39 is_stmt 0 view .LVU1566
 5515 0000 10B5     		push	{r4, lr}
 5516              		.cfi_def_cfa_offset 8
 5517              		.cfi_offset 4, -8
 5518              		.cfi_offset 14, -4
 609:GrannyChordApp.cpp ****   sd_writer_.SaveFile();
 5519              		.loc 3 609 39 view .LVU1567
 5520 0002 0446     		mov	r4, r0
 610:GrannyChordApp.cpp ****   recording_out_=false;
 5521              		.loc 3 610 22 view .LVU1568
ARM GAS  /var/folders/2p/02m_5p7958535cp2tpgps0400000gn/T//cchBTf64.s 			page 159


 5522 0004 00F59F40 		add	r0, r0, #20352
 5523              	.LVL408:
 610:GrannyChordApp.cpp ****   recording_out_=false;
 5524              		.loc 3 610 22 view .LVU1569
 5525 0008 3430     		adds	r0, r0, #52
 611:GrannyChordApp.cpp **** }
 5526              		.loc 3 611 17 view .LVU1570
 5527 000a 04F55044 		add	r4, r4, #53248
 5528              	.LVL409:
 610:GrannyChordApp.cpp ****   recording_out_=false;
 5529              		.loc 3 610 22 view .LVU1571
 5530 000e FFF7FEFF 		bl	_ZN5daisy9WavWriterILj16384EE8SaveFileEv
 5531              	.LVL410:
 611:GrannyChordApp.cpp **** }
 5532              		.loc 3 611 3 is_stmt 1 view .LVU1572
 611:GrannyChordApp.cpp **** }
 5533              		.loc 3 611 17 is_stmt 0 view .LVU1573
 5534 0012 0023     		movs	r3, #0
 5535 0014 84F83032 		strb	r3, [r4, #560]
 612:GrannyChordApp.cpp **** 
 5536              		.loc 3 612 1 view .LVU1574
 5537 0018 10BD     		pop	{r4, pc}
 612:GrannyChordApp.cpp **** 
 5538              		.loc 3 612 1 view .LVU1575
 5539              		.cfi_endproc
 5540              	.LFE4944:
 5542              		.section	.rodata._ZN14GrannyChordApp13ButtonHandlerEv.str1.1,"aMS",%progbits,1
 5543              	.LC35:
 5544 0000 6E6F7720 		.ascii	"now recording out!\000"
 5544      7265636F 
 5544      7264696E 
 5544      67206F75 
 5544      742100
 5545              	.LC36:
 5546 0013 66696E69 		.ascii	"finished recording out: %.2fs\000"
 5546      73686564 
 5546      20726563 
 5546      6F726469 
 5546      6E67206F 
 5547              		.section	.text._ZN14GrannyChordApp13ButtonHandlerEv,"ax",%progbits
 5548              		.align	1
 5549              		.global	_ZN14GrannyChordApp13ButtonHandlerEv
 5550              		.syntax unified
 5551              		.thumb
 5552              		.thumb_func
 5554              	_ZN14GrannyChordApp13ButtonHandlerEv:
 5555              	.LVL411:
 5556              	.LFB4920:
 189:GrannyChordApp.cpp ****   unsigned long time_now = System::GetNow();
 5557              		.loc 3 189 37 is_stmt 1 view -0
 5558              		.cfi_startproc
 5559              		@ args = 0, pretend = 0, frame = 0
 5560              		@ frame_needed = 0, uses_anonymous_args = 0
 190:GrannyChordApp.cpp ****   /* only check button events if there's been a gap between them */
 5561              		.loc 3 190 3 view .LVU1577
 189:GrannyChordApp.cpp ****   unsigned long time_now = System::GetNow();
 5562              		.loc 3 189 37 is_stmt 0 view .LVU1578
ARM GAS  /var/folders/2p/02m_5p7958535cp2tpgps0400000gn/T//cchBTf64.s 			page 160


 5563 0000 70B5     		push	{r4, r5, r6, lr}
 5564              		.cfi_def_cfa_offset 16
 5565              		.cfi_offset 4, -16
 5566              		.cfi_offset 5, -12
 5567              		.cfi_offset 6, -8
 5568              		.cfi_offset 14, -4
 5569 0002 0546     		mov	r5, r0
 192:GrannyChordApp.cpp ****     return;
 5570              		.loc 3 192 18 view .LVU1579
 5571 0004 05F55044 		add	r4, r5, #53248
 189:GrannyChordApp.cpp ****   unsigned long time_now = System::GetNow();
 5572              		.loc 3 189 37 view .LVU1580
 5573 0008 2DED028B 		vpush.64	{d8}
 5574              		.cfi_def_cfa_offset 24
 5575              		.cfi_offset 80, -24
 5576              		.cfi_offset 81, -20
 190:GrannyChordApp.cpp ****   /* only check button events if there's been a gap between them */
 5577              		.loc 3 190 42 view .LVU1581
 5578 000c FFF7FEFF 		bl	_ZN5daisy6System6GetNowEv
 5579              	.LVL412:
 192:GrannyChordApp.cpp ****     return;
 5580              		.loc 3 192 16 view .LVU1582
 5581 0010 D4F84432 		ldr	r3, [r4, #580]
 190:GrannyChordApp.cpp ****   /* only check button events if there's been a gap between them */
 5582              		.loc 3 190 42 view .LVU1583
 5583 0014 0646     		mov	r6, r0
 5584              	.LVL413:
 192:GrannyChordApp.cpp ****     return;
 5585              		.loc 3 192 3 is_stmt 1 view .LVU1584
 192:GrannyChordApp.cpp ****     return;
 5586              		.loc 3 192 16 is_stmt 0 view .LVU1585
 5587 0016 C31A     		subs	r3, r0, r3
 192:GrannyChordApp.cpp ****     return;
 5588              		.loc 3 192 3 view .LVU1586
 5589 0018 312B     		cmp	r3, #49
 5590 001a 40F28580 		bls	.L249
 197:GrannyChordApp.cpp ****     last_action_time_ = time_now;
 5591              		.loc 3 197 3 is_stmt 1 view .LVU1587
 197:GrannyChordApp.cpp ****     last_action_time_ = time_now;
 5592              		.loc 3 197 7 is_stmt 0 view .LVU1588
 5593 001e E869     		ldr	r0, [r5, #28]
 5594              	.LVL414:
 5595              	.LBB762:
 5596              	.LBI762:
  70:../libDaisy/src/hid/switch.h **** 
 5597              		.loc 1 70 17 is_stmt 1 view .LVU1589
 5598              	.LBB763:
  70:../libDaisy/src/hid/switch.h **** 
 5599              		.loc 1 70 38 view .LVU1590
  70:../libDaisy/src/hid/switch.h **** 
 5600              		.loc 1 70 54 is_stmt 0 view .LVU1591
 5601 0020 90F8B430 		ldrb	r3, [r0, #180]	@ zero_extendqisi2
 5602 0024 43B1     		cbz	r3, .L252
 5603              	.LVL415:
  70:../libDaisy/src/hid/switch.h **** 
 5604              		.loc 1 70 54 view .LVU1592
 5605              	.LBE763:
ARM GAS  /var/folders/2p/02m_5p7958535cp2tpgps0400000gn/T//cchBTf64.s 			page 161


 5606              	.LBE762:
 197:GrannyChordApp.cpp ****     last_action_time_ = time_now;
 5607              		.loc 3 197 3 view .LVU1593
 5608 0026 90F8BA30 		ldrb	r3, [r0, #186]	@ zero_extendqisi2
 5609 002a 7F2B     		cmp	r3, #127
 198:GrannyChordApp.cpp ****     btn1_long_press_fired_ = false;
 5610              		.loc 3 198 5 is_stmt 1 view .LVU1594
 199:GrannyChordApp.cpp ****   }
 5611              		.loc 3 199 28 is_stmt 0 view .LVU1595
 5612 002c 02BF     		ittt	eq
 5613 002e 0023     		moveq	r3, #0
 198:GrannyChordApp.cpp ****     btn1_long_press_fired_ = false;
 5614              		.loc 3 198 23 view .LVU1596
 5615 0030 C4F84462 		streq	r6, [r4, #580]
 199:GrannyChordApp.cpp ****   }
 5616              		.loc 3 199 5 is_stmt 1 view .LVU1597
 199:GrannyChordApp.cpp ****   }
 5617              		.loc 3 199 28 is_stmt 0 view .LVU1598
 5618 0034 84F84832 		strbeq	r3, [r4, #584]
 5619              	.L252:
 203:GrannyChordApp.cpp ****     float held_time = pod_.button1.TimeHeldMs();
 5620              		.loc 3 203 3 is_stmt 1 view .LVU1599
 5621              	.LVL416:
 5622              	.LBB764:
 5623              	.LBB765:
 5624              	.LBI765:
  79:../libDaisy/src/hid/switch.h **** 
 5625              		.loc 1 79 17 view .LVU1600
 5626              	.LBB766:
  79:../libDaisy/src/hid/switch.h **** 
 5627              		.loc 1 79 35 view .LVU1601
  79:../libDaisy/src/hid/switch.h **** 
 5628              		.loc 1 79 35 is_stmt 0 view .LVU1602
 5629              	.LBE766:
 5630              	.LBE765:
 203:GrannyChordApp.cpp ****     float held_time = pod_.button1.TimeHeldMs();
 5631              		.loc 3 203 3 view .LVU1603
 5632 0038 90F8BA30 		ldrb	r3, [r0, #186]	@ zero_extendqisi2
 5633 003c FF2B     		cmp	r3, #255
 5634 003e 11D1     		bne	.L254
 5635              	.LBB767:
 204:GrannyChordApp.cpp ****     if (held_time > LONG_PRESS_TIME && !btn1_long_press_fired_){
 5636              		.loc 3 204 5 is_stmt 1 view .LVU1604
 204:GrannyChordApp.cpp ****     if (held_time > LONG_PRESS_TIME && !btn1_long_press_fired_){
 5637              		.loc 3 204 46 is_stmt 0 view .LVU1605
 5638 0040 B030     		adds	r0, r0, #176
 5639 0042 FFF7FEFF 		bl	_ZNK5daisy6Switch10TimeHeldMsEv
 5640              	.LVL417:
 205:GrannyChordApp.cpp ****       HandleButton1LongPress();
 5641              		.loc 3 205 5 is_stmt 1 view .LVU1606
 5642 0046 DFED567A 		vldr.32	s15, .L287
 5643 004a B4EEE70A 		vcmpe.f32	s0, s15
 5644 004e F1EE10FA 		vmrs	APSR_nzcv, FPSCR
 5645 0052 07DD     		ble	.L254
 205:GrannyChordApp.cpp ****       HandleButton1LongPress();
 5646              		.loc 3 205 37 is_stmt 0 discriminator 1 view .LVU1607
 5647 0054 94F84832 		ldrb	r3, [r4, #584]	@ zero_extendqisi2
ARM GAS  /var/folders/2p/02m_5p7958535cp2tpgps0400000gn/T//cchBTf64.s 			page 162


 5648 0058 23B9     		cbnz	r3, .L254
 206:GrannyChordApp.cpp ****       btn1_long_press_fired_ = true;
 5649              		.loc 3 206 7 is_stmt 1 view .LVU1608
 207:GrannyChordApp.cpp ****       last_action_time_ = time_now;
 5650              		.loc 3 207 7 view .LVU1609
 207:GrannyChordApp.cpp ****       last_action_time_ = time_now;
 5651              		.loc 3 207 30 is_stmt 0 view .LVU1610
 5652 005a 0123     		movs	r3, #1
 208:GrannyChordApp.cpp ****     }
 5653              		.loc 3 208 25 view .LVU1611
 5654 005c C4F84462 		str	r6, [r4, #580]
 207:GrannyChordApp.cpp ****       last_action_time_ = time_now;
 5655              		.loc 3 207 30 view .LVU1612
 5656 0060 84F84832 		strb	r3, [r4, #584]
 208:GrannyChordApp.cpp ****     }
 5657              		.loc 3 208 7 is_stmt 1 view .LVU1613
 5658              	.LVL418:
 5659              	.L254:
 208:GrannyChordApp.cpp ****     }
 5660              		.loc 3 208 7 is_stmt 0 view .LVU1614
 5661              	.LBE767:
 5662              	.LBE764:
 213:GrannyChordApp.cpp ****     if (!btn1_long_press_fired_){
 5663              		.loc 3 213 3 is_stmt 1 view .LVU1615
 213:GrannyChordApp.cpp ****     if (!btn1_long_press_fired_){
 5664              		.loc 3 213 7 is_stmt 0 view .LVU1616
 5665 0064 EB69     		ldr	r3, [r5, #28]
 5666              	.LVL419:
 5667              	.LBB768:
 5668              	.LBI768:
  73:../libDaisy/src/hid/switch.h ****     {
 5669              		.loc 1 73 17 is_stmt 1 view .LVU1617
 5670              	.LBB769:
  75:../libDaisy/src/hid/switch.h ****     }
 5671              		.loc 1 75 9 view .LVU1618
  75:../libDaisy/src/hid/switch.h ****     }
 5672              		.loc 1 75 25 is_stmt 0 view .LVU1619
 5673 0066 93F8B420 		ldrb	r2, [r3, #180]	@ zero_extendqisi2
 5674 006a 72B1     		cbz	r2, .L257
 5675              	.LVL420:
  75:../libDaisy/src/hid/switch.h ****     }
 5676              		.loc 1 75 25 view .LVU1620
 5677              	.LBE769:
 5678              	.LBE768:
 213:GrannyChordApp.cpp ****     if (!btn1_long_press_fired_){
 5679              		.loc 3 213 3 view .LVU1621
 5680 006c 93F8BA30 		ldrb	r3, [r3, #186]	@ zero_extendqisi2
 5681 0070 802B     		cmp	r3, #128
 5682 0072 0AD1     		bne	.L257
 214:GrannyChordApp.cpp ****       HandleButton1();
 5683              		.loc 3 214 5 is_stmt 1 view .LVU1622
 5684 0074 94F84832 		ldrb	r3, [r4, #584]	@ zero_extendqisi2
 5685 0078 13B9     		cbnz	r3, .L258
 215:GrannyChordApp.cpp ****     }
 5686              		.loc 3 215 7 view .LVU1623
 5687              	.LVL421:
 5688              	.LBB770:
ARM GAS  /var/folders/2p/02m_5p7958535cp2tpgps0400000gn/T//cchBTf64.s 			page 163


 5689              	.LBI770:
 273:GrannyChordApp.cpp ****   UpdateSynthModeA();
 5690              		.loc 3 273 6 view .LVU1624
 5691              	.LBB771:
 274:GrannyChordApp.cpp **** }
 5692              		.loc 3 274 3 view .LVU1625
 274:GrannyChordApp.cpp **** }
 5693              		.loc 3 274 19 is_stmt 0 view .LVU1626
 5694 007a 2846     		mov	r0, r5
 5695 007c FFF7FEFF 		bl	_ZN14GrannyChordApp16UpdateSynthModeAEv
 5696              	.LVL422:
 5697              	.L258:
 274:GrannyChordApp.cpp **** }
 5698              		.loc 3 274 19 view .LVU1627
 5699              	.LBE771:
 5700              	.LBE770:
 217:GrannyChordApp.cpp ****     btn1_long_press_fired_ = false;
 5701              		.loc 3 217 5 is_stmt 1 view .LVU1628
 218:GrannyChordApp.cpp ****   }
 5702              		.loc 3 218 28 is_stmt 0 view .LVU1629
 5703 0080 0023     		movs	r3, #0
 217:GrannyChordApp.cpp ****     btn1_long_press_fired_ = false;
 5704              		.loc 3 217 23 view .LVU1630
 5705 0082 C4F84462 		str	r6, [r4, #580]
 218:GrannyChordApp.cpp ****   }
 5706              		.loc 3 218 5 is_stmt 1 view .LVU1631
 218:GrannyChordApp.cpp ****   }
 5707              		.loc 3 218 28 is_stmt 0 view .LVU1632
 5708 0086 84F84832 		strb	r3, [r4, #584]
 5709              	.L257:
 222:GrannyChordApp.cpp ****     last_action_time_ = time_now;
 5710              		.loc 3 222 3 is_stmt 1 view .LVU1633
 222:GrannyChordApp.cpp ****     last_action_time_ = time_now;
 5711              		.loc 3 222 7 is_stmt 0 view .LVU1634
 5712 008a E869     		ldr	r0, [r5, #28]
 5713              	.LVL423:
 5714              	.LBB772:
 5715              	.LBI772:
  70:../libDaisy/src/hid/switch.h **** 
 5716              		.loc 1 70 17 is_stmt 1 view .LVU1635
 5717              	.LBB773:
  70:../libDaisy/src/hid/switch.h **** 
 5718              		.loc 1 70 38 view .LVU1636
  70:../libDaisy/src/hid/switch.h **** 
 5719              		.loc 1 70 54 is_stmt 0 view .LVU1637
 5720 008c 90F8C430 		ldrb	r3, [r0, #196]	@ zero_extendqisi2
 5721 0090 43B1     		cbz	r3, .L259
 5722              	.LVL424:
  70:../libDaisy/src/hid/switch.h **** 
 5723              		.loc 1 70 54 view .LVU1638
 5724              	.LBE773:
 5725              	.LBE772:
 222:GrannyChordApp.cpp ****     last_action_time_ = time_now;
 5726              		.loc 3 222 3 view .LVU1639
 5727 0092 90F8CA30 		ldrb	r3, [r0, #202]	@ zero_extendqisi2
 5728 0096 7F2B     		cmp	r3, #127
 223:GrannyChordApp.cpp ****     btn2_long_press_fired_ = false;
ARM GAS  /var/folders/2p/02m_5p7958535cp2tpgps0400000gn/T//cchBTf64.s 			page 164


 5729              		.loc 3 223 5 is_stmt 1 view .LVU1640
 224:GrannyChordApp.cpp ****   }
 5730              		.loc 3 224 28 is_stmt 0 view .LVU1641
 5731 0098 02BF     		ittt	eq
 5732 009a 0023     		moveq	r3, #0
 223:GrannyChordApp.cpp ****     btn2_long_press_fired_ = false;
 5733              		.loc 3 223 23 view .LVU1642
 5734 009c C4F84462 		streq	r6, [r4, #580]
 224:GrannyChordApp.cpp ****   }
 5735              		.loc 3 224 5 is_stmt 1 view .LVU1643
 224:GrannyChordApp.cpp ****   }
 5736              		.loc 3 224 28 is_stmt 0 view .LVU1644
 5737 00a0 84F84932 		strbeq	r3, [r4, #585]
 5738              	.L259:
 228:GrannyChordApp.cpp ****     float held_time = pod_.button2.TimeHeldMs();
 5739              		.loc 3 228 3 is_stmt 1 view .LVU1645
 5740              	.LVL425:
 5741              	.LBB774:
 5742              	.LBB775:
 5743              	.LBI775:
  79:../libDaisy/src/hid/switch.h **** 
 5744              		.loc 1 79 17 view .LVU1646
 5745              	.LBB776:
  79:../libDaisy/src/hid/switch.h **** 
 5746              		.loc 1 79 35 view .LVU1647
  79:../libDaisy/src/hid/switch.h **** 
 5747              		.loc 1 79 35 is_stmt 0 view .LVU1648
 5748              	.LBE776:
 5749              	.LBE775:
 228:GrannyChordApp.cpp ****     float held_time = pod_.button2.TimeHeldMs();
 5750              		.loc 3 228 3 view .LVU1649
 5751 00a4 90F8CA30 		ldrb	r3, [r0, #202]	@ zero_extendqisi2
 5752 00a8 FF2B     		cmp	r3, #255
 5753 00aa 11D1     		bne	.L261
 5754              	.LBB777:
 229:GrannyChordApp.cpp ****     if (held_time > LONG_PRESS_TIME && !btn2_long_press_fired_){
 5755              		.loc 3 229 5 is_stmt 1 view .LVU1650
 229:GrannyChordApp.cpp ****     if (held_time > LONG_PRESS_TIME && !btn2_long_press_fired_){
 5756              		.loc 3 229 46 is_stmt 0 view .LVU1651
 5757 00ac C030     		adds	r0, r0, #192
 5758 00ae FFF7FEFF 		bl	_ZNK5daisy6Switch10TimeHeldMsEv
 5759              	.LVL426:
 230:GrannyChordApp.cpp ****       HandleButton2LongPress();
 5760              		.loc 3 230 5 is_stmt 1 view .LVU1652
 5761 00b2 DFED3B7A 		vldr.32	s15, .L287
 5762 00b6 B4EEE70A 		vcmpe.f32	s0, s15
 5763 00ba F1EE10FA 		vmrs	APSR_nzcv, FPSCR
 5764 00be 07DD     		ble	.L261
 230:GrannyChordApp.cpp ****       HandleButton2LongPress();
 5765              		.loc 3 230 37 is_stmt 0 discriminator 1 view .LVU1653
 5766 00c0 94F84932 		ldrb	r3, [r4, #585]	@ zero_extendqisi2
 5767 00c4 23B9     		cbnz	r3, .L261
 231:GrannyChordApp.cpp ****       btn2_long_press_fired_ = true;
 5768              		.loc 3 231 7 is_stmt 1 view .LVU1654
 232:GrannyChordApp.cpp ****       last_action_time_ = time_now;
 5769              		.loc 3 232 7 view .LVU1655
 232:GrannyChordApp.cpp ****       last_action_time_ = time_now;
ARM GAS  /var/folders/2p/02m_5p7958535cp2tpgps0400000gn/T//cchBTf64.s 			page 165


 5770              		.loc 3 232 30 is_stmt 0 view .LVU1656
 5771 00c6 0123     		movs	r3, #1
 233:GrannyChordApp.cpp ****     }
 5772              		.loc 3 233 25 view .LVU1657
 5773 00c8 C4F84462 		str	r6, [r4, #580]
 232:GrannyChordApp.cpp ****       last_action_time_ = time_now;
 5774              		.loc 3 232 30 view .LVU1658
 5775 00cc 84F84932 		strb	r3, [r4, #585]
 233:GrannyChordApp.cpp ****     }
 5776              		.loc 3 233 7 is_stmt 1 view .LVU1659
 5777              	.LVL427:
 5778              	.L261:
 233:GrannyChordApp.cpp ****     }
 5779              		.loc 3 233 7 is_stmt 0 view .LVU1660
 5780              	.LBE777:
 5781              	.LBE774:
 238:GrannyChordApp.cpp ****     if (!btn2_long_press_fired_){
 5782              		.loc 3 238 3 is_stmt 1 view .LVU1661
 238:GrannyChordApp.cpp ****     if (!btn2_long_press_fired_){
 5783              		.loc 3 238 7 is_stmt 0 view .LVU1662
 5784 00d0 EB69     		ldr	r3, [r5, #28]
 5785              	.LVL428:
 5786              	.LBB778:
 5787              	.LBI778:
  73:../libDaisy/src/hid/switch.h ****     {
 5788              		.loc 1 73 17 is_stmt 1 view .LVU1663
 5789              	.LBB779:
  75:../libDaisy/src/hid/switch.h ****     }
 5790              		.loc 1 75 9 view .LVU1664
  75:../libDaisy/src/hid/switch.h ****     }
 5791              		.loc 1 75 25 is_stmt 0 view .LVU1665
 5792 00d2 93F8C420 		ldrb	r2, [r3, #196]	@ zero_extendqisi2
 5793 00d6 72B1     		cbz	r2, .L264
 5794              	.LVL429:
  75:../libDaisy/src/hid/switch.h ****     }
 5795              		.loc 1 75 25 view .LVU1666
 5796              	.LBE779:
 5797              	.LBE778:
 238:GrannyChordApp.cpp ****     if (!btn2_long_press_fired_){
 5798              		.loc 3 238 3 view .LVU1667
 5799 00d8 93F8CA30 		ldrb	r3, [r3, #202]	@ zero_extendqisi2
 5800 00dc 802B     		cmp	r3, #128
 5801 00de 0AD1     		bne	.L264
 239:GrannyChordApp.cpp ****       HandleButton2();
 5802              		.loc 3 239 5 is_stmt 1 view .LVU1668
 5803 00e0 94F84932 		ldrb	r3, [r4, #585]	@ zero_extendqisi2
 5804 00e4 13B9     		cbnz	r3, .L265
 240:GrannyChordApp.cpp ****     }
 5805              		.loc 3 240 7 view .LVU1669
 5806              	.LVL430:
 5807              	.LBB780:
 5808              	.LBI780:
 278:GrannyChordApp.cpp ****     UpdateSynthModeB();
 5809              		.loc 3 278 6 view .LVU1670
 5810              	.LBB781:
 279:GrannyChordApp.cpp **** }
 5811              		.loc 3 279 5 view .LVU1671
ARM GAS  /var/folders/2p/02m_5p7958535cp2tpgps0400000gn/T//cchBTf64.s 			page 166


 279:GrannyChordApp.cpp **** }
 5812              		.loc 3 279 21 is_stmt 0 view .LVU1672
 5813 00e6 2846     		mov	r0, r5
 5814 00e8 FFF7FEFF 		bl	_ZN14GrannyChordApp16UpdateSynthModeBEv
 5815              	.LVL431:
 5816              	.L265:
 279:GrannyChordApp.cpp **** }
 5817              		.loc 3 279 21 view .LVU1673
 5818              	.LBE781:
 5819              	.LBE780:
 242:GrannyChordApp.cpp ****     btn2_long_press_fired_ = false;
 5820              		.loc 3 242 5 is_stmt 1 view .LVU1674
 243:GrannyChordApp.cpp ****   }
 5821              		.loc 3 243 28 is_stmt 0 view .LVU1675
 5822 00ec 0023     		movs	r3, #0
 242:GrannyChordApp.cpp ****     btn2_long_press_fired_ = false;
 5823              		.loc 3 242 23 view .LVU1676
 5824 00ee C4F84462 		str	r6, [r4, #580]
 243:GrannyChordApp.cpp ****   }
 5825              		.loc 3 243 5 is_stmt 1 view .LVU1677
 243:GrannyChordApp.cpp ****   }
 5826              		.loc 3 243 28 is_stmt 0 view .LVU1678
 5827 00f2 84F84932 		strb	r3, [r4, #585]
 5828              	.L264:
 247:GrannyChordApp.cpp ****     float heldTime1 = pod_.button1.TimeHeldMs();
 5829              		.loc 3 247 3 is_stmt 1 view .LVU1679
 5830              	.LBB782:
 247:GrannyChordApp.cpp ****     float heldTime1 = pod_.button1.TimeHeldMs();
 5831              		.loc 3 247 7 is_stmt 0 view .LVU1680
 5832 00f6 E869     		ldr	r0, [r5, #28]
 5833              	.LVL432:
 5834              	.LBB783:
 5835              	.LBI783:
  79:../libDaisy/src/hid/switch.h **** 
 5836              		.loc 1 79 17 is_stmt 1 view .LVU1681
 5837              	.LBB784:
  79:../libDaisy/src/hid/switch.h **** 
 5838              		.loc 1 79 35 view .LVU1682
  79:../libDaisy/src/hid/switch.h **** 
 5839              		.loc 1 79 35 is_stmt 0 view .LVU1683
 5840              	.LBE784:
 5841              	.LBE783:
 247:GrannyChordApp.cpp ****     float heldTime1 = pod_.button1.TimeHeldMs();
 5842              		.loc 3 247 30 view .LVU1684
 5843 00f8 90F8BA30 		ldrb	r3, [r0, #186]	@ zero_extendqisi2
 5844 00fc FF2B     		cmp	r3, #255
 5845 00fe 16D1     		bne	.L266
 5846              	.LVL433:
 5847              	.LBB785:
 5848              	.LBI785:
  79:../libDaisy/src/hid/switch.h **** 
 5849              		.loc 1 79 17 is_stmt 1 discriminator 1 view .LVU1685
 5850              	.LBB786:
  79:../libDaisy/src/hid/switch.h **** 
 5851              		.loc 1 79 35 discriminator 1 view .LVU1686
  79:../libDaisy/src/hid/switch.h **** 
 5852              		.loc 1 79 35 is_stmt 0 discriminator 1 view .LVU1687
ARM GAS  /var/folders/2p/02m_5p7958535cp2tpgps0400000gn/T//cchBTf64.s 			page 167


 5853              	.LBE786:
 5854              	.LBE785:
 247:GrannyChordApp.cpp ****     float heldTime1 = pod_.button1.TimeHeldMs();
 5855              		.loc 3 247 30 discriminator 1 view .LVU1688
 5856 0100 90F8CA30 		ldrb	r3, [r0, #202]	@ zero_extendqisi2
 5857 0104 FF2B     		cmp	r3, #255
 5858 0106 12D1     		bne	.L266
 5859              	.LBB787:
 248:GrannyChordApp.cpp ****     float heldTime2 = pod_.button2.TimeHeldMs();
 5860              		.loc 3 248 5 is_stmt 1 view .LVU1689
 248:GrannyChordApp.cpp ****     float heldTime2 = pod_.button2.TimeHeldMs();
 5861              		.loc 3 248 46 is_stmt 0 view .LVU1690
 5862 0108 B030     		adds	r0, r0, #176
 5863 010a FFF7FEFF 		bl	_ZNK5daisy6Switch10TimeHeldMsEv
 5864              	.LVL434:
 249:GrannyChordApp.cpp ****     if (heldTime1 > LONG_PRESS_TIME &&
 5865              		.loc 3 249 46 view .LVU1691
 5866 010e E869     		ldr	r0, [r5, #28]
 248:GrannyChordApp.cpp ****     float heldTime2 = pod_.button2.TimeHeldMs();
 5867              		.loc 3 248 46 view .LVU1692
 5868 0110 B0EE408A 		vmov.f32	s16, s0
 5869              	.LVL435:
 249:GrannyChordApp.cpp ****     if (heldTime1 > LONG_PRESS_TIME &&
 5870              		.loc 3 249 5 is_stmt 1 view .LVU1693
 249:GrannyChordApp.cpp ****     if (heldTime1 > LONG_PRESS_TIME &&
 5871              		.loc 3 249 46 is_stmt 0 view .LVU1694
 5872 0114 C030     		adds	r0, r0, #192
 5873 0116 FFF7FEFF 		bl	_ZNK5daisy6Switch10TimeHeldMsEv
 5874              	.LVL436:
 250:GrannyChordApp.cpp ****         heldTime2 > LONG_PRESS_TIME &&
 5875              		.loc 3 250 5 is_stmt 1 view .LVU1695
 5876 011a DFED217A 		vldr.32	s15, .L287
 5877 011e B4EEE78A 		vcmpe.f32	s16, s15
 5878 0122 F1EE10FA 		vmrs	APSR_nzcv, FPSCR
 5879 0126 06DC     		bgt	.L267
 5880              	.LVL437:
 5881              	.L249:
 250:GrannyChordApp.cpp ****         heldTime2 > LONG_PRESS_TIME &&
 5882              		.loc 3 250 5 is_stmt 0 view .LVU1696
 5883              	.LBE787:
 5884              	.LBE782:
 270:GrannyChordApp.cpp **** 
 5885              		.loc 3 270 1 view .LVU1697
 5886 0128 BDEC028B 		vldm	sp!, {d8}
 5887              		.cfi_remember_state
 5888              		.cfi_restore 80
 5889              		.cfi_restore 81
 5890              		.cfi_def_cfa_offset 16
 5891 012c 70BD     		pop	{r4, r5, r6, pc}
 5892              	.LVL438:
 5893              	.L266:
 5894              		.cfi_restore_state
 5895              	.LBB803:
 268:GrannyChordApp.cpp ****   }
 5896              		.loc 3 268 5 is_stmt 1 discriminator 4 view .LVU1698
 268:GrannyChordApp.cpp ****   }
 5897              		.loc 3 268 33 is_stmt 0 discriminator 4 view .LVU1699
ARM GAS  /var/folders/2p/02m_5p7958535cp2tpgps0400000gn/T//cchBTf64.s 			page 168


 5898 012e 0023     		movs	r3, #0
 5899 0130 84F84A32 		strb	r3, [r4, #586]
 5900 0134 F8E7     		b	.L249
 5901              	.LVL439:
 5902              	.L267:
 5903              	.LBB802:
 250:GrannyChordApp.cpp ****         heldTime2 > LONG_PRESS_TIME &&
 5904              		.loc 3 250 37 discriminator 1 view .LVU1700
 5905 0136 B4EEE70A 		vcmpe.f32	s0, s15
 5906 013a F1EE10FA 		vmrs	APSR_nzcv, FPSCR
 5907 013e F3DD     		ble	.L249
 251:GrannyChordApp.cpp ****         !both_btns_long_press_fired_) 
 5908              		.loc 3 251 37 view .LVU1701
 5909 0140 94F84A32 		ldrb	r3, [r4, #586]	@ zero_extendqisi2
 5910 0144 002B     		cmp	r3, #0
 5911 0146 EFD1     		bne	.L249
 254:GrannyChordApp.cpp ****         recording_out_ = true;
 5912              		.loc 3 254 7 is_stmt 1 view .LVU1702
 5913 0148 94F83032 		ldrb	r3, [r4, #560]	@ zero_extendqisi2
 5914 014c 73B9     		cbnz	r3, .L270
 255:GrannyChordApp.cpp ****         DebugPrint(pod_,"now recording out!");
 5915              		.loc 3 255 9 view .LVU1703
 255:GrannyChordApp.cpp ****         DebugPrint(pod_,"now recording out!");
 5916              		.loc 3 255 24 is_stmt 0 view .LVU1704
 5917 014e 0123     		movs	r3, #1
 5918              	.LBB788:
 5919              	.LBB789:
 5920              		.loc 5 128 23 view .LVU1705
 5921 0150 1448     		ldr	r0, .L287+4
 5922              	.LBE789:
 5923              	.LBE788:
 255:GrannyChordApp.cpp ****         DebugPrint(pod_,"now recording out!");
 5924              		.loc 3 255 24 view .LVU1706
 5925 0152 84F83032 		strb	r3, [r4, #560]
 256:GrannyChordApp.cpp ****         RecordOutToSD();
 5926              		.loc 3 256 9 is_stmt 1 view .LVU1707
 256:GrannyChordApp.cpp ****         RecordOutToSD();
 5927              		.loc 3 256 9 view .LVU1708
 5928              	.LVL440:
 5929              	.LBB791:
 5930              	.LBI788:
 126:../libDaisy/src/daisy_seed.h ****     {
 5931              		.loc 5 126 17 view .LVU1709
 5932              	.LBB790:
 5933              		.loc 5 128 23 is_stmt 0 view .LVU1710
 5934 0156 FFF7FEFF 		bl	_ZN5daisy6LoggerILNS_17LoggerDestinationE1EE9PrintLineEPKcz
 5935              	.LVL441:
 5936              		.loc 5 128 23 view .LVU1711
 5937              	.LBE790:
 5938              	.LBE791:
 257:GrannyChordApp.cpp ****       } 
 5939              		.loc 3 257 9 is_stmt 1 view .LVU1712
 257:GrannyChordApp.cpp ****       } 
 5940              		.loc 3 257 22 is_stmt 0 view .LVU1713
 5941 015a 2846     		mov	r0, r5
 5942 015c FFF7FEFF 		bl	_ZN14GrannyChordApp13RecordOutToSDEv
 5943              	.LVL442:
ARM GAS  /var/folders/2p/02m_5p7958535cp2tpgps0400000gn/T//cchBTf64.s 			page 169


 5944              	.L271:
 263:GrannyChordApp.cpp ****       last_action_time_ = time_now;
 5945              		.loc 3 263 7 is_stmt 1 view .LVU1714
 263:GrannyChordApp.cpp ****       last_action_time_ = time_now;
 5946              		.loc 3 263 35 is_stmt 0 view .LVU1715
 5947 0160 0123     		movs	r3, #1
 264:GrannyChordApp.cpp ****     }
 5948              		.loc 3 264 25 view .LVU1716
 5949 0162 C4F84462 		str	r6, [r4, #580]
 263:GrannyChordApp.cpp ****       last_action_time_ = time_now;
 5950              		.loc 3 263 35 view .LVU1717
 5951 0166 84F84A32 		strb	r3, [r4, #586]
 264:GrannyChordApp.cpp ****     }
 5952              		.loc 3 264 7 is_stmt 1 view .LVU1718
 5953 016a DDE7     		b	.L249
 5954              	.LVL443:
 5955              	.L270:
 260:GrannyChordApp.cpp ****         FinishRecording();
 5956              		.loc 3 260 9 view .LVU1719
 260:GrannyChordApp.cpp ****         FinishRecording();
 5957              		.loc 3 260 9 view .LVU1720
 5958              	.LBB792:
 5959              	.LBI792:
 175:../libDaisy/src/util/WavWriter.h ****     {
 5960              		.loc 9 175 18 view .LVU1721
 175:../libDaisy/src/util/WavWriter.h ****     {
 5961              		.loc 9 175 18 is_stmt 0 view .LVU1722
 5962              	.LBE792:
 5963              	.LBB795:
 5964              	.LBI795:
 126:../libDaisy/src/daisy_seed.h ****     {
 5965              		.loc 5 126 17 is_stmt 1 view .LVU1723
 5966              	.LBE795:
 5967              	.LBB798:
 5968              	.LBB793:
 177:../libDaisy/src/util/WavWriter.h ****     }
 5969              		.loc 9 177 23 is_stmt 0 view .LVU1724
 5970 016c 05F58043 		add	r3, r5, #16384
 5971              	.LBE793:
 5972              	.LBE798:
 5973              	.LBB799:
 5974              	.LBB796:
 5975              		.loc 5 128 23 view .LVU1725
 5976 0170 0D48     		ldr	r0, .L287+8
 5977              	.LBE796:
 5978              	.LBE799:
 5979              	.LBB800:
 5980              	.LBB794:
 177:../libDaisy/src/util/WavWriter.h ****     }
 5981              		.loc 9 177 16 view .LVU1726
 5982 0172 D3F8E02F 		ldr	r2, [r3, #4064]
 177:../libDaisy/src/util/WavWriter.h ****     }
 5983              		.loc 9 177 48 view .LVU1727
 5984 0176 03F6B473 		addw	r3, r3, #4020
 177:../libDaisy/src/util/WavWriter.h ****     }
 5985              		.loc 9 177 16 view .LVU1728
 5986 017a 07EE902A 		vmov	s15, r2	@ int
ARM GAS  /var/folders/2p/02m_5p7958535cp2tpgps0400000gn/T//cchBTf64.s 			page 170


 177:../libDaisy/src/util/WavWriter.h ****     }
 5987              		.loc 9 177 48 view .LVU1729
 5988 017e D3ED0D6A 		vldr.32	s13, [r3, #52]
 177:../libDaisy/src/util/WavWriter.h ****     }
 5989              		.loc 9 177 16 view .LVU1730
 5990 0182 F8EE677A 		vcvt.f32.u32	s15, s15
 177:../libDaisy/src/util/WavWriter.h ****     }
 5991              		.loc 9 177 48 view .LVU1731
 5992 0186 87EEA67A 		vdiv.f32	s14, s15, s13
 5993              	.LBE794:
 5994              	.LBE800:
 5995              	.LBB801:
 5996              	.LBB797:
 5997              		.loc 5 128 23 view .LVU1732
 5998 018a B7EEC77A 		vcvt.f64.f32	d7, s14
 5999 018e 53EC172B 		vmov	r2, r3, d7
 6000 0192 FFF7FEFF 		bl	_ZN5daisy6LoggerILNS_17LoggerDestinationE1EE9PrintLineEPKcz
 6001              	.LVL444:
 6002              		.loc 5 128 23 view .LVU1733
 6003              	.LBE797:
 6004              	.LBE801:
 261:GrannyChordApp.cpp ****       }
 6005              		.loc 3 261 9 is_stmt 1 view .LVU1734
 261:GrannyChordApp.cpp ****       }
 6006              		.loc 3 261 24 is_stmt 0 view .LVU1735
 6007 0196 2846     		mov	r0, r5
 6008 0198 FFF7FEFF 		bl	_ZN14GrannyChordApp15FinishRecordingEv
 6009              	.LVL445:
 6010 019c E0E7     		b	.L271
 6011              	.L288:
 6012 019e 00BF     		.align	2
 6013              	.L287:
 6014 01a0 00007A44 		.word	1148846080
 6015 01a4 00000000 		.word	.LC35
 6016 01a8 13000000 		.word	.LC36
 6017              	.LBE802:
 6018              	.LBE803:
 6019              		.cfi_endproc
 6020              	.LFE4920:
 6022              		.section	.rodata._ZN14GrannyChordApp8UpdateUIEv.str1.1,"aMS",%progbits,1
 6023              	.LC37:
 6024 0000 73776974 		.ascii	"switching states\000"
 6024      6368696E 
 6024      67207374 
 6024      61746573 
 6024      00
 6025              		.section	.text._ZN14GrannyChordApp8UpdateUIEv,"ax",%progbits
 6026              		.align	1
 6027              		.global	_ZN14GrannyChordApp8UpdateUIEv
 6028              		.syntax unified
 6029              		.thumb
 6030              		.thumb_func
 6032              	_ZN14GrannyChordApp8UpdateUIEv:
 6033              	.LVL446:
 6034              	.LFB4915:
  78:GrannyChordApp.cpp ****   pod_.ProcessDigitalControls();
 6035              		.loc 3 78 32 is_stmt 1 view -0
ARM GAS  /var/folders/2p/02m_5p7958535cp2tpgps0400000gn/T//cchBTf64.s 			page 171


 6036              		.cfi_startproc
 6037              		@ args = 0, pretend = 0, frame = 0
 6038              		@ frame_needed = 0, uses_anonymous_args = 0
  79:GrannyChordApp.cpp **** 
 6039              		.loc 3 79 3 view .LVU1737
  78:GrannyChordApp.cpp ****   pod_.ProcessDigitalControls();
 6040              		.loc 3 78 32 is_stmt 0 view .LVU1738
 6041 0000 10B5     		push	{r4, lr}
 6042              		.cfi_def_cfa_offset 8
 6043              		.cfi_offset 4, -8
 6044              		.cfi_offset 14, -4
  78:GrannyChordApp.cpp ****   pod_.ProcessDigitalControls();
 6045              		.loc 3 78 32 view .LVU1739
 6046 0002 0446     		mov	r4, r0
  79:GrannyChordApp.cpp **** 
 6047              		.loc 3 79 30 view .LVU1740
 6048 0004 C069     		ldr	r0, [r0, #28]
 6049              	.LVL447:
  79:GrannyChordApp.cpp **** 
 6050              		.loc 3 79 30 view .LVU1741
 6051 0006 FFF7FEFF 		bl	_ZN5daisy8DaisyPod22ProcessDigitalControlsEv
 6052              	.LVL448:
  81:GrannyChordApp.cpp ****   else if (pod_.encoder.FallingEdge()) HandleEncoderPressed();
 6053              		.loc 3 81 3 is_stmt 1 view .LVU1742
 6054              	.LBB814:
 6055              	.LBI814:
  43:../libDaisy/src/hid/encoder.h **** 
  44:../libDaisy/src/hid/encoder.h ****     /** Returns true while the encoder is held down.*/
  45:../libDaisy/src/hid/encoder.h ****     inline bool Pressed() const { return sw_.Pressed(); }
  46:../libDaisy/src/hid/encoder.h **** 
  47:../libDaisy/src/hid/encoder.h ****     /** Returns the time in milliseconds that the encoder has been held down. */
  48:../libDaisy/src/hid/encoder.h ****     inline float TimeHeldMs() const { return sw_.TimeHeldMs(); }
 6056              		.loc 7 48 18 view .LVU1743
 6057              	.LBB815:
 6058              		.loc 7 48 39 view .LVU1744
 6059              		.loc 7 48 60 is_stmt 0 view .LVU1745
 6060 000a E069     		ldr	r0, [r4, #28]
 6061 000c 4830     		adds	r0, r0, #72
 6062 000e FFF7FEFF 		bl	_ZNK5daisy6Switch10TimeHeldMsEv
 6063              	.LVL449:
 6064              		.loc 7 48 60 view .LVU1746
 6065              	.LBE815:
 6066              	.LBE814:
  81:GrannyChordApp.cpp ****   else if (pod_.encoder.FallingEdge()) HandleEncoderPressed();
 6067              		.loc 3 81 3 view .LVU1747
 6068 0012 DFED1E7A 		vldr.32	s15, .L307
 6069 0016 B4EEE70A 		vcmpe.f32	s0, s15
 6070 001a F1EE10FA 		vmrs	APSR_nzcv, FPSCR
 6071 001e 26DD     		ble	.L306
  81:GrannyChordApp.cpp ****   else if (pod_.encoder.FallingEdge()) HandleEncoderPressed();
 6072              		.loc 3 81 44 is_stmt 1 discriminator 1 view .LVU1748
  81:GrannyChordApp.cpp ****   else if (pod_.encoder.FallingEdge()) HandleEncoderPressed();
 6073              		.loc 3 81 66 is_stmt 0 discriminator 1 view .LVU1749
 6074 0020 2046     		mov	r0, r4
 6075 0022 FFF7FEFF 		bl	_ZN14GrannyChordApp22HandleEncoderLongPressEv
 6076              	.LVL450:
 6077              	.L292:
ARM GAS  /var/folders/2p/02m_5p7958535cp2tpgps0400000gn/T//cchBTf64.s 			page 172


  84:GrannyChordApp.cpp ****     ButtonHandler();
 6078              		.loc 3 84 3 is_stmt 1 view .LVU1750
 6079 0026 D4F87832 		ldr	r3, [r4, #632]
 6080 002a 022B     		cmp	r3, #2
 6081 002c 02D1     		bne	.L293
  85:GrannyChordApp.cpp ****   }
 6082              		.loc 3 85 5 view .LVU1751
  85:GrannyChordApp.cpp ****   }
 6083              		.loc 3 85 18 is_stmt 0 view .LVU1752
 6084 002e 2046     		mov	r0, r4
 6085 0030 FFF7FEFF 		bl	_ZN14GrannyChordApp13ButtonHandlerEv
 6086              	.LVL451:
 6087              	.L293:
  88:GrannyChordApp.cpp ****   if (encoder_inc!=0){
 6088              		.loc 3 88 3 is_stmt 1 view .LVU1753
  88:GrannyChordApp.cpp ****   if (encoder_inc!=0){
 6089              		.loc 3 88 25 is_stmt 0 view .LVU1754
 6090 0034 E369     		ldr	r3, [r4, #28]
 6091              	.LVL452:
 6092              	.LBB816:
 6093              	.LBI816:
  36:../libDaisy/src/hid/encoder.h **** 
 6094              		.loc 7 36 20 is_stmt 1 view .LVU1755
 6095              	.LBB817:
  36:../libDaisy/src/hid/encoder.h **** 
 6096              		.loc 7 36 40 view .LVU1756
  36:../libDaisy/src/hid/encoder.h **** 
 6097              		.loc 7 36 56 is_stmt 0 view .LVU1757
 6098 0036 93F84420 		ldrb	r2, [r3, #68]	@ zero_extendqisi2
 6099 003a 22B1     		cbz	r2, .L294
 6100 003c 596E     		ldr	r1, [r3, #100]
 6101              	.LVL453:
  36:../libDaisy/src/hid/encoder.h **** 
 6102              		.loc 7 36 56 view .LVU1758
 6103              	.LBE817:
 6104              	.LBE816:
  89:GrannyChordApp.cpp ****     HandleEncoderIncrement(encoder_inc);
 6105              		.loc 3 89 3 is_stmt 1 view .LVU1759
 6106 003e 11B1     		cbz	r1, .L294
  90:GrannyChordApp.cpp ****   }
 6107              		.loc 3 90 5 view .LVU1760
  90:GrannyChordApp.cpp ****   }
 6108              		.loc 3 90 27 is_stmt 0 view .LVU1761
 6109 0040 2046     		mov	r0, r4
 6110 0042 FFF7FEFF 		bl	_ZN14GrannyChordApp22HandleEncoderIncrementEi
 6111              	.LVL454:
 6112              	.L294:
  92:GrannyChordApp.cpp ****     #ifdef DEBUG_MODE
 6113              		.loc 3 92 3 is_stmt 1 view .LVU1762
 6114 0046 D4E99E13 		ldrd	r1, r3, [r4, #632]
 6115 004a 9942     		cmp	r1, r3
 6116 004c 1CD0     		beq	.L289
  94:GrannyChordApp.cpp ****     DebugPrint(pod_, "switching states");
 6117              		.loc 3 94 5 view .LVU1763
  94:GrannyChordApp.cpp ****     DebugPrint(pod_, "switching states");
 6118              		.loc 3 94 20 is_stmt 0 view .LVU1764
 6119 004e 2046     		mov	r0, r4
ARM GAS  /var/folders/2p/02m_5p7958535cp2tpgps0400000gn/T//cchBTf64.s 			page 173


 6120 0050 FFF7FEFF 		bl	_ZN14GrannyChordApp15DebugPrintStateE8AppState
 6121              	.LVL455:
  95:GrannyChordApp.cpp ****     DebugPrintState(next_state_);
 6122              		.loc 3 95 5 is_stmt 1 view .LVU1765
  95:GrannyChordApp.cpp ****     DebugPrintState(next_state_);
 6123              		.loc 3 95 5 view .LVU1766
 6124              	.LBB818:
 6125              	.LBI818:
 126:../libDaisy/src/daisy_seed.h ****     {
 6126              		.loc 5 126 17 view .LVU1767
 6127              	.LBB819:
 6128              		.loc 5 128 23 is_stmt 0 view .LVU1768
 6129 0054 0E48     		ldr	r0, .L307+4
 6130 0056 FFF7FEFF 		bl	_ZN5daisy6LoggerILNS_17LoggerDestinationE1EE9PrintLineEPKcz
 6131              	.LVL456:
 6132              		.loc 5 128 23 view .LVU1769
 6133              	.LBE819:
 6134              	.LBE818:
  96:GrannyChordApp.cpp ****     #endif
 6135              		.loc 3 96 5 is_stmt 1 view .LVU1770
  96:GrannyChordApp.cpp ****     #endif
 6136              		.loc 3 96 20 is_stmt 0 view .LVU1771
 6137 005a 2046     		mov	r0, r4
 6138 005c D4F87C12 		ldr	r1, [r4, #636]
 6139 0060 FFF7FEFF 		bl	_ZN14GrannyChordApp15DebugPrintStateE8AppState
 6140              	.LVL457:
  98:GrannyChordApp.cpp ****   }
 6141              		.loc 3 98 5 is_stmt 1 view .LVU1772
  98:GrannyChordApp.cpp ****   }
 6142              		.loc 3 98 22 is_stmt 0 view .LVU1773
 6143 0064 2046     		mov	r0, r4
 100:GrannyChordApp.cpp **** 
 6144              		.loc 3 100 1 view .LVU1774
 6145 0066 BDE81040 		pop	{r4, lr}
 6146              		.cfi_remember_state
 6147              		.cfi_restore 14
 6148              		.cfi_restore 4
 6149              		.cfi_def_cfa_offset 0
 6150              	.LVL458:
  98:GrannyChordApp.cpp ****   }
 6151              		.loc 3 98 22 view .LVU1775
 6152 006a FFF7FEBF 		b	_ZN14GrannyChordApp17HandleStateChangeEv
 6153              	.LVL459:
 6154              	.L306:
 6155              		.cfi_restore_state
  82:GrannyChordApp.cpp **** 
 6156              		.loc 3 82 8 is_stmt 1 view .LVU1776
  82:GrannyChordApp.cpp **** 
 6157              		.loc 3 82 12 is_stmt 0 view .LVU1777
 6158 006e E369     		ldr	r3, [r4, #28]
 6159              	.LVL460:
 6160              	.LBB820:
 6161              	.LBI820:
  42:../libDaisy/src/hid/encoder.h **** 
 6162              		.loc 7 42 17 is_stmt 1 view .LVU1778
 6163              	.LBE820:
  42:../libDaisy/src/hid/encoder.h **** 
ARM GAS  /var/folders/2p/02m_5p7958535cp2tpgps0400000gn/T//cchBTf64.s 			page 174


 6164              		.loc 7 42 39 view .LVU1779
 6165              	.LBB823:
 6166              	.LBB821:
 6167              	.LBI821:
  73:../libDaisy/src/hid/switch.h ****     {
 6168              		.loc 1 73 17 view .LVU1780
 6169              	.LBB822:
  75:../libDaisy/src/hid/switch.h ****     }
 6170              		.loc 1 75 9 view .LVU1781
  75:../libDaisy/src/hid/switch.h ****     }
 6171              		.loc 1 75 25 is_stmt 0 view .LVU1782
 6172 0070 93F84C20 		ldrb	r2, [r3, #76]	@ zero_extendqisi2
 6173 0074 002A     		cmp	r2, #0
 6174 0076 D6D0     		beq	.L292
 6175              	.LVL461:
  75:../libDaisy/src/hid/switch.h ****     }
 6176              		.loc 1 75 25 view .LVU1783
 6177              	.LBE822:
 6178              	.LBE821:
 6179              	.LBE823:
  82:GrannyChordApp.cpp **** 
 6180              		.loc 3 82 8 view .LVU1784
 6181 0078 93F85230 		ldrb	r3, [r3, #82]	@ zero_extendqisi2
 6182 007c 802B     		cmp	r3, #128
 6183 007e D2D1     		bne	.L292
  82:GrannyChordApp.cpp **** 
 6184              		.loc 3 82 40 is_stmt 1 discriminator 1 view .LVU1785
  82:GrannyChordApp.cpp **** 
 6185              		.loc 3 82 60 is_stmt 0 discriminator 1 view .LVU1786
 6186 0080 2046     		mov	r0, r4
 6187 0082 FFF7FEFF 		bl	_ZN14GrannyChordApp20HandleEncoderPressedEv
 6188              	.LVL462:
 6189 0086 CEE7     		b	.L292
 6190              	.L289:
 100:GrannyChordApp.cpp **** 
 6191              		.loc 3 100 1 view .LVU1787
 6192 0088 10BD     		pop	{r4, pc}
 6193              	.LVL463:
 6194              	.L308:
 100:GrannyChordApp.cpp **** 
 6195              		.loc 3 100 1 view .LVU1788
 6196 008a 00BF     		.align	2
 6197              	.L307:
 6198 008c 00007A44 		.word	1148846080
 6199 0090 00000000 		.word	.LC37
 6200              		.cfi_endproc
 6201              	.LFE4915:
 6203              		.section	.rodata._ZN14GrannyChordApp3RunEv.str1.1,"aMS",%progbits,1
 6204              	.LC38:
 6205 0000 61707020 		.ascii	"app is running\000"
 6205      69732072 
 6205      756E6E69 
 6205      6E6700
 6206              		.section	.text._ZN14GrannyChordApp3RunEv,"ax",%progbits
 6207              		.align	1
 6208              		.global	_ZN14GrannyChordApp3RunEv
 6209              		.syntax unified
ARM GAS  /var/folders/2p/02m_5p7958535cp2tpgps0400000gn/T//cchBTf64.s 			page 175


 6210              		.thumb
 6211              		.thumb_func
 6213              	_ZN14GrannyChordApp3RunEv:
 6214              	.LVL464:
 6215              	.LFB4914:
  52:GrannyChordApp.cpp ****   pod_.seed.PrintLine("app is running");
 6216              		.loc 3 52 27 is_stmt 1 view -0
 6217              		.cfi_startproc
 6218              		@ Volatile: function does not return.
 6219              		@ args = 0, pretend = 0, frame = 8
 6220              		@ frame_needed = 0, uses_anonymous_args = 0
  53:GrannyChordApp.cpp ****   while(true){
 6221              		.loc 3 53 3 view .LVU1790
 6222              	.LBB834:
 6223              	.LBI834:
 126:../libDaisy/src/daisy_seed.h ****     {
 6224              		.loc 5 126 17 view .LVU1791
 6225              	.LBE834:
  52:GrannyChordApp.cpp ****   pod_.seed.PrintLine("app is running");
 6226              		.loc 3 52 27 is_stmt 0 view .LVU1792
 6227 0000 0446     		mov	r4, r0
 6228 0002 07B5     		push	{r0, r1, r2, lr}
 6229              		.cfi_def_cfa_offset 16
 6230              		.cfi_offset 14, -4
 6231              	.LBB836:
 6232              	.LBB835:
 6233              		.loc 5 128 23 view .LVU1793
 6234 0004 2448     		ldr	r0, .L325
 6235              	.LVL465:
 6236              		.loc 5 128 23 view .LVU1794
 6237 0006 FFF7FEFF 		bl	_ZN5daisy6LoggerILNS_17LoggerDestinationE1EE9PrintLineEPKcz
 6238              	.LVL466:
 6239              	.L316:
 6240              		.loc 5 128 23 view .LVU1795
 6241              	.LBE835:
 6242              	.LBE836:
  54:GrannyChordApp.cpp ****     // #ifdef DEBUG_MODE
 6243              		.loc 3 54 3 is_stmt 1 view .LVU1796
  64:GrannyChordApp.cpp ****       sd_writer_.Write();
 6244              		.loc 3 64 5 view .LVU1797
  64:GrannyChordApp.cpp ****       sd_writer_.Write();
 6245              		.loc 3 64 9 is_stmt 0 view .LVU1798
 6246 000a 04F55046 		add	r6, r4, #53248
  64:GrannyChordApp.cpp ****       sd_writer_.Write();
 6247              		.loc 3 64 5 view .LVU1799
 6248 000e 96F83032 		ldrb	r3, [r6, #560]	@ zero_extendqisi2
 6249 0012 CBB3     		cbz	r3, .L311
 6250              	.LBB837:
 6251              	.LBB838:
 128:../libDaisy/src/util/WavWriter.h ****         {
 6252              		.loc 9 128 12 view .LVU1800
 6253 0014 04F54043 		add	r3, r4, #49152
 6254              	.LBE838:
 6255              	.LBE837:
  65:GrannyChordApp.cpp ****       if (sd_writer_.GetLengthSeconds()>120){
 6256              		.loc 3 65 23 view .LVU1801
 6257 0018 04F59F45 		add	r5, r4, #20352
ARM GAS  /var/folders/2p/02m_5p7958535cp2tpgps0400000gn/T//cchBTf64.s 			page 176


 6258              	.LBB843:
 6259              	.LBB841:
 128:../libDaisy/src/util/WavWriter.h ****         {
 6260              		.loc 9 128 12 view .LVU1802
 6261 001c D3F8F41F 		ldr	r1, [r3, #4084]
 6262              	.LBE841:
 6263              	.LBE843:
  65:GrannyChordApp.cpp ****       if (sd_writer_.GetLengthSeconds()>120){
 6264              		.loc 3 65 23 view .LVU1803
 6265 0020 3435     		adds	r5, r5, #52
  65:GrannyChordApp.cpp ****       if (sd_writer_.GetLengthSeconds()>120){
 6266              		.loc 3 65 7 is_stmt 1 view .LVU1804
 6267              	.LVL467:
 6268              	.LBB844:
 6269              	.LBI837:
 126:../libDaisy/src/util/WavWriter.h ****     {
 6270              		.loc 9 126 10 view .LVU1805
 6271              	.LBB842:
 128:../libDaisy/src/util/WavWriter.h ****         {
 6272              		.loc 9 128 41 is_stmt 0 view .LVU1806
 6273 0022 B1B1     		cbz	r1, .L312
 6274              	.LVL468:
 6275              	.LBB839:
 6276              	.LBI839:
 169:../libDaisy/src/util/WavWriter.h **** 
 6277              		.loc 9 169 17 is_stmt 1 view .LVU1807
 169:../libDaisy/src/util/WavWriter.h **** 
 6278              		.loc 9 169 17 is_stmt 0 view .LVU1808
 6279              	.LBE839:
 128:../libDaisy/src/util/WavWriter.h ****         {
 6280              		.loc 9 128 41 view .LVU1809
 6281 0024 93F8F82F 		ldrb	r2, [r3, #4088]	@ zero_extendqisi2
 6282 0028 9AB1     		cbz	r2, .L312
 6283              	.LBB840:
 131:../libDaisy/src/util/WavWriter.h ****             //offset          = bstate_ == BufferState::FLUSH0 ? 0 : transfer_size;
 6284              		.loc 9 131 26 view .LVU1810
 6285 002a 0022     		movs	r2, #0
 133:../libDaisy/src/util/WavWriter.h ****             bstate_ = BufferState::IDLE;
 6286              		.loc 9 133 54 view .LVU1811
 6287 002c 0129     		cmp	r1, #1
 135:../libDaisy/src/util/WavWriter.h ****         }
 6288              		.loc 9 135 20 view .LVU1812
 6289 002e 05F50040 		add	r0, r5, #32768
 133:../libDaisy/src/util/WavWriter.h ****             bstate_ = BufferState::IDLE;
 6290              		.loc 9 133 54 view .LVU1813
 6291 0032 0CBF     		ite	eq
 6292 0034 1146     		moveq	r1, r2
 6293 0036 4FF48051 		movne	r1, #4096
 6294              	.LVL469:
 134:../libDaisy/src/util/WavWriter.h ****             f_write(&fp_, &transfer_buff[offset], transfer_size, &bw);
 6295              		.loc 9 134 21 view .LVU1814
 6296 003a C3F8F42F 		str	r2, [r3, #4084]
 135:../libDaisy/src/util/WavWriter.h ****         }
 6297              		.loc 9 135 20 view .LVU1815
 6298 003e 4830     		adds	r0, r0, #72
 135:../libDaisy/src/util/WavWriter.h ****         }
 6299              		.loc 9 135 41 view .LVU1816
ARM GAS  /var/folders/2p/02m_5p7958535cp2tpgps0400000gn/T//cchBTf64.s 			page 177


 6300 0040 1031     		adds	r1, r1, #16
 6301              	.LVL470:
 131:../libDaisy/src/util/WavWriter.h ****             //offset          = bstate_ == BufferState::FLUSH0 ? 0 : transfer_size;
 6302              		.loc 9 131 26 view .LVU1817
 6303 0042 0192     		str	r2, [sp, #4]
 135:../libDaisy/src/util/WavWriter.h ****         }
 6304              		.loc 9 135 20 view .LVU1818
 6305 0044 01AB     		add	r3, sp, #4
 6306 0046 4FF48042 		mov	r2, #16384
 6307 004a 05EB8101 		add	r1, r5, r1, lsl #2
 6308              	.LVL471:
 135:../libDaisy/src/util/WavWriter.h ****         }
 6309              		.loc 9 135 20 view .LVU1819
 6310 004e FFF7FEFF 		bl	f_write
 6311              	.LVL472:
 6312              	.L312:
 135:../libDaisy/src/util/WavWriter.h ****         }
 6313              		.loc 9 135 20 view .LVU1820
 6314              	.LBE840:
 6315              	.LBE842:
 6316              	.LBE844:
  66:GrannyChordApp.cpp ****         sd_writer_.SaveFile();
 6317              		.loc 3 66 7 is_stmt 1 view .LVU1821
 6318              	.LBB845:
 6319              	.LBI845:
 175:../libDaisy/src/util/WavWriter.h ****     {
 6320              		.loc 9 175 18 view .LVU1822
 6321              	.LBB846:
 177:../libDaisy/src/util/WavWriter.h ****     }
 6322              		.loc 9 177 23 is_stmt 0 view .LVU1823
 6323 0052 04F58043 		add	r3, r4, #16384
 177:../libDaisy/src/util/WavWriter.h ****     }
 6324              		.loc 9 177 16 view .LVU1824
 6325 0056 D3F8E02F 		ldr	r2, [r3, #4064]
 177:../libDaisy/src/util/WavWriter.h ****     }
 6326              		.loc 9 177 48 view .LVU1825
 6327 005a 03F6B473 		addw	r3, r3, #4020
 177:../libDaisy/src/util/WavWriter.h ****     }
 6328              		.loc 9 177 16 view .LVU1826
 6329 005e 07EE902A 		vmov	s15, r2	@ int
 177:../libDaisy/src/util/WavWriter.h ****     }
 6330              		.loc 9 177 48 view .LVU1827
 6331 0062 D3ED0D6A 		vldr.32	s13, [r3, #52]
 177:../libDaisy/src/util/WavWriter.h ****     }
 6332              		.loc 9 177 16 view .LVU1828
 6333 0066 F8EE677A 		vcvt.f32.u32	s15, s15
 177:../libDaisy/src/util/WavWriter.h ****     }
 6334              		.loc 9 177 48 view .LVU1829
 6335 006a 87EEA67A 		vdiv.f32	s14, s15, s13
 6336              	.LBE846:
 6337              	.LBE845:
  66:GrannyChordApp.cpp ****         sd_writer_.SaveFile();
 6338              		.loc 3 66 7 view .LVU1830
 6339 006e DFED0B7A 		vldr.32	s15, .L325+4
 6340 0072 B4EEE77A 		vcmpe.f32	s14, s15
 6341 0076 F1EE10FA 		vmrs	APSR_nzcv, FPSCR
 6342 007a 05DD     		ble	.L311
ARM GAS  /var/folders/2p/02m_5p7958535cp2tpgps0400000gn/T//cchBTf64.s 			page 178


  67:GrannyChordApp.cpp ****         recording_out_ = false;
 6343              		.loc 3 67 9 is_stmt 1 view .LVU1831
  67:GrannyChordApp.cpp ****         recording_out_ = false;
 6344              		.loc 3 67 28 is_stmt 0 view .LVU1832
 6345 007c 2846     		mov	r0, r5
 6346 007e FFF7FEFF 		bl	_ZN5daisy9WavWriterILj16384EE8SaveFileEv
 6347              	.LVL473:
  68:GrannyChordApp.cpp ****       }
 6348              		.loc 3 68 9 is_stmt 1 view .LVU1833
  68:GrannyChordApp.cpp ****       }
 6349              		.loc 3 68 24 is_stmt 0 view .LVU1834
 6350 0082 0023     		movs	r3, #0
 6351 0084 86F83032 		strb	r3, [r6, #560]
 6352              	.L311:
  71:GrannyChordApp.cpp ****     UpdateSynthParams();
 6353              		.loc 3 71 5 is_stmt 1 view .LVU1835
  71:GrannyChordApp.cpp ****     UpdateSynthParams();
 6354              		.loc 3 71 13 is_stmt 0 view .LVU1836
 6355 0088 2046     		mov	r0, r4
 6356 008a FFF7FEFF 		bl	_ZN14GrannyChordApp8UpdateUIEv
 6357              	.LVL474:
  72:GrannyChordApp.cpp ****     // System::Delay(1);
 6358              		.loc 3 72 5 is_stmt 1 view .LVU1837
  72:GrannyChordApp.cpp ****     // System::Delay(1);
 6359              		.loc 3 72 22 is_stmt 0 view .LVU1838
 6360 008e 2046     		mov	r0, r4
 6361 0090 FFF7FEFF 		bl	_ZN14GrannyChordApp17UpdateSynthParamsEv
 6362              	.LVL475:
  54:GrannyChordApp.cpp ****     // #ifdef DEBUG_MODE
 6363              		.loc 3 54 3 is_stmt 1 view .LVU1839
  64:GrannyChordApp.cpp ****       sd_writer_.Write();
 6364              		.loc 3 64 5 is_stmt 0 view .LVU1840
 6365 0094 B9E7     		b	.L316
 6366              	.L326:
 6367 0096 00BF     		.align	2
 6368              	.L325:
 6369 0098 00000000 		.word	.LC38
 6370 009c 0000F042 		.word	1123024896
 6371              		.cfi_endproc
 6372              	.LFE4914:
 6374              		.global	_ZN14GrannyChordApp9instance_E
 6375              		.section	.bss._ZN14GrannyChordApp9instance_E,"aw",%nobits
 6376              		.align	2
 6377              		.set	.LANCHOR0,. + 0
 6380              	_ZN14GrannyChordApp9instance_E:
 6381 0000 00000000 		.space	4
 6382              		.text
 6383              	.Letext0:
 6384              		.file 18 "/Library/DaisyToolchain/0.2.0/arm/arm-none-eabi/include/machine/_default_types.h"
 6385              		.file 19 "/Library/DaisyToolchain/0.2.0/arm/arm-none-eabi/include/sys/_stdint.h"
 6386              		.file 20 "/Library/DaisyToolchain/0.2.0/arm/arm-none-eabi/include/stdint.h"
 6387              		.file 21 "/Library/DaisyToolchain/0.2.0/arm/lib/gcc/arm-none-eabi/10.3.1/include/stddef.h"
 6388              		.file 22 "/Library/DaisyToolchain/0.2.0/arm/arm-none-eabi/include/c++/10.3.1/cstdlib"
 6389              		.file 23 "/Library/DaisyToolchain/0.2.0/arm/arm-none-eabi/include/c++/10.3.1/cstdint"
 6390              		.file 24 "/Library/DaisyToolchain/0.2.0/arm/arm-none-eabi/include/c++/10.3.1/arm-none-eabi/thumb/v
 6391              		.file 25 "/Library/DaisyToolchain/0.2.0/arm/arm-none-eabi/include/c++/10.3.1/type_traits"
 6392              		.file 26 "/Library/DaisyToolchain/0.2.0/arm/arm-none-eabi/include/c++/10.3.1/bits/cpp_type_traits.
ARM GAS  /var/folders/2p/02m_5p7958535cp2tpgps0400000gn/T//cchBTf64.s 			page 179


 6393              		.file 27 "/Library/DaisyToolchain/0.2.0/arm/arm-none-eabi/include/c++/10.3.1/bits/stl_pair.h"
 6394              		.file 28 "/Library/DaisyToolchain/0.2.0/arm/arm-none-eabi/include/c++/10.3.1/debug/debug.h"
 6395              		.file 29 "/Library/DaisyToolchain/0.2.0/arm/arm-none-eabi/include/c++/10.3.1/bits/algorithmfwd.h"
 6396              		.file 30 "/Library/DaisyToolchain/0.2.0/arm/arm-none-eabi/include/c++/10.3.1/bits/exception_ptr.h"
 6397              		.file 31 "/Library/DaisyToolchain/0.2.0/arm/arm-none-eabi/include/c++/10.3.1/initializer_list"
 6398              		.file 32 "/Library/DaisyToolchain/0.2.0/arm/arm-none-eabi/include/c++/10.3.1/cstdarg"
 6399              		.file 33 "/Library/DaisyToolchain/0.2.0/arm/arm-none-eabi/include/c++/10.3.1/cstdio"
 6400              		.file 34 "/Library/DaisyToolchain/0.2.0/arm/arm-none-eabi/include/c++/10.3.1/cstring"
 6401              		.file 35 "/Library/DaisyToolchain/0.2.0/arm/arm-none-eabi/include/c++/10.3.1/cwchar"
 6402              		.file 36 "/Library/DaisyToolchain/0.2.0/arm/arm-none-eabi/include/c++/10.3.1/clocale"
 6403              		.file 37 "/Library/DaisyToolchain/0.2.0/arm/arm-none-eabi/include/c++/10.3.1/bits/basic_string.h"
 6404              		.file 38 "/Library/DaisyToolchain/0.2.0/arm/arm-none-eabi/include/c++/10.3.1/bits/stl_iterator.h"
 6405              		.file 39 "/Library/DaisyToolchain/0.2.0/arm/arm-none-eabi/include/c++/10.3.1/bits/predefined_ops.h
 6406              		.file 40 "/Library/DaisyToolchain/0.2.0/arm/arm-none-eabi/include/sys/_types.h"
 6407              		.file 41 "/Library/DaisyToolchain/0.2.0/arm/arm-none-eabi/include/sys/reent.h"
 6408              		.file 42 "/Library/DaisyToolchain/0.2.0/arm/arm-none-eabi/include/sys/lock.h"
 6409              		.file 43 "/Library/DaisyToolchain/0.2.0/arm/arm-none-eabi/include/math.h"
 6410              		.file 44 "/Library/DaisyToolchain/0.2.0/arm/arm-none-eabi/include/stdlib.h"
 6411              		.file 45 "/Library/DaisyToolchain/0.2.0/arm/arm-none-eabi/include/c++/10.3.1/math.h"
 6412              		.file 46 "/Library/DaisyToolchain/0.2.0/arm/arm-none-eabi/include/c++/10.3.1/stdlib.h"
 6413              		.file 47 "../libDaisy/src/sys/system.h"
 6414              		.file 48 "../libDaisy/src/per/qspi.h"
 6415              		.file 49 "../libDaisy/src/per/dac.h"
 6416              		.file 50 "../libDaisy/src/per/sai.h"
 6417              		.file 51 "../libDaisy/src/hid/audio.h"
 6418              		.file 52 "../libDaisy/src/per/adc.h"
 6419              		.file 53 "../libDaisy/src/per/uart.h"
 6420              		.file 54 "../libDaisy/src/hid/MidiEvent.h"
 6421              		.file 55 "../libDaisy/src/hid/midi_parser.h"
 6422              		.file 56 "../libDaisy/src/hid/usb.h"
 6423              		.file 57 "../libDaisy/src/hid/midi.h"
 6424              		.file 58 "../libDaisy/src/util/FIFO.h"
 6425              		.file 59 "../libDaisy/src/hid/ctrl.h"
 6426              		.file 60 "../libDaisy/src/hid/logger_impl.h"
 6427              		.file 61 "../libDaisy/src/per/sdmmc.h"
 6428              		.file 62 "../libDaisy/src/util/wav_format.h"
 6429              		.file 63 "../libDaisy/src/hid/led.h"
 6430              		.file 64 "../libDaisy/src/util/color.h"
 6431              		.file 65 "../libDaisy/src/hid/rgb_led.h"
 6432              		.file 66 "../libDaisy/src/dev/max11300.h"
 6433              		.file 67 "../libDaisy/src/sys/fatfs.h"
 6434              		.file 68 "../libDaisy/src/hid/logger.h"
 6435              		.file 69 "../libDaisy/src/daisy_pod.h"
 6436              		.file 70 "../libDaisy/src/per/gpio.h"
 6437              		.file 71 "../libDaisy/src/dev/sdram.h"
 6438              		.file 72 "/Library/DaisyToolchain/0.2.0/arm/lib/gcc/arm-none-eabi/10.3.1/include/stdarg.h"
 6439              		.file 73 "/Library/DaisyToolchain/0.2.0/arm/arm-none-eabi/include/stdio.h"
 6440              		.file 74 "../libDaisy/Middlewares/Third_Party/FatFs/src/integer.h"
 6441              		.file 75 "../libDaisy/Middlewares/Third_Party/FatFs/src/ff.h"
 6442              		.file 76 "/Library/DaisyToolchain/0.2.0/arm/arm-none-eabi/include/string.h"
 6443              		.file 77 "../DaisySP/Source/Control/adenv.h"
 6444              		.file 78 "../DaisySP/Source/Utility/dsp.h"
 6445              		.file 79 "../DaisySP/Source/Dynamics/limiter.h"
 6446              		.file 80 "../DaisySP/Source/Utility/delayline.h"
 6447              		.file 81 "../DaisySP/Source/Effects/chorus.h"
 6448              		.file 82 "../DaisySP/Source/../DaisySP-LGPL/Source/Dynamics/compressor.h"
 6449              		.file 83 "../DaisySP/Source/../DaisySP-LGPL/Source/Effects/reverbsc.h"
ARM GAS  /var/folders/2p/02m_5p7958535cp2tpgps0400000gn/T//cchBTf64.s 			page 180


 6450              		.file 84 "/Library/DaisyToolchain/0.2.0/arm/arm-none-eabi/include/wchar.h"
 6451              		.file 85 "/Library/DaisyToolchain/0.2.0/arm/arm-none-eabi/include/time.h"
 6452              		.file 86 "/Library/DaisyToolchain/0.2.0/arm/arm-none-eabi/include/locale.h"
 6453              		.file 87 "sample.h"
 6454              		.file 88 "../libDaisy/src/dev/sr_595.h"
 6455              		.file 89 "GrainPhasor.h"
 6456              		.file 90 "Grain.h"
 6457              		.file 91 "AppState.h"
 6458              		.file 92 "<built-in>"
ARM GAS  /var/folders/2p/02m_5p7958535cp2tpgps0400000gn/T//cchBTf64.s 			page 181


DEFINED SYMBOLS
                            *ABS*:0000000000000000 GrannyChordApp.cpp
/var/folders/2p/02m_5p7958535cp2tpgps0400000gn/T//cchBTf64.s:19     .text._ZNK5daisy6Switch10TimeHeldMsEv:0000000000000000 $t
/var/folders/2p/02m_5p7958535cp2tpgps0400000gn/T//cchBTf64.s:25     .text._ZNK5daisy6Switch10TimeHeldMsEv:0000000000000000 _ZNK5daisy6Switch10TimeHeldMsEv
/var/folders/2p/02m_5p7958535cp2tpgps0400000gn/T//cchBTf64.s:84     .text._ZNK5daisy6Switch10TimeHeldMsEv:0000000000000028 $d
/var/folders/2p/02m_5p7958535cp2tpgps0400000gn/T//cchBTf64.s:89     .text._ZN7daisysp7OnePole7ProcessEf:0000000000000000 $t
/var/folders/2p/02m_5p7958535cp2tpgps0400000gn/T//cchBTf64.s:95     .text._ZN7daisysp7OnePole7ProcessEf:0000000000000000 _ZN7daisysp7OnePole7ProcessEf
/var/folders/2p/02m_5p7958535cp2tpgps0400000gn/T//cchBTf64.s:145    .text._ZN7daisysp7OnePole7ProcessEf:0000000000000038 $d
/var/folders/2p/02m_5p7958535cp2tpgps0400000gn/T//cchBTf64.s:159    .text._ZN14GrannyChordApp12PrintCPULoadEv:0000000000000000 $t
/var/folders/2p/02m_5p7958535cp2tpgps0400000gn/T//cchBTf64.s:165    .text._ZN14GrannyChordApp12PrintCPULoadEv:0000000000000000 _ZN14GrannyChordApp12PrintCPULoadEv
/var/folders/2p/02m_5p7958535cp2tpgps0400000gn/T//cchBTf64.s:479    .text._ZN14GrannyChordApp12PrintCPULoadEv:00000000000000e0 $d
/var/folders/2p/02m_5p7958535cp2tpgps0400000gn/T//cchBTf64.s:493    .text._ZN14GrannyChordApp20HandleEncoderPressedEv:0000000000000000 $t
/var/folders/2p/02m_5p7958535cp2tpgps0400000gn/T//cchBTf64.s:499    .text._ZN14GrannyChordApp20HandleEncoderPressedEv:0000000000000000 _ZN14GrannyChordApp20HandleEncoderPressedEv
/var/folders/2p/02m_5p7958535cp2tpgps0400000gn/T//cchBTf64.s:546    .text._ZN14GrannyChordApp22HandleEncoderLongPressEv:0000000000000000 $t
/var/folders/2p/02m_5p7958535cp2tpgps0400000gn/T//cchBTf64.s:552    .text._ZN14GrannyChordApp22HandleEncoderLongPressEv:0000000000000000 _ZN14GrannyChordApp22HandleEncoderLongPressEv
/var/folders/2p/02m_5p7958535cp2tpgps0400000gn/T//cchBTf64.s:644    .text._ZN14GrannyChordApp22HandleButton1LongPressEv:0000000000000000 $t
/var/folders/2p/02m_5p7958535cp2tpgps0400000gn/T//cchBTf64.s:650    .text._ZN14GrannyChordApp22HandleButton1LongPressEv:0000000000000000 _ZN14GrannyChordApp22HandleButton1LongPressEv
/var/folders/2p/02m_5p7958535cp2tpgps0400000gn/T//cchBTf64.s:664    .text._ZN14GrannyChordApp22HandleButton2LongPressEv:0000000000000000 $t
/var/folders/2p/02m_5p7958535cp2tpgps0400000gn/T//cchBTf64.s:670    .text._ZN14GrannyChordApp22HandleButton2LongPressEv:0000000000000000 _ZN14GrannyChordApp22HandleButton2LongPressEv
/var/folders/2p/02m_5p7958535cp2tpgps0400000gn/T//cchBTf64.s:684    .text._ZN14GrannyChordApp19HandleFileSelectionEl:0000000000000000 $t
/var/folders/2p/02m_5p7958535cp2tpgps0400000gn/T//cchBTf64.s:690    .text._ZN14GrannyChordApp19HandleFileSelectionEl:0000000000000000 _ZN14GrannyChordApp19HandleFileSelectionEl
/var/folders/2p/02m_5p7958535cp2tpgps0400000gn/T//cchBTf64.s:814    .text._ZN14GrannyChordApp19HandleFileSelectionEl:0000000000000048 $d
/var/folders/2p/02m_5p7958535cp2tpgps0400000gn/T//cchBTf64.s:821    .text._ZN14GrannyChordApp22HandleEncoderIncrementEi:0000000000000000 $t
/var/folders/2p/02m_5p7958535cp2tpgps0400000gn/T//cchBTf64.s:827    .text._ZN14GrannyChordApp22HandleEncoderIncrementEi:0000000000000000 _ZN14GrannyChordApp22HandleEncoderIncrementEi
/var/folders/2p/02m_5p7958535cp2tpgps0400000gn/T//cchBTf64.s:875    .text._ZN14GrannyChordApp11InitFileMgrEv:0000000000000000 $t
/var/folders/2p/02m_5p7958535cp2tpgps0400000gn/T//cchBTf64.s:881    .text._ZN14GrannyChordApp11InitFileMgrEv:0000000000000000 _ZN14GrannyChordApp11InitFileMgrEv
/var/folders/2p/02m_5p7958535cp2tpgps0400000gn/T//cchBTf64.s:952    .text._ZN14GrannyChordApp12InitPlaybackEv:0000000000000000 $t
/var/folders/2p/02m_5p7958535cp2tpgps0400000gn/T//cchBTf64.s:958    .text._ZN14GrannyChordApp12InitPlaybackEv:0000000000000000 _ZN14GrannyChordApp12InitPlaybackEv
/var/folders/2p/02m_5p7958535cp2tpgps0400000gn/T//cchBTf64.s:1049   .text._ZN14GrannyChordApp12InitPlaybackEv:000000000000004c $d
/var/folders/2p/02m_5p7958535cp2tpgps0400000gn/T//cchBTf64.s:2720   .text._ZN14GrannyChordApp13AudioCallbackEPKPKfPPfj:0000000000000000 _ZN14GrannyChordApp13AudioCallbackEPKPKfPPfj
/var/folders/2p/02m_5p7958535cp2tpgps0400000gn/T//cchBTf64.s:1056   .text._ZN14GrannyChordApp12InitRecordInEv:0000000000000000 $t
/var/folders/2p/02m_5p7958535cp2tpgps0400000gn/T//cchBTf64.s:1062   .text._ZN14GrannyChordApp12InitRecordInEv:0000000000000000 _ZN14GrannyChordApp12InitRecordInEv
/var/folders/2p/02m_5p7958535cp2tpgps0400000gn/T//cchBTf64.s:1110   .text._ZN14GrannyChordApp13InitWavWriterEv:0000000000000000 $t
/var/folders/2p/02m_5p7958535cp2tpgps0400000gn/T//cchBTf64.s:1116   .text._ZN14GrannyChordApp13InitWavWriterEv:0000000000000000 _ZN14GrannyChordApp13InitWavWriterEv
/var/folders/2p/02m_5p7958535cp2tpgps0400000gn/T//cchBTf64.s:1330   .text._ZN14GrannyChordApp13InitWavWriterEv:00000000000000b4 $d
/var/folders/2p/02m_5p7958535cp2tpgps0400000gn/T//cchBTf64.s:1337   .text._ZN14GrannyChordApp6InitFXEv:0000000000000000 $t
/var/folders/2p/02m_5p7958535cp2tpgps0400000gn/T//cchBTf64.s:1343   .text._ZN14GrannyChordApp6InitFXEv:0000000000000000 _ZN14GrannyChordApp6InitFXEv
/var/folders/2p/02m_5p7958535cp2tpgps0400000gn/T//cchBTf64.s:1537   .text._ZN14GrannyChordApp6InitFXEv:000000000000007c $d
/var/folders/2p/02m_5p7958535cp2tpgps0400000gn/T//cchBTf64.s:1548   .text._ZN14GrannyChordApp17InitPrevParamValsEv:0000000000000000 $t
/var/folders/2p/02m_5p7958535cp2tpgps0400000gn/T//cchBTf64.s:1554   .text._ZN14GrannyChordApp17InitPrevParamValsEv:0000000000000000 _ZN14GrannyChordApp17InitPrevParamValsEv
/var/folders/2p/02m_5p7958535cp2tpgps0400000gn/T//cchBTf64.s:1595   .text._ZN14GrannyChordApp4InitEPsS0_:0000000000000000 $t
/var/folders/2p/02m_5p7958535cp2tpgps0400000gn/T//cchBTf64.s:1601   .text._ZN14GrannyChordApp4InitEPsS0_:0000000000000000 _ZN14GrannyChordApp4InitEPsS0_
/var/folders/2p/02m_5p7958535cp2tpgps0400000gn/T//cchBTf64.s:1877   .text._ZN14GrannyChordApp4InitEPsS0_:00000000000000f4 $d
/var/folders/2p/02m_5p7958535cp2tpgps0400000gn/T//cchBTf64.s:1888   .text._ZN14GrannyChordApp9InitSynthEv:0000000000000000 $t
/var/folders/2p/02m_5p7958535cp2tpgps0400000gn/T//cchBTf64.s:1894   .text._ZN14GrannyChordApp9InitSynthEv:0000000000000000 _ZN14GrannyChordApp9InitSynthEv
/var/folders/2p/02m_5p7958535cp2tpgps0400000gn/T//cchBTf64.s:1991   .text._ZN14GrannyChordApp9InitSynthEv:000000000000004c $d
/var/folders/2p/02m_5p7958535cp2tpgps0400000gn/T//cchBTf64.s:1998   .text._ZN14GrannyChordApp13ResetPassThruEv:0000000000000000 $t
/var/folders/2p/02m_5p7958535cp2tpgps0400000gn/T//cchBTf64.s:2004   .text._ZN14GrannyChordApp13ResetPassThruEv:0000000000000000 _ZN14GrannyChordApp13ResetPassThruEv
/var/folders/2p/02m_5p7958535cp2tpgps0400000gn/T//cchBTf64.s:2072   .text._ZN14GrannyChordApp18ProcessWAVPlaybackEPPfj:0000000000000000 $t
/var/folders/2p/02m_5p7958535cp2tpgps0400000gn/T//cchBTf64.s:2078   .text._ZN14GrannyChordApp18ProcessWAVPlaybackEPPfj:0000000000000000 _ZN14GrannyChordApp18ProcessWAVPlaybackEPPfj
/var/folders/2p/02m_5p7958535cp2tpgps0400000gn/T//cchBTf64.s:2317   .text._ZN14GrannyChordApp18ProcessWAVPlaybackEPPfj:00000000000000d4 $d
/var/folders/2p/02m_5p7958535cp2tpgps0400000gn/T//cchBTf64.s:2323   .text._ZN14GrannyChordApp15ProcessRecordInEPKPKfPPfj:0000000000000000 $t
/var/folders/2p/02m_5p7958535cp2tpgps0400000gn/T//cchBTf64.s:2329   .text._ZN14GrannyChordApp15ProcessRecordInEPKPKfPPfj:0000000000000000 _ZN14GrannyChordApp15ProcessRecordInEPKPKfPPfj
/var/folders/2p/02m_5p7958535cp2tpgps0400000gn/T//cchBTf64.s:2426   .text._ZN14GrannyChordApp15ProcessRecordInEPKPKfPPfj:0000000000000074 $d
/var/folders/2p/02m_5p7958535cp2tpgps0400000gn/T//cchBTf64.s:2431   .text._ZN14GrannyChordApp16ProcessSynthesisEPPfj:0000000000000000 $t
/var/folders/2p/02m_5p7958535cp2tpgps0400000gn/T//cchBTf64.s:2437   .text._ZN14GrannyChordApp16ProcessSynthesisEPPfj:0000000000000000 _ZN14GrannyChordApp16ProcessSynthesisEPPfj
/var/folders/2p/02m_5p7958535cp2tpgps0400000gn/T//cchBTf64.s:2508   .text._ZN14GrannyChordApp12ProcessAudioEPKPKfPPfj:0000000000000000 $t
ARM GAS  /var/folders/2p/02m_5p7958535cp2tpgps0400000gn/T//cchBTf64.s 			page 182


/var/folders/2p/02m_5p7958535cp2tpgps0400000gn/T//cchBTf64.s:2514   .text._ZN14GrannyChordApp12ProcessAudioEPKPKfPPfj:0000000000000000 _ZN14GrannyChordApp12ProcessAudioEPKPKfPPfj
/var/folders/2p/02m_5p7958535cp2tpgps0400000gn/T//cchBTf64.s:2708   .text._ZN14GrannyChordApp12ProcessAudioEPKPKfPPfj:0000000000000070 $d
/var/folders/2p/02m_5p7958535cp2tpgps0400000gn/T//cchBTf64.s:2714   .text._ZN14GrannyChordApp13AudioCallbackEPKPKfPPfj:0000000000000000 $t
/var/folders/2p/02m_5p7958535cp2tpgps0400000gn/T//cchBTf64.s:2748   .text._ZN14GrannyChordApp13AudioCallbackEPKPKfPPfj:0000000000000010 $d
/var/folders/2p/02m_5p7958535cp2tpgps0400000gn/T//cchBTf64.s:2753   .text._ZN14GrannyChordApp9ProcessFXE6Sample:0000000000000000 $t
/var/folders/2p/02m_5p7958535cp2tpgps0400000gn/T//cchBTf64.s:2759   .text._ZN14GrannyChordApp9ProcessFXE6Sample:0000000000000000 _ZN14GrannyChordApp9ProcessFXE6Sample
/var/folders/2p/02m_5p7958535cp2tpgps0400000gn/T//cchBTf64.s:3044   .text._ZN14GrannyChordApp9ProcessFXE6Sample:0000000000000168 $d
/var/folders/2p/02m_5p7958535cp2tpgps0400000gn/T//cchBTf64.s:3055   .text._ZN14GrannyChordApp13RecordOutToSDEv:0000000000000000 $t
/var/folders/2p/02m_5p7958535cp2tpgps0400000gn/T//cchBTf64.s:3061   .text._ZN14GrannyChordApp13RecordOutToSDEv:0000000000000000 _ZN14GrannyChordApp13RecordOutToSDEv
/var/folders/2p/02m_5p7958535cp2tpgps0400000gn/T//cchBTf64.s:3174   .text._ZN14GrannyChordApp13RecordOutToSDEv:0000000000000068 $d
/var/folders/2p/02m_5p7958535cp2tpgps0400000gn/T//cchBTf64.s:3184   .text._ZN14GrannyChordApp17UpdateKnob1ParamsEf9SynthMode:0000000000000000 $t
/var/folders/2p/02m_5p7958535cp2tpgps0400000gn/T//cchBTf64.s:3190   .text._ZN14GrannyChordApp17UpdateKnob1ParamsEf9SynthMode:0000000000000000 _ZN14GrannyChordApp17UpdateKnob1ParamsEf9SynthMode
/var/folders/2p/02m_5p7958535cp2tpgps0400000gn/T//cchBTf64.s:3338   .text._ZN14GrannyChordApp17UpdateKnob1ParamsEf9SynthMode:000000000000006c $d
/var/folders/2p/02m_5p7958535cp2tpgps0400000gn/T//cchBTf64.s:3351   .text._ZN14GrannyChordApp17UpdateKnob2ParamsEf9SynthMode:0000000000000000 $t
/var/folders/2p/02m_5p7958535cp2tpgps0400000gn/T//cchBTf64.s:3357   .text._ZN14GrannyChordApp17UpdateKnob2ParamsEf9SynthMode:0000000000000000 _ZN14GrannyChordApp17UpdateKnob2ParamsEf9SynthMode
/var/folders/2p/02m_5p7958535cp2tpgps0400000gn/T//cchBTf64.s:3502   .text._ZN14GrannyChordApp17UpdateKnob2ParamsEf9SynthMode:0000000000000068 $d
/var/folders/2p/02m_5p7958535cp2tpgps0400000gn/T//cchBTf64.s:3513   .text._ZN14GrannyChordApp17UpdateSynthParamsEv:0000000000000000 $t
/var/folders/2p/02m_5p7958535cp2tpgps0400000gn/T//cchBTf64.s:3519   .text._ZN14GrannyChordApp17UpdateSynthParamsEv:0000000000000000 _ZN14GrannyChordApp17UpdateSynthParamsEv
/var/folders/2p/02m_5p7958535cp2tpgps0400000gn/T//cchBTf64.s:3781   .text._ZN14GrannyChordApp17UpdateSynthParamsEv:0000000000000104 $d
/var/folders/2p/02m_5p7958535cp2tpgps0400000gn/T//cchBTf64.s:3802   .text._ZN14GrannyChordApp15DebugPrintStateE8AppState:0000000000000000 $t
/var/folders/2p/02m_5p7958535cp2tpgps0400000gn/T//cchBTf64.s:3808   .text._ZN14GrannyChordApp15DebugPrintStateE8AppState:0000000000000000 _ZN14GrannyChordApp15DebugPrintStateE8AppState
/var/folders/2p/02m_5p7958535cp2tpgps0400000gn/T//cchBTf64.s:3821   .text._ZN14GrannyChordApp15DebugPrintStateE8AppState:0000000000000008 $d
/var/folders/2p/02m_5p7958535cp2tpgps0400000gn/T//cchBTf64.s:3825   .text._ZN14GrannyChordApp15DebugPrintStateE8AppState:000000000000000c $t
/var/folders/2p/02m_5p7958535cp2tpgps0400000gn/T//cchBTf64.s:3917   .text._ZN14GrannyChordApp15DebugPrintStateE8AppState:0000000000000024 $d
/var/folders/2p/02m_5p7958535cp2tpgps0400000gn/T//cchBTf64.s:3945   .text._ZN14GrannyChordApp14DebugPrintModeE9SynthMode:0000000000000000 $t
/var/folders/2p/02m_5p7958535cp2tpgps0400000gn/T//cchBTf64.s:3951   .text._ZN14GrannyChordApp14DebugPrintModeE9SynthMode:0000000000000000 _ZN14GrannyChordApp14DebugPrintModeE9SynthMode
/var/folders/2p/02m_5p7958535cp2tpgps0400000gn/T//cchBTf64.s:3964   .text._ZN14GrannyChordApp14DebugPrintModeE9SynthMode:0000000000000008 $d
/var/folders/2p/02m_5p7958535cp2tpgps0400000gn/T//cchBTf64.s:3972   .text._ZN14GrannyChordApp14DebugPrintModeE9SynthMode:0000000000000010 $t
/var/folders/2p/02m_5p7958535cp2tpgps0400000gn/T//cchBTf64.s:4121   .text._ZN14GrannyChordApp14DebugPrintModeE9SynthMode:0000000000000034 $d
/var/folders/2p/02m_5p7958535cp2tpgps0400000gn/T//cchBTf64.s:4133   .text._ZN14GrannyChordApp11LedCallbackEv:0000000000000000 $t
/var/folders/2p/02m_5p7958535cp2tpgps0400000gn/T//cchBTf64.s:4139   .text._ZN14GrannyChordApp11LedCallbackEv:0000000000000000 _ZN14GrannyChordApp11LedCallbackEv
/var/folders/2p/02m_5p7958535cp2tpgps0400000gn/T//cchBTf64.s:4299   .text._ZN14GrannyChordApp11LedCallbackEv:00000000000000d4 $d
/var/folders/2p/02m_5p7958535cp2tpgps0400000gn/T//cchBTf64.s:4304   .text._ZN14GrannyChordApp17StaticLedCallbackEPv:0000000000000000 $t
/var/folders/2p/02m_5p7958535cp2tpgps0400000gn/T//cchBTf64.s:4310   .text._ZN14GrannyChordApp17StaticLedCallbackEPv:0000000000000000 _ZN14GrannyChordApp17StaticLedCallbackEPv
/var/folders/2p/02m_5p7958535cp2tpgps0400000gn/T//cchBTf64.s:4330   .text._ZN14GrannyChordApp17StaticLedCallbackEPv:0000000000000008 $d
/var/folders/2p/02m_5p7958535cp2tpgps0400000gn/T//cchBTf64.s:4335   .text._ZN14GrannyChordApp7SetRgb1Efff:0000000000000000 $t
/var/folders/2p/02m_5p7958535cp2tpgps0400000gn/T//cchBTf64.s:4341   .text._ZN14GrannyChordApp7SetRgb1Efff:0000000000000000 _ZN14GrannyChordApp7SetRgb1Efff
/var/folders/2p/02m_5p7958535cp2tpgps0400000gn/T//cchBTf64.s:4367   .text._ZN14GrannyChordApp7SetRgb2Efff:0000000000000000 $t
/var/folders/2p/02m_5p7958535cp2tpgps0400000gn/T//cchBTf64.s:4373   .text._ZN14GrannyChordApp7SetRgb2Efff:0000000000000000 _ZN14GrannyChordApp7SetRgb2Efff
/var/folders/2p/02m_5p7958535cp2tpgps0400000gn/T//cchBTf64.s:4399   .text._ZN14GrannyChordApp15SetLed1AppStateEv:0000000000000000 $t
/var/folders/2p/02m_5p7958535cp2tpgps0400000gn/T//cchBTf64.s:4405   .text._ZN14GrannyChordApp15SetLed1AppStateEv:0000000000000000 _ZN14GrannyChordApp15SetLed1AppStateEv
/var/folders/2p/02m_5p7958535cp2tpgps0400000gn/T//cchBTf64.s:4430   .text._ZN14GrannyChordApp15SetLed1AppStateEv:0000000000000014 $d
/var/folders/2p/02m_5p7958535cp2tpgps0400000gn/T//cchBTf64.s:4436   .text._ZN14GrannyChordApp15SetLed1AppStateEv:000000000000001a $t
/var/folders/2p/02m_5p7958535cp2tpgps0400000gn/T//cchBTf64.s:4612   .text._ZN14GrannyChordApp15SetLed1AppStateEv:0000000000000090 $d
/var/folders/2p/02m_5p7958535cp2tpgps0400000gn/T//cchBTf64.s:4617   .text._ZN14GrannyChordApp10SetupTimerEv:0000000000000000 $t
/var/folders/2p/02m_5p7958535cp2tpgps0400000gn/T//cchBTf64.s:4623   .text._ZN14GrannyChordApp10SetupTimerEv:0000000000000000 _ZN14GrannyChordApp10SetupTimerEv
/var/folders/2p/02m_5p7958535cp2tpgps0400000gn/T//cchBTf64.s:4707   .text._ZN14GrannyChordApp10SetupTimerEv:000000000000004c $d
/var/folders/2p/02m_5p7958535cp2tpgps0400000gn/T//cchBTf64.s:4719   .text._ZN14GrannyChordApp17HandleStateChangeEv:0000000000000000 $t
/var/folders/2p/02m_5p7958535cp2tpgps0400000gn/T//cchBTf64.s:4725   .text._ZN14GrannyChordApp17HandleStateChangeEv:0000000000000000 _ZN14GrannyChordApp17HandleStateChangeEv
/var/folders/2p/02m_5p7958535cp2tpgps0400000gn/T//cchBTf64.s:4746   .text._ZN14GrannyChordApp17HandleStateChangeEv:0000000000000010 $d
/var/folders/2p/02m_5p7958535cp2tpgps0400000gn/T//cchBTf64.s:4752   .text._ZN14GrannyChordApp17HandleStateChangeEv:0000000000000016 $t
/var/folders/2p/02m_5p7958535cp2tpgps0400000gn/T//cchBTf64.s:4873   .text._ZN14GrannyChordApp17HandleStateChangeEv:0000000000000060 $d
/var/folders/2p/02m_5p7958535cp2tpgps0400000gn/T//cchBTf64.s:4880   .text._ZN14GrannyChordApp16SetLed1SynthModeEv:0000000000000000 $t
/var/folders/2p/02m_5p7958535cp2tpgps0400000gn/T//cchBTf64.s:4886   .text._ZN14GrannyChordApp16SetLed1SynthModeEv:0000000000000000 _ZN14GrannyChordApp16SetLed1SynthModeEv
/var/folders/2p/02m_5p7958535cp2tpgps0400000gn/T//cchBTf64.s:4905   .text._ZN14GrannyChordApp16SetLed1SynthModeEv:0000000000000018 $d
/var/folders/2p/02m_5p7958535cp2tpgps0400000gn/T//cchBTf64.s:5017   .text._ZN14GrannyChordApp16SetLed1SynthModeEv:0000000000000068 $d
/var/folders/2p/02m_5p7958535cp2tpgps0400000gn/T//cchBTf64.s:5027   .text._ZN14GrannyChordApp7SetLed2Ev:0000000000000000 $t
ARM GAS  /var/folders/2p/02m_5p7958535cp2tpgps0400000gn/T//cchBTf64.s 			page 183


/var/folders/2p/02m_5p7958535cp2tpgps0400000gn/T//cchBTf64.s:5033   .text._ZN14GrannyChordApp7SetLed2Ev:0000000000000000 _ZN14GrannyChordApp7SetLed2Ev
/var/folders/2p/02m_5p7958535cp2tpgps0400000gn/T//cchBTf64.s:5052   .text._ZN14GrannyChordApp7SetLed2Ev:0000000000000018 $d
/var/folders/2p/02m_5p7958535cp2tpgps0400000gn/T//cchBTf64.s:5060   .text._ZN14GrannyChordApp7SetLed2Ev:0000000000000020 $t
/var/folders/2p/02m_5p7958535cp2tpgps0400000gn/T//cchBTf64.s:5169   .text._ZN14GrannyChordApp7SetLed2Ev:0000000000000060 $d
/var/folders/2p/02m_5p7958535cp2tpgps0400000gn/T//cchBTf64.s:5181   .text._ZN14GrannyChordApp16UpdateSynthModeAEv:0000000000000000 $t
/var/folders/2p/02m_5p7958535cp2tpgps0400000gn/T//cchBTf64.s:5187   .text._ZN14GrannyChordApp16UpdateSynthModeAEv:0000000000000000 _ZN14GrannyChordApp16UpdateSynthModeAEv
/var/folders/2p/02m_5p7958535cp2tpgps0400000gn/T//cchBTf64.s:5271   .text._ZN14GrannyChordApp16UpdateSynthModeAEv:0000000000000044 $d
/var/folders/2p/02m_5p7958535cp2tpgps0400000gn/T//cchBTf64.s:5276   .text._ZN14GrannyChordApp13HandleButton1Ev:0000000000000000 $t
/var/folders/2p/02m_5p7958535cp2tpgps0400000gn/T//cchBTf64.s:5282   .text._ZN14GrannyChordApp13HandleButton1Ev:0000000000000000 _ZN14GrannyChordApp13HandleButton1Ev
/var/folders/2p/02m_5p7958535cp2tpgps0400000gn/T//cchBTf64.s:5299   .text._ZN14GrannyChordApp16UpdateSynthModeBEv:0000000000000000 $t
/var/folders/2p/02m_5p7958535cp2tpgps0400000gn/T//cchBTf64.s:5305   .text._ZN14GrannyChordApp16UpdateSynthModeBEv:0000000000000000 _ZN14GrannyChordApp16UpdateSynthModeBEv
/var/folders/2p/02m_5p7958535cp2tpgps0400000gn/T//cchBTf64.s:5389   .text._ZN14GrannyChordApp16UpdateSynthModeBEv:0000000000000044 $d
/var/folders/2p/02m_5p7958535cp2tpgps0400000gn/T//cchBTf64.s:5394   .text._ZN14GrannyChordApp13HandleButton2Ev:0000000000000000 $t
/var/folders/2p/02m_5p7958535cp2tpgps0400000gn/T//cchBTf64.s:5400   .text._ZN14GrannyChordApp13HandleButton2Ev:0000000000000000 _ZN14GrannyChordApp13HandleButton2Ev
/var/folders/2p/02m_5p7958535cp2tpgps0400000gn/T//cchBTf64.s:5417   .text._ZN5daisy9WavWriterILj16384EE8SaveFileEv:0000000000000000 $t
/var/folders/2p/02m_5p7958535cp2tpgps0400000gn/T//cchBTf64.s:5423   .text._ZN5daisy9WavWriterILj16384EE8SaveFileEv:0000000000000000 _ZN5daisy9WavWriterILj16384EE8SaveFileEv
/var/folders/2p/02m_5p7958535cp2tpgps0400000gn/T//cchBTf64.s:5500   .text._ZN14GrannyChordApp15FinishRecordingEv:0000000000000000 $t
/var/folders/2p/02m_5p7958535cp2tpgps0400000gn/T//cchBTf64.s:5506   .text._ZN14GrannyChordApp15FinishRecordingEv:0000000000000000 _ZN14GrannyChordApp15FinishRecordingEv
/var/folders/2p/02m_5p7958535cp2tpgps0400000gn/T//cchBTf64.s:5548   .text._ZN14GrannyChordApp13ButtonHandlerEv:0000000000000000 $t
/var/folders/2p/02m_5p7958535cp2tpgps0400000gn/T//cchBTf64.s:5554   .text._ZN14GrannyChordApp13ButtonHandlerEv:0000000000000000 _ZN14GrannyChordApp13ButtonHandlerEv
/var/folders/2p/02m_5p7958535cp2tpgps0400000gn/T//cchBTf64.s:6014   .text._ZN14GrannyChordApp13ButtonHandlerEv:00000000000001a0 $d
/var/folders/2p/02m_5p7958535cp2tpgps0400000gn/T//cchBTf64.s:6026   .text._ZN14GrannyChordApp8UpdateUIEv:0000000000000000 $t
/var/folders/2p/02m_5p7958535cp2tpgps0400000gn/T//cchBTf64.s:6032   .text._ZN14GrannyChordApp8UpdateUIEv:0000000000000000 _ZN14GrannyChordApp8UpdateUIEv
/var/folders/2p/02m_5p7958535cp2tpgps0400000gn/T//cchBTf64.s:6198   .text._ZN14GrannyChordApp8UpdateUIEv:000000000000008c $d
/var/folders/2p/02m_5p7958535cp2tpgps0400000gn/T//cchBTf64.s:6207   .text._ZN14GrannyChordApp3RunEv:0000000000000000 $t
/var/folders/2p/02m_5p7958535cp2tpgps0400000gn/T//cchBTf64.s:6213   .text._ZN14GrannyChordApp3RunEv:0000000000000000 _ZN14GrannyChordApp3RunEv
/var/folders/2p/02m_5p7958535cp2tpgps0400000gn/T//cchBTf64.s:6369   .text._ZN14GrannyChordApp3RunEv:0000000000000098 $d
/var/folders/2p/02m_5p7958535cp2tpgps0400000gn/T//cchBTf64.s:6380   .bss._ZN14GrannyChordApp9instance_E:0000000000000000 _ZN14GrannyChordApp9instance_E
/var/folders/2p/02m_5p7958535cp2tpgps0400000gn/T//cchBTf64.s:6376   .bss._ZN14GrannyChordApp9instance_E:0000000000000000 $d
/var/folders/2p/02m_5p7958535cp2tpgps0400000gn/T//cchBTf64.s:4912   .text._ZN14GrannyChordApp16SetLed1SynthModeEv:000000000000001f $d
/var/folders/2p/02m_5p7958535cp2tpgps0400000gn/T//cchBTf64.s:4912   .text._ZN14GrannyChordApp16SetLed1SynthModeEv:0000000000000020 $t

UNDEFINED SYMBOLS
_ZN5daisy6System6GetNowEv
_ZN5daisy6LoggerILNS_17LoggerDestinationE1EE9PrintLineEPKcz
_ZN5daisy7Encoder8DebounceEv
strcpy
_ZN16AudioFileManager10SetBuffersEPsS0_
_ZN16AudioFileManager4InitEv
_ZN16AudioFileManager12ScanWavFilesEv
_ZN16AudioFileManager8LoadFileEt
_ZN5daisy8DaisyPod10StartAudioEPFvPKPKfPPfjE
memset
_ZN7daisysp10Compressor4InitEf
_ZN7daisysp7Limiter4InitEv
_ZN7daisysp6Chorus4InitEf
_ZN7daisysp8ReverbSc4InitEf
_ZN7daisysp10MoogLadder4InitEf
_ZN5daisy8DaisyPod17SetAudioBlockSizeEj
_ZN5daisy8DaisyPod18SetAudioSampleRateENS_9SaiHandle6Config10SampleRateE
_ZN5daisy6RgbLed6SetRedEf
_ZN5daisy8DaisyPod10UpdateLedsEv
_ZN5daisy8DaisyPod15AudioSampleRateEv
_ZN5daisy8DaisyPod14AudioBlockSizeEv
_ZN5daisy6System11GetTickFreqEv
time
_ZN13GranularSynth4InitEPsS0_j
ARM GAS  /var/folders/2p/02m_5p7958535cp2tpgps0400000gn/T//cchBTf64.s 			page 184


_ZN5daisy8DaisyPod8StartAdcEv
rng_state
_ZN5daisy13AnalogControl7ProcessEv
_ZN13GranularSynth13ProcessGrainsEv
_ZN5daisy8DaisyPod9StopAudioEv
_ZN7daisysp10Compressor7ProcessEf
_ZN7daisysp10MoogLadder7ProcessEf
cosf
sinf
_ZN7daisysp6Chorus7ProcessEf
_ZN7daisysp8ReverbSc10ProcessMixERKfS2_PfS3_
sprintf
f_open
f_write
_ZN13GranularSynth12SetGrainSizeEf
_ZN13GranularSynth13SetPitchRatioEf
_ZN13GranularSynth11SetSpawnPosEf
_ZN13GranularSynth15SetActiveGrainsEf
_ZN13GranularSynth12SetDirectionEf
_ZN5daisy6RgbLed3SetEfff
_ZN5daisy9DaisySeed6SetLedEb
_ZN5daisy11TimerHandle4InitERKNS0_6ConfigE
_ZN5daisy11TimerHandle12SetPrescalerEm
_ZN5daisy11TimerHandle11SetCallbackEPFvPvES1_
_ZN5daisy11TimerHandle5StartEv
f_lseek
f_close
_ZN5daisy8DaisyPod22ProcessDigitalControlsEv
