ARM GAS  /var/folders/2p/02m_5p7958535cp2tpgps0400000gn/T//ccgOSWw9.s 			page 1


   1              		.cpu cortex-m7
   2              		.arch armv7e-m
   3              		.fpu fpv5-d16
   4              		.eabi_attribute 28, 1
   5              		.eabi_attribute 20, 1
   6              		.eabi_attribute 21, 1
   7              		.eabi_attribute 23, 3
   8              		.eabi_attribute 24, 1
   9              		.eabi_attribute 25, 1
  10              		.eabi_attribute 26, 1
  11              		.eabi_attribute 30, 4
  12              		.eabi_attribute 34, 1
  13              		.eabi_attribute 18, 4
  14              		.file	"GrannyChordApp.cpp"
  15              		.text
  16              	.Ltext0:
  17              		.cfi_sections	.debug_frame
  18              		.section	.text._ZNK5daisy6Switch10TimeHeldMsEv,"axG",%progbits,_ZNK5daisy6Switch10TimeHeldMsEv,com
  19              		.align	1
  20              		.weak	_ZNK5daisy6Switch10TimeHeldMsEv
  21              		.syntax unified
  22              		.thumb
  23              		.thumb_func
  25              	_ZNK5daisy6Switch10TimeHeldMsEv:
  26              	.LVL0:
  27              	.LFB1646:
  28              		.file 1 "../libDaisy/src/hid/switch.h"
   1:../libDaisy/src/hid/switch.h **** #pragma once
   2:../libDaisy/src/hid/switch.h **** #ifndef DSY_SWITCH_H
   3:../libDaisy/src/hid/switch.h **** #define DSY_SWITCH_H
   4:../libDaisy/src/hid/switch.h **** #include "daisy_core.h"
   5:../libDaisy/src/hid/switch.h **** #include "per/gpio.h"
   6:../libDaisy/src/hid/switch.h **** #include "sys/system.h"
   7:../libDaisy/src/hid/switch.h **** 
   8:../libDaisy/src/hid/switch.h **** namespace daisy
   9:../libDaisy/src/hid/switch.h **** {
  10:../libDaisy/src/hid/switch.h **** /** 
  11:../libDaisy/src/hid/switch.h ****     Generic Class for handling momentary/latching switches \n 
  12:../libDaisy/src/hid/switch.h ****     Inspired/influenced by Mutable Instruments (pichenettes) Switch classes
  13:../libDaisy/src/hid/switch.h ****     @author Stephen Hensley
  14:../libDaisy/src/hid/switch.h ****     @date December 2019
  15:../libDaisy/src/hid/switch.h ****     @ingroup controls
  16:../libDaisy/src/hid/switch.h **** */
  17:../libDaisy/src/hid/switch.h **** class Switch
  18:../libDaisy/src/hid/switch.h **** {
  19:../libDaisy/src/hid/switch.h ****   public:
  20:../libDaisy/src/hid/switch.h ****     /** Specifies the expected behavior of the switch */
  21:../libDaisy/src/hid/switch.h ****     enum Type
  22:../libDaisy/src/hid/switch.h ****     {
  23:../libDaisy/src/hid/switch.h ****         TYPE_TOGGLE,    /**< & */
  24:../libDaisy/src/hid/switch.h ****         TYPE_MOMENTARY, /**< & */
  25:../libDaisy/src/hid/switch.h ****     };
  26:../libDaisy/src/hid/switch.h ****     /** Specifies whether the pressed is HIGH or LOW. */
  27:../libDaisy/src/hid/switch.h ****     enum Polarity
  28:../libDaisy/src/hid/switch.h ****     {
  29:../libDaisy/src/hid/switch.h ****         POLARITY_NORMAL,   /**< & */
  30:../libDaisy/src/hid/switch.h ****         POLARITY_INVERTED, /**< & */
ARM GAS  /var/folders/2p/02m_5p7958535cp2tpgps0400000gn/T//ccgOSWw9.s 			page 2


  31:../libDaisy/src/hid/switch.h ****     };
  32:../libDaisy/src/hid/switch.h **** 
  33:../libDaisy/src/hid/switch.h ****     /** Specifies whether to use built-in Pull Up/Down resistors to hold button at a given state wh
  34:../libDaisy/src/hid/switch.h ****     enum Pull
  35:../libDaisy/src/hid/switch.h ****     {
  36:../libDaisy/src/hid/switch.h ****         PULL_UP,   /**< & */
  37:../libDaisy/src/hid/switch.h ****         PULL_DOWN, /**< & */
  38:../libDaisy/src/hid/switch.h ****         PULL_NONE, /**< & */
  39:../libDaisy/src/hid/switch.h ****     };
  40:../libDaisy/src/hid/switch.h **** 
  41:../libDaisy/src/hid/switch.h ****     Switch() {}
  42:../libDaisy/src/hid/switch.h ****     ~Switch() {}
  43:../libDaisy/src/hid/switch.h **** 
  44:../libDaisy/src/hid/switch.h ****     /** 
  45:../libDaisy/src/hid/switch.h ****     Initializes the switch object with a given port/pin combo.
  46:../libDaisy/src/hid/switch.h ****     \param pin port/pin object to tell the switch which hardware pin to use.
  47:../libDaisy/src/hid/switch.h ****     \param update_rate Does nothing. Backwards compatibility until next breaking update.
  48:../libDaisy/src/hid/switch.h ****     \param t switch type -- Default: TYPE_MOMENTARY
  49:../libDaisy/src/hid/switch.h ****     \param pol switch polarity -- Default: POLARITY_INVERTED
  50:../libDaisy/src/hid/switch.h ****     \param pu switch pull up/down -- Default: PULL_UP
  51:../libDaisy/src/hid/switch.h ****     */
  52:../libDaisy/src/hid/switch.h ****     void
  53:../libDaisy/src/hid/switch.h ****     Init(dsy_gpio_pin pin, float update_rate, Type t, Polarity pol, Pull pu);
  54:../libDaisy/src/hid/switch.h **** 
  55:../libDaisy/src/hid/switch.h ****     /**
  56:../libDaisy/src/hid/switch.h ****        Simplified Init.
  57:../libDaisy/src/hid/switch.h ****        \param pin port/pin object to tell the switch which hardware pin to use.
  58:../libDaisy/src/hid/switch.h ****        \param update_rate Left for backwards compatibility until next breaking change.
  59:../libDaisy/src/hid/switch.h ****     */
  60:../libDaisy/src/hid/switch.h ****     void Init(dsy_gpio_pin pin, float update_rate = 0.f);
  61:../libDaisy/src/hid/switch.h **** 
  62:../libDaisy/src/hid/switch.h ****     /** 
  63:../libDaisy/src/hid/switch.h ****     Called at update_rate to debounce and handle timing for the switch.
  64:../libDaisy/src/hid/switch.h ****     In order for events not to be missed, its important that the Edge/Pressed checks
  65:../libDaisy/src/hid/switch.h ****     be made at the same rate as the debounce function is being called.
  66:../libDaisy/src/hid/switch.h ****     */
  67:../libDaisy/src/hid/switch.h ****     void Debounce();
  68:../libDaisy/src/hid/switch.h **** 
  69:../libDaisy/src/hid/switch.h ****     /** \return true if a button was just pressed. */
  70:../libDaisy/src/hid/switch.h ****     inline bool RisingEdge() const { return updated_ ? state_ == 0x7f : false; }
  71:../libDaisy/src/hid/switch.h **** 
  72:../libDaisy/src/hid/switch.h ****     /** \return true if the button was just released */
  73:../libDaisy/src/hid/switch.h ****     inline bool FallingEdge() const
  74:../libDaisy/src/hid/switch.h ****     {
  75:../libDaisy/src/hid/switch.h ****         return updated_ ? state_ == 0x80 : false;
  76:../libDaisy/src/hid/switch.h ****     }
  77:../libDaisy/src/hid/switch.h **** 
  78:../libDaisy/src/hid/switch.h ****     /** \return true if the button is held down (or if the toggle is on) */
  79:../libDaisy/src/hid/switch.h ****     inline bool Pressed() const { return state_ == 0xff; }
  80:../libDaisy/src/hid/switch.h **** 
  81:../libDaisy/src/hid/switch.h ****     /** \return true if the button is held down, without debouncing */
  82:../libDaisy/src/hid/switch.h ****     inline bool RawState()
  83:../libDaisy/src/hid/switch.h ****     {
  84:../libDaisy/src/hid/switch.h ****         return flip_ ? !dsy_gpio_read(&hw_gpio_) : dsy_gpio_read(&hw_gpio_);
  85:../libDaisy/src/hid/switch.h ****     }
  86:../libDaisy/src/hid/switch.h **** 
  87:../libDaisy/src/hid/switch.h ****     /** \return the time in milliseconds that the button has been held (or toggle has been on) */
ARM GAS  /var/folders/2p/02m_5p7958535cp2tpgps0400000gn/T//ccgOSWw9.s 			page 3


  88:../libDaisy/src/hid/switch.h ****     inline float TimeHeldMs() const
  29              		.loc 1 88 18 view -0
  30              		.cfi_startproc
  31              		@ args = 0, pretend = 0, frame = 0
  32              		@ frame_needed = 0, uses_anonymous_args = 0
  89:../libDaisy/src/hid/switch.h ****     {
  90:../libDaisy/src/hid/switch.h ****         return Pressed() ? System::GetNow() - rising_edge_time_ : 0;
  33              		.loc 1 90 9 view .LVU1
  34              	.LBB357:
  35              	.LBI357:
  79:../libDaisy/src/hid/switch.h **** 
  36              		.loc 1 79 17 view .LVU2
  37              	.LBB358:
  79:../libDaisy/src/hid/switch.h **** 
  38              		.loc 1 79 35 view .LVU3
  79:../libDaisy/src/hid/switch.h **** 
  39              		.loc 1 79 35 is_stmt 0 view .LVU4
  40              	.LBE358:
  41              	.LBE357:
  88:../libDaisy/src/hid/switch.h ****     {
  42              		.loc 1 88 18 view .LVU5
  43 0000 10B5     		push	{r4, lr}
  44              		.cfi_def_cfa_offset 8
  45              		.cfi_offset 4, -8
  46              		.cfi_offset 14, -4
  47              		.loc 1 90 26 view .LVU6
  48 0002 837A     		ldrb	r3, [r0, #10]	@ zero_extendqisi2
  88:../libDaisy/src/hid/switch.h ****     {
  49              		.loc 1 88 18 view .LVU7
  50 0004 0446     		mov	r4, r0
  51              		.loc 1 90 26 view .LVU8
  52 0006 FF2B     		cmp	r3, #255
  53 0008 0AD1     		bne	.L3
  54              	.LVL1:
  55              	.LBB359:
  56              	.LBI359:
  88:../libDaisy/src/hid/switch.h ****     {
  57              		.loc 1 88 18 is_stmt 1 view .LVU9
  58              	.LBB360:
  59              		.loc 1 90 42 is_stmt 0 view .LVU10
  60 000a FFF7FEFF 		bl	_ZN5daisy6System6GetNowEv
  61              	.LVL2:
  62              		.loc 1 90 45 view .LVU11
  63 000e 07EE900A 		vmov	s15, r0	@ int
  64 0012 B8EE670A 		vcvt.f32.u32	s0, s15
  65              		.loc 1 90 26 view .LVU12
  66 0016 D4ED037A 		vldr.32	s15, [r4, #12]
  67 001a 30EE670A 		vsub.f32	s0, s0, s15
  68              	.LVL3:
  69              	.L1:
  70              		.loc 1 90 26 view .LVU13
  71              	.LBE360:
  72              	.LBE359:
  91:../libDaisy/src/hid/switch.h ****     }
  73              		.loc 1 91 5 view .LVU14
  74 001e 10BD     		pop	{r4, pc}
  75              	.LVL4:
ARM GAS  /var/folders/2p/02m_5p7958535cp2tpgps0400000gn/T//ccgOSWw9.s 			page 4


  76              	.L3:
  90:../libDaisy/src/hid/switch.h ****     }
  77              		.loc 1 90 26 view .LVU15
  78 0020 9FED010A 		vldr.32	s0, .L4
  90:../libDaisy/src/hid/switch.h ****     }
  79              		.loc 1 90 67 view .LVU16
  80 0024 FBE7     		b	.L1
  81              	.L5:
  82 0026 00BF     		.align	2
  83              	.L4:
  84 0028 00000000 		.word	0
  85              		.cfi_endproc
  86              	.LFE1646:
  88              		.section	.text._ZN7daisysp7OnePole12SetFrequencyEf,"axG",%progbits,_ZN7daisysp7OnePole12SetFrequen
  89              		.align	1
  90              		.weak	_ZN7daisysp7OnePole12SetFrequencyEf
  91              		.syntax unified
  92              		.thumb
  93              		.thumb_func
  95              	_ZN7daisysp7OnePole12SetFrequencyEf:
  96              	.LVL5:
  97              	.LFB4464:
  98              		.file 2 "../DaisySP/Source/Filters/onepole.h"
   1:../DaisySP/Source/Filters/onepole.h **** /*
   2:../DaisySP/Source/Filters/onepole.h **** Copyright (c) 2020 Electrosmith, Corp, Emilie Gillet
   3:../DaisySP/Source/Filters/onepole.h **** 
   4:../DaisySP/Source/Filters/onepole.h **** Use of this source code is governed by an MIT-style
   5:../DaisySP/Source/Filters/onepole.h **** license that can be found in the LICENSE file or at
   6:../DaisySP/Source/Filters/onepole.h **** https://opensource.org/licenses/MIT.
   7:../DaisySP/Source/Filters/onepole.h **** */
   8:../DaisySP/Source/Filters/onepole.h **** 
   9:../DaisySP/Source/Filters/onepole.h **** #ifndef DSY_ONEPOLE_H
  10:../DaisySP/Source/Filters/onepole.h **** #define DSY_ONEPOLE_H
  11:../DaisySP/Source/Filters/onepole.h **** 
  12:../DaisySP/Source/Filters/onepole.h **** #include "Utility/dsp.h"
  13:../DaisySP/Source/Filters/onepole.h **** #include <cmath>
  14:../DaisySP/Source/Filters/onepole.h **** #include <algorithm>
  15:../DaisySP/Source/Filters/onepole.h **** 
  16:../DaisySP/Source/Filters/onepole.h **** namespace daisysp
  17:../DaisySP/Source/Filters/onepole.h **** {
  18:../DaisySP/Source/Filters/onepole.h **** /**         
  19:../DaisySP/Source/Filters/onepole.h ****     @brief One Pole Lowpass / Highpass Filter
  20:../DaisySP/Source/Filters/onepole.h ****     @author beserge
  21:../DaisySP/Source/Filters/onepole.h ****     @date Dec 2023 
  22:../DaisySP/Source/Filters/onepole.h ****     Ported from pichenettes/stmlib/dsp/filter.h \n 
  23:../DaisySP/Source/Filters/onepole.h ****     \n to an independent module. \n
  24:../DaisySP/Source/Filters/onepole.h ****     Original code written by Emilie Gillet. \n
  25:../DaisySP/Source/Filters/onepole.h **** */
  26:../DaisySP/Source/Filters/onepole.h **** class OnePole
  27:../DaisySP/Source/Filters/onepole.h **** {
  28:../DaisySP/Source/Filters/onepole.h ****   public:
  29:../DaisySP/Source/Filters/onepole.h ****     OnePole() {}
  30:../DaisySP/Source/Filters/onepole.h ****     ~OnePole() {}
  31:../DaisySP/Source/Filters/onepole.h **** 
  32:../DaisySP/Source/Filters/onepole.h ****     /**
  33:../DaisySP/Source/Filters/onepole.h ****      * @brief Operational modes of the filter
  34:../DaisySP/Source/Filters/onepole.h ****      * - LOW_PASS = cuts out high frequency sound, lets low frequency sound pass through
ARM GAS  /var/folders/2p/02m_5p7958535cp2tpgps0400000gn/T//ccgOSWw9.s 			page 5


  35:../DaisySP/Source/Filters/onepole.h ****      * - HIGH_PASS = cuts out low frequency sound, lets high frequency sound pass through
  36:../DaisySP/Source/Filters/onepole.h ****      */
  37:../DaisySP/Source/Filters/onepole.h ****     enum FilterMode
  38:../DaisySP/Source/Filters/onepole.h ****     {
  39:../DaisySP/Source/Filters/onepole.h ****         FILTER_MODE_LOW_PASS,
  40:../DaisySP/Source/Filters/onepole.h ****         FILTER_MODE_HIGH_PASS
  41:../DaisySP/Source/Filters/onepole.h ****     };
  42:../DaisySP/Source/Filters/onepole.h **** 
  43:../DaisySP/Source/Filters/onepole.h ****     /** Initializes the module */
  44:../DaisySP/Source/Filters/onepole.h ****     void Init()
  45:../DaisySP/Source/Filters/onepole.h ****     {
  46:../DaisySP/Source/Filters/onepole.h ****         Reset();
  47:../DaisySP/Source/Filters/onepole.h ****         mode_ = FILTER_MODE_LOW_PASS;
  48:../DaisySP/Source/Filters/onepole.h ****     }
  49:../DaisySP/Source/Filters/onepole.h **** 
  50:../DaisySP/Source/Filters/onepole.h ****     /** Reset the module to its default state */
  51:../DaisySP/Source/Filters/onepole.h ****     inline void Reset() { state_ = 0.0f; }
  52:../DaisySP/Source/Filters/onepole.h **** 
  53:../DaisySP/Source/Filters/onepole.h ****     /** Set the filter cutoff frequency
  54:../DaisySP/Source/Filters/onepole.h ****     *   \param freq Cutoff frequency. Valid range from 0 to .497f
  55:../DaisySP/Source/Filters/onepole.h ****     */
  56:../DaisySP/Source/Filters/onepole.h ****     inline void SetFrequency(float freq)
  99              		.loc 2 56 17 is_stmt 1 view -0
 100              		.cfi_startproc
 101              		@ args = 0, pretend = 0, frame = 0
 102              		@ frame_needed = 0, uses_anonymous_args = 0
  57:../DaisySP/Source/Filters/onepole.h ****     {
  58:../DaisySP/Source/Filters/onepole.h ****         // Clip coefficient to about 100.
  59:../DaisySP/Source/Filters/onepole.h ****         freq = freq < 0.497f ? freq : 0.497f;
 103              		.loc 2 59 9 view .LVU18
 104              		.loc 2 59 30 is_stmt 0 view .LVU19
 105 0000 DFED0D7A 		vldr.32	s15, .L8
 106 0004 B4EEE70A 		vcmpe.f32	s0, s15
  56:../DaisySP/Source/Filters/onepole.h ****     {
 107              		.loc 2 56 17 view .LVU20
 108 0008 10B5     		push	{r4, lr}
 109              		.cfi_def_cfa_offset 8
 110              		.cfi_offset 4, -8
 111              		.cfi_offset 14, -4
 112              		.loc 2 59 30 view .LVU21
 113 000a F1EE10FA 		vmrs	APSR_nzcv, FPSCR
  56:../DaisySP/Source/Filters/onepole.h ****     {
 114              		.loc 2 56 17 view .LVU22
 115 000e 0446     		mov	r4, r0
 116              		.loc 2 59 30 view .LVU23
 117 0010 58BF     		it	pl
 118 0012 B0EE670A 		vmovpl.f32	s0, s15
 119              	.LVL6:
  60:../DaisySP/Source/Filters/onepole.h **** 
  61:../DaisySP/Source/Filters/onepole.h ****         g_  = tanf(PI_F * freq);
 120              		.loc 2 61 9 is_stmt 1 view .LVU24
 121              		.loc 2 61 19 is_stmt 0 view .LVU25
 122 0016 DFED097A 		vldr.32	s15, .L8+4
 123 001a 20EE270A 		vmul.f32	s0, s0, s15
 124              	.LVL7:
 125              		.loc 2 61 19 view .LVU26
 126 001e FFF7FEFF 		bl	tanf
ARM GAS  /var/folders/2p/02m_5p7958535cp2tpgps0400000gn/T//ccgOSWw9.s 			page 6


 127              	.LVL8:
  62:../DaisySP/Source/Filters/onepole.h ****         gi_ = 1.f / (1.f + g_);
 128              		.loc 2 62 26 view .LVU27
 129 0022 F7EE007A 		vmov.f32	s15, #1.0e+0
  61:../DaisySP/Source/Filters/onepole.h ****         gi_ = 1.f / (1.f + g_);
 130              		.loc 2 61 13 view .LVU28
 131 0026 84ED000A 		vstr.32	s0, [r4]
 132              		.loc 2 62 9 is_stmt 1 view .LVU29
 133              		.loc 2 62 26 is_stmt 0 view .LVU30
 134 002a 30EE270A 		vadd.f32	s0, s0, s15
 135              		.loc 2 62 19 view .LVU31
 136 002e 87EE807A 		vdiv.f32	s14, s15, s0
 137              		.loc 2 62 13 view .LVU32
 138 0032 84ED017A 		vstr.32	s14, [r4, #4]
  63:../DaisySP/Source/Filters/onepole.h ****     }
 139              		.loc 2 63 5 view .LVU33
 140 0036 10BD     		pop	{r4, pc}
 141              	.LVL9:
 142              	.L9:
 143              		.loc 2 63 5 view .LVU34
 144              		.align	2
 145              	.L8:
 146 0038 C976FE3E 		.word	1056863945
 147 003c DB0F4940 		.word	1078530011
 148              		.cfi_endproc
 149              	.LFE4464:
 151              		.section	.text._ZN7daisysp7OnePole7ProcessEf,"axG",%progbits,_ZN7daisysp7OnePole7ProcessEf,comdat
 152              		.align	1
 153              		.weak	_ZN7daisysp7OnePole7ProcessEf
 154              		.syntax unified
 155              		.thumb
 156              		.thumb_func
 158              	_ZN7daisysp7OnePole7ProcessEf:
 159              	.LVL10:
 160              	.LFB4466:
  64:../DaisySP/Source/Filters/onepole.h **** 
  65:../DaisySP/Source/Filters/onepole.h ****     /** Set the filter mode
  66:../DaisySP/Source/Filters/onepole.h ****     *   \param mode Filter mode. Can be lowpass or highpass
  67:../DaisySP/Source/Filters/onepole.h ****     */
  68:../DaisySP/Source/Filters/onepole.h ****     inline void SetFilterMode(FilterMode mode) { mode_ = mode; }
  69:../DaisySP/Source/Filters/onepole.h **** 
  70:../DaisySP/Source/Filters/onepole.h ****     /** Process audio through the filter
  71:../DaisySP/Source/Filters/onepole.h ****     *   \param in The next sample to be processed
  72:../DaisySP/Source/Filters/onepole.h ****     */
  73:../DaisySP/Source/Filters/onepole.h ****     inline float Process(float in)
 161              		.loc 2 73 18 is_stmt 1 view -0
 162              		.cfi_startproc
 163              		@ args = 0, pretend = 0, frame = 0
 164              		@ frame_needed = 0, uses_anonymous_args = 0
 165              		@ link register save eliminated.
  74:../DaisySP/Source/Filters/onepole.h ****     {
  75:../DaisySP/Source/Filters/onepole.h ****         float lp;
 166              		.loc 2 75 9 view .LVU36
  76:../DaisySP/Source/Filters/onepole.h ****         lp     = (g_ * in + state_) * gi_;
 167              		.loc 2 76 9 view .LVU37
 168              		.loc 2 76 19 is_stmt 0 view .LVU38
 169 0000 D0ED006A 		vldr.32	s13, [r0]
ARM GAS  /var/folders/2p/02m_5p7958535cp2tpgps0400000gn/T//ccgOSWw9.s 			page 7


  73:../DaisySP/Source/Filters/onepole.h ****     {
 170              		.loc 2 73 18 view .LVU39
 171 0004 B0EE407A 		vmov.f32	s14, s0
 172              		.loc 2 76 27 view .LVU40
 173 0008 D0ED027A 		vldr.32	s15, [r0, #8]
  77:../DaisySP/Source/Filters/onepole.h ****         state_ = g_ * (in - lp) + lp;
  78:../DaisySP/Source/Filters/onepole.h **** 
  79:../DaisySP/Source/Filters/onepole.h ****         switch(mode_)
 174              		.loc 2 79 16 view .LVU41
 175 000c 037B     		ldrb	r3, [r0, #12]	@ zero_extendqisi2
  76:../DaisySP/Source/Filters/onepole.h ****         state_ = g_ * (in - lp) + lp;
 176              		.loc 2 76 27 view .LVU42
 177 000e E6EE807A 		vfma.f32	s15, s13, s0
  76:../DaisySP/Source/Filters/onepole.h ****         state_ = g_ * (in - lp) + lp;
 178              		.loc 2 76 16 view .LVU43
 179 0012 90ED010A 		vldr.32	s0, [r0, #4]
 180              	.LVL11:
  76:../DaisySP/Source/Filters/onepole.h ****         state_ = g_ * (in - lp) + lp;
 181              		.loc 2 76 16 view .LVU44
 182 0016 27EE800A 		vmul.f32	s0, s15, s0
 183              	.LVL12:
  77:../DaisySP/Source/Filters/onepole.h ****         state_ = g_ * (in - lp) + lp;
 184              		.loc 2 77 9 is_stmt 1 view .LVU45
  77:../DaisySP/Source/Filters/onepole.h ****         state_ = g_ * (in - lp) + lp;
 185              		.loc 2 77 27 is_stmt 0 view .LVU46
 186 001a 77EE407A 		vsub.f32	s15, s14, s0
  77:../DaisySP/Source/Filters/onepole.h ****         state_ = g_ * (in - lp) + lp;
 187              		.loc 2 77 33 view .LVU47
 188 001e B0EE407A 		vmov.f32	s14, s0
 189              	.LVL13:
  77:../DaisySP/Source/Filters/onepole.h ****         state_ = g_ * (in - lp) + lp;
 190              		.loc 2 77 33 view .LVU48
 191 0022 A6EEA77A 		vfma.f32	s14, s13, s15
  77:../DaisySP/Source/Filters/onepole.h ****         state_ = g_ * (in - lp) + lp;
 192              		.loc 2 77 16 view .LVU49
 193 0026 80ED027A 		vstr.32	s14, [r0, #8]
 194              		.loc 2 79 9 is_stmt 1 view .LVU50
 195 002a 23B1     		cbz	r3, .L10
 196 002c 012B     		cmp	r3, #1
 197 002e 9FED020A 		vldr.32	s0, .L16
 198              	.LVL14:
 199              		.loc 2 79 9 is_stmt 0 view .LVU51
 200 0032 07FE800A 		vseleq.f32	s0, s15, s0
 201              	.L10:
  80:../DaisySP/Source/Filters/onepole.h ****         {
  81:../DaisySP/Source/Filters/onepole.h ****             case FILTER_MODE_LOW_PASS: return lp;
  82:../DaisySP/Source/Filters/onepole.h ****             case FILTER_MODE_HIGH_PASS: return in - lp;
  83:../DaisySP/Source/Filters/onepole.h ****         }
  84:../DaisySP/Source/Filters/onepole.h **** 
  85:../DaisySP/Source/Filters/onepole.h ****         return 0.0f;
  86:../DaisySP/Source/Filters/onepole.h ****     }
 202              		.loc 2 86 5 view .LVU52
 203 0036 7047     		bx	lr
 204              	.L17:
 205              		.align	2
 206              	.L16:
 207 0038 00000000 		.word	0
ARM GAS  /var/folders/2p/02m_5p7958535cp2tpgps0400000gn/T//ccgOSWw9.s 			page 8


 208              		.cfi_endproc
 209              	.LFE4466:
 211              		.section	.rodata._ZN14GrannyChordApp12PrintCPULoadEv.str1.1,"aMS",%progbits,1
 212              	.LC0:
 213 0000 50726F63 		.ascii	"Processing Load %:\000"
 213      65737369 
 213      6E67204C 
 213      6F616420 
 213      253A00
 214              	.LC1:
 215 0013 4D61783A 		.ascii	"Max: %c%d.%03d\000"
 215      20256325 
 215      642E2530 
 215      336400
 216              	.LC2:
 217 0022 4176673A 		.ascii	"Avg: %c%d.%03d\000"
 217      20256325 
 217      642E2530 
 217      336400
 218              	.LC3:
 219 0031 4D696E3A 		.ascii	"Min: %c%d.%03d\000"
 219      20256325 
 219      642E2530 
 219      336400
 220              		.section	.text._ZN14GrannyChordApp12PrintCPULoadEv,"ax",%progbits
 221              		.align	1
 222              		.global	_ZN14GrannyChordApp12PrintCPULoadEv
 223              		.syntax unified
 224              		.thumb
 225              		.thumb_func
 227              	_ZN14GrannyChordApp12PrintCPULoadEv:
 228              	.LVL15:
 229              	.LFB4903:
 230              		.file 3 "GrannyChordApp.cpp"
   1:GrannyChordApp.cpp **** #ifdef DEBUG_MODE // TODO: remove
   2:GrannyChordApp.cpp **** #pragma message("Debug mode is ON")
   3:GrannyChordApp.cpp **** #else
   4:GrannyChordApp.cpp **** #pragma message("Debug mode is OFF")
   5:GrannyChordApp.cpp **** #endif
   6:GrannyChordApp.cpp **** 
   7:GrannyChordApp.cpp **** #include "GrannyChordApp.h"
   8:GrannyChordApp.cpp **** 
   9:GrannyChordApp.cpp **** /* this is required for AudioCallback as it needs a static object */
  10:GrannyChordApp.cpp **** GrannyChordApp* GrannyChordApp::instance_ = nullptr;
  11:GrannyChordApp.cpp **** 
  12:GrannyChordApp.cpp **** 
  13:GrannyChordApp.cpp **** /// @brief Initialises app state and members and goes through app startup process
  14:GrannyChordApp.cpp **** /// @param left Left channel audio data buffer
  15:GrannyChordApp.cpp **** /// @param right Right channel audio data buffer
  16:GrannyChordApp.cpp **** void GrannyChordApp::Init(int16_t *left, int16_t *right){
  17:GrannyChordApp.cpp ****   left_buf_ = left, right_buf_ = right;
  18:GrannyChordApp.cpp ****   pod_.SetAudioBlockSize(2);
  19:GrannyChordApp.cpp ****   pod_.SetAudioSampleRate(SaiHandle::Config::SampleRate::SAI_48KHZ);
  20:GrannyChordApp.cpp **** 
  21:GrannyChordApp.cpp ****   curr_state_ = AppState::SelectFile;
  22:GrannyChordApp.cpp ****   if (!InitFileMgr()){
  23:GrannyChordApp.cpp ****     DebugPrint(pod_,"File manager failed to init");
ARM GAS  /var/folders/2p/02m_5p7958535cp2tpgps0400000gn/T//ccgOSWw9.s 			page 9


  24:GrannyChordApp.cpp ****     pod_.led1.SetRed(1);
  25:GrannyChordApp.cpp ****     pod_.led2.SetRed(1);
  26:GrannyChordApp.cpp ****     pod_.UpdateLeds();
  27:GrannyChordApp.cpp ****     return;
  28:GrannyChordApp.cpp ****   }
  29:GrannyChordApp.cpp ****   loadmeter.Init(pod_.AudioSampleRate(), pod_.AudioBlockSize());
  30:GrannyChordApp.cpp ****   InitFX();
  31:GrannyChordApp.cpp ****   InitPrevParamVals();
  32:GrannyChordApp.cpp ****   SeedRng();
  33:GrannyChordApp.cpp ****   synth_.Init(left_buf_, right_buf_, 0);
  34:GrannyChordApp.cpp ****   pod_.StartAdc();
  35:GrannyChordApp.cpp **** }
  36:GrannyChordApp.cpp **** 
  37:GrannyChordApp.cpp **** #ifdef DEBUG_MODE
  38:GrannyChordApp.cpp **** void GrannyChordApp::PrintCPULoad(){
 231              		.loc 3 38 36 is_stmt 1 view -0
 232              		.cfi_startproc
 233              		@ args = 0, pretend = 0, frame = 0
 234              		@ frame_needed = 0, uses_anonymous_args = 0
  39:GrannyChordApp.cpp ****   const float avgLoad = loadmeter.GetAvgCpuLoad();
 235              		.loc 3 39 3 view .LVU54
 236              	.LBB361:
 237              	.LBI361:
 238              		.file 4 "../libDaisy/src/util/CpuLoadMeter.h"
   1:../libDaisy/src/util/CpuLoadMeter.h **** #pragma once
   2:../libDaisy/src/util/CpuLoadMeter.h **** 
   3:../libDaisy/src/util/CpuLoadMeter.h **** #include "sys/system.h"
   4:../libDaisy/src/util/CpuLoadMeter.h **** #include <cmath>
   5:../libDaisy/src/util/CpuLoadMeter.h **** 
   6:../libDaisy/src/util/CpuLoadMeter.h **** namespace daisy
   7:../libDaisy/src/util/CpuLoadMeter.h **** {
   8:../libDaisy/src/util/CpuLoadMeter.h **** /** @brief CPU load metering
   9:../libDaisy/src/util/CpuLoadMeter.h ****  *  @author jelliesen
  10:../libDaisy/src/util/CpuLoadMeter.h ****  *  @addtogroup utility
  11:../libDaisy/src/util/CpuLoadMeter.h ****  * 
  12:../libDaisy/src/util/CpuLoadMeter.h ****  *  To measure the CPU load of your audio processing, create a CpuLoadMeter
  13:../libDaisy/src/util/CpuLoadMeter.h ****  *  and initialize it with your block size and sample rate.
  14:../libDaisy/src/util/CpuLoadMeter.h ****  *  Then at the beginning of the audio callback, call `OnBlockStart()`, 
  15:../libDaisy/src/util/CpuLoadMeter.h ****  *  and at the end of the audio callback, call `OnBlockEnd()`.
  16:../libDaisy/src/util/CpuLoadMeter.h ****  *  You can then read out the minimum, maximum and average CPU load.
  17:../libDaisy/src/util/CpuLoadMeter.h ****  */
  18:../libDaisy/src/util/CpuLoadMeter.h **** class CpuLoadMeter
  19:../libDaisy/src/util/CpuLoadMeter.h **** {
  20:../libDaisy/src/util/CpuLoadMeter.h ****   public:
  21:../libDaisy/src/util/CpuLoadMeter.h ****     CpuLoadMeter(){};
  22:../libDaisy/src/util/CpuLoadMeter.h **** 
  23:../libDaisy/src/util/CpuLoadMeter.h ****     /** Initializes the CpuLoadMeter for a particular sample rate and block size.
  24:../libDaisy/src/util/CpuLoadMeter.h ****      *  @param sampleRateInHz           The sample rate in Hz
  25:../libDaisy/src/util/CpuLoadMeter.h ****      *  @param blockSizeInSamples       The block size in samples
  26:../libDaisy/src/util/CpuLoadMeter.h ****      *  @param smoothingFilterCutoffHz  The cutoff frequency of the smoothing filter that's used to
  27:../libDaisy/src/util/CpuLoadMeter.h ****      *                                  create the average CPU load reading.
  28:../libDaisy/src/util/CpuLoadMeter.h ****      */
  29:../libDaisy/src/util/CpuLoadMeter.h ****     void Init(float sampleRateInHz,
  30:../libDaisy/src/util/CpuLoadMeter.h ****               int   blockSizeInSamples,
  31:../libDaisy/src/util/CpuLoadMeter.h ****               float smoothingFilterCutoffHz = 1.0f)
  32:../libDaisy/src/util/CpuLoadMeter.h ****     {
  33:../libDaisy/src/util/CpuLoadMeter.h ****         const auto secPerBlock = float(blockSizeInSamples) / sampleRateInHz;
ARM GAS  /var/folders/2p/02m_5p7958535cp2tpgps0400000gn/T//ccgOSWw9.s 			page 10


  34:../libDaisy/src/util/CpuLoadMeter.h ****         const auto ticksPerS   = float(System::GetTickFreq());
  35:../libDaisy/src/util/CpuLoadMeter.h ****         ticksPerBlockInv_      = 1.0f / (ticksPerS * secPerBlock);
  36:../libDaisy/src/util/CpuLoadMeter.h **** 
  37:../libDaisy/src/util/CpuLoadMeter.h ****         // update filter coefficient for smoothing filter (1pole lowpass)
  38:../libDaisy/src/util/CpuLoadMeter.h ****         const auto blockRateInHz = sampleRateInHz / float(blockSizeInSamples);
  39:../libDaisy/src/util/CpuLoadMeter.h ****         const auto cutoffNormalized
  40:../libDaisy/src/util/CpuLoadMeter.h ****             = smoothingFilterCutoffHz * 2.0f * 3.141592653f / blockRateInHz;
  41:../libDaisy/src/util/CpuLoadMeter.h ****         // according to
  42:../libDaisy/src/util/CpuLoadMeter.h ****         // https://en.wikipedia.org/wiki/Low-pass_filter#Simple_infinite_impulse_response_filter
  43:../libDaisy/src/util/CpuLoadMeter.h ****         smoothingConstant_ = cutoffNormalized / (cutoffNormalized + 1.0f);
  44:../libDaisy/src/util/CpuLoadMeter.h **** 
  45:../libDaisy/src/util/CpuLoadMeter.h ****         Reset();
  46:../libDaisy/src/util/CpuLoadMeter.h ****     }
  47:../libDaisy/src/util/CpuLoadMeter.h **** 
  48:../libDaisy/src/util/CpuLoadMeter.h ****     /** Call this at the beginning of your audio callback */
  49:../libDaisy/src/util/CpuLoadMeter.h ****     void OnBlockStart() { currentBlockStartTicks_ = System::GetTick(); }
  50:../libDaisy/src/util/CpuLoadMeter.h **** 
  51:../libDaisy/src/util/CpuLoadMeter.h ****     /** Call this at the end of your audio callback */
  52:../libDaisy/src/util/CpuLoadMeter.h ****     void OnBlockEnd()
  53:../libDaisy/src/util/CpuLoadMeter.h ****     {
  54:../libDaisy/src/util/CpuLoadMeter.h ****         const auto end         = System::GetTick();
  55:../libDaisy/src/util/CpuLoadMeter.h ****         const auto ticksPassed = end - currentBlockStartTicks_;
  56:../libDaisy/src/util/CpuLoadMeter.h ****         const auto currentBlockLoad
  57:../libDaisy/src/util/CpuLoadMeter.h ****             = float(ticksPassed) * ticksPerBlockInv_; // usPassed / usPerBlock
  58:../libDaisy/src/util/CpuLoadMeter.h **** 
  59:../libDaisy/src/util/CpuLoadMeter.h ****         if(firstCycle_)
  60:../libDaisy/src/util/CpuLoadMeter.h ****         {
  61:../libDaisy/src/util/CpuLoadMeter.h ****             max_ = min_ = avg_ = currentBlockLoad;
  62:../libDaisy/src/util/CpuLoadMeter.h ****             firstCycle_        = false;
  63:../libDaisy/src/util/CpuLoadMeter.h ****         }
  64:../libDaisy/src/util/CpuLoadMeter.h ****         else
  65:../libDaisy/src/util/CpuLoadMeter.h ****         {
  66:../libDaisy/src/util/CpuLoadMeter.h ****             if(currentBlockLoad > max_)
  67:../libDaisy/src/util/CpuLoadMeter.h ****                 max_ = currentBlockLoad;
  68:../libDaisy/src/util/CpuLoadMeter.h ****             if(currentBlockLoad < min_)
  69:../libDaisy/src/util/CpuLoadMeter.h ****                 min_ = currentBlockLoad;
  70:../libDaisy/src/util/CpuLoadMeter.h **** 
  71:../libDaisy/src/util/CpuLoadMeter.h ****             avg_ = smoothingConstant_ * currentBlockLoad
  72:../libDaisy/src/util/CpuLoadMeter.h ****                    + (1.0f - smoothingConstant_) * avg_;
  73:../libDaisy/src/util/CpuLoadMeter.h ****         }
  74:../libDaisy/src/util/CpuLoadMeter.h ****     }
  75:../libDaisy/src/util/CpuLoadMeter.h **** 
  76:../libDaisy/src/util/CpuLoadMeter.h ****     /** Returns the smoothed average CPU load in the range 0..1 */
  77:../libDaisy/src/util/CpuLoadMeter.h ****     float GetAvgCpuLoad() const { return avg_; }
 239              		.loc 4 77 11 view .LVU55
 240              	.LBB362:
 241              		.loc 4 77 35 view .LVU56
 242              	.LBE362:
 243              	.LBE361:
  38:GrannyChordApp.cpp ****   const float avgLoad = loadmeter.GetAvgCpuLoad();
 244              		.loc 3 38 36 is_stmt 0 view .LVU57
 245 0000 10B5     		push	{r4, lr}
 246              		.cfi_def_cfa_offset 8
 247              		.cfi_offset 4, -8
 248              		.cfi_offset 14, -4
 249 0002 2DED068B 		vpush.64	{d8, d9, d10}
 250              		.cfi_def_cfa_offset 32
ARM GAS  /var/folders/2p/02m_5p7958535cp2tpgps0400000gn/T//ccgOSWw9.s 			page 11


 251              		.cfi_offset 80, -32
 252              		.cfi_offset 81, -28
 253              		.cfi_offset 82, -24
 254              		.cfi_offset 83, -20
 255              		.cfi_offset 84, -16
 256              		.cfi_offset 85, -12
 257              	.LBB364:
 258              	.LBB365:
  78:../libDaisy/src/util/CpuLoadMeter.h ****     /** Returns the minimun CPU load observed since the last call to Reset(). */
  79:../libDaisy/src/util/CpuLoadMeter.h ****     float GetMinCpuLoad() const { return min_; }
  80:../libDaisy/src/util/CpuLoadMeter.h ****     /** Returns the maximum CPU load observed since the last call to Reset(). */
  81:../libDaisy/src/util/CpuLoadMeter.h ****     float GetMaxCpuLoad() const { return max_; }
 259              		.loc 4 81 42 view .LVU58
 260 0006 90ED049A 		vldr.32	s18, [r0, #16]
 261              	.LBE365:
 262              	.LBE364:
  40:GrannyChordApp.cpp ****   const float maxLoad = loadmeter.GetMaxCpuLoad();
  41:GrannyChordApp.cpp ****   const float minLoad = loadmeter.GetMinCpuLoad();
  42:GrannyChordApp.cpp ****   pod_.seed.PrintLine("Processing Load %:");
  43:GrannyChordApp.cpp ****   pod_.seed.PrintLine("Max: " FLT_FMT3, FLT_VAR3(maxLoad * 100.0f));
 263              		.loc 3 43 41 view .LVU59
 264 000a DFED37AA 		vldr.32	s21, .L25+8
 265              	.LBB367:
 266              	.LBB363:
  77:../libDaisy/src/util/CpuLoadMeter.h ****     /** Returns the minimun CPU load observed since the last call to Reset(). */
 267              		.loc 4 77 42 view .LVU60
 268 000e D0ED058A 		vldr.32	s17, [r0, #20]
 269              	.LVL16:
  77:../libDaisy/src/util/CpuLoadMeter.h ****     /** Returns the minimun CPU load observed since the last call to Reset(). */
 270              		.loc 4 77 42 view .LVU61
 271              	.LBE363:
 272              	.LBE367:
  40:GrannyChordApp.cpp ****   const float maxLoad = loadmeter.GetMaxCpuLoad();
 273              		.loc 3 40 3 is_stmt 1 view .LVU62
 274              	.LBB368:
 275              	.LBI364:
 276              		.loc 4 81 11 view .LVU63
 277              	.LBB366:
 278              		.loc 4 81 35 view .LVU64
 279              		.loc 4 81 35 is_stmt 0 view .LVU65
 280              	.LBE366:
 281              	.LBE368:
  41:GrannyChordApp.cpp ****   pod_.seed.PrintLine("Processing Load %:");
 282              		.loc 3 41 3 is_stmt 1 view .LVU66
 283              	.LBB369:
 284              	.LBI369:
  79:../libDaisy/src/util/CpuLoadMeter.h ****     /** Returns the maximum CPU load observed since the last call to Reset(). */
 285              		.loc 4 79 11 view .LVU67
 286              	.LBB370:
  79:../libDaisy/src/util/CpuLoadMeter.h ****     /** Returns the maximum CPU load observed since the last call to Reset(). */
 287              		.loc 4 79 35 view .LVU68
  79:../libDaisy/src/util/CpuLoadMeter.h ****     /** Returns the maximum CPU load observed since the last call to Reset(). */
 288              		.loc 4 79 42 is_stmt 0 view .LVU69
 289 0012 90ED038A 		vldr.32	s16, [r0, #12]
 290              	.LVL17:
  79:../libDaisy/src/util/CpuLoadMeter.h ****     /** Returns the maximum CPU load observed since the last call to Reset(). */
 291              		.loc 4 79 42 view .LVU70
ARM GAS  /var/folders/2p/02m_5p7958535cp2tpgps0400000gn/T//ccgOSWw9.s 			page 12


 292              	.LBE370:
 293              	.LBE369:
  42:GrannyChordApp.cpp ****   pod_.seed.PrintLine("Max: " FLT_FMT3, FLT_VAR3(maxLoad * 100.0f));
 294              		.loc 3 42 3 is_stmt 1 view .LVU71
 295              	.LBB371:
 296              	.LBI371:
 297              		.file 5 "../libDaisy/src/daisy_seed.h"
   1:../libDaisy/src/daisy_seed.h **** #pragma once
   2:../libDaisy/src/daisy_seed.h **** #ifndef DSY_SEED_H
   3:../libDaisy/src/daisy_seed.h **** #define DSY_SEED_H
   4:../libDaisy/src/daisy_seed.h **** 
   5:../libDaisy/src/daisy_seed.h **** #include "daisy.h"
   6:../libDaisy/src/daisy_seed.h **** 
   7:../libDaisy/src/daisy_seed.h **** //Uncomment this out if you're still using the rev2 hardware
   8:../libDaisy/src/daisy_seed.h **** //#define SEED_REV2
   9:../libDaisy/src/daisy_seed.h **** 
  10:../libDaisy/src/daisy_seed.h **** namespace daisy
  11:../libDaisy/src/daisy_seed.h **** {
  12:../libDaisy/src/daisy_seed.h **** /**
  13:../libDaisy/src/daisy_seed.h ****    @brief This is the higher-level interface for the Daisy board. \n 
  14:../libDaisy/src/daisy_seed.h ****     All basic peripheral configuration/initialization is setup here. \n
  15:../libDaisy/src/daisy_seed.h **** 
  16:../libDaisy/src/daisy_seed.h ****    @ingroup boards
  17:../libDaisy/src/daisy_seed.h **** */
  18:../libDaisy/src/daisy_seed.h **** class DaisySeed
  19:../libDaisy/src/daisy_seed.h **** {
  20:../libDaisy/src/daisy_seed.h ****   public:
  21:../libDaisy/src/daisy_seed.h ****     DaisySeed() {}
  22:../libDaisy/src/daisy_seed.h ****     ~DaisySeed() {}
  23:../libDaisy/src/daisy_seed.h **** 
  24:../libDaisy/src/daisy_seed.h ****     /** This function used to provide a pre-initialization configuraiton 
  25:../libDaisy/src/daisy_seed.h ****      *  it has since been deprecated, and does nothing.
  26:../libDaisy/src/daisy_seed.h ****      */
  27:../libDaisy/src/daisy_seed.h ****     void Configure();
  28:../libDaisy/src/daisy_seed.h **** 
  29:../libDaisy/src/daisy_seed.h ****     /** 
  30:../libDaisy/src/daisy_seed.h ****     Initializes the Daisy Seed and the following peripherals:
  31:../libDaisy/src/daisy_seed.h ****     SDRAM, QSPI, 24-bit 48kHz Audio via AK4556, Internal USB,
  32:../libDaisy/src/daisy_seed.h ****     as well as the built-in LED and Testpoint.
  33:../libDaisy/src/daisy_seed.h **** 
  34:../libDaisy/src/daisy_seed.h ****     ADCs, DACs, and other special peripherals (such as I2C, SPI, etc.)
  35:../libDaisy/src/daisy_seed.h ****     can be initialized using their specific initializers within libdaisy
  36:../libDaisy/src/daisy_seed.h ****     for a specific application.
  37:../libDaisy/src/daisy_seed.h ****     */
  38:../libDaisy/src/daisy_seed.h ****     void Init(bool boost = false);
  39:../libDaisy/src/daisy_seed.h **** 
  40:../libDaisy/src/daisy_seed.h ****     /** 
  41:../libDaisy/src/daisy_seed.h ****     Deinitializes all peripherals automatically handled by `Init`.
  42:../libDaisy/src/daisy_seed.h ****     */
  43:../libDaisy/src/daisy_seed.h ****     void DeInit();
  44:../libDaisy/src/daisy_seed.h **** 
  45:../libDaisy/src/daisy_seed.h ****     /** 
  46:../libDaisy/src/daisy_seed.h ****     Wait some ms before going on.
  47:../libDaisy/src/daisy_seed.h ****     \param del Delay time in ms.
  48:../libDaisy/src/daisy_seed.h ****     */
  49:../libDaisy/src/daisy_seed.h ****     void DelayMs(size_t del);
  50:../libDaisy/src/daisy_seed.h **** 
ARM GAS  /var/folders/2p/02m_5p7958535cp2tpgps0400000gn/T//ccgOSWw9.s 			page 13


  51:../libDaisy/src/daisy_seed.h ****     /** 
  52:../libDaisy/src/daisy_seed.h ****     Returns the gpio_pin corresponding to the index 0-31.
  53:../libDaisy/src/daisy_seed.h ****     For the given GPIO on the Daisy Seed (labeled 1-32 in docs).
  54:../libDaisy/src/daisy_seed.h ****     */
  55:../libDaisy/src/daisy_seed.h ****     static dsy_gpio_pin GetPin(uint8_t pin_idx);
  56:../libDaisy/src/daisy_seed.h **** 
  57:../libDaisy/src/daisy_seed.h ****     /** Begins the audio for the seeds builtin audio.
  58:../libDaisy/src/daisy_seed.h ****     the specified callback will get called whenever
  59:../libDaisy/src/daisy_seed.h ****     new data is ready to be prepared.
  60:../libDaisy/src/daisy_seed.h ****     */
  61:../libDaisy/src/daisy_seed.h ****     void StartAudio(AudioHandle::InterleavingAudioCallback cb);
  62:../libDaisy/src/daisy_seed.h **** 
  63:../libDaisy/src/daisy_seed.h ****     /** Begins the audio for the seeds builtin audio.
  64:../libDaisy/src/daisy_seed.h ****     the specified callback will get called whenever
  65:../libDaisy/src/daisy_seed.h ****     new data is ready to be prepared.
  66:../libDaisy/src/daisy_seed.h ****     This will use the newer non-interleaved callback.
  67:../libDaisy/src/daisy_seed.h ****     */
  68:../libDaisy/src/daisy_seed.h ****     void StartAudio(AudioHandle::AudioCallback cb);
  69:../libDaisy/src/daisy_seed.h **** 
  70:../libDaisy/src/daisy_seed.h ****     /** Changes to a new interleaved callback
  71:../libDaisy/src/daisy_seed.h ****      */
  72:../libDaisy/src/daisy_seed.h ****     void ChangeAudioCallback(AudioHandle::InterleavingAudioCallback cb);
  73:../libDaisy/src/daisy_seed.h **** 
  74:../libDaisy/src/daisy_seed.h ****     /** Changes to a new multichannel callback
  75:../libDaisy/src/daisy_seed.h ****      */
  76:../libDaisy/src/daisy_seed.h ****     void ChangeAudioCallback(AudioHandle::AudioCallback cb);
  77:../libDaisy/src/daisy_seed.h **** 
  78:../libDaisy/src/daisy_seed.h ****     /** Stops the audio if it is running. */
  79:../libDaisy/src/daisy_seed.h ****     void StopAudio();
  80:../libDaisy/src/daisy_seed.h **** 
  81:../libDaisy/src/daisy_seed.h ****     /** Updates the Audio Sample Rate, and reinitializes.
  82:../libDaisy/src/daisy_seed.h ****      ** Audio must be stopped for this to work.
  83:../libDaisy/src/daisy_seed.h ****      */
  84:../libDaisy/src/daisy_seed.h ****     void SetAudioSampleRate(SaiHandle::Config::SampleRate samplerate);
  85:../libDaisy/src/daisy_seed.h **** 
  86:../libDaisy/src/daisy_seed.h ****     /** Returns the audio sample rate in Hz as a floating point number.
  87:../libDaisy/src/daisy_seed.h ****      */
  88:../libDaisy/src/daisy_seed.h ****     float AudioSampleRate();
  89:../libDaisy/src/daisy_seed.h **** 
  90:../libDaisy/src/daisy_seed.h ****     /** Sets the number of samples processed per channel by the audio callback.
  91:../libDaisy/src/daisy_seed.h ****      */
  92:../libDaisy/src/daisy_seed.h ****     void SetAudioBlockSize(size_t blocksize);
  93:../libDaisy/src/daisy_seed.h **** 
  94:../libDaisy/src/daisy_seed.h ****     /** Returns the number of samples per channel in a block of audio. */
  95:../libDaisy/src/daisy_seed.h ****     size_t AudioBlockSize();
  96:../libDaisy/src/daisy_seed.h **** 
  97:../libDaisy/src/daisy_seed.h ****     /** Returns the rate in Hz that the Audio callback is called */
  98:../libDaisy/src/daisy_seed.h ****     float AudioCallbackRate() const;
  99:../libDaisy/src/daisy_seed.h **** 
 100:../libDaisy/src/daisy_seed.h ****     /** Returns the SAI Handle for the Daisy Seed 
 101:../libDaisy/src/daisy_seed.h ****      *  This can be useful when adding a secondary codec,
 102:../libDaisy/src/daisy_seed.h ****      *  the result of this function can be passed to the audio reinit 
 103:../libDaisy/src/daisy_seed.h ****      *  with an SAI2 configuration
 104:../libDaisy/src/daisy_seed.h ****      */
 105:../libDaisy/src/daisy_seed.h ****     const SaiHandle& AudioSaiHandle() const;
 106:../libDaisy/src/daisy_seed.h **** 
 107:../libDaisy/src/daisy_seed.h ****     /** Sets the state of the built in LED
ARM GAS  /var/folders/2p/02m_5p7958535cp2tpgps0400000gn/T//ccgOSWw9.s 			page 14


 108:../libDaisy/src/daisy_seed.h ****      */
 109:../libDaisy/src/daisy_seed.h ****     void SetLed(bool state);
 110:../libDaisy/src/daisy_seed.h **** 
 111:../libDaisy/src/daisy_seed.h ****     /** Sets the state of the test point near pin 10
 112:../libDaisy/src/daisy_seed.h ****      */
 113:../libDaisy/src/daisy_seed.h ****     void SetTestPoint(bool state);
 114:../libDaisy/src/daisy_seed.h **** 
 115:../libDaisy/src/daisy_seed.h ****     /** Print formatted debug log message
 116:../libDaisy/src/daisy_seed.h ****      */
 117:../libDaisy/src/daisy_seed.h ****     template <typename... VA>
 118:../libDaisy/src/daisy_seed.h ****     static void Print(const char* format, VA... va)
 119:../libDaisy/src/daisy_seed.h ****     {
 120:../libDaisy/src/daisy_seed.h ****         Log::Print(format, va...);
 121:../libDaisy/src/daisy_seed.h ****     }
 122:../libDaisy/src/daisy_seed.h **** 
 123:../libDaisy/src/daisy_seed.h ****     /** Print formatted debug log message with automatic line termination
 124:../libDaisy/src/daisy_seed.h ****     */
 125:../libDaisy/src/daisy_seed.h ****     template <typename... VA>
 126:../libDaisy/src/daisy_seed.h ****     static void PrintLine(const char* format, VA... va)
 298              		.loc 5 126 17 view .LVU72
 299              	.LBB372:
 127:../libDaisy/src/daisy_seed.h ****     {
 128:../libDaisy/src/daisy_seed.h ****         Log::PrintLine(format, va...);
 300              		.loc 5 128 23 is_stmt 0 view .LVU73
 301 0016 3548     		ldr	r0, .L25+12
 302              	.LVL18:
 303              		.loc 5 128 23 view .LVU74
 304 0018 FFF7FEFF 		bl	_ZN5daisy6LoggerILNS_17LoggerDestinationE1EE9PrintLineEPKcz
 305              	.LVL19:
 306              		.loc 5 128 23 view .LVU75
 307              	.LBE372:
 308              	.LBE371:
 309              		.loc 3 43 3 is_stmt 1 view .LVU76
 310              	.LBB373:
 311              	.LBI373:
 312              		.file 6 "/Library/DaisyToolchain/0.2.0/arm/arm-none-eabi/include/c++/10.3.1/bits/std_abs.h"
   1:/Library/DaisyToolchain/0.2.0/arm/arm-none-eabi/include/c++/10.3.1/bits/std_abs.h **** // -*- C++ -*- C library enhancements header.
   2:/Library/DaisyToolchain/0.2.0/arm/arm-none-eabi/include/c++/10.3.1/bits/std_abs.h **** 
   3:/Library/DaisyToolchain/0.2.0/arm/arm-none-eabi/include/c++/10.3.1/bits/std_abs.h **** // Copyright (C) 2016-2020 Free Software Foundation, Inc.
   4:/Library/DaisyToolchain/0.2.0/arm/arm-none-eabi/include/c++/10.3.1/bits/std_abs.h **** //
   5:/Library/DaisyToolchain/0.2.0/arm/arm-none-eabi/include/c++/10.3.1/bits/std_abs.h **** // This file is part of the GNU ISO C++ Library.  This library is free
   6:/Library/DaisyToolchain/0.2.0/arm/arm-none-eabi/include/c++/10.3.1/bits/std_abs.h **** // software; you can redistribute it and/or modify it under the
   7:/Library/DaisyToolchain/0.2.0/arm/arm-none-eabi/include/c++/10.3.1/bits/std_abs.h **** // terms of the GNU General Public License as published by the
   8:/Library/DaisyToolchain/0.2.0/arm/arm-none-eabi/include/c++/10.3.1/bits/std_abs.h **** // Free Software Foundation; either version 3, or (at your option)
   9:/Library/DaisyToolchain/0.2.0/arm/arm-none-eabi/include/c++/10.3.1/bits/std_abs.h **** // any later version.
  10:/Library/DaisyToolchain/0.2.0/arm/arm-none-eabi/include/c++/10.3.1/bits/std_abs.h **** 
  11:/Library/DaisyToolchain/0.2.0/arm/arm-none-eabi/include/c++/10.3.1/bits/std_abs.h **** // This library is distributed in the hope that it will be useful,
  12:/Library/DaisyToolchain/0.2.0/arm/arm-none-eabi/include/c++/10.3.1/bits/std_abs.h **** // but WITHOUT ANY WARRANTY; without even the implied warranty of
  13:/Library/DaisyToolchain/0.2.0/arm/arm-none-eabi/include/c++/10.3.1/bits/std_abs.h **** // MERCHANTABILITY or FITNESS FOR A PARTICULAR PURPOSE.  See the
  14:/Library/DaisyToolchain/0.2.0/arm/arm-none-eabi/include/c++/10.3.1/bits/std_abs.h **** // GNU General Public License for more details.
  15:/Library/DaisyToolchain/0.2.0/arm/arm-none-eabi/include/c++/10.3.1/bits/std_abs.h **** 
  16:/Library/DaisyToolchain/0.2.0/arm/arm-none-eabi/include/c++/10.3.1/bits/std_abs.h **** // Under Section 7 of GPL version 3, you are granted additional
  17:/Library/DaisyToolchain/0.2.0/arm/arm-none-eabi/include/c++/10.3.1/bits/std_abs.h **** // permissions described in the GCC Runtime Library Exception, version
  18:/Library/DaisyToolchain/0.2.0/arm/arm-none-eabi/include/c++/10.3.1/bits/std_abs.h **** // 3.1, as published by the Free Software Foundation.
  19:/Library/DaisyToolchain/0.2.0/arm/arm-none-eabi/include/c++/10.3.1/bits/std_abs.h **** 
  20:/Library/DaisyToolchain/0.2.0/arm/arm-none-eabi/include/c++/10.3.1/bits/std_abs.h **** // You should have received a copy of the GNU General Public License and
  21:/Library/DaisyToolchain/0.2.0/arm/arm-none-eabi/include/c++/10.3.1/bits/std_abs.h **** // a copy of the GCC Runtime Library Exception along with this program;
ARM GAS  /var/folders/2p/02m_5p7958535cp2tpgps0400000gn/T//ccgOSWw9.s 			page 15


  22:/Library/DaisyToolchain/0.2.0/arm/arm-none-eabi/include/c++/10.3.1/bits/std_abs.h **** // see the files COPYING3 and COPYING.RUNTIME respectively.  If not, see
  23:/Library/DaisyToolchain/0.2.0/arm/arm-none-eabi/include/c++/10.3.1/bits/std_abs.h **** // <http://www.gnu.org/licenses/>.
  24:/Library/DaisyToolchain/0.2.0/arm/arm-none-eabi/include/c++/10.3.1/bits/std_abs.h **** 
  25:/Library/DaisyToolchain/0.2.0/arm/arm-none-eabi/include/c++/10.3.1/bits/std_abs.h **** /** @file include/bits/std_abs.h
  26:/Library/DaisyToolchain/0.2.0/arm/arm-none-eabi/include/c++/10.3.1/bits/std_abs.h ****  *  This is an internal header file, included by other library headers.
  27:/Library/DaisyToolchain/0.2.0/arm/arm-none-eabi/include/c++/10.3.1/bits/std_abs.h ****  *  Do not attempt to use it directly. @headername{cmath, cstdlib}
  28:/Library/DaisyToolchain/0.2.0/arm/arm-none-eabi/include/c++/10.3.1/bits/std_abs.h ****  */
  29:/Library/DaisyToolchain/0.2.0/arm/arm-none-eabi/include/c++/10.3.1/bits/std_abs.h **** 
  30:/Library/DaisyToolchain/0.2.0/arm/arm-none-eabi/include/c++/10.3.1/bits/std_abs.h **** #ifndef _GLIBCXX_BITS_STD_ABS_H
  31:/Library/DaisyToolchain/0.2.0/arm/arm-none-eabi/include/c++/10.3.1/bits/std_abs.h **** #define _GLIBCXX_BITS_STD_ABS_H
  32:/Library/DaisyToolchain/0.2.0/arm/arm-none-eabi/include/c++/10.3.1/bits/std_abs.h **** 
  33:/Library/DaisyToolchain/0.2.0/arm/arm-none-eabi/include/c++/10.3.1/bits/std_abs.h **** #pragma GCC system_header
  34:/Library/DaisyToolchain/0.2.0/arm/arm-none-eabi/include/c++/10.3.1/bits/std_abs.h **** 
  35:/Library/DaisyToolchain/0.2.0/arm/arm-none-eabi/include/c++/10.3.1/bits/std_abs.h **** #include <bits/c++config.h>
  36:/Library/DaisyToolchain/0.2.0/arm/arm-none-eabi/include/c++/10.3.1/bits/std_abs.h **** 
  37:/Library/DaisyToolchain/0.2.0/arm/arm-none-eabi/include/c++/10.3.1/bits/std_abs.h **** #define _GLIBCXX_INCLUDE_NEXT_C_HEADERS
  38:/Library/DaisyToolchain/0.2.0/arm/arm-none-eabi/include/c++/10.3.1/bits/std_abs.h **** #include_next <stdlib.h>
  39:/Library/DaisyToolchain/0.2.0/arm/arm-none-eabi/include/c++/10.3.1/bits/std_abs.h **** #ifdef __CORRECT_ISO_CPP_MATH_H_PROTO
  40:/Library/DaisyToolchain/0.2.0/arm/arm-none-eabi/include/c++/10.3.1/bits/std_abs.h **** # include_next <math.h>
  41:/Library/DaisyToolchain/0.2.0/arm/arm-none-eabi/include/c++/10.3.1/bits/std_abs.h **** #endif
  42:/Library/DaisyToolchain/0.2.0/arm/arm-none-eabi/include/c++/10.3.1/bits/std_abs.h **** #undef _GLIBCXX_INCLUDE_NEXT_C_HEADERS
  43:/Library/DaisyToolchain/0.2.0/arm/arm-none-eabi/include/c++/10.3.1/bits/std_abs.h **** 
  44:/Library/DaisyToolchain/0.2.0/arm/arm-none-eabi/include/c++/10.3.1/bits/std_abs.h **** #undef abs
  45:/Library/DaisyToolchain/0.2.0/arm/arm-none-eabi/include/c++/10.3.1/bits/std_abs.h **** 
  46:/Library/DaisyToolchain/0.2.0/arm/arm-none-eabi/include/c++/10.3.1/bits/std_abs.h **** extern "C++"
  47:/Library/DaisyToolchain/0.2.0/arm/arm-none-eabi/include/c++/10.3.1/bits/std_abs.h **** {
  48:/Library/DaisyToolchain/0.2.0/arm/arm-none-eabi/include/c++/10.3.1/bits/std_abs.h **** namespace std _GLIBCXX_VISIBILITY(default)
  49:/Library/DaisyToolchain/0.2.0/arm/arm-none-eabi/include/c++/10.3.1/bits/std_abs.h **** {
  50:/Library/DaisyToolchain/0.2.0/arm/arm-none-eabi/include/c++/10.3.1/bits/std_abs.h **** _GLIBCXX_BEGIN_NAMESPACE_VERSION
  51:/Library/DaisyToolchain/0.2.0/arm/arm-none-eabi/include/c++/10.3.1/bits/std_abs.h **** 
  52:/Library/DaisyToolchain/0.2.0/arm/arm-none-eabi/include/c++/10.3.1/bits/std_abs.h ****   using ::abs;
  53:/Library/DaisyToolchain/0.2.0/arm/arm-none-eabi/include/c++/10.3.1/bits/std_abs.h **** 
  54:/Library/DaisyToolchain/0.2.0/arm/arm-none-eabi/include/c++/10.3.1/bits/std_abs.h **** #ifndef __CORRECT_ISO_CPP_STDLIB_H_PROTO
  55:/Library/DaisyToolchain/0.2.0/arm/arm-none-eabi/include/c++/10.3.1/bits/std_abs.h ****   inline long
  56:/Library/DaisyToolchain/0.2.0/arm/arm-none-eabi/include/c++/10.3.1/bits/std_abs.h ****   abs(long __i) { return __builtin_labs(__i); }
  57:/Library/DaisyToolchain/0.2.0/arm/arm-none-eabi/include/c++/10.3.1/bits/std_abs.h **** #endif
  58:/Library/DaisyToolchain/0.2.0/arm/arm-none-eabi/include/c++/10.3.1/bits/std_abs.h **** 
  59:/Library/DaisyToolchain/0.2.0/arm/arm-none-eabi/include/c++/10.3.1/bits/std_abs.h **** #ifdef _GLIBCXX_USE_LONG_LONG
  60:/Library/DaisyToolchain/0.2.0/arm/arm-none-eabi/include/c++/10.3.1/bits/std_abs.h ****   inline long long
  61:/Library/DaisyToolchain/0.2.0/arm/arm-none-eabi/include/c++/10.3.1/bits/std_abs.h ****   abs(long long __x) { return __builtin_llabs (__x); }
  62:/Library/DaisyToolchain/0.2.0/arm/arm-none-eabi/include/c++/10.3.1/bits/std_abs.h **** #endif
  63:/Library/DaisyToolchain/0.2.0/arm/arm-none-eabi/include/c++/10.3.1/bits/std_abs.h **** 
  64:/Library/DaisyToolchain/0.2.0/arm/arm-none-eabi/include/c++/10.3.1/bits/std_abs.h **** // _GLIBCXX_RESOLVE_LIB_DEFECTS
  65:/Library/DaisyToolchain/0.2.0/arm/arm-none-eabi/include/c++/10.3.1/bits/std_abs.h **** // 2192. Validity and return type of std::abs(0u) is unclear
  66:/Library/DaisyToolchain/0.2.0/arm/arm-none-eabi/include/c++/10.3.1/bits/std_abs.h **** // 2294. <cstdlib> should declare abs(double)
  67:/Library/DaisyToolchain/0.2.0/arm/arm-none-eabi/include/c++/10.3.1/bits/std_abs.h **** // 2735. std::abs(short), std::abs(signed char) and others should return int
  68:/Library/DaisyToolchain/0.2.0/arm/arm-none-eabi/include/c++/10.3.1/bits/std_abs.h **** 
  69:/Library/DaisyToolchain/0.2.0/arm/arm-none-eabi/include/c++/10.3.1/bits/std_abs.h **** #ifndef __CORRECT_ISO_CPP_MATH_H_PROTO
  70:/Library/DaisyToolchain/0.2.0/arm/arm-none-eabi/include/c++/10.3.1/bits/std_abs.h ****   inline _GLIBCXX_CONSTEXPR double
  71:/Library/DaisyToolchain/0.2.0/arm/arm-none-eabi/include/c++/10.3.1/bits/std_abs.h ****   abs(double __x)
  72:/Library/DaisyToolchain/0.2.0/arm/arm-none-eabi/include/c++/10.3.1/bits/std_abs.h ****   { return __builtin_fabs(__x); }
  73:/Library/DaisyToolchain/0.2.0/arm/arm-none-eabi/include/c++/10.3.1/bits/std_abs.h **** 
  74:/Library/DaisyToolchain/0.2.0/arm/arm-none-eabi/include/c++/10.3.1/bits/std_abs.h ****   inline _GLIBCXX_CONSTEXPR float
  75:/Library/DaisyToolchain/0.2.0/arm/arm-none-eabi/include/c++/10.3.1/bits/std_abs.h ****   abs(float __x)
 313              		.loc 6 75 3 view .LVU77
 314              	.LBB374:
  76:/Library/DaisyToolchain/0.2.0/arm/arm-none-eabi/include/c++/10.3.1/bits/std_abs.h ****   { return __builtin_fabsf(__x); }
ARM GAS  /var/folders/2p/02m_5p7958535cp2tpgps0400000gn/T//ccgOSWw9.s 			page 16


 315              		.loc 6 76 5 view .LVU78
 316              	.LBE374:
 317              	.LBE373:
 318              		.loc 3 43 41 is_stmt 0 view .LVU79
 319 001c 29EE2A6A 		vmul.f32	s12, s18, s21
 320              	.LVL20:
 321              		.loc 3 43 22 view .LVU80
 322 0020 9FED33AA 		vldr.32	s20, .L25+16
 323              	.LBB376:
 324              	.LBB377:
 325              		.loc 5 128 23 view .LVU81
 326 0024 3348     		ldr	r0, .L25+20
 327              	.LBE377:
 328              	.LBE376:
 329              		.loc 3 43 22 view .LVU82
 330 0026 B4EECA6A 		vcmpe.f32	s12, s20
 331              	.LBB380:
 332              	.LBB375:
 333              		.loc 6 76 31 view .LVU83
 334 002a B0EEC66A 		vabs.f32	s12, s12
 335              	.LVL21:
 336              		.loc 6 76 31 view .LVU84
 337              	.LBE375:
 338              	.LBE380:
 339              		.loc 3 43 41 view .LVU85
 340 002e 9FED2C9B 		vldr.64	d9, .L25
 341              	.LVL22:
 342              		.loc 3 43 22 view .LVU86
 343 0032 FDEEC67A 		vcvt.s32.f32	s15, s12
 344              	.LVL23:
 345              		.loc 6 76 5 is_stmt 1 view .LVU87
 346              		.loc 6 76 5 view .LVU88
 347              		.loc 3 43 22 is_stmt 0 view .LVU89
 348 0036 F1EE10FA 		vmrs	APSR_nzcv, FPSCR
 349              	.LVL24:
 350              	.LBB381:
 351              	.LBI376:
 126:../libDaisy/src/daisy_seed.h ****     {
 352              		.loc 5 126 17 is_stmt 1 view .LVU90
 353              	.LBE381:
 354              		.loc 3 43 41 is_stmt 0 view .LVU91
 355 003a B8EEE77A 		vcvt.f32.s32	s14, s15
 356              	.LVL25:
 357              	.LBB382:
 358              	.LBB378:
 359              		.loc 5 128 23 view .LVU92
 360 003e 17EE902A 		vmov	r2, s15	@ int
 361 0042 4CBF     		ite	mi
 362 0044 2D21     		movmi	r1, #45
 363 0046 2021     		movpl	r1, #32
 364              	.LBE378:
 365              	.LBE382:
 366              		.loc 3 43 41 view .LVU93
 367 0048 36EE476A 		vsub.f32	s12, s12, s14
 368              	.LVL26:
 369              		.loc 3 43 41 view .LVU94
 370 004c B7EEC66A 		vcvt.f64.f32	d6, s12
ARM GAS  /var/folders/2p/02m_5p7958535cp2tpgps0400000gn/T//ccgOSWw9.s 			page 17


 371 0050 26EE096B 		vmul.f64	d6, d6, d9
 372              	.LBB383:
 373              	.LBB379:
 374              		.loc 5 128 23 view .LVU95
 375 0054 BDEEC67B 		vcvt.s32.f64	s14, d6
 376 0058 17EE103A 		vmov	r3, s14	@ int
 377 005c FFF7FEFF 		bl	_ZN5daisy6LoggerILNS_17LoggerDestinationE1EE9PrintLineEPKcz
 378              	.LVL27:
 379              		.loc 5 128 23 view .LVU96
 380              	.LBE379:
 381              	.LBE383:
  44:GrannyChordApp.cpp ****   pod_.seed.PrintLine("Avg: " FLT_FMT3, FLT_VAR3(avgLoad * 100.0f));
 382              		.loc 3 44 3 is_stmt 1 view .LVU97
 383              	.LBB384:
 384              	.LBI384:
  75:/Library/DaisyToolchain/0.2.0/arm/arm-none-eabi/include/c++/10.3.1/bits/std_abs.h ****   { return __builtin_fabsf(__x); }
 385              		.loc 6 75 3 view .LVU98
 386              	.LBB385:
 387              		.loc 6 76 5 view .LVU99
 388              	.LBE385:
 389              	.LBE384:
 390              		.loc 3 44 41 is_stmt 0 view .LVU100
 391 0060 28EEAA6A 		vmul.f32	s12, s17, s21
 392              	.LVL28:
 393              	.LBB387:
 394              	.LBB388:
 395              		.loc 5 128 23 view .LVU101
 396 0064 2448     		ldr	r0, .L25+24
 397              	.LBE388:
 398              	.LBE387:
 399              		.loc 3 44 22 view .LVU102
 400 0066 B4EECA6A 		vcmpe.f32	s12, s20
 401              	.LBB392:
 402              	.LBB386:
 403              		.loc 6 76 31 view .LVU103
 404 006a B0EEC66A 		vabs.f32	s12, s12
 405              	.LVL29:
 406              		.loc 6 76 31 view .LVU104
 407              	.LBE386:
 408              	.LBE392:
 409              		.loc 3 44 22 view .LVU105
 410 006e F1EE10FA 		vmrs	APSR_nzcv, FPSCR
 411 0072 FDEEC67A 		vcvt.s32.f32	s15, s12
 412              	.LVL30:
 413              		.loc 6 76 5 is_stmt 1 view .LVU106
 414              		.loc 6 76 5 view .LVU107
 415              	.LBB393:
 416              	.LBI387:
 126:../libDaisy/src/daisy_seed.h ****     {
 417              		.loc 5 126 17 view .LVU108
 418              	.LBB389:
 419              		.loc 5 128 23 is_stmt 0 view .LVU109
 420 0076 4CBF     		ite	mi
 421 0078 2D21     		movmi	r1, #45
 422 007a 2021     		movpl	r1, #32
 423              	.LBE389:
 424              	.LBE393:
ARM GAS  /var/folders/2p/02m_5p7958535cp2tpgps0400000gn/T//ccgOSWw9.s 			page 18


 425              		.loc 3 44 41 view .LVU110
 426 007c B8EEE77A 		vcvt.f32.s32	s14, s15
 427              	.LVL31:
 428              	.LBB394:
 429              	.LBB390:
 430              		.loc 5 128 23 view .LVU111
 431 0080 17EE902A 		vmov	r2, s15	@ int
 432              	.LBE390:
 433              	.LBE394:
 434              		.loc 3 44 41 view .LVU112
 435 0084 36EE476A 		vsub.f32	s12, s12, s14
 436              	.LVL32:
 437              		.loc 3 44 41 view .LVU113
 438 0088 B7EEC66A 		vcvt.f64.f32	d6, s12
 439 008c 26EE096B 		vmul.f64	d6, d6, d9
 440              	.LBB395:
 441              	.LBB391:
 442              		.loc 5 128 23 view .LVU114
 443 0090 BDEEC67B 		vcvt.s32.f64	s14, d6
 444              	.LVL33:
 445              		.loc 5 128 23 view .LVU115
 446 0094 17EE103A 		vmov	r3, s14	@ int
 447 0098 FFF7FEFF 		bl	_ZN5daisy6LoggerILNS_17LoggerDestinationE1EE9PrintLineEPKcz
 448              	.LVL34:
 449              		.loc 5 128 23 view .LVU116
 450              	.LBE391:
 451              	.LBE395:
  45:GrannyChordApp.cpp ****   pod_.seed.PrintLine("Min: " FLT_FMT3, FLT_VAR3(minLoad * 100.0f));
 452              		.loc 3 45 3 is_stmt 1 view .LVU117
 453              	.LBB396:
 454              	.LBI396:
  75:/Library/DaisyToolchain/0.2.0/arm/arm-none-eabi/include/c++/10.3.1/bits/std_abs.h ****   { return __builtin_fabsf(__x); }
 455              		.loc 6 75 3 view .LVU118
 456              	.LBB397:
 457              		.loc 6 76 5 view .LVU119
 458              	.LBE397:
 459              	.LBE396:
 460              		.loc 3 45 41 is_stmt 0 view .LVU120
 461 009c 28EE2A7A 		vmul.f32	s14, s16, s21
 462              	.LVL35:
 463              	.LBB399:
 464              	.LBB400:
 465              		.loc 5 128 23 view .LVU121
 466 00a0 1648     		ldr	r0, .L25+28
 467              	.LBE400:
 468              	.LBE399:
 469              		.loc 3 45 22 view .LVU122
 470 00a2 B4EECA7A 		vcmpe.f32	s14, s20
 471              	.LBB405:
 472              	.LBB398:
 473              		.loc 6 76 31 view .LVU123
 474 00a6 B0EEC77A 		vabs.f32	s14, s14
 475              	.LVL36:
 476              		.loc 6 76 31 view .LVU124
 477              	.LBE398:
 478              	.LBE405:
 479              		.loc 3 45 22 view .LVU125
ARM GAS  /var/folders/2p/02m_5p7958535cp2tpgps0400000gn/T//ccgOSWw9.s 			page 19


 480 00aa F1EE10FA 		vmrs	APSR_nzcv, FPSCR
 481 00ae FDEEC76A 		vcvt.s32.f32	s13, s14
 482              	.LVL37:
 483              		.loc 6 76 5 is_stmt 1 view .LVU126
 484              		.loc 6 76 5 view .LVU127
 485              	.LBB406:
 486              	.LBI399:
 126:../libDaisy/src/daisy_seed.h ****     {
 487              		.loc 5 126 17 view .LVU128
 488              	.LBB401:
 489              		.loc 5 128 23 is_stmt 0 view .LVU129
 490 00b2 4CBF     		ite	mi
 491 00b4 2D21     		movmi	r1, #45
 492 00b6 2021     		movpl	r1, #32
 493              	.LBE401:
 494              	.LBE406:
 495              		.loc 3 45 41 view .LVU130
 496 00b8 F8EEE67A 		vcvt.f32.s32	s15, s13
 497              	.LVL38:
 498              	.LBB407:
 499              	.LBB402:
 500              		.loc 5 128 23 view .LVU131
 501 00bc 16EE902A 		vmov	r2, s13	@ int
 502              	.LBE402:
 503              	.LBE407:
 504              		.loc 3 45 41 view .LVU132
 505 00c0 37EE677A 		vsub.f32	s14, s14, s15
 506              	.LVL39:
 507              		.loc 3 45 41 view .LVU133
 508 00c4 B7EEC77A 		vcvt.f64.f32	d7, s14
 509 00c8 27EE097B 		vmul.f64	d7, d7, d9
  46:GrannyChordApp.cpp **** }
 510              		.loc 3 46 1 view .LVU134
 511 00cc BDEC068B 		vldm	sp!, {d8-d10}
 512              		.cfi_restore 84
 513              		.cfi_restore 85
 514              		.cfi_restore 82
 515              		.cfi_restore 83
 516              		.cfi_restore 80
 517              		.cfi_restore 81
 518              		.cfi_def_cfa_offset 8
 519              	.LVL40:
 520              	.LBB408:
 521              	.LBB403:
 522              		.loc 5 128 23 view .LVU135
 523 00d0 FDEEC77B 		vcvt.s32.f64	s15, d7
 524              	.LBE403:
 525              	.LBE408:
 526              		.loc 3 46 1 view .LVU136
 527 00d4 BDE81040 		pop	{r4, lr}
 528              		.cfi_restore 14
 529              		.cfi_restore 4
 530              		.cfi_def_cfa_offset 0
 531              	.LBB409:
 532              	.LBB404:
 533              		.loc 5 128 23 view .LVU137
 534 00d8 17EE903A 		vmov	r3, s15	@ int
ARM GAS  /var/folders/2p/02m_5p7958535cp2tpgps0400000gn/T//ccgOSWw9.s 			page 20


 535 00dc FFF7FEBF 		b	_ZN5daisy6LoggerILNS_17LoggerDestinationE1EE9PrintLineEPKcz
 536              	.LVL41:
 537              	.L26:
 538              		.loc 5 128 23 view .LVU138
 539              		.align	3
 540              	.L25:
 541 00e0 00000000 		.word	0
 542 00e4 00408F40 		.word	1083129856
 543 00e8 0000C842 		.word	1120403456
 544 00ec 00000000 		.word	.LC0
 545 00f0 00000000 		.word	0
 546 00f4 13000000 		.word	.LC1
 547 00f8 22000000 		.word	.LC2
 548 00fc 31000000 		.word	.LC3
 549              	.LBE404:
 550              	.LBE409:
 551              		.cfi_endproc
 552              	.LFE4903:
 554              		.section	.text._ZN14GrannyChordApp20HandleEncoderPressedEv,"ax",%progbits
 555              		.align	1
 556              		.global	_ZN14GrannyChordApp20HandleEncoderPressedEv
 557              		.syntax unified
 558              		.thumb
 559              		.thumb_func
 561              	_ZN14GrannyChordApp20HandleEncoderPressedEv:
 562              	.LVL42:
 563              	.LFB4909:
  47:GrannyChordApp.cpp **** #endif
  48:GrannyChordApp.cpp **** 
  49:GrannyChordApp.cpp **** /// @brief Loops whilst app is running, updating state and UI, handling 
  50:GrannyChordApp.cpp **** ///        state transitions, updating parameters and managing audio recordings
  51:GrannyChordApp.cpp **** void GrannyChordApp::Run(){
  52:GrannyChordApp.cpp ****   pod_.seed.PrintLine("app is running");
  53:GrannyChordApp.cpp ****   while(true){
  54:GrannyChordApp.cpp ****     // #ifdef DEBUG_MODE
  55:GrannyChordApp.cpp ****     // loop_count++;
  56:GrannyChordApp.cpp ****     // if (loop_count%2000000==0){
  57:GrannyChordApp.cpp ****     //   PrintCPULoad();
  58:GrannyChordApp.cpp ****     //   loop_count=0;
  59:GrannyChordApp.cpp ****     //   // System::Delay(500);
  60:GrannyChordApp.cpp ****     // }
  61:GrannyChordApp.cpp ****     // #endif
  62:GrannyChordApp.cpp **** 
  63:GrannyChordApp.cpp ****     if (recording_out_) {
  64:GrannyChordApp.cpp ****       sd_writer_.Write();
  65:GrannyChordApp.cpp ****       if (sd_writer_.GetLengthSeconds()>120){
  66:GrannyChordApp.cpp ****         sd_writer_.SaveFile();
  67:GrannyChordApp.cpp ****         recording_out_ = false;
  68:GrannyChordApp.cpp ****       }
  69:GrannyChordApp.cpp ****     }
  70:GrannyChordApp.cpp ****     UpdateUI();
  71:GrannyChordApp.cpp ****     UpdateSynthParams();
  72:GrannyChordApp.cpp ****     // System::Delay(1);
  73:GrannyChordApp.cpp ****   }
  74:GrannyChordApp.cpp **** }
  75:GrannyChordApp.cpp **** 
  76:GrannyChordApp.cpp **** /// @brief Handles hardware control inputs and calls state change methods
ARM GAS  /var/folders/2p/02m_5p7958535cp2tpgps0400000gn/T//ccgOSWw9.s 			page 21


  77:GrannyChordApp.cpp **** void GrannyChordApp::UpdateUI(){
  78:GrannyChordApp.cpp ****   pod_.ProcessDigitalControls();
  79:GrannyChordApp.cpp **** 
  80:GrannyChordApp.cpp ****   if (pod_.encoder.TimeHeldMs() > 1000.0f) HandleEncoderLongPress();
  81:GrannyChordApp.cpp ****   else if (pod_.encoder.FallingEdge()) HandleEncoderPressed();
  82:GrannyChordApp.cpp **** 
  83:GrannyChordApp.cpp ****   if (curr_state_==AppState::Synthesis){
  84:GrannyChordApp.cpp ****     ButtonHandler();
  85:GrannyChordApp.cpp ****   }
  86:GrannyChordApp.cpp **** 
  87:GrannyChordApp.cpp ****   int32_t encoder_inc = pod_.encoder.Increment();
  88:GrannyChordApp.cpp ****   if (encoder_inc!=0){
  89:GrannyChordApp.cpp ****     HandleEncoderIncrement(encoder_inc);
  90:GrannyChordApp.cpp ****   }
  91:GrannyChordApp.cpp ****   if (curr_state_ != next_state_){
  92:GrannyChordApp.cpp ****     #ifdef DEBUG_MODE
  93:GrannyChordApp.cpp ****     DebugPrintState(curr_state_);
  94:GrannyChordApp.cpp ****     DebugPrint(pod_, "switching states");
  95:GrannyChordApp.cpp ****     DebugPrintState(next_state_);
  96:GrannyChordApp.cpp ****     #endif
  97:GrannyChordApp.cpp ****     HandleStateChange();
  98:GrannyChordApp.cpp ****   }
  99:GrannyChordApp.cpp **** }
 100:GrannyChordApp.cpp **** 
 101:GrannyChordApp.cpp **** /// @brief handles transitions between states and prepares for next state
 102:GrannyChordApp.cpp **** void GrannyChordApp::HandleStateChange(){
 103:GrannyChordApp.cpp ****   switch(next_state_){
 104:GrannyChordApp.cpp ****     case AppState::SelectFile:
 105:GrannyChordApp.cpp ****       pod_.StopAudio();
 106:GrannyChordApp.cpp ****       curr_state_ = AppState::SelectFile;
 107:GrannyChordApp.cpp ****       break; 
 108:GrannyChordApp.cpp ****     case AppState::RecordIn:
 109:GrannyChordApp.cpp ****       InitRecordIn();
 110:GrannyChordApp.cpp ****       DebugPrint(pod_, "Recording in");
 111:GrannyChordApp.cpp ****       curr_state_ = AppState::RecordIn;  
 112:GrannyChordApp.cpp ****       break;
 113:GrannyChordApp.cpp ****     case AppState::PlayWAV:
 114:GrannyChordApp.cpp ****       InitPlayback(); 
 115:GrannyChordApp.cpp ****       curr_state_ = AppState::PlayWAV;
 116:GrannyChordApp.cpp ****       break;
 117:GrannyChordApp.cpp ****     case AppState::Synthesis:
 118:GrannyChordApp.cpp ****       InitSynth();
 119:GrannyChordApp.cpp ****       curr_state_ = AppState::Synthesis;
 120:GrannyChordApp.cpp ****       DebugPrint(pod_, "started audiocallback");
 121:GrannyChordApp.cpp ****       break;
 122:GrannyChordApp.cpp ****     case AppState::Error: 
 123:GrannyChordApp.cpp ****       curr_state_ = AppState::Error;
 124:GrannyChordApp.cpp ****       break;
 125:GrannyChordApp.cpp ****     default: 
 126:GrannyChordApp.cpp ****       break;
 127:GrannyChordApp.cpp ****   }
 128:GrannyChordApp.cpp ****   SetLed1AppState();
 129:GrannyChordApp.cpp **** }
 130:GrannyChordApp.cpp **** 
 131:GrannyChordApp.cpp **** /// @brief Handles when encoder is scrolled to select a file 
 132:GrannyChordApp.cpp **** /// @param encoder_inc amount the encoder has been scrolled/incremented
 133:GrannyChordApp.cpp **** void GrannyChordApp::HandleEncoderIncrement(int encoder_inc){
ARM GAS  /var/folders/2p/02m_5p7958535cp2tpgps0400000gn/T//ccgOSWw9.s 			page 22


 134:GrannyChordApp.cpp ****   if (next_state_== AppState::SelectFile){
 135:GrannyChordApp.cpp ****     recorded_in_ = false;
 136:GrannyChordApp.cpp ****     HandleFileSelection(encoder_inc);
 137:GrannyChordApp.cpp ****   }
 138:GrannyChordApp.cpp ****   else if (curr_state_==AppState::PlayWAV){
 139:GrannyChordApp.cpp ****     recorded_in_ = false;
 140:GrannyChordApp.cpp ****     next_state_ = AppState::SelectFile;
 141:GrannyChordApp.cpp ****   }
 142:GrannyChordApp.cpp **** }
 143:GrannyChordApp.cpp **** 
 144:GrannyChordApp.cpp **** /// @brief handles when the encoder is pressed down (not held)
 145:GrannyChordApp.cpp **** void GrannyChordApp::HandleEncoderPressed(){
 564              		.loc 3 145 44 is_stmt 1 view -0
 565              		.cfi_startproc
 566              		@ args = 0, pretend = 0, frame = 0
 567              		@ frame_needed = 0, uses_anonymous_args = 0
 568              		@ link register save eliminated.
 146:GrannyChordApp.cpp ****   switch(curr_state_){
 569              		.loc 3 146 3 view .LVU140
 570              		.loc 3 146 10 is_stmt 0 view .LVU141
 571 0000 D0F8D431 		ldr	r3, [r0, #468]
 572              		.loc 3 146 3 view .LVU142
 573 0004 012B     		cmp	r3, #1
 574 0006 0CD0     		beq	.L28
 575 0008 032B     		cmp	r3, #3
 576 000a 04D0     		beq	.L29
 577 000c 13B9     		cbnz	r3, .L27
 147:GrannyChordApp.cpp ****     case AppState::SelectFile:
 578              		.loc 3 147 5 is_stmt 1 view .LVU143
 148:GrannyChordApp.cpp ****       next_state_ = AppState::PlayWAV;
 579              		.loc 3 148 7 view .LVU144
 580              		.loc 3 148 19 is_stmt 0 view .LVU145
 581 000e 0123     		movs	r3, #1
 582              	.L31:
 149:GrannyChordApp.cpp ****       return;
 150:GrannyChordApp.cpp ****     case AppState::RecordIn: 
 151:GrannyChordApp.cpp ****       recorded_in_ = true;
 152:GrannyChordApp.cpp ****       next_state_ = AppState::PlayWAV; 
 153:GrannyChordApp.cpp ****       return;
 154:GrannyChordApp.cpp ****     case AppState::PlayWAV:
 155:GrannyChordApp.cpp ****       next_state_ = AppState::Synthesis;
 583              		.loc 3 155 19 view .LVU146
 584 0010 C0F8D831 		str	r3, [r0, #472]
 156:GrannyChordApp.cpp ****       return;
 585              		.loc 3 156 7 is_stmt 1 view .LVU147
 586              	.L27:
 157:GrannyChordApp.cpp ****     default:
 158:GrannyChordApp.cpp ****       return;
 159:GrannyChordApp.cpp ****   }
 160:GrannyChordApp.cpp **** }
 587              		.loc 3 160 1 is_stmt 0 view .LVU148
 588 0014 7047     		bx	lr
 589              	.L29:
 150:GrannyChordApp.cpp ****       recorded_in_ = true;
 590              		.loc 3 150 5 is_stmt 1 view .LVU149
 151:GrannyChordApp.cpp ****       next_state_ = AppState::PlayWAV; 
 591              		.loc 3 151 7 view .LVU150
ARM GAS  /var/folders/2p/02m_5p7958535cp2tpgps0400000gn/T//ccgOSWw9.s 			page 23


 151:GrannyChordApp.cpp ****       next_state_ = AppState::PlayWAV; 
 592              		.loc 3 151 20 is_stmt 0 view .LVU151
 593 0016 00F55042 		add	r2, r0, #53248
 594 001a 0123     		movs	r3, #1
 595 001c 82F87C31 		strb	r3, [r2, #380]
 152:GrannyChordApp.cpp ****       return;
 596              		.loc 3 152 7 is_stmt 1 view .LVU152
 597 0020 F6E7     		b	.L31
 598              	.L28:
 154:GrannyChordApp.cpp ****       next_state_ = AppState::Synthesis;
 599              		.loc 3 154 5 view .LVU153
 155:GrannyChordApp.cpp ****       return;
 600              		.loc 3 155 7 view .LVU154
 155:GrannyChordApp.cpp ****       return;
 601              		.loc 3 155 19 is_stmt 0 view .LVU155
 602 0022 0223     		movs	r3, #2
 603 0024 F4E7     		b	.L31
 604              		.cfi_endproc
 605              	.LFE4909:
 607              		.section	.text._ZN14GrannyChordApp22HandleEncoderLongPressEv,"ax",%progbits
 608              		.align	1
 609              		.global	_ZN14GrannyChordApp22HandleEncoderLongPressEv
 610              		.syntax unified
 611              		.thumb
 612              		.thumb_func
 614              	_ZN14GrannyChordApp22HandleEncoderLongPressEv:
 615              	.LVL43:
 616              	.LFB4910:
 161:GrannyChordApp.cpp **** 
 162:GrannyChordApp.cpp **** /// @brief switch between states by long pressing encoder.
 163:GrannyChordApp.cpp **** ///        much simpler than below!
 164:GrannyChordApp.cpp **** void GrannyChordApp::HandleEncoderLongPress(){
 617              		.loc 3 164 46 is_stmt 1 view -0
 618              		.cfi_startproc
 619              		@ args = 0, pretend = 0, frame = 0
 620              		@ frame_needed = 0, uses_anonymous_args = 0
 621              		.loc 3 164 46 is_stmt 0 view .LVU157
 622 0000 10B5     		push	{r4, lr}
 623              		.cfi_def_cfa_offset 8
 624              		.cfi_offset 4, -8
 625              		.cfi_offset 14, -4
 626 0002 0446     		mov	r4, r0
 627              	.LVL44:
 628              	.L38:
 165:GrannyChordApp.cpp ****   do { pod_.encoder.Debounce();  }
 629              		.loc 3 165 3 is_stmt 1 view .LVU158
 630              		.loc 3 165 8 view .LVU159
 631              		.loc 3 165 29 is_stmt 0 view .LVU160
 632 0004 E069     		ldr	r0, [r4, #28]
 633 0006 4030     		adds	r0, r0, #64
 634 0008 FFF7FEFF 		bl	_ZN5daisy7Encoder8DebounceEv
 635              	.LVL45:
 166:GrannyChordApp.cpp ****   while(!pod_.encoder.FallingEdge());
 636              		.loc 3 166 9 is_stmt 1 view .LVU161
 637              		.loc 3 166 10 is_stmt 0 view .LVU162
 638 000c E369     		ldr	r3, [r4, #28]
 639              	.LVL46:
ARM GAS  /var/folders/2p/02m_5p7958535cp2tpgps0400000gn/T//ccgOSWw9.s 			page 24


 640              	.LBB414:
 641              	.LBI414:
 642              		.file 7 "../libDaisy/src/hid/encoder.h"
   1:../libDaisy/src/hid/encoder.h **** #pragma once
   2:../libDaisy/src/hid/encoder.h **** #ifndef DSY_ENCODER_H
   3:../libDaisy/src/hid/encoder.h **** #define DSY_ENCODER_H
   4:../libDaisy/src/hid/encoder.h **** #include "daisy_core.h"
   5:../libDaisy/src/hid/encoder.h **** #include "per/gpio.h"
   6:../libDaisy/src/hid/encoder.h **** #include "hid/switch.h"
   7:../libDaisy/src/hid/encoder.h **** 
   8:../libDaisy/src/hid/encoder.h **** namespace daisy
   9:../libDaisy/src/hid/encoder.h **** {
  10:../libDaisy/src/hid/encoder.h **** /** 
  11:../libDaisy/src/hid/encoder.h ****     @brief Generic Class for handling Quadrature Encoders \n 
  12:../libDaisy/src/hid/encoder.h ****     Inspired/influenced by Mutable Instruments (pichenettes) Encoder classes
  13:../libDaisy/src/hid/encoder.h ****     @author Stephen Hensley
  14:../libDaisy/src/hid/encoder.h ****     @date December 2019
  15:../libDaisy/src/hid/encoder.h ****     @ingroup controls
  16:../libDaisy/src/hid/encoder.h **** */
  17:../libDaisy/src/hid/encoder.h **** class Encoder
  18:../libDaisy/src/hid/encoder.h **** {
  19:../libDaisy/src/hid/encoder.h ****   public:
  20:../libDaisy/src/hid/encoder.h ****     Encoder() {}
  21:../libDaisy/src/hid/encoder.h ****     ~Encoder() {}
  22:../libDaisy/src/hid/encoder.h **** 
  23:../libDaisy/src/hid/encoder.h ****     /** Initializes the encoder with the specified hardware pins.
  24:../libDaisy/src/hid/encoder.h ****      * Update rate is to be deprecated in a future release
  25:../libDaisy/src/hid/encoder.h ****      */
  26:../libDaisy/src/hid/encoder.h ****     void Init(dsy_gpio_pin a,
  27:../libDaisy/src/hid/encoder.h ****               dsy_gpio_pin b,
  28:../libDaisy/src/hid/encoder.h ****               dsy_gpio_pin click,
  29:../libDaisy/src/hid/encoder.h ****               float        update_rate = 0.f);
  30:../libDaisy/src/hid/encoder.h ****     /** Called at update_rate to debounce and handle timing for the switch.
  31:../libDaisy/src/hid/encoder.h ****      * In order for events not to be missed, its important that the Edge/Pressed checks be made at 
  32:../libDaisy/src/hid/encoder.h ****      */
  33:../libDaisy/src/hid/encoder.h ****     void Debounce();
  34:../libDaisy/src/hid/encoder.h **** 
  35:../libDaisy/src/hid/encoder.h ****     /** Returns +1 if the encoder was turned clockwise, -1 if it was turned counter-clockwise, or 0
  36:../libDaisy/src/hid/encoder.h ****     inline int32_t Increment() const { return updated_ ? inc_ : 0; }
  37:../libDaisy/src/hid/encoder.h **** 
  38:../libDaisy/src/hid/encoder.h ****     /** Returns true if the encoder was just pressed. */
  39:../libDaisy/src/hid/encoder.h ****     inline bool RisingEdge() const { return sw_.RisingEdge(); }
  40:../libDaisy/src/hid/encoder.h **** 
  41:../libDaisy/src/hid/encoder.h ****     /** Returns true if the encoder was just released. */
  42:../libDaisy/src/hid/encoder.h ****     inline bool FallingEdge() const { return sw_.FallingEdge(); }
 643              		.loc 7 42 17 is_stmt 1 view .LVU163
 644              	.LBE414:
 645              		.loc 7 42 39 view .LVU164
 646              	.LBB417:
 647              	.LBB415:
 648              	.LBI415:
  73:../libDaisy/src/hid/switch.h ****     {
 649              		.loc 1 73 17 view .LVU165
 650              	.LBB416:
  75:../libDaisy/src/hid/switch.h ****     }
 651              		.loc 1 75 9 view .LVU166
  75:../libDaisy/src/hid/switch.h ****     }
ARM GAS  /var/folders/2p/02m_5p7958535cp2tpgps0400000gn/T//ccgOSWw9.s 			page 25


 652              		.loc 1 75 25 is_stmt 0 view .LVU167
 653 000e 93F84C20 		ldrb	r2, [r3, #76]	@ zero_extendqisi2
 654 0012 002A     		cmp	r2, #0
 655 0014 F6D0     		beq	.L38
 656              	.LVL47:
  75:../libDaisy/src/hid/switch.h ****     }
 657              		.loc 1 75 25 view .LVU168
 658              	.LBE416:
 659              	.LBE415:
 660              	.LBE417:
 661              		.loc 3 166 9 view .LVU169
 662 0016 93F85230 		ldrb	r3, [r3, #82]	@ zero_extendqisi2
 663 001a 802B     		cmp	r3, #128
 664 001c F2D1     		bne	.L38
 167:GrannyChordApp.cpp ****   switch(curr_state_){
 665              		.loc 3 167 3 is_stmt 1 view .LVU170
 666              		.loc 3 167 10 is_stmt 0 view .LVU171
 667 001e D4F8D431 		ldr	r3, [r4, #468]
 668              		.loc 3 167 3 view .LVU172
 669 0022 012B     		cmp	r3, #1
 670 0024 08DC     		bgt	.L34
 671 0026 002B     		cmp	r3, #0
 672 0028 0CDB     		blt	.L32
 168:GrannyChordApp.cpp ****     case AppState::Synthesis:
 169:GrannyChordApp.cpp ****     case AppState::RecordIn:  
 170:GrannyChordApp.cpp ****       next_state_ = AppState::SelectFile;
 171:GrannyChordApp.cpp ****       return;
 172:GrannyChordApp.cpp ****     case AppState::SelectFile:
 673              		.loc 3 172 5 is_stmt 1 view .LVU173
 173:GrannyChordApp.cpp ****     case AppState::PlayWAV: 
 674              		.loc 3 173 5 view .LVU174
 174:GrannyChordApp.cpp ****       recorded_in_ = true;
 675              		.loc 3 174 7 view .LVU175
 676              		.loc 3 174 20 is_stmt 0 view .LVU176
 677 002a 04F55043 		add	r3, r4, #53248
 678 002e 0122     		movs	r2, #1
 679 0030 83F87C21 		strb	r2, [r3, #380]
 175:GrannyChordApp.cpp ****       next_state_ = AppState::RecordIn;  
 680              		.loc 3 175 7 is_stmt 1 view .LVU177
 681              		.loc 3 175 19 is_stmt 0 view .LVU178
 682 0034 0323     		movs	r3, #3
 683 0036 03E0     		b	.L40
 684              	.L34:
 167:GrannyChordApp.cpp ****     case AppState::Synthesis:
 685              		.loc 3 167 3 view .LVU179
 686 0038 023B     		subs	r3, r3, #2
 687 003a 012B     		cmp	r3, #1
 688 003c 02D8     		bhi	.L32
 168:GrannyChordApp.cpp ****     case AppState::RecordIn:  
 689              		.loc 3 168 5 is_stmt 1 view .LVU180
 169:GrannyChordApp.cpp ****       next_state_ = AppState::SelectFile;
 690              		.loc 3 169 5 view .LVU181
 170:GrannyChordApp.cpp ****       return;
 691              		.loc 3 170 7 view .LVU182
 170:GrannyChordApp.cpp ****       return;
 692              		.loc 3 170 19 is_stmt 0 view .LVU183
 693 003e 0023     		movs	r3, #0
ARM GAS  /var/folders/2p/02m_5p7958535cp2tpgps0400000gn/T//ccgOSWw9.s 			page 26


 694              	.L40:
 695              		.loc 3 175 19 view .LVU184
 696 0040 C4F8D831 		str	r3, [r4, #472]
 176:GrannyChordApp.cpp ****       return;
 697              		.loc 3 176 7 is_stmt 1 view .LVU185
 698              	.L32:
 177:GrannyChordApp.cpp ****     default:
 178:GrannyChordApp.cpp ****       return;
 179:GrannyChordApp.cpp ****   }
 180:GrannyChordApp.cpp **** }
 699              		.loc 3 180 1 is_stmt 0 view .LVU186
 700 0044 10BD     		pop	{r4, pc}
 701              		.loc 3 180 1 view .LVU187
 702              		.cfi_endproc
 703              	.LFE4910:
 705              		.section	.text._ZN14GrannyChordApp22HandleButton1LongPressEv,"ax",%progbits
 706              		.align	1
 707              		.global	_ZN14GrannyChordApp22HandleButton1LongPressEv
 708              		.syntax unified
 709              		.thumb
 710              		.thumb_func
 712              	_ZN14GrannyChordApp22HandleButton1LongPressEv:
 713              	.LVL48:
 714              	.LFB4914:
 181:GrannyChordApp.cpp **** 
 182:GrannyChordApp.cpp **** /* this logic is required for button long presses:
 183:GrannyChordApp.cpp ****   the button update rate is extremely fast so without
 184:GrannyChordApp.cpp ****   a debounce delay, the method eg HandleButton1LongPress 
 185:GrannyChordApp.cpp ****   will be called many 1000s of times per second 
 186:GrannyChordApp.cpp ****   once time held > 1000ms, causing issues */
 187:GrannyChordApp.cpp **** void GrannyChordApp::ButtonHandler(){
 188:GrannyChordApp.cpp ****   unsigned long time_now = System::GetNow();
 189:GrannyChordApp.cpp ****   /* only check button events if there's been a gap between them */
 190:GrannyChordApp.cpp ****   if (time_now - last_action_time_ < DEBOUNCE_DELAY) {
 191:GrannyChordApp.cpp ****     return;
 192:GrannyChordApp.cpp ****   }
 193:GrannyChordApp.cpp **** 
 194:GrannyChordApp.cpp ****   /* store whether button 1 has been pressed down initiall*/
 195:GrannyChordApp.cpp ****   if (pod_.button1.RisingEdge()){
 196:GrannyChordApp.cpp ****     last_action_time_ = time_now;
 197:GrannyChordApp.cpp ****     btn1_long_press_fired_ = false;
 198:GrannyChordApp.cpp ****   }
 199:GrannyChordApp.cpp ****   
 200:GrannyChordApp.cpp ****   /* handle case when button 1 is held down */
 201:GrannyChordApp.cpp ****   if (pod_.button1.Pressed()){
 202:GrannyChordApp.cpp ****     float held_time = pod_.button1.TimeHeldMs();
 203:GrannyChordApp.cpp ****     if (held_time > LONG_PRESS_TIME && !btn1_long_press_fired_){
 204:GrannyChordApp.cpp ****       HandleButton1LongPress();
 205:GrannyChordApp.cpp ****       btn1_long_press_fired_ = true;
 206:GrannyChordApp.cpp ****       last_action_time_ = time_now;
 207:GrannyChordApp.cpp ****     }
 208:GrannyChordApp.cpp ****   }
 209:GrannyChordApp.cpp ****   
 210:GrannyChordApp.cpp ****   /* handle case when button 1 is released */
 211:GrannyChordApp.cpp ****   if (pod_.button1.FallingEdge()){
 212:GrannyChordApp.cpp ****     if (!btn1_long_press_fired_){
 213:GrannyChordApp.cpp ****       HandleButton1();
ARM GAS  /var/folders/2p/02m_5p7958535cp2tpgps0400000gn/T//ccgOSWw9.s 			page 27


 214:GrannyChordApp.cpp ****     }
 215:GrannyChordApp.cpp ****     last_action_time_ = time_now;
 216:GrannyChordApp.cpp ****     btn1_long_press_fired_ = false;
 217:GrannyChordApp.cpp ****   }
 218:GrannyChordApp.cpp **** 
 219:GrannyChordApp.cpp ****   /* store whether button 2 has been pressed down initially */
 220:GrannyChordApp.cpp ****   if (pod_.button2.RisingEdge()){
 221:GrannyChordApp.cpp ****     last_action_time_ = time_now;
 222:GrannyChordApp.cpp ****     btn2_long_press_fired_ = false;
 223:GrannyChordApp.cpp ****   }
 224:GrannyChordApp.cpp ****   
 225:GrannyChordApp.cpp ****   /* handle case when button 2 is held */
 226:GrannyChordApp.cpp ****   if (pod_.button2.Pressed()){
 227:GrannyChordApp.cpp ****     float held_time = pod_.button2.TimeHeldMs();
 228:GrannyChordApp.cpp ****     if (held_time > LONG_PRESS_TIME && !btn2_long_press_fired_){
 229:GrannyChordApp.cpp ****       HandleButton2LongPress();
 230:GrannyChordApp.cpp ****       btn2_long_press_fired_ = true;
 231:GrannyChordApp.cpp ****       last_action_time_ = time_now;
 232:GrannyChordApp.cpp ****     }
 233:GrannyChordApp.cpp ****   }
 234:GrannyChordApp.cpp ****   
 235:GrannyChordApp.cpp ****   /* handle case when button2 is released */
 236:GrannyChordApp.cpp ****   if (pod_.button2.FallingEdge()){
 237:GrannyChordApp.cpp ****     if (!btn2_long_press_fired_){
 238:GrannyChordApp.cpp ****       HandleButton2();
 239:GrannyChordApp.cpp ****     }
 240:GrannyChordApp.cpp ****     last_action_time_ = time_now;
 241:GrannyChordApp.cpp ****     btn2_long_press_fired_ = false;
 242:GrannyChordApp.cpp ****   }
 243:GrannyChordApp.cpp **** 
 244:GrannyChordApp.cpp ****   /* handle case when both buttons are held down */
 245:GrannyChordApp.cpp ****   if (pod_.button1.Pressed() && pod_.button2.Pressed()){
 246:GrannyChordApp.cpp ****     float heldTime1 = pod_.button1.TimeHeldMs();
 247:GrannyChordApp.cpp ****     float heldTime2 = pod_.button2.TimeHeldMs();
 248:GrannyChordApp.cpp ****     if (heldTime1 > LONG_PRESS_TIME &&
 249:GrannyChordApp.cpp ****         heldTime2 > LONG_PRESS_TIME &&
 250:GrannyChordApp.cpp ****         !both_btns_long_press_fired_) 
 251:GrannyChordApp.cpp ****     {
 252:GrannyChordApp.cpp ****       if (!recording_out_){
 253:GrannyChordApp.cpp ****         recording_out_ = true;
 254:GrannyChordApp.cpp ****         DebugPrint(pod_,"now recording out!");
 255:GrannyChordApp.cpp ****         RecordOutToSD();
 256:GrannyChordApp.cpp ****       } 
 257:GrannyChordApp.cpp ****       else{
 258:GrannyChordApp.cpp ****         DebugPrint(pod_, "finished recording out: %.2fs",sd_writer_.GetLengthSeconds());
 259:GrannyChordApp.cpp ****         FinishRecording();
 260:GrannyChordApp.cpp ****       }
 261:GrannyChordApp.cpp ****       both_btns_long_press_fired_ = true;
 262:GrannyChordApp.cpp ****       last_action_time_ = time_now;
 263:GrannyChordApp.cpp ****     }
 264:GrannyChordApp.cpp ****   } 
 265:GrannyChordApp.cpp ****   else{
 266:GrannyChordApp.cpp ****     both_btns_long_press_fired_ = false;
 267:GrannyChordApp.cpp ****   }
 268:GrannyChordApp.cpp **** }
 269:GrannyChordApp.cpp **** 
 270:GrannyChordApp.cpp **** /// @brief Switch between synth parameter control modes
ARM GAS  /var/folders/2p/02m_5p7958535cp2tpgps0400000gn/T//ccgOSWw9.s 			page 28


 271:GrannyChordApp.cpp **** void GrannyChordApp::HandleButton1(){
 272:GrannyChordApp.cpp ****   UpdateSynthModeA();
 273:GrannyChordApp.cpp **** }
 274:GrannyChordApp.cpp **** 
 275:GrannyChordApp.cpp **** /// @brief Toggles on/off synth parameter randomness controls
 276:GrannyChordApp.cpp **** void GrannyChordApp::HandleButton2(){
 277:GrannyChordApp.cpp ****     UpdateSynthModeB();
 278:GrannyChordApp.cpp **** }
 279:GrannyChordApp.cpp **** 
 280:GrannyChordApp.cpp **** /// @brief Toggles on/off reverb control mode 
 281:GrannyChordApp.cpp **** void GrannyChordApp::HandleButton1LongPress(){
 715              		.loc 3 281 46 is_stmt 1 view -0
 716              		.cfi_startproc
 717              		@ args = 0, pretend = 0, frame = 0
 718              		@ frame_needed = 0, uses_anonymous_args = 0
 719              		@ link register save eliminated.
 282:GrannyChordApp.cpp ****   // TODO: chord mode? 
 283:GrannyChordApp.cpp **** }
 720              		.loc 3 283 1 is_stmt 0 view .LVU189
 721 0000 7047     		bx	lr
 722              		.cfi_endproc
 723              	.LFE4914:
 725              		.section	.text._ZN14GrannyChordApp22HandleButton2LongPressEv,"ax",%progbits
 726              		.align	1
 727              		.global	_ZN14GrannyChordApp22HandleButton2LongPressEv
 728              		.syntax unified
 729              		.thumb
 730              		.thumb_func
 732              	_ZN14GrannyChordApp22HandleButton2LongPressEv:
 733              	.LFB5561:
 734              		.cfi_startproc
 735              		@ args = 0, pretend = 0, frame = 0
 736              		@ frame_needed = 0, uses_anonymous_args = 0
 737              		@ link register save eliminated.
 738 0000 7047     		bx	lr
 739              		.cfi_endproc
 740              	.LFE5561:
 742              		.section	.rodata._ZN14GrannyChordApp19HandleFileSelectionEl.str1.1,"aMS",%progbits,1
 743              	.LC4:
 744 0000 73656C65 		.ascii	"selected file %d %s\000"
 744      63746564 
 744      2066696C 
 744      65202564 
 744      20257300 
 745              		.section	.text._ZN14GrannyChordApp19HandleFileSelectionEl,"ax",%progbits
 746              		.align	1
 747              		.global	_ZN14GrannyChordApp19HandleFileSelectionEl
 748              		.syntax unified
 749              		.thumb
 750              		.thumb_func
 752              	_ZN14GrannyChordApp19HandleFileSelectionEl:
 753              	.LVL49:
 754              	.LFB4916:
 284:GrannyChordApp.cpp **** 
 285:GrannyChordApp.cpp **** /// @brief Toggles on/off filter control mode
 286:GrannyChordApp.cpp **** void GrannyChordApp::HandleButton2LongPress(){
 287:GrannyChordApp.cpp ****   // TODO: RECORD OUT? 
ARM GAS  /var/folders/2p/02m_5p7958535cp2tpgps0400000gn/T//ccgOSWw9.s 			page 29


 288:GrannyChordApp.cpp **** }
 289:GrannyChordApp.cpp **** 
 290:GrannyChordApp.cpp **** /// @brief Scrolls through list of files for user selection
 291:GrannyChordApp.cpp **** void GrannyChordApp::HandleFileSelection(int32_t encoder_inc){
 755              		.loc 3 291 62 is_stmt 1 view -0
 756              		.cfi_startproc
 757              		@ args = 0, pretend = 0, frame = 0
 758              		@ frame_needed = 0, uses_anonymous_args = 0
 292:GrannyChordApp.cpp ****   int file_count = filemgr_.GetFileCount();
 759              		.loc 3 292 3 view .LVU191
 291:GrannyChordApp.cpp ****   int file_count = filemgr_.GetFileCount();
 760              		.loc 3 291 62 is_stmt 0 view .LVU192
 761 0000 38B5     		push	{r3, r4, r5, lr}
 762              		.cfi_def_cfa_offset 16
 763              		.cfi_offset 3, -16
 764              		.cfi_offset 4, -12
 765              		.cfi_offset 5, -8
 766              		.cfi_offset 14, -4
 767              		.loc 3 292 20 view .LVU193
 768 0002 D0F8CC31 		ldr	r3, [r0, #460]
 769              	.LVL50:
 770              	.LBB418:
 771              	.LBI418:
 772              		.file 8 "AudioFileManager.h"
   1:AudioFileManager.h **** #pragma once
   2:AudioFileManager.h **** #include <stdio.h>
   3:AudioFileManager.h **** #include <stdint.h>
   4:AudioFileManager.h **** #include <vector>
   5:AudioFileManager.h **** #include "daisy_pod.h"
   6:AudioFileManager.h **** #include "constants_utils.h"
   7:AudioFileManager.h **** #include "debug_print.h"
   8:AudioFileManager.h **** 
   9:AudioFileManager.h **** using namespace daisy; 
  10:AudioFileManager.h **** 
  11:AudioFileManager.h **** class AudioFileManager {
  12:AudioFileManager.h ****   public:
  13:AudioFileManager.h ****     AudioFileManager(SdmmcHandler &sd, FatFSInterface &fsi, DaisyPod &pod, FIL *file)
  14:AudioFileManager.h ****       : sd_(sd), fsi_(fsi), pod_(pod), curr_file_(file), 
  15:AudioFileManager.h ****         left_buf_(nullptr), right_buf_(nullptr) {};
  16:AudioFileManager.h ****     
  17:AudioFileManager.h ****     bool Init();
  18:AudioFileManager.h ****     bool ScanWavFiles();
  19:AudioFileManager.h ****     void SetBuffers(int16_t *left, int16_t *right);
  20:AudioFileManager.h ****     bool LoadFile(uint16_t file_idx);
  21:AudioFileManager.h ****     
  22:AudioFileManager.h ****     bool CloseFile();
  23:AudioFileManager.h ****     bool GetWavHeader(FIL *file);
  24:AudioFileManager.h **** 
  25:AudioFileManager.h ****     int16_t* GetLeftBuffer() const { return left_buf_; }
  26:AudioFileManager.h ****     int16_t* GetRightBuffer() const { return right_buf_; }
  27:AudioFileManager.h ****     size_t GetSamplesPerChannel() const { return header_.total_samples / header_.channels; }
  28:AudioFileManager.h ****     size_t GetTotalSamples() const { return header_.total_samples; }
  29:AudioFileManager.h ****     int16_t GetNumChannels() const { return header_.channels; }
  30:AudioFileManager.h ****     uint16_t GetFileCount() const { return file_count_; }
 773              		.loc 8 30 14 is_stmt 1 view .LVU194
 774              	.LBB419:
 775              		.loc 8 30 37 view .LVU195
ARM GAS  /var/folders/2p/02m_5p7958535cp2tpgps0400000gn/T//ccgOSWw9.s 			page 30


 776              		.loc 8 30 37 is_stmt 0 view .LVU196
 777              	.LBE419:
 778              	.LBE418:
 293:GrannyChordApp.cpp ****   file_idx_ = (file_idx_ + encoder_inc + file_count) % file_count;
 779              		.loc 3 293 16 view .LVU197
 780 0006 00F58045 		add	r5, r0, #16384
 781              	.LBB421:
 782              	.LBB420:
 783              		.loc 8 30 44 view .LVU198
 784 000a 03F58052 		add	r2, r3, #4096
 785              	.LBE420:
 786              	.LBE421:
 787              		.loc 3 293 26 view .LVU199
 788 000e D5F8F84D 		ldr	r4, [r5, #3576]
 292:GrannyChordApp.cpp ****   file_idx_ = (file_idx_ + encoder_inc + file_count) % file_count;
 789              		.loc 3 292 42 view .LVU200
 790 0012 D28B     		ldrh	r2, [r2, #30]
 791              	.LVL51:
 792              		.loc 3 293 3 is_stmt 1 view .LVU201
 793              		.loc 3 293 26 is_stmt 0 view .LVU202
 794 0014 2144     		add	r1, r1, r4
 795              	.LVL52:
 796              		.loc 3 293 40 view .LVU203
 797 0016 8C18     		adds	r4, r1, r2
 798              		.loc 3 293 54 view .LVU204
 799 0018 94FBF2F1 		sdiv	r1, r4, r2
 800 001c 02FB1144 		mls	r4, r2, r1, r4
 294:GrannyChordApp.cpp ****   filemgr_.GetName(file_idx_,fname_);
 801              		.loc 3 294 30 view .LVU205
 802 0020 00F59C42 		add	r2, r0, #19968
 803              	.LVL53:
 804              	.LBB422:
 805              	.LBB423:
  31:AudioFileManager.h ****     void GetName(uint16_t idx, char* name) const { strcpy(name, names_[idx]); }
 806              		.loc 8 31 75 view .LVU206
 807 0024 A1B2     		uxth	r1, r4
 808              	.LBE423:
 809              	.LBE422:
 810              		.loc 3 294 30 view .LVU207
 811 0026 0432     		adds	r2, r2, #4
 293:GrannyChordApp.cpp ****   filemgr_.GetName(file_idx_,fname_);
 812              		.loc 3 293 13 view .LVU208
 813 0028 C5F8F84D 		str	r4, [r5, #3576]
 814              		.loc 3 294 3 is_stmt 1 view .LVU209
 815              	.LVL54:
 816              	.LBB426:
 817              	.LBI422:
 818              		.loc 8 31 10 view .LVU210
 819              	.LBB424:
 820              		.loc 8 31 52 view .LVU211
 821              		.loc 8 31 75 is_stmt 0 view .LVU212
 822 002c 03EBC111 		add	r1, r3, r1, lsl #7
 823              		.loc 8 31 58 view .LVU213
 824 0030 1046     		mov	r0, r2
 825              	.LVL55:
 826              		.loc 8 31 58 view .LVU214
 827 0032 1C31     		adds	r1, r1, #28
ARM GAS  /var/folders/2p/02m_5p7958535cp2tpgps0400000gn/T//ccgOSWw9.s 			page 31


 828 0034 FFF7FEFF 		bl	strcpy
 829              	.LVL56:
 830              		.loc 8 31 58 view .LVU215
 831              	.LBE424:
 832              	.LBE426:
 833              	.LBB427:
 834              	.LBB428:
 835              		.loc 5 128 23 view .LVU216
 836 0038 2146     		mov	r1, r4
 837              	.LBE428:
 838              	.LBE427:
 839              	.LBB431:
 840              	.LBB425:
 841              		.loc 8 31 58 view .LVU217
 842 003a 0246     		mov	r2, r0
 843              	.LVL57:
 844              		.loc 8 31 58 view .LVU218
 845              	.LBE425:
 846              	.LBE431:
 295:GrannyChordApp.cpp ****   DebugPrint(pod_, "selected file %d %s",file_idx_,fname_);
 847              		.loc 3 295 3 is_stmt 1 view .LVU219
 848              		.loc 3 295 3 view .LVU220
 849              	.LBB432:
 850              	.LBI427:
 126:../libDaisy/src/daisy_seed.h ****     {
 851              		.loc 5 126 17 view .LVU221
 852              	.LBB429:
 853              		.loc 5 128 23 is_stmt 0 view .LVU222
 854 003c 0248     		ldr	r0, .L44
 855              	.LVL58:
 856              		.loc 5 128 23 view .LVU223
 857              	.LBE429:
 858              	.LBE432:
 296:GrannyChordApp.cpp **** }
 859              		.loc 3 296 1 view .LVU224
 860 003e BDE83840 		pop	{r3, r4, r5, lr}
 861              		.cfi_restore 14
 862              		.cfi_restore 5
 863              		.cfi_restore 4
 864              		.cfi_restore 3
 865              		.cfi_def_cfa_offset 0
 866              	.LVL59:
 867              	.LBB433:
 868              	.LBB430:
 869              		.loc 5 128 23 view .LVU225
 870 0042 FFF7FEBF 		b	_ZN5daisy6LoggerILNS_17LoggerDestinationE1EE9PrintLineEPKcz
 871              	.LVL60:
 872              	.L45:
 873              		.loc 5 128 23 view .LVU226
 874 0046 00BF     		.align	2
 875              	.L44:
 876 0048 00000000 		.word	.LC4
 877              	.LBE430:
 878              	.LBE433:
 879              		.cfi_endproc
 880              	.LFE4916:
 882              		.section	.text._ZN14GrannyChordApp22HandleEncoderIncrementEi,"ax",%progbits
ARM GAS  /var/folders/2p/02m_5p7958535cp2tpgps0400000gn/T//ccgOSWw9.s 			page 32


 883              		.align	1
 884              		.global	_ZN14GrannyChordApp22HandleEncoderIncrementEi
 885              		.syntax unified
 886              		.thumb
 887              		.thumb_func
 889              	_ZN14GrannyChordApp22HandleEncoderIncrementEi:
 890              	.LVL61:
 891              	.LFB4908:
 133:GrannyChordApp.cpp ****   if (next_state_== AppState::SelectFile){
 892              		.loc 3 133 61 is_stmt 1 view -0
 893              		.cfi_startproc
 894              		@ args = 0, pretend = 0, frame = 0
 895              		@ frame_needed = 0, uses_anonymous_args = 0
 896              		@ link register save eliminated.
 134:GrannyChordApp.cpp ****     recorded_in_ = false;
 897              		.loc 3 134 3 view .LVU228
 898 0000 D0F8D821 		ldr	r2, [r0, #472]
 899 0004 2AB9     		cbnz	r2, .L47
 135:GrannyChordApp.cpp ****     HandleFileSelection(encoder_inc);
 900              		.loc 3 135 5 view .LVU229
 135:GrannyChordApp.cpp ****     HandleFileSelection(encoder_inc);
 901              		.loc 3 135 18 is_stmt 0 view .LVU230
 902 0006 00F55043 		add	r3, r0, #53248
 903 000a 83F87C21 		strb	r2, [r3, #380]
 136:GrannyChordApp.cpp ****   }
 904              		.loc 3 136 5 is_stmt 1 view .LVU231
 136:GrannyChordApp.cpp ****   }
 905              		.loc 3 136 24 is_stmt 0 view .LVU232
 906 000e FFF7FEBF 		b	_ZN14GrannyChordApp19HandleFileSelectionEl
 907              	.LVL62:
 908              	.L47:
 909              	.LBB436:
 910              	.LBI436:
 133:GrannyChordApp.cpp ****   if (next_state_== AppState::SelectFile){
 911              		.loc 3 133 6 is_stmt 1 view .LVU233
 912              	.LBB437:
 138:GrannyChordApp.cpp ****     recorded_in_ = false;
 913              		.loc 3 138 8 view .LVU234
 914 0012 D0F8D421 		ldr	r2, [r0, #468]
 915 0016 012A     		cmp	r2, #1
 139:GrannyChordApp.cpp ****     next_state_ = AppState::SelectFile;
 916              		.loc 3 139 5 view .LVU235
 139:GrannyChordApp.cpp ****     next_state_ = AppState::SelectFile;
 917              		.loc 3 139 18 is_stmt 0 view .LVU236
 918 0018 01BF     		itttt	eq
 919 001a 0022     		moveq	r2, #0
 920 001c 00F55041 		addeq	r1, r0, #53248
 921              	.LVL63:
 139:GrannyChordApp.cpp ****     next_state_ = AppState::SelectFile;
 922              		.loc 3 139 18 view .LVU237
 923 0020 81F87C21 		strbeq	r2, [r1, #380]
 140:GrannyChordApp.cpp ****   }
 924              		.loc 3 140 5 is_stmt 1 view .LVU238
 140:GrannyChordApp.cpp ****   }
 925              		.loc 3 140 17 is_stmt 0 view .LVU239
 926 0024 C0F8D821 		streq	r2, [r0, #472]
 927              	.LVL64:
ARM GAS  /var/folders/2p/02m_5p7958535cp2tpgps0400000gn/T//ccgOSWw9.s 			page 33


 140:GrannyChordApp.cpp ****   }
 928              		.loc 3 140 17 view .LVU240
 929              	.LBE437:
 930              	.LBE436:
 142:GrannyChordApp.cpp **** 
 931              		.loc 3 142 1 view .LVU241
 932 0028 7047     		bx	lr
 933              		.cfi_endproc
 934              	.LFE4908:
 936              		.section	.text._ZN14GrannyChordApp11InitFileMgrEv,"ax",%progbits
 937              		.align	1
 938              		.global	_ZN14GrannyChordApp11InitFileMgrEv
 939              		.syntax unified
 940              		.thumb
 941              		.thumb_func
 943              	_ZN14GrannyChordApp11InitFileMgrEv:
 944              	.LVL65:
 945              	.LFB4920:
 297:GrannyChordApp.cpp **** 
 298:GrannyChordApp.cpp **** /// @brief iterates through synth parameter control modes when button 1 pressed
 299:GrannyChordApp.cpp **** /// if we are in an 'even' mode, go to the next 'eveb' mode. 
 300:GrannyChordApp.cpp **** /// if we are in an 'odd' mode, go to the corresponding 'even' mode
 301:GrannyChordApp.cpp **** void GrannyChordApp::UpdateSynthModeA(){
 302:GrannyChordApp.cpp ****   DebugPrint(pod_, "next synth mode");
 303:GrannyChordApp.cpp ****   int mode_idx = static_cast<int>(curr_synth_mode_);
 304:GrannyChordApp.cpp ****   if (mode_idx%2 == 0){
 305:GrannyChordApp.cpp ****     mode_idx = (mode_idx + 2) % 8;
 306:GrannyChordApp.cpp ****   }
 307:GrannyChordApp.cpp ****   else {
 308:GrannyChordApp.cpp ****     /* XOR the enum value to get corresponding mode index */
 309:GrannyChordApp.cpp ****     mode_idx = mode_idx ^ 1;
 310:GrannyChordApp.cpp ****   }
 311:GrannyChordApp.cpp **** 
 312:GrannyChordApp.cpp ****   curr_synth_mode_ = static_cast<SynthMode>(mode_idx);
 313:GrannyChordApp.cpp ****   DebugPrintMode(curr_synth_mode_);
 314:GrannyChordApp.cpp ****   ResetPassThru();
 315:GrannyChordApp.cpp ****   SetLed1SynthMode();
 316:GrannyChordApp.cpp ****   mode_changed_ = true;
 317:GrannyChordApp.cpp **** }
 318:GrannyChordApp.cpp **** 
 319:GrannyChordApp.cpp **** /// @brief iterates through synth parameter control modes when button 2 pressed
 320:GrannyChordApp.cpp **** /// if we are in an 'even' mode, go to the corresponding 'odd' mode. 
 321:GrannyChordApp.cpp **** /// if we are in an 'odd' mode, go to the next 'odd' mode
 322:GrannyChordApp.cpp **** void GrannyChordApp::UpdateSynthModeB(){
 323:GrannyChordApp.cpp ****   DebugPrint(pod_, "next synth mode");
 324:GrannyChordApp.cpp ****   int mode_idx = static_cast<int>(curr_synth_mode_);
 325:GrannyChordApp.cpp ****   if (mode_idx %2 != 0){
 326:GrannyChordApp.cpp ****     mode_idx = (mode_idx + 2) % 8;
 327:GrannyChordApp.cpp ****   }
 328:GrannyChordApp.cpp ****   else {
 329:GrannyChordApp.cpp ****     mode_idx = mode_idx ^ 1;
 330:GrannyChordApp.cpp ****   }
 331:GrannyChordApp.cpp **** 
 332:GrannyChordApp.cpp ****   curr_synth_mode_ = static_cast<SynthMode>(mode_idx);
 333:GrannyChordApp.cpp ****   DebugPrintMode(curr_synth_mode_);
 334:GrannyChordApp.cpp ****   ResetPassThru();
 335:GrannyChordApp.cpp ****   SetLed2();
ARM GAS  /var/folders/2p/02m_5p7958535cp2tpgps0400000gn/T//ccgOSWw9.s 			page 34


 336:GrannyChordApp.cpp ****   mode_changed_ = true;
 337:GrannyChordApp.cpp **** }
 338:GrannyChordApp.cpp **** 
 339:GrannyChordApp.cpp **** /// @brief Updates synth parameters based on current synth mode and adjusts
 340:GrannyChordApp.cpp **** ///        knob input values to account for knob jitter and deadzones around 0/1
 341:GrannyChordApp.cpp **** void GrannyChordApp::UpdateSynthParams(){
 342:GrannyChordApp.cpp ****   if (curr_state_!=AppState::Synthesis) return;
 343:GrannyChordApp.cpp ****   int mode_idx = static_cast<int>(curr_synth_mode_);
 344:GrannyChordApp.cpp **** 
 345:GrannyChordApp.cpp ****   /* set to 0 or 1 if very close to these bounds */
 346:GrannyChordApp.cpp ****   float knob1_val = MapKnobDeadzone(pod_.knob1.Process());
 347:GrannyChordApp.cpp ****   float knob2_val = MapKnobDeadzone(pod_.knob2.Process());
 348:GrannyChordApp.cpp **** 
 349:GrannyChordApp.cpp ****   /* only update parameter if knob has passed through previous value in this mode */
 350:GrannyChordApp.cpp ****   if (UpdateKnobPassThru(knob1_val,mode_idx)){
 351:GrannyChordApp.cpp ****     UpdateKnob1Params(knob1_val,curr_synth_mode_);
 352:GrannyChordApp.cpp ****     prev_param_k1[mode_idx] = knob1_val;
 353:GrannyChordApp.cpp ****   }
 354:GrannyChordApp.cpp ****   if (UpdateKnobPassThru(knob2_val,mode_idx)){
 355:GrannyChordApp.cpp ****     UpdateKnob2Params(knob2_val, curr_synth_mode_);
 356:GrannyChordApp.cpp ****     prev_param_k2[mode_idx] = knob2_val;
 357:GrannyChordApp.cpp ****   }
 358:GrannyChordApp.cpp **** }
 359:GrannyChordApp.cpp **** 
 360:GrannyChordApp.cpp **** /// @brief Initialises file manager, sets audio data buffers and scans SD card for WAV files
 361:GrannyChordApp.cpp **** /// @return True on successful initialisation, false if init fails or no WAV files found
 362:GrannyChordApp.cpp **** bool GrannyChordApp::InitFileMgr(){
 946              		.loc 3 362 35 is_stmt 1 view -0
 947              		.cfi_startproc
 948              		@ args = 0, pretend = 0, frame = 0
 949              		@ frame_needed = 0, uses_anonymous_args = 0
 363:GrannyChordApp.cpp ****   filemgr_.SetBuffers(left_buf_,right_buf_);
 950              		.loc 3 363 3 view .LVU243
 951              		.loc 3 363 22 is_stmt 0 view .LVU244
 952 0000 00F58043 		add	r3, r0, #16384
 362:GrannyChordApp.cpp ****   filemgr_.SetBuffers(left_buf_,right_buf_);
 953              		.loc 3 362 35 view .LVU245
 954 0004 10B5     		push	{r4, lr}
 955              		.cfi_def_cfa_offset 8
 956              		.cfi_offset 4, -8
 957              		.cfi_offset 14, -4
 362:GrannyChordApp.cpp ****   filemgr_.SetBuffers(left_buf_,right_buf_);
 958              		.loc 3 362 35 view .LVU246
 959 0006 0446     		mov	r4, r0
 960              		.loc 3 363 22 view .LVU247
 961 0008 D3F8F42D 		ldr	r2, [r3, #3572]
 962 000c D0F8CC01 		ldr	r0, [r0, #460]
 963              	.LVL66:
 964              		.loc 3 363 22 view .LVU248
 965 0010 D3F8F01D 		ldr	r1, [r3, #3568]
 966 0014 FFF7FEFF 		bl	_ZN16AudioFileManager10SetBuffersEPsS0_
 967              	.LVL67:
 364:GrannyChordApp.cpp ****   if (!filemgr_.Init())return false;
 968              		.loc 3 364 3 is_stmt 1 view .LVU249
 969              		.loc 3 364 21 is_stmt 0 view .LVU250
 970 0018 D4F8CC01 		ldr	r0, [r4, #460]
 971 001c FFF7FEFF 		bl	_ZN16AudioFileManager4InitEv
ARM GAS  /var/folders/2p/02m_5p7958535cp2tpgps0400000gn/T//ccgOSWw9.s 			page 35


 972              	.LVL68:
 973              		.loc 3 364 3 view .LVU251
 974 0020 28B1     		cbz	r0, .L50
 975              	.LBB440:
 976              	.LBI440:
 362:GrannyChordApp.cpp ****   filemgr_.SetBuffers(left_buf_,right_buf_);
 977              		.loc 3 362 6 is_stmt 1 view .LVU252
 978              	.LVL69:
 979              	.LBB441:
 365:GrannyChordApp.cpp **** 
 366:GrannyChordApp.cpp ****   return filemgr_.ScanWavFiles();
 980              		.loc 3 366 3 view .LVU253
 981              		.loc 3 366 31 is_stmt 0 view .LVU254
 982 0022 D4F8CC01 		ldr	r0, [r4, #460]
 983              	.LBE441:
 984              	.LBE440:
 367:GrannyChordApp.cpp **** }
 985              		.loc 3 367 1 view .LVU255
 986 0026 BDE81040 		pop	{r4, lr}
 987              		.cfi_remember_state
 988              		.cfi_restore 14
 989              		.cfi_restore 4
 990              		.cfi_def_cfa_offset 0
 991              	.LVL70:
 992              	.LBB443:
 993              	.LBB442:
 366:GrannyChordApp.cpp **** }
 994              		.loc 3 366 31 view .LVU256
 995 002a FFF7FEBF 		b	_ZN16AudioFileManager12ScanWavFilesEv
 996              	.LVL71:
 997              	.L50:
 998              		.cfi_restore_state
 366:GrannyChordApp.cpp **** }
 999              		.loc 3 366 31 view .LVU257
 1000              	.LBE442:
 1001              	.LBE443:
 1002              		.loc 3 367 1 view .LVU258
 1003 002e 10BD     		pop	{r4, pc}
 1004              		.loc 3 367 1 view .LVU259
 1005              		.cfi_endproc
 1006              	.LFE4920:
 1008              		.section	.rodata._ZN14GrannyChordApp12InitPlaybackEv.str1.1,"aMS",%progbits,1
 1009              	.LC5:
 1010 0000 6661696C 		.ascii	"failed to load file\000"
 1010      65642074 
 1010      6F206C6F 
 1010      61642066 
 1010      696C6500 
 1011              	.LC6:
 1012 0014 6C6F6164 		.ascii	"loaded file\000"
 1012      65642066 
 1012      696C6500 
 1013              		.section	.text._ZN14GrannyChordApp12InitPlaybackEv,"ax",%progbits
 1014              		.align	1
 1015              		.global	_ZN14GrannyChordApp12InitPlaybackEv
 1016              		.syntax unified
 1017              		.thumb
ARM GAS  /var/folders/2p/02m_5p7958535cp2tpgps0400000gn/T//ccgOSWw9.s 			page 36


 1018              		.thumb_func
 1020              	_ZN14GrannyChordApp12InitPlaybackEv:
 1021              	.LVL72:
 1022              	.LFB4922:
 368:GrannyChordApp.cpp **** 
 369:GrannyChordApp.cpp **** /// @brief Calls synth initialisation function, passes audio data buffers and audio length
 370:GrannyChordApp.cpp **** void GrannyChordApp::InitSynth(){
 371:GrannyChordApp.cpp ****   synth_.Init(left_buf_, right_buf_, filemgr_.GetSamplesPerChannel());
 372:GrannyChordApp.cpp ****   InitPrevParamVals();
 373:GrannyChordApp.cpp ****   DebugPrint(pod_,"synth init ok - samples %u",filemgr_.GetSamplesPerChannel());
 374:GrannyChordApp.cpp **** }
 375:GrannyChordApp.cpp **** 
 376:GrannyChordApp.cpp **** /// @brief Initialises WAV playback state, resets playhead, sets current file audio length
 377:GrannyChordApp.cpp **** void GrannyChordApp::InitPlayback(){
 1023              		.loc 3 377 36 is_stmt 1 view -0
 1024              		.cfi_startproc
 1025              		@ args = 0, pretend = 0, frame = 0
 1026              		@ frame_needed = 0, uses_anonymous_args = 0
 378:GrannyChordApp.cpp ****   wav_playhead_ = 0;
 1027              		.loc 3 378 3 view .LVU261
 1028              		.loc 3 378 17 is_stmt 0 view .LVU262
 1029 0000 0021     		movs	r1, #0
 379:GrannyChordApp.cpp ****   record_in_pos_  = 0;
 1030              		.loc 3 379 19 view .LVU263
 1031 0002 00F55042 		add	r2, r0, #53248
 378:GrannyChordApp.cpp ****   wav_playhead_ = 0;
 1032              		.loc 3 378 17 view .LVU264
 1033 0006 00F58043 		add	r3, r0, #16384
 377:GrannyChordApp.cpp ****   wav_playhead_ = 0;
 1034              		.loc 3 377 36 view .LVU265
 1035 000a 10B5     		push	{r4, lr}
 1036              		.cfi_def_cfa_offset 8
 1037              		.cfi_offset 4, -8
 1038              		.cfi_offset 14, -4
 378:GrannyChordApp.cpp ****   wav_playhead_ = 0;
 1039              		.loc 3 378 17 view .LVU266
 1040 000c C3F8FC1D 		str	r1, [r3, #3580]
 1041              		.loc 3 379 3 is_stmt 1 view .LVU267
 377:GrannyChordApp.cpp ****   wav_playhead_ = 0;
 1042              		.loc 3 377 36 is_stmt 0 view .LVU268
 1043 0010 0446     		mov	r4, r0
 1044              		.loc 3 379 19 view .LVU269
 1045 0012 C2F88011 		str	r1, [r2, #384]
 380:GrannyChordApp.cpp ****   if (!recorded_in_){
 1046              		.loc 3 380 3 is_stmt 1 view .LVU270
 1047 0016 92F87C21 		ldrb	r2, [r2, #380]	@ zero_extendqisi2
 1048 001a 6AB9     		cbnz	r2, .L52
 381:GrannyChordApp.cpp ****     if (!filemgr_.LoadFile(file_idx_)) {
 1049              		.loc 3 381 5 view .LVU271
 1050              		.loc 3 381 27 is_stmt 0 view .LVU272
 1051 001c B3F8F81D 		ldrh	r1, [r3, #3576]
 1052 0020 D0F8CC01 		ldr	r0, [r0, #460]
 1053              	.LVL73:
 1054              		.loc 3 381 27 view .LVU273
 1055 0024 FFF7FEFF 		bl	_ZN16AudioFileManager8LoadFileEt
 1056              	.LVL74:
 1057              		.loc 3 381 5 view .LVU274
ARM GAS  /var/folders/2p/02m_5p7958535cp2tpgps0400000gn/T//ccgOSWw9.s 			page 37


 1058 0028 30B9     		cbnz	r0, .L52
 382:GrannyChordApp.cpp ****       DebugPrint(pod_,"failed to load file");
 1059              		.loc 3 382 7 is_stmt 1 view .LVU275
 1060              		.loc 3 382 7 view .LVU276
 1061              	.LVL75:
 1062              	.LBB444:
 1063              	.LBI444:
 126:../libDaisy/src/daisy_seed.h ****     {
 1064              		.loc 5 126 17 view .LVU277
 1065              	.LBB445:
 1066              		.loc 5 128 23 is_stmt 0 view .LVU278
 1067 002a 0848     		ldr	r0, .L55
 1068 002c FFF7FEFF 		bl	_ZN5daisy6LoggerILNS_17LoggerDestinationE1EE9PrintLineEPKcz
 1069              	.LVL76:
 1070              		.loc 5 128 23 view .LVU279
 1071              	.LBE445:
 1072              	.LBE444:
 383:GrannyChordApp.cpp ****       curr_state_=AppState::Error;
 1073              		.loc 3 383 7 is_stmt 1 view .LVU280
 1074              		.loc 3 383 18 is_stmt 0 view .LVU281
 1075 0030 0523     		movs	r3, #5
 1076 0032 C4F8D431 		str	r3, [r4, #468]
 384:GrannyChordApp.cpp ****       return;
 1077              		.loc 3 384 7 is_stmt 1 view .LVU282
 385:GrannyChordApp.cpp ****     }
 386:GrannyChordApp.cpp ****   }
 387:GrannyChordApp.cpp ****   DebugPrint(pod_, "loaded file");
 388:GrannyChordApp.cpp ****   pod_.StartAudio(AudioCallback);
 389:GrannyChordApp.cpp **** }
 1078              		.loc 3 389 1 is_stmt 0 view .LVU283
 1079 0036 10BD     		pop	{r4, pc}
 1080              	.LVL77:
 1081              	.L52:
 387:GrannyChordApp.cpp ****   pod_.StartAudio(AudioCallback);
 1082              		.loc 3 387 3 is_stmt 1 view .LVU284
 387:GrannyChordApp.cpp ****   pod_.StartAudio(AudioCallback);
 1083              		.loc 3 387 3 view .LVU285
 1084              	.LBB446:
 1085              	.LBI446:
 126:../libDaisy/src/daisy_seed.h ****     {
 1086              		.loc 5 126 17 view .LVU286
 1087              	.LBB447:
 1088              		.loc 5 128 23 is_stmt 0 view .LVU287
 1089 0038 0548     		ldr	r0, .L55+4
 1090 003a FFF7FEFF 		bl	_ZN5daisy6LoggerILNS_17LoggerDestinationE1EE9PrintLineEPKcz
 1091              	.LVL78:
 1092              		.loc 5 128 23 view .LVU288
 1093              	.LBE447:
 1094              	.LBE446:
 388:GrannyChordApp.cpp **** }
 1095              		.loc 3 388 3 is_stmt 1 view .LVU289
 388:GrannyChordApp.cpp **** }
 1096              		.loc 3 388 18 is_stmt 0 view .LVU290
 1097 003e E069     		ldr	r0, [r4, #28]
 1098 0040 0449     		ldr	r1, .L55+8
 1099              		.loc 3 389 1 view .LVU291
 1100 0042 BDE81040 		pop	{r4, lr}
ARM GAS  /var/folders/2p/02m_5p7958535cp2tpgps0400000gn/T//ccgOSWw9.s 			page 38


 1101              		.cfi_restore 14
 1102              		.cfi_restore 4
 1103              		.cfi_def_cfa_offset 0
 1104              	.LVL79:
 388:GrannyChordApp.cpp **** }
 1105              		.loc 3 388 18 view .LVU292
 1106 0046 FFF7FEBF 		b	_ZN5daisy8DaisyPod10StartAudioEPFvPKPKfPPfjE
 1107              	.LVL80:
 1108              	.L56:
 1109 004a 00BF     		.align	2
 1110              	.L55:
 1111 004c 00000000 		.word	.LC5
 1112 0050 14000000 		.word	.LC6
 1113 0054 00000000 		.word	_ZN14GrannyChordApp13AudioCallbackEPKPKfPPfj
 1114              		.cfi_endproc
 1115              	.LFE4922:
 1117              		.section	.text._ZN14GrannyChordApp12InitRecordInEv,"ax",%progbits
 1118              		.align	1
 1119              		.global	_ZN14GrannyChordApp12InitRecordInEv
 1120              		.syntax unified
 1121              		.thumb
 1122              		.thumb_func
 1124              	_ZN14GrannyChordApp12InitRecordInEv:
 1125              	.LVL81:
 1126              	.LFB4923:
 390:GrannyChordApp.cpp **** 
 391:GrannyChordApp.cpp **** /// @brief Initialises RecordIn state, clears audio buffers
 392:GrannyChordApp.cpp **** void GrannyChordApp::InitRecordIn(){
 1127              		.loc 3 392 36 is_stmt 1 view -0
 1128              		.cfi_startproc
 1129              		@ args = 0, pretend = 0, frame = 0
 1130              		@ frame_needed = 0, uses_anonymous_args = 0
 393:GrannyChordApp.cpp ****   memset(left_buf_, 0, CHNL_BUF_SIZE_ABS);
 1131              		.loc 3 393 3 view .LVU294
 392:GrannyChordApp.cpp ****   memset(left_buf_, 0, CHNL_BUF_SIZE_ABS);
 1132              		.loc 3 392 36 is_stmt 0 view .LVU295
 1133 0000 38B5     		push	{r3, r4, r5, lr}
 1134              		.cfi_def_cfa_offset 16
 1135              		.cfi_offset 3, -16
 1136              		.cfi_offset 4, -12
 1137              		.cfi_offset 5, -8
 1138              		.cfi_offset 14, -4
 1139              		.loc 3 393 10 view .LVU296
 1140 0002 00F58045 		add	r5, r0, #16384
 392:GrannyChordApp.cpp ****   memset(left_buf_, 0, CHNL_BUF_SIZE_ABS);
 1141              		.loc 3 392 36 view .LVU297
 1142 0006 0446     		mov	r4, r0
 1143              		.loc 3 393 9 view .LVU298
 1144 0008 4FF08072 		mov	r2, #16777216
 1145 000c 0021     		movs	r1, #0
 1146 000e D5F8F00D 		ldr	r0, [r5, #3568]
 1147              	.LVL82:
 394:GrannyChordApp.cpp ****   memset(right_buf_, 0, CHNL_BUF_SIZE_ABS);
 395:GrannyChordApp.cpp ****   record_in_pos_ = 0;
 1148              		.loc 3 395 18 view .LVU299
 1149 0012 04F55044 		add	r4, r4, #53248
 1150              	.LVL83:
ARM GAS  /var/folders/2p/02m_5p7958535cp2tpgps0400000gn/T//ccgOSWw9.s 			page 39


 393:GrannyChordApp.cpp ****   memset(right_buf_, 0, CHNL_BUF_SIZE_ABS);
 1151              		.loc 3 393 9 view .LVU300
 1152 0016 FFF7FEFF 		bl	memset
 1153              	.LVL84:
 394:GrannyChordApp.cpp ****   memset(right_buf_, 0, CHNL_BUF_SIZE_ABS);
 1154              		.loc 3 394 3 is_stmt 1 view .LVU301
 394:GrannyChordApp.cpp ****   memset(right_buf_, 0, CHNL_BUF_SIZE_ABS);
 1155              		.loc 3 394 9 is_stmt 0 view .LVU302
 1156 001a 4FF08072 		mov	r2, #16777216
 1157 001e 0021     		movs	r1, #0
 1158 0020 D5F8F40D 		ldr	r0, [r5, #3572]
 1159 0024 FFF7FEFF 		bl	memset
 1160              	.LVL85:
 1161              		.loc 3 395 3 is_stmt 1 view .LVU303
 1162              		.loc 3 395 18 is_stmt 0 view .LVU304
 1163 0028 0023     		movs	r3, #0
 1164 002a C4F88031 		str	r3, [r4, #384]
 396:GrannyChordApp.cpp **** }
 1165              		.loc 3 396 1 view .LVU305
 1166 002e 38BD     		pop	{r3, r4, r5, pc}
 1167              		.loc 3 396 1 view .LVU306
 1168              		.cfi_endproc
 1169              	.LFE4923:
 1171              		.section	.text._ZN14GrannyChordApp13InitWavWriterEv,"ax",%progbits
 1172              		.align	1
 1173              		.global	_ZN14GrannyChordApp13InitWavWriterEv
 1174              		.syntax unified
 1175              		.thumb
 1176              		.thumb_func
 1178              	_ZN14GrannyChordApp13InitWavWriterEv:
 1179              	.LVL86:
 1180              	.LFB4924:
 397:GrannyChordApp.cpp **** 
 398:GrannyChordApp.cpp **** // /// @brief Initialise object for recording out to SD card
 399:GrannyChordApp.cpp **** void GrannyChordApp::InitWavWriter(){
 1181              		.loc 3 399 37 is_stmt 1 view -0
 1182              		.cfi_startproc
 1183              		@ args = 0, pretend = 0, frame = 0
 1184              		@ frame_needed = 0, uses_anonymous_args = 0
 1185              		@ link register save eliminated.
 400:GrannyChordApp.cpp ****   WavWriter<16384>::Config cfg;
 1186              		.loc 3 400 3 view .LVU308
 401:GrannyChordApp.cpp ****   cfg.bitspersample = BIT_DEPTH;
 1187              		.loc 3 401 3 view .LVU309
 402:GrannyChordApp.cpp ****   cfg.channels = filemgr_.GetNumChannels();
 1188              		.loc 3 402 3 view .LVU310
 1189              	.LBB456:
 1190              	.LBI456:
  29:AudioFileManager.h ****     uint16_t GetFileCount() const { return file_count_; }
 1191              		.loc 8 29 13 view .LVU311
 1192              	.LBB457:
  29:AudioFileManager.h ****     uint16_t GetFileCount() const { return file_count_; }
 1193              		.loc 8 29 38 view .LVU312
  29:AudioFileManager.h ****     uint16_t GetFileCount() const { return file_count_; }
 1194              		.loc 8 29 53 is_stmt 0 view .LVU313
 1195 0000 D0F8CC31 		ldr	r3, [r0, #460]
 1196              	.LBE457:
ARM GAS  /var/folders/2p/02m_5p7958535cp2tpgps0400000gn/T//ccgOSWw9.s 			page 40


 1197              	.LBE456:
 1198              	.LBB460:
 1199              	.LBB461:
 1200              		.file 9 "../libDaisy/src/util/WavWriter.h"
   1:../libDaisy/src/util/WavWriter.h **** #pragma once
   2:../libDaisy/src/util/WavWriter.h **** #pragma once
   3:../libDaisy/src/util/WavWriter.h **** #include "fatfs.h"
   4:../libDaisy/src/util/WavWriter.h **** 
   5:../libDaisy/src/util/WavWriter.h **** namespace daisy
   6:../libDaisy/src/util/WavWriter.h **** {
   7:../libDaisy/src/util/WavWriter.h **** /** Audio Recording Module
   8:../libDaisy/src/util/WavWriter.h ****  ** 
   9:../libDaisy/src/util/WavWriter.h ****  ** Record audio into a working buffer that is gradually written to a WAV file on an SD Card. 
  10:../libDaisy/src/util/WavWriter.h ****  **
  11:../libDaisy/src/util/WavWriter.h ****  ** Recordings are made with floating point input, and will be converted to the 
  12:../libDaisy/src/util/WavWriter.h ****  ** specified bits per sample internally 
  13:../libDaisy/src/util/WavWriter.h ****  **
  14:../libDaisy/src/util/WavWriter.h ****  ** For now only 16-bit and 32-bit (signed int) formats are supported
  15:../libDaisy/src/util/WavWriter.h ****  ** f32 and s24 formats will be added next
  16:../libDaisy/src/util/WavWriter.h ****  **
  17:../libDaisy/src/util/WavWriter.h ****  ** The transfer size determines the amount of internal memory used, and can have an
  18:../libDaisy/src/util/WavWriter.h ****  ** effect on the performance of the streaming behavior of the WavWriter.
  19:../libDaisy/src/util/WavWriter.h ****  ** Memory use can be calculated as: (2 * transfer_size) bytes
  20:../libDaisy/src/util/WavWriter.h ****  ** Performance optimal with sizes: 16384, 32768
  21:../libDaisy/src/util/WavWriter.h ****  ** 
  22:../libDaisy/src/util/WavWriter.h ****  ** To use:
  23:../libDaisy/src/util/WavWriter.h ****  ** 1. Create a WavWriter<size> object (e.g. WavWriter<32768> writer)
  24:../libDaisy/src/util/WavWriter.h ****  ** 2. Configure the settings as desired by creating a WavWriter<32768>::Config struct and setting 
  25:../libDaisy/src/util/WavWriter.h ****  ** 3. Initialize the object with the configuration struct.
  26:../libDaisy/src/util/WavWriter.h ****  ** 4. Open a new file for writing with: writer.OpenFile("FileName.wav")
  27:../libDaisy/src/util/WavWriter.h ****  ** 5. Write to it within your audio callback using: writer.Sample(value)
  28:../libDaisy/src/util/WavWriter.h ****  ** 6. Fill the Wav File on the SD Card with data from your main loop by running: writer.Write()
  29:../libDaisy/src/util/WavWriter.h ****  ** 7. When finished with the recording finalize, and close the file with: writer.SaveFile();
  30:../libDaisy/src/util/WavWriter.h ****  ** 
  31:../libDaisy/src/util/WavWriter.h ****  ** */
  32:../libDaisy/src/util/WavWriter.h **** template <size_t transfer_size>
  33:../libDaisy/src/util/WavWriter.h **** class WavWriter
  34:../libDaisy/src/util/WavWriter.h **** {
  35:../libDaisy/src/util/WavWriter.h ****   public:
  36:../libDaisy/src/util/WavWriter.h ****     WavWriter() {}
  37:../libDaisy/src/util/WavWriter.h ****     ~WavWriter() {}
  38:../libDaisy/src/util/WavWriter.h **** 
  39:../libDaisy/src/util/WavWriter.h ****     /** Return values for write related functions */
  40:../libDaisy/src/util/WavWriter.h ****     enum class Result
  41:../libDaisy/src/util/WavWriter.h ****     {
  42:../libDaisy/src/util/WavWriter.h ****         OK,
  43:../libDaisy/src/util/WavWriter.h ****         ERROR,
  44:../libDaisy/src/util/WavWriter.h ****     };
  45:../libDaisy/src/util/WavWriter.h **** 
  46:../libDaisy/src/util/WavWriter.h ****     /** Configuration structure for the wave writer.
  47:../libDaisy/src/util/WavWriter.h **** 	 ** */
  48:../libDaisy/src/util/WavWriter.h ****     struct Config
  49:../libDaisy/src/util/WavWriter.h ****     {
  50:../libDaisy/src/util/WavWriter.h ****         float   samplerate;
  51:../libDaisy/src/util/WavWriter.h ****         int32_t channels;
  52:../libDaisy/src/util/WavWriter.h ****         int32_t bitspersample;
  53:../libDaisy/src/util/WavWriter.h ****     };
ARM GAS  /var/folders/2p/02m_5p7958535cp2tpgps0400000gn/T//ccgOSWw9.s 			page 41


  54:../libDaisy/src/util/WavWriter.h **** 
  55:../libDaisy/src/util/WavWriter.h ****     /** State of the internal Writing mechanism. 
  56:../libDaisy/src/util/WavWriter.h **** 	 ** When the buffer is a certain amount full one section will write its contents
  57:../libDaisy/src/util/WavWriter.h **** 	 ** while the other is still being written to. This is performed circularly
  58:../libDaisy/src/util/WavWriter.h **** 	 ** so that audio will be uninterrupted during writing. */
  59:../libDaisy/src/util/WavWriter.h ****     enum class BufferState
  60:../libDaisy/src/util/WavWriter.h ****     {
  61:../libDaisy/src/util/WavWriter.h ****         IDLE,
  62:../libDaisy/src/util/WavWriter.h ****         FLUSH0,
  63:../libDaisy/src/util/WavWriter.h ****         FLUSH1,
  64:../libDaisy/src/util/WavWriter.h ****     };
  65:../libDaisy/src/util/WavWriter.h **** 
  66:../libDaisy/src/util/WavWriter.h ****     /**  Initializes the WavFile header, and prepares the object for recording. */
  67:../libDaisy/src/util/WavWriter.h ****     void Init(const Config &cfg)
  68:../libDaisy/src/util/WavWriter.h ****     {
  69:../libDaisy/src/util/WavWriter.h ****         cfg_       = cfg;
 1201              		.loc 9 69 9 view .LVU314
 1202 0004 00F58040 		add	r0, r0, #16384
 1203              	.LVL87:
 1204              		.loc 9 69 9 view .LVU315
 1205 0008 9FED2A7A 		vldr.32	s14, .L60
  70:../libDaisy/src/util/WavWriter.h ****         num_samps_ = 0;
 1206              		.loc 9 70 20 view .LVU316
 1207 000c 0021     		movs	r1, #0
 1208              	.LBE461:
 1209              	.LBE460:
 1210              	.LBB490:
 1211              	.LBB458:
  29:AudioFileManager.h ****     uint16_t GetFileCount() const { return file_count_; }
 1212              		.loc 8 29 53 view .LVU317
 1213 000e 03F58053 		add	r3, r3, #4096
 1214              	.LVL88:
  29:AudioFileManager.h ****     uint16_t GetFileCount() const { return file_count_; }
 1215              		.loc 8 29 53 view .LVU318
 1216              	.LBE458:
 1217              	.LBE490:
 1218              	.LBB491:
 1219              	.LBB487:
  69:../libDaisy/src/util/WavWriter.h ****         num_samps_ = 0;
 1220              		.loc 9 69 9 view .LVU319
 1221 0012 00F60872 		addw	r2, r0, #3848
 1222              	.LBE487:
 1223              	.LBE491:
 1224              	.LBB492:
 1225              	.LBB459:
  29:AudioFileManager.h ****     uint16_t GetFileCount() const { return file_count_; }
 1226              		.loc 8 29 53 view .LVU320
 1227 0016 B3F92830 		ldrsh	r3, [r3, #40]
 1228              	.LVL89:
  29:AudioFileManager.h ****     uint16_t GetFileCount() const { return file_count_; }
 1229              		.loc 8 29 53 view .LVU321
 1230              	.LBE459:
 1231              	.LBE492:
 403:GrannyChordApp.cpp ****   cfg.samplerate = SAMPLE_RATE;
 1232              		.loc 3 403 3 is_stmt 1 view .LVU322
 404:GrannyChordApp.cpp ****   sd_writer_.Init(cfg);
 1233              		.loc 3 404 3 view .LVU323
ARM GAS  /var/folders/2p/02m_5p7958535cp2tpgps0400000gn/T//ccgOSWw9.s 			page 42


 1234              	.LBB493:
 1235              	.LBI460:
  67:../libDaisy/src/util/WavWriter.h ****     {
 1236              		.loc 9 67 10 view .LVU324
 1237              	.LBB488:
  69:../libDaisy/src/util/WavWriter.h ****         num_samps_ = 0;
 1238              		.loc 9 69 9 is_stmt 0 view .LVU325
 1239 001a 82ED0D7A 		vstr.32	s14, [r2, #52]
 1240 001e 1022     		movs	r2, #16
 1241              	.LBB462:
 1242              	.LBB463:
  71:../libDaisy/src/util/WavWriter.h ****         // Prep the wav header according to config.
  72:../libDaisy/src/util/WavWriter.h ****         // Certain things (i.e. Size, etc. will have to wait until the finalization of the file, or
  73:../libDaisy/src/util/WavWriter.h ****         wavheader_.ChunkId       = kWavFileChunkId;     /** "RIFF" */
  74:../libDaisy/src/util/WavWriter.h ****         wavheader_.FileFormat    = kWavFileWaveId;      /** "WAVE" */
  75:../libDaisy/src/util/WavWriter.h ****         wavheader_.SubChunk1ID   = kWavFileSubChunk1Id; /** "fmt " */
  76:../libDaisy/src/util/WavWriter.h ****         wavheader_.SubChunk1Size = 16;                  // for PCM
  77:../libDaisy/src/util/WavWriter.h ****         wavheader_.AudioFormat   = WAVE_FORMAT_PCM;
  78:../libDaisy/src/util/WavWriter.h ****         wavheader_.NbrChannels   = cfg.channels;
  79:../libDaisy/src/util/WavWriter.h ****         wavheader_.SampleRate    = static_cast<int>(cfg.samplerate);
  80:../libDaisy/src/util/WavWriter.h ****         wavheader_.ByteRate      = CalcByteRate();
  81:../libDaisy/src/util/WavWriter.h ****         wavheader_.BlockAlign    = cfg_.channels * cfg_.bitspersample / 8;
  82:../libDaisy/src/util/WavWriter.h ****         wavheader_.BitPerSample  = cfg_.bitspersample;
  83:../libDaisy/src/util/WavWriter.h ****         wavheader_.SubChunk2ID   = kWavFileSubChunk2Id; /** "data" */
  84:../libDaisy/src/util/WavWriter.h ****         /** Also calcs SubChunk2Size */
  85:../libDaisy/src/util/WavWriter.h ****         wavheader_.FileSize = CalcFileSize();
  86:../libDaisy/src/util/WavWriter.h ****         // This is calculated as part of the subchunk size
  87:../libDaisy/src/util/WavWriter.h ****     }
  88:../libDaisy/src/util/WavWriter.h **** 
  89:../libDaisy/src/util/WavWriter.h ****     /** Records the current sample into the working buffer,
  90:../libDaisy/src/util/WavWriter.h ****      ** queues writes to media when necessary. 
  91:../libDaisy/src/util/WavWriter.h ****      ** 
  92:../libDaisy/src/util/WavWriter.h ****      ** \param in should be a pointer to an array of samples */
  93:../libDaisy/src/util/WavWriter.h ****     void Sample(const float *in)
  94:../libDaisy/src/util/WavWriter.h ****     {
  95:../libDaisy/src/util/WavWriter.h ****         for(int32_t i = 0; i < cfg_.channels; i++)
  96:../libDaisy/src/util/WavWriter.h ****         {
  97:../libDaisy/src/util/WavWriter.h ****             switch(cfg_.bitspersample)
  98:../libDaisy/src/util/WavWriter.h ****             {
  99:../libDaisy/src/util/WavWriter.h ****                 case 16:
 100:../libDaisy/src/util/WavWriter.h ****                 {
 101:../libDaisy/src/util/WavWriter.h ****                     int16_t *tp;
 102:../libDaisy/src/util/WavWriter.h ****                     tp            = (int16_t *)transfer_buff;
 103:../libDaisy/src/util/WavWriter.h ****                     tp[wptr_ + i] = f2s16(in[i]);
 104:../libDaisy/src/util/WavWriter.h ****                 }
 105:../libDaisy/src/util/WavWriter.h ****                 break;
 106:../libDaisy/src/util/WavWriter.h ****                 case 32: transfer_buff[wptr_ + i] = f2s32(in[i]); break;
 107:../libDaisy/src/util/WavWriter.h ****                 default: break;
 108:../libDaisy/src/util/WavWriter.h ****             }
 109:../libDaisy/src/util/WavWriter.h ****         }
 110:../libDaisy/src/util/WavWriter.h ****         num_samps_++;
 111:../libDaisy/src/util/WavWriter.h ****         wptr_ += cfg_.channels;
 112:../libDaisy/src/util/WavWriter.h ****         size_t cap_point
 113:../libDaisy/src/util/WavWriter.h ****             = cfg_.bitspersample == 16 ? kTransferSamps * 2 : kTransferSamps;
 114:../libDaisy/src/util/WavWriter.h ****         if(wptr_ == cap_point)
 115:../libDaisy/src/util/WavWriter.h ****         {
 116:../libDaisy/src/util/WavWriter.h ****             bstate_ = BufferState::FLUSH0;
ARM GAS  /var/folders/2p/02m_5p7958535cp2tpgps0400000gn/T//ccgOSWw9.s 			page 43


 117:../libDaisy/src/util/WavWriter.h ****         }
 118:../libDaisy/src/util/WavWriter.h ****         if(wptr_ >= cap_point * 2)
 119:../libDaisy/src/util/WavWriter.h ****         {
 120:../libDaisy/src/util/WavWriter.h ****             wptr_   = 0;
 121:../libDaisy/src/util/WavWriter.h ****             bstate_ = BufferState::FLUSH1;
 122:../libDaisy/src/util/WavWriter.h ****         }
 123:../libDaisy/src/util/WavWriter.h ****     }
 124:../libDaisy/src/util/WavWriter.h **** 
 125:../libDaisy/src/util/WavWriter.h ****     /** Check buffer state and write */
 126:../libDaisy/src/util/WavWriter.h ****     void Write()
 127:../libDaisy/src/util/WavWriter.h ****     {
 128:../libDaisy/src/util/WavWriter.h ****         if(bstate_ != BufferState::IDLE && IsRecording())
 129:../libDaisy/src/util/WavWriter.h ****         {
 130:../libDaisy/src/util/WavWriter.h ****             uint32_t     offset;
 131:../libDaisy/src/util/WavWriter.h ****             unsigned int bw = 0;
 132:../libDaisy/src/util/WavWriter.h ****             //offset          = bstate_ == BufferState::FLUSH0 ? 0 : transfer_size;
 133:../libDaisy/src/util/WavWriter.h ****             offset  = bstate_ == BufferState::FLUSH0 ? 0 : kTransferSamps;
 134:../libDaisy/src/util/WavWriter.h ****             bstate_ = BufferState::IDLE;
 135:../libDaisy/src/util/WavWriter.h ****             f_write(&fp_, &transfer_buff[offset], transfer_size, &bw);
 136:../libDaisy/src/util/WavWriter.h ****         }
 137:../libDaisy/src/util/WavWriter.h ****     }
 138:../libDaisy/src/util/WavWriter.h **** 
 139:../libDaisy/src/util/WavWriter.h ****     /** Finalizes the writing of the WAV file.
 140:../libDaisy/src/util/WavWriter.h **** 	 ** This overwrites the WAV Header with the correct
 141:../libDaisy/src/util/WavWriter.h **** 	 ** final size, and closes the fptr. */
 142:../libDaisy/src/util/WavWriter.h ****     void SaveFile()
 143:../libDaisy/src/util/WavWriter.h ****     {
 144:../libDaisy/src/util/WavWriter.h ****         unsigned int bw = 0;
 145:../libDaisy/src/util/WavWriter.h ****         recording_      = false;
 146:../libDaisy/src/util/WavWriter.h ****         // We _should_ flush whatever's left in the transfer buff
 147:../libDaisy/src/util/WavWriter.h ****         // TODO: that.
 148:../libDaisy/src/util/WavWriter.h ****         wavheader_.FileSize = CalcFileSize();
 149:../libDaisy/src/util/WavWriter.h ****         f_lseek(&fp_, 0);
 150:../libDaisy/src/util/WavWriter.h ****         f_write(&fp_, &wavheader_, sizeof(wavheader_), &bw);
 151:../libDaisy/src/util/WavWriter.h ****         f_close(&fp_);
 152:../libDaisy/src/util/WavWriter.h ****     }
 153:../libDaisy/src/util/WavWriter.h **** 
 154:../libDaisy/src/util/WavWriter.h ****     /** Opens a file for writing. Writes the initial WAV Header, and gets ready for stream-based re
 155:../libDaisy/src/util/WavWriter.h ****     void OpenFile(const char *name)
 156:../libDaisy/src/util/WavWriter.h ****     {
 157:../libDaisy/src/util/WavWriter.h ****         if(f_open(&fp_, name, FA_WRITE | FA_CREATE_ALWAYS) == FR_OK)
 158:../libDaisy/src/util/WavWriter.h ****         {
 159:../libDaisy/src/util/WavWriter.h ****             unsigned int bw = 0;
 160:../libDaisy/src/util/WavWriter.h ****             if(f_write(&fp_, &wavheader_, sizeof(wavheader_), &bw) == FR_OK)
 161:../libDaisy/src/util/WavWriter.h ****             {
 162:../libDaisy/src/util/WavWriter.h ****                 recording_ = true;
 163:../libDaisy/src/util/WavWriter.h ****                 num_samps_ = 0;
 164:../libDaisy/src/util/WavWriter.h ****             }
 165:../libDaisy/src/util/WavWriter.h ****         }
 166:../libDaisy/src/util/WavWriter.h ****     }
 167:../libDaisy/src/util/WavWriter.h **** 
 168:../libDaisy/src/util/WavWriter.h ****     /** Returns whether recording is currently active or not. */
 169:../libDaisy/src/util/WavWriter.h ****     inline bool IsRecording() const { return recording_; }
 170:../libDaisy/src/util/WavWriter.h **** 
 171:../libDaisy/src/util/WavWriter.h ****     /** Returns the current length in samples of the recording. */
 172:../libDaisy/src/util/WavWriter.h ****     inline uint32_t GetLengthSamps() { return num_samps_; }
 173:../libDaisy/src/util/WavWriter.h **** 
ARM GAS  /var/folders/2p/02m_5p7958535cp2tpgps0400000gn/T//ccgOSWw9.s 			page 44


 174:../libDaisy/src/util/WavWriter.h ****     /** Returns the current length of the recording in seconds. */
 175:../libDaisy/src/util/WavWriter.h ****     inline float GetLengthSeconds()
 176:../libDaisy/src/util/WavWriter.h ****     {
 177:../libDaisy/src/util/WavWriter.h ****         return (float)num_samps_ / (float)cfg_.samplerate;
 178:../libDaisy/src/util/WavWriter.h ****     }
 179:../libDaisy/src/util/WavWriter.h **** 
 180:../libDaisy/src/util/WavWriter.h ****   private:
 181:../libDaisy/src/util/WavWriter.h ****     /** Calculate the file size based on current recording */
 182:../libDaisy/src/util/WavWriter.h ****     inline uint32_t CalcFileSize()
 183:../libDaisy/src/util/WavWriter.h ****     {
 184:../libDaisy/src/util/WavWriter.h ****         wavheader_.SubCHunk2Size
 185:../libDaisy/src/util/WavWriter.h ****             = num_samps_ * cfg_.channels * cfg_.bitspersample / 8;
 186:../libDaisy/src/util/WavWriter.h ****         return 36 + wavheader_.SubCHunk2Size;
 187:../libDaisy/src/util/WavWriter.h ****     }
 188:../libDaisy/src/util/WavWriter.h **** 
 189:../libDaisy/src/util/WavWriter.h ****     /** Compute the byte rate given the user settings. */
 190:../libDaisy/src/util/WavWriter.h ****     inline uint32_t CalcByteRate()
 191:../libDaisy/src/util/WavWriter.h ****     {
 192:../libDaisy/src/util/WavWriter.h ****         return cfg_.samplerate * cfg_.channels * cfg_.bitspersample / 8;
 1243              		.loc 9 192 32 view .LVU326
 1244 0020 07EE903A 		vmov	s15, r3	@ int
 1245              	.LBE463:
 1246              	.LBE462:
 1247              	.LBE488:
 1248              	.LBE493:
 402:GrannyChordApp.cpp ****   cfg.samplerate = SAMPLE_RATE;
 1249              		.loc 3 402 41 view .LVU327
 1250 0024 C0F8403F 		str	r3, [r0, #3904]
 1251              	.LBB494:
 1252              	.LBB489:
  78:../libDaisy/src/util/WavWriter.h ****         wavheader_.SampleRate    = static_cast<int>(cfg.samplerate);
 1253              		.loc 9 78 34 view .LVU328
 1254 0028 A0F81E3F 		strh	r3, [r0, #3870]	@ movhi
  81:../libDaisy/src/util/WavWriter.h ****         wavheader_.BitPerSample  = cfg_.bitspersample;
 1255              		.loc 9 81 71 view .LVU329
 1256 002c 1B01     		lsls	r3, r3, #4
 1257              	.LVL90:
 1258              	.LBB473:
 1259              	.LBB464:
 1260              		.loc 9 192 32 view .LVU330
 1261 002e F8EEE77A 		vcvt.f32.s32	s15, s15
 1262              	.LBE464:
 1263              	.LBE473:
  70:../libDaisy/src/util/WavWriter.h ****         // Prep the wav header according to config.
 1264              		.loc 9 70 20 view .LVU331
 1265 0032 C0F8341F 		str	r1, [r0, #3892]
  81:../libDaisy/src/util/WavWriter.h ****         wavheader_.BitPerSample  = cfg_.bitspersample;
 1266              		.loc 9 81 71 view .LVU332
 1267 0036 48BF     		it	mi
 1268 0038 0733     		addmi	r3, r3, #7
  73:../libDaisy/src/util/WavWriter.h ****         wavheader_.FileFormat    = kWavFileWaveId;      /** "WAVE" */
 1269              		.loc 9 73 34 view .LVU333
 1270 003a 1F49     		ldr	r1, .L60+4
  69:../libDaisy/src/util/WavWriter.h ****         num_samps_ = 0;
 1271              		.loc 9 69 9 view .LVU334
 1272 003c C0F8442F 		str	r2, [r0, #3908]
 1273              	.LBB474:
ARM GAS  /var/folders/2p/02m_5p7958535cp2tpgps0400000gn/T//ccgOSWw9.s 			page 45


 1274              	.LBB465:
 1275              		.loc 9 192 32 view .LVU335
 1276 0040 67EE877A 		vmul.f32	s15, s15, s14
 1277              	.LBE465:
 1278              	.LBE474:
  81:../libDaisy/src/util/WavWriter.h ****         wavheader_.BitPerSample  = cfg_.bitspersample;
 1279              		.loc 9 81 71 view .LVU336
 1280 0044 DB10     		asrs	r3, r3, #3
 1281              	.LBB475:
 1282              	.LBB466:
 1283              		.loc 9 192 48 view .LVU337
 1284 0046 B3EE007A 		vmov.f32	s14, #1.6e+1
 1285              	.LBE466:
 1286              	.LBE475:
  73:../libDaisy/src/util/WavWriter.h ****         wavheader_.FileFormat    = kWavFileWaveId;      /** "WAVE" */
 1287              		.loc 9 73 34 view .LVU338
 1288 004a C0F8081F 		str	r1, [r0, #3848]
  74:../libDaisy/src/util/WavWriter.h ****         wavheader_.SubChunk1ID   = kWavFileSubChunk1Id; /** "fmt " */
 1289              		.loc 9 74 34 view .LVU339
 1290 004e A1F57001 		sub	r1, r1, #15728640
  81:../libDaisy/src/util/WavWriter.h ****         wavheader_.BitPerSample  = cfg_.bitspersample;
 1291              		.loc 9 81 34 view .LVU340
 1292 0052 A0F8283F 		strh	r3, [r0, #3880]	@ movhi
  82:../libDaisy/src/util/WavWriter.h ****         wavheader_.SubChunk2ID   = kWavFileSubChunk2Id; /** "data" */
 1293              		.loc 9 82 34 view .LVU341
 1294 0056 1023     		movs	r3, #16
  76:../libDaisy/src/util/WavWriter.h ****         wavheader_.AudioFormat   = WAVE_FORMAT_PCM;
 1295              		.loc 9 76 34 view .LVU342
 1296 0058 C0F8182F 		str	r2, [r0, #3864]
 1297              	.LBB476:
 1298              	.LBB467:
 1299              		.loc 9 192 48 view .LVU343
 1300 005c 67EE877A 		vmul.f32	s15, s15, s14
 1301              	.LBE467:
 1302              	.LBE476:
  74:../libDaisy/src/util/WavWriter.h ****         wavheader_.SubChunk1ID   = kWavFileSubChunk1Id; /** "fmt " */
 1303              		.loc 9 74 34 view .LVU344
 1304 0060 A1F2FB71 		subw	r1, r1, #2043
 1305              	.LBB477:
 1306              	.LBB468:
 1307              		.loc 9 192 69 view .LVU345
 1308 0064 B4EE007A 		vmov.f32	s14, #1.25e-1
 1309              	.LBE468:
 1310              	.LBE477:
  77:../libDaisy/src/util/WavWriter.h ****         wavheader_.NbrChannels   = cfg.channels;
 1311              		.loc 9 77 34 view .LVU346
 1312 0068 0122     		movs	r2, #1
  74:../libDaisy/src/util/WavWriter.h ****         wavheader_.SubChunk1ID   = kWavFileSubChunk1Id; /** "fmt " */
 1313              		.loc 9 74 34 view .LVU347
 1314 006a C0F8101F 		str	r1, [r0, #3856]
  75:../libDaisy/src/util/WavWriter.h ****         wavheader_.SubChunk1Size = 16;                  // for PCM
 1315              		.loc 9 75 34 view .LVU348
 1316 006e 01F15B41 		add	r1, r1, #-620756992
  82:../libDaisy/src/util/WavWriter.h ****         wavheader_.SubChunk2ID   = kWavFileSubChunk2Id; /** "data" */
 1317              		.loc 9 82 34 view .LVU349
 1318 0072 A0F82A3F 		strh	r3, [r0, #3882]	@ movhi
 1319              	.LBB478:
ARM GAS  /var/folders/2p/02m_5p7958535cp2tpgps0400000gn/T//ccgOSWw9.s 			page 46


 1320              	.LBB469:
 1321              		.loc 9 192 69 view .LVU350
 1322 0076 67EE877A 		vmul.f32	s15, s15, s14
 1323              	.LBE469:
 1324              	.LBE478:
  83:../libDaisy/src/util/WavWriter.h ****         /** Also calcs SubChunk2Size */
 1325              		.loc 9 83 34 view .LVU351
 1326 007a 104B     		ldr	r3, .L60+8
  75:../libDaisy/src/util/WavWriter.h ****         wavheader_.SubChunk1Size = 16;                  // for PCM
 1327              		.loc 9 75 34 view .LVU352
 1328 007c 01F5F111 		add	r1, r1, #1974272
  77:../libDaisy/src/util/WavWriter.h ****         wavheader_.NbrChannels   = cfg.channels;
 1329              		.loc 9 77 34 view .LVU353
 1330 0080 A0F81C2F 		strh	r2, [r0, #3868]	@ movhi
  83:../libDaisy/src/util/WavWriter.h ****         /** Also calcs SubChunk2Size */
 1331              		.loc 9 83 34 view .LVU354
 1332 0084 C0F82C3F 		str	r3, [r0, #3884]
  79:../libDaisy/src/util/WavWriter.h ****         wavheader_.ByteRate      = CalcByteRate();
 1333              		.loc 9 79 34 view .LVU355
 1334 0088 4BF68032 		movw	r2, #48000
 1335              	.LBB479:
 1336              	.LBB470:
 1337              		.loc 9 192 71 view .LVU356
 1338 008c FCEEE77A 		vcvt.u32.f32	s15, s15
 1339              	.LBE470:
 1340              	.LBE479:
 1341              	.LBB480:
 1342              	.LBB481:
 185:../libDaisy/src/util/WavWriter.h ****         return 36 + wavheader_.SubCHunk2Size;
 1343              		.loc 9 185 13 view .LVU357
 1344 0090 0023     		movs	r3, #0
 1345              	.LBE481:
 1346              	.LBE480:
  75:../libDaisy/src/util/WavWriter.h ****         wavheader_.SubChunk1Size = 16;                  // for PCM
 1347              		.loc 9 75 34 view .LVU358
 1348 0092 01F60F41 		addw	r1, r1, #3087
  79:../libDaisy/src/util/WavWriter.h ****         wavheader_.ByteRate      = CalcByteRate();
 1349              		.loc 9 79 34 view .LVU359
 1350 0096 C0F8202F 		str	r2, [r0, #3872]
 1351              	.LVL91:
 1352              	.LBB483:
 1353              	.LBI462:
 190:../libDaisy/src/util/WavWriter.h ****     {
 1354              		.loc 9 190 21 is_stmt 1 view .LVU360
 190:../libDaisy/src/util/WavWriter.h ****     {
 1355              		.loc 9 190 21 is_stmt 0 view .LVU361
 1356              	.LBE483:
 1357              	.LBB484:
 1358              	.LBI480:
 182:../libDaisy/src/util/WavWriter.h ****     {
 1359              		.loc 9 182 21 is_stmt 1 view .LVU362
 1360              	.LBB482:
 185:../libDaisy/src/util/WavWriter.h ****         return 36 + wavheader_.SubCHunk2Size;
 1361              		.loc 9 185 13 is_stmt 0 view .LVU363
 1362 009a C0F8303F 		str	r3, [r0, #3888]
 185:../libDaisy/src/util/WavWriter.h ****         return 36 + wavheader_.SubCHunk2Size;
 1363              		.loc 9 185 13 view .LVU364
ARM GAS  /var/folders/2p/02m_5p7958535cp2tpgps0400000gn/T//ccgOSWw9.s 			page 47


 1364              	.LBE482:
 1365              	.LBE484:
  85:../libDaisy/src/util/WavWriter.h ****         // This is calculated as part of the subchunk size
 1366              		.loc 9 85 29 view .LVU365
 1367 009e 2423     		movs	r3, #36
 1368              	.LBB485:
 1369              	.LBB471:
 1370              		.loc 9 192 71 view .LVU366
 1371 00a0 17EE902A 		vmov	r2, s15	@ int
 1372              	.LBE471:
 1373              	.LBE485:
  75:../libDaisy/src/util/WavWriter.h ****         wavheader_.SubChunk1Size = 16;                  // for PCM
 1374              		.loc 9 75 34 view .LVU367
 1375 00a4 C0F8141F 		str	r1, [r0, #3860]
  85:../libDaisy/src/util/WavWriter.h ****         // This is calculated as part of the subchunk size
 1376              		.loc 9 85 29 view .LVU368
 1377 00a8 C0F80C3F 		str	r3, [r0, #3852]
 1378              	.LVL92:
 1379              	.LBB486:
 1380              	.LBB472:
 1381              		.loc 9 192 71 view .LVU369
 1382 00ac C0F8242F 		str	r2, [r0, #3876]
 1383              	.LBE472:
 1384              	.LBE486:
 1385              	.LBE489:
 1386              	.LBE494:
 405:GrannyChordApp.cpp **** }
 1387              		.loc 3 405 1 view .LVU370
 1388 00b0 7047     		bx	lr
 1389              	.L61:
 1390 00b2 00BF     		.align	2
 1391              	.L60:
 1392 00b4 00803B47 		.word	1195081728
 1393 00b8 52494646 		.word	1179011410
 1394 00bc 64617461 		.word	1635017060
 1395              		.cfi_endproc
 1396              	.LFE4924:
 1398              		.section	.text._ZN14GrannyChordApp6InitFXEv,"ax",%progbits
 1399              		.align	1
 1400              		.global	_ZN14GrannyChordApp6InitFXEv
 1401              		.syntax unified
 1402              		.thumb
 1403              		.thumb_func
 1405              	_ZN14GrannyChordApp6InitFXEv:
 1406              	.LVL93:
 1407              	.LFB4925:
 406:GrannyChordApp.cpp **** 
 407:GrannyChordApp.cpp **** /// @brief initialise reverb, compressor, filter configs for FX section 
 408:GrannyChordApp.cpp **** void GrannyChordApp::InitFX(){
 1408              		.loc 3 408 30 is_stmt 1 view -0
 1409              		.cfi_startproc
 1410              		@ args = 0, pretend = 0, frame = 8
 1411              		@ frame_needed = 0, uses_anonymous_args = 0
 409:GrannyChordApp.cpp ****   comp_.Init(SAMPLE_RATE_FLOAT);
 1412              		.loc 3 409 3 view .LVU372
 408:GrannyChordApp.cpp ****   comp_.Init(SAMPLE_RATE_FLOAT);
 1413              		.loc 3 408 30 is_stmt 0 view .LVU373
ARM GAS  /var/folders/2p/02m_5p7958535cp2tpgps0400000gn/T//ccgOSWw9.s 			page 48


 1414 0000 37B5     		push	{r0, r1, r2, r4, r5, lr}
 1415              		.cfi_def_cfa_offset 24
 1416              		.cfi_offset 4, -12
 1417              		.cfi_offset 5, -8
 1418              		.cfi_offset 14, -4
 1419              		.loc 3 409 13 view .LVU374
 1420 0002 9FED210A 		vldr.32	s0, .L63
 408:GrannyChordApp.cpp ****   comp_.Init(SAMPLE_RATE_FLOAT);
 1421              		.loc 3 408 30 view .LVU375
 1422 0006 0446     		mov	r4, r0
 1423              		.loc 3 409 13 view .LVU376
 1424 0008 00F5F470 		add	r0, r0, #488
 1425              	.LVL94:
 1426              		.loc 3 409 13 view .LVU377
 1427 000c 8DED010A 		vstr.32	s0, [sp, #4]	@ int
 1428 0010 FFF7FEFF 		bl	_ZN7daisysp10Compressor4InitEf
 1429              	.LVL95:
 410:GrannyChordApp.cpp ****   limiter_.Init();
 1430              		.loc 3 410 3 is_stmt 1 view .LVU378
 1431              		.loc 3 410 16 is_stmt 0 view .LVU379
 1432 0014 04F50A70 		add	r0, r4, #552
 1433              	.LBB495:
 1434              	.LBB496:
 1435              		.file 10 "../DaisySP/Source/../DaisySP-LGPL/Source/Filters/moogladder.h"
   1:../DaisySP/Source/../DaisySP-LGPL/Source/Filters/moogladder.h **** /*
   2:../DaisySP/Source/../DaisySP-LGPL/Source/Filters/moogladder.h **** Copyright (c) 2023 Electrosmith, Corp, Victor Lazzarini, John ffitch (fast tanh), Bob Moog
   3:../DaisySP/Source/../DaisySP-LGPL/Source/Filters/moogladder.h **** 
   4:../DaisySP/Source/../DaisySP-LGPL/Source/Filters/moogladder.h **** Use of this source code is governed by the LGPL V2.1
   5:../DaisySP/Source/../DaisySP-LGPL/Source/Filters/moogladder.h **** license that can be found in the LICENSE file or at
   6:../DaisySP/Source/../DaisySP-LGPL/Source/Filters/moogladder.h **** https://opensource.org/license/lgpl-2-1/
   7:../DaisySP/Source/../DaisySP-LGPL/Source/Filters/moogladder.h **** */
   8:../DaisySP/Source/../DaisySP-LGPL/Source/Filters/moogladder.h **** 
   9:../DaisySP/Source/../DaisySP-LGPL/Source/Filters/moogladder.h **** #pragma once
  10:../DaisySP/Source/../DaisySP-LGPL/Source/Filters/moogladder.h **** #ifndef DSY_MOOGLADDER_H
  11:../DaisySP/Source/../DaisySP-LGPL/Source/Filters/moogladder.h **** #define DSY_MOOGLADDER_H
  12:../DaisySP/Source/../DaisySP-LGPL/Source/Filters/moogladder.h **** 
  13:../DaisySP/Source/../DaisySP-LGPL/Source/Filters/moogladder.h **** #include <stdint.h>
  14:../DaisySP/Source/../DaisySP-LGPL/Source/Filters/moogladder.h **** #ifdef __cplusplus
  15:../DaisySP/Source/../DaisySP-LGPL/Source/Filters/moogladder.h **** 
  16:../DaisySP/Source/../DaisySP-LGPL/Source/Filters/moogladder.h **** namespace daisysp
  17:../DaisySP/Source/../DaisySP-LGPL/Source/Filters/moogladder.h **** {
  18:../DaisySP/Source/../DaisySP-LGPL/Source/Filters/moogladder.h **** /** Moog ladder filter module*/
  19:../DaisySP/Source/../DaisySP-LGPL/Source/Filters/moogladder.h **** class MoogLadder
  20:../DaisySP/Source/../DaisySP-LGPL/Source/Filters/moogladder.h **** {
  21:../DaisySP/Source/../DaisySP-LGPL/Source/Filters/moogladder.h ****   public:
  22:../DaisySP/Source/../DaisySP-LGPL/Source/Filters/moogladder.h ****     MoogLadder() {}
  23:../DaisySP/Source/../DaisySP-LGPL/Source/Filters/moogladder.h ****     ~MoogLadder() {}
  24:../DaisySP/Source/../DaisySP-LGPL/Source/Filters/moogladder.h ****     /** Initializes the MoogLadder module.
  25:../DaisySP/Source/../DaisySP-LGPL/Source/Filters/moogladder.h ****         sample_rate - The sample rate of the audio engine being run. 
  26:../DaisySP/Source/../DaisySP-LGPL/Source/Filters/moogladder.h ****     */
  27:../DaisySP/Source/../DaisySP-LGPL/Source/Filters/moogladder.h ****     void Init(float sample_rate);
  28:../DaisySP/Source/../DaisySP-LGPL/Source/Filters/moogladder.h **** 
  29:../DaisySP/Source/../DaisySP-LGPL/Source/Filters/moogladder.h **** 
  30:../DaisySP/Source/../DaisySP-LGPL/Source/Filters/moogladder.h ****     /** Processes the lowpass filter
  31:../DaisySP/Source/../DaisySP-LGPL/Source/Filters/moogladder.h ****     */
  32:../DaisySP/Source/../DaisySP-LGPL/Source/Filters/moogladder.h ****     float Process(float in);
  33:../DaisySP/Source/../DaisySP-LGPL/Source/Filters/moogladder.h **** 
ARM GAS  /var/folders/2p/02m_5p7958535cp2tpgps0400000gn/T//ccgOSWw9.s 			page 49


  34:../DaisySP/Source/../DaisySP-LGPL/Source/Filters/moogladder.h ****     /** 
  35:../DaisySP/Source/../DaisySP-LGPL/Source/Filters/moogladder.h ****         Sets the cutoff frequency or half-way point of the filter.
  36:../DaisySP/Source/../DaisySP-LGPL/Source/Filters/moogladder.h ****         Arguments
  37:../DaisySP/Source/../DaisySP-LGPL/Source/Filters/moogladder.h ****         - freq - frequency value in Hz. Range: Any positive value.
  38:../DaisySP/Source/../DaisySP-LGPL/Source/Filters/moogladder.h ****     */
  39:../DaisySP/Source/../DaisySP-LGPL/Source/Filters/moogladder.h ****     inline void SetFreq(float freq) { freq_ = freq; }
 1436              		.loc 10 39 45 view .LVU380
 1437 0018 04F58045 		add	r5, r4, #16384
 1438              	.LBE496:
 1439              	.LBE495:
 1440              		.loc 3 410 16 view .LVU381
 1441 001c FFF7FEFF 		bl	_ZN7daisysp7Limiter4InitEv
 1442              	.LVL96:
 411:GrannyChordApp.cpp ****   
 412:GrannyChordApp.cpp ****   chorus_.Init(SAMPLE_RATE_FLOAT);
 1443              		.loc 3 412 3 is_stmt 1 view .LVU382
 1444              		.loc 3 412 15 is_stmt 0 view .LVU383
 1445 0020 9DED010A 		vldr.32	s0, [sp, #4]	@ int
 1446 0024 04F50C70 		add	r0, r4, #560
 1447 0028 FFF7FEFF 		bl	_ZN7daisysp6Chorus4InitEf
 1448              	.LVL97:
 413:GrannyChordApp.cpp ****   reverb_.Init(SAMPLE_RATE_FLOAT);
 1449              		.loc 3 413 3 is_stmt 1 view .LVU384
 1450              		.loc 3 413 15 is_stmt 0 view .LVU385
 1451 002c 9DED010A 		vldr.32	s0, [sp, #4]	@ int
 1452 0030 D4F82C02 		ldr	r0, [r4, #556]
 1453 0034 FFF7FEFF 		bl	_ZN7daisysp8ReverbSc4InitEf
 1454              	.LVL98:
 414:GrannyChordApp.cpp ****   
 415:GrannyChordApp.cpp ****   lowpass_moog_.Init(SAMPLE_RATE_FLOAT);
 1455              		.loc 3 415 3 is_stmt 1 view .LVU386
 1456              		.loc 3 415 21 is_stmt 0 view .LVU387
 1457 0038 04F59B40 		add	r0, r4, #19840
 1458 003c 9DED010A 		vldr.32	s0, [sp, #4]	@ int
 1459 0040 0C30     		adds	r0, r0, #12
 1460 0042 FFF7FEFF 		bl	_ZN7daisysp10MoogLadder4InitEf
 1461              	.LVL99:
 416:GrannyChordApp.cpp ****   lowpass_moog_.SetFreq(LOPASS_UPPER_BOUND);
 1462              		.loc 3 416 3 is_stmt 1 view .LVU388
 1463              	.LBB499:
 1464              	.LBI495:
 1465              		.loc 10 39 17 view .LVU389
 1466              	.LBB497:
 1467              		.loc 10 39 39 view .LVU390
 1468              		.loc 10 39 45 is_stmt 0 view .LVU391
 1469 0046 05F68C53 		addw	r3, r5, #3468
 1470 004a 104A     		ldr	r2, .L63+4
 1471              	.LBE497:
 1472              	.LBE499:
 417:GrannyChordApp.cpp ****   lowpass_moog_.SetRes(0.7f);
 418:GrannyChordApp.cpp ****   
 419:GrannyChordApp.cpp ****   hipass_.Init();
 420:GrannyChordApp.cpp ****   hipass_.SetFilterMode(daisysp::OnePole::FilterMode::FILTER_MODE_HIGH_PASS);
 421:GrannyChordApp.cpp ****   hipass_.SetFrequency(HIPASS_LOWER_BOUND);
 1473              		.loc 3 421 23 view .LVU392
 1474 004c 04F59B40 		add	r0, r4, #19840
 1475 0050 9FED0F0A 		vldr.32	s0, .L63+8
ARM GAS  /var/folders/2p/02m_5p7958535cp2tpgps0400000gn/T//ccgOSWw9.s 			page 50


 1476              	.LBB500:
 1477              	.LBB498:
 1478              		.loc 10 39 45 view .LVU393
 1479 0054 9A60     		str	r2, [r3, #8]	@ float
 1480              	.LVL100:
 1481              		.loc 10 39 45 view .LVU394
 1482              	.LBE498:
 1483              	.LBE500:
 417:GrannyChordApp.cpp ****   lowpass_moog_.SetRes(0.7f);
 1484              		.loc 3 417 3 is_stmt 1 view .LVU395
 1485              	.LBB501:
 1486              	.LBI501:
  40:../DaisySP/Source/../DaisySP-LGPL/Source/Filters/moogladder.h ****     /** 
  41:../DaisySP/Source/../DaisySP-LGPL/Source/Filters/moogladder.h ****         Sets the resonance of the filter.
  42:../DaisySP/Source/../DaisySP-LGPL/Source/Filters/moogladder.h ****     */
  43:../DaisySP/Source/../DaisySP-LGPL/Source/Filters/moogladder.h ****     inline void SetRes(float res) { res_ = res; }
 1487              		.loc 10 43 17 view .LVU396
 1488              	.LBB502:
 1489              		.loc 10 43 37 view .LVU397
 1490              	.LBE502:
 1491              	.LBE501:
 1492              		.loc 3 421 23 is_stmt 0 view .LVU398
 1493 0056 5030     		adds	r0, r0, #80
 1494              	.LBB504:
 1495              	.LBB503:
 1496              		.loc 10 43 42 view .LVU399
 1497 0058 0E4A     		ldr	r2, .L63+12
 1498 005a 5A60     		str	r2, [r3, #4]	@ float
 1499              	.LVL101:
 1500              		.loc 10 43 42 view .LVU400
 1501              	.LBE503:
 1502              	.LBE504:
 419:GrannyChordApp.cpp ****   hipass_.SetFilterMode(daisysp::OnePole::FilterMode::FILTER_MODE_HIGH_PASS);
 1503              		.loc 3 419 3 is_stmt 1 view .LVU401
 1504              	.LBB505:
 1505              	.LBI505:
  44:../DaisySP/Source/Filters/onepole.h ****     {
 1506              		.loc 2 44 10 view .LVU402
 1507              	.LBE505:
  46:../DaisySP/Source/Filters/onepole.h ****         mode_ = FILTER_MODE_LOW_PASS;
 1508              		.loc 2 46 9 view .LVU403
 1509              	.LBB508:
 1510              	.LBB506:
 1511              	.LBI506:
  51:../DaisySP/Source/Filters/onepole.h **** 
 1512              		.loc 2 51 17 view .LVU404
 1513              	.LBB507:
  51:../DaisySP/Source/Filters/onepole.h **** 
 1514              		.loc 2 51 27 view .LVU405
  51:../DaisySP/Source/Filters/onepole.h **** 
 1515              		.loc 2 51 34 is_stmt 0 view .LVU406
 1516 005c 0022     		movs	r2, #0
 1517 005e 05F55D63 		add	r3, r5, #3536
 1518 0062 9A60     		str	r2, [r3, #8]	@ float
 1519              	.LVL102:
  51:../DaisySP/Source/Filters/onepole.h **** 
 1520              		.loc 2 51 34 view .LVU407
ARM GAS  /var/folders/2p/02m_5p7958535cp2tpgps0400000gn/T//ccgOSWw9.s 			page 51


 1521              	.LBE507:
 1522              	.LBE506:
 1523              	.LBE508:
  47:../DaisySP/Source/Filters/onepole.h ****     }
 1524              		.loc 2 47 9 is_stmt 1 view .LVU408
 420:GrannyChordApp.cpp ****   hipass_.SetFrequency(HIPASS_LOWER_BOUND);
 1525              		.loc 3 420 3 view .LVU409
 1526              	.LBB509:
 1527              	.LBI509:
  68:../DaisySP/Source/Filters/onepole.h **** 
 1528              		.loc 2 68 17 view .LVU410
 1529              	.LBB510:
  68:../DaisySP/Source/Filters/onepole.h **** 
 1530              		.loc 2 68 50 view .LVU411
  68:../DaisySP/Source/Filters/onepole.h **** 
 1531              		.loc 2 68 56 is_stmt 0 view .LVU412
 1532 0064 0123     		movs	r3, #1
 1533 0066 85F8DC3D 		strb	r3, [r5, #3548]
 1534              	.LVL103:
  68:../DaisySP/Source/Filters/onepole.h **** 
 1535              		.loc 2 68 56 view .LVU413
 1536              	.LBE510:
 1537              	.LBE509:
 1538              		.loc 3 421 3 is_stmt 1 view .LVU414
 1539              		.loc 3 421 23 is_stmt 0 view .LVU415
 1540 006a FFF7FEFF 		bl	_ZN7daisysp7OnePole12SetFrequencyEf
 1541              	.LVL104:
 422:GrannyChordApp.cpp **** 
 423:GrannyChordApp.cpp ****   hicut_.SetFilterMode(daisysp::OnePole::FilterMode::FILTER_MODE_LOW_PASS);
 1542              		.loc 3 423 3 is_stmt 1 view .LVU416
 1543              	.LBB511:
 1544              	.LBI511:
  68:../DaisySP/Source/Filters/onepole.h **** 
 1545              		.loc 2 68 17 view .LVU417
 1546              	.LBB512:
  68:../DaisySP/Source/Filters/onepole.h **** 
 1547              		.loc 2 68 50 view .LVU418
 1548              	.LBE512:
 1549              	.LBE511:
 424:GrannyChordApp.cpp ****   hicut_.SetFrequency(HICUT_FREQ);
 1550              		.loc 3 424 22 is_stmt 0 view .LVU419
 1551 006e 04F59B40 		add	r0, r4, #19840
 1552              	.LBB515:
 1553              	.LBB513:
  68:../DaisySP/Source/Filters/onepole.h **** 
 1554              		.loc 2 68 56 view .LVU420
 1555 0072 0023     		movs	r3, #0
 1556              	.LBE513:
 1557              	.LBE515:
 1558              		.loc 3 424 22 view .LVU421
 1559 0074 B5EE060A 		vmov.f32	s0, #3.4375e-1
 1560 0078 6030     		adds	r0, r0, #96
 1561              	.LBB516:
 1562              	.LBB514:
  68:../DaisySP/Source/Filters/onepole.h **** 
 1563              		.loc 2 68 56 view .LVU422
 1564 007a 85F8EC3D 		strb	r3, [r5, #3564]
ARM GAS  /var/folders/2p/02m_5p7958535cp2tpgps0400000gn/T//ccgOSWw9.s 			page 52


 1565              	.LVL105:
  68:../DaisySP/Source/Filters/onepole.h **** 
 1566              		.loc 2 68 56 view .LVU423
 1567              	.LBE514:
 1568              	.LBE516:
 1569              		.loc 3 424 3 is_stmt 1 view .LVU424
 1570              		.loc 3 424 22 is_stmt 0 view .LVU425
 1571 007e FFF7FEFF 		bl	_ZN7daisysp7OnePole12SetFrequencyEf
 1572              	.LVL106:
 425:GrannyChordApp.cpp **** }
 1573              		.loc 3 425 1 view .LVU426
 1574 0082 03B0     		add	sp, sp, #12
 1575              		.cfi_def_cfa_offset 12
 1576              		@ sp needed
 1577 0084 30BD     		pop	{r4, r5, pc}
 1578              	.LVL107:
 1579              	.L64:
 1580              		.loc 3 425 1 view .LVU427
 1581 0086 00BF     		.align	2
 1582              	.L63:
 1583 0088 00803B47 		.word	1195081728
 1584 008c 00A08C46 		.word	1183621120
 1585 0090 17B7D139 		.word	970045207
 1586 0094 3333333F 		.word	1060320051
 1587              		.cfi_endproc
 1588              	.LFE4925:
 1590              		.section	.text._ZN14GrannyChordApp17InitPrevParamValsEv,"ax",%progbits
 1591              		.align	1
 1592              		.global	_ZN14GrannyChordApp17InitPrevParamValsEv
 1593              		.syntax unified
 1594              		.thumb
 1595              		.thumb_func
 1597              	_ZN14GrannyChordApp17InitPrevParamValsEv:
 1598              	.LVL108:
 1599              	.LFB4926:
 426:GrannyChordApp.cpp **** 
 427:GrannyChordApp.cpp **** /// @brief Initialise previous parameter value arrays to defaults
 428:GrannyChordApp.cpp **** void GrannyChordApp::InitPrevParamVals(){
 1600              		.loc 3 428 41 is_stmt 1 view -0
 1601              		.cfi_startproc
 1602              		@ args = 0, pretend = 0, frame = 0
 1603              		@ frame_needed = 0, uses_anonymous_args = 0
 1604              		@ link register save eliminated.
 429:GrannyChordApp.cpp ****   for (int i=0; i < NUM_SYNTH_MODES;i++){
 1605              		.loc 3 429 3 view .LVU429
 1606              	.LBB517:
 1607              		.loc 3 429 19 view .LVU430
 1608 0000 00F59D43 		add	r3, r0, #20096
 1609 0004 00F59D40 		add	r0, r0, #20096
 1610              	.LVL109:
 1611              		.loc 3 429 19 is_stmt 0 view .LVU431
 1612 0008 0433     		adds	r3, r3, #4
 1613 000a 2430     		adds	r0, r0, #36
 1614              	.LVL110:
 1615              	.L66:
 430:GrannyChordApp.cpp ****     prev_param_k1[i] = 0.5f;
 1616              		.loc 3 430 5 is_stmt 1 discriminator 2 view .LVU432
ARM GAS  /var/folders/2p/02m_5p7958535cp2tpgps0400000gn/T//ccgOSWw9.s 			page 53


 1617              		.loc 3 430 22 is_stmt 0 discriminator 2 view .LVU433
 1618 000c 4FF07C52 		mov	r2, #1056964608
 1619 0010 43F8042B 		str	r2, [r3], #4	@ float
 431:GrannyChordApp.cpp ****     prev_param_k2[i] = 0.5f;
 1620              		.loc 3 431 5 is_stmt 1 discriminator 2 view .LVU434
 429:GrannyChordApp.cpp ****   for (int i=0; i < NUM_SYNTH_MODES;i++){
 1621              		.loc 3 429 19 is_stmt 0 discriminator 2 view .LVU435
 1622 0014 8342     		cmp	r3, r0
 1623              		.loc 3 431 22 discriminator 2 view .LVU436
 1624 0016 DA61     		str	r2, [r3, #28]	@ float
 429:GrannyChordApp.cpp ****   for (int i=0; i < NUM_SYNTH_MODES;i++){
 1625              		.loc 3 429 3 is_stmt 1 discriminator 2 view .LVU437
 429:GrannyChordApp.cpp ****   for (int i=0; i < NUM_SYNTH_MODES;i++){
 1626              		.loc 3 429 19 discriminator 2 view .LVU438
 1627 0018 F8D1     		bne	.L66
 1628              	.LBE517:
 432:GrannyChordApp.cpp ****   } 
 433:GrannyChordApp.cpp **** }
 1629              		.loc 3 433 1 is_stmt 0 view .LVU439
 1630 001a 7047     		bx	lr
 1631              		.cfi_endproc
 1632              	.LFE4926:
 1634              		.section	.rodata._ZN14GrannyChordApp4InitEPsS0_.str1.1,"aMS",%progbits,1
 1635              	.LC7:
 1636 0000 46696C65 		.ascii	"File manager failed to init\000"
 1636      206D616E 
 1636      61676572 
 1636      20666169 
 1636      6C656420 
 1637              		.section	.text._ZN14GrannyChordApp4InitEPsS0_,"ax",%progbits
 1638              		.align	1
 1639              		.global	_ZN14GrannyChordApp4InitEPsS0_
 1640              		.syntax unified
 1641              		.thumb
 1642              		.thumb_func
 1644              	_ZN14GrannyChordApp4InitEPsS0_:
 1645              	.LVL111:
 1646              	.LFB4902:
  16:GrannyChordApp.cpp ****   left_buf_ = left, right_buf_ = right;
 1647              		.loc 3 16 57 is_stmt 1 view -0
 1648              		.cfi_startproc
 1649              		@ args = 0, pretend = 0, frame = 0
 1650              		@ frame_needed = 0, uses_anonymous_args = 0
  17:GrannyChordApp.cpp ****   pod_.SetAudioBlockSize(2);
 1651              		.loc 3 17 3 view .LVU441
  16:GrannyChordApp.cpp ****   left_buf_ = left, right_buf_ = right;
 1652              		.loc 3 16 57 is_stmt 0 view .LVU442
 1653 0000 70B5     		push	{r4, r5, r6, lr}
 1654              		.cfi_def_cfa_offset 16
 1655              		.cfi_offset 4, -16
 1656              		.cfi_offset 5, -12
 1657              		.cfi_offset 6, -8
 1658              		.cfi_offset 14, -4
  17:GrannyChordApp.cpp ****   pod_.SetAudioBlockSize(2);
 1659              		.loc 3 17 13 view .LVU443
 1660 0002 00F58045 		add	r5, r0, #16384
  16:GrannyChordApp.cpp ****   left_buf_ = left, right_buf_ = right;
ARM GAS  /var/folders/2p/02m_5p7958535cp2tpgps0400000gn/T//ccgOSWw9.s 			page 54


 1661              		.loc 3 16 57 view .LVU444
 1662 0006 0446     		mov	r4, r0
  21:GrannyChordApp.cpp ****   if (!InitFileMgr()){
 1663              		.loc 3 21 15 view .LVU445
 1664 0008 0026     		movs	r6, #0
  18:GrannyChordApp.cpp ****   pod_.SetAudioSampleRate(SaiHandle::Config::SampleRate::SAI_48KHZ);
 1665              		.loc 3 18 25 view .LVU446
 1666 000a C069     		ldr	r0, [r0, #28]
 1667              	.LVL112:
  16:GrannyChordApp.cpp ****   left_buf_ = left, right_buf_ = right;
 1668              		.loc 3 16 57 view .LVU447
 1669 000c 2DED048B 		vpush.64	{d8, d9}
 1670              		.cfi_def_cfa_offset 32
 1671              		.cfi_offset 80, -32
 1672              		.cfi_offset 81, -28
 1673              		.cfi_offset 82, -24
 1674              		.cfi_offset 83, -20
  17:GrannyChordApp.cpp ****   pod_.SetAudioBlockSize(2);
 1675              		.loc 3 17 13 view .LVU448
 1676 0010 C5F8F01D 		str	r1, [r5, #3568]
  18:GrannyChordApp.cpp ****   pod_.SetAudioSampleRate(SaiHandle::Config::SampleRate::SAI_48KHZ);
 1677              		.loc 3 18 25 view .LVU449
 1678 0014 0221     		movs	r1, #2
 1679              	.LVL113:
  17:GrannyChordApp.cpp ****   pod_.SetAudioBlockSize(2);
 1680              		.loc 3 17 32 view .LVU450
 1681 0016 C5F8F42D 		str	r2, [r5, #3572]
  18:GrannyChordApp.cpp ****   pod_.SetAudioSampleRate(SaiHandle::Config::SampleRate::SAI_48KHZ);
 1682              		.loc 3 18 3 is_stmt 1 view .LVU451
  18:GrannyChordApp.cpp ****   pod_.SetAudioSampleRate(SaiHandle::Config::SampleRate::SAI_48KHZ);
 1683              		.loc 3 18 25 is_stmt 0 view .LVU452
 1684 001a FFF7FEFF 		bl	_ZN5daisy8DaisyPod17SetAudioBlockSizeEj
 1685              	.LVL114:
  19:GrannyChordApp.cpp **** 
 1686              		.loc 3 19 3 is_stmt 1 view .LVU453
  19:GrannyChordApp.cpp **** 
 1687              		.loc 3 19 26 is_stmt 0 view .LVU454
 1688 001e E069     		ldr	r0, [r4, #28]
 1689 0020 0321     		movs	r1, #3
 1690 0022 FFF7FEFF 		bl	_ZN5daisy8DaisyPod18SetAudioSampleRateENS_9SaiHandle6Config10SampleRateE
 1691              	.LVL115:
  21:GrannyChordApp.cpp ****   if (!InitFileMgr()){
 1692              		.loc 3 21 3 is_stmt 1 view .LVU455
  22:GrannyChordApp.cpp ****     DebugPrint(pod_,"File manager failed to init");
 1693              		.loc 3 22 19 is_stmt 0 view .LVU456
 1694 0026 2046     		mov	r0, r4
  21:GrannyChordApp.cpp ****   if (!InitFileMgr()){
 1695              		.loc 3 21 15 view .LVU457
 1696 0028 C4F8D461 		str	r6, [r4, #468]
  22:GrannyChordApp.cpp ****     DebugPrint(pod_,"File manager failed to init");
 1697              		.loc 3 22 3 is_stmt 1 view .LVU458
  22:GrannyChordApp.cpp ****     DebugPrint(pod_,"File manager failed to init");
 1698              		.loc 3 22 19 is_stmt 0 view .LVU459
 1699 002c FFF7FEFF 		bl	_ZN14GrannyChordApp11InitFileMgrEv
 1700              	.LVL116:
  22:GrannyChordApp.cpp ****     DebugPrint(pod_,"File manager failed to init");
 1701              		.loc 3 22 3 view .LVU460
ARM GAS  /var/folders/2p/02m_5p7958535cp2tpgps0400000gn/T//ccgOSWw9.s 			page 55


 1702 0030 B0B9     		cbnz	r0, .L69
  23:GrannyChordApp.cpp ****     pod_.led1.SetRed(1);
 1703              		.loc 3 23 5 is_stmt 1 view .LVU461
  23:GrannyChordApp.cpp ****     pod_.led1.SetRed(1);
 1704              		.loc 3 23 5 view .LVU462
 1705              	.LVL117:
 1706              	.LBB526:
 1707              	.LBI526:
 126:../libDaisy/src/daisy_seed.h ****     {
 1708              		.loc 5 126 17 view .LVU463
 1709              	.LBB527:
 1710              		.loc 5 128 23 is_stmt 0 view .LVU464
 1711 0032 3048     		ldr	r0, .L70
 1712 0034 FFF7FEFF 		bl	_ZN5daisy6LoggerILNS_17LoggerDestinationE1EE9PrintLineEPKcz
 1713              	.LVL118:
 1714              		.loc 5 128 23 view .LVU465
 1715              	.LBE527:
 1716              	.LBE526:
  24:GrannyChordApp.cpp ****     pod_.led2.SetRed(1);
 1717              		.loc 3 24 5 is_stmt 1 view .LVU466
  24:GrannyChordApp.cpp ****     pod_.led2.SetRed(1);
 1718              		.loc 3 24 21 is_stmt 0 view .LVU467
 1719 0038 E069     		ldr	r0, [r4, #28]
 1720 003a B7EE000A 		vmov.f32	s0, #1.0e+0
 1721 003e D830     		adds	r0, r0, #216
 1722 0040 FFF7FEFF 		bl	_ZN5daisy6RgbLed6SetRedEf
 1723              	.LVL119:
  25:GrannyChordApp.cpp ****     pod_.UpdateLeds();
 1724              		.loc 3 25 5 is_stmt 1 view .LVU468
  25:GrannyChordApp.cpp ****     pod_.UpdateLeds();
 1725              		.loc 3 25 21 is_stmt 0 view .LVU469
 1726 0044 E069     		ldr	r0, [r4, #28]
 1727 0046 B7EE000A 		vmov.f32	s0, #1.0e+0
 1728 004a 00F59670 		add	r0, r0, #300
 1729 004e FFF7FEFF 		bl	_ZN5daisy6RgbLed6SetRedEf
 1730              	.LVL120:
  26:GrannyChordApp.cpp ****     return;
 1731              		.loc 3 26 5 is_stmt 1 view .LVU470
  26:GrannyChordApp.cpp ****     return;
 1732              		.loc 3 26 20 is_stmt 0 view .LVU471
 1733 0052 E069     		ldr	r0, [r4, #28]
  35:GrannyChordApp.cpp **** 
 1734              		.loc 3 35 1 view .LVU472
 1735 0054 BDEC048B 		vldm	sp!, {d8-d9}
 1736              		.cfi_remember_state
 1737              		.cfi_restore 82
 1738              		.cfi_restore 83
 1739              		.cfi_restore 80
 1740              		.cfi_restore 81
 1741              		.cfi_def_cfa_offset 16
 1742 0058 BDE87040 		pop	{r4, r5, r6, lr}
 1743              		.cfi_restore 14
 1744              		.cfi_restore 6
 1745              		.cfi_restore 5
 1746              		.cfi_restore 4
 1747              		.cfi_def_cfa_offset 0
 1748              	.LVL121:
ARM GAS  /var/folders/2p/02m_5p7958535cp2tpgps0400000gn/T//ccgOSWw9.s 			page 56


  26:GrannyChordApp.cpp ****     return;
 1749              		.loc 3 26 20 view .LVU473
 1750 005c FFF7FEBF 		b	_ZN5daisy8DaisyPod10UpdateLedsEv
 1751              	.LVL122:
 1752              	.L69:
 1753              		.cfi_restore_state
  29:GrannyChordApp.cpp ****   InitFX();
 1754              		.loc 3 29 3 is_stmt 1 view .LVU474
  29:GrannyChordApp.cpp ****   InitFX();
 1755              		.loc 3 29 17 is_stmt 0 view .LVU475
 1756 0060 E069     		ldr	r0, [r4, #28]
 1757 0062 FFF7FEFF 		bl	_ZN5daisy8DaisyPod15AudioSampleRateEv
 1758              	.LVL123:
  29:GrannyChordApp.cpp ****   InitFX();
 1759              		.loc 3 29 61 view .LVU476
 1760 0066 E069     		ldr	r0, [r4, #28]
  29:GrannyChordApp.cpp ****   InitFX();
 1761              		.loc 3 29 17 view .LVU477
 1762 0068 F0EE408A 		vmov.f32	s17, s0
  29:GrannyChordApp.cpp ****   InitFX();
 1763              		.loc 3 29 61 view .LVU478
 1764 006c FFF7FEFF 		bl	_ZN5daisy8DaisyPod14AudioBlockSizeEv
 1765              	.LVL124:
 1766              	.LBB528:
 1767              	.LBI528:
  29:../libDaisy/src/util/CpuLoadMeter.h ****               int   blockSizeInSamples,
 1768              		.loc 4 29 10 is_stmt 1 view .LVU479
 1769              	.LBB529:
  33:../libDaisy/src/util/CpuLoadMeter.h ****         const auto ticksPerS   = float(System::GetTickFreq());
 1770              		.loc 4 33 9 view .LVU480
  33:../libDaisy/src/util/CpuLoadMeter.h ****         const auto ticksPerS   = float(System::GetTickFreq());
 1771              		.loc 4 33 34 is_stmt 0 view .LVU481
 1772 0070 07EE900A 		vmov	s15, r0	@ int
 1773 0074 B8EEE78A 		vcvt.f32.s32	s16, s15
  34:../libDaisy/src/util/CpuLoadMeter.h ****         ticksPerBlockInv_      = 1.0f / (ticksPerS * secPerBlock);
 1774              		.loc 4 34 59 view .LVU482
 1775 0078 FFF7FEFF 		bl	_ZN5daisy6System11GetTickFreqEv
 1776              	.LVL125:
  34:../libDaisy/src/util/CpuLoadMeter.h ****         ticksPerBlockInv_      = 1.0f / (ticksPerS * secPerBlock);
 1777              		.loc 4 34 61 view .LVU483
 1778 007c 07EE900A 		vmov	s15, r0	@ int
  35:../libDaisy/src/util/CpuLoadMeter.h **** 
 1779              		.loc 4 35 39 view .LVU484
 1780 0080 B7EE007A 		vmov.f32	s14, #1.0e+0
  39:../libDaisy/src/util/CpuLoadMeter.h ****             = smoothingFilterCutoffHz * 2.0f * 3.141592653f / blockRateInHz;
 1781              		.loc 4 39 20 view .LVU485
 1782 0084 9FED1C6A 		vldr.32	s12, .L70+4
 1783              	.LBB530:
 1784              	.LBB531:
  82:../libDaisy/src/util/CpuLoadMeter.h **** 
  83:../libDaisy/src/util/CpuLoadMeter.h ****     /** Resets the minimun, maximum and average load readings. */
  84:../libDaisy/src/util/CpuLoadMeter.h ****     void Reset()
  85:../libDaisy/src/util/CpuLoadMeter.h ****     {
  86:../libDaisy/src/util/CpuLoadMeter.h ****         firstCycle_ = true;
 1785              		.loc 4 86 21 view .LVU486
 1786 0088 0123     		movs	r3, #1
 1787              	.LBE531:
ARM GAS  /var/folders/2p/02m_5p7958535cp2tpgps0400000gn/T//ccgOSWw9.s 			page 57


 1788              	.LBE530:
  33:../libDaisy/src/util/CpuLoadMeter.h ****         const auto ticksPerS   = float(System::GetTickFreq());
 1789              		.loc 4 33 20 view .LVU487
 1790 008a 88EE289A 		vdiv.f32	s18, s16, s17
 1791              	.LVL126:
  34:../libDaisy/src/util/CpuLoadMeter.h ****         ticksPerBlockInv_      = 1.0f / (ticksPerS * secPerBlock);
 1792              		.loc 4 34 9 is_stmt 1 view .LVU488
  35:../libDaisy/src/util/CpuLoadMeter.h **** 
 1793              		.loc 4 35 9 view .LVU489
 1794              	.LBE529:
 1795              	.LBE528:
  30:GrannyChordApp.cpp ****   InitPrevParamVals();
 1796              		.loc 3 30 9 is_stmt 0 view .LVU490
 1797 008e 2046     		mov	r0, r4
 1798              	.LVL127:
 1799              	.LBB539:
 1800              	.LBB538:
 1801              	.LBB535:
 1802              	.LBB532:
 1803              		.loc 4 86 21 view .LVU491
 1804 0090 2370     		strb	r3, [r4]
  87:../libDaisy/src/util/CpuLoadMeter.h ****         avg_ = max_ = min_ = NAN;
 1805              		.loc 4 87 28 view .LVU492
 1806 0092 1A4B     		ldr	r3, .L70+8
 1807 0094 E360     		str	r3, [r4, #12]	@ float
 1808              	.LBE532:
 1809              	.LBE535:
  34:../libDaisy/src/util/CpuLoadMeter.h ****         ticksPerBlockInv_      = 1.0f / (ticksPerS * secPerBlock);
 1810              		.loc 4 34 61 view .LVU493
 1811 0096 F8EE677A 		vcvt.f32.u32	s15, s15
 1812              	.LVL128:
 1813              	.LBB536:
 1814              	.LBB533:
 1815              		.loc 4 87 21 view .LVU494
 1816 009a 2361     		str	r3, [r4, #16]	@ float
 1817              		.loc 4 87 14 view .LVU495
 1818 009c 6361     		str	r3, [r4, #20]	@ float
 1819              	.LBE533:
 1820              	.LBE536:
  35:../libDaisy/src/util/CpuLoadMeter.h **** 
 1821              		.loc 4 35 52 view .LVU496
 1822 009e 67EE897A 		vmul.f32	s15, s15, s18
 1823              	.LVL129:
  35:../libDaisy/src/util/CpuLoadMeter.h **** 
 1824              		.loc 4 35 39 view .LVU497
 1825 00a2 C7EE276A 		vdiv.f32	s13, s14, s15
  35:../libDaisy/src/util/CpuLoadMeter.h **** 
 1826              		.loc 4 35 32 view .LVU498
 1827 00a6 C4ED016A 		vstr.32	s13, [r4, #4]
  38:../libDaisy/src/util/CpuLoadMeter.h ****         const auto cutoffNormalized
 1828              		.loc 4 38 9 is_stmt 1 view .LVU499
 1829              	.LVL130:
  39:../libDaisy/src/util/CpuLoadMeter.h ****             = smoothingFilterCutoffHz * 2.0f * 3.141592653f / blockRateInHz;
 1830              		.loc 4 39 9 view .LVU500
  38:../libDaisy/src/util/CpuLoadMeter.h ****         const auto cutoffNormalized
 1831              		.loc 4 38 20 is_stmt 0 view .LVU501
 1832 00aa C8EE886A 		vdiv.f32	s13, s17, s16
ARM GAS  /var/folders/2p/02m_5p7958535cp2tpgps0400000gn/T//ccgOSWw9.s 			page 58


 1833              	.LVL131:
  39:../libDaisy/src/util/CpuLoadMeter.h ****             = smoothingFilterCutoffHz * 2.0f * 3.141592653f / blockRateInHz;
 1834              		.loc 4 39 20 view .LVU502
 1835 00ae C6EE267A 		vdiv.f32	s15, s12, s13
 1836              	.LVL132:
  43:../libDaisy/src/util/CpuLoadMeter.h **** 
 1837              		.loc 4 43 9 is_stmt 1 view .LVU503
  43:../libDaisy/src/util/CpuLoadMeter.h **** 
 1838              		.loc 4 43 67 is_stmt 0 view .LVU504
 1839 00b2 37EE877A 		vadd.f32	s14, s15, s14
  43:../libDaisy/src/util/CpuLoadMeter.h **** 
 1840              		.loc 4 43 47 view .LVU505
 1841 00b6 C7EE876A 		vdiv.f32	s13, s15, s14
 1842              	.LVL133:
  43:../libDaisy/src/util/CpuLoadMeter.h **** 
 1843              		.loc 4 43 28 view .LVU506
 1844 00ba C4ED066A 		vstr.32	s13, [r4, #24]
  45:../libDaisy/src/util/CpuLoadMeter.h ****     }
 1845              		.loc 4 45 9 is_stmt 1 view .LVU507
 1846              	.LVL134:
 1847              	.LBB537:
 1848              	.LBI530:
  84:../libDaisy/src/util/CpuLoadMeter.h ****     {
 1849              		.loc 4 84 10 view .LVU508
 1850              	.LBB534:
  86:../libDaisy/src/util/CpuLoadMeter.h ****         avg_ = max_ = min_ = NAN;
 1851              		.loc 4 86 9 view .LVU509
 1852              		.loc 4 87 9 view .LVU510
 1853              		.loc 4 87 9 is_stmt 0 view .LVU511
 1854              	.LBE534:
 1855              	.LBE537:
 1856              	.LBE538:
 1857              	.LBE539:
  30:GrannyChordApp.cpp ****   InitPrevParamVals();
 1858              		.loc 3 30 3 is_stmt 1 view .LVU512
  30:GrannyChordApp.cpp ****   InitPrevParamVals();
 1859              		.loc 3 30 9 is_stmt 0 view .LVU513
 1860 00be FFF7FEFF 		bl	_ZN14GrannyChordApp6InitFXEv
 1861              	.LVL135:
  31:GrannyChordApp.cpp ****   SeedRng();
 1862              		.loc 3 31 3 is_stmt 1 view .LVU514
  31:GrannyChordApp.cpp ****   SeedRng();
 1863              		.loc 3 31 20 is_stmt 0 view .LVU515
 1864 00c2 2046     		mov	r0, r4
 1865 00c4 FFF7FEFF 		bl	_ZN14GrannyChordApp17InitPrevParamValsEv
 1866              	.LVL136:
  32:GrannyChordApp.cpp ****   synth_.Init(left_buf_, right_buf_, 0);
 1867              		.loc 3 32 3 is_stmt 1 view .LVU516
 1868              	.LBB540:
 1869              	.LBI540:
 1870              		.file 11 "constants_utils.h"
   1:constants_utils.h **** #pragma once
   2:constants_utils.h **** #include "stddef.h"
   3:constants_utils.h **** #include <time.h>
   4:constants_utils.h **** 
   5:constants_utils.h **** /* audio constants */
   6:constants_utils.h **** constexpr int SAMPLE_RATE = 48000;
ARM GAS  /var/folders/2p/02m_5p7958535cp2tpgps0400000gn/T//ccgOSWw9.s 			page 59


   7:constants_utils.h **** constexpr float SAMPLE_RATE_FLOAT = 48000.f;
   8:constants_utils.h **** constexpr int BIT_DEPTH = 16;
   9:constants_utils.h **** 
  10:constants_utils.h **** /* delay line buffer size (2s @ 48kHz) */
  11:constants_utils.h **** constexpr size_t DELAY_TIME = 96000;
  12:constants_utils.h **** 
  13:constants_utils.h **** /* maximum length of recording to SD card */
  14:constants_utils.h **** constexpr size_t MAX_REC_OUT_LEN = 120;
  15:constants_utils.h **** 
  16:constants_utils.h **** /* 16mb - max size of one stereo channel to be loaded into buffers */
  17:constants_utils.h **** constexpr size_t CHNL_BUF_SIZE_ABS = 16*1024*1024;
  18:constants_utils.h **** /* above is absolute size - each sample needs an int16 (2 bytes) so we do (abs_size)/2 */
  19:constants_utils.h **** constexpr size_t CHNL_BUF_SIZE_SAMPS = 8*1024*1024;
  20:constants_utils.h **** 
  21:constants_utils.h **** /* chunk size for reading audio into temporary buffer */
  22:constants_utils.h **** const size_t BUF_CHUNK_SZ = 16384;
  23:constants_utils.h **** 
  24:constants_utils.h **** /* file reading constants*/
  25:constants_utils.h **** static const uint16_t MAX_FILES = 32;                      
  26:constants_utils.h **** static const uint16_t MAX_FNAME_LEN = 128;
  27:constants_utils.h **** 
  28:constants_utils.h **** /* granular synth parameter constants */
  29:constants_utils.h **** constexpr int MIN_GRAINS = 1;
  30:constants_utils.h **** constexpr int MAX_GRAINS = 10;
  31:constants_utils.h **** static constexpr int NUM_SYNTH_MODES = 8;
  32:constants_utils.h **** constexpr float PARAM_CHANGE_THRESHOLD = 0.01f;
  33:constants_utils.h **** constexpr float MIN_GRAIN_SIZE_MS = 100.0f;
  34:constants_utils.h **** constexpr float MAX_GRAIN_SIZE_MS = 3000.0f;
  35:constants_utils.h **** constexpr size_t MIN_GRAIN_SIZE_SAMPLES = 4800; /* 100ms at 48kHz */
  36:constants_utils.h **** constexpr size_t MAX_GRAIN_SIZE_SAMPLES = 144000; /* 3s at 48kHz */
  37:constants_utils.h **** constexpr float MIN_PITCH = 0.5f;
  38:constants_utils.h **** constexpr float MAX_PITCH = 3.0f;
  39:constants_utils.h **** 
  40:constants_utils.h **** /* button event constants */
  41:constants_utils.h **** const unsigned long DEBOUNCE_DELAY = 50; 
  42:constants_utils.h **** const unsigned long LONG_PRESS_TIME = 1000;
  43:constants_utils.h **** 
  44:constants_utils.h **** /* hipass filter frequency range */
  45:constants_utils.h **** const float HIPASS_LOWER_BOUND = 0.0004f;
  46:constants_utils.h **** const float HIPASS_UPPER_BOUND = 0.01f;
  47:constants_utils.h **** 
  48:constants_utils.h **** /* lowpass filter frequency range */
  49:constants_utils.h **** const float LOPASS_LOWER_BOUND = 20.0f;
  50:constants_utils.h **** const float LOPASS_UPPER_BOUND = 18000.0f;
  51:constants_utils.h **** 
  52:constants_utils.h **** // const float HICUT_FREQ = 0.3125f; /* 15000Hz @ 48kHz sample rate */
  53:constants_utils.h **** const float HICUT_FREQ = 0.34375; /* 16500Hz @ 48kHz sample rate */
  54:constants_utils.h **** 
  55:constants_utils.h **** /* random number generator variables and helper functions */
  56:constants_utils.h **** extern uint32_t rng_state;
  57:constants_utils.h **** inline void SeedRng(){
 1871              		.loc 11 57 13 view .LVU517
 1872              	.LBB541:
  58:constants_utils.h ****   rng_state = static_cast<uint32_t>(time(nullptr));
 1873              		.loc 11 58 3 view .LVU518
 1874              		.loc 11 58 41 is_stmt 0 view .LVU519
 1875 00c8 3046     		mov	r0, r6
ARM GAS  /var/folders/2p/02m_5p7958535cp2tpgps0400000gn/T//ccgOSWw9.s 			page 60


 1876 00ca FFF7FEFF 		bl	time
 1877              	.LVL137:
 1878              		.loc 11 58 13 view .LVU520
 1879 00ce 0C4B     		ldr	r3, .L70+12
 1880              	.LBE541:
 1881              	.LBE540:
  33:GrannyChordApp.cpp ****   pod_.StartAdc();
 1882              		.loc 3 33 14 view .LVU521
 1883 00d0 D5F8F42D 		ldr	r2, [r5, #3572]
 1884              	.LBB543:
 1885              	.LBB542:
 1886              		.loc 11 58 13 view .LVU522
 1887 00d4 1860     		str	r0, [r3]
 1888              	.LBE542:
 1889              	.LBE543:
  33:GrannyChordApp.cpp ****   pod_.StartAdc();
 1890              		.loc 3 33 3 is_stmt 1 view .LVU523
  33:GrannyChordApp.cpp ****   pod_.StartAdc();
 1891              		.loc 3 33 14 is_stmt 0 view .LVU524
 1892 00d6 04F12000 		add	r0, r4, #32
 1893 00da 3346     		mov	r3, r6
 1894 00dc D5F8F01D 		ldr	r1, [r5, #3568]
 1895 00e0 FFF7FEFF 		bl	_ZN13GranularSynth4InitEPsS0_j
 1896              	.LVL138:
  34:GrannyChordApp.cpp **** }
 1897              		.loc 3 34 3 is_stmt 1 view .LVU525
  34:GrannyChordApp.cpp **** }
 1898              		.loc 3 34 16 is_stmt 0 view .LVU526
 1899 00e4 E069     		ldr	r0, [r4, #28]
  35:GrannyChordApp.cpp **** 
 1900              		.loc 3 35 1 view .LVU527
 1901 00e6 BDEC048B 		vldm	sp!, {d8-d9}
 1902              		.cfi_restore 82
 1903              		.cfi_restore 83
 1904              		.cfi_restore 80
 1905              		.cfi_restore 81
 1906              		.cfi_def_cfa_offset 16
 1907 00ea BDE87040 		pop	{r4, r5, r6, lr}
 1908              		.cfi_restore 14
 1909              		.cfi_restore 6
 1910              		.cfi_restore 5
 1911              		.cfi_restore 4
 1912              		.cfi_def_cfa_offset 0
 1913              	.LVL139:
  34:GrannyChordApp.cpp **** }
 1914              		.loc 3 34 16 view .LVU528
 1915 00ee FFF7FEBF 		b	_ZN5daisy8DaisyPod8StartAdcEv
 1916              	.LVL140:
 1917              	.L71:
 1918 00f2 00BF     		.align	2
 1919              	.L70:
 1920 00f4 00000000 		.word	.LC7
 1921 00f8 DB0FC940 		.word	1086918619
 1922 00fc 0000C07F 		.word	2143289344
 1923 0100 00000000 		.word	rng_state
 1924              		.cfi_endproc
 1925              	.LFE4902:
ARM GAS  /var/folders/2p/02m_5p7958535cp2tpgps0400000gn/T//ccgOSWw9.s 			page 61


 1927              		.section	.rodata._ZN14GrannyChordApp9InitSynthEv.str1.1,"aMS",%progbits,1
 1928              	.LC8:
 1929 0000 73796E74 		.ascii	"synth init ok - samples %u\000"
 1929      6820696E 
 1929      6974206F 
 1929      6B202D20 
 1929      73616D70 
 1930              		.section	.text._ZN14GrannyChordApp9InitSynthEv,"ax",%progbits
 1931              		.align	1
 1932              		.global	_ZN14GrannyChordApp9InitSynthEv
 1933              		.syntax unified
 1934              		.thumb
 1935              		.thumb_func
 1937              	_ZN14GrannyChordApp9InitSynthEv:
 1938              	.LVL141:
 1939              	.LFB4921:
 370:GrannyChordApp.cpp ****   synth_.Init(left_buf_, right_buf_, filemgr_.GetSamplesPerChannel());
 1940              		.loc 3 370 33 is_stmt 1 view -0
 1941              		.cfi_startproc
 1942              		@ args = 0, pretend = 0, frame = 0
 1943              		@ frame_needed = 0, uses_anonymous_args = 0
 371:GrannyChordApp.cpp ****   InitPrevParamVals();
 1944              		.loc 3 371 3 view .LVU530
 371:GrannyChordApp.cpp ****   InitPrevParamVals();
 1945              		.loc 3 371 38 is_stmt 0 view .LVU531
 1946 0000 D0F8CC21 		ldr	r2, [r0, #460]
 1947              	.LVL142:
 1948              	.LBB544:
 1949              	.LBI544:
  27:AudioFileManager.h ****     size_t GetTotalSamples() const { return header_.total_samples; }
 1950              		.loc 8 27 12 is_stmt 1 view .LVU532
 1951              	.LBB545:
  27:AudioFileManager.h ****     size_t GetTotalSamples() const { return header_.total_samples; }
 1952              		.loc 8 27 43 view .LVU533
  27:AudioFileManager.h ****     size_t GetTotalSamples() const { return header_.total_samples; }
 1953              		.loc 8 27 43 is_stmt 0 view .LVU534
 1954              	.LBE545:
 1955              	.LBE544:
 371:GrannyChordApp.cpp ****   InitPrevParamVals();
 1956              		.loc 3 371 14 view .LVU535
 1957 0004 00F58041 		add	r1, r0, #16384
 1958              	.LBB547:
 1959              	.LBB546:
  27:AudioFileManager.h ****     size_t GetTotalSamples() const { return header_.total_samples; }
 1960              		.loc 8 27 58 view .LVU536
 1961 0008 02F58052 		add	r2, r2, #4096
  27:AudioFileManager.h ****     size_t GetTotalSamples() const { return header_.total_samples; }
 1962              		.loc 8 27 82 view .LVU537
 1963 000c B2F92830 		ldrsh	r3, [r2, #40]
 1964 0010 D26A     		ldr	r2, [r2, #44]
 1965              	.LBE546:
 1966              	.LBE547:
 370:GrannyChordApp.cpp ****   synth_.Init(left_buf_, right_buf_, filemgr_.GetSamplesPerChannel());
 1967              		.loc 3 370 33 view .LVU538
 1968 0012 10B5     		push	{r4, lr}
 1969              		.cfi_def_cfa_offset 8
 1970              		.cfi_offset 4, -8
ARM GAS  /var/folders/2p/02m_5p7958535cp2tpgps0400000gn/T//ccgOSWw9.s 			page 62


 1971              		.cfi_offset 14, -4
 370:GrannyChordApp.cpp ****   synth_.Init(left_buf_, right_buf_, filemgr_.GetSamplesPerChannel());
 1972              		.loc 3 370 33 view .LVU539
 1973 0014 0446     		mov	r4, r0
 371:GrannyChordApp.cpp ****   InitPrevParamVals();
 1974              		.loc 3 371 14 view .LVU540
 1975 0016 2030     		adds	r0, r0, #32
 1976              	.LVL143:
 371:GrannyChordApp.cpp ****   InitPrevParamVals();
 1977              		.loc 3 371 14 view .LVU541
 1978 0018 B2FBF3F3 		udiv	r3, r2, r3
 1979 001c D1F8F42D 		ldr	r2, [r1, #3572]
 1980 0020 D1F8F01D 		ldr	r1, [r1, #3568]
 1981 0024 FFF7FEFF 		bl	_ZN13GranularSynth4InitEPsS0_j
 1982              	.LVL144:
 372:GrannyChordApp.cpp ****   DebugPrint(pod_,"synth init ok - samples %u",filemgr_.GetSamplesPerChannel());
 1983              		.loc 3 372 3 is_stmt 1 view .LVU542
 372:GrannyChordApp.cpp ****   DebugPrint(pod_,"synth init ok - samples %u",filemgr_.GetSamplesPerChannel());
 1984              		.loc 3 372 20 is_stmt 0 view .LVU543
 1985 0028 2046     		mov	r0, r4
 1986 002a FFF7FEFF 		bl	_ZN14GrannyChordApp17InitPrevParamValsEv
 1987              	.LVL145:
 373:GrannyChordApp.cpp **** }
 1988              		.loc 3 373 3 is_stmt 1 view .LVU544
 373:GrannyChordApp.cpp **** }
 1989              		.loc 3 373 3 view .LVU545
 1990 002e D4F8CC31 		ldr	r3, [r4, #460]
 1991              	.LVL146:
 1992              	.LBB548:
 1993              	.LBI548:
  27:AudioFileManager.h ****     size_t GetTotalSamples() const { return header_.total_samples; }
 1994              		.loc 8 27 12 view .LVU546
 1995              	.LBB549:
  27:AudioFileManager.h ****     size_t GetTotalSamples() const { return header_.total_samples; }
 1996              		.loc 8 27 43 view .LVU547
  27:AudioFileManager.h ****     size_t GetTotalSamples() const { return header_.total_samples; }
 1997              		.loc 8 27 43 is_stmt 0 view .LVU548
 1998              	.LBE549:
 1999              	.LBE548:
 2000              	.LBB551:
 2001              	.LBI551:
 126:../libDaisy/src/daisy_seed.h ****     {
 2002              		.loc 5 126 17 is_stmt 1 view .LVU549
 2003              	.LBB552:
 2004              		.loc 5 128 23 is_stmt 0 view .LVU550
 2005 0032 0648     		ldr	r0, .L73
 2006              	.LBE552:
 2007              	.LBE551:
 2008              	.LBB554:
 2009              	.LBB550:
  27:AudioFileManager.h ****     size_t GetTotalSamples() const { return header_.total_samples; }
 2010              		.loc 8 27 58 view .LVU551
 2011 0034 03F58053 		add	r3, r3, #4096
 2012              	.LVL147:
  27:AudioFileManager.h ****     size_t GetTotalSamples() const { return header_.total_samples; }
 2013              		.loc 8 27 82 view .LVU552
 2014 0038 B3F92820 		ldrsh	r2, [r3, #40]
ARM GAS  /var/folders/2p/02m_5p7958535cp2tpgps0400000gn/T//ccgOSWw9.s 			page 63


 2015 003c D96A     		ldr	r1, [r3, #44]
 2016              	.LBE550:
 2017              	.LBE554:
 374:GrannyChordApp.cpp **** 
 2018              		.loc 3 374 1 view .LVU553
 2019 003e BDE81040 		pop	{r4, lr}
 2020              		.cfi_restore 14
 2021              		.cfi_restore 4
 2022              		.cfi_def_cfa_offset 0
 2023              	.LVL148:
 2024              	.LBB555:
 2025              	.LBB553:
 2026              		.loc 5 128 23 view .LVU554
 2027 0042 B1FBF2F1 		udiv	r1, r1, r2
 2028 0046 FFF7FEBF 		b	_ZN5daisy6LoggerILNS_17LoggerDestinationE1EE9PrintLineEPKcz
 2029              	.LVL149:
 2030              	.L74:
 2031              		.loc 5 128 23 view .LVU555
 2032 004a 00BF     		.align	2
 2033              	.L73:
 2034 004c 00000000 		.word	.LC8
 2035              	.LBE553:
 2036              	.LBE555:
 2037              		.cfi_endproc
 2038              	.LFE4921:
 2040              		.section	.text._ZN14GrannyChordApp13ResetPassThruEv,"ax",%progbits
 2041              		.align	1
 2042              		.global	_ZN14GrannyChordApp13ResetPassThruEv
 2043              		.syntax unified
 2044              		.thumb
 2045              		.thumb_func
 2047              	_ZN14GrannyChordApp13ResetPassThruEv:
 2048              	.LVL150:
 2049              	.LFB4927:
 434:GrannyChordApp.cpp **** 
 435:GrannyChordApp.cpp **** void GrannyChordApp::ResetPassThru(){
 2050              		.loc 3 435 37 is_stmt 1 view -0
 2051              		.cfi_startproc
 2052              		@ args = 0, pretend = 0, frame = 0
 2053              		@ frame_needed = 0, uses_anonymous_args = 0
 436:GrannyChordApp.cpp ****     int mode_idx = static_cast<int>(curr_synth_mode_);
 2054              		.loc 3 436 5 view .LVU557
 435:GrannyChordApp.cpp ****     int mode_idx = static_cast<int>(curr_synth_mode_);
 2055              		.loc 3 435 37 is_stmt 0 view .LVU558
 2056 0000 38B5     		push	{r3, r4, r5, lr}
 2057              		.cfi_def_cfa_offset 16
 2058              		.cfi_offset 3, -16
 2059              		.cfi_offset 4, -12
 2060              		.cfi_offset 5, -8
 2061              		.cfi_offset 14, -4
 435:GrannyChordApp.cpp ****     int mode_idx = static_cast<int>(curr_synth_mode_);
 2062              		.loc 3 435 37 view .LVU559
 2063 0002 0446     		mov	r4, r0
 2064              		.loc 3 436 9 view .LVU560
 2065 0004 D0F8DC51 		ldr	r5, [r0, #476]
 2066              	.LVL151:
 437:GrannyChordApp.cpp ****     stored_k1[mode_idx] = pod_.knob1.Process();
ARM GAS  /var/folders/2p/02m_5p7958535cp2tpgps0400000gn/T//ccgOSWw9.s 			page 64


 2067              		.loc 3 437 5 is_stmt 1 view .LVU561
 2068              		.loc 3 437 45 is_stmt 0 view .LVU562
 2069 0008 C069     		ldr	r0, [r0, #28]
 2070              	.LVL152:
 2071              		.loc 3 437 45 view .LVU563
 2072 000a 04EB8505 		add	r5, r4, r5, lsl #2
 2073              	.LVL153:
 2074              		.loc 3 437 45 view .LVU564
 2075 000e 6830     		adds	r0, r0, #104
 2076              		.loc 3 437 25 view .LVU565
 2077 0010 05F58045 		add	r5, r5, #16384
 2078              		.loc 3 437 45 view .LVU566
 2079 0014 FFF7FEFF 		bl	_ZN5daisy13AnalogControl7ProcessEv
 2080              	.LVL154:
 2081              		.loc 3 437 25 view .LVU567
 2082 0018 05F6C463 		addw	r3, r5, #3780
 438:GrannyChordApp.cpp ****     stored_k2[mode_idx] = pod_.knob2.Process();
 2083              		.loc 3 438 25 view .LVU568
 2084 001c 05F6E465 		addw	r5, r5, #3812
 437:GrannyChordApp.cpp ****     stored_k1[mode_idx] = pod_.knob1.Process();
 2085              		.loc 3 437 25 view .LVU569
 2086 0020 83ED000A 		vstr.32	s0, [r3]
 2087              		.loc 3 438 5 is_stmt 1 view .LVU570
 2088              		.loc 3 438 45 is_stmt 0 view .LVU571
 2089 0024 E069     		ldr	r0, [r4, #28]
 439:GrannyChordApp.cpp ****     pass_thru_k1 = false;
 2090              		.loc 3 439 18 view .LVU572
 2091 0026 04F58044 		add	r4, r4, #16384
 2092              	.LVL155:
 438:GrannyChordApp.cpp ****     stored_k2[mode_idx] = pod_.knob2.Process();
 2093              		.loc 3 438 45 view .LVU573
 2094 002a 8830     		adds	r0, r0, #136
 2095 002c FFF7FEFF 		bl	_ZN5daisy13AnalogControl7ProcessEv
 2096              	.LVL156:
 2097              		.loc 3 439 18 view .LVU574
 2098 0030 0023     		movs	r3, #0
 438:GrannyChordApp.cpp ****     stored_k2[mode_idx] = pod_.knob2.Process();
 2099              		.loc 3 438 25 view .LVU575
 2100 0032 85ED000A 		vstr.32	s0, [r5]
 2101              		.loc 3 439 5 is_stmt 1 view .LVU576
 440:GrannyChordApp.cpp ****     pass_thru_k2 = false;
 2102              		.loc 3 440 5 view .LVU577
 439:GrannyChordApp.cpp ****     pass_thru_k1 = false;
 2103              		.loc 3 439 18 is_stmt 0 view .LVU578
 2104 0036 A4F8043F 		strh	r3, [r4, #3844]	@ movhi
 441:GrannyChordApp.cpp **** }
 2105              		.loc 3 441 1 view .LVU579
 2106 003a 38BD     		pop	{r3, r4, r5, pc}
 2107              		.loc 3 441 1 view .LVU580
 2108              		.cfi_endproc
 2109              	.LFE4927:
 2111              		.section	.text._ZN14GrannyChordApp18ProcessWAVPlaybackEPPfj,"ax",%progbits
 2112              		.align	1
 2113              		.global	_ZN14GrannyChordApp18ProcessWAVPlaybackEPPfj
 2114              		.syntax unified
 2115              		.thumb
 2116              		.thumb_func
ARM GAS  /var/folders/2p/02m_5p7958535cp2tpgps0400000gn/T//ccgOSWw9.s 			page 65


 2118              	_ZN14GrannyChordApp18ProcessWAVPlaybackEPPfj:
 2119              	.LVL157:
 2120              	.LFB4930:
 442:GrannyChordApp.cpp **** 
 443:GrannyChordApp.cpp **** /// @brief Master audio callback, called at audio rate, calls all audio processing methods
 444:GrannyChordApp.cpp **** /// @param in Audio input buffer
 445:GrannyChordApp.cpp **** /// @param out Audio output buffer
 446:GrannyChordApp.cpp **** /// @param size Number of samples to process in this call
 447:GrannyChordApp.cpp **** void GrannyChordApp::AudioCallback(AudioHandle::InputBuffer in, AudioHandle::OutputBuffer out, size
 448:GrannyChordApp.cpp ****   instance_->ProcessAudio(in,out,size);
 449:GrannyChordApp.cpp **** }
 450:GrannyChordApp.cpp **** 
 451:GrannyChordApp.cpp **** void GrannyChordApp::ProcessAudio(AudioHandle::InputBuffer in, AudioHandle::OutputBuffer out, size_
 452:GrannyChordApp.cpp ****   switch(curr_state_){
 453:GrannyChordApp.cpp ****     case AppState::PlayWAV:
 454:GrannyChordApp.cpp ****       if (wav_playhead_>= filemgr_.GetSamplesPerChannel() -1){
 455:GrannyChordApp.cpp ****         instance_->pod_.StopAudio();
 456:GrannyChordApp.cpp ****         DebugPrint(pod_, "stopped audio > len");
 457:GrannyChordApp.cpp ****         return;
 458:GrannyChordApp.cpp ****       }
 459:GrannyChordApp.cpp ****       ProcessWAVPlayback(out,size);
 460:GrannyChordApp.cpp ****       return;  
 461:GrannyChordApp.cpp ****     case AppState::RecordIn:
 462:GrannyChordApp.cpp ****       ProcessRecordIn(in, out, size);
 463:GrannyChordApp.cpp ****       return;
 464:GrannyChordApp.cpp ****     case AppState::Synthesis:
 465:GrannyChordApp.cpp ****       ProcessSynthesis(out,size);
 466:GrannyChordApp.cpp ****       return;
 467:GrannyChordApp.cpp ****     // case AppState::ChordMode:
 468:GrannyChordApp.cpp ****     // return;
 469:GrannyChordApp.cpp ****     default:
 470:GrannyChordApp.cpp ****       return;
 471:GrannyChordApp.cpp ****   }
 472:GrannyChordApp.cpp **** }
 473:GrannyChordApp.cpp **** 
 474:GrannyChordApp.cpp **** /// @brief Process audio for WAV playback mode and increment playback position
 475:GrannyChordApp.cpp **** /// @param out Output audio buffer
 476:GrannyChordApp.cpp **** /// @param size Number of samples to process in this call
 477:GrannyChordApp.cpp **** void GrannyChordApp::ProcessWAVPlayback(AudioHandle::OutputBuffer out, size_t size){
 2121              		.loc 3 477 84 is_stmt 1 view -0
 2122              		.cfi_startproc
 2123              		@ args = 0, pretend = 0, frame = 0
 2124              		@ frame_needed = 0, uses_anonymous_args = 0
 478:GrannyChordApp.cpp ****   for (size_t i=0; i<size; i++){
 2125              		.loc 3 478 3 view .LVU582
 477:GrannyChordApp.cpp ****   for (size_t i=0; i<size; i++){
 2126              		.loc 3 477 84 is_stmt 0 view .LVU583
 2127 0000 F0B5     		push	{r4, r5, r6, r7, lr}
 2128              		.cfi_def_cfa_offset 20
 2129              		.cfi_offset 4, -20
 2130              		.cfi_offset 5, -16
 2131              		.cfi_offset 6, -12
 2132              		.cfi_offset 7, -8
 2133              		.cfi_offset 14, -4
 2134              	.LBB556:
 2135              		.loc 3 478 15 view .LVU584
 2136 0002 0024     		movs	r4, #0
ARM GAS  /var/folders/2p/02m_5p7958535cp2tpgps0400000gn/T//ccgOSWw9.s 			page 66


 2137              	.LVL158:
 2138              	.L79:
 2139              		.loc 3 478 21 is_stmt 1 discriminator 1 view .LVU585
 2140 0004 9442     		cmp	r4, r2
 2141 0006 39D0     		beq	.L76
 479:GrannyChordApp.cpp ****     if (wav_playhead_ < filemgr_.GetSamplesPerChannel()){
 2142              		.loc 3 479 5 view .LVU586
 2143              		.loc 3 479 25 is_stmt 0 view .LVU587
 2144 0008 D0F8CC61 		ldr	r6, [r0, #460]
 2145              	.LVL159:
 2146              	.LBB557:
 2147              	.LBI557:
  27:AudioFileManager.h ****     size_t GetTotalSamples() const { return header_.total_samples; }
 2148              		.loc 8 27 12 is_stmt 1 view .LVU588
 2149              	.LBB558:
  27:AudioFileManager.h ****     size_t GetTotalSamples() const { return header_.total_samples; }
 2150              		.loc 8 27 43 view .LVU589
  27:AudioFileManager.h ****     size_t GetTotalSamples() const { return header_.total_samples; }
 2151              		.loc 8 27 43 is_stmt 0 view .LVU590
 2152              	.LBE558:
 2153              	.LBE557:
 2154              		.loc 3 479 9 view .LVU591
 2155 000c 00F58045 		add	r5, r0, #16384
 2156              	.LBB561:
 2157              	.LBB559:
  27:AudioFileManager.h ****     size_t GetTotalSamples() const { return header_.total_samples; }
 2158              		.loc 8 27 58 view .LVU592
 2159 0010 06F58056 		add	r6, r6, #4096
 2160              	.LBE559:
 2161              	.LBE561:
 2162              		.loc 3 479 9 view .LVU593
 2163 0014 D5F8FC3D 		ldr	r3, [r5, #3580]
 2164              	.LBB562:
 2165              	.LBB560:
  27:AudioFileManager.h ****     size_t GetTotalSamples() const { return header_.total_samples; }
 2166              		.loc 8 27 82 view .LVU594
 2167 0018 B6F92870 		ldrsh	r7, [r6, #40]
 2168 001c F66A     		ldr	r6, [r6, #44]
 2169 001e B6FBF7F6 		udiv	r6, r6, r7
 2170              	.LBE560:
 2171              	.LBE562:
 2172              		.loc 3 479 5 view .LVU595
 2173 0022 B342     		cmp	r3, r6
 2174 0024 28D2     		bcs	.L78
 480:GrannyChordApp.cpp ****       out[0][i] = s162f(left_buf_[wav_playhead_]) * 0.5f;
 2175              		.loc 3 480 7 is_stmt 1 view .LVU596
 2176              	.LBB563:
 2177              	.LBI563:
 2178              		.file 12 "../libDaisy/src/daisy_core.h"
   1:../libDaisy/src/daisy_core.h **** #pragma once
   2:../libDaisy/src/daisy_core.h **** #ifndef DSY_CORE_HW_H
   3:../libDaisy/src/daisy_core.h **** #define DSY_CORE_HW_H /**< & */
   4:../libDaisy/src/daisy_core.h **** #include <stdint.h>
   5:../libDaisy/src/daisy_core.h **** #include <stdlib.h>
   6:../libDaisy/src/daisy_core.h **** 
   7:../libDaisy/src/daisy_core.h **** #if defined(_MSC_VER)
   8:../libDaisy/src/daisy_core.h **** #define FORCE_INLINE __forceinline /**< & */
ARM GAS  /var/folders/2p/02m_5p7958535cp2tpgps0400000gn/T//ccgOSWw9.s 			page 67


   9:../libDaisy/src/daisy_core.h **** #elif defined(__clang__)
  10:../libDaisy/src/daisy_core.h **** #define FORCE_INLINE inline __attribute__((always_inline)) /**< & */
  11:../libDaisy/src/daisy_core.h **** #pragma clang diagnostic ignored "-Wduplicate-decl-specifier"
  12:../libDaisy/src/daisy_core.h **** #elif defined(__GNUC__)
  13:../libDaisy/src/daisy_core.h **** #define FORCE_INLINE inline __attribute__((always_inline)) /**< & */
  14:../libDaisy/src/daisy_core.h **** #else
  15:../libDaisy/src/daisy_core.h **** #error unknown compiler
  16:../libDaisy/src/daisy_core.h **** #endif
  17:../libDaisy/src/daisy_core.h **** 
  18:../libDaisy/src/daisy_core.h **** /** @addtogroup utility
  19:../libDaisy/src/daisy_core.h ****     @{
  20:../libDaisy/src/daisy_core.h **** */
  21:../libDaisy/src/daisy_core.h **** 
  22:../libDaisy/src/daisy_core.h **** /** Macro for area of memory that is configured as cacheless
  23:../libDaisy/src/daisy_core.h **** This should be used primarily for DMA buffers, and the like.
  24:../libDaisy/src/daisy_core.h **** */
  25:../libDaisy/src/daisy_core.h **** #define DMA_BUFFER_MEM_SECTION __attribute__((section(".sram1_bss")))
  26:../libDaisy/src/daisy_core.h **** /** 
  27:../libDaisy/src/daisy_core.h **** THE DTCM RAM section is also non-cached. However, is not suitable 
  28:../libDaisy/src/daisy_core.h **** for DMA transfers. Performance is on par with internal SRAM w/ 
  29:../libDaisy/src/daisy_core.h **** cache enabled.
  30:../libDaisy/src/daisy_core.h **** */
  31:../libDaisy/src/daisy_core.h **** #define DTCM_MEM_SECTION __attribute__((section(".dtcmram_bss")))
  32:../libDaisy/src/daisy_core.h **** 
  33:../libDaisy/src/daisy_core.h **** #define FBIPMAX 0.999985f             /**< close to 1.0f-LSB at 16 bit */
  34:../libDaisy/src/daisy_core.h **** #define FBIPMIN (-FBIPMAX)            /**< - (1 - LSB) */
  35:../libDaisy/src/daisy_core.h **** #define U82F_SCALE 0.0078740f         /**< 1 / 127 */
  36:../libDaisy/src/daisy_core.h **** #define F2U8_SCALE 127.0f             /**< 128 - 1 */
  37:../libDaisy/src/daisy_core.h **** #define S82F_SCALE 0.0078125f         /**< 1 / (2**7) */
  38:../libDaisy/src/daisy_core.h **** #define F2S8_SCALE 127.0f             /**< (2 ** 7) - 1 */
  39:../libDaisy/src/daisy_core.h **** #define S162F_SCALE 3.0517578125e-05f /**< 1 / (2** 15) */
  40:../libDaisy/src/daisy_core.h **** #define F2S16_SCALE 32767.0f          /**< (2 ** 15) - 1 */
  41:../libDaisy/src/daisy_core.h **** #define F2S24_SCALE 8388608.0f        /**< 2 ** 23 */
  42:../libDaisy/src/daisy_core.h **** #define S242F_SCALE 1.192092896e-07f  /**< 1 / (2 ** 23) */
  43:../libDaisy/src/daisy_core.h **** #define S24SIGN 0x800000              /**< 2 ** 23 */
  44:../libDaisy/src/daisy_core.h **** #define S322F_SCALE 4.6566129e-10f    /**< 1 / (2** 31) */
  45:../libDaisy/src/daisy_core.h **** #define F2S32_SCALE 2147483647.f      /**< (2 ** 31) - 1 */
  46:../libDaisy/src/daisy_core.h **** 
  47:../libDaisy/src/daisy_core.h **** 
  48:../libDaisy/src/daisy_core.h **** /** shorthand macro for simplifying the reading of the left 
  49:../libDaisy/src/daisy_core.h ****  *  channel of a non-interleaved output buffer named out */
  50:../libDaisy/src/daisy_core.h **** #define OUT_L out[0]
  51:../libDaisy/src/daisy_core.h **** 
  52:../libDaisy/src/daisy_core.h **** /** shorthand macro for simplifying the reading of the right 
  53:../libDaisy/src/daisy_core.h ****  *  channel of a non-interleaved output buffer named out */
  54:../libDaisy/src/daisy_core.h **** #define OUT_R out[1]
  55:../libDaisy/src/daisy_core.h **** 
  56:../libDaisy/src/daisy_core.h **** /** shorthand macro for simplifying the reading of the left 
  57:../libDaisy/src/daisy_core.h ****  *  channel of a non-interleaved input buffer named in */
  58:../libDaisy/src/daisy_core.h **** #define IN_L in[0]
  59:../libDaisy/src/daisy_core.h **** 
  60:../libDaisy/src/daisy_core.h **** /** shorthand macro for simplifying the reading of the right 
  61:../libDaisy/src/daisy_core.h ****  *  channel of a non-interleaved input buffer named in */
  62:../libDaisy/src/daisy_core.h **** #define IN_R in[1]
  63:../libDaisy/src/daisy_core.h **** 
  64:../libDaisy/src/daisy_core.h **** /** 
  65:../libDaisy/src/daisy_core.h ****     Computes cube.
ARM GAS  /var/folders/2p/02m_5p7958535cp2tpgps0400000gn/T//ccgOSWw9.s 			page 68


  66:../libDaisy/src/daisy_core.h ****     \param x Number to be cubed
  67:../libDaisy/src/daisy_core.h ****     \return x ^ 3
  68:../libDaisy/src/daisy_core.h **** */
  69:../libDaisy/src/daisy_core.h **** FORCE_INLINE float cube(float x)
  70:../libDaisy/src/daisy_core.h **** {
  71:../libDaisy/src/daisy_core.h ****     return (x * x) * x;
  72:../libDaisy/src/daisy_core.h **** }
  73:../libDaisy/src/daisy_core.h **** 
  74:../libDaisy/src/daisy_core.h **** /** 
  75:../libDaisy/src/daisy_core.h ****     Converts unsigned 8-bit to float
  76:../libDaisy/src/daisy_core.h ****     \param x Number to be scaled.
  77:../libDaisy/src/daisy_core.h ****     \return Scaled number.
  78:../libDaisy/src/daisy_core.h **** */
  79:../libDaisy/src/daisy_core.h **** FORCE_INLINE float u82f(uint8_t x)
  80:../libDaisy/src/daisy_core.h **** {
  81:../libDaisy/src/daisy_core.h ****     return ((float)x - 127.f) * U82F_SCALE;
  82:../libDaisy/src/daisy_core.h **** }
  83:../libDaisy/src/daisy_core.h **** 
  84:../libDaisy/src/daisy_core.h **** /**
  85:../libDaisy/src/daisy_core.h ****     Converts float to unsigned 8-bit
  86:../libDaisy/src/daisy_core.h **** */
  87:../libDaisy/src/daisy_core.h **** FORCE_INLINE uint8_t f2u8(float x)
  88:../libDaisy/src/daisy_core.h **** {
  89:../libDaisy/src/daisy_core.h ****     x = x <= FBIPMIN ? FBIPMIN : x;
  90:../libDaisy/src/daisy_core.h ****     x = x >= FBIPMAX ? FBIPMAX : x;
  91:../libDaisy/src/daisy_core.h ****     return (uint8_t)((x * F2U8_SCALE) + F2U8_SCALE);
  92:../libDaisy/src/daisy_core.h **** }
  93:../libDaisy/src/daisy_core.h **** 
  94:../libDaisy/src/daisy_core.h **** 
  95:../libDaisy/src/daisy_core.h **** /** 
  96:../libDaisy/src/daisy_core.h ****     Converts Signed 8-bit to float
  97:../libDaisy/src/daisy_core.h ****     \param x Number to be scaled.
  98:../libDaisy/src/daisy_core.h ****     \return Scaled number.
  99:../libDaisy/src/daisy_core.h **** */
 100:../libDaisy/src/daisy_core.h **** FORCE_INLINE float s82f(int8_t x)
 101:../libDaisy/src/daisy_core.h **** {
 102:../libDaisy/src/daisy_core.h ****     return (float)x * S82F_SCALE;
 103:../libDaisy/src/daisy_core.h **** }
 104:../libDaisy/src/daisy_core.h **** 
 105:../libDaisy/src/daisy_core.h **** /**
 106:../libDaisy/src/daisy_core.h ****     Converts float to Signed 8-bit
 107:../libDaisy/src/daisy_core.h **** */
 108:../libDaisy/src/daisy_core.h **** FORCE_INLINE int8_t f2s8(float x)
 109:../libDaisy/src/daisy_core.h **** {
 110:../libDaisy/src/daisy_core.h ****     x = x <= FBIPMIN ? FBIPMIN : x;
 111:../libDaisy/src/daisy_core.h ****     x = x >= FBIPMAX ? FBIPMAX : x;
 112:../libDaisy/src/daisy_core.h ****     return (int32_t)(x * F2S8_SCALE);
 113:../libDaisy/src/daisy_core.h **** }
 114:../libDaisy/src/daisy_core.h **** 
 115:../libDaisy/src/daisy_core.h **** /** 
 116:../libDaisy/src/daisy_core.h ****     Converts Signed 16-bit to float
 117:../libDaisy/src/daisy_core.h ****     \param x Number to be scaled.
 118:../libDaisy/src/daisy_core.h ****     \return Scaled number.
 119:../libDaisy/src/daisy_core.h **** */
 120:../libDaisy/src/daisy_core.h **** FORCE_INLINE float s162f(int16_t x)
 2179              		.loc 12 120 20 view .LVU597
 2180              	.LBB564:
ARM GAS  /var/folders/2p/02m_5p7958535cp2tpgps0400000gn/T//ccgOSWw9.s 			page 69


 121:../libDaisy/src/daisy_core.h **** {
 122:../libDaisy/src/daisy_core.h ****     return (float)x * S162F_SCALE;
 2181              		.loc 12 122 5 view .LVU598
 2182              	.LBE564:
 2183              	.LBE563:
 2184              		.loc 3 480 24 is_stmt 0 view .LVU599
 2185 0026 D5F8F07D 		ldr	r7, [r5, #3568]
 2186              		.loc 3 480 51 view .LVU600
 2187 002a F6EE006A 		vmov.f32	s13, #5.0e-1
 2188              	.LBB569:
 2189              	.LBB565:
 2190              		.loc 12 122 23 view .LVU601
 2191 002e 9FED146A 		vldr.32	s12, .L81
 2192              		.loc 12 122 12 view .LVU602
 2193 0032 37F91370 		ldrsh	r7, [r7, r3, lsl #1]
 2194              	.LBE565:
 2195              	.LBE569:
 2196              		.loc 3 480 17 view .LVU603
 2197 0036 0E68     		ldr	r6, [r1]
 2198              	.LBB570:
 2199              	.LBB566:
 2200              		.loc 12 122 12 view .LVU604
 2201 0038 07EE107A 		vmov	s14, r7	@ int
 2202              	.LBE566:
 2203              	.LBE570:
 481:GrannyChordApp.cpp ****       out[1][i] = s162f(right_buf_[wav_playhead_]) * 0.5f;
 2204              		.loc 3 481 24 view .LVU605
 2205 003c D5F8F47D 		ldr	r7, [r5, #3572]
 480:GrannyChordApp.cpp ****       out[1][i] = s162f(right_buf_[wav_playhead_]) * 0.5f;
 2206              		.loc 3 480 17 view .LVU606
 2207 0040 06EB8406 		add	r6, r6, r4, lsl #2
 2208              	.LBB571:
 2209              	.LBB572:
 2210              		.loc 12 122 12 view .LVU607
 2211 0044 37F91370 		ldrsh	r7, [r7, r3, lsl #1]
 2212              	.LBE572:
 2213              	.LBE571:
 2214              	.LBB577:
 2215              	.LBB567:
 2216 0048 B8EEC77A 		vcvt.f32.s32	s14, s14
 2217              	.LBE567:
 2218              	.LBE577:
 482:GrannyChordApp.cpp ****       wav_playhead_++;
 2219              		.loc 3 482 20 view .LVU608
 2220 004c 0133     		adds	r3, r3, #1
 2221              	.LBB578:
 2222              	.LBB573:
 2223              		.loc 12 122 12 view .LVU609
 2224 004e 07EE907A 		vmov	s15, r7	@ int
 2225              	.LBE573:
 2226              	.LBE578:
 2227              	.LBB579:
 2228              	.LBB568:
 2229              		.loc 12 122 23 view .LVU610
 2230 0052 27EE067A 		vmul.f32	s14, s14, s12
 2231              	.LBE568:
 2232              	.LBE579:
ARM GAS  /var/folders/2p/02m_5p7958535cp2tpgps0400000gn/T//ccgOSWw9.s 			page 70


 2233              	.LBB580:
 2234              	.LBB574:
 2235              		.loc 12 122 12 view .LVU611
 2236 0056 F8EEE77A 		vcvt.f32.s32	s15, s15
 2237              	.LBE574:
 2238              	.LBE580:
 480:GrannyChordApp.cpp ****       out[1][i] = s162f(right_buf_[wav_playhead_]) * 0.5f;
 2239              		.loc 3 480 51 view .LVU612
 2240 005a 27EE267A 		vmul.f32	s14, s14, s13
 2241              	.LBB581:
 2242              	.LBB575:
 2243              		.loc 12 122 23 view .LVU613
 2244 005e 67EE867A 		vmul.f32	s15, s15, s12
 2245              	.LBE575:
 2246              	.LBE581:
 480:GrannyChordApp.cpp ****       out[1][i] = s162f(right_buf_[wav_playhead_]) * 0.5f;
 2247              		.loc 3 480 17 view .LVU614
 2248 0062 86ED007A 		vstr.32	s14, [r6]
 481:GrannyChordApp.cpp ****       out[1][i] = s162f(right_buf_[wav_playhead_]) * 0.5f;
 2249              		.loc 3 481 7 is_stmt 1 view .LVU615
 2250              	.LBB582:
 2251              	.LBI571:
 120:../libDaisy/src/daisy_core.h **** {
 2252              		.loc 12 120 20 view .LVU616
 2253              	.LBB576:
 2254              		.loc 12 122 5 view .LVU617
 2255              	.LBE576:
 2256              	.LBE582:
 481:GrannyChordApp.cpp ****       wav_playhead_++;
 2257              		.loc 3 481 17 is_stmt 0 view .LVU618
 2258 0066 4E68     		ldr	r6, [r1, #4]
 481:GrannyChordApp.cpp ****       wav_playhead_++;
 2259              		.loc 3 481 52 view .LVU619
 2260 0068 67EEA67A 		vmul.f32	s15, s15, s13
 481:GrannyChordApp.cpp ****       wav_playhead_++;
 2261              		.loc 3 481 17 view .LVU620
 2262 006c 06EB8406 		add	r6, r6, r4, lsl #2
 2263 0070 C6ED007A 		vstr.32	s15, [r6]
 2264              		.loc 3 482 7 is_stmt 1 view .LVU621
 2265              		.loc 3 482 20 is_stmt 0 view .LVU622
 2266 0074 C5F8FC3D 		str	r3, [r5, #3580]
 2267              	.L78:
 478:GrannyChordApp.cpp ****     if (wav_playhead_ < filemgr_.GetSamplesPerChannel()){
 2268              		.loc 3 478 3 is_stmt 1 discriminator 2 view .LVU623
 2269 0078 0134     		adds	r4, r4, #1
 2270              	.LVL160:
 478:GrannyChordApp.cpp ****     if (wav_playhead_ < filemgr_.GetSamplesPerChannel()){
 2271              		.loc 3 478 3 is_stmt 0 discriminator 2 view .LVU624
 2272 007a C3E7     		b	.L79
 2273              	.L76:
 478:GrannyChordApp.cpp ****     if (wav_playhead_ < filemgr_.GetSamplesPerChannel()){
 2274              		.loc 3 478 3 discriminator 2 view .LVU625
 2275              	.LBE556:
 483:GrannyChordApp.cpp ****     }
 484:GrannyChordApp.cpp ****   }
 485:GrannyChordApp.cpp **** }
 2276              		.loc 3 485 1 view .LVU626
ARM GAS  /var/folders/2p/02m_5p7958535cp2tpgps0400000gn/T//ccgOSWw9.s 			page 71


 2277 007c F0BD     		pop	{r4, r5, r6, r7, pc}
 2278              	.LVL161:
 2279              	.L82:
 2280              		.loc 3 485 1 view .LVU627
 2281 007e 00BF     		.align	2
 2282              	.L81:
 2283 0080 00000038 		.word	939524096
 2284              		.cfi_endproc
 2285              	.LFE4930:
 2287              		.section	.text._ZN14GrannyChordApp15ProcessRecordInEPKPKfPPfj,"ax",%progbits
 2288              		.align	1
 2289              		.global	_ZN14GrannyChordApp15ProcessRecordInEPKPKfPPfj
 2290              		.syntax unified
 2291              		.thumb
 2292              		.thumb_func
 2294              	_ZN14GrannyChordApp15ProcessRecordInEPKPKfPPfj:
 2295              	.LVL162:
 2296              	.LFB4931:
 486:GrannyChordApp.cpp **** 
 487:GrannyChordApp.cpp **** /// @brief Process input audio when app is in RecordIn state
 488:GrannyChordApp.cpp **** /// @param in Input audio buffer
 489:GrannyChordApp.cpp **** /// @param out Output audio buffer
 490:GrannyChordApp.cpp **** /// @param size Number of samples to process in this call
 491:GrannyChordApp.cpp **** void GrannyChordApp::ProcessRecordIn(AudioHandle::InputBuffer in, AudioHandle::OutputBuffer out, si
 2297              		.loc 3 491 110 is_stmt 1 view -0
 2298              		.cfi_startproc
 2299              		@ args = 0, pretend = 0, frame = 0
 2300              		@ frame_needed = 0, uses_anonymous_args = 0
 492:GrannyChordApp.cpp ****   const size_t MAX_RECORDING_LEN = 120*48000; /* 120s @ 48kHZ */
 2301              		.loc 3 492 3 view .LVU629
 493:GrannyChordApp.cpp ****   for (size_t i=0; i<size;i++){
 2302              		.loc 3 493 3 view .LVU630
 491:GrannyChordApp.cpp ****   const size_t MAX_RECORDING_LEN = 120*48000; /* 120s @ 48kHZ */
 2303              		.loc 3 491 110 is_stmt 0 view .LVU631
 2304 0000 F0B5     		push	{r4, r5, r6, r7, lr}
 2305              		.cfi_def_cfa_offset 20
 2306              		.cfi_offset 4, -20
 2307              		.cfi_offset 5, -16
 2308              		.cfi_offset 6, -12
 2309              		.cfi_offset 7, -8
 2310              		.cfi_offset 14, -4
 2311              	.LBB583:
 2312              		.loc 3 493 15 view .LVU632
 2313 0002 0025     		movs	r5, #0
 2314              	.LVL163:
 2315              	.L85:
 2316              		.loc 3 493 21 is_stmt 1 discriminator 3 view .LVU633
 2317 0004 9D42     		cmp	r5, r3
 2318 0006 33D0     		beq	.L83
 494:GrannyChordApp.cpp ****     /* send audio in straight to output for monitoring */
 495:GrannyChordApp.cpp ****     out[0][i]=in[0][i];
 2319              		.loc 3 495 5 discriminator 2 view .LVU634
 2320              		.loc 3 495 22 is_stmt 0 discriminator 2 view .LVU635
 2321 0008 0E68     		ldr	r6, [r1]
 496:GrannyChordApp.cpp ****     out[1][i]=in[1][i];
 497:GrannyChordApp.cpp ****     /* record audio in to SDRAM buffers */
 498:GrannyChordApp.cpp ****     left_buf_[record_in_pos_] = in[0][i];
ARM GAS  /var/folders/2p/02m_5p7958535cp2tpgps0400000gn/T//ccgOSWw9.s 			page 72


 2322              		.loc 3 498 15 discriminator 2 view .LVU636
 2323 000a 00F5504C 		add	ip, r0, #53248
 495:GrannyChordApp.cpp ****     out[1][i]=in[1][i];
 2324              		.loc 3 495 14 discriminator 2 view .LVU637
 2325 000e 1468     		ldr	r4, [r2]
 2326              		.loc 3 498 31 discriminator 2 view .LVU638
 2327 0010 00F5804E 		add	lr, r0, #16384
 495:GrannyChordApp.cpp ****     out[1][i]=in[1][i];
 2328              		.loc 3 495 22 discriminator 2 view .LVU639
 2329 0014 06EB8506 		add	r6, r6, r5, lsl #2
 495:GrannyChordApp.cpp ****     out[1][i]=in[1][i];
 2330              		.loc 3 495 14 discriminator 2 view .LVU640
 2331 0018 04EB8504 		add	r4, r4, r5, lsl #2
 495:GrannyChordApp.cpp ****     out[1][i]=in[1][i];
 2332              		.loc 3 495 22 discriminator 2 view .LVU641
 2333 001c 3768     		ldr	r7, [r6]	@ float
 495:GrannyChordApp.cpp ****     out[1][i]=in[1][i];
 2334              		.loc 3 495 14 discriminator 2 view .LVU642
 2335 001e 2760     		str	r7, [r4]	@ float
 496:GrannyChordApp.cpp ****     out[1][i]=in[1][i];
 2336              		.loc 3 496 5 is_stmt 1 discriminator 2 view .LVU643
 496:GrannyChordApp.cpp ****     out[1][i]=in[1][i];
 2337              		.loc 3 496 22 is_stmt 0 discriminator 2 view .LVU644
 2338 0020 4C68     		ldr	r4, [r1, #4]
 2339              		.loc 3 498 31 discriminator 2 view .LVU645
 2340 0022 DEF8F07D 		ldr	r7, [lr, #3568]
 496:GrannyChordApp.cpp ****     out[1][i]=in[1][i];
 2341              		.loc 3 496 22 discriminator 2 view .LVU646
 2342 0026 04EB8504 		add	r4, r4, r5, lsl #2
 2343 002a D4ED007A 		vldr.32	s15, [r4]
 496:GrannyChordApp.cpp ****     out[1][i]=in[1][i];
 2344              		.loc 3 496 14 discriminator 2 view .LVU647
 2345 002e 5468     		ldr	r4, [r2, #4]
 2346 0030 04EB8504 		add	r4, r4, r5, lsl #2
 493:GrannyChordApp.cpp ****     /* send audio in straight to output for monitoring */
 2347              		.loc 3 493 3 discriminator 2 view .LVU648
 2348 0034 0135     		adds	r5, r5, #1
 2349              	.LVL164:
 496:GrannyChordApp.cpp ****     out[1][i]=in[1][i];
 2350              		.loc 3 496 14 discriminator 2 view .LVU649
 2351 0036 C4ED007A 		vstr.32	s15, [r4]
 2352              		.loc 3 498 5 is_stmt 1 discriminator 2 view .LVU650
 499:GrannyChordApp.cpp ****     right_buf_[record_in_pos_] = in[1][i];
 2353              		.loc 3 499 32 is_stmt 0 discriminator 2 view .LVU651
 2354 003a FDEEE77A 		vcvt.s32.f32	s15, s15
 498:GrannyChordApp.cpp ****     right_buf_[record_in_pos_] = in[1][i];
 2355              		.loc 3 498 31 discriminator 2 view .LVU652
 2356 003e 96ED007A 		vldr.32	s14, [r6]
 498:GrannyChordApp.cpp ****     right_buf_[record_in_pos_] = in[1][i];
 2357              		.loc 3 498 15 discriminator 2 view .LVU653
 2358 0042 DCF88041 		ldr	r4, [ip, #384]
 498:GrannyChordApp.cpp ****     right_buf_[record_in_pos_] = in[1][i];
 2359              		.loc 3 498 31 discriminator 2 view .LVU654
 2360 0046 BDEEC77A 		vcvt.s32.f32	s14, s14
 2361 004a 17EE106A 		vmov	r6, s14	@ int
 2362 004e 27F81460 		strh	r6, [r7, r4, lsl #1]	@ movhi
 2363              		.loc 3 499 5 is_stmt 1 discriminator 2 view .LVU655
ARM GAS  /var/folders/2p/02m_5p7958535cp2tpgps0400000gn/T//ccgOSWw9.s 			page 73


 2364              		.loc 3 499 32 is_stmt 0 discriminator 2 view .LVU656
 2365 0052 17EE907A 		vmov	r7, s15	@ int
 2366 0056 DEF8F46D 		ldr	r6, [lr, #3572]
 2367 005a 26F81470 		strh	r7, [r6, r4, lsl #1]	@ movhi
 500:GrannyChordApp.cpp ****     /* wrap around recording length - if it exceeds 120s,
 501:GrannyChordApp.cpp ****       the start of the recording will be overwritten */
 502:GrannyChordApp.cpp ****     record_in_pos_ = (record_in_pos_+1)%MAX_RECORDING_LEN;
 2368              		.loc 3 502 5 is_stmt 1 discriminator 2 view .LVU657
 2369              		.loc 3 502 37 is_stmt 0 discriminator 2 view .LVU658
 2370 005e 0134     		adds	r4, r4, #1
 2371              		.loc 3 502 40 discriminator 2 view .LVU659
 2372 0060 044E     		ldr	r6, .L87
 2373 0062 B4FBF6F7 		udiv	r7, r4, r6
 2374 0066 06FB1744 		mls	r4, r6, r7, r4
 2375              		.loc 3 502 20 discriminator 2 view .LVU660
 2376 006a CCF88041 		str	r4, [ip, #384]
 493:GrannyChordApp.cpp ****     /* send audio in straight to output for monitoring */
 2377              		.loc 3 493 3 is_stmt 1 discriminator 2 view .LVU661
 2378              	.LVL165:
 493:GrannyChordApp.cpp ****     /* send audio in straight to output for monitoring */
 2379              		.loc 3 493 3 is_stmt 0 discriminator 2 view .LVU662
 2380 006e C9E7     		b	.L85
 2381              	.L83:
 493:GrannyChordApp.cpp ****     /* send audio in straight to output for monitoring */
 2382              		.loc 3 493 3 discriminator 2 view .LVU663
 2383              	.LBE583:
 503:GrannyChordApp.cpp ****   }
 504:GrannyChordApp.cpp **** }
 2384              		.loc 3 504 1 view .LVU664
 2385 0070 F0BD     		pop	{r4, r5, r6, r7, pc}
 2386              	.LVL166:
 2387              	.L88:
 2388              		.loc 3 504 1 view .LVU665
 2389 0072 00BF     		.align	2
 2390              	.L87:
 2391 0074 00E45700 		.word	5760000
 2392              		.cfi_endproc
 2393              	.LFE4931:
 2395              		.section	.text._ZN14GrannyChordApp9ProcessFXE6Sample,"ax",%progbits
 2396              		.align	1
 2397              		.global	_ZN14GrannyChordApp9ProcessFXE6Sample
 2398              		.syntax unified
 2399              		.thumb
 2400              		.thumb_func
 2402              	_ZN14GrannyChordApp9ProcessFXE6Sample:
 2403              	.LVL167:
 2404              	.LFB4933:
 505:GrannyChordApp.cpp **** 
 506:GrannyChordApp.cpp **** /// @brief Process audio through granular synth and mix to output buffer
 507:GrannyChordApp.cpp **** /// @param out Output audio buffer
 508:GrannyChordApp.cpp **** /// @param size Number of samples to process in this call
 509:GrannyChordApp.cpp **** void GrannyChordApp::ProcessSynthesis(AudioHandle::OutputBuffer out, size_t size){
 510:GrannyChordApp.cpp ****   Sample samp;
 511:GrannyChordApp.cpp ****   for (size_t i=0; i<size; i++){ 
 512:GrannyChordApp.cpp ****     samp = synth_.ProcessGrains();
 513:GrannyChordApp.cpp ****     samp = ProcessFX(samp);
 514:GrannyChordApp.cpp ****     // out[0][i] = samp.left;
ARM GAS  /var/folders/2p/02m_5p7958535cp2tpgps0400000gn/T//ccgOSWw9.s 			page 74


 515:GrannyChordApp.cpp ****     // out[1][i] = samp.right;
 516:GrannyChordApp.cpp ****     limiter_.ProcessBlock(&samp.left, 1, 1.0f);
 517:GrannyChordApp.cpp ****     limiter_.ProcessBlock(&samp.right, 1, 1.0f);
 518:GrannyChordApp.cpp ****     out[0][i] = samp.left;
 519:GrannyChordApp.cpp ****     out[1][i] = samp.right;
 520:GrannyChordApp.cpp **** 
 521:GrannyChordApp.cpp ****     if (recording_out_ && sd_writer_.GetLengthSeconds()<MAX_REC_OUT_LEN){
 522:GrannyChordApp.cpp ****       temp_interleaved_buf_[0]=out[0][i];
 523:GrannyChordApp.cpp ****       temp_interleaved_buf_[1]=out[1][i];
 524:GrannyChordApp.cpp ****       sd_writer_.Sample(temp_interleaved_buf_);
 525:GrannyChordApp.cpp ****     }
 526:GrannyChordApp.cpp ****   }
 527:GrannyChordApp.cpp **** }
 528:GrannyChordApp.cpp **** 
 529:GrannyChordApp.cpp **** Sample GrannyChordApp::ProcessFX(Sample in){
 2405              		.loc 3 529 44 is_stmt 1 view -0
 2406              		.cfi_startproc
 2407              		@ args = 0, pretend = 0, frame = 40
 2408              		@ frame_needed = 0, uses_anonymous_args = 0
 530:GrannyChordApp.cpp ****   Sample out;
 2409              		.loc 3 530 3 view .LVU667
 531:GrannyChordApp.cpp ****   /* hipass: remove rumble */
 532:GrannyChordApp.cpp ****   out.left = hipass_.Process(in.left);
 2410              		.loc 3 532 3 view .LVU668
 529:GrannyChordApp.cpp ****   Sample out;
 2411              		.loc 3 529 44 is_stmt 0 view .LVU669
 2412 0000 30B5     		push	{r4, r5, lr}
 2413              		.cfi_def_cfa_offset 12
 2414              		.cfi_offset 4, -12
 2415              		.cfi_offset 5, -8
 2416              		.cfi_offset 14, -4
 2417              		.loc 3 532 29 view .LVU670
 2418 0002 00F59B45 		add	r5, r0, #19840
 529:GrannyChordApp.cpp ****   Sample out;
 2419              		.loc 3 529 44 view .LVU671
 2420 0006 8DB0     		sub	sp, sp, #52
 2421              		.cfi_def_cfa_offset 64
 529:GrannyChordApp.cpp ****   Sample out;
 2422              		.loc 3 529 44 view .LVU672
 2423 0008 0446     		mov	r4, r0
 2424              		.loc 3 532 29 view .LVU673
 2425 000a 5035     		adds	r5, r5, #80
 529:GrannyChordApp.cpp ****   Sample out;
 2426              		.loc 3 529 44 view .LVU674
 2427 000c CDED070A 		vstr.32	s1, [sp, #28]
 2428              		.loc 3 532 29 view .LVU675
 2429 0010 2846     		mov	r0, r5
 2430              	.LVL168:
 2431              		.loc 3 532 29 view .LVU676
 2432 0012 FFF7FEFF 		bl	_ZN7daisysp7OnePole7ProcessEf
 2433              	.LVL169:
 533:GrannyChordApp.cpp ****   out.right = hipass_.Process(in.right);
 2434              		.loc 3 533 30 view .LVU677
 2435 0016 2846     		mov	r0, r5
 532:GrannyChordApp.cpp ****   out.right = hipass_.Process(in.right);
 2436              		.loc 3 532 12 view .LVU678
 2437 0018 8DED080A 		vstr.32	s0, [sp, #32]
ARM GAS  /var/folders/2p/02m_5p7958535cp2tpgps0400000gn/T//ccgOSWw9.s 			page 75


 2438              		.loc 3 533 3 is_stmt 1 view .LVU679
 534:GrannyChordApp.cpp **** 
 535:GrannyChordApp.cpp ****   // /* apply compression to reduce gain changes */
 536:GrannyChordApp.cpp ****   out.left = comp_.Process(out.left);
 537:GrannyChordApp.cpp ****   out.right = comp_.Process(out.right);
 538:GrannyChordApp.cpp **** 
 539:GrannyChordApp.cpp ****   /* apply lowpass filter */
 540:GrannyChordApp.cpp ****   out.left = lowpass_moog_.Process(out.left);
 2439              		.loc 3 540 35 is_stmt 0 view .LVU680
 2440 001c 04F59B45 		add	r5, r4, #19840
 533:GrannyChordApp.cpp **** 
 2441              		.loc 3 533 30 view .LVU681
 2442 0020 9DED070A 		vldr.32	s0, [sp, #28]
 2443 0024 FFF7FEFF 		bl	_ZN7daisysp7OnePole7ProcessEf
 2444              	.LVL170:
 536:GrannyChordApp.cpp ****   out.right = comp_.Process(out.right);
 2445              		.loc 3 536 27 view .LVU682
 2446 0028 04F5F470 		add	r0, r4, #488
 2447              		.loc 3 540 35 view .LVU683
 2448 002c 0C35     		adds	r5, r5, #12
 533:GrannyChordApp.cpp **** 
 2449              		.loc 3 533 13 view .LVU684
 2450 002e 8DED090A 		vstr.32	s0, [sp, #36]
 536:GrannyChordApp.cpp ****   out.right = comp_.Process(out.right);
 2451              		.loc 3 536 3 is_stmt 1 view .LVU685
 536:GrannyChordApp.cpp ****   out.right = comp_.Process(out.right);
 2452              		.loc 3 536 27 is_stmt 0 view .LVU686
 2453 0032 9DED080A 		vldr.32	s0, [sp, #32]
 2454 0036 0390     		str	r0, [sp, #12]
 2455 0038 FFF7FEFF 		bl	_ZN7daisysp10Compressor7ProcessEf
 2456              	.LVL171:
 537:GrannyChordApp.cpp **** 
 2457              		.loc 3 537 28 view .LVU687
 2458 003c 0398     		ldr	r0, [sp, #12]
 536:GrannyChordApp.cpp ****   out.right = comp_.Process(out.right);
 2459              		.loc 3 536 12 view .LVU688
 2460 003e 8DED080A 		vstr.32	s0, [sp, #32]
 537:GrannyChordApp.cpp **** 
 2461              		.loc 3 537 3 is_stmt 1 view .LVU689
 537:GrannyChordApp.cpp **** 
 2462              		.loc 3 537 28 is_stmt 0 view .LVU690
 2463 0042 9DED090A 		vldr.32	s0, [sp, #36]
 2464 0046 FFF7FEFF 		bl	_ZN7daisysp10Compressor7ProcessEf
 2465              	.LVL172:
 2466              		.loc 3 540 35 view .LVU691
 2467 004a 2846     		mov	r0, r5
 537:GrannyChordApp.cpp **** 
 2468              		.loc 3 537 13 view .LVU692
 2469 004c 8DED090A 		vstr.32	s0, [sp, #36]
 2470              		.loc 3 540 3 is_stmt 1 view .LVU693
 2471              		.loc 3 540 35 is_stmt 0 view .LVU694
 2472 0050 9DED080A 		vldr.32	s0, [sp, #32]
 2473 0054 FFF7FEFF 		bl	_ZN7daisysp10MoogLadder7ProcessEf
 2474              	.LVL173:
 541:GrannyChordApp.cpp ****   out.right = lowpass_moog_.Process(out.right);
 2475              		.loc 3 541 36 view .LVU695
 2476 0058 2846     		mov	r0, r5
ARM GAS  /var/folders/2p/02m_5p7958535cp2tpgps0400000gn/T//ccgOSWw9.s 			page 76


 540:GrannyChordApp.cpp ****   out.right = lowpass_moog_.Process(out.right);
 2477              		.loc 3 540 12 view .LVU696
 2478 005a 8DED080A 		vstr.32	s0, [sp, #32]
 2479              		.loc 3 541 3 is_stmt 1 view .LVU697
 542:GrannyChordApp.cpp **** 
 543:GrannyChordApp.cpp ****   /* apply chorus */
 544:GrannyChordApp.cpp ****   out.left = chorus_.Process(out.left);
 545:GrannyChordApp.cpp ****   out.right = chorus_.Process(out.right);
 546:GrannyChordApp.cpp **** 
 547:GrannyChordApp.cpp ****   /* apply reverb */
 548:GrannyChordApp.cpp ****   reverb_.ProcessMix(out.left, out.right, &out.left, &out.right);
 2480              		.loc 3 548 21 is_stmt 0 view .LVU698
 2481 005e 08AD     		add	r5, sp, #32
 541:GrannyChordApp.cpp **** 
 2482              		.loc 3 541 36 view .LVU699
 2483 0060 9DED090A 		vldr.32	s0, [sp, #36]
 2484 0064 FFF7FEFF 		bl	_ZN7daisysp10MoogLadder7ProcessEf
 2485              	.LVL174:
 544:GrannyChordApp.cpp ****   out.right = chorus_.Process(out.right);
 2486              		.loc 3 544 29 view .LVU700
 2487 0068 04F50C70 		add	r0, r4, #560
 541:GrannyChordApp.cpp **** 
 2488              		.loc 3 541 13 view .LVU701
 2489 006c 8DED090A 		vstr.32	s0, [sp, #36]
 544:GrannyChordApp.cpp ****   out.right = chorus_.Process(out.right);
 2490              		.loc 3 544 3 is_stmt 1 view .LVU702
 544:GrannyChordApp.cpp ****   out.right = chorus_.Process(out.right);
 2491              		.loc 3 544 29 is_stmt 0 view .LVU703
 2492 0070 9DED080A 		vldr.32	s0, [sp, #32]
 2493 0074 0390     		str	r0, [sp, #12]
 2494 0076 FFF7FEFF 		bl	_ZN7daisysp6Chorus7ProcessEf
 2495              	.LVL175:
 545:GrannyChordApp.cpp **** 
 2496              		.loc 3 545 30 view .LVU704
 2497 007a 0398     		ldr	r0, [sp, #12]
 544:GrannyChordApp.cpp ****   out.right = chorus_.Process(out.right);
 2498              		.loc 3 544 12 view .LVU705
 2499 007c 8DED080A 		vstr.32	s0, [sp, #32]
 545:GrannyChordApp.cpp **** 
 2500              		.loc 3 545 3 is_stmt 1 view .LVU706
 545:GrannyChordApp.cpp **** 
 2501              		.loc 3 545 30 is_stmt 0 view .LVU707
 2502 0080 9DED090A 		vldr.32	s0, [sp, #36]
 2503 0084 FFF7FEFF 		bl	_ZN7daisysp6Chorus7ProcessEf
 2504              	.LVL176:
 2505              		.loc 3 548 21 view .LVU708
 2506 0088 09AA     		add	r2, sp, #36
 2507 008a 2B46     		mov	r3, r5
 2508 008c 2946     		mov	r1, r5
 2509 008e 0092     		str	r2, [sp]
 2510 0090 D4F82C02 		ldr	r0, [r4, #556]
 549:GrannyChordApp.cpp **** 
 550:GrannyChordApp.cpp ****   out.left = hicut_.Process(out.left);
 2511              		.loc 3 550 28 view .LVU709
 2512 0094 04F59B44 		add	r4, r4, #19840
 2513              	.LVL177:
 545:GrannyChordApp.cpp **** 
ARM GAS  /var/folders/2p/02m_5p7958535cp2tpgps0400000gn/T//ccgOSWw9.s 			page 77


 2514              		.loc 3 545 13 view .LVU710
 2515 0098 8DED090A 		vstr.32	s0, [sp, #36]
 548:GrannyChordApp.cpp **** 
 2516              		.loc 3 548 3 is_stmt 1 view .LVU711
 548:GrannyChordApp.cpp **** 
 2517              		.loc 3 548 21 is_stmt 0 view .LVU712
 2518 009c FFF7FEFF 		bl	_ZN7daisysp8ReverbSc10ProcessMixERKfS2_PfS3_
 2519              	.LVL178:
 2520              		.loc 3 550 3 is_stmt 1 view .LVU713
 2521              		.loc 3 550 28 is_stmt 0 view .LVU714
 2522 00a0 6034     		adds	r4, r4, #96
 2523 00a2 9DED080A 		vldr.32	s0, [sp, #32]
 2524 00a6 2046     		mov	r0, r4
 2525 00a8 FFF7FEFF 		bl	_ZN7daisysp7OnePole7ProcessEf
 2526              	.LVL179:
 551:GrannyChordApp.cpp ****   out.right = hicut_.Process(out.right);
 2527              		.loc 3 551 29 view .LVU715
 2528 00ac 2046     		mov	r0, r4
 550:GrannyChordApp.cpp ****   out.right = hicut_.Process(out.right);
 2529              		.loc 3 550 12 view .LVU716
 2530 00ae 8DED080A 		vstr.32	s0, [sp, #32]
 2531              		.loc 3 551 3 is_stmt 1 view .LVU717
 2532              		.loc 3 551 29 is_stmt 0 view .LVU718
 2533 00b2 9DED090A 		vldr.32	s0, [sp, #36]
 2534 00b6 FFF7FEFF 		bl	_ZN7daisysp7OnePole7ProcessEf
 2535              	.LVL180:
 552:GrannyChordApp.cpp ****   return out;
 2536              		.loc 3 552 10 view .LVU719
 2537 00ba 0CAB     		add	r3, sp, #48
 551:GrannyChordApp.cpp ****   out.right = hicut_.Process(out.right);
 2538              		.loc 3 551 13 view .LVU720
 2539 00bc 8DED090A 		vstr.32	s0, [sp, #36]
 2540              		.loc 3 552 3 is_stmt 1 view .LVU721
 2541              		.loc 3 552 10 is_stmt 0 view .LVU722
 2542 00c0 95E80300 		ldm	r5, {r0, r1}
 2543 00c4 03E90300 		stmdb	r3, {r0, r1}
 553:GrannyChordApp.cpp **** }
 2544              		.loc 3 553 1 view .LVU723
 2545 00c8 9DED0A0A 		vldr.32	s0, [sp, #40]
 2546 00cc DDED0B0A 		vldr.32	s1, [sp, #44]
 2547 00d0 0DB0     		add	sp, sp, #52
 2548              		.cfi_def_cfa_offset 12
 2549              		@ sp needed
 2550 00d2 30BD     		pop	{r4, r5, pc}
 2551              		.loc 3 553 1 view .LVU724
 2552              		.cfi_endproc
 2553              	.LFE4933:
 2555              		.section	.text._ZN14GrannyChordApp16ProcessSynthesisEPPfj,"ax",%progbits
 2556              		.align	1
 2557              		.global	_ZN14GrannyChordApp16ProcessSynthesisEPPfj
 2558              		.syntax unified
 2559              		.thumb
 2560              		.thumb_func
 2562              	_ZN14GrannyChordApp16ProcessSynthesisEPPfj:
 2563              	.LVL181:
 2564              	.LFB4932:
 509:GrannyChordApp.cpp ****   Sample samp;
ARM GAS  /var/folders/2p/02m_5p7958535cp2tpgps0400000gn/T//ccgOSWw9.s 			page 78


 2565              		.loc 3 509 82 is_stmt 1 view -0
 2566              		.cfi_startproc
 2567              		@ args = 0, pretend = 0, frame = 16
 2568              		@ frame_needed = 0, uses_anonymous_args = 0
 510:GrannyChordApp.cpp ****   for (size_t i=0; i<size; i++){ 
 2569              		.loc 3 510 3 view .LVU726
 511:GrannyChordApp.cpp ****     samp = synth_.ProcessGrains();
 2570              		.loc 3 511 3 view .LVU727
 509:GrannyChordApp.cpp ****   Sample samp;
 2571              		.loc 3 509 82 is_stmt 0 view .LVU728
 2572 0000 2DE9F04F 		push	{r4, r5, r6, r7, r8, r9, r10, fp, lr}
 2573              		.cfi_def_cfa_offset 36
 2574              		.cfi_offset 4, -36
 2575              		.cfi_offset 5, -32
 2576              		.cfi_offset 6, -28
 2577              		.cfi_offset 7, -24
 2578              		.cfi_offset 8, -20
 2579              		.cfi_offset 9, -16
 2580              		.cfi_offset 10, -12
 2581              		.cfi_offset 11, -8
 2582              		.cfi_offset 14, -4
 2583 0004 0446     		mov	r4, r0
 2584 0006 85B0     		sub	sp, sp, #20
 2585              		.cfi_def_cfa_offset 56
 509:GrannyChordApp.cpp ****   Sample samp;
 2586              		.loc 3 509 82 view .LVU729
 2587 0008 0E46     		mov	r6, r1
 2588 000a 9346     		mov	fp, r2
 2589              	.LBB597:
 511:GrannyChordApp.cpp ****     samp = synth_.ProcessGrains();
 2590              		.loc 3 511 15 view .LVU730
 2591 000c 0025     		movs	r5, #0
 2592              	.LVL182:
 2593              	.L105:
 511:GrannyChordApp.cpp ****     samp = synth_.ProcessGrains();
 2594              		.loc 3 511 21 is_stmt 1 discriminator 1 view .LVU731
 2595 000e 5D45     		cmp	r5, fp
 2596 0010 00F0C780 		beq	.L90
 512:GrannyChordApp.cpp ****     samp = ProcessFX(samp);
 2597              		.loc 3 512 5 view .LVU732
 512:GrannyChordApp.cpp ****     samp = ProcessFX(samp);
 2598              		.loc 3 512 33 is_stmt 0 view .LVU733
 2599 0014 04F12000 		add	r0, r4, #32
 2600 0018 FFF7FEFF 		bl	_ZN13GranularSynth13ProcessGrainsEv
 2601              	.LVL183:
 513:GrannyChordApp.cpp ****     // out[0][i] = samp.left;
 2602              		.loc 3 513 26 view .LVU734
 2603 001c 2046     		mov	r0, r4
 512:GrannyChordApp.cpp ****     samp = ProcessFX(samp);
 2604              		.loc 3 512 33 view .LVU735
 2605 001e CDED030A 		vstr.32	s1, [sp, #12]
 513:GrannyChordApp.cpp ****     // out[0][i] = samp.left;
 2606              		.loc 3 513 5 is_stmt 1 view .LVU736
 512:GrannyChordApp.cpp ****     samp = ProcessFX(samp);
 2607              		.loc 3 512 33 is_stmt 0 view .LVU737
 2608 0022 8DED020A 		vstr.32	s0, [sp, #8]
 513:GrannyChordApp.cpp ****     // out[0][i] = samp.left;
ARM GAS  /var/folders/2p/02m_5p7958535cp2tpgps0400000gn/T//ccgOSWw9.s 			page 79


 2609              		.loc 3 513 26 view .LVU738
 2610 0026 FFF7FEFF 		bl	_ZN14GrannyChordApp9ProcessFXE6Sample
 2611              	.LVL184:
 516:GrannyChordApp.cpp ****     limiter_.ProcessBlock(&samp.right, 1, 1.0f);
 2612              		.loc 3 516 26 view .LVU739
 2613 002a 04F50A70 		add	r0, r4, #552
 2614 002e 0122     		movs	r2, #1
 2615 0030 02A9     		add	r1, sp, #8
 513:GrannyChordApp.cpp ****     // out[0][i] = samp.left;
 2616              		.loc 3 513 26 view .LVU740
 2617 0032 8DED020A 		vstr.32	s0, [sp, #8]
 516:GrannyChordApp.cpp ****     limiter_.ProcessBlock(&samp.right, 1, 1.0f);
 2618              		.loc 3 516 26 view .LVU741
 2619 0036 B7EE000A 		vmov.f32	s0, #1.0e+0
 513:GrannyChordApp.cpp ****     // out[0][i] = samp.left;
 2620              		.loc 3 513 26 view .LVU742
 2621 003a CDED030A 		vstr.32	s1, [sp, #12]
 516:GrannyChordApp.cpp ****     limiter_.ProcessBlock(&samp.right, 1, 1.0f);
 2622              		.loc 3 516 5 is_stmt 1 view .LVU743
 516:GrannyChordApp.cpp ****     limiter_.ProcessBlock(&samp.right, 1, 1.0f);
 2623              		.loc 3 516 26 is_stmt 0 view .LVU744
 2624 003e 0190     		str	r0, [sp, #4]
 2625 0040 FFF7FEFF 		bl	_ZN7daisysp7Limiter12ProcessBlockEPfjf
 2626              	.LVL185:
 517:GrannyChordApp.cpp ****     out[0][i] = samp.left;
 2627              		.loc 3 517 5 is_stmt 1 view .LVU745
 517:GrannyChordApp.cpp ****     out[0][i] = samp.left;
 2628              		.loc 3 517 26 is_stmt 0 view .LVU746
 2629 0044 0122     		movs	r2, #1
 2630 0046 03A9     		add	r1, sp, #12
 2631 0048 0198     		ldr	r0, [sp, #4]
 2632 004a B7EE000A 		vmov.f32	s0, #1.0e+0
 2633 004e FFF7FEFF 		bl	_ZN7daisysp7Limiter12ProcessBlockEPfjf
 2634              	.LVL186:
 518:GrannyChordApp.cpp ****     out[1][i] = samp.right;
 2635              		.loc 3 518 5 is_stmt 1 view .LVU747
 518:GrannyChordApp.cpp ****     out[1][i] = samp.right;
 2636              		.loc 3 518 13 is_stmt 0 view .LVU748
 2637 0052 3168     		ldr	r1, [r6]
 518:GrannyChordApp.cpp ****     out[1][i] = samp.right;
 2638              		.loc 3 518 22 view .LVU749
 2639 0054 029B     		ldr	r3, [sp, #8]	@ float
 521:GrannyChordApp.cpp ****       temp_interleaved_buf_[0]=out[0][i];
 2640              		.loc 3 521 9 view .LVU750
 2641 0056 04F55040 		add	r0, r4, #53248
 518:GrannyChordApp.cpp ****     out[1][i] = samp.right;
 2642              		.loc 3 518 13 view .LVU751
 2643 005a 01EB8501 		add	r1, r1, r5, lsl #2
 519:GrannyChordApp.cpp **** 
 2644              		.loc 3 519 13 view .LVU752
 2645 005e 7268     		ldr	r2, [r6, #4]
 518:GrannyChordApp.cpp ****     out[1][i] = samp.right;
 2646              		.loc 3 518 15 view .LVU753
 2647 0060 0B60     		str	r3, [r1]	@ float
 519:GrannyChordApp.cpp **** 
 2648              		.loc 3 519 5 is_stmt 1 view .LVU754
 519:GrannyChordApp.cpp **** 
ARM GAS  /var/folders/2p/02m_5p7958535cp2tpgps0400000gn/T//ccgOSWw9.s 			page 80


 2649              		.loc 3 519 13 is_stmt 0 view .LVU755
 2650 0062 02EB8502 		add	r2, r2, r5, lsl #2
 519:GrannyChordApp.cpp **** 
 2651              		.loc 3 519 22 view .LVU756
 2652 0066 039B     		ldr	r3, [sp, #12]	@ float
 519:GrannyChordApp.cpp **** 
 2653              		.loc 3 519 15 view .LVU757
 2654 0068 1360     		str	r3, [r2]	@ float
 521:GrannyChordApp.cpp ****       temp_interleaved_buf_[0]=out[0][i];
 2655              		.loc 3 521 5 is_stmt 1 view .LVU758
 521:GrannyChordApp.cpp ****       temp_interleaved_buf_[0]=out[0][i];
 2656              		.loc 3 521 24 is_stmt 0 view .LVU759
 2657 006a 90F88431 		ldrb	r3, [r0, #388]	@ zero_extendqisi2
 2658 006e 002B     		cmp	r3, #0
 2659 0070 00F09580 		beq	.L93
 2660              	.LVL187:
 2661              	.LBB598:
 2662              	.LBI598:
 175:../libDaisy/src/util/WavWriter.h ****     {
 2663              		.loc 9 175 18 is_stmt 1 discriminator 1 view .LVU760
 2664              	.LBB599:
 177:../libDaisy/src/util/WavWriter.h ****     }
 2665              		.loc 9 177 23 is_stmt 0 discriminator 1 view .LVU761
 2666 0074 04F58043 		add	r3, r4, #16384
 2667 0078 D3F834CF 		ldr	ip, [r3, #3892]
 2668              	.LVL188:
 177:../libDaisy/src/util/WavWriter.h ****     }
 2669              		.loc 9 177 48 discriminator 1 view .LVU762
 2670 007c 03F6087E 		addw	lr, r3, #3848
 177:../libDaisy/src/util/WavWriter.h ****     }
 2671              		.loc 9 177 16 discriminator 1 view .LVU763
 2672 0080 07EE90CA 		vmov	s15, ip	@ int
 2673 0084 F8EE676A 		vcvt.f32.u32	s13, s15
 177:../libDaisy/src/util/WavWriter.h ****     }
 2674              		.loc 9 177 48 discriminator 1 view .LVU764
 2675 0088 DEED0D7A 		vldr.32	s15, [lr, #52]
 2676 008c 86EEA77A 		vdiv.f32	s14, s13, s15
 2677              	.LBE599:
 2678              	.LBE598:
 521:GrannyChordApp.cpp ****       temp_interleaved_buf_[0]=out[0][i];
 2679              		.loc 3 521 24 discriminator 1 view .LVU765
 2680 0090 DFED457A 		vldr.32	s15, .L113
 2681 0094 B4EEE77A 		vcmpe.f32	s14, s15
 2682 0098 F1EE10FA 		vmrs	APSR_nzcv, FPSCR
 2683 009c 7FD5     		bpl	.L93
 522:GrannyChordApp.cpp ****       temp_interleaved_buf_[1]=out[1][i];
 2684              		.loc 3 522 7 is_stmt 1 view .LVU766
 522:GrannyChordApp.cpp ****       temp_interleaved_buf_[1]=out[1][i];
 2685              		.loc 3 522 40 is_stmt 0 view .LVU767
 2686 009e 0968     		ldr	r1, [r1]	@ float
 2687              	.LBB600:
 2688              	.LBB601:
 2689              	.LBB602:
 2690              	.LBB603:
  97:../libDaisy/src/util/WavWriter.h ****             {
 2691              		.loc 9 97 25 view .LVU768
 2692 00a0 D3F844EF 		ldr	lr, [r3, #3908]
ARM GAS  /var/folders/2p/02m_5p7958535cp2tpgps0400000gn/T//ccgOSWw9.s 			page 81


 2693              	.LBE603:
 2694              	.LBE602:
 2695              	.LBE601:
 2696              	.LBE600:
 522:GrannyChordApp.cpp ****       temp_interleaved_buf_[1]=out[1][i];
 2697              		.loc 3 522 31 view .LVU769
 2698 00a4 C0F89011 		str	r1, [r0, #400]	@ float
 523:GrannyChordApp.cpp ****       sd_writer_.Sample(temp_interleaved_buf_);
 2699              		.loc 3 523 7 is_stmt 1 view .LVU770
 2700              	.LBB632:
 2701              	.LBB629:
 2702              	.LBB626:
  95:../libDaisy/src/util/WavWriter.h ****         {
 2703              		.loc 9 95 21 is_stmt 0 view .LVU771
 2704 00a8 0021     		movs	r1, #0
 2705              	.LBE626:
 2706              	.LBE629:
 2707              	.LBE632:
 523:GrannyChordApp.cpp ****       sd_writer_.Sample(temp_interleaved_buf_);
 2708              		.loc 3 523 40 view .LVU772
 2709 00aa 1268     		ldr	r2, [r2]	@ float
 2710              	.LBB633:
 2711              	.LBB630:
 2712              	.LBB627:
 2713              	.LBB623:
 2714              	.LBB604:
 2715              	.LBB605:
 103:../libDaisy/src/util/WavWriter.h ****                 }
 2716              		.loc 9 103 24 view .LVU773
 2717 00ac D3F8388F 		ldr	r8, [r3, #3896]
 2718              	.LBE605:
 2719              	.LBE604:
 2720              	.LBE623:
 2721              	.LBE627:
 2722              	.LBE630:
 2723              	.LBE633:
 523:GrannyChordApp.cpp ****       sd_writer_.Sample(temp_interleaved_buf_);
 2724              		.loc 3 523 31 view .LVU774
 2725 00b0 C0F89421 		str	r2, [r0, #404]	@ float
 524:GrannyChordApp.cpp ****     }
 2726              		.loc 3 524 7 is_stmt 1 view .LVU775
 2727              	.LVL189:
 2728              	.LBB634:
 2729              	.LBI600:
  93:../libDaisy/src/util/WavWriter.h ****     {
 2730              		.loc 9 93 10 view .LVU776
  93:../libDaisy/src/util/WavWriter.h ****     {
 2731              		.loc 9 93 10 is_stmt 0 view .LVU777
 2732 00b4 04F55142 		add	r2, r4, #53504
 2733              	.LBB631:
 2734              	.LBB628:
  95:../libDaisy/src/util/WavWriter.h ****         {
 2735              		.loc 9 95 37 view .LVU778
 2736 00b8 D3F8400F 		ldr	r0, [r3, #3904]
 2737 00bc 9032     		adds	r2, r2, #144
 2738              	.LVL190:
 2739              	.L102:
ARM GAS  /var/folders/2p/02m_5p7958535cp2tpgps0400000gn/T//ccgOSWw9.s 			page 82


  95:../libDaisy/src/util/WavWriter.h ****         {
 2740              		.loc 9 95 30 is_stmt 1 view .LVU779
 2741 00be 8842     		cmp	r0, r1
 2742 00c0 4CDD     		ble	.L96
 2743              	.LBB624:
  97:../libDaisy/src/util/WavWriter.h ****             {
 2744              		.loc 9 97 13 is_stmt 0 view .LVU780
 2745 00c2 BEF1100F 		cmp	lr, #16
 2746 00c6 05D0     		beq	.L97
 2747 00c8 BEF1200F 		cmp	lr, #32
 2748 00cc 27D0     		beq	.L98
 2749              	.L99:
 2750              	.LBE624:
  95:../libDaisy/src/util/WavWriter.h ****         {
 2751              		.loc 9 95 9 is_stmt 1 view .LVU781
 2752 00ce 0131     		adds	r1, r1, #1
 2753              	.LVL191:
  95:../libDaisy/src/util/WavWriter.h ****         {
 2754              		.loc 9 95 9 is_stmt 0 view .LVU782
 2755 00d0 0432     		adds	r2, r2, #4
 2756 00d2 F4E7     		b	.L102
 2757              	.L97:
 2758              	.LVL192:
 2759              	.LBB625:
 2760              	.LBB622:
 2761              	.LBB614:
 103:../libDaisy/src/util/WavWriter.h ****                 }
 2762              		.loc 9 103 42 view .LVU783
 2763 00d4 D2ED007A 		vldr.32	s15, [r2]
 102:../libDaisy/src/util/WavWriter.h ****                     tp[wptr_ + i] = f2s16(in[i]);
 2764              		.loc 9 102 35 view .LVU784
 2765 00d8 04F59E49 		add	r9, r4, #20224
 2766              	.LBB606:
 2767              	.LBB607:
 123:../libDaisy/src/daisy_core.h **** }
 124:../libDaisy/src/daisy_core.h **** 
 125:../libDaisy/src/daisy_core.h **** /**
 126:../libDaisy/src/daisy_core.h ****     Converts float to Signed 16-bit
 127:../libDaisy/src/daisy_core.h **** */
 128:../libDaisy/src/daisy_core.h **** FORCE_INLINE int16_t f2s16(float x)
 129:../libDaisy/src/daisy_core.h **** {
 130:../libDaisy/src/daisy_core.h ****     x = x <= FBIPMIN ? FBIPMIN : x;
 2768              		.loc 12 130 22 view .LVU785
 2769 00dc 9FED337A 		vldr.32	s14, .L113+4
 2770              	.LBE607:
 2771              	.LBE606:
 103:../libDaisy/src/util/WavWriter.h ****                 }
 2772              		.loc 9 103 30 view .LVU786
 2773 00e0 01EB080A 		add	r10, r1, r8
 2774              	.LVL193:
 2775              	.LBB611:
 2776              	.LBI606:
 128:../libDaisy/src/daisy_core.h **** {
 2777              		.loc 12 128 22 is_stmt 1 view .LVU787
 2778              	.LBB608:
 2779              		.loc 12 130 5 view .LVU788
 2780              	.LBE608:
ARM GAS  /var/folders/2p/02m_5p7958535cp2tpgps0400000gn/T//ccgOSWw9.s 			page 83


 2781              	.LBE611:
 102:../libDaisy/src/util/WavWriter.h ****                     tp[wptr_ + i] = f2s16(in[i]);
 2782              		.loc 9 102 35 is_stmt 0 view .LVU789
 2783 00e4 09F14809 		add	r9, r9, #72
 2784              	.LBB612:
 2785              	.LBB609:
 2786              		.loc 12 130 22 view .LVU790
 2787 00e8 F4EEC77A 		vcmpe.f32	s15, s14
 2788 00ec F1EE10FA 		vmrs	APSR_nzcv, FPSCR
 2789 00f0 12D9     		bls	.L106
 131:../libDaisy/src/daisy_core.h ****     x = x >= FBIPMAX ? FBIPMAX : x;
 2790              		.loc 12 131 5 is_stmt 1 view .LVU791
 2791              		.loc 12 131 22 is_stmt 0 view .LVU792
 2792 00f2 9FED2F7A 		vldr.32	s14, .L113+8
 2793 00f6 F4EE477A 		vcmp.f32	s15, s14
 2794 00fa F1EE10FA 		vmrs	APSR_nzcv, FPSCR
 2795 00fe 67FE277A 		vselge.f32	s15, s14, s15
 2796              	.LVL194:
 2797              	.L100:
 132:../libDaisy/src/daisy_core.h ****     return (int32_t)(x * F2S16_SCALE);
 2798              		.loc 12 132 5 is_stmt 1 view .LVU793
 2799              		.loc 12 132 24 is_stmt 0 view .LVU794
 2800 0102 9FED2C7A 		vldr.32	s14, .L113+12
 2801 0106 67EE877A 		vmul.f32	s15, s15, s14
 2802              		.loc 12 132 12 view .LVU795
 2803 010a FDEEE77A 		vcvt.s32.f32	s15, s15
 2804              		.loc 12 132 37 view .LVU796
 2805 010e 17EE907A 		vmov	r7, s15	@ int
 2806 0112 29F81A70 		strh	r7, [r9, r10, lsl #1]	@ movhi
 2807              	.LBE609:
 2808              	.LBE612:
 2809              	.LBE614:
 105:../libDaisy/src/util/WavWriter.h ****                 case 32: transfer_buff[wptr_ + i] = f2s32(in[i]); break;
 2810              		.loc 9 105 17 view .LVU797
 2811 0116 DAE7     		b	.L99
 2812              	.LVL195:
 2813              	.L106:
 2814              	.LBB615:
 2815              	.LBB613:
 2816              	.LBB610:
 130:../libDaisy/src/daisy_core.h ****     x = x >= FBIPMAX ? FBIPMAX : x;
 2817              		.loc 12 130 22 view .LVU798
 2818 0118 F0EE477A 		vmov.f32	s15, s14
 2819              	.LVL196:
 130:../libDaisy/src/daisy_core.h ****     x = x >= FBIPMAX ? FBIPMAX : x;
 2820              		.loc 12 130 22 view .LVU799
 2821 011c F1E7     		b	.L100
 2822              	.LVL197:
 2823              	.L98:
 130:../libDaisy/src/daisy_core.h ****     x = x >= FBIPMAX ? FBIPMAX : x;
 2824              		.loc 12 130 22 view .LVU800
 2825              	.LBE610:
 2826              	.LBE613:
 2827              	.LBE615:
 106:../libDaisy/src/util/WavWriter.h ****                 default: break;
 2828              		.loc 9 106 58 view .LVU801
 2829 011e D2ED007A 		vldr.32	s15, [r2]
ARM GAS  /var/folders/2p/02m_5p7958535cp2tpgps0400000gn/T//ccgOSWw9.s 			page 84


 106:../libDaisy/src/util/WavWriter.h ****                 default: break;
 2830              		.loc 9 106 46 view .LVU802
 2831 0122 01EB0809 		add	r9, r1, r8
 2832              	.LVL198:
 2833              	.LBB616:
 2834              	.LBI616:
 133:../libDaisy/src/daisy_core.h **** }
 134:../libDaisy/src/daisy_core.h **** 
 135:../libDaisy/src/daisy_core.h **** /**
 136:../libDaisy/src/daisy_core.h ****     Converts Signed 24-bit to float
 137:../libDaisy/src/daisy_core.h ****  */
 138:../libDaisy/src/daisy_core.h **** FORCE_INLINE float s242f(int32_t x)
 139:../libDaisy/src/daisy_core.h **** {
 140:../libDaisy/src/daisy_core.h ****     x = (x ^ S24SIGN) - S24SIGN; //sign extend aka ((x<<8)>>8)
 141:../libDaisy/src/daisy_core.h ****     return (float)x * S242F_SCALE;
 142:../libDaisy/src/daisy_core.h **** }
 143:../libDaisy/src/daisy_core.h **** /**
 144:../libDaisy/src/daisy_core.h ****     Converts float to Signed 24-bit
 145:../libDaisy/src/daisy_core.h ****  */
 146:../libDaisy/src/daisy_core.h **** FORCE_INLINE int32_t f2s24(float x)
 147:../libDaisy/src/daisy_core.h **** {
 148:../libDaisy/src/daisy_core.h ****     x = x <= FBIPMIN ? FBIPMIN : x;
 149:../libDaisy/src/daisy_core.h ****     x = x >= FBIPMAX ? FBIPMAX : x;
 150:../libDaisy/src/daisy_core.h ****     return (int32_t)(x * F2S24_SCALE);
 151:../libDaisy/src/daisy_core.h **** }
 152:../libDaisy/src/daisy_core.h **** 
 153:../libDaisy/src/daisy_core.h **** /**
 154:../libDaisy/src/daisy_core.h ****     Converts Signed 32-bit to float
 155:../libDaisy/src/daisy_core.h ****  */
 156:../libDaisy/src/daisy_core.h **** FORCE_INLINE float s322f(int32_t x)
 157:../libDaisy/src/daisy_core.h **** {
 158:../libDaisy/src/daisy_core.h ****     return (float)x * S322F_SCALE;
 159:../libDaisy/src/daisy_core.h **** }
 160:../libDaisy/src/daisy_core.h **** /**
 161:../libDaisy/src/daisy_core.h ****     Converts float to Signed 24-bit
 162:../libDaisy/src/daisy_core.h ****  */
 163:../libDaisy/src/daisy_core.h **** FORCE_INLINE int32_t f2s32(float x)
 2835              		.loc 12 163 22 is_stmt 1 view .LVU803
 2836              	.LBB617:
 164:../libDaisy/src/daisy_core.h **** {
 165:../libDaisy/src/daisy_core.h ****     x = x <= FBIPMIN ? FBIPMIN : x;
 2837              		.loc 12 165 5 view .LVU804
 2838              		.loc 12 165 22 is_stmt 0 view .LVU805
 2839 0126 9FED217A 		vldr.32	s14, .L113+4
 2840 012a F4EEC77A 		vcmpe.f32	s15, s14
 2841 012e F1EE10FA 		vmrs	APSR_nzcv, FPSCR
 2842 0132 10D9     		bls	.L108
 166:../libDaisy/src/daisy_core.h ****     x = x >= FBIPMAX ? FBIPMAX : x;
 2843              		.loc 12 166 5 is_stmt 1 view .LVU806
 2844              		.loc 12 166 22 is_stmt 0 view .LVU807
 2845 0134 9FED1E7A 		vldr.32	s14, .L113+8
 2846 0138 F4EE477A 		vcmp.f32	s15, s14
 2847 013c F1EE10FA 		vmrs	APSR_nzcv, FPSCR
 2848 0140 67FE277A 		vselge.f32	s15, s14, s15
 2849              	.LVL199:
 2850              	.L101:
 167:../libDaisy/src/daisy_core.h ****     return (int32_t)(x * F2S32_SCALE);
ARM GAS  /var/folders/2p/02m_5p7958535cp2tpgps0400000gn/T//ccgOSWw9.s 			page 85


 2851              		.loc 12 167 5 is_stmt 1 view .LVU808
 2852              		.loc 12 167 37 is_stmt 0 view .LVU809
 2853 0144 FEEEE07A 		vcvt.s32.f32	s15, s15, #31
 2854              	.LBE617:
 2855              	.LBE616:
 106:../libDaisy/src/util/WavWriter.h ****                 default: break;
 2856              		.loc 9 106 51 view .LVU810
 2857 0148 03EB8909 		add	r9, r3, r9, lsl #2
 2858              	.LBB620:
 2859              	.LBB618:
 2860              		.loc 12 167 37 view .LVU811
 2861 014c 17EE907A 		vmov	r7, s15	@ int
 2862 0150 C9F8487F 		str	r7, [r9, #3912]
 2863              	.LBE618:
 2864              	.LBE620:
 106:../libDaisy/src/util/WavWriter.h ****                 default: break;
 2865              		.loc 9 106 67 view .LVU812
 2866 0154 BBE7     		b	.L99
 2867              	.LVL200:
 2868              	.L108:
 2869              	.LBB621:
 2870              	.LBB619:
 165:../libDaisy/src/daisy_core.h ****     x = x >= FBIPMAX ? FBIPMAX : x;
 2871              		.loc 12 165 22 view .LVU813
 2872 0156 F0EE477A 		vmov.f32	s15, s14
 2873              	.LVL201:
 165:../libDaisy/src/daisy_core.h ****     x = x >= FBIPMAX ? FBIPMAX : x;
 2874              		.loc 12 165 22 view .LVU814
 2875 015a F3E7     		b	.L101
 2876              	.LVL202:
 2877              	.L96:
 165:../libDaisy/src/daisy_core.h ****     x = x >= FBIPMAX ? FBIPMAX : x;
 2878              		.loc 12 165 22 view .LVU815
 2879              	.LBE619:
 2880              	.LBE621:
 2881              	.LBE622:
 2882              	.LBE625:
 2883              	.LBE628:
 113:../libDaisy/src/util/WavWriter.h ****         if(wptr_ == cap_point)
 2884              		.loc 9 113 40 view .LVU816
 2885 015c BEF1100F 		cmp	lr, #16
 111:../libDaisy/src/util/WavWriter.h ****         size_t cap_point
 2886              		.loc 9 111 15 view .LVU817
 2887 0160 4044     		add	r0, r0, r8
 110:../libDaisy/src/util/WavWriter.h ****         wptr_ += cfg_.channels;
 2888              		.loc 9 110 9 view .LVU818
 2889 0162 0CF10102 		add	r2, ip, #1
 113:../libDaisy/src/util/WavWriter.h ****         if(wptr_ == cap_point)
 2890              		.loc 9 113 40 view .LVU819
 2891 0166 0CBF     		ite	eq
 2892 0168 4FF40051 		moveq	r1, #8192
 2893              	.LVL203:
 113:../libDaisy/src/util/WavWriter.h ****         if(wptr_ == cap_point)
 2894              		.loc 9 113 40 view .LVU820
 2895 016c 4FF48051 		movne	r1, #4096
 2896              	.LVL204:
 110:../libDaisy/src/util/WavWriter.h ****         wptr_ += cfg_.channels;
ARM GAS  /var/folders/2p/02m_5p7958535cp2tpgps0400000gn/T//ccgOSWw9.s 			page 86


 2897              		.loc 9 110 9 view .LVU821
 2898 0170 C3F8342F 		str	r2, [r3, #3892]
 114:../libDaisy/src/util/WavWriter.h ****         {
 2899              		.loc 9 114 9 view .LVU822
 2900 0174 8842     		cmp	r0, r1
 111:../libDaisy/src/util/WavWriter.h ****         size_t cap_point
 2901              		.loc 9 111 15 view .LVU823
 2902 0176 C3F8380F 		str	r0, [r3, #3896]
 116:../libDaisy/src/util/WavWriter.h ****         }
 2903              		.loc 9 116 21 view .LVU824
 2904 017a 02BF     		ittt	eq
 2905 017c 04F54042 		addeq	r2, r4, #49152
 2906 0180 4FF0010C 		moveq	ip, #1
 2907 0184 C2F848CF 		streq	ip, [r2, #3912]
 118:../libDaisy/src/util/WavWriter.h ****         {
 2908              		.loc 9 118 9 view .LVU825
 2909 0188 B0EB410F 		cmp	r0, r1, lsl #1
 2910 018c 07D3     		bcc	.L93
 120:../libDaisy/src/util/WavWriter.h ****             bstate_ = BufferState::FLUSH1;
 2911              		.loc 9 120 21 view .LVU826
 2912 018e 0022     		movs	r2, #0
 2913 0190 C3F8382F 		str	r2, [r3, #3896]
 121:../libDaisy/src/util/WavWriter.h ****         }
 2914              		.loc 9 121 21 view .LVU827
 2915 0194 04F54043 		add	r3, r4, #49152
 2916 0198 0222     		movs	r2, #2
 2917 019a C3F8482F 		str	r2, [r3, #3912]
 2918              	.LVL205:
 2919              	.L93:
 121:../libDaisy/src/util/WavWriter.h ****         }
 2920              		.loc 9 121 21 view .LVU828
 2921              	.LBE631:
 2922              	.LBE634:
 511:GrannyChordApp.cpp ****     samp = synth_.ProcessGrains();
 2923              		.loc 3 511 3 is_stmt 1 discriminator 2 view .LVU829
 2924 019e 0135     		adds	r5, r5, #1
 2925              	.LVL206:
 511:GrannyChordApp.cpp ****     samp = synth_.ProcessGrains();
 2926              		.loc 3 511 3 is_stmt 0 discriminator 2 view .LVU830
 2927 01a0 35E7     		b	.L105
 2928              	.L90:
 511:GrannyChordApp.cpp ****     samp = synth_.ProcessGrains();
 2929              		.loc 3 511 3 discriminator 2 view .LVU831
 2930              	.LBE597:
 527:GrannyChordApp.cpp **** 
 2931              		.loc 3 527 1 view .LVU832
 2932 01a2 05B0     		add	sp, sp, #20
 2933              		.cfi_def_cfa_offset 36
 2934              		@ sp needed
 2935 01a4 BDE8F08F 		pop	{r4, r5, r6, r7, r8, r9, r10, fp, pc}
 2936              	.LVL207:
 2937              	.L114:
 527:GrannyChordApp.cpp **** 
 2938              		.loc 3 527 1 view .LVU833
 2939              		.align	2
 2940              	.L113:
 2941 01a8 0000F042 		.word	1123024896
ARM GAS  /var/folders/2p/02m_5p7958535cp2tpgps0400000gn/T//ccgOSWw9.s 			page 87


 2942 01ac 04FF7FBF 		.word	-1082130684
 2943 01b0 04FF7F3F 		.word	1065352964
 2944 01b4 00FEFF46 		.word	1191181824
 2945              		.cfi_endproc
 2946              	.LFE4932:
 2948              		.section	.rodata._ZN14GrannyChordApp12ProcessAudioEPKPKfPPfj.str1.1,"aMS",%progbits,1
 2949              	.LC9:
 2950 0000 73746F70 		.ascii	"stopped audio > len\000"
 2950      70656420 
 2950      61756469 
 2950      6F203E20 
 2950      6C656E00 
 2951              		.section	.text._ZN14GrannyChordApp12ProcessAudioEPKPKfPPfj,"ax",%progbits
 2952              		.align	1
 2953              		.global	_ZN14GrannyChordApp12ProcessAudioEPKPKfPPfj
 2954              		.syntax unified
 2955              		.thumb
 2956              		.thumb_func
 2958              	_ZN14GrannyChordApp12ProcessAudioEPKPKfPPfj:
 2959              	.LVL208:
 2960              	.LFB4929:
 451:GrannyChordApp.cpp ****   switch(curr_state_){
 2961              		.loc 3 451 107 is_stmt 1 view -0
 2962              		.cfi_startproc
 2963              		@ args = 0, pretend = 0, frame = 0
 2964              		@ frame_needed = 0, uses_anonymous_args = 0
 452:GrannyChordApp.cpp ****     case AppState::PlayWAV:
 2965              		.loc 3 452 3 view .LVU835
 451:GrannyChordApp.cpp ****   switch(curr_state_){
 2966              		.loc 3 451 107 is_stmt 0 view .LVU836
 2967 0000 2DE9F041 		push	{r4, r5, r6, r7, r8, lr}
 2968              		.cfi_def_cfa_offset 24
 2969              		.cfi_offset 4, -24
 2970              		.cfi_offset 5, -20
 2971              		.cfi_offset 6, -16
 2972              		.cfi_offset 7, -12
 2973              		.cfi_offset 8, -8
 2974              		.cfi_offset 14, -4
 452:GrannyChordApp.cpp ****     case AppState::PlayWAV:
 2975              		.loc 3 452 10 view .LVU837
 2976 0004 D0F8D451 		ldr	r5, [r0, #468]
 451:GrannyChordApp.cpp ****   switch(curr_state_){
 2977              		.loc 3 451 107 view .LVU838
 2978 0008 1646     		mov	r6, r2
 2979 000a 1F46     		mov	r7, r3
 452:GrannyChordApp.cpp ****     case AppState::PlayWAV:
 2980              		.loc 3 452 3 view .LVU839
 2981 000c 022D     		cmp	r5, #2
 2982 000e 27D0     		beq	.L116
 2983 0010 032D     		cmp	r5, #3
 2984 0012 21D0     		beq	.L117
 2985 0014 012D     		cmp	r5, #1
 2986 0016 29D1     		bne	.L115
 2987              	.LVL209:
 2988              	.LBB641:
 2989              	.LBI641:
 451:GrannyChordApp.cpp ****   switch(curr_state_){
ARM GAS  /var/folders/2p/02m_5p7958535cp2tpgps0400000gn/T//ccgOSWw9.s 			page 88


 2990              		.loc 3 451 6 is_stmt 1 view .LVU840
 2991              	.LBB642:
 453:GrannyChordApp.cpp ****       if (wav_playhead_>= filemgr_.GetSamplesPerChannel() -1){
 2992              		.loc 3 453 5 view .LVU841
 454:GrannyChordApp.cpp ****         instance_->pod_.StopAudio();
 2993              		.loc 3 454 7 view .LVU842
 454:GrannyChordApp.cpp ****         instance_->pod_.StopAudio();
 2994              		.loc 3 454 27 is_stmt 0 view .LVU843
 2995 0018 D0F8CC31 		ldr	r3, [r0, #460]
 2996              	.LVL210:
 2997              	.LBB643:
 2998              	.LBI643:
  27:AudioFileManager.h ****     size_t GetTotalSamples() const { return header_.total_samples; }
 2999              		.loc 8 27 12 is_stmt 1 view .LVU844
 3000              	.LBB644:
  27:AudioFileManager.h ****     size_t GetTotalSamples() const { return header_.total_samples; }
 3001              		.loc 8 27 43 view .LVU845
  27:AudioFileManager.h ****     size_t GetTotalSamples() const { return header_.total_samples; }
 3002              		.loc 8 27 43 is_stmt 0 view .LVU846
 3003              	.LBE644:
 3004              	.LBE643:
 454:GrannyChordApp.cpp ****         instance_->pod_.StopAudio();
 3005              		.loc 3 454 11 view .LVU847
 3006 001c 00F58044 		add	r4, r0, #16384
 3007              	.LBB647:
 3008              	.LBB645:
  27:AudioFileManager.h ****     size_t GetTotalSamples() const { return header_.total_samples; }
 3009              		.loc 8 27 58 view .LVU848
 3010 0020 03F58053 		add	r3, r3, #4096
  27:AudioFileManager.h ****     size_t GetTotalSamples() const { return header_.total_samples; }
 3011              		.loc 8 27 82 view .LVU849
 3012 0024 B3F92820 		ldrsh	r2, [r3, #40]
 3013              	.LVL211:
  27:AudioFileManager.h ****     size_t GetTotalSamples() const { return header_.total_samples; }
 3014              		.loc 8 27 82 view .LVU850
 3015 0028 DD6A     		ldr	r5, [r3, #44]
 3016              	.LBE645:
 3017              	.LBE647:
 454:GrannyChordApp.cpp ****         instance_->pod_.StopAudio();
 3018              		.loc 3 454 7 view .LVU851
 3019 002a D4F8FC3D 		ldr	r3, [r4, #3580]
 3020              	.LBB648:
 3021              	.LBB646:
  27:AudioFileManager.h ****     size_t GetTotalSamples() const { return header_.total_samples; }
 3022              		.loc 8 27 82 view .LVU852
 3023 002e B5FBF2F5 		udiv	r5, r5, r2
 3024              	.LBE646:
 3025              	.LBE648:
 454:GrannyChordApp.cpp ****         instance_->pod_.StopAudio();
 3026              		.loc 3 454 59 view .LVU853
 3027 0032 013D     		subs	r5, r5, #1
 454:GrannyChordApp.cpp ****         instance_->pod_.StopAudio();
 3028              		.loc 3 454 7 view .LVU854
 3029 0034 AB42     		cmp	r3, r5
 3030 0036 09D3     		bcc	.L119
 455:GrannyChordApp.cpp ****         DebugPrint(pod_, "stopped audio > len");
 3031              		.loc 3 455 9 is_stmt 1 view .LVU855
ARM GAS  /var/folders/2p/02m_5p7958535cp2tpgps0400000gn/T//ccgOSWw9.s 			page 89


 455:GrannyChordApp.cpp ****         DebugPrint(pod_, "stopped audio > len");
 3032              		.loc 3 455 34 is_stmt 0 view .LVU856
 3033 0038 0D4B     		ldr	r3, .L120
 455:GrannyChordApp.cpp ****         DebugPrint(pod_, "stopped audio > len");
 3034              		.loc 3 455 20 view .LVU857
 3035 003a 1B68     		ldr	r3, [r3]
 455:GrannyChordApp.cpp ****         DebugPrint(pod_, "stopped audio > len");
 3036              		.loc 3 455 34 view .LVU858
 3037 003c D869     		ldr	r0, [r3, #28]
 3038              	.LVL212:
 455:GrannyChordApp.cpp ****         DebugPrint(pod_, "stopped audio > len");
 3039              		.loc 3 455 34 view .LVU859
 3040 003e FFF7FEFF 		bl	_ZN5daisy8DaisyPod9StopAudioEv
 3041              	.LVL213:
 456:GrannyChordApp.cpp ****         return;
 3042              		.loc 3 456 9 is_stmt 1 view .LVU860
 456:GrannyChordApp.cpp ****         return;
 3043              		.loc 3 456 9 view .LVU861
 3044              	.LBB649:
 3045              	.LBI649:
 126:../libDaisy/src/daisy_seed.h ****     {
 3046              		.loc 5 126 17 view .LVU862
 3047              	.LBB650:
 3048              		.loc 5 128 23 is_stmt 0 view .LVU863
 3049 0042 0C48     		ldr	r0, .L120+4
 3050              	.LBE650:
 3051              	.LBE649:
 3052              	.LBE642:
 3053              	.LBE641:
 472:GrannyChordApp.cpp **** 
 3054              		.loc 3 472 1 view .LVU864
 3055 0044 BDE8F041 		pop	{r4, r5, r6, r7, r8, lr}
 3056              		.cfi_remember_state
 3057              		.cfi_restore 14
 3058              		.cfi_restore 8
 3059              		.cfi_restore 7
 3060              		.cfi_restore 6
 3061              		.cfi_restore 5
 3062              		.cfi_restore 4
 3063              		.cfi_def_cfa_offset 0
 3064              	.LVL214:
 3065              	.LBB655:
 3066              	.LBB653:
 3067              	.LBB652:
 3068              	.LBB651:
 3069              		.loc 5 128 23 view .LVU865
 3070 0048 FFF7FEBF 		b	_ZN5daisy6LoggerILNS_17LoggerDestinationE1EE9PrintLineEPKcz
 3071              	.LVL215:
 3072              	.L119:
 3073              		.cfi_restore_state
 3074              		.loc 5 128 23 view .LVU866
 3075              	.LBE651:
 3076              	.LBE652:
 459:GrannyChordApp.cpp ****       return;  
 3077              		.loc 3 459 7 is_stmt 1 view .LVU867
 459:GrannyChordApp.cpp ****       return;  
 3078              		.loc 3 459 25 is_stmt 0 view .LVU868
ARM GAS  /var/folders/2p/02m_5p7958535cp2tpgps0400000gn/T//ccgOSWw9.s 			page 90


 3079 004c 3A46     		mov	r2, r7
 3080 004e 3146     		mov	r1, r6
 3081              	.LVL216:
 459:GrannyChordApp.cpp ****       return;  
 3082              		.loc 3 459 25 view .LVU869
 3083              	.LBE653:
 3084              	.LBE655:
 472:GrannyChordApp.cpp **** 
 3085              		.loc 3 472 1 view .LVU870
 3086 0050 BDE8F041 		pop	{r4, r5, r6, r7, r8, lr}
 3087              		.cfi_remember_state
 3088              		.cfi_restore 14
 3089              		.cfi_restore 8
 3090              		.cfi_restore 7
 3091              		.cfi_restore 6
 3092              		.cfi_restore 5
 3093              		.cfi_restore 4
 3094              		.cfi_def_cfa_offset 0
 3095              	.LVL217:
 3096              	.LBB656:
 3097              	.LBB654:
 459:GrannyChordApp.cpp ****       return;  
 3098              		.loc 3 459 25 view .LVU871
 3099 0054 FFF7FEBF 		b	_ZN14GrannyChordApp18ProcessWAVPlaybackEPPfj
 3100              	.LVL218:
 3101              	.L117:
 3102              		.cfi_restore_state
 459:GrannyChordApp.cpp ****       return;  
 3103              		.loc 3 459 25 view .LVU872
 3104              	.LBE654:
 3105              	.LBE656:
 461:GrannyChordApp.cpp ****       ProcessRecordIn(in, out, size);
 3106              		.loc 3 461 5 is_stmt 1 view .LVU873
 462:GrannyChordApp.cpp ****       return;
 3107              		.loc 3 462 7 view .LVU874
 472:GrannyChordApp.cpp **** 
 3108              		.loc 3 472 1 is_stmt 0 view .LVU875
 3109 0058 BDE8F041 		pop	{r4, r5, r6, r7, r8, lr}
 3110              		.cfi_remember_state
 3111              		.cfi_restore 14
 3112              		.cfi_restore 8
 3113              		.cfi_restore 7
 3114              		.cfi_restore 6
 3115              		.cfi_restore 5
 3116              		.cfi_restore 4
 3117              		.cfi_def_cfa_offset 0
 462:GrannyChordApp.cpp ****       return;
 3118              		.loc 3 462 22 view .LVU876
 3119 005c FFF7FEBF 		b	_ZN14GrannyChordApp15ProcessRecordInEPKPKfPPfj
 3120              	.LVL219:
 3121              	.L116:
 3122              		.cfi_restore_state
 464:GrannyChordApp.cpp ****       ProcessSynthesis(out,size);
 3123              		.loc 3 464 5 is_stmt 1 view .LVU877
 465:GrannyChordApp.cpp ****       return;
 3124              		.loc 3 465 7 view .LVU878
 465:GrannyChordApp.cpp ****       return;
ARM GAS  /var/folders/2p/02m_5p7958535cp2tpgps0400000gn/T//ccgOSWw9.s 			page 91


 3125              		.loc 3 465 23 is_stmt 0 view .LVU879
 3126 0060 3146     		mov	r1, r6
 3127              	.LVL220:
 465:GrannyChordApp.cpp ****       return;
 3128              		.loc 3 465 23 view .LVU880
 3129 0062 1A46     		mov	r2, r3
 3130              	.LVL221:
 472:GrannyChordApp.cpp **** 
 3131              		.loc 3 472 1 view .LVU881
 3132 0064 BDE8F041 		pop	{r4, r5, r6, r7, r8, lr}
 3133              		.cfi_remember_state
 3134              		.cfi_restore 14
 3135              		.cfi_restore 8
 3136              		.cfi_restore 7
 3137              		.cfi_restore 6
 3138              		.cfi_restore 5
 3139              		.cfi_restore 4
 3140              		.cfi_def_cfa_offset 0
 3141              	.LVL222:
 465:GrannyChordApp.cpp ****       return;
 3142              		.loc 3 465 23 view .LVU882
 3143 0068 FFF7FEBF 		b	_ZN14GrannyChordApp16ProcessSynthesisEPPfj
 3144              	.LVL223:
 3145              	.L115:
 3146              		.cfi_restore_state
 472:GrannyChordApp.cpp **** 
 3147              		.loc 3 472 1 view .LVU883
 3148 006c BDE8F081 		pop	{r4, r5, r6, r7, r8, pc}
 3149              	.L121:
 3150              		.align	2
 3151              	.L120:
 3152 0070 00000000 		.word	.LANCHOR0
 3153 0074 00000000 		.word	.LC9
 3154              		.cfi_endproc
 3155              	.LFE4929:
 3157              		.section	.text._ZN14GrannyChordApp13AudioCallbackEPKPKfPPfj,"ax",%progbits
 3158              		.align	1
 3159              		.global	_ZN14GrannyChordApp13AudioCallbackEPKPKfPPfj
 3160              		.syntax unified
 3161              		.thumb
 3162              		.thumb_func
 3164              	_ZN14GrannyChordApp13AudioCallbackEPKPKfPPfj:
 3165              	.LVL224:
 3166              	.LFB4928:
 447:GrannyChordApp.cpp ****   instance_->ProcessAudio(in,out,size);
 3167              		.loc 3 447 108 is_stmt 1 view -0
 3168              		.cfi_startproc
 3169              		@ args = 0, pretend = 0, frame = 0
 3170              		@ frame_needed = 0, uses_anonymous_args = 0
 3171              		@ link register save eliminated.
 448:GrannyChordApp.cpp **** }
 3172              		.loc 3 448 3 view .LVU885
 447:GrannyChordApp.cpp ****   instance_->ProcessAudio(in,out,size);
 3173              		.loc 3 447 108 is_stmt 0 view .LVU886
 3174 0000 1346     		mov	r3, r2
 448:GrannyChordApp.cpp **** }
 3175              		.loc 3 448 26 view .LVU887
ARM GAS  /var/folders/2p/02m_5p7958535cp2tpgps0400000gn/T//ccgOSWw9.s 			page 92


 3176 0002 0A46     		mov	r2, r1
 3177              	.LVL225:
 448:GrannyChordApp.cpp **** }
 3178              		.loc 3 448 26 view .LVU888
 3179 0004 0146     		mov	r1, r0
 3180              	.LVL226:
 448:GrannyChordApp.cpp **** }
 3181              		.loc 3 448 26 view .LVU889
 3182 0006 0248     		ldr	r0, .L123
 3183              	.LVL227:
 448:GrannyChordApp.cpp **** }
 3184              		.loc 3 448 26 view .LVU890
 3185 0008 0068     		ldr	r0, [r0]
 3186 000a FFF7FEBF 		b	_ZN14GrannyChordApp12ProcessAudioEPKPKfPPfj
 3187              	.LVL228:
 3188              	.L124:
 448:GrannyChordApp.cpp **** }
 3189              		.loc 3 448 26 view .LVU891
 3190 000e 00BF     		.align	2
 3191              	.L123:
 3192 0010 00000000 		.word	.LANCHOR0
 3193              		.cfi_endproc
 3194              	.LFE4928:
 3196              		.section	.rodata._ZN14GrannyChordApp13RecordOutToSDEv.str1.1,"aMS",%progbits,1
 3197              	.LC10:
 3198 0000 7265636F 		.ascii	"recording_%d\000"
 3198      7264696E 
 3198      675F2564 
 3198      00
 3199              		.section	.text._ZN14GrannyChordApp13RecordOutToSDEv,"ax",%progbits
 3200              		.align	1
 3201              		.global	_ZN14GrannyChordApp13RecordOutToSDEv
 3202              		.syntax unified
 3203              		.thumb
 3204              		.thumb_func
 3206              	_ZN14GrannyChordApp13RecordOutToSDEv:
 3207              	.LVL229:
 3208              	.LFB4934:
 554:GrannyChordApp.cpp **** 
 555:GrannyChordApp.cpp **** /// @brief Process audio from chord mode and mix to output buffer
 556:GrannyChordApp.cpp **** /// @param out Output audio buffer
 557:GrannyChordApp.cpp **** /// @param size Number of samples to process in this call
 558:GrannyChordApp.cpp **** // void GrannyChordApp::ProcessChordMode(AudioHandle::OutputBuffer out, size_t size){
 559:GrannyChordApp.cpp **** //   // if (UserTriggeredChord()) {
 560:GrannyChordApp.cpp **** //   //   synth_.TriggerChord(out[0], out[1], size);
 561:GrannyChordApp.cpp **** //   // } else {
 562:GrannyChordApp.cpp **** //   //     std::memset(out[0], 0, size * sizeof(float));
 563:GrannyChordApp.cpp **** //   //     std::memset(out[1], 0, size * sizeof(float));
 564:GrannyChordApp.cpp **** //   // }
 565:GrannyChordApp.cpp **** // }
 566:GrannyChordApp.cpp **** 
 567:GrannyChordApp.cpp **** /// @brief Record granular synth or chord output audio to SD card
 568:GrannyChordApp.cpp **** /// @param out Output audio buffer
 569:GrannyChordApp.cpp **** /// @param size Number of samples to process in this call
 570:GrannyChordApp.cpp **** void GrannyChordApp::RecordOutToSD(){
 3209              		.loc 3 570 37 is_stmt 1 view -0
 3210              		.cfi_startproc
ARM GAS  /var/folders/2p/02m_5p7958535cp2tpgps0400000gn/T//ccgOSWw9.s 			page 93


 3211              		@ args = 0, pretend = 0, frame = 40
 3212              		@ frame_needed = 0, uses_anonymous_args = 0
 571:GrannyChordApp.cpp ****   InitWavWriter();
 3213              		.loc 3 571 3 view .LVU893
 570:GrannyChordApp.cpp ****   InitWavWriter();
 3214              		.loc 3 570 37 is_stmt 0 view .LVU894
 3215 0000 F0B5     		push	{r4, r5, r6, r7, lr}
 3216              		.cfi_def_cfa_offset 20
 3217              		.cfi_offset 4, -20
 3218              		.cfi_offset 5, -16
 3219              		.cfi_offset 6, -12
 3220              		.cfi_offset 7, -8
 3221              		.cfi_offset 14, -4
 3222 0002 0446     		mov	r4, r0
 3223 0004 8BB0     		sub	sp, sp, #44
 3224              		.cfi_def_cfa_offset 64
 3225              		.loc 3 571 16 view .LVU895
 3226 0006 FFF7FEFF 		bl	_ZN14GrannyChordApp13InitWavWriterEv
 3227              	.LVL230:
 572:GrannyChordApp.cpp ****   char name[32];
 3228              		.loc 3 572 3 is_stmt 1 view .LVU896
 573:GrannyChordApp.cpp ****   sprintf(name,"recording_%d",recording_count_);
 3229              		.loc 3 573 3 view .LVU897
 3230              		.loc 3 573 10 is_stmt 0 view .LVU898
 3231 000a 1749     		ldr	r1, .L128
 3232 000c 04F55045 		add	r5, r4, #53248
 3233 0010 02A8     		add	r0, sp, #8
 3234              	.LBB661:
 3235              	.LBB662:
 157:../libDaisy/src/util/WavWriter.h ****         {
 3236              		.loc 9 157 18 view .LVU899
 3237 0012 04F54F46 		add	r6, r4, #52992
 3238 0016 04F59E47 		add	r7, r4, #20224
 3239              	.LBE662:
 3240              	.LBE661:
 3241              		.loc 3 573 10 view .LVU900
 3242 001a D5F88821 		ldr	r2, [r5, #392]
 3243 001e FFF7FEFF 		bl	sprintf
 3244              	.LVL231:
 574:GrannyChordApp.cpp ****   recording_count_++;
 3245              		.loc 3 574 3 is_stmt 1 view .LVU901
 3246              		.loc 3 574 19 is_stmt 0 view .LVU902
 3247 0022 D5F88831 		ldr	r3, [r5, #392]
 3248              	.LBB667:
 3249              	.LBB664:
 157:../libDaisy/src/util/WavWriter.h ****         {
 3250              		.loc 9 157 18 view .LVU903
 3251 0026 5036     		adds	r6, r6, #80
 3252 0028 0A22     		movs	r2, #10
 3253              	.LBE664:
 3254              	.LBE667:
 3255              		.loc 3 574 19 view .LVU904
 3256 002a 0133     		adds	r3, r3, #1
 3257              	.LBB668:
 3258              	.LBB665:
 157:../libDaisy/src/util/WavWriter.h ****         {
 3259              		.loc 9 157 18 view .LVU905
ARM GAS  /var/folders/2p/02m_5p7958535cp2tpgps0400000gn/T//ccgOSWw9.s 			page 94


 3260 002c 02A9     		add	r1, sp, #8
 3261 002e 3046     		mov	r0, r6
 3262 0030 0837     		adds	r7, r7, #8
 3263              	.LBE665:
 3264              	.LBE668:
 3265              		.loc 3 574 19 view .LVU906
 3266 0032 C5F88831 		str	r3, [r5, #392]
 575:GrannyChordApp.cpp ****   sd_writer_.OpenFile(name);
 3267              		.loc 3 575 3 is_stmt 1 view .LVU907
 3268              	.LVL232:
 3269              	.LBB669:
 3270              	.LBI661:
 155:../libDaisy/src/util/WavWriter.h ****     {
 3271              		.loc 9 155 10 view .LVU908
 3272              	.LBB666:
 157:../libDaisy/src/util/WavWriter.h ****         {
 3273              		.loc 9 157 18 is_stmt 0 view .LVU909
 3274 0036 FFF7FEFF 		bl	f_open
 3275              	.LVL233:
 157:../libDaisy/src/util/WavWriter.h ****         {
 3276              		.loc 9 157 9 view .LVU910
 3277 003a 80B9     		cbnz	r0, .L126
 3278              	.LBB663:
 159:../libDaisy/src/util/WavWriter.h ****             if(f_write(&fp_, &wavheader_, sizeof(wavheader_), &bw) == FR_OK)
 3279              		.loc 9 159 26 view .LVU911
 3280 003c 0190     		str	r0, [sp, #4]
 160:../libDaisy/src/util/WavWriter.h ****             {
 3281              		.loc 9 160 23 view .LVU912
 3282 003e 01AB     		add	r3, sp, #4
 3283 0040 2C22     		movs	r2, #44
 3284 0042 3946     		mov	r1, r7
 3285 0044 3046     		mov	r0, r6
 3286 0046 FFF7FEFF 		bl	f_write
 3287              	.LVL234:
 160:../libDaisy/src/util/WavWriter.h ****             {
 3288              		.loc 9 160 13 view .LVU913
 3289 004a 40B9     		cbnz	r0, .L126
 162:../libDaisy/src/util/WavWriter.h ****                 num_samps_ = 0;
 3290              		.loc 9 162 28 view .LVU914
 3291 004c 04F58043 		add	r3, r4, #16384
 3292 0050 0122     		movs	r2, #1
 3293 0052 04F54044 		add	r4, r4, #49152
 3294              	.LVL235:
 162:../libDaisy/src/util/WavWriter.h ****                 num_samps_ = 0;
 3295              		.loc 9 162 28 view .LVU915
 3296 0056 84F84C2F 		strb	r2, [r4, #3916]
 163:../libDaisy/src/util/WavWriter.h ****             }
 3297              		.loc 9 163 28 view .LVU916
 3298 005a C3F8340F 		str	r0, [r3, #3892]
 3299              	.LVL236:
 3300              	.L126:
 163:../libDaisy/src/util/WavWriter.h ****             }
 3301              		.loc 9 163 28 view .LVU917
 3302              	.LBE663:
 3303              	.LBE666:
 3304              	.LBE669:
 576:GrannyChordApp.cpp ****   recording_out_ = true;
ARM GAS  /var/folders/2p/02m_5p7958535cp2tpgps0400000gn/T//ccgOSWw9.s 			page 95


 3305              		.loc 3 576 3 is_stmt 1 view .LVU918
 3306              		.loc 3 576 18 is_stmt 0 view .LVU919
 3307 005e 0123     		movs	r3, #1
 3308 0060 85F88431 		strb	r3, [r5, #388]
 577:GrannyChordApp.cpp **** }
 3309              		.loc 3 577 1 view .LVU920
 3310 0064 0BB0     		add	sp, sp, #44
 3311              		.cfi_def_cfa_offset 20
 3312              		@ sp needed
 3313 0066 F0BD     		pop	{r4, r5, r6, r7, pc}
 3314              	.LVL237:
 3315              	.L129:
 3316              		.loc 3 577 1 view .LVU921
 3317              		.align	2
 3318              	.L128:
 3319 0068 00000000 		.word	.LC10
 3320              		.cfi_endproc
 3321              	.LFE4934:
 3323              		.section	.text._ZN14GrannyChordApp17UpdateKnob1ParamsEf9SynthMode,"ax",%progbits
 3324              		.align	1
 3325              		.global	_ZN14GrannyChordApp17UpdateKnob1ParamsEf9SynthMode
 3326              		.syntax unified
 3327              		.thumb
 3328              		.thumb_func
 3330              	_ZN14GrannyChordApp17UpdateKnob1ParamsEf9SynthMode:
 3331              	.LVL238:
 3332              	.LFB4936:
 578:GrannyChordApp.cpp **** 
 579:GrannyChordApp.cpp **** /// @brief cleans up after recording to SD card is finished
 580:GrannyChordApp.cpp **** void GrannyChordApp::FinishRecording(){
 581:GrannyChordApp.cpp ****   sd_writer_.SaveFile();
 582:GrannyChordApp.cpp ****   recording_out_=false;
 583:GrannyChordApp.cpp **** }
 584:GrannyChordApp.cpp **** 
 585:GrannyChordApp.cpp **** /// @brief Updates synth parameters from hardware knob 1 input
 586:GrannyChordApp.cpp **** /// @param knob1_val float between 0-1 from knob input
 587:GrannyChordApp.cpp **** /// @param mode current synth mode that determines which parameters to update
 588:GrannyChordApp.cpp **** void GrannyChordApp::UpdateKnob1Params(float knob1_val, SynthMode mode){
 3333              		.loc 3 588 72 is_stmt 1 view -0
 3334              		.cfi_startproc
 3335              		@ args = 0, pretend = 0, frame = 0
 3336              		@ frame_needed = 0, uses_anonymous_args = 0
 3337              		@ link register save eliminated.
 589:GrannyChordApp.cpp ****   switch (mode){
 3338              		.loc 3 589 3 view .LVU923
 3339 0000 0729     		cmp	r1, #7
 3340 0002 30D8     		bhi	.L130
 3341 0004 DFE801F0 		tbb	[pc, r1]
 3342              	.L133:
 3343 0008 04       		.byte	(.L140-.L133)/2
 3344 0009 12       		.byte	(.L139-.L133)/2
 3345 000a 07       		.byte	(.L138-.L133)/2
 3346 000b 15       		.byte	(.L137-.L133)/2
 3347 000c 0A       		.byte	(.L136-.L133)/2
 3348 000d 18       		.byte	(.L135-.L133)/2
 3349 000e 0D       		.byte	(.L134-.L133)/2
 3350 000f 1B       		.byte	(.L132-.L133)/2
ARM GAS  /var/folders/2p/02m_5p7958535cp2tpgps0400000gn/T//ccgOSWw9.s 			page 96


 3351              		.p2align 1
 3352              	.L140:
 590:GrannyChordApp.cpp ****     case SynthMode::Size_Position:
 3353              		.loc 3 590 5 view .LVU924
 591:GrannyChordApp.cpp ****       synth_.SetGrainSize(knob1_val);
 3354              		.loc 3 591 7 view .LVU925
 3355              		.loc 3 591 26 is_stmt 0 view .LVU926
 3356 0010 2030     		adds	r0, r0, #32
 3357              	.LVL239:
 3358              		.loc 3 591 26 view .LVU927
 3359 0012 FFF7FEBF 		b	_ZN13GranularSynth12SetGrainSizeEf
 3360              	.LVL240:
 3361              	.L138:
 592:GrannyChordApp.cpp ****       return;
 593:GrannyChordApp.cpp ****     case SynthMode::Pitch_ActiveGrains:
 3362              		.loc 3 593 5 is_stmt 1 view .LVU928
 594:GrannyChordApp.cpp ****       synth_.SetPitchRatio(knob1_val);
 3363              		.loc 3 594 7 view .LVU929
 3364              		.loc 3 594 27 is_stmt 0 view .LVU930
 3365 0016 2030     		adds	r0, r0, #32
 3366              	.LVL241:
 3367              		.loc 3 594 27 view .LVU931
 3368 0018 FFF7FEBF 		b	_ZN13GranularSynth13SetPitchRatioEf
 3369              	.LVL242:
 3370              	.L136:
 595:GrannyChordApp.cpp ****       return;
 596:GrannyChordApp.cpp ****     case SynthMode::Pan_Direction:
 3371              		.loc 3 596 5 is_stmt 1 view .LVU932
 597:GrannyChordApp.cpp ****       synth_.SetPan(knob1_val);
 3372              		.loc 3 597 7 view .LVU933
 3373              		.loc 3 597 20 is_stmt 0 view .LVU934
 3374 001c 2030     		adds	r0, r0, #32
 3375              	.LVL243:
 3376              		.loc 3 597 20 view .LVU935
 3377 001e FFF7FEBF 		b	_ZN13GranularSynth6SetPanEf
 3378              	.LVL244:
 3379              	.L134:
 598:GrannyChordApp.cpp ****       return;
 599:GrannyChordApp.cpp ****     case SynthMode::Reverb:
 3380              		.loc 3 599 5 is_stmt 1 view .LVU936
 600:GrannyChordApp.cpp ****        /* set reverb feedback ie tail length */
 601:GrannyChordApp.cpp ****       reverb_.SetFeedback(knob1_val); // NOTE check it doesn't clip
 3381              		.loc 3 601 7 view .LVU937
 3382              	.LBB670:
 3383              	.LBI670:
 3384              		.file 13 "../DaisySP/Source/../DaisySP-LGPL/Source/Effects/reverbsc.h"
   1:../DaisySP/Source/../DaisySP-LGPL/Source/Effects/reverbsc.h **** /*
   2:../DaisySP/Source/../DaisySP-LGPL/Source/Effects/reverbsc.h **** Copyright (c) 2023 Electrosmith, Corp, Sean Costello, Istvan Varga, Paul Batchelor
   3:../DaisySP/Source/../DaisySP-LGPL/Source/Effects/reverbsc.h **** 
   4:../DaisySP/Source/../DaisySP-LGPL/Source/Effects/reverbsc.h **** Use of this source code is governed by the LGPL V2.1
   5:../DaisySP/Source/../DaisySP-LGPL/Source/Effects/reverbsc.h **** license that can be found in the LICENSE file or at
   6:../DaisySP/Source/../DaisySP-LGPL/Source/Effects/reverbsc.h **** https://opensource.org/license/lgpl-2-1/
   7:../DaisySP/Source/../DaisySP-LGPL/Source/Effects/reverbsc.h **** */
   8:../DaisySP/Source/../DaisySP-LGPL/Source/Effects/reverbsc.h **** 
   9:../DaisySP/Source/../DaisySP-LGPL/Source/Effects/reverbsc.h **** #pragma once
  10:../DaisySP/Source/../DaisySP-LGPL/Source/Effects/reverbsc.h **** #ifndef DSYSP_REVERBSC_H
  11:../DaisySP/Source/../DaisySP-LGPL/Source/Effects/reverbsc.h **** #define DSYSP_REVERBSC_H
ARM GAS  /var/folders/2p/02m_5p7958535cp2tpgps0400000gn/T//ccgOSWw9.s 			page 97


  12:../DaisySP/Source/../DaisySP-LGPL/Source/Effects/reverbsc.h **** 
  13:../DaisySP/Source/../DaisySP-LGPL/Source/Effects/reverbsc.h **** #define DSY_REVERBSC_MAX_SIZE 98936
  14:../DaisySP/Source/../DaisySP-LGPL/Source/Effects/reverbsc.h **** // #define DSY_REVERBSC_MAX_SIZE 49468
  15:../DaisySP/Source/../DaisySP-LGPL/Source/Effects/reverbsc.h **** 
  16:../DaisySP/Source/../DaisySP-LGPL/Source/Effects/reverbsc.h **** namespace daisysp
  17:../DaisySP/Source/../DaisySP-LGPL/Source/Effects/reverbsc.h **** {
  18:../DaisySP/Source/../DaisySP-LGPL/Source/Effects/reverbsc.h **** /**Delay line for internal reverb use
  19:../DaisySP/Source/../DaisySP-LGPL/Source/Effects/reverbsc.h **** */
  20:../DaisySP/Source/../DaisySP-LGPL/Source/Effects/reverbsc.h **** typedef struct
  21:../DaisySP/Source/../DaisySP-LGPL/Source/Effects/reverbsc.h **** {
  22:../DaisySP/Source/../DaisySP-LGPL/Source/Effects/reverbsc.h ****     int    write_pos;         /**< write position */
  23:../DaisySP/Source/../DaisySP-LGPL/Source/Effects/reverbsc.h ****     int    buffer_size;       /**< buffer size */
  24:../DaisySP/Source/../DaisySP-LGPL/Source/Effects/reverbsc.h ****     int    read_pos;          /**< read position */
  25:../DaisySP/Source/../DaisySP-LGPL/Source/Effects/reverbsc.h ****     int    read_pos_frac;     /**< fractional component of read pos */
  26:../DaisySP/Source/../DaisySP-LGPL/Source/Effects/reverbsc.h ****     int    read_pos_frac_inc; /**< increment for fractional */
  27:../DaisySP/Source/../DaisySP-LGPL/Source/Effects/reverbsc.h ****     int    dummy;             /**<  dummy var */
  28:../DaisySP/Source/../DaisySP-LGPL/Source/Effects/reverbsc.h ****     int    seed_val;          /**< randseed */
  29:../DaisySP/Source/../DaisySP-LGPL/Source/Effects/reverbsc.h ****     int    rand_line_cnt;     /**< number of random lines */
  30:../DaisySP/Source/../DaisySP-LGPL/Source/Effects/reverbsc.h ****     float  filter_state;      /**< state of filter */
  31:../DaisySP/Source/../DaisySP-LGPL/Source/Effects/reverbsc.h ****     float *buf;               /**< buffer ptr */
  32:../DaisySP/Source/../DaisySP-LGPL/Source/Effects/reverbsc.h **** } ReverbScDl;
  33:../DaisySP/Source/../DaisySP-LGPL/Source/Effects/reverbsc.h **** 
  34:../DaisySP/Source/../DaisySP-LGPL/Source/Effects/reverbsc.h **** /** Stereo Reverb */
  35:../DaisySP/Source/../DaisySP-LGPL/Source/Effects/reverbsc.h **** class ReverbSc
  36:../DaisySP/Source/../DaisySP-LGPL/Source/Effects/reverbsc.h **** {
  37:../DaisySP/Source/../DaisySP-LGPL/Source/Effects/reverbsc.h ****   public:
  38:../DaisySP/Source/../DaisySP-LGPL/Source/Effects/reverbsc.h ****     ReverbSc() {}
  39:../DaisySP/Source/../DaisySP-LGPL/Source/Effects/reverbsc.h ****     ~ReverbSc() {}
  40:../DaisySP/Source/../DaisySP-LGPL/Source/Effects/reverbsc.h ****     /** Initializes the reverb module, and sets the sample_rate at which the Process function will 
  41:../DaisySP/Source/../DaisySP-LGPL/Source/Effects/reverbsc.h ****         Returns 0 if all good, or 1 if it runs out of delay times exceed maximum allowed.
  42:../DaisySP/Source/../DaisySP-LGPL/Source/Effects/reverbsc.h ****     */
  43:../DaisySP/Source/../DaisySP-LGPL/Source/Effects/reverbsc.h ****     int Init(float sample_rate);
  44:../DaisySP/Source/../DaisySP-LGPL/Source/Effects/reverbsc.h **** 
  45:../DaisySP/Source/../DaisySP-LGPL/Source/Effects/reverbsc.h ****     /** Process the input through the reverb, and updates values of out1, and out2 with the new pro
  46:../DaisySP/Source/../DaisySP-LGPL/Source/Effects/reverbsc.h ****     */
  47:../DaisySP/Source/../DaisySP-LGPL/Source/Effects/reverbsc.h ****     int Process(const float &in1, const float &in2, float *out1, float *out2);
  48:../DaisySP/Source/../DaisySP-LGPL/Source/Effects/reverbsc.h **** 
  49:../DaisySP/Source/../DaisySP-LGPL/Source/Effects/reverbsc.h ****     /* process using a simple wet/dry mix */
  50:../DaisySP/Source/../DaisySP-LGPL/Source/Effects/reverbsc.h ****     void ProcessMix(const float &in1, const float &in2, float *out1, float *out2);
  51:../DaisySP/Source/../DaisySP-LGPL/Source/Effects/reverbsc.h ****     void SetMix(float mix) { wet_mix_ = mix; }
  52:../DaisySP/Source/../DaisySP-LGPL/Source/Effects/reverbsc.h ****     /** controls the reverb time. reverb tail becomes infinite when set to 1.0
  53:../DaisySP/Source/../DaisySP-LGPL/Source/Effects/reverbsc.h ****         \param fb - sets reverb time. range: 0.0 to 1.0
  54:../DaisySP/Source/../DaisySP-LGPL/Source/Effects/reverbsc.h ****     */
  55:../DaisySP/Source/../DaisySP-LGPL/Source/Effects/reverbsc.h ****     inline void SetFeedback(const float &fb) { feedback_ = fb; }
 3385              		.loc 13 55 17 view .LVU938
 3386              	.LBB671:
 3387              		.loc 13 55 48 view .LVU939
 3388              		.loc 13 55 58 is_stmt 0 view .LVU940
 3389 0022 D0F82C32 		ldr	r3, [r0, #556]
 3390 0026 83ED000A 		vstr.32	s0, [r3]
 3391              		.loc 13 55 64 view .LVU941
 3392 002a 7047     		bx	lr
 3393              	.LVL245:
 3394              	.L139:
 3395              		.loc 13 55 64 view .LVU942
 3396              	.LBE671:
 3397              	.LBE670:
ARM GAS  /var/folders/2p/02m_5p7958535cp2tpgps0400000gn/T//ccgOSWw9.s 			page 98


 602:GrannyChordApp.cpp ****       return;
 603:GrannyChordApp.cpp ****     case SynthMode::Size_Position_Rnd:
 3398              		.loc 3 603 5 is_stmt 1 view .LVU943
 604:GrannyChordApp.cpp ****       synth_.SetSizeRnd(knob1_val);
 3399              		.loc 3 604 7 view .LVU944
 3400              	.LBB672:
 3401              	.LBI672:
 3402              		.file 14 "GranularSynth.h"
   1:GranularSynth.h **** #pragma once
   2:GranularSynth.h **** 
   3:GranularSynth.h **** #include "Grain.h"
   4:GranularSynth.h **** #include "daisy_pod.h"
   5:GranularSynth.h **** #include "debug_print.h"
   6:GranularSynth.h **** #include <vector>
   7:GranularSynth.h **** 
   8:GranularSynth.h **** class GranularSynth{
   9:GranularSynth.h ****   public:
  10:GranularSynth.h ****     GranularSynth(DaisyPod& pod) 
  11:GranularSynth.h ****       : pod_(pod), left_buf_(nullptr), right_buf_(nullptr), audio_len_(0),
  12:GranularSynth.h ****         grains_(){}
  13:GranularSynth.h **** 
  14:GranularSynth.h ****     void Init(int16_t *left, int16_t *right, size_t audio_len);
  15:GranularSynth.h ****     void Reset(size_t len);
  16:GranularSynth.h ****     void InitParams();
  17:GranularSynth.h ****     void UpdateGrainParams();
  18:GranularSynth.h ****     void ApplyRandomness();
  19:GranularSynth.h ****     void TriggerGrain();
  20:GranularSynth.h ****     Sample ProcessGrains();
  21:GranularSynth.h **** 
  22:GranularSynth.h ****     void SetPan(float pan);    
  23:GranularSynth.h ****     void SetGrainSize(float knob_val);
  24:GranularSynth.h ****     void SetSpawnPos(float knob_val);
  25:GranularSynth.h ****     void SetActiveGrains(float knob_val);
  26:GranularSynth.h ****     void SetPitchRatio(float ratio);
  27:GranularSynth.h ****     void SetDirection(float direction);
  28:GranularSynth.h **** 
  29:GranularSynth.h ****     void SetSizeRnd(float rnd){ rnd_size_ = rnd; }
 3403              		.loc 14 29 10 view .LVU945
 3404              	.LBB673:
 3405              		.loc 14 29 33 view .LVU946
 3406              		.loc 14 29 43 is_stmt 0 view .LVU947
 3407 002c 80ED6E0A 		vstr.32	s0, [r0, #440]
 3408              		.loc 14 29 50 view .LVU948
 3409 0030 7047     		bx	lr
 3410              	.LVL246:
 3411              	.L137:
 3412              		.loc 14 29 50 view .LVU949
 3413              	.LBE673:
 3414              	.LBE672:
 605:GrannyChordApp.cpp ****       return;
 606:GrannyChordApp.cpp ****     case SynthMode::Pitch_ActiveGrains_Rnd:
 3415              		.loc 3 606 5 is_stmt 1 view .LVU950
 607:GrannyChordApp.cpp ****       synth_.SetPitchRnd(knob1_val);
 3416              		.loc 3 607 7 view .LVU951
 3417              	.LBB674:
 3418              	.LBI674:
  30:GranularSynth.h ****     void SetPositionRnd(float rnd){ rnd_spawn_pos_ = rnd; }
ARM GAS  /var/folders/2p/02m_5p7958535cp2tpgps0400000gn/T//ccgOSWw9.s 			page 99


  31:GranularSynth.h ****     void SetPitchRnd(float rnd){ rnd_pitch_ = rnd; }
 3419              		.loc 14 31 10 view .LVU952
 3420              	.LBB675:
 3421              		.loc 14 31 34 view .LVU953
 3422              		.loc 14 31 45 is_stmt 0 view .LVU954
 3423 0032 80ED710A 		vstr.32	s0, [r0, #452]
 3424              		.loc 14 31 52 view .LVU955
 3425 0036 7047     		bx	lr
 3426              	.LVL247:
 3427              	.L135:
 3428              		.loc 14 31 52 view .LVU956
 3429              	.LBE675:
 3430              	.LBE674:
 608:GrannyChordApp.cpp ****       return;
 609:GrannyChordApp.cpp ****     case SynthMode::PanRnd_Chorus:
 3431              		.loc 3 609 5 is_stmt 1 view .LVU957
 610:GrannyChordApp.cpp ****       synth_.SetPanRnd(knob1_val);
 3432              		.loc 3 610 7 view .LVU958
 3433              	.LBB676:
 3434              	.LBI676:
  32:GranularSynth.h ****     void SetCountRnd(float rnd){ rnd_count_ = rnd; }
  33:GranularSynth.h ****     void SetPanRnd(float rnd){ rnd_pan_ = rnd; }
 3435              		.loc 14 33 10 view .LVU959
 3436              	.LBB677:
 3437              		.loc 14 33 32 view .LVU960
 3438              		.loc 14 33 41 is_stmt 0 view .LVU961
 3439 0038 80ED720A 		vstr.32	s0, [r0, #456]
 3440              		.loc 14 33 48 view .LVU962
 3441 003c 7047     		bx	lr
 3442              	.LVL248:
 3443              	.L132:
 3444              		.loc 14 33 48 view .LVU963
 3445              	.LBE677:
 3446              	.LBE676:
 611:GrannyChordApp.cpp ****       return;     
 612:GrannyChordApp.cpp ****     case SynthMode::Filter:
 3447              		.loc 3 612 5 is_stmt 1 view .LVU964
 613:GrannyChordApp.cpp ****       /* map knob value to frequency range with an exponential curve */
 614:GrannyChordApp.cpp ****       knob1_val = fmap(knob1_val, LOPASS_LOWER_BOUND, LOPASS_UPPER_BOUND, daisysp::Mapping::EXP);
 3448              		.loc 3 614 7 view .LVU965
 3449              	.LBB678:
 3450              	.LBI678:
 3451              		.file 15 "../DaisySP/Source/Utility/dsp.h"
   1:../DaisySP/Source/Utility/dsp.h **** /*
   2:../DaisySP/Source/Utility/dsp.h **** Copyright (c) 2020 Electrosmith, Corp, Emilie Gillet
   3:../DaisySP/Source/Utility/dsp.h **** 
   4:../DaisySP/Source/Utility/dsp.h **** Use of this source code is governed by an MIT-style
   5:../DaisySP/Source/Utility/dsp.h **** license that can be found in the LICENSE file or at
   6:../DaisySP/Source/Utility/dsp.h **** https://opensource.org/licenses/MIT.
   7:../DaisySP/Source/Utility/dsp.h **** */
   8:../DaisySP/Source/Utility/dsp.h **** 
   9:../DaisySP/Source/Utility/dsp.h **** /** Helpful defines, functions, and other utilities for use in/with daisysp modules.
  10:../DaisySP/Source/Utility/dsp.h **** */
  11:../DaisySP/Source/Utility/dsp.h **** #pragma once
  12:../DaisySP/Source/Utility/dsp.h **** #ifndef DSY_CORE_DSP
  13:../DaisySP/Source/Utility/dsp.h **** #define DSY_CORE_DSP
  14:../DaisySP/Source/Utility/dsp.h **** #include <cassert>
ARM GAS  /var/folders/2p/02m_5p7958535cp2tpgps0400000gn/T//ccgOSWw9.s 			page 100


  15:../DaisySP/Source/Utility/dsp.h **** #include <cstdint>
  16:../DaisySP/Source/Utility/dsp.h **** #include <random>
  17:../DaisySP/Source/Utility/dsp.h **** #include <cmath>
  18:../DaisySP/Source/Utility/dsp.h **** 
  19:../DaisySP/Source/Utility/dsp.h **** /** PIs
  20:../DaisySP/Source/Utility/dsp.h **** */
  21:../DaisySP/Source/Utility/dsp.h **** #define PI_F 3.1415927410125732421875f
  22:../DaisySP/Source/Utility/dsp.h **** #define TWOPI_F (2.0f * PI_F)
  23:../DaisySP/Source/Utility/dsp.h **** #define HALFPI_F (PI_F * 0.5f)
  24:../DaisySP/Source/Utility/dsp.h **** #define DSY_MIN(in, mn) (in < mn ? in : mn)
  25:../DaisySP/Source/Utility/dsp.h **** #define DSY_MAX(in, mx) (in > mx ? in : mx)
  26:../DaisySP/Source/Utility/dsp.h **** #define DSY_CLAMP(in, mn, mx) (DSY_MIN(DSY_MAX(in, mn), mx))
  27:../DaisySP/Source/Utility/dsp.h **** #define DSY_COUNTOF(_arr) (sizeof(_arr) / sizeof(_arr[0]))
  28:../DaisySP/Source/Utility/dsp.h **** 
  29:../DaisySP/Source/Utility/dsp.h **** namespace daisysp
  30:../DaisySP/Source/Utility/dsp.h **** {
  31:../DaisySP/Source/Utility/dsp.h **** //Avoids division for random floats. e.g. rand() * kRandFrac
  32:../DaisySP/Source/Utility/dsp.h **** static constexpr float kRandFrac = 1.f / (float)RAND_MAX;
  33:../DaisySP/Source/Utility/dsp.h **** 
  34:../DaisySP/Source/Utility/dsp.h **** //Convert from semitones to other units. e.g. 2 ^ (kOneTwelfth * x)
  35:../DaisySP/Source/Utility/dsp.h **** static constexpr float kOneTwelfth = 1.f / 12.f;
  36:../DaisySP/Source/Utility/dsp.h **** 
  37:../DaisySP/Source/Utility/dsp.h **** /** efficient floating point min/max
  38:../DaisySP/Source/Utility/dsp.h **** c/o stephen mccaul
  39:../DaisySP/Source/Utility/dsp.h **** */
  40:../DaisySP/Source/Utility/dsp.h **** inline float fmax(float a, float b)
  41:../DaisySP/Source/Utility/dsp.h **** {
  42:../DaisySP/Source/Utility/dsp.h ****     float r;
  43:../DaisySP/Source/Utility/dsp.h **** #ifdef __arm__
  44:../DaisySP/Source/Utility/dsp.h ****     asm("vmaxnm.f32 %[d], %[n], %[m]" : [d] "=t"(r) : [n] "t"(a), [m] "t"(b) :);
  45:../DaisySP/Source/Utility/dsp.h **** #else
  46:../DaisySP/Source/Utility/dsp.h ****     r = (a > b) ? a : b;
  47:../DaisySP/Source/Utility/dsp.h **** #endif // __arm__
  48:../DaisySP/Source/Utility/dsp.h ****     return r;
  49:../DaisySP/Source/Utility/dsp.h **** }
  50:../DaisySP/Source/Utility/dsp.h **** 
  51:../DaisySP/Source/Utility/dsp.h **** inline float fmin(float a, float b)
  52:../DaisySP/Source/Utility/dsp.h **** {
  53:../DaisySP/Source/Utility/dsp.h ****     float r;
  54:../DaisySP/Source/Utility/dsp.h **** #ifdef __arm__
  55:../DaisySP/Source/Utility/dsp.h ****     asm("vminnm.f32 %[d], %[n], %[m]" : [d] "=t"(r) : [n] "t"(a), [m] "t"(b) :);
  56:../DaisySP/Source/Utility/dsp.h **** #else
  57:../DaisySP/Source/Utility/dsp.h ****     r = (a < b) ? a : b;
  58:../DaisySP/Source/Utility/dsp.h **** #endif // __arm__
  59:../DaisySP/Source/Utility/dsp.h ****     return r;
  60:../DaisySP/Source/Utility/dsp.h **** }
  61:../DaisySP/Source/Utility/dsp.h **** 
  62:../DaisySP/Source/Utility/dsp.h **** /** quick fp clamp
  63:../DaisySP/Source/Utility/dsp.h **** */
  64:../DaisySP/Source/Utility/dsp.h **** inline float fclamp(float in, float min, float max)
  65:../DaisySP/Source/Utility/dsp.h **** {
  66:../DaisySP/Source/Utility/dsp.h ****     return fmin(fmax(in, min), max);
  67:../DaisySP/Source/Utility/dsp.h **** }
  68:../DaisySP/Source/Utility/dsp.h **** 
  69:../DaisySP/Source/Utility/dsp.h **** /** From Musicdsp.org "Fast power and root estimates for 32bit floats)
  70:../DaisySP/Source/Utility/dsp.h **** Original code by Stefan Stenzel
  71:../DaisySP/Source/Utility/dsp.h **** These are approximations
ARM GAS  /var/folders/2p/02m_5p7958535cp2tpgps0400000gn/T//ccgOSWw9.s 			page 101


  72:../DaisySP/Source/Utility/dsp.h **** */
  73:../DaisySP/Source/Utility/dsp.h **** inline float fastpower(float f, int n)
  74:../DaisySP/Source/Utility/dsp.h **** {
  75:../DaisySP/Source/Utility/dsp.h ****     long *lp, l;
  76:../DaisySP/Source/Utility/dsp.h ****     lp = (long *)(&f);
  77:../DaisySP/Source/Utility/dsp.h ****     l  = *lp;
  78:../DaisySP/Source/Utility/dsp.h ****     l -= 0x3F800000;
  79:../DaisySP/Source/Utility/dsp.h ****     l <<= (n - 1);
  80:../DaisySP/Source/Utility/dsp.h ****     l += 0x3F800000;
  81:../DaisySP/Source/Utility/dsp.h ****     *lp = l;
  82:../DaisySP/Source/Utility/dsp.h ****     return f;
  83:../DaisySP/Source/Utility/dsp.h **** }
  84:../DaisySP/Source/Utility/dsp.h **** 
  85:../DaisySP/Source/Utility/dsp.h **** inline float fastroot(float f, int n)
  86:../DaisySP/Source/Utility/dsp.h **** {
  87:../DaisySP/Source/Utility/dsp.h ****     long *lp, l;
  88:../DaisySP/Source/Utility/dsp.h ****     lp = (long *)(&f);
  89:../DaisySP/Source/Utility/dsp.h ****     l  = *lp;
  90:../DaisySP/Source/Utility/dsp.h ****     l -= 0x3F800000;
  91:../DaisySP/Source/Utility/dsp.h ****     l >>= (n - 1);
  92:../DaisySP/Source/Utility/dsp.h ****     l += 0x3F800000;
  93:../DaisySP/Source/Utility/dsp.h ****     *lp = l;
  94:../DaisySP/Source/Utility/dsp.h ****     return f;
  95:../DaisySP/Source/Utility/dsp.h **** }
  96:../DaisySP/Source/Utility/dsp.h **** 
  97:../DaisySP/Source/Utility/dsp.h **** /** Significantly more efficient than fmodf(x, 1.0f) for calculating
  98:../DaisySP/Source/Utility/dsp.h ****  *  the decimal part of a floating point value.
  99:../DaisySP/Source/Utility/dsp.h ****  */
 100:../DaisySP/Source/Utility/dsp.h **** inline float fastmod1f(float x)
 101:../DaisySP/Source/Utility/dsp.h **** {
 102:../DaisySP/Source/Utility/dsp.h ****     return x - static_cast<int>(x);
 103:../DaisySP/Source/Utility/dsp.h **** }
 104:../DaisySP/Source/Utility/dsp.h **** 
 105:../DaisySP/Source/Utility/dsp.h **** /** From http://openaudio.blogspot.com/2017/02/faster-log10-and-pow.html
 106:../DaisySP/Source/Utility/dsp.h **** No approximation, pow10f(x) gives a 90% speed increase over powf(10.f, x)
 107:../DaisySP/Source/Utility/dsp.h **** */
 108:../DaisySP/Source/Utility/dsp.h **** inline float pow10f(float f)
 109:../DaisySP/Source/Utility/dsp.h **** {
 110:../DaisySP/Source/Utility/dsp.h ****     return expf(2.302585092994046f * f);
 111:../DaisySP/Source/Utility/dsp.h **** }
 112:../DaisySP/Source/Utility/dsp.h **** 
 113:../DaisySP/Source/Utility/dsp.h **** /* Original code for fastlog2f by Dr. Paul Beckmann from the ARM community forum, adapted from the 
 114:../DaisySP/Source/Utility/dsp.h **** About 25% performance increase over std::log10f
 115:../DaisySP/Source/Utility/dsp.h **** */
 116:../DaisySP/Source/Utility/dsp.h **** inline float fastlog2f(float f)
 117:../DaisySP/Source/Utility/dsp.h **** {
 118:../DaisySP/Source/Utility/dsp.h ****     float frac;
 119:../DaisySP/Source/Utility/dsp.h ****     int   exp;
 120:../DaisySP/Source/Utility/dsp.h ****     frac = frexpf(fabsf(f), &exp);
 121:../DaisySP/Source/Utility/dsp.h ****     f    = 1.23149591368684f;
 122:../DaisySP/Source/Utility/dsp.h ****     f *= frac;
 123:../DaisySP/Source/Utility/dsp.h ****     f += -4.11852516267426f;
 124:../DaisySP/Source/Utility/dsp.h ****     f *= frac;
 125:../DaisySP/Source/Utility/dsp.h ****     f += 6.02197014179219f;
 126:../DaisySP/Source/Utility/dsp.h ****     f *= frac;
 127:../DaisySP/Source/Utility/dsp.h ****     f += -3.13396450166353f;
 128:../DaisySP/Source/Utility/dsp.h ****     f += exp;
ARM GAS  /var/folders/2p/02m_5p7958535cp2tpgps0400000gn/T//ccgOSWw9.s 			page 102


 129:../DaisySP/Source/Utility/dsp.h ****     return (f);
 130:../DaisySP/Source/Utility/dsp.h **** }
 131:../DaisySP/Source/Utility/dsp.h **** 
 132:../DaisySP/Source/Utility/dsp.h **** inline float fastlog10f(float f)
 133:../DaisySP/Source/Utility/dsp.h **** {
 134:../DaisySP/Source/Utility/dsp.h ****     return fastlog2f(f) * 0.3010299956639812f;
 135:../DaisySP/Source/Utility/dsp.h **** }
 136:../DaisySP/Source/Utility/dsp.h **** 
 137:../DaisySP/Source/Utility/dsp.h **** /** Midi to frequency helper
 138:../DaisySP/Source/Utility/dsp.h **** */
 139:../DaisySP/Source/Utility/dsp.h **** inline float mtof(float m)
 140:../DaisySP/Source/Utility/dsp.h **** {
 141:../DaisySP/Source/Utility/dsp.h ****     return powf(2, (m - 69.0f) / 12.0f) * 440.0f;
 142:../DaisySP/Source/Utility/dsp.h **** }
 143:../DaisySP/Source/Utility/dsp.h **** 
 144:../DaisySP/Source/Utility/dsp.h **** 
 145:../DaisySP/Source/Utility/dsp.h **** /** one pole lpf
 146:../DaisySP/Source/Utility/dsp.h **** out is passed by reference, and must be retained between
 147:../DaisySP/Source/Utility/dsp.h **** calls to properly filter the signal
 148:../DaisySP/Source/Utility/dsp.h **** coeff can be calculated:
 149:../DaisySP/Source/Utility/dsp.h **** coeff = 1.0 / (time * sample_rate) ; where time is in seconds
 150:../DaisySP/Source/Utility/dsp.h **** */
 151:../DaisySP/Source/Utility/dsp.h **** inline void fonepole(float &out, float in, float coeff)
 152:../DaisySP/Source/Utility/dsp.h **** {
 153:../DaisySP/Source/Utility/dsp.h ****     out += coeff * (in - out);
 154:../DaisySP/Source/Utility/dsp.h **** }
 155:../DaisySP/Source/Utility/dsp.h **** 
 156:../DaisySP/Source/Utility/dsp.h **** /** Curves to use with the fmap function */
 157:../DaisySP/Source/Utility/dsp.h **** enum class Mapping
 158:../DaisySP/Source/Utility/dsp.h **** {
 159:../DaisySP/Source/Utility/dsp.h ****     LINEAR,
 160:../DaisySP/Source/Utility/dsp.h ****     EXP,
 161:../DaisySP/Source/Utility/dsp.h ****     LOG,
 162:../DaisySP/Source/Utility/dsp.h **** };
 163:../DaisySP/Source/Utility/dsp.h **** 
 164:../DaisySP/Source/Utility/dsp.h **** /** Maps a float between a specified range, using a specified curve.
 165:../DaisySP/Source/Utility/dsp.h ****  *
 166:../DaisySP/Source/Utility/dsp.h ****  *  \param in a value between 0 to 1 that will be mapped to the new range.
 167:../DaisySP/Source/Utility/dsp.h ****  *  \param min the new minimum value
 168:../DaisySP/Source/Utility/dsp.h ****  *  \param max the new maxmimum value
 169:../DaisySP/Source/Utility/dsp.h ****  *  \param curve a Mapping Value to adjust the response curve of the transformation
 170:../DaisySP/Source/Utility/dsp.h ****  *               defaults to Linear. @see Mapping
 171:../DaisySP/Source/Utility/dsp.h ****  *
 172:../DaisySP/Source/Utility/dsp.h ****  *  When using the log curve min and max, must be greater than zero.
 173:../DaisySP/Source/Utility/dsp.h ****  *
 174:../DaisySP/Source/Utility/dsp.h ****  *  \retval returns the transformed float within the new range.
 175:../DaisySP/Source/Utility/dsp.h **** */
 176:../DaisySP/Source/Utility/dsp.h **** inline float
 177:../DaisySP/Source/Utility/dsp.h **** fmap(float in, float min, float max, Mapping curve = Mapping::LINEAR)
 3452              		.loc 15 177 1 view .LVU966
 3453              	.LBE678:
 178:../DaisySP/Source/Utility/dsp.h **** {
 179:../DaisySP/Source/Utility/dsp.h ****     switch(curve)
 3454              		.loc 15 179 5 view .LVU967
 3455              	.LBB688:
 3456              	.LBB679:
 180:../DaisySP/Source/Utility/dsp.h ****     {
ARM GAS  /var/folders/2p/02m_5p7958535cp2tpgps0400000gn/T//ccgOSWw9.s 			page 103


 181:../DaisySP/Source/Utility/dsp.h ****         case Mapping::EXP:
 3457              		.loc 15 181 9 view .LVU968
 182:../DaisySP/Source/Utility/dsp.h ****             return fclamp(min + (in * in) * (max - min), min, max);
 3458              		.loc 15 182 13 view .LVU969
 3459              		.loc 15 182 26 is_stmt 0 view .LVU970
 3460 003e B3EE047A 		vmov.f32	s14, #2.0e+1
 3461 0042 DFED096A 		vldr.32	s13, .L141
 3462              		.loc 15 182 37 view .LVU971
 3463 0046 20EE000A 		vmul.f32	s0, s0, s0
 3464              	.LVL249:
 3465              		.loc 15 182 37 view .LVU972
 3466              	.LBE679:
 3467              	.LBE688:
 3468              	.LBB689:
 3469              	.LBB690:
  39:../DaisySP/Source/../DaisySP-LGPL/Source/Filters/moogladder.h ****     /** 
 3470              		.loc 10 39 45 view .LVU973
 3471 004a 00F59B40 		add	r0, r0, #19840
 3472              	.LVL250:
  39:../DaisySP/Source/../DaisySP-LGPL/Source/Filters/moogladder.h ****     /** 
 3473              		.loc 10 39 45 view .LVU974
 3474              	.LBE690:
 3475              	.LBE689:
 3476              	.LBB692:
 3477              	.LBB686:
 3478              		.loc 15 182 26 view .LVU975
 3479 004e F0EE477A 		vmov.f32	s15, s14
 3480 0052 E0EE267A 		vfma.f32	s15, s0, s13
 3481              	.LVL251:
 3482              	.LBB680:
 3483              	.LBI680:
  64:../DaisySP/Source/Utility/dsp.h **** {
 3484              		.loc 15 64 14 is_stmt 1 view .LVU976
 3485              	.LBE680:
 3486              	.LBE686:
 3487              	.LBE692:
  66:../DaisySP/Source/Utility/dsp.h **** }
 3488              		.loc 15 66 5 view .LVU977
 3489              	.LBB693:
 3490              	.LBB687:
 3491              	.LBB685:
 3492              	.LBB681:
 3493              	.LBI681:
  40:../DaisySP/Source/Utility/dsp.h **** {
 3494              		.loc 15 40 14 view .LVU978
 3495              	.LBB682:
  42:../DaisySP/Source/Utility/dsp.h **** #ifdef __arm__
 3496              		.loc 15 42 5 view .LVU979
  44:../DaisySP/Source/Utility/dsp.h **** #else
 3497              		.loc 15 44 5 view .LVU980
 3498              		.syntax unified
 3499              	@ 44 "../DaisySP/Source/Utility/dsp.h" 1
 3500 0056 C7FE877A 		vmaxnm.f32 s15, s15, s14
 3501              	@ 0 "" 2
 3502              	.LVL252:
  48:../DaisySP/Source/Utility/dsp.h **** }
 3503              		.loc 15 48 5 view .LVU981
ARM GAS  /var/folders/2p/02m_5p7958535cp2tpgps0400000gn/T//ccgOSWw9.s 			page 104


  48:../DaisySP/Source/Utility/dsp.h **** }
 3504              		.loc 15 48 5 is_stmt 0 view .LVU982
 3505              		.thumb
 3506              		.syntax unified
 3507              	.LBE682:
 3508              	.LBE681:
 3509              	.LBB683:
 3510              	.LBI683:
  51:../DaisySP/Source/Utility/dsp.h **** {
 3511              		.loc 15 51 14 is_stmt 1 view .LVU983
 3512              	.LBB684:
  53:../DaisySP/Source/Utility/dsp.h **** #ifdef __arm__
 3513              		.loc 15 53 5 view .LVU984
  55:../DaisySP/Source/Utility/dsp.h **** #else
 3514              		.loc 15 55 5 view .LVU985
 3515 005a 9FED047A 		vldr.32	s14, .L141+4
 3516              	.LVL253:
  55:../DaisySP/Source/Utility/dsp.h **** #else
 3517              		.loc 15 55 5 is_stmt 0 view .LVU986
 3518              		.syntax unified
 3519              	@ 55 "../DaisySP/Source/Utility/dsp.h" 1
 3520 005e C7FEC77A 		vminnm.f32 s15, s15, s14
 3521              	@ 0 "" 2
 3522              	.LVL254:
  59:../DaisySP/Source/Utility/dsp.h **** }
 3523              		.loc 15 59 5 is_stmt 1 view .LVU987
  59:../DaisySP/Source/Utility/dsp.h **** }
 3524              		.loc 15 59 5 is_stmt 0 view .LVU988
 3525              		.thumb
 3526              		.syntax unified
 3527              	.LBE684:
 3528              	.LBE683:
 3529              	.LBE685:
 3530              	.LBE687:
 3531              	.LBE693:
 615:GrannyChordApp.cpp ****       /* set cutoff frequency of low pass moog filter */
 616:GrannyChordApp.cpp ****       lowpass_moog_.SetFreq(knob1_val);
 3532              		.loc 3 616 7 is_stmt 1 view .LVU989
 3533              	.LBB694:
 3534              	.LBI689:
  39:../DaisySP/Source/../DaisySP-LGPL/Source/Filters/moogladder.h ****     /** 
 3535              		.loc 10 39 17 view .LVU990
 3536              	.LBB691:
  39:../DaisySP/Source/../DaisySP-LGPL/Source/Filters/moogladder.h ****     /** 
 3537              		.loc 10 39 39 view .LVU991
  39:../DaisySP/Source/../DaisySP-LGPL/Source/Filters/moogladder.h ****     /** 
 3538              		.loc 10 39 45 is_stmt 0 view .LVU992
 3539 0062 C0ED057A 		vstr.32	s15, [r0, #20]
 3540              	.LVL255:
 3541              	.L130:
  39:../DaisySP/Source/../DaisySP-LGPL/Source/Filters/moogladder.h ****     /** 
 3542              		.loc 10 39 45 view .LVU993
 3543              	.LBE691:
 3544              	.LBE694:
 617:GrannyChordApp.cpp ****       return;
 618:GrannyChordApp.cpp ****   }
 619:GrannyChordApp.cpp **** }
ARM GAS  /var/folders/2p/02m_5p7958535cp2tpgps0400000gn/T//ccgOSWw9.s 			page 105


 3545              		.loc 3 619 1 view .LVU994
 3546 0066 7047     		bx	lr
 3547              	.L142:
 3548              		.align	2
 3549              	.L141:
 3550 0068 00788C46 		.word	1183610880
 3551 006c 00A08C46 		.word	1183621120
 3552              		.cfi_endproc
 3553              	.LFE4936:
 3555              		.section	.text._ZN14GrannyChordApp17UpdateKnob2ParamsEf9SynthMode,"ax",%progbits
 3556              		.align	1
 3557              		.global	_ZN14GrannyChordApp17UpdateKnob2ParamsEf9SynthMode
 3558              		.syntax unified
 3559              		.thumb
 3560              		.thumb_func
 3562              	_ZN14GrannyChordApp17UpdateKnob2ParamsEf9SynthMode:
 3563              	.LVL256:
 3564              	.LFB4937:
 620:GrannyChordApp.cpp **** 
 621:GrannyChordApp.cpp **** /// @brief Updates synth parameters from hardware knob 2 input
 622:GrannyChordApp.cpp **** /// @param knob1_val float between 0-1 from knob input
 623:GrannyChordApp.cpp **** /// @param mode current synth mode that determines which parameters to update
 624:GrannyChordApp.cpp **** void GrannyChordApp::UpdateKnob2Params(float knob2_val, SynthMode mode){
 3565              		.loc 3 624 72 is_stmt 1 view -0
 3566              		.cfi_startproc
 3567              		@ args = 0, pretend = 0, frame = 8
 3568              		@ frame_needed = 0, uses_anonymous_args = 0
 625:GrannyChordApp.cpp ****   switch (mode){
 3569              		.loc 3 625 3 view .LVU996
 624:GrannyChordApp.cpp ****   switch (mode){
 3570              		.loc 3 624 72 is_stmt 0 view .LVU997
 3571 0000 00B5     		push	{lr}
 3572              		.cfi_def_cfa_offset 4
 3573              		.cfi_offset 14, -4
 3574 0002 0346     		mov	r3, r0
 3575 0004 2DED028B 		vpush.64	{d8}
 3576              		.cfi_def_cfa_offset 12
 3577              		.cfi_offset 80, -12
 3578              		.cfi_offset 81, -8
 3579 0008 B0EE408A 		vmov.f32	s16, s0
 3580 000c 83B0     		sub	sp, sp, #12
 3581              		.cfi_def_cfa_offset 24
 3582              		.loc 3 625 3 view .LVU998
 3583 000e 0729     		cmp	r1, #7
 3584 0010 23D8     		bhi	.L143
 3585 0012 DFE801F0 		tbb	[pc, r1]
 3586              	.L146:
 3587 0016 04       		.byte	(.L153-.L146)/2
 3588 0017 27       		.byte	(.L152-.L146)/2
 3589 0018 0C       		.byte	(.L151-.L146)/2
 3590 0019 2A       		.byte	(.L150-.L146)/2
 3591 001a 14       		.byte	(.L149-.L146)/2
 3592 001b 2D       		.byte	(.L148-.L146)/2
 3593 001c 1C       		.byte	(.L147-.L146)/2
 3594 001d 50       		.byte	(.L145-.L146)/2
 3595              		.p2align 1
 3596              	.L153:
ARM GAS  /var/folders/2p/02m_5p7958535cp2tpgps0400000gn/T//ccgOSWw9.s 			page 106


 626:GrannyChordApp.cpp ****     case SynthMode::Size_Position:
 3597              		.loc 3 626 5 is_stmt 1 view .LVU999
 627:GrannyChordApp.cpp ****       synth_.SetSpawnPos(knob2_val);
 3598              		.loc 3 627 7 view .LVU1000
 3599              		.loc 3 627 25 is_stmt 0 view .LVU1001
 3600 001e 2030     		adds	r0, r0, #32
 3601              	.LVL257:
 628:GrannyChordApp.cpp ****       return;
 629:GrannyChordApp.cpp ****     case SynthMode::Pitch_ActiveGrains:
 630:GrannyChordApp.cpp ****       synth_.SetActiveGrains(knob2_val);
 631:GrannyChordApp.cpp ****       return;
 632:GrannyChordApp.cpp ****     case SynthMode::Pan_Direction:
 633:GrannyChordApp.cpp ****       synth_.SetDirection(knob2_val);
 634:GrannyChordApp.cpp ****       return;
 635:GrannyChordApp.cpp ****     case SynthMode::Reverb:
 636:GrannyChordApp.cpp ****         reverb_.SetMix(knob2_val);
 637:GrannyChordApp.cpp ****         return;
 638:GrannyChordApp.cpp ****     case SynthMode::Size_Position_Rnd:
 639:GrannyChordApp.cpp ****       synth_.SetPositionRnd(knob2_val);
 640:GrannyChordApp.cpp ****       return;
 641:GrannyChordApp.cpp ****     case SynthMode::Pitch_ActiveGrains_Rnd:
 642:GrannyChordApp.cpp ****       synth_.SetCountRnd(knob2_val);
 643:GrannyChordApp.cpp ****       return;
 644:GrannyChordApp.cpp ****     case SynthMode::PanRnd_Chorus:
 645:GrannyChordApp.cpp ****       /* set chorus left/right channel to (synth pan +/- 10%) */
 646:GrannyChordApp.cpp ****       chorus_.SetPan(fclamp(synth_.GetPan()+0.1f,0,1), (fclamp(synth_.GetPan()-0.1f,0,1)));
 647:GrannyChordApp.cpp ****       chorus_.SetLfoDepth(knob2_val);
 648:GrannyChordApp.cpp ****       return;
 649:GrannyChordApp.cpp ****     case SynthMode::Filter:
 650:GrannyChordApp.cpp ****       /* map knob value to frequency range with linear curve */
 651:GrannyChordApp.cpp ****       knob2_val = fmap(knob2_val, HIPASS_LOWER_BOUND, HIPASS_UPPER_BOUND, daisysp::Mapping::EXP);
 652:GrannyChordApp.cpp ****       /* set cutoff frequency for high pass filter */
 653:GrannyChordApp.cpp ****       hipass_.SetFrequency(knob2_val);
 654:GrannyChordApp.cpp ****       return;
 655:GrannyChordApp.cpp ****   }
 656:GrannyChordApp.cpp **** }
 3602              		.loc 3 656 1 view .LVU1002
 3603 0020 03B0     		add	sp, sp, #12
 3604              		.cfi_remember_state
 3605              		.cfi_def_cfa_offset 12
 3606              		@ sp needed
 3607 0022 BDEC028B 		vldm	sp!, {d8}
 3608              		.cfi_restore 80
 3609              		.cfi_restore 81
 3610              		.cfi_def_cfa_offset 4
 3611 0026 5DF804EB 		ldr	lr, [sp], #4
 3612              		.cfi_restore 14
 3613              		.cfi_def_cfa_offset 0
 627:GrannyChordApp.cpp ****       synth_.SetSpawnPos(knob2_val);
 3614              		.loc 3 627 25 view .LVU1003
 3615 002a FFF7FEBF 		b	_ZN13GranularSynth11SetSpawnPosEf
 3616              	.LVL258:
 3617              	.L151:
 3618              		.cfi_restore_state
 629:GrannyChordApp.cpp ****       synth_.SetActiveGrains(knob2_val);
 3619              		.loc 3 629 5 is_stmt 1 view .LVU1004
 630:GrannyChordApp.cpp ****       return;
ARM GAS  /var/folders/2p/02m_5p7958535cp2tpgps0400000gn/T//ccgOSWw9.s 			page 107


 3620              		.loc 3 630 7 view .LVU1005
 630:GrannyChordApp.cpp ****       return;
 3621              		.loc 3 630 29 is_stmt 0 view .LVU1006
 3622 002e 2030     		adds	r0, r0, #32
 3623              	.LVL259:
 3624              		.loc 3 656 1 view .LVU1007
 3625 0030 03B0     		add	sp, sp, #12
 3626              		.cfi_remember_state
 3627              		.cfi_def_cfa_offset 12
 3628              		@ sp needed
 3629 0032 BDEC028B 		vldm	sp!, {d8}
 3630              		.cfi_restore 80
 3631              		.cfi_restore 81
 3632              		.cfi_def_cfa_offset 4
 3633 0036 5DF804EB 		ldr	lr, [sp], #4
 3634              		.cfi_restore 14
 3635              		.cfi_def_cfa_offset 0
 630:GrannyChordApp.cpp ****       return;
 3636              		.loc 3 630 29 view .LVU1008
 3637 003a FFF7FEBF 		b	_ZN13GranularSynth15SetActiveGrainsEf
 3638              	.LVL260:
 3639              	.L149:
 3640              		.cfi_restore_state
 632:GrannyChordApp.cpp ****       synth_.SetDirection(knob2_val);
 3641              		.loc 3 632 5 is_stmt 1 view .LVU1009
 633:GrannyChordApp.cpp ****       return;
 3642              		.loc 3 633 7 view .LVU1010
 633:GrannyChordApp.cpp ****       return;
 3643              		.loc 3 633 26 is_stmt 0 view .LVU1011
 3644 003e 2030     		adds	r0, r0, #32
 3645              	.LVL261:
 3646              		.loc 3 656 1 view .LVU1012
 3647 0040 03B0     		add	sp, sp, #12
 3648              		.cfi_remember_state
 3649              		.cfi_def_cfa_offset 12
 3650              		@ sp needed
 3651 0042 BDEC028B 		vldm	sp!, {d8}
 3652              		.cfi_restore 80
 3653              		.cfi_restore 81
 3654              		.cfi_def_cfa_offset 4
 3655 0046 5DF804EB 		ldr	lr, [sp], #4
 3656              		.cfi_restore 14
 3657              		.cfi_def_cfa_offset 0
 633:GrannyChordApp.cpp ****       return;
 3658              		.loc 3 633 26 view .LVU1013
 3659 004a FFF7FEBF 		b	_ZN13GranularSynth12SetDirectionEf
 3660              	.LVL262:
 3661              	.L147:
 3662              		.cfi_restore_state
 635:GrannyChordApp.cpp ****         reverb_.SetMix(knob2_val);
 3663              		.loc 3 635 5 is_stmt 1 view .LVU1014
 636:GrannyChordApp.cpp ****         return;
 3664              		.loc 3 636 9 view .LVU1015
 3665              	.LBB695:
 3666              	.LBI695:
  51:../DaisySP/Source/../DaisySP-LGPL/Source/Effects/reverbsc.h ****     /** controls the reverb time. reverb tail becomes infinite when set to 1.0
 3667              		.loc 13 51 10 view .LVU1016
ARM GAS  /var/folders/2p/02m_5p7958535cp2tpgps0400000gn/T//ccgOSWw9.s 			page 108


 3668              	.LBB696:
  51:../DaisySP/Source/../DaisySP-LGPL/Source/Effects/reverbsc.h ****     /** controls the reverb time. reverb tail becomes infinite when set to 1.0
 3669              		.loc 13 51 30 view .LVU1017
  51:../DaisySP/Source/../DaisySP-LGPL/Source/Effects/reverbsc.h ****     /** controls the reverb time. reverb tail becomes infinite when set to 1.0
 3670              		.loc 13 51 39 is_stmt 0 view .LVU1018
 3671 004e D0F82C32 		ldr	r3, [r0, #556]
 3672 0052 03F5C123 		add	r3, r3, #395264
 3673 0056 83EDD10A 		vstr.32	s0, [r3, #836]
 3674              	.LVL263:
 3675              	.L143:
  51:../DaisySP/Source/../DaisySP-LGPL/Source/Effects/reverbsc.h ****     /** controls the reverb time. reverb tail becomes infinite when set to 1.0
 3676              		.loc 13 51 39 view .LVU1019
 3677              	.LBE696:
 3678              	.LBE695:
 3679              		.loc 3 656 1 view .LVU1020
 3680 005a 03B0     		add	sp, sp, #12
 3681              		.cfi_remember_state
 3682              		.cfi_def_cfa_offset 12
 3683              		@ sp needed
 3684 005c BDEC028B 		vldm	sp!, {d8}
 3685              		.cfi_restore 80
 3686              		.cfi_restore 81
 3687              		.cfi_def_cfa_offset 4
 3688 0060 5DF804FB 		ldr	pc, [sp], #4
 3689              	.LVL264:
 3690              	.L152:
 3691              		.cfi_restore_state
 638:GrannyChordApp.cpp ****       synth_.SetPositionRnd(knob2_val);
 3692              		.loc 3 638 5 is_stmt 1 view .LVU1021
 639:GrannyChordApp.cpp ****       return;
 3693              		.loc 3 639 7 view .LVU1022
 3694              	.LBB697:
 3695              	.LBI697:
  30:GranularSynth.h ****     void SetPitchRnd(float rnd){ rnd_pitch_ = rnd; }
 3696              		.loc 14 30 10 view .LVU1023
 3697              	.LBB698:
  30:GranularSynth.h ****     void SetPitchRnd(float rnd){ rnd_pitch_ = rnd; }
 3698              		.loc 14 30 37 view .LVU1024
  30:GranularSynth.h ****     void SetPitchRnd(float rnd){ rnd_pitch_ = rnd; }
 3699              		.loc 14 30 52 is_stmt 0 view .LVU1025
 3700 0064 83ED6F0A 		vstr.32	s0, [r3, #444]
  30:GranularSynth.h ****     void SetPitchRnd(float rnd){ rnd_pitch_ = rnd; }
 3701              		.loc 14 30 59 view .LVU1026
 3702 0068 F7E7     		b	.L143
 3703              	.LVL265:
 3704              	.L150:
  30:GranularSynth.h ****     void SetPitchRnd(float rnd){ rnd_pitch_ = rnd; }
 3705              		.loc 14 30 59 view .LVU1027
 3706              	.LBE698:
 3707              	.LBE697:
 641:GrannyChordApp.cpp ****       synth_.SetCountRnd(knob2_val);
 3708              		.loc 3 641 5 is_stmt 1 view .LVU1028
 642:GrannyChordApp.cpp ****       return;
 3709              		.loc 3 642 7 view .LVU1029
 3710              	.LBB699:
 3711              	.LBI699:
  32:GranularSynth.h ****     void SetPanRnd(float rnd){ rnd_pan_ = rnd; }
ARM GAS  /var/folders/2p/02m_5p7958535cp2tpgps0400000gn/T//ccgOSWw9.s 			page 109


 3712              		.loc 14 32 10 view .LVU1030
 3713              	.LBB700:
  32:GranularSynth.h ****     void SetPanRnd(float rnd){ rnd_pan_ = rnd; }
 3714              		.loc 14 32 34 view .LVU1031
  32:GranularSynth.h ****     void SetPanRnd(float rnd){ rnd_pan_ = rnd; }
 3715              		.loc 14 32 45 is_stmt 0 view .LVU1032
 3716 006a 83ED700A 		vstr.32	s0, [r3, #448]
  32:GranularSynth.h ****     void SetPanRnd(float rnd){ rnd_pan_ = rnd; }
 3717              		.loc 14 32 52 view .LVU1033
 3718 006e F4E7     		b	.L143
 3719              	.LVL266:
 3720              	.L148:
  32:GranularSynth.h ****     void SetPanRnd(float rnd){ rnd_pan_ = rnd; }
 3721              		.loc 14 32 52 view .LVU1034
 3722              	.LBE700:
 3723              	.LBE699:
 644:GrannyChordApp.cpp ****       /* set chorus left/right channel to (synth pan +/- 10%) */
 3724              		.loc 3 644 5 is_stmt 1 view .LVU1035
 646:GrannyChordApp.cpp ****       chorus_.SetLfoDepth(knob2_val);
 3725              		.loc 3 646 7 view .LVU1036
 3726              	.LBB701:
 3727              	.LBB702:
  34:GranularSynth.h **** 
  35:GranularSynth.h ****     /* used to set chorus pan */
  36:GranularSynth.h ****     float GetPan(){ return pan_; }
 3728              		.loc 14 36 28 is_stmt 0 view .LVU1037
 3729 0070 D3ED6C7A 		vldr.32	s15, [r3, #432]
 3730              	.LBE702:
 3731              	.LBE701:
 646:GrannyChordApp.cpp ****       chorus_.SetLfoDepth(knob2_val);
 3732              		.loc 3 646 21 view .LVU1038
 3733 0074 00F50C70 		add	r0, r0, #560
 3734              	.LVL267:
 3735              	.LBB704:
 3736              	.LBI701:
 3737              		.loc 14 36 11 is_stmt 1 view .LVU1039
 3738              	.LBB703:
 3739              		.loc 14 36 21 view .LVU1040
 3740              		.loc 14 36 21 is_stmt 0 view .LVU1041
 3741              	.LBE703:
 3742              	.LBE704:
 3743              	.LBB705:
 3744              	.LBI705:
  64:../DaisySP/Source/Utility/dsp.h **** {
 3745              		.loc 15 64 14 is_stmt 1 view .LVU1042
 3746              	.LBE705:
  66:../DaisySP/Source/Utility/dsp.h **** }
 3747              		.loc 15 66 5 view .LVU1043
 3748              	.LBB718:
 3749              	.LBB706:
 3750              	.LBI706:
  40:../DaisySP/Source/Utility/dsp.h **** {
 3751              		.loc 15 40 14 view .LVU1044
 3752              	.LBB707:
  42:../DaisySP/Source/Utility/dsp.h **** #ifdef __arm__
 3753              		.loc 15 42 5 view .LVU1045
  44:../DaisySP/Source/Utility/dsp.h **** #else
ARM GAS  /var/folders/2p/02m_5p7958535cp2tpgps0400000gn/T//ccgOSWw9.s 			page 110


 3754              		.loc 15 44 5 view .LVU1046
 3755              	.LBE707:
 3756              	.LBE706:
 3757              	.LBE718:
 646:GrannyChordApp.cpp ****       chorus_.SetLfoDepth(knob2_val);
 3758              		.loc 3 646 21 is_stmt 0 view .LVU1047
 3759 0078 DFED1A0A 		vldr.32	s1, .L154
 3760              	.LBB719:
 3761              	.LBB710:
 3762              	.LBB711:
  55:../DaisySP/Source/Utility/dsp.h **** #else
 3763              		.loc 15 55 5 view .LVU1048
 3764 007c B7EE007A 		vmov.f32	s14, #1.0e+0
 3765              	.LBE711:
 3766              	.LBE710:
 3767              	.LBB714:
 3768              	.LBB708:
  44:../DaisySP/Source/Utility/dsp.h **** #else
 3769              		.loc 15 44 5 view .LVU1049
 3770 0080 DFED196A 		vldr.32	s13, .L154+4
 3771              	.LBE708:
 3772              	.LBE714:
 3773              	.LBE719:
 646:GrannyChordApp.cpp ****       chorus_.SetLfoDepth(knob2_val);
 3774              		.loc 3 646 21 view .LVU1050
 3775 0084 37EEA00A 		vadd.f32	s0, s15, s1
 3776              	.LVL268:
 646:GrannyChordApp.cpp ****       chorus_.SetLfoDepth(knob2_val);
 3777              		.loc 3 646 21 view .LVU1051
 3778 0088 0190     		str	r0, [sp, #4]
 3779 008a 77EEE00A 		vsub.f32	s1, s15, s1
 3780              	.LBB720:
 3781              	.LBB715:
 3782              	.LBB709:
  44:../DaisySP/Source/Utility/dsp.h **** #else
 3783              		.loc 15 44 5 view .LVU1052
 3784              		.syntax unified
 3785              	@ 44 "../DaisySP/Source/Utility/dsp.h" 1
 3786 008e 80FE260A 		vmaxnm.f32 s0, s0, s13
 3787              	@ 0 "" 2
 3788              	.LVL269:
  48:../DaisySP/Source/Utility/dsp.h **** }
 3789              		.loc 15 48 5 is_stmt 1 view .LVU1053
  48:../DaisySP/Source/Utility/dsp.h **** }
 3790              		.loc 15 48 5 is_stmt 0 view .LVU1054
 3791              		.thumb
 3792              		.syntax unified
 3793              	.LBE709:
 3794              	.LBE715:
 3795              	.LBB716:
 3796              	.LBI710:
  51:../DaisySP/Source/Utility/dsp.h **** {
 3797              		.loc 15 51 14 is_stmt 1 view .LVU1055
 3798              	.LBB712:
  53:../DaisySP/Source/Utility/dsp.h **** #ifdef __arm__
 3799              		.loc 15 53 5 view .LVU1056
  55:../DaisySP/Source/Utility/dsp.h **** #else
ARM GAS  /var/folders/2p/02m_5p7958535cp2tpgps0400000gn/T//ccgOSWw9.s 			page 111


 3800              		.loc 15 55 5 view .LVU1057
 3801              	.LBE712:
 3802              	.LBE716:
 3803              	.LBE720:
 3804              	.LBB721:
 3805              	.LBB722:
 3806              	.LBB723:
  44:../DaisySP/Source/Utility/dsp.h **** #else
 3807              		.loc 15 44 5 is_stmt 0 view .LVU1058
 3808              		.syntax unified
 3809              	@ 44 "../DaisySP/Source/Utility/dsp.h" 1
 3810 0092 C0FEA60A 		vmaxnm.f32 s1, s1, s13
 3811              	@ 0 "" 2
 3812              		.thumb
 3813              		.syntax unified
 3814              	.LBE723:
 3815              	.LBE722:
 3816              	.LBE721:
 3817              	.LBB728:
 3818              	.LBB717:
 3819              	.LBB713:
  55:../DaisySP/Source/Utility/dsp.h **** #else
 3820              		.loc 15 55 5 view .LVU1059
 3821              		.syntax unified
 3822              	@ 55 "../DaisySP/Source/Utility/dsp.h" 1
 3823 0096 80FE470A 		vminnm.f32 s0, s0, s14
 3824              	@ 0 "" 2
 3825              	.LVL270:
  59:../DaisySP/Source/Utility/dsp.h **** }
 3826              		.loc 15 59 5 is_stmt 1 view .LVU1060
  59:../DaisySP/Source/Utility/dsp.h **** }
 3827              		.loc 15 59 5 is_stmt 0 view .LVU1061
 3828              		.thumb
 3829              		.syntax unified
 3830              	.LBE713:
 3831              	.LBE717:
 3832              	.LBE728:
 3833              		.loc 14 36 21 is_stmt 1 view .LVU1062
 3834              	.LBB729:
 3835              	.LBI721:
  64:../DaisySP/Source/Utility/dsp.h **** {
 3836              		.loc 15 64 14 view .LVU1063
 3837              	.LBE729:
  66:../DaisySP/Source/Utility/dsp.h **** }
 3838              		.loc 15 66 5 view .LVU1064
 3839              	.LBB730:
 3840              	.LBB725:
 3841              	.LBI722:
  40:../DaisySP/Source/Utility/dsp.h **** {
 3842              		.loc 15 40 14 view .LVU1065
 3843              	.LBB724:
  42:../DaisySP/Source/Utility/dsp.h **** #ifdef __arm__
 3844              		.loc 15 42 5 view .LVU1066
  44:../DaisySP/Source/Utility/dsp.h **** #else
 3845              		.loc 15 44 5 view .LVU1067
  48:../DaisySP/Source/Utility/dsp.h **** }
 3846              		.loc 15 48 5 view .LVU1068
ARM GAS  /var/folders/2p/02m_5p7958535cp2tpgps0400000gn/T//ccgOSWw9.s 			page 112


  48:../DaisySP/Source/Utility/dsp.h **** }
 3847              		.loc 15 48 5 is_stmt 0 view .LVU1069
 3848              	.LBE724:
 3849              	.LBE725:
 3850              	.LBB726:
 3851              	.LBI726:
  51:../DaisySP/Source/Utility/dsp.h **** {
 3852              		.loc 15 51 14 is_stmt 1 view .LVU1070
 3853              	.LBB727:
  53:../DaisySP/Source/Utility/dsp.h **** #ifdef __arm__
 3854              		.loc 15 53 5 view .LVU1071
  55:../DaisySP/Source/Utility/dsp.h **** #else
 3855              		.loc 15 55 5 view .LVU1072
 3856              		.syntax unified
 3857              	@ 55 "../DaisySP/Source/Utility/dsp.h" 1
 3858 009a C0FEC70A 		vminnm.f32 s1, s1, s14
 3859              	@ 0 "" 2
 3860              	.LVL271:
  59:../DaisySP/Source/Utility/dsp.h **** }
 3861              		.loc 15 59 5 view .LVU1073
  59:../DaisySP/Source/Utility/dsp.h **** }
 3862              		.loc 15 59 5 is_stmt 0 view .LVU1074
 3863              		.thumb
 3864              		.syntax unified
 3865              	.LBE727:
 3866              	.LBE726:
 3867              	.LBE730:
 646:GrannyChordApp.cpp ****       chorus_.SetLfoDepth(knob2_val);
 3868              		.loc 3 646 21 view .LVU1075
 3869 009e FFF7FEFF 		bl	_ZN7daisysp6Chorus6SetPanEff
 3870              	.LVL272:
 647:GrannyChordApp.cpp ****       return;
 3871              		.loc 3 647 7 is_stmt 1 view .LVU1076
 647:GrannyChordApp.cpp ****       return;
 3872              		.loc 3 647 26 is_stmt 0 view .LVU1077
 3873 00a2 B0EE480A 		vmov.f32	s0, s16
 3874 00a6 0198     		ldr	r0, [sp, #4]
 3875              		.loc 3 656 1 view .LVU1078
 3876 00a8 03B0     		add	sp, sp, #12
 3877              		.cfi_remember_state
 3878              		.cfi_def_cfa_offset 12
 3879              		@ sp needed
 3880 00aa BDEC028B 		vldm	sp!, {d8}
 3881              		.cfi_restore 80
 3882              		.cfi_restore 81
 3883              		.cfi_def_cfa_offset 4
 3884              	.LVL273:
 3885              		.loc 3 656 1 view .LVU1079
 3886 00ae 5DF804EB 		ldr	lr, [sp], #4
 3887              		.cfi_restore 14
 3888              		.cfi_def_cfa_offset 0
 3889              	.LVL274:
 647:GrannyChordApp.cpp ****       return;
 3890              		.loc 3 647 26 view .LVU1080
 3891 00b2 FFF7FEBF 		b	_ZN7daisysp6Chorus11SetLfoDepthEf
 3892              	.LVL275:
 3893              	.L145:
ARM GAS  /var/folders/2p/02m_5p7958535cp2tpgps0400000gn/T//ccgOSWw9.s 			page 113


 3894              		.cfi_restore_state
 649:GrannyChordApp.cpp ****       /* map knob value to frequency range with linear curve */
 3895              		.loc 3 649 5 is_stmt 1 view .LVU1081
 651:GrannyChordApp.cpp ****       /* set cutoff frequency for high pass filter */
 3896              		.loc 3 651 7 view .LVU1082
 3897              	.LBB731:
 3898              	.LBI731:
 177:../DaisySP/Source/Utility/dsp.h **** {
 3899              		.loc 15 177 1 view .LVU1083
 3900              	.LBE731:
 179:../DaisySP/Source/Utility/dsp.h ****     {
 3901              		.loc 15 179 5 view .LVU1084
 3902              	.LBB742:
 3903              	.LBB732:
 181:../DaisySP/Source/Utility/dsp.h ****             return fclamp(min + (in * in) * (max - min), min, max);
 3904              		.loc 15 181 9 view .LVU1085
 3905              		.loc 15 182 13 view .LVU1086
 3906              		.loc 15 182 26 is_stmt 0 view .LVU1087
 3907 00b6 DFED0D7A 		vldr.32	s15, .L154+8
 3908              		.loc 15 182 37 view .LVU1088
 3909 00ba 20EE008A 		vmul.f32	s16, s0, s0
 3910              		.loc 15 182 26 view .LVU1089
 3911 00be 9FED0C7A 		vldr.32	s14, .L154+12
 3912              	.LBE732:
 3913              	.LBE742:
 653:GrannyChordApp.cpp ****       return;
 3914              		.loc 3 653 27 view .LVU1090
 3915 00c2 00F59B40 		add	r0, r0, #19840
 3916              	.LVL276:
 3917              	.LBB743:
 3918              	.LBB739:
 3919              		.loc 15 182 26 view .LVU1091
 3920 00c6 B0EE670A 		vmov.f32	s0, s15
 3921              	.LVL277:
 3922              		.loc 15 182 26 view .LVU1092
 3923              	.LBE739:
 3924              	.LBE743:
 653:GrannyChordApp.cpp ****       return;
 3925              		.loc 3 653 27 view .LVU1093
 3926 00ca 5030     		adds	r0, r0, #80
 3927              	.LBB744:
 3928              	.LBB740:
 3929              		.loc 15 182 26 view .LVU1094
 3930 00cc A8EE070A 		vfma.f32	s0, s16, s14
 3931              	.LVL278:
 3932              	.LBB733:
 3933              	.LBI733:
  64:../DaisySP/Source/Utility/dsp.h **** {
 3934              		.loc 15 64 14 is_stmt 1 view .LVU1095
 3935              	.LBE733:
 3936              	.LBE740:
 3937              	.LBE744:
  66:../DaisySP/Source/Utility/dsp.h **** }
 3938              		.loc 15 66 5 view .LVU1096
 3939              	.LBB745:
 3940              	.LBB741:
 3941              	.LBB738:
ARM GAS  /var/folders/2p/02m_5p7958535cp2tpgps0400000gn/T//ccgOSWw9.s 			page 114


 3942              	.LBB734:
 3943              	.LBI734:
  40:../DaisySP/Source/Utility/dsp.h **** {
 3944              		.loc 15 40 14 view .LVU1097
 3945              	.LBB735:
  42:../DaisySP/Source/Utility/dsp.h **** #ifdef __arm__
 3946              		.loc 15 42 5 view .LVU1098
  44:../DaisySP/Source/Utility/dsp.h **** #else
 3947              		.loc 15 44 5 view .LVU1099
 3948              		.syntax unified
 3949              	@ 44 "../DaisySP/Source/Utility/dsp.h" 1
 3950 00d0 80FE270A 		vmaxnm.f32 s0, s0, s15
 3951              	@ 0 "" 2
 3952              	.LVL279:
  48:../DaisySP/Source/Utility/dsp.h **** }
 3953              		.loc 15 48 5 view .LVU1100
  48:../DaisySP/Source/Utility/dsp.h **** }
 3954              		.loc 15 48 5 is_stmt 0 view .LVU1101
 3955              		.thumb
 3956              		.syntax unified
 3957              	.LBE735:
 3958              	.LBE734:
 3959              	.LBB736:
 3960              	.LBI736:
  51:../DaisySP/Source/Utility/dsp.h **** {
 3961              		.loc 15 51 14 is_stmt 1 view .LVU1102
 3962              	.LBB737:
  53:../DaisySP/Source/Utility/dsp.h **** #ifdef __arm__
 3963              		.loc 15 53 5 view .LVU1103
  55:../DaisySP/Source/Utility/dsp.h **** #else
 3964              		.loc 15 55 5 view .LVU1104
 3965 00d4 DFED077A 		vldr.32	s15, .L154+16
 3966              	.LVL280:
  55:../DaisySP/Source/Utility/dsp.h **** #else
 3967              		.loc 15 55 5 is_stmt 0 view .LVU1105
 3968              		.syntax unified
 3969              	@ 55 "../DaisySP/Source/Utility/dsp.h" 1
 3970 00d8 80FE670A 		vminnm.f32 s0, s0, s15
 3971              	@ 0 "" 2
 3972              	.LVL281:
  59:../DaisySP/Source/Utility/dsp.h **** }
 3973              		.loc 15 59 5 is_stmt 1 view .LVU1106
  59:../DaisySP/Source/Utility/dsp.h **** }
 3974              		.loc 15 59 5 is_stmt 0 view .LVU1107
 3975              		.thumb
 3976              		.syntax unified
 3977              	.LBE737:
 3978              	.LBE736:
 3979              	.LBE738:
 3980              	.LBE741:
 3981              	.LBE745:
 653:GrannyChordApp.cpp ****       return;
 3982              		.loc 3 653 7 is_stmt 1 view .LVU1108
 653:GrannyChordApp.cpp ****       return;
 3983              		.loc 3 653 27 is_stmt 0 view .LVU1109
 3984 00dc FFF7FEFF 		bl	_ZN7daisysp7OnePole12SetFrequencyEf
 3985              	.LVL282:
ARM GAS  /var/folders/2p/02m_5p7958535cp2tpgps0400000gn/T//ccgOSWw9.s 			page 115


 654:GrannyChordApp.cpp ****   }
 3986              		.loc 3 654 7 is_stmt 1 view .LVU1110
 3987 00e0 BBE7     		b	.L143
 3988              	.L155:
 3989 00e2 00BF     		.align	2
 3990              	.L154:
 3991 00e4 CDCCCC3D 		.word	1036831949
 3992 00e8 00000000 		.word	0
 3993 00ec 17B7D139 		.word	970045207
 3994 00f0 51491D3C 		.word	1008552273
 3995 00f4 0AD7233C 		.word	1008981770
 3996              		.cfi_endproc
 3997              	.LFE4937:
 3999              		.section	.text._ZN14GrannyChordApp17UpdateSynthParamsEv,"ax",%progbits
 4000              		.align	1
 4001              		.global	_ZN14GrannyChordApp17UpdateSynthParamsEv
 4002              		.syntax unified
 4003              		.thumb
 4004              		.thumb_func
 4006              	_ZN14GrannyChordApp17UpdateSynthParamsEv:
 4007              	.LVL283:
 4008              	.LFB4919:
 341:GrannyChordApp.cpp ****   if (curr_state_!=AppState::Synthesis) return;
 4009              		.loc 3 341 41 view -0
 4010              		.cfi_startproc
 4011              		@ args = 0, pretend = 0, frame = 0
 4012              		@ frame_needed = 0, uses_anonymous_args = 0
 342:GrannyChordApp.cpp ****   int mode_idx = static_cast<int>(curr_synth_mode_);
 4013              		.loc 3 342 3 view .LVU1112
 4014 0000 D0F8D431 		ldr	r3, [r0, #468]
 4015 0004 022B     		cmp	r3, #2
 341:GrannyChordApp.cpp ****   if (curr_state_!=AppState::Synthesis) return;
 4016              		.loc 3 341 41 is_stmt 0 view .LVU1113
 4017 0006 70B5     		push	{r4, r5, r6, lr}
 4018              		.cfi_def_cfa_offset 16
 4019              		.cfi_offset 4, -16
 4020              		.cfi_offset 5, -12
 4021              		.cfi_offset 6, -8
 4022              		.cfi_offset 14, -4
 4023 0008 0446     		mov	r4, r0
 4024 000a 2DED048B 		vpush.64	{d8, d9}
 4025              		.cfi_def_cfa_offset 32
 4026              		.cfi_offset 80, -32
 4027              		.cfi_offset 81, -28
 4028              		.cfi_offset 82, -24
 4029              		.cfi_offset 83, -20
 342:GrannyChordApp.cpp ****   int mode_idx = static_cast<int>(curr_synth_mode_);
 4030              		.loc 3 342 3 view .LVU1114
 4031 000e 51D1     		bne	.L156
 4032              	.LVL284:
 4033              	.LBB764:
 4034              	.LBI764:
 341:GrannyChordApp.cpp ****   if (curr_state_!=AppState::Synthesis) return;
 4035              		.loc 3 341 6 is_stmt 1 view .LVU1115
 4036              	.LBB765:
 343:GrannyChordApp.cpp **** 
 4037              		.loc 3 343 3 view .LVU1116
ARM GAS  /var/folders/2p/02m_5p7958535cp2tpgps0400000gn/T//ccgOSWw9.s 			page 116


 343:GrannyChordApp.cpp **** 
 4038              		.loc 3 343 7 is_stmt 0 view .LVU1117
 4039 0010 D0F8DC51 		ldr	r5, [r0, #476]
 4040              	.LVL285:
 346:GrannyChordApp.cpp ****   float knob2_val = MapKnobDeadzone(pod_.knob2.Process());
 4041              		.loc 3 346 3 is_stmt 1 view .LVU1118
 346:GrannyChordApp.cpp ****   float knob2_val = MapKnobDeadzone(pod_.knob2.Process());
 4042              		.loc 3 346 36 is_stmt 0 view .LVU1119
 4043 0014 C069     		ldr	r0, [r0, #28]
 4044              	.LVL286:
 4045              	.LBB766:
 4046              	.LBB767:
 657:GrannyChordApp.cpp **** 
 658:GrannyChordApp.cpp **** /* knobs on the Pod have deadzones around 0 and 1 so we adjust for this */
 659:GrannyChordApp.cpp **** inline float GrannyChordApp::MapKnobDeadzone(float knob_val ){
 660:GrannyChordApp.cpp ****   if (knob_val<=0.01f) return 0.0f;
 4047              		.loc 3 660 3 view .LVU1120
 4048 0016 9FED409A 		vldr.32	s18, .L176+8
 4049              	.LBE767:
 4050              	.LBE766:
 346:GrannyChordApp.cpp ****   float knob2_val = MapKnobDeadzone(pod_.knob2.Process());
 4051              		.loc 3 346 36 view .LVU1121
 4052 001a 6830     		adds	r0, r0, #104
 4053 001c FFF7FEFF 		bl	_ZN5daisy13AnalogControl7ProcessEv
 4054              	.LVL287:
 4055              	.LBB770:
 4056              	.LBI766:
 659:GrannyChordApp.cpp ****   if (knob_val<=0.01f) return 0.0f;
 4057              		.loc 3 659 14 is_stmt 1 view .LVU1122
 4058              	.LBB768:
 4059              		.loc 3 660 3 view .LVU1123
 4060 0020 B4EEC90A 		vcmpe.f32	s0, s18
 4061 0024 F1EE10FA 		vmrs	APSR_nzcv, FPSCR
 4062 0028 47D9     		bls	.L169
 661:GrannyChordApp.cpp ****   if (knob_val>=0.99f) return 1.0f;
 4063              		.loc 3 661 3 view .LVU1124
 4064              		.loc 3 661 31 is_stmt 0 view .LVU1125
 4065 002a DFED3C7A 		vldr.32	s15, .L176+12
 4066 002e B4EE670A 		vcmp.f32	s0, s15
 4067 0032 F7EE007A 		vmov.f32	s15, #1.0e+0
 4068 0036 F1EE10FA 		vmrs	APSR_nzcv, FPSCR
 4069 003a 67FE808A 		vselge.f32	s17, s15, s0
 4070              	.L159:
 4071              	.LVL288:
 4072              		.loc 3 661 31 view .LVU1126
 4073              	.LBE768:
 4074              	.LBE770:
 347:GrannyChordApp.cpp **** 
 4075              		.loc 3 347 3 is_stmt 1 view .LVU1127
 347:GrannyChordApp.cpp **** 
 4076              		.loc 3 347 36 is_stmt 0 view .LVU1128
 4077 003e E069     		ldr	r0, [r4, #28]
 4078 0040 8830     		adds	r0, r0, #136
 4079 0042 FFF7FEFF 		bl	_ZN5daisy13AnalogControl7ProcessEv
 4080              	.LVL289:
 4081              	.LBB771:
 4082              	.LBI771:
ARM GAS  /var/folders/2p/02m_5p7958535cp2tpgps0400000gn/T//ccgOSWw9.s 			page 117


 659:GrannyChordApp.cpp ****   if (knob_val<=0.01f) return 0.0f;
 4083              		.loc 3 659 14 is_stmt 1 view .LVU1129
 4084              	.LBB772:
 660:GrannyChordApp.cpp ****   if (knob_val>=0.99f) return 1.0f;
 4085              		.loc 3 660 3 view .LVU1130
 4086 0046 B4EEC90A 		vcmpe.f32	s0, s18
 4087 004a F1EE10FA 		vmrs	APSR_nzcv, FPSCR
 4088 004e 37D9     		bls	.L170
 4089              		.loc 3 661 3 view .LVU1131
 4090              		.loc 3 661 31 is_stmt 0 view .LVU1132
 4091 0050 DFED327A 		vldr.32	s15, .L176+12
 4092 0054 B4EE670A 		vcmp.f32	s0, s15
 4093 0058 F7EE007A 		vmov.f32	s15, #1.0e+0
 4094 005c F1EE10FA 		vmrs	APSR_nzcv, FPSCR
 4095 0060 27FE808A 		vselge.f32	s16, s15, s0
 4096              	.L161:
 4097              	.LVL290:
 4098              		.loc 3 661 31 view .LVU1133
 4099              	.LBE772:
 4100              	.LBE771:
 350:GrannyChordApp.cpp ****     UpdateKnob1Params(knob1_val,curr_synth_mode_);
 4101              		.loc 3 350 3 is_stmt 1 view .LVU1134
 4102              	.LBB774:
 4103              	.LBI774:
 662:GrannyChordApp.cpp ****   return knob_val;
 663:GrannyChordApp.cpp **** }
 664:GrannyChordApp.cpp **** 
 665:GrannyChordApp.cpp **** inline bool GrannyChordApp::UpdateKnobPassThru(float curr_knob_val, int mode_idx){
 4104              		.loc 3 665 13 view .LVU1135
 4105              	.LBB775:
 666:GrannyChordApp.cpp ****   if (mode_changed_){
 4106              		.loc 3 666 3 view .LVU1136
 4107 0064 05F59D56 		add	r6, r5, #5024
 4108 0068 94F8E431 		ldrb	r3, [r4, #484]	@ zero_extendqisi2
 4109 006c 0836     		adds	r6, r6, #8
 4110 006e 6BB3     		cbz	r3, .L163
 4111              	.LVL291:
 4112              	.LBB776:
 4113              	.LBI776:
 665:GrannyChordApp.cpp ****   if (mode_changed_){
 4114              		.loc 3 665 13 view .LVU1137
 4115              	.LBB777:
 667:GrannyChordApp.cpp ****     if (fabs(curr_knob_val - prev_param_k2[mode_idx])<0.01){
 4116              		.loc 3 667 5 view .LVU1138
 4117              	.LBB778:
 4118              	.LBI778:
 4119              		.file 16 "/Library/DaisyToolchain/0.2.0/arm/arm-none-eabi/include/c++/10.3.1/cmath"
   1:/Library/DaisyToolchain/0.2.0/arm/arm-none-eabi/include/c++/10.3.1/cmath **** // -*- C++ -*- C forwarding header.
   2:/Library/DaisyToolchain/0.2.0/arm/arm-none-eabi/include/c++/10.3.1/cmath **** 
   3:/Library/DaisyToolchain/0.2.0/arm/arm-none-eabi/include/c++/10.3.1/cmath **** // Copyright (C) 1997-2020 Free Software Foundation, Inc.
   4:/Library/DaisyToolchain/0.2.0/arm/arm-none-eabi/include/c++/10.3.1/cmath **** //
   5:/Library/DaisyToolchain/0.2.0/arm/arm-none-eabi/include/c++/10.3.1/cmath **** // This file is part of the GNU ISO C++ Library.  This library is free
   6:/Library/DaisyToolchain/0.2.0/arm/arm-none-eabi/include/c++/10.3.1/cmath **** // software; you can redistribute it and/or modify it under the
   7:/Library/DaisyToolchain/0.2.0/arm/arm-none-eabi/include/c++/10.3.1/cmath **** // terms of the GNU General Public License as published by the
   8:/Library/DaisyToolchain/0.2.0/arm/arm-none-eabi/include/c++/10.3.1/cmath **** // Free Software Foundation; either version 3, or (at your option)
   9:/Library/DaisyToolchain/0.2.0/arm/arm-none-eabi/include/c++/10.3.1/cmath **** // any later version.
  10:/Library/DaisyToolchain/0.2.0/arm/arm-none-eabi/include/c++/10.3.1/cmath **** 
ARM GAS  /var/folders/2p/02m_5p7958535cp2tpgps0400000gn/T//ccgOSWw9.s 			page 118


  11:/Library/DaisyToolchain/0.2.0/arm/arm-none-eabi/include/c++/10.3.1/cmath **** // This library is distributed in the hope that it will be useful,
  12:/Library/DaisyToolchain/0.2.0/arm/arm-none-eabi/include/c++/10.3.1/cmath **** // but WITHOUT ANY WARRANTY; without even the implied warranty of
  13:/Library/DaisyToolchain/0.2.0/arm/arm-none-eabi/include/c++/10.3.1/cmath **** // MERCHANTABILITY or FITNESS FOR A PARTICULAR PURPOSE.  See the
  14:/Library/DaisyToolchain/0.2.0/arm/arm-none-eabi/include/c++/10.3.1/cmath **** // GNU General Public License for more details.
  15:/Library/DaisyToolchain/0.2.0/arm/arm-none-eabi/include/c++/10.3.1/cmath **** 
  16:/Library/DaisyToolchain/0.2.0/arm/arm-none-eabi/include/c++/10.3.1/cmath **** // Under Section 7 of GPL version 3, you are granted additional
  17:/Library/DaisyToolchain/0.2.0/arm/arm-none-eabi/include/c++/10.3.1/cmath **** // permissions described in the GCC Runtime Library Exception, version
  18:/Library/DaisyToolchain/0.2.0/arm/arm-none-eabi/include/c++/10.3.1/cmath **** // 3.1, as published by the Free Software Foundation.
  19:/Library/DaisyToolchain/0.2.0/arm/arm-none-eabi/include/c++/10.3.1/cmath **** 
  20:/Library/DaisyToolchain/0.2.0/arm/arm-none-eabi/include/c++/10.3.1/cmath **** // You should have received a copy of the GNU General Public License and
  21:/Library/DaisyToolchain/0.2.0/arm/arm-none-eabi/include/c++/10.3.1/cmath **** // a copy of the GCC Runtime Library Exception along with this program;
  22:/Library/DaisyToolchain/0.2.0/arm/arm-none-eabi/include/c++/10.3.1/cmath **** // see the files COPYING3 and COPYING.RUNTIME respectively.  If not, see
  23:/Library/DaisyToolchain/0.2.0/arm/arm-none-eabi/include/c++/10.3.1/cmath **** // <http://www.gnu.org/licenses/>.
  24:/Library/DaisyToolchain/0.2.0/arm/arm-none-eabi/include/c++/10.3.1/cmath **** 
  25:/Library/DaisyToolchain/0.2.0/arm/arm-none-eabi/include/c++/10.3.1/cmath **** /** @file include/cmath
  26:/Library/DaisyToolchain/0.2.0/arm/arm-none-eabi/include/c++/10.3.1/cmath ****  *  This is a Standard C++ Library file.  You should @c \#include this file
  27:/Library/DaisyToolchain/0.2.0/arm/arm-none-eabi/include/c++/10.3.1/cmath ****  *  in your programs, rather than any of the @a *.h implementation files.
  28:/Library/DaisyToolchain/0.2.0/arm/arm-none-eabi/include/c++/10.3.1/cmath ****  *
  29:/Library/DaisyToolchain/0.2.0/arm/arm-none-eabi/include/c++/10.3.1/cmath ****  *  This is the C++ version of the Standard C Library header @c math.h,
  30:/Library/DaisyToolchain/0.2.0/arm/arm-none-eabi/include/c++/10.3.1/cmath ****  *  and its contents are (mostly) the same as that header, but are all
  31:/Library/DaisyToolchain/0.2.0/arm/arm-none-eabi/include/c++/10.3.1/cmath ****  *  contained in the namespace @c std (except for names which are defined
  32:/Library/DaisyToolchain/0.2.0/arm/arm-none-eabi/include/c++/10.3.1/cmath ****  *  as macros in C).
  33:/Library/DaisyToolchain/0.2.0/arm/arm-none-eabi/include/c++/10.3.1/cmath ****  */
  34:/Library/DaisyToolchain/0.2.0/arm/arm-none-eabi/include/c++/10.3.1/cmath **** 
  35:/Library/DaisyToolchain/0.2.0/arm/arm-none-eabi/include/c++/10.3.1/cmath **** //
  36:/Library/DaisyToolchain/0.2.0/arm/arm-none-eabi/include/c++/10.3.1/cmath **** // ISO C++ 14882: 26.5  C library
  37:/Library/DaisyToolchain/0.2.0/arm/arm-none-eabi/include/c++/10.3.1/cmath **** //
  38:/Library/DaisyToolchain/0.2.0/arm/arm-none-eabi/include/c++/10.3.1/cmath **** 
  39:/Library/DaisyToolchain/0.2.0/arm/arm-none-eabi/include/c++/10.3.1/cmath **** #pragma GCC system_header
  40:/Library/DaisyToolchain/0.2.0/arm/arm-none-eabi/include/c++/10.3.1/cmath **** 
  41:/Library/DaisyToolchain/0.2.0/arm/arm-none-eabi/include/c++/10.3.1/cmath **** #include <bits/c++config.h>
  42:/Library/DaisyToolchain/0.2.0/arm/arm-none-eabi/include/c++/10.3.1/cmath **** #include <bits/cpp_type_traits.h>
  43:/Library/DaisyToolchain/0.2.0/arm/arm-none-eabi/include/c++/10.3.1/cmath **** #include <ext/type_traits.h>
  44:/Library/DaisyToolchain/0.2.0/arm/arm-none-eabi/include/c++/10.3.1/cmath **** #define _GLIBCXX_INCLUDE_NEXT_C_HEADERS
  45:/Library/DaisyToolchain/0.2.0/arm/arm-none-eabi/include/c++/10.3.1/cmath **** #include_next <math.h>
  46:/Library/DaisyToolchain/0.2.0/arm/arm-none-eabi/include/c++/10.3.1/cmath **** #undef _GLIBCXX_INCLUDE_NEXT_C_HEADERS
  47:/Library/DaisyToolchain/0.2.0/arm/arm-none-eabi/include/c++/10.3.1/cmath **** #include <bits/std_abs.h>
  48:/Library/DaisyToolchain/0.2.0/arm/arm-none-eabi/include/c++/10.3.1/cmath **** 
  49:/Library/DaisyToolchain/0.2.0/arm/arm-none-eabi/include/c++/10.3.1/cmath **** #ifndef _GLIBCXX_CMATH
  50:/Library/DaisyToolchain/0.2.0/arm/arm-none-eabi/include/c++/10.3.1/cmath **** #define _GLIBCXX_CMATH 1
  51:/Library/DaisyToolchain/0.2.0/arm/arm-none-eabi/include/c++/10.3.1/cmath **** 
  52:/Library/DaisyToolchain/0.2.0/arm/arm-none-eabi/include/c++/10.3.1/cmath **** // Get rid of those macros defined in <math.h> in lieu of real functions.
  53:/Library/DaisyToolchain/0.2.0/arm/arm-none-eabi/include/c++/10.3.1/cmath **** #undef div
  54:/Library/DaisyToolchain/0.2.0/arm/arm-none-eabi/include/c++/10.3.1/cmath **** #undef acos
  55:/Library/DaisyToolchain/0.2.0/arm/arm-none-eabi/include/c++/10.3.1/cmath **** #undef asin
  56:/Library/DaisyToolchain/0.2.0/arm/arm-none-eabi/include/c++/10.3.1/cmath **** #undef atan
  57:/Library/DaisyToolchain/0.2.0/arm/arm-none-eabi/include/c++/10.3.1/cmath **** #undef atan2
  58:/Library/DaisyToolchain/0.2.0/arm/arm-none-eabi/include/c++/10.3.1/cmath **** #undef ceil
  59:/Library/DaisyToolchain/0.2.0/arm/arm-none-eabi/include/c++/10.3.1/cmath **** #undef cos
  60:/Library/DaisyToolchain/0.2.0/arm/arm-none-eabi/include/c++/10.3.1/cmath **** #undef cosh
  61:/Library/DaisyToolchain/0.2.0/arm/arm-none-eabi/include/c++/10.3.1/cmath **** #undef exp
  62:/Library/DaisyToolchain/0.2.0/arm/arm-none-eabi/include/c++/10.3.1/cmath **** #undef fabs
  63:/Library/DaisyToolchain/0.2.0/arm/arm-none-eabi/include/c++/10.3.1/cmath **** #undef floor
  64:/Library/DaisyToolchain/0.2.0/arm/arm-none-eabi/include/c++/10.3.1/cmath **** #undef fmod
  65:/Library/DaisyToolchain/0.2.0/arm/arm-none-eabi/include/c++/10.3.1/cmath **** #undef frexp
  66:/Library/DaisyToolchain/0.2.0/arm/arm-none-eabi/include/c++/10.3.1/cmath **** #undef ldexp
  67:/Library/DaisyToolchain/0.2.0/arm/arm-none-eabi/include/c++/10.3.1/cmath **** #undef log
ARM GAS  /var/folders/2p/02m_5p7958535cp2tpgps0400000gn/T//ccgOSWw9.s 			page 119


  68:/Library/DaisyToolchain/0.2.0/arm/arm-none-eabi/include/c++/10.3.1/cmath **** #undef log10
  69:/Library/DaisyToolchain/0.2.0/arm/arm-none-eabi/include/c++/10.3.1/cmath **** #undef modf
  70:/Library/DaisyToolchain/0.2.0/arm/arm-none-eabi/include/c++/10.3.1/cmath **** #undef pow
  71:/Library/DaisyToolchain/0.2.0/arm/arm-none-eabi/include/c++/10.3.1/cmath **** #undef sin
  72:/Library/DaisyToolchain/0.2.0/arm/arm-none-eabi/include/c++/10.3.1/cmath **** #undef sinh
  73:/Library/DaisyToolchain/0.2.0/arm/arm-none-eabi/include/c++/10.3.1/cmath **** #undef sqrt
  74:/Library/DaisyToolchain/0.2.0/arm/arm-none-eabi/include/c++/10.3.1/cmath **** #undef tan
  75:/Library/DaisyToolchain/0.2.0/arm/arm-none-eabi/include/c++/10.3.1/cmath **** #undef tanh
  76:/Library/DaisyToolchain/0.2.0/arm/arm-none-eabi/include/c++/10.3.1/cmath **** 
  77:/Library/DaisyToolchain/0.2.0/arm/arm-none-eabi/include/c++/10.3.1/cmath **** extern "C++"
  78:/Library/DaisyToolchain/0.2.0/arm/arm-none-eabi/include/c++/10.3.1/cmath **** {
  79:/Library/DaisyToolchain/0.2.0/arm/arm-none-eabi/include/c++/10.3.1/cmath **** namespace std _GLIBCXX_VISIBILITY(default)
  80:/Library/DaisyToolchain/0.2.0/arm/arm-none-eabi/include/c++/10.3.1/cmath **** {
  81:/Library/DaisyToolchain/0.2.0/arm/arm-none-eabi/include/c++/10.3.1/cmath **** _GLIBCXX_BEGIN_NAMESPACE_VERSION
  82:/Library/DaisyToolchain/0.2.0/arm/arm-none-eabi/include/c++/10.3.1/cmath **** 
  83:/Library/DaisyToolchain/0.2.0/arm/arm-none-eabi/include/c++/10.3.1/cmath ****   using ::acos;
  84:/Library/DaisyToolchain/0.2.0/arm/arm-none-eabi/include/c++/10.3.1/cmath **** 
  85:/Library/DaisyToolchain/0.2.0/arm/arm-none-eabi/include/c++/10.3.1/cmath **** #ifndef __CORRECT_ISO_CPP_MATH_H_PROTO
  86:/Library/DaisyToolchain/0.2.0/arm/arm-none-eabi/include/c++/10.3.1/cmath ****   inline _GLIBCXX_CONSTEXPR float
  87:/Library/DaisyToolchain/0.2.0/arm/arm-none-eabi/include/c++/10.3.1/cmath ****   acos(float __x)
  88:/Library/DaisyToolchain/0.2.0/arm/arm-none-eabi/include/c++/10.3.1/cmath ****   { return __builtin_acosf(__x); }
  89:/Library/DaisyToolchain/0.2.0/arm/arm-none-eabi/include/c++/10.3.1/cmath **** 
  90:/Library/DaisyToolchain/0.2.0/arm/arm-none-eabi/include/c++/10.3.1/cmath ****   inline _GLIBCXX_CONSTEXPR long double
  91:/Library/DaisyToolchain/0.2.0/arm/arm-none-eabi/include/c++/10.3.1/cmath ****   acos(long double __x)
  92:/Library/DaisyToolchain/0.2.0/arm/arm-none-eabi/include/c++/10.3.1/cmath ****   { return __builtin_acosl(__x); }
  93:/Library/DaisyToolchain/0.2.0/arm/arm-none-eabi/include/c++/10.3.1/cmath **** #endif
  94:/Library/DaisyToolchain/0.2.0/arm/arm-none-eabi/include/c++/10.3.1/cmath **** 
  95:/Library/DaisyToolchain/0.2.0/arm/arm-none-eabi/include/c++/10.3.1/cmath ****   template<typename _Tp>
  96:/Library/DaisyToolchain/0.2.0/arm/arm-none-eabi/include/c++/10.3.1/cmath ****     inline _GLIBCXX_CONSTEXPR
  97:/Library/DaisyToolchain/0.2.0/arm/arm-none-eabi/include/c++/10.3.1/cmath ****     typename __gnu_cxx::__enable_if<__is_integer<_Tp>::__value, 
  98:/Library/DaisyToolchain/0.2.0/arm/arm-none-eabi/include/c++/10.3.1/cmath ****                                     double>::__type
  99:/Library/DaisyToolchain/0.2.0/arm/arm-none-eabi/include/c++/10.3.1/cmath ****     acos(_Tp __x)
 100:/Library/DaisyToolchain/0.2.0/arm/arm-none-eabi/include/c++/10.3.1/cmath ****     { return __builtin_acos(__x); }
 101:/Library/DaisyToolchain/0.2.0/arm/arm-none-eabi/include/c++/10.3.1/cmath **** 
 102:/Library/DaisyToolchain/0.2.0/arm/arm-none-eabi/include/c++/10.3.1/cmath ****   using ::asin;
 103:/Library/DaisyToolchain/0.2.0/arm/arm-none-eabi/include/c++/10.3.1/cmath **** 
 104:/Library/DaisyToolchain/0.2.0/arm/arm-none-eabi/include/c++/10.3.1/cmath **** #ifndef __CORRECT_ISO_CPP_MATH_H_PROTO
 105:/Library/DaisyToolchain/0.2.0/arm/arm-none-eabi/include/c++/10.3.1/cmath ****   inline _GLIBCXX_CONSTEXPR float
 106:/Library/DaisyToolchain/0.2.0/arm/arm-none-eabi/include/c++/10.3.1/cmath ****   asin(float __x)
 107:/Library/DaisyToolchain/0.2.0/arm/arm-none-eabi/include/c++/10.3.1/cmath ****   { return __builtin_asinf(__x); }
 108:/Library/DaisyToolchain/0.2.0/arm/arm-none-eabi/include/c++/10.3.1/cmath **** 
 109:/Library/DaisyToolchain/0.2.0/arm/arm-none-eabi/include/c++/10.3.1/cmath ****   inline _GLIBCXX_CONSTEXPR long double
 110:/Library/DaisyToolchain/0.2.0/arm/arm-none-eabi/include/c++/10.3.1/cmath ****   asin(long double __x)
 111:/Library/DaisyToolchain/0.2.0/arm/arm-none-eabi/include/c++/10.3.1/cmath ****   { return __builtin_asinl(__x); }
 112:/Library/DaisyToolchain/0.2.0/arm/arm-none-eabi/include/c++/10.3.1/cmath **** #endif
 113:/Library/DaisyToolchain/0.2.0/arm/arm-none-eabi/include/c++/10.3.1/cmath **** 
 114:/Library/DaisyToolchain/0.2.0/arm/arm-none-eabi/include/c++/10.3.1/cmath ****   template<typename _Tp>
 115:/Library/DaisyToolchain/0.2.0/arm/arm-none-eabi/include/c++/10.3.1/cmath ****     inline _GLIBCXX_CONSTEXPR
 116:/Library/DaisyToolchain/0.2.0/arm/arm-none-eabi/include/c++/10.3.1/cmath ****     typename __gnu_cxx::__enable_if<__is_integer<_Tp>::__value,
 117:/Library/DaisyToolchain/0.2.0/arm/arm-none-eabi/include/c++/10.3.1/cmath ****                                     double>::__type
 118:/Library/DaisyToolchain/0.2.0/arm/arm-none-eabi/include/c++/10.3.1/cmath ****     asin(_Tp __x)
 119:/Library/DaisyToolchain/0.2.0/arm/arm-none-eabi/include/c++/10.3.1/cmath ****     { return __builtin_asin(__x); }
 120:/Library/DaisyToolchain/0.2.0/arm/arm-none-eabi/include/c++/10.3.1/cmath **** 
 121:/Library/DaisyToolchain/0.2.0/arm/arm-none-eabi/include/c++/10.3.1/cmath ****   using ::atan;
 122:/Library/DaisyToolchain/0.2.0/arm/arm-none-eabi/include/c++/10.3.1/cmath **** 
 123:/Library/DaisyToolchain/0.2.0/arm/arm-none-eabi/include/c++/10.3.1/cmath **** #ifndef __CORRECT_ISO_CPP_MATH_H_PROTO
 124:/Library/DaisyToolchain/0.2.0/arm/arm-none-eabi/include/c++/10.3.1/cmath ****   inline _GLIBCXX_CONSTEXPR float
ARM GAS  /var/folders/2p/02m_5p7958535cp2tpgps0400000gn/T//ccgOSWw9.s 			page 120


 125:/Library/DaisyToolchain/0.2.0/arm/arm-none-eabi/include/c++/10.3.1/cmath ****   atan(float __x)
 126:/Library/DaisyToolchain/0.2.0/arm/arm-none-eabi/include/c++/10.3.1/cmath ****   { return __builtin_atanf(__x); }
 127:/Library/DaisyToolchain/0.2.0/arm/arm-none-eabi/include/c++/10.3.1/cmath **** 
 128:/Library/DaisyToolchain/0.2.0/arm/arm-none-eabi/include/c++/10.3.1/cmath ****   inline _GLIBCXX_CONSTEXPR long double
 129:/Library/DaisyToolchain/0.2.0/arm/arm-none-eabi/include/c++/10.3.1/cmath ****   atan(long double __x)
 130:/Library/DaisyToolchain/0.2.0/arm/arm-none-eabi/include/c++/10.3.1/cmath ****   { return __builtin_atanl(__x); }
 131:/Library/DaisyToolchain/0.2.0/arm/arm-none-eabi/include/c++/10.3.1/cmath **** #endif
 132:/Library/DaisyToolchain/0.2.0/arm/arm-none-eabi/include/c++/10.3.1/cmath **** 
 133:/Library/DaisyToolchain/0.2.0/arm/arm-none-eabi/include/c++/10.3.1/cmath ****   template<typename _Tp>
 134:/Library/DaisyToolchain/0.2.0/arm/arm-none-eabi/include/c++/10.3.1/cmath ****     inline _GLIBCXX_CONSTEXPR
 135:/Library/DaisyToolchain/0.2.0/arm/arm-none-eabi/include/c++/10.3.1/cmath ****     typename __gnu_cxx::__enable_if<__is_integer<_Tp>::__value,
 136:/Library/DaisyToolchain/0.2.0/arm/arm-none-eabi/include/c++/10.3.1/cmath ****                                     double>::__type
 137:/Library/DaisyToolchain/0.2.0/arm/arm-none-eabi/include/c++/10.3.1/cmath ****     atan(_Tp __x)
 138:/Library/DaisyToolchain/0.2.0/arm/arm-none-eabi/include/c++/10.3.1/cmath ****     { return __builtin_atan(__x); }
 139:/Library/DaisyToolchain/0.2.0/arm/arm-none-eabi/include/c++/10.3.1/cmath **** 
 140:/Library/DaisyToolchain/0.2.0/arm/arm-none-eabi/include/c++/10.3.1/cmath ****   using ::atan2;
 141:/Library/DaisyToolchain/0.2.0/arm/arm-none-eabi/include/c++/10.3.1/cmath **** 
 142:/Library/DaisyToolchain/0.2.0/arm/arm-none-eabi/include/c++/10.3.1/cmath **** #ifndef __CORRECT_ISO_CPP_MATH_H_PROTO
 143:/Library/DaisyToolchain/0.2.0/arm/arm-none-eabi/include/c++/10.3.1/cmath ****   inline _GLIBCXX_CONSTEXPR float
 144:/Library/DaisyToolchain/0.2.0/arm/arm-none-eabi/include/c++/10.3.1/cmath ****   atan2(float __y, float __x)
 145:/Library/DaisyToolchain/0.2.0/arm/arm-none-eabi/include/c++/10.3.1/cmath ****   { return __builtin_atan2f(__y, __x); }
 146:/Library/DaisyToolchain/0.2.0/arm/arm-none-eabi/include/c++/10.3.1/cmath **** 
 147:/Library/DaisyToolchain/0.2.0/arm/arm-none-eabi/include/c++/10.3.1/cmath ****   inline _GLIBCXX_CONSTEXPR long double
 148:/Library/DaisyToolchain/0.2.0/arm/arm-none-eabi/include/c++/10.3.1/cmath ****   atan2(long double __y, long double __x)
 149:/Library/DaisyToolchain/0.2.0/arm/arm-none-eabi/include/c++/10.3.1/cmath ****   { return __builtin_atan2l(__y, __x); }
 150:/Library/DaisyToolchain/0.2.0/arm/arm-none-eabi/include/c++/10.3.1/cmath **** #endif
 151:/Library/DaisyToolchain/0.2.0/arm/arm-none-eabi/include/c++/10.3.1/cmath **** 
 152:/Library/DaisyToolchain/0.2.0/arm/arm-none-eabi/include/c++/10.3.1/cmath ****   template<typename _Tp, typename _Up>
 153:/Library/DaisyToolchain/0.2.0/arm/arm-none-eabi/include/c++/10.3.1/cmath ****     inline _GLIBCXX_CONSTEXPR
 154:/Library/DaisyToolchain/0.2.0/arm/arm-none-eabi/include/c++/10.3.1/cmath ****     typename __gnu_cxx::__promote_2<_Tp, _Up>::__type
 155:/Library/DaisyToolchain/0.2.0/arm/arm-none-eabi/include/c++/10.3.1/cmath ****     atan2(_Tp __y, _Up __x)
 156:/Library/DaisyToolchain/0.2.0/arm/arm-none-eabi/include/c++/10.3.1/cmath ****     {
 157:/Library/DaisyToolchain/0.2.0/arm/arm-none-eabi/include/c++/10.3.1/cmath ****       typedef typename __gnu_cxx::__promote_2<_Tp, _Up>::__type __type;
 158:/Library/DaisyToolchain/0.2.0/arm/arm-none-eabi/include/c++/10.3.1/cmath ****       return atan2(__type(__y), __type(__x));
 159:/Library/DaisyToolchain/0.2.0/arm/arm-none-eabi/include/c++/10.3.1/cmath ****     }
 160:/Library/DaisyToolchain/0.2.0/arm/arm-none-eabi/include/c++/10.3.1/cmath **** 
 161:/Library/DaisyToolchain/0.2.0/arm/arm-none-eabi/include/c++/10.3.1/cmath ****   using ::ceil;
 162:/Library/DaisyToolchain/0.2.0/arm/arm-none-eabi/include/c++/10.3.1/cmath **** 
 163:/Library/DaisyToolchain/0.2.0/arm/arm-none-eabi/include/c++/10.3.1/cmath **** #ifndef __CORRECT_ISO_CPP_MATH_H_PROTO
 164:/Library/DaisyToolchain/0.2.0/arm/arm-none-eabi/include/c++/10.3.1/cmath ****   inline _GLIBCXX_CONSTEXPR float
 165:/Library/DaisyToolchain/0.2.0/arm/arm-none-eabi/include/c++/10.3.1/cmath ****   ceil(float __x)
 166:/Library/DaisyToolchain/0.2.0/arm/arm-none-eabi/include/c++/10.3.1/cmath ****   { return __builtin_ceilf(__x); }
 167:/Library/DaisyToolchain/0.2.0/arm/arm-none-eabi/include/c++/10.3.1/cmath **** 
 168:/Library/DaisyToolchain/0.2.0/arm/arm-none-eabi/include/c++/10.3.1/cmath ****   inline _GLIBCXX_CONSTEXPR long double
 169:/Library/DaisyToolchain/0.2.0/arm/arm-none-eabi/include/c++/10.3.1/cmath ****   ceil(long double __x)
 170:/Library/DaisyToolchain/0.2.0/arm/arm-none-eabi/include/c++/10.3.1/cmath ****   { return __builtin_ceill(__x); }
 171:/Library/DaisyToolchain/0.2.0/arm/arm-none-eabi/include/c++/10.3.1/cmath **** #endif
 172:/Library/DaisyToolchain/0.2.0/arm/arm-none-eabi/include/c++/10.3.1/cmath **** 
 173:/Library/DaisyToolchain/0.2.0/arm/arm-none-eabi/include/c++/10.3.1/cmath ****   template<typename _Tp>
 174:/Library/DaisyToolchain/0.2.0/arm/arm-none-eabi/include/c++/10.3.1/cmath ****     inline _GLIBCXX_CONSTEXPR
 175:/Library/DaisyToolchain/0.2.0/arm/arm-none-eabi/include/c++/10.3.1/cmath ****     typename __gnu_cxx::__enable_if<__is_integer<_Tp>::__value, 
 176:/Library/DaisyToolchain/0.2.0/arm/arm-none-eabi/include/c++/10.3.1/cmath ****                                     double>::__type
 177:/Library/DaisyToolchain/0.2.0/arm/arm-none-eabi/include/c++/10.3.1/cmath ****     ceil(_Tp __x)
 178:/Library/DaisyToolchain/0.2.0/arm/arm-none-eabi/include/c++/10.3.1/cmath ****     { return __builtin_ceil(__x); }
 179:/Library/DaisyToolchain/0.2.0/arm/arm-none-eabi/include/c++/10.3.1/cmath **** 
 180:/Library/DaisyToolchain/0.2.0/arm/arm-none-eabi/include/c++/10.3.1/cmath ****   using ::cos;
 181:/Library/DaisyToolchain/0.2.0/arm/arm-none-eabi/include/c++/10.3.1/cmath **** 
ARM GAS  /var/folders/2p/02m_5p7958535cp2tpgps0400000gn/T//ccgOSWw9.s 			page 121


 182:/Library/DaisyToolchain/0.2.0/arm/arm-none-eabi/include/c++/10.3.1/cmath **** #ifndef __CORRECT_ISO_CPP_MATH_H_PROTO
 183:/Library/DaisyToolchain/0.2.0/arm/arm-none-eabi/include/c++/10.3.1/cmath ****   inline _GLIBCXX_CONSTEXPR float
 184:/Library/DaisyToolchain/0.2.0/arm/arm-none-eabi/include/c++/10.3.1/cmath ****   cos(float __x)
 185:/Library/DaisyToolchain/0.2.0/arm/arm-none-eabi/include/c++/10.3.1/cmath ****   { return __builtin_cosf(__x); }
 186:/Library/DaisyToolchain/0.2.0/arm/arm-none-eabi/include/c++/10.3.1/cmath **** 
 187:/Library/DaisyToolchain/0.2.0/arm/arm-none-eabi/include/c++/10.3.1/cmath ****   inline _GLIBCXX_CONSTEXPR long double
 188:/Library/DaisyToolchain/0.2.0/arm/arm-none-eabi/include/c++/10.3.1/cmath ****   cos(long double __x)
 189:/Library/DaisyToolchain/0.2.0/arm/arm-none-eabi/include/c++/10.3.1/cmath ****   { return __builtin_cosl(__x); }
 190:/Library/DaisyToolchain/0.2.0/arm/arm-none-eabi/include/c++/10.3.1/cmath **** #endif
 191:/Library/DaisyToolchain/0.2.0/arm/arm-none-eabi/include/c++/10.3.1/cmath **** 
 192:/Library/DaisyToolchain/0.2.0/arm/arm-none-eabi/include/c++/10.3.1/cmath ****   template<typename _Tp>
 193:/Library/DaisyToolchain/0.2.0/arm/arm-none-eabi/include/c++/10.3.1/cmath ****     inline _GLIBCXX_CONSTEXPR
 194:/Library/DaisyToolchain/0.2.0/arm/arm-none-eabi/include/c++/10.3.1/cmath ****     typename __gnu_cxx::__enable_if<__is_integer<_Tp>::__value,
 195:/Library/DaisyToolchain/0.2.0/arm/arm-none-eabi/include/c++/10.3.1/cmath ****                                     double>::__type
 196:/Library/DaisyToolchain/0.2.0/arm/arm-none-eabi/include/c++/10.3.1/cmath ****     cos(_Tp __x)
 197:/Library/DaisyToolchain/0.2.0/arm/arm-none-eabi/include/c++/10.3.1/cmath ****     { return __builtin_cos(__x); }
 198:/Library/DaisyToolchain/0.2.0/arm/arm-none-eabi/include/c++/10.3.1/cmath **** 
 199:/Library/DaisyToolchain/0.2.0/arm/arm-none-eabi/include/c++/10.3.1/cmath ****   using ::cosh;
 200:/Library/DaisyToolchain/0.2.0/arm/arm-none-eabi/include/c++/10.3.1/cmath **** 
 201:/Library/DaisyToolchain/0.2.0/arm/arm-none-eabi/include/c++/10.3.1/cmath **** #ifndef __CORRECT_ISO_CPP_MATH_H_PROTO
 202:/Library/DaisyToolchain/0.2.0/arm/arm-none-eabi/include/c++/10.3.1/cmath ****   inline _GLIBCXX_CONSTEXPR float
 203:/Library/DaisyToolchain/0.2.0/arm/arm-none-eabi/include/c++/10.3.1/cmath ****   cosh(float __x)
 204:/Library/DaisyToolchain/0.2.0/arm/arm-none-eabi/include/c++/10.3.1/cmath ****   { return __builtin_coshf(__x); }
 205:/Library/DaisyToolchain/0.2.0/arm/arm-none-eabi/include/c++/10.3.1/cmath **** 
 206:/Library/DaisyToolchain/0.2.0/arm/arm-none-eabi/include/c++/10.3.1/cmath ****   inline _GLIBCXX_CONSTEXPR long double
 207:/Library/DaisyToolchain/0.2.0/arm/arm-none-eabi/include/c++/10.3.1/cmath ****   cosh(long double __x)
 208:/Library/DaisyToolchain/0.2.0/arm/arm-none-eabi/include/c++/10.3.1/cmath ****   { return __builtin_coshl(__x); }
 209:/Library/DaisyToolchain/0.2.0/arm/arm-none-eabi/include/c++/10.3.1/cmath **** #endif
 210:/Library/DaisyToolchain/0.2.0/arm/arm-none-eabi/include/c++/10.3.1/cmath **** 
 211:/Library/DaisyToolchain/0.2.0/arm/arm-none-eabi/include/c++/10.3.1/cmath ****   template<typename _Tp>
 212:/Library/DaisyToolchain/0.2.0/arm/arm-none-eabi/include/c++/10.3.1/cmath ****     inline _GLIBCXX_CONSTEXPR
 213:/Library/DaisyToolchain/0.2.0/arm/arm-none-eabi/include/c++/10.3.1/cmath ****     typename __gnu_cxx::__enable_if<__is_integer<_Tp>::__value,
 214:/Library/DaisyToolchain/0.2.0/arm/arm-none-eabi/include/c++/10.3.1/cmath ****                                     double>::__type
 215:/Library/DaisyToolchain/0.2.0/arm/arm-none-eabi/include/c++/10.3.1/cmath ****     cosh(_Tp __x)
 216:/Library/DaisyToolchain/0.2.0/arm/arm-none-eabi/include/c++/10.3.1/cmath ****     { return __builtin_cosh(__x); }
 217:/Library/DaisyToolchain/0.2.0/arm/arm-none-eabi/include/c++/10.3.1/cmath **** 
 218:/Library/DaisyToolchain/0.2.0/arm/arm-none-eabi/include/c++/10.3.1/cmath ****   using ::exp;
 219:/Library/DaisyToolchain/0.2.0/arm/arm-none-eabi/include/c++/10.3.1/cmath **** 
 220:/Library/DaisyToolchain/0.2.0/arm/arm-none-eabi/include/c++/10.3.1/cmath **** #ifndef __CORRECT_ISO_CPP_MATH_H_PROTO
 221:/Library/DaisyToolchain/0.2.0/arm/arm-none-eabi/include/c++/10.3.1/cmath ****   inline _GLIBCXX_CONSTEXPR float
 222:/Library/DaisyToolchain/0.2.0/arm/arm-none-eabi/include/c++/10.3.1/cmath ****   exp(float __x)
 223:/Library/DaisyToolchain/0.2.0/arm/arm-none-eabi/include/c++/10.3.1/cmath ****   { return __builtin_expf(__x); }
 224:/Library/DaisyToolchain/0.2.0/arm/arm-none-eabi/include/c++/10.3.1/cmath **** 
 225:/Library/DaisyToolchain/0.2.0/arm/arm-none-eabi/include/c++/10.3.1/cmath ****   inline _GLIBCXX_CONSTEXPR long double
 226:/Library/DaisyToolchain/0.2.0/arm/arm-none-eabi/include/c++/10.3.1/cmath ****   exp(long double __x)
 227:/Library/DaisyToolchain/0.2.0/arm/arm-none-eabi/include/c++/10.3.1/cmath ****   { return __builtin_expl(__x); }
 228:/Library/DaisyToolchain/0.2.0/arm/arm-none-eabi/include/c++/10.3.1/cmath **** #endif
 229:/Library/DaisyToolchain/0.2.0/arm/arm-none-eabi/include/c++/10.3.1/cmath **** 
 230:/Library/DaisyToolchain/0.2.0/arm/arm-none-eabi/include/c++/10.3.1/cmath ****   template<typename _Tp>
 231:/Library/DaisyToolchain/0.2.0/arm/arm-none-eabi/include/c++/10.3.1/cmath ****     inline _GLIBCXX_CONSTEXPR
 232:/Library/DaisyToolchain/0.2.0/arm/arm-none-eabi/include/c++/10.3.1/cmath ****     typename __gnu_cxx::__enable_if<__is_integer<_Tp>::__value,
 233:/Library/DaisyToolchain/0.2.0/arm/arm-none-eabi/include/c++/10.3.1/cmath ****                                     double>::__type
 234:/Library/DaisyToolchain/0.2.0/arm/arm-none-eabi/include/c++/10.3.1/cmath ****     exp(_Tp __x)
 235:/Library/DaisyToolchain/0.2.0/arm/arm-none-eabi/include/c++/10.3.1/cmath ****     { return __builtin_exp(__x); }
 236:/Library/DaisyToolchain/0.2.0/arm/arm-none-eabi/include/c++/10.3.1/cmath **** 
 237:/Library/DaisyToolchain/0.2.0/arm/arm-none-eabi/include/c++/10.3.1/cmath ****   using ::fabs;
 238:/Library/DaisyToolchain/0.2.0/arm/arm-none-eabi/include/c++/10.3.1/cmath **** 
ARM GAS  /var/folders/2p/02m_5p7958535cp2tpgps0400000gn/T//ccgOSWw9.s 			page 122


 239:/Library/DaisyToolchain/0.2.0/arm/arm-none-eabi/include/c++/10.3.1/cmath **** #ifndef __CORRECT_ISO_CPP_MATH_H_PROTO
 240:/Library/DaisyToolchain/0.2.0/arm/arm-none-eabi/include/c++/10.3.1/cmath ****   inline _GLIBCXX_CONSTEXPR float
 241:/Library/DaisyToolchain/0.2.0/arm/arm-none-eabi/include/c++/10.3.1/cmath ****   fabs(float __x)
 4120              		.loc 16 241 3 view .LVU1139
 4121              	.LBB779:
 242:/Library/DaisyToolchain/0.2.0/arm/arm-none-eabi/include/c++/10.3.1/cmath ****   { return __builtin_fabsf(__x); }
 4122              		.loc 16 242 5 view .LVU1140
 4123              		.loc 16 242 5 is_stmt 0 view .LVU1141
 4124              	.LBE779:
 4125              	.LBE778:
 4126              		.loc 3 667 52 view .LVU1142
 4127 0070 04EB8603 		add	r3, r4, r6, lsl #2
 4128              		.loc 3 667 13 view .LVU1143
 4129 0074 93ED017A 		vldr.32	s14, [r3, #4]
 4130 0078 38EEC77A 		vsub.f32	s14, s17, s14
 4131              		.loc 3 667 5 view .LVU1144
 4132 007c 9FED246B 		vldr.64	d6, .L176
 4133              	.LBB781:
 4134              	.LBB780:
 4135              		.loc 16 242 31 view .LVU1145
 4136 0080 B0EEC77A 		vabs.f32	s14, s14
 4137              	.LBE780:
 4138              	.LBE781:
 4139              		.loc 3 667 13 view .LVU1146
 4140 0084 B7EEC77A 		vcvt.f64.f32	d7, s14
 4141              		.loc 3 667 5 view .LVU1147
 4142 0088 B4EEC67B 		vcmpe.f64	d7, d6
 4143 008c F1EE10FA 		vmrs	APSR_nzcv, FPSCR
 4144 0090 19D4     		bmi	.L164
 4145              	.LVL292:
 4146              	.L167:
 4147              		.loc 3 667 5 view .LVU1148
 4148              	.LBE777:
 4149              	.LBE776:
 4150              	.LBE775:
 4151              	.LBE774:
 4152              	.LBB785:
 4153              	.LBB786:
 4154              	.LBB787:
 4155              	.LBI787:
 665:GrannyChordApp.cpp ****   if (mode_changed_){
 4156              		.loc 3 665 13 is_stmt 1 view .LVU1149
 4157              	.LBB788:
 4158              		.loc 3 667 5 view .LVU1150
 4159              	.LBB789:
 4160              	.LBI789:
 241:/Library/DaisyToolchain/0.2.0/arm/arm-none-eabi/include/c++/10.3.1/cmath ****   { return __builtin_fabsf(__x); }
 4161              		.loc 16 241 3 view .LVU1151
 4162              	.LBB790:
 4163              		.loc 16 242 5 view .LVU1152
 4164              		.loc 16 242 5 is_stmt 0 view .LVU1153
 4165              	.LBE790:
 4166              	.LBE789:
 4167              		.loc 3 667 52 view .LVU1154
 4168 0092 04EB8603 		add	r3, r4, r6, lsl #2
 4169              		.loc 3 667 13 view .LVU1155
 4170 0096 93ED017A 		vldr.32	s14, [r3, #4]
ARM GAS  /var/folders/2p/02m_5p7958535cp2tpgps0400000gn/T//ccgOSWw9.s 			page 123


 4171 009a 38EE477A 		vsub.f32	s14, s16, s14
 4172              		.loc 3 667 5 view .LVU1156
 4173 009e 9FED1C6B 		vldr.64	d6, .L176
 4174              	.LBB792:
 4175              	.LBB791:
 4176              		.loc 16 242 31 view .LVU1157
 4177 00a2 B0EEC77A 		vabs.f32	s14, s14
 4178              	.LBE791:
 4179              	.LBE792:
 4180              		.loc 3 667 13 view .LVU1158
 4181 00a6 B7EEC77A 		vcvt.f64.f32	d7, s14
 4182              		.loc 3 667 5 view .LVU1159
 4183 00aa B4EEC67B 		vcmpe.f64	d7, d6
 4184 00ae F1EE10FA 		vmrs	APSR_nzcv, FPSCR
 4185 00b2 28D4     		bmi	.L165
 4186              	.LVL293:
 4187              	.L156:
 4188              		.loc 3 667 5 view .LVU1160
 4189              	.LBE788:
 4190              	.LBE787:
 4191              	.LBE786:
 4192              	.LBE785:
 4193              	.LBE765:
 4194              	.LBE764:
 358:GrannyChordApp.cpp **** 
 4195              		.loc 3 358 1 view .LVU1161
 4196 00b4 BDEC048B 		vldm	sp!, {d8-d9}
 4197              		.cfi_remember_state
 4198              		.cfi_restore 82
 4199              		.cfi_restore 83
 4200              		.cfi_restore 80
 4201              		.cfi_restore 81
 4202              		.cfi_def_cfa_offset 16
 4203 00b8 70BD     		pop	{r4, r5, r6, pc}
 4204              	.LVL294:
 4205              	.L169:
 4206              		.cfi_restore_state
 4207              	.LBB805:
 4208              	.LBB804:
 4209              	.LBB798:
 4210              	.LBB769:
 660:GrannyChordApp.cpp ****   if (knob_val>=0.99f) return 1.0f;
 4211              		.loc 3 660 31 view .LVU1162
 4212 00ba DFED198A 		vldr.32	s17, .L176+16
 4213 00be BEE7     		b	.L159
 4214              	.LVL295:
 4215              	.L170:
 660:GrannyChordApp.cpp ****   if (knob_val>=0.99f) return 1.0f;
 4216              		.loc 3 660 31 view .LVU1163
 4217              	.LBE769:
 4218              	.LBE798:
 4219              	.LBB799:
 4220              	.LBB773:
 4221 00c0 9FED178A 		vldr.32	s16, .L176+16
 4222 00c4 CEE7     		b	.L161
 4223              	.LVL296:
 4224              	.L164:
ARM GAS  /var/folders/2p/02m_5p7958535cp2tpgps0400000gn/T//ccgOSWw9.s 			page 124


 660:GrannyChordApp.cpp ****   if (knob_val>=0.99f) return 1.0f;
 4225              		.loc 3 660 31 view .LVU1164
 4226              	.LBE773:
 4227              	.LBE799:
 4228              	.LBB800:
 4229              	.LBB784:
 4230              	.LBB783:
 4231              	.LBB782:
 668:GrannyChordApp.cpp ****       mode_changed_ = false;
 4232              		.loc 3 668 7 is_stmt 1 view .LVU1165
 4233              		.loc 3 668 21 is_stmt 0 view .LVU1166
 4234 00c6 0023     		movs	r3, #0
 4235 00c8 84F8E431 		strb	r3, [r4, #484]
 669:GrannyChordApp.cpp ****       return true;
 4236              		.loc 3 669 7 is_stmt 1 view .LVU1167
 4237              	.LVL297:
 4238              	.L163:
 4239              		.loc 3 669 7 is_stmt 0 view .LVU1168
 4240              	.LBE782:
 4241              	.LBE783:
 4242              	.LBE784:
 4243              	.LBE800:
 351:GrannyChordApp.cpp ****     prev_param_k1[mode_idx] = knob1_val;
 4244              		.loc 3 351 5 is_stmt 1 view .LVU1169
 352:GrannyChordApp.cpp ****   }
 4245              		.loc 3 352 29 is_stmt 0 view .LVU1170
 4246 00cc 05F59D55 		add	r5, r5, #5024
 4247              	.LVL298:
 351:GrannyChordApp.cpp ****     prev_param_k1[mode_idx] = knob1_val;
 4248              		.loc 3 351 22 view .LVU1171
 4249 00d0 B0EE680A 		vmov.f32	s0, s17
 4250 00d4 D4F8DC11 		ldr	r1, [r4, #476]
 4251 00d8 2046     		mov	r0, r4
 4252 00da FFF7FEFF 		bl	_ZN14GrannyChordApp17UpdateKnob1ParamsEf9SynthMode
 4253              	.LVL299:
 352:GrannyChordApp.cpp ****   }
 4254              		.loc 3 352 5 is_stmt 1 view .LVU1172
 4255              	.LBB801:
 4256              	.LBB795:
 666:GrannyChordApp.cpp ****     if (fabs(curr_knob_val - prev_param_k2[mode_idx])<0.01){
 4257              		.loc 3 666 3 is_stmt 0 view .LVU1173
 4258 00de 94F8E431 		ldrb	r3, [r4, #484]	@ zero_extendqisi2
 4259              	.LBE795:
 4260              	.LBE801:
 352:GrannyChordApp.cpp ****   }
 4261              		.loc 3 352 29 view .LVU1174
 4262 00e2 04EB8505 		add	r5, r4, r5, lsl #2
 4263 00e6 C5ED018A 		vstr.32	s17, [r5, #4]
 354:GrannyChordApp.cpp ****     UpdateKnob2Params(knob2_val, curr_synth_mode_);
 4264              		.loc 3 354 3 is_stmt 1 view .LVU1175
 4265              	.LVL300:
 4266              	.LBB802:
 4267              	.LBI785:
 665:GrannyChordApp.cpp ****   if (mode_changed_){
 4268              		.loc 3 665 13 view .LVU1176
 4269              	.LBB796:
 666:GrannyChordApp.cpp ****     if (fabs(curr_knob_val - prev_param_k2[mode_idx])<0.01){
ARM GAS  /var/folders/2p/02m_5p7958535cp2tpgps0400000gn/T//ccgOSWw9.s 			page 125


 4270              		.loc 3 666 3 view .LVU1177
 4271 00ea 002B     		cmp	r3, #0
 4272 00ec D1D1     		bne	.L167
 4273              	.LVL301:
 4274              	.L168:
 666:GrannyChordApp.cpp ****     if (fabs(curr_knob_val - prev_param_k2[mode_idx])<0.01){
 4275              		.loc 3 666 3 is_stmt 0 view .LVU1178
 4276              	.LBE796:
 4277              	.LBE802:
 355:GrannyChordApp.cpp ****     prev_param_k2[mode_idx] = knob2_val;
 4278              		.loc 3 355 5 is_stmt 1 view .LVU1179
 355:GrannyChordApp.cpp ****     prev_param_k2[mode_idx] = knob2_val;
 4279              		.loc 3 355 22 is_stmt 0 view .LVU1180
 4280 00ee D4F8DC11 		ldr	r1, [r4, #476]
 4281 00f2 2046     		mov	r0, r4
 356:GrannyChordApp.cpp ****   }
 4282              		.loc 3 356 29 view .LVU1181
 4283 00f4 04EB8604 		add	r4, r4, r6, lsl #2
 4284              	.LVL302:
 355:GrannyChordApp.cpp ****     prev_param_k2[mode_idx] = knob2_val;
 4285              		.loc 3 355 22 view .LVU1182
 4286 00f8 B0EE480A 		vmov.f32	s0, s16
 4287 00fc FFF7FEFF 		bl	_ZN14GrannyChordApp17UpdateKnob2ParamsEf9SynthMode
 4288              	.LVL303:
 356:GrannyChordApp.cpp ****   }
 4289              		.loc 3 356 5 is_stmt 1 view .LVU1183
 356:GrannyChordApp.cpp ****   }
 4290              		.loc 3 356 29 is_stmt 0 view .LVU1184
 4291 0100 84ED018A 		vstr.32	s16, [r4, #4]
 4292              	.LVL304:
 356:GrannyChordApp.cpp ****   }
 4293              		.loc 3 356 29 view .LVU1185
 4294 0104 D6E7     		b	.L156
 4295              	.LVL305:
 4296              	.L165:
 4297              	.LBB803:
 4298              	.LBB797:
 4299              	.LBB794:
 4300              	.LBB793:
 668:GrannyChordApp.cpp ****       return true;
 4301              		.loc 3 668 7 is_stmt 1 view .LVU1186
 668:GrannyChordApp.cpp ****       return true;
 4302              		.loc 3 668 21 is_stmt 0 view .LVU1187
 4303 0106 0023     		movs	r3, #0
 4304 0108 84F8E431 		strb	r3, [r4, #484]
 4305              		.loc 3 669 7 is_stmt 1 view .LVU1188
 4306              	.LVL306:
 4307              		.loc 3 669 7 is_stmt 0 view .LVU1189
 4308 010c EFE7     		b	.L168
 4309              	.L177:
 4310 010e 00BF     		.align	3
 4311              	.L176:
 4312 0110 7B14AE47 		.word	1202590843
 4313 0114 E17A843F 		.word	1065646817
 4314 0118 0AD7233C 		.word	1008981770
 4315 011c A4707D3F 		.word	1065185444
 4316 0120 00000000 		.word	0
ARM GAS  /var/folders/2p/02m_5p7958535cp2tpgps0400000gn/T//ccgOSWw9.s 			page 126


 4317              	.LBE793:
 4318              	.LBE794:
 4319              	.LBE797:
 4320              	.LBE803:
 4321              	.LBE804:
 4322              	.LBE805:
 4323              		.cfi_endproc
 4324              	.LFE4919:
 4326              		.section	.rodata._ZN14GrannyChordApp15DebugPrintStateE8AppState.str1.1,"aMS",%progbits,1
 4327              	.LC11:
 4328 0000 53746174 		.ascii	"State now in: SelectFile\000"
 4328      65206E6F 
 4328      7720696E 
 4328      3A205365 
 4328      6C656374 
 4329              	.LC12:
 4330 0019 53746174 		.ascii	"State now in: RecordIn\000"
 4330      65206E6F 
 4330      7720696E 
 4330      3A205265 
 4330      636F7264 
 4331              	.LC13:
 4332 0030 53746174 		.ascii	"State now in: PlayWAV\000"
 4332      65206E6F 
 4332      7720696E 
 4332      3A20506C 
 4332      61795741 
 4333              	.LC14:
 4334 0046 53746174 		.ascii	"State now in: Synthesis\000"
 4334      65206E6F 
 4334      7720696E 
 4334      3A205379 
 4334      6E746865 
 4335              	.LC15:
 4336 005e 53746174 		.ascii	"State now in: Error\000"
 4336      65206E6F 
 4336      7720696E 
 4336      3A204572 
 4336      726F7200 
 4337              		.section	.text._ZN14GrannyChordApp15DebugPrintStateE8AppState,"ax",%progbits
 4338              		.align	1
 4339              		.global	_ZN14GrannyChordApp15DebugPrintStateE8AppState
 4340              		.syntax unified
 4341              		.thumb
 4342              		.thumb_func
 4344              	_ZN14GrannyChordApp15DebugPrintStateE8AppState:
 4345              	.LVL307:
 4346              	.LFB4940:
 670:GrannyChordApp.cpp ****     }
 671:GrannyChordApp.cpp ****     else return false;
 672:GrannyChordApp.cpp ****   }
 673:GrannyChordApp.cpp ****   else return true;
 674:GrannyChordApp.cpp **** }
 675:GrannyChordApp.cpp **** 
 676:GrannyChordApp.cpp **** 
 677:GrannyChordApp.cpp **** 
 678:GrannyChordApp.cpp **** void GrannyChordApp::DebugPrintState(AppState state){
ARM GAS  /var/folders/2p/02m_5p7958535cp2tpgps0400000gn/T//ccgOSWw9.s 			page 127


 4347              		.loc 3 678 53 is_stmt 1 view -0
 4348              		.cfi_startproc
 4349              		@ args = 0, pretend = 0, frame = 0
 4350              		@ frame_needed = 0, uses_anonymous_args = 0
 4351              		@ link register save eliminated.
 679:GrannyChordApp.cpp ****   switch(state){
 4352              		.loc 3 679 3 view .LVU1191
 4353 0000 0329     		cmp	r1, #3
 4354 0002 0CD8     		bhi	.L179
 4355 0004 DFE801F0 		tbb	[pc, r1]
 4356              	.L181:
 4357 0008 02       		.byte	(.L184-.L181)/2
 4358 0009 07       		.byte	(.L183-.L181)/2
 4359 000a 09       		.byte	(.L182-.L181)/2
 4360 000b 05       		.byte	(.L180-.L181)/2
 4361              		.p2align 1
 4362              	.L184:
 680:GrannyChordApp.cpp ****     case AppState::SelectFile:
 4363              		.loc 3 680 5 view .LVU1192
 681:GrannyChordApp.cpp ****       DebugPrint(pod_, "State now in: SelectFile");
 4364              		.loc 3 681 7 view .LVU1193
 4365              		.loc 3 681 7 view .LVU1194
 4366              	.LVL308:
 4367              	.LBB806:
 4368              	.LBI806:
 126:../libDaisy/src/daisy_seed.h ****     {
 4369              		.loc 5 126 17 view .LVU1195
 4370              	.LBB807:
 4371              		.loc 5 128 23 is_stmt 0 view .LVU1196
 4372 000c 0548     		ldr	r0, .L186
 4373              	.LVL309:
 4374              	.L185:
 4375              		.loc 5 128 23 view .LVU1197
 4376              	.LBE807:
 4377              	.LBE806:
 4378              	.LBB808:
 4379              	.LBB809:
 4380 000e FFF7FEBF 		b	_ZN5daisy6LoggerILNS_17LoggerDestinationE1EE9PrintLineEPKcz
 4381              	.LVL310:
 4382              	.L180:
 4383              		.loc 5 128 23 view .LVU1198
 4384              	.LBE809:
 4385              	.LBE808:
 682:GrannyChordApp.cpp ****       return;
 683:GrannyChordApp.cpp ****     case AppState::RecordIn:
 4386              		.loc 3 683 5 is_stmt 1 view .LVU1199
 684:GrannyChordApp.cpp ****       DebugPrint(pod_, "State now in: RecordIn");
 4387              		.loc 3 684 7 view .LVU1200
 4388              		.loc 3 684 7 view .LVU1201
 4389              	.LBB811:
 4390              	.LBI811:
 126:../libDaisy/src/daisy_seed.h ****     {
 4391              		.loc 5 126 17 view .LVU1202
 4392              	.LBB812:
 4393              		.loc 5 128 23 is_stmt 0 view .LVU1203
 4394 0012 0548     		ldr	r0, .L186+4
 4395              	.LVL311:
ARM GAS  /var/folders/2p/02m_5p7958535cp2tpgps0400000gn/T//ccgOSWw9.s 			page 128


 4396              		.loc 5 128 23 view .LVU1204
 4397 0014 FBE7     		b	.L185
 4398              	.LVL312:
 4399              	.L183:
 4400              		.loc 5 128 23 view .LVU1205
 4401              	.LBE812:
 4402              	.LBE811:
 685:GrannyChordApp.cpp ****       return;
 686:GrannyChordApp.cpp ****     case AppState::PlayWAV:
 4403              		.loc 3 686 5 is_stmt 1 view .LVU1206
 687:GrannyChordApp.cpp ****       DebugPrint(pod_, "State now in: PlayWAV");
 4404              		.loc 3 687 7 view .LVU1207
 4405              		.loc 3 687 7 view .LVU1208
 4406              	.LBB813:
 4407              	.LBI813:
 126:../libDaisy/src/daisy_seed.h ****     {
 4408              		.loc 5 126 17 view .LVU1209
 4409              	.LBB814:
 4410              		.loc 5 128 23 is_stmt 0 view .LVU1210
 4411 0016 0548     		ldr	r0, .L186+8
 4412              	.LVL313:
 4413              		.loc 5 128 23 view .LVU1211
 4414 0018 F9E7     		b	.L185
 4415              	.LVL314:
 4416              	.L182:
 4417              		.loc 5 128 23 view .LVU1212
 4418              	.LBE814:
 4419              	.LBE813:
 688:GrannyChordApp.cpp ****       return;
 689:GrannyChordApp.cpp ****     case AppState::Synthesis:
 4420              		.loc 3 689 5 is_stmt 1 view .LVU1213
 690:GrannyChordApp.cpp ****       DebugPrint(pod_, "State now in: Synthesis");
 4421              		.loc 3 690 7 view .LVU1214
 4422              		.loc 3 690 7 view .LVU1215
 4423              	.LBB815:
 4424              	.LBI815:
 126:../libDaisy/src/daisy_seed.h ****     {
 4425              		.loc 5 126 17 view .LVU1216
 4426              	.LBB816:
 4427              		.loc 5 128 23 is_stmt 0 view .LVU1217
 4428 001a 0548     		ldr	r0, .L186+12
 4429              	.LVL315:
 4430              		.loc 5 128 23 view .LVU1218
 4431 001c F7E7     		b	.L185
 4432              	.LVL316:
 4433              	.L179:
 4434              		.loc 5 128 23 view .LVU1219
 4435              	.LBE816:
 4436              	.LBE815:
 691:GrannyChordApp.cpp ****       return;
 692:GrannyChordApp.cpp ****     // case AppState::ChordMode:
 693:GrannyChordApp.cpp ****       DebugPrint(pod_, "State now in: ChordMode");
 694:GrannyChordApp.cpp ****     case AppState::Error:
 4437              		.loc 3 694 5 is_stmt 1 view .LVU1220
 695:GrannyChordApp.cpp ****     default:
 4438              		.loc 3 695 5 view .LVU1221
 696:GrannyChordApp.cpp ****       DebugPrint(pod_, "State now in: Error");
ARM GAS  /var/folders/2p/02m_5p7958535cp2tpgps0400000gn/T//ccgOSWw9.s 			page 129


 4439              		.loc 3 696 7 view .LVU1222
 4440              		.loc 3 696 7 view .LVU1223
 4441              	.LBB817:
 4442              	.LBI808:
 126:../libDaisy/src/daisy_seed.h ****     {
 4443              		.loc 5 126 17 view .LVU1224
 4444              	.LBB810:
 4445              		.loc 5 128 23 is_stmt 0 view .LVU1225
 4446 001e 0548     		ldr	r0, .L186+16
 4447              	.LVL317:
 4448              		.loc 5 128 23 view .LVU1226
 4449 0020 F5E7     		b	.L185
 4450              	.L187:
 4451 0022 00BF     		.align	2
 4452              	.L186:
 4453 0024 00000000 		.word	.LC11
 4454 0028 19000000 		.word	.LC12
 4455 002c 30000000 		.word	.LC13
 4456 0030 46000000 		.word	.LC14
 4457 0034 5E000000 		.word	.LC15
 4458              	.LBE810:
 4459              	.LBE817:
 4460              		.cfi_endproc
 4461              	.LFE4940:
 4463              		.section	.rodata._ZN14GrannyChordApp14DebugPrintModeE9SynthMode.str1.1,"aMS",%progbits,1
 4464              	.LC16:
 4465 0000 53746174 		.ascii	"State now in: SizePos\000"
 4465      65206E6F 
 4465      7720696E 
 4465      3A205369 
 4465      7A65506F 
 4466              	.LC17:
 4467 0016 53746174 		.ascii	"State now in: SizePosRnd\000"
 4467      65206E6F 
 4467      7720696E 
 4467      3A205369 
 4467      7A65506F 
 4468              	.LC18:
 4469 002f 53746174 		.ascii	"State now in: PitchGrains\000"
 4469      65206E6F 
 4469      7720696E 
 4469      3A205069 
 4469      74636847 
 4470              	.LC19:
 4471 0049 53746174 		.ascii	"State now in: PitchGrainsRnd\000"
 4471      65206E6F 
 4471      7720696E 
 4471      3A205069 
 4471      74636847 
 4472              	.LC20:
 4473 0066 53746174 		.ascii	"State now in: PanPanRnd\000"
 4473      65206E6F 
 4473      7720696E 
 4473      3A205061 
 4473      6E50616E 
 4474              	.LC21:
 4475 007e 53746174 		.ascii	"State now in: PhasorEnv\000"
ARM GAS  /var/folders/2p/02m_5p7958535cp2tpgps0400000gn/T//ccgOSWw9.s 			page 130


 4475      65206E6F 
 4475      7720696E 
 4475      3A205068 
 4475      61736F72 
 4476              	.LC22:
 4477 0096 53746174 		.ascii	"State now in: Reverb\000"
 4477      65206E6F 
 4477      7720696E 
 4477      3A205265 
 4477      76657262 
 4478              	.LC23:
 4479 00ab 53746174 		.ascii	"State now in: Filter\000"
 4479      65206E6F 
 4479      7720696E 
 4479      3A204669 
 4479      6C746572 
 4480              		.section	.text._ZN14GrannyChordApp14DebugPrintModeE9SynthMode,"ax",%progbits
 4481              		.align	1
 4482              		.global	_ZN14GrannyChordApp14DebugPrintModeE9SynthMode
 4483              		.syntax unified
 4484              		.thumb
 4485              		.thumb_func
 4487              	_ZN14GrannyChordApp14DebugPrintModeE9SynthMode:
 4488              	.LVL318:
 4489              	.LFB4941:
 697:GrannyChordApp.cpp ****       return;
 698:GrannyChordApp.cpp ****   }
 699:GrannyChordApp.cpp **** };
 700:GrannyChordApp.cpp **** 
 701:GrannyChordApp.cpp **** void GrannyChordApp::DebugPrintMode(SynthMode mode){
 4490              		.loc 3 701 52 is_stmt 1 view -0
 4491              		.cfi_startproc
 4492              		@ args = 0, pretend = 0, frame = 0
 4493              		@ frame_needed = 0, uses_anonymous_args = 0
 4494              		@ link register save eliminated.
 702:GrannyChordApp.cpp ****   switch(mode){
 4495              		.loc 3 702 3 view .LVU1228
 4496 0000 0729     		cmp	r1, #7
 4497 0002 16D8     		bhi	.L188
 4498 0004 DFE801F0 		tbb	[pc, r1]
 4499              	.L191:
 4500 0008 04       		.byte	(.L198-.L191)/2
 4501 0009 07       		.byte	(.L197-.L191)/2
 4502 000a 09       		.byte	(.L196-.L191)/2
 4503 000b 0B       		.byte	(.L195-.L191)/2
 4504 000c 0D       		.byte	(.L194-.L191)/2
 4505 000d 0F       		.byte	(.L193-.L191)/2
 4506 000e 11       		.byte	(.L192-.L191)/2
 4507 000f 13       		.byte	(.L190-.L191)/2
 4508              		.p2align 1
 4509              	.L198:
 703:GrannyChordApp.cpp ****     case SynthMode::Size_Position:
 4510              		.loc 3 703 5 view .LVU1229
 704:GrannyChordApp.cpp ****       DebugPrint(pod_, "State now in: SizePos");
 4511              		.loc 3 704 7 view .LVU1230
 4512              		.loc 3 704 7 view .LVU1231
 4513              	.LVL319:
ARM GAS  /var/folders/2p/02m_5p7958535cp2tpgps0400000gn/T//ccgOSWw9.s 			page 131


 4514              	.LBB818:
 4515              	.LBI818:
 126:../libDaisy/src/daisy_seed.h ****     {
 4516              		.loc 5 126 17 view .LVU1232
 4517              	.LBB819:
 4518              		.loc 5 128 23 is_stmt 0 view .LVU1233
 4519 0010 0848     		ldr	r0, .L200
 4520              	.LVL320:
 4521              	.L199:
 4522              		.loc 5 128 23 view .LVU1234
 4523              	.LBE819:
 4524              	.LBE818:
 4525              	.LBB820:
 4526              	.LBB821:
 4527 0012 FFF7FEBF 		b	_ZN5daisy6LoggerILNS_17LoggerDestinationE1EE9PrintLineEPKcz
 4528              	.LVL321:
 4529              	.L197:
 4530              		.loc 5 128 23 view .LVU1235
 4531              	.LBE821:
 4532              	.LBE820:
 705:GrannyChordApp.cpp ****       return;
 706:GrannyChordApp.cpp ****     case SynthMode::Size_Position_Rnd:
 4533              		.loc 3 706 5 is_stmt 1 view .LVU1236
 707:GrannyChordApp.cpp ****       DebugPrint(pod_, "State now in: SizePosRnd");
 4534              		.loc 3 707 7 view .LVU1237
 4535              		.loc 3 707 7 view .LVU1238
 4536              	.LBB823:
 4537              	.LBI823:
 126:../libDaisy/src/daisy_seed.h ****     {
 4538              		.loc 5 126 17 view .LVU1239
 4539              	.LBB824:
 4540              		.loc 5 128 23 is_stmt 0 view .LVU1240
 4541 0016 0848     		ldr	r0, .L200+4
 4542              	.LVL322:
 4543              		.loc 5 128 23 view .LVU1241
 4544 0018 FBE7     		b	.L199
 4545              	.LVL323:
 4546              	.L196:
 4547              		.loc 5 128 23 view .LVU1242
 4548              	.LBE824:
 4549              	.LBE823:
 708:GrannyChordApp.cpp ****       return;
 709:GrannyChordApp.cpp ****     case SynthMode::Pitch_ActiveGrains:
 4550              		.loc 3 709 5 is_stmt 1 view .LVU1243
 710:GrannyChordApp.cpp ****       DebugPrint(pod_, "State now in: PitchGrains");
 4551              		.loc 3 710 7 view .LVU1244
 4552              		.loc 3 710 7 view .LVU1245
 4553              	.LBB825:
 4554              	.LBI825:
 126:../libDaisy/src/daisy_seed.h ****     {
 4555              		.loc 5 126 17 view .LVU1246
 4556              	.LBB826:
 4557              		.loc 5 128 23 is_stmt 0 view .LVU1247
 4558 001a 0848     		ldr	r0, .L200+8
 4559              	.LVL324:
 4560              		.loc 5 128 23 view .LVU1248
 4561 001c F9E7     		b	.L199
ARM GAS  /var/folders/2p/02m_5p7958535cp2tpgps0400000gn/T//ccgOSWw9.s 			page 132


 4562              	.LVL325:
 4563              	.L195:
 4564              		.loc 5 128 23 view .LVU1249
 4565              	.LBE826:
 4566              	.LBE825:
 711:GrannyChordApp.cpp ****       return;
 712:GrannyChordApp.cpp ****     case SynthMode::Pitch_ActiveGrains_Rnd:
 4567              		.loc 3 712 5 is_stmt 1 view .LVU1250
 713:GrannyChordApp.cpp ****       DebugPrint(pod_, "State now in: PitchGrainsRnd");
 4568              		.loc 3 713 7 view .LVU1251
 4569              		.loc 3 713 7 view .LVU1252
 4570              	.LBB827:
 4571              	.LBI827:
 126:../libDaisy/src/daisy_seed.h ****     {
 4572              		.loc 5 126 17 view .LVU1253
 4573              	.LBB828:
 4574              		.loc 5 128 23 is_stmt 0 view .LVU1254
 4575 001e 0848     		ldr	r0, .L200+12
 4576              	.LVL326:
 4577              		.loc 5 128 23 view .LVU1255
 4578 0020 F7E7     		b	.L199
 4579              	.LVL327:
 4580              	.L194:
 4581              		.loc 5 128 23 view .LVU1256
 4582              	.LBE828:
 4583              	.LBE827:
 714:GrannyChordApp.cpp ****       return;
 715:GrannyChordApp.cpp ****     case SynthMode::Pan_Direction:
 4584              		.loc 3 715 5 is_stmt 1 view .LVU1257
 716:GrannyChordApp.cpp ****       DebugPrint(pod_, "State now in: PanPanRnd");
 4585              		.loc 3 716 7 view .LVU1258
 4586              		.loc 3 716 7 view .LVU1259
 4587              	.LBB829:
 4588              	.LBI829:
 126:../libDaisy/src/daisy_seed.h ****     {
 4589              		.loc 5 126 17 view .LVU1260
 4590              	.LBB830:
 4591              		.loc 5 128 23 is_stmt 0 view .LVU1261
 4592 0022 0848     		ldr	r0, .L200+16
 4593              	.LVL328:
 4594              		.loc 5 128 23 view .LVU1262
 4595 0024 F5E7     		b	.L199
 4596              	.LVL329:
 4597              	.L193:
 4598              		.loc 5 128 23 view .LVU1263
 4599              	.LBE830:
 4600              	.LBE829:
 717:GrannyChordApp.cpp ****       return;
 718:GrannyChordApp.cpp ****     case SynthMode::PanRnd_Chorus:
 4601              		.loc 3 718 5 is_stmt 1 view .LVU1264
 719:GrannyChordApp.cpp ****       DebugPrint(pod_, "State now in: PhasorEnv");
 4602              		.loc 3 719 7 view .LVU1265
 4603              		.loc 3 719 7 view .LVU1266
 4604              	.LBB831:
 4605              	.LBI831:
 126:../libDaisy/src/daisy_seed.h ****     {
 4606              		.loc 5 126 17 view .LVU1267
ARM GAS  /var/folders/2p/02m_5p7958535cp2tpgps0400000gn/T//ccgOSWw9.s 			page 133


 4607              	.LBB832:
 4608              		.loc 5 128 23 is_stmt 0 view .LVU1268
 4609 0026 0848     		ldr	r0, .L200+20
 4610              	.LVL330:
 4611              		.loc 5 128 23 view .LVU1269
 4612 0028 F3E7     		b	.L199
 4613              	.LVL331:
 4614              	.L192:
 4615              		.loc 5 128 23 view .LVU1270
 4616              	.LBE832:
 4617              	.LBE831:
 720:GrannyChordApp.cpp ****       return;
 721:GrannyChordApp.cpp ****     case SynthMode::Reverb:
 4618              		.loc 3 721 5 is_stmt 1 view .LVU1271
 722:GrannyChordApp.cpp ****       DebugPrint(pod_, "State now in: Reverb");
 4619              		.loc 3 722 7 view .LVU1272
 4620              		.loc 3 722 7 view .LVU1273
 4621              	.LBB833:
 4622              	.LBI833:
 126:../libDaisy/src/daisy_seed.h ****     {
 4623              		.loc 5 126 17 view .LVU1274
 4624              	.LBB834:
 4625              		.loc 5 128 23 is_stmt 0 view .LVU1275
 4626 002a 0848     		ldr	r0, .L200+24
 4627              	.LVL332:
 4628              		.loc 5 128 23 view .LVU1276
 4629 002c F1E7     		b	.L199
 4630              	.LVL333:
 4631              	.L190:
 4632              		.loc 5 128 23 view .LVU1277
 4633              	.LBE834:
 4634              	.LBE833:
 723:GrannyChordApp.cpp ****       return;
 724:GrannyChordApp.cpp ****     case SynthMode::Filter:
 4635              		.loc 3 724 5 is_stmt 1 view .LVU1278
 725:GrannyChordApp.cpp ****       DebugPrint(pod_, "State now in: Filter");
 4636              		.loc 3 725 7 view .LVU1279
 4637              		.loc 3 725 7 view .LVU1280
 4638              	.LBB835:
 4639              	.LBI820:
 126:../libDaisy/src/daisy_seed.h ****     {
 4640              		.loc 5 126 17 view .LVU1281
 4641              	.LBB822:
 4642              		.loc 5 128 23 is_stmt 0 view .LVU1282
 4643 002e 0848     		ldr	r0, .L200+28
 4644              	.LVL334:
 4645              		.loc 5 128 23 view .LVU1283
 4646 0030 EFE7     		b	.L199
 4647              	.LVL335:
 4648              	.L188:
 4649              		.loc 5 128 23 view .LVU1284
 4650              	.LBE822:
 4651              	.LBE835:
 726:GrannyChordApp.cpp ****       return;
 727:GrannyChordApp.cpp ****   }
 728:GrannyChordApp.cpp **** };
 4652              		.loc 3 728 1 view .LVU1285
ARM GAS  /var/folders/2p/02m_5p7958535cp2tpgps0400000gn/T//ccgOSWw9.s 			page 134


 4653 0032 7047     		bx	lr
 4654              	.L201:
 4655              		.align	2
 4656              	.L200:
 4657 0034 00000000 		.word	.LC16
 4658 0038 16000000 		.word	.LC17
 4659 003c 2F000000 		.word	.LC18
 4660 0040 49000000 		.word	.LC19
 4661 0044 66000000 		.word	.LC20
 4662 0048 7E000000 		.word	.LC21
 4663 004c 96000000 		.word	.LC22
 4664 0050 AB000000 		.word	.LC23
 4665              		.cfi_endproc
 4666              	.LFE4941:
 4668              		.section	.text._ZN14GrannyChordApp10SetupTimerEv,"ax",%progbits
 4669              		.align	1
 4670              		.global	_ZN14GrannyChordApp10SetupTimerEv
 4671              		.syntax unified
 4672              		.thumb
 4673              		.thumb_func
 4675              	_ZN14GrannyChordApp10SetupTimerEv:
 4676              	.LVL336:
 4677              	.LFB4942:
 729:GrannyChordApp.cpp **** 
 730:GrannyChordApp.cpp **** /// @brief sets up hardware timer peripheral, used for
 731:GrannyChordApp.cpp **** ///        timing led flashes on state/mode changes
 732:GrannyChordApp.cpp **** ///        (internal system delay is blocking so not used)
 733:GrannyChordApp.cpp **** void GrannyChordApp::SetupTimer(){
 4678              		.loc 3 733 34 is_stmt 1 view -0
 4679              		.cfi_startproc
 4680              		@ args = 0, pretend = 0, frame = 16
 4681              		@ frame_needed = 0, uses_anonymous_args = 0
 734:GrannyChordApp.cpp ****   TimerHandle::Config cfg;
 4682              		.loc 3 734 3 view .LVU1287
 733:GrannyChordApp.cpp ****   TimerHandle::Config cfg;
 4683              		.loc 3 733 34 is_stmt 0 view .LVU1288
 4684 0000 30B5     		push	{r4, r5, lr}
 4685              		.cfi_def_cfa_offset 12
 4686              		.cfi_offset 4, -12
 4687              		.cfi_offset 5, -8
 4688              		.cfi_offset 14, -4
 735:GrannyChordApp.cpp ****   cfg.periph = TimerHandle::Config::Peripheral::TIM_5;
 4689              		.loc 3 735 14 view .LVU1289
 4690 0002 0323     		movs	r3, #3
 733:GrannyChordApp.cpp ****   TimerHandle::Config cfg;
 4691              		.loc 3 733 34 view .LVU1290
 4692 0004 85B0     		sub	sp, sp, #20
 4693              		.cfi_def_cfa_offset 32
 4694              	.LVL337:
 4695              	.LBB836:
 4696              	.LBI836:
 4697              		.file 17 "../libDaisy/src/per/tim.h"
   1:../libDaisy/src/per/tim.h **** #pragma once
   2:../libDaisy/src/per/tim.h **** #ifndef DSY_TIM_H
   3:../libDaisy/src/per/tim.h **** #define DSY_TIM_H
   4:../libDaisy/src/per/tim.h **** 
   5:../libDaisy/src/per/tim.h **** #include <cstdint>
ARM GAS  /var/folders/2p/02m_5p7958535cp2tpgps0400000gn/T//ccgOSWw9.s 			page 135


   6:../libDaisy/src/per/tim.h **** 
   7:../libDaisy/src/per/tim.h **** namespace daisy
   8:../libDaisy/src/per/tim.h **** {
   9:../libDaisy/src/per/tim.h **** /** @brief Hardare timer peripheral support.
  10:../libDaisy/src/per/tim.h ****  ** 
  11:../libDaisy/src/per/tim.h ****  ** Supports general-function TIM peripherals:
  12:../libDaisy/src/per/tim.h ****  ** - TIM2, TIM3, TIM4, TIM5
  13:../libDaisy/src/per/tim.h ****  **
  14:../libDaisy/src/per/tim.h ****  ** DaisySeed, and many internal peripherals utilize TIM2 for timing/delay purposes.
  15:../libDaisy/src/per/tim.h ****  ** It is configured to be at the maximum frequency: typically 200MHz or 240MHz (boost) 
  16:../libDaisy/src/per/tim.h ****  ** for measuring/delaying for very short periods. 
  17:../libDaisy/src/per/tim.h ****  **
  18:../libDaisy/src/per/tim.h ****  ** The GetUs/GetMs functions are available for convenience (and backwards compatibility),
  19:../libDaisy/src/per/tim.h ****  ** but to avoid wrapping errors on math when doing time-delta calculations, using ticks is 
  20:../libDaisy/src/per/tim.h ****  ** recommended. The data can be converted to the final time-base after getting the difference in t
  21:../libDaisy/src/per/tim.h ****  ** (Using GetFreq() can be used for these time-base calculations).
  22:../libDaisy/src/per/tim.h ****  **
  23:../libDaisy/src/per/tim.h ****  ** User callbacks can be set, and changed at any point during operation. However,
  24:../libDaisy/src/per/tim.h ****  ** the Config::enable_irq must be set to true when initializing for the interrupts
  25:../libDaisy/src/per/tim.h ****  ** to turn on and function.
  26:../libDaisy/src/per/tim.h ****  **
  27:../libDaisy/src/per/tim.h ****  ** @todo Fix issues with realtime getters, and wrapping of the timer(s).
  28:../libDaisy/src/per/tim.h ****  **     - This very noticeable with default settings for the 16-bit counters.
  29:../libDaisy/src/per/tim.h ****  ** @todo Other General purpose timers
  30:../libDaisy/src/per/tim.h ****  ** @todo Non-internal clock sources
  31:../libDaisy/src/per/tim.h ****  ** @todo Use of the four-tim channels per tim
  32:../libDaisy/src/per/tim.h ****  **     - PWM, etc.
  33:../libDaisy/src/per/tim.h ****  **     - InputCapture/OutputCompare, etc.
  34:../libDaisy/src/per/tim.h ****  ** @todo HRTIM
  35:../libDaisy/src/per/tim.h ****  ** @todo Advanced timers (TIM1/TIM8)
  36:../libDaisy/src/per/tim.h ****  ** */
  37:../libDaisy/src/per/tim.h **** class TimerHandle
  38:../libDaisy/src/per/tim.h **** {
  39:../libDaisy/src/per/tim.h ****   public:
  40:../libDaisy/src/per/tim.h ****     /** @brief Configuration struct for the Peripheral
  41:../libDaisy/src/per/tim.h ****      *  @note These settings are used during initialization
  42:../libDaisy/src/per/tim.h ****      *   and changing them afterwards may not have the desired effect.
  43:../libDaisy/src/per/tim.h ****      */
  44:../libDaisy/src/per/tim.h ****     struct Config
  45:../libDaisy/src/per/tim.h ****     {
  46:../libDaisy/src/per/tim.h ****         /** @brief Hardware Timer to configure, and use. */
  47:../libDaisy/src/per/tim.h ****         enum class Peripheral
  48:../libDaisy/src/per/tim.h ****         {
  49:../libDaisy/src/per/tim.h ****             TIM_2 = 0, /**< 32-bit counter */
  50:../libDaisy/src/per/tim.h ****             TIM_3,     /**< 16-bit counter */
  51:../libDaisy/src/per/tim.h ****             TIM_4,     /**< 16-bit counter */
  52:../libDaisy/src/per/tim.h ****             TIM_5,     /**< 32-bit counter*/
  53:../libDaisy/src/per/tim.h ****         };
  54:../libDaisy/src/per/tim.h **** 
  55:../libDaisy/src/per/tim.h ****         /** @brief Direction of the auto-reload counter. 
  56:../libDaisy/src/per/tim.h ****          ** @todo Add support for the various  
  57:../libDaisy/src/per/tim.h ****          ** versions of Up/Down counters.
  58:../libDaisy/src/per/tim.h ****          ** */
  59:../libDaisy/src/per/tim.h ****         enum class CounterDir
  60:../libDaisy/src/per/tim.h ****         {
  61:../libDaisy/src/per/tim.h ****             UP = 0,
  62:../libDaisy/src/per/tim.h ****             DOWN,
ARM GAS  /var/folders/2p/02m_5p7958535cp2tpgps0400000gn/T//ccgOSWw9.s 			page 136


  63:../libDaisy/src/per/tim.h ****         };
  64:../libDaisy/src/per/tim.h **** 
  65:../libDaisy/src/per/tim.h ****         Peripheral periph; /**< Hardware Peripheral */
  66:../libDaisy/src/per/tim.h ****         CounterDir dir;    /**< Counter direction */
  67:../libDaisy/src/per/tim.h **** 
  68:../libDaisy/src/per/tim.h ****         /** @brief period in ticks at TIM frequency that counter will reset based on dir
  69:../libDaisy/src/per/tim.h ****          *  @note TIM3 and TIM4 are both 16-bit timers. So the period maximum is 0xffff.
  70:../libDaisy/src/per/tim.h ****         */
  71:../libDaisy/src/per/tim.h ****         uint32_t period;
  72:../libDaisy/src/per/tim.h ****         bool     enable_irq; /**< Enable interrupt for user based callback */
  73:../libDaisy/src/per/tim.h **** 
  74:../libDaisy/src/per/tim.h ****         /* @brief Constructor for default states */
  75:../libDaisy/src/per/tim.h ****         Config()
 4698              		.loc 17 75 9 is_stmt 1 view .LVU1291
 4699              	.LBE836:
 4700              		.loc 3 735 14 is_stmt 0 view .LVU1292
 4701 0006 0025     		movs	r5, #0
 736:GrannyChordApp.cpp ****   cfg.period = 2000;
 737:GrannyChordApp.cpp ****   cfg.enable_irq = true;
 738:GrannyChordApp.cpp ****   timer_.Init(cfg);
 4702              		.loc 3 738 14 view .LVU1293
 4703 0008 00F55144 		add	r4, r0, #53504
 4704 000c 6946     		mov	r1, sp
 4705 000e A034     		adds	r4, r4, #160
 735:GrannyChordApp.cpp ****   cfg.period = 2000;
 4706              		.loc 3 735 14 view .LVU1294
 4707 0010 CDE90035 		strd	r3, r5, [sp]
 736:GrannyChordApp.cpp ****   cfg.period = 2000;
 4708              		.loc 3 736 3 is_stmt 1 view .LVU1295
 736:GrannyChordApp.cpp ****   cfg.period = 2000;
 4709              		.loc 3 736 14 is_stmt 0 view .LVU1296
 4710 0014 4FF4FA63 		mov	r3, #2000
 4711              		.loc 3 738 14 view .LVU1297
 4712 0018 2046     		mov	r0, r4
 4713              	.LVL338:
 736:GrannyChordApp.cpp ****   cfg.period = 2000;
 4714              		.loc 3 736 14 view .LVU1298
 4715 001a 0293     		str	r3, [sp, #8]
 737:GrannyChordApp.cpp ****   timer_.Init(cfg);
 4716              		.loc 3 737 3 is_stmt 1 view .LVU1299
 737:GrannyChordApp.cpp ****   timer_.Init(cfg);
 4717              		.loc 3 737 18 is_stmt 0 view .LVU1300
 4718 001c 0123     		movs	r3, #1
 4719 001e 8DF80C30 		strb	r3, [sp, #12]
 4720              		.loc 3 738 3 is_stmt 1 view .LVU1301
 4721              		.loc 3 738 14 is_stmt 0 view .LVU1302
 4722 0022 FFF7FEFF 		bl	_ZN5daisy11TimerHandle4InitERKNS0_6ConfigE
 4723              	.LVL339:
 739:GrannyChordApp.cpp ****   timer_.SetPrescaler(9999);
 4724              		.loc 3 739 3 is_stmt 1 view .LVU1303
 4725              		.loc 3 739 22 is_stmt 0 view .LVU1304
 4726 0026 42F20F71 		movw	r1, #9999
 4727 002a 2046     		mov	r0, r4
 4728 002c FFF7FEFF 		bl	_ZN5daisy11TimerHandle12SetPrescalerEm
 4729              	.LVL340:
 740:GrannyChordApp.cpp ****   timer_.SetCallback(StaticLedCallback, nullptr);
 4730              		.loc 3 740 3 is_stmt 1 view .LVU1305
ARM GAS  /var/folders/2p/02m_5p7958535cp2tpgps0400000gn/T//ccgOSWw9.s 			page 137


 4731              		.loc 3 740 21 is_stmt 0 view .LVU1306
 4732 0030 2A46     		mov	r2, r5
 4733 0032 0349     		ldr	r1, .L203
 4734 0034 2046     		mov	r0, r4
 4735 0036 FFF7FEFF 		bl	_ZN5daisy11TimerHandle11SetCallbackEPFvPvES1_
 4736              	.LVL341:
 741:GrannyChordApp.cpp **** }
 4737              		.loc 3 741 1 view .LVU1307
 4738 003a 05B0     		add	sp, sp, #20
 4739              		.cfi_def_cfa_offset 12
 4740              	.LVL342:
 4741              		.loc 3 741 1 view .LVU1308
 4742              		@ sp needed
 4743 003c 30BD     		pop	{r4, r5, pc}
 4744              	.LVL343:
 4745              	.L204:
 4746              		.loc 3 741 1 view .LVU1309
 4747 003e 00BF     		.align	2
 4748              	.L203:
 4749 0040 00000000 		.word	_ZN14GrannyChordApp17StaticLedCallbackEPv
 4750              		.cfi_endproc
 4751              	.LFE4942:
 4753              		.section	.text._ZN14GrannyChordApp11LedCallbackEPv,"ax",%progbits
 4754              		.align	1
 4755              		.global	_ZN14GrannyChordApp11LedCallbackEPv
 4756              		.syntax unified
 4757              		.thumb
 4758              		.thumb_func
 4760              	_ZN14GrannyChordApp11LedCallbackEPv:
 4761              	.LVL344:
 4762              	.LFB4943:
 742:GrannyChordApp.cpp **** 
 743:GrannyChordApp.cpp **** /// @brief callback function called every timer period 
 744:GrannyChordApp.cpp **** void GrannyChordApp::LedCallback(void* data){
 4763              		.loc 3 744 45 is_stmt 1 view -0
 4764              		.cfi_startproc
 4765              		@ args = 0, pretend = 0, frame = 0
 4766              		@ frame_needed = 0, uses_anonymous_args = 0
 745:GrannyChordApp.cpp ****   if (led1_flash_count_ < 6) {
 4767              		.loc 3 745 3 view .LVU1311
 744:GrannyChordApp.cpp ****   if (led1_flash_count_ < 6) {
 4768              		.loc 3 744 45 is_stmt 0 view .LVU1312
 4769 0000 38B5     		push	{r3, r4, r5, lr}
 4770              		.cfi_def_cfa_offset 16
 4771              		.cfi_offset 3, -16
 4772              		.cfi_offset 4, -12
 4773              		.cfi_offset 5, -8
 4774              		.cfi_offset 14, -4
 4775              		.loc 3 745 7 view .LVU1313
 4776 0002 00F55044 		add	r4, r0, #53248
 744:GrannyChordApp.cpp ****   if (led1_flash_count_ < 6) {
 4777              		.loc 3 744 45 view .LVU1314
 4778 0006 0546     		mov	r5, r0
 746:GrannyChordApp.cpp ****       /* flash on/off for the first 6 callbacks (3 cycles) */
 747:GrannyChordApp.cpp ****       if (led1_flash_count_%2==0) pod_.led1.Set(rgb1_[0],rgb1_[1],rgb1_[2]);
 4779              		.loc 3 747 48 view .LVU1315
 4780 0008 C069     		ldr	r0, [r0, #28]
ARM GAS  /var/folders/2p/02m_5p7958535cp2tpgps0400000gn/T//ccgOSWw9.s 			page 138


 4781              	.LVL345:
 745:GrannyChordApp.cpp ****       /* flash on/off for the first 6 callbacks (3 cycles) */
 4782              		.loc 3 745 7 view .LVU1316
 4783 000a D4F8BC31 		ldr	r3, [r4, #444]
 4784              		.loc 3 747 48 view .LVU1317
 4785 000e D830     		adds	r0, r0, #216
 745:GrannyChordApp.cpp ****       /* flash on/off for the first 6 callbacks (3 cycles) */
 4786              		.loc 3 745 3 view .LVU1318
 4787 0010 052B     		cmp	r3, #5
 4788 0012 49DC     		bgt	.L206
 4789              		.loc 3 747 7 is_stmt 1 view .LVU1319
 4790 0014 DA07     		lsls	r2, r3, #31
 4791              		.loc 3 747 35 view .LVU1320
 748:GrannyChordApp.cpp ****       else pod_.led1.Set(0,0,0);
 4792              		.loc 3 748 25 is_stmt 0 view .LVU1321
 4793 0016 4BBF     		itete	mi
 4794 0018 9FED2E1A 		vldrmi.32	s2, .L219
 747:GrannyChordApp.cpp ****       else pod_.led1.Set(0,0,0);
 4795              		.loc 3 747 48 view .LVU1322
 4796 001c 94ED6B1A 		vldrpl.32	s2, [r4, #428]
 4797              		.loc 3 748 25 view .LVU1323
 4798 0020 F0EE410A 		vmovmi.f32	s1, s2
 747:GrannyChordApp.cpp ****       else pod_.led1.Set(0,0,0);
 4799              		.loc 3 747 48 view .LVU1324
 4800 0024 D4ED6A0A 		vldrpl.32	s1, [r4, #424]
 4801              		.loc 3 748 25 view .LVU1325
 4802 0028 4CBF     		ite	mi
 4803 002a B0EE410A 		vmovmi.f32	s0, s2
 747:GrannyChordApp.cpp ****       else pod_.led1.Set(0,0,0);
 4804              		.loc 3 747 48 view .LVU1326
 4805 002e 94ED690A 		vldrpl.32	s0, [r4, #420]
 4806              		.loc 3 748 12 is_stmt 1 view .LVU1327
 4807              		.loc 3 748 25 is_stmt 0 view .LVU1328
 4808 0032 FFF7FEFF 		bl	_ZN5daisy6RgbLed3SetEfff
 4809              	.LVL346:
 749:GrannyChordApp.cpp ****       led1_flash_count_++;
 4810              		.loc 3 749 7 is_stmt 1 view .LVU1329
 4811              		.loc 3 749 24 is_stmt 0 view .LVU1330
 4812 0036 D4F8BC31 		ldr	r3, [r4, #444]
 4813 003a 0133     		adds	r3, r3, #1
 4814 003c C4F8BC31 		str	r3, [r4, #444]
 4815              	.L209:
 750:GrannyChordApp.cpp ****   } 
 751:GrannyChordApp.cpp ****   else pod_.led1.Set(rgb1_[0],rgb1_[1],rgb1_[2]); /* stay solid after 3 flashes */
 752:GrannyChordApp.cpp **** 
 753:GrannyChordApp.cpp ****   if (led2_flash_count_ <6){
 4816              		.loc 3 753 3 is_stmt 1 view .LVU1331
 4817              		.loc 3 753 7 is_stmt 0 view .LVU1332
 4818 0040 D4F8C031 		ldr	r3, [r4, #448]
 754:GrannyChordApp.cpp ****     if (led2_flash_count_%2==0) pod_.led2.Set(rgb2_[0],rgb2_[1],rgb2_[2]);
 4819              		.loc 3 754 46 view .LVU1333
 4820 0044 E869     		ldr	r0, [r5, #28]
 753:GrannyChordApp.cpp ****     if (led2_flash_count_%2==0) pod_.led2.Set(rgb2_[0],rgb2_[1],rgb2_[2]);
 4821              		.loc 3 753 3 view .LVU1334
 4822 0046 052B     		cmp	r3, #5
 4823              		.loc 3 754 46 view .LVU1335
 4824 0048 00F59670 		add	r0, r0, #300
ARM GAS  /var/folders/2p/02m_5p7958535cp2tpgps0400000gn/T//ccgOSWw9.s 			page 139


 753:GrannyChordApp.cpp ****     if (led2_flash_count_%2==0) pod_.led2.Set(rgb2_[0],rgb2_[1],rgb2_[2]);
 4825              		.loc 3 753 3 view .LVU1336
 4826 004c 35DC     		bgt	.L210
 4827              		.loc 3 754 5 is_stmt 1 view .LVU1337
 4828 004e DB07     		lsls	r3, r3, #31
 4829              		.loc 3 754 33 view .LVU1338
 755:GrannyChordApp.cpp ****     else pod_.led2.Set(0,0,0);
 4830              		.loc 3 755 23 is_stmt 0 view .LVU1339
 4831 0050 4BBF     		itete	mi
 4832 0052 9FED201A 		vldrmi.32	s2, .L219
 754:GrannyChordApp.cpp ****     if (led2_flash_count_%2==0) pod_.led2.Set(rgb2_[0],rgb2_[1],rgb2_[2]);
 4833              		.loc 3 754 46 view .LVU1340
 4834 0056 94ED6E1A 		vldrpl.32	s2, [r4, #440]
 4835              		.loc 3 755 23 view .LVU1341
 4836 005a F0EE410A 		vmovmi.f32	s1, s2
 754:GrannyChordApp.cpp ****     if (led2_flash_count_%2==0) pod_.led2.Set(rgb2_[0],rgb2_[1],rgb2_[2]);
 4837              		.loc 3 754 46 view .LVU1342
 4838 005e D4ED6D0A 		vldrpl.32	s1, [r4, #436]
 4839              		.loc 3 755 23 view .LVU1343
 4840 0062 4CBF     		ite	mi
 4841 0064 B0EE410A 		vmovmi.f32	s0, s2
 754:GrannyChordApp.cpp ****     if (led2_flash_count_%2==0) pod_.led2.Set(rgb2_[0],rgb2_[1],rgb2_[2]);
 4842              		.loc 3 754 46 view .LVU1344
 4843 0068 94ED6C0A 		vldrpl.32	s0, [r4, #432]
 4844              		.loc 3 755 10 is_stmt 1 view .LVU1345
 4845              		.loc 3 755 23 is_stmt 0 view .LVU1346
 4846 006c FFF7FEFF 		bl	_ZN5daisy6RgbLed3SetEfff
 4847              	.LVL347:
 756:GrannyChordApp.cpp ****     led2_flash_count_++;
 4848              		.loc 3 756 5 is_stmt 1 view .LVU1347
 4849              		.loc 3 756 22 is_stmt 0 view .LVU1348
 4850 0070 D4F8C031 		ldr	r3, [r4, #448]
 4851 0074 0133     		adds	r3, r3, #1
 4852 0076 C4F8C031 		str	r3, [r4, #448]
 4853              	.L213:
 757:GrannyChordApp.cpp ****   } 
 758:GrannyChordApp.cpp ****   else pod_.led2.Set(rgb2_[0],rgb2_[1],rgb2_[2]);
 759:GrannyChordApp.cpp ****   if (recording_out_ || curr_state_ == AppState::RecordIn){
 4854              		.loc 3 759 3 is_stmt 1 view .LVU1349
 4855 007a 94F88411 		ldrb	r1, [r4, #388]	@ zero_extendqisi2
 760:GrannyChordApp.cpp ****     pod_.seed.SetLed(seed_led_state_);
 761:GrannyChordApp.cpp ****     seed_led_state_ = !seed_led_state_;
 762:GrannyChordApp.cpp ****   }
 763:GrannyChordApp.cpp ****   else pod_.seed.SetLed(0); /* turn off seed led when not recording out */
 4856              		.loc 3 763 24 is_stmt 0 view .LVU1350
 4857 007e E869     		ldr	r0, [r5, #28]
 759:GrannyChordApp.cpp ****     pod_.seed.SetLed(seed_led_state_);
 4858              		.loc 3 759 3 view .LVU1351
 4859 0080 19B9     		cbnz	r1, .L214
 759:GrannyChordApp.cpp ****     pod_.seed.SetLed(seed_led_state_);
 4860              		.loc 3 759 22 discriminator 1 view .LVU1352
 4861 0082 D5F8D431 		ldr	r3, [r5, #468]
 4862 0086 032B     		cmp	r3, #3
 4863 0088 20D1     		bne	.L215
 4864              	.L214:
 760:GrannyChordApp.cpp ****     pod_.seed.SetLed(seed_led_state_);
 4865              		.loc 3 760 5 is_stmt 1 view .LVU1353
ARM GAS  /var/folders/2p/02m_5p7958535cp2tpgps0400000gn/T//ccgOSWw9.s 			page 140


 760:GrannyChordApp.cpp ****     pod_.seed.SetLed(seed_led_state_);
 4866              		.loc 3 760 21 is_stmt 0 view .LVU1354
 4867 008a 94F8C411 		ldrb	r1, [r4, #452]	@ zero_extendqisi2
 4868 008e FFF7FEFF 		bl	_ZN5daisy9DaisySeed6SetLedEb
 4869              	.LVL348:
 761:GrannyChordApp.cpp ****   }
 4870              		.loc 3 761 5 is_stmt 1 view .LVU1355
 761:GrannyChordApp.cpp ****   }
 4871              		.loc 3 761 23 is_stmt 0 view .LVU1356
 4872 0092 94F8C431 		ldrb	r3, [r4, #452]	@ zero_extendqisi2
 4873 0096 83F00103 		eor	r3, r3, #1
 761:GrannyChordApp.cpp ****   }
 4874              		.loc 3 761 21 view .LVU1357
 4875 009a 84F8C431 		strb	r3, [r4, #452]
 4876              	.L216:
 764:GrannyChordApp.cpp ****   pod_.UpdateLeds();
 4877              		.loc 3 764 3 is_stmt 1 view .LVU1358
 4878              		.loc 3 764 18 is_stmt 0 view .LVU1359
 4879 009e E869     		ldr	r0, [r5, #28]
 765:GrannyChordApp.cpp **** }
 4880              		.loc 3 765 1 view .LVU1360
 4881 00a0 BDE83840 		pop	{r3, r4, r5, lr}
 4882              		.cfi_remember_state
 4883              		.cfi_restore 14
 4884              		.cfi_restore 5
 4885              		.cfi_restore 4
 4886              		.cfi_restore 3
 4887              		.cfi_def_cfa_offset 0
 4888              	.LVL349:
 764:GrannyChordApp.cpp ****   pod_.UpdateLeds();
 4889              		.loc 3 764 18 view .LVU1361
 4890 00a4 FFF7FEBF 		b	_ZN5daisy8DaisyPod10UpdateLedsEv
 4891              	.LVL350:
 4892              	.L206:
 4893              		.cfi_restore_state
 751:GrannyChordApp.cpp **** 
 4894              		.loc 3 751 8 is_stmt 1 view .LVU1362
 751:GrannyChordApp.cpp **** 
 4895              		.loc 3 751 21 is_stmt 0 view .LVU1363
 4896 00a8 94ED6B1A 		vldr.32	s2, [r4, #428]
 4897 00ac D4ED6A0A 		vldr.32	s1, [r4, #424]
 4898 00b0 94ED690A 		vldr.32	s0, [r4, #420]
 4899 00b4 FFF7FEFF 		bl	_ZN5daisy6RgbLed3SetEfff
 4900              	.LVL351:
 751:GrannyChordApp.cpp **** 
 4901              		.loc 3 751 21 view .LVU1364
 4902 00b8 C2E7     		b	.L209
 4903              	.L210:
 758:GrannyChordApp.cpp ****   if (recording_out_ || curr_state_ == AppState::RecordIn){
 4904              		.loc 3 758 8 is_stmt 1 view .LVU1365
 758:GrannyChordApp.cpp ****   if (recording_out_ || curr_state_ == AppState::RecordIn){
 4905              		.loc 3 758 21 is_stmt 0 view .LVU1366
 4906 00ba 94ED6E1A 		vldr.32	s2, [r4, #440]
 4907 00be D4ED6D0A 		vldr.32	s1, [r4, #436]
 4908 00c2 94ED6C0A 		vldr.32	s0, [r4, #432]
 4909 00c6 FFF7FEFF 		bl	_ZN5daisy6RgbLed3SetEfff
 4910              	.LVL352:
ARM GAS  /var/folders/2p/02m_5p7958535cp2tpgps0400000gn/T//ccgOSWw9.s 			page 141


 4911 00ca D6E7     		b	.L213
 4912              	.L215:
 763:GrannyChordApp.cpp ****   pod_.UpdateLeds();
 4913              		.loc 3 763 8 is_stmt 1 view .LVU1367
 763:GrannyChordApp.cpp ****   pod_.UpdateLeds();
 4914              		.loc 3 763 24 is_stmt 0 view .LVU1368
 4915 00cc FFF7FEFF 		bl	_ZN5daisy9DaisySeed6SetLedEb
 4916              	.LVL353:
 4917 00d0 E5E7     		b	.L216
 4918              	.L220:
 4919 00d2 00BF     		.align	2
 4920              	.L219:
 4921 00d4 00000000 		.word	0
 4922              		.cfi_endproc
 4923              	.LFE4943:
 4925              		.section	.text._ZN14GrannyChordApp17StaticLedCallbackEPv,"axG",%progbits,_ZN14GrannyChordApp17Stat
 4926              		.align	1
 4927              		.weak	_ZN14GrannyChordApp17StaticLedCallbackEPv
 4928              		.syntax unified
 4929              		.thumb
 4930              		.thumb_func
 4932              	_ZN14GrannyChordApp17StaticLedCallbackEPv:
 4933              	.LVL354:
 4934              	.LFB4901:
 4935              		.file 18 "GrannyChordApp.h"
   1:GrannyChordApp.h **** #pragma once 
   2:GrannyChordApp.h **** #include "daisy_pod.h"
   3:GrannyChordApp.h **** #include "daisysp.h"
   4:GrannyChordApp.h **** #include "GranularSynth.h"
   5:GrannyChordApp.h **** #include "AudioFileManager.h"
   6:GrannyChordApp.h **** #include "constants_utils.h"
   7:GrannyChordApp.h **** #include "debug_print.h"
   8:GrannyChordApp.h **** #include "DaisySP-LGPL-FX/reverb.h"
   9:GrannyChordApp.h **** #include "DaisySP-LGPL-FX/compressor.h"
  10:GrannyChordApp.h **** #include "DaisySP-LGPL-FX/moogladder.h"
  11:GrannyChordApp.h **** #include "AppState.h"
  12:GrannyChordApp.h **** 
  13:GrannyChordApp.h **** using namespace daisy;
  14:GrannyChordApp.h **** using namespace daisysp;
  15:GrannyChordApp.h **** 
  16:GrannyChordApp.h **** class GrannyChordApp {
  17:GrannyChordApp.h ****   public:
  18:GrannyChordApp.h ****   GrannyChordApp(DaisyPod& pod, GranularSynth& synth, AudioFileManager& filemgr, ReverbSc &reverb)
  19:GrannyChordApp.h ****         : pod_(pod), synth_(synth), 
  20:GrannyChordApp.h ****           filemgr_(filemgr), reverb_(reverb){
  21:GrannyChordApp.h ****             instance_ = this;
  22:GrannyChordApp.h ****           };
  23:GrannyChordApp.h **** 
  24:GrannyChordApp.h ****     void Init(int16_t *left, int16_t *right);
  25:GrannyChordApp.h ****     void Run();
  26:GrannyChordApp.h **** 
  27:GrannyChordApp.h ****     CpuLoadMeter loadmeter;
  28:GrannyChordApp.h **** 
  29:GrannyChordApp.h ****     static void AudioCallback(AudioHandle::InputBuffer in, AudioHandle::OutputBuffer out, size_t si
  30:GrannyChordApp.h ****     void ProcessAudio(AudioHandle::InputBuffer in, AudioHandle::OutputBuffer out, size_t size);
  31:GrannyChordApp.h ****     static GrannyChordApp* instance_;
  32:GrannyChordApp.h **** 
ARM GAS  /var/folders/2p/02m_5p7958535cp2tpgps0400000gn/T//ccgOSWw9.s 			page 142


  33:GrannyChordApp.h ****   private:
  34:GrannyChordApp.h ****     DaisyPod &pod_;
  35:GrannyChordApp.h ****     GranularSynth synth_;
  36:GrannyChordApp.h ****     AudioFileManager &filemgr_;
  37:GrannyChordApp.h ****     FIL *file_;
  38:GrannyChordApp.h **** 
  39:GrannyChordApp.h ****     /* UI and state objects */
  40:GrannyChordApp.h ****     AppState curr_state_;
  41:GrannyChordApp.h ****     AppState next_state_;
  42:GrannyChordApp.h ****     SynthMode curr_synth_mode_;
  43:GrannyChordApp.h ****     SynthMode prev_synth_mode_;
  44:GrannyChordApp.h ****     bool mode_changed_;
  45:GrannyChordApp.h **** 
  46:GrannyChordApp.h ****     /* audio FX and filters */
  47:GrannyChordApp.h ****     Compressor comp_;
  48:GrannyChordApp.h ****     Limiter limiter_;
  49:GrannyChordApp.h ****     ReverbSc& reverb_;
  50:GrannyChordApp.h ****     Chorus chorus_;
  51:GrannyChordApp.h ****     MoogLadder lowpass_moog_;
  52:GrannyChordApp.h ****     OnePole hipass_;
  53:GrannyChordApp.h ****     /* filter to reduce high end noise */
  54:GrannyChordApp.h ****     OnePole hicut_;
  55:GrannyChordApp.h **** 
  56:GrannyChordApp.h ****     /* audio data channel buffers */
  57:GrannyChordApp.h ****     int16_t *left_buf_;
  58:GrannyChordApp.h ****     int16_t *right_buf_;
  59:GrannyChordApp.h **** 
  60:GrannyChordApp.h ****     int file_idx_ = 0;
  61:GrannyChordApp.h ****     size_t wav_playhead_ = 0;
  62:GrannyChordApp.h ****     uint32_t audio_len_ = 0;
  63:GrannyChordApp.h ****     char fname_[MAX_FNAME_LEN];
  64:GrannyChordApp.h **** 
  65:GrannyChordApp.h ****     /* previous values for parameters controlled by knob 1*/
  66:GrannyChordApp.h ****     float prev_param_k1[NUM_SYNTH_MODES] = {0};
  67:GrannyChordApp.h ****     float prev_param_k2[NUM_SYNTH_MODES] = {0};
  68:GrannyChordApp.h **** 
  69:GrannyChordApp.h ****     /* stored previous knob values for passthru mode */
  70:GrannyChordApp.h ****     float stored_k1[NUM_SYNTH_MODES] = {0.5f};
  71:GrannyChordApp.h ****     float stored_k2[NUM_SYNTH_MODES] = {0.5f};
  72:GrannyChordApp.h ****     bool pass_thru_k1 = false;
  73:GrannyChordApp.h ****     bool pass_thru_k2 = false;
  74:GrannyChordApp.h **** 
  75:GrannyChordApp.h ****     /* objects/variables for recording in and out */
  76:GrannyChordApp.h ****     WavWriter<16384> sd_writer_;
  77:GrannyChordApp.h ****     bool recorded_in_ = false;
  78:GrannyChordApp.h ****     size_t record_in_pos_ = 0;
  79:GrannyChordApp.h ****     bool recording_out_ = false;
  80:GrannyChordApp.h ****     size_t recording_count_ = 0;
  81:GrannyChordApp.h ****     size_t loop_count=0;
  82:GrannyChordApp.h ****     float temp_interleaved_buf_[2];
  83:GrannyChordApp.h **** 
  84:GrannyChordApp.h ****     /* hardware input handler variables */
  85:GrannyChordApp.h ****     size_t last_action_time_ = 0;
  86:GrannyChordApp.h ****     /* these bools track whether the button has just been long pressed
  87:GrannyChordApp.h ****       vs whether it's already known to be pressed down */
  88:GrannyChordApp.h ****     bool btn1_long_press_fired_ = false;
  89:GrannyChordApp.h ****     bool btn2_long_press_fired_ = false;
ARM GAS  /var/folders/2p/02m_5p7958535cp2tpgps0400000gn/T//ccgOSWw9.s 			page 143


  90:GrannyChordApp.h ****     bool both_btns_long_press_fired_ = false;
  91:GrannyChordApp.h **** 
  92:GrannyChordApp.h ****     /* timer object and led callback variables */
  93:GrannyChordApp.h ****     TimerHandle timer_;
  94:GrannyChordApp.h ****     float rgb1_[3] = {0};
  95:GrannyChordApp.h ****     float rgb2_[3] = {0};
  96:GrannyChordApp.h ****     int led1_flash_count_=0;
  97:GrannyChordApp.h ****     int led2_flash_count_=0;
  98:GrannyChordApp.h ****     bool seed_led_state_=false;
  99:GrannyChordApp.h **** 
 100:GrannyChordApp.h ****     /* methods to init / prepare for state change */
 101:GrannyChordApp.h ****     bool InitFileMgr();
 102:GrannyChordApp.h ****     void InitPlayback();
 103:GrannyChordApp.h ****     void InitSynth();
 104:GrannyChordApp.h ****     void InitFX();
 105:GrannyChordApp.h ****     void InitRecordIn();
 106:GrannyChordApp.h ****     void InitWavWriter();
 107:GrannyChordApp.h ****     void InitPrevParamVals();
 108:GrannyChordApp.h ****     void ResetPassThru();
 109:GrannyChordApp.h **** 
 110:GrannyChordApp.h ****     /* state change handlers */
 111:GrannyChordApp.h ****     void UpdateUI();
 112:GrannyChordApp.h ****     void UpdateSynthModeA();
 113:GrannyChordApp.h ****     void UpdateSynthModeB();
 114:GrannyChordApp.h ****     void HandleStateChange();
 115:GrannyChordApp.h ****     void HandleFileSelection(int32_t encoder_inc);
 116:GrannyChordApp.h **** 
 117:GrannyChordApp.h ****     /* audio input/output/recording methods based on state */
 118:GrannyChordApp.h ****     void ProcessWAVPlayback(AudioHandle::OutputBuffer out, size_t size);
 119:GrannyChordApp.h ****     void ProcessRecordIn(AudioHandle::InputBuffer in, AudioHandle::OutputBuffer out, size_t size);
 120:GrannyChordApp.h ****     void ProcessSynthesis(AudioHandle::OutputBuffer out, size_t size);
 121:GrannyChordApp.h ****     Sample ProcessFX(Sample in);
 122:GrannyChordApp.h ****     void ProcessChordMode(AudioHandle::OutputBuffer out, size_t size);
 123:GrannyChordApp.h ****     void RecordOutToSD();
 124:GrannyChordApp.h ****     void FinishRecording();
 125:GrannyChordApp.h **** 
 126:GrannyChordApp.h ****     /* hardware input handler methods */
 127:GrannyChordApp.h ****     void ButtonHandler();
 128:GrannyChordApp.h ****     void HandleEncoderIncrement(int encoder_inc);
 129:GrannyChordApp.h ****     void HandleEncoderPressed();
 130:GrannyChordApp.h ****     void HandleEncoderLongPress();
 131:GrannyChordApp.h ****     void HandleButton1();
 132:GrannyChordApp.h ****     void HandleButton2();
 133:GrannyChordApp.h ****     void HandleButton1LongPress();
 134:GrannyChordApp.h ****     void HandleButton2LongPress();
 135:GrannyChordApp.h **** 
 136:GrannyChordApp.h ****     /* methods to update/init synth parameters */
 137:GrannyChordApp.h ****     void UpdateSynthParams();
 138:GrannyChordApp.h ****     void UpdateKnob1Params(float knob1_val, SynthMode mode);
 139:GrannyChordApp.h ****     void UpdateKnob2Params(float knob2_val, SynthMode mode);
 140:GrannyChordApp.h ****     // void UpdateChordParams();
 141:GrannyChordApp.h ****     inline float MapKnobDeadzone(float knob_val);
 142:GrannyChordApp.h ****     inline bool UpdateKnobPassThru(float curr_knob_val, int mode_idx);
 143:GrannyChordApp.h **** 
 144:GrannyChordApp.h ****     /* timer and led methods */
 145:GrannyChordApp.h ****     void SetupTimer();
 146:GrannyChordApp.h ****     /* has to be static - timer won't take class member function in callback */
ARM GAS  /var/folders/2p/02m_5p7958535cp2tpgps0400000gn/T//ccgOSWw9.s 			page 144


 147:GrannyChordApp.h ****     static void StaticLedCallback(void* data){
 4936              		.loc 18 147 17 is_stmt 1 view -0
 4937              		.cfi_startproc
 4938              		@ args = 0, pretend = 0, frame = 0
 4939              		@ frame_needed = 0, uses_anonymous_args = 0
 4940              		@ link register save eliminated.
 148:GrannyChordApp.h ****       instance_ -> LedCallback(data);
 4941              		.loc 18 148 7 view .LVU1370
 4942              		.loc 18 148 31 is_stmt 0 view .LVU1371
 4943 0000 024B     		ldr	r3, .L222
 147:GrannyChordApp.h ****       instance_ -> LedCallback(data);
 4944              		.loc 18 147 17 view .LVU1372
 4945 0002 0146     		mov	r1, r0
 4946              		.loc 18 148 31 view .LVU1373
 4947 0004 1868     		ldr	r0, [r3]
 4948              	.LVL355:
 4949              		.loc 18 148 31 view .LVU1374
 4950 0006 FFF7FEBF 		b	_ZN14GrannyChordApp11LedCallbackEPv
 4951              	.LVL356:
 4952              	.L223:
 4953              		.loc 18 148 31 view .LVU1375
 4954 000a 00BF     		.align	2
 4955              	.L222:
 4956 000c 00000000 		.word	.LANCHOR0
 4957              		.cfi_endproc
 4958              	.LFE4901:
 4960              		.section	.text._ZN14GrannyChordApp7SetRgb1Efff,"ax",%progbits
 4961              		.align	1
 4962              		.global	_ZN14GrannyChordApp7SetRgb1Efff
 4963              		.syntax unified
 4964              		.thumb
 4965              		.thumb_func
 4967              	_ZN14GrannyChordApp7SetRgb1Efff:
 4968              	.LVL357:
 4969              	.LFB4944:
 766:GrannyChordApp.cpp **** 
 767:GrannyChordApp.cpp **** /// @brief helper function to set led1 colours
 768:GrannyChordApp.cpp **** void GrannyChordApp::SetRgb1(float r, float g, float b){  
 4970              		.loc 3 768 56 is_stmt 1 view -0
 4971              		.cfi_startproc
 4972              		@ args = 0, pretend = 0, frame = 0
 4973              		@ frame_needed = 0, uses_anonymous_args = 0
 4974              		@ link register save eliminated.
 769:GrannyChordApp.cpp ****   rgb1_[0]= r;
 4975              		.loc 3 769 3 view .LVU1377
 4976              		.loc 3 769 11 is_stmt 0 view .LVU1378
 4977 0000 00F55040 		add	r0, r0, #53248
 4978              	.LVL358:
 4979              		.loc 3 769 11 view .LVU1379
 4980 0004 80ED690A 		vstr.32	s0, [r0, #420]
 770:GrannyChordApp.cpp ****   rgb1_[1]= g;
 4981              		.loc 3 770 3 is_stmt 1 view .LVU1380
 4982              		.loc 3 770 11 is_stmt 0 view .LVU1381
 4983 0008 C0ED6A0A 		vstr.32	s1, [r0, #424]
 771:GrannyChordApp.cpp ****   rgb1_[2]= b;
 4984              		.loc 3 771 3 is_stmt 1 view .LVU1382
 4985              		.loc 3 771 11 is_stmt 0 view .LVU1383
ARM GAS  /var/folders/2p/02m_5p7958535cp2tpgps0400000gn/T//ccgOSWw9.s 			page 145


 4986 000c 80ED6B1A 		vstr.32	s2, [r0, #428]
 772:GrannyChordApp.cpp **** }
 4987              		.loc 3 772 1 view .LVU1384
 4988 0010 7047     		bx	lr
 4989              		.cfi_endproc
 4990              	.LFE4944:
 4992              		.section	.text._ZN14GrannyChordApp7SetRgb2Efff,"ax",%progbits
 4993              		.align	1
 4994              		.global	_ZN14GrannyChordApp7SetRgb2Efff
 4995              		.syntax unified
 4996              		.thumb
 4997              		.thumb_func
 4999              	_ZN14GrannyChordApp7SetRgb2Efff:
 5000              	.LVL359:
 5001              	.LFB4945:
 773:GrannyChordApp.cpp **** 
 774:GrannyChordApp.cpp **** /// @brief helper function to set led2 colours
 775:GrannyChordApp.cpp **** void GrannyChordApp::SetRgb2(float r, float g, float b){
 5002              		.loc 3 775 56 is_stmt 1 view -0
 5003              		.cfi_startproc
 5004              		@ args = 0, pretend = 0, frame = 0
 5005              		@ frame_needed = 0, uses_anonymous_args = 0
 5006              		@ link register save eliminated.
 776:GrannyChordApp.cpp ****   rgb2_[0]= r;
 5007              		.loc 3 776 3 view .LVU1386
 5008              		.loc 3 776 11 is_stmt 0 view .LVU1387
 5009 0000 00F55040 		add	r0, r0, #53248
 5010              	.LVL360:
 5011              		.loc 3 776 11 view .LVU1388
 5012 0004 80ED6C0A 		vstr.32	s0, [r0, #432]
 777:GrannyChordApp.cpp ****   rgb2_[1]= g;
 5013              		.loc 3 777 3 is_stmt 1 view .LVU1389
 5014              		.loc 3 777 11 is_stmt 0 view .LVU1390
 5015 0008 C0ED6D0A 		vstr.32	s1, [r0, #436]
 778:GrannyChordApp.cpp ****   rgb2_[2]= b;
 5016              		.loc 3 778 3 is_stmt 1 view .LVU1391
 5017              		.loc 3 778 11 is_stmt 0 view .LVU1392
 5018 000c 80ED6E1A 		vstr.32	s2, [r0, #440]
 779:GrannyChordApp.cpp **** }
 5019              		.loc 3 779 1 view .LVU1393
 5020 0010 7047     		bx	lr
 5021              		.cfi_endproc
 5022              	.LFE4945:
 5024              		.section	.text._ZN14GrannyChordApp15SetLed1AppStateEv,"ax",%progbits
 5025              		.align	1
 5026              		.global	_ZN14GrannyChordApp15SetLed1AppStateEv
 5027              		.syntax unified
 5028              		.thumb
 5029              		.thumb_func
 5031              	_ZN14GrannyChordApp15SetLed1AppStateEv:
 5032              	.LVL361:
 5033              	.LFB4946:
 780:GrannyChordApp.cpp **** 
 781:GrannyChordApp.cpp **** /// @brief sets led colours based on app state
 782:GrannyChordApp.cpp **** void GrannyChordApp::SetLed1AppState(){
 5034              		.loc 3 782 39 is_stmt 1 view -0
 5035              		.cfi_startproc
ARM GAS  /var/folders/2p/02m_5p7958535cp2tpgps0400000gn/T//ccgOSWw9.s 			page 146


 5036              		@ args = 0, pretend = 0, frame = 0
 5037              		@ frame_needed = 0, uses_anonymous_args = 0
 783:GrannyChordApp.cpp ****   switch(curr_state_){
 5038              		.loc 3 783 3 view .LVU1395
 5039 0000 D0F8D431 		ldr	r3, [r0, #468]
 782:GrannyChordApp.cpp ****   switch(curr_state_){
 5040              		.loc 3 782 39 is_stmt 0 view .LVU1396
 5041 0004 10B5     		push	{r4, lr}
 5042              		.cfi_def_cfa_offset 8
 5043              		.cfi_offset 4, -8
 5044              		.cfi_offset 14, -4
 782:GrannyChordApp.cpp ****   switch(curr_state_){
 5045              		.loc 3 782 39 view .LVU1397
 5046 0006 0446     		mov	r4, r0
 5047              		.loc 3 783 3 view .LVU1398
 5048 0008 052B     		cmp	r3, #5
 5049 000a 0ED8     		bhi	.L227
 5050 000c DFE803F0 		tbb	[pc, r3]
 5051              	.L229:
 5052 0010 03       		.byte	(.L233-.L229)/2
 5053 0011 1B       		.byte	(.L232-.L229)/2
 5054 0012 24       		.byte	(.L231-.L229)/2
 5055 0013 2D       		.byte	(.L230-.L229)/2
 5056 0014 36       		.byte	(.L228-.L229)/2
 5057 0015 36       		.byte	(.L228-.L229)/2
 5058              		.p2align 1
 5059              	.L233:
 784:GrannyChordApp.cpp ****     case AppState::SelectFile:
 5060              		.loc 3 784 5 is_stmt 1 view .LVU1399
 785:GrannyChordApp.cpp ****       SetRgb1(0, 0, 0.7f); /* blue ? */
 5061              		.loc 3 785 7 view .LVU1400
 5062              	.LVL362:
 5063              	.LBB837:
 5064              	.LBI837:
 768:GrannyChordApp.cpp ****   rgb1_[0]= r;
 5065              		.loc 3 768 6 view .LVU1401
 5066              	.LBB838:
 769:GrannyChordApp.cpp ****   rgb1_[1]= g;
 5067              		.loc 3 769 3 view .LVU1402
 769:GrannyChordApp.cpp ****   rgb1_[1]= g;
 5068              		.loc 3 769 11 is_stmt 0 view .LVU1403
 5069 0016 0022     		movs	r2, #0
 5070 0018 00F55043 		add	r3, r0, #53248
 5071 001c C3F8A421 		str	r2, [r3, #420]	@ float
 770:GrannyChordApp.cpp ****   rgb1_[2]= b;
 5072              		.loc 3 770 3 is_stmt 1 view .LVU1404
 770:GrannyChordApp.cpp ****   rgb1_[2]= b;
 5073              		.loc 3 770 11 is_stmt 0 view .LVU1405
 5074 0020 C3F8A821 		str	r2, [r3, #424]	@ float
 771:GrannyChordApp.cpp **** }
 5075              		.loc 3 771 3 is_stmt 1 view .LVU1406
 771:GrannyChordApp.cpp **** }
 5076              		.loc 3 771 11 is_stmt 0 view .LVU1407
 5077 0024 1E4A     		ldr	r2, .L239
 5078              	.LVL363:
 5079              	.L238:
 771:GrannyChordApp.cpp **** }
ARM GAS  /var/folders/2p/02m_5p7958535cp2tpgps0400000gn/T//ccgOSWw9.s 			page 147


 5080              		.loc 3 771 11 view .LVU1408
 5081              	.LBE838:
 5082              	.LBE837:
 5083              	.LBB839:
 5084              	.LBB840:
 771:GrannyChordApp.cpp **** }
 5085              		.loc 3 771 3 is_stmt 1 view .LVU1409
 771:GrannyChordApp.cpp **** }
 5086              		.loc 3 771 11 is_stmt 0 view .LVU1410
 5087 0026 C3F8AC21 		str	r2, [r3, #428]	@ float
 5088              	.LVL364:
 5089              	.L227:
 771:GrannyChordApp.cpp **** }
 5090              		.loc 3 771 11 view .LVU1411
 5091              	.LBE840:
 5092              	.LBE839:
 786:GrannyChordApp.cpp ****       break;
 787:GrannyChordApp.cpp ****     case AppState::PlayWAV:
 788:GrannyChordApp.cpp ****       SetRgb1(0, 0.7f, 0.7f); /* cyan */
 789:GrannyChordApp.cpp ****       break;
 790:GrannyChordApp.cpp ****     case AppState::Synthesis:
 791:GrannyChordApp.cpp ****       SetRgb1(0, 0.7f, 0); /* green */
 792:GrannyChordApp.cpp ****       break;
 793:GrannyChordApp.cpp ****     case AppState::RecordIn:
 794:GrannyChordApp.cpp ****       SetRgb1(0.7f,0.7f,0);  /* yellow? */
 795:GrannyChordApp.cpp ****       break;
 796:GrannyChordApp.cpp ****     case AppState::ChordMode:
 797:GrannyChordApp.cpp ****       SetRgb1(0.7f,0,1); /* violet/purple */
 798:GrannyChordApp.cpp ****       // break;
 799:GrannyChordApp.cpp ****     case AppState::Error:
 800:GrannyChordApp.cpp ****       SetRgb1(1, 0, 0); /* red */
 801:GrannyChordApp.cpp ****       pod_.led2.SetRed(1);
 802:GrannyChordApp.cpp ****       break;
 803:GrannyChordApp.cpp ****     default:
 804:GrannyChordApp.cpp ****       break;
 805:GrannyChordApp.cpp ****   }
 806:GrannyChordApp.cpp ****   if (curr_state_ != AppState::Synthesis) SetRgb2(0,0,0); /* turn off led2 */
 5093              		.loc 3 806 3 is_stmt 1 view .LVU1412
 5094 002a D4F8D431 		ldr	r3, [r4, #468]
 5095 002e 022B     		cmp	r3, #2
 5096 0030 08D0     		beq	.L226
 5097              		.loc 3 806 43 view .LVU1413
 5098              	.LVL365:
 5099              	.LBB842:
 5100              	.LBI842:
 775:GrannyChordApp.cpp ****   rgb2_[0]= r;
 5101              		.loc 3 775 6 view .LVU1414
 5102              	.LBB843:
 776:GrannyChordApp.cpp ****   rgb2_[1]= g;
 5103              		.loc 3 776 3 view .LVU1415
 776:GrannyChordApp.cpp ****   rgb2_[1]= g;
 5104              		.loc 3 776 11 is_stmt 0 view .LVU1416
 5105 0032 04F55044 		add	r4, r4, #53248
 5106              	.LVL366:
 776:GrannyChordApp.cpp ****   rgb2_[1]= g;
 5107              		.loc 3 776 11 view .LVU1417
 5108 0036 0023     		movs	r3, #0
ARM GAS  /var/folders/2p/02m_5p7958535cp2tpgps0400000gn/T//ccgOSWw9.s 			page 148


 5109 0038 C4F8B031 		str	r3, [r4, #432]	@ float
 777:GrannyChordApp.cpp ****   rgb2_[2]= b;
 5110              		.loc 3 777 3 is_stmt 1 view .LVU1418
 777:GrannyChordApp.cpp ****   rgb2_[2]= b;
 5111              		.loc 3 777 11 is_stmt 0 view .LVU1419
 5112 003c C4F8B431 		str	r3, [r4, #436]	@ float
 778:GrannyChordApp.cpp **** }
 5113              		.loc 3 778 3 is_stmt 1 view .LVU1420
 778:GrannyChordApp.cpp **** }
 5114              		.loc 3 778 11 is_stmt 0 view .LVU1421
 5115 0040 C4F8B831 		str	r3, [r4, #440]	@ float
 5116              	.LVL367:
 5117              	.L226:
 778:GrannyChordApp.cpp **** }
 5118              		.loc 3 778 11 view .LVU1422
 5119              	.LBE843:
 5120              	.LBE842:
 807:GrannyChordApp.cpp **** }
 5121              		.loc 3 807 1 view .LVU1423
 5122 0044 10BD     		pop	{r4, pc}
 5123              	.LVL368:
 5124              	.L232:
 787:GrannyChordApp.cpp ****       SetRgb1(0, 0.7f, 0.7f); /* cyan */
 5125              		.loc 3 787 5 is_stmt 1 view .LVU1424
 788:GrannyChordApp.cpp ****       break;
 5126              		.loc 3 788 7 view .LVU1425
 5127              	.LBB844:
 5128              	.LBI839:
 768:GrannyChordApp.cpp ****   rgb1_[0]= r;
 5129              		.loc 3 768 6 view .LVU1426
 5130              	.LBB841:
 769:GrannyChordApp.cpp ****   rgb1_[1]= g;
 5131              		.loc 3 769 3 view .LVU1427
 769:GrannyChordApp.cpp ****   rgb1_[1]= g;
 5132              		.loc 3 769 11 is_stmt 0 view .LVU1428
 5133 0046 00F55043 		add	r3, r0, #53248
 5134 004a 0022     		movs	r2, #0
 5135 004c C3F8A421 		str	r2, [r3, #420]	@ float
 770:GrannyChordApp.cpp ****   rgb1_[2]= b;
 5136              		.loc 3 770 3 is_stmt 1 view .LVU1429
 770:GrannyChordApp.cpp ****   rgb1_[2]= b;
 5137              		.loc 3 770 11 is_stmt 0 view .LVU1430
 5138 0050 134A     		ldr	r2, .L239
 5139 0052 C3F8A821 		str	r2, [r3, #424]	@ float
 5140 0056 E6E7     		b	.L238
 5141              	.LVL369:
 5142              	.L231:
 770:GrannyChordApp.cpp ****   rgb1_[2]= b;
 5143              		.loc 3 770 11 view .LVU1431
 5144              	.LBE841:
 5145              	.LBE844:
 790:GrannyChordApp.cpp ****       SetRgb1(0, 0.7f, 0); /* green */
 5146              		.loc 3 790 5 is_stmt 1 view .LVU1432
 791:GrannyChordApp.cpp ****       break;
 5147              		.loc 3 791 7 view .LVU1433
 5148              	.LBB845:
 5149              	.LBI845:
ARM GAS  /var/folders/2p/02m_5p7958535cp2tpgps0400000gn/T//ccgOSWw9.s 			page 149


 768:GrannyChordApp.cpp ****   rgb1_[0]= r;
 5150              		.loc 3 768 6 view .LVU1434
 5151              	.LBB846:
 769:GrannyChordApp.cpp ****   rgb1_[1]= g;
 5152              		.loc 3 769 3 view .LVU1435
 769:GrannyChordApp.cpp ****   rgb1_[1]= g;
 5153              		.loc 3 769 11 is_stmt 0 view .LVU1436
 5154 0058 00F55043 		add	r3, r0, #53248
 5155 005c 0022     		movs	r2, #0
 770:GrannyChordApp.cpp ****   rgb1_[2]= b;
 5156              		.loc 3 770 11 view .LVU1437
 5157 005e 1049     		ldr	r1, .L239
 769:GrannyChordApp.cpp ****   rgb1_[1]= g;
 5158              		.loc 3 769 11 view .LVU1438
 5159 0060 C3F8A421 		str	r2, [r3, #420]	@ float
 770:GrannyChordApp.cpp ****   rgb1_[2]= b;
 5160              		.loc 3 770 3 is_stmt 1 view .LVU1439
 770:GrannyChordApp.cpp ****   rgb1_[2]= b;
 5161              		.loc 3 770 11 is_stmt 0 view .LVU1440
 5162 0064 C3F8A811 		str	r1, [r3, #424]	@ float
 771:GrannyChordApp.cpp **** }
 5163              		.loc 3 771 3 is_stmt 1 view .LVU1441
 5164 0068 DDE7     		b	.L238
 5165              	.LVL370:
 5166              	.L230:
 771:GrannyChordApp.cpp **** }
 5167              		.loc 3 771 3 is_stmt 0 view .LVU1442
 5168              	.LBE846:
 5169              	.LBE845:
 793:GrannyChordApp.cpp ****       SetRgb1(0.7f,0.7f,0);  /* yellow? */
 5170              		.loc 3 793 5 is_stmt 1 view .LVU1443
 794:GrannyChordApp.cpp ****       break;
 5171              		.loc 3 794 7 view .LVU1444
 5172              	.LBB847:
 5173              	.LBI847:
 768:GrannyChordApp.cpp ****   rgb1_[0]= r;
 5174              		.loc 3 768 6 view .LVU1445
 5175              	.LBB848:
 769:GrannyChordApp.cpp ****   rgb1_[1]= g;
 5176              		.loc 3 769 3 view .LVU1446
 769:GrannyChordApp.cpp ****   rgb1_[1]= g;
 5177              		.loc 3 769 11 is_stmt 0 view .LVU1447
 5178 006a 0D4A     		ldr	r2, .L239
 5179 006c 00F55043 		add	r3, r0, #53248
 5180 0070 C3F8A421 		str	r2, [r3, #420]	@ float
 770:GrannyChordApp.cpp ****   rgb1_[2]= b;
 5181              		.loc 3 770 3 is_stmt 1 view .LVU1448
 770:GrannyChordApp.cpp ****   rgb1_[2]= b;
 5182              		.loc 3 770 11 is_stmt 0 view .LVU1449
 5183 0074 C3F8A821 		str	r2, [r3, #424]	@ float
 771:GrannyChordApp.cpp **** }
 5184              		.loc 3 771 3 is_stmt 1 view .LVU1450
 771:GrannyChordApp.cpp **** }
 5185              		.loc 3 771 11 is_stmt 0 view .LVU1451
 5186 0078 0022     		movs	r2, #0
 5187 007a D4E7     		b	.L238
 5188              	.LVL371:
ARM GAS  /var/folders/2p/02m_5p7958535cp2tpgps0400000gn/T//ccgOSWw9.s 			page 150


 5189              	.L228:
 771:GrannyChordApp.cpp **** }
 5190              		.loc 3 771 11 view .LVU1452
 5191              	.LBE848:
 5192              	.LBE847:
 799:GrannyChordApp.cpp ****       SetRgb1(1, 0, 0); /* red */
 5193              		.loc 3 799 5 is_stmt 1 view .LVU1453
 800:GrannyChordApp.cpp ****       pod_.led2.SetRed(1);
 5194              		.loc 3 800 7 view .LVU1454
 5195              	.LBB849:
 5196              	.LBI849:
 768:GrannyChordApp.cpp ****   rgb1_[0]= r;
 5197              		.loc 3 768 6 view .LVU1455
 5198              	.LBB850:
 769:GrannyChordApp.cpp ****   rgb1_[1]= g;
 5199              		.loc 3 769 3 view .LVU1456
 769:GrannyChordApp.cpp ****   rgb1_[1]= g;
 5200              		.loc 3 769 11 is_stmt 0 view .LVU1457
 5201 007c B7EE000A 		vmov.f32	s0, #1.0e+0
 5202 0080 00F55043 		add	r3, r0, #53248
 770:GrannyChordApp.cpp ****   rgb1_[2]= b;
 5203              		.loc 3 770 11 view .LVU1458
 5204 0084 0022     		movs	r2, #0
 5205              	.LBE850:
 5206              	.LBE849:
 801:GrannyChordApp.cpp ****       break;
 5207              		.loc 3 801 23 view .LVU1459
 5208 0086 C069     		ldr	r0, [r0, #28]
 5209              	.LVL372:
 5210              	.LBB853:
 5211              	.LBB851:
 769:GrannyChordApp.cpp ****   rgb1_[1]= g;
 5212              		.loc 3 769 11 view .LVU1460
 5213 0088 83ED690A 		vstr.32	s0, [r3, #420]
 770:GrannyChordApp.cpp ****   rgb1_[2]= b;
 5214              		.loc 3 770 3 is_stmt 1 view .LVU1461
 5215              	.LBE851:
 5216              	.LBE853:
 801:GrannyChordApp.cpp ****       break;
 5217              		.loc 3 801 23 is_stmt 0 view .LVU1462
 5218 008c 00F59670 		add	r0, r0, #300
 5219              	.LBB854:
 5220              	.LBB852:
 770:GrannyChordApp.cpp ****   rgb1_[2]= b;
 5221              		.loc 3 770 11 view .LVU1463
 5222 0090 C3F8A821 		str	r2, [r3, #424]	@ float
 771:GrannyChordApp.cpp **** }
 5223              		.loc 3 771 3 is_stmt 1 view .LVU1464
 771:GrannyChordApp.cpp **** }
 5224              		.loc 3 771 11 is_stmt 0 view .LVU1465
 5225 0094 C3F8AC21 		str	r2, [r3, #428]	@ float
 5226              	.LVL373:
 771:GrannyChordApp.cpp **** }
 5227              		.loc 3 771 11 view .LVU1466
 5228              	.LBE852:
 5229              	.LBE854:
 801:GrannyChordApp.cpp ****       break;
ARM GAS  /var/folders/2p/02m_5p7958535cp2tpgps0400000gn/T//ccgOSWw9.s 			page 151


 5230              		.loc 3 801 7 is_stmt 1 view .LVU1467
 801:GrannyChordApp.cpp ****       break;
 5231              		.loc 3 801 23 is_stmt 0 view .LVU1468
 5232 0098 FFF7FEFF 		bl	_ZN5daisy6RgbLed6SetRedEf
 5233              	.LVL374:
 802:GrannyChordApp.cpp ****     default:
 5234              		.loc 3 802 7 is_stmt 1 view .LVU1469
 5235 009c C5E7     		b	.L227
 5236              	.L240:
 5237 009e 00BF     		.align	2
 5238              	.L239:
 5239 00a0 3333333F 		.word	1060320051
 5240              		.cfi_endproc
 5241              	.LFE4946:
 5243              		.section	.rodata._ZN14GrannyChordApp17HandleStateChangeEv.str1.1,"aMS",%progbits,1
 5244              	.LC24:
 5245 0000 5265636F 		.ascii	"Recording in\000"
 5245      7264696E 
 5245      6720696E 
 5245      00
 5246              	.LC25:
 5247 000d 73746172 		.ascii	"started audiocallback\000"
 5247      74656420 
 5247      61756469 
 5247      6F63616C 
 5247      6C626163 
 5248              		.section	.text._ZN14GrannyChordApp17HandleStateChangeEv,"ax",%progbits
 5249              		.align	1
 5250              		.global	_ZN14GrannyChordApp17HandleStateChangeEv
 5251              		.syntax unified
 5252              		.thumb
 5253              		.thumb_func
 5255              	_ZN14GrannyChordApp17HandleStateChangeEv:
 5256              	.LVL375:
 5257              	.LFB4907:
 102:GrannyChordApp.cpp ****   switch(next_state_){
 5258              		.loc 3 102 41 view -0
 5259              		.cfi_startproc
 5260              		@ args = 0, pretend = 0, frame = 0
 5261              		@ frame_needed = 0, uses_anonymous_args = 0
 103:GrannyChordApp.cpp ****     case AppState::SelectFile:
 5262              		.loc 3 103 3 view .LVU1471
 5263 0000 D0F8D831 		ldr	r3, [r0, #472]
 102:GrannyChordApp.cpp ****   switch(next_state_){
 5264              		.loc 3 102 41 is_stmt 0 view .LVU1472
 5265 0004 10B5     		push	{r4, lr}
 5266              		.cfi_def_cfa_offset 8
 5267              		.cfi_offset 4, -8
 5268              		.cfi_offset 14, -4
 102:GrannyChordApp.cpp ****   switch(next_state_){
 5269              		.loc 3 102 41 view .LVU1473
 5270 0006 0446     		mov	r4, r0
 103:GrannyChordApp.cpp ****     case AppState::SelectFile:
 5271              		.loc 3 103 3 view .LVU1474
 5272 0008 052B     		cmp	r3, #5
 5273 000a 1ED8     		bhi	.L242
 5274 000c DFE803F0 		tbb	[pc, r3]
ARM GAS  /var/folders/2p/02m_5p7958535cp2tpgps0400000gn/T//ccgOSWw9.s 			page 152


 5275              	.L244:
 5276 0010 03       		.byte	(.L248-.L244)/2
 5277 0011 11       		.byte	(.L247-.L244)/2
 5278 0012 15       		.byte	(.L246-.L244)/2
 5279 0013 0A       		.byte	(.L245-.L244)/2
 5280 0014 1D       		.byte	(.L242-.L244)/2
 5281 0015 22       		.byte	(.L243-.L244)/2
 5282              		.p2align 1
 5283              	.L248:
 104:GrannyChordApp.cpp ****       pod_.StopAudio();
 5284              		.loc 3 104 5 is_stmt 1 view .LVU1475
 105:GrannyChordApp.cpp ****       curr_state_ = AppState::SelectFile;
 5285              		.loc 3 105 7 view .LVU1476
 105:GrannyChordApp.cpp ****       curr_state_ = AppState::SelectFile;
 5286              		.loc 3 105 21 is_stmt 0 view .LVU1477
 5287 0016 C069     		ldr	r0, [r0, #28]
 5288              	.LVL376:
 105:GrannyChordApp.cpp ****       curr_state_ = AppState::SelectFile;
 5289              		.loc 3 105 21 view .LVU1478
 5290 0018 FFF7FEFF 		bl	_ZN5daisy8DaisyPod9StopAudioEv
 5291              	.LVL377:
 106:GrannyChordApp.cpp ****       break; 
 5292              		.loc 3 106 7 is_stmt 1 view .LVU1479
 106:GrannyChordApp.cpp ****       break; 
 5293              		.loc 3 106 19 is_stmt 0 view .LVU1480
 5294 001c 0023     		movs	r3, #0
 5295              	.L249:
 123:GrannyChordApp.cpp ****       break;
 5296              		.loc 3 123 19 view .LVU1481
 5297 001e C4F8D431 		str	r3, [r4, #468]
 124:GrannyChordApp.cpp ****     default: 
 5298              		.loc 3 124 7 is_stmt 1 view .LVU1482
 5299 0022 12E0     		b	.L242
 5300              	.LVL378:
 5301              	.L245:
 108:GrannyChordApp.cpp ****       InitRecordIn();
 5302              		.loc 3 108 5 view .LVU1483
 109:GrannyChordApp.cpp ****       DebugPrint(pod_, "Recording in");
 5303              		.loc 3 109 7 view .LVU1484
 109:GrannyChordApp.cpp ****       DebugPrint(pod_, "Recording in");
 5304              		.loc 3 109 19 is_stmt 0 view .LVU1485
 5305 0024 FFF7FEFF 		bl	_ZN14GrannyChordApp12InitRecordInEv
 5306              	.LVL379:
 110:GrannyChordApp.cpp ****       curr_state_ = AppState::RecordIn;  
 5307              		.loc 3 110 7 is_stmt 1 view .LVU1486
 110:GrannyChordApp.cpp ****       curr_state_ = AppState::RecordIn;  
 5308              		.loc 3 110 7 view .LVU1487
 5309              	.LBB855:
 5310              	.LBI855:
 126:../libDaisy/src/daisy_seed.h ****     {
 5311              		.loc 5 126 17 view .LVU1488
 5312              	.LBB856:
 5313              		.loc 5 128 23 is_stmt 0 view .LVU1489
 5314 0028 0B48     		ldr	r0, .L250
 5315 002a FFF7FEFF 		bl	_ZN5daisy6LoggerILNS_17LoggerDestinationE1EE9PrintLineEPKcz
 5316              	.LVL380:
 5317              		.loc 5 128 23 view .LVU1490
ARM GAS  /var/folders/2p/02m_5p7958535cp2tpgps0400000gn/T//ccgOSWw9.s 			page 153


 5318              	.LBE856:
 5319              	.LBE855:
 111:GrannyChordApp.cpp ****       break;
 5320              		.loc 3 111 7 is_stmt 1 view .LVU1491
 111:GrannyChordApp.cpp ****       break;
 5321              		.loc 3 111 19 is_stmt 0 view .LVU1492
 5322 002e 0323     		movs	r3, #3
 5323 0030 F5E7     		b	.L249
 5324              	.LVL381:
 5325              	.L247:
 113:GrannyChordApp.cpp ****       InitPlayback(); 
 5326              		.loc 3 113 5 is_stmt 1 view .LVU1493
 114:GrannyChordApp.cpp ****       curr_state_ = AppState::PlayWAV;
 5327              		.loc 3 114 7 view .LVU1494
 114:GrannyChordApp.cpp ****       curr_state_ = AppState::PlayWAV;
 5328              		.loc 3 114 19 is_stmt 0 view .LVU1495
 5329 0032 FFF7FEFF 		bl	_ZN14GrannyChordApp12InitPlaybackEv
 5330              	.LVL382:
 115:GrannyChordApp.cpp ****       break;
 5331              		.loc 3 115 7 is_stmt 1 view .LVU1496
 115:GrannyChordApp.cpp ****       break;
 5332              		.loc 3 115 19 is_stmt 0 view .LVU1497
 5333 0036 0123     		movs	r3, #1
 5334 0038 F1E7     		b	.L249
 5335              	.LVL383:
 5336              	.L246:
 117:GrannyChordApp.cpp ****       InitSynth();
 5337              		.loc 3 117 5 is_stmt 1 view .LVU1498
 118:GrannyChordApp.cpp ****       curr_state_ = AppState::Synthesis;
 5338              		.loc 3 118 7 view .LVU1499
 118:GrannyChordApp.cpp ****       curr_state_ = AppState::Synthesis;
 5339              		.loc 3 118 16 is_stmt 0 view .LVU1500
 5340 003a FFF7FEFF 		bl	_ZN14GrannyChordApp9InitSynthEv
 5341              	.LVL384:
 119:GrannyChordApp.cpp ****       DebugPrint(pod_, "started audiocallback");
 5342              		.loc 3 119 7 is_stmt 1 view .LVU1501
 119:GrannyChordApp.cpp ****       DebugPrint(pod_, "started audiocallback");
 5343              		.loc 3 119 19 is_stmt 0 view .LVU1502
 5344 003e 0223     		movs	r3, #2
 5345              	.LBB857:
 5346              	.LBB858:
 5347              		.loc 5 128 23 view .LVU1503
 5348 0040 0648     		ldr	r0, .L250+4
 5349              	.LBE858:
 5350              	.LBE857:
 119:GrannyChordApp.cpp ****       DebugPrint(pod_, "started audiocallback");
 5351              		.loc 3 119 19 view .LVU1504
 5352 0042 C4F8D431 		str	r3, [r4, #468]
 120:GrannyChordApp.cpp ****       break;
 5353              		.loc 3 120 7 is_stmt 1 view .LVU1505
 120:GrannyChordApp.cpp ****       break;
 5354              		.loc 3 120 7 view .LVU1506
 5355              	.LVL385:
 5356              	.LBB860:
 5357              	.LBI857:
 126:../libDaisy/src/daisy_seed.h ****     {
 5358              		.loc 5 126 17 view .LVU1507
ARM GAS  /var/folders/2p/02m_5p7958535cp2tpgps0400000gn/T//ccgOSWw9.s 			page 154


 5359              	.LBB859:
 5360              		.loc 5 128 23 is_stmt 0 view .LVU1508
 5361 0046 FFF7FEFF 		bl	_ZN5daisy6LoggerILNS_17LoggerDestinationE1EE9PrintLineEPKcz
 5362              	.LVL386:
 5363              	.L242:
 5364              		.loc 5 128 23 view .LVU1509
 5365              	.LBE859:
 5366              	.LBE860:
 128:GrannyChordApp.cpp **** }
 5367              		.loc 3 128 3 is_stmt 1 view .LVU1510
 128:GrannyChordApp.cpp **** }
 5368              		.loc 3 128 18 is_stmt 0 view .LVU1511
 5369 004a 2046     		mov	r0, r4
 129:GrannyChordApp.cpp **** 
 5370              		.loc 3 129 1 view .LVU1512
 5371 004c BDE81040 		pop	{r4, lr}
 5372              		.cfi_remember_state
 5373              		.cfi_restore 14
 5374              		.cfi_restore 4
 5375              		.cfi_def_cfa_offset 0
 5376              	.LVL387:
 128:GrannyChordApp.cpp **** }
 5377              		.loc 3 128 18 view .LVU1513
 5378 0050 FFF7FEBF 		b	_ZN14GrannyChordApp15SetLed1AppStateEv
 5379              	.LVL388:
 5380              	.L243:
 5381              		.cfi_restore_state
 122:GrannyChordApp.cpp ****       curr_state_ = AppState::Error;
 5382              		.loc 3 122 5 is_stmt 1 view .LVU1514
 123:GrannyChordApp.cpp ****       break;
 5383              		.loc 3 123 7 view .LVU1515
 123:GrannyChordApp.cpp ****       break;
 5384              		.loc 3 123 19 is_stmt 0 view .LVU1516
 5385 0054 0523     		movs	r3, #5
 5386 0056 E2E7     		b	.L249
 5387              	.L251:
 5388              		.align	2
 5389              	.L250:
 5390 0058 00000000 		.word	.LC24
 5391 005c 0D000000 		.word	.LC25
 5392              		.cfi_endproc
 5393              	.LFE4907:
 5395              		.section	.text._ZN14GrannyChordApp16SetLed1SynthModeEv,"ax",%progbits
 5396              		.align	1
 5397              		.global	_ZN14GrannyChordApp16SetLed1SynthModeEv
 5398              		.syntax unified
 5399              		.thumb
 5400              		.thumb_func
 5402              	_ZN14GrannyChordApp16SetLed1SynthModeEv:
 5403              	.LVL389:
 5404              	.LFB4947:
 808:GrannyChordApp.cpp **** 
 809:GrannyChordApp.cpp **** /// @brief sets led 1 colours based on synth mode (regular param controls)
 810:GrannyChordApp.cpp **** void GrannyChordApp::SetLed1SynthMode(){
 5405              		.loc 3 810 40 is_stmt 1 view -0
 5406              		.cfi_startproc
 5407              		@ args = 0, pretend = 0, frame = 0
ARM GAS  /var/folders/2p/02m_5p7958535cp2tpgps0400000gn/T//ccgOSWw9.s 			page 155


 5408              		@ frame_needed = 0, uses_anonymous_args = 0
 5409              		@ link register save eliminated.
 811:GrannyChordApp.cpp ****   if (curr_state_ == AppState::Synthesis){
 5410              		.loc 3 811 3 view .LVU1518
 5411 0000 D0F8D431 		ldr	r3, [r0, #468]
 5412 0004 022B     		cmp	r3, #2
 5413 0006 13D1     		bne	.L252
 5414              	.LVL390:
 5415              	.LBB871:
 5416              	.LBI871:
 810:GrannyChordApp.cpp ****   if (curr_state_ == AppState::Synthesis){
 5417              		.loc 3 810 6 view .LVU1519
 5418              	.LBB872:
 812:GrannyChordApp.cpp ****     switch(curr_synth_mode_){
 5419              		.loc 3 812 5 view .LVU1520
 5420 0008 D0F8DC31 		ldr	r3, [r0, #476]
 5421 000c 062B     		cmp	r3, #6
 5422 000e 0FD8     		bhi	.L252
 5423 0010 DFE803F0 		tbb	[pc, r3]
 5424              	.L255:
 5425 0014 04       		.byte	(.L258-.L255)/2
 5426 0015 0E       		.byte	(.L252-.L255)/2
 5427 0016 0F       		.byte	(.L257-.L255)/2
 5428 0017 0E       		.byte	(.L252-.L255)/2
 5429 0018 19       		.byte	(.L256-.L255)/2
 5430 0019 0E       		.byte	(.L252-.L255)/2
 5431 001a 22       		.byte	(.L254-.L255)/2
 5432 001b 00       		.p2align 1
 5433              	.L258:
 813:GrannyChordApp.cpp ****       case SynthMode::Size_Position:
 5434              		.loc 3 813 7 view .LVU1521
 814:GrannyChordApp.cpp ****         SetRgb1(0, 0.7f, 0); /* green */
 5435              		.loc 3 814 9 view .LVU1522
 5436              	.LVL391:
 5437              	.LBB873:
 5438              	.LBI873:
 768:GrannyChordApp.cpp ****   rgb1_[0]= r;
 5439              		.loc 3 768 6 view .LVU1523
 5440              	.LBB874:
 769:GrannyChordApp.cpp ****   rgb1_[1]= g;
 5441              		.loc 3 769 3 view .LVU1524
 769:GrannyChordApp.cpp ****   rgb1_[1]= g;
 5442              		.loc 3 769 11 is_stmt 0 view .LVU1525
 5443 001c 00F55040 		add	r0, r0, #53248
 5444              	.LVL392:
 769:GrannyChordApp.cpp ****   rgb1_[1]= g;
 5445              		.loc 3 769 11 view .LVU1526
 5446 0020 0023     		movs	r3, #0
 770:GrannyChordApp.cpp ****   rgb1_[2]= b;
 5447              		.loc 3 770 11 view .LVU1527
 5448 0022 124A     		ldr	r2, .L260
 769:GrannyChordApp.cpp ****   rgb1_[1]= g;
 5449              		.loc 3 769 11 view .LVU1528
 5450 0024 C0F8A431 		str	r3, [r0, #420]	@ float
 770:GrannyChordApp.cpp ****   rgb1_[2]= b;
 5451              		.loc 3 770 3 is_stmt 1 view .LVU1529
 770:GrannyChordApp.cpp ****   rgb1_[2]= b;
ARM GAS  /var/folders/2p/02m_5p7958535cp2tpgps0400000gn/T//ccgOSWw9.s 			page 156


 5452              		.loc 3 770 11 is_stmt 0 view .LVU1530
 5453 0028 C0F8A821 		str	r2, [r0, #424]	@ float
 771:GrannyChordApp.cpp **** }
 5454              		.loc 3 771 3 is_stmt 1 view .LVU1531
 5455              	.LVL393:
 5456              	.L259:
 771:GrannyChordApp.cpp **** }
 5457              		.loc 3 771 3 is_stmt 0 view .LVU1532
 5458              	.LBE874:
 5459              	.LBE873:
 5460              	.LBB875:
 5461              	.LBB876:
 771:GrannyChordApp.cpp **** }
 5462              		.loc 3 771 11 view .LVU1533
 5463 002c C0F8AC31 		str	r3, [r0, #428]	@ float
 5464              	.LBE876:
 5465              	.LBE875:
 815:GrannyChordApp.cpp ****         return;
 816:GrannyChordApp.cpp ****       case SynthMode::Pitch_ActiveGrains:
 817:GrannyChordApp.cpp ****         SetRgb1(0.9f, 0.6f, 0); /* orange */
 818:GrannyChordApp.cpp ****         return;
 819:GrannyChordApp.cpp ****       case SynthMode::Pan_Direction:
 820:GrannyChordApp.cpp ****         SetRgb1(0,0.7f,0.7f); /* cyan */
 821:GrannyChordApp.cpp ****         return;
 822:GrannyChordApp.cpp ****       case SynthMode::Reverb:
 823:GrannyChordApp.cpp ****         SetRgb1(0.8f, 0, 0.7f); /* pink */
 824:GrannyChordApp.cpp ****         return;
 5466              		.loc 3 824 9 is_stmt 1 view .LVU1534
 5467              	.LVL394:
 5468              	.L252:
 5469              		.loc 3 824 9 is_stmt 0 view .LVU1535
 5470              	.LBE872:
 5471              	.LBE871:
 825:GrannyChordApp.cpp ****       default:
 826:GrannyChordApp.cpp ****         return;
 827:GrannyChordApp.cpp ****     }
 828:GrannyChordApp.cpp ****   }
 829:GrannyChordApp.cpp **** }
 5472              		.loc 3 829 1 view .LVU1536
 5473 0030 7047     		bx	lr
 5474              	.LVL395:
 5475              	.L257:
 5476              	.LBB884:
 5477              	.LBB883:
 816:GrannyChordApp.cpp ****         SetRgb1(0.9f, 0.6f, 0); /* orange */
 5478              		.loc 3 816 7 is_stmt 1 view .LVU1537
 817:GrannyChordApp.cpp ****         return;
 5479              		.loc 3 817 9 view .LVU1538
 5480              	.LBB878:
 5481              	.LBI878:
 768:GrannyChordApp.cpp ****   rgb1_[0]= r;
 5482              		.loc 3 768 6 view .LVU1539
 5483              	.LBB879:
 769:GrannyChordApp.cpp ****   rgb1_[1]= g;
 5484              		.loc 3 769 3 view .LVU1540
 769:GrannyChordApp.cpp ****   rgb1_[1]= g;
 5485              		.loc 3 769 11 is_stmt 0 view .LVU1541
ARM GAS  /var/folders/2p/02m_5p7958535cp2tpgps0400000gn/T//ccgOSWw9.s 			page 157


 5486 0032 00F55040 		add	r0, r0, #53248
 5487              	.LVL396:
 769:GrannyChordApp.cpp ****   rgb1_[1]= g;
 5488              		.loc 3 769 11 view .LVU1542
 5489 0036 0E4B     		ldr	r3, .L260+4
 5490 0038 C0F8A431 		str	r3, [r0, #420]	@ float
 770:GrannyChordApp.cpp ****   rgb1_[2]= b;
 5491              		.loc 3 770 3 is_stmt 1 view .LVU1543
 770:GrannyChordApp.cpp ****   rgb1_[2]= b;
 5492              		.loc 3 770 11 is_stmt 0 view .LVU1544
 5493 003c 0D4B     		ldr	r3, .L260+8
 5494 003e C0F8A831 		str	r3, [r0, #424]	@ float
 771:GrannyChordApp.cpp **** }
 5495              		.loc 3 771 3 is_stmt 1 view .LVU1545
 771:GrannyChordApp.cpp **** }
 5496              		.loc 3 771 11 is_stmt 0 view .LVU1546
 5497 0042 0023     		movs	r3, #0
 5498 0044 F2E7     		b	.L259
 5499              	.LVL397:
 5500              	.L256:
 771:GrannyChordApp.cpp **** }
 5501              		.loc 3 771 11 view .LVU1547
 5502              	.LBE879:
 5503              	.LBE878:
 819:GrannyChordApp.cpp ****         SetRgb1(0,0.7f,0.7f); /* cyan */
 5504              		.loc 3 819 7 is_stmt 1 view .LVU1548
 820:GrannyChordApp.cpp ****         return;
 5505              		.loc 3 820 9 view .LVU1549
 5506              	.LBB880:
 5507              	.LBI880:
 768:GrannyChordApp.cpp ****   rgb1_[0]= r;
 5508              		.loc 3 768 6 view .LVU1550
 5509              	.LBB881:
 769:GrannyChordApp.cpp ****   rgb1_[1]= g;
 5510              		.loc 3 769 3 view .LVU1551
 769:GrannyChordApp.cpp ****   rgb1_[1]= g;
 5511              		.loc 3 769 11 is_stmt 0 view .LVU1552
 5512 0046 00F55040 		add	r0, r0, #53248
 5513              	.LVL398:
 769:GrannyChordApp.cpp ****   rgb1_[1]= g;
 5514              		.loc 3 769 11 view .LVU1553
 5515 004a 0023     		movs	r3, #0
 5516 004c C0F8A431 		str	r3, [r0, #420]	@ float
 770:GrannyChordApp.cpp ****   rgb1_[2]= b;
 5517              		.loc 3 770 3 is_stmt 1 view .LVU1554
 770:GrannyChordApp.cpp ****   rgb1_[2]= b;
 5518              		.loc 3 770 11 is_stmt 0 view .LVU1555
 5519 0050 064B     		ldr	r3, .L260
 5520 0052 C0F8A831 		str	r3, [r0, #424]	@ float
 771:GrannyChordApp.cpp **** }
 5521              		.loc 3 771 3 is_stmt 1 view .LVU1556
 5522 0056 E9E7     		b	.L259
 5523              	.LVL399:
 5524              	.L254:
 771:GrannyChordApp.cpp **** }
 5525              		.loc 3 771 3 is_stmt 0 view .LVU1557
 5526              	.LBE881:
ARM GAS  /var/folders/2p/02m_5p7958535cp2tpgps0400000gn/T//ccgOSWw9.s 			page 158


 5527              	.LBE880:
 822:GrannyChordApp.cpp ****         SetRgb1(0.8f, 0, 0.7f); /* pink */
 5528              		.loc 3 822 7 is_stmt 1 view .LVU1558
 823:GrannyChordApp.cpp ****         return;
 5529              		.loc 3 823 9 view .LVU1559
 5530              	.LBB882:
 5531              	.LBI875:
 768:GrannyChordApp.cpp ****   rgb1_[0]= r;
 5532              		.loc 3 768 6 view .LVU1560
 5533              	.LBB877:
 769:GrannyChordApp.cpp ****   rgb1_[1]= g;
 5534              		.loc 3 769 3 view .LVU1561
 769:GrannyChordApp.cpp ****   rgb1_[1]= g;
 5535              		.loc 3 769 11 is_stmt 0 view .LVU1562
 5536 0058 00F55040 		add	r0, r0, #53248
 5537              	.LVL400:
 769:GrannyChordApp.cpp ****   rgb1_[1]= g;
 5538              		.loc 3 769 11 view .LVU1563
 5539 005c 064B     		ldr	r3, .L260+12
 5540 005e C0F8A431 		str	r3, [r0, #420]	@ float
 770:GrannyChordApp.cpp ****   rgb1_[2]= b;
 5541              		.loc 3 770 3 is_stmt 1 view .LVU1564
 770:GrannyChordApp.cpp ****   rgb1_[2]= b;
 5542              		.loc 3 770 11 is_stmt 0 view .LVU1565
 5543 0062 0023     		movs	r3, #0
 5544 0064 C0F8A831 		str	r3, [r0, #424]	@ float
 771:GrannyChordApp.cpp **** }
 5545              		.loc 3 771 3 is_stmt 1 view .LVU1566
 771:GrannyChordApp.cpp **** }
 5546              		.loc 3 771 11 is_stmt 0 view .LVU1567
 5547 0068 004B     		ldr	r3, .L260
 5548 006a DFE7     		b	.L259
 5549              	.L261:
 5550              		.align	2
 5551              	.L260:
 5552 006c 3333333F 		.word	1060320051
 5553 0070 6666663F 		.word	1063675494
 5554 0074 9A99193F 		.word	1058642330
 5555 0078 CDCC4C3F 		.word	1061997773
 5556              	.LBE877:
 5557              	.LBE882:
 5558              	.LBE883:
 5559              	.LBE884:
 5560              		.cfi_endproc
 5561              	.LFE4947:
 5563              		.section	.rodata._ZN14GrannyChordApp16UpdateSynthModeAEv.str1.1,"aMS",%progbits,1
 5564              	.LC26:
 5565 0000 6E657874 		.ascii	"next synth mode\000"
 5565      2073796E 
 5565      7468206D 
 5565      6F646500 
 5566              		.section	.text._ZN14GrannyChordApp16UpdateSynthModeAEv,"ax",%progbits
 5567              		.align	1
 5568              		.global	_ZN14GrannyChordApp16UpdateSynthModeAEv
 5569              		.syntax unified
 5570              		.thumb
 5571              		.thumb_func
ARM GAS  /var/folders/2p/02m_5p7958535cp2tpgps0400000gn/T//ccgOSWw9.s 			page 159


 5573              	_ZN14GrannyChordApp16UpdateSynthModeAEv:
 5574              	.LVL401:
 5575              	.LFB4917:
 301:GrannyChordApp.cpp ****   DebugPrint(pod_, "next synth mode");
 5576              		.loc 3 301 40 is_stmt 1 view -0
 5577              		.cfi_startproc
 5578              		@ args = 0, pretend = 0, frame = 0
 5579              		@ frame_needed = 0, uses_anonymous_args = 0
 302:GrannyChordApp.cpp ****   int mode_idx = static_cast<int>(curr_synth_mode_);
 5580              		.loc 3 302 3 view .LVU1569
 302:GrannyChordApp.cpp ****   int mode_idx = static_cast<int>(curr_synth_mode_);
 5581              		.loc 3 302 3 view .LVU1570
 5582              	.LBB885:
 5583              	.LBI885:
 126:../libDaisy/src/daisy_seed.h ****     {
 5584              		.loc 5 126 17 view .LVU1571
 5585              	.LBE885:
 301:GrannyChordApp.cpp ****   DebugPrint(pod_, "next synth mode");
 5586              		.loc 3 301 40 is_stmt 0 view .LVU1572
 5587 0000 10B5     		push	{r4, lr}
 5588              		.cfi_def_cfa_offset 8
 5589              		.cfi_offset 4, -8
 5590              		.cfi_offset 14, -4
 301:GrannyChordApp.cpp ****   DebugPrint(pod_, "next synth mode");
 5591              		.loc 3 301 40 view .LVU1573
 5592 0002 0446     		mov	r4, r0
 5593              	.LBB887:
 5594              	.LBB886:
 5595              		.loc 5 128 23 view .LVU1574
 5596 0004 1048     		ldr	r0, .L265
 5597              	.LVL402:
 5598              		.loc 5 128 23 view .LVU1575
 5599 0006 FFF7FEFF 		bl	_ZN5daisy6LoggerILNS_17LoggerDestinationE1EE9PrintLineEPKcz
 5600              	.LVL403:
 5601              		.loc 5 128 23 view .LVU1576
 5602              	.LBE886:
 5603              	.LBE887:
 303:GrannyChordApp.cpp ****   if (mode_idx%2 == 0){
 5604              		.loc 3 303 3 is_stmt 1 view .LVU1577
 303:GrannyChordApp.cpp ****   if (mode_idx%2 == 0){
 5605              		.loc 3 303 7 is_stmt 0 view .LVU1578
 5606 000a D4F8DC11 		ldr	r1, [r4, #476]
 5607              	.LVL404:
 304:GrannyChordApp.cpp ****     mode_idx = (mode_idx + 2) % 8;
 5608              		.loc 3 304 3 is_stmt 1 view .LVU1579
 5609 000e CB07     		lsls	r3, r1, #31
 5610 0010 16D4     		bmi	.L263
 305:GrannyChordApp.cpp ****   }
 5611              		.loc 3 305 5 view .LVU1580
 305:GrannyChordApp.cpp ****   }
 5612              		.loc 3 305 26 is_stmt 0 view .LVU1581
 5613 0012 0231     		adds	r1, r1, #2
 5614              	.LVL405:
 305:GrannyChordApp.cpp ****   }
 5615              		.loc 3 305 14 view .LVU1582
 5616 0014 4B42     		rsbs	r3, r1, #0
 5617 0016 01F00701 		and	r1, r1, #7
ARM GAS  /var/folders/2p/02m_5p7958535cp2tpgps0400000gn/T//ccgOSWw9.s 			page 160


 5618 001a 03F00703 		and	r3, r3, #7
 5619 001e 58BF     		it	pl
 5620 0020 5942     		rsbpl	r1, r3, #0
 5621              	.LVL406:
 5622              	.L264:
 312:GrannyChordApp.cpp ****   DebugPrintMode(curr_synth_mode_);
 5623              		.loc 3 312 3 is_stmt 1 view .LVU1583
 313:GrannyChordApp.cpp ****   ResetPassThru();
 5624              		.loc 3 313 17 is_stmt 0 view .LVU1584
 5625 0022 2046     		mov	r0, r4
 312:GrannyChordApp.cpp ****   DebugPrintMode(curr_synth_mode_);
 5626              		.loc 3 312 20 view .LVU1585
 5627 0024 C4F8DC11 		str	r1, [r4, #476]
 313:GrannyChordApp.cpp ****   ResetPassThru();
 5628              		.loc 3 313 3 is_stmt 1 view .LVU1586
 313:GrannyChordApp.cpp ****   ResetPassThru();
 5629              		.loc 3 313 17 is_stmt 0 view .LVU1587
 5630 0028 FFF7FEFF 		bl	_ZN14GrannyChordApp14DebugPrintModeE9SynthMode
 5631              	.LVL407:
 314:GrannyChordApp.cpp ****   SetLed1SynthMode();
 5632              		.loc 3 314 3 is_stmt 1 view .LVU1588
 314:GrannyChordApp.cpp ****   SetLed1SynthMode();
 5633              		.loc 3 314 16 is_stmt 0 view .LVU1589
 5634 002c 2046     		mov	r0, r4
 5635 002e FFF7FEFF 		bl	_ZN14GrannyChordApp13ResetPassThruEv
 5636              	.LVL408:
 315:GrannyChordApp.cpp ****   mode_changed_ = true;
 5637              		.loc 3 315 3 is_stmt 1 view .LVU1590
 315:GrannyChordApp.cpp ****   mode_changed_ = true;
 5638              		.loc 3 315 19 is_stmt 0 view .LVU1591
 5639 0032 2046     		mov	r0, r4
 5640 0034 FFF7FEFF 		bl	_ZN14GrannyChordApp16SetLed1SynthModeEv
 5641              	.LVL409:
 316:GrannyChordApp.cpp **** }
 5642              		.loc 3 316 3 is_stmt 1 view .LVU1592
 316:GrannyChordApp.cpp **** }
 5643              		.loc 3 316 17 is_stmt 0 view .LVU1593
 5644 0038 0123     		movs	r3, #1
 5645 003a 84F8E431 		strb	r3, [r4, #484]
 317:GrannyChordApp.cpp **** 
 5646              		.loc 3 317 1 view .LVU1594
 5647 003e 10BD     		pop	{r4, pc}
 5648              	.LVL410:
 5649              	.L263:
 309:GrannyChordApp.cpp ****   }
 5650              		.loc 3 309 5 is_stmt 1 view .LVU1595
 309:GrannyChordApp.cpp ****   }
 5651              		.loc 3 309 14 is_stmt 0 view .LVU1596
 5652 0040 81F00101 		eor	r1, r1, #1
 5653              	.LVL411:
 309:GrannyChordApp.cpp ****   }
 5654              		.loc 3 309 14 view .LVU1597
 5655 0044 EDE7     		b	.L264
 5656              	.L266:
 5657 0046 00BF     		.align	2
 5658              	.L265:
 5659 0048 00000000 		.word	.LC26
ARM GAS  /var/folders/2p/02m_5p7958535cp2tpgps0400000gn/T//ccgOSWw9.s 			page 161


 5660              		.cfi_endproc
 5661              	.LFE4917:
 5663              		.section	.text._ZN14GrannyChordApp13HandleButton1Ev,"ax",%progbits
 5664              		.align	1
 5665              		.global	_ZN14GrannyChordApp13HandleButton1Ev
 5666              		.syntax unified
 5667              		.thumb
 5668              		.thumb_func
 5670              	_ZN14GrannyChordApp13HandleButton1Ev:
 5671              	.LVL412:
 5672              	.LFB4912:
 271:GrannyChordApp.cpp ****   UpdateSynthModeA();
 5673              		.loc 3 271 37 is_stmt 1 view -0
 5674              		.cfi_startproc
 5675              		@ args = 0, pretend = 0, frame = 0
 5676              		@ frame_needed = 0, uses_anonymous_args = 0
 5677              		@ link register save eliminated.
 272:GrannyChordApp.cpp **** }
 5678              		.loc 3 272 3 view .LVU1599
 272:GrannyChordApp.cpp **** }
 5679              		.loc 3 272 19 is_stmt 0 view .LVU1600
 5680 0000 FFF7FEBF 		b	_ZN14GrannyChordApp16UpdateSynthModeAEv
 5681              	.LVL413:
 272:GrannyChordApp.cpp **** }
 5682              		.loc 3 272 19 view .LVU1601
 5683              		.cfi_endproc
 5684              	.LFE4912:
 5686              		.section	.text._ZN14GrannyChordApp7SetLed2Ev,"ax",%progbits
 5687              		.align	1
 5688              		.global	_ZN14GrannyChordApp7SetLed2Ev
 5689              		.syntax unified
 5690              		.thumb
 5691              		.thumb_func
 5693              	_ZN14GrannyChordApp7SetLed2Ev:
 5694              	.LVL414:
 5695              	.LFB4948:
 830:GrannyChordApp.cpp ****         // SetRgb2(0.9f,0.9f,0); /* yellow */
 831:GrannyChordApp.cpp **** 
 832:GrannyChordApp.cpp **** /// @brief sets led 2 colours based on synth mode (random, regular or FX)
 833:GrannyChordApp.cpp **** void GrannyChordApp::SetLed2(){
 5696              		.loc 3 833 31 is_stmt 1 view -0
 5697              		.cfi_startproc
 5698              		@ args = 0, pretend = 0, frame = 0
 5699              		@ frame_needed = 0, uses_anonymous_args = 0
 5700              		@ link register save eliminated.
 834:GrannyChordApp.cpp ****   if (curr_state_==AppState::Synthesis){
 5701              		.loc 3 834 3 view .LVU1603
 5702 0000 D0F8D431 		ldr	r3, [r0, #468]
 5703 0004 022B     		cmp	r3, #2
 5704 0006 1BD1     		bne	.L268
 5705              	.LVL415:
 5706              	.LBB900:
 5707              	.LBI900:
 833:GrannyChordApp.cpp ****   if (curr_state_==AppState::Synthesis){
 5708              		.loc 3 833 6 view .LVU1604
 5709              	.LBB901:
 835:GrannyChordApp.cpp ****     switch(curr_synth_mode_){
ARM GAS  /var/folders/2p/02m_5p7958535cp2tpgps0400000gn/T//ccgOSWw9.s 			page 162


 5710              		.loc 3 835 5 view .LVU1605
 5711 0008 D0F8DC31 		ldr	r3, [r0, #476]
 5712 000c 072B     		cmp	r3, #7
 5713 000e 17D8     		bhi	.L268
 5714 0010 DFE803F0 		tbb	[pc, r3]
 5715              	.L271:
 5716 0014 04       		.byte	(.L272-.L271)/2
 5717 0015 0C       		.byte	(.L274-.L271)/2
 5718 0016 04       		.byte	(.L272-.L271)/2
 5719 0017 17       		.byte	(.L273-.L271)/2
 5720 0018 04       		.byte	(.L272-.L271)/2
 5721 0019 21       		.byte	(.L270-.L271)/2
 5722 001a 04       		.byte	(.L272-.L271)/2
 5723 001b 21       		.byte	(.L270-.L271)/2
 5724              		.p2align 1
 5725              	.L272:
 836:GrannyChordApp.cpp ****       case SynthMode::Size_Position:
 5726              		.loc 3 836 7 view .LVU1606
 837:GrannyChordApp.cpp ****       case SynthMode::Pitch_ActiveGrains:
 5727              		.loc 3 837 7 view .LVU1607
 838:GrannyChordApp.cpp ****       case SynthMode::Pan_Direction:
 5728              		.loc 3 838 7 view .LVU1608
 839:GrannyChordApp.cpp ****       case SynthMode::Reverb:
 5729              		.loc 3 839 7 view .LVU1609
 840:GrannyChordApp.cpp ****         SetRgb2(0, 0, 0); /* off in even mode */
 5730              		.loc 3 840 9 view .LVU1610
 5731              	.LVL416:
 5732              	.LBB902:
 5733              	.LBI902:
 775:GrannyChordApp.cpp ****   rgb2_[0]= r;
 5734              		.loc 3 775 6 view .LVU1611
 5735              	.LBB903:
 776:GrannyChordApp.cpp ****   rgb2_[1]= g;
 5736              		.loc 3 776 3 view .LVU1612
 776:GrannyChordApp.cpp ****   rgb2_[1]= g;
 5737              		.loc 3 776 11 is_stmt 0 view .LVU1613
 5738 001c 00F55040 		add	r0, r0, #53248
 5739              	.LVL417:
 776:GrannyChordApp.cpp ****   rgb2_[1]= g;
 5740              		.loc 3 776 11 view .LVU1614
 5741 0020 0023     		movs	r3, #0
 5742 0022 C0F8B031 		str	r3, [r0, #432]	@ float
 777:GrannyChordApp.cpp ****   rgb2_[2]= b;
 5743              		.loc 3 777 3 is_stmt 1 view .LVU1615
 5744              	.LVL418:
 5745              	.L275:
 777:GrannyChordApp.cpp ****   rgb2_[2]= b;
 5746              		.loc 3 777 3 is_stmt 0 view .LVU1616
 5747              	.LBE903:
 5748              	.LBE902:
 5749              	.LBB904:
 5750              	.LBB905:
 777:GrannyChordApp.cpp ****   rgb2_[2]= b;
 5751              		.loc 3 777 11 view .LVU1617
 5752 0026 C0F8B431 		str	r3, [r0, #436]	@ float
 5753 002a 07E0     		b	.L276
 5754              	.LVL419:
ARM GAS  /var/folders/2p/02m_5p7958535cp2tpgps0400000gn/T//ccgOSWw9.s 			page 163


 5755              	.L274:
 777:GrannyChordApp.cpp ****   rgb2_[2]= b;
 5756              		.loc 3 777 11 view .LVU1618
 5757              	.LBE905:
 5758              	.LBE904:
 841:GrannyChordApp.cpp ****         return;
 842:GrannyChordApp.cpp ****       case SynthMode::Size_Position_Rnd:
 5759              		.loc 3 842 7 is_stmt 1 view .LVU1619
 843:GrannyChordApp.cpp ****         SetRgb2(0, 0.7f, 0); /* green */
 5760              		.loc 3 843 9 view .LVU1620
 5761              	.LBB908:
 5762              	.LBI908:
 775:GrannyChordApp.cpp ****   rgb2_[0]= r;
 5763              		.loc 3 775 6 view .LVU1621
 5764              	.LBB909:
 776:GrannyChordApp.cpp ****   rgb2_[1]= g;
 5765              		.loc 3 776 3 view .LVU1622
 776:GrannyChordApp.cpp ****   rgb2_[1]= g;
 5766              		.loc 3 776 11 is_stmt 0 view .LVU1623
 5767 002c 00F55040 		add	r0, r0, #53248
 5768              	.LVL420:
 776:GrannyChordApp.cpp ****   rgb2_[1]= g;
 5769              		.loc 3 776 11 view .LVU1624
 5770 0030 0023     		movs	r3, #0
 777:GrannyChordApp.cpp ****   rgb2_[2]= b;
 5771              		.loc 3 777 11 view .LVU1625
 5772 0032 0C4A     		ldr	r2, .L277
 776:GrannyChordApp.cpp ****   rgb2_[1]= g;
 5773              		.loc 3 776 11 view .LVU1626
 5774 0034 C0F8B031 		str	r3, [r0, #432]	@ float
 777:GrannyChordApp.cpp ****   rgb2_[2]= b;
 5775              		.loc 3 777 3 is_stmt 1 view .LVU1627
 777:GrannyChordApp.cpp ****   rgb2_[2]= b;
 5776              		.loc 3 777 11 is_stmt 0 view .LVU1628
 5777 0038 C0F8B421 		str	r2, [r0, #436]	@ float
 778:GrannyChordApp.cpp **** }
 5778              		.loc 3 778 3 is_stmt 1 view .LVU1629
 5779              	.LVL421:
 5780              	.L276:
 778:GrannyChordApp.cpp **** }
 5781              		.loc 3 778 3 is_stmt 0 view .LVU1630
 5782              	.LBE909:
 5783              	.LBE908:
 5784              	.LBB910:
 5785              	.LBB906:
 778:GrannyChordApp.cpp **** }
 5786              		.loc 3 778 3 is_stmt 1 view .LVU1631
 778:GrannyChordApp.cpp **** }
 5787              		.loc 3 778 11 is_stmt 0 view .LVU1632
 5788 003c C0F8B831 		str	r3, [r0, #440]	@ float
 5789              	.LBE906:
 5790              	.LBE910:
 844:GrannyChordApp.cpp ****         return;
 845:GrannyChordApp.cpp ****       case SynthMode::Pitch_ActiveGrains_Rnd:
 846:GrannyChordApp.cpp ****         SetRgb2(0.9f, 0.6f, 0); /* orange */
 847:GrannyChordApp.cpp ****         return;
 848:GrannyChordApp.cpp ****       case SynthMode::PanRnd_Chorus:
ARM GAS  /var/folders/2p/02m_5p7958535cp2tpgps0400000gn/T//ccgOSWw9.s 			page 164


 849:GrannyChordApp.cpp ****          SetRgb2(0,0.7f,0.7f); /* cyan */
 850:GrannyChordApp.cpp ****         return;
 5791              		.loc 3 850 9 is_stmt 1 view .LVU1633
 5792              	.LVL422:
 5793              	.L268:
 5794              		.loc 3 850 9 is_stmt 0 view .LVU1634
 5795              	.LBE901:
 5796              	.LBE900:
 851:GrannyChordApp.cpp ****       case SynthMode::Filter:
 852:GrannyChordApp.cpp ****         SetRgb2(0,0.7f,0.7f); /* cyan for reverb */
 853:GrannyChordApp.cpp ****         return;
 854:GrannyChordApp.cpp ****       default:
 855:GrannyChordApp.cpp ****         return;
 856:GrannyChordApp.cpp ****     }
 857:GrannyChordApp.cpp ****   }
 858:GrannyChordApp.cpp **** }
 5797              		.loc 3 858 1 view .LVU1635
 5798 0040 7047     		bx	lr
 5799              	.LVL423:
 5800              	.L273:
 5801              	.LBB915:
 5802              	.LBB914:
 845:GrannyChordApp.cpp ****         SetRgb2(0.9f, 0.6f, 0); /* orange */
 5803              		.loc 3 845 7 is_stmt 1 view .LVU1636
 846:GrannyChordApp.cpp ****         return;
 5804              		.loc 3 846 9 view .LVU1637
 5805              	.LBB911:
 5806              	.LBI911:
 775:GrannyChordApp.cpp ****   rgb2_[0]= r;
 5807              		.loc 3 775 6 view .LVU1638
 5808              	.LBB912:
 776:GrannyChordApp.cpp ****   rgb2_[1]= g;
 5809              		.loc 3 776 3 view .LVU1639
 776:GrannyChordApp.cpp ****   rgb2_[1]= g;
 5810              		.loc 3 776 11 is_stmt 0 view .LVU1640
 5811 0042 00F55040 		add	r0, r0, #53248
 5812              	.LVL424:
 776:GrannyChordApp.cpp ****   rgb2_[1]= g;
 5813              		.loc 3 776 11 view .LVU1641
 5814 0046 084B     		ldr	r3, .L277+4
 5815 0048 C0F8B031 		str	r3, [r0, #432]	@ float
 777:GrannyChordApp.cpp ****   rgb2_[2]= b;
 5816              		.loc 3 777 3 is_stmt 1 view .LVU1642
 777:GrannyChordApp.cpp ****   rgb2_[2]= b;
 5817              		.loc 3 777 11 is_stmt 0 view .LVU1643
 5818 004c 074B     		ldr	r3, .L277+8
 5819 004e C0F8B431 		str	r3, [r0, #436]	@ float
 778:GrannyChordApp.cpp **** }
 5820              		.loc 3 778 3 is_stmt 1 view .LVU1644
 778:GrannyChordApp.cpp **** }
 5821              		.loc 3 778 11 is_stmt 0 view .LVU1645
 5822 0052 0023     		movs	r3, #0
 5823 0054 F2E7     		b	.L276
 5824              	.LVL425:
 5825              	.L270:
 778:GrannyChordApp.cpp **** }
 5826              		.loc 3 778 11 view .LVU1646
ARM GAS  /var/folders/2p/02m_5p7958535cp2tpgps0400000gn/T//ccgOSWw9.s 			page 165


 5827              	.LBE912:
 5828              	.LBE911:
 848:GrannyChordApp.cpp ****          SetRgb2(0,0.7f,0.7f); /* cyan */
 5829              		.loc 3 848 7 is_stmt 1 view .LVU1647
 849:GrannyChordApp.cpp ****         return;
 5830              		.loc 3 849 10 view .LVU1648
 5831              	.LBB913:
 5832              	.LBI904:
 775:GrannyChordApp.cpp ****   rgb2_[0]= r;
 5833              		.loc 3 775 6 view .LVU1649
 5834              	.LBB907:
 776:GrannyChordApp.cpp ****   rgb2_[1]= g;
 5835              		.loc 3 776 3 view .LVU1650
 776:GrannyChordApp.cpp ****   rgb2_[1]= g;
 5836              		.loc 3 776 11 is_stmt 0 view .LVU1651
 5837 0056 0023     		movs	r3, #0
 5838 0058 00F55040 		add	r0, r0, #53248
 5839              	.LVL426:
 776:GrannyChordApp.cpp ****   rgb2_[1]= g;
 5840              		.loc 3 776 11 view .LVU1652
 5841 005c C0F8B031 		str	r3, [r0, #432]	@ float
 777:GrannyChordApp.cpp ****   rgb2_[2]= b;
 5842              		.loc 3 777 3 is_stmt 1 view .LVU1653
 777:GrannyChordApp.cpp ****   rgb2_[2]= b;
 5843              		.loc 3 777 11 is_stmt 0 view .LVU1654
 5844 0060 004B     		ldr	r3, .L277
 5845 0062 E0E7     		b	.L275
 5846              	.L278:
 5847              		.align	2
 5848              	.L277:
 5849 0064 3333333F 		.word	1060320051
 5850 0068 6666663F 		.word	1063675494
 5851 006c 9A99193F 		.word	1058642330
 5852              	.LBE907:
 5853              	.LBE913:
 5854              	.LBE914:
 5855              	.LBE915:
 5856              		.cfi_endproc
 5857              	.LFE4948:
 5859              		.section	.text._ZN14GrannyChordApp16UpdateSynthModeBEv,"ax",%progbits
 5860              		.align	1
 5861              		.global	_ZN14GrannyChordApp16UpdateSynthModeBEv
 5862              		.syntax unified
 5863              		.thumb
 5864              		.thumb_func
 5866              	_ZN14GrannyChordApp16UpdateSynthModeBEv:
 5867              	.LVL427:
 5868              	.LFB4918:
 322:GrannyChordApp.cpp ****   DebugPrint(pod_, "next synth mode");
 5869              		.loc 3 322 40 is_stmt 1 view -0
 5870              		.cfi_startproc
 5871              		@ args = 0, pretend = 0, frame = 0
 5872              		@ frame_needed = 0, uses_anonymous_args = 0
 323:GrannyChordApp.cpp ****   int mode_idx = static_cast<int>(curr_synth_mode_);
 5873              		.loc 3 323 3 view .LVU1656
 323:GrannyChordApp.cpp ****   int mode_idx = static_cast<int>(curr_synth_mode_);
 5874              		.loc 3 323 3 view .LVU1657
ARM GAS  /var/folders/2p/02m_5p7958535cp2tpgps0400000gn/T//ccgOSWw9.s 			page 166


 5875              	.LBB916:
 5876              	.LBI916:
 126:../libDaisy/src/daisy_seed.h ****     {
 5877              		.loc 5 126 17 view .LVU1658
 5878              	.LBE916:
 322:GrannyChordApp.cpp ****   DebugPrint(pod_, "next synth mode");
 5879              		.loc 3 322 40 is_stmt 0 view .LVU1659
 5880 0000 10B5     		push	{r4, lr}
 5881              		.cfi_def_cfa_offset 8
 5882              		.cfi_offset 4, -8
 5883              		.cfi_offset 14, -4
 322:GrannyChordApp.cpp ****   DebugPrint(pod_, "next synth mode");
 5884              		.loc 3 322 40 view .LVU1660
 5885 0002 0446     		mov	r4, r0
 5886              	.LBB918:
 5887              	.LBB917:
 5888              		.loc 5 128 23 view .LVU1661
 5889 0004 1048     		ldr	r0, .L282
 5890              	.LVL428:
 5891              		.loc 5 128 23 view .LVU1662
 5892 0006 FFF7FEFF 		bl	_ZN5daisy6LoggerILNS_17LoggerDestinationE1EE9PrintLineEPKcz
 5893              	.LVL429:
 5894              		.loc 5 128 23 view .LVU1663
 5895              	.LBE917:
 5896              	.LBE918:
 324:GrannyChordApp.cpp ****   if (mode_idx %2 != 0){
 5897              		.loc 3 324 3 is_stmt 1 view .LVU1664
 324:GrannyChordApp.cpp ****   if (mode_idx %2 != 0){
 5898              		.loc 3 324 7 is_stmt 0 view .LVU1665
 5899 000a D4F8DC11 		ldr	r1, [r4, #476]
 5900              	.LVL430:
 325:GrannyChordApp.cpp ****     mode_idx = (mode_idx + 2) % 8;
 5901              		.loc 3 325 3 is_stmt 1 view .LVU1666
 5902 000e CB07     		lsls	r3, r1, #31
 5903 0010 16D5     		bpl	.L280
 326:GrannyChordApp.cpp ****   }
 5904              		.loc 3 326 5 view .LVU1667
 326:GrannyChordApp.cpp ****   }
 5905              		.loc 3 326 26 is_stmt 0 view .LVU1668
 5906 0012 0231     		adds	r1, r1, #2
 5907              	.LVL431:
 326:GrannyChordApp.cpp ****   }
 5908              		.loc 3 326 14 view .LVU1669
 5909 0014 4B42     		rsbs	r3, r1, #0
 5910 0016 01F00701 		and	r1, r1, #7
 5911 001a 03F00703 		and	r3, r3, #7
 5912 001e 58BF     		it	pl
 5913 0020 5942     		rsbpl	r1, r3, #0
 5914              	.LVL432:
 5915              	.L281:
 332:GrannyChordApp.cpp ****   DebugPrintMode(curr_synth_mode_);
 5916              		.loc 3 332 3 is_stmt 1 view .LVU1670
 333:GrannyChordApp.cpp ****   ResetPassThru();
 5917              		.loc 3 333 17 is_stmt 0 view .LVU1671
 5918 0022 2046     		mov	r0, r4
 332:GrannyChordApp.cpp ****   DebugPrintMode(curr_synth_mode_);
 5919              		.loc 3 332 20 view .LVU1672
ARM GAS  /var/folders/2p/02m_5p7958535cp2tpgps0400000gn/T//ccgOSWw9.s 			page 167


 5920 0024 C4F8DC11 		str	r1, [r4, #476]
 333:GrannyChordApp.cpp ****   ResetPassThru();
 5921              		.loc 3 333 3 is_stmt 1 view .LVU1673
 333:GrannyChordApp.cpp ****   ResetPassThru();
 5922              		.loc 3 333 17 is_stmt 0 view .LVU1674
 5923 0028 FFF7FEFF 		bl	_ZN14GrannyChordApp14DebugPrintModeE9SynthMode
 5924              	.LVL433:
 334:GrannyChordApp.cpp ****   SetLed2();
 5925              		.loc 3 334 3 is_stmt 1 view .LVU1675
 334:GrannyChordApp.cpp ****   SetLed2();
 5926              		.loc 3 334 16 is_stmt 0 view .LVU1676
 5927 002c 2046     		mov	r0, r4
 5928 002e FFF7FEFF 		bl	_ZN14GrannyChordApp13ResetPassThruEv
 5929              	.LVL434:
 335:GrannyChordApp.cpp ****   mode_changed_ = true;
 5930              		.loc 3 335 3 is_stmt 1 view .LVU1677
 335:GrannyChordApp.cpp ****   mode_changed_ = true;
 5931              		.loc 3 335 10 is_stmt 0 view .LVU1678
 5932 0032 2046     		mov	r0, r4
 5933 0034 FFF7FEFF 		bl	_ZN14GrannyChordApp7SetLed2Ev
 5934              	.LVL435:
 336:GrannyChordApp.cpp **** }
 5935              		.loc 3 336 3 is_stmt 1 view .LVU1679
 336:GrannyChordApp.cpp **** }
 5936              		.loc 3 336 17 is_stmt 0 view .LVU1680
 5937 0038 0123     		movs	r3, #1
 5938 003a 84F8E431 		strb	r3, [r4, #484]
 337:GrannyChordApp.cpp **** 
 5939              		.loc 3 337 1 view .LVU1681
 5940 003e 10BD     		pop	{r4, pc}
 5941              	.LVL436:
 5942              	.L280:
 329:GrannyChordApp.cpp ****   }
 5943              		.loc 3 329 5 is_stmt 1 view .LVU1682
 329:GrannyChordApp.cpp ****   }
 5944              		.loc 3 329 14 is_stmt 0 view .LVU1683
 5945 0040 81F00101 		eor	r1, r1, #1
 5946              	.LVL437:
 329:GrannyChordApp.cpp ****   }
 5947              		.loc 3 329 14 view .LVU1684
 5948 0044 EDE7     		b	.L281
 5949              	.L283:
 5950 0046 00BF     		.align	2
 5951              	.L282:
 5952 0048 00000000 		.word	.LC26
 5953              		.cfi_endproc
 5954              	.LFE4918:
 5956              		.section	.text._ZN14GrannyChordApp13HandleButton2Ev,"ax",%progbits
 5957              		.align	1
 5958              		.global	_ZN14GrannyChordApp13HandleButton2Ev
 5959              		.syntax unified
 5960              		.thumb
 5961              		.thumb_func
 5963              	_ZN14GrannyChordApp13HandleButton2Ev:
 5964              	.LVL438:
 5965              	.LFB4913:
 276:GrannyChordApp.cpp ****     UpdateSynthModeB();
ARM GAS  /var/folders/2p/02m_5p7958535cp2tpgps0400000gn/T//ccgOSWw9.s 			page 168


 5966              		.loc 3 276 37 is_stmt 1 view -0
 5967              		.cfi_startproc
 5968              		@ args = 0, pretend = 0, frame = 0
 5969              		@ frame_needed = 0, uses_anonymous_args = 0
 5970              		@ link register save eliminated.
 277:GrannyChordApp.cpp **** }
 5971              		.loc 3 277 5 view .LVU1686
 277:GrannyChordApp.cpp **** }
 5972              		.loc 3 277 21 is_stmt 0 view .LVU1687
 5973 0000 FFF7FEBF 		b	_ZN14GrannyChordApp16UpdateSynthModeBEv
 5974              	.LVL439:
 277:GrannyChordApp.cpp **** }
 5975              		.loc 3 277 21 view .LVU1688
 5976              		.cfi_endproc
 5977              	.LFE4913:
 5979              		.section	.text._ZN5daisy9WavWriterILj16384EE8SaveFileEv,"axG",%progbits,_ZN5daisy9WavWriterILj1638
 5980              		.align	1
 5981              		.weak	_ZN5daisy9WavWriterILj16384EE8SaveFileEv
 5982              		.syntax unified
 5983              		.thumb
 5984              		.thumb_func
 5986              	_ZN5daisy9WavWriterILj16384EE8SaveFileEv:
 5987              	.LVL440:
 5988              	.LFB5276:
 142:../libDaisy/src/util/WavWriter.h ****     {
 5989              		.loc 9 142 10 is_stmt 1 view -0
 5990              		.cfi_startproc
 5991              		@ args = 0, pretend = 0, frame = 8
 5992              		@ frame_needed = 0, uses_anonymous_args = 0
 142:../libDaisy/src/util/WavWriter.h ****     {
 5993              		.loc 9 142 10 is_stmt 0 view .LVU1690
 5994 0000 37B5     		push	{r0, r1, r2, r4, r5, lr}
 5995              		.cfi_def_cfa_offset 24
 5996              		.cfi_offset 4, -12
 5997              		.cfi_offset 5, -8
 5998              		.cfi_offset 14, -4
 145:../libDaisy/src/util/WavWriter.h ****         // We _should_ flush whatever's left in the transfer buff
 5999              		.loc 9 145 25 view .LVU1691
 6000 0002 00F50043 		add	r3, r0, #32768
 144:../libDaisy/src/util/WavWriter.h ****         recording_      = false;
 6001              		.loc 9 144 22 view .LVU1692
 6002 0006 0021     		movs	r1, #0
 149:../libDaisy/src/util/WavWriter.h ****         f_write(&fp_, &wavheader_, sizeof(wavheader_), &bw);
 6003              		.loc 9 149 16 view .LVU1693
 6004 0008 00F50045 		add	r5, r0, #32768
 142:../libDaisy/src/util/WavWriter.h ****     {
 6005              		.loc 9 142 10 view .LVU1694
 6006 000c 0446     		mov	r4, r0
 145:../libDaisy/src/util/WavWriter.h ****         // We _should_ flush whatever's left in the transfer buff
 6007              		.loc 9 145 25 view .LVU1695
 6008 000e 83F84410 		strb	r1, [r3, #68]
 6009              	.LVL441:
 6010              	.LBB921:
 6011              	.LBI921:
 182:../libDaisy/src/util/WavWriter.h ****     {
 6012              		.loc 9 182 21 is_stmt 1 view .LVU1696
 6013              	.LBE921:
ARM GAS  /var/folders/2p/02m_5p7958535cp2tpgps0400000gn/T//ccgOSWw9.s 			page 169


 149:../libDaisy/src/util/WavWriter.h ****         f_write(&fp_, &wavheader_, sizeof(wavheader_), &bw);
 6014              		.loc 9 149 16 is_stmt 0 view .LVU1697
 6015 0012 4835     		adds	r5, r5, #72
 144:../libDaisy/src/util/WavWriter.h ****         recording_      = false;
 6016              		.loc 9 144 22 view .LVU1698
 6017 0014 0191     		str	r1, [sp, #4]
 6018              	.LBB923:
 6019              	.LBB922:
 185:../libDaisy/src/util/WavWriter.h ****         return 36 + wavheader_.SubCHunk2Size;
 6020              		.loc 9 185 42 view .LVU1699
 6021 0016 D0E90E32 		ldrd	r3, r2, [r0, #56]
 6022 001a 5343     		muls	r3, r2, r3
 6023 001c C26A     		ldr	r2, [r0, #44]
 6024 001e 5343     		muls	r3, r2, r3
 185:../libDaisy/src/util/WavWriter.h ****         return 36 + wavheader_.SubCHunk2Size;
 6025              		.loc 9 185 63 view .LVU1700
 6026 0020 DB08     		lsrs	r3, r3, #3
 185:../libDaisy/src/util/WavWriter.h ****         return 36 + wavheader_.SubCHunk2Size;
 6027              		.loc 9 185 13 view .LVU1701
 6028 0022 8362     		str	r3, [r0, #40]
 6029              	.LVL442:
 186:../libDaisy/src/util/WavWriter.h ****     }
 6030              		.loc 9 186 32 view .LVU1702
 6031 0024 2433     		adds	r3, r3, #36
 6032              	.LBE922:
 6033              	.LBE923:
 148:../libDaisy/src/util/WavWriter.h ****         f_lseek(&fp_, 0);
 6034              		.loc 9 148 29 view .LVU1703
 6035 0026 4360     		str	r3, [r0, #4]
 149:../libDaisy/src/util/WavWriter.h ****         f_write(&fp_, &wavheader_, sizeof(wavheader_), &bw);
 6036              		.loc 9 149 16 view .LVU1704
 6037 0028 2846     		mov	r0, r5
 6038              	.LVL443:
 149:../libDaisy/src/util/WavWriter.h ****         f_write(&fp_, &wavheader_, sizeof(wavheader_), &bw);
 6039              		.loc 9 149 16 view .LVU1705
 6040 002a FFF7FEFF 		bl	f_lseek
 6041              	.LVL444:
 150:../libDaisy/src/util/WavWriter.h ****         f_close(&fp_);
 6042              		.loc 9 150 16 view .LVU1706
 6043 002e 01AB     		add	r3, sp, #4
 6044 0030 2C22     		movs	r2, #44
 6045 0032 2146     		mov	r1, r4
 6046 0034 2846     		mov	r0, r5
 6047 0036 FFF7FEFF 		bl	f_write
 6048              	.LVL445:
 151:../libDaisy/src/util/WavWriter.h ****     }
 6049              		.loc 9 151 16 view .LVU1707
 6050 003a 2846     		mov	r0, r5
 6051 003c FFF7FEFF 		bl	f_close
 6052              	.LVL446:
 152:../libDaisy/src/util/WavWriter.h **** 
 6053              		.loc 9 152 5 view .LVU1708
 6054 0040 03B0     		add	sp, sp, #12
 6055              		.cfi_def_cfa_offset 12
 6056              		@ sp needed
 6057 0042 30BD     		pop	{r4, r5, pc}
 152:../libDaisy/src/util/WavWriter.h **** 
ARM GAS  /var/folders/2p/02m_5p7958535cp2tpgps0400000gn/T//ccgOSWw9.s 			page 170


 6058              		.loc 9 152 5 view .LVU1709
 6059              		.cfi_endproc
 6060              	.LFE5276:
 6062              		.section	.text._ZN14GrannyChordApp15FinishRecordingEv,"ax",%progbits
 6063              		.align	1
 6064              		.global	_ZN14GrannyChordApp15FinishRecordingEv
 6065              		.syntax unified
 6066              		.thumb
 6067              		.thumb_func
 6069              	_ZN14GrannyChordApp15FinishRecordingEv:
 6070              	.LVL447:
 6071              	.LFB4935:
 580:GrannyChordApp.cpp ****   sd_writer_.SaveFile();
 6072              		.loc 3 580 39 is_stmt 1 view -0
 6073              		.cfi_startproc
 6074              		@ args = 0, pretend = 0, frame = 0
 6075              		@ frame_needed = 0, uses_anonymous_args = 0
 581:GrannyChordApp.cpp ****   recording_out_=false;
 6076              		.loc 3 581 3 view .LVU1711
 580:GrannyChordApp.cpp ****   sd_writer_.SaveFile();
 6077              		.loc 3 580 39 is_stmt 0 view .LVU1712
 6078 0000 10B5     		push	{r4, lr}
 6079              		.cfi_def_cfa_offset 8
 6080              		.cfi_offset 4, -8
 6081              		.cfi_offset 14, -4
 580:GrannyChordApp.cpp ****   sd_writer_.SaveFile();
 6082              		.loc 3 580 39 view .LVU1713
 6083 0002 0446     		mov	r4, r0
 581:GrannyChordApp.cpp ****   recording_out_=false;
 6084              		.loc 3 581 22 view .LVU1714
 6085 0004 00F59E40 		add	r0, r0, #20224
 6086              	.LVL448:
 581:GrannyChordApp.cpp ****   recording_out_=false;
 6087              		.loc 3 581 22 view .LVU1715
 6088 0008 0830     		adds	r0, r0, #8
 582:GrannyChordApp.cpp **** }
 6089              		.loc 3 582 17 view .LVU1716
 6090 000a 04F55044 		add	r4, r4, #53248
 6091              	.LVL449:
 581:GrannyChordApp.cpp ****   recording_out_=false;
 6092              		.loc 3 581 22 view .LVU1717
 6093 000e FFF7FEFF 		bl	_ZN5daisy9WavWriterILj16384EE8SaveFileEv
 6094              	.LVL450:
 582:GrannyChordApp.cpp **** }
 6095              		.loc 3 582 3 is_stmt 1 view .LVU1718
 582:GrannyChordApp.cpp **** }
 6096              		.loc 3 582 17 is_stmt 0 view .LVU1719
 6097 0012 0023     		movs	r3, #0
 6098 0014 84F88431 		strb	r3, [r4, #388]
 583:GrannyChordApp.cpp **** 
 6099              		.loc 3 583 1 view .LVU1720
 6100 0018 10BD     		pop	{r4, pc}
 583:GrannyChordApp.cpp **** 
 6101              		.loc 3 583 1 view .LVU1721
 6102              		.cfi_endproc
 6103              	.LFE4935:
 6105              		.section	.rodata._ZN14GrannyChordApp13ButtonHandlerEv.str1.1,"aMS",%progbits,1
ARM GAS  /var/folders/2p/02m_5p7958535cp2tpgps0400000gn/T//ccgOSWw9.s 			page 171


 6106              	.LC27:
 6107 0000 6E6F7720 		.ascii	"now recording out!\000"
 6107      7265636F 
 6107      7264696E 
 6107      67206F75 
 6107      742100
 6108              	.LC28:
 6109 0013 66696E69 		.ascii	"finished recording out: %.2fs\000"
 6109      73686564 
 6109      20726563 
 6109      6F726469 
 6109      6E67206F 
 6110              		.section	.text._ZN14GrannyChordApp13ButtonHandlerEv,"ax",%progbits
 6111              		.align	1
 6112              		.global	_ZN14GrannyChordApp13ButtonHandlerEv
 6113              		.syntax unified
 6114              		.thumb
 6115              		.thumb_func
 6117              	_ZN14GrannyChordApp13ButtonHandlerEv:
 6118              	.LVL451:
 6119              	.LFB4911:
 187:GrannyChordApp.cpp ****   unsigned long time_now = System::GetNow();
 6120              		.loc 3 187 37 is_stmt 1 view -0
 6121              		.cfi_startproc
 6122              		@ args = 0, pretend = 0, frame = 0
 6123              		@ frame_needed = 0, uses_anonymous_args = 0
 188:GrannyChordApp.cpp ****   /* only check button events if there's been a gap between them */
 6124              		.loc 3 188 3 view .LVU1723
 187:GrannyChordApp.cpp ****   unsigned long time_now = System::GetNow();
 6125              		.loc 3 187 37 is_stmt 0 view .LVU1724
 6126 0000 70B5     		push	{r4, r5, r6, lr}
 6127              		.cfi_def_cfa_offset 16
 6128              		.cfi_offset 4, -16
 6129              		.cfi_offset 5, -12
 6130              		.cfi_offset 6, -8
 6131              		.cfi_offset 14, -4
 6132 0002 0546     		mov	r5, r0
 190:GrannyChordApp.cpp ****     return;
 6133              		.loc 3 190 18 view .LVU1725
 6134 0004 05F55044 		add	r4, r5, #53248
 187:GrannyChordApp.cpp ****   unsigned long time_now = System::GetNow();
 6135              		.loc 3 187 37 view .LVU1726
 6136 0008 2DED028B 		vpush.64	{d8}
 6137              		.cfi_def_cfa_offset 24
 6138              		.cfi_offset 80, -24
 6139              		.cfi_offset 81, -20
 188:GrannyChordApp.cpp ****   /* only check button events if there's been a gap between them */
 6140              		.loc 3 188 42 view .LVU1727
 6141 000c FFF7FEFF 		bl	_ZN5daisy6System6GetNowEv
 6142              	.LVL452:
 190:GrannyChordApp.cpp ****     return;
 6143              		.loc 3 190 16 view .LVU1728
 6144 0010 D4F89831 		ldr	r3, [r4, #408]
 188:GrannyChordApp.cpp ****   /* only check button events if there's been a gap between them */
 6145              		.loc 3 188 42 view .LVU1729
 6146 0014 0646     		mov	r6, r0
 6147              	.LVL453:
ARM GAS  /var/folders/2p/02m_5p7958535cp2tpgps0400000gn/T//ccgOSWw9.s 			page 172


 190:GrannyChordApp.cpp ****     return;
 6148              		.loc 3 190 3 is_stmt 1 view .LVU1730
 190:GrannyChordApp.cpp ****     return;
 6149              		.loc 3 190 16 is_stmt 0 view .LVU1731
 6150 0016 C31A     		subs	r3, r0, r3
 190:GrannyChordApp.cpp ****     return;
 6151              		.loc 3 190 3 view .LVU1732
 6152 0018 312B     		cmp	r3, #49
 6153 001a 40F28580 		bls	.L287
 195:GrannyChordApp.cpp ****     last_action_time_ = time_now;
 6154              		.loc 3 195 3 is_stmt 1 view .LVU1733
 195:GrannyChordApp.cpp ****     last_action_time_ = time_now;
 6155              		.loc 3 195 7 is_stmt 0 view .LVU1734
 6156 001e E869     		ldr	r0, [r5, #28]
 6157              	.LVL454:
 6158              	.LBB956:
 6159              	.LBI956:
  70:../libDaisy/src/hid/switch.h **** 
 6160              		.loc 1 70 17 is_stmt 1 view .LVU1735
 6161              	.LBB957:
  70:../libDaisy/src/hid/switch.h **** 
 6162              		.loc 1 70 38 view .LVU1736
  70:../libDaisy/src/hid/switch.h **** 
 6163              		.loc 1 70 54 is_stmt 0 view .LVU1737
 6164 0020 90F8B430 		ldrb	r3, [r0, #180]	@ zero_extendqisi2
 6165 0024 43B1     		cbz	r3, .L290
 6166              	.LVL455:
  70:../libDaisy/src/hid/switch.h **** 
 6167              		.loc 1 70 54 view .LVU1738
 6168              	.LBE957:
 6169              	.LBE956:
 195:GrannyChordApp.cpp ****     last_action_time_ = time_now;
 6170              		.loc 3 195 3 view .LVU1739
 6171 0026 90F8BA30 		ldrb	r3, [r0, #186]	@ zero_extendqisi2
 6172 002a 7F2B     		cmp	r3, #127
 196:GrannyChordApp.cpp ****     btn1_long_press_fired_ = false;
 6173              		.loc 3 196 5 is_stmt 1 view .LVU1740
 197:GrannyChordApp.cpp ****   }
 6174              		.loc 3 197 28 is_stmt 0 view .LVU1741
 6175 002c 02BF     		ittt	eq
 6176 002e 0023     		moveq	r3, #0
 196:GrannyChordApp.cpp ****     btn1_long_press_fired_ = false;
 6177              		.loc 3 196 23 view .LVU1742
 6178 0030 C4F89861 		streq	r6, [r4, #408]
 197:GrannyChordApp.cpp ****   }
 6179              		.loc 3 197 5 is_stmt 1 view .LVU1743
 197:GrannyChordApp.cpp ****   }
 6180              		.loc 3 197 28 is_stmt 0 view .LVU1744
 6181 0034 84F89C31 		strbeq	r3, [r4, #412]
 6182              	.L290:
 201:GrannyChordApp.cpp ****     float held_time = pod_.button1.TimeHeldMs();
 6183              		.loc 3 201 3 is_stmt 1 view .LVU1745
 6184              	.LVL456:
 6185              	.LBB958:
 6186              	.LBB959:
 6187              	.LBI959:
  79:../libDaisy/src/hid/switch.h **** 
ARM GAS  /var/folders/2p/02m_5p7958535cp2tpgps0400000gn/T//ccgOSWw9.s 			page 173


 6188              		.loc 1 79 17 view .LVU1746
 6189              	.LBB960:
  79:../libDaisy/src/hid/switch.h **** 
 6190              		.loc 1 79 35 view .LVU1747
  79:../libDaisy/src/hid/switch.h **** 
 6191              		.loc 1 79 35 is_stmt 0 view .LVU1748
 6192              	.LBE960:
 6193              	.LBE959:
 201:GrannyChordApp.cpp ****     float held_time = pod_.button1.TimeHeldMs();
 6194              		.loc 3 201 3 view .LVU1749
 6195 0038 90F8BA30 		ldrb	r3, [r0, #186]	@ zero_extendqisi2
 6196 003c FF2B     		cmp	r3, #255
 6197 003e 11D1     		bne	.L292
 6198              	.LBB961:
 202:GrannyChordApp.cpp ****     if (held_time > LONG_PRESS_TIME && !btn1_long_press_fired_){
 6199              		.loc 3 202 5 is_stmt 1 view .LVU1750
 202:GrannyChordApp.cpp ****     if (held_time > LONG_PRESS_TIME && !btn1_long_press_fired_){
 6200              		.loc 3 202 46 is_stmt 0 view .LVU1751
 6201 0040 B030     		adds	r0, r0, #176
 6202 0042 FFF7FEFF 		bl	_ZNK5daisy6Switch10TimeHeldMsEv
 6203              	.LVL457:
 203:GrannyChordApp.cpp ****       HandleButton1LongPress();
 6204              		.loc 3 203 5 is_stmt 1 view .LVU1752
 6205 0046 DFED567A 		vldr.32	s15, .L325
 6206 004a B4EEE70A 		vcmpe.f32	s0, s15
 6207 004e F1EE10FA 		vmrs	APSR_nzcv, FPSCR
 6208 0052 07DD     		ble	.L292
 203:GrannyChordApp.cpp ****       HandleButton1LongPress();
 6209              		.loc 3 203 37 is_stmt 0 discriminator 1 view .LVU1753
 6210 0054 94F89C31 		ldrb	r3, [r4, #412]	@ zero_extendqisi2
 6211 0058 23B9     		cbnz	r3, .L292
 204:GrannyChordApp.cpp ****       btn1_long_press_fired_ = true;
 6212              		.loc 3 204 7 is_stmt 1 view .LVU1754
 205:GrannyChordApp.cpp ****       last_action_time_ = time_now;
 6213              		.loc 3 205 7 view .LVU1755
 205:GrannyChordApp.cpp ****       last_action_time_ = time_now;
 6214              		.loc 3 205 30 is_stmt 0 view .LVU1756
 6215 005a 0123     		movs	r3, #1
 206:GrannyChordApp.cpp ****     }
 6216              		.loc 3 206 25 view .LVU1757
 6217 005c C4F89861 		str	r6, [r4, #408]
 205:GrannyChordApp.cpp ****       last_action_time_ = time_now;
 6218              		.loc 3 205 30 view .LVU1758
 6219 0060 84F89C31 		strb	r3, [r4, #412]
 206:GrannyChordApp.cpp ****     }
 6220              		.loc 3 206 7 is_stmt 1 view .LVU1759
 6221              	.LVL458:
 6222              	.L292:
 206:GrannyChordApp.cpp ****     }
 6223              		.loc 3 206 7 is_stmt 0 view .LVU1760
 6224              	.LBE961:
 6225              	.LBE958:
 211:GrannyChordApp.cpp ****     if (!btn1_long_press_fired_){
 6226              		.loc 3 211 3 is_stmt 1 view .LVU1761
 211:GrannyChordApp.cpp ****     if (!btn1_long_press_fired_){
 6227              		.loc 3 211 7 is_stmt 0 view .LVU1762
 6228 0064 EB69     		ldr	r3, [r5, #28]
ARM GAS  /var/folders/2p/02m_5p7958535cp2tpgps0400000gn/T//ccgOSWw9.s 			page 174


 6229              	.LVL459:
 6230              	.LBB962:
 6231              	.LBI962:
  73:../libDaisy/src/hid/switch.h ****     {
 6232              		.loc 1 73 17 is_stmt 1 view .LVU1763
 6233              	.LBB963:
  75:../libDaisy/src/hid/switch.h ****     }
 6234              		.loc 1 75 9 view .LVU1764
  75:../libDaisy/src/hid/switch.h ****     }
 6235              		.loc 1 75 25 is_stmt 0 view .LVU1765
 6236 0066 93F8B420 		ldrb	r2, [r3, #180]	@ zero_extendqisi2
 6237 006a 72B1     		cbz	r2, .L295
 6238              	.LVL460:
  75:../libDaisy/src/hid/switch.h ****     }
 6239              		.loc 1 75 25 view .LVU1766
 6240              	.LBE963:
 6241              	.LBE962:
 211:GrannyChordApp.cpp ****     if (!btn1_long_press_fired_){
 6242              		.loc 3 211 3 view .LVU1767
 6243 006c 93F8BA30 		ldrb	r3, [r3, #186]	@ zero_extendqisi2
 6244 0070 802B     		cmp	r3, #128
 6245 0072 0AD1     		bne	.L295
 212:GrannyChordApp.cpp ****       HandleButton1();
 6246              		.loc 3 212 5 is_stmt 1 view .LVU1768
 6247 0074 94F89C31 		ldrb	r3, [r4, #412]	@ zero_extendqisi2
 6248 0078 13B9     		cbnz	r3, .L296
 213:GrannyChordApp.cpp ****     }
 6249              		.loc 3 213 7 view .LVU1769
 6250              	.LVL461:
 6251              	.LBB964:
 6252              	.LBI964:
 271:GrannyChordApp.cpp ****   UpdateSynthModeA();
 6253              		.loc 3 271 6 view .LVU1770
 6254              	.LBB965:
 272:GrannyChordApp.cpp **** }
 6255              		.loc 3 272 3 view .LVU1771
 272:GrannyChordApp.cpp **** }
 6256              		.loc 3 272 19 is_stmt 0 view .LVU1772
 6257 007a 2846     		mov	r0, r5
 6258 007c FFF7FEFF 		bl	_ZN14GrannyChordApp16UpdateSynthModeAEv
 6259              	.LVL462:
 6260              	.L296:
 272:GrannyChordApp.cpp **** }
 6261              		.loc 3 272 19 view .LVU1773
 6262              	.LBE965:
 6263              	.LBE964:
 215:GrannyChordApp.cpp ****     btn1_long_press_fired_ = false;
 6264              		.loc 3 215 5 is_stmt 1 view .LVU1774
 216:GrannyChordApp.cpp ****   }
 6265              		.loc 3 216 28 is_stmt 0 view .LVU1775
 6266 0080 0023     		movs	r3, #0
 215:GrannyChordApp.cpp ****     btn1_long_press_fired_ = false;
 6267              		.loc 3 215 23 view .LVU1776
 6268 0082 C4F89861 		str	r6, [r4, #408]
 216:GrannyChordApp.cpp ****   }
 6269              		.loc 3 216 5 is_stmt 1 view .LVU1777
 216:GrannyChordApp.cpp ****   }
ARM GAS  /var/folders/2p/02m_5p7958535cp2tpgps0400000gn/T//ccgOSWw9.s 			page 175


 6270              		.loc 3 216 28 is_stmt 0 view .LVU1778
 6271 0086 84F89C31 		strb	r3, [r4, #412]
 6272              	.L295:
 220:GrannyChordApp.cpp ****     last_action_time_ = time_now;
 6273              		.loc 3 220 3 is_stmt 1 view .LVU1779
 220:GrannyChordApp.cpp ****     last_action_time_ = time_now;
 6274              		.loc 3 220 7 is_stmt 0 view .LVU1780
 6275 008a E869     		ldr	r0, [r5, #28]
 6276              	.LVL463:
 6277              	.LBB966:
 6278              	.LBI966:
  70:../libDaisy/src/hid/switch.h **** 
 6279              		.loc 1 70 17 is_stmt 1 view .LVU1781
 6280              	.LBB967:
  70:../libDaisy/src/hid/switch.h **** 
 6281              		.loc 1 70 38 view .LVU1782
  70:../libDaisy/src/hid/switch.h **** 
 6282              		.loc 1 70 54 is_stmt 0 view .LVU1783
 6283 008c 90F8C430 		ldrb	r3, [r0, #196]	@ zero_extendqisi2
 6284 0090 43B1     		cbz	r3, .L297
 6285              	.LVL464:
  70:../libDaisy/src/hid/switch.h **** 
 6286              		.loc 1 70 54 view .LVU1784
 6287              	.LBE967:
 6288              	.LBE966:
 220:GrannyChordApp.cpp ****     last_action_time_ = time_now;
 6289              		.loc 3 220 3 view .LVU1785
 6290 0092 90F8CA30 		ldrb	r3, [r0, #202]	@ zero_extendqisi2
 6291 0096 7F2B     		cmp	r3, #127
 221:GrannyChordApp.cpp ****     btn2_long_press_fired_ = false;
 6292              		.loc 3 221 5 is_stmt 1 view .LVU1786
 222:GrannyChordApp.cpp ****   }
 6293              		.loc 3 222 28 is_stmt 0 view .LVU1787
 6294 0098 02BF     		ittt	eq
 6295 009a 0023     		moveq	r3, #0
 221:GrannyChordApp.cpp ****     btn2_long_press_fired_ = false;
 6296              		.loc 3 221 23 view .LVU1788
 6297 009c C4F89861 		streq	r6, [r4, #408]
 222:GrannyChordApp.cpp ****   }
 6298              		.loc 3 222 5 is_stmt 1 view .LVU1789
 222:GrannyChordApp.cpp ****   }
 6299              		.loc 3 222 28 is_stmt 0 view .LVU1790
 6300 00a0 84F89D31 		strbeq	r3, [r4, #413]
 6301              	.L297:
 226:GrannyChordApp.cpp ****     float held_time = pod_.button2.TimeHeldMs();
 6302              		.loc 3 226 3 is_stmt 1 view .LVU1791
 6303              	.LVL465:
 6304              	.LBB968:
 6305              	.LBB969:
 6306              	.LBI969:
  79:../libDaisy/src/hid/switch.h **** 
 6307              		.loc 1 79 17 view .LVU1792
 6308              	.LBB970:
  79:../libDaisy/src/hid/switch.h **** 
 6309              		.loc 1 79 35 view .LVU1793
  79:../libDaisy/src/hid/switch.h **** 
 6310              		.loc 1 79 35 is_stmt 0 view .LVU1794
ARM GAS  /var/folders/2p/02m_5p7958535cp2tpgps0400000gn/T//ccgOSWw9.s 			page 176


 6311              	.LBE970:
 6312              	.LBE969:
 226:GrannyChordApp.cpp ****     float held_time = pod_.button2.TimeHeldMs();
 6313              		.loc 3 226 3 view .LVU1795
 6314 00a4 90F8CA30 		ldrb	r3, [r0, #202]	@ zero_extendqisi2
 6315 00a8 FF2B     		cmp	r3, #255
 6316 00aa 11D1     		bne	.L299
 6317              	.LBB971:
 227:GrannyChordApp.cpp ****     if (held_time > LONG_PRESS_TIME && !btn2_long_press_fired_){
 6318              		.loc 3 227 5 is_stmt 1 view .LVU1796
 227:GrannyChordApp.cpp ****     if (held_time > LONG_PRESS_TIME && !btn2_long_press_fired_){
 6319              		.loc 3 227 46 is_stmt 0 view .LVU1797
 6320 00ac C030     		adds	r0, r0, #192
 6321 00ae FFF7FEFF 		bl	_ZNK5daisy6Switch10TimeHeldMsEv
 6322              	.LVL466:
 228:GrannyChordApp.cpp ****       HandleButton2LongPress();
 6323              		.loc 3 228 5 is_stmt 1 view .LVU1798
 6324 00b2 DFED3B7A 		vldr.32	s15, .L325
 6325 00b6 B4EEE70A 		vcmpe.f32	s0, s15
 6326 00ba F1EE10FA 		vmrs	APSR_nzcv, FPSCR
 6327 00be 07DD     		ble	.L299
 228:GrannyChordApp.cpp ****       HandleButton2LongPress();
 6328              		.loc 3 228 37 is_stmt 0 discriminator 1 view .LVU1799
 6329 00c0 94F89D31 		ldrb	r3, [r4, #413]	@ zero_extendqisi2
 6330 00c4 23B9     		cbnz	r3, .L299
 229:GrannyChordApp.cpp ****       btn2_long_press_fired_ = true;
 6331              		.loc 3 229 7 is_stmt 1 view .LVU1800
 230:GrannyChordApp.cpp ****       last_action_time_ = time_now;
 6332              		.loc 3 230 7 view .LVU1801
 230:GrannyChordApp.cpp ****       last_action_time_ = time_now;
 6333              		.loc 3 230 30 is_stmt 0 view .LVU1802
 6334 00c6 0123     		movs	r3, #1
 231:GrannyChordApp.cpp ****     }
 6335              		.loc 3 231 25 view .LVU1803
 6336 00c8 C4F89861 		str	r6, [r4, #408]
 230:GrannyChordApp.cpp ****       last_action_time_ = time_now;
 6337              		.loc 3 230 30 view .LVU1804
 6338 00cc 84F89D31 		strb	r3, [r4, #413]
 231:GrannyChordApp.cpp ****     }
 6339              		.loc 3 231 7 is_stmt 1 view .LVU1805
 6340              	.LVL467:
 6341              	.L299:
 231:GrannyChordApp.cpp ****     }
 6342              		.loc 3 231 7 is_stmt 0 view .LVU1806
 6343              	.LBE971:
 6344              	.LBE968:
 236:GrannyChordApp.cpp ****     if (!btn2_long_press_fired_){
 6345              		.loc 3 236 3 is_stmt 1 view .LVU1807
 236:GrannyChordApp.cpp ****     if (!btn2_long_press_fired_){
 6346              		.loc 3 236 7 is_stmt 0 view .LVU1808
 6347 00d0 EB69     		ldr	r3, [r5, #28]
 6348              	.LVL468:
 6349              	.LBB972:
 6350              	.LBI972:
  73:../libDaisy/src/hid/switch.h ****     {
 6351              		.loc 1 73 17 is_stmt 1 view .LVU1809
 6352              	.LBB973:
ARM GAS  /var/folders/2p/02m_5p7958535cp2tpgps0400000gn/T//ccgOSWw9.s 			page 177


  75:../libDaisy/src/hid/switch.h ****     }
 6353              		.loc 1 75 9 view .LVU1810
  75:../libDaisy/src/hid/switch.h ****     }
 6354              		.loc 1 75 25 is_stmt 0 view .LVU1811
 6355 00d2 93F8C420 		ldrb	r2, [r3, #196]	@ zero_extendqisi2
 6356 00d6 72B1     		cbz	r2, .L302
 6357              	.LVL469:
  75:../libDaisy/src/hid/switch.h ****     }
 6358              		.loc 1 75 25 view .LVU1812
 6359              	.LBE973:
 6360              	.LBE972:
 236:GrannyChordApp.cpp ****     if (!btn2_long_press_fired_){
 6361              		.loc 3 236 3 view .LVU1813
 6362 00d8 93F8CA30 		ldrb	r3, [r3, #202]	@ zero_extendqisi2
 6363 00dc 802B     		cmp	r3, #128
 6364 00de 0AD1     		bne	.L302
 237:GrannyChordApp.cpp ****       HandleButton2();
 6365              		.loc 3 237 5 is_stmt 1 view .LVU1814
 6366 00e0 94F89D31 		ldrb	r3, [r4, #413]	@ zero_extendqisi2
 6367 00e4 13B9     		cbnz	r3, .L303
 238:GrannyChordApp.cpp ****     }
 6368              		.loc 3 238 7 view .LVU1815
 6369              	.LVL470:
 6370              	.LBB974:
 6371              	.LBI974:
 276:GrannyChordApp.cpp ****     UpdateSynthModeB();
 6372              		.loc 3 276 6 view .LVU1816
 6373              	.LBB975:
 277:GrannyChordApp.cpp **** }
 6374              		.loc 3 277 5 view .LVU1817
 277:GrannyChordApp.cpp **** }
 6375              		.loc 3 277 21 is_stmt 0 view .LVU1818
 6376 00e6 2846     		mov	r0, r5
 6377 00e8 FFF7FEFF 		bl	_ZN14GrannyChordApp16UpdateSynthModeBEv
 6378              	.LVL471:
 6379              	.L303:
 277:GrannyChordApp.cpp **** }
 6380              		.loc 3 277 21 view .LVU1819
 6381              	.LBE975:
 6382              	.LBE974:
 240:GrannyChordApp.cpp ****     btn2_long_press_fired_ = false;
 6383              		.loc 3 240 5 is_stmt 1 view .LVU1820
 241:GrannyChordApp.cpp ****   }
 6384              		.loc 3 241 28 is_stmt 0 view .LVU1821
 6385 00ec 0023     		movs	r3, #0
 240:GrannyChordApp.cpp ****     btn2_long_press_fired_ = false;
 6386              		.loc 3 240 23 view .LVU1822
 6387 00ee C4F89861 		str	r6, [r4, #408]
 241:GrannyChordApp.cpp ****   }
 6388              		.loc 3 241 5 is_stmt 1 view .LVU1823
 241:GrannyChordApp.cpp ****   }
 6389              		.loc 3 241 28 is_stmt 0 view .LVU1824
 6390 00f2 84F89D31 		strb	r3, [r4, #413]
 6391              	.L302:
 245:GrannyChordApp.cpp ****     float heldTime1 = pod_.button1.TimeHeldMs();
 6392              		.loc 3 245 3 is_stmt 1 view .LVU1825
 6393              	.LBB976:
ARM GAS  /var/folders/2p/02m_5p7958535cp2tpgps0400000gn/T//ccgOSWw9.s 			page 178


 245:GrannyChordApp.cpp ****     float heldTime1 = pod_.button1.TimeHeldMs();
 6394              		.loc 3 245 7 is_stmt 0 view .LVU1826
 6395 00f6 E869     		ldr	r0, [r5, #28]
 6396              	.LVL472:
 6397              	.LBB977:
 6398              	.LBI977:
  79:../libDaisy/src/hid/switch.h **** 
 6399              		.loc 1 79 17 is_stmt 1 view .LVU1827
 6400              	.LBB978:
  79:../libDaisy/src/hid/switch.h **** 
 6401              		.loc 1 79 35 view .LVU1828
  79:../libDaisy/src/hid/switch.h **** 
 6402              		.loc 1 79 35 is_stmt 0 view .LVU1829
 6403              	.LBE978:
 6404              	.LBE977:
 245:GrannyChordApp.cpp ****     float heldTime1 = pod_.button1.TimeHeldMs();
 6405              		.loc 3 245 30 view .LVU1830
 6406 00f8 90F8BA30 		ldrb	r3, [r0, #186]	@ zero_extendqisi2
 6407 00fc FF2B     		cmp	r3, #255
 6408 00fe 16D1     		bne	.L304
 6409              	.LVL473:
 6410              	.LBB979:
 6411              	.LBI979:
  79:../libDaisy/src/hid/switch.h **** 
 6412              		.loc 1 79 17 is_stmt 1 discriminator 1 view .LVU1831
 6413              	.LBB980:
  79:../libDaisy/src/hid/switch.h **** 
 6414              		.loc 1 79 35 discriminator 1 view .LVU1832
  79:../libDaisy/src/hid/switch.h **** 
 6415              		.loc 1 79 35 is_stmt 0 discriminator 1 view .LVU1833
 6416              	.LBE980:
 6417              	.LBE979:
 245:GrannyChordApp.cpp ****     float heldTime1 = pod_.button1.TimeHeldMs();
 6418              		.loc 3 245 30 discriminator 1 view .LVU1834
 6419 0100 90F8CA30 		ldrb	r3, [r0, #202]	@ zero_extendqisi2
 6420 0104 FF2B     		cmp	r3, #255
 6421 0106 12D1     		bne	.L304
 6422              	.LBB981:
 246:GrannyChordApp.cpp ****     float heldTime2 = pod_.button2.TimeHeldMs();
 6423              		.loc 3 246 5 is_stmt 1 view .LVU1835
 246:GrannyChordApp.cpp ****     float heldTime2 = pod_.button2.TimeHeldMs();
 6424              		.loc 3 246 46 is_stmt 0 view .LVU1836
 6425 0108 B030     		adds	r0, r0, #176
 6426 010a FFF7FEFF 		bl	_ZNK5daisy6Switch10TimeHeldMsEv
 6427              	.LVL474:
 247:GrannyChordApp.cpp ****     if (heldTime1 > LONG_PRESS_TIME &&
 6428              		.loc 3 247 46 view .LVU1837
 6429 010e E869     		ldr	r0, [r5, #28]
 246:GrannyChordApp.cpp ****     float heldTime2 = pod_.button2.TimeHeldMs();
 6430              		.loc 3 246 46 view .LVU1838
 6431 0110 B0EE408A 		vmov.f32	s16, s0
 6432              	.LVL475:
 247:GrannyChordApp.cpp ****     if (heldTime1 > LONG_PRESS_TIME &&
 6433              		.loc 3 247 5 is_stmt 1 view .LVU1839
 247:GrannyChordApp.cpp ****     if (heldTime1 > LONG_PRESS_TIME &&
 6434              		.loc 3 247 46 is_stmt 0 view .LVU1840
 6435 0114 C030     		adds	r0, r0, #192
ARM GAS  /var/folders/2p/02m_5p7958535cp2tpgps0400000gn/T//ccgOSWw9.s 			page 179


 6436 0116 FFF7FEFF 		bl	_ZNK5daisy6Switch10TimeHeldMsEv
 6437              	.LVL476:
 248:GrannyChordApp.cpp ****         heldTime2 > LONG_PRESS_TIME &&
 6438              		.loc 3 248 5 is_stmt 1 view .LVU1841
 6439 011a DFED217A 		vldr.32	s15, .L325
 6440 011e B4EEE78A 		vcmpe.f32	s16, s15
 6441 0122 F1EE10FA 		vmrs	APSR_nzcv, FPSCR
 6442 0126 06DC     		bgt	.L305
 6443              	.LVL477:
 6444              	.L287:
 248:GrannyChordApp.cpp ****         heldTime2 > LONG_PRESS_TIME &&
 6445              		.loc 3 248 5 is_stmt 0 view .LVU1842
 6446              	.LBE981:
 6447              	.LBE976:
 268:GrannyChordApp.cpp **** 
 6448              		.loc 3 268 1 view .LVU1843
 6449 0128 BDEC028B 		vldm	sp!, {d8}
 6450              		.cfi_remember_state
 6451              		.cfi_restore 80
 6452              		.cfi_restore 81
 6453              		.cfi_def_cfa_offset 16
 6454 012c 70BD     		pop	{r4, r5, r6, pc}
 6455              	.LVL478:
 6456              	.L304:
 6457              		.cfi_restore_state
 6458              	.LBB997:
 266:GrannyChordApp.cpp ****   }
 6459              		.loc 3 266 5 is_stmt 1 discriminator 4 view .LVU1844
 266:GrannyChordApp.cpp ****   }
 6460              		.loc 3 266 33 is_stmt 0 discriminator 4 view .LVU1845
 6461 012e 0023     		movs	r3, #0
 6462 0130 84F89E31 		strb	r3, [r4, #414]
 6463 0134 F8E7     		b	.L287
 6464              	.LVL479:
 6465              	.L305:
 6466              	.LBB996:
 248:GrannyChordApp.cpp ****         heldTime2 > LONG_PRESS_TIME &&
 6467              		.loc 3 248 37 discriminator 1 view .LVU1846
 6468 0136 B4EEE70A 		vcmpe.f32	s0, s15
 6469 013a F1EE10FA 		vmrs	APSR_nzcv, FPSCR
 6470 013e F3DD     		ble	.L287
 249:GrannyChordApp.cpp ****         !both_btns_long_press_fired_) 
 6471              		.loc 3 249 37 view .LVU1847
 6472 0140 94F89E31 		ldrb	r3, [r4, #414]	@ zero_extendqisi2
 6473 0144 002B     		cmp	r3, #0
 6474 0146 EFD1     		bne	.L287
 252:GrannyChordApp.cpp ****         recording_out_ = true;
 6475              		.loc 3 252 7 is_stmt 1 view .LVU1848
 6476 0148 94F88431 		ldrb	r3, [r4, #388]	@ zero_extendqisi2
 6477 014c 73B9     		cbnz	r3, .L308
 253:GrannyChordApp.cpp ****         DebugPrint(pod_,"now recording out!");
 6478              		.loc 3 253 9 view .LVU1849
 253:GrannyChordApp.cpp ****         DebugPrint(pod_,"now recording out!");
 6479              		.loc 3 253 24 is_stmt 0 view .LVU1850
 6480 014e 0123     		movs	r3, #1
 6481              	.LBB982:
 6482              	.LBB983:
ARM GAS  /var/folders/2p/02m_5p7958535cp2tpgps0400000gn/T//ccgOSWw9.s 			page 180


 6483              		.loc 5 128 23 view .LVU1851
 6484 0150 1448     		ldr	r0, .L325+4
 6485              	.LBE983:
 6486              	.LBE982:
 253:GrannyChordApp.cpp ****         DebugPrint(pod_,"now recording out!");
 6487              		.loc 3 253 24 view .LVU1852
 6488 0152 84F88431 		strb	r3, [r4, #388]
 254:GrannyChordApp.cpp ****         RecordOutToSD();
 6489              		.loc 3 254 9 is_stmt 1 view .LVU1853
 254:GrannyChordApp.cpp ****         RecordOutToSD();
 6490              		.loc 3 254 9 view .LVU1854
 6491              	.LVL480:
 6492              	.LBB985:
 6493              	.LBI982:
 126:../libDaisy/src/daisy_seed.h ****     {
 6494              		.loc 5 126 17 view .LVU1855
 6495              	.LBB984:
 6496              		.loc 5 128 23 is_stmt 0 view .LVU1856
 6497 0156 FFF7FEFF 		bl	_ZN5daisy6LoggerILNS_17LoggerDestinationE1EE9PrintLineEPKcz
 6498              	.LVL481:
 6499              		.loc 5 128 23 view .LVU1857
 6500              	.LBE984:
 6501              	.LBE985:
 255:GrannyChordApp.cpp ****       } 
 6502              		.loc 3 255 9 is_stmt 1 view .LVU1858
 255:GrannyChordApp.cpp ****       } 
 6503              		.loc 3 255 22 is_stmt 0 view .LVU1859
 6504 015a 2846     		mov	r0, r5
 6505 015c FFF7FEFF 		bl	_ZN14GrannyChordApp13RecordOutToSDEv
 6506              	.LVL482:
 6507              	.L309:
 261:GrannyChordApp.cpp ****       last_action_time_ = time_now;
 6508              		.loc 3 261 7 is_stmt 1 view .LVU1860
 261:GrannyChordApp.cpp ****       last_action_time_ = time_now;
 6509              		.loc 3 261 35 is_stmt 0 view .LVU1861
 6510 0160 0123     		movs	r3, #1
 262:GrannyChordApp.cpp ****     }
 6511              		.loc 3 262 25 view .LVU1862
 6512 0162 C4F89861 		str	r6, [r4, #408]
 261:GrannyChordApp.cpp ****       last_action_time_ = time_now;
 6513              		.loc 3 261 35 view .LVU1863
 6514 0166 84F89E31 		strb	r3, [r4, #414]
 262:GrannyChordApp.cpp ****     }
 6515              		.loc 3 262 7 is_stmt 1 view .LVU1864
 6516 016a DDE7     		b	.L287
 6517              	.LVL483:
 6518              	.L308:
 258:GrannyChordApp.cpp ****         FinishRecording();
 6519              		.loc 3 258 9 view .LVU1865
 258:GrannyChordApp.cpp ****         FinishRecording();
 6520              		.loc 3 258 9 view .LVU1866
 6521              	.LBB986:
 6522              	.LBI986:
 175:../libDaisy/src/util/WavWriter.h ****     {
 6523              		.loc 9 175 18 view .LVU1867
 175:../libDaisy/src/util/WavWriter.h ****     {
 6524              		.loc 9 175 18 is_stmt 0 view .LVU1868
ARM GAS  /var/folders/2p/02m_5p7958535cp2tpgps0400000gn/T//ccgOSWw9.s 			page 181


 6525              	.LBE986:
 6526              	.LBB989:
 6527              	.LBI989:
 126:../libDaisy/src/daisy_seed.h ****     {
 6528              		.loc 5 126 17 is_stmt 1 view .LVU1869
 6529              	.LBE989:
 6530              	.LBB992:
 6531              	.LBB987:
 177:../libDaisy/src/util/WavWriter.h ****     }
 6532              		.loc 9 177 23 is_stmt 0 view .LVU1870
 6533 016c 05F58043 		add	r3, r5, #16384
 6534              	.LBE987:
 6535              	.LBE992:
 6536              	.LBB993:
 6537              	.LBB990:
 6538              		.loc 5 128 23 view .LVU1871
 6539 0170 0D48     		ldr	r0, .L325+8
 6540              	.LBE990:
 6541              	.LBE993:
 6542              	.LBB994:
 6543              	.LBB988:
 177:../libDaisy/src/util/WavWriter.h ****     }
 6544              		.loc 9 177 16 view .LVU1872
 6545 0172 D3F8342F 		ldr	r2, [r3, #3892]
 177:../libDaisy/src/util/WavWriter.h ****     }
 6546              		.loc 9 177 48 view .LVU1873
 6547 0176 03F60873 		addw	r3, r3, #3848
 177:../libDaisy/src/util/WavWriter.h ****     }
 6548              		.loc 9 177 16 view .LVU1874
 6549 017a 07EE902A 		vmov	s15, r2	@ int
 177:../libDaisy/src/util/WavWriter.h ****     }
 6550              		.loc 9 177 48 view .LVU1875
 6551 017e D3ED0D6A 		vldr.32	s13, [r3, #52]
 177:../libDaisy/src/util/WavWriter.h ****     }
 6552              		.loc 9 177 16 view .LVU1876
 6553 0182 F8EE677A 		vcvt.f32.u32	s15, s15
 177:../libDaisy/src/util/WavWriter.h ****     }
 6554              		.loc 9 177 48 view .LVU1877
 6555 0186 87EEA67A 		vdiv.f32	s14, s15, s13
 6556              	.LBE988:
 6557              	.LBE994:
 6558              	.LBB995:
 6559              	.LBB991:
 6560              		.loc 5 128 23 view .LVU1878
 6561 018a B7EEC77A 		vcvt.f64.f32	d7, s14
 6562 018e 53EC172B 		vmov	r2, r3, d7
 6563 0192 FFF7FEFF 		bl	_ZN5daisy6LoggerILNS_17LoggerDestinationE1EE9PrintLineEPKcz
 6564              	.LVL484:
 6565              		.loc 5 128 23 view .LVU1879
 6566              	.LBE991:
 6567              	.LBE995:
 259:GrannyChordApp.cpp ****       }
 6568              		.loc 3 259 9 is_stmt 1 view .LVU1880
 259:GrannyChordApp.cpp ****       }
 6569              		.loc 3 259 24 is_stmt 0 view .LVU1881
 6570 0196 2846     		mov	r0, r5
 6571 0198 FFF7FEFF 		bl	_ZN14GrannyChordApp15FinishRecordingEv
ARM GAS  /var/folders/2p/02m_5p7958535cp2tpgps0400000gn/T//ccgOSWw9.s 			page 182


 6572              	.LVL485:
 6573 019c E0E7     		b	.L309
 6574              	.L326:
 6575 019e 00BF     		.align	2
 6576              	.L325:
 6577 01a0 00007A44 		.word	1148846080
 6578 01a4 00000000 		.word	.LC27
 6579 01a8 13000000 		.word	.LC28
 6580              	.LBE996:
 6581              	.LBE997:
 6582              		.cfi_endproc
 6583              	.LFE4911:
 6585              		.section	.rodata._ZN14GrannyChordApp8UpdateUIEv.str1.1,"aMS",%progbits,1
 6586              	.LC29:
 6587 0000 73776974 		.ascii	"switching states\000"
 6587      6368696E 
 6587      67207374 
 6587      61746573 
 6587      00
 6588              		.section	.text._ZN14GrannyChordApp8UpdateUIEv,"ax",%progbits
 6589              		.align	1
 6590              		.global	_ZN14GrannyChordApp8UpdateUIEv
 6591              		.syntax unified
 6592              		.thumb
 6593              		.thumb_func
 6595              	_ZN14GrannyChordApp8UpdateUIEv:
 6596              	.LVL486:
 6597              	.LFB4906:
  77:GrannyChordApp.cpp ****   pod_.ProcessDigitalControls();
 6598              		.loc 3 77 32 is_stmt 1 view -0
 6599              		.cfi_startproc
 6600              		@ args = 0, pretend = 0, frame = 0
 6601              		@ frame_needed = 0, uses_anonymous_args = 0
  78:GrannyChordApp.cpp **** 
 6602              		.loc 3 78 3 view .LVU1883
  77:GrannyChordApp.cpp ****   pod_.ProcessDigitalControls();
 6603              		.loc 3 77 32 is_stmt 0 view .LVU1884
 6604 0000 10B5     		push	{r4, lr}
 6605              		.cfi_def_cfa_offset 8
 6606              		.cfi_offset 4, -8
 6607              		.cfi_offset 14, -4
  77:GrannyChordApp.cpp ****   pod_.ProcessDigitalControls();
 6608              		.loc 3 77 32 view .LVU1885
 6609 0002 0446     		mov	r4, r0
  78:GrannyChordApp.cpp **** 
 6610              		.loc 3 78 30 view .LVU1886
 6611 0004 C069     		ldr	r0, [r0, #28]
 6612              	.LVL487:
  78:GrannyChordApp.cpp **** 
 6613              		.loc 3 78 30 view .LVU1887
 6614 0006 FFF7FEFF 		bl	_ZN5daisy8DaisyPod22ProcessDigitalControlsEv
 6615              	.LVL488:
  80:GrannyChordApp.cpp ****   else if (pod_.encoder.FallingEdge()) HandleEncoderPressed();
 6616              		.loc 3 80 3 is_stmt 1 view .LVU1888
 6617              	.LBB1008:
 6618              	.LBI1008:
  43:../libDaisy/src/hid/encoder.h **** 
ARM GAS  /var/folders/2p/02m_5p7958535cp2tpgps0400000gn/T//ccgOSWw9.s 			page 183


  44:../libDaisy/src/hid/encoder.h ****     /** Returns true while the encoder is held down.*/
  45:../libDaisy/src/hid/encoder.h ****     inline bool Pressed() const { return sw_.Pressed(); }
  46:../libDaisy/src/hid/encoder.h **** 
  47:../libDaisy/src/hid/encoder.h ****     /** Returns the time in milliseconds that the encoder has been held down. */
  48:../libDaisy/src/hid/encoder.h ****     inline float TimeHeldMs() const { return sw_.TimeHeldMs(); }
 6619              		.loc 7 48 18 view .LVU1889
 6620              	.LBB1009:
 6621              		.loc 7 48 39 view .LVU1890
 6622              		.loc 7 48 60 is_stmt 0 view .LVU1891
 6623 000a E069     		ldr	r0, [r4, #28]
 6624 000c 4830     		adds	r0, r0, #72
 6625 000e FFF7FEFF 		bl	_ZNK5daisy6Switch10TimeHeldMsEv
 6626              	.LVL489:
 6627              		.loc 7 48 60 view .LVU1892
 6628              	.LBE1009:
 6629              	.LBE1008:
  80:GrannyChordApp.cpp ****   else if (pod_.encoder.FallingEdge()) HandleEncoderPressed();
 6630              		.loc 3 80 3 view .LVU1893
 6631 0012 DFED1E7A 		vldr.32	s15, .L345
 6632 0016 B4EEE70A 		vcmpe.f32	s0, s15
 6633 001a F1EE10FA 		vmrs	APSR_nzcv, FPSCR
 6634 001e 26DD     		ble	.L344
  80:GrannyChordApp.cpp ****   else if (pod_.encoder.FallingEdge()) HandleEncoderPressed();
 6635              		.loc 3 80 44 is_stmt 1 discriminator 1 view .LVU1894
  80:GrannyChordApp.cpp ****   else if (pod_.encoder.FallingEdge()) HandleEncoderPressed();
 6636              		.loc 3 80 66 is_stmt 0 discriminator 1 view .LVU1895
 6637 0020 2046     		mov	r0, r4
 6638 0022 FFF7FEFF 		bl	_ZN14GrannyChordApp22HandleEncoderLongPressEv
 6639              	.LVL490:
 6640              	.L330:
  83:GrannyChordApp.cpp ****     ButtonHandler();
 6641              		.loc 3 83 3 is_stmt 1 view .LVU1896
 6642 0026 D4F8D431 		ldr	r3, [r4, #468]
 6643 002a 022B     		cmp	r3, #2
 6644 002c 02D1     		bne	.L331
  84:GrannyChordApp.cpp ****   }
 6645              		.loc 3 84 5 view .LVU1897
  84:GrannyChordApp.cpp ****   }
 6646              		.loc 3 84 18 is_stmt 0 view .LVU1898
 6647 002e 2046     		mov	r0, r4
 6648 0030 FFF7FEFF 		bl	_ZN14GrannyChordApp13ButtonHandlerEv
 6649              	.LVL491:
 6650              	.L331:
  87:GrannyChordApp.cpp ****   if (encoder_inc!=0){
 6651              		.loc 3 87 3 is_stmt 1 view .LVU1899
  87:GrannyChordApp.cpp ****   if (encoder_inc!=0){
 6652              		.loc 3 87 25 is_stmt 0 view .LVU1900
 6653 0034 E369     		ldr	r3, [r4, #28]
 6654              	.LVL492:
 6655              	.LBB1010:
 6656              	.LBI1010:
  36:../libDaisy/src/hid/encoder.h **** 
 6657              		.loc 7 36 20 is_stmt 1 view .LVU1901
 6658              	.LBB1011:
  36:../libDaisy/src/hid/encoder.h **** 
 6659              		.loc 7 36 40 view .LVU1902
  36:../libDaisy/src/hid/encoder.h **** 
ARM GAS  /var/folders/2p/02m_5p7958535cp2tpgps0400000gn/T//ccgOSWw9.s 			page 184


 6660              		.loc 7 36 56 is_stmt 0 view .LVU1903
 6661 0036 93F84420 		ldrb	r2, [r3, #68]	@ zero_extendqisi2
 6662 003a 22B1     		cbz	r2, .L332
 6663 003c 596E     		ldr	r1, [r3, #100]
 6664              	.LVL493:
  36:../libDaisy/src/hid/encoder.h **** 
 6665              		.loc 7 36 56 view .LVU1904
 6666              	.LBE1011:
 6667              	.LBE1010:
  88:GrannyChordApp.cpp ****     HandleEncoderIncrement(encoder_inc);
 6668              		.loc 3 88 3 is_stmt 1 view .LVU1905
 6669 003e 11B1     		cbz	r1, .L332
  89:GrannyChordApp.cpp ****   }
 6670              		.loc 3 89 5 view .LVU1906
  89:GrannyChordApp.cpp ****   }
 6671              		.loc 3 89 27 is_stmt 0 view .LVU1907
 6672 0040 2046     		mov	r0, r4
 6673 0042 FFF7FEFF 		bl	_ZN14GrannyChordApp22HandleEncoderIncrementEi
 6674              	.LVL494:
 6675              	.L332:
  91:GrannyChordApp.cpp ****     #ifdef DEBUG_MODE
 6676              		.loc 3 91 3 is_stmt 1 view .LVU1908
 6677 0046 D4E97513 		ldrd	r1, r3, [r4, #468]
 6678 004a 9942     		cmp	r1, r3
 6679 004c 1CD0     		beq	.L327
  93:GrannyChordApp.cpp ****     DebugPrint(pod_, "switching states");
 6680              		.loc 3 93 5 view .LVU1909
  93:GrannyChordApp.cpp ****     DebugPrint(pod_, "switching states");
 6681              		.loc 3 93 20 is_stmt 0 view .LVU1910
 6682 004e 2046     		mov	r0, r4
 6683 0050 FFF7FEFF 		bl	_ZN14GrannyChordApp15DebugPrintStateE8AppState
 6684              	.LVL495:
  94:GrannyChordApp.cpp ****     DebugPrintState(next_state_);
 6685              		.loc 3 94 5 is_stmt 1 view .LVU1911
  94:GrannyChordApp.cpp ****     DebugPrintState(next_state_);
 6686              		.loc 3 94 5 view .LVU1912
 6687              	.LBB1012:
 6688              	.LBI1012:
 126:../libDaisy/src/daisy_seed.h ****     {
 6689              		.loc 5 126 17 view .LVU1913
 6690              	.LBB1013:
 6691              		.loc 5 128 23 is_stmt 0 view .LVU1914
 6692 0054 0E48     		ldr	r0, .L345+4
 6693 0056 FFF7FEFF 		bl	_ZN5daisy6LoggerILNS_17LoggerDestinationE1EE9PrintLineEPKcz
 6694              	.LVL496:
 6695              		.loc 5 128 23 view .LVU1915
 6696              	.LBE1013:
 6697              	.LBE1012:
  95:GrannyChordApp.cpp ****     #endif
 6698              		.loc 3 95 5 is_stmt 1 view .LVU1916
  95:GrannyChordApp.cpp ****     #endif
 6699              		.loc 3 95 20 is_stmt 0 view .LVU1917
 6700 005a 2046     		mov	r0, r4
 6701 005c D4F8D811 		ldr	r1, [r4, #472]
 6702 0060 FFF7FEFF 		bl	_ZN14GrannyChordApp15DebugPrintStateE8AppState
 6703              	.LVL497:
  97:GrannyChordApp.cpp ****   }
ARM GAS  /var/folders/2p/02m_5p7958535cp2tpgps0400000gn/T//ccgOSWw9.s 			page 185


 6704              		.loc 3 97 5 is_stmt 1 view .LVU1918
  97:GrannyChordApp.cpp ****   }
 6705              		.loc 3 97 22 is_stmt 0 view .LVU1919
 6706 0064 2046     		mov	r0, r4
  99:GrannyChordApp.cpp **** 
 6707              		.loc 3 99 1 view .LVU1920
 6708 0066 BDE81040 		pop	{r4, lr}
 6709              		.cfi_remember_state
 6710              		.cfi_restore 14
 6711              		.cfi_restore 4
 6712              		.cfi_def_cfa_offset 0
 6713              	.LVL498:
  97:GrannyChordApp.cpp ****   }
 6714              		.loc 3 97 22 view .LVU1921
 6715 006a FFF7FEBF 		b	_ZN14GrannyChordApp17HandleStateChangeEv
 6716              	.LVL499:
 6717              	.L344:
 6718              		.cfi_restore_state
  81:GrannyChordApp.cpp **** 
 6719              		.loc 3 81 8 is_stmt 1 view .LVU1922
  81:GrannyChordApp.cpp **** 
 6720              		.loc 3 81 12 is_stmt 0 view .LVU1923
 6721 006e E369     		ldr	r3, [r4, #28]
 6722              	.LVL500:
 6723              	.LBB1014:
 6724              	.LBI1014:
  42:../libDaisy/src/hid/encoder.h **** 
 6725              		.loc 7 42 17 is_stmt 1 view .LVU1924
 6726              	.LBE1014:
  42:../libDaisy/src/hid/encoder.h **** 
 6727              		.loc 7 42 39 view .LVU1925
 6728              	.LBB1017:
 6729              	.LBB1015:
 6730              	.LBI1015:
  73:../libDaisy/src/hid/switch.h ****     {
 6731              		.loc 1 73 17 view .LVU1926
 6732              	.LBB1016:
  75:../libDaisy/src/hid/switch.h ****     }
 6733              		.loc 1 75 9 view .LVU1927
  75:../libDaisy/src/hid/switch.h ****     }
 6734              		.loc 1 75 25 is_stmt 0 view .LVU1928
 6735 0070 93F84C20 		ldrb	r2, [r3, #76]	@ zero_extendqisi2
 6736 0074 002A     		cmp	r2, #0
 6737 0076 D6D0     		beq	.L330
 6738              	.LVL501:
  75:../libDaisy/src/hid/switch.h ****     }
 6739              		.loc 1 75 25 view .LVU1929
 6740              	.LBE1016:
 6741              	.LBE1015:
 6742              	.LBE1017:
  81:GrannyChordApp.cpp **** 
 6743              		.loc 3 81 8 view .LVU1930
 6744 0078 93F85230 		ldrb	r3, [r3, #82]	@ zero_extendqisi2
 6745 007c 802B     		cmp	r3, #128
 6746 007e D2D1     		bne	.L330
  81:GrannyChordApp.cpp **** 
 6747              		.loc 3 81 40 is_stmt 1 discriminator 1 view .LVU1931
ARM GAS  /var/folders/2p/02m_5p7958535cp2tpgps0400000gn/T//ccgOSWw9.s 			page 186


  81:GrannyChordApp.cpp **** 
 6748              		.loc 3 81 60 is_stmt 0 discriminator 1 view .LVU1932
 6749 0080 2046     		mov	r0, r4
 6750 0082 FFF7FEFF 		bl	_ZN14GrannyChordApp20HandleEncoderPressedEv
 6751              	.LVL502:
 6752 0086 CEE7     		b	.L330
 6753              	.L327:
  99:GrannyChordApp.cpp **** 
 6754              		.loc 3 99 1 view .LVU1933
 6755 0088 10BD     		pop	{r4, pc}
 6756              	.LVL503:
 6757              	.L346:
  99:GrannyChordApp.cpp **** 
 6758              		.loc 3 99 1 view .LVU1934
 6759 008a 00BF     		.align	2
 6760              	.L345:
 6761 008c 00007A44 		.word	1148846080
 6762 0090 00000000 		.word	.LC29
 6763              		.cfi_endproc
 6764              	.LFE4906:
 6766              		.section	.rodata._ZN14GrannyChordApp3RunEv.str1.1,"aMS",%progbits,1
 6767              	.LC30:
 6768 0000 61707020 		.ascii	"app is running\000"
 6768      69732072 
 6768      756E6E69 
 6768      6E6700
 6769              		.section	.text._ZN14GrannyChordApp3RunEv,"ax",%progbits
 6770              		.align	1
 6771              		.global	_ZN14GrannyChordApp3RunEv
 6772              		.syntax unified
 6773              		.thumb
 6774              		.thumb_func
 6776              	_ZN14GrannyChordApp3RunEv:
 6777              	.LVL504:
 6778              	.LFB4905:
  51:GrannyChordApp.cpp ****   pod_.seed.PrintLine("app is running");
 6779              		.loc 3 51 27 is_stmt 1 view -0
 6780              		.cfi_startproc
 6781              		@ Volatile: function does not return.
 6782              		@ args = 0, pretend = 0, frame = 8
 6783              		@ frame_needed = 0, uses_anonymous_args = 0
  52:GrannyChordApp.cpp ****   while(true){
 6784              		.loc 3 52 3 view .LVU1936
 6785              	.LBB1028:
 6786              	.LBI1028:
 126:../libDaisy/src/daisy_seed.h ****     {
 6787              		.loc 5 126 17 view .LVU1937
 6788              	.LBE1028:
  51:GrannyChordApp.cpp ****   pod_.seed.PrintLine("app is running");
 6789              		.loc 3 51 27 is_stmt 0 view .LVU1938
 6790 0000 0446     		mov	r4, r0
 6791 0002 07B5     		push	{r0, r1, r2, lr}
 6792              		.cfi_def_cfa_offset 16
 6793              		.cfi_offset 14, -4
 6794              	.LBB1030:
 6795              	.LBB1029:
 6796              		.loc 5 128 23 view .LVU1939
ARM GAS  /var/folders/2p/02m_5p7958535cp2tpgps0400000gn/T//ccgOSWw9.s 			page 187


 6797 0004 2448     		ldr	r0, .L363
 6798              	.LVL505:
 6799              		.loc 5 128 23 view .LVU1940
 6800 0006 FFF7FEFF 		bl	_ZN5daisy6LoggerILNS_17LoggerDestinationE1EE9PrintLineEPKcz
 6801              	.LVL506:
 6802              	.L354:
 6803              		.loc 5 128 23 view .LVU1941
 6804              	.LBE1029:
 6805              	.LBE1030:
  53:GrannyChordApp.cpp ****     // #ifdef DEBUG_MODE
 6806              		.loc 3 53 3 is_stmt 1 view .LVU1942
  63:GrannyChordApp.cpp ****       sd_writer_.Write();
 6807              		.loc 3 63 5 view .LVU1943
  63:GrannyChordApp.cpp ****       sd_writer_.Write();
 6808              		.loc 3 63 9 is_stmt 0 view .LVU1944
 6809 000a 04F55046 		add	r6, r4, #53248
  63:GrannyChordApp.cpp ****       sd_writer_.Write();
 6810              		.loc 3 63 5 view .LVU1945
 6811 000e 96F88431 		ldrb	r3, [r6, #388]	@ zero_extendqisi2
 6812 0012 CBB3     		cbz	r3, .L349
 6813              	.LBB1031:
 6814              	.LBB1032:
 128:../libDaisy/src/util/WavWriter.h ****         {
 6815              		.loc 9 128 12 view .LVU1946
 6816 0014 04F54043 		add	r3, r4, #49152
 6817              	.LBE1032:
 6818              	.LBE1031:
  64:GrannyChordApp.cpp ****       if (sd_writer_.GetLengthSeconds()>120){
 6819              		.loc 3 64 23 view .LVU1947
 6820 0018 04F59E45 		add	r5, r4, #20224
 6821              	.LBB1037:
 6822              	.LBB1035:
 128:../libDaisy/src/util/WavWriter.h ****         {
 6823              		.loc 9 128 12 view .LVU1948
 6824 001c D3F8481F 		ldr	r1, [r3, #3912]
 6825              	.LBE1035:
 6826              	.LBE1037:
  64:GrannyChordApp.cpp ****       if (sd_writer_.GetLengthSeconds()>120){
 6827              		.loc 3 64 23 view .LVU1949
 6828 0020 0835     		adds	r5, r5, #8
  64:GrannyChordApp.cpp ****       if (sd_writer_.GetLengthSeconds()>120){
 6829              		.loc 3 64 7 is_stmt 1 view .LVU1950
 6830              	.LVL507:
 6831              	.LBB1038:
 6832              	.LBI1031:
 126:../libDaisy/src/util/WavWriter.h ****     {
 6833              		.loc 9 126 10 view .LVU1951
 6834              	.LBB1036:
 128:../libDaisy/src/util/WavWriter.h ****         {
 6835              		.loc 9 128 41 is_stmt 0 view .LVU1952
 6836 0022 B1B1     		cbz	r1, .L350
 6837              	.LVL508:
 6838              	.LBB1033:
 6839              	.LBI1033:
 169:../libDaisy/src/util/WavWriter.h **** 
 6840              		.loc 9 169 17 is_stmt 1 view .LVU1953
 169:../libDaisy/src/util/WavWriter.h **** 
ARM GAS  /var/folders/2p/02m_5p7958535cp2tpgps0400000gn/T//ccgOSWw9.s 			page 188


 6841              		.loc 9 169 17 is_stmt 0 view .LVU1954
 6842              	.LBE1033:
 128:../libDaisy/src/util/WavWriter.h ****         {
 6843              		.loc 9 128 41 view .LVU1955
 6844 0024 93F84C2F 		ldrb	r2, [r3, #3916]	@ zero_extendqisi2
 6845 0028 9AB1     		cbz	r2, .L350
 6846              	.LBB1034:
 131:../libDaisy/src/util/WavWriter.h ****             //offset          = bstate_ == BufferState::FLUSH0 ? 0 : transfer_size;
 6847              		.loc 9 131 26 view .LVU1956
 6848 002a 0022     		movs	r2, #0
 133:../libDaisy/src/util/WavWriter.h ****             bstate_ = BufferState::IDLE;
 6849              		.loc 9 133 54 view .LVU1957
 6850 002c 0129     		cmp	r1, #1
 135:../libDaisy/src/util/WavWriter.h ****         }
 6851              		.loc 9 135 20 view .LVU1958
 6852 002e 05F50040 		add	r0, r5, #32768
 133:../libDaisy/src/util/WavWriter.h ****             bstate_ = BufferState::IDLE;
 6853              		.loc 9 133 54 view .LVU1959
 6854 0032 0CBF     		ite	eq
 6855 0034 1146     		moveq	r1, r2
 6856 0036 4FF48051 		movne	r1, #4096
 6857              	.LVL509:
 134:../libDaisy/src/util/WavWriter.h ****             f_write(&fp_, &transfer_buff[offset], transfer_size, &bw);
 6858              		.loc 9 134 21 view .LVU1960
 6859 003a C3F8482F 		str	r2, [r3, #3912]
 135:../libDaisy/src/util/WavWriter.h ****         }
 6860              		.loc 9 135 20 view .LVU1961
 6861 003e 4830     		adds	r0, r0, #72
 135:../libDaisy/src/util/WavWriter.h ****         }
 6862              		.loc 9 135 41 view .LVU1962
 6863 0040 1031     		adds	r1, r1, #16
 6864              	.LVL510:
 131:../libDaisy/src/util/WavWriter.h ****             //offset          = bstate_ == BufferState::FLUSH0 ? 0 : transfer_size;
 6865              		.loc 9 131 26 view .LVU1963
 6866 0042 0192     		str	r2, [sp, #4]
 135:../libDaisy/src/util/WavWriter.h ****         }
 6867              		.loc 9 135 20 view .LVU1964
 6868 0044 01AB     		add	r3, sp, #4
 6869 0046 4FF48042 		mov	r2, #16384
 6870 004a 05EB8101 		add	r1, r5, r1, lsl #2
 6871              	.LVL511:
 135:../libDaisy/src/util/WavWriter.h ****         }
 6872              		.loc 9 135 20 view .LVU1965
 6873 004e FFF7FEFF 		bl	f_write
 6874              	.LVL512:
 6875              	.L350:
 135:../libDaisy/src/util/WavWriter.h ****         }
 6876              		.loc 9 135 20 view .LVU1966
 6877              	.LBE1034:
 6878              	.LBE1036:
 6879              	.LBE1038:
  65:GrannyChordApp.cpp ****         sd_writer_.SaveFile();
 6880              		.loc 3 65 7 is_stmt 1 view .LVU1967
 6881              	.LBB1039:
 6882              	.LBI1039:
 175:../libDaisy/src/util/WavWriter.h ****     {
 6883              		.loc 9 175 18 view .LVU1968
ARM GAS  /var/folders/2p/02m_5p7958535cp2tpgps0400000gn/T//ccgOSWw9.s 			page 189


 6884              	.LBB1040:
 177:../libDaisy/src/util/WavWriter.h ****     }
 6885              		.loc 9 177 23 is_stmt 0 view .LVU1969
 6886 0052 04F58043 		add	r3, r4, #16384
 177:../libDaisy/src/util/WavWriter.h ****     }
 6887              		.loc 9 177 16 view .LVU1970
 6888 0056 D3F8342F 		ldr	r2, [r3, #3892]
 177:../libDaisy/src/util/WavWriter.h ****     }
 6889              		.loc 9 177 48 view .LVU1971
 6890 005a 03F60873 		addw	r3, r3, #3848
 177:../libDaisy/src/util/WavWriter.h ****     }
 6891              		.loc 9 177 16 view .LVU1972
 6892 005e 07EE902A 		vmov	s15, r2	@ int
 177:../libDaisy/src/util/WavWriter.h ****     }
 6893              		.loc 9 177 48 view .LVU1973
 6894 0062 D3ED0D6A 		vldr.32	s13, [r3, #52]
 177:../libDaisy/src/util/WavWriter.h ****     }
 6895              		.loc 9 177 16 view .LVU1974
 6896 0066 F8EE677A 		vcvt.f32.u32	s15, s15
 177:../libDaisy/src/util/WavWriter.h ****     }
 6897              		.loc 9 177 48 view .LVU1975
 6898 006a 87EEA67A 		vdiv.f32	s14, s15, s13
 6899              	.LBE1040:
 6900              	.LBE1039:
  65:GrannyChordApp.cpp ****         sd_writer_.SaveFile();
 6901              		.loc 3 65 7 view .LVU1976
 6902 006e DFED0B7A 		vldr.32	s15, .L363+4
 6903 0072 B4EEE77A 		vcmpe.f32	s14, s15
 6904 0076 F1EE10FA 		vmrs	APSR_nzcv, FPSCR
 6905 007a 05DD     		ble	.L349
  66:GrannyChordApp.cpp ****         recording_out_ = false;
 6906              		.loc 3 66 9 is_stmt 1 view .LVU1977
  66:GrannyChordApp.cpp ****         recording_out_ = false;
 6907              		.loc 3 66 28 is_stmt 0 view .LVU1978
 6908 007c 2846     		mov	r0, r5
 6909 007e FFF7FEFF 		bl	_ZN5daisy9WavWriterILj16384EE8SaveFileEv
 6910              	.LVL513:
  67:GrannyChordApp.cpp ****       }
 6911              		.loc 3 67 9 is_stmt 1 view .LVU1979
  67:GrannyChordApp.cpp ****       }
 6912              		.loc 3 67 24 is_stmt 0 view .LVU1980
 6913 0082 0023     		movs	r3, #0
 6914 0084 86F88431 		strb	r3, [r6, #388]
 6915              	.L349:
  70:GrannyChordApp.cpp ****     UpdateSynthParams();
 6916              		.loc 3 70 5 is_stmt 1 view .LVU1981
  70:GrannyChordApp.cpp ****     UpdateSynthParams();
 6917              		.loc 3 70 13 is_stmt 0 view .LVU1982
 6918 0088 2046     		mov	r0, r4
 6919 008a FFF7FEFF 		bl	_ZN14GrannyChordApp8UpdateUIEv
 6920              	.LVL514:
  71:GrannyChordApp.cpp ****     // System::Delay(1);
 6921              		.loc 3 71 5 is_stmt 1 view .LVU1983
  71:GrannyChordApp.cpp ****     // System::Delay(1);
 6922              		.loc 3 71 22 is_stmt 0 view .LVU1984
 6923 008e 2046     		mov	r0, r4
 6924 0090 FFF7FEFF 		bl	_ZN14GrannyChordApp17UpdateSynthParamsEv
ARM GAS  /var/folders/2p/02m_5p7958535cp2tpgps0400000gn/T//ccgOSWw9.s 			page 190


 6925              	.LVL515:
  53:GrannyChordApp.cpp ****     // #ifdef DEBUG_MODE
 6926              		.loc 3 53 3 is_stmt 1 view .LVU1985
  63:GrannyChordApp.cpp ****       sd_writer_.Write();
 6927              		.loc 3 63 5 is_stmt 0 view .LVU1986
 6928 0094 B9E7     		b	.L354
 6929              	.L364:
 6930 0096 00BF     		.align	2
 6931              	.L363:
 6932 0098 00000000 		.word	.LC30
 6933 009c 0000F042 		.word	1123024896
 6934              		.cfi_endproc
 6935              	.LFE4905:
 6937              		.global	_ZN14GrannyChordApp9instance_E
 6938              		.section	.bss._ZN14GrannyChordApp9instance_E,"aw",%nobits
 6939              		.align	2
 6940              		.set	.LANCHOR0,. + 0
 6943              	_ZN14GrannyChordApp9instance_E:
 6944 0000 00000000 		.space	4
 6945              		.text
 6946              	.Letext0:
 6947              		.file 19 "/Library/DaisyToolchain/0.2.0/arm/arm-none-eabi/include/machine/_default_types.h"
 6948              		.file 20 "/Library/DaisyToolchain/0.2.0/arm/arm-none-eabi/include/sys/_stdint.h"
 6949              		.file 21 "/Library/DaisyToolchain/0.2.0/arm/arm-none-eabi/include/stdint.h"
 6950              		.file 22 "/Library/DaisyToolchain/0.2.0/arm/lib/gcc/arm-none-eabi/10.3.1/include/stddef.h"
 6951              		.file 23 "/Library/DaisyToolchain/0.2.0/arm/arm-none-eabi/include/c++/10.3.1/cstdlib"
 6952              		.file 24 "/Library/DaisyToolchain/0.2.0/arm/arm-none-eabi/include/c++/10.3.1/cstdint"
 6953              		.file 25 "/Library/DaisyToolchain/0.2.0/arm/arm-none-eabi/include/c++/10.3.1/arm-none-eabi/thumb/v
 6954              		.file 26 "/Library/DaisyToolchain/0.2.0/arm/arm-none-eabi/include/c++/10.3.1/type_traits"
 6955              		.file 27 "/Library/DaisyToolchain/0.2.0/arm/arm-none-eabi/include/c++/10.3.1/debug/debug.h"
 6956              		.file 28 "/Library/DaisyToolchain/0.2.0/arm/arm-none-eabi/include/c++/10.3.1/bits/algorithmfwd.h"
 6957              		.file 29 "/Library/DaisyToolchain/0.2.0/arm/arm-none-eabi/include/c++/10.3.1/bits/stl_pair.h"
 6958              		.file 30 "/Library/DaisyToolchain/0.2.0/arm/arm-none-eabi/include/c++/10.3.1/bits/exception_ptr.h"
 6959              		.file 31 "/Library/DaisyToolchain/0.2.0/arm/arm-none-eabi/include/c++/10.3.1/initializer_list"
 6960              		.file 32 "/Library/DaisyToolchain/0.2.0/arm/arm-none-eabi/include/c++/10.3.1/cstdarg"
 6961              		.file 33 "/Library/DaisyToolchain/0.2.0/arm/arm-none-eabi/include/c++/10.3.1/cstdio"
 6962              		.file 34 "/Library/DaisyToolchain/0.2.0/arm/arm-none-eabi/include/c++/10.3.1/cstring"
 6963              		.file 35 "/Library/DaisyToolchain/0.2.0/arm/arm-none-eabi/include/c++/10.3.1/cwchar"
 6964              		.file 36 "/Library/DaisyToolchain/0.2.0/arm/arm-none-eabi/include/c++/10.3.1/clocale"
 6965              		.file 37 "/Library/DaisyToolchain/0.2.0/arm/arm-none-eabi/include/c++/10.3.1/bits/basic_string.h"
 6966              		.file 38 "/Library/DaisyToolchain/0.2.0/arm/arm-none-eabi/include/c++/10.3.1/bits/stl_iterator.h"
 6967              		.file 39 "/Library/DaisyToolchain/0.2.0/arm/arm-none-eabi/include/c++/10.3.1/bits/predefined_ops.h
 6968              		.file 40 "/Library/DaisyToolchain/0.2.0/arm/arm-none-eabi/include/sys/_types.h"
 6969              		.file 41 "/Library/DaisyToolchain/0.2.0/arm/arm-none-eabi/include/sys/reent.h"
 6970              		.file 42 "/Library/DaisyToolchain/0.2.0/arm/arm-none-eabi/include/sys/lock.h"
 6971              		.file 43 "/Library/DaisyToolchain/0.2.0/arm/arm-none-eabi/include/math.h"
 6972              		.file 44 "/Library/DaisyToolchain/0.2.0/arm/arm-none-eabi/include/stdlib.h"
 6973              		.file 45 "/Library/DaisyToolchain/0.2.0/arm/arm-none-eabi/include/c++/10.3.1/math.h"
 6974              		.file 46 "/Library/DaisyToolchain/0.2.0/arm/arm-none-eabi/include/c++/10.3.1/stdlib.h"
 6975              		.file 47 "../libDaisy/src/sys/system.h"
 6976              		.file 48 "../libDaisy/src/per/qspi.h"
 6977              		.file 49 "../libDaisy/src/per/dac.h"
 6978              		.file 50 "../libDaisy/src/per/sai.h"
 6979              		.file 51 "../libDaisy/src/hid/audio.h"
 6980              		.file 52 "../libDaisy/src/per/adc.h"
 6981              		.file 53 "../libDaisy/src/per/uart.h"
 6982              		.file 54 "../libDaisy/src/hid/MidiEvent.h"
ARM GAS  /var/folders/2p/02m_5p7958535cp2tpgps0400000gn/T//ccgOSWw9.s 			page 191


 6983              		.file 55 "../libDaisy/src/hid/midi_parser.h"
 6984              		.file 56 "../libDaisy/src/hid/usb.h"
 6985              		.file 57 "../libDaisy/src/hid/midi.h"
 6986              		.file 58 "../libDaisy/src/util/FIFO.h"
 6987              		.file 59 "../libDaisy/src/hid/ctrl.h"
 6988              		.file 60 "../libDaisy/src/hid/logger_impl.h"
 6989              		.file 61 "../libDaisy/src/per/sdmmc.h"
 6990              		.file 62 "../libDaisy/src/util/wav_format.h"
 6991              		.file 63 "../libDaisy/src/hid/led.h"
 6992              		.file 64 "../libDaisy/src/util/color.h"
 6993              		.file 65 "../libDaisy/src/hid/rgb_led.h"
 6994              		.file 66 "../libDaisy/src/dev/max11300.h"
 6995              		.file 67 "../libDaisy/src/sys/fatfs.h"
 6996              		.file 68 "../libDaisy/src/hid/logger.h"
 6997              		.file 69 "../libDaisy/src/daisy_pod.h"
 6998              		.file 70 "../libDaisy/src/per/gpio.h"
 6999              		.file 71 "../libDaisy/src/dev/sdram.h"
 7000              		.file 72 "/Library/DaisyToolchain/0.2.0/arm/lib/gcc/arm-none-eabi/10.3.1/include/stdarg.h"
 7001              		.file 73 "/Library/DaisyToolchain/0.2.0/arm/arm-none-eabi/include/stdio.h"
 7002              		.file 74 "../libDaisy/Middlewares/Third_Party/FatFs/src/integer.h"
 7003              		.file 75 "../libDaisy/Middlewares/Third_Party/FatFs/src/ff.h"
 7004              		.file 76 "/Library/DaisyToolchain/0.2.0/arm/arm-none-eabi/include/string.h"
 7005              		.file 77 "../DaisySP/Source/Control/adenv.h"
 7006              		.file 78 "../DaisySP/Source/Dynamics/limiter.h"
 7007              		.file 79 "../DaisySP/Source/Utility/delayline.h"
 7008              		.file 80 "../DaisySP/Source/Effects/chorus.h"
 7009              		.file 81 "../DaisySP/Source/../DaisySP-LGPL/Source/Dynamics/compressor.h"
 7010              		.file 82 "/Library/DaisyToolchain/0.2.0/arm/arm-none-eabi/include/wchar.h"
 7011              		.file 83 "/Library/DaisyToolchain/0.2.0/arm/arm-none-eabi/include/time.h"
 7012              		.file 84 "/Library/DaisyToolchain/0.2.0/arm/arm-none-eabi/include/locale.h"
 7013              		.file 85 "sample.h"
 7014              		.file 86 "../libDaisy/src/dev/sr_595.h"
 7015              		.file 87 "GrainPhasor.h"
 7016              		.file 88 "Grain.h"
 7017              		.file 89 "AppState.h"
 7018              		.file 90 "<built-in>"
ARM GAS  /var/folders/2p/02m_5p7958535cp2tpgps0400000gn/T//ccgOSWw9.s 			page 192


DEFINED SYMBOLS
                            *ABS*:0000000000000000 GrannyChordApp.cpp
/var/folders/2p/02m_5p7958535cp2tpgps0400000gn/T//ccgOSWw9.s:19     .text._ZNK5daisy6Switch10TimeHeldMsEv:0000000000000000 $t
/var/folders/2p/02m_5p7958535cp2tpgps0400000gn/T//ccgOSWw9.s:25     .text._ZNK5daisy6Switch10TimeHeldMsEv:0000000000000000 _ZNK5daisy6Switch10TimeHeldMsEv
/var/folders/2p/02m_5p7958535cp2tpgps0400000gn/T//ccgOSWw9.s:84     .text._ZNK5daisy6Switch10TimeHeldMsEv:0000000000000028 $d
/var/folders/2p/02m_5p7958535cp2tpgps0400000gn/T//ccgOSWw9.s:89     .text._ZN7daisysp7OnePole12SetFrequencyEf:0000000000000000 $t
/var/folders/2p/02m_5p7958535cp2tpgps0400000gn/T//ccgOSWw9.s:95     .text._ZN7daisysp7OnePole12SetFrequencyEf:0000000000000000 _ZN7daisysp7OnePole12SetFrequencyEf
/var/folders/2p/02m_5p7958535cp2tpgps0400000gn/T//ccgOSWw9.s:146    .text._ZN7daisysp7OnePole12SetFrequencyEf:0000000000000038 $d
/var/folders/2p/02m_5p7958535cp2tpgps0400000gn/T//ccgOSWw9.s:152    .text._ZN7daisysp7OnePole7ProcessEf:0000000000000000 $t
/var/folders/2p/02m_5p7958535cp2tpgps0400000gn/T//ccgOSWw9.s:158    .text._ZN7daisysp7OnePole7ProcessEf:0000000000000000 _ZN7daisysp7OnePole7ProcessEf
/var/folders/2p/02m_5p7958535cp2tpgps0400000gn/T//ccgOSWw9.s:207    .text._ZN7daisysp7OnePole7ProcessEf:0000000000000038 $d
/var/folders/2p/02m_5p7958535cp2tpgps0400000gn/T//ccgOSWw9.s:221    .text._ZN14GrannyChordApp12PrintCPULoadEv:0000000000000000 $t
/var/folders/2p/02m_5p7958535cp2tpgps0400000gn/T//ccgOSWw9.s:227    .text._ZN14GrannyChordApp12PrintCPULoadEv:0000000000000000 _ZN14GrannyChordApp12PrintCPULoadEv
/var/folders/2p/02m_5p7958535cp2tpgps0400000gn/T//ccgOSWw9.s:541    .text._ZN14GrannyChordApp12PrintCPULoadEv:00000000000000e0 $d
/var/folders/2p/02m_5p7958535cp2tpgps0400000gn/T//ccgOSWw9.s:555    .text._ZN14GrannyChordApp20HandleEncoderPressedEv:0000000000000000 $t
/var/folders/2p/02m_5p7958535cp2tpgps0400000gn/T//ccgOSWw9.s:561    .text._ZN14GrannyChordApp20HandleEncoderPressedEv:0000000000000000 _ZN14GrannyChordApp20HandleEncoderPressedEv
/var/folders/2p/02m_5p7958535cp2tpgps0400000gn/T//ccgOSWw9.s:608    .text._ZN14GrannyChordApp22HandleEncoderLongPressEv:0000000000000000 $t
/var/folders/2p/02m_5p7958535cp2tpgps0400000gn/T//ccgOSWw9.s:614    .text._ZN14GrannyChordApp22HandleEncoderLongPressEv:0000000000000000 _ZN14GrannyChordApp22HandleEncoderLongPressEv
/var/folders/2p/02m_5p7958535cp2tpgps0400000gn/T//ccgOSWw9.s:706    .text._ZN14GrannyChordApp22HandleButton1LongPressEv:0000000000000000 $t
/var/folders/2p/02m_5p7958535cp2tpgps0400000gn/T//ccgOSWw9.s:712    .text._ZN14GrannyChordApp22HandleButton1LongPressEv:0000000000000000 _ZN14GrannyChordApp22HandleButton1LongPressEv
/var/folders/2p/02m_5p7958535cp2tpgps0400000gn/T//ccgOSWw9.s:726    .text._ZN14GrannyChordApp22HandleButton2LongPressEv:0000000000000000 $t
/var/folders/2p/02m_5p7958535cp2tpgps0400000gn/T//ccgOSWw9.s:732    .text._ZN14GrannyChordApp22HandleButton2LongPressEv:0000000000000000 _ZN14GrannyChordApp22HandleButton2LongPressEv
/var/folders/2p/02m_5p7958535cp2tpgps0400000gn/T//ccgOSWw9.s:746    .text._ZN14GrannyChordApp19HandleFileSelectionEl:0000000000000000 $t
/var/folders/2p/02m_5p7958535cp2tpgps0400000gn/T//ccgOSWw9.s:752    .text._ZN14GrannyChordApp19HandleFileSelectionEl:0000000000000000 _ZN14GrannyChordApp19HandleFileSelectionEl
/var/folders/2p/02m_5p7958535cp2tpgps0400000gn/T//ccgOSWw9.s:876    .text._ZN14GrannyChordApp19HandleFileSelectionEl:0000000000000048 $d
/var/folders/2p/02m_5p7958535cp2tpgps0400000gn/T//ccgOSWw9.s:883    .text._ZN14GrannyChordApp22HandleEncoderIncrementEi:0000000000000000 $t
/var/folders/2p/02m_5p7958535cp2tpgps0400000gn/T//ccgOSWw9.s:889    .text._ZN14GrannyChordApp22HandleEncoderIncrementEi:0000000000000000 _ZN14GrannyChordApp22HandleEncoderIncrementEi
/var/folders/2p/02m_5p7958535cp2tpgps0400000gn/T//ccgOSWw9.s:937    .text._ZN14GrannyChordApp11InitFileMgrEv:0000000000000000 $t
/var/folders/2p/02m_5p7958535cp2tpgps0400000gn/T//ccgOSWw9.s:943    .text._ZN14GrannyChordApp11InitFileMgrEv:0000000000000000 _ZN14GrannyChordApp11InitFileMgrEv
/var/folders/2p/02m_5p7958535cp2tpgps0400000gn/T//ccgOSWw9.s:1014   .text._ZN14GrannyChordApp12InitPlaybackEv:0000000000000000 $t
/var/folders/2p/02m_5p7958535cp2tpgps0400000gn/T//ccgOSWw9.s:1020   .text._ZN14GrannyChordApp12InitPlaybackEv:0000000000000000 _ZN14GrannyChordApp12InitPlaybackEv
/var/folders/2p/02m_5p7958535cp2tpgps0400000gn/T//ccgOSWw9.s:1111   .text._ZN14GrannyChordApp12InitPlaybackEv:000000000000004c $d
/var/folders/2p/02m_5p7958535cp2tpgps0400000gn/T//ccgOSWw9.s:3164   .text._ZN14GrannyChordApp13AudioCallbackEPKPKfPPfj:0000000000000000 _ZN14GrannyChordApp13AudioCallbackEPKPKfPPfj
/var/folders/2p/02m_5p7958535cp2tpgps0400000gn/T//ccgOSWw9.s:1118   .text._ZN14GrannyChordApp12InitRecordInEv:0000000000000000 $t
/var/folders/2p/02m_5p7958535cp2tpgps0400000gn/T//ccgOSWw9.s:1124   .text._ZN14GrannyChordApp12InitRecordInEv:0000000000000000 _ZN14GrannyChordApp12InitRecordInEv
/var/folders/2p/02m_5p7958535cp2tpgps0400000gn/T//ccgOSWw9.s:1172   .text._ZN14GrannyChordApp13InitWavWriterEv:0000000000000000 $t
/var/folders/2p/02m_5p7958535cp2tpgps0400000gn/T//ccgOSWw9.s:1178   .text._ZN14GrannyChordApp13InitWavWriterEv:0000000000000000 _ZN14GrannyChordApp13InitWavWriterEv
/var/folders/2p/02m_5p7958535cp2tpgps0400000gn/T//ccgOSWw9.s:1392   .text._ZN14GrannyChordApp13InitWavWriterEv:00000000000000b4 $d
/var/folders/2p/02m_5p7958535cp2tpgps0400000gn/T//ccgOSWw9.s:1399   .text._ZN14GrannyChordApp6InitFXEv:0000000000000000 $t
/var/folders/2p/02m_5p7958535cp2tpgps0400000gn/T//ccgOSWw9.s:1405   .text._ZN14GrannyChordApp6InitFXEv:0000000000000000 _ZN14GrannyChordApp6InitFXEv
/var/folders/2p/02m_5p7958535cp2tpgps0400000gn/T//ccgOSWw9.s:1583   .text._ZN14GrannyChordApp6InitFXEv:0000000000000088 $d
/var/folders/2p/02m_5p7958535cp2tpgps0400000gn/T//ccgOSWw9.s:1591   .text._ZN14GrannyChordApp17InitPrevParamValsEv:0000000000000000 $t
/var/folders/2p/02m_5p7958535cp2tpgps0400000gn/T//ccgOSWw9.s:1597   .text._ZN14GrannyChordApp17InitPrevParamValsEv:0000000000000000 _ZN14GrannyChordApp17InitPrevParamValsEv
/var/folders/2p/02m_5p7958535cp2tpgps0400000gn/T//ccgOSWw9.s:1638   .text._ZN14GrannyChordApp4InitEPsS0_:0000000000000000 $t
/var/folders/2p/02m_5p7958535cp2tpgps0400000gn/T//ccgOSWw9.s:1644   .text._ZN14GrannyChordApp4InitEPsS0_:0000000000000000 _ZN14GrannyChordApp4InitEPsS0_
/var/folders/2p/02m_5p7958535cp2tpgps0400000gn/T//ccgOSWw9.s:1920   .text._ZN14GrannyChordApp4InitEPsS0_:00000000000000f4 $d
/var/folders/2p/02m_5p7958535cp2tpgps0400000gn/T//ccgOSWw9.s:1931   .text._ZN14GrannyChordApp9InitSynthEv:0000000000000000 $t
/var/folders/2p/02m_5p7958535cp2tpgps0400000gn/T//ccgOSWw9.s:1937   .text._ZN14GrannyChordApp9InitSynthEv:0000000000000000 _ZN14GrannyChordApp9InitSynthEv
/var/folders/2p/02m_5p7958535cp2tpgps0400000gn/T//ccgOSWw9.s:2034   .text._ZN14GrannyChordApp9InitSynthEv:000000000000004c $d
/var/folders/2p/02m_5p7958535cp2tpgps0400000gn/T//ccgOSWw9.s:2041   .text._ZN14GrannyChordApp13ResetPassThruEv:0000000000000000 $t
/var/folders/2p/02m_5p7958535cp2tpgps0400000gn/T//ccgOSWw9.s:2047   .text._ZN14GrannyChordApp13ResetPassThruEv:0000000000000000 _ZN14GrannyChordApp13ResetPassThruEv
/var/folders/2p/02m_5p7958535cp2tpgps0400000gn/T//ccgOSWw9.s:2112   .text._ZN14GrannyChordApp18ProcessWAVPlaybackEPPfj:0000000000000000 $t
/var/folders/2p/02m_5p7958535cp2tpgps0400000gn/T//ccgOSWw9.s:2118   .text._ZN14GrannyChordApp18ProcessWAVPlaybackEPPfj:0000000000000000 _ZN14GrannyChordApp18ProcessWAVPlaybackEPPfj
/var/folders/2p/02m_5p7958535cp2tpgps0400000gn/T//ccgOSWw9.s:2283   .text._ZN14GrannyChordApp18ProcessWAVPlaybackEPPfj:0000000000000080 $d
/var/folders/2p/02m_5p7958535cp2tpgps0400000gn/T//ccgOSWw9.s:2288   .text._ZN14GrannyChordApp15ProcessRecordInEPKPKfPPfj:0000000000000000 $t
/var/folders/2p/02m_5p7958535cp2tpgps0400000gn/T//ccgOSWw9.s:2294   .text._ZN14GrannyChordApp15ProcessRecordInEPKPKfPPfj:0000000000000000 _ZN14GrannyChordApp15ProcessRecordInEPKPKfPPfj
/var/folders/2p/02m_5p7958535cp2tpgps0400000gn/T//ccgOSWw9.s:2391   .text._ZN14GrannyChordApp15ProcessRecordInEPKPKfPPfj:0000000000000074 $d
ARM GAS  /var/folders/2p/02m_5p7958535cp2tpgps0400000gn/T//ccgOSWw9.s 			page 193


/var/folders/2p/02m_5p7958535cp2tpgps0400000gn/T//ccgOSWw9.s:2396   .text._ZN14GrannyChordApp9ProcessFXE6Sample:0000000000000000 $t
/var/folders/2p/02m_5p7958535cp2tpgps0400000gn/T//ccgOSWw9.s:2402   .text._ZN14GrannyChordApp9ProcessFXE6Sample:0000000000000000 _ZN14GrannyChordApp9ProcessFXE6Sample
/var/folders/2p/02m_5p7958535cp2tpgps0400000gn/T//ccgOSWw9.s:2556   .text._ZN14GrannyChordApp16ProcessSynthesisEPPfj:0000000000000000 $t
/var/folders/2p/02m_5p7958535cp2tpgps0400000gn/T//ccgOSWw9.s:2562   .text._ZN14GrannyChordApp16ProcessSynthesisEPPfj:0000000000000000 _ZN14GrannyChordApp16ProcessSynthesisEPPfj
/var/folders/2p/02m_5p7958535cp2tpgps0400000gn/T//ccgOSWw9.s:2941   .text._ZN14GrannyChordApp16ProcessSynthesisEPPfj:00000000000001a8 $d
/var/folders/2p/02m_5p7958535cp2tpgps0400000gn/T//ccgOSWw9.s:2952   .text._ZN14GrannyChordApp12ProcessAudioEPKPKfPPfj:0000000000000000 $t
/var/folders/2p/02m_5p7958535cp2tpgps0400000gn/T//ccgOSWw9.s:2958   .text._ZN14GrannyChordApp12ProcessAudioEPKPKfPPfj:0000000000000000 _ZN14GrannyChordApp12ProcessAudioEPKPKfPPfj
/var/folders/2p/02m_5p7958535cp2tpgps0400000gn/T//ccgOSWw9.s:3152   .text._ZN14GrannyChordApp12ProcessAudioEPKPKfPPfj:0000000000000070 $d
/var/folders/2p/02m_5p7958535cp2tpgps0400000gn/T//ccgOSWw9.s:3158   .text._ZN14GrannyChordApp13AudioCallbackEPKPKfPPfj:0000000000000000 $t
/var/folders/2p/02m_5p7958535cp2tpgps0400000gn/T//ccgOSWw9.s:3192   .text._ZN14GrannyChordApp13AudioCallbackEPKPKfPPfj:0000000000000010 $d
/var/folders/2p/02m_5p7958535cp2tpgps0400000gn/T//ccgOSWw9.s:3200   .text._ZN14GrannyChordApp13RecordOutToSDEv:0000000000000000 $t
/var/folders/2p/02m_5p7958535cp2tpgps0400000gn/T//ccgOSWw9.s:3206   .text._ZN14GrannyChordApp13RecordOutToSDEv:0000000000000000 _ZN14GrannyChordApp13RecordOutToSDEv
/var/folders/2p/02m_5p7958535cp2tpgps0400000gn/T//ccgOSWw9.s:3319   .text._ZN14GrannyChordApp13RecordOutToSDEv:0000000000000068 $d
/var/folders/2p/02m_5p7958535cp2tpgps0400000gn/T//ccgOSWw9.s:3324   .text._ZN14GrannyChordApp17UpdateKnob1ParamsEf9SynthMode:0000000000000000 $t
/var/folders/2p/02m_5p7958535cp2tpgps0400000gn/T//ccgOSWw9.s:3330   .text._ZN14GrannyChordApp17UpdateKnob1ParamsEf9SynthMode:0000000000000000 _ZN14GrannyChordApp17UpdateKnob1ParamsEf9SynthMode
/var/folders/2p/02m_5p7958535cp2tpgps0400000gn/T//ccgOSWw9.s:3343   .text._ZN14GrannyChordApp17UpdateKnob1ParamsEf9SynthMode:0000000000000008 $d
/var/folders/2p/02m_5p7958535cp2tpgps0400000gn/T//ccgOSWw9.s:3351   .text._ZN14GrannyChordApp17UpdateKnob1ParamsEf9SynthMode:0000000000000010 $t
/var/folders/2p/02m_5p7958535cp2tpgps0400000gn/T//ccgOSWw9.s:3550   .text._ZN14GrannyChordApp17UpdateKnob1ParamsEf9SynthMode:0000000000000068 $d
/var/folders/2p/02m_5p7958535cp2tpgps0400000gn/T//ccgOSWw9.s:3556   .text._ZN14GrannyChordApp17UpdateKnob2ParamsEf9SynthMode:0000000000000000 $t
/var/folders/2p/02m_5p7958535cp2tpgps0400000gn/T//ccgOSWw9.s:3562   .text._ZN14GrannyChordApp17UpdateKnob2ParamsEf9SynthMode:0000000000000000 _ZN14GrannyChordApp17UpdateKnob2ParamsEf9SynthMode
/var/folders/2p/02m_5p7958535cp2tpgps0400000gn/T//ccgOSWw9.s:3587   .text._ZN14GrannyChordApp17UpdateKnob2ParamsEf9SynthMode:0000000000000016 $d
/var/folders/2p/02m_5p7958535cp2tpgps0400000gn/T//ccgOSWw9.s:3595   .text._ZN14GrannyChordApp17UpdateKnob2ParamsEf9SynthMode:000000000000001e $t
/var/folders/2p/02m_5p7958535cp2tpgps0400000gn/T//ccgOSWw9.s:3991   .text._ZN14GrannyChordApp17UpdateKnob2ParamsEf9SynthMode:00000000000000e4 $d
/var/folders/2p/02m_5p7958535cp2tpgps0400000gn/T//ccgOSWw9.s:4000   .text._ZN14GrannyChordApp17UpdateSynthParamsEv:0000000000000000 $t
/var/folders/2p/02m_5p7958535cp2tpgps0400000gn/T//ccgOSWw9.s:4006   .text._ZN14GrannyChordApp17UpdateSynthParamsEv:0000000000000000 _ZN14GrannyChordApp17UpdateSynthParamsEv
/var/folders/2p/02m_5p7958535cp2tpgps0400000gn/T//ccgOSWw9.s:4312   .text._ZN14GrannyChordApp17UpdateSynthParamsEv:0000000000000110 $d
/var/folders/2p/02m_5p7958535cp2tpgps0400000gn/T//ccgOSWw9.s:4338   .text._ZN14GrannyChordApp15DebugPrintStateE8AppState:0000000000000000 $t
/var/folders/2p/02m_5p7958535cp2tpgps0400000gn/T//ccgOSWw9.s:4344   .text._ZN14GrannyChordApp15DebugPrintStateE8AppState:0000000000000000 _ZN14GrannyChordApp15DebugPrintStateE8AppState
/var/folders/2p/02m_5p7958535cp2tpgps0400000gn/T//ccgOSWw9.s:4357   .text._ZN14GrannyChordApp15DebugPrintStateE8AppState:0000000000000008 $d
/var/folders/2p/02m_5p7958535cp2tpgps0400000gn/T//ccgOSWw9.s:4361   .text._ZN14GrannyChordApp15DebugPrintStateE8AppState:000000000000000c $t
/var/folders/2p/02m_5p7958535cp2tpgps0400000gn/T//ccgOSWw9.s:4453   .text._ZN14GrannyChordApp15DebugPrintStateE8AppState:0000000000000024 $d
/var/folders/2p/02m_5p7958535cp2tpgps0400000gn/T//ccgOSWw9.s:4481   .text._ZN14GrannyChordApp14DebugPrintModeE9SynthMode:0000000000000000 $t
/var/folders/2p/02m_5p7958535cp2tpgps0400000gn/T//ccgOSWw9.s:4487   .text._ZN14GrannyChordApp14DebugPrintModeE9SynthMode:0000000000000000 _ZN14GrannyChordApp14DebugPrintModeE9SynthMode
/var/folders/2p/02m_5p7958535cp2tpgps0400000gn/T//ccgOSWw9.s:4500   .text._ZN14GrannyChordApp14DebugPrintModeE9SynthMode:0000000000000008 $d
/var/folders/2p/02m_5p7958535cp2tpgps0400000gn/T//ccgOSWw9.s:4508   .text._ZN14GrannyChordApp14DebugPrintModeE9SynthMode:0000000000000010 $t
/var/folders/2p/02m_5p7958535cp2tpgps0400000gn/T//ccgOSWw9.s:4657   .text._ZN14GrannyChordApp14DebugPrintModeE9SynthMode:0000000000000034 $d
/var/folders/2p/02m_5p7958535cp2tpgps0400000gn/T//ccgOSWw9.s:4669   .text._ZN14GrannyChordApp10SetupTimerEv:0000000000000000 $t
/var/folders/2p/02m_5p7958535cp2tpgps0400000gn/T//ccgOSWw9.s:4675   .text._ZN14GrannyChordApp10SetupTimerEv:0000000000000000 _ZN14GrannyChordApp10SetupTimerEv
/var/folders/2p/02m_5p7958535cp2tpgps0400000gn/T//ccgOSWw9.s:4749   .text._ZN14GrannyChordApp10SetupTimerEv:0000000000000040 $d
/var/folders/2p/02m_5p7958535cp2tpgps0400000gn/T//ccgOSWw9.s:4932   .text._ZN14GrannyChordApp17StaticLedCallbackEPv:0000000000000000 _ZN14GrannyChordApp17StaticLedCallbackEPv
/var/folders/2p/02m_5p7958535cp2tpgps0400000gn/T//ccgOSWw9.s:4754   .text._ZN14GrannyChordApp11LedCallbackEPv:0000000000000000 $t
/var/folders/2p/02m_5p7958535cp2tpgps0400000gn/T//ccgOSWw9.s:4760   .text._ZN14GrannyChordApp11LedCallbackEPv:0000000000000000 _ZN14GrannyChordApp11LedCallbackEPv
/var/folders/2p/02m_5p7958535cp2tpgps0400000gn/T//ccgOSWw9.s:4921   .text._ZN14GrannyChordApp11LedCallbackEPv:00000000000000d4 $d
/var/folders/2p/02m_5p7958535cp2tpgps0400000gn/T//ccgOSWw9.s:4926   .text._ZN14GrannyChordApp17StaticLedCallbackEPv:0000000000000000 $t
/var/folders/2p/02m_5p7958535cp2tpgps0400000gn/T//ccgOSWw9.s:4956   .text._ZN14GrannyChordApp17StaticLedCallbackEPv:000000000000000c $d
/var/folders/2p/02m_5p7958535cp2tpgps0400000gn/T//ccgOSWw9.s:4961   .text._ZN14GrannyChordApp7SetRgb1Efff:0000000000000000 $t
/var/folders/2p/02m_5p7958535cp2tpgps0400000gn/T//ccgOSWw9.s:4967   .text._ZN14GrannyChordApp7SetRgb1Efff:0000000000000000 _ZN14GrannyChordApp7SetRgb1Efff
/var/folders/2p/02m_5p7958535cp2tpgps0400000gn/T//ccgOSWw9.s:4993   .text._ZN14GrannyChordApp7SetRgb2Efff:0000000000000000 $t
/var/folders/2p/02m_5p7958535cp2tpgps0400000gn/T//ccgOSWw9.s:4999   .text._ZN14GrannyChordApp7SetRgb2Efff:0000000000000000 _ZN14GrannyChordApp7SetRgb2Efff
/var/folders/2p/02m_5p7958535cp2tpgps0400000gn/T//ccgOSWw9.s:5025   .text._ZN14GrannyChordApp15SetLed1AppStateEv:0000000000000000 $t
/var/folders/2p/02m_5p7958535cp2tpgps0400000gn/T//ccgOSWw9.s:5031   .text._ZN14GrannyChordApp15SetLed1AppStateEv:0000000000000000 _ZN14GrannyChordApp15SetLed1AppStateEv
/var/folders/2p/02m_5p7958535cp2tpgps0400000gn/T//ccgOSWw9.s:5052   .text._ZN14GrannyChordApp15SetLed1AppStateEv:0000000000000010 $d
/var/folders/2p/02m_5p7958535cp2tpgps0400000gn/T//ccgOSWw9.s:5058   .text._ZN14GrannyChordApp15SetLed1AppStateEv:0000000000000016 $t
/var/folders/2p/02m_5p7958535cp2tpgps0400000gn/T//ccgOSWw9.s:5239   .text._ZN14GrannyChordApp15SetLed1AppStateEv:00000000000000a0 $d
/var/folders/2p/02m_5p7958535cp2tpgps0400000gn/T//ccgOSWw9.s:5249   .text._ZN14GrannyChordApp17HandleStateChangeEv:0000000000000000 $t
/var/folders/2p/02m_5p7958535cp2tpgps0400000gn/T//ccgOSWw9.s:5255   .text._ZN14GrannyChordApp17HandleStateChangeEv:0000000000000000 _ZN14GrannyChordApp17HandleStateChangeEv
/var/folders/2p/02m_5p7958535cp2tpgps0400000gn/T//ccgOSWw9.s:5276   .text._ZN14GrannyChordApp17HandleStateChangeEv:0000000000000010 $d
ARM GAS  /var/folders/2p/02m_5p7958535cp2tpgps0400000gn/T//ccgOSWw9.s 			page 194


/var/folders/2p/02m_5p7958535cp2tpgps0400000gn/T//ccgOSWw9.s:5282   .text._ZN14GrannyChordApp17HandleStateChangeEv:0000000000000016 $t
/var/folders/2p/02m_5p7958535cp2tpgps0400000gn/T//ccgOSWw9.s:5390   .text._ZN14GrannyChordApp17HandleStateChangeEv:0000000000000058 $d
/var/folders/2p/02m_5p7958535cp2tpgps0400000gn/T//ccgOSWw9.s:5396   .text._ZN14GrannyChordApp16SetLed1SynthModeEv:0000000000000000 $t
/var/folders/2p/02m_5p7958535cp2tpgps0400000gn/T//ccgOSWw9.s:5402   .text._ZN14GrannyChordApp16SetLed1SynthModeEv:0000000000000000 _ZN14GrannyChordApp16SetLed1SynthModeEv
/var/folders/2p/02m_5p7958535cp2tpgps0400000gn/T//ccgOSWw9.s:5425   .text._ZN14GrannyChordApp16SetLed1SynthModeEv:0000000000000014 $d
/var/folders/2p/02m_5p7958535cp2tpgps0400000gn/T//ccgOSWw9.s:5552   .text._ZN14GrannyChordApp16SetLed1SynthModeEv:000000000000006c $d
/var/folders/2p/02m_5p7958535cp2tpgps0400000gn/T//ccgOSWw9.s:5567   .text._ZN14GrannyChordApp16UpdateSynthModeAEv:0000000000000000 $t
/var/folders/2p/02m_5p7958535cp2tpgps0400000gn/T//ccgOSWw9.s:5573   .text._ZN14GrannyChordApp16UpdateSynthModeAEv:0000000000000000 _ZN14GrannyChordApp16UpdateSynthModeAEv
/var/folders/2p/02m_5p7958535cp2tpgps0400000gn/T//ccgOSWw9.s:5659   .text._ZN14GrannyChordApp16UpdateSynthModeAEv:0000000000000048 $d
/var/folders/2p/02m_5p7958535cp2tpgps0400000gn/T//ccgOSWw9.s:5664   .text._ZN14GrannyChordApp13HandleButton1Ev:0000000000000000 $t
/var/folders/2p/02m_5p7958535cp2tpgps0400000gn/T//ccgOSWw9.s:5670   .text._ZN14GrannyChordApp13HandleButton1Ev:0000000000000000 _ZN14GrannyChordApp13HandleButton1Ev
/var/folders/2p/02m_5p7958535cp2tpgps0400000gn/T//ccgOSWw9.s:5687   .text._ZN14GrannyChordApp7SetLed2Ev:0000000000000000 $t
/var/folders/2p/02m_5p7958535cp2tpgps0400000gn/T//ccgOSWw9.s:5693   .text._ZN14GrannyChordApp7SetLed2Ev:0000000000000000 _ZN14GrannyChordApp7SetLed2Ev
/var/folders/2p/02m_5p7958535cp2tpgps0400000gn/T//ccgOSWw9.s:5716   .text._ZN14GrannyChordApp7SetLed2Ev:0000000000000014 $d
/var/folders/2p/02m_5p7958535cp2tpgps0400000gn/T//ccgOSWw9.s:5724   .text._ZN14GrannyChordApp7SetLed2Ev:000000000000001c $t
/var/folders/2p/02m_5p7958535cp2tpgps0400000gn/T//ccgOSWw9.s:5849   .text._ZN14GrannyChordApp7SetLed2Ev:0000000000000064 $d
/var/folders/2p/02m_5p7958535cp2tpgps0400000gn/T//ccgOSWw9.s:5860   .text._ZN14GrannyChordApp16UpdateSynthModeBEv:0000000000000000 $t
/var/folders/2p/02m_5p7958535cp2tpgps0400000gn/T//ccgOSWw9.s:5866   .text._ZN14GrannyChordApp16UpdateSynthModeBEv:0000000000000000 _ZN14GrannyChordApp16UpdateSynthModeBEv
/var/folders/2p/02m_5p7958535cp2tpgps0400000gn/T//ccgOSWw9.s:5952   .text._ZN14GrannyChordApp16UpdateSynthModeBEv:0000000000000048 $d
/var/folders/2p/02m_5p7958535cp2tpgps0400000gn/T//ccgOSWw9.s:5957   .text._ZN14GrannyChordApp13HandleButton2Ev:0000000000000000 $t
/var/folders/2p/02m_5p7958535cp2tpgps0400000gn/T//ccgOSWw9.s:5963   .text._ZN14GrannyChordApp13HandleButton2Ev:0000000000000000 _ZN14GrannyChordApp13HandleButton2Ev
/var/folders/2p/02m_5p7958535cp2tpgps0400000gn/T//ccgOSWw9.s:5980   .text._ZN5daisy9WavWriterILj16384EE8SaveFileEv:0000000000000000 $t
/var/folders/2p/02m_5p7958535cp2tpgps0400000gn/T//ccgOSWw9.s:5986   .text._ZN5daisy9WavWriterILj16384EE8SaveFileEv:0000000000000000 _ZN5daisy9WavWriterILj16384EE8SaveFileEv
/var/folders/2p/02m_5p7958535cp2tpgps0400000gn/T//ccgOSWw9.s:6063   .text._ZN14GrannyChordApp15FinishRecordingEv:0000000000000000 $t
/var/folders/2p/02m_5p7958535cp2tpgps0400000gn/T//ccgOSWw9.s:6069   .text._ZN14GrannyChordApp15FinishRecordingEv:0000000000000000 _ZN14GrannyChordApp15FinishRecordingEv
/var/folders/2p/02m_5p7958535cp2tpgps0400000gn/T//ccgOSWw9.s:6111   .text._ZN14GrannyChordApp13ButtonHandlerEv:0000000000000000 $t
/var/folders/2p/02m_5p7958535cp2tpgps0400000gn/T//ccgOSWw9.s:6117   .text._ZN14GrannyChordApp13ButtonHandlerEv:0000000000000000 _ZN14GrannyChordApp13ButtonHandlerEv
/var/folders/2p/02m_5p7958535cp2tpgps0400000gn/T//ccgOSWw9.s:6577   .text._ZN14GrannyChordApp13ButtonHandlerEv:00000000000001a0 $d
/var/folders/2p/02m_5p7958535cp2tpgps0400000gn/T//ccgOSWw9.s:6589   .text._ZN14GrannyChordApp8UpdateUIEv:0000000000000000 $t
/var/folders/2p/02m_5p7958535cp2tpgps0400000gn/T//ccgOSWw9.s:6595   .text._ZN14GrannyChordApp8UpdateUIEv:0000000000000000 _ZN14GrannyChordApp8UpdateUIEv
/var/folders/2p/02m_5p7958535cp2tpgps0400000gn/T//ccgOSWw9.s:6761   .text._ZN14GrannyChordApp8UpdateUIEv:000000000000008c $d
/var/folders/2p/02m_5p7958535cp2tpgps0400000gn/T//ccgOSWw9.s:6770   .text._ZN14GrannyChordApp3RunEv:0000000000000000 $t
/var/folders/2p/02m_5p7958535cp2tpgps0400000gn/T//ccgOSWw9.s:6776   .text._ZN14GrannyChordApp3RunEv:0000000000000000 _ZN14GrannyChordApp3RunEv
/var/folders/2p/02m_5p7958535cp2tpgps0400000gn/T//ccgOSWw9.s:6932   .text._ZN14GrannyChordApp3RunEv:0000000000000098 $d
/var/folders/2p/02m_5p7958535cp2tpgps0400000gn/T//ccgOSWw9.s:6943   .bss._ZN14GrannyChordApp9instance_E:0000000000000000 _ZN14GrannyChordApp9instance_E
/var/folders/2p/02m_5p7958535cp2tpgps0400000gn/T//ccgOSWw9.s:6939   .bss._ZN14GrannyChordApp9instance_E:0000000000000000 $d
/var/folders/2p/02m_5p7958535cp2tpgps0400000gn/T//ccgOSWw9.s:5432   .text._ZN14GrannyChordApp16SetLed1SynthModeEv:000000000000001b $d
/var/folders/2p/02m_5p7958535cp2tpgps0400000gn/T//ccgOSWw9.s:5432   .text._ZN14GrannyChordApp16SetLed1SynthModeEv:000000000000001c $t

UNDEFINED SYMBOLS
_ZN5daisy6System6GetNowEv
tanf
_ZN5daisy6LoggerILNS_17LoggerDestinationE1EE9PrintLineEPKcz
_ZN5daisy7Encoder8DebounceEv
strcpy
_ZN16AudioFileManager10SetBuffersEPsS0_
_ZN16AudioFileManager4InitEv
_ZN16AudioFileManager12ScanWavFilesEv
_ZN16AudioFileManager8LoadFileEt
_ZN5daisy8DaisyPod10StartAudioEPFvPKPKfPPfjE
memset
_ZN7daisysp10Compressor4InitEf
_ZN7daisysp7Limiter4InitEv
_ZN7daisysp6Chorus4InitEf
_ZN7daisysp8ReverbSc4InitEf
_ZN7daisysp10MoogLadder4InitEf
_ZN5daisy8DaisyPod17SetAudioBlockSizeEj
ARM GAS  /var/folders/2p/02m_5p7958535cp2tpgps0400000gn/T//ccgOSWw9.s 			page 195


_ZN5daisy8DaisyPod18SetAudioSampleRateENS_9SaiHandle6Config10SampleRateE
_ZN5daisy6RgbLed6SetRedEf
_ZN5daisy8DaisyPod10UpdateLedsEv
_ZN5daisy8DaisyPod15AudioSampleRateEv
_ZN5daisy8DaisyPod14AudioBlockSizeEv
_ZN5daisy6System11GetTickFreqEv
time
_ZN13GranularSynth4InitEPsS0_j
_ZN5daisy8DaisyPod8StartAdcEv
rng_state
_ZN5daisy13AnalogControl7ProcessEv
_ZN7daisysp10Compressor7ProcessEf
_ZN7daisysp10MoogLadder7ProcessEf
_ZN7daisysp6Chorus7ProcessEf
_ZN7daisysp8ReverbSc10ProcessMixERKfS2_PfS3_
_ZN13GranularSynth13ProcessGrainsEv
_ZN7daisysp7Limiter12ProcessBlockEPfjf
_ZN5daisy8DaisyPod9StopAudioEv
sprintf
f_open
f_write
_ZN13GranularSynth12SetGrainSizeEf
_ZN13GranularSynth13SetPitchRatioEf
_ZN13GranularSynth6SetPanEf
_ZN13GranularSynth11SetSpawnPosEf
_ZN13GranularSynth15SetActiveGrainsEf
_ZN13GranularSynth12SetDirectionEf
_ZN7daisysp6Chorus6SetPanEff
_ZN7daisysp6Chorus11SetLfoDepthEf
_ZN5daisy11TimerHandle4InitERKNS0_6ConfigE
_ZN5daisy11TimerHandle12SetPrescalerEm
_ZN5daisy11TimerHandle11SetCallbackEPFvPvES1_
_ZN5daisy6RgbLed3SetEfff
_ZN5daisy9DaisySeed6SetLedEb
f_lseek
f_close
_ZN5daisy8DaisyPod22ProcessDigitalControlsEv
