ARM GAS  /var/folders/2p/02m_5p7958535cp2tpgps0400000gn/T//ccbqYDkS.s 			page 1


   1              		.cpu cortex-m7
   2              		.arch armv7e-m
   3              		.fpu fpv5-d16
   4              		.eabi_attribute 28, 1
   5              		.eabi_attribute 20, 1
   6              		.eabi_attribute 21, 1
   7              		.eabi_attribute 23, 3
   8              		.eabi_attribute 24, 1
   9              		.eabi_attribute 25, 1
  10              		.eabi_attribute 26, 1
  11              		.eabi_attribute 30, 4
  12              		.eabi_attribute 34, 1
  13              		.eabi_attribute 18, 4
  14              		.file	"GranularSynth.cpp"
  15              		.text
  16              	.Ltext0:
  17              		.cfi_sections	.debug_frame
  18              		.section	.text._ZN13GranularSynth10InitParamsEv,"ax",%progbits
  19              		.align	1
  20              		.global	_ZN13GranularSynth10InitParamsEv
  21              		.syntax unified
  22              		.thumb
  23              		.thumb_func
  25              	_ZN13GranularSynth10InitParamsEv:
  26              	.LVL0:
  27              	.LFB4886:
  28              		.file 1 "GranularSynth.cpp"
   1:GranularSynth.cpp **** #include "GranularSynth.h"
   2:GranularSynth.cpp **** 
   3:GranularSynth.cpp **** using namespace daisy;
   4:GranularSynth.cpp **** 
   5:GranularSynth.cpp **** /// @brief Initialise granular synth object and assign audio buffers
   6:GranularSynth.cpp **** /// @param left Left channel audio data buffer
   7:GranularSynth.cpp **** /// @param right Right channel audio data buffer
   8:GranularSynth.cpp **** /// @param audio_len Length of currently loaded audio file in samples
   9:GranularSynth.cpp **** void GranularSynth::Init(int16_t *left, int16_t *right, size_t audio_len){
  10:GranularSynth.cpp ****   left_buf_ = left;
  11:GranularSynth.cpp ****   right_buf_ = right;
  12:GranularSynth.cpp ****   audio_len_ = audio_len;
  13:GranularSynth.cpp ****   for (Grain& grain: grains_){
  14:GranularSynth.cpp ****     grain.Init();
  15:GranularSynth.cpp ****   }
  16:GranularSynth.cpp ****   Grain::audio_len_ = audio_len;
  17:GranularSynth.cpp ****   Grain::left_buf_ = left;
  18:GranularSynth.cpp ****   Grain::right_buf_ = right;
  19:GranularSynth.cpp ****   InitParams();
  20:GranularSynth.cpp ****   rng_.Init(SAMPLE_RATE_FLOAT);
  21:GranularSynth.cpp ****   rng_.SetFreq(3.0f);
  22:GranularSynth.cpp **** }
  23:GranularSynth.cpp **** 
  24:GranularSynth.cpp **** void GranularSynth::Reset(size_t len){
  25:GranularSynth.cpp ****   audio_len_ = len;
  26:GranularSynth.cpp ****   for (Grain& grain: grains_){
  27:GranularSynth.cpp ****     grain.Init();
  28:GranularSynth.cpp ****   }
  29:GranularSynth.cpp ****   InitParams();
  30:GranularSynth.cpp **** }
ARM GAS  /var/folders/2p/02m_5p7958535cp2tpgps0400000gn/T//ccbqYDkS.s 			page 2


  31:GranularSynth.cpp **** 
  32:GranularSynth.cpp **** /// @brief  Set intial grain parameter values
  33:GranularSynth.cpp **** void GranularSynth::InitParams(){
  29              		.loc 1 33 33 view -0
  30              		.cfi_startproc
  31              		@ args = 0, pretend = 0, frame = 0
  32              		@ frame_needed = 0, uses_anonymous_args = 0
  33              		@ link register save eliminated.
  34:GranularSynth.cpp ****   grain_size_ = 4800;
  34              		.loc 1 34 3 view .LVU1
  35:GranularSynth.cpp ****   spawn_pos_ = 0;
  35              		.loc 1 35 14 is_stmt 0 view .LVU2
  36 0000 0023     		movs	r3, #0
  37 0002 4FF49652 		mov	r2, #4800
  38 0006 C0E99023 		strd	r2, r3, [r0, #576]
  36:GranularSynth.cpp ****   active_count_ = 1;
  39              		.loc 1 36 3 is_stmt 1 view .LVU3
  40              		.loc 1 36 17 is_stmt 0 view .LVU4
  41 000a 0123     		movs	r3, #1
  42 000c C0F84832 		str	r3, [r0, #584]
  37:GranularSynth.cpp ****   pitch_ratio_ = 1.0f;
  43              		.loc 1 37 3 is_stmt 1 view .LVU5
  44              		.loc 1 37 16 is_stmt 0 view .LVU6
  45 0010 4FF07E53 		mov	r3, #1065353216
  46 0014 C0F84C32 		str	r3, [r0, #588]	@ float
  38:GranularSynth.cpp ****   pan_ = 0.5f;
  47              		.loc 1 38 3 is_stmt 1 view .LVU7
  48              		.loc 1 38 8 is_stmt 0 view .LVU8
  49 0018 4FF07C53 		mov	r3, #1056964608
  50 001c C0F85032 		str	r3, [r0, #592]	@ float
  39:GranularSynth.cpp ****   direction_ = 0.0f;
  51              		.loc 1 39 3 is_stmt 1 view .LVU9
  52              		.loc 1 39 14 is_stmt 0 view .LVU10
  53 0020 0023     		movs	r3, #0
  54 0022 C0F85432 		str	r3, [r0, #596]	@ float
  40:GranularSynth.cpp **** }
  55              		.loc 1 40 1 view .LVU11
  56 0026 7047     		bx	lr
  57              		.cfi_endproc
  58              	.LFE4886:
  60              		.section	.text._ZN13GranularSynth4InitEPsS0_j,"ax",%progbits
  61              		.align	1
  62              		.global	_ZN13GranularSynth4InitEPsS0_j
  63              		.syntax unified
  64              		.thumb
  65              		.thumb_func
  67              	_ZN13GranularSynth4InitEPsS0_j:
  68              	.LVL1:
  69              	.LFB4884:
   9:GranularSynth.cpp ****   left_buf_ = left;
  70              		.loc 1 9 74 is_stmt 1 view -0
  71              		.cfi_startproc
  72              		@ args = 0, pretend = 0, frame = 0
  73              		@ frame_needed = 0, uses_anonymous_args = 0
  10:GranularSynth.cpp ****   right_buf_ = right;
  74              		.loc 1 10 3 view .LVU13
   9:GranularSynth.cpp ****   left_buf_ = left;
ARM GAS  /var/folders/2p/02m_5p7958535cp2tpgps0400000gn/T//ccbqYDkS.s 			page 3


  75              		.loc 1 9 74 is_stmt 0 view .LVU14
  76 0000 2DE9F843 		push	{r3, r4, r5, r6, r7, r8, r9, lr}
  77              		.cfi_def_cfa_offset 32
  78              		.cfi_offset 3, -32
  79              		.cfi_offset 4, -28
  80              		.cfi_offset 5, -24
  81              		.cfi_offset 6, -20
  82              		.cfi_offset 7, -16
  83              		.cfi_offset 8, -12
  84              		.cfi_offset 9, -8
  85              		.cfi_offset 14, -4
   9:GranularSynth.cpp ****   left_buf_ = left;
  86              		.loc 1 9 74 view .LVU15
  87 0004 0446     		mov	r4, r0
  88 0006 0E46     		mov	r6, r1
  89 0008 1546     		mov	r5, r2
  90 000a 1F46     		mov	r7, r3
  91              	.LBB173:
  13:GranularSynth.cpp ****     grain.Init();
  92              		.loc 1 13 22 view .LVU16
  93 000c 00F11008 		add	r8, r0, #16
  94 0010 00F50679 		add	r9, r0, #536
  95              	.LBE173:
  12:GranularSynth.cpp ****   for (Grain& grain: grains_){
  96              		.loc 1 12 14 view .LVU17
  97 0014 C360     		str	r3, [r0, #12]
  11:GranularSynth.cpp ****   audio_len_ = audio_len;
  98              		.loc 1 11 14 view .LVU18
  99 0016 C0E90112 		strd	r1, r2, [r0, #4]
  12:GranularSynth.cpp ****   for (Grain& grain: grains_){
 100              		.loc 1 12 3 is_stmt 1 view .LVU19
  13:GranularSynth.cpp ****     grain.Init();
 101              		.loc 1 13 3 view .LVU20
 102              	.LVL2:
 103              	.L4:
 104              	.LBB174:
  13:GranularSynth.cpp ****     grain.Init();
 105              		.loc 1 13 22 discriminator 3 view .LVU21
 106 001a C845     		cmp	r8, r9
 107 001c 05D0     		beq	.L3
 108              	.LVL3:
  14:GranularSynth.cpp ****   }
 109              		.loc 1 14 5 discriminator 2 view .LVU22
  14:GranularSynth.cpp ****   }
 110              		.loc 1 14 15 is_stmt 0 discriminator 2 view .LVU23
 111 001e 4046     		mov	r0, r8
  13:GranularSynth.cpp ****     grain.Init();
 112              		.loc 1 13 3 discriminator 2 view .LVU24
 113 0020 08F13408 		add	r8, r8, #52
 114              	.LVL4:
  14:GranularSynth.cpp ****   }
 115              		.loc 1 14 15 discriminator 2 view .LVU25
 116 0024 FFF7FEFF 		bl	_ZN5Grain4InitEv
 117              	.LVL5:
  13:GranularSynth.cpp ****     grain.Init();
 118              		.loc 1 13 3 is_stmt 1 discriminator 2 view .LVU26
  13:GranularSynth.cpp ****     grain.Init();
ARM GAS  /var/folders/2p/02m_5p7958535cp2tpgps0400000gn/T//ccbqYDkS.s 			page 4


 119              		.loc 1 13 3 is_stmt 0 discriminator 2 view .LVU27
 120 0028 F7E7     		b	.L4
 121              	.LVL6:
 122              	.L3:
  13:GranularSynth.cpp ****     grain.Init();
 123              		.loc 1 13 3 discriminator 2 view .LVU28
 124              	.LBE174:
  16:GranularSynth.cpp ****   Grain::left_buf_ = left;
 125              		.loc 1 16 3 is_stmt 1 view .LVU29
  16:GranularSynth.cpp ****   Grain::left_buf_ = left;
 126              		.loc 1 16 21 is_stmt 0 view .LVU30
 127 002a 114B     		ldr	r3, .L5
  19:GranularSynth.cpp ****   rng_.Init(SAMPLE_RATE_FLOAT);
 128              		.loc 1 19 13 view .LVU31
 129 002c 2046     		mov	r0, r4
 130              	.LBB175:
 131              	.LBB176:
 132              		.file 2 "../DaisySP/Source/Utility/smooth_random.h"
   1:../DaisySP/Source/Utility/smooth_random.h **** /*
   2:../DaisySP/Source/Utility/smooth_random.h **** Copyright (c) 2020 Electrosmith, Corp, Emilie Gillet
   3:../DaisySP/Source/Utility/smooth_random.h **** 
   4:../DaisySP/Source/Utility/smooth_random.h **** Use of this source code is governed by an MIT-style
   5:../DaisySP/Source/Utility/smooth_random.h **** license that can be found in the LICENSE file or at
   6:../DaisySP/Source/Utility/smooth_random.h **** https://opensource.org/licenses/MIT.
   7:../DaisySP/Source/Utility/smooth_random.h **** */
   8:../DaisySP/Source/Utility/smooth_random.h **** 
   9:../DaisySP/Source/Utility/smooth_random.h **** #pragma once
  10:../DaisySP/Source/Utility/smooth_random.h **** #ifndef DSY_SMOOTHRANDOM_H
  11:../DaisySP/Source/Utility/smooth_random.h **** #define DSY_SMOOTHRANDOM_H
  12:../DaisySP/Source/Utility/smooth_random.h **** 
  13:../DaisySP/Source/Utility/smooth_random.h **** #include "dsp.h"
  14:../DaisySP/Source/Utility/smooth_random.h **** #include <stdint.h>
  15:../DaisySP/Source/Utility/smooth_random.h **** #include <stdlib.h>
  16:../DaisySP/Source/Utility/smooth_random.h **** #ifdef __cplusplus
  17:../DaisySP/Source/Utility/smooth_random.h **** 
  18:../DaisySP/Source/Utility/smooth_random.h **** /** @file smooth_random.h */
  19:../DaisySP/Source/Utility/smooth_random.h **** 
  20:../DaisySP/Source/Utility/smooth_random.h **** namespace daisysp
  21:../DaisySP/Source/Utility/smooth_random.h **** {
  22:../DaisySP/Source/Utility/smooth_random.h **** /**  
  23:../DaisySP/Source/Utility/smooth_random.h ****     @brief Smooth random generator for internal modulation. \n
  24:../DaisySP/Source/Utility/smooth_random.h ****     @author Ported by Ben Sergentanis 
  25:../DaisySP/Source/Utility/smooth_random.h ****     @date Jan 2021 
  26:../DaisySP/Source/Utility/smooth_random.h ****     Ported from pichenettes/eurorack/plaits/dsp/noise/smooth_random_generator.h \n
  27:../DaisySP/Source/Utility/smooth_random.h ****     to an independent module. \n
  28:../DaisySP/Source/Utility/smooth_random.h ****     Original code written by Emilie Gillet in 2016. \n
  29:../DaisySP/Source/Utility/smooth_random.h **** */
  30:../DaisySP/Source/Utility/smooth_random.h **** class SmoothRandomGenerator
  31:../DaisySP/Source/Utility/smooth_random.h **** {
  32:../DaisySP/Source/Utility/smooth_random.h ****   public:
  33:../DaisySP/Source/Utility/smooth_random.h ****     SmoothRandomGenerator() {}
  34:../DaisySP/Source/Utility/smooth_random.h ****     ~SmoothRandomGenerator() {}
  35:../DaisySP/Source/Utility/smooth_random.h **** 
  36:../DaisySP/Source/Utility/smooth_random.h ****     /** Initialize the module
  37:../DaisySP/Source/Utility/smooth_random.h ****         \param sample_rate Audio engine sample rate.
  38:../DaisySP/Source/Utility/smooth_random.h ****     */
  39:../DaisySP/Source/Utility/smooth_random.h ****     void Init(float sample_rate)
ARM GAS  /var/folders/2p/02m_5p7958535cp2tpgps0400000gn/T//ccbqYDkS.s 			page 5


  40:../DaisySP/Source/Utility/smooth_random.h ****     {
  41:../DaisySP/Source/Utility/smooth_random.h ****         sample_rate_ = sample_rate;
  42:../DaisySP/Source/Utility/smooth_random.h **** 
  43:../DaisySP/Source/Utility/smooth_random.h ****         SetFreq(1.f);
  44:../DaisySP/Source/Utility/smooth_random.h ****         phase_    = 0.0f;
 133              		.loc 2 44 19 view .LVU32
 134 002e 9FED117A 		vldr.32	s14, .L5+4
 135              	.LBE176:
 136              	.LBE175:
  16:GranularSynth.cpp ****   Grain::left_buf_ = left;
 137              		.loc 1 16 21 view .LVU33
 138 0032 1F60     		str	r7, [r3]
  17:GranularSynth.cpp ****   Grain::right_buf_ = right;
 139              		.loc 1 17 3 is_stmt 1 view .LVU34
  17:GranularSynth.cpp ****   Grain::right_buf_ = right;
 140              		.loc 1 17 20 is_stmt 0 view .LVU35
 141 0034 104B     		ldr	r3, .L5+8
 142              	.LBB190:
 143              	.LBB191:
 144              	.LBB192:
 145              	.LBB193:
 146              	.LBB194:
 147              		.file 3 "../DaisySP/Source/Utility/dsp.h"
   1:../DaisySP/Source/Utility/dsp.h **** /*
   2:../DaisySP/Source/Utility/dsp.h **** Copyright (c) 2020 Electrosmith, Corp, Emilie Gillet
   3:../DaisySP/Source/Utility/dsp.h **** 
   4:../DaisySP/Source/Utility/dsp.h **** Use of this source code is governed by an MIT-style
   5:../DaisySP/Source/Utility/dsp.h **** license that can be found in the LICENSE file or at
   6:../DaisySP/Source/Utility/dsp.h **** https://opensource.org/licenses/MIT.
   7:../DaisySP/Source/Utility/dsp.h **** */
   8:../DaisySP/Source/Utility/dsp.h **** 
   9:../DaisySP/Source/Utility/dsp.h **** /** Helpful defines, functions, and other utilities for use in/with daisysp modules.
  10:../DaisySP/Source/Utility/dsp.h **** */
  11:../DaisySP/Source/Utility/dsp.h **** #pragma once
  12:../DaisySP/Source/Utility/dsp.h **** #ifndef DSY_CORE_DSP
  13:../DaisySP/Source/Utility/dsp.h **** #define DSY_CORE_DSP
  14:../DaisySP/Source/Utility/dsp.h **** #include <cassert>
  15:../DaisySP/Source/Utility/dsp.h **** #include <cstdint>
  16:../DaisySP/Source/Utility/dsp.h **** #include <random>
  17:../DaisySP/Source/Utility/dsp.h **** #include <cmath>
  18:../DaisySP/Source/Utility/dsp.h **** 
  19:../DaisySP/Source/Utility/dsp.h **** /** PIs
  20:../DaisySP/Source/Utility/dsp.h **** */
  21:../DaisySP/Source/Utility/dsp.h **** #define PI_F 3.1415927410125732421875f
  22:../DaisySP/Source/Utility/dsp.h **** #define TWOPI_F (2.0f * PI_F)
  23:../DaisySP/Source/Utility/dsp.h **** #define HALFPI_F (PI_F * 0.5f)
  24:../DaisySP/Source/Utility/dsp.h **** #define DSY_MIN(in, mn) (in < mn ? in : mn)
  25:../DaisySP/Source/Utility/dsp.h **** #define DSY_MAX(in, mx) (in > mx ? in : mx)
  26:../DaisySP/Source/Utility/dsp.h **** #define DSY_CLAMP(in, mn, mx) (DSY_MIN(DSY_MAX(in, mn), mx))
  27:../DaisySP/Source/Utility/dsp.h **** #define DSY_COUNTOF(_arr) (sizeof(_arr) / sizeof(_arr[0]))
  28:../DaisySP/Source/Utility/dsp.h **** 
  29:../DaisySP/Source/Utility/dsp.h **** namespace daisysp
  30:../DaisySP/Source/Utility/dsp.h **** {
  31:../DaisySP/Source/Utility/dsp.h **** //Avoids division for random floats. e.g. rand() * kRandFrac
  32:../DaisySP/Source/Utility/dsp.h **** static constexpr float kRandFrac = 1.f / (float)RAND_MAX;
  33:../DaisySP/Source/Utility/dsp.h **** 
  34:../DaisySP/Source/Utility/dsp.h **** //Convert from semitones to other units. e.g. 2 ^ (kOneTwelfth * x)
ARM GAS  /var/folders/2p/02m_5p7958535cp2tpgps0400000gn/T//ccbqYDkS.s 			page 6


  35:../DaisySP/Source/Utility/dsp.h **** static constexpr float kOneTwelfth = 1.f / 12.f;
  36:../DaisySP/Source/Utility/dsp.h **** 
  37:../DaisySP/Source/Utility/dsp.h **** /** efficient floating point min/max
  38:../DaisySP/Source/Utility/dsp.h **** c/o stephen mccaul
  39:../DaisySP/Source/Utility/dsp.h **** */
  40:../DaisySP/Source/Utility/dsp.h **** inline float fmax(float a, float b)
  41:../DaisySP/Source/Utility/dsp.h **** {
  42:../DaisySP/Source/Utility/dsp.h ****     float r;
  43:../DaisySP/Source/Utility/dsp.h **** #ifdef __arm__
  44:../DaisySP/Source/Utility/dsp.h ****     asm("vmaxnm.f32 %[d], %[n], %[m]" : [d] "=t"(r) : [n] "t"(a), [m] "t"(b) :);
 148              		.loc 3 44 5 view .LVU36
 149 0036 DFED117A 		vldr.32	s15, .L5+12
 150              	.LBE194:
 151              	.LBE193:
 152              	.LBE192:
 153              	.LBE191:
 154              	.LBE190:
  17:GranularSynth.cpp ****   Grain::right_buf_ = right;
 155              		.loc 1 17 20 view .LVU37
 156 003a 1E60     		str	r6, [r3]
  18:GranularSynth.cpp ****   InitParams();
 157              		.loc 1 18 3 is_stmt 1 view .LVU38
  18:GranularSynth.cpp ****   InitParams();
 158              		.loc 1 18 21 is_stmt 0 view .LVU39
 159 003c 104B     		ldr	r3, .L5+16
 160              	.LBB211:
 161              	.LBB207:
 162              	.LBB203:
 163              	.LBB197:
 164              	.LBB195:
 165              		.loc 3 44 5 view .LVU40
 166              		.syntax unified
 167              	@ 44 "../DaisySP/Source/Utility/dsp.h" 1
 168 003e C7FE877A 		vmaxnm.f32 s15, s15, s14
 169              	@ 0 "" 2
 170              		.thumb
 171              		.syntax unified
 172              	.LBE195:
 173              	.LBE197:
 174              	.LBE203:
 175              	.LBE207:
 176              	.LBE211:
  18:GranularSynth.cpp ****   InitParams();
 177              		.loc 1 18 21 view .LVU41
 178 0042 1D60     		str	r5, [r3]
  19:GranularSynth.cpp ****   rng_.Init(SAMPLE_RATE_FLOAT);
 179              		.loc 1 19 3 is_stmt 1 view .LVU42
  19:GranularSynth.cpp ****   rng_.Init(SAMPLE_RATE_FLOAT);
 180              		.loc 1 19 13 is_stmt 0 view .LVU43
 181 0044 FFF7FEFF 		bl	_ZN13GranularSynth10InitParamsEv
 182              	.LVL7:
  20:GranularSynth.cpp ****   rng_.SetFreq(3.0f);
 183              		.loc 1 20 3 is_stmt 1 view .LVU44
 184              	.LBB212:
 185              	.LBI175:
  39:../DaisySP/Source/Utility/smooth_random.h ****     {
 186              		.loc 2 39 10 view .LVU45
ARM GAS  /var/folders/2p/02m_5p7958535cp2tpgps0400000gn/T//ccbqYDkS.s 			page 7


 187              	.LBB186:
  41:../DaisySP/Source/Utility/smooth_random.h **** 
 188              		.loc 2 41 9 view .LVU46
  41:../DaisySP/Source/Utility/smooth_random.h **** 
 189              		.loc 2 41 22 is_stmt 0 view .LVU47
 190 0048 0E4B     		ldr	r3, .L5+20
 191              		.loc 2 44 19 view .LVU48
 192 004a 84ED8A7A 		vstr.32	s14, [r4, #552]
  41:../DaisySP/Source/Utility/smooth_random.h **** 
 193              		.loc 2 41 22 view .LVU49
 194 004e C4F83C32 		str	r3, [r4, #572]	@ float
  43:../DaisySP/Source/Utility/smooth_random.h ****         phase_    = 0.0f;
 195              		.loc 2 43 9 is_stmt 1 view .LVU50
 196              	.LVL8:
 197              	.LBB177:
 198              	.LBI177:
  45:../DaisySP/Source/Utility/smooth_random.h ****         from_     = 0.0f;
  46:../DaisySP/Source/Utility/smooth_random.h ****         interval_ = 0.0f;
  47:../DaisySP/Source/Utility/smooth_random.h ****         amount_ = 0.01f;
  48:../DaisySP/Source/Utility/smooth_random.h **** 
  49:../DaisySP/Source/Utility/smooth_random.h ****     }
  50:../DaisySP/Source/Utility/smooth_random.h **** 
  51:../DaisySP/Source/Utility/smooth_random.h ****     /** Get the next float. Ranges from -1 to 1. */
  52:../DaisySP/Source/Utility/smooth_random.h ****     float Process()
  53:../DaisySP/Source/Utility/smooth_random.h ****     {
  54:../DaisySP/Source/Utility/smooth_random.h ****         phase_ += frequency_;
  55:../DaisySP/Source/Utility/smooth_random.h ****         if(phase_ >= 1.0f)
  56:../DaisySP/Source/Utility/smooth_random.h ****         {
  57:../DaisySP/Source/Utility/smooth_random.h ****             phase_ -= 1.0f;
  58:../DaisySP/Source/Utility/smooth_random.h ****             from_ += interval_;
  59:../DaisySP/Source/Utility/smooth_random.h ****             interval_ = (rand() * kRandFrac * 2.0f - 1.0f - from_) * amount_;
  60:../DaisySP/Source/Utility/smooth_random.h ****         }
  61:../DaisySP/Source/Utility/smooth_random.h ****         float t = phase_ * phase_ * (3.0f - 2.0f * phase_);
  62:../DaisySP/Source/Utility/smooth_random.h ****         return from_ + interval_ * t;
  63:../DaisySP/Source/Utility/smooth_random.h ****     }
  64:../DaisySP/Source/Utility/smooth_random.h **** 
  65:../DaisySP/Source/Utility/smooth_random.h ****     /** How often to slew to a new random value
  66:../DaisySP/Source/Utility/smooth_random.h ****         \param freq Rate in Hz
  67:../DaisySP/Source/Utility/smooth_random.h ****     */
  68:../DaisySP/Source/Utility/smooth_random.h ****     void SetFreq(float freq)
 199              		.loc 2 68 10 view .LVU51
 200              	.LBE177:
 201              	.LBE186:
 202              	.LBE212:
  69:../DaisySP/Source/Utility/smooth_random.h ****     {
  70:../DaisySP/Source/Utility/smooth_random.h ****         freq       = freq / sample_rate_;
 203              		.loc 2 70 9 view .LVU52
  71:../DaisySP/Source/Utility/smooth_random.h ****         frequency_ = fclamp(freq, 0.f, 1.f);
 204              		.loc 2 71 9 view .LVU53
 205              	.LBB213:
 206              	.LBB187:
 207              	.LBB184:
 208              	.LBB178:
 209              	.LBI178:
  45:../DaisySP/Source/Utility/dsp.h **** #else
  46:../DaisySP/Source/Utility/dsp.h ****     r = (a > b) ? a : b;
  47:../DaisySP/Source/Utility/dsp.h **** #endif // __arm__
ARM GAS  /var/folders/2p/02m_5p7958535cp2tpgps0400000gn/T//ccbqYDkS.s 			page 8


  48:../DaisySP/Source/Utility/dsp.h ****     return r;
  49:../DaisySP/Source/Utility/dsp.h **** }
  50:../DaisySP/Source/Utility/dsp.h **** 
  51:../DaisySP/Source/Utility/dsp.h **** inline float fmin(float a, float b)
  52:../DaisySP/Source/Utility/dsp.h **** {
  53:../DaisySP/Source/Utility/dsp.h ****     float r;
  54:../DaisySP/Source/Utility/dsp.h **** #ifdef __arm__
  55:../DaisySP/Source/Utility/dsp.h ****     asm("vminnm.f32 %[d], %[n], %[m]" : [d] "=t"(r) : [n] "t"(a), [m] "t"(b) :);
  56:../DaisySP/Source/Utility/dsp.h **** #else
  57:../DaisySP/Source/Utility/dsp.h ****     r = (a < b) ? a : b;
  58:../DaisySP/Source/Utility/dsp.h **** #endif // __arm__
  59:../DaisySP/Source/Utility/dsp.h ****     return r;
  60:../DaisySP/Source/Utility/dsp.h **** }
  61:../DaisySP/Source/Utility/dsp.h **** 
  62:../DaisySP/Source/Utility/dsp.h **** /** quick fp clamp
  63:../DaisySP/Source/Utility/dsp.h **** */
  64:../DaisySP/Source/Utility/dsp.h **** inline float fclamp(float in, float min, float max)
 210              		.loc 3 64 14 view .LVU54
 211              	.LBE178:
 212              	.LBE184:
 213              	.LBE187:
 214              	.LBE213:
  65:../DaisySP/Source/Utility/dsp.h **** {
  66:../DaisySP/Source/Utility/dsp.h ****     return fmin(fmax(in, min), max);
 215              		.loc 3 66 5 view .LVU55
 216              	.LBB214:
 217              	.LBB188:
 218              	.LBB185:
 219              	.LBB183:
 220              	.LBB179:
 221              	.LBI179:
  40:../DaisySP/Source/Utility/dsp.h **** {
 222              		.loc 3 40 14 view .LVU56
 223              	.LBB180:
  42:../DaisySP/Source/Utility/dsp.h **** #ifdef __arm__
 224              		.loc 3 42 5 view .LVU57
  44:../DaisySP/Source/Utility/dsp.h **** #else
 225              		.loc 3 44 5 view .LVU58
  48:../DaisySP/Source/Utility/dsp.h **** }
 226              		.loc 3 48 5 view .LVU59
  48:../DaisySP/Source/Utility/dsp.h **** }
 227              		.loc 3 48 5 is_stmt 0 view .LVU60
 228              	.LBE180:
 229              	.LBE179:
 230              	.LBB181:
 231              	.LBI181:
  51:../DaisySP/Source/Utility/dsp.h **** {
 232              		.loc 3 51 14 is_stmt 1 view .LVU61
 233              	.LBB182:
  53:../DaisySP/Source/Utility/dsp.h **** #ifdef __arm__
 234              		.loc 3 53 5 view .LVU62
  55:../DaisySP/Source/Utility/dsp.h **** #else
 235              		.loc 3 55 5 view .LVU63
  59:../DaisySP/Source/Utility/dsp.h **** }
 236              		.loc 3 59 5 view .LVU64
  59:../DaisySP/Source/Utility/dsp.h **** }
 237              		.loc 3 59 5 is_stmt 0 view .LVU65
ARM GAS  /var/folders/2p/02m_5p7958535cp2tpgps0400000gn/T//ccbqYDkS.s 			page 9


 238              	.LBE182:
 239              	.LBE181:
 240              	.LBE183:
 241              	.LBE185:
  44:../DaisySP/Source/Utility/smooth_random.h ****         from_     = 0.0f;
 242              		.loc 2 44 9 is_stmt 1 view .LVU66
  45:../DaisySP/Source/Utility/smooth_random.h ****         interval_ = 0.0f;
 243              		.loc 2 45 9 view .LVU67
  47:../DaisySP/Source/Utility/smooth_random.h **** 
 244              		.loc 2 47 17 is_stmt 0 view .LVU68
 245 0052 0D4B     		ldr	r3, .L5+24
  45:../DaisySP/Source/Utility/smooth_random.h ****         interval_ = 0.0f;
 246              		.loc 2 45 19 view .LVU69
 247 0054 84ED8B7A 		vstr.32	s14, [r4, #556]
  46:../DaisySP/Source/Utility/smooth_random.h ****         amount_ = 0.01f;
 248              		.loc 2 46 9 is_stmt 1 view .LVU70
  46:../DaisySP/Source/Utility/smooth_random.h ****         amount_ = 0.01f;
 249              		.loc 2 46 19 is_stmt 0 view .LVU71
 250 0058 84ED8C7A 		vstr.32	s14, [r4, #560]
  47:../DaisySP/Source/Utility/smooth_random.h **** 
 251              		.loc 2 47 9 is_stmt 1 view .LVU72
 252              	.LBE188:
 253              	.LBE214:
 254              	.LBB215:
 255              	.LBB208:
 256              	.LBB204:
 257              	.LBB198:
 258              	.LBB199:
  55:../DaisySP/Source/Utility/dsp.h **** #else
 259              		.loc 3 55 5 is_stmt 0 view .LVU73
 260 005c B7EE007A 		vmov.f32	s14, #1.0e+0
 261              	.LBE199:
 262              	.LBE198:
 263              	.LBE204:
 264              	.LBE208:
 265              	.LBE215:
 266              	.LBB216:
 267              	.LBB189:
  47:../DaisySP/Source/Utility/smooth_random.h **** 
 268              		.loc 2 47 17 view .LVU74
 269 0060 C4F83432 		str	r3, [r4, #564]	@ float
 270              	.LVL9:
  47:../DaisySP/Source/Utility/smooth_random.h **** 
 271              		.loc 2 47 17 view .LVU75
 272              	.LBE189:
 273              	.LBE216:
  21:GranularSynth.cpp **** }
 274              		.loc 1 21 3 is_stmt 1 view .LVU76
 275              	.LBB217:
 276              	.LBI190:
  68:../DaisySP/Source/Utility/smooth_random.h ****     {
 277              		.loc 2 68 10 view .LVU77
 278              	.LBB209:
  70:../DaisySP/Source/Utility/smooth_random.h ****         frequency_ = fclamp(freq, 0.f, 1.f);
 279              		.loc 2 70 9 view .LVU78
 280              		.loc 2 71 9 view .LVU79
 281              	.LBB205:
ARM GAS  /var/folders/2p/02m_5p7958535cp2tpgps0400000gn/T//ccbqYDkS.s 			page 10


 282              	.LBI192:
  64:../DaisySP/Source/Utility/dsp.h **** {
 283              		.loc 3 64 14 view .LVU80
 284              	.LBE205:
 285              	.LBE209:
 286              	.LBE217:
 287              		.loc 3 66 5 view .LVU81
 288              	.LBB218:
 289              	.LBB210:
 290              	.LBB206:
 291              	.LBB201:
 292              	.LBI193:
  40:../DaisySP/Source/Utility/dsp.h **** {
 293              		.loc 3 40 14 view .LVU82
 294              	.LBB196:
  42:../DaisySP/Source/Utility/dsp.h **** #ifdef __arm__
 295              		.loc 3 42 5 view .LVU83
  44:../DaisySP/Source/Utility/dsp.h **** #else
 296              		.loc 3 44 5 view .LVU84
  48:../DaisySP/Source/Utility/dsp.h **** }
 297              		.loc 3 48 5 view .LVU85
  48:../DaisySP/Source/Utility/dsp.h **** }
 298              		.loc 3 48 5 is_stmt 0 view .LVU86
 299              	.LBE196:
 300              	.LBE201:
 301              	.LBB202:
 302              	.LBI198:
  51:../DaisySP/Source/Utility/dsp.h **** {
 303              		.loc 3 51 14 is_stmt 1 view .LVU87
 304              	.LBB200:
  53:../DaisySP/Source/Utility/dsp.h **** #ifdef __arm__
 305              		.loc 3 53 5 view .LVU88
  55:../DaisySP/Source/Utility/dsp.h **** #else
 306              		.loc 3 55 5 view .LVU89
 307              		.syntax unified
 308              	@ 55 "../DaisySP/Source/Utility/dsp.h" 1
 309 0064 C7FEC77A 		vminnm.f32 s15, s15, s14
 310              	@ 0 "" 2
 311              	.LVL10:
  59:../DaisySP/Source/Utility/dsp.h **** }
 312              		.loc 3 59 5 view .LVU90
  59:../DaisySP/Source/Utility/dsp.h **** }
 313              		.loc 3 59 5 is_stmt 0 view .LVU91
 314              		.thumb
 315              		.syntax unified
 316              	.LBE200:
 317              	.LBE202:
 318              	.LBE206:
 319              		.loc 2 71 20 view .LVU92
 320 0068 C4ED897A 		vstr.32	s15, [r4, #548]
 321              	.LVL11:
 322              		.loc 2 71 20 view .LVU93
 323              	.LBE210:
 324              	.LBE218:
  22:GranularSynth.cpp **** 
 325              		.loc 1 22 1 view .LVU94
 326 006c BDE8F883 		pop	{r3, r4, r5, r6, r7, r8, r9, pc}
ARM GAS  /var/folders/2p/02m_5p7958535cp2tpgps0400000gn/T//ccbqYDkS.s 			page 11


 327              	.LVL12:
 328              	.L6:
  22:GranularSynth.cpp **** 
 329              		.loc 1 22 1 view .LVU95
 330              		.align	2
 331              	.L5:
 332 0070 00000000 		.word	_ZN5Grain10audio_len_E
 333 0074 00000000 		.word	0
 334 0078 00000000 		.word	_ZN5Grain9left_buf_E
 335 007c 6F128338 		.word	948114031
 336 0080 00000000 		.word	_ZN5Grain10right_buf_E
 337 0084 00803B47 		.word	1195081728
 338 0088 0AD7233C 		.word	1008981770
 339              		.cfi_endproc
 340              	.LFE4884:
 342              		.section	.text._ZN13GranularSynth5ResetEj,"ax",%progbits
 343              		.align	1
 344              		.global	_ZN13GranularSynth5ResetEj
 345              		.syntax unified
 346              		.thumb
 347              		.thumb_func
 349              	_ZN13GranularSynth5ResetEj:
 350              	.LVL13:
 351              	.LFB4885:
  24:GranularSynth.cpp ****   audio_len_ = len;
 352              		.loc 1 24 38 is_stmt 1 view -0
 353              		.cfi_startproc
 354              		@ args = 0, pretend = 0, frame = 0
 355              		@ frame_needed = 0, uses_anonymous_args = 0
  25:GranularSynth.cpp ****   for (Grain& grain: grains_){
 356              		.loc 1 25 3 view .LVU97
  24:GranularSynth.cpp ****   audio_len_ = len;
 357              		.loc 1 24 38 is_stmt 0 view .LVU98
 358 0000 70B5     		push	{r4, r5, r6, lr}
 359              		.cfi_def_cfa_offset 16
 360              		.cfi_offset 4, -16
 361              		.cfi_offset 5, -12
 362              		.cfi_offset 6, -8
 363              		.cfi_offset 14, -4
  24:GranularSynth.cpp ****   audio_len_ = len;
 364              		.loc 1 24 38 view .LVU99
 365 0002 0446     		mov	r4, r0
 366              	.LBB219:
  26:GranularSynth.cpp ****     grain.Init();
 367              		.loc 1 26 22 view .LVU100
 368 0004 00F11005 		add	r5, r0, #16
 369 0008 00F50676 		add	r6, r0, #536
 370              	.LBE219:
  25:GranularSynth.cpp ****   for (Grain& grain: grains_){
 371              		.loc 1 25 14 view .LVU101
 372 000c C160     		str	r1, [r0, #12]
  26:GranularSynth.cpp ****     grain.Init();
 373              		.loc 1 26 3 is_stmt 1 view .LVU102
 374              	.LVL14:
 375              	.L9:
 376              	.LBB220:
  26:GranularSynth.cpp ****     grain.Init();
ARM GAS  /var/folders/2p/02m_5p7958535cp2tpgps0400000gn/T//ccbqYDkS.s 			page 12


 377              		.loc 1 26 22 discriminator 3 view .LVU103
 378 000e B542     		cmp	r5, r6
 379 0010 04D0     		beq	.L8
 380              	.LVL15:
  27:GranularSynth.cpp ****   }
 381              		.loc 1 27 5 discriminator 2 view .LVU104
  27:GranularSynth.cpp ****   }
 382              		.loc 1 27 15 is_stmt 0 discriminator 2 view .LVU105
 383 0012 2846     		mov	r0, r5
  26:GranularSynth.cpp ****     grain.Init();
 384              		.loc 1 26 3 discriminator 2 view .LVU106
 385 0014 3435     		adds	r5, r5, #52
 386              	.LVL16:
  27:GranularSynth.cpp ****   }
 387              		.loc 1 27 15 discriminator 2 view .LVU107
 388 0016 FFF7FEFF 		bl	_ZN5Grain4InitEv
 389              	.LVL17:
  26:GranularSynth.cpp ****     grain.Init();
 390              		.loc 1 26 3 is_stmt 1 discriminator 2 view .LVU108
  26:GranularSynth.cpp ****     grain.Init();
 391              		.loc 1 26 3 is_stmt 0 discriminator 2 view .LVU109
 392 001a F8E7     		b	.L9
 393              	.LVL18:
 394              	.L8:
  26:GranularSynth.cpp ****     grain.Init();
 395              		.loc 1 26 3 discriminator 2 view .LVU110
 396              	.LBE220:
  29:GranularSynth.cpp **** }
 397              		.loc 1 29 3 is_stmt 1 view .LVU111
  29:GranularSynth.cpp **** }
 398              		.loc 1 29 13 is_stmt 0 view .LVU112
 399 001c 2046     		mov	r0, r4
  30:GranularSynth.cpp **** 
 400              		.loc 1 30 1 view .LVU113
 401 001e BDE87040 		pop	{r4, r5, r6, lr}
 402              		.cfi_restore 14
 403              		.cfi_restore 6
 404              		.cfi_restore 5
 405              		.cfi_restore 4
 406              		.cfi_def_cfa_offset 0
 407              	.LVL19:
  29:GranularSynth.cpp **** }
 408              		.loc 1 29 13 view .LVU114
 409 0022 FFF7FEBF 		b	_ZN13GranularSynth10InitParamsEv
 410              	.LVL20:
 411              		.cfi_endproc
 412              	.LFE4885:
 414              		.section	.text._ZN13GranularSynth12SetRndAmountEf,"ax",%progbits
 415              		.align	1
 416              		.global	_ZN13GranularSynth12SetRndAmountEf
 417              		.syntax unified
 418              		.thumb
 419              		.thumb_func
 421              	_ZN13GranularSynth12SetRndAmountEf:
 422              	.LVL21:
 423              	.LFB4887:
  41:GranularSynth.cpp **** 
ARM GAS  /var/folders/2p/02m_5p7958535cp2tpgps0400000gn/T//ccbqYDkS.s 			page 13


  42:GranularSynth.cpp **** void GranularSynth::SetRndAmount(float amount){
 424              		.loc 1 42 47 is_stmt 1 view -0
 425              		.cfi_startproc
 426              		@ args = 0, pretend = 0, frame = 0
 427              		@ frame_needed = 0, uses_anonymous_args = 0
 428              		@ link register save eliminated.
  43:GranularSynth.cpp ****   rng_.SetAmount(amount);
 429              		.loc 1 43 3 view .LVU116
 430              	.LBB221:
 431              	.LBI221:
  72:../DaisySP/Source/Utility/smooth_random.h ****     }
  73:../DaisySP/Source/Utility/smooth_random.h **** 
  74:../DaisySP/Source/Utility/smooth_random.h ****     void SetAmount(float amount){
 432              		.loc 2 74 10 view .LVU117
 433              	.LBB222:
  75:../DaisySP/Source/Utility/smooth_random.h ****       amount_ = fclamp(amount, 0.01f, 1.0f);
 434              		.loc 2 75 7 view .LVU118
 435              	.LBB223:
 436              	.LBI223:
  64:../DaisySP/Source/Utility/dsp.h **** {
 437              		.loc 3 64 14 view .LVU119
 438              	.LBE223:
 439              	.LBE222:
 440              	.LBE221:
 441              		.loc 3 66 5 view .LVU120
 442              	.LBB230:
 443              	.LBB229:
 444              	.LBB228:
 445              	.LBB224:
 446              	.LBI224:
  40:../DaisySP/Source/Utility/dsp.h **** {
 447              		.loc 3 40 14 view .LVU121
 448              	.LBB225:
  42:../DaisySP/Source/Utility/dsp.h **** #ifdef __arm__
 449              		.loc 3 42 5 view .LVU122
  44:../DaisySP/Source/Utility/dsp.h **** #else
 450              		.loc 3 44 5 view .LVU123
 451 0000 DFED057A 		vldr.32	s15, .L11
 452              		.syntax unified
 453              	@ 44 "../DaisySP/Source/Utility/dsp.h" 1
 454 0004 80FE270A 		vmaxnm.f32 s0, s0, s15
 455              	@ 0 "" 2
 456              	.LVL22:
  48:../DaisySP/Source/Utility/dsp.h **** }
 457              		.loc 3 48 5 view .LVU124
  48:../DaisySP/Source/Utility/dsp.h **** }
 458              		.loc 3 48 5 is_stmt 0 view .LVU125
 459              		.thumb
 460              		.syntax unified
 461              	.LBE225:
 462              	.LBE224:
 463              	.LBB226:
 464              	.LBI226:
  51:../DaisySP/Source/Utility/dsp.h **** {
 465              		.loc 3 51 14 is_stmt 1 view .LVU126
 466              	.LBB227:
  53:../DaisySP/Source/Utility/dsp.h **** #ifdef __arm__
ARM GAS  /var/folders/2p/02m_5p7958535cp2tpgps0400000gn/T//ccbqYDkS.s 			page 14


 467              		.loc 3 53 5 view .LVU127
  55:../DaisySP/Source/Utility/dsp.h **** #else
 468              		.loc 3 55 5 view .LVU128
 469 0008 F7EE007A 		vmov.f32	s15, #1.0e+0
 470              		.syntax unified
 471              	@ 55 "../DaisySP/Source/Utility/dsp.h" 1
 472 000c 80FE670A 		vminnm.f32 s0, s0, s15
 473              	@ 0 "" 2
 474              	.LVL23:
  59:../DaisySP/Source/Utility/dsp.h **** }
 475              		.loc 3 59 5 view .LVU129
  59:../DaisySP/Source/Utility/dsp.h **** }
 476              		.loc 3 59 5 is_stmt 0 view .LVU130
 477              		.thumb
 478              		.syntax unified
 479              	.LBE227:
 480              	.LBE226:
 481              	.LBE228:
 482              		.loc 2 75 15 view .LVU131
 483 0010 80ED8D0A 		vstr.32	s0, [r0, #564]
 484              	.LVL24:
 485              		.loc 2 75 15 view .LVU132
 486              	.LBE229:
 487              	.LBE230:
  44:GranularSynth.cpp **** }
 488              		.loc 1 44 1 view .LVU133
 489 0014 7047     		bx	lr
 490              	.L12:
 491 0016 00BF     		.align	2
 492              	.L11:
 493 0018 0AD7233C 		.word	1008981770
 494              		.cfi_endproc
 495              	.LFE4887:
 497              		.section	.text._ZN13GranularSynth17SetRndRefreshFreqEf,"ax",%progbits
 498              		.align	1
 499              		.global	_ZN13GranularSynth17SetRndRefreshFreqEf
 500              		.syntax unified
 501              		.thumb
 502              		.thumb_func
 504              	_ZN13GranularSynth17SetRndRefreshFreqEf:
 505              	.LVL25:
 506              	.LFB4888:
  45:GranularSynth.cpp **** 
  46:GranularSynth.cpp **** void GranularSynth::SetRndRefreshFreq(float freq){
 507              		.loc 1 46 50 is_stmt 1 view -0
 508              		.cfi_startproc
 509              		@ args = 0, pretend = 0, frame = 0
 510              		@ frame_needed = 0, uses_anonymous_args = 0
 511              		@ link register save eliminated.
  47:GranularSynth.cpp ****   /* map knob input between 0.1Hz and 20Hz on an exponential curve */
  48:GranularSynth.cpp ****   freq = fmap(freq, 0.1f, 20.0f, daisysp::Mapping::EXP);
 512              		.loc 1 48 3 view .LVU135
 513              	.LBB245:
 514              	.LBI245:
  67:../DaisySP/Source/Utility/dsp.h **** }
  68:../DaisySP/Source/Utility/dsp.h **** 
  69:../DaisySP/Source/Utility/dsp.h **** /** From Musicdsp.org "Fast power and root estimates for 32bit floats)
ARM GAS  /var/folders/2p/02m_5p7958535cp2tpgps0400000gn/T//ccbqYDkS.s 			page 15


  70:../DaisySP/Source/Utility/dsp.h **** Original code by Stefan Stenzel
  71:../DaisySP/Source/Utility/dsp.h **** These are approximations
  72:../DaisySP/Source/Utility/dsp.h **** */
  73:../DaisySP/Source/Utility/dsp.h **** inline float fastpower(float f, int n)
  74:../DaisySP/Source/Utility/dsp.h **** {
  75:../DaisySP/Source/Utility/dsp.h ****     long *lp, l;
  76:../DaisySP/Source/Utility/dsp.h ****     lp = (long *)(&f);
  77:../DaisySP/Source/Utility/dsp.h ****     l  = *lp;
  78:../DaisySP/Source/Utility/dsp.h ****     l -= 0x3F800000;
  79:../DaisySP/Source/Utility/dsp.h ****     l <<= (n - 1);
  80:../DaisySP/Source/Utility/dsp.h ****     l += 0x3F800000;
  81:../DaisySP/Source/Utility/dsp.h ****     *lp = l;
  82:../DaisySP/Source/Utility/dsp.h ****     return f;
  83:../DaisySP/Source/Utility/dsp.h **** }
  84:../DaisySP/Source/Utility/dsp.h **** 
  85:../DaisySP/Source/Utility/dsp.h **** inline float fastroot(float f, int n)
  86:../DaisySP/Source/Utility/dsp.h **** {
  87:../DaisySP/Source/Utility/dsp.h ****     long *lp, l;
  88:../DaisySP/Source/Utility/dsp.h ****     lp = (long *)(&f);
  89:../DaisySP/Source/Utility/dsp.h ****     l  = *lp;
  90:../DaisySP/Source/Utility/dsp.h ****     l -= 0x3F800000;
  91:../DaisySP/Source/Utility/dsp.h ****     l >>= (n - 1);
  92:../DaisySP/Source/Utility/dsp.h ****     l += 0x3F800000;
  93:../DaisySP/Source/Utility/dsp.h ****     *lp = l;
  94:../DaisySP/Source/Utility/dsp.h ****     return f;
  95:../DaisySP/Source/Utility/dsp.h **** }
  96:../DaisySP/Source/Utility/dsp.h **** 
  97:../DaisySP/Source/Utility/dsp.h **** /** Significantly more efficient than fmodf(x, 1.0f) for calculating
  98:../DaisySP/Source/Utility/dsp.h ****  *  the decimal part of a floating point value.
  99:../DaisySP/Source/Utility/dsp.h ****  */
 100:../DaisySP/Source/Utility/dsp.h **** inline float fastmod1f(float x)
 101:../DaisySP/Source/Utility/dsp.h **** {
 102:../DaisySP/Source/Utility/dsp.h ****     return x - static_cast<int>(x);
 103:../DaisySP/Source/Utility/dsp.h **** }
 104:../DaisySP/Source/Utility/dsp.h **** 
 105:../DaisySP/Source/Utility/dsp.h **** /** From http://openaudio.blogspot.com/2017/02/faster-log10-and-pow.html
 106:../DaisySP/Source/Utility/dsp.h **** No approximation, pow10f(x) gives a 90% speed increase over powf(10.f, x)
 107:../DaisySP/Source/Utility/dsp.h **** */
 108:../DaisySP/Source/Utility/dsp.h **** inline float pow10f(float f)
 109:../DaisySP/Source/Utility/dsp.h **** {
 110:../DaisySP/Source/Utility/dsp.h ****     return expf(2.302585092994046f * f);
 111:../DaisySP/Source/Utility/dsp.h **** }
 112:../DaisySP/Source/Utility/dsp.h **** 
 113:../DaisySP/Source/Utility/dsp.h **** /* Original code for fastlog2f by Dr. Paul Beckmann from the ARM community forum, adapted from the 
 114:../DaisySP/Source/Utility/dsp.h **** About 25% performance increase over std::log10f
 115:../DaisySP/Source/Utility/dsp.h **** */
 116:../DaisySP/Source/Utility/dsp.h **** inline float fastlog2f(float f)
 117:../DaisySP/Source/Utility/dsp.h **** {
 118:../DaisySP/Source/Utility/dsp.h ****     float frac;
 119:../DaisySP/Source/Utility/dsp.h ****     int   exp;
 120:../DaisySP/Source/Utility/dsp.h ****     frac = frexpf(fabsf(f), &exp);
 121:../DaisySP/Source/Utility/dsp.h ****     f    = 1.23149591368684f;
 122:../DaisySP/Source/Utility/dsp.h ****     f *= frac;
 123:../DaisySP/Source/Utility/dsp.h ****     f += -4.11852516267426f;
 124:../DaisySP/Source/Utility/dsp.h ****     f *= frac;
 125:../DaisySP/Source/Utility/dsp.h ****     f += 6.02197014179219f;
 126:../DaisySP/Source/Utility/dsp.h ****     f *= frac;
ARM GAS  /var/folders/2p/02m_5p7958535cp2tpgps0400000gn/T//ccbqYDkS.s 			page 16


 127:../DaisySP/Source/Utility/dsp.h ****     f += -3.13396450166353f;
 128:../DaisySP/Source/Utility/dsp.h ****     f += exp;
 129:../DaisySP/Source/Utility/dsp.h ****     return (f);
 130:../DaisySP/Source/Utility/dsp.h **** }
 131:../DaisySP/Source/Utility/dsp.h **** 
 132:../DaisySP/Source/Utility/dsp.h **** inline float fastlog10f(float f)
 133:../DaisySP/Source/Utility/dsp.h **** {
 134:../DaisySP/Source/Utility/dsp.h ****     return fastlog2f(f) * 0.3010299956639812f;
 135:../DaisySP/Source/Utility/dsp.h **** }
 136:../DaisySP/Source/Utility/dsp.h **** 
 137:../DaisySP/Source/Utility/dsp.h **** /** Midi to frequency helper
 138:../DaisySP/Source/Utility/dsp.h **** */
 139:../DaisySP/Source/Utility/dsp.h **** inline float mtof(float m)
 140:../DaisySP/Source/Utility/dsp.h **** {
 141:../DaisySP/Source/Utility/dsp.h ****     return powf(2, (m - 69.0f) / 12.0f) * 440.0f;
 142:../DaisySP/Source/Utility/dsp.h **** }
 143:../DaisySP/Source/Utility/dsp.h **** 
 144:../DaisySP/Source/Utility/dsp.h **** 
 145:../DaisySP/Source/Utility/dsp.h **** /** one pole lpf
 146:../DaisySP/Source/Utility/dsp.h **** out is passed by reference, and must be retained between
 147:../DaisySP/Source/Utility/dsp.h **** calls to properly filter the signal
 148:../DaisySP/Source/Utility/dsp.h **** coeff can be calculated:
 149:../DaisySP/Source/Utility/dsp.h **** coeff = 1.0 / (time * sample_rate) ; where time is in seconds
 150:../DaisySP/Source/Utility/dsp.h **** */
 151:../DaisySP/Source/Utility/dsp.h **** inline void fonepole(float &out, float in, float coeff)
 152:../DaisySP/Source/Utility/dsp.h **** {
 153:../DaisySP/Source/Utility/dsp.h ****     out += coeff * (in - out);
 154:../DaisySP/Source/Utility/dsp.h **** }
 155:../DaisySP/Source/Utility/dsp.h **** 
 156:../DaisySP/Source/Utility/dsp.h **** /** Curves to use with the fmap function */
 157:../DaisySP/Source/Utility/dsp.h **** enum class Mapping
 158:../DaisySP/Source/Utility/dsp.h **** {
 159:../DaisySP/Source/Utility/dsp.h ****     LINEAR,
 160:../DaisySP/Source/Utility/dsp.h ****     EXP,
 161:../DaisySP/Source/Utility/dsp.h ****     LOG,
 162:../DaisySP/Source/Utility/dsp.h **** };
 163:../DaisySP/Source/Utility/dsp.h **** 
 164:../DaisySP/Source/Utility/dsp.h **** /** Maps a float between a specified range, using a specified curve.
 165:../DaisySP/Source/Utility/dsp.h ****  *
 166:../DaisySP/Source/Utility/dsp.h ****  *  \param in a value between 0 to 1 that will be mapped to the new range.
 167:../DaisySP/Source/Utility/dsp.h ****  *  \param min the new minimum value
 168:../DaisySP/Source/Utility/dsp.h ****  *  \param max the new maxmimum value
 169:../DaisySP/Source/Utility/dsp.h ****  *  \param curve a Mapping Value to adjust the response curve of the transformation
 170:../DaisySP/Source/Utility/dsp.h ****  *               defaults to Linear. @see Mapping
 171:../DaisySP/Source/Utility/dsp.h ****  *
 172:../DaisySP/Source/Utility/dsp.h ****  *  When using the log curve min and max, must be greater than zero.
 173:../DaisySP/Source/Utility/dsp.h ****  *
 174:../DaisySP/Source/Utility/dsp.h ****  *  \retval returns the transformed float within the new range.
 175:../DaisySP/Source/Utility/dsp.h **** */
 176:../DaisySP/Source/Utility/dsp.h **** inline float
 177:../DaisySP/Source/Utility/dsp.h **** fmap(float in, float min, float max, Mapping curve = Mapping::LINEAR)
 515              		.loc 3 177 1 view .LVU136
 516              	.LBE245:
 178:../DaisySP/Source/Utility/dsp.h **** {
 179:../DaisySP/Source/Utility/dsp.h ****     switch(curve)
 517              		.loc 3 179 5 view .LVU137
 518              	.LBB258:
ARM GAS  /var/folders/2p/02m_5p7958535cp2tpgps0400000gn/T//ccbqYDkS.s 			page 17


 519              	.LBB246:
 180:../DaisySP/Source/Utility/dsp.h ****     {
 181:../DaisySP/Source/Utility/dsp.h ****         case Mapping::EXP:
 520              		.loc 3 181 9 view .LVU138
 182:../DaisySP/Source/Utility/dsp.h ****             return fclamp(min + (in * in) * (max - min), min, max);
 521              		.loc 3 182 13 view .LVU139
 522              		.loc 3 182 26 is_stmt 0 view .LVU140
 523 0000 DFED0F7A 		vldr.32	s15, .L14
 524              		.loc 3 182 37 view .LVU141
 525 0004 20EE000A 		vmul.f32	s0, s0, s0
 526              	.LVL26:
 527              		.loc 3 182 26 view .LVU142
 528 0008 DFED0E6A 		vldr.32	s13, .L14+4
 529 000c B0EE677A 		vmov.f32	s14, s15
 530 0010 A0EE267A 		vfma.f32	s14, s0, s13
 531              	.LVL27:
 532              	.LBB247:
 533              	.LBI247:
  64:../DaisySP/Source/Utility/dsp.h **** {
 534              		.loc 3 64 14 is_stmt 1 view .LVU143
 535              	.LBE247:
 536              	.LBE246:
 537              	.LBE258:
  66:../DaisySP/Source/Utility/dsp.h **** }
 538              		.loc 3 66 5 view .LVU144
 539              	.LBB259:
 540              	.LBB256:
 541              	.LBB254:
 542              	.LBB248:
 543              	.LBI248:
  40:../DaisySP/Source/Utility/dsp.h **** {
 544              		.loc 3 40 14 view .LVU145
 545              	.LBB249:
  42:../DaisySP/Source/Utility/dsp.h **** #ifdef __arm__
 546              		.loc 3 42 5 view .LVU146
  44:../DaisySP/Source/Utility/dsp.h **** #else
 547              		.loc 3 44 5 view .LVU147
 548              	.LBE249:
 549              	.LBE248:
 550              	.LBE254:
 551              	.LBE256:
 552              	.LBE259:
 553              	.LBB260:
 554              	.LBB261:
  70:../DaisySP/Source/Utility/smooth_random.h ****         frequency_ = fclamp(freq, 0.f, 1.f);
 555              		.loc 2 70 20 is_stmt 0 view .LVU148
 556 0014 D0ED8F6A 		vldr.32	s13, [r0, #572]
 557              	.LBE261:
 558              	.LBE260:
 559              	.LBB273:
 560              	.LBB257:
 561              	.LBB255:
 562              	.LBB251:
 563              	.LBB250:
  44:../DaisySP/Source/Utility/dsp.h **** #else
 564              		.loc 3 44 5 view .LVU149
 565              		.syntax unified
ARM GAS  /var/folders/2p/02m_5p7958535cp2tpgps0400000gn/T//ccbqYDkS.s 			page 18


 566              	@ 44 "../DaisySP/Source/Utility/dsp.h" 1
 567 0018 87FE277A 		vmaxnm.f32 s14, s14, s15
 568              	@ 0 "" 2
 569              	.LVL28:
  48:../DaisySP/Source/Utility/dsp.h **** }
 570              		.loc 3 48 5 is_stmt 1 view .LVU150
  48:../DaisySP/Source/Utility/dsp.h **** }
 571              		.loc 3 48 5 is_stmt 0 view .LVU151
 572              		.thumb
 573              		.syntax unified
 574              	.LBE250:
 575              	.LBE251:
 576              	.LBB252:
 577              	.LBI252:
  51:../DaisySP/Source/Utility/dsp.h **** {
 578              		.loc 3 51 14 is_stmt 1 view .LVU152
 579              	.LBB253:
  53:../DaisySP/Source/Utility/dsp.h **** #ifdef __arm__
 580              		.loc 3 53 5 view .LVU153
  55:../DaisySP/Source/Utility/dsp.h **** #else
 581              		.loc 3 55 5 view .LVU154
 582 001c F3EE047A 		vmov.f32	s15, #2.0e+1
 583              	.LVL29:
  55:../DaisySP/Source/Utility/dsp.h **** #else
 584              		.loc 3 55 5 is_stmt 0 view .LVU155
 585              		.syntax unified
 586              	@ 55 "../DaisySP/Source/Utility/dsp.h" 1
 587 0020 87FE677A 		vminnm.f32 s14, s14, s15
 588              	@ 0 "" 2
 589              	.LVL30:
  59:../DaisySP/Source/Utility/dsp.h **** }
 590              		.loc 3 59 5 is_stmt 1 view .LVU156
  59:../DaisySP/Source/Utility/dsp.h **** }
 591              		.loc 3 59 5 is_stmt 0 view .LVU157
 592              		.thumb
 593              		.syntax unified
 594              	.LBE253:
 595              	.LBE252:
 596              	.LBE255:
 597              	.LBE257:
 598              	.LBE273:
  49:GranularSynth.cpp ****   rng_.SetFreq(freq);
 599              		.loc 1 49 3 is_stmt 1 view .LVU158
 600              	.LBB274:
 601              	.LBI260:
  68:../DaisySP/Source/Utility/smooth_random.h ****     {
 602              		.loc 2 68 10 view .LVU159
 603              	.LBB271:
  70:../DaisySP/Source/Utility/smooth_random.h ****         frequency_ = fclamp(freq, 0.f, 1.f);
 604              		.loc 2 70 9 view .LVU160
  71:../DaisySP/Source/Utility/smooth_random.h ****     }
 605              		.loc 2 71 9 view .LVU161
 606              	.LBB262:
 607              	.LBI262:
  64:../DaisySP/Source/Utility/dsp.h **** {
 608              		.loc 3 64 14 view .LVU162
 609              	.LBE262:
ARM GAS  /var/folders/2p/02m_5p7958535cp2tpgps0400000gn/T//ccbqYDkS.s 			page 19


 610              	.LBE271:
 611              	.LBE274:
  66:../DaisySP/Source/Utility/dsp.h **** }
 612              		.loc 3 66 5 view .LVU163
 613              	.LBB275:
 614              	.LBB272:
 615              	.LBB269:
 616              	.LBB263:
 617              	.LBI263:
  40:../DaisySP/Source/Utility/dsp.h **** {
 618              		.loc 3 40 14 view .LVU164
 619              	.LBB264:
  42:../DaisySP/Source/Utility/dsp.h **** #ifdef __arm__
 620              		.loc 3 42 5 view .LVU165
  44:../DaisySP/Source/Utility/dsp.h **** #else
 621              		.loc 3 44 5 view .LVU166
 622              	.LBE264:
 623              	.LBE263:
 624              	.LBE269:
  70:../DaisySP/Source/Utility/smooth_random.h ****         frequency_ = fclamp(freq, 0.f, 1.f);
 625              		.loc 2 70 20 is_stmt 0 view .LVU167
 626 0024 C7EE267A 		vdiv.f32	s15, s14, s13
 627              	.LVL31:
 628              	.LBB270:
 629              	.LBB266:
 630              	.LBB265:
  44:../DaisySP/Source/Utility/dsp.h **** #else
 631              		.loc 3 44 5 view .LVU168
 632 0028 9FED077A 		vldr.32	s14, .L14+8
 633              	.LVL32:
  44:../DaisySP/Source/Utility/dsp.h **** #else
 634              		.loc 3 44 5 view .LVU169
 635              		.syntax unified
 636              	@ 44 "../DaisySP/Source/Utility/dsp.h" 1
 637 002c C7FE877A 		vmaxnm.f32 s15, s15, s14
 638              	@ 0 "" 2
 639              	.LVL33:
  48:../DaisySP/Source/Utility/dsp.h **** }
 640              		.loc 3 48 5 is_stmt 1 view .LVU170
  48:../DaisySP/Source/Utility/dsp.h **** }
 641              		.loc 3 48 5 is_stmt 0 view .LVU171
 642              		.thumb
 643              		.syntax unified
 644              	.LBE265:
 645              	.LBE266:
 646              	.LBB267:
 647              	.LBI267:
  51:../DaisySP/Source/Utility/dsp.h **** {
 648              		.loc 3 51 14 is_stmt 1 view .LVU172
 649              	.LBB268:
  53:../DaisySP/Source/Utility/dsp.h **** #ifdef __arm__
 650              		.loc 3 53 5 view .LVU173
  55:../DaisySP/Source/Utility/dsp.h **** #else
 651              		.loc 3 55 5 view .LVU174
 652 0030 B7EE007A 		vmov.f32	s14, #1.0e+0
 653              		.syntax unified
 654              	@ 55 "../DaisySP/Source/Utility/dsp.h" 1
ARM GAS  /var/folders/2p/02m_5p7958535cp2tpgps0400000gn/T//ccbqYDkS.s 			page 20


 655 0034 C7FEC77A 		vminnm.f32 s15, s15, s14
 656              	@ 0 "" 2
 657              	.LVL34:
  59:../DaisySP/Source/Utility/dsp.h **** }
 658              		.loc 3 59 5 view .LVU175
  59:../DaisySP/Source/Utility/dsp.h **** }
 659              		.loc 3 59 5 is_stmt 0 view .LVU176
 660              		.thumb
 661              		.syntax unified
 662              	.LBE268:
 663              	.LBE267:
 664              	.LBE270:
  71:../DaisySP/Source/Utility/smooth_random.h ****     }
 665              		.loc 2 71 20 view .LVU177
 666 0038 C0ED897A 		vstr.32	s15, [r0, #548]
 667              	.LVL35:
  71:../DaisySP/Source/Utility/smooth_random.h ****     }
 668              		.loc 2 71 20 view .LVU178
 669              	.LBE272:
 670              	.LBE275:
  50:GranularSynth.cpp **** }
 671              		.loc 1 50 1 view .LVU179
 672 003c 7047     		bx	lr
 673              	.L15:
 674 003e 00BF     		.align	2
 675              	.L14:
 676 0040 CDCCCC3D 		.word	1036831949
 677 0044 33339F41 		.word	1100952371
 678 0048 00000000 		.word	0
 679              		.cfi_endproc
 680              	.LFE4888:
 682              		.section	.text._ZN13GranularSynth6GetRndEv,"ax",%progbits
 683              		.align	1
 684              		.global	_ZN13GranularSynth6GetRndEv
 685              		.syntax unified
 686              		.thumb
 687              		.thumb_func
 689              	_ZN13GranularSynth6GetRndEv:
 690              	.LVL36:
 691              	.LFB4889:
  51:GranularSynth.cpp **** 
  52:GranularSynth.cpp **** float GranularSynth::GetRnd(){
 692              		.loc 1 52 30 is_stmt 1 view -0
 693              		.cfi_startproc
 694              		@ args = 0, pretend = 0, frame = 0
 695              		@ frame_needed = 0, uses_anonymous_args = 0
  53:GranularSynth.cpp ****   return fmap(rng_.Process(), -0.5f, 0.5f);
 696              		.loc 1 53 3 view .LVU181
 697              	.LBB285:
 698              	.LBI285:
  52:../DaisySP/Source/Utility/smooth_random.h ****     {
 699              		.loc 2 52 11 view .LVU182
 700              	.LBB286:
  54:../DaisySP/Source/Utility/smooth_random.h ****         if(phase_ >= 1.0f)
 701              		.loc 2 54 9 view .LVU183
  54:../DaisySP/Source/Utility/smooth_random.h ****         if(phase_ >= 1.0f)
 702              		.loc 2 54 16 is_stmt 0 view .LVU184
ARM GAS  /var/folders/2p/02m_5p7958535cp2tpgps0400000gn/T//ccbqYDkS.s 			page 21


 703 0000 D0ED8A7A 		vldr.32	s15, [r0, #552]
  55:../DaisySP/Source/Utility/smooth_random.h ****         {
 704              		.loc 2 55 9 view .LVU185
 705 0004 F7EE006A 		vmov.f32	s13, #1.0e+0
  54:../DaisySP/Source/Utility/smooth_random.h ****         if(phase_ >= 1.0f)
 706              		.loc 2 54 16 view .LVU186
 707 0008 90ED897A 		vldr.32	s14, [r0, #548]
 708 000c 77EE877A 		vadd.f32	s15, s15, s14
 709              	.LBE286:
 710              	.LBE285:
  52:GranularSynth.cpp ****   return fmap(rng_.Process(), -0.5f, 0.5f);
 711              		.loc 1 52 30 view .LVU187
 712 0010 10B5     		push	{r4, lr}
 713              		.cfi_def_cfa_offset 8
 714              		.cfi_offset 4, -8
 715              		.cfi_offset 14, -4
 716              	.LBB290:
 717              	.LBB287:
  55:../DaisySP/Source/Utility/smooth_random.h ****         {
 718              		.loc 2 55 9 view .LVU188
 719 0012 F4EEE67A 		vcmpe.f32	s15, s13
 720              	.LBE287:
 721              	.LBE290:
  52:GranularSynth.cpp ****   return fmap(rng_.Process(), -0.5f, 0.5f);
 722              		.loc 1 52 30 view .LVU189
 723 0016 0446     		mov	r4, r0
 724 0018 2DED028B 		vpush.64	{d8}
 725              		.cfi_def_cfa_offset 16
 726              		.cfi_offset 80, -16
 727              		.cfi_offset 81, -12
 728              	.LBB291:
 729              	.LBB288:
  55:../DaisySP/Source/Utility/smooth_random.h ****         {
 730              		.loc 2 55 9 view .LVU190
 731 001c F1EE10FA 		vmrs	APSR_nzcv, FPSCR
  54:../DaisySP/Source/Utility/smooth_random.h ****         if(phase_ >= 1.0f)
 732              		.loc 2 54 16 view .LVU191
 733 0020 C0ED8A7A 		vstr.32	s15, [r0, #552]
  55:../DaisySP/Source/Utility/smooth_random.h ****         {
 734              		.loc 2 55 9 is_stmt 1 view .LVU192
 735 0024 B0EE008A 		vmov.f32	s16, #2.0e+0
 736 0028 1FDB     		blt	.L17
  57:../DaisySP/Source/Utility/smooth_random.h ****             from_ += interval_;
 737              		.loc 2 57 20 is_stmt 0 view .LVU193
 738 002a 77EEE67A 		vsub.f32	s15, s15, s13
  58:../DaisySP/Source/Utility/smooth_random.h ****             interval_ = (rand() * kRandFrac * 2.0f - 1.0f - from_) * amount_;
 739              		.loc 2 58 19 view .LVU194
 740 002e 90ED8B7A 		vldr.32	s14, [r0, #556]
  58:../DaisySP/Source/Utility/smooth_random.h ****             interval_ = (rand() * kRandFrac * 2.0f - 1.0f - from_) * amount_;
 741              		.loc 2 58 22 view .LVU195
 742 0032 90ED8C6A 		vldr.32	s12, [r0, #560]
  57:../DaisySP/Source/Utility/smooth_random.h ****             from_ += interval_;
 743              		.loc 2 57 13 is_stmt 1 view .LVU196
  57:../DaisySP/Source/Utility/smooth_random.h ****             from_ += interval_;
 744              		.loc 2 57 20 is_stmt 0 view .LVU197
 745 0036 C0ED8A7A 		vstr.32	s15, [r0, #552]
  58:../DaisySP/Source/Utility/smooth_random.h ****             interval_ = (rand() * kRandFrac * 2.0f - 1.0f - from_) * amount_;
ARM GAS  /var/folders/2p/02m_5p7958535cp2tpgps0400000gn/T//ccbqYDkS.s 			page 22


 746              		.loc 2 58 13 is_stmt 1 view .LVU198
  58:../DaisySP/Source/Utility/smooth_random.h ****             interval_ = (rand() * kRandFrac * 2.0f - 1.0f - from_) * amount_;
 747              		.loc 2 58 19 is_stmt 0 view .LVU199
 748 003a 77EE067A 		vadd.f32	s15, s14, s12
 749 003e C0ED8B7A 		vstr.32	s15, [r0, #556]
  59:../DaisySP/Source/Utility/smooth_random.h ****         }
 750              		.loc 2 59 13 is_stmt 1 view .LVU200
  59:../DaisySP/Source/Utility/smooth_random.h ****         }
 751              		.loc 2 59 30 is_stmt 0 view .LVU201
 752 0042 FFF7FEFF 		bl	rand
 753              	.LVL37:
  59:../DaisySP/Source/Utility/smooth_random.h ****         }
 754              		.loc 2 59 33 view .LVU202
 755 0046 07EE100A 		vmov	s14, r0	@ int
  59:../DaisySP/Source/Utility/smooth_random.h ****         }
 756              		.loc 2 59 52 view .LVU203
 757 004a FFEE007A 		vmov.f32	s15, #-1.0e+0
  59:../DaisySP/Source/Utility/smooth_random.h ****         }
 758              		.loc 2 59 33 view .LVU204
 759 004e BAEEE07A 		vcvt.f32.s32	s14, s14, #31
  59:../DaisySP/Source/Utility/smooth_random.h ****         }
 760              		.loc 2 59 52 view .LVU205
 761 0052 E7EE087A 		vfma.f32	s15, s14, s16
  59:../DaisySP/Source/Utility/smooth_random.h ****         }
 762              		.loc 2 59 59 view .LVU206
 763 0056 94ED8B7A 		vldr.32	s14, [r4, #556]
 764 005a 77EEC77A 		vsub.f32	s15, s15, s14
  59:../DaisySP/Source/Utility/smooth_random.h ****         }
 765              		.loc 2 59 68 view .LVU207
 766 005e 94ED8D7A 		vldr.32	s14, [r4, #564]
 767 0062 67EE877A 		vmul.f32	s15, s15, s14
  59:../DaisySP/Source/Utility/smooth_random.h ****         }
 768              		.loc 2 59 23 view .LVU208
 769 0066 C4ED8C7A 		vstr.32	s15, [r4, #560]
 770              	.L17:
  61:../DaisySP/Source/Utility/smooth_random.h ****         return from_ + interval_ * t;
 771              		.loc 2 61 9 is_stmt 1 view .LVU209
  61:../DaisySP/Source/Utility/smooth_random.h ****         return from_ + interval_ * t;
 772              		.loc 2 61 43 is_stmt 0 view .LVU210
 773 006a F0EE087A 		vmov.f32	s15, #3.0e+0
  61:../DaisySP/Source/Utility/smooth_random.h ****         return from_ + interval_ * t;
 774              		.loc 2 61 19 view .LVU211
 775 006e D4ED8A6A 		vldr.32	s13, [r4, #552]
  62:../DaisySP/Source/Utility/smooth_random.h ****     }
 776              		.loc 2 62 36 view .LVU212
 777 0072 94ED8B0A 		vldr.32	s0, [r4, #556]
  61:../DaisySP/Source/Utility/smooth_random.h ****         return from_ + interval_ * t;
 778              		.loc 2 61 26 view .LVU213
 779 0076 26EEA67A 		vmul.f32	s14, s13, s13
  61:../DaisySP/Source/Utility/smooth_random.h ****         return from_ + interval_ * t;
 780              		.loc 2 61 43 view .LVU214
 781 007a E6EEC87A 		vfms.f32	s15, s13, s16
 782              	.LVL38:
  62:../DaisySP/Source/Utility/smooth_random.h ****     }
 783              		.loc 2 62 9 is_stmt 1 view .LVU215
 784              	.LBE288:
 785              	.LBE291:
ARM GAS  /var/folders/2p/02m_5p7958535cp2tpgps0400000gn/T//ccbqYDkS.s 			page 23


  54:GranularSynth.cpp **** }
 786              		.loc 1 54 1 is_stmt 0 view .LVU216
 787 007e BDEC028B 		vldm	sp!, {d8}
 788              		.cfi_restore 80
 789              		.cfi_restore 81
 790              		.cfi_def_cfa_offset 8
 791              	.LBB292:
 792              	.LBB289:
  61:../DaisySP/Source/Utility/smooth_random.h ****         return from_ + interval_ * t;
 793              		.loc 2 61 15 view .LVU217
 794 0082 67EE277A 		vmul.f32	s15, s14, s15
 795              	.LVL39:
  62:../DaisySP/Source/Utility/smooth_random.h ****     }
 796              		.loc 2 62 36 view .LVU218
 797 0086 94ED8C7A 		vldr.32	s14, [r4, #560]
 798 008a A7EE870A 		vfma.f32	s0, s15, s14
 799              	.LVL40:
  62:../DaisySP/Source/Utility/smooth_random.h ****     }
 800              		.loc 2 62 36 view .LVU219
 801              	.LBE289:
 802              	.LBE292:
 803              	.LBB293:
 804              	.LBI293:
 177:../DaisySP/Source/Utility/dsp.h **** {
 805              		.loc 3 177 1 is_stmt 1 view .LVU220
 806              	.LBE293:
 179:../DaisySP/Source/Utility/dsp.h ****     {
 807              		.loc 3 179 5 view .LVU221
 808              	.LBB308:
 809              	.LBB294:
 183:../DaisySP/Source/Utility/dsp.h ****         case Mapping::LOG:
 184:../DaisySP/Source/Utility/dsp.h ****         {
 185:../DaisySP/Source/Utility/dsp.h ****             const float a = 1.f / log10f(max / min);
 186:../DaisySP/Source/Utility/dsp.h ****             return fclamp(min * powf(10, in / a), min, max);
 187:../DaisySP/Source/Utility/dsp.h ****         }
 188:../DaisySP/Source/Utility/dsp.h ****         case Mapping::LINEAR:
 810              		.loc 3 188 9 view .LVU222
 189:../DaisySP/Source/Utility/dsp.h ****         default: return fclamp(min + in * (max - min), min, max);
 811              		.loc 3 189 9 view .LVU223
 812              		.loc 3 189 18 view .LVU224
 813              	.LBB295:
 814              	.LBI295:
  64:../DaisySP/Source/Utility/dsp.h **** {
 815              		.loc 3 64 14 view .LVU225
 816              	.LBE295:
 817              	.LBE294:
 818              	.LBE308:
  66:../DaisySP/Source/Utility/dsp.h **** }
 819              		.loc 3 66 5 view .LVU226
 820              	.LBB309:
 821              	.LBB307:
 822              	.LBB304:
 823              	.LBB296:
 824              	.LBI296:
  40:../DaisySP/Source/Utility/dsp.h **** {
 825              		.loc 3 40 14 view .LVU227
 826              	.LBB297:
ARM GAS  /var/folders/2p/02m_5p7958535cp2tpgps0400000gn/T//ccbqYDkS.s 			page 24


  42:../DaisySP/Source/Utility/dsp.h **** #ifdef __arm__
 827              		.loc 3 42 5 view .LVU228
  44:../DaisySP/Source/Utility/dsp.h **** #else
 828              		.loc 3 44 5 view .LVU229
 829              	.LBE297:
 830              	.LBE296:
 831              	.LBE304:
 832              		.loc 3 189 31 is_stmt 0 view .LVU230
 833 008e F6EE007A 		vmov.f32	s15, #5.0e-1
 834              	.LBB305:
 835              	.LBB300:
 836              	.LBB298:
  44:../DaisySP/Source/Utility/dsp.h **** #else
 837              		.loc 3 44 5 view .LVU231
 838 0092 BEEE007A 		vmov.f32	s14, #-5.0e-1
 839              	.LBE298:
 840              	.LBE300:
 841              	.LBE305:
 842              		.loc 3 189 31 view .LVU232
 843 0096 30EE670A 		vsub.f32	s0, s0, s15
 844              	.LVL41:
 845              	.LBB306:
 846              	.LBB301:
 847              	.LBB299:
  44:../DaisySP/Source/Utility/dsp.h **** #else
 848              		.loc 3 44 5 view .LVU233
 849              		.syntax unified
 850              	@ 44 "../DaisySP/Source/Utility/dsp.h" 1
 851 009a 80FE070A 		vmaxnm.f32 s0, s0, s14
 852              	@ 0 "" 2
 853              	.LVL42:
  48:../DaisySP/Source/Utility/dsp.h **** }
 854              		.loc 3 48 5 is_stmt 1 view .LVU234
  48:../DaisySP/Source/Utility/dsp.h **** }
 855              		.loc 3 48 5 is_stmt 0 view .LVU235
 856              		.thumb
 857              		.syntax unified
 858              	.LBE299:
 859              	.LBE301:
 860              	.LBB302:
 861              	.LBI302:
  51:../DaisySP/Source/Utility/dsp.h **** {
 862              		.loc 3 51 14 is_stmt 1 view .LVU236
 863              	.LBB303:
  53:../DaisySP/Source/Utility/dsp.h **** #ifdef __arm__
 864              		.loc 3 53 5 view .LVU237
  55:../DaisySP/Source/Utility/dsp.h **** #else
 865              		.loc 3 55 5 view .LVU238
 866              		.syntax unified
 867              	@ 55 "../DaisySP/Source/Utility/dsp.h" 1
 868 009e 80FE670A 		vminnm.f32 s0, s0, s15
 869              	@ 0 "" 2
 870              	.LVL43:
  59:../DaisySP/Source/Utility/dsp.h **** }
 871              		.loc 3 59 5 view .LVU239
  59:../DaisySP/Source/Utility/dsp.h **** }
 872              		.loc 3 59 5 is_stmt 0 view .LVU240
ARM GAS  /var/folders/2p/02m_5p7958535cp2tpgps0400000gn/T//ccbqYDkS.s 			page 25


 873              		.thumb
 874              		.syntax unified
 875              	.LBE303:
 876              	.LBE302:
 877              	.LBE306:
 878              	.LBE307:
 879              	.LBE309:
 880              		.loc 1 54 1 view .LVU241
 881 00a2 10BD     		pop	{r4, pc}
 882              		.loc 1 54 1 view .LVU242
 883              		.cfi_endproc
 884              	.LFE4889:
 886              		.section	.text._ZN13GranularSynth12SetGrainSizeEf,"ax",%progbits
 887              		.align	1
 888              		.global	_ZN13GranularSynth12SetGrainSizeEf
 889              		.syntax unified
 890              		.thumb
 891              		.thumb_func
 893              	_ZN13GranularSynth12SetGrainSizeEf:
 894              	.LVL44:
 895              	.LFB4890:
  55:GranularSynth.cpp **** 
  56:GranularSynth.cpp **** /* these setters take a normalised value (ie float from 0-1) 
  57:GranularSynth.cpp ****   from the user input knobs and convert this to the correct units */
  58:GranularSynth.cpp **** 
  59:GranularSynth.cpp **** void GranularSynth::SetGrainSize(float knob_val){
 896              		.loc 1 59 49 is_stmt 1 view -0
 897              		.cfi_startproc
 898              		@ args = 0, pretend = 0, frame = 0
 899              		@ frame_needed = 0, uses_anonymous_args = 0
  60:GranularSynth.cpp ****     /* add some subtle randomness and clamp to knob value bounds */
  61:GranularSynth.cpp ****   float randomness = GetRnd();
 900              		.loc 1 61 3 view .LVU244
  59:GranularSynth.cpp ****     /* add some subtle randomness and clamp to knob value bounds */
 901              		.loc 1 59 49 is_stmt 0 view .LVU245
 902 0000 10B5     		push	{r4, lr}
 903              		.cfi_def_cfa_offset 8
 904              		.cfi_offset 4, -8
 905              		.cfi_offset 14, -4
 906 0002 2DED028B 		vpush.64	{d8}
 907              		.cfi_def_cfa_offset 16
 908              		.cfi_offset 80, -16
 909              		.cfi_offset 81, -12
  59:GranularSynth.cpp ****     /* add some subtle randomness and clamp to knob value bounds */
 910              		.loc 1 59 49 view .LVU246
 911 0006 B0EE408A 		vmov.f32	s16, s0
 912 000a 0446     		mov	r4, r0
 913              		.loc 1 61 28 view .LVU247
 914 000c FFF7FEFF 		bl	_ZN13GranularSynth6GetRndEv
 915              	.LVL45:
  62:GranularSynth.cpp ****   knob_val = fclamp(knob_val+randomness, 0.0f, 1.0f);
 916              		.loc 1 62 3 is_stmt 1 view .LVU248
 917              	.LBB310:
 918              	.LBI310:
  64:../DaisySP/Source/Utility/dsp.h **** {
 919              		.loc 3 64 14 view .LVU249
 920              	.LBE310:
ARM GAS  /var/folders/2p/02m_5p7958535cp2tpgps0400000gn/T//ccbqYDkS.s 			page 26


  66:../DaisySP/Source/Utility/dsp.h **** }
 921              		.loc 3 66 5 view .LVU250
 922              	.LBB319:
 923              	.LBB311:
 924              	.LBI311:
  40:../DaisySP/Source/Utility/dsp.h **** {
 925              		.loc 3 40 14 view .LVU251
 926              	.LBB312:
  42:../DaisySP/Source/Utility/dsp.h **** #ifdef __arm__
 927              		.loc 3 42 5 view .LVU252
  44:../DaisySP/Source/Utility/dsp.h **** #else
 928              		.loc 3 44 5 view .LVU253
 929              	.LBE312:
 930              	.LBE311:
 931              	.LBE319:
 932              	.LBB320:
 933              	.LBB321:
 934              		.loc 3 189 31 is_stmt 0 view .LVU254
 935 0010 9FED137A 		vldr.32	s14, .L21
 936              	.LBE321:
 937              	.LBE320:
 938              	.LBB332:
 939              	.LBB315:
 940              	.LBB313:
  44:../DaisySP/Source/Utility/dsp.h **** #else
 941              		.loc 3 44 5 view .LVU255
 942 0014 DFED137A 		vldr.32	s15, .L21+4
 943              	.LBE313:
 944              	.LBE315:
 945              	.LBE332:
 946              		.loc 1 62 20 view .LVU256
 947 0018 30EE080A 		vadd.f32	s0, s0, s16
 948              	.LVL46:
 949              	.LBB333:
 950              	.LBB328:
 951              		.loc 3 189 31 view .LVU257
 952 001c DFED126A 		vldr.32	s13, .L21+8
 953              	.LBE328:
 954              	.LBE333:
 955              	.LBB334:
 956              	.LBB316:
 957              	.LBB314:
  44:../DaisySP/Source/Utility/dsp.h **** #else
 958              		.loc 3 44 5 view .LVU258
 959              		.syntax unified
 960              	@ 44 "../DaisySP/Source/Utility/dsp.h" 1
 961 0020 80FE270A 		vmaxnm.f32 s0, s0, s15
 962              	@ 0 "" 2
 963              	.LVL47:
  48:../DaisySP/Source/Utility/dsp.h **** }
 964              		.loc 3 48 5 is_stmt 1 view .LVU259
  48:../DaisySP/Source/Utility/dsp.h **** }
 965              		.loc 3 48 5 is_stmt 0 view .LVU260
 966              		.thumb
 967              		.syntax unified
 968              	.LBE314:
 969              	.LBE316:
ARM GAS  /var/folders/2p/02m_5p7958535cp2tpgps0400000gn/T//ccbqYDkS.s 			page 27


 970              	.LBB317:
 971              	.LBI317:
  51:../DaisySP/Source/Utility/dsp.h **** {
 972              		.loc 3 51 14 is_stmt 1 view .LVU261
 973              	.LBB318:
  53:../DaisySP/Source/Utility/dsp.h **** #ifdef __arm__
 974              		.loc 3 53 5 view .LVU262
  55:../DaisySP/Source/Utility/dsp.h **** #else
 975              		.loc 3 55 5 view .LVU263
 976 0024 F7EE007A 		vmov.f32	s15, #1.0e+0
 977              		.syntax unified
 978              	@ 55 "../DaisySP/Source/Utility/dsp.h" 1
 979 0028 80FE670A 		vminnm.f32 s0, s0, s15
 980              	@ 0 "" 2
 981              	.LVL48:
  59:../DaisySP/Source/Utility/dsp.h **** }
 982              		.loc 3 59 5 view .LVU264
  59:../DaisySP/Source/Utility/dsp.h **** }
 983              		.loc 3 59 5 is_stmt 0 view .LVU265
 984              		.thumb
 985              		.syntax unified
 986              	.LBE318:
 987              	.LBE317:
 988              	.LBE334:
  63:GranularSynth.cpp ****   float size_ms = fmap(knob_val, MIN_GRAIN_SIZE_MS, MAX_GRAIN_SIZE_MS);
 989              		.loc 1 63 3 is_stmt 1 view .LVU266
 990              	.LBB335:
 991              	.LBI320:
 177:../DaisySP/Source/Utility/dsp.h **** {
 992              		.loc 3 177 1 view .LVU267
 993              	.LBE335:
 179:../DaisySP/Source/Utility/dsp.h ****     {
 994              		.loc 3 179 5 view .LVU268
 995              	.LBB336:
 996              	.LBB329:
 188:../DaisySP/Source/Utility/dsp.h ****         default: return fclamp(min + in * (max - min), min, max);
 997              		.loc 3 188 9 view .LVU269
 998              		.loc 3 189 9 view .LVU270
 999              		.loc 3 189 18 view .LVU271
 1000              		.loc 3 189 31 is_stmt 0 view .LVU272
 1001 002c F0EE477A 		vmov.f32	s15, s14
 1002              	.LBE329:
 1003              	.LBE336:
  64:GranularSynth.cpp ****   grain_size_ = MsToSamples(size_ms);
  65:GranularSynth.cpp **** }
 1004              		.loc 1 65 1 view .LVU273
 1005 0030 BDEC028B 		vldm	sp!, {d8}
 1006              		.cfi_restore 80
 1007              		.cfi_restore 81
 1008              		.cfi_def_cfa_offset 8
 1009              	.LBB337:
 1010              	.LBB330:
 1011              		.loc 3 189 31 view .LVU274
 1012 0034 E0EE267A 		vfma.f32	s15, s0, s13
 1013              	.LVL49:
 1014              	.LBB322:
 1015              	.LBI322:
ARM GAS  /var/folders/2p/02m_5p7958535cp2tpgps0400000gn/T//ccbqYDkS.s 			page 28


  64:../DaisySP/Source/Utility/dsp.h **** {
 1016              		.loc 3 64 14 is_stmt 1 view .LVU275
 1017              	.LBE322:
 1018              	.LBE330:
 1019              	.LBE337:
  66:../DaisySP/Source/Utility/dsp.h **** }
 1020              		.loc 3 66 5 view .LVU276
 1021              	.LBB338:
 1022              	.LBB331:
 1023              	.LBB327:
 1024              	.LBB323:
 1025              	.LBI323:
  40:../DaisySP/Source/Utility/dsp.h **** {
 1026              		.loc 3 40 14 view .LVU277
 1027              	.LBB324:
  42:../DaisySP/Source/Utility/dsp.h **** #ifdef __arm__
 1028              		.loc 3 42 5 view .LVU278
  44:../DaisySP/Source/Utility/dsp.h **** #else
 1029              		.loc 3 44 5 view .LVU279
 1030              		.syntax unified
 1031              	@ 44 "../DaisySP/Source/Utility/dsp.h" 1
 1032 0038 C7FE877A 		vmaxnm.f32 s15, s15, s14
 1033              	@ 0 "" 2
 1034              	.LVL50:
  48:../DaisySP/Source/Utility/dsp.h **** }
 1035              		.loc 3 48 5 view .LVU280
  48:../DaisySP/Source/Utility/dsp.h **** }
 1036              		.loc 3 48 5 is_stmt 0 view .LVU281
 1037              		.thumb
 1038              		.syntax unified
 1039              	.LBE324:
 1040              	.LBE323:
 1041              	.LBB325:
 1042              	.LBI325:
  51:../DaisySP/Source/Utility/dsp.h **** {
 1043              		.loc 3 51 14 is_stmt 1 view .LVU282
 1044              	.LBB326:
  53:../DaisySP/Source/Utility/dsp.h **** #ifdef __arm__
 1045              		.loc 3 53 5 view .LVU283
  55:../DaisySP/Source/Utility/dsp.h **** #else
 1046              		.loc 3 55 5 view .LVU284
 1047 003c 9FED0B7A 		vldr.32	s14, .L21+12
 1048              	.LVL51:
  55:../DaisySP/Source/Utility/dsp.h **** #else
 1049              		.loc 3 55 5 is_stmt 0 view .LVU285
 1050              		.syntax unified
 1051              	@ 55 "../DaisySP/Source/Utility/dsp.h" 1
 1052 0040 C7FEC77A 		vminnm.f32 s15, s15, s14
 1053              	@ 0 "" 2
 1054              	.LVL52:
  59:../DaisySP/Source/Utility/dsp.h **** }
 1055              		.loc 3 59 5 is_stmt 1 view .LVU286
  59:../DaisySP/Source/Utility/dsp.h **** }
 1056              		.loc 3 59 5 is_stmt 0 view .LVU287
 1057              		.thumb
 1058              		.syntax unified
 1059              	.LBE326:
ARM GAS  /var/folders/2p/02m_5p7958535cp2tpgps0400000gn/T//ccbqYDkS.s 			page 29


 1060              	.LBE325:
 1061              	.LBE327:
 1062              	.LBE331:
 1063              	.LBE338:
  64:GranularSynth.cpp **** }
 1064              		.loc 1 64 3 is_stmt 1 view .LVU288
 1065              	.LBB339:
 1066              	.LBI339:
 1067              		.file 4 "constants_utils.h"
   1:constants_utils.h **** #pragma once
   2:constants_utils.h **** #include "stddef.h"
   3:constants_utils.h **** #include <time.h>
   4:constants_utils.h **** 
   5:constants_utils.h **** /* audio constants */
   6:constants_utils.h **** constexpr int SAMPLE_RATE = 48000;
   7:constants_utils.h **** constexpr float SAMPLE_RATE_FLOAT = 48000.f;
   8:constants_utils.h **** constexpr int BIT_DEPTH = 16;
   9:constants_utils.h **** 
  10:constants_utils.h **** /* delay line buffer size (2s @ 48kHz) */
  11:constants_utils.h **** constexpr size_t DELAY_TIME = 96000;
  12:constants_utils.h **** 
  13:constants_utils.h **** /* maximum length of recording to SD card */
  14:constants_utils.h **** constexpr size_t MAX_REC_OUT_LEN = 120;
  15:constants_utils.h **** 
  16:constants_utils.h **** /* 16mb - max size of one stereo channel to be loaded into buffers */
  17:constants_utils.h **** constexpr size_t CHNL_BUF_SIZE_ABS = 16*1024*1024;
  18:constants_utils.h **** /* above is absolute size - each sample needs an int16 (2 bytes) so we do (abs_size)/2 */
  19:constants_utils.h **** constexpr size_t CHNL_BUF_SIZE_SAMPS = 8*1024*1024;
  20:constants_utils.h **** 
  21:constants_utils.h **** /* chunk size for reading audio into temporary buffer */
  22:constants_utils.h **** const size_t BUF_CHUNK_SZ = 16384;
  23:constants_utils.h **** 
  24:constants_utils.h **** /* file reading constants*/
  25:constants_utils.h **** static const uint16_t MAX_FILES = 32;                      
  26:constants_utils.h **** static const uint16_t MAX_FNAME_LEN = 128;
  27:constants_utils.h **** 
  28:constants_utils.h **** /* granular synth parameter constants */
  29:constants_utils.h **** constexpr int MIN_GRAINS = 1;
  30:constants_utils.h **** constexpr int MAX_GRAINS = 10;
  31:constants_utils.h **** static constexpr int NUM_SYNTH_MODES = 8;
  32:constants_utils.h **** constexpr float PARAM_CHANGE_THRESHOLD = 0.01f;
  33:constants_utils.h **** constexpr float MIN_GRAIN_SIZE_MS = 100.0f;
  34:constants_utils.h **** constexpr float MAX_GRAIN_SIZE_MS = 3000.0f;
  35:constants_utils.h **** constexpr size_t MIN_GRAIN_SIZE_SAMPLES = 4800; /* 100ms at 48kHz */
  36:constants_utils.h **** constexpr size_t MAX_GRAIN_SIZE_SAMPLES = 144000; /* 3s at 48kHz */
  37:constants_utils.h **** constexpr float MIN_PITCH = 0.5f;
  38:constants_utils.h **** constexpr float MAX_PITCH = 3.0f;
  39:constants_utils.h **** 
  40:constants_utils.h **** /* button event constants */
  41:constants_utils.h **** const unsigned long DEBOUNCE_DELAY = 50; 
  42:constants_utils.h **** const unsigned long LONG_PRESS_TIME = 1000;
  43:constants_utils.h **** 
  44:constants_utils.h **** /* hipass filter frequency range */
  45:constants_utils.h **** const float HIPASS_LOWER_BOUND = 0.0004f;
  46:constants_utils.h **** const float HIPASS_UPPER_BOUND = 0.01f;
  47:constants_utils.h **** 
  48:constants_utils.h **** /* lowpass filter frequency range */
ARM GAS  /var/folders/2p/02m_5p7958535cp2tpgps0400000gn/T//ccbqYDkS.s 			page 30


  49:constants_utils.h **** const float LOPASS_LOWER_BOUND = 20.0f;
  50:constants_utils.h **** const float LOPASS_UPPER_BOUND = 18000.0f;
  51:constants_utils.h **** 
  52:constants_utils.h **** // const float HICUT_FREQ = 0.3125f; /* 15000Hz @ 48kHz sample rate */
  53:constants_utils.h **** const float HICUT_FREQ = 0.34375; /* 16500Hz @ 48kHz sample rate */
  54:constants_utils.h **** 
  55:constants_utils.h **** /* random number generator variables and helper functions */
  56:constants_utils.h **** extern uint32_t rng_state;
  57:constants_utils.h **** inline void SeedRng(){
  58:constants_utils.h ****   rng_state = static_cast<uint32_t>(time(nullptr));
  59:constants_utils.h **** }
  60:constants_utils.h **** inline float RngFloat(){
  61:constants_utils.h ****   /* xorshift32 from https://en.wikipedia.org/wiki/Xorshift 
  62:constants_utils.h ****   for simple fast random floats */
  63:constants_utils.h ****   rng_state ^= rng_state << 13;
  64:constants_utils.h ****   rng_state ^= rng_state >> 17;
  65:constants_utils.h ****   rng_state ^= rng_state << 5;
  66:constants_utils.h ****   /* ensures output is between 0-1 */
  67:constants_utils.h ****   float out = static_cast<float>(rng_state) / static_cast<float>(UINT32_MAX);
  68:constants_utils.h ****   return out;
  69:constants_utils.h **** }
  70:constants_utils.h **** 
  71:constants_utils.h **** /* integer clamp as can't use std::clamp */
  72:constants_utils.h **** inline constexpr size_t intclamp(size_t val, size_t min, size_t max){
  73:constants_utils.h ****   if (val < min) val = min;
  74:constants_utils.h ****   else if (val > max) val = max;
  75:constants_utils.h ****   return val;
  76:constants_utils.h **** }
  77:constants_utils.h **** 
  78:constants_utils.h **** /* converts milliseconds to number of samples */
  79:constants_utils.h **** inline constexpr size_t MsToSamples(float ms){
 1068              		.loc 4 79 25 view .LVU289
 1069              	.LBB340:
  80:constants_utils.h ****   return static_cast<size_t>(SAMPLE_RATE_FLOAT * (ms*0.001f));
 1070              		.loc 4 80 3 view .LVU290
 1071              		.loc 4 80 53 is_stmt 0 view .LVU291
 1072 0044 9FED0A7A 		vldr.32	s14, .L21+16
 1073 0048 67EE877A 		vmul.f32	s15, s15, s14
 1074              	.LVL53:
 1075              		.loc 4 80 48 view .LVU292
 1076 004c 9FED097A 		vldr.32	s14, .L21+20
 1077 0050 67EE877A 		vmul.f32	s15, s15, s14
 1078              		.loc 4 80 61 view .LVU293
 1079 0054 FCEEE77A 		vcvt.u32.f32	s15, s15
 1080 0058 C4ED907A 		vstr.32	s15, [r4, #576]	@ int
 1081              	.LBE340:
 1082              	.LBE339:
 1083              		.loc 1 65 1 view .LVU294
 1084 005c 10BD     		pop	{r4, pc}
 1085              	.LVL54:
 1086              	.L22:
 1087              		.loc 1 65 1 view .LVU295
 1088 005e 00BF     		.align	2
 1089              	.L21:
 1090 0060 0000C842 		.word	1120403456
 1091 0064 00000000 		.word	0
 1092 0068 00403545 		.word	1161117696
ARM GAS  /var/folders/2p/02m_5p7958535cp2tpgps0400000gn/T//ccbqYDkS.s 			page 31


 1093 006c 00803B45 		.word	1161527296
 1094 0070 6F12833A 		.word	981668463
 1095 0074 00803B47 		.word	1195081728
 1096              		.cfi_endproc
 1097              	.LFE4890:
 1099              		.section	.text._ZN13GranularSynth11SetSpawnPosEf,"ax",%progbits
 1100              		.align	1
 1101              		.global	_ZN13GranularSynth11SetSpawnPosEf
 1102              		.syntax unified
 1103              		.thumb
 1104              		.thumb_func
 1106              	_ZN13GranularSynth11SetSpawnPosEf:
 1107              	.LVL55:
 1108              	.LFB4891:
  66:GranularSynth.cpp **** 
  67:GranularSynth.cpp **** void GranularSynth::SetSpawnPos(float knob_val){
 1109              		.loc 1 67 48 is_stmt 1 view -0
 1110              		.cfi_startproc
 1111              		@ args = 0, pretend = 0, frame = 0
 1112              		@ frame_needed = 0, uses_anonymous_args = 0
  68:GranularSynth.cpp ****   /* add some subtle randomness and clamp to knob value bounds */
  69:GranularSynth.cpp ****   float randomness = GetRnd();
 1113              		.loc 1 69 3 view .LVU297
  67:GranularSynth.cpp ****   /* add some subtle randomness and clamp to knob value bounds */
 1114              		.loc 1 67 48 is_stmt 0 view .LVU298
 1115 0000 10B5     		push	{r4, lr}
 1116              		.cfi_def_cfa_offset 8
 1117              		.cfi_offset 4, -8
 1118              		.cfi_offset 14, -4
 1119 0002 0446     		mov	r4, r0
 1120 0004 2DED028B 		vpush.64	{d8}
 1121              		.cfi_def_cfa_offset 16
 1122              		.cfi_offset 80, -16
 1123              		.cfi_offset 81, -12
  67:GranularSynth.cpp ****   /* add some subtle randomness and clamp to knob value bounds */
 1124              		.loc 1 67 48 view .LVU299
 1125 0008 B0EE408A 		vmov.f32	s16, s0
 1126              		.loc 1 69 28 view .LVU300
 1127 000c FFF7FEFF 		bl	_ZN13GranularSynth6GetRndEv
 1128              	.LVL56:
  70:GranularSynth.cpp ****   knob_val = fclamp(knob_val+randomness, 0.0f, 1.0f);
 1129              		.loc 1 70 3 is_stmt 1 view .LVU301
 1130              	.LBB341:
 1131              	.LBI341:
  64:../DaisySP/Source/Utility/dsp.h **** {
 1132              		.loc 3 64 14 view .LVU302
 1133              	.LBE341:
  66:../DaisySP/Source/Utility/dsp.h **** }
 1134              		.loc 3 66 5 view .LVU303
 1135              	.LBB350:
 1136              	.LBB342:
 1137              	.LBI342:
  40:../DaisySP/Source/Utility/dsp.h **** {
 1138              		.loc 3 40 14 view .LVU304
 1139              	.LBB343:
  42:../DaisySP/Source/Utility/dsp.h **** #ifdef __arm__
 1140              		.loc 3 42 5 view .LVU305
ARM GAS  /var/folders/2p/02m_5p7958535cp2tpgps0400000gn/T//ccbqYDkS.s 			page 32


  44:../DaisySP/Source/Utility/dsp.h **** #else
 1141              		.loc 3 44 5 view .LVU306
 1142              	.LBE343:
 1143              	.LBE342:
 1144              	.LBE350:
  71:GranularSynth.cpp ****   /* convert to samples */
  72:GranularSynth.cpp ****   spawn_pos_ = static_cast<size_t>(knob_val * static_cast<float>(audio_len_-1));
 1145              		.loc 1 72 76 is_stmt 0 view .LVU307
 1146 0010 E368     		ldr	r3, [r4, #12]
 1147              	.LBB351:
 1148              	.LBB346:
 1149              	.LBB344:
  44:../DaisySP/Source/Utility/dsp.h **** #else
 1150              		.loc 3 44 5 view .LVU308
 1151 0012 DFED0C7A 		vldr.32	s15, .L24
 1152              	.LBE344:
 1153              	.LBE346:
 1154              	.LBE351:
 1155              		.loc 1 72 76 view .LVU309
 1156 0016 013B     		subs	r3, r3, #1
  70:GranularSynth.cpp ****   /* convert to samples */
 1157              		.loc 1 70 20 view .LVU310
 1158 0018 30EE080A 		vadd.f32	s0, s0, s16
 1159              	.LVL57:
 1160              	.LBB352:
 1161              	.LBB347:
 1162              	.LBB345:
  44:../DaisySP/Source/Utility/dsp.h **** #else
 1163              		.loc 3 44 5 view .LVU311
 1164              		.syntax unified
 1165              	@ 44 "../DaisySP/Source/Utility/dsp.h" 1
 1166 001c 80FE270A 		vmaxnm.f32 s0, s0, s15
 1167              	@ 0 "" 2
 1168              	.LVL58:
  48:../DaisySP/Source/Utility/dsp.h **** }
 1169              		.loc 3 48 5 is_stmt 1 view .LVU312
  48:../DaisySP/Source/Utility/dsp.h **** }
 1170              		.loc 3 48 5 is_stmt 0 view .LVU313
 1171              		.thumb
 1172              		.syntax unified
 1173              	.LBE345:
 1174              	.LBE347:
 1175              	.LBB348:
 1176              	.LBI348:
  51:../DaisySP/Source/Utility/dsp.h **** {
 1177              		.loc 3 51 14 is_stmt 1 view .LVU314
 1178              	.LBB349:
  53:../DaisySP/Source/Utility/dsp.h **** #ifdef __arm__
 1179              		.loc 3 53 5 view .LVU315
  55:../DaisySP/Source/Utility/dsp.h **** #else
 1180              		.loc 3 55 5 view .LVU316
 1181 0020 F7EE007A 		vmov.f32	s15, #1.0e+0
 1182              		.syntax unified
 1183              	@ 55 "../DaisySP/Source/Utility/dsp.h" 1
 1184 0024 80FE670A 		vminnm.f32 s0, s0, s15
 1185              	@ 0 "" 2
 1186              	.LVL59:
ARM GAS  /var/folders/2p/02m_5p7958535cp2tpgps0400000gn/T//ccbqYDkS.s 			page 33


  59:../DaisySP/Source/Utility/dsp.h **** }
 1187              		.loc 3 59 5 view .LVU317
  59:../DaisySP/Source/Utility/dsp.h **** }
 1188              		.loc 3 59 5 is_stmt 0 view .LVU318
 1189              		.thumb
 1190              		.syntax unified
 1191              	.LBE349:
 1192              	.LBE348:
 1193              	.LBE352:
 1194              		.loc 1 72 3 is_stmt 1 view .LVU319
 1195              		.loc 1 72 76 is_stmt 0 view .LVU320
 1196 0028 07EE903A 		vmov	s15, r3	@ int
 1197              		.loc 1 72 47 view .LVU321
 1198 002c F8EE677A 		vcvt.f32.u32	s15, s15
  73:GranularSynth.cpp **** }
 1199              		.loc 1 73 1 view .LVU322
 1200 0030 BDEC028B 		vldm	sp!, {d8}
 1201              		.cfi_restore 80
 1202              		.cfi_restore 81
 1203              		.cfi_def_cfa_offset 8
  72:GranularSynth.cpp **** }
 1204              		.loc 1 72 45 view .LVU323
 1205 0034 67EE807A 		vmul.f32	s15, s15, s0
  72:GranularSynth.cpp **** }
 1206              		.loc 1 72 16 view .LVU324
 1207 0038 FCEEE77A 		vcvt.u32.f32	s15, s15
 1208 003c C4ED917A 		vstr.32	s15, [r4, #580]	@ int
 1209              		.loc 1 73 1 view .LVU325
 1210 0040 10BD     		pop	{r4, pc}
 1211              	.LVL60:
 1212              	.L25:
 1213              		.loc 1 73 1 view .LVU326
 1214 0042 00BF     		.align	2
 1215              	.L24:
 1216 0044 00000000 		.word	0
 1217              		.cfi_endproc
 1218              	.LFE4891:
 1220              		.section	.text._ZN13GranularSynth15SetActiveGrainsEf,"ax",%progbits
 1221              		.align	1
 1222              		.global	_ZN13GranularSynth15SetActiveGrainsEf
 1223              		.syntax unified
 1224              		.thumb
 1225              		.thumb_func
 1227              	_ZN13GranularSynth15SetActiveGrainsEf:
 1228              	.LVL61:
 1229              	.LFB4892:
  74:GranularSynth.cpp **** 
  75:GranularSynth.cpp **** void GranularSynth::SetActiveGrains(float knob_val){
 1230              		.loc 1 75 52 is_stmt 1 view -0
 1231              		.cfi_startproc
 1232              		@ args = 0, pretend = 0, frame = 0
 1233              		@ frame_needed = 0, uses_anonymous_args = 0
  76:GranularSynth.cpp ****   float randomness = GetRnd();
 1234              		.loc 1 76 3 view .LVU328
  75:GranularSynth.cpp ****   float randomness = GetRnd();
 1235              		.loc 1 75 52 is_stmt 0 view .LVU329
 1236 0000 10B5     		push	{r4, lr}
ARM GAS  /var/folders/2p/02m_5p7958535cp2tpgps0400000gn/T//ccbqYDkS.s 			page 34


 1237              		.cfi_def_cfa_offset 8
 1238              		.cfi_offset 4, -8
 1239              		.cfi_offset 14, -4
 1240 0002 2DED028B 		vpush.64	{d8}
 1241              		.cfi_def_cfa_offset 16
 1242              		.cfi_offset 80, -16
 1243              		.cfi_offset 81, -12
  75:GranularSynth.cpp ****   float randomness = GetRnd();
 1244              		.loc 1 75 52 view .LVU330
 1245 0006 0446     		mov	r4, r0
 1246 0008 B0EE408A 		vmov.f32	s16, s0
 1247              		.loc 1 76 28 view .LVU331
 1248 000c FFF7FEFF 		bl	_ZN13GranularSynth6GetRndEv
 1249              	.LVL62:
  77:GranularSynth.cpp ****   float count = round(fmap(knob_val+randomness, 1.0f, 20.0f));
 1250              		.loc 1 77 3 is_stmt 1 view .LVU332
 1251              	.LBB353:
 1252              	.LBI353:
 177:../DaisySP/Source/Utility/dsp.h **** {
 1253              		.loc 3 177 1 view .LVU333
 1254              	.LBE353:
 179:../DaisySP/Source/Utility/dsp.h ****     {
 1255              		.loc 3 179 5 view .LVU334
 1256              	.LBB364:
 1257              	.LBB354:
 188:../DaisySP/Source/Utility/dsp.h ****         default: return fclamp(min + in * (max - min), min, max);
 1258              		.loc 3 188 9 view .LVU335
 1259              		.loc 3 189 9 view .LVU336
 1260              		.loc 3 189 18 view .LVU337
 1261              		.loc 3 189 31 is_stmt 0 view .LVU338
 1262 0010 B7EE007A 		vmov.f32	s14, #1.0e+0
 1263 0014 F3EE036A 		vmov.f32	s13, #1.9e+1
 1264              	.LBE354:
 1265              	.LBE364:
 1266              		.loc 1 77 22 view .LVU339
 1267 0018 30EE080A 		vadd.f32	s0, s0, s16
 1268              	.LVL63:
 1269              	.LBB365:
 1270              	.LBB361:
 1271              		.loc 3 189 31 view .LVU340
 1272 001c F0EE477A 		vmov.f32	s15, s14
 1273              	.LBE361:
 1274              	.LBE365:
  78:GranularSynth.cpp ****   active_count_ = (static_cast<size_t>(count));
  79:GranularSynth.cpp **** }
 1275              		.loc 1 79 1 view .LVU341
 1276 0020 BDEC028B 		vldm	sp!, {d8}
 1277              		.cfi_restore 80
 1278              		.cfi_restore 81
 1279              		.cfi_def_cfa_offset 8
 1280              	.LVL64:
 1281              	.LBB366:
 1282              	.LBB362:
 1283              		.loc 3 189 31 view .LVU342
 1284 0024 E0EE267A 		vfma.f32	s15, s0, s13
 1285              	.LVL65:
 1286              	.LBB355:
ARM GAS  /var/folders/2p/02m_5p7958535cp2tpgps0400000gn/T//ccbqYDkS.s 			page 35


 1287              	.LBI355:
  64:../DaisySP/Source/Utility/dsp.h **** {
 1288              		.loc 3 64 14 is_stmt 1 view .LVU343
 1289              	.LBE355:
 1290              	.LBE362:
 1291              	.LBE366:
  66:../DaisySP/Source/Utility/dsp.h **** }
 1292              		.loc 3 66 5 view .LVU344
 1293              	.LBB367:
 1294              	.LBB363:
 1295              	.LBB360:
 1296              	.LBB356:
 1297              	.LBI356:
  40:../DaisySP/Source/Utility/dsp.h **** {
 1298              		.loc 3 40 14 view .LVU345
 1299              	.LBB357:
  42:../DaisySP/Source/Utility/dsp.h **** #ifdef __arm__
 1300              		.loc 3 42 5 view .LVU346
  44:../DaisySP/Source/Utility/dsp.h **** #else
 1301              		.loc 3 44 5 view .LVU347
 1302              		.syntax unified
 1303              	@ 44 "../DaisySP/Source/Utility/dsp.h" 1
 1304 0028 C7FE877A 		vmaxnm.f32 s15, s15, s14
 1305              	@ 0 "" 2
 1306              	.LVL66:
  48:../DaisySP/Source/Utility/dsp.h **** }
 1307              		.loc 3 48 5 view .LVU348
  48:../DaisySP/Source/Utility/dsp.h **** }
 1308              		.loc 3 48 5 is_stmt 0 view .LVU349
 1309              		.thumb
 1310              		.syntax unified
 1311              	.LBE357:
 1312              	.LBE356:
 1313              	.LBB358:
 1314              	.LBI358:
  51:../DaisySP/Source/Utility/dsp.h **** {
 1315              		.loc 3 51 14 is_stmt 1 view .LVU350
 1316              	.LBB359:
  53:../DaisySP/Source/Utility/dsp.h **** #ifdef __arm__
 1317              		.loc 3 53 5 view .LVU351
  55:../DaisySP/Source/Utility/dsp.h **** #else
 1318              		.loc 3 55 5 view .LVU352
 1319 002c B3EE047A 		vmov.f32	s14, #2.0e+1
 1320              	.LVL67:
  55:../DaisySP/Source/Utility/dsp.h **** #else
 1321              		.loc 3 55 5 is_stmt 0 view .LVU353
 1322              		.syntax unified
 1323              	@ 55 "../DaisySP/Source/Utility/dsp.h" 1
 1324 0030 C7FEC77A 		vminnm.f32 s15, s15, s14
 1325              	@ 0 "" 2
 1326              	.LVL68:
  59:../DaisySP/Source/Utility/dsp.h **** }
 1327              		.loc 3 59 5 is_stmt 1 view .LVU354
  59:../DaisySP/Source/Utility/dsp.h **** }
 1328              		.loc 3 59 5 is_stmt 0 view .LVU355
 1329              		.thumb
 1330              		.syntax unified
ARM GAS  /var/folders/2p/02m_5p7958535cp2tpgps0400000gn/T//ccbqYDkS.s 			page 36


 1331              	.LBE359:
 1332              	.LBE358:
 1333              	.LBE360:
 1334              	.LBE363:
 1335              	.LBE367:
 1336              	.LBB368:
 1337              	.LBI368:
 1338              		.file 5 "/Library/DaisyToolchain/0.2.0/arm/arm-none-eabi/include/c++/10.3.1/cmath"
   1:/Library/DaisyToolchain/0.2.0/arm/arm-none-eabi/include/c++/10.3.1/cmath **** // -*- C++ -*- C forwarding header.
   2:/Library/DaisyToolchain/0.2.0/arm/arm-none-eabi/include/c++/10.3.1/cmath **** 
   3:/Library/DaisyToolchain/0.2.0/arm/arm-none-eabi/include/c++/10.3.1/cmath **** // Copyright (C) 1997-2020 Free Software Foundation, Inc.
   4:/Library/DaisyToolchain/0.2.0/arm/arm-none-eabi/include/c++/10.3.1/cmath **** //
   5:/Library/DaisyToolchain/0.2.0/arm/arm-none-eabi/include/c++/10.3.1/cmath **** // This file is part of the GNU ISO C++ Library.  This library is free
   6:/Library/DaisyToolchain/0.2.0/arm/arm-none-eabi/include/c++/10.3.1/cmath **** // software; you can redistribute it and/or modify it under the
   7:/Library/DaisyToolchain/0.2.0/arm/arm-none-eabi/include/c++/10.3.1/cmath **** // terms of the GNU General Public License as published by the
   8:/Library/DaisyToolchain/0.2.0/arm/arm-none-eabi/include/c++/10.3.1/cmath **** // Free Software Foundation; either version 3, or (at your option)
   9:/Library/DaisyToolchain/0.2.0/arm/arm-none-eabi/include/c++/10.3.1/cmath **** // any later version.
  10:/Library/DaisyToolchain/0.2.0/arm/arm-none-eabi/include/c++/10.3.1/cmath **** 
  11:/Library/DaisyToolchain/0.2.0/arm/arm-none-eabi/include/c++/10.3.1/cmath **** // This library is distributed in the hope that it will be useful,
  12:/Library/DaisyToolchain/0.2.0/arm/arm-none-eabi/include/c++/10.3.1/cmath **** // but WITHOUT ANY WARRANTY; without even the implied warranty of
  13:/Library/DaisyToolchain/0.2.0/arm/arm-none-eabi/include/c++/10.3.1/cmath **** // MERCHANTABILITY or FITNESS FOR A PARTICULAR PURPOSE.  See the
  14:/Library/DaisyToolchain/0.2.0/arm/arm-none-eabi/include/c++/10.3.1/cmath **** // GNU General Public License for more details.
  15:/Library/DaisyToolchain/0.2.0/arm/arm-none-eabi/include/c++/10.3.1/cmath **** 
  16:/Library/DaisyToolchain/0.2.0/arm/arm-none-eabi/include/c++/10.3.1/cmath **** // Under Section 7 of GPL version 3, you are granted additional
  17:/Library/DaisyToolchain/0.2.0/arm/arm-none-eabi/include/c++/10.3.1/cmath **** // permissions described in the GCC Runtime Library Exception, version
  18:/Library/DaisyToolchain/0.2.0/arm/arm-none-eabi/include/c++/10.3.1/cmath **** // 3.1, as published by the Free Software Foundation.
  19:/Library/DaisyToolchain/0.2.0/arm/arm-none-eabi/include/c++/10.3.1/cmath **** 
  20:/Library/DaisyToolchain/0.2.0/arm/arm-none-eabi/include/c++/10.3.1/cmath **** // You should have received a copy of the GNU General Public License and
  21:/Library/DaisyToolchain/0.2.0/arm/arm-none-eabi/include/c++/10.3.1/cmath **** // a copy of the GCC Runtime Library Exception along with this program;
  22:/Library/DaisyToolchain/0.2.0/arm/arm-none-eabi/include/c++/10.3.1/cmath **** // see the files COPYING3 and COPYING.RUNTIME respectively.  If not, see
  23:/Library/DaisyToolchain/0.2.0/arm/arm-none-eabi/include/c++/10.3.1/cmath **** // <http://www.gnu.org/licenses/>.
  24:/Library/DaisyToolchain/0.2.0/arm/arm-none-eabi/include/c++/10.3.1/cmath **** 
  25:/Library/DaisyToolchain/0.2.0/arm/arm-none-eabi/include/c++/10.3.1/cmath **** /** @file include/cmath
  26:/Library/DaisyToolchain/0.2.0/arm/arm-none-eabi/include/c++/10.3.1/cmath ****  *  This is a Standard C++ Library file.  You should @c \#include this file
  27:/Library/DaisyToolchain/0.2.0/arm/arm-none-eabi/include/c++/10.3.1/cmath ****  *  in your programs, rather than any of the @a *.h implementation files.
  28:/Library/DaisyToolchain/0.2.0/arm/arm-none-eabi/include/c++/10.3.1/cmath ****  *
  29:/Library/DaisyToolchain/0.2.0/arm/arm-none-eabi/include/c++/10.3.1/cmath ****  *  This is the C++ version of the Standard C Library header @c math.h,
  30:/Library/DaisyToolchain/0.2.0/arm/arm-none-eabi/include/c++/10.3.1/cmath ****  *  and its contents are (mostly) the same as that header, but are all
  31:/Library/DaisyToolchain/0.2.0/arm/arm-none-eabi/include/c++/10.3.1/cmath ****  *  contained in the namespace @c std (except for names which are defined
  32:/Library/DaisyToolchain/0.2.0/arm/arm-none-eabi/include/c++/10.3.1/cmath ****  *  as macros in C).
  33:/Library/DaisyToolchain/0.2.0/arm/arm-none-eabi/include/c++/10.3.1/cmath ****  */
  34:/Library/DaisyToolchain/0.2.0/arm/arm-none-eabi/include/c++/10.3.1/cmath **** 
  35:/Library/DaisyToolchain/0.2.0/arm/arm-none-eabi/include/c++/10.3.1/cmath **** //
  36:/Library/DaisyToolchain/0.2.0/arm/arm-none-eabi/include/c++/10.3.1/cmath **** // ISO C++ 14882: 26.5  C library
  37:/Library/DaisyToolchain/0.2.0/arm/arm-none-eabi/include/c++/10.3.1/cmath **** //
  38:/Library/DaisyToolchain/0.2.0/arm/arm-none-eabi/include/c++/10.3.1/cmath **** 
  39:/Library/DaisyToolchain/0.2.0/arm/arm-none-eabi/include/c++/10.3.1/cmath **** #pragma GCC system_header
  40:/Library/DaisyToolchain/0.2.0/arm/arm-none-eabi/include/c++/10.3.1/cmath **** 
  41:/Library/DaisyToolchain/0.2.0/arm/arm-none-eabi/include/c++/10.3.1/cmath **** #include <bits/c++config.h>
  42:/Library/DaisyToolchain/0.2.0/arm/arm-none-eabi/include/c++/10.3.1/cmath **** #include <bits/cpp_type_traits.h>
  43:/Library/DaisyToolchain/0.2.0/arm/arm-none-eabi/include/c++/10.3.1/cmath **** #include <ext/type_traits.h>
  44:/Library/DaisyToolchain/0.2.0/arm/arm-none-eabi/include/c++/10.3.1/cmath **** #define _GLIBCXX_INCLUDE_NEXT_C_HEADERS
  45:/Library/DaisyToolchain/0.2.0/arm/arm-none-eabi/include/c++/10.3.1/cmath **** #include_next <math.h>
  46:/Library/DaisyToolchain/0.2.0/arm/arm-none-eabi/include/c++/10.3.1/cmath **** #undef _GLIBCXX_INCLUDE_NEXT_C_HEADERS
  47:/Library/DaisyToolchain/0.2.0/arm/arm-none-eabi/include/c++/10.3.1/cmath **** #include <bits/std_abs.h>
  48:/Library/DaisyToolchain/0.2.0/arm/arm-none-eabi/include/c++/10.3.1/cmath **** 
  49:/Library/DaisyToolchain/0.2.0/arm/arm-none-eabi/include/c++/10.3.1/cmath **** #ifndef _GLIBCXX_CMATH
ARM GAS  /var/folders/2p/02m_5p7958535cp2tpgps0400000gn/T//ccbqYDkS.s 			page 37


  50:/Library/DaisyToolchain/0.2.0/arm/arm-none-eabi/include/c++/10.3.1/cmath **** #define _GLIBCXX_CMATH 1
  51:/Library/DaisyToolchain/0.2.0/arm/arm-none-eabi/include/c++/10.3.1/cmath **** 
  52:/Library/DaisyToolchain/0.2.0/arm/arm-none-eabi/include/c++/10.3.1/cmath **** // Get rid of those macros defined in <math.h> in lieu of real functions.
  53:/Library/DaisyToolchain/0.2.0/arm/arm-none-eabi/include/c++/10.3.1/cmath **** #undef div
  54:/Library/DaisyToolchain/0.2.0/arm/arm-none-eabi/include/c++/10.3.1/cmath **** #undef acos
  55:/Library/DaisyToolchain/0.2.0/arm/arm-none-eabi/include/c++/10.3.1/cmath **** #undef asin
  56:/Library/DaisyToolchain/0.2.0/arm/arm-none-eabi/include/c++/10.3.1/cmath **** #undef atan
  57:/Library/DaisyToolchain/0.2.0/arm/arm-none-eabi/include/c++/10.3.1/cmath **** #undef atan2
  58:/Library/DaisyToolchain/0.2.0/arm/arm-none-eabi/include/c++/10.3.1/cmath **** #undef ceil
  59:/Library/DaisyToolchain/0.2.0/arm/arm-none-eabi/include/c++/10.3.1/cmath **** #undef cos
  60:/Library/DaisyToolchain/0.2.0/arm/arm-none-eabi/include/c++/10.3.1/cmath **** #undef cosh
  61:/Library/DaisyToolchain/0.2.0/arm/arm-none-eabi/include/c++/10.3.1/cmath **** #undef exp
  62:/Library/DaisyToolchain/0.2.0/arm/arm-none-eabi/include/c++/10.3.1/cmath **** #undef fabs
  63:/Library/DaisyToolchain/0.2.0/arm/arm-none-eabi/include/c++/10.3.1/cmath **** #undef floor
  64:/Library/DaisyToolchain/0.2.0/arm/arm-none-eabi/include/c++/10.3.1/cmath **** #undef fmod
  65:/Library/DaisyToolchain/0.2.0/arm/arm-none-eabi/include/c++/10.3.1/cmath **** #undef frexp
  66:/Library/DaisyToolchain/0.2.0/arm/arm-none-eabi/include/c++/10.3.1/cmath **** #undef ldexp
  67:/Library/DaisyToolchain/0.2.0/arm/arm-none-eabi/include/c++/10.3.1/cmath **** #undef log
  68:/Library/DaisyToolchain/0.2.0/arm/arm-none-eabi/include/c++/10.3.1/cmath **** #undef log10
  69:/Library/DaisyToolchain/0.2.0/arm/arm-none-eabi/include/c++/10.3.1/cmath **** #undef modf
  70:/Library/DaisyToolchain/0.2.0/arm/arm-none-eabi/include/c++/10.3.1/cmath **** #undef pow
  71:/Library/DaisyToolchain/0.2.0/arm/arm-none-eabi/include/c++/10.3.1/cmath **** #undef sin
  72:/Library/DaisyToolchain/0.2.0/arm/arm-none-eabi/include/c++/10.3.1/cmath **** #undef sinh
  73:/Library/DaisyToolchain/0.2.0/arm/arm-none-eabi/include/c++/10.3.1/cmath **** #undef sqrt
  74:/Library/DaisyToolchain/0.2.0/arm/arm-none-eabi/include/c++/10.3.1/cmath **** #undef tan
  75:/Library/DaisyToolchain/0.2.0/arm/arm-none-eabi/include/c++/10.3.1/cmath **** #undef tanh
  76:/Library/DaisyToolchain/0.2.0/arm/arm-none-eabi/include/c++/10.3.1/cmath **** 
  77:/Library/DaisyToolchain/0.2.0/arm/arm-none-eabi/include/c++/10.3.1/cmath **** extern "C++"
  78:/Library/DaisyToolchain/0.2.0/arm/arm-none-eabi/include/c++/10.3.1/cmath **** {
  79:/Library/DaisyToolchain/0.2.0/arm/arm-none-eabi/include/c++/10.3.1/cmath **** namespace std _GLIBCXX_VISIBILITY(default)
  80:/Library/DaisyToolchain/0.2.0/arm/arm-none-eabi/include/c++/10.3.1/cmath **** {
  81:/Library/DaisyToolchain/0.2.0/arm/arm-none-eabi/include/c++/10.3.1/cmath **** _GLIBCXX_BEGIN_NAMESPACE_VERSION
  82:/Library/DaisyToolchain/0.2.0/arm/arm-none-eabi/include/c++/10.3.1/cmath **** 
  83:/Library/DaisyToolchain/0.2.0/arm/arm-none-eabi/include/c++/10.3.1/cmath ****   using ::acos;
  84:/Library/DaisyToolchain/0.2.0/arm/arm-none-eabi/include/c++/10.3.1/cmath **** 
  85:/Library/DaisyToolchain/0.2.0/arm/arm-none-eabi/include/c++/10.3.1/cmath **** #ifndef __CORRECT_ISO_CPP_MATH_H_PROTO
  86:/Library/DaisyToolchain/0.2.0/arm/arm-none-eabi/include/c++/10.3.1/cmath ****   inline _GLIBCXX_CONSTEXPR float
  87:/Library/DaisyToolchain/0.2.0/arm/arm-none-eabi/include/c++/10.3.1/cmath ****   acos(float __x)
  88:/Library/DaisyToolchain/0.2.0/arm/arm-none-eabi/include/c++/10.3.1/cmath ****   { return __builtin_acosf(__x); }
  89:/Library/DaisyToolchain/0.2.0/arm/arm-none-eabi/include/c++/10.3.1/cmath **** 
  90:/Library/DaisyToolchain/0.2.0/arm/arm-none-eabi/include/c++/10.3.1/cmath ****   inline _GLIBCXX_CONSTEXPR long double
  91:/Library/DaisyToolchain/0.2.0/arm/arm-none-eabi/include/c++/10.3.1/cmath ****   acos(long double __x)
  92:/Library/DaisyToolchain/0.2.0/arm/arm-none-eabi/include/c++/10.3.1/cmath ****   { return __builtin_acosl(__x); }
  93:/Library/DaisyToolchain/0.2.0/arm/arm-none-eabi/include/c++/10.3.1/cmath **** #endif
  94:/Library/DaisyToolchain/0.2.0/arm/arm-none-eabi/include/c++/10.3.1/cmath **** 
  95:/Library/DaisyToolchain/0.2.0/arm/arm-none-eabi/include/c++/10.3.1/cmath ****   template<typename _Tp>
  96:/Library/DaisyToolchain/0.2.0/arm/arm-none-eabi/include/c++/10.3.1/cmath ****     inline _GLIBCXX_CONSTEXPR
  97:/Library/DaisyToolchain/0.2.0/arm/arm-none-eabi/include/c++/10.3.1/cmath ****     typename __gnu_cxx::__enable_if<__is_integer<_Tp>::__value, 
  98:/Library/DaisyToolchain/0.2.0/arm/arm-none-eabi/include/c++/10.3.1/cmath ****                                     double>::__type
  99:/Library/DaisyToolchain/0.2.0/arm/arm-none-eabi/include/c++/10.3.1/cmath ****     acos(_Tp __x)
 100:/Library/DaisyToolchain/0.2.0/arm/arm-none-eabi/include/c++/10.3.1/cmath ****     { return __builtin_acos(__x); }
 101:/Library/DaisyToolchain/0.2.0/arm/arm-none-eabi/include/c++/10.3.1/cmath **** 
 102:/Library/DaisyToolchain/0.2.0/arm/arm-none-eabi/include/c++/10.3.1/cmath ****   using ::asin;
 103:/Library/DaisyToolchain/0.2.0/arm/arm-none-eabi/include/c++/10.3.1/cmath **** 
 104:/Library/DaisyToolchain/0.2.0/arm/arm-none-eabi/include/c++/10.3.1/cmath **** #ifndef __CORRECT_ISO_CPP_MATH_H_PROTO
 105:/Library/DaisyToolchain/0.2.0/arm/arm-none-eabi/include/c++/10.3.1/cmath ****   inline _GLIBCXX_CONSTEXPR float
 106:/Library/DaisyToolchain/0.2.0/arm/arm-none-eabi/include/c++/10.3.1/cmath ****   asin(float __x)
ARM GAS  /var/folders/2p/02m_5p7958535cp2tpgps0400000gn/T//ccbqYDkS.s 			page 38


 107:/Library/DaisyToolchain/0.2.0/arm/arm-none-eabi/include/c++/10.3.1/cmath ****   { return __builtin_asinf(__x); }
 108:/Library/DaisyToolchain/0.2.0/arm/arm-none-eabi/include/c++/10.3.1/cmath **** 
 109:/Library/DaisyToolchain/0.2.0/arm/arm-none-eabi/include/c++/10.3.1/cmath ****   inline _GLIBCXX_CONSTEXPR long double
 110:/Library/DaisyToolchain/0.2.0/arm/arm-none-eabi/include/c++/10.3.1/cmath ****   asin(long double __x)
 111:/Library/DaisyToolchain/0.2.0/arm/arm-none-eabi/include/c++/10.3.1/cmath ****   { return __builtin_asinl(__x); }
 112:/Library/DaisyToolchain/0.2.0/arm/arm-none-eabi/include/c++/10.3.1/cmath **** #endif
 113:/Library/DaisyToolchain/0.2.0/arm/arm-none-eabi/include/c++/10.3.1/cmath **** 
 114:/Library/DaisyToolchain/0.2.0/arm/arm-none-eabi/include/c++/10.3.1/cmath ****   template<typename _Tp>
 115:/Library/DaisyToolchain/0.2.0/arm/arm-none-eabi/include/c++/10.3.1/cmath ****     inline _GLIBCXX_CONSTEXPR
 116:/Library/DaisyToolchain/0.2.0/arm/arm-none-eabi/include/c++/10.3.1/cmath ****     typename __gnu_cxx::__enable_if<__is_integer<_Tp>::__value,
 117:/Library/DaisyToolchain/0.2.0/arm/arm-none-eabi/include/c++/10.3.1/cmath ****                                     double>::__type
 118:/Library/DaisyToolchain/0.2.0/arm/arm-none-eabi/include/c++/10.3.1/cmath ****     asin(_Tp __x)
 119:/Library/DaisyToolchain/0.2.0/arm/arm-none-eabi/include/c++/10.3.1/cmath ****     { return __builtin_asin(__x); }
 120:/Library/DaisyToolchain/0.2.0/arm/arm-none-eabi/include/c++/10.3.1/cmath **** 
 121:/Library/DaisyToolchain/0.2.0/arm/arm-none-eabi/include/c++/10.3.1/cmath ****   using ::atan;
 122:/Library/DaisyToolchain/0.2.0/arm/arm-none-eabi/include/c++/10.3.1/cmath **** 
 123:/Library/DaisyToolchain/0.2.0/arm/arm-none-eabi/include/c++/10.3.1/cmath **** #ifndef __CORRECT_ISO_CPP_MATH_H_PROTO
 124:/Library/DaisyToolchain/0.2.0/arm/arm-none-eabi/include/c++/10.3.1/cmath ****   inline _GLIBCXX_CONSTEXPR float
 125:/Library/DaisyToolchain/0.2.0/arm/arm-none-eabi/include/c++/10.3.1/cmath ****   atan(float __x)
 126:/Library/DaisyToolchain/0.2.0/arm/arm-none-eabi/include/c++/10.3.1/cmath ****   { return __builtin_atanf(__x); }
 127:/Library/DaisyToolchain/0.2.0/arm/arm-none-eabi/include/c++/10.3.1/cmath **** 
 128:/Library/DaisyToolchain/0.2.0/arm/arm-none-eabi/include/c++/10.3.1/cmath ****   inline _GLIBCXX_CONSTEXPR long double
 129:/Library/DaisyToolchain/0.2.0/arm/arm-none-eabi/include/c++/10.3.1/cmath ****   atan(long double __x)
 130:/Library/DaisyToolchain/0.2.0/arm/arm-none-eabi/include/c++/10.3.1/cmath ****   { return __builtin_atanl(__x); }
 131:/Library/DaisyToolchain/0.2.0/arm/arm-none-eabi/include/c++/10.3.1/cmath **** #endif
 132:/Library/DaisyToolchain/0.2.0/arm/arm-none-eabi/include/c++/10.3.1/cmath **** 
 133:/Library/DaisyToolchain/0.2.0/arm/arm-none-eabi/include/c++/10.3.1/cmath ****   template<typename _Tp>
 134:/Library/DaisyToolchain/0.2.0/arm/arm-none-eabi/include/c++/10.3.1/cmath ****     inline _GLIBCXX_CONSTEXPR
 135:/Library/DaisyToolchain/0.2.0/arm/arm-none-eabi/include/c++/10.3.1/cmath ****     typename __gnu_cxx::__enable_if<__is_integer<_Tp>::__value,
 136:/Library/DaisyToolchain/0.2.0/arm/arm-none-eabi/include/c++/10.3.1/cmath ****                                     double>::__type
 137:/Library/DaisyToolchain/0.2.0/arm/arm-none-eabi/include/c++/10.3.1/cmath ****     atan(_Tp __x)
 138:/Library/DaisyToolchain/0.2.0/arm/arm-none-eabi/include/c++/10.3.1/cmath ****     { return __builtin_atan(__x); }
 139:/Library/DaisyToolchain/0.2.0/arm/arm-none-eabi/include/c++/10.3.1/cmath **** 
 140:/Library/DaisyToolchain/0.2.0/arm/arm-none-eabi/include/c++/10.3.1/cmath ****   using ::atan2;
 141:/Library/DaisyToolchain/0.2.0/arm/arm-none-eabi/include/c++/10.3.1/cmath **** 
 142:/Library/DaisyToolchain/0.2.0/arm/arm-none-eabi/include/c++/10.3.1/cmath **** #ifndef __CORRECT_ISO_CPP_MATH_H_PROTO
 143:/Library/DaisyToolchain/0.2.0/arm/arm-none-eabi/include/c++/10.3.1/cmath ****   inline _GLIBCXX_CONSTEXPR float
 144:/Library/DaisyToolchain/0.2.0/arm/arm-none-eabi/include/c++/10.3.1/cmath ****   atan2(float __y, float __x)
 145:/Library/DaisyToolchain/0.2.0/arm/arm-none-eabi/include/c++/10.3.1/cmath ****   { return __builtin_atan2f(__y, __x); }
 146:/Library/DaisyToolchain/0.2.0/arm/arm-none-eabi/include/c++/10.3.1/cmath **** 
 147:/Library/DaisyToolchain/0.2.0/arm/arm-none-eabi/include/c++/10.3.1/cmath ****   inline _GLIBCXX_CONSTEXPR long double
 148:/Library/DaisyToolchain/0.2.0/arm/arm-none-eabi/include/c++/10.3.1/cmath ****   atan2(long double __y, long double __x)
 149:/Library/DaisyToolchain/0.2.0/arm/arm-none-eabi/include/c++/10.3.1/cmath ****   { return __builtin_atan2l(__y, __x); }
 150:/Library/DaisyToolchain/0.2.0/arm/arm-none-eabi/include/c++/10.3.1/cmath **** #endif
 151:/Library/DaisyToolchain/0.2.0/arm/arm-none-eabi/include/c++/10.3.1/cmath **** 
 152:/Library/DaisyToolchain/0.2.0/arm/arm-none-eabi/include/c++/10.3.1/cmath ****   template<typename _Tp, typename _Up>
 153:/Library/DaisyToolchain/0.2.0/arm/arm-none-eabi/include/c++/10.3.1/cmath ****     inline _GLIBCXX_CONSTEXPR
 154:/Library/DaisyToolchain/0.2.0/arm/arm-none-eabi/include/c++/10.3.1/cmath ****     typename __gnu_cxx::__promote_2<_Tp, _Up>::__type
 155:/Library/DaisyToolchain/0.2.0/arm/arm-none-eabi/include/c++/10.3.1/cmath ****     atan2(_Tp __y, _Up __x)
 156:/Library/DaisyToolchain/0.2.0/arm/arm-none-eabi/include/c++/10.3.1/cmath ****     {
 157:/Library/DaisyToolchain/0.2.0/arm/arm-none-eabi/include/c++/10.3.1/cmath ****       typedef typename __gnu_cxx::__promote_2<_Tp, _Up>::__type __type;
 158:/Library/DaisyToolchain/0.2.0/arm/arm-none-eabi/include/c++/10.3.1/cmath ****       return atan2(__type(__y), __type(__x));
 159:/Library/DaisyToolchain/0.2.0/arm/arm-none-eabi/include/c++/10.3.1/cmath ****     }
 160:/Library/DaisyToolchain/0.2.0/arm/arm-none-eabi/include/c++/10.3.1/cmath **** 
 161:/Library/DaisyToolchain/0.2.0/arm/arm-none-eabi/include/c++/10.3.1/cmath ****   using ::ceil;
 162:/Library/DaisyToolchain/0.2.0/arm/arm-none-eabi/include/c++/10.3.1/cmath **** 
 163:/Library/DaisyToolchain/0.2.0/arm/arm-none-eabi/include/c++/10.3.1/cmath **** #ifndef __CORRECT_ISO_CPP_MATH_H_PROTO
ARM GAS  /var/folders/2p/02m_5p7958535cp2tpgps0400000gn/T//ccbqYDkS.s 			page 39


 164:/Library/DaisyToolchain/0.2.0/arm/arm-none-eabi/include/c++/10.3.1/cmath ****   inline _GLIBCXX_CONSTEXPR float
 165:/Library/DaisyToolchain/0.2.0/arm/arm-none-eabi/include/c++/10.3.1/cmath ****   ceil(float __x)
 166:/Library/DaisyToolchain/0.2.0/arm/arm-none-eabi/include/c++/10.3.1/cmath ****   { return __builtin_ceilf(__x); }
 167:/Library/DaisyToolchain/0.2.0/arm/arm-none-eabi/include/c++/10.3.1/cmath **** 
 168:/Library/DaisyToolchain/0.2.0/arm/arm-none-eabi/include/c++/10.3.1/cmath ****   inline _GLIBCXX_CONSTEXPR long double
 169:/Library/DaisyToolchain/0.2.0/arm/arm-none-eabi/include/c++/10.3.1/cmath ****   ceil(long double __x)
 170:/Library/DaisyToolchain/0.2.0/arm/arm-none-eabi/include/c++/10.3.1/cmath ****   { return __builtin_ceill(__x); }
 171:/Library/DaisyToolchain/0.2.0/arm/arm-none-eabi/include/c++/10.3.1/cmath **** #endif
 172:/Library/DaisyToolchain/0.2.0/arm/arm-none-eabi/include/c++/10.3.1/cmath **** 
 173:/Library/DaisyToolchain/0.2.0/arm/arm-none-eabi/include/c++/10.3.1/cmath ****   template<typename _Tp>
 174:/Library/DaisyToolchain/0.2.0/arm/arm-none-eabi/include/c++/10.3.1/cmath ****     inline _GLIBCXX_CONSTEXPR
 175:/Library/DaisyToolchain/0.2.0/arm/arm-none-eabi/include/c++/10.3.1/cmath ****     typename __gnu_cxx::__enable_if<__is_integer<_Tp>::__value, 
 176:/Library/DaisyToolchain/0.2.0/arm/arm-none-eabi/include/c++/10.3.1/cmath ****                                     double>::__type
 177:/Library/DaisyToolchain/0.2.0/arm/arm-none-eabi/include/c++/10.3.1/cmath ****     ceil(_Tp __x)
 178:/Library/DaisyToolchain/0.2.0/arm/arm-none-eabi/include/c++/10.3.1/cmath ****     { return __builtin_ceil(__x); }
 179:/Library/DaisyToolchain/0.2.0/arm/arm-none-eabi/include/c++/10.3.1/cmath **** 
 180:/Library/DaisyToolchain/0.2.0/arm/arm-none-eabi/include/c++/10.3.1/cmath ****   using ::cos;
 181:/Library/DaisyToolchain/0.2.0/arm/arm-none-eabi/include/c++/10.3.1/cmath **** 
 182:/Library/DaisyToolchain/0.2.0/arm/arm-none-eabi/include/c++/10.3.1/cmath **** #ifndef __CORRECT_ISO_CPP_MATH_H_PROTO
 183:/Library/DaisyToolchain/0.2.0/arm/arm-none-eabi/include/c++/10.3.1/cmath ****   inline _GLIBCXX_CONSTEXPR float
 184:/Library/DaisyToolchain/0.2.0/arm/arm-none-eabi/include/c++/10.3.1/cmath ****   cos(float __x)
 185:/Library/DaisyToolchain/0.2.0/arm/arm-none-eabi/include/c++/10.3.1/cmath ****   { return __builtin_cosf(__x); }
 186:/Library/DaisyToolchain/0.2.0/arm/arm-none-eabi/include/c++/10.3.1/cmath **** 
 187:/Library/DaisyToolchain/0.2.0/arm/arm-none-eabi/include/c++/10.3.1/cmath ****   inline _GLIBCXX_CONSTEXPR long double
 188:/Library/DaisyToolchain/0.2.0/arm/arm-none-eabi/include/c++/10.3.1/cmath ****   cos(long double __x)
 189:/Library/DaisyToolchain/0.2.0/arm/arm-none-eabi/include/c++/10.3.1/cmath ****   { return __builtin_cosl(__x); }
 190:/Library/DaisyToolchain/0.2.0/arm/arm-none-eabi/include/c++/10.3.1/cmath **** #endif
 191:/Library/DaisyToolchain/0.2.0/arm/arm-none-eabi/include/c++/10.3.1/cmath **** 
 192:/Library/DaisyToolchain/0.2.0/arm/arm-none-eabi/include/c++/10.3.1/cmath ****   template<typename _Tp>
 193:/Library/DaisyToolchain/0.2.0/arm/arm-none-eabi/include/c++/10.3.1/cmath ****     inline _GLIBCXX_CONSTEXPR
 194:/Library/DaisyToolchain/0.2.0/arm/arm-none-eabi/include/c++/10.3.1/cmath ****     typename __gnu_cxx::__enable_if<__is_integer<_Tp>::__value,
 195:/Library/DaisyToolchain/0.2.0/arm/arm-none-eabi/include/c++/10.3.1/cmath ****                                     double>::__type
 196:/Library/DaisyToolchain/0.2.0/arm/arm-none-eabi/include/c++/10.3.1/cmath ****     cos(_Tp __x)
 197:/Library/DaisyToolchain/0.2.0/arm/arm-none-eabi/include/c++/10.3.1/cmath ****     { return __builtin_cos(__x); }
 198:/Library/DaisyToolchain/0.2.0/arm/arm-none-eabi/include/c++/10.3.1/cmath **** 
 199:/Library/DaisyToolchain/0.2.0/arm/arm-none-eabi/include/c++/10.3.1/cmath ****   using ::cosh;
 200:/Library/DaisyToolchain/0.2.0/arm/arm-none-eabi/include/c++/10.3.1/cmath **** 
 201:/Library/DaisyToolchain/0.2.0/arm/arm-none-eabi/include/c++/10.3.1/cmath **** #ifndef __CORRECT_ISO_CPP_MATH_H_PROTO
 202:/Library/DaisyToolchain/0.2.0/arm/arm-none-eabi/include/c++/10.3.1/cmath ****   inline _GLIBCXX_CONSTEXPR float
 203:/Library/DaisyToolchain/0.2.0/arm/arm-none-eabi/include/c++/10.3.1/cmath ****   cosh(float __x)
 204:/Library/DaisyToolchain/0.2.0/arm/arm-none-eabi/include/c++/10.3.1/cmath ****   { return __builtin_coshf(__x); }
 205:/Library/DaisyToolchain/0.2.0/arm/arm-none-eabi/include/c++/10.3.1/cmath **** 
 206:/Library/DaisyToolchain/0.2.0/arm/arm-none-eabi/include/c++/10.3.1/cmath ****   inline _GLIBCXX_CONSTEXPR long double
 207:/Library/DaisyToolchain/0.2.0/arm/arm-none-eabi/include/c++/10.3.1/cmath ****   cosh(long double __x)
 208:/Library/DaisyToolchain/0.2.0/arm/arm-none-eabi/include/c++/10.3.1/cmath ****   { return __builtin_coshl(__x); }
 209:/Library/DaisyToolchain/0.2.0/arm/arm-none-eabi/include/c++/10.3.1/cmath **** #endif
 210:/Library/DaisyToolchain/0.2.0/arm/arm-none-eabi/include/c++/10.3.1/cmath **** 
 211:/Library/DaisyToolchain/0.2.0/arm/arm-none-eabi/include/c++/10.3.1/cmath ****   template<typename _Tp>
 212:/Library/DaisyToolchain/0.2.0/arm/arm-none-eabi/include/c++/10.3.1/cmath ****     inline _GLIBCXX_CONSTEXPR
 213:/Library/DaisyToolchain/0.2.0/arm/arm-none-eabi/include/c++/10.3.1/cmath ****     typename __gnu_cxx::__enable_if<__is_integer<_Tp>::__value,
 214:/Library/DaisyToolchain/0.2.0/arm/arm-none-eabi/include/c++/10.3.1/cmath ****                                     double>::__type
 215:/Library/DaisyToolchain/0.2.0/arm/arm-none-eabi/include/c++/10.3.1/cmath ****     cosh(_Tp __x)
 216:/Library/DaisyToolchain/0.2.0/arm/arm-none-eabi/include/c++/10.3.1/cmath ****     { return __builtin_cosh(__x); }
 217:/Library/DaisyToolchain/0.2.0/arm/arm-none-eabi/include/c++/10.3.1/cmath **** 
 218:/Library/DaisyToolchain/0.2.0/arm/arm-none-eabi/include/c++/10.3.1/cmath ****   using ::exp;
 219:/Library/DaisyToolchain/0.2.0/arm/arm-none-eabi/include/c++/10.3.1/cmath **** 
 220:/Library/DaisyToolchain/0.2.0/arm/arm-none-eabi/include/c++/10.3.1/cmath **** #ifndef __CORRECT_ISO_CPP_MATH_H_PROTO
ARM GAS  /var/folders/2p/02m_5p7958535cp2tpgps0400000gn/T//ccbqYDkS.s 			page 40


 221:/Library/DaisyToolchain/0.2.0/arm/arm-none-eabi/include/c++/10.3.1/cmath ****   inline _GLIBCXX_CONSTEXPR float
 222:/Library/DaisyToolchain/0.2.0/arm/arm-none-eabi/include/c++/10.3.1/cmath ****   exp(float __x)
 223:/Library/DaisyToolchain/0.2.0/arm/arm-none-eabi/include/c++/10.3.1/cmath ****   { return __builtin_expf(__x); }
 224:/Library/DaisyToolchain/0.2.0/arm/arm-none-eabi/include/c++/10.3.1/cmath **** 
 225:/Library/DaisyToolchain/0.2.0/arm/arm-none-eabi/include/c++/10.3.1/cmath ****   inline _GLIBCXX_CONSTEXPR long double
 226:/Library/DaisyToolchain/0.2.0/arm/arm-none-eabi/include/c++/10.3.1/cmath ****   exp(long double __x)
 227:/Library/DaisyToolchain/0.2.0/arm/arm-none-eabi/include/c++/10.3.1/cmath ****   { return __builtin_expl(__x); }
 228:/Library/DaisyToolchain/0.2.0/arm/arm-none-eabi/include/c++/10.3.1/cmath **** #endif
 229:/Library/DaisyToolchain/0.2.0/arm/arm-none-eabi/include/c++/10.3.1/cmath **** 
 230:/Library/DaisyToolchain/0.2.0/arm/arm-none-eabi/include/c++/10.3.1/cmath ****   template<typename _Tp>
 231:/Library/DaisyToolchain/0.2.0/arm/arm-none-eabi/include/c++/10.3.1/cmath ****     inline _GLIBCXX_CONSTEXPR
 232:/Library/DaisyToolchain/0.2.0/arm/arm-none-eabi/include/c++/10.3.1/cmath ****     typename __gnu_cxx::__enable_if<__is_integer<_Tp>::__value,
 233:/Library/DaisyToolchain/0.2.0/arm/arm-none-eabi/include/c++/10.3.1/cmath ****                                     double>::__type
 234:/Library/DaisyToolchain/0.2.0/arm/arm-none-eabi/include/c++/10.3.1/cmath ****     exp(_Tp __x)
 235:/Library/DaisyToolchain/0.2.0/arm/arm-none-eabi/include/c++/10.3.1/cmath ****     { return __builtin_exp(__x); }
 236:/Library/DaisyToolchain/0.2.0/arm/arm-none-eabi/include/c++/10.3.1/cmath **** 
 237:/Library/DaisyToolchain/0.2.0/arm/arm-none-eabi/include/c++/10.3.1/cmath ****   using ::fabs;
 238:/Library/DaisyToolchain/0.2.0/arm/arm-none-eabi/include/c++/10.3.1/cmath **** 
 239:/Library/DaisyToolchain/0.2.0/arm/arm-none-eabi/include/c++/10.3.1/cmath **** #ifndef __CORRECT_ISO_CPP_MATH_H_PROTO
 240:/Library/DaisyToolchain/0.2.0/arm/arm-none-eabi/include/c++/10.3.1/cmath ****   inline _GLIBCXX_CONSTEXPR float
 241:/Library/DaisyToolchain/0.2.0/arm/arm-none-eabi/include/c++/10.3.1/cmath ****   fabs(float __x)
 242:/Library/DaisyToolchain/0.2.0/arm/arm-none-eabi/include/c++/10.3.1/cmath ****   { return __builtin_fabsf(__x); }
 243:/Library/DaisyToolchain/0.2.0/arm/arm-none-eabi/include/c++/10.3.1/cmath **** 
 244:/Library/DaisyToolchain/0.2.0/arm/arm-none-eabi/include/c++/10.3.1/cmath ****   inline _GLIBCXX_CONSTEXPR long double
 245:/Library/DaisyToolchain/0.2.0/arm/arm-none-eabi/include/c++/10.3.1/cmath ****   fabs(long double __x)
 246:/Library/DaisyToolchain/0.2.0/arm/arm-none-eabi/include/c++/10.3.1/cmath ****   { return __builtin_fabsl(__x); }
 247:/Library/DaisyToolchain/0.2.0/arm/arm-none-eabi/include/c++/10.3.1/cmath **** #endif
 248:/Library/DaisyToolchain/0.2.0/arm/arm-none-eabi/include/c++/10.3.1/cmath **** 
 249:/Library/DaisyToolchain/0.2.0/arm/arm-none-eabi/include/c++/10.3.1/cmath ****   template<typename _Tp>
 250:/Library/DaisyToolchain/0.2.0/arm/arm-none-eabi/include/c++/10.3.1/cmath ****     inline _GLIBCXX_CONSTEXPR
 251:/Library/DaisyToolchain/0.2.0/arm/arm-none-eabi/include/c++/10.3.1/cmath ****     typename __gnu_cxx::__enable_if<__is_integer<_Tp>::__value,
 252:/Library/DaisyToolchain/0.2.0/arm/arm-none-eabi/include/c++/10.3.1/cmath ****                                     double>::__type
 253:/Library/DaisyToolchain/0.2.0/arm/arm-none-eabi/include/c++/10.3.1/cmath ****     fabs(_Tp __x)
 254:/Library/DaisyToolchain/0.2.0/arm/arm-none-eabi/include/c++/10.3.1/cmath ****     { return __builtin_fabs(__x); }
 255:/Library/DaisyToolchain/0.2.0/arm/arm-none-eabi/include/c++/10.3.1/cmath **** 
 256:/Library/DaisyToolchain/0.2.0/arm/arm-none-eabi/include/c++/10.3.1/cmath ****   using ::floor;
 257:/Library/DaisyToolchain/0.2.0/arm/arm-none-eabi/include/c++/10.3.1/cmath **** 
 258:/Library/DaisyToolchain/0.2.0/arm/arm-none-eabi/include/c++/10.3.1/cmath **** #ifndef __CORRECT_ISO_CPP_MATH_H_PROTO
 259:/Library/DaisyToolchain/0.2.0/arm/arm-none-eabi/include/c++/10.3.1/cmath ****   inline _GLIBCXX_CONSTEXPR float
 260:/Library/DaisyToolchain/0.2.0/arm/arm-none-eabi/include/c++/10.3.1/cmath ****   floor(float __x)
 261:/Library/DaisyToolchain/0.2.0/arm/arm-none-eabi/include/c++/10.3.1/cmath ****   { return __builtin_floorf(__x); }
 262:/Library/DaisyToolchain/0.2.0/arm/arm-none-eabi/include/c++/10.3.1/cmath **** 
 263:/Library/DaisyToolchain/0.2.0/arm/arm-none-eabi/include/c++/10.3.1/cmath ****   inline _GLIBCXX_CONSTEXPR long double
 264:/Library/DaisyToolchain/0.2.0/arm/arm-none-eabi/include/c++/10.3.1/cmath ****   floor(long double __x)
 265:/Library/DaisyToolchain/0.2.0/arm/arm-none-eabi/include/c++/10.3.1/cmath ****   { return __builtin_floorl(__x); }
 266:/Library/DaisyToolchain/0.2.0/arm/arm-none-eabi/include/c++/10.3.1/cmath **** #endif
 267:/Library/DaisyToolchain/0.2.0/arm/arm-none-eabi/include/c++/10.3.1/cmath **** 
 268:/Library/DaisyToolchain/0.2.0/arm/arm-none-eabi/include/c++/10.3.1/cmath ****   template<typename _Tp>
 269:/Library/DaisyToolchain/0.2.0/arm/arm-none-eabi/include/c++/10.3.1/cmath ****     inline _GLIBCXX_CONSTEXPR
 270:/Library/DaisyToolchain/0.2.0/arm/arm-none-eabi/include/c++/10.3.1/cmath ****     typename __gnu_cxx::__enable_if<__is_integer<_Tp>::__value,
 271:/Library/DaisyToolchain/0.2.0/arm/arm-none-eabi/include/c++/10.3.1/cmath ****                                     double>::__type
 272:/Library/DaisyToolchain/0.2.0/arm/arm-none-eabi/include/c++/10.3.1/cmath ****     floor(_Tp __x)
 273:/Library/DaisyToolchain/0.2.0/arm/arm-none-eabi/include/c++/10.3.1/cmath ****     { return __builtin_floor(__x); }
 274:/Library/DaisyToolchain/0.2.0/arm/arm-none-eabi/include/c++/10.3.1/cmath **** 
 275:/Library/DaisyToolchain/0.2.0/arm/arm-none-eabi/include/c++/10.3.1/cmath ****   using ::fmod;
 276:/Library/DaisyToolchain/0.2.0/arm/arm-none-eabi/include/c++/10.3.1/cmath **** 
 277:/Library/DaisyToolchain/0.2.0/arm/arm-none-eabi/include/c++/10.3.1/cmath **** #ifndef __CORRECT_ISO_CPP_MATH_H_PROTO
ARM GAS  /var/folders/2p/02m_5p7958535cp2tpgps0400000gn/T//ccbqYDkS.s 			page 41


 278:/Library/DaisyToolchain/0.2.0/arm/arm-none-eabi/include/c++/10.3.1/cmath ****   inline _GLIBCXX_CONSTEXPR float
 279:/Library/DaisyToolchain/0.2.0/arm/arm-none-eabi/include/c++/10.3.1/cmath ****   fmod(float __x, float __y)
 280:/Library/DaisyToolchain/0.2.0/arm/arm-none-eabi/include/c++/10.3.1/cmath ****   { return __builtin_fmodf(__x, __y); }
 281:/Library/DaisyToolchain/0.2.0/arm/arm-none-eabi/include/c++/10.3.1/cmath **** 
 282:/Library/DaisyToolchain/0.2.0/arm/arm-none-eabi/include/c++/10.3.1/cmath ****   inline _GLIBCXX_CONSTEXPR long double
 283:/Library/DaisyToolchain/0.2.0/arm/arm-none-eabi/include/c++/10.3.1/cmath ****   fmod(long double __x, long double __y)
 284:/Library/DaisyToolchain/0.2.0/arm/arm-none-eabi/include/c++/10.3.1/cmath ****   { return __builtin_fmodl(__x, __y); }
 285:/Library/DaisyToolchain/0.2.0/arm/arm-none-eabi/include/c++/10.3.1/cmath **** #endif
 286:/Library/DaisyToolchain/0.2.0/arm/arm-none-eabi/include/c++/10.3.1/cmath **** 
 287:/Library/DaisyToolchain/0.2.0/arm/arm-none-eabi/include/c++/10.3.1/cmath ****   template<typename _Tp, typename _Up>
 288:/Library/DaisyToolchain/0.2.0/arm/arm-none-eabi/include/c++/10.3.1/cmath ****     inline _GLIBCXX_CONSTEXPR
 289:/Library/DaisyToolchain/0.2.0/arm/arm-none-eabi/include/c++/10.3.1/cmath ****     typename __gnu_cxx::__promote_2<_Tp, _Up>::__type
 290:/Library/DaisyToolchain/0.2.0/arm/arm-none-eabi/include/c++/10.3.1/cmath ****     fmod(_Tp __x, _Up __y)
 291:/Library/DaisyToolchain/0.2.0/arm/arm-none-eabi/include/c++/10.3.1/cmath ****     {
 292:/Library/DaisyToolchain/0.2.0/arm/arm-none-eabi/include/c++/10.3.1/cmath ****       typedef typename __gnu_cxx::__promote_2<_Tp, _Up>::__type __type;
 293:/Library/DaisyToolchain/0.2.0/arm/arm-none-eabi/include/c++/10.3.1/cmath ****       return fmod(__type(__x), __type(__y));
 294:/Library/DaisyToolchain/0.2.0/arm/arm-none-eabi/include/c++/10.3.1/cmath ****     }
 295:/Library/DaisyToolchain/0.2.0/arm/arm-none-eabi/include/c++/10.3.1/cmath **** 
 296:/Library/DaisyToolchain/0.2.0/arm/arm-none-eabi/include/c++/10.3.1/cmath ****   using ::frexp;
 297:/Library/DaisyToolchain/0.2.0/arm/arm-none-eabi/include/c++/10.3.1/cmath **** 
 298:/Library/DaisyToolchain/0.2.0/arm/arm-none-eabi/include/c++/10.3.1/cmath **** #ifndef __CORRECT_ISO_CPP_MATH_H_PROTO
 299:/Library/DaisyToolchain/0.2.0/arm/arm-none-eabi/include/c++/10.3.1/cmath ****   inline float
 300:/Library/DaisyToolchain/0.2.0/arm/arm-none-eabi/include/c++/10.3.1/cmath ****   frexp(float __x, int* __exp)
 301:/Library/DaisyToolchain/0.2.0/arm/arm-none-eabi/include/c++/10.3.1/cmath ****   { return __builtin_frexpf(__x, __exp); }
 302:/Library/DaisyToolchain/0.2.0/arm/arm-none-eabi/include/c++/10.3.1/cmath **** 
 303:/Library/DaisyToolchain/0.2.0/arm/arm-none-eabi/include/c++/10.3.1/cmath ****   inline long double
 304:/Library/DaisyToolchain/0.2.0/arm/arm-none-eabi/include/c++/10.3.1/cmath ****   frexp(long double __x, int* __exp)
 305:/Library/DaisyToolchain/0.2.0/arm/arm-none-eabi/include/c++/10.3.1/cmath ****   { return __builtin_frexpl(__x, __exp); }
 306:/Library/DaisyToolchain/0.2.0/arm/arm-none-eabi/include/c++/10.3.1/cmath **** #endif
 307:/Library/DaisyToolchain/0.2.0/arm/arm-none-eabi/include/c++/10.3.1/cmath **** 
 308:/Library/DaisyToolchain/0.2.0/arm/arm-none-eabi/include/c++/10.3.1/cmath ****   template<typename _Tp>
 309:/Library/DaisyToolchain/0.2.0/arm/arm-none-eabi/include/c++/10.3.1/cmath ****     inline _GLIBCXX_CONSTEXPR
 310:/Library/DaisyToolchain/0.2.0/arm/arm-none-eabi/include/c++/10.3.1/cmath ****     typename __gnu_cxx::__enable_if<__is_integer<_Tp>::__value, 
 311:/Library/DaisyToolchain/0.2.0/arm/arm-none-eabi/include/c++/10.3.1/cmath ****                                     double>::__type
 312:/Library/DaisyToolchain/0.2.0/arm/arm-none-eabi/include/c++/10.3.1/cmath ****     frexp(_Tp __x, int* __exp)
 313:/Library/DaisyToolchain/0.2.0/arm/arm-none-eabi/include/c++/10.3.1/cmath ****     { return __builtin_frexp(__x, __exp); }
 314:/Library/DaisyToolchain/0.2.0/arm/arm-none-eabi/include/c++/10.3.1/cmath **** 
 315:/Library/DaisyToolchain/0.2.0/arm/arm-none-eabi/include/c++/10.3.1/cmath ****   using ::ldexp;
 316:/Library/DaisyToolchain/0.2.0/arm/arm-none-eabi/include/c++/10.3.1/cmath **** 
 317:/Library/DaisyToolchain/0.2.0/arm/arm-none-eabi/include/c++/10.3.1/cmath **** #ifndef __CORRECT_ISO_CPP_MATH_H_PROTO
 318:/Library/DaisyToolchain/0.2.0/arm/arm-none-eabi/include/c++/10.3.1/cmath ****   inline _GLIBCXX_CONSTEXPR float
 319:/Library/DaisyToolchain/0.2.0/arm/arm-none-eabi/include/c++/10.3.1/cmath ****   ldexp(float __x, int __exp)
 320:/Library/DaisyToolchain/0.2.0/arm/arm-none-eabi/include/c++/10.3.1/cmath ****   { return __builtin_ldexpf(__x, __exp); }
 321:/Library/DaisyToolchain/0.2.0/arm/arm-none-eabi/include/c++/10.3.1/cmath **** 
 322:/Library/DaisyToolchain/0.2.0/arm/arm-none-eabi/include/c++/10.3.1/cmath ****   inline _GLIBCXX_CONSTEXPR long double
 323:/Library/DaisyToolchain/0.2.0/arm/arm-none-eabi/include/c++/10.3.1/cmath ****   ldexp(long double __x, int __exp)
 324:/Library/DaisyToolchain/0.2.0/arm/arm-none-eabi/include/c++/10.3.1/cmath ****   { return __builtin_ldexpl(__x, __exp); }
 325:/Library/DaisyToolchain/0.2.0/arm/arm-none-eabi/include/c++/10.3.1/cmath **** #endif
 326:/Library/DaisyToolchain/0.2.0/arm/arm-none-eabi/include/c++/10.3.1/cmath **** 
 327:/Library/DaisyToolchain/0.2.0/arm/arm-none-eabi/include/c++/10.3.1/cmath ****   template<typename _Tp>
 328:/Library/DaisyToolchain/0.2.0/arm/arm-none-eabi/include/c++/10.3.1/cmath ****     inline _GLIBCXX_CONSTEXPR
 329:/Library/DaisyToolchain/0.2.0/arm/arm-none-eabi/include/c++/10.3.1/cmath ****     typename __gnu_cxx::__enable_if<__is_integer<_Tp>::__value, 
 330:/Library/DaisyToolchain/0.2.0/arm/arm-none-eabi/include/c++/10.3.1/cmath ****                                     double>::__type
 331:/Library/DaisyToolchain/0.2.0/arm/arm-none-eabi/include/c++/10.3.1/cmath ****     ldexp(_Tp __x, int __exp)
 332:/Library/DaisyToolchain/0.2.0/arm/arm-none-eabi/include/c++/10.3.1/cmath ****     { return __builtin_ldexp(__x, __exp); }
 333:/Library/DaisyToolchain/0.2.0/arm/arm-none-eabi/include/c++/10.3.1/cmath **** 
 334:/Library/DaisyToolchain/0.2.0/arm/arm-none-eabi/include/c++/10.3.1/cmath ****   using ::log;
ARM GAS  /var/folders/2p/02m_5p7958535cp2tpgps0400000gn/T//ccbqYDkS.s 			page 42


 335:/Library/DaisyToolchain/0.2.0/arm/arm-none-eabi/include/c++/10.3.1/cmath **** 
 336:/Library/DaisyToolchain/0.2.0/arm/arm-none-eabi/include/c++/10.3.1/cmath **** #ifndef __CORRECT_ISO_CPP_MATH_H_PROTO
 337:/Library/DaisyToolchain/0.2.0/arm/arm-none-eabi/include/c++/10.3.1/cmath ****   inline _GLIBCXX_CONSTEXPR float
 338:/Library/DaisyToolchain/0.2.0/arm/arm-none-eabi/include/c++/10.3.1/cmath ****   log(float __x)
 339:/Library/DaisyToolchain/0.2.0/arm/arm-none-eabi/include/c++/10.3.1/cmath ****   { return __builtin_logf(__x); }
 340:/Library/DaisyToolchain/0.2.0/arm/arm-none-eabi/include/c++/10.3.1/cmath **** 
 341:/Library/DaisyToolchain/0.2.0/arm/arm-none-eabi/include/c++/10.3.1/cmath ****   inline _GLIBCXX_CONSTEXPR long double
 342:/Library/DaisyToolchain/0.2.0/arm/arm-none-eabi/include/c++/10.3.1/cmath ****   log(long double __x)
 343:/Library/DaisyToolchain/0.2.0/arm/arm-none-eabi/include/c++/10.3.1/cmath ****   { return __builtin_logl(__x); }
 344:/Library/DaisyToolchain/0.2.0/arm/arm-none-eabi/include/c++/10.3.1/cmath **** #endif
 345:/Library/DaisyToolchain/0.2.0/arm/arm-none-eabi/include/c++/10.3.1/cmath **** 
 346:/Library/DaisyToolchain/0.2.0/arm/arm-none-eabi/include/c++/10.3.1/cmath ****   template<typename _Tp>
 347:/Library/DaisyToolchain/0.2.0/arm/arm-none-eabi/include/c++/10.3.1/cmath ****     inline _GLIBCXX_CONSTEXPR
 348:/Library/DaisyToolchain/0.2.0/arm/arm-none-eabi/include/c++/10.3.1/cmath ****     typename __gnu_cxx::__enable_if<__is_integer<_Tp>::__value, 
 349:/Library/DaisyToolchain/0.2.0/arm/arm-none-eabi/include/c++/10.3.1/cmath ****                                     double>::__type
 350:/Library/DaisyToolchain/0.2.0/arm/arm-none-eabi/include/c++/10.3.1/cmath ****     log(_Tp __x)
 351:/Library/DaisyToolchain/0.2.0/arm/arm-none-eabi/include/c++/10.3.1/cmath ****     { return __builtin_log(__x); }
 352:/Library/DaisyToolchain/0.2.0/arm/arm-none-eabi/include/c++/10.3.1/cmath **** 
 353:/Library/DaisyToolchain/0.2.0/arm/arm-none-eabi/include/c++/10.3.1/cmath ****   using ::log10;
 354:/Library/DaisyToolchain/0.2.0/arm/arm-none-eabi/include/c++/10.3.1/cmath **** 
 355:/Library/DaisyToolchain/0.2.0/arm/arm-none-eabi/include/c++/10.3.1/cmath **** #ifndef __CORRECT_ISO_CPP_MATH_H_PROTO
 356:/Library/DaisyToolchain/0.2.0/arm/arm-none-eabi/include/c++/10.3.1/cmath ****   inline _GLIBCXX_CONSTEXPR float
 357:/Library/DaisyToolchain/0.2.0/arm/arm-none-eabi/include/c++/10.3.1/cmath ****   log10(float __x)
 358:/Library/DaisyToolchain/0.2.0/arm/arm-none-eabi/include/c++/10.3.1/cmath ****   { return __builtin_log10f(__x); }
 359:/Library/DaisyToolchain/0.2.0/arm/arm-none-eabi/include/c++/10.3.1/cmath **** 
 360:/Library/DaisyToolchain/0.2.0/arm/arm-none-eabi/include/c++/10.3.1/cmath ****   inline _GLIBCXX_CONSTEXPR long double
 361:/Library/DaisyToolchain/0.2.0/arm/arm-none-eabi/include/c++/10.3.1/cmath ****   log10(long double __x)
 362:/Library/DaisyToolchain/0.2.0/arm/arm-none-eabi/include/c++/10.3.1/cmath ****   { return __builtin_log10l(__x); }
 363:/Library/DaisyToolchain/0.2.0/arm/arm-none-eabi/include/c++/10.3.1/cmath **** #endif
 364:/Library/DaisyToolchain/0.2.0/arm/arm-none-eabi/include/c++/10.3.1/cmath **** 
 365:/Library/DaisyToolchain/0.2.0/arm/arm-none-eabi/include/c++/10.3.1/cmath ****   template<typename _Tp>
 366:/Library/DaisyToolchain/0.2.0/arm/arm-none-eabi/include/c++/10.3.1/cmath ****     inline _GLIBCXX_CONSTEXPR
 367:/Library/DaisyToolchain/0.2.0/arm/arm-none-eabi/include/c++/10.3.1/cmath ****     typename __gnu_cxx::__enable_if<__is_integer<_Tp>::__value,
 368:/Library/DaisyToolchain/0.2.0/arm/arm-none-eabi/include/c++/10.3.1/cmath ****                                     double>::__type
 369:/Library/DaisyToolchain/0.2.0/arm/arm-none-eabi/include/c++/10.3.1/cmath ****     log10(_Tp __x)
 370:/Library/DaisyToolchain/0.2.0/arm/arm-none-eabi/include/c++/10.3.1/cmath ****     { return __builtin_log10(__x); }
 371:/Library/DaisyToolchain/0.2.0/arm/arm-none-eabi/include/c++/10.3.1/cmath **** 
 372:/Library/DaisyToolchain/0.2.0/arm/arm-none-eabi/include/c++/10.3.1/cmath ****   using ::modf;
 373:/Library/DaisyToolchain/0.2.0/arm/arm-none-eabi/include/c++/10.3.1/cmath **** 
 374:/Library/DaisyToolchain/0.2.0/arm/arm-none-eabi/include/c++/10.3.1/cmath **** #ifndef __CORRECT_ISO_CPP_MATH_H_PROTO
 375:/Library/DaisyToolchain/0.2.0/arm/arm-none-eabi/include/c++/10.3.1/cmath ****   inline float
 376:/Library/DaisyToolchain/0.2.0/arm/arm-none-eabi/include/c++/10.3.1/cmath ****   modf(float __x, float* __iptr)
 377:/Library/DaisyToolchain/0.2.0/arm/arm-none-eabi/include/c++/10.3.1/cmath ****   { return __builtin_modff(__x, __iptr); }
 378:/Library/DaisyToolchain/0.2.0/arm/arm-none-eabi/include/c++/10.3.1/cmath **** 
 379:/Library/DaisyToolchain/0.2.0/arm/arm-none-eabi/include/c++/10.3.1/cmath ****   inline long double
 380:/Library/DaisyToolchain/0.2.0/arm/arm-none-eabi/include/c++/10.3.1/cmath ****   modf(long double __x, long double* __iptr)
 381:/Library/DaisyToolchain/0.2.0/arm/arm-none-eabi/include/c++/10.3.1/cmath ****   { return __builtin_modfl(__x, __iptr); }
 382:/Library/DaisyToolchain/0.2.0/arm/arm-none-eabi/include/c++/10.3.1/cmath **** #endif
 383:/Library/DaisyToolchain/0.2.0/arm/arm-none-eabi/include/c++/10.3.1/cmath **** 
 384:/Library/DaisyToolchain/0.2.0/arm/arm-none-eabi/include/c++/10.3.1/cmath ****   using ::pow;
 385:/Library/DaisyToolchain/0.2.0/arm/arm-none-eabi/include/c++/10.3.1/cmath **** 
 386:/Library/DaisyToolchain/0.2.0/arm/arm-none-eabi/include/c++/10.3.1/cmath **** #ifndef __CORRECT_ISO_CPP_MATH_H_PROTO
 387:/Library/DaisyToolchain/0.2.0/arm/arm-none-eabi/include/c++/10.3.1/cmath ****   inline _GLIBCXX_CONSTEXPR float
 388:/Library/DaisyToolchain/0.2.0/arm/arm-none-eabi/include/c++/10.3.1/cmath ****   pow(float __x, float __y)
 389:/Library/DaisyToolchain/0.2.0/arm/arm-none-eabi/include/c++/10.3.1/cmath ****   { return __builtin_powf(__x, __y); }
 390:/Library/DaisyToolchain/0.2.0/arm/arm-none-eabi/include/c++/10.3.1/cmath **** 
 391:/Library/DaisyToolchain/0.2.0/arm/arm-none-eabi/include/c++/10.3.1/cmath ****   inline _GLIBCXX_CONSTEXPR long double
ARM GAS  /var/folders/2p/02m_5p7958535cp2tpgps0400000gn/T//ccbqYDkS.s 			page 43


 392:/Library/DaisyToolchain/0.2.0/arm/arm-none-eabi/include/c++/10.3.1/cmath ****   pow(long double __x, long double __y)
 393:/Library/DaisyToolchain/0.2.0/arm/arm-none-eabi/include/c++/10.3.1/cmath ****   { return __builtin_powl(__x, __y); }
 394:/Library/DaisyToolchain/0.2.0/arm/arm-none-eabi/include/c++/10.3.1/cmath **** 
 395:/Library/DaisyToolchain/0.2.0/arm/arm-none-eabi/include/c++/10.3.1/cmath **** #if __cplusplus < 201103L
 396:/Library/DaisyToolchain/0.2.0/arm/arm-none-eabi/include/c++/10.3.1/cmath ****   // _GLIBCXX_RESOLVE_LIB_DEFECTS
 397:/Library/DaisyToolchain/0.2.0/arm/arm-none-eabi/include/c++/10.3.1/cmath ****   // DR 550. What should the return type of pow(float,int) be?
 398:/Library/DaisyToolchain/0.2.0/arm/arm-none-eabi/include/c++/10.3.1/cmath ****   inline double
 399:/Library/DaisyToolchain/0.2.0/arm/arm-none-eabi/include/c++/10.3.1/cmath ****   pow(double __x, int __i)
 400:/Library/DaisyToolchain/0.2.0/arm/arm-none-eabi/include/c++/10.3.1/cmath ****   { return __builtin_powi(__x, __i); }
 401:/Library/DaisyToolchain/0.2.0/arm/arm-none-eabi/include/c++/10.3.1/cmath **** 
 402:/Library/DaisyToolchain/0.2.0/arm/arm-none-eabi/include/c++/10.3.1/cmath ****   inline float
 403:/Library/DaisyToolchain/0.2.0/arm/arm-none-eabi/include/c++/10.3.1/cmath ****   pow(float __x, int __n)
 404:/Library/DaisyToolchain/0.2.0/arm/arm-none-eabi/include/c++/10.3.1/cmath ****   { return __builtin_powif(__x, __n); }
 405:/Library/DaisyToolchain/0.2.0/arm/arm-none-eabi/include/c++/10.3.1/cmath **** 
 406:/Library/DaisyToolchain/0.2.0/arm/arm-none-eabi/include/c++/10.3.1/cmath ****   inline long double
 407:/Library/DaisyToolchain/0.2.0/arm/arm-none-eabi/include/c++/10.3.1/cmath ****   pow(long double __x, int __n)
 408:/Library/DaisyToolchain/0.2.0/arm/arm-none-eabi/include/c++/10.3.1/cmath ****   { return __builtin_powil(__x, __n); }
 409:/Library/DaisyToolchain/0.2.0/arm/arm-none-eabi/include/c++/10.3.1/cmath **** #endif
 410:/Library/DaisyToolchain/0.2.0/arm/arm-none-eabi/include/c++/10.3.1/cmath **** #endif
 411:/Library/DaisyToolchain/0.2.0/arm/arm-none-eabi/include/c++/10.3.1/cmath **** 
 412:/Library/DaisyToolchain/0.2.0/arm/arm-none-eabi/include/c++/10.3.1/cmath ****   template<typename _Tp, typename _Up>
 413:/Library/DaisyToolchain/0.2.0/arm/arm-none-eabi/include/c++/10.3.1/cmath ****     inline _GLIBCXX_CONSTEXPR
 414:/Library/DaisyToolchain/0.2.0/arm/arm-none-eabi/include/c++/10.3.1/cmath ****     typename __gnu_cxx::__promote_2<_Tp, _Up>::__type
 415:/Library/DaisyToolchain/0.2.0/arm/arm-none-eabi/include/c++/10.3.1/cmath ****     pow(_Tp __x, _Up __y)
 416:/Library/DaisyToolchain/0.2.0/arm/arm-none-eabi/include/c++/10.3.1/cmath ****     {
 417:/Library/DaisyToolchain/0.2.0/arm/arm-none-eabi/include/c++/10.3.1/cmath ****       typedef typename __gnu_cxx::__promote_2<_Tp, _Up>::__type __type;
 418:/Library/DaisyToolchain/0.2.0/arm/arm-none-eabi/include/c++/10.3.1/cmath ****       return pow(__type(__x), __type(__y));
 419:/Library/DaisyToolchain/0.2.0/arm/arm-none-eabi/include/c++/10.3.1/cmath ****     }
 420:/Library/DaisyToolchain/0.2.0/arm/arm-none-eabi/include/c++/10.3.1/cmath **** 
 421:/Library/DaisyToolchain/0.2.0/arm/arm-none-eabi/include/c++/10.3.1/cmath ****   using ::sin;
 422:/Library/DaisyToolchain/0.2.0/arm/arm-none-eabi/include/c++/10.3.1/cmath **** 
 423:/Library/DaisyToolchain/0.2.0/arm/arm-none-eabi/include/c++/10.3.1/cmath **** #ifndef __CORRECT_ISO_CPP_MATH_H_PROTO
 424:/Library/DaisyToolchain/0.2.0/arm/arm-none-eabi/include/c++/10.3.1/cmath ****   inline _GLIBCXX_CONSTEXPR float
 425:/Library/DaisyToolchain/0.2.0/arm/arm-none-eabi/include/c++/10.3.1/cmath ****   sin(float __x)
 426:/Library/DaisyToolchain/0.2.0/arm/arm-none-eabi/include/c++/10.3.1/cmath ****   { return __builtin_sinf(__x); }
 427:/Library/DaisyToolchain/0.2.0/arm/arm-none-eabi/include/c++/10.3.1/cmath **** 
 428:/Library/DaisyToolchain/0.2.0/arm/arm-none-eabi/include/c++/10.3.1/cmath ****   inline _GLIBCXX_CONSTEXPR long double
 429:/Library/DaisyToolchain/0.2.0/arm/arm-none-eabi/include/c++/10.3.1/cmath ****   sin(long double __x)
 430:/Library/DaisyToolchain/0.2.0/arm/arm-none-eabi/include/c++/10.3.1/cmath ****   { return __builtin_sinl(__x); }
 431:/Library/DaisyToolchain/0.2.0/arm/arm-none-eabi/include/c++/10.3.1/cmath **** #endif
 432:/Library/DaisyToolchain/0.2.0/arm/arm-none-eabi/include/c++/10.3.1/cmath **** 
 433:/Library/DaisyToolchain/0.2.0/arm/arm-none-eabi/include/c++/10.3.1/cmath ****   template<typename _Tp>
 434:/Library/DaisyToolchain/0.2.0/arm/arm-none-eabi/include/c++/10.3.1/cmath ****     inline _GLIBCXX_CONSTEXPR
 435:/Library/DaisyToolchain/0.2.0/arm/arm-none-eabi/include/c++/10.3.1/cmath ****     typename __gnu_cxx::__enable_if<__is_integer<_Tp>::__value, 
 436:/Library/DaisyToolchain/0.2.0/arm/arm-none-eabi/include/c++/10.3.1/cmath ****                                     double>::__type
 437:/Library/DaisyToolchain/0.2.0/arm/arm-none-eabi/include/c++/10.3.1/cmath ****     sin(_Tp __x)
 438:/Library/DaisyToolchain/0.2.0/arm/arm-none-eabi/include/c++/10.3.1/cmath ****     { return __builtin_sin(__x); }
 439:/Library/DaisyToolchain/0.2.0/arm/arm-none-eabi/include/c++/10.3.1/cmath **** 
 440:/Library/DaisyToolchain/0.2.0/arm/arm-none-eabi/include/c++/10.3.1/cmath ****   using ::sinh;
 441:/Library/DaisyToolchain/0.2.0/arm/arm-none-eabi/include/c++/10.3.1/cmath **** 
 442:/Library/DaisyToolchain/0.2.0/arm/arm-none-eabi/include/c++/10.3.1/cmath **** #ifndef __CORRECT_ISO_CPP_MATH_H_PROTO
 443:/Library/DaisyToolchain/0.2.0/arm/arm-none-eabi/include/c++/10.3.1/cmath ****   inline _GLIBCXX_CONSTEXPR float
 444:/Library/DaisyToolchain/0.2.0/arm/arm-none-eabi/include/c++/10.3.1/cmath ****   sinh(float __x)
 445:/Library/DaisyToolchain/0.2.0/arm/arm-none-eabi/include/c++/10.3.1/cmath ****   { return __builtin_sinhf(__x); }
 446:/Library/DaisyToolchain/0.2.0/arm/arm-none-eabi/include/c++/10.3.1/cmath **** 
 447:/Library/DaisyToolchain/0.2.0/arm/arm-none-eabi/include/c++/10.3.1/cmath ****   inline _GLIBCXX_CONSTEXPR long double
 448:/Library/DaisyToolchain/0.2.0/arm/arm-none-eabi/include/c++/10.3.1/cmath ****   sinh(long double __x)
ARM GAS  /var/folders/2p/02m_5p7958535cp2tpgps0400000gn/T//ccbqYDkS.s 			page 44


 449:/Library/DaisyToolchain/0.2.0/arm/arm-none-eabi/include/c++/10.3.1/cmath ****   { return __builtin_sinhl(__x); }
 450:/Library/DaisyToolchain/0.2.0/arm/arm-none-eabi/include/c++/10.3.1/cmath **** #endif
 451:/Library/DaisyToolchain/0.2.0/arm/arm-none-eabi/include/c++/10.3.1/cmath **** 
 452:/Library/DaisyToolchain/0.2.0/arm/arm-none-eabi/include/c++/10.3.1/cmath ****   template<typename _Tp>
 453:/Library/DaisyToolchain/0.2.0/arm/arm-none-eabi/include/c++/10.3.1/cmath ****     inline _GLIBCXX_CONSTEXPR
 454:/Library/DaisyToolchain/0.2.0/arm/arm-none-eabi/include/c++/10.3.1/cmath ****     typename __gnu_cxx::__enable_if<__is_integer<_Tp>::__value, 
 455:/Library/DaisyToolchain/0.2.0/arm/arm-none-eabi/include/c++/10.3.1/cmath ****                                     double>::__type
 456:/Library/DaisyToolchain/0.2.0/arm/arm-none-eabi/include/c++/10.3.1/cmath ****     sinh(_Tp __x)
 457:/Library/DaisyToolchain/0.2.0/arm/arm-none-eabi/include/c++/10.3.1/cmath ****     { return __builtin_sinh(__x); }
 458:/Library/DaisyToolchain/0.2.0/arm/arm-none-eabi/include/c++/10.3.1/cmath **** 
 459:/Library/DaisyToolchain/0.2.0/arm/arm-none-eabi/include/c++/10.3.1/cmath ****   using ::sqrt;
 460:/Library/DaisyToolchain/0.2.0/arm/arm-none-eabi/include/c++/10.3.1/cmath **** 
 461:/Library/DaisyToolchain/0.2.0/arm/arm-none-eabi/include/c++/10.3.1/cmath **** #ifndef __CORRECT_ISO_CPP_MATH_H_PROTO
 462:/Library/DaisyToolchain/0.2.0/arm/arm-none-eabi/include/c++/10.3.1/cmath ****   inline _GLIBCXX_CONSTEXPR float
 463:/Library/DaisyToolchain/0.2.0/arm/arm-none-eabi/include/c++/10.3.1/cmath ****   sqrt(float __x)
 464:/Library/DaisyToolchain/0.2.0/arm/arm-none-eabi/include/c++/10.3.1/cmath ****   { return __builtin_sqrtf(__x); }
 465:/Library/DaisyToolchain/0.2.0/arm/arm-none-eabi/include/c++/10.3.1/cmath **** 
 466:/Library/DaisyToolchain/0.2.0/arm/arm-none-eabi/include/c++/10.3.1/cmath ****   inline _GLIBCXX_CONSTEXPR long double
 467:/Library/DaisyToolchain/0.2.0/arm/arm-none-eabi/include/c++/10.3.1/cmath ****   sqrt(long double __x)
 468:/Library/DaisyToolchain/0.2.0/arm/arm-none-eabi/include/c++/10.3.1/cmath ****   { return __builtin_sqrtl(__x); }
 469:/Library/DaisyToolchain/0.2.0/arm/arm-none-eabi/include/c++/10.3.1/cmath **** #endif
 470:/Library/DaisyToolchain/0.2.0/arm/arm-none-eabi/include/c++/10.3.1/cmath **** 
 471:/Library/DaisyToolchain/0.2.0/arm/arm-none-eabi/include/c++/10.3.1/cmath ****   template<typename _Tp>
 472:/Library/DaisyToolchain/0.2.0/arm/arm-none-eabi/include/c++/10.3.1/cmath ****     inline _GLIBCXX_CONSTEXPR
 473:/Library/DaisyToolchain/0.2.0/arm/arm-none-eabi/include/c++/10.3.1/cmath ****     typename __gnu_cxx::__enable_if<__is_integer<_Tp>::__value, 
 474:/Library/DaisyToolchain/0.2.0/arm/arm-none-eabi/include/c++/10.3.1/cmath ****                                     double>::__type
 475:/Library/DaisyToolchain/0.2.0/arm/arm-none-eabi/include/c++/10.3.1/cmath ****     sqrt(_Tp __x)
 476:/Library/DaisyToolchain/0.2.0/arm/arm-none-eabi/include/c++/10.3.1/cmath ****     { return __builtin_sqrt(__x); }
 477:/Library/DaisyToolchain/0.2.0/arm/arm-none-eabi/include/c++/10.3.1/cmath **** 
 478:/Library/DaisyToolchain/0.2.0/arm/arm-none-eabi/include/c++/10.3.1/cmath ****   using ::tan;
 479:/Library/DaisyToolchain/0.2.0/arm/arm-none-eabi/include/c++/10.3.1/cmath **** 
 480:/Library/DaisyToolchain/0.2.0/arm/arm-none-eabi/include/c++/10.3.1/cmath **** #ifndef __CORRECT_ISO_CPP_MATH_H_PROTO
 481:/Library/DaisyToolchain/0.2.0/arm/arm-none-eabi/include/c++/10.3.1/cmath ****   inline _GLIBCXX_CONSTEXPR float
 482:/Library/DaisyToolchain/0.2.0/arm/arm-none-eabi/include/c++/10.3.1/cmath ****   tan(float __x)
 483:/Library/DaisyToolchain/0.2.0/arm/arm-none-eabi/include/c++/10.3.1/cmath ****   { return __builtin_tanf(__x); }
 484:/Library/DaisyToolchain/0.2.0/arm/arm-none-eabi/include/c++/10.3.1/cmath **** 
 485:/Library/DaisyToolchain/0.2.0/arm/arm-none-eabi/include/c++/10.3.1/cmath ****   inline _GLIBCXX_CONSTEXPR long double
 486:/Library/DaisyToolchain/0.2.0/arm/arm-none-eabi/include/c++/10.3.1/cmath ****   tan(long double __x)
 487:/Library/DaisyToolchain/0.2.0/arm/arm-none-eabi/include/c++/10.3.1/cmath ****   { return __builtin_tanl(__x); }
 488:/Library/DaisyToolchain/0.2.0/arm/arm-none-eabi/include/c++/10.3.1/cmath **** #endif
 489:/Library/DaisyToolchain/0.2.0/arm/arm-none-eabi/include/c++/10.3.1/cmath **** 
 490:/Library/DaisyToolchain/0.2.0/arm/arm-none-eabi/include/c++/10.3.1/cmath ****   template<typename _Tp>
 491:/Library/DaisyToolchain/0.2.0/arm/arm-none-eabi/include/c++/10.3.1/cmath ****     inline _GLIBCXX_CONSTEXPR
 492:/Library/DaisyToolchain/0.2.0/arm/arm-none-eabi/include/c++/10.3.1/cmath ****     typename __gnu_cxx::__enable_if<__is_integer<_Tp>::__value, 
 493:/Library/DaisyToolchain/0.2.0/arm/arm-none-eabi/include/c++/10.3.1/cmath ****                                     double>::__type
 494:/Library/DaisyToolchain/0.2.0/arm/arm-none-eabi/include/c++/10.3.1/cmath ****     tan(_Tp __x)
 495:/Library/DaisyToolchain/0.2.0/arm/arm-none-eabi/include/c++/10.3.1/cmath ****     { return __builtin_tan(__x); }
 496:/Library/DaisyToolchain/0.2.0/arm/arm-none-eabi/include/c++/10.3.1/cmath **** 
 497:/Library/DaisyToolchain/0.2.0/arm/arm-none-eabi/include/c++/10.3.1/cmath ****   using ::tanh;
 498:/Library/DaisyToolchain/0.2.0/arm/arm-none-eabi/include/c++/10.3.1/cmath **** 
 499:/Library/DaisyToolchain/0.2.0/arm/arm-none-eabi/include/c++/10.3.1/cmath **** #ifndef __CORRECT_ISO_CPP_MATH_H_PROTO
 500:/Library/DaisyToolchain/0.2.0/arm/arm-none-eabi/include/c++/10.3.1/cmath ****   inline _GLIBCXX_CONSTEXPR float
 501:/Library/DaisyToolchain/0.2.0/arm/arm-none-eabi/include/c++/10.3.1/cmath ****   tanh(float __x)
 502:/Library/DaisyToolchain/0.2.0/arm/arm-none-eabi/include/c++/10.3.1/cmath ****   { return __builtin_tanhf(__x); }
 503:/Library/DaisyToolchain/0.2.0/arm/arm-none-eabi/include/c++/10.3.1/cmath **** 
 504:/Library/DaisyToolchain/0.2.0/arm/arm-none-eabi/include/c++/10.3.1/cmath ****   inline _GLIBCXX_CONSTEXPR long double
 505:/Library/DaisyToolchain/0.2.0/arm/arm-none-eabi/include/c++/10.3.1/cmath ****   tanh(long double __x)
ARM GAS  /var/folders/2p/02m_5p7958535cp2tpgps0400000gn/T//ccbqYDkS.s 			page 45


 506:/Library/DaisyToolchain/0.2.0/arm/arm-none-eabi/include/c++/10.3.1/cmath ****   { return __builtin_tanhl(__x); }
 507:/Library/DaisyToolchain/0.2.0/arm/arm-none-eabi/include/c++/10.3.1/cmath **** #endif
 508:/Library/DaisyToolchain/0.2.0/arm/arm-none-eabi/include/c++/10.3.1/cmath **** 
 509:/Library/DaisyToolchain/0.2.0/arm/arm-none-eabi/include/c++/10.3.1/cmath ****   template<typename _Tp>
 510:/Library/DaisyToolchain/0.2.0/arm/arm-none-eabi/include/c++/10.3.1/cmath ****     inline _GLIBCXX_CONSTEXPR
 511:/Library/DaisyToolchain/0.2.0/arm/arm-none-eabi/include/c++/10.3.1/cmath ****     typename __gnu_cxx::__enable_if<__is_integer<_Tp>::__value, 
 512:/Library/DaisyToolchain/0.2.0/arm/arm-none-eabi/include/c++/10.3.1/cmath ****                                     double>::__type
 513:/Library/DaisyToolchain/0.2.0/arm/arm-none-eabi/include/c++/10.3.1/cmath ****     tanh(_Tp __x)
 514:/Library/DaisyToolchain/0.2.0/arm/arm-none-eabi/include/c++/10.3.1/cmath ****     { return __builtin_tanh(__x); }
 515:/Library/DaisyToolchain/0.2.0/arm/arm-none-eabi/include/c++/10.3.1/cmath **** 
 516:/Library/DaisyToolchain/0.2.0/arm/arm-none-eabi/include/c++/10.3.1/cmath **** #if _GLIBCXX_USE_C99_MATH
 517:/Library/DaisyToolchain/0.2.0/arm/arm-none-eabi/include/c++/10.3.1/cmath **** #if !_GLIBCXX_USE_C99_FP_MACROS_DYNAMIC
 518:/Library/DaisyToolchain/0.2.0/arm/arm-none-eabi/include/c++/10.3.1/cmath **** 
 519:/Library/DaisyToolchain/0.2.0/arm/arm-none-eabi/include/c++/10.3.1/cmath **** // These are possible macros imported from C99-land.
 520:/Library/DaisyToolchain/0.2.0/arm/arm-none-eabi/include/c++/10.3.1/cmath **** #undef fpclassify
 521:/Library/DaisyToolchain/0.2.0/arm/arm-none-eabi/include/c++/10.3.1/cmath **** #undef isfinite
 522:/Library/DaisyToolchain/0.2.0/arm/arm-none-eabi/include/c++/10.3.1/cmath **** #undef isinf
 523:/Library/DaisyToolchain/0.2.0/arm/arm-none-eabi/include/c++/10.3.1/cmath **** #undef isnan
 524:/Library/DaisyToolchain/0.2.0/arm/arm-none-eabi/include/c++/10.3.1/cmath **** #undef isnormal
 525:/Library/DaisyToolchain/0.2.0/arm/arm-none-eabi/include/c++/10.3.1/cmath **** #undef signbit
 526:/Library/DaisyToolchain/0.2.0/arm/arm-none-eabi/include/c++/10.3.1/cmath **** #undef isgreater
 527:/Library/DaisyToolchain/0.2.0/arm/arm-none-eabi/include/c++/10.3.1/cmath **** #undef isgreaterequal
 528:/Library/DaisyToolchain/0.2.0/arm/arm-none-eabi/include/c++/10.3.1/cmath **** #undef isless
 529:/Library/DaisyToolchain/0.2.0/arm/arm-none-eabi/include/c++/10.3.1/cmath **** #undef islessequal
 530:/Library/DaisyToolchain/0.2.0/arm/arm-none-eabi/include/c++/10.3.1/cmath **** #undef islessgreater
 531:/Library/DaisyToolchain/0.2.0/arm/arm-none-eabi/include/c++/10.3.1/cmath **** #undef isunordered
 532:/Library/DaisyToolchain/0.2.0/arm/arm-none-eabi/include/c++/10.3.1/cmath **** 
 533:/Library/DaisyToolchain/0.2.0/arm/arm-none-eabi/include/c++/10.3.1/cmath **** #if __cplusplus >= 201103L
 534:/Library/DaisyToolchain/0.2.0/arm/arm-none-eabi/include/c++/10.3.1/cmath **** 
 535:/Library/DaisyToolchain/0.2.0/arm/arm-none-eabi/include/c++/10.3.1/cmath **** #ifndef __CORRECT_ISO_CPP11_MATH_H_PROTO_FP
 536:/Library/DaisyToolchain/0.2.0/arm/arm-none-eabi/include/c++/10.3.1/cmath ****   constexpr int
 537:/Library/DaisyToolchain/0.2.0/arm/arm-none-eabi/include/c++/10.3.1/cmath ****   fpclassify(float __x)
 538:/Library/DaisyToolchain/0.2.0/arm/arm-none-eabi/include/c++/10.3.1/cmath ****   { return __builtin_fpclassify(FP_NAN, FP_INFINITE, FP_NORMAL,
 539:/Library/DaisyToolchain/0.2.0/arm/arm-none-eabi/include/c++/10.3.1/cmath **** 				FP_SUBNORMAL, FP_ZERO, __x); }
 540:/Library/DaisyToolchain/0.2.0/arm/arm-none-eabi/include/c++/10.3.1/cmath **** 
 541:/Library/DaisyToolchain/0.2.0/arm/arm-none-eabi/include/c++/10.3.1/cmath ****   constexpr int
 542:/Library/DaisyToolchain/0.2.0/arm/arm-none-eabi/include/c++/10.3.1/cmath ****   fpclassify(double __x)
 543:/Library/DaisyToolchain/0.2.0/arm/arm-none-eabi/include/c++/10.3.1/cmath ****   { return __builtin_fpclassify(FP_NAN, FP_INFINITE, FP_NORMAL,
 544:/Library/DaisyToolchain/0.2.0/arm/arm-none-eabi/include/c++/10.3.1/cmath **** 				FP_SUBNORMAL, FP_ZERO, __x); }
 545:/Library/DaisyToolchain/0.2.0/arm/arm-none-eabi/include/c++/10.3.1/cmath **** 
 546:/Library/DaisyToolchain/0.2.0/arm/arm-none-eabi/include/c++/10.3.1/cmath ****   constexpr int
 547:/Library/DaisyToolchain/0.2.0/arm/arm-none-eabi/include/c++/10.3.1/cmath ****   fpclassify(long double __x)
 548:/Library/DaisyToolchain/0.2.0/arm/arm-none-eabi/include/c++/10.3.1/cmath ****   { return __builtin_fpclassify(FP_NAN, FP_INFINITE, FP_NORMAL,
 549:/Library/DaisyToolchain/0.2.0/arm/arm-none-eabi/include/c++/10.3.1/cmath **** 				FP_SUBNORMAL, FP_ZERO, __x); }
 550:/Library/DaisyToolchain/0.2.0/arm/arm-none-eabi/include/c++/10.3.1/cmath **** #endif
 551:/Library/DaisyToolchain/0.2.0/arm/arm-none-eabi/include/c++/10.3.1/cmath **** 
 552:/Library/DaisyToolchain/0.2.0/arm/arm-none-eabi/include/c++/10.3.1/cmath **** #ifndef __CORRECT_ISO_CPP11_MATH_H_PROTO_INT
 553:/Library/DaisyToolchain/0.2.0/arm/arm-none-eabi/include/c++/10.3.1/cmath ****   template<typename _Tp>
 554:/Library/DaisyToolchain/0.2.0/arm/arm-none-eabi/include/c++/10.3.1/cmath ****     constexpr typename __gnu_cxx::__enable_if<__is_integer<_Tp>::__value,
 555:/Library/DaisyToolchain/0.2.0/arm/arm-none-eabi/include/c++/10.3.1/cmath ****                                               int>::__type
 556:/Library/DaisyToolchain/0.2.0/arm/arm-none-eabi/include/c++/10.3.1/cmath ****     fpclassify(_Tp __x)
 557:/Library/DaisyToolchain/0.2.0/arm/arm-none-eabi/include/c++/10.3.1/cmath ****     { return __x != 0 ? FP_NORMAL : FP_ZERO; }
 558:/Library/DaisyToolchain/0.2.0/arm/arm-none-eabi/include/c++/10.3.1/cmath **** #endif
 559:/Library/DaisyToolchain/0.2.0/arm/arm-none-eabi/include/c++/10.3.1/cmath **** 
 560:/Library/DaisyToolchain/0.2.0/arm/arm-none-eabi/include/c++/10.3.1/cmath **** #ifndef __CORRECT_ISO_CPP11_MATH_H_PROTO_FP
 561:/Library/DaisyToolchain/0.2.0/arm/arm-none-eabi/include/c++/10.3.1/cmath ****   constexpr bool
 562:/Library/DaisyToolchain/0.2.0/arm/arm-none-eabi/include/c++/10.3.1/cmath ****   isfinite(float __x)
ARM GAS  /var/folders/2p/02m_5p7958535cp2tpgps0400000gn/T//ccbqYDkS.s 			page 46


 563:/Library/DaisyToolchain/0.2.0/arm/arm-none-eabi/include/c++/10.3.1/cmath ****   { return __builtin_isfinite(__x); }
 564:/Library/DaisyToolchain/0.2.0/arm/arm-none-eabi/include/c++/10.3.1/cmath **** 
 565:/Library/DaisyToolchain/0.2.0/arm/arm-none-eabi/include/c++/10.3.1/cmath ****   constexpr bool
 566:/Library/DaisyToolchain/0.2.0/arm/arm-none-eabi/include/c++/10.3.1/cmath ****   isfinite(double __x)
 567:/Library/DaisyToolchain/0.2.0/arm/arm-none-eabi/include/c++/10.3.1/cmath ****   { return __builtin_isfinite(__x); }
 568:/Library/DaisyToolchain/0.2.0/arm/arm-none-eabi/include/c++/10.3.1/cmath **** 
 569:/Library/DaisyToolchain/0.2.0/arm/arm-none-eabi/include/c++/10.3.1/cmath ****   constexpr bool
 570:/Library/DaisyToolchain/0.2.0/arm/arm-none-eabi/include/c++/10.3.1/cmath ****   isfinite(long double __x)
 571:/Library/DaisyToolchain/0.2.0/arm/arm-none-eabi/include/c++/10.3.1/cmath ****   { return __builtin_isfinite(__x); }
 572:/Library/DaisyToolchain/0.2.0/arm/arm-none-eabi/include/c++/10.3.1/cmath **** #endif
 573:/Library/DaisyToolchain/0.2.0/arm/arm-none-eabi/include/c++/10.3.1/cmath **** 
 574:/Library/DaisyToolchain/0.2.0/arm/arm-none-eabi/include/c++/10.3.1/cmath **** #ifndef __CORRECT_ISO_CPP11_MATH_H_PROTO_INT
 575:/Library/DaisyToolchain/0.2.0/arm/arm-none-eabi/include/c++/10.3.1/cmath ****   template<typename _Tp>
 576:/Library/DaisyToolchain/0.2.0/arm/arm-none-eabi/include/c++/10.3.1/cmath ****     constexpr typename __gnu_cxx::__enable_if<__is_integer<_Tp>::__value,
 577:/Library/DaisyToolchain/0.2.0/arm/arm-none-eabi/include/c++/10.3.1/cmath ****                                               bool>::__type
 578:/Library/DaisyToolchain/0.2.0/arm/arm-none-eabi/include/c++/10.3.1/cmath ****     isfinite(_Tp __x)
 579:/Library/DaisyToolchain/0.2.0/arm/arm-none-eabi/include/c++/10.3.1/cmath ****     { return true; }
 580:/Library/DaisyToolchain/0.2.0/arm/arm-none-eabi/include/c++/10.3.1/cmath **** #endif
 581:/Library/DaisyToolchain/0.2.0/arm/arm-none-eabi/include/c++/10.3.1/cmath **** 
 582:/Library/DaisyToolchain/0.2.0/arm/arm-none-eabi/include/c++/10.3.1/cmath **** #ifndef __CORRECT_ISO_CPP11_MATH_H_PROTO_FP
 583:/Library/DaisyToolchain/0.2.0/arm/arm-none-eabi/include/c++/10.3.1/cmath ****   constexpr bool
 584:/Library/DaisyToolchain/0.2.0/arm/arm-none-eabi/include/c++/10.3.1/cmath ****   isinf(float __x)
 585:/Library/DaisyToolchain/0.2.0/arm/arm-none-eabi/include/c++/10.3.1/cmath ****   { return __builtin_isinf(__x); }
 586:/Library/DaisyToolchain/0.2.0/arm/arm-none-eabi/include/c++/10.3.1/cmath **** 
 587:/Library/DaisyToolchain/0.2.0/arm/arm-none-eabi/include/c++/10.3.1/cmath **** #if _GLIBCXX_HAVE_OBSOLETE_ISINF \
 588:/Library/DaisyToolchain/0.2.0/arm/arm-none-eabi/include/c++/10.3.1/cmath ****   && !_GLIBCXX_NO_OBSOLETE_ISINF_ISNAN_DYNAMIC
 589:/Library/DaisyToolchain/0.2.0/arm/arm-none-eabi/include/c++/10.3.1/cmath ****   using ::isinf;
 590:/Library/DaisyToolchain/0.2.0/arm/arm-none-eabi/include/c++/10.3.1/cmath **** #else
 591:/Library/DaisyToolchain/0.2.0/arm/arm-none-eabi/include/c++/10.3.1/cmath ****   constexpr bool
 592:/Library/DaisyToolchain/0.2.0/arm/arm-none-eabi/include/c++/10.3.1/cmath ****   isinf(double __x)
 593:/Library/DaisyToolchain/0.2.0/arm/arm-none-eabi/include/c++/10.3.1/cmath ****   { return __builtin_isinf(__x); }
 594:/Library/DaisyToolchain/0.2.0/arm/arm-none-eabi/include/c++/10.3.1/cmath **** #endif
 595:/Library/DaisyToolchain/0.2.0/arm/arm-none-eabi/include/c++/10.3.1/cmath **** 
 596:/Library/DaisyToolchain/0.2.0/arm/arm-none-eabi/include/c++/10.3.1/cmath ****   constexpr bool
 597:/Library/DaisyToolchain/0.2.0/arm/arm-none-eabi/include/c++/10.3.1/cmath ****   isinf(long double __x)
 598:/Library/DaisyToolchain/0.2.0/arm/arm-none-eabi/include/c++/10.3.1/cmath ****   { return __builtin_isinf(__x); }
 599:/Library/DaisyToolchain/0.2.0/arm/arm-none-eabi/include/c++/10.3.1/cmath **** #endif
 600:/Library/DaisyToolchain/0.2.0/arm/arm-none-eabi/include/c++/10.3.1/cmath **** 
 601:/Library/DaisyToolchain/0.2.0/arm/arm-none-eabi/include/c++/10.3.1/cmath **** #ifndef __CORRECT_ISO_CPP11_MATH_H_PROTO_INT
 602:/Library/DaisyToolchain/0.2.0/arm/arm-none-eabi/include/c++/10.3.1/cmath ****   template<typename _Tp>
 603:/Library/DaisyToolchain/0.2.0/arm/arm-none-eabi/include/c++/10.3.1/cmath ****     constexpr typename __gnu_cxx::__enable_if<__is_integer<_Tp>::__value,
 604:/Library/DaisyToolchain/0.2.0/arm/arm-none-eabi/include/c++/10.3.1/cmath ****                                               bool>::__type
 605:/Library/DaisyToolchain/0.2.0/arm/arm-none-eabi/include/c++/10.3.1/cmath ****     isinf(_Tp __x)
 606:/Library/DaisyToolchain/0.2.0/arm/arm-none-eabi/include/c++/10.3.1/cmath ****     { return false; }
 607:/Library/DaisyToolchain/0.2.0/arm/arm-none-eabi/include/c++/10.3.1/cmath **** #endif
 608:/Library/DaisyToolchain/0.2.0/arm/arm-none-eabi/include/c++/10.3.1/cmath **** 
 609:/Library/DaisyToolchain/0.2.0/arm/arm-none-eabi/include/c++/10.3.1/cmath **** #ifndef __CORRECT_ISO_CPP11_MATH_H_PROTO_FP
 610:/Library/DaisyToolchain/0.2.0/arm/arm-none-eabi/include/c++/10.3.1/cmath ****   constexpr bool
 611:/Library/DaisyToolchain/0.2.0/arm/arm-none-eabi/include/c++/10.3.1/cmath ****   isnan(float __x)
 612:/Library/DaisyToolchain/0.2.0/arm/arm-none-eabi/include/c++/10.3.1/cmath ****   { return __builtin_isnan(__x); }
 613:/Library/DaisyToolchain/0.2.0/arm/arm-none-eabi/include/c++/10.3.1/cmath **** 
 614:/Library/DaisyToolchain/0.2.0/arm/arm-none-eabi/include/c++/10.3.1/cmath **** #if _GLIBCXX_HAVE_OBSOLETE_ISNAN \
 615:/Library/DaisyToolchain/0.2.0/arm/arm-none-eabi/include/c++/10.3.1/cmath ****   && !_GLIBCXX_NO_OBSOLETE_ISINF_ISNAN_DYNAMIC
 616:/Library/DaisyToolchain/0.2.0/arm/arm-none-eabi/include/c++/10.3.1/cmath ****   using ::isnan;
 617:/Library/DaisyToolchain/0.2.0/arm/arm-none-eabi/include/c++/10.3.1/cmath **** #else
 618:/Library/DaisyToolchain/0.2.0/arm/arm-none-eabi/include/c++/10.3.1/cmath ****   constexpr bool
 619:/Library/DaisyToolchain/0.2.0/arm/arm-none-eabi/include/c++/10.3.1/cmath ****   isnan(double __x)
ARM GAS  /var/folders/2p/02m_5p7958535cp2tpgps0400000gn/T//ccbqYDkS.s 			page 47


 620:/Library/DaisyToolchain/0.2.0/arm/arm-none-eabi/include/c++/10.3.1/cmath ****   { return __builtin_isnan(__x); }
 621:/Library/DaisyToolchain/0.2.0/arm/arm-none-eabi/include/c++/10.3.1/cmath **** #endif
 622:/Library/DaisyToolchain/0.2.0/arm/arm-none-eabi/include/c++/10.3.1/cmath **** 
 623:/Library/DaisyToolchain/0.2.0/arm/arm-none-eabi/include/c++/10.3.1/cmath ****   constexpr bool
 624:/Library/DaisyToolchain/0.2.0/arm/arm-none-eabi/include/c++/10.3.1/cmath ****   isnan(long double __x)
 625:/Library/DaisyToolchain/0.2.0/arm/arm-none-eabi/include/c++/10.3.1/cmath ****   { return __builtin_isnan(__x); }
 626:/Library/DaisyToolchain/0.2.0/arm/arm-none-eabi/include/c++/10.3.1/cmath **** #endif
 627:/Library/DaisyToolchain/0.2.0/arm/arm-none-eabi/include/c++/10.3.1/cmath **** 
 628:/Library/DaisyToolchain/0.2.0/arm/arm-none-eabi/include/c++/10.3.1/cmath **** #ifndef __CORRECT_ISO_CPP11_MATH_H_PROTO_INT
 629:/Library/DaisyToolchain/0.2.0/arm/arm-none-eabi/include/c++/10.3.1/cmath ****   template<typename _Tp>
 630:/Library/DaisyToolchain/0.2.0/arm/arm-none-eabi/include/c++/10.3.1/cmath ****     constexpr typename __gnu_cxx::__enable_if<__is_integer<_Tp>::__value,
 631:/Library/DaisyToolchain/0.2.0/arm/arm-none-eabi/include/c++/10.3.1/cmath ****                                               bool>::__type
 632:/Library/DaisyToolchain/0.2.0/arm/arm-none-eabi/include/c++/10.3.1/cmath ****     isnan(_Tp __x)
 633:/Library/DaisyToolchain/0.2.0/arm/arm-none-eabi/include/c++/10.3.1/cmath ****     { return false; }
 634:/Library/DaisyToolchain/0.2.0/arm/arm-none-eabi/include/c++/10.3.1/cmath **** #endif
 635:/Library/DaisyToolchain/0.2.0/arm/arm-none-eabi/include/c++/10.3.1/cmath **** 
 636:/Library/DaisyToolchain/0.2.0/arm/arm-none-eabi/include/c++/10.3.1/cmath **** #ifndef __CORRECT_ISO_CPP11_MATH_H_PROTO_FP
 637:/Library/DaisyToolchain/0.2.0/arm/arm-none-eabi/include/c++/10.3.1/cmath ****   constexpr bool
 638:/Library/DaisyToolchain/0.2.0/arm/arm-none-eabi/include/c++/10.3.1/cmath ****   isnormal(float __x)
 639:/Library/DaisyToolchain/0.2.0/arm/arm-none-eabi/include/c++/10.3.1/cmath ****   { return __builtin_isnormal(__x); }
 640:/Library/DaisyToolchain/0.2.0/arm/arm-none-eabi/include/c++/10.3.1/cmath **** 
 641:/Library/DaisyToolchain/0.2.0/arm/arm-none-eabi/include/c++/10.3.1/cmath ****   constexpr bool
 642:/Library/DaisyToolchain/0.2.0/arm/arm-none-eabi/include/c++/10.3.1/cmath ****   isnormal(double __x)
 643:/Library/DaisyToolchain/0.2.0/arm/arm-none-eabi/include/c++/10.3.1/cmath ****   { return __builtin_isnormal(__x); }
 644:/Library/DaisyToolchain/0.2.0/arm/arm-none-eabi/include/c++/10.3.1/cmath **** 
 645:/Library/DaisyToolchain/0.2.0/arm/arm-none-eabi/include/c++/10.3.1/cmath ****   constexpr bool
 646:/Library/DaisyToolchain/0.2.0/arm/arm-none-eabi/include/c++/10.3.1/cmath ****   isnormal(long double __x)
 647:/Library/DaisyToolchain/0.2.0/arm/arm-none-eabi/include/c++/10.3.1/cmath ****   { return __builtin_isnormal(__x); }
 648:/Library/DaisyToolchain/0.2.0/arm/arm-none-eabi/include/c++/10.3.1/cmath **** #endif
 649:/Library/DaisyToolchain/0.2.0/arm/arm-none-eabi/include/c++/10.3.1/cmath **** 
 650:/Library/DaisyToolchain/0.2.0/arm/arm-none-eabi/include/c++/10.3.1/cmath **** #ifndef __CORRECT_ISO_CPP11_MATH_H_PROTO_INT
 651:/Library/DaisyToolchain/0.2.0/arm/arm-none-eabi/include/c++/10.3.1/cmath ****   template<typename _Tp>
 652:/Library/DaisyToolchain/0.2.0/arm/arm-none-eabi/include/c++/10.3.1/cmath ****     constexpr typename __gnu_cxx::__enable_if<__is_integer<_Tp>::__value,
 653:/Library/DaisyToolchain/0.2.0/arm/arm-none-eabi/include/c++/10.3.1/cmath ****                                               bool>::__type
 654:/Library/DaisyToolchain/0.2.0/arm/arm-none-eabi/include/c++/10.3.1/cmath ****     isnormal(_Tp __x)
 655:/Library/DaisyToolchain/0.2.0/arm/arm-none-eabi/include/c++/10.3.1/cmath ****     { return __x != 0 ? true : false; }
 656:/Library/DaisyToolchain/0.2.0/arm/arm-none-eabi/include/c++/10.3.1/cmath **** #endif
 657:/Library/DaisyToolchain/0.2.0/arm/arm-none-eabi/include/c++/10.3.1/cmath **** 
 658:/Library/DaisyToolchain/0.2.0/arm/arm-none-eabi/include/c++/10.3.1/cmath **** #ifndef __CORRECT_ISO_CPP11_MATH_H_PROTO_FP
 659:/Library/DaisyToolchain/0.2.0/arm/arm-none-eabi/include/c++/10.3.1/cmath ****   // Note: middle-end/36757 is fixed, __builtin_signbit is type-generic.
 660:/Library/DaisyToolchain/0.2.0/arm/arm-none-eabi/include/c++/10.3.1/cmath ****   constexpr bool
 661:/Library/DaisyToolchain/0.2.0/arm/arm-none-eabi/include/c++/10.3.1/cmath ****   signbit(float __x)
 662:/Library/DaisyToolchain/0.2.0/arm/arm-none-eabi/include/c++/10.3.1/cmath ****   { return __builtin_signbit(__x); }
 663:/Library/DaisyToolchain/0.2.0/arm/arm-none-eabi/include/c++/10.3.1/cmath **** 
 664:/Library/DaisyToolchain/0.2.0/arm/arm-none-eabi/include/c++/10.3.1/cmath ****   constexpr bool
 665:/Library/DaisyToolchain/0.2.0/arm/arm-none-eabi/include/c++/10.3.1/cmath ****   signbit(double __x)
 666:/Library/DaisyToolchain/0.2.0/arm/arm-none-eabi/include/c++/10.3.1/cmath ****   { return __builtin_signbit(__x); }
 667:/Library/DaisyToolchain/0.2.0/arm/arm-none-eabi/include/c++/10.3.1/cmath **** 
 668:/Library/DaisyToolchain/0.2.0/arm/arm-none-eabi/include/c++/10.3.1/cmath ****   constexpr bool
 669:/Library/DaisyToolchain/0.2.0/arm/arm-none-eabi/include/c++/10.3.1/cmath ****   signbit(long double __x)
 670:/Library/DaisyToolchain/0.2.0/arm/arm-none-eabi/include/c++/10.3.1/cmath ****   { return __builtin_signbit(__x); }
 671:/Library/DaisyToolchain/0.2.0/arm/arm-none-eabi/include/c++/10.3.1/cmath **** #endif
 672:/Library/DaisyToolchain/0.2.0/arm/arm-none-eabi/include/c++/10.3.1/cmath **** 
 673:/Library/DaisyToolchain/0.2.0/arm/arm-none-eabi/include/c++/10.3.1/cmath **** #ifndef __CORRECT_ISO_CPP11_MATH_H_PROTO_INT
 674:/Library/DaisyToolchain/0.2.0/arm/arm-none-eabi/include/c++/10.3.1/cmath ****   template<typename _Tp>
 675:/Library/DaisyToolchain/0.2.0/arm/arm-none-eabi/include/c++/10.3.1/cmath ****     constexpr typename __gnu_cxx::__enable_if<__is_integer<_Tp>::__value,
 676:/Library/DaisyToolchain/0.2.0/arm/arm-none-eabi/include/c++/10.3.1/cmath ****                                               bool>::__type
ARM GAS  /var/folders/2p/02m_5p7958535cp2tpgps0400000gn/T//ccbqYDkS.s 			page 48


 677:/Library/DaisyToolchain/0.2.0/arm/arm-none-eabi/include/c++/10.3.1/cmath ****     signbit(_Tp __x)
 678:/Library/DaisyToolchain/0.2.0/arm/arm-none-eabi/include/c++/10.3.1/cmath ****     { return __x < 0 ? true : false; }
 679:/Library/DaisyToolchain/0.2.0/arm/arm-none-eabi/include/c++/10.3.1/cmath **** #endif
 680:/Library/DaisyToolchain/0.2.0/arm/arm-none-eabi/include/c++/10.3.1/cmath **** 
 681:/Library/DaisyToolchain/0.2.0/arm/arm-none-eabi/include/c++/10.3.1/cmath **** #ifndef __CORRECT_ISO_CPP11_MATH_H_PROTO_FP
 682:/Library/DaisyToolchain/0.2.0/arm/arm-none-eabi/include/c++/10.3.1/cmath ****   constexpr bool
 683:/Library/DaisyToolchain/0.2.0/arm/arm-none-eabi/include/c++/10.3.1/cmath ****   isgreater(float __x, float __y)
 684:/Library/DaisyToolchain/0.2.0/arm/arm-none-eabi/include/c++/10.3.1/cmath ****   { return __builtin_isgreater(__x, __y); }
 685:/Library/DaisyToolchain/0.2.0/arm/arm-none-eabi/include/c++/10.3.1/cmath **** 
 686:/Library/DaisyToolchain/0.2.0/arm/arm-none-eabi/include/c++/10.3.1/cmath ****   constexpr bool
 687:/Library/DaisyToolchain/0.2.0/arm/arm-none-eabi/include/c++/10.3.1/cmath ****   isgreater(double __x, double __y)
 688:/Library/DaisyToolchain/0.2.0/arm/arm-none-eabi/include/c++/10.3.1/cmath ****   { return __builtin_isgreater(__x, __y); }
 689:/Library/DaisyToolchain/0.2.0/arm/arm-none-eabi/include/c++/10.3.1/cmath **** 
 690:/Library/DaisyToolchain/0.2.0/arm/arm-none-eabi/include/c++/10.3.1/cmath ****   constexpr bool
 691:/Library/DaisyToolchain/0.2.0/arm/arm-none-eabi/include/c++/10.3.1/cmath ****   isgreater(long double __x, long double __y)
 692:/Library/DaisyToolchain/0.2.0/arm/arm-none-eabi/include/c++/10.3.1/cmath ****   { return __builtin_isgreater(__x, __y); }
 693:/Library/DaisyToolchain/0.2.0/arm/arm-none-eabi/include/c++/10.3.1/cmath **** #endif
 694:/Library/DaisyToolchain/0.2.0/arm/arm-none-eabi/include/c++/10.3.1/cmath **** 
 695:/Library/DaisyToolchain/0.2.0/arm/arm-none-eabi/include/c++/10.3.1/cmath **** #ifndef __CORRECT_ISO_CPP11_MATH_H_PROTO_INT
 696:/Library/DaisyToolchain/0.2.0/arm/arm-none-eabi/include/c++/10.3.1/cmath ****   template<typename _Tp, typename _Up>
 697:/Library/DaisyToolchain/0.2.0/arm/arm-none-eabi/include/c++/10.3.1/cmath ****     constexpr typename
 698:/Library/DaisyToolchain/0.2.0/arm/arm-none-eabi/include/c++/10.3.1/cmath ****     __gnu_cxx::__enable_if<(__is_arithmetic<_Tp>::__value
 699:/Library/DaisyToolchain/0.2.0/arm/arm-none-eabi/include/c++/10.3.1/cmath **** 			    && __is_arithmetic<_Up>::__value), bool>::__type
 700:/Library/DaisyToolchain/0.2.0/arm/arm-none-eabi/include/c++/10.3.1/cmath ****     isgreater(_Tp __x, _Up __y)
 701:/Library/DaisyToolchain/0.2.0/arm/arm-none-eabi/include/c++/10.3.1/cmath ****     {
 702:/Library/DaisyToolchain/0.2.0/arm/arm-none-eabi/include/c++/10.3.1/cmath ****       typedef typename __gnu_cxx::__promote_2<_Tp, _Up>::__type __type;
 703:/Library/DaisyToolchain/0.2.0/arm/arm-none-eabi/include/c++/10.3.1/cmath ****       return __builtin_isgreater(__type(__x), __type(__y));
 704:/Library/DaisyToolchain/0.2.0/arm/arm-none-eabi/include/c++/10.3.1/cmath ****     }
 705:/Library/DaisyToolchain/0.2.0/arm/arm-none-eabi/include/c++/10.3.1/cmath **** #endif
 706:/Library/DaisyToolchain/0.2.0/arm/arm-none-eabi/include/c++/10.3.1/cmath **** 
 707:/Library/DaisyToolchain/0.2.0/arm/arm-none-eabi/include/c++/10.3.1/cmath **** #ifndef __CORRECT_ISO_CPP11_MATH_H_PROTO_FP
 708:/Library/DaisyToolchain/0.2.0/arm/arm-none-eabi/include/c++/10.3.1/cmath ****   constexpr bool
 709:/Library/DaisyToolchain/0.2.0/arm/arm-none-eabi/include/c++/10.3.1/cmath ****   isgreaterequal(float __x, float __y)
 710:/Library/DaisyToolchain/0.2.0/arm/arm-none-eabi/include/c++/10.3.1/cmath ****   { return __builtin_isgreaterequal(__x, __y); }
 711:/Library/DaisyToolchain/0.2.0/arm/arm-none-eabi/include/c++/10.3.1/cmath **** 
 712:/Library/DaisyToolchain/0.2.0/arm/arm-none-eabi/include/c++/10.3.1/cmath ****   constexpr bool
 713:/Library/DaisyToolchain/0.2.0/arm/arm-none-eabi/include/c++/10.3.1/cmath ****   isgreaterequal(double __x, double __y)
 714:/Library/DaisyToolchain/0.2.0/arm/arm-none-eabi/include/c++/10.3.1/cmath ****   { return __builtin_isgreaterequal(__x, __y); }
 715:/Library/DaisyToolchain/0.2.0/arm/arm-none-eabi/include/c++/10.3.1/cmath **** 
 716:/Library/DaisyToolchain/0.2.0/arm/arm-none-eabi/include/c++/10.3.1/cmath ****   constexpr bool
 717:/Library/DaisyToolchain/0.2.0/arm/arm-none-eabi/include/c++/10.3.1/cmath ****   isgreaterequal(long double __x, long double __y)
 718:/Library/DaisyToolchain/0.2.0/arm/arm-none-eabi/include/c++/10.3.1/cmath ****   { return __builtin_isgreaterequal(__x, __y); }
 719:/Library/DaisyToolchain/0.2.0/arm/arm-none-eabi/include/c++/10.3.1/cmath **** #endif
 720:/Library/DaisyToolchain/0.2.0/arm/arm-none-eabi/include/c++/10.3.1/cmath **** 
 721:/Library/DaisyToolchain/0.2.0/arm/arm-none-eabi/include/c++/10.3.1/cmath **** #ifndef __CORRECT_ISO_CPP11_MATH_H_PROTO_INT
 722:/Library/DaisyToolchain/0.2.0/arm/arm-none-eabi/include/c++/10.3.1/cmath ****   template<typename _Tp, typename _Up>
 723:/Library/DaisyToolchain/0.2.0/arm/arm-none-eabi/include/c++/10.3.1/cmath ****     constexpr typename
 724:/Library/DaisyToolchain/0.2.0/arm/arm-none-eabi/include/c++/10.3.1/cmath ****     __gnu_cxx::__enable_if<(__is_arithmetic<_Tp>::__value
 725:/Library/DaisyToolchain/0.2.0/arm/arm-none-eabi/include/c++/10.3.1/cmath **** 			    && __is_arithmetic<_Up>::__value), bool>::__type
 726:/Library/DaisyToolchain/0.2.0/arm/arm-none-eabi/include/c++/10.3.1/cmath ****     isgreaterequal(_Tp __x, _Up __y)
 727:/Library/DaisyToolchain/0.2.0/arm/arm-none-eabi/include/c++/10.3.1/cmath ****     {
 728:/Library/DaisyToolchain/0.2.0/arm/arm-none-eabi/include/c++/10.3.1/cmath ****       typedef typename __gnu_cxx::__promote_2<_Tp, _Up>::__type __type;
 729:/Library/DaisyToolchain/0.2.0/arm/arm-none-eabi/include/c++/10.3.1/cmath ****       return __builtin_isgreaterequal(__type(__x), __type(__y));
 730:/Library/DaisyToolchain/0.2.0/arm/arm-none-eabi/include/c++/10.3.1/cmath ****     }
 731:/Library/DaisyToolchain/0.2.0/arm/arm-none-eabi/include/c++/10.3.1/cmath **** #endif
 732:/Library/DaisyToolchain/0.2.0/arm/arm-none-eabi/include/c++/10.3.1/cmath **** 
 733:/Library/DaisyToolchain/0.2.0/arm/arm-none-eabi/include/c++/10.3.1/cmath **** #ifndef __CORRECT_ISO_CPP11_MATH_H_PROTO_FP
ARM GAS  /var/folders/2p/02m_5p7958535cp2tpgps0400000gn/T//ccbqYDkS.s 			page 49


 734:/Library/DaisyToolchain/0.2.0/arm/arm-none-eabi/include/c++/10.3.1/cmath ****   constexpr bool
 735:/Library/DaisyToolchain/0.2.0/arm/arm-none-eabi/include/c++/10.3.1/cmath ****   isless(float __x, float __y)
 736:/Library/DaisyToolchain/0.2.0/arm/arm-none-eabi/include/c++/10.3.1/cmath ****   { return __builtin_isless(__x, __y); }
 737:/Library/DaisyToolchain/0.2.0/arm/arm-none-eabi/include/c++/10.3.1/cmath **** 
 738:/Library/DaisyToolchain/0.2.0/arm/arm-none-eabi/include/c++/10.3.1/cmath ****   constexpr bool
 739:/Library/DaisyToolchain/0.2.0/arm/arm-none-eabi/include/c++/10.3.1/cmath ****   isless(double __x, double __y)
 740:/Library/DaisyToolchain/0.2.0/arm/arm-none-eabi/include/c++/10.3.1/cmath ****   { return __builtin_isless(__x, __y); }
 741:/Library/DaisyToolchain/0.2.0/arm/arm-none-eabi/include/c++/10.3.1/cmath **** 
 742:/Library/DaisyToolchain/0.2.0/arm/arm-none-eabi/include/c++/10.3.1/cmath ****   constexpr bool
 743:/Library/DaisyToolchain/0.2.0/arm/arm-none-eabi/include/c++/10.3.1/cmath ****   isless(long double __x, long double __y)
 744:/Library/DaisyToolchain/0.2.0/arm/arm-none-eabi/include/c++/10.3.1/cmath ****   { return __builtin_isless(__x, __y); }
 745:/Library/DaisyToolchain/0.2.0/arm/arm-none-eabi/include/c++/10.3.1/cmath **** #endif
 746:/Library/DaisyToolchain/0.2.0/arm/arm-none-eabi/include/c++/10.3.1/cmath **** 
 747:/Library/DaisyToolchain/0.2.0/arm/arm-none-eabi/include/c++/10.3.1/cmath **** #ifndef __CORRECT_ISO_CPP11_MATH_H_PROTO_INT
 748:/Library/DaisyToolchain/0.2.0/arm/arm-none-eabi/include/c++/10.3.1/cmath ****   template<typename _Tp, typename _Up>
 749:/Library/DaisyToolchain/0.2.0/arm/arm-none-eabi/include/c++/10.3.1/cmath ****     constexpr typename
 750:/Library/DaisyToolchain/0.2.0/arm/arm-none-eabi/include/c++/10.3.1/cmath ****     __gnu_cxx::__enable_if<(__is_arithmetic<_Tp>::__value
 751:/Library/DaisyToolchain/0.2.0/arm/arm-none-eabi/include/c++/10.3.1/cmath **** 			    && __is_arithmetic<_Up>::__value), bool>::__type
 752:/Library/DaisyToolchain/0.2.0/arm/arm-none-eabi/include/c++/10.3.1/cmath ****     isless(_Tp __x, _Up __y)
 753:/Library/DaisyToolchain/0.2.0/arm/arm-none-eabi/include/c++/10.3.1/cmath ****     {
 754:/Library/DaisyToolchain/0.2.0/arm/arm-none-eabi/include/c++/10.3.1/cmath ****       typedef typename __gnu_cxx::__promote_2<_Tp, _Up>::__type __type;
 755:/Library/DaisyToolchain/0.2.0/arm/arm-none-eabi/include/c++/10.3.1/cmath ****       return __builtin_isless(__type(__x), __type(__y));
 756:/Library/DaisyToolchain/0.2.0/arm/arm-none-eabi/include/c++/10.3.1/cmath ****     }
 757:/Library/DaisyToolchain/0.2.0/arm/arm-none-eabi/include/c++/10.3.1/cmath **** #endif
 758:/Library/DaisyToolchain/0.2.0/arm/arm-none-eabi/include/c++/10.3.1/cmath **** 
 759:/Library/DaisyToolchain/0.2.0/arm/arm-none-eabi/include/c++/10.3.1/cmath **** #ifndef __CORRECT_ISO_CPP11_MATH_H_PROTO_FP
 760:/Library/DaisyToolchain/0.2.0/arm/arm-none-eabi/include/c++/10.3.1/cmath ****   constexpr bool
 761:/Library/DaisyToolchain/0.2.0/arm/arm-none-eabi/include/c++/10.3.1/cmath ****   islessequal(float __x, float __y)
 762:/Library/DaisyToolchain/0.2.0/arm/arm-none-eabi/include/c++/10.3.1/cmath ****   { return __builtin_islessequal(__x, __y); }
 763:/Library/DaisyToolchain/0.2.0/arm/arm-none-eabi/include/c++/10.3.1/cmath **** 
 764:/Library/DaisyToolchain/0.2.0/arm/arm-none-eabi/include/c++/10.3.1/cmath ****   constexpr bool
 765:/Library/DaisyToolchain/0.2.0/arm/arm-none-eabi/include/c++/10.3.1/cmath ****   islessequal(double __x, double __y)
 766:/Library/DaisyToolchain/0.2.0/arm/arm-none-eabi/include/c++/10.3.1/cmath ****   { return __builtin_islessequal(__x, __y); }
 767:/Library/DaisyToolchain/0.2.0/arm/arm-none-eabi/include/c++/10.3.1/cmath **** 
 768:/Library/DaisyToolchain/0.2.0/arm/arm-none-eabi/include/c++/10.3.1/cmath ****   constexpr bool
 769:/Library/DaisyToolchain/0.2.0/arm/arm-none-eabi/include/c++/10.3.1/cmath ****   islessequal(long double __x, long double __y)
 770:/Library/DaisyToolchain/0.2.0/arm/arm-none-eabi/include/c++/10.3.1/cmath ****   { return __builtin_islessequal(__x, __y); }
 771:/Library/DaisyToolchain/0.2.0/arm/arm-none-eabi/include/c++/10.3.1/cmath **** #endif
 772:/Library/DaisyToolchain/0.2.0/arm/arm-none-eabi/include/c++/10.3.1/cmath **** 
 773:/Library/DaisyToolchain/0.2.0/arm/arm-none-eabi/include/c++/10.3.1/cmath **** #ifndef __CORRECT_ISO_CPP11_MATH_H_PROTO_INT
 774:/Library/DaisyToolchain/0.2.0/arm/arm-none-eabi/include/c++/10.3.1/cmath ****   template<typename _Tp, typename _Up>
 775:/Library/DaisyToolchain/0.2.0/arm/arm-none-eabi/include/c++/10.3.1/cmath ****     constexpr typename
 776:/Library/DaisyToolchain/0.2.0/arm/arm-none-eabi/include/c++/10.3.1/cmath ****     __gnu_cxx::__enable_if<(__is_arithmetic<_Tp>::__value
 777:/Library/DaisyToolchain/0.2.0/arm/arm-none-eabi/include/c++/10.3.1/cmath **** 			    && __is_arithmetic<_Up>::__value), bool>::__type
 778:/Library/DaisyToolchain/0.2.0/arm/arm-none-eabi/include/c++/10.3.1/cmath ****     islessequal(_Tp __x, _Up __y)
 779:/Library/DaisyToolchain/0.2.0/arm/arm-none-eabi/include/c++/10.3.1/cmath ****     {
 780:/Library/DaisyToolchain/0.2.0/arm/arm-none-eabi/include/c++/10.3.1/cmath ****       typedef typename __gnu_cxx::__promote_2<_Tp, _Up>::__type __type;
 781:/Library/DaisyToolchain/0.2.0/arm/arm-none-eabi/include/c++/10.3.1/cmath ****       return __builtin_islessequal(__type(__x), __type(__y));
 782:/Library/DaisyToolchain/0.2.0/arm/arm-none-eabi/include/c++/10.3.1/cmath ****     }
 783:/Library/DaisyToolchain/0.2.0/arm/arm-none-eabi/include/c++/10.3.1/cmath **** #endif
 784:/Library/DaisyToolchain/0.2.0/arm/arm-none-eabi/include/c++/10.3.1/cmath **** 
 785:/Library/DaisyToolchain/0.2.0/arm/arm-none-eabi/include/c++/10.3.1/cmath **** #ifndef __CORRECT_ISO_CPP11_MATH_H_PROTO_FP
 786:/Library/DaisyToolchain/0.2.0/arm/arm-none-eabi/include/c++/10.3.1/cmath ****   constexpr bool
 787:/Library/DaisyToolchain/0.2.0/arm/arm-none-eabi/include/c++/10.3.1/cmath ****   islessgreater(float __x, float __y)
 788:/Library/DaisyToolchain/0.2.0/arm/arm-none-eabi/include/c++/10.3.1/cmath ****   { return __builtin_islessgreater(__x, __y); }
 789:/Library/DaisyToolchain/0.2.0/arm/arm-none-eabi/include/c++/10.3.1/cmath **** 
 790:/Library/DaisyToolchain/0.2.0/arm/arm-none-eabi/include/c++/10.3.1/cmath ****   constexpr bool
ARM GAS  /var/folders/2p/02m_5p7958535cp2tpgps0400000gn/T//ccbqYDkS.s 			page 50


 791:/Library/DaisyToolchain/0.2.0/arm/arm-none-eabi/include/c++/10.3.1/cmath ****   islessgreater(double __x, double __y)
 792:/Library/DaisyToolchain/0.2.0/arm/arm-none-eabi/include/c++/10.3.1/cmath ****   { return __builtin_islessgreater(__x, __y); }
 793:/Library/DaisyToolchain/0.2.0/arm/arm-none-eabi/include/c++/10.3.1/cmath **** 
 794:/Library/DaisyToolchain/0.2.0/arm/arm-none-eabi/include/c++/10.3.1/cmath ****   constexpr bool
 795:/Library/DaisyToolchain/0.2.0/arm/arm-none-eabi/include/c++/10.3.1/cmath ****   islessgreater(long double __x, long double __y)
 796:/Library/DaisyToolchain/0.2.0/arm/arm-none-eabi/include/c++/10.3.1/cmath ****   { return __builtin_islessgreater(__x, __y); }
 797:/Library/DaisyToolchain/0.2.0/arm/arm-none-eabi/include/c++/10.3.1/cmath **** #endif
 798:/Library/DaisyToolchain/0.2.0/arm/arm-none-eabi/include/c++/10.3.1/cmath **** 
 799:/Library/DaisyToolchain/0.2.0/arm/arm-none-eabi/include/c++/10.3.1/cmath **** #ifndef __CORRECT_ISO_CPP11_MATH_H_PROTO_INT
 800:/Library/DaisyToolchain/0.2.0/arm/arm-none-eabi/include/c++/10.3.1/cmath ****   template<typename _Tp, typename _Up>
 801:/Library/DaisyToolchain/0.2.0/arm/arm-none-eabi/include/c++/10.3.1/cmath ****     constexpr typename
 802:/Library/DaisyToolchain/0.2.0/arm/arm-none-eabi/include/c++/10.3.1/cmath ****     __gnu_cxx::__enable_if<(__is_arithmetic<_Tp>::__value
 803:/Library/DaisyToolchain/0.2.0/arm/arm-none-eabi/include/c++/10.3.1/cmath **** 			    && __is_arithmetic<_Up>::__value), bool>::__type
 804:/Library/DaisyToolchain/0.2.0/arm/arm-none-eabi/include/c++/10.3.1/cmath ****     islessgreater(_Tp __x, _Up __y)
 805:/Library/DaisyToolchain/0.2.0/arm/arm-none-eabi/include/c++/10.3.1/cmath ****     {
 806:/Library/DaisyToolchain/0.2.0/arm/arm-none-eabi/include/c++/10.3.1/cmath ****       typedef typename __gnu_cxx::__promote_2<_Tp, _Up>::__type __type;
 807:/Library/DaisyToolchain/0.2.0/arm/arm-none-eabi/include/c++/10.3.1/cmath ****       return __builtin_islessgreater(__type(__x), __type(__y));
 808:/Library/DaisyToolchain/0.2.0/arm/arm-none-eabi/include/c++/10.3.1/cmath ****     }
 809:/Library/DaisyToolchain/0.2.0/arm/arm-none-eabi/include/c++/10.3.1/cmath **** #endif
 810:/Library/DaisyToolchain/0.2.0/arm/arm-none-eabi/include/c++/10.3.1/cmath **** 
 811:/Library/DaisyToolchain/0.2.0/arm/arm-none-eabi/include/c++/10.3.1/cmath **** #ifndef __CORRECT_ISO_CPP11_MATH_H_PROTO_FP
 812:/Library/DaisyToolchain/0.2.0/arm/arm-none-eabi/include/c++/10.3.1/cmath ****   constexpr bool
 813:/Library/DaisyToolchain/0.2.0/arm/arm-none-eabi/include/c++/10.3.1/cmath ****   isunordered(float __x, float __y)
 814:/Library/DaisyToolchain/0.2.0/arm/arm-none-eabi/include/c++/10.3.1/cmath ****   { return __builtin_isunordered(__x, __y); }
 815:/Library/DaisyToolchain/0.2.0/arm/arm-none-eabi/include/c++/10.3.1/cmath **** 
 816:/Library/DaisyToolchain/0.2.0/arm/arm-none-eabi/include/c++/10.3.1/cmath ****   constexpr bool
 817:/Library/DaisyToolchain/0.2.0/arm/arm-none-eabi/include/c++/10.3.1/cmath ****   isunordered(double __x, double __y)
 818:/Library/DaisyToolchain/0.2.0/arm/arm-none-eabi/include/c++/10.3.1/cmath ****   { return __builtin_isunordered(__x, __y); }
 819:/Library/DaisyToolchain/0.2.0/arm/arm-none-eabi/include/c++/10.3.1/cmath **** 
 820:/Library/DaisyToolchain/0.2.0/arm/arm-none-eabi/include/c++/10.3.1/cmath ****   constexpr bool
 821:/Library/DaisyToolchain/0.2.0/arm/arm-none-eabi/include/c++/10.3.1/cmath ****   isunordered(long double __x, long double __y)
 822:/Library/DaisyToolchain/0.2.0/arm/arm-none-eabi/include/c++/10.3.1/cmath ****   { return __builtin_isunordered(__x, __y); }
 823:/Library/DaisyToolchain/0.2.0/arm/arm-none-eabi/include/c++/10.3.1/cmath **** #endif
 824:/Library/DaisyToolchain/0.2.0/arm/arm-none-eabi/include/c++/10.3.1/cmath **** 
 825:/Library/DaisyToolchain/0.2.0/arm/arm-none-eabi/include/c++/10.3.1/cmath **** #ifndef __CORRECT_ISO_CPP11_MATH_H_PROTO_INT
 826:/Library/DaisyToolchain/0.2.0/arm/arm-none-eabi/include/c++/10.3.1/cmath ****   template<typename _Tp, typename _Up>
 827:/Library/DaisyToolchain/0.2.0/arm/arm-none-eabi/include/c++/10.3.1/cmath ****     constexpr typename
 828:/Library/DaisyToolchain/0.2.0/arm/arm-none-eabi/include/c++/10.3.1/cmath ****     __gnu_cxx::__enable_if<(__is_arithmetic<_Tp>::__value
 829:/Library/DaisyToolchain/0.2.0/arm/arm-none-eabi/include/c++/10.3.1/cmath **** 			    && __is_arithmetic<_Up>::__value), bool>::__type
 830:/Library/DaisyToolchain/0.2.0/arm/arm-none-eabi/include/c++/10.3.1/cmath ****     isunordered(_Tp __x, _Up __y)
 831:/Library/DaisyToolchain/0.2.0/arm/arm-none-eabi/include/c++/10.3.1/cmath ****     {
 832:/Library/DaisyToolchain/0.2.0/arm/arm-none-eabi/include/c++/10.3.1/cmath ****       typedef typename __gnu_cxx::__promote_2<_Tp, _Up>::__type __type;
 833:/Library/DaisyToolchain/0.2.0/arm/arm-none-eabi/include/c++/10.3.1/cmath ****       return __builtin_isunordered(__type(__x), __type(__y));
 834:/Library/DaisyToolchain/0.2.0/arm/arm-none-eabi/include/c++/10.3.1/cmath ****     }
 835:/Library/DaisyToolchain/0.2.0/arm/arm-none-eabi/include/c++/10.3.1/cmath **** #endif
 836:/Library/DaisyToolchain/0.2.0/arm/arm-none-eabi/include/c++/10.3.1/cmath **** 
 837:/Library/DaisyToolchain/0.2.0/arm/arm-none-eabi/include/c++/10.3.1/cmath **** #else
 838:/Library/DaisyToolchain/0.2.0/arm/arm-none-eabi/include/c++/10.3.1/cmath **** 
 839:/Library/DaisyToolchain/0.2.0/arm/arm-none-eabi/include/c++/10.3.1/cmath ****   template<typename _Tp>
 840:/Library/DaisyToolchain/0.2.0/arm/arm-none-eabi/include/c++/10.3.1/cmath ****     inline typename __gnu_cxx::__enable_if<__is_arithmetic<_Tp>::__value,
 841:/Library/DaisyToolchain/0.2.0/arm/arm-none-eabi/include/c++/10.3.1/cmath **** 					   int>::__type
 842:/Library/DaisyToolchain/0.2.0/arm/arm-none-eabi/include/c++/10.3.1/cmath ****     fpclassify(_Tp __f)
 843:/Library/DaisyToolchain/0.2.0/arm/arm-none-eabi/include/c++/10.3.1/cmath ****     {
 844:/Library/DaisyToolchain/0.2.0/arm/arm-none-eabi/include/c++/10.3.1/cmath ****       typedef typename __gnu_cxx::__promote<_Tp>::__type __type;
 845:/Library/DaisyToolchain/0.2.0/arm/arm-none-eabi/include/c++/10.3.1/cmath ****       return __builtin_fpclassify(FP_NAN, FP_INFINITE, FP_NORMAL,
 846:/Library/DaisyToolchain/0.2.0/arm/arm-none-eabi/include/c++/10.3.1/cmath **** 				  FP_SUBNORMAL, FP_ZERO, __type(__f));
 847:/Library/DaisyToolchain/0.2.0/arm/arm-none-eabi/include/c++/10.3.1/cmath ****     }
ARM GAS  /var/folders/2p/02m_5p7958535cp2tpgps0400000gn/T//ccbqYDkS.s 			page 51


 848:/Library/DaisyToolchain/0.2.0/arm/arm-none-eabi/include/c++/10.3.1/cmath **** 
 849:/Library/DaisyToolchain/0.2.0/arm/arm-none-eabi/include/c++/10.3.1/cmath ****   template<typename _Tp>
 850:/Library/DaisyToolchain/0.2.0/arm/arm-none-eabi/include/c++/10.3.1/cmath ****     inline typename __gnu_cxx::__enable_if<__is_arithmetic<_Tp>::__value,
 851:/Library/DaisyToolchain/0.2.0/arm/arm-none-eabi/include/c++/10.3.1/cmath **** 					   int>::__type
 852:/Library/DaisyToolchain/0.2.0/arm/arm-none-eabi/include/c++/10.3.1/cmath ****     isfinite(_Tp __f)
 853:/Library/DaisyToolchain/0.2.0/arm/arm-none-eabi/include/c++/10.3.1/cmath ****     {
 854:/Library/DaisyToolchain/0.2.0/arm/arm-none-eabi/include/c++/10.3.1/cmath ****       typedef typename __gnu_cxx::__promote<_Tp>::__type __type;
 855:/Library/DaisyToolchain/0.2.0/arm/arm-none-eabi/include/c++/10.3.1/cmath ****       return __builtin_isfinite(__type(__f));
 856:/Library/DaisyToolchain/0.2.0/arm/arm-none-eabi/include/c++/10.3.1/cmath ****     }
 857:/Library/DaisyToolchain/0.2.0/arm/arm-none-eabi/include/c++/10.3.1/cmath **** 
 858:/Library/DaisyToolchain/0.2.0/arm/arm-none-eabi/include/c++/10.3.1/cmath ****   template<typename _Tp>
 859:/Library/DaisyToolchain/0.2.0/arm/arm-none-eabi/include/c++/10.3.1/cmath ****     inline typename __gnu_cxx::__enable_if<__is_arithmetic<_Tp>::__value,
 860:/Library/DaisyToolchain/0.2.0/arm/arm-none-eabi/include/c++/10.3.1/cmath **** 					   int>::__type
 861:/Library/DaisyToolchain/0.2.0/arm/arm-none-eabi/include/c++/10.3.1/cmath ****     isinf(_Tp __f)
 862:/Library/DaisyToolchain/0.2.0/arm/arm-none-eabi/include/c++/10.3.1/cmath ****     {
 863:/Library/DaisyToolchain/0.2.0/arm/arm-none-eabi/include/c++/10.3.1/cmath ****       typedef typename __gnu_cxx::__promote<_Tp>::__type __type;
 864:/Library/DaisyToolchain/0.2.0/arm/arm-none-eabi/include/c++/10.3.1/cmath ****       return __builtin_isinf(__type(__f));
 865:/Library/DaisyToolchain/0.2.0/arm/arm-none-eabi/include/c++/10.3.1/cmath ****     }
 866:/Library/DaisyToolchain/0.2.0/arm/arm-none-eabi/include/c++/10.3.1/cmath **** 
 867:/Library/DaisyToolchain/0.2.0/arm/arm-none-eabi/include/c++/10.3.1/cmath ****   template<typename _Tp>
 868:/Library/DaisyToolchain/0.2.0/arm/arm-none-eabi/include/c++/10.3.1/cmath ****     inline typename __gnu_cxx::__enable_if<__is_arithmetic<_Tp>::__value,
 869:/Library/DaisyToolchain/0.2.0/arm/arm-none-eabi/include/c++/10.3.1/cmath **** 					   int>::__type
 870:/Library/DaisyToolchain/0.2.0/arm/arm-none-eabi/include/c++/10.3.1/cmath ****     isnan(_Tp __f)
 871:/Library/DaisyToolchain/0.2.0/arm/arm-none-eabi/include/c++/10.3.1/cmath ****     {
 872:/Library/DaisyToolchain/0.2.0/arm/arm-none-eabi/include/c++/10.3.1/cmath ****       typedef typename __gnu_cxx::__promote<_Tp>::__type __type;
 873:/Library/DaisyToolchain/0.2.0/arm/arm-none-eabi/include/c++/10.3.1/cmath ****       return __builtin_isnan(__type(__f));
 874:/Library/DaisyToolchain/0.2.0/arm/arm-none-eabi/include/c++/10.3.1/cmath ****     }
 875:/Library/DaisyToolchain/0.2.0/arm/arm-none-eabi/include/c++/10.3.1/cmath **** 
 876:/Library/DaisyToolchain/0.2.0/arm/arm-none-eabi/include/c++/10.3.1/cmath ****   template<typename _Tp>
 877:/Library/DaisyToolchain/0.2.0/arm/arm-none-eabi/include/c++/10.3.1/cmath ****     inline typename __gnu_cxx::__enable_if<__is_arithmetic<_Tp>::__value,
 878:/Library/DaisyToolchain/0.2.0/arm/arm-none-eabi/include/c++/10.3.1/cmath **** 					   int>::__type
 879:/Library/DaisyToolchain/0.2.0/arm/arm-none-eabi/include/c++/10.3.1/cmath ****     isnormal(_Tp __f)
 880:/Library/DaisyToolchain/0.2.0/arm/arm-none-eabi/include/c++/10.3.1/cmath ****     {
 881:/Library/DaisyToolchain/0.2.0/arm/arm-none-eabi/include/c++/10.3.1/cmath ****       typedef typename __gnu_cxx::__promote<_Tp>::__type __type;
 882:/Library/DaisyToolchain/0.2.0/arm/arm-none-eabi/include/c++/10.3.1/cmath ****       return __builtin_isnormal(__type(__f));
 883:/Library/DaisyToolchain/0.2.0/arm/arm-none-eabi/include/c++/10.3.1/cmath ****     }
 884:/Library/DaisyToolchain/0.2.0/arm/arm-none-eabi/include/c++/10.3.1/cmath **** 
 885:/Library/DaisyToolchain/0.2.0/arm/arm-none-eabi/include/c++/10.3.1/cmath ****   template<typename _Tp>
 886:/Library/DaisyToolchain/0.2.0/arm/arm-none-eabi/include/c++/10.3.1/cmath ****     inline typename __gnu_cxx::__enable_if<__is_arithmetic<_Tp>::__value,
 887:/Library/DaisyToolchain/0.2.0/arm/arm-none-eabi/include/c++/10.3.1/cmath **** 					   int>::__type
 888:/Library/DaisyToolchain/0.2.0/arm/arm-none-eabi/include/c++/10.3.1/cmath ****     signbit(_Tp __f)
 889:/Library/DaisyToolchain/0.2.0/arm/arm-none-eabi/include/c++/10.3.1/cmath ****     {
 890:/Library/DaisyToolchain/0.2.0/arm/arm-none-eabi/include/c++/10.3.1/cmath ****       typedef typename __gnu_cxx::__promote<_Tp>::__type __type;
 891:/Library/DaisyToolchain/0.2.0/arm/arm-none-eabi/include/c++/10.3.1/cmath ****       return __builtin_signbit(__type(__f));
 892:/Library/DaisyToolchain/0.2.0/arm/arm-none-eabi/include/c++/10.3.1/cmath ****     }
 893:/Library/DaisyToolchain/0.2.0/arm/arm-none-eabi/include/c++/10.3.1/cmath **** 
 894:/Library/DaisyToolchain/0.2.0/arm/arm-none-eabi/include/c++/10.3.1/cmath ****   template<typename _Tp>
 895:/Library/DaisyToolchain/0.2.0/arm/arm-none-eabi/include/c++/10.3.1/cmath ****     inline typename __gnu_cxx::__enable_if<__is_arithmetic<_Tp>::__value,
 896:/Library/DaisyToolchain/0.2.0/arm/arm-none-eabi/include/c++/10.3.1/cmath **** 					   int>::__type
 897:/Library/DaisyToolchain/0.2.0/arm/arm-none-eabi/include/c++/10.3.1/cmath ****     isgreater(_Tp __f1, _Tp __f2)
 898:/Library/DaisyToolchain/0.2.0/arm/arm-none-eabi/include/c++/10.3.1/cmath ****     {
 899:/Library/DaisyToolchain/0.2.0/arm/arm-none-eabi/include/c++/10.3.1/cmath ****       typedef typename __gnu_cxx::__promote<_Tp>::__type __type;
 900:/Library/DaisyToolchain/0.2.0/arm/arm-none-eabi/include/c++/10.3.1/cmath ****       return __builtin_isgreater(__type(__f1), __type(__f2));
 901:/Library/DaisyToolchain/0.2.0/arm/arm-none-eabi/include/c++/10.3.1/cmath ****     }
 902:/Library/DaisyToolchain/0.2.0/arm/arm-none-eabi/include/c++/10.3.1/cmath **** 
 903:/Library/DaisyToolchain/0.2.0/arm/arm-none-eabi/include/c++/10.3.1/cmath ****   template<typename _Tp>
 904:/Library/DaisyToolchain/0.2.0/arm/arm-none-eabi/include/c++/10.3.1/cmath ****     inline typename __gnu_cxx::__enable_if<__is_arithmetic<_Tp>::__value,
ARM GAS  /var/folders/2p/02m_5p7958535cp2tpgps0400000gn/T//ccbqYDkS.s 			page 52


 905:/Library/DaisyToolchain/0.2.0/arm/arm-none-eabi/include/c++/10.3.1/cmath **** 					   int>::__type
 906:/Library/DaisyToolchain/0.2.0/arm/arm-none-eabi/include/c++/10.3.1/cmath ****     isgreaterequal(_Tp __f1, _Tp __f2)
 907:/Library/DaisyToolchain/0.2.0/arm/arm-none-eabi/include/c++/10.3.1/cmath ****     {
 908:/Library/DaisyToolchain/0.2.0/arm/arm-none-eabi/include/c++/10.3.1/cmath ****       typedef typename __gnu_cxx::__promote<_Tp>::__type __type;
 909:/Library/DaisyToolchain/0.2.0/arm/arm-none-eabi/include/c++/10.3.1/cmath ****       return __builtin_isgreaterequal(__type(__f1), __type(__f2));
 910:/Library/DaisyToolchain/0.2.0/arm/arm-none-eabi/include/c++/10.3.1/cmath ****     }
 911:/Library/DaisyToolchain/0.2.0/arm/arm-none-eabi/include/c++/10.3.1/cmath **** 
 912:/Library/DaisyToolchain/0.2.0/arm/arm-none-eabi/include/c++/10.3.1/cmath ****   template<typename _Tp>
 913:/Library/DaisyToolchain/0.2.0/arm/arm-none-eabi/include/c++/10.3.1/cmath ****     inline typename __gnu_cxx::__enable_if<__is_arithmetic<_Tp>::__value,
 914:/Library/DaisyToolchain/0.2.0/arm/arm-none-eabi/include/c++/10.3.1/cmath **** 					   int>::__type
 915:/Library/DaisyToolchain/0.2.0/arm/arm-none-eabi/include/c++/10.3.1/cmath ****     isless(_Tp __f1, _Tp __f2)
 916:/Library/DaisyToolchain/0.2.0/arm/arm-none-eabi/include/c++/10.3.1/cmath ****     {
 917:/Library/DaisyToolchain/0.2.0/arm/arm-none-eabi/include/c++/10.3.1/cmath ****       typedef typename __gnu_cxx::__promote<_Tp>::__type __type;
 918:/Library/DaisyToolchain/0.2.0/arm/arm-none-eabi/include/c++/10.3.1/cmath ****       return __builtin_isless(__type(__f1), __type(__f2));
 919:/Library/DaisyToolchain/0.2.0/arm/arm-none-eabi/include/c++/10.3.1/cmath ****     }
 920:/Library/DaisyToolchain/0.2.0/arm/arm-none-eabi/include/c++/10.3.1/cmath **** 
 921:/Library/DaisyToolchain/0.2.0/arm/arm-none-eabi/include/c++/10.3.1/cmath ****   template<typename _Tp>
 922:/Library/DaisyToolchain/0.2.0/arm/arm-none-eabi/include/c++/10.3.1/cmath ****     inline typename __gnu_cxx::__enable_if<__is_arithmetic<_Tp>::__value,
 923:/Library/DaisyToolchain/0.2.0/arm/arm-none-eabi/include/c++/10.3.1/cmath **** 					   int>::__type
 924:/Library/DaisyToolchain/0.2.0/arm/arm-none-eabi/include/c++/10.3.1/cmath ****     islessequal(_Tp __f1, _Tp __f2)
 925:/Library/DaisyToolchain/0.2.0/arm/arm-none-eabi/include/c++/10.3.1/cmath ****     {
 926:/Library/DaisyToolchain/0.2.0/arm/arm-none-eabi/include/c++/10.3.1/cmath ****       typedef typename __gnu_cxx::__promote<_Tp>::__type __type;
 927:/Library/DaisyToolchain/0.2.0/arm/arm-none-eabi/include/c++/10.3.1/cmath ****       return __builtin_islessequal(__type(__f1), __type(__f2));
 928:/Library/DaisyToolchain/0.2.0/arm/arm-none-eabi/include/c++/10.3.1/cmath ****     }
 929:/Library/DaisyToolchain/0.2.0/arm/arm-none-eabi/include/c++/10.3.1/cmath **** 
 930:/Library/DaisyToolchain/0.2.0/arm/arm-none-eabi/include/c++/10.3.1/cmath ****   template<typename _Tp>
 931:/Library/DaisyToolchain/0.2.0/arm/arm-none-eabi/include/c++/10.3.1/cmath ****     inline typename __gnu_cxx::__enable_if<__is_arithmetic<_Tp>::__value,
 932:/Library/DaisyToolchain/0.2.0/arm/arm-none-eabi/include/c++/10.3.1/cmath **** 					   int>::__type
 933:/Library/DaisyToolchain/0.2.0/arm/arm-none-eabi/include/c++/10.3.1/cmath ****     islessgreater(_Tp __f1, _Tp __f2)
 934:/Library/DaisyToolchain/0.2.0/arm/arm-none-eabi/include/c++/10.3.1/cmath ****     {
 935:/Library/DaisyToolchain/0.2.0/arm/arm-none-eabi/include/c++/10.3.1/cmath ****       typedef typename __gnu_cxx::__promote<_Tp>::__type __type;
 936:/Library/DaisyToolchain/0.2.0/arm/arm-none-eabi/include/c++/10.3.1/cmath ****       return __builtin_islessgreater(__type(__f1), __type(__f2));
 937:/Library/DaisyToolchain/0.2.0/arm/arm-none-eabi/include/c++/10.3.1/cmath ****     }
 938:/Library/DaisyToolchain/0.2.0/arm/arm-none-eabi/include/c++/10.3.1/cmath **** 
 939:/Library/DaisyToolchain/0.2.0/arm/arm-none-eabi/include/c++/10.3.1/cmath ****   template<typename _Tp>
 940:/Library/DaisyToolchain/0.2.0/arm/arm-none-eabi/include/c++/10.3.1/cmath ****     inline typename __gnu_cxx::__enable_if<__is_arithmetic<_Tp>::__value,
 941:/Library/DaisyToolchain/0.2.0/arm/arm-none-eabi/include/c++/10.3.1/cmath **** 					   int>::__type
 942:/Library/DaisyToolchain/0.2.0/arm/arm-none-eabi/include/c++/10.3.1/cmath ****     isunordered(_Tp __f1, _Tp __f2)
 943:/Library/DaisyToolchain/0.2.0/arm/arm-none-eabi/include/c++/10.3.1/cmath ****     {
 944:/Library/DaisyToolchain/0.2.0/arm/arm-none-eabi/include/c++/10.3.1/cmath ****       typedef typename __gnu_cxx::__promote<_Tp>::__type __type;
 945:/Library/DaisyToolchain/0.2.0/arm/arm-none-eabi/include/c++/10.3.1/cmath ****       return __builtin_isunordered(__type(__f1), __type(__f2));
 946:/Library/DaisyToolchain/0.2.0/arm/arm-none-eabi/include/c++/10.3.1/cmath ****     }
 947:/Library/DaisyToolchain/0.2.0/arm/arm-none-eabi/include/c++/10.3.1/cmath **** 
 948:/Library/DaisyToolchain/0.2.0/arm/arm-none-eabi/include/c++/10.3.1/cmath **** #endif // C++11
 949:/Library/DaisyToolchain/0.2.0/arm/arm-none-eabi/include/c++/10.3.1/cmath **** #endif /* _GLIBCXX_USE_C99_FP_MACROS_DYNAMIC */
 950:/Library/DaisyToolchain/0.2.0/arm/arm-none-eabi/include/c++/10.3.1/cmath **** #endif /* _GLIBCXX_USE_C99_MATH */
 951:/Library/DaisyToolchain/0.2.0/arm/arm-none-eabi/include/c++/10.3.1/cmath **** 
 952:/Library/DaisyToolchain/0.2.0/arm/arm-none-eabi/include/c++/10.3.1/cmath **** #if __cplusplus >= 201103L
 953:/Library/DaisyToolchain/0.2.0/arm/arm-none-eabi/include/c++/10.3.1/cmath **** 
 954:/Library/DaisyToolchain/0.2.0/arm/arm-none-eabi/include/c++/10.3.1/cmath **** #ifdef _GLIBCXX_USE_C99_MATH_TR1
 955:/Library/DaisyToolchain/0.2.0/arm/arm-none-eabi/include/c++/10.3.1/cmath **** 
 956:/Library/DaisyToolchain/0.2.0/arm/arm-none-eabi/include/c++/10.3.1/cmath **** #undef acosh
 957:/Library/DaisyToolchain/0.2.0/arm/arm-none-eabi/include/c++/10.3.1/cmath **** #undef acoshf
 958:/Library/DaisyToolchain/0.2.0/arm/arm-none-eabi/include/c++/10.3.1/cmath **** #undef acoshl
 959:/Library/DaisyToolchain/0.2.0/arm/arm-none-eabi/include/c++/10.3.1/cmath **** #undef asinh
 960:/Library/DaisyToolchain/0.2.0/arm/arm-none-eabi/include/c++/10.3.1/cmath **** #undef asinhf
 961:/Library/DaisyToolchain/0.2.0/arm/arm-none-eabi/include/c++/10.3.1/cmath **** #undef asinhl
ARM GAS  /var/folders/2p/02m_5p7958535cp2tpgps0400000gn/T//ccbqYDkS.s 			page 53


 962:/Library/DaisyToolchain/0.2.0/arm/arm-none-eabi/include/c++/10.3.1/cmath **** #undef atanh
 963:/Library/DaisyToolchain/0.2.0/arm/arm-none-eabi/include/c++/10.3.1/cmath **** #undef atanhf
 964:/Library/DaisyToolchain/0.2.0/arm/arm-none-eabi/include/c++/10.3.1/cmath **** #undef atanhl
 965:/Library/DaisyToolchain/0.2.0/arm/arm-none-eabi/include/c++/10.3.1/cmath **** #undef cbrt
 966:/Library/DaisyToolchain/0.2.0/arm/arm-none-eabi/include/c++/10.3.1/cmath **** #undef cbrtf
 967:/Library/DaisyToolchain/0.2.0/arm/arm-none-eabi/include/c++/10.3.1/cmath **** #undef cbrtl
 968:/Library/DaisyToolchain/0.2.0/arm/arm-none-eabi/include/c++/10.3.1/cmath **** #undef copysign
 969:/Library/DaisyToolchain/0.2.0/arm/arm-none-eabi/include/c++/10.3.1/cmath **** #undef copysignf
 970:/Library/DaisyToolchain/0.2.0/arm/arm-none-eabi/include/c++/10.3.1/cmath **** #undef copysignl
 971:/Library/DaisyToolchain/0.2.0/arm/arm-none-eabi/include/c++/10.3.1/cmath **** #undef erf
 972:/Library/DaisyToolchain/0.2.0/arm/arm-none-eabi/include/c++/10.3.1/cmath **** #undef erff
 973:/Library/DaisyToolchain/0.2.0/arm/arm-none-eabi/include/c++/10.3.1/cmath **** #undef erfl
 974:/Library/DaisyToolchain/0.2.0/arm/arm-none-eabi/include/c++/10.3.1/cmath **** #undef erfc
 975:/Library/DaisyToolchain/0.2.0/arm/arm-none-eabi/include/c++/10.3.1/cmath **** #undef erfcf
 976:/Library/DaisyToolchain/0.2.0/arm/arm-none-eabi/include/c++/10.3.1/cmath **** #undef erfcl
 977:/Library/DaisyToolchain/0.2.0/arm/arm-none-eabi/include/c++/10.3.1/cmath **** #undef exp2
 978:/Library/DaisyToolchain/0.2.0/arm/arm-none-eabi/include/c++/10.3.1/cmath **** #undef exp2f
 979:/Library/DaisyToolchain/0.2.0/arm/arm-none-eabi/include/c++/10.3.1/cmath **** #undef exp2l
 980:/Library/DaisyToolchain/0.2.0/arm/arm-none-eabi/include/c++/10.3.1/cmath **** #undef expm1
 981:/Library/DaisyToolchain/0.2.0/arm/arm-none-eabi/include/c++/10.3.1/cmath **** #undef expm1f
 982:/Library/DaisyToolchain/0.2.0/arm/arm-none-eabi/include/c++/10.3.1/cmath **** #undef expm1l
 983:/Library/DaisyToolchain/0.2.0/arm/arm-none-eabi/include/c++/10.3.1/cmath **** #undef fdim
 984:/Library/DaisyToolchain/0.2.0/arm/arm-none-eabi/include/c++/10.3.1/cmath **** #undef fdimf
 985:/Library/DaisyToolchain/0.2.0/arm/arm-none-eabi/include/c++/10.3.1/cmath **** #undef fdiml
 986:/Library/DaisyToolchain/0.2.0/arm/arm-none-eabi/include/c++/10.3.1/cmath **** #undef fma
 987:/Library/DaisyToolchain/0.2.0/arm/arm-none-eabi/include/c++/10.3.1/cmath **** #undef fmaf
 988:/Library/DaisyToolchain/0.2.0/arm/arm-none-eabi/include/c++/10.3.1/cmath **** #undef fmal
 989:/Library/DaisyToolchain/0.2.0/arm/arm-none-eabi/include/c++/10.3.1/cmath **** #undef fmax
 990:/Library/DaisyToolchain/0.2.0/arm/arm-none-eabi/include/c++/10.3.1/cmath **** #undef fmaxf
 991:/Library/DaisyToolchain/0.2.0/arm/arm-none-eabi/include/c++/10.3.1/cmath **** #undef fmaxl
 992:/Library/DaisyToolchain/0.2.0/arm/arm-none-eabi/include/c++/10.3.1/cmath **** #undef fmin
 993:/Library/DaisyToolchain/0.2.0/arm/arm-none-eabi/include/c++/10.3.1/cmath **** #undef fminf
 994:/Library/DaisyToolchain/0.2.0/arm/arm-none-eabi/include/c++/10.3.1/cmath **** #undef fminl
 995:/Library/DaisyToolchain/0.2.0/arm/arm-none-eabi/include/c++/10.3.1/cmath **** #undef hypot
 996:/Library/DaisyToolchain/0.2.0/arm/arm-none-eabi/include/c++/10.3.1/cmath **** #undef hypotf
 997:/Library/DaisyToolchain/0.2.0/arm/arm-none-eabi/include/c++/10.3.1/cmath **** #undef hypotl
 998:/Library/DaisyToolchain/0.2.0/arm/arm-none-eabi/include/c++/10.3.1/cmath **** #undef ilogb
 999:/Library/DaisyToolchain/0.2.0/arm/arm-none-eabi/include/c++/10.3.1/cmath **** #undef ilogbf
1000:/Library/DaisyToolchain/0.2.0/arm/arm-none-eabi/include/c++/10.3.1/cmath **** #undef ilogbl
1001:/Library/DaisyToolchain/0.2.0/arm/arm-none-eabi/include/c++/10.3.1/cmath **** #undef lgamma
1002:/Library/DaisyToolchain/0.2.0/arm/arm-none-eabi/include/c++/10.3.1/cmath **** #undef lgammaf
1003:/Library/DaisyToolchain/0.2.0/arm/arm-none-eabi/include/c++/10.3.1/cmath **** #undef lgammal
1004:/Library/DaisyToolchain/0.2.0/arm/arm-none-eabi/include/c++/10.3.1/cmath **** #ifndef _GLIBCXX_NO_C99_ROUNDING_FUNCS
1005:/Library/DaisyToolchain/0.2.0/arm/arm-none-eabi/include/c++/10.3.1/cmath **** #undef llrint
1006:/Library/DaisyToolchain/0.2.0/arm/arm-none-eabi/include/c++/10.3.1/cmath **** #undef llrintf
1007:/Library/DaisyToolchain/0.2.0/arm/arm-none-eabi/include/c++/10.3.1/cmath **** #undef llrintl
1008:/Library/DaisyToolchain/0.2.0/arm/arm-none-eabi/include/c++/10.3.1/cmath **** #undef llround
1009:/Library/DaisyToolchain/0.2.0/arm/arm-none-eabi/include/c++/10.3.1/cmath **** #undef llroundf
1010:/Library/DaisyToolchain/0.2.0/arm/arm-none-eabi/include/c++/10.3.1/cmath **** #undef llroundl
1011:/Library/DaisyToolchain/0.2.0/arm/arm-none-eabi/include/c++/10.3.1/cmath **** #endif
1012:/Library/DaisyToolchain/0.2.0/arm/arm-none-eabi/include/c++/10.3.1/cmath **** #undef log1p
1013:/Library/DaisyToolchain/0.2.0/arm/arm-none-eabi/include/c++/10.3.1/cmath **** #undef log1pf
1014:/Library/DaisyToolchain/0.2.0/arm/arm-none-eabi/include/c++/10.3.1/cmath **** #undef log1pl
1015:/Library/DaisyToolchain/0.2.0/arm/arm-none-eabi/include/c++/10.3.1/cmath **** #undef log2
1016:/Library/DaisyToolchain/0.2.0/arm/arm-none-eabi/include/c++/10.3.1/cmath **** #undef log2f
1017:/Library/DaisyToolchain/0.2.0/arm/arm-none-eabi/include/c++/10.3.1/cmath **** #undef log2l
1018:/Library/DaisyToolchain/0.2.0/arm/arm-none-eabi/include/c++/10.3.1/cmath **** #undef logb
ARM GAS  /var/folders/2p/02m_5p7958535cp2tpgps0400000gn/T//ccbqYDkS.s 			page 54


1019:/Library/DaisyToolchain/0.2.0/arm/arm-none-eabi/include/c++/10.3.1/cmath **** #undef logbf
1020:/Library/DaisyToolchain/0.2.0/arm/arm-none-eabi/include/c++/10.3.1/cmath **** #undef logbl
1021:/Library/DaisyToolchain/0.2.0/arm/arm-none-eabi/include/c++/10.3.1/cmath **** #undef lrint
1022:/Library/DaisyToolchain/0.2.0/arm/arm-none-eabi/include/c++/10.3.1/cmath **** #undef lrintf
1023:/Library/DaisyToolchain/0.2.0/arm/arm-none-eabi/include/c++/10.3.1/cmath **** #undef lrintl
1024:/Library/DaisyToolchain/0.2.0/arm/arm-none-eabi/include/c++/10.3.1/cmath **** #undef lround
1025:/Library/DaisyToolchain/0.2.0/arm/arm-none-eabi/include/c++/10.3.1/cmath **** #undef lroundf
1026:/Library/DaisyToolchain/0.2.0/arm/arm-none-eabi/include/c++/10.3.1/cmath **** #undef lroundl
1027:/Library/DaisyToolchain/0.2.0/arm/arm-none-eabi/include/c++/10.3.1/cmath **** #undef nan
1028:/Library/DaisyToolchain/0.2.0/arm/arm-none-eabi/include/c++/10.3.1/cmath **** #undef nanf
1029:/Library/DaisyToolchain/0.2.0/arm/arm-none-eabi/include/c++/10.3.1/cmath **** #undef nanl
1030:/Library/DaisyToolchain/0.2.0/arm/arm-none-eabi/include/c++/10.3.1/cmath **** #undef nearbyint
1031:/Library/DaisyToolchain/0.2.0/arm/arm-none-eabi/include/c++/10.3.1/cmath **** #undef nearbyintf
1032:/Library/DaisyToolchain/0.2.0/arm/arm-none-eabi/include/c++/10.3.1/cmath **** #undef nearbyintl
1033:/Library/DaisyToolchain/0.2.0/arm/arm-none-eabi/include/c++/10.3.1/cmath **** #undef nextafter
1034:/Library/DaisyToolchain/0.2.0/arm/arm-none-eabi/include/c++/10.3.1/cmath **** #undef nextafterf
1035:/Library/DaisyToolchain/0.2.0/arm/arm-none-eabi/include/c++/10.3.1/cmath **** #undef nextafterl
1036:/Library/DaisyToolchain/0.2.0/arm/arm-none-eabi/include/c++/10.3.1/cmath **** #undef nexttoward
1037:/Library/DaisyToolchain/0.2.0/arm/arm-none-eabi/include/c++/10.3.1/cmath **** #undef nexttowardf
1038:/Library/DaisyToolchain/0.2.0/arm/arm-none-eabi/include/c++/10.3.1/cmath **** #undef nexttowardl
1039:/Library/DaisyToolchain/0.2.0/arm/arm-none-eabi/include/c++/10.3.1/cmath **** #undef remainder
1040:/Library/DaisyToolchain/0.2.0/arm/arm-none-eabi/include/c++/10.3.1/cmath **** #undef remainderf
1041:/Library/DaisyToolchain/0.2.0/arm/arm-none-eabi/include/c++/10.3.1/cmath **** #undef remainderl
1042:/Library/DaisyToolchain/0.2.0/arm/arm-none-eabi/include/c++/10.3.1/cmath **** #undef remquo
1043:/Library/DaisyToolchain/0.2.0/arm/arm-none-eabi/include/c++/10.3.1/cmath **** #undef remquof
1044:/Library/DaisyToolchain/0.2.0/arm/arm-none-eabi/include/c++/10.3.1/cmath **** #undef remquol
1045:/Library/DaisyToolchain/0.2.0/arm/arm-none-eabi/include/c++/10.3.1/cmath **** #undef rint
1046:/Library/DaisyToolchain/0.2.0/arm/arm-none-eabi/include/c++/10.3.1/cmath **** #undef rintf
1047:/Library/DaisyToolchain/0.2.0/arm/arm-none-eabi/include/c++/10.3.1/cmath **** #undef rintl
1048:/Library/DaisyToolchain/0.2.0/arm/arm-none-eabi/include/c++/10.3.1/cmath **** #undef round
1049:/Library/DaisyToolchain/0.2.0/arm/arm-none-eabi/include/c++/10.3.1/cmath **** #undef roundf
1050:/Library/DaisyToolchain/0.2.0/arm/arm-none-eabi/include/c++/10.3.1/cmath **** #undef roundl
1051:/Library/DaisyToolchain/0.2.0/arm/arm-none-eabi/include/c++/10.3.1/cmath **** #undef scalbln
1052:/Library/DaisyToolchain/0.2.0/arm/arm-none-eabi/include/c++/10.3.1/cmath **** #undef scalblnf
1053:/Library/DaisyToolchain/0.2.0/arm/arm-none-eabi/include/c++/10.3.1/cmath **** #undef scalblnl
1054:/Library/DaisyToolchain/0.2.0/arm/arm-none-eabi/include/c++/10.3.1/cmath **** #undef scalbn
1055:/Library/DaisyToolchain/0.2.0/arm/arm-none-eabi/include/c++/10.3.1/cmath **** #undef scalbnf
1056:/Library/DaisyToolchain/0.2.0/arm/arm-none-eabi/include/c++/10.3.1/cmath **** #undef scalbnl
1057:/Library/DaisyToolchain/0.2.0/arm/arm-none-eabi/include/c++/10.3.1/cmath **** #undef tgamma
1058:/Library/DaisyToolchain/0.2.0/arm/arm-none-eabi/include/c++/10.3.1/cmath **** #undef tgammaf
1059:/Library/DaisyToolchain/0.2.0/arm/arm-none-eabi/include/c++/10.3.1/cmath **** #undef tgammal
1060:/Library/DaisyToolchain/0.2.0/arm/arm-none-eabi/include/c++/10.3.1/cmath **** #undef trunc
1061:/Library/DaisyToolchain/0.2.0/arm/arm-none-eabi/include/c++/10.3.1/cmath **** #undef truncf
1062:/Library/DaisyToolchain/0.2.0/arm/arm-none-eabi/include/c++/10.3.1/cmath **** #undef truncl
1063:/Library/DaisyToolchain/0.2.0/arm/arm-none-eabi/include/c++/10.3.1/cmath **** 
1064:/Library/DaisyToolchain/0.2.0/arm/arm-none-eabi/include/c++/10.3.1/cmath ****   // types
1065:/Library/DaisyToolchain/0.2.0/arm/arm-none-eabi/include/c++/10.3.1/cmath ****   using ::double_t;
1066:/Library/DaisyToolchain/0.2.0/arm/arm-none-eabi/include/c++/10.3.1/cmath ****   using ::float_t;
1067:/Library/DaisyToolchain/0.2.0/arm/arm-none-eabi/include/c++/10.3.1/cmath **** 
1068:/Library/DaisyToolchain/0.2.0/arm/arm-none-eabi/include/c++/10.3.1/cmath ****   // functions
1069:/Library/DaisyToolchain/0.2.0/arm/arm-none-eabi/include/c++/10.3.1/cmath ****   using ::acosh;
1070:/Library/DaisyToolchain/0.2.0/arm/arm-none-eabi/include/c++/10.3.1/cmath ****   using ::acoshf;
1071:/Library/DaisyToolchain/0.2.0/arm/arm-none-eabi/include/c++/10.3.1/cmath ****   using ::acoshl;
1072:/Library/DaisyToolchain/0.2.0/arm/arm-none-eabi/include/c++/10.3.1/cmath **** 
1073:/Library/DaisyToolchain/0.2.0/arm/arm-none-eabi/include/c++/10.3.1/cmath ****   using ::asinh;
1074:/Library/DaisyToolchain/0.2.0/arm/arm-none-eabi/include/c++/10.3.1/cmath ****   using ::asinhf;
1075:/Library/DaisyToolchain/0.2.0/arm/arm-none-eabi/include/c++/10.3.1/cmath ****   using ::asinhl;
ARM GAS  /var/folders/2p/02m_5p7958535cp2tpgps0400000gn/T//ccbqYDkS.s 			page 55


1076:/Library/DaisyToolchain/0.2.0/arm/arm-none-eabi/include/c++/10.3.1/cmath **** 
1077:/Library/DaisyToolchain/0.2.0/arm/arm-none-eabi/include/c++/10.3.1/cmath ****   using ::atanh;
1078:/Library/DaisyToolchain/0.2.0/arm/arm-none-eabi/include/c++/10.3.1/cmath ****   using ::atanhf;
1079:/Library/DaisyToolchain/0.2.0/arm/arm-none-eabi/include/c++/10.3.1/cmath ****   using ::atanhl;
1080:/Library/DaisyToolchain/0.2.0/arm/arm-none-eabi/include/c++/10.3.1/cmath **** 
1081:/Library/DaisyToolchain/0.2.0/arm/arm-none-eabi/include/c++/10.3.1/cmath ****   using ::cbrt;
1082:/Library/DaisyToolchain/0.2.0/arm/arm-none-eabi/include/c++/10.3.1/cmath ****   using ::cbrtf;
1083:/Library/DaisyToolchain/0.2.0/arm/arm-none-eabi/include/c++/10.3.1/cmath ****   using ::cbrtl;
1084:/Library/DaisyToolchain/0.2.0/arm/arm-none-eabi/include/c++/10.3.1/cmath **** 
1085:/Library/DaisyToolchain/0.2.0/arm/arm-none-eabi/include/c++/10.3.1/cmath ****   using ::copysign;
1086:/Library/DaisyToolchain/0.2.0/arm/arm-none-eabi/include/c++/10.3.1/cmath ****   using ::copysignf;
1087:/Library/DaisyToolchain/0.2.0/arm/arm-none-eabi/include/c++/10.3.1/cmath ****   using ::copysignl;
1088:/Library/DaisyToolchain/0.2.0/arm/arm-none-eabi/include/c++/10.3.1/cmath **** 
1089:/Library/DaisyToolchain/0.2.0/arm/arm-none-eabi/include/c++/10.3.1/cmath ****   using ::erf;
1090:/Library/DaisyToolchain/0.2.0/arm/arm-none-eabi/include/c++/10.3.1/cmath ****   using ::erff;
1091:/Library/DaisyToolchain/0.2.0/arm/arm-none-eabi/include/c++/10.3.1/cmath ****   using ::erfl;
1092:/Library/DaisyToolchain/0.2.0/arm/arm-none-eabi/include/c++/10.3.1/cmath **** 
1093:/Library/DaisyToolchain/0.2.0/arm/arm-none-eabi/include/c++/10.3.1/cmath ****   using ::erfc;
1094:/Library/DaisyToolchain/0.2.0/arm/arm-none-eabi/include/c++/10.3.1/cmath ****   using ::erfcf;
1095:/Library/DaisyToolchain/0.2.0/arm/arm-none-eabi/include/c++/10.3.1/cmath ****   using ::erfcl;
1096:/Library/DaisyToolchain/0.2.0/arm/arm-none-eabi/include/c++/10.3.1/cmath **** 
1097:/Library/DaisyToolchain/0.2.0/arm/arm-none-eabi/include/c++/10.3.1/cmath ****   using ::exp2;
1098:/Library/DaisyToolchain/0.2.0/arm/arm-none-eabi/include/c++/10.3.1/cmath ****   using ::exp2f;
1099:/Library/DaisyToolchain/0.2.0/arm/arm-none-eabi/include/c++/10.3.1/cmath ****   using ::exp2l;
1100:/Library/DaisyToolchain/0.2.0/arm/arm-none-eabi/include/c++/10.3.1/cmath **** 
1101:/Library/DaisyToolchain/0.2.0/arm/arm-none-eabi/include/c++/10.3.1/cmath ****   using ::expm1;
1102:/Library/DaisyToolchain/0.2.0/arm/arm-none-eabi/include/c++/10.3.1/cmath ****   using ::expm1f;
1103:/Library/DaisyToolchain/0.2.0/arm/arm-none-eabi/include/c++/10.3.1/cmath ****   using ::expm1l;
1104:/Library/DaisyToolchain/0.2.0/arm/arm-none-eabi/include/c++/10.3.1/cmath **** 
1105:/Library/DaisyToolchain/0.2.0/arm/arm-none-eabi/include/c++/10.3.1/cmath ****   using ::fdim;
1106:/Library/DaisyToolchain/0.2.0/arm/arm-none-eabi/include/c++/10.3.1/cmath ****   using ::fdimf;
1107:/Library/DaisyToolchain/0.2.0/arm/arm-none-eabi/include/c++/10.3.1/cmath ****   using ::fdiml;
1108:/Library/DaisyToolchain/0.2.0/arm/arm-none-eabi/include/c++/10.3.1/cmath **** 
1109:/Library/DaisyToolchain/0.2.0/arm/arm-none-eabi/include/c++/10.3.1/cmath ****   using ::fma;
1110:/Library/DaisyToolchain/0.2.0/arm/arm-none-eabi/include/c++/10.3.1/cmath ****   using ::fmaf;
1111:/Library/DaisyToolchain/0.2.0/arm/arm-none-eabi/include/c++/10.3.1/cmath ****   using ::fmal;
1112:/Library/DaisyToolchain/0.2.0/arm/arm-none-eabi/include/c++/10.3.1/cmath **** 
1113:/Library/DaisyToolchain/0.2.0/arm/arm-none-eabi/include/c++/10.3.1/cmath ****   using ::fmax;
1114:/Library/DaisyToolchain/0.2.0/arm/arm-none-eabi/include/c++/10.3.1/cmath ****   using ::fmaxf;
1115:/Library/DaisyToolchain/0.2.0/arm/arm-none-eabi/include/c++/10.3.1/cmath ****   using ::fmaxl;
1116:/Library/DaisyToolchain/0.2.0/arm/arm-none-eabi/include/c++/10.3.1/cmath **** 
1117:/Library/DaisyToolchain/0.2.0/arm/arm-none-eabi/include/c++/10.3.1/cmath ****   using ::fmin;
1118:/Library/DaisyToolchain/0.2.0/arm/arm-none-eabi/include/c++/10.3.1/cmath ****   using ::fminf;
1119:/Library/DaisyToolchain/0.2.0/arm/arm-none-eabi/include/c++/10.3.1/cmath ****   using ::fminl;
1120:/Library/DaisyToolchain/0.2.0/arm/arm-none-eabi/include/c++/10.3.1/cmath **** 
1121:/Library/DaisyToolchain/0.2.0/arm/arm-none-eabi/include/c++/10.3.1/cmath ****   using ::hypot;
1122:/Library/DaisyToolchain/0.2.0/arm/arm-none-eabi/include/c++/10.3.1/cmath ****   using ::hypotf;
1123:/Library/DaisyToolchain/0.2.0/arm/arm-none-eabi/include/c++/10.3.1/cmath ****   using ::hypotl;
1124:/Library/DaisyToolchain/0.2.0/arm/arm-none-eabi/include/c++/10.3.1/cmath **** 
1125:/Library/DaisyToolchain/0.2.0/arm/arm-none-eabi/include/c++/10.3.1/cmath ****   using ::ilogb;
1126:/Library/DaisyToolchain/0.2.0/arm/arm-none-eabi/include/c++/10.3.1/cmath ****   using ::ilogbf;
1127:/Library/DaisyToolchain/0.2.0/arm/arm-none-eabi/include/c++/10.3.1/cmath ****   using ::ilogbl;
1128:/Library/DaisyToolchain/0.2.0/arm/arm-none-eabi/include/c++/10.3.1/cmath **** 
1129:/Library/DaisyToolchain/0.2.0/arm/arm-none-eabi/include/c++/10.3.1/cmath ****   using ::lgamma;
1130:/Library/DaisyToolchain/0.2.0/arm/arm-none-eabi/include/c++/10.3.1/cmath ****   using ::lgammaf;
1131:/Library/DaisyToolchain/0.2.0/arm/arm-none-eabi/include/c++/10.3.1/cmath ****   using ::lgammal;
1132:/Library/DaisyToolchain/0.2.0/arm/arm-none-eabi/include/c++/10.3.1/cmath **** 
ARM GAS  /var/folders/2p/02m_5p7958535cp2tpgps0400000gn/T//ccbqYDkS.s 			page 56


1133:/Library/DaisyToolchain/0.2.0/arm/arm-none-eabi/include/c++/10.3.1/cmath **** #ifndef _GLIBCXX_NO_C99_ROUNDING_FUNCS
1134:/Library/DaisyToolchain/0.2.0/arm/arm-none-eabi/include/c++/10.3.1/cmath ****   using ::llrint;
1135:/Library/DaisyToolchain/0.2.0/arm/arm-none-eabi/include/c++/10.3.1/cmath ****   using ::llrintf;
1136:/Library/DaisyToolchain/0.2.0/arm/arm-none-eabi/include/c++/10.3.1/cmath ****   using ::llrintl;
1137:/Library/DaisyToolchain/0.2.0/arm/arm-none-eabi/include/c++/10.3.1/cmath **** 
1138:/Library/DaisyToolchain/0.2.0/arm/arm-none-eabi/include/c++/10.3.1/cmath ****   using ::llround;
1139:/Library/DaisyToolchain/0.2.0/arm/arm-none-eabi/include/c++/10.3.1/cmath ****   using ::llroundf;
1140:/Library/DaisyToolchain/0.2.0/arm/arm-none-eabi/include/c++/10.3.1/cmath ****   using ::llroundl;
1141:/Library/DaisyToolchain/0.2.0/arm/arm-none-eabi/include/c++/10.3.1/cmath **** #endif
1142:/Library/DaisyToolchain/0.2.0/arm/arm-none-eabi/include/c++/10.3.1/cmath **** 
1143:/Library/DaisyToolchain/0.2.0/arm/arm-none-eabi/include/c++/10.3.1/cmath ****   using ::log1p;
1144:/Library/DaisyToolchain/0.2.0/arm/arm-none-eabi/include/c++/10.3.1/cmath ****   using ::log1pf;
1145:/Library/DaisyToolchain/0.2.0/arm/arm-none-eabi/include/c++/10.3.1/cmath ****   using ::log1pl;
1146:/Library/DaisyToolchain/0.2.0/arm/arm-none-eabi/include/c++/10.3.1/cmath **** 
1147:/Library/DaisyToolchain/0.2.0/arm/arm-none-eabi/include/c++/10.3.1/cmath ****   using ::log2;
1148:/Library/DaisyToolchain/0.2.0/arm/arm-none-eabi/include/c++/10.3.1/cmath ****   using ::log2f;
1149:/Library/DaisyToolchain/0.2.0/arm/arm-none-eabi/include/c++/10.3.1/cmath ****   using ::log2l;
1150:/Library/DaisyToolchain/0.2.0/arm/arm-none-eabi/include/c++/10.3.1/cmath **** 
1151:/Library/DaisyToolchain/0.2.0/arm/arm-none-eabi/include/c++/10.3.1/cmath ****   using ::logb;
1152:/Library/DaisyToolchain/0.2.0/arm/arm-none-eabi/include/c++/10.3.1/cmath ****   using ::logbf;
1153:/Library/DaisyToolchain/0.2.0/arm/arm-none-eabi/include/c++/10.3.1/cmath ****   using ::logbl;
1154:/Library/DaisyToolchain/0.2.0/arm/arm-none-eabi/include/c++/10.3.1/cmath **** 
1155:/Library/DaisyToolchain/0.2.0/arm/arm-none-eabi/include/c++/10.3.1/cmath ****   using ::lrint;
1156:/Library/DaisyToolchain/0.2.0/arm/arm-none-eabi/include/c++/10.3.1/cmath ****   using ::lrintf;
1157:/Library/DaisyToolchain/0.2.0/arm/arm-none-eabi/include/c++/10.3.1/cmath ****   using ::lrintl;
1158:/Library/DaisyToolchain/0.2.0/arm/arm-none-eabi/include/c++/10.3.1/cmath **** 
1159:/Library/DaisyToolchain/0.2.0/arm/arm-none-eabi/include/c++/10.3.1/cmath ****   using ::lround;
1160:/Library/DaisyToolchain/0.2.0/arm/arm-none-eabi/include/c++/10.3.1/cmath ****   using ::lroundf;
1161:/Library/DaisyToolchain/0.2.0/arm/arm-none-eabi/include/c++/10.3.1/cmath ****   using ::lroundl;
1162:/Library/DaisyToolchain/0.2.0/arm/arm-none-eabi/include/c++/10.3.1/cmath **** 
1163:/Library/DaisyToolchain/0.2.0/arm/arm-none-eabi/include/c++/10.3.1/cmath ****   using ::nan;
1164:/Library/DaisyToolchain/0.2.0/arm/arm-none-eabi/include/c++/10.3.1/cmath ****   using ::nanf;
1165:/Library/DaisyToolchain/0.2.0/arm/arm-none-eabi/include/c++/10.3.1/cmath ****   using ::nanl;
1166:/Library/DaisyToolchain/0.2.0/arm/arm-none-eabi/include/c++/10.3.1/cmath **** 
1167:/Library/DaisyToolchain/0.2.0/arm/arm-none-eabi/include/c++/10.3.1/cmath ****   using ::nearbyint;
1168:/Library/DaisyToolchain/0.2.0/arm/arm-none-eabi/include/c++/10.3.1/cmath ****   using ::nearbyintf;
1169:/Library/DaisyToolchain/0.2.0/arm/arm-none-eabi/include/c++/10.3.1/cmath ****   using ::nearbyintl;
1170:/Library/DaisyToolchain/0.2.0/arm/arm-none-eabi/include/c++/10.3.1/cmath **** 
1171:/Library/DaisyToolchain/0.2.0/arm/arm-none-eabi/include/c++/10.3.1/cmath ****   using ::nextafter;
1172:/Library/DaisyToolchain/0.2.0/arm/arm-none-eabi/include/c++/10.3.1/cmath ****   using ::nextafterf;
1173:/Library/DaisyToolchain/0.2.0/arm/arm-none-eabi/include/c++/10.3.1/cmath ****   using ::nextafterl;
1174:/Library/DaisyToolchain/0.2.0/arm/arm-none-eabi/include/c++/10.3.1/cmath **** 
1175:/Library/DaisyToolchain/0.2.0/arm/arm-none-eabi/include/c++/10.3.1/cmath ****   using ::nexttoward;
1176:/Library/DaisyToolchain/0.2.0/arm/arm-none-eabi/include/c++/10.3.1/cmath ****   using ::nexttowardf;
1177:/Library/DaisyToolchain/0.2.0/arm/arm-none-eabi/include/c++/10.3.1/cmath ****   using ::nexttowardl;
1178:/Library/DaisyToolchain/0.2.0/arm/arm-none-eabi/include/c++/10.3.1/cmath **** 
1179:/Library/DaisyToolchain/0.2.0/arm/arm-none-eabi/include/c++/10.3.1/cmath ****   using ::remainder;
1180:/Library/DaisyToolchain/0.2.0/arm/arm-none-eabi/include/c++/10.3.1/cmath ****   using ::remainderf;
1181:/Library/DaisyToolchain/0.2.0/arm/arm-none-eabi/include/c++/10.3.1/cmath ****   using ::remainderl;
1182:/Library/DaisyToolchain/0.2.0/arm/arm-none-eabi/include/c++/10.3.1/cmath **** 
1183:/Library/DaisyToolchain/0.2.0/arm/arm-none-eabi/include/c++/10.3.1/cmath ****   using ::remquo;
1184:/Library/DaisyToolchain/0.2.0/arm/arm-none-eabi/include/c++/10.3.1/cmath ****   using ::remquof;
1185:/Library/DaisyToolchain/0.2.0/arm/arm-none-eabi/include/c++/10.3.1/cmath ****   using ::remquol;
1186:/Library/DaisyToolchain/0.2.0/arm/arm-none-eabi/include/c++/10.3.1/cmath **** 
1187:/Library/DaisyToolchain/0.2.0/arm/arm-none-eabi/include/c++/10.3.1/cmath ****   using ::rint;
1188:/Library/DaisyToolchain/0.2.0/arm/arm-none-eabi/include/c++/10.3.1/cmath ****   using ::rintf;
1189:/Library/DaisyToolchain/0.2.0/arm/arm-none-eabi/include/c++/10.3.1/cmath ****   using ::rintl;
ARM GAS  /var/folders/2p/02m_5p7958535cp2tpgps0400000gn/T//ccbqYDkS.s 			page 57


1190:/Library/DaisyToolchain/0.2.0/arm/arm-none-eabi/include/c++/10.3.1/cmath **** 
1191:/Library/DaisyToolchain/0.2.0/arm/arm-none-eabi/include/c++/10.3.1/cmath ****   using ::round;
1192:/Library/DaisyToolchain/0.2.0/arm/arm-none-eabi/include/c++/10.3.1/cmath ****   using ::roundf;
1193:/Library/DaisyToolchain/0.2.0/arm/arm-none-eabi/include/c++/10.3.1/cmath ****   using ::roundl;
1194:/Library/DaisyToolchain/0.2.0/arm/arm-none-eabi/include/c++/10.3.1/cmath **** 
1195:/Library/DaisyToolchain/0.2.0/arm/arm-none-eabi/include/c++/10.3.1/cmath ****   using ::scalbln;
1196:/Library/DaisyToolchain/0.2.0/arm/arm-none-eabi/include/c++/10.3.1/cmath ****   using ::scalblnf;
1197:/Library/DaisyToolchain/0.2.0/arm/arm-none-eabi/include/c++/10.3.1/cmath ****   using ::scalblnl;
1198:/Library/DaisyToolchain/0.2.0/arm/arm-none-eabi/include/c++/10.3.1/cmath **** 
1199:/Library/DaisyToolchain/0.2.0/arm/arm-none-eabi/include/c++/10.3.1/cmath ****   using ::scalbn;
1200:/Library/DaisyToolchain/0.2.0/arm/arm-none-eabi/include/c++/10.3.1/cmath ****   using ::scalbnf;
1201:/Library/DaisyToolchain/0.2.0/arm/arm-none-eabi/include/c++/10.3.1/cmath ****   using ::scalbnl;
1202:/Library/DaisyToolchain/0.2.0/arm/arm-none-eabi/include/c++/10.3.1/cmath **** 
1203:/Library/DaisyToolchain/0.2.0/arm/arm-none-eabi/include/c++/10.3.1/cmath ****   using ::tgamma;
1204:/Library/DaisyToolchain/0.2.0/arm/arm-none-eabi/include/c++/10.3.1/cmath ****   using ::tgammaf;
1205:/Library/DaisyToolchain/0.2.0/arm/arm-none-eabi/include/c++/10.3.1/cmath ****   using ::tgammal;
1206:/Library/DaisyToolchain/0.2.0/arm/arm-none-eabi/include/c++/10.3.1/cmath **** 
1207:/Library/DaisyToolchain/0.2.0/arm/arm-none-eabi/include/c++/10.3.1/cmath ****   using ::trunc;
1208:/Library/DaisyToolchain/0.2.0/arm/arm-none-eabi/include/c++/10.3.1/cmath ****   using ::truncf;
1209:/Library/DaisyToolchain/0.2.0/arm/arm-none-eabi/include/c++/10.3.1/cmath ****   using ::truncl;
1210:/Library/DaisyToolchain/0.2.0/arm/arm-none-eabi/include/c++/10.3.1/cmath **** 
1211:/Library/DaisyToolchain/0.2.0/arm/arm-none-eabi/include/c++/10.3.1/cmath ****   /// Additional overloads.
1212:/Library/DaisyToolchain/0.2.0/arm/arm-none-eabi/include/c++/10.3.1/cmath **** #ifndef __CORRECT_ISO_CPP11_MATH_H_PROTO_FP
1213:/Library/DaisyToolchain/0.2.0/arm/arm-none-eabi/include/c++/10.3.1/cmath ****   constexpr float
1214:/Library/DaisyToolchain/0.2.0/arm/arm-none-eabi/include/c++/10.3.1/cmath ****   acosh(float __x)
1215:/Library/DaisyToolchain/0.2.0/arm/arm-none-eabi/include/c++/10.3.1/cmath ****   { return __builtin_acoshf(__x); }
1216:/Library/DaisyToolchain/0.2.0/arm/arm-none-eabi/include/c++/10.3.1/cmath **** 
1217:/Library/DaisyToolchain/0.2.0/arm/arm-none-eabi/include/c++/10.3.1/cmath ****   constexpr long double
1218:/Library/DaisyToolchain/0.2.0/arm/arm-none-eabi/include/c++/10.3.1/cmath ****   acosh(long double __x)
1219:/Library/DaisyToolchain/0.2.0/arm/arm-none-eabi/include/c++/10.3.1/cmath ****   { return __builtin_acoshl(__x); }
1220:/Library/DaisyToolchain/0.2.0/arm/arm-none-eabi/include/c++/10.3.1/cmath **** #endif
1221:/Library/DaisyToolchain/0.2.0/arm/arm-none-eabi/include/c++/10.3.1/cmath **** 
1222:/Library/DaisyToolchain/0.2.0/arm/arm-none-eabi/include/c++/10.3.1/cmath **** #ifndef __CORRECT_ISO_CPP11_MATH_H_PROTO_INT
1223:/Library/DaisyToolchain/0.2.0/arm/arm-none-eabi/include/c++/10.3.1/cmath ****   template<typename _Tp>
1224:/Library/DaisyToolchain/0.2.0/arm/arm-none-eabi/include/c++/10.3.1/cmath ****     constexpr typename __gnu_cxx::__enable_if<__is_integer<_Tp>::__value, 
1225:/Library/DaisyToolchain/0.2.0/arm/arm-none-eabi/include/c++/10.3.1/cmath ****                                               double>::__type
1226:/Library/DaisyToolchain/0.2.0/arm/arm-none-eabi/include/c++/10.3.1/cmath ****     acosh(_Tp __x)
1227:/Library/DaisyToolchain/0.2.0/arm/arm-none-eabi/include/c++/10.3.1/cmath ****     { return __builtin_acosh(__x); }
1228:/Library/DaisyToolchain/0.2.0/arm/arm-none-eabi/include/c++/10.3.1/cmath **** #endif
1229:/Library/DaisyToolchain/0.2.0/arm/arm-none-eabi/include/c++/10.3.1/cmath **** 
1230:/Library/DaisyToolchain/0.2.0/arm/arm-none-eabi/include/c++/10.3.1/cmath **** #ifndef __CORRECT_ISO_CPP11_MATH_H_PROTO_FP
1231:/Library/DaisyToolchain/0.2.0/arm/arm-none-eabi/include/c++/10.3.1/cmath ****   constexpr float
1232:/Library/DaisyToolchain/0.2.0/arm/arm-none-eabi/include/c++/10.3.1/cmath ****   asinh(float __x)
1233:/Library/DaisyToolchain/0.2.0/arm/arm-none-eabi/include/c++/10.3.1/cmath ****   { return __builtin_asinhf(__x); }
1234:/Library/DaisyToolchain/0.2.0/arm/arm-none-eabi/include/c++/10.3.1/cmath **** 
1235:/Library/DaisyToolchain/0.2.0/arm/arm-none-eabi/include/c++/10.3.1/cmath ****   constexpr long double
1236:/Library/DaisyToolchain/0.2.0/arm/arm-none-eabi/include/c++/10.3.1/cmath ****   asinh(long double __x)
1237:/Library/DaisyToolchain/0.2.0/arm/arm-none-eabi/include/c++/10.3.1/cmath ****   { return __builtin_asinhl(__x); }
1238:/Library/DaisyToolchain/0.2.0/arm/arm-none-eabi/include/c++/10.3.1/cmath **** #endif
1239:/Library/DaisyToolchain/0.2.0/arm/arm-none-eabi/include/c++/10.3.1/cmath **** 
1240:/Library/DaisyToolchain/0.2.0/arm/arm-none-eabi/include/c++/10.3.1/cmath **** #ifndef __CORRECT_ISO_CPP11_MATH_H_PROTO_INT
1241:/Library/DaisyToolchain/0.2.0/arm/arm-none-eabi/include/c++/10.3.1/cmath ****   template<typename _Tp>
1242:/Library/DaisyToolchain/0.2.0/arm/arm-none-eabi/include/c++/10.3.1/cmath ****     constexpr typename __gnu_cxx::__enable_if<__is_integer<_Tp>::__value, 
1243:/Library/DaisyToolchain/0.2.0/arm/arm-none-eabi/include/c++/10.3.1/cmath ****                                               double>::__type
1244:/Library/DaisyToolchain/0.2.0/arm/arm-none-eabi/include/c++/10.3.1/cmath ****     asinh(_Tp __x)
1245:/Library/DaisyToolchain/0.2.0/arm/arm-none-eabi/include/c++/10.3.1/cmath ****     { return __builtin_asinh(__x); }
1246:/Library/DaisyToolchain/0.2.0/arm/arm-none-eabi/include/c++/10.3.1/cmath **** #endif
ARM GAS  /var/folders/2p/02m_5p7958535cp2tpgps0400000gn/T//ccbqYDkS.s 			page 58


1247:/Library/DaisyToolchain/0.2.0/arm/arm-none-eabi/include/c++/10.3.1/cmath **** 
1248:/Library/DaisyToolchain/0.2.0/arm/arm-none-eabi/include/c++/10.3.1/cmath **** #ifndef __CORRECT_ISO_CPP11_MATH_H_PROTO_FP
1249:/Library/DaisyToolchain/0.2.0/arm/arm-none-eabi/include/c++/10.3.1/cmath ****   constexpr float
1250:/Library/DaisyToolchain/0.2.0/arm/arm-none-eabi/include/c++/10.3.1/cmath ****   atanh(float __x)
1251:/Library/DaisyToolchain/0.2.0/arm/arm-none-eabi/include/c++/10.3.1/cmath ****   { return __builtin_atanhf(__x); }
1252:/Library/DaisyToolchain/0.2.0/arm/arm-none-eabi/include/c++/10.3.1/cmath **** 
1253:/Library/DaisyToolchain/0.2.0/arm/arm-none-eabi/include/c++/10.3.1/cmath ****   constexpr long double
1254:/Library/DaisyToolchain/0.2.0/arm/arm-none-eabi/include/c++/10.3.1/cmath ****   atanh(long double __x)
1255:/Library/DaisyToolchain/0.2.0/arm/arm-none-eabi/include/c++/10.3.1/cmath ****   { return __builtin_atanhl(__x); }
1256:/Library/DaisyToolchain/0.2.0/arm/arm-none-eabi/include/c++/10.3.1/cmath **** #endif
1257:/Library/DaisyToolchain/0.2.0/arm/arm-none-eabi/include/c++/10.3.1/cmath **** 
1258:/Library/DaisyToolchain/0.2.0/arm/arm-none-eabi/include/c++/10.3.1/cmath **** #ifndef __CORRECT_ISO_CPP11_MATH_H_PROTO_INT
1259:/Library/DaisyToolchain/0.2.0/arm/arm-none-eabi/include/c++/10.3.1/cmath ****   template<typename _Tp>
1260:/Library/DaisyToolchain/0.2.0/arm/arm-none-eabi/include/c++/10.3.1/cmath ****     constexpr typename __gnu_cxx::__enable_if<__is_integer<_Tp>::__value, 
1261:/Library/DaisyToolchain/0.2.0/arm/arm-none-eabi/include/c++/10.3.1/cmath ****                                               double>::__type
1262:/Library/DaisyToolchain/0.2.0/arm/arm-none-eabi/include/c++/10.3.1/cmath ****     atanh(_Tp __x)
1263:/Library/DaisyToolchain/0.2.0/arm/arm-none-eabi/include/c++/10.3.1/cmath ****     { return __builtin_atanh(__x); }
1264:/Library/DaisyToolchain/0.2.0/arm/arm-none-eabi/include/c++/10.3.1/cmath **** #endif
1265:/Library/DaisyToolchain/0.2.0/arm/arm-none-eabi/include/c++/10.3.1/cmath **** 
1266:/Library/DaisyToolchain/0.2.0/arm/arm-none-eabi/include/c++/10.3.1/cmath **** #ifndef __CORRECT_ISO_CPP11_MATH_H_PROTO_FP
1267:/Library/DaisyToolchain/0.2.0/arm/arm-none-eabi/include/c++/10.3.1/cmath ****   constexpr float
1268:/Library/DaisyToolchain/0.2.0/arm/arm-none-eabi/include/c++/10.3.1/cmath ****   cbrt(float __x)
1269:/Library/DaisyToolchain/0.2.0/arm/arm-none-eabi/include/c++/10.3.1/cmath ****   { return __builtin_cbrtf(__x); }
1270:/Library/DaisyToolchain/0.2.0/arm/arm-none-eabi/include/c++/10.3.1/cmath **** 
1271:/Library/DaisyToolchain/0.2.0/arm/arm-none-eabi/include/c++/10.3.1/cmath ****   constexpr long double
1272:/Library/DaisyToolchain/0.2.0/arm/arm-none-eabi/include/c++/10.3.1/cmath ****   cbrt(long double __x)
1273:/Library/DaisyToolchain/0.2.0/arm/arm-none-eabi/include/c++/10.3.1/cmath ****   { return __builtin_cbrtl(__x); }
1274:/Library/DaisyToolchain/0.2.0/arm/arm-none-eabi/include/c++/10.3.1/cmath **** #endif
1275:/Library/DaisyToolchain/0.2.0/arm/arm-none-eabi/include/c++/10.3.1/cmath **** 
1276:/Library/DaisyToolchain/0.2.0/arm/arm-none-eabi/include/c++/10.3.1/cmath **** #ifndef __CORRECT_ISO_CPP11_MATH_H_PROTO_INT
1277:/Library/DaisyToolchain/0.2.0/arm/arm-none-eabi/include/c++/10.3.1/cmath ****   template<typename _Tp>
1278:/Library/DaisyToolchain/0.2.0/arm/arm-none-eabi/include/c++/10.3.1/cmath ****     constexpr typename __gnu_cxx::__enable_if<__is_integer<_Tp>::__value, 
1279:/Library/DaisyToolchain/0.2.0/arm/arm-none-eabi/include/c++/10.3.1/cmath ****                                               double>::__type
1280:/Library/DaisyToolchain/0.2.0/arm/arm-none-eabi/include/c++/10.3.1/cmath ****     cbrt(_Tp __x)
1281:/Library/DaisyToolchain/0.2.0/arm/arm-none-eabi/include/c++/10.3.1/cmath ****     { return __builtin_cbrt(__x); }
1282:/Library/DaisyToolchain/0.2.0/arm/arm-none-eabi/include/c++/10.3.1/cmath **** #endif
1283:/Library/DaisyToolchain/0.2.0/arm/arm-none-eabi/include/c++/10.3.1/cmath **** 
1284:/Library/DaisyToolchain/0.2.0/arm/arm-none-eabi/include/c++/10.3.1/cmath **** #ifndef __CORRECT_ISO_CPP11_MATH_H_PROTO_FP
1285:/Library/DaisyToolchain/0.2.0/arm/arm-none-eabi/include/c++/10.3.1/cmath ****   constexpr float
1286:/Library/DaisyToolchain/0.2.0/arm/arm-none-eabi/include/c++/10.3.1/cmath ****   copysign(float __x, float __y)
1287:/Library/DaisyToolchain/0.2.0/arm/arm-none-eabi/include/c++/10.3.1/cmath ****   { return __builtin_copysignf(__x, __y); }
1288:/Library/DaisyToolchain/0.2.0/arm/arm-none-eabi/include/c++/10.3.1/cmath **** 
1289:/Library/DaisyToolchain/0.2.0/arm/arm-none-eabi/include/c++/10.3.1/cmath ****   constexpr long double
1290:/Library/DaisyToolchain/0.2.0/arm/arm-none-eabi/include/c++/10.3.1/cmath ****   copysign(long double __x, long double __y)
1291:/Library/DaisyToolchain/0.2.0/arm/arm-none-eabi/include/c++/10.3.1/cmath ****   { return __builtin_copysignl(__x, __y); }
1292:/Library/DaisyToolchain/0.2.0/arm/arm-none-eabi/include/c++/10.3.1/cmath **** #endif
1293:/Library/DaisyToolchain/0.2.0/arm/arm-none-eabi/include/c++/10.3.1/cmath **** 
1294:/Library/DaisyToolchain/0.2.0/arm/arm-none-eabi/include/c++/10.3.1/cmath **** #ifndef __CORRECT_ISO_CPP11_MATH_H_PROTO_INT
1295:/Library/DaisyToolchain/0.2.0/arm/arm-none-eabi/include/c++/10.3.1/cmath ****   template<typename _Tp, typename _Up>
1296:/Library/DaisyToolchain/0.2.0/arm/arm-none-eabi/include/c++/10.3.1/cmath ****     constexpr typename __gnu_cxx::__promote_2<_Tp, _Up>::__type
1297:/Library/DaisyToolchain/0.2.0/arm/arm-none-eabi/include/c++/10.3.1/cmath ****     copysign(_Tp __x, _Up __y)
1298:/Library/DaisyToolchain/0.2.0/arm/arm-none-eabi/include/c++/10.3.1/cmath ****     {
1299:/Library/DaisyToolchain/0.2.0/arm/arm-none-eabi/include/c++/10.3.1/cmath ****       typedef typename __gnu_cxx::__promote_2<_Tp, _Up>::__type __type;
1300:/Library/DaisyToolchain/0.2.0/arm/arm-none-eabi/include/c++/10.3.1/cmath ****       return copysign(__type(__x), __type(__y));
1301:/Library/DaisyToolchain/0.2.0/arm/arm-none-eabi/include/c++/10.3.1/cmath ****     }
1302:/Library/DaisyToolchain/0.2.0/arm/arm-none-eabi/include/c++/10.3.1/cmath **** #endif
1303:/Library/DaisyToolchain/0.2.0/arm/arm-none-eabi/include/c++/10.3.1/cmath **** 
ARM GAS  /var/folders/2p/02m_5p7958535cp2tpgps0400000gn/T//ccbqYDkS.s 			page 59


1304:/Library/DaisyToolchain/0.2.0/arm/arm-none-eabi/include/c++/10.3.1/cmath **** #ifndef __CORRECT_ISO_CPP11_MATH_H_PROTO_FP
1305:/Library/DaisyToolchain/0.2.0/arm/arm-none-eabi/include/c++/10.3.1/cmath ****   constexpr float
1306:/Library/DaisyToolchain/0.2.0/arm/arm-none-eabi/include/c++/10.3.1/cmath ****   erf(float __x)
1307:/Library/DaisyToolchain/0.2.0/arm/arm-none-eabi/include/c++/10.3.1/cmath ****   { return __builtin_erff(__x); }
1308:/Library/DaisyToolchain/0.2.0/arm/arm-none-eabi/include/c++/10.3.1/cmath **** 
1309:/Library/DaisyToolchain/0.2.0/arm/arm-none-eabi/include/c++/10.3.1/cmath ****   constexpr long double
1310:/Library/DaisyToolchain/0.2.0/arm/arm-none-eabi/include/c++/10.3.1/cmath ****   erf(long double __x)
1311:/Library/DaisyToolchain/0.2.0/arm/arm-none-eabi/include/c++/10.3.1/cmath ****   { return __builtin_erfl(__x); }
1312:/Library/DaisyToolchain/0.2.0/arm/arm-none-eabi/include/c++/10.3.1/cmath **** #endif
1313:/Library/DaisyToolchain/0.2.0/arm/arm-none-eabi/include/c++/10.3.1/cmath **** 
1314:/Library/DaisyToolchain/0.2.0/arm/arm-none-eabi/include/c++/10.3.1/cmath **** #ifndef __CORRECT_ISO_CPP11_MATH_H_PROTO_INT
1315:/Library/DaisyToolchain/0.2.0/arm/arm-none-eabi/include/c++/10.3.1/cmath ****   template<typename _Tp>
1316:/Library/DaisyToolchain/0.2.0/arm/arm-none-eabi/include/c++/10.3.1/cmath ****     constexpr typename __gnu_cxx::__enable_if<__is_integer<_Tp>::__value, 
1317:/Library/DaisyToolchain/0.2.0/arm/arm-none-eabi/include/c++/10.3.1/cmath ****                                               double>::__type
1318:/Library/DaisyToolchain/0.2.0/arm/arm-none-eabi/include/c++/10.3.1/cmath ****     erf(_Tp __x)
1319:/Library/DaisyToolchain/0.2.0/arm/arm-none-eabi/include/c++/10.3.1/cmath ****     { return __builtin_erf(__x); }
1320:/Library/DaisyToolchain/0.2.0/arm/arm-none-eabi/include/c++/10.3.1/cmath **** #endif
1321:/Library/DaisyToolchain/0.2.0/arm/arm-none-eabi/include/c++/10.3.1/cmath **** 
1322:/Library/DaisyToolchain/0.2.0/arm/arm-none-eabi/include/c++/10.3.1/cmath **** #ifndef __CORRECT_ISO_CPP11_MATH_H_PROTO_FP
1323:/Library/DaisyToolchain/0.2.0/arm/arm-none-eabi/include/c++/10.3.1/cmath ****   constexpr float
1324:/Library/DaisyToolchain/0.2.0/arm/arm-none-eabi/include/c++/10.3.1/cmath ****   erfc(float __x)
1325:/Library/DaisyToolchain/0.2.0/arm/arm-none-eabi/include/c++/10.3.1/cmath ****   { return __builtin_erfcf(__x); }
1326:/Library/DaisyToolchain/0.2.0/arm/arm-none-eabi/include/c++/10.3.1/cmath **** 
1327:/Library/DaisyToolchain/0.2.0/arm/arm-none-eabi/include/c++/10.3.1/cmath ****   constexpr long double
1328:/Library/DaisyToolchain/0.2.0/arm/arm-none-eabi/include/c++/10.3.1/cmath ****   erfc(long double __x)
1329:/Library/DaisyToolchain/0.2.0/arm/arm-none-eabi/include/c++/10.3.1/cmath ****   { return __builtin_erfcl(__x); }
1330:/Library/DaisyToolchain/0.2.0/arm/arm-none-eabi/include/c++/10.3.1/cmath **** #endif
1331:/Library/DaisyToolchain/0.2.0/arm/arm-none-eabi/include/c++/10.3.1/cmath **** 
1332:/Library/DaisyToolchain/0.2.0/arm/arm-none-eabi/include/c++/10.3.1/cmath **** #ifndef __CORRECT_ISO_CPP11_MATH_H_PROTO_INT
1333:/Library/DaisyToolchain/0.2.0/arm/arm-none-eabi/include/c++/10.3.1/cmath ****   template<typename _Tp>
1334:/Library/DaisyToolchain/0.2.0/arm/arm-none-eabi/include/c++/10.3.1/cmath ****     constexpr typename __gnu_cxx::__enable_if<__is_integer<_Tp>::__value, 
1335:/Library/DaisyToolchain/0.2.0/arm/arm-none-eabi/include/c++/10.3.1/cmath ****                                               double>::__type
1336:/Library/DaisyToolchain/0.2.0/arm/arm-none-eabi/include/c++/10.3.1/cmath ****     erfc(_Tp __x)
1337:/Library/DaisyToolchain/0.2.0/arm/arm-none-eabi/include/c++/10.3.1/cmath ****     { return __builtin_erfc(__x); }
1338:/Library/DaisyToolchain/0.2.0/arm/arm-none-eabi/include/c++/10.3.1/cmath **** #endif
1339:/Library/DaisyToolchain/0.2.0/arm/arm-none-eabi/include/c++/10.3.1/cmath **** 
1340:/Library/DaisyToolchain/0.2.0/arm/arm-none-eabi/include/c++/10.3.1/cmath **** #ifndef __CORRECT_ISO_CPP11_MATH_H_PROTO_FP
1341:/Library/DaisyToolchain/0.2.0/arm/arm-none-eabi/include/c++/10.3.1/cmath ****   constexpr float
1342:/Library/DaisyToolchain/0.2.0/arm/arm-none-eabi/include/c++/10.3.1/cmath ****   exp2(float __x)
1343:/Library/DaisyToolchain/0.2.0/arm/arm-none-eabi/include/c++/10.3.1/cmath ****   { return __builtin_exp2f(__x); }
1344:/Library/DaisyToolchain/0.2.0/arm/arm-none-eabi/include/c++/10.3.1/cmath **** 
1345:/Library/DaisyToolchain/0.2.0/arm/arm-none-eabi/include/c++/10.3.1/cmath ****   constexpr long double
1346:/Library/DaisyToolchain/0.2.0/arm/arm-none-eabi/include/c++/10.3.1/cmath ****   exp2(long double __x)
1347:/Library/DaisyToolchain/0.2.0/arm/arm-none-eabi/include/c++/10.3.1/cmath ****   { return __builtin_exp2l(__x); }
1348:/Library/DaisyToolchain/0.2.0/arm/arm-none-eabi/include/c++/10.3.1/cmath **** #endif
1349:/Library/DaisyToolchain/0.2.0/arm/arm-none-eabi/include/c++/10.3.1/cmath **** 
1350:/Library/DaisyToolchain/0.2.0/arm/arm-none-eabi/include/c++/10.3.1/cmath **** #ifndef __CORRECT_ISO_CPP11_MATH_H_PROTO_INT
1351:/Library/DaisyToolchain/0.2.0/arm/arm-none-eabi/include/c++/10.3.1/cmath ****   template<typename _Tp>
1352:/Library/DaisyToolchain/0.2.0/arm/arm-none-eabi/include/c++/10.3.1/cmath ****     constexpr typename __gnu_cxx::__enable_if<__is_integer<_Tp>::__value, 
1353:/Library/DaisyToolchain/0.2.0/arm/arm-none-eabi/include/c++/10.3.1/cmath ****                                               double>::__type
1354:/Library/DaisyToolchain/0.2.0/arm/arm-none-eabi/include/c++/10.3.1/cmath ****     exp2(_Tp __x)
1355:/Library/DaisyToolchain/0.2.0/arm/arm-none-eabi/include/c++/10.3.1/cmath ****     { return __builtin_exp2(__x); }
1356:/Library/DaisyToolchain/0.2.0/arm/arm-none-eabi/include/c++/10.3.1/cmath **** #endif
1357:/Library/DaisyToolchain/0.2.0/arm/arm-none-eabi/include/c++/10.3.1/cmath **** 
1358:/Library/DaisyToolchain/0.2.0/arm/arm-none-eabi/include/c++/10.3.1/cmath **** #ifndef __CORRECT_ISO_CPP11_MATH_H_PROTO_FP
1359:/Library/DaisyToolchain/0.2.0/arm/arm-none-eabi/include/c++/10.3.1/cmath ****   constexpr float
1360:/Library/DaisyToolchain/0.2.0/arm/arm-none-eabi/include/c++/10.3.1/cmath ****   expm1(float __x)
ARM GAS  /var/folders/2p/02m_5p7958535cp2tpgps0400000gn/T//ccbqYDkS.s 			page 60


1361:/Library/DaisyToolchain/0.2.0/arm/arm-none-eabi/include/c++/10.3.1/cmath ****   { return __builtin_expm1f(__x); }
1362:/Library/DaisyToolchain/0.2.0/arm/arm-none-eabi/include/c++/10.3.1/cmath **** 
1363:/Library/DaisyToolchain/0.2.0/arm/arm-none-eabi/include/c++/10.3.1/cmath ****   constexpr long double
1364:/Library/DaisyToolchain/0.2.0/arm/arm-none-eabi/include/c++/10.3.1/cmath ****   expm1(long double __x)
1365:/Library/DaisyToolchain/0.2.0/arm/arm-none-eabi/include/c++/10.3.1/cmath ****   { return __builtin_expm1l(__x); }
1366:/Library/DaisyToolchain/0.2.0/arm/arm-none-eabi/include/c++/10.3.1/cmath **** #endif
1367:/Library/DaisyToolchain/0.2.0/arm/arm-none-eabi/include/c++/10.3.1/cmath **** 
1368:/Library/DaisyToolchain/0.2.0/arm/arm-none-eabi/include/c++/10.3.1/cmath **** #ifndef __CORRECT_ISO_CPP11_MATH_H_PROTO_INT
1369:/Library/DaisyToolchain/0.2.0/arm/arm-none-eabi/include/c++/10.3.1/cmath ****   template<typename _Tp>
1370:/Library/DaisyToolchain/0.2.0/arm/arm-none-eabi/include/c++/10.3.1/cmath ****     constexpr typename __gnu_cxx::__enable_if<__is_integer<_Tp>::__value, 
1371:/Library/DaisyToolchain/0.2.0/arm/arm-none-eabi/include/c++/10.3.1/cmath ****                                               double>::__type
1372:/Library/DaisyToolchain/0.2.0/arm/arm-none-eabi/include/c++/10.3.1/cmath ****     expm1(_Tp __x)
1373:/Library/DaisyToolchain/0.2.0/arm/arm-none-eabi/include/c++/10.3.1/cmath ****     { return __builtin_expm1(__x); }
1374:/Library/DaisyToolchain/0.2.0/arm/arm-none-eabi/include/c++/10.3.1/cmath **** #endif
1375:/Library/DaisyToolchain/0.2.0/arm/arm-none-eabi/include/c++/10.3.1/cmath **** 
1376:/Library/DaisyToolchain/0.2.0/arm/arm-none-eabi/include/c++/10.3.1/cmath **** #ifndef __CORRECT_ISO_CPP11_MATH_H_PROTO_FP
1377:/Library/DaisyToolchain/0.2.0/arm/arm-none-eabi/include/c++/10.3.1/cmath ****   constexpr float
1378:/Library/DaisyToolchain/0.2.0/arm/arm-none-eabi/include/c++/10.3.1/cmath ****   fdim(float __x, float __y)
1379:/Library/DaisyToolchain/0.2.0/arm/arm-none-eabi/include/c++/10.3.1/cmath ****   { return __builtin_fdimf(__x, __y); }
1380:/Library/DaisyToolchain/0.2.0/arm/arm-none-eabi/include/c++/10.3.1/cmath **** 
1381:/Library/DaisyToolchain/0.2.0/arm/arm-none-eabi/include/c++/10.3.1/cmath ****   constexpr long double
1382:/Library/DaisyToolchain/0.2.0/arm/arm-none-eabi/include/c++/10.3.1/cmath ****   fdim(long double __x, long double __y)
1383:/Library/DaisyToolchain/0.2.0/arm/arm-none-eabi/include/c++/10.3.1/cmath ****   { return __builtin_fdiml(__x, __y); }
1384:/Library/DaisyToolchain/0.2.0/arm/arm-none-eabi/include/c++/10.3.1/cmath **** #endif
1385:/Library/DaisyToolchain/0.2.0/arm/arm-none-eabi/include/c++/10.3.1/cmath **** 
1386:/Library/DaisyToolchain/0.2.0/arm/arm-none-eabi/include/c++/10.3.1/cmath **** #ifndef __CORRECT_ISO_CPP11_MATH_H_PROTO_INT
1387:/Library/DaisyToolchain/0.2.0/arm/arm-none-eabi/include/c++/10.3.1/cmath ****   template<typename _Tp, typename _Up>
1388:/Library/DaisyToolchain/0.2.0/arm/arm-none-eabi/include/c++/10.3.1/cmath ****     constexpr typename __gnu_cxx::__promote_2<_Tp, _Up>::__type
1389:/Library/DaisyToolchain/0.2.0/arm/arm-none-eabi/include/c++/10.3.1/cmath ****     fdim(_Tp __x, _Up __y)
1390:/Library/DaisyToolchain/0.2.0/arm/arm-none-eabi/include/c++/10.3.1/cmath ****     {
1391:/Library/DaisyToolchain/0.2.0/arm/arm-none-eabi/include/c++/10.3.1/cmath ****       typedef typename __gnu_cxx::__promote_2<_Tp, _Up>::__type __type;
1392:/Library/DaisyToolchain/0.2.0/arm/arm-none-eabi/include/c++/10.3.1/cmath ****       return fdim(__type(__x), __type(__y));
1393:/Library/DaisyToolchain/0.2.0/arm/arm-none-eabi/include/c++/10.3.1/cmath ****     }
1394:/Library/DaisyToolchain/0.2.0/arm/arm-none-eabi/include/c++/10.3.1/cmath **** #endif
1395:/Library/DaisyToolchain/0.2.0/arm/arm-none-eabi/include/c++/10.3.1/cmath **** 
1396:/Library/DaisyToolchain/0.2.0/arm/arm-none-eabi/include/c++/10.3.1/cmath **** #ifndef __CORRECT_ISO_CPP11_MATH_H_PROTO_FP
1397:/Library/DaisyToolchain/0.2.0/arm/arm-none-eabi/include/c++/10.3.1/cmath ****   constexpr float
1398:/Library/DaisyToolchain/0.2.0/arm/arm-none-eabi/include/c++/10.3.1/cmath ****   fma(float __x, float __y, float __z)
1399:/Library/DaisyToolchain/0.2.0/arm/arm-none-eabi/include/c++/10.3.1/cmath ****   { return __builtin_fmaf(__x, __y, __z); }
1400:/Library/DaisyToolchain/0.2.0/arm/arm-none-eabi/include/c++/10.3.1/cmath **** 
1401:/Library/DaisyToolchain/0.2.0/arm/arm-none-eabi/include/c++/10.3.1/cmath ****   constexpr long double
1402:/Library/DaisyToolchain/0.2.0/arm/arm-none-eabi/include/c++/10.3.1/cmath ****   fma(long double __x, long double __y, long double __z)
1403:/Library/DaisyToolchain/0.2.0/arm/arm-none-eabi/include/c++/10.3.1/cmath ****   { return __builtin_fmal(__x, __y, __z); }
1404:/Library/DaisyToolchain/0.2.0/arm/arm-none-eabi/include/c++/10.3.1/cmath **** #endif
1405:/Library/DaisyToolchain/0.2.0/arm/arm-none-eabi/include/c++/10.3.1/cmath **** 
1406:/Library/DaisyToolchain/0.2.0/arm/arm-none-eabi/include/c++/10.3.1/cmath **** #ifndef __CORRECT_ISO_CPP11_MATH_H_PROTO_INT
1407:/Library/DaisyToolchain/0.2.0/arm/arm-none-eabi/include/c++/10.3.1/cmath ****   template<typename _Tp, typename _Up, typename _Vp>
1408:/Library/DaisyToolchain/0.2.0/arm/arm-none-eabi/include/c++/10.3.1/cmath ****     constexpr typename __gnu_cxx::__promote_3<_Tp, _Up, _Vp>::__type
1409:/Library/DaisyToolchain/0.2.0/arm/arm-none-eabi/include/c++/10.3.1/cmath ****     fma(_Tp __x, _Up __y, _Vp __z)
1410:/Library/DaisyToolchain/0.2.0/arm/arm-none-eabi/include/c++/10.3.1/cmath ****     {
1411:/Library/DaisyToolchain/0.2.0/arm/arm-none-eabi/include/c++/10.3.1/cmath ****       typedef typename __gnu_cxx::__promote_3<_Tp, _Up, _Vp>::__type __type;
1412:/Library/DaisyToolchain/0.2.0/arm/arm-none-eabi/include/c++/10.3.1/cmath ****       return fma(__type(__x), __type(__y), __type(__z));
1413:/Library/DaisyToolchain/0.2.0/arm/arm-none-eabi/include/c++/10.3.1/cmath ****     }
1414:/Library/DaisyToolchain/0.2.0/arm/arm-none-eabi/include/c++/10.3.1/cmath **** #endif
