ARM GAS  /var/folders/2p/02m_5p7958535cp2tpgps0400000gn/T//ccUF7111.s 			page 1


   1              		.cpu cortex-m7
   2              		.arch armv7e-m
   3              		.fpu fpv5-d16
   4              		.eabi_attribute 28, 1
   5              		.eabi_attribute 20, 1
   6              		.eabi_attribute 21, 1
   7              		.eabi_attribute 23, 3
   8              		.eabi_attribute 24, 1
   9              		.eabi_attribute 25, 1
  10              		.eabi_attribute 26, 1
  11              		.eabi_attribute 30, 4
  12              		.eabi_attribute 34, 1
  13              		.eabi_attribute 18, 4
  14              		.file	"GrannyChordApp.cpp"
  15              		.text
  16              	.Ltext0:
  17              		.cfi_sections	.debug_frame
  18              		.section	.text._ZN7daisysp10Compressor17RecalculateMakeupEv,"axG",%progbits,_ZN7daisysp10Compresso
  19              		.align	1
  20              		.weak	_ZN7daisysp10Compressor17RecalculateMakeupEv
  21              		.syntax unified
  22              		.thumb
  23              		.thumb_func
  25              	_ZN7daisysp10Compressor17RecalculateMakeupEv:
  26              	.LVL0:
  27              	.LFB4726:
  28              		.file 1 "../DaisySP/Source/../DaisySP-LGPL/Source/Dynamics/compressor.h"
   1:../DaisySP/Source/../DaisySP-LGPL/Source/Dynamics/compressor.h **** /*
   2:../DaisySP/Source/../DaisySP-LGPL/Source/Dynamics/compressor.h **** Copyright (c) 2023 Electrosmith, Corp, GRAME, Centre National de Creation Musicale.
   3:../DaisySP/Source/../DaisySP-LGPL/Source/Dynamics/compressor.h **** 
   4:../DaisySP/Source/../DaisySP-LGPL/Source/Dynamics/compressor.h **** Use of this source code is governed by the LGPL V2.1
   5:../DaisySP/Source/../DaisySP-LGPL/Source/Dynamics/compressor.h **** license that can be found in the LICENSE file or at
   6:../DaisySP/Source/../DaisySP-LGPL/Source/Dynamics/compressor.h **** https://opensource.org/license/lgpl-2-1/
   7:../DaisySP/Source/../DaisySP-LGPL/Source/Dynamics/compressor.h **** */
   8:../DaisySP/Source/../DaisySP-LGPL/Source/Dynamics/compressor.h **** 
   9:../DaisySP/Source/../DaisySP-LGPL/Source/Dynamics/compressor.h **** #pragma once
  10:../DaisySP/Source/../DaisySP-LGPL/Source/Dynamics/compressor.h **** #ifndef DSY_COMPRESSOR_H
  11:../DaisySP/Source/../DaisySP-LGPL/Source/Dynamics/compressor.h **** #define DSY_COMPRESSOR_H
  12:../DaisySP/Source/../DaisySP-LGPL/Source/Dynamics/compressor.h **** 
  13:../DaisySP/Source/../DaisySP-LGPL/Source/Dynamics/compressor.h **** #include "Utility/dsp.h"
  14:../DaisySP/Source/../DaisySP-LGPL/Source/Dynamics/compressor.h **** 
  15:../DaisySP/Source/../DaisySP-LGPL/Source/Dynamics/compressor.h **** namespace daisysp
  16:../DaisySP/Source/../DaisySP-LGPL/Source/Dynamics/compressor.h **** {
  17:../DaisySP/Source/../DaisySP-LGPL/Source/Dynamics/compressor.h **** /** dynamics compressor
  18:../DaisySP/Source/../DaisySP-LGPL/Source/Dynamics/compressor.h **** 
  19:../DaisySP/Source/../DaisySP-LGPL/Source/Dynamics/compressor.h **** influenced by compressor in soundpipe (from faust).
  20:../DaisySP/Source/../DaisySP-LGPL/Source/Dynamics/compressor.h **** 
  21:../DaisySP/Source/../DaisySP-LGPL/Source/Dynamics/compressor.h **** Modifications made to do:
  22:../DaisySP/Source/../DaisySP-LGPL/Source/Dynamics/compressor.h **** - Less calculations during each process loop (coefficients recalculated on parameter change).
  23:../DaisySP/Source/../DaisySP-LGPL/Source/Dynamics/compressor.h **** - C++-ified
  24:../DaisySP/Source/../DaisySP-LGPL/Source/Dynamics/compressor.h **** - added sidechain support
  25:../DaisySP/Source/../DaisySP-LGPL/Source/Dynamics/compressor.h **** - pulled gain apart for monitoring and multichannel support
  26:../DaisySP/Source/../DaisySP-LGPL/Source/Dynamics/compressor.h **** - improved readability
  27:../DaisySP/Source/../DaisySP-LGPL/Source/Dynamics/compressor.h **** - improved makeup-gain calculations
  28:../DaisySP/Source/../DaisySP-LGPL/Source/Dynamics/compressor.h **** - changing controls now costs a lot less
  29:../DaisySP/Source/../DaisySP-LGPL/Source/Dynamics/compressor.h **** - a lot less expensive
  30:../DaisySP/Source/../DaisySP-LGPL/Source/Dynamics/compressor.h **** 
ARM GAS  /var/folders/2p/02m_5p7958535cp2tpgps0400000gn/T//ccUF7111.s 			page 2


  31:../DaisySP/Source/../DaisySP-LGPL/Source/Dynamics/compressor.h **** by: shensley, improved upon by AvAars
  32:../DaisySP/Source/../DaisySP-LGPL/Source/Dynamics/compressor.h **** \todo Add soft/hard knee settings
  33:../DaisySP/Source/../DaisySP-LGPL/Source/Dynamics/compressor.h **** */
  34:../DaisySP/Source/../DaisySP-LGPL/Source/Dynamics/compressor.h **** class Compressor
  35:../DaisySP/Source/../DaisySP-LGPL/Source/Dynamics/compressor.h **** {
  36:../DaisySP/Source/../DaisySP-LGPL/Source/Dynamics/compressor.h ****   public:
  37:../DaisySP/Source/../DaisySP-LGPL/Source/Dynamics/compressor.h ****     Compressor() {}
  38:../DaisySP/Source/../DaisySP-LGPL/Source/Dynamics/compressor.h ****     ~Compressor() {}
  39:../DaisySP/Source/../DaisySP-LGPL/Source/Dynamics/compressor.h ****     /** Initializes compressor
  40:../DaisySP/Source/../DaisySP-LGPL/Source/Dynamics/compressor.h ****         \param sample_rate rate at which samples will be produced by the audio engine.
  41:../DaisySP/Source/../DaisySP-LGPL/Source/Dynamics/compressor.h ****     */
  42:../DaisySP/Source/../DaisySP-LGPL/Source/Dynamics/compressor.h ****     void Init(float sample_rate);
  43:../DaisySP/Source/../DaisySP-LGPL/Source/Dynamics/compressor.h **** 
  44:../DaisySP/Source/../DaisySP-LGPL/Source/Dynamics/compressor.h ****     /** Compress the audio input signal, saves the calculated gain
  45:../DaisySP/Source/../DaisySP-LGPL/Source/Dynamics/compressor.h ****         \param in audio input signal
  46:../DaisySP/Source/../DaisySP-LGPL/Source/Dynamics/compressor.h ****     */
  47:../DaisySP/Source/../DaisySP-LGPL/Source/Dynamics/compressor.h ****     float Process(float in);
  48:../DaisySP/Source/../DaisySP-LGPL/Source/Dynamics/compressor.h **** 
  49:../DaisySP/Source/../DaisySP-LGPL/Source/Dynamics/compressor.h ****     /** Compresses the audio input signal, keyed by a secondary input.
  50:../DaisySP/Source/../DaisySP-LGPL/Source/Dynamics/compressor.h ****         \param in audio input signal (to be compressed)
  51:../DaisySP/Source/../DaisySP-LGPL/Source/Dynamics/compressor.h ****         \param key audio input that will be used to side-chain the compressor
  52:../DaisySP/Source/../DaisySP-LGPL/Source/Dynamics/compressor.h ****     */
  53:../DaisySP/Source/../DaisySP-LGPL/Source/Dynamics/compressor.h ****     float Process(float in, float key)
  54:../DaisySP/Source/../DaisySP-LGPL/Source/Dynamics/compressor.h ****     {
  55:../DaisySP/Source/../DaisySP-LGPL/Source/Dynamics/compressor.h ****         Process(key);
  56:../DaisySP/Source/../DaisySP-LGPL/Source/Dynamics/compressor.h ****         return Apply(in);
  57:../DaisySP/Source/../DaisySP-LGPL/Source/Dynamics/compressor.h ****     }
  58:../DaisySP/Source/../DaisySP-LGPL/Source/Dynamics/compressor.h **** 
  59:../DaisySP/Source/../DaisySP-LGPL/Source/Dynamics/compressor.h ****     /** Apply compression to the audio signal, based on the previously calculated gain
  60:../DaisySP/Source/../DaisySP-LGPL/Source/Dynamics/compressor.h ****         \param in audio input signal
  61:../DaisySP/Source/../DaisySP-LGPL/Source/Dynamics/compressor.h ****     */
  62:../DaisySP/Source/../DaisySP-LGPL/Source/Dynamics/compressor.h ****     float Apply(float in) { return gain_ * in; }
  63:../DaisySP/Source/../DaisySP-LGPL/Source/Dynamics/compressor.h **** 
  64:../DaisySP/Source/../DaisySP-LGPL/Source/Dynamics/compressor.h ****     /** Compresses a block of audio
  65:../DaisySP/Source/../DaisySP-LGPL/Source/Dynamics/compressor.h ****         \param in audio input signal
  66:../DaisySP/Source/../DaisySP-LGPL/Source/Dynamics/compressor.h ****         \param out audio output signal
  67:../DaisySP/Source/../DaisySP-LGPL/Source/Dynamics/compressor.h ****         \param size the size of the block
  68:../DaisySP/Source/../DaisySP-LGPL/Source/Dynamics/compressor.h ****     */
  69:../DaisySP/Source/../DaisySP-LGPL/Source/Dynamics/compressor.h ****     void ProcessBlock(float *in, float *out, size_t size)
  70:../DaisySP/Source/../DaisySP-LGPL/Source/Dynamics/compressor.h ****     {
  71:../DaisySP/Source/../DaisySP-LGPL/Source/Dynamics/compressor.h ****         ProcessBlock(in, out, in, size);
  72:../DaisySP/Source/../DaisySP-LGPL/Source/Dynamics/compressor.h ****     }
  73:../DaisySP/Source/../DaisySP-LGPL/Source/Dynamics/compressor.h **** 
  74:../DaisySP/Source/../DaisySP-LGPL/Source/Dynamics/compressor.h ****     /** Compresses a block of audio, keyed by a secondary input
  75:../DaisySP/Source/../DaisySP-LGPL/Source/Dynamics/compressor.h ****         \param in audio input signal (to be compressed)
  76:../DaisySP/Source/../DaisySP-LGPL/Source/Dynamics/compressor.h ****         \param out audio output signal
  77:../DaisySP/Source/../DaisySP-LGPL/Source/Dynamics/compressor.h ****         \param key audio input that will be used to side-chain the compressor
  78:../DaisySP/Source/../DaisySP-LGPL/Source/Dynamics/compressor.h ****         \param size the size of the block
  79:../DaisySP/Source/../DaisySP-LGPL/Source/Dynamics/compressor.h ****     */
  80:../DaisySP/Source/../DaisySP-LGPL/Source/Dynamics/compressor.h ****     void ProcessBlock(float *in, float *out, float *key, size_t size);
  81:../DaisySP/Source/../DaisySP-LGPL/Source/Dynamics/compressor.h **** 
  82:../DaisySP/Source/../DaisySP-LGPL/Source/Dynamics/compressor.h ****     /** Compresses a block of multiple channels of audio, keyed by a secondary input
  83:../DaisySP/Source/../DaisySP-LGPL/Source/Dynamics/compressor.h ****         \param in audio input signals (to be compressed)
  84:../DaisySP/Source/../DaisySP-LGPL/Source/Dynamics/compressor.h ****         \param out audio output signals
  85:../DaisySP/Source/../DaisySP-LGPL/Source/Dynamics/compressor.h ****         \param key audio input that will be used to side-chain the compressor
  86:../DaisySP/Source/../DaisySP-LGPL/Source/Dynamics/compressor.h ****         \param channels the number of audio channels
  87:../DaisySP/Source/../DaisySP-LGPL/Source/Dynamics/compressor.h ****         \param size the size of the block
ARM GAS  /var/folders/2p/02m_5p7958535cp2tpgps0400000gn/T//ccUF7111.s 			page 3


  88:../DaisySP/Source/../DaisySP-LGPL/Source/Dynamics/compressor.h ****     */
  89:../DaisySP/Source/../DaisySP-LGPL/Source/Dynamics/compressor.h ****     void ProcessBlock(float **in,
  90:../DaisySP/Source/../DaisySP-LGPL/Source/Dynamics/compressor.h ****                       float **out,
  91:../DaisySP/Source/../DaisySP-LGPL/Source/Dynamics/compressor.h ****                       float * key,
  92:../DaisySP/Source/../DaisySP-LGPL/Source/Dynamics/compressor.h ****                       size_t  channels,
  93:../DaisySP/Source/../DaisySP-LGPL/Source/Dynamics/compressor.h ****                       size_t  size);
  94:../DaisySP/Source/../DaisySP-LGPL/Source/Dynamics/compressor.h **** 
  95:../DaisySP/Source/../DaisySP-LGPL/Source/Dynamics/compressor.h ****     /** Gets the amount of gain reduction */
  96:../DaisySP/Source/../DaisySP-LGPL/Source/Dynamics/compressor.h ****     float GetRatio() { return ratio_; }
  97:../DaisySP/Source/../DaisySP-LGPL/Source/Dynamics/compressor.h **** 
  98:../DaisySP/Source/../DaisySP-LGPL/Source/Dynamics/compressor.h ****     /** Sets the amount of gain reduction applied to compressed signals
  99:../DaisySP/Source/../DaisySP-LGPL/Source/Dynamics/compressor.h ****      \param ratio Expects 1.0 -> 40. (untested with values < 1.0)
 100:../DaisySP/Source/../DaisySP-LGPL/Source/Dynamics/compressor.h ****     */
 101:../DaisySP/Source/../DaisySP-LGPL/Source/Dynamics/compressor.h ****     void SetRatio(float ratio)
 102:../DaisySP/Source/../DaisySP-LGPL/Source/Dynamics/compressor.h ****     {
 103:../DaisySP/Source/../DaisySP-LGPL/Source/Dynamics/compressor.h ****         ratio_ = ratio;
 104:../DaisySP/Source/../DaisySP-LGPL/Source/Dynamics/compressor.h ****         RecalculateRatio();
 105:../DaisySP/Source/../DaisySP-LGPL/Source/Dynamics/compressor.h ****     }
 106:../DaisySP/Source/../DaisySP-LGPL/Source/Dynamics/compressor.h **** 
 107:../DaisySP/Source/../DaisySP-LGPL/Source/Dynamics/compressor.h ****     /** Gets the threshold in dB */
 108:../DaisySP/Source/../DaisySP-LGPL/Source/Dynamics/compressor.h ****     float GetThreshold() { return thresh_; }
 109:../DaisySP/Source/../DaisySP-LGPL/Source/Dynamics/compressor.h **** 
 110:../DaisySP/Source/../DaisySP-LGPL/Source/Dynamics/compressor.h ****     /** Sets the threshold in dB at which compression will be applied
 111:../DaisySP/Source/../DaisySP-LGPL/Source/Dynamics/compressor.h ****      \param threshold Expects 0.0 -> -80.
 112:../DaisySP/Source/../DaisySP-LGPL/Source/Dynamics/compressor.h ****     */
 113:../DaisySP/Source/../DaisySP-LGPL/Source/Dynamics/compressor.h ****     void SetThreshold(float threshold)
 114:../DaisySP/Source/../DaisySP-LGPL/Source/Dynamics/compressor.h ****     {
 115:../DaisySP/Source/../DaisySP-LGPL/Source/Dynamics/compressor.h ****         thresh_ = threshold;
 116:../DaisySP/Source/../DaisySP-LGPL/Source/Dynamics/compressor.h ****         RecalculateMakeup();
 117:../DaisySP/Source/../DaisySP-LGPL/Source/Dynamics/compressor.h ****     }
 118:../DaisySP/Source/../DaisySP-LGPL/Source/Dynamics/compressor.h **** 
 119:../DaisySP/Source/../DaisySP-LGPL/Source/Dynamics/compressor.h ****     /** Gets the envelope time for onset of compression */
 120:../DaisySP/Source/../DaisySP-LGPL/Source/Dynamics/compressor.h ****     float GetAttack() { return atk_; }
 121:../DaisySP/Source/../DaisySP-LGPL/Source/Dynamics/compressor.h **** 
 122:../DaisySP/Source/../DaisySP-LGPL/Source/Dynamics/compressor.h ****     /** Sets the envelope time for onset of compression for signals above the threshold.
 123:../DaisySP/Source/../DaisySP-LGPL/Source/Dynamics/compressor.h ****         \param attack Expects 0.001 -> 10
 124:../DaisySP/Source/../DaisySP-LGPL/Source/Dynamics/compressor.h ****     */
 125:../DaisySP/Source/../DaisySP-LGPL/Source/Dynamics/compressor.h ****     void SetAttack(float attack)
 126:../DaisySP/Source/../DaisySP-LGPL/Source/Dynamics/compressor.h ****     {
 127:../DaisySP/Source/../DaisySP-LGPL/Source/Dynamics/compressor.h ****         atk_ = attack;
 128:../DaisySP/Source/../DaisySP-LGPL/Source/Dynamics/compressor.h ****         RecalculateAttack();
 129:../DaisySP/Source/../DaisySP-LGPL/Source/Dynamics/compressor.h ****     }
 130:../DaisySP/Source/../DaisySP-LGPL/Source/Dynamics/compressor.h **** 
 131:../DaisySP/Source/../DaisySP-LGPL/Source/Dynamics/compressor.h ****     /** Gets the envelope time for release of compression */
 132:../DaisySP/Source/../DaisySP-LGPL/Source/Dynamics/compressor.h ****     float GetRelease() { return rel_; }
 133:../DaisySP/Source/../DaisySP-LGPL/Source/Dynamics/compressor.h **** 
 134:../DaisySP/Source/../DaisySP-LGPL/Source/Dynamics/compressor.h ****     /** Sets the envelope time for release of compression as input signal falls below threshold.
 135:../DaisySP/Source/../DaisySP-LGPL/Source/Dynamics/compressor.h ****         \param release Expects 0.001 -> 10
 136:../DaisySP/Source/../DaisySP-LGPL/Source/Dynamics/compressor.h ****     */
 137:../DaisySP/Source/../DaisySP-LGPL/Source/Dynamics/compressor.h ****     void SetRelease(float release)
 138:../DaisySP/Source/../DaisySP-LGPL/Source/Dynamics/compressor.h ****     {
 139:../DaisySP/Source/../DaisySP-LGPL/Source/Dynamics/compressor.h ****         rel_ = release;
 140:../DaisySP/Source/../DaisySP-LGPL/Source/Dynamics/compressor.h ****         RecalculateRelease();
 141:../DaisySP/Source/../DaisySP-LGPL/Source/Dynamics/compressor.h ****     }
 142:../DaisySP/Source/../DaisySP-LGPL/Source/Dynamics/compressor.h **** 
 143:../DaisySP/Source/../DaisySP-LGPL/Source/Dynamics/compressor.h ****     /** Gets the additional gain to make up for the compression */
 144:../DaisySP/Source/../DaisySP-LGPL/Source/Dynamics/compressor.h ****     float GetMakeup() { return makeup_gain_; }
ARM GAS  /var/folders/2p/02m_5p7958535cp2tpgps0400000gn/T//ccUF7111.s 			page 4


 145:../DaisySP/Source/../DaisySP-LGPL/Source/Dynamics/compressor.h **** 
 146:../DaisySP/Source/../DaisySP-LGPL/Source/Dynamics/compressor.h ****     /** Manually sets the additional gain to make up for the compression
 147:../DaisySP/Source/../DaisySP-LGPL/Source/Dynamics/compressor.h ****         \param gain Expects 0.0 -> 80
 148:../DaisySP/Source/../DaisySP-LGPL/Source/Dynamics/compressor.h ****     */
 149:../DaisySP/Source/../DaisySP-LGPL/Source/Dynamics/compressor.h ****     void SetMakeup(float gain) { makeup_gain_ = gain; }
 150:../DaisySP/Source/../DaisySP-LGPL/Source/Dynamics/compressor.h **** 
 151:../DaisySP/Source/../DaisySP-LGPL/Source/Dynamics/compressor.h ****     /** Enables or disables the automatic makeup gain. Disabling sets the makeup gain to 0.0
 152:../DaisySP/Source/../DaisySP-LGPL/Source/Dynamics/compressor.h ****         \param enable true to enable, false to disable
 153:../DaisySP/Source/../DaisySP-LGPL/Source/Dynamics/compressor.h ****     */
 154:../DaisySP/Source/../DaisySP-LGPL/Source/Dynamics/compressor.h ****     void AutoMakeup(bool enable)
 155:../DaisySP/Source/../DaisySP-LGPL/Source/Dynamics/compressor.h ****     {
 156:../DaisySP/Source/../DaisySP-LGPL/Source/Dynamics/compressor.h ****         makeup_auto_ = enable;
 157:../DaisySP/Source/../DaisySP-LGPL/Source/Dynamics/compressor.h ****         makeup_gain_ = 0.0f;
 158:../DaisySP/Source/../DaisySP-LGPL/Source/Dynamics/compressor.h ****         RecalculateMakeup();
 159:../DaisySP/Source/../DaisySP-LGPL/Source/Dynamics/compressor.h ****     }
 160:../DaisySP/Source/../DaisySP-LGPL/Source/Dynamics/compressor.h **** 
 161:../DaisySP/Source/../DaisySP-LGPL/Source/Dynamics/compressor.h ****     /** Gets the gain reduction in dB
 162:../DaisySP/Source/../DaisySP-LGPL/Source/Dynamics/compressor.h ****     */
 163:../DaisySP/Source/../DaisySP-LGPL/Source/Dynamics/compressor.h ****     float GetGain() { return fastlog10f(gain_) * 20.0f; }
 164:../DaisySP/Source/../DaisySP-LGPL/Source/Dynamics/compressor.h **** 
 165:../DaisySP/Source/../DaisySP-LGPL/Source/Dynamics/compressor.h ****   private:
 166:../DaisySP/Source/../DaisySP-LGPL/Source/Dynamics/compressor.h ****     float ratio_, thresh_, atk_, rel_;
 167:../DaisySP/Source/../DaisySP-LGPL/Source/Dynamics/compressor.h ****     float makeup_gain_;
 168:../DaisySP/Source/../DaisySP-LGPL/Source/Dynamics/compressor.h ****     float gain_;
 169:../DaisySP/Source/../DaisySP-LGPL/Source/Dynamics/compressor.h **** 
 170:../DaisySP/Source/../DaisySP-LGPL/Source/Dynamics/compressor.h ****     // Recorded slope and gain, used in next sample
 171:../DaisySP/Source/../DaisySP-LGPL/Source/Dynamics/compressor.h ****     float slope_rec_, gain_rec_;
 172:../DaisySP/Source/../DaisySP-LGPL/Source/Dynamics/compressor.h **** 
 173:../DaisySP/Source/../DaisySP-LGPL/Source/Dynamics/compressor.h ****     // Internals from faust
 174:../DaisySP/Source/../DaisySP-LGPL/Source/Dynamics/compressor.h ****     float atk_slo2_, ratio_mul_, atk_slo_, rel_slo_;
 175:../DaisySP/Source/../DaisySP-LGPL/Source/Dynamics/compressor.h **** 
 176:../DaisySP/Source/../DaisySP-LGPL/Source/Dynamics/compressor.h ****     int   sample_rate_;
 177:../DaisySP/Source/../DaisySP-LGPL/Source/Dynamics/compressor.h ****     float sample_rate_inv2_, sample_rate_inv_;
 178:../DaisySP/Source/../DaisySP-LGPL/Source/Dynamics/compressor.h **** 
 179:../DaisySP/Source/../DaisySP-LGPL/Source/Dynamics/compressor.h ****     // Auto makeup gain enable
 180:../DaisySP/Source/../DaisySP-LGPL/Source/Dynamics/compressor.h ****     bool makeup_auto_;
 181:../DaisySP/Source/../DaisySP-LGPL/Source/Dynamics/compressor.h **** 
 182:../DaisySP/Source/../DaisySP-LGPL/Source/Dynamics/compressor.h ****     // Methods for recalculating internals
 183:../DaisySP/Source/../DaisySP-LGPL/Source/Dynamics/compressor.h ****     void RecalculateRatio()
 184:../DaisySP/Source/../DaisySP-LGPL/Source/Dynamics/compressor.h ****     {
 185:../DaisySP/Source/../DaisySP-LGPL/Source/Dynamics/compressor.h ****         ratio_mul_ = ((1.0f - atk_slo2_) * ((1.0f / ratio_) - 1.0f));
 186:../DaisySP/Source/../DaisySP-LGPL/Source/Dynamics/compressor.h ****     }
 187:../DaisySP/Source/../DaisySP-LGPL/Source/Dynamics/compressor.h **** 
 188:../DaisySP/Source/../DaisySP-LGPL/Source/Dynamics/compressor.h ****     void RecalculateAttack()
 189:../DaisySP/Source/../DaisySP-LGPL/Source/Dynamics/compressor.h ****     {
 190:../DaisySP/Source/../DaisySP-LGPL/Source/Dynamics/compressor.h ****         atk_slo_  = expf(-(sample_rate_inv_ / atk_));
 191:../DaisySP/Source/../DaisySP-LGPL/Source/Dynamics/compressor.h ****         atk_slo2_ = expf(-(sample_rate_inv2_ / atk_));
 192:../DaisySP/Source/../DaisySP-LGPL/Source/Dynamics/compressor.h **** 
 193:../DaisySP/Source/../DaisySP-LGPL/Source/Dynamics/compressor.h ****         RecalculateRatio();
 194:../DaisySP/Source/../DaisySP-LGPL/Source/Dynamics/compressor.h ****     }
 195:../DaisySP/Source/../DaisySP-LGPL/Source/Dynamics/compressor.h **** 
 196:../DaisySP/Source/../DaisySP-LGPL/Source/Dynamics/compressor.h ****     void RecalculateRelease() { rel_slo_ = expf((-(sample_rate_inv_ / rel_))); }
 197:../DaisySP/Source/../DaisySP-LGPL/Source/Dynamics/compressor.h **** 
 198:../DaisySP/Source/../DaisySP-LGPL/Source/Dynamics/compressor.h ****     void RecalculateMakeup()
  29              		.loc 1 198 10 view -0
  30              		.cfi_startproc
  31              		@ args = 0, pretend = 0, frame = 0
ARM GAS  /var/folders/2p/02m_5p7958535cp2tpgps0400000gn/T//ccUF7111.s 			page 5


  32              		@ frame_needed = 0, uses_anonymous_args = 0
  33              		@ link register save eliminated.
 199:../DaisySP/Source/../DaisySP-LGPL/Source/Dynamics/compressor.h ****     {
 200:../DaisySP/Source/../DaisySP-LGPL/Source/Dynamics/compressor.h ****         if(makeup_auto_)
  34              		.loc 1 200 9 view .LVU1
  35 0000 90F83C30 		ldrb	r3, [r0, #60]	@ zero_extendqisi2
  36 0004 7BB1     		cbz	r3, .L1
  37              	.LVL1:
  38              	.LBB183:
  39              	.LBI183:
 198:../DaisySP/Source/../DaisySP-LGPL/Source/Dynamics/compressor.h ****     {
  40              		.loc 1 198 10 view .LVU2
  41              	.LBB184:
 201:../DaisySP/Source/../DaisySP-LGPL/Source/Dynamics/compressor.h ****             makeup_gain_ = fabsf(thresh_ - thresh_ / ratio_) * 0.5f;
  42              		.loc 1 201 13 view .LVU3
  43              		.loc 1 201 34 is_stmt 0 view .LVU4
  44 0006 D0ED017A 		vldr.32	s15, [r0, #4]
  45              		.loc 1 201 52 view .LVU5
  46 000a D0ED006A 		vldr.32	s13, [r0]
  47 000e 87EEA67A 		vdiv.f32	s14, s15, s13
  48              		.loc 1 201 42 view .LVU6
  49 0012 77EEC77A 		vsub.f32	s15, s15, s14
  50              		.loc 1 201 62 view .LVU7
  51 0016 B6EE007A 		vmov.f32	s14, #5.0e-1
  52              		.loc 1 201 33 view .LVU8
  53 001a F0EEE77A 		vabs.f32	s15, s15
  54              		.loc 1 201 62 view .LVU9
  55 001e 67EE877A 		vmul.f32	s15, s15, s14
  56              		.loc 1 201 26 view .LVU10
  57 0022 C0ED047A 		vstr.32	s15, [r0, #16]
  58              	.LVL2:
  59              	.L1:
  60              		.loc 1 201 26 view .LVU11
  61              	.LBE184:
  62              	.LBE183:
 202:../DaisySP/Source/../DaisySP-LGPL/Source/Dynamics/compressor.h ****     }
  63              		.loc 1 202 5 view .LVU12
  64 0026 7047     		bx	lr
  65              		.cfi_endproc
  66              	.LFE4726:
  68              		.section	.text._ZN14GrannyChordApp9AudioIdleEPPfj,"ax",%progbits
  69              		.align	1
  70              		.global	_ZN14GrannyChordApp9AudioIdleEPPfj
  71              		.syntax unified
  72              		.thumb
  73              		.thumb_func
  75              	_ZN14GrannyChordApp9AudioIdleEPPfj:
  76              	.LVL3:
  77              	.LFB4926:
  78              		.file 2 "GrannyChordApp.cpp"
   1:GrannyChordApp.cpp **** #include "GrannyChordApp.h"
   2:GrannyChordApp.cpp **** 
   3:GrannyChordApp.cpp **** GrannyChordApp* GrannyChordApp::instance_ = nullptr;
   4:GrannyChordApp.cpp **** 
   5:GrannyChordApp.cpp **** void GrannyChordApp::Init(int16_t *left, int16_t *right){
   6:GrannyChordApp.cpp ****   left_buf_ = left;
   7:GrannyChordApp.cpp ****   right_buf_ = right;
ARM GAS  /var/folders/2p/02m_5p7958535cp2tpgps0400000gn/T//ccUF7111.s 			page 6


   8:GrannyChordApp.cpp ****   pod_.SetAudioBlockSize(4);
   9:GrannyChordApp.cpp ****   pod_.SetAudioSampleRate(SaiHandle::Config::SampleRate::SAI_48KHZ);
  10:GrannyChordApp.cpp ****   // DebugPrint(pod_,"set sample rate");
  11:GrannyChordApp.cpp ****   DebugPrint(pod_,"set sample rate");
  12:GrannyChordApp.cpp ****   SeedRng();
  13:GrannyChordApp.cpp ****   ui_.Init();
  14:GrannyChordApp.cpp ****   DebugPrint(pod_,"init ui");
  15:GrannyChordApp.cpp ****   if (!InitFileMgr()){
  16:GrannyChordApp.cpp ****     ui_.SetStateError();
  17:GrannyChordApp.cpp ****     DebugPrint(pod_,"filemgr init error");
  18:GrannyChordApp.cpp ****     return;
  19:GrannyChordApp.cpp ****   }
  20:GrannyChordApp.cpp ****   ui_.SetState(AppState::SelectFile);
  21:GrannyChordApp.cpp ****   DebugPrint(pod_,"selecting file now");
  22:GrannyChordApp.cpp ****   InitFileSelection();
  23:GrannyChordApp.cpp ****   DebugPrint(pod_,"selected file ok");
  24:GrannyChordApp.cpp ****   InitCompressor();
  25:GrannyChordApp.cpp ****   InitPrevParamVals();
  26:GrannyChordApp.cpp **** 
  27:GrannyChordApp.cpp ****   pod_.StartAdc();
  28:GrannyChordApp.cpp ****   pod_.StartAudio(AudioCallback);
  29:GrannyChordApp.cpp ****   DebugPrint(pod_,"started audio");
  30:GrannyChordApp.cpp **** }
  31:GrannyChordApp.cpp **** 
  32:GrannyChordApp.cpp **** void GrannyChordApp::Run(){
  33:GrannyChordApp.cpp ****   while(true){
  34:GrannyChordApp.cpp ****     AppState prev_state = ui_.GetCurrentState();
  35:GrannyChordApp.cpp ****     ui_.UpdateUI();
  36:GrannyChordApp.cpp ****     AppState curr_state = ui_.GetCurrentState();
  37:GrannyChordApp.cpp **** 
  38:GrannyChordApp.cpp ****     if (prev_state!=curr_state){
  39:GrannyChordApp.cpp ****       HandleStateChange(prev_state, curr_state);
  40:GrannyChordApp.cpp ****       int p = static_cast<int>(prev_state);
  41:GrannyChordApp.cpp ****       int c = static_cast<int>(curr_state);
  42:GrannyChordApp.cpp ****       DebugPrint(pod_,"changed state");
  43:GrannyChordApp.cpp ****       DebugPrint(pod_,"prev: %d curr: %d",p,c);
  44:GrannyChordApp.cpp ****     }
  45:GrannyChordApp.cpp ****     UpdateSynthParams(curr_state);
  46:GrannyChordApp.cpp **** 
  47:GrannyChordApp.cpp ****     if (ui_.ToggleRecordOut()){
  48:GrannyChordApp.cpp ****       if (recording_out_) { StopRecordOut(); }
  49:GrannyChordApp.cpp ****       else { StartRecordOut(); }
  50:GrannyChordApp.cpp ****     }
  51:GrannyChordApp.cpp ****     System::Delay(1);
  52:GrannyChordApp.cpp ****   }
  53:GrannyChordApp.cpp **** }
  54:GrannyChordApp.cpp **** 
  55:GrannyChordApp.cpp **** void GrannyChordApp::AudioCallback(AudioHandle::InputBuffer in, AudioHandle::OutputBuffer out, size
  56:GrannyChordApp.cpp ****   AppState curr_state = instance_->ui_.GetCurrentState();
  57:GrannyChordApp.cpp ****   // if in RecordIn: clear channel buffers, send input straight to them
  58:GrannyChordApp.cpp ****   // track audio length, if greater than (60*48000) ie 60s, wrap index
  59:GrannyChordApp.cpp ****   // to front of buffer so it's circular and can't record > 60s
  60:GrannyChordApp.cpp ****   // then set audio_len_ vbl to tracked length so synth works properly
  61:GrannyChordApp.cpp ****   switch (curr_state){
  62:GrannyChordApp.cpp ****     case AppState::PlayWAV:
  63:GrannyChordApp.cpp ****       break;
  64:GrannyChordApp.cpp ****     case AppState::RecordIn:
ARM GAS  /var/folders/2p/02m_5p7958535cp2tpgps0400000gn/T//ccUF7111.s 			page 7


  65:GrannyChordApp.cpp ****       instance_->ProcessRecordIn(in, out, size);
  66:GrannyChordApp.cpp ****       break;
  67:GrannyChordApp.cpp ****     case AppState::Synthesis:
  68:GrannyChordApp.cpp ****       instance_->ProcessSynthesis(out,size);
  69:GrannyChordApp.cpp ****       break;
  70:GrannyChordApp.cpp ****     // case AppState::ChordMode:
  71:GrannyChordApp.cpp ****     // case AppState:RecordOut:
  72:GrannyChordApp.cpp ****     default:
  73:GrannyChordApp.cpp ****       instance_->AudioIdle(out,size);
  74:GrannyChordApp.cpp ****       break;
  75:GrannyChordApp.cpp ****   }
  76:GrannyChordApp.cpp **** }
  77:GrannyChordApp.cpp **** 
  78:GrannyChordApp.cpp **** void GrannyChordApp::AudioIdle(AudioHandle::OutputBuffer out, size_t size){
  79              		.loc 2 78 75 is_stmt 1 view -0
  80              		.cfi_startproc
  81              		@ args = 0, pretend = 0, frame = 0
  82              		@ frame_needed = 0, uses_anonymous_args = 0
  79:GrannyChordApp.cpp ****   for (size_t i=0; i<size; i++){
  83              		.loc 2 79 3 view .LVU14
  84              	.LBB185:
  85              		.loc 2 79 15 is_stmt 0 view .LVU15
  86 0000 0023     		movs	r3, #0
  87              	.LBE185:
  78:GrannyChordApp.cpp ****   for (size_t i=0; i<size; i++){
  88              		.loc 2 78 75 view .LVU16
  89 0002 10B5     		push	{r4, lr}
  90              		.cfi_def_cfa_offset 8
  91              		.cfi_offset 4, -8
  92              		.cfi_offset 14, -4
  93              	.LVL4:
  94              	.L8:
  95              	.LBB186:
  96              		.loc 2 79 21 is_stmt 1 discriminator 3 view .LVU17
  97 0004 9342     		cmp	r3, r2
  98 0006 0AD0     		beq	.L6
  80:GrannyChordApp.cpp ****     out[0][i]=out[1][i]=0.0f;
  99              		.loc 2 80 5 discriminator 2 view .LVU18
 100              		.loc 2 80 24 is_stmt 0 discriminator 2 view .LVU19
 101 0008 4868     		ldr	r0, [r1, #4]
 102 000a 0024     		movs	r4, #0
 103 000c 00EB8300 		add	r0, r0, r3, lsl #2
 104 0010 0460     		str	r4, [r0]	@ float
 105              		.loc 2 80 14 discriminator 2 view .LVU20
 106 0012 0868     		ldr	r0, [r1]
 107 0014 00EB8300 		add	r0, r0, r3, lsl #2
  79:GrannyChordApp.cpp ****   for (size_t i=0; i<size; i++){
 108              		.loc 2 79 3 discriminator 2 view .LVU21
 109 0018 0133     		adds	r3, r3, #1
 110              	.LVL5:
 111              		.loc 2 80 14 discriminator 2 view .LVU22
 112 001a 0460     		str	r4, [r0]	@ float
  79:GrannyChordApp.cpp ****   for (size_t i=0; i<size; i++){
 113              		.loc 2 79 3 is_stmt 1 discriminator 2 view .LVU23
 114              	.LVL6:
  79:GrannyChordApp.cpp ****   for (size_t i=0; i<size; i++){
 115              		.loc 2 79 3 is_stmt 0 discriminator 2 view .LVU24
ARM GAS  /var/folders/2p/02m_5p7958535cp2tpgps0400000gn/T//ccUF7111.s 			page 8


 116 001c F2E7     		b	.L8
 117              	.L6:
  79:GrannyChordApp.cpp ****   for (size_t i=0; i<size; i++){
 118              		.loc 2 79 3 discriminator 2 view .LVU25
 119              	.LBE186:
  81:GrannyChordApp.cpp ****   }
  82:GrannyChordApp.cpp **** }
 120              		.loc 2 82 1 view .LVU26
 121 001e 10BD     		pop	{r4, pc}
 122              		.cfi_endproc
 123              	.LFE4926:
 125              		.section	.text._ZN14GrannyChordApp18ProcessWAVPlaybackEPPfj,"ax",%progbits
 126              		.align	1
 127              		.global	_ZN14GrannyChordApp18ProcessWAVPlaybackEPPfj
 128              		.syntax unified
 129              		.thumb
 130              		.thumb_func
 132              	_ZN14GrannyChordApp18ProcessWAVPlaybackEPPfj:
 133              	.LVL7:
 134              	.LFB4927:
  83:GrannyChordApp.cpp **** 
  84:GrannyChordApp.cpp **** void GrannyChordApp::ProcessWAVPlayback(AudioHandle::OutputBuffer out, size_t size){
 135              		.loc 2 84 84 is_stmt 1 view -0
 136              		.cfi_startproc
 137              		@ args = 0, pretend = 0, frame = 0
 138              		@ frame_needed = 0, uses_anonymous_args = 0
  85:GrannyChordApp.cpp ****   if (wav_playhead_>=audio_len_){
 139              		.loc 2 85 3 view .LVU28
 140 0000 D0F84C36 		ldr	r3, [r0, #1612]
 141              		.loc 2 85 22 is_stmt 0 view .LVU29
 142 0004 D0F850C6 		ldr	ip, [r0, #1616]
 143              		.loc 2 85 3 view .LVU30
 144 0008 6345     		cmp	r3, ip
  86:GrannyChordApp.cpp ****     wav_playhead_ = 0;
 145              		.loc 2 86 5 is_stmt 1 view .LVU31
  84:GrannyChordApp.cpp ****   if (wav_playhead_>=audio_len_){
 146              		.loc 2 84 84 is_stmt 0 view .LVU32
 147 000a F0B5     		push	{r4, r5, r6, r7, lr}
 148              		.cfi_def_cfa_offset 20
 149              		.cfi_offset 4, -20
 150              		.cfi_offset 5, -16
 151              		.cfi_offset 6, -12
 152              		.cfi_offset 7, -8
 153              		.cfi_offset 14, -4
 154              		.loc 2 86 19 view .LVU33
 155 000c 28BF     		it	cs
 156 000e 0023     		movcs	r3, #0
  84:GrannyChordApp.cpp ****   if (wav_playhead_>=audio_len_){
 157              		.loc 2 84 84 view .LVU34
 158 0010 4FF00004 		mov	r4, #0
 159              		.loc 2 86 19 view .LVU35
 160 0014 28BF     		it	cs
 161 0016 C0F84C36 		strcs	r3, [r0, #1612]
 162              	.L15:
 163              	.LVL8:
 164              	.LBB187:
  87:GrannyChordApp.cpp ****   }
ARM GAS  /var/folders/2p/02m_5p7958535cp2tpgps0400000gn/T//ccUF7111.s 			page 9


  88:GrannyChordApp.cpp ****   for (size_t i=0; i<size; i++){
 165              		.loc 2 88 21 is_stmt 1 discriminator 1 view .LVU36
 166 001a 9442     		cmp	r4, r2
 167 001c 2CD0     		beq	.L10
  89:GrannyChordApp.cpp ****     if (wav_playhead_ < audio_len_){
 168              		.loc 2 89 5 view .LVU37
 169              		.loc 2 89 9 is_stmt 0 view .LVU38
 170 001e D0F84C36 		ldr	r3, [r0, #1612]
 171 0022 A700     		lsls	r7, r4, #2
  90:GrannyChordApp.cpp ****       out[0][i] = s162f(left_buf_[wav_playhead_]);
 172              		.loc 2 90 15 view .LVU39
 173 0024 0D68     		ldr	r5, [r1]
  89:GrannyChordApp.cpp ****     if (wav_playhead_ < audio_len_){
 174              		.loc 2 89 5 view .LVU40
 175 0026 9C45     		cmp	ip, r3
  91:GrannyChordApp.cpp ****       out[1][1] = s162f(right_buf_[wav_playhead_]);
 176              		.loc 2 91 12 view .LVU41
 177 0028 4E68     		ldr	r6, [r1, #4]
  90:GrannyChordApp.cpp ****       out[0][i] = s162f(left_buf_[wav_playhead_]);
 178              		.loc 2 90 15 view .LVU42
 179 002a 05EB8405 		add	r5, r5, r4, lsl #2
  89:GrannyChordApp.cpp ****     if (wav_playhead_ < audio_len_){
 180              		.loc 2 89 5 view .LVU43
 181 002e 1ED9     		bls	.L13
  90:GrannyChordApp.cpp ****       out[0][i] = s162f(left_buf_[wav_playhead_]);
 182              		.loc 2 90 7 is_stmt 1 view .LVU44
 183              	.LVL9:
 184              	.LBB188:
 185              	.LBI188:
 186              		.file 3 "../libDaisy/src/daisy_core.h"
   1:../libDaisy/src/daisy_core.h **** #pragma once
   2:../libDaisy/src/daisy_core.h **** #ifndef DSY_CORE_HW_H
   3:../libDaisy/src/daisy_core.h **** #define DSY_CORE_HW_H /**< & */
   4:../libDaisy/src/daisy_core.h **** #include <stdint.h>
   5:../libDaisy/src/daisy_core.h **** #include <stdlib.h>
   6:../libDaisy/src/daisy_core.h **** 
   7:../libDaisy/src/daisy_core.h **** #if defined(_MSC_VER)
   8:../libDaisy/src/daisy_core.h **** #define FORCE_INLINE __forceinline /**< & */
   9:../libDaisy/src/daisy_core.h **** #elif defined(__clang__)
  10:../libDaisy/src/daisy_core.h **** #define FORCE_INLINE inline __attribute__((always_inline)) /**< & */
  11:../libDaisy/src/daisy_core.h **** #pragma clang diagnostic ignored "-Wduplicate-decl-specifier"
  12:../libDaisy/src/daisy_core.h **** #elif defined(__GNUC__)
  13:../libDaisy/src/daisy_core.h **** #define FORCE_INLINE inline __attribute__((always_inline)) /**< & */
  14:../libDaisy/src/daisy_core.h **** #else
  15:../libDaisy/src/daisy_core.h **** #error unknown compiler
  16:../libDaisy/src/daisy_core.h **** #endif
  17:../libDaisy/src/daisy_core.h **** 
  18:../libDaisy/src/daisy_core.h **** /** @addtogroup utility
  19:../libDaisy/src/daisy_core.h ****     @{
  20:../libDaisy/src/daisy_core.h **** */
  21:../libDaisy/src/daisy_core.h **** 
  22:../libDaisy/src/daisy_core.h **** /** Macro for area of memory that is configured as cacheless
  23:../libDaisy/src/daisy_core.h **** This should be used primarily for DMA buffers, and the like.
  24:../libDaisy/src/daisy_core.h **** */
  25:../libDaisy/src/daisy_core.h **** #define DMA_BUFFER_MEM_SECTION __attribute__((section(".sram1_bss")))
  26:../libDaisy/src/daisy_core.h **** /** 
  27:../libDaisy/src/daisy_core.h **** THE DTCM RAM section is also non-cached. However, is not suitable 
ARM GAS  /var/folders/2p/02m_5p7958535cp2tpgps0400000gn/T//ccUF7111.s 			page 10


  28:../libDaisy/src/daisy_core.h **** for DMA transfers. Performance is on par with internal SRAM w/ 
  29:../libDaisy/src/daisy_core.h **** cache enabled.
  30:../libDaisy/src/daisy_core.h **** */
  31:../libDaisy/src/daisy_core.h **** #define DTCM_MEM_SECTION __attribute__((section(".dtcmram_bss")))
  32:../libDaisy/src/daisy_core.h **** 
  33:../libDaisy/src/daisy_core.h **** #define FBIPMAX 0.999985f             /**< close to 1.0f-LSB at 16 bit */
  34:../libDaisy/src/daisy_core.h **** #define FBIPMIN (-FBIPMAX)            /**< - (1 - LSB) */
  35:../libDaisy/src/daisy_core.h **** #define U82F_SCALE 0.0078740f         /**< 1 / 127 */
  36:../libDaisy/src/daisy_core.h **** #define F2U8_SCALE 127.0f             /**< 128 - 1 */
  37:../libDaisy/src/daisy_core.h **** #define S82F_SCALE 0.0078125f         /**< 1 / (2**7) */
  38:../libDaisy/src/daisy_core.h **** #define F2S8_SCALE 127.0f             /**< (2 ** 7) - 1 */
  39:../libDaisy/src/daisy_core.h **** #define S162F_SCALE 3.0517578125e-05f /**< 1 / (2** 15) */
  40:../libDaisy/src/daisy_core.h **** #define F2S16_SCALE 32767.0f          /**< (2 ** 15) - 1 */
  41:../libDaisy/src/daisy_core.h **** #define F2S24_SCALE 8388608.0f        /**< 2 ** 23 */
  42:../libDaisy/src/daisy_core.h **** #define S242F_SCALE 1.192092896e-07f  /**< 1 / (2 ** 23) */
  43:../libDaisy/src/daisy_core.h **** #define S24SIGN 0x800000              /**< 2 ** 23 */
  44:../libDaisy/src/daisy_core.h **** #define S322F_SCALE 4.6566129e-10f    /**< 1 / (2** 31) */
  45:../libDaisy/src/daisy_core.h **** #define F2S32_SCALE 2147483647.f      /**< (2 ** 31) - 1 */
  46:../libDaisy/src/daisy_core.h **** 
  47:../libDaisy/src/daisy_core.h **** 
  48:../libDaisy/src/daisy_core.h **** /** shorthand macro for simplifying the reading of the left 
  49:../libDaisy/src/daisy_core.h ****  *  channel of a non-interleaved output buffer named out */
  50:../libDaisy/src/daisy_core.h **** #define OUT_L out[0]
  51:../libDaisy/src/daisy_core.h **** 
  52:../libDaisy/src/daisy_core.h **** /** shorthand macro for simplifying the reading of the right 
  53:../libDaisy/src/daisy_core.h ****  *  channel of a non-interleaved output buffer named out */
  54:../libDaisy/src/daisy_core.h **** #define OUT_R out[1]
  55:../libDaisy/src/daisy_core.h **** 
  56:../libDaisy/src/daisy_core.h **** /** shorthand macro for simplifying the reading of the left 
  57:../libDaisy/src/daisy_core.h ****  *  channel of a non-interleaved input buffer named in */
  58:../libDaisy/src/daisy_core.h **** #define IN_L in[0]
  59:../libDaisy/src/daisy_core.h **** 
  60:../libDaisy/src/daisy_core.h **** /** shorthand macro for simplifying the reading of the right 
  61:../libDaisy/src/daisy_core.h ****  *  channel of a non-interleaved input buffer named in */
  62:../libDaisy/src/daisy_core.h **** #define IN_R in[1]
  63:../libDaisy/src/daisy_core.h **** 
  64:../libDaisy/src/daisy_core.h **** /** 
  65:../libDaisy/src/daisy_core.h ****     Computes cube.
  66:../libDaisy/src/daisy_core.h ****     \param x Number to be cubed
  67:../libDaisy/src/daisy_core.h ****     \return x ^ 3
  68:../libDaisy/src/daisy_core.h **** */
  69:../libDaisy/src/daisy_core.h **** FORCE_INLINE float cube(float x)
  70:../libDaisy/src/daisy_core.h **** {
  71:../libDaisy/src/daisy_core.h ****     return (x * x) * x;
  72:../libDaisy/src/daisy_core.h **** }
  73:../libDaisy/src/daisy_core.h **** 
  74:../libDaisy/src/daisy_core.h **** /** 
  75:../libDaisy/src/daisy_core.h ****     Converts unsigned 8-bit to float
  76:../libDaisy/src/daisy_core.h ****     \param x Number to be scaled.
  77:../libDaisy/src/daisy_core.h ****     \return Scaled number.
  78:../libDaisy/src/daisy_core.h **** */
  79:../libDaisy/src/daisy_core.h **** FORCE_INLINE float u82f(uint8_t x)
  80:../libDaisy/src/daisy_core.h **** {
  81:../libDaisy/src/daisy_core.h ****     return ((float)x - 127.f) * U82F_SCALE;
  82:../libDaisy/src/daisy_core.h **** }
  83:../libDaisy/src/daisy_core.h **** 
  84:../libDaisy/src/daisy_core.h **** /**
ARM GAS  /var/folders/2p/02m_5p7958535cp2tpgps0400000gn/T//ccUF7111.s 			page 11


  85:../libDaisy/src/daisy_core.h ****     Converts float to unsigned 8-bit
  86:../libDaisy/src/daisy_core.h **** */
  87:../libDaisy/src/daisy_core.h **** FORCE_INLINE uint8_t f2u8(float x)
  88:../libDaisy/src/daisy_core.h **** {
  89:../libDaisy/src/daisy_core.h ****     x = x <= FBIPMIN ? FBIPMIN : x;
  90:../libDaisy/src/daisy_core.h ****     x = x >= FBIPMAX ? FBIPMAX : x;
  91:../libDaisy/src/daisy_core.h ****     return (uint8_t)((x * F2U8_SCALE) + F2U8_SCALE);
  92:../libDaisy/src/daisy_core.h **** }
  93:../libDaisy/src/daisy_core.h **** 
  94:../libDaisy/src/daisy_core.h **** 
  95:../libDaisy/src/daisy_core.h **** /** 
  96:../libDaisy/src/daisy_core.h ****     Converts Signed 8-bit to float
  97:../libDaisy/src/daisy_core.h ****     \param x Number to be scaled.
  98:../libDaisy/src/daisy_core.h ****     \return Scaled number.
  99:../libDaisy/src/daisy_core.h **** */
 100:../libDaisy/src/daisy_core.h **** FORCE_INLINE float s82f(int8_t x)
 101:../libDaisy/src/daisy_core.h **** {
 102:../libDaisy/src/daisy_core.h ****     return (float)x * S82F_SCALE;
 103:../libDaisy/src/daisy_core.h **** }
 104:../libDaisy/src/daisy_core.h **** 
 105:../libDaisy/src/daisy_core.h **** /**
 106:../libDaisy/src/daisy_core.h ****     Converts float to Signed 8-bit
 107:../libDaisy/src/daisy_core.h **** */
 108:../libDaisy/src/daisy_core.h **** FORCE_INLINE int8_t f2s8(float x)
 109:../libDaisy/src/daisy_core.h **** {
 110:../libDaisy/src/daisy_core.h ****     x = x <= FBIPMIN ? FBIPMIN : x;
 111:../libDaisy/src/daisy_core.h ****     x = x >= FBIPMAX ? FBIPMAX : x;
 112:../libDaisy/src/daisy_core.h ****     return (int32_t)(x * F2S8_SCALE);
 113:../libDaisy/src/daisy_core.h **** }
 114:../libDaisy/src/daisy_core.h **** 
 115:../libDaisy/src/daisy_core.h **** /** 
 116:../libDaisy/src/daisy_core.h ****     Converts Signed 16-bit to float
 117:../libDaisy/src/daisy_core.h ****     \param x Number to be scaled.
 118:../libDaisy/src/daisy_core.h ****     \return Scaled number.
 119:../libDaisy/src/daisy_core.h **** */
 120:../libDaisy/src/daisy_core.h **** FORCE_INLINE float s162f(int16_t x)
 187              		.loc 3 120 20 view .LVU45
 188              	.LBB189:
 121:../libDaisy/src/daisy_core.h **** {
 122:../libDaisy/src/daisy_core.h ****     return (float)x * S162F_SCALE;
 189              		.loc 3 122 5 view .LVU46
 190              		.loc 3 122 5 is_stmt 0 view .LVU47
 191              	.LBE189:
 192              	.LBE188:
  90:GrannyChordApp.cpp ****       out[1][1] = s162f(right_buf_[wav_playhead_]);
 193              		.loc 2 90 24 view .LVU48
 194 0030 D0F84076 		ldr	r7, [r0, #1600]
 195              	.LBB191:
 196              	.LBB190:
 197              		.loc 3 122 23 view .LVU49
 198 0034 DFED116A 		vldr.32	s13, .L17
 199              		.loc 3 122 12 view .LVU50
 200 0038 37F91370 		ldrsh	r7, [r7, r3, lsl #1]
 201 003c 07EE107A 		vmov	s14, r7	@ int
 202 0040 B8EEC77A 		vcvt.f32.s32	s14, s14
 203              		.loc 3 122 23 view .LVU51
 204 0044 27EE267A 		vmul.f32	s14, s14, s13
ARM GAS  /var/folders/2p/02m_5p7958535cp2tpgps0400000gn/T//ccUF7111.s 			page 12


 205              	.LBE190:
 206              	.LBE191:
  90:GrannyChordApp.cpp ****       out[1][1] = s162f(right_buf_[wav_playhead_]);
 207              		.loc 2 90 17 view .LVU52
 208 0048 85ED007A 		vstr.32	s14, [r5]
 209              		.loc 2 91 7 is_stmt 1 view .LVU53
 210              	.LVL10:
 211              	.LBB192:
 212              	.LBI192:
 120:../libDaisy/src/daisy_core.h **** {
 213              		.loc 3 120 20 view .LVU54
 214              	.LBB193:
 215              		.loc 3 122 5 view .LVU55
 216              		.loc 3 122 5 is_stmt 0 view .LVU56
 217              	.LBE193:
 218              	.LBE192:
 219              		.loc 2 91 24 view .LVU57
 220 004c D0F84456 		ldr	r5, [r0, #1604]
 221              	.LBB196:
 222              	.LBB194:
 223              		.loc 3 122 12 view .LVU58
 224 0050 35F91350 		ldrsh	r5, [r5, r3, lsl #1]
 225              	.LBE194:
 226              	.LBE196:
  92:GrannyChordApp.cpp ****       wav_playhead_++;
 227              		.loc 2 92 20 view .LVU59
 228 0054 0133     		adds	r3, r3, #1
 229              	.LBB197:
 230              	.LBB195:
 231              		.loc 3 122 12 view .LVU60
 232 0056 07EE905A 		vmov	s15, r5	@ int
 233 005a F8EEE77A 		vcvt.f32.s32	s15, s15
 234              		.loc 3 122 23 view .LVU61
 235 005e 67EEA67A 		vmul.f32	s15, s15, s13
 236              	.LBE195:
 237              	.LBE197:
  91:GrannyChordApp.cpp ****       wav_playhead_++;
 238              		.loc 2 91 17 view .LVU62
 239 0062 C6ED017A 		vstr.32	s15, [r6, #4]
 240              		.loc 2 92 7 is_stmt 1 view .LVU63
 241              		.loc 2 92 20 is_stmt 0 view .LVU64
 242 0066 C0F84C36 		str	r3, [r0, #1612]
 243              	.L14:
  88:GrannyChordApp.cpp ****     if (wav_playhead_ < audio_len_){
 244              		.loc 2 88 3 is_stmt 1 discriminator 2 view .LVU65
 245 006a 0134     		adds	r4, r4, #1
 246              	.LVL11:
  88:GrannyChordApp.cpp ****     if (wav_playhead_ < audio_len_){
 247              		.loc 2 88 3 is_stmt 0 discriminator 2 view .LVU66
 248 006c D5E7     		b	.L15
 249              	.L13:
  93:GrannyChordApp.cpp ****     }
  94:GrannyChordApp.cpp ****     else {
  95:GrannyChordApp.cpp ****       out[0][i]=out[1][i]=0.0f;
 250              		.loc 2 95 7 is_stmt 1 view .LVU67
 251              		.loc 2 95 26 is_stmt 0 view .LVU68
 252 006e 0023     		movs	r3, #0
ARM GAS  /var/folders/2p/02m_5p7958535cp2tpgps0400000gn/T//ccUF7111.s 			page 13


 253 0070 3E44     		add	r6, r6, r7
 254 0072 3360     		str	r3, [r6]	@ float
 255              		.loc 2 95 16 view .LVU69
 256 0074 2B60     		str	r3, [r5]	@ float
 257 0076 F8E7     		b	.L14
 258              	.L10:
 259              		.loc 2 95 16 view .LVU70
 260              	.LBE187:
  96:GrannyChordApp.cpp ****     }
  97:GrannyChordApp.cpp ****   }
  98:GrannyChordApp.cpp **** }
 261              		.loc 2 98 1 view .LVU71
 262 0078 F0BD     		pop	{r4, r5, r6, r7, pc}
 263              	.LVL12:
 264              	.L18:
 265              		.loc 2 98 1 view .LVU72
 266 007a 00BF     		.align	2
 267              	.L17:
 268 007c 00000038 		.word	939524096
 269              		.cfi_endproc
 270              	.LFE4927:
 272              		.section	.text._ZN14GrannyChordApp15ProcessRecordInEPKPKfPPfj,"ax",%progbits
 273              		.align	1
 274              		.global	_ZN14GrannyChordApp15ProcessRecordInEPKPKfPPfj
 275              		.syntax unified
 276              		.thumb
 277              		.thumb_func
 279              	_ZN14GrannyChordApp15ProcessRecordInEPKPKfPPfj:
 280              	.LVL13:
 281              	.LFB4928:
  99:GrannyChordApp.cpp **** 
 100:GrannyChordApp.cpp **** void GrannyChordApp::ProcessRecordIn(AudioHandle::InputBuffer in, AudioHandle::OutputBuffer out, si
 282              		.loc 2 100 110 is_stmt 1 view -0
 283              		.cfi_startproc
 284              		@ args = 0, pretend = 0, frame = 0
 285              		@ frame_needed = 0, uses_anonymous_args = 0
 101:GrannyChordApp.cpp ****   static const size_t MAX_RECORDING_LEN = 60*48000; // 60s @ 48kHZ
 286              		.loc 2 101 3 view .LVU74
 102:GrannyChordApp.cpp ****   static size_t record_pos = 0;
 287              		.loc 2 102 3 view .LVU75
 103:GrannyChordApp.cpp ****   for (size_t i=0; i<size;i++){
 288              		.loc 2 103 3 view .LVU76
 100:GrannyChordApp.cpp ****   static const size_t MAX_RECORDING_LEN = 60*48000; // 60s @ 48kHZ
 289              		.loc 2 100 110 is_stmt 0 view .LVU77
 290 0000 F0B5     		push	{r4, r5, r6, r7, lr}
 291              		.cfi_def_cfa_offset 20
 292              		.cfi_offset 4, -20
 293              		.cfi_offset 5, -16
 294              		.cfi_offset 6, -12
 295              		.cfi_offset 7, -8
 296              		.cfi_offset 14, -4
 297 0002 DFF878C0 		ldr	ip, .L27+4
 100:GrannyChordApp.cpp ****   static const size_t MAX_RECORDING_LEN = 60*48000; // 60s @ 48kHZ
 298              		.loc 2 100 110 view .LVU78
 299 0006 0026     		movs	r6, #0
 300 0008 DCF80040 		ldr	r4, [ip]
 301              	.LBB198:
ARM GAS  /var/folders/2p/02m_5p7958535cp2tpgps0400000gn/T//ccUF7111.s 			page 14


 302              		.loc 2 103 15 view .LVU79
 303 000c 3546     		mov	r5, r6
 304              	.LVL14:
 305              	.L21:
 306              		.loc 2 103 21 is_stmt 1 discriminator 3 view .LVU80
 307 000e 9D42     		cmp	r5, r3
 308 0010 2ED0     		beq	.L20
 104:GrannyChordApp.cpp ****     /* send audio in straight to output for monitoring */
 105:GrannyChordApp.cpp ****     out[0][i]=in[0][i];
 309              		.loc 2 105 5 discriminator 2 view .LVU81
 310              		.loc 2 105 22 is_stmt 0 discriminator 2 view .LVU82
 311 0012 0E68     		ldr	r6, [r1]
 312              		.loc 2 105 14 discriminator 2 view .LVU83
 313 0014 1768     		ldr	r7, [r2]
 314              		.loc 2 105 22 discriminator 2 view .LVU84
 315 0016 06EB8506 		add	r6, r6, r5, lsl #2
 316              		.loc 2 105 14 discriminator 2 view .LVU85
 317 001a 07EB8507 		add	r7, r7, r5, lsl #2
 318              		.loc 2 105 22 discriminator 2 view .LVU86
 319 001e D6F800E0 		ldr	lr, [r6]	@ float
 320              		.loc 2 105 14 discriminator 2 view .LVU87
 321 0022 C7F800E0 		str	lr, [r7]	@ float
 106:GrannyChordApp.cpp ****     out[1][i]=in[1][i];
 322              		.loc 2 106 5 is_stmt 1 discriminator 2 view .LVU88
 323              		.loc 2 106 22 is_stmt 0 discriminator 2 view .LVU89
 324 0026 4F68     		ldr	r7, [r1, #4]
 325 0028 07EB8507 		add	r7, r7, r5, lsl #2
 326 002c D7ED007A 		vldr.32	s15, [r7]
 327              		.loc 2 106 14 discriminator 2 view .LVU90
 328 0030 5768     		ldr	r7, [r2, #4]
 329 0032 07EB8507 		add	r7, r7, r5, lsl #2
 103:GrannyChordApp.cpp ****     /* send audio in straight to output for monitoring */
 330              		.loc 2 103 3 discriminator 2 view .LVU91
 331 0036 0135     		adds	r5, r5, #1
 332              	.LVL15:
 333              		.loc 2 106 14 discriminator 2 view .LVU92
 334 0038 C7ED007A 		vstr.32	s15, [r7]
 107:GrannyChordApp.cpp **** 
 108:GrannyChordApp.cpp ****     /* record audio in to SDRAM buffers */
 109:GrannyChordApp.cpp ****     left_buf_[record_pos] = in[0][i];
 335              		.loc 2 109 5 is_stmt 1 discriminator 2 view .LVU93
 110:GrannyChordApp.cpp ****     right_buf_[record_pos] = in[1][i];
 336              		.loc 2 110 28 is_stmt 0 discriminator 2 view .LVU94
 337 003c FDEEE77A 		vcvt.s32.f32	s15, s15
 109:GrannyChordApp.cpp ****     right_buf_[record_pos] = in[1][i];
 338              		.loc 2 109 27 discriminator 2 view .LVU95
 339 0040 96ED007A 		vldr.32	s14, [r6]
 340 0044 D0F84076 		ldr	r7, [r0, #1600]
 341 0048 BDEEC77A 		vcvt.s32.f32	s14, s14
 342 004c 17EE106A 		vmov	r6, s14	@ int
 343 0050 27F81460 		strh	r6, [r7, r4, lsl #1]	@ movhi
 344              		.loc 2 110 5 is_stmt 1 discriminator 2 view .LVU96
 345              		.loc 2 110 28 is_stmt 0 discriminator 2 view .LVU97
 346 0054 17EE907A 		vmov	r7, s15	@ int
 347 0058 D0F84466 		ldr	r6, [r0, #1604]
 348 005c 26F81470 		strh	r7, [r6, r4, lsl #1]	@ movhi
 111:GrannyChordApp.cpp **** 
ARM GAS  /var/folders/2p/02m_5p7958535cp2tpgps0400000gn/T//ccUF7111.s 			page 15


 112:GrannyChordApp.cpp ****     /* wrap around recording length - if it exceeds 60s,
 113:GrannyChordApp.cpp ****       the start of the recording will be overwritten */
 114:GrannyChordApp.cpp ****     record_pos = (record_pos+1)%MAX_RECORDING_LEN;
 349              		.loc 2 114 5 is_stmt 1 discriminator 2 view .LVU98
 350              		.loc 2 114 29 is_stmt 0 discriminator 2 view .LVU99
 351 0060 0134     		adds	r4, r4, #1
 352              		.loc 2 114 32 discriminator 2 view .LVU100
 353 0062 054E     		ldr	r6, .L27
 354 0064 B4FBF6F7 		udiv	r7, r4, r6
 355 0068 06FB1744 		mls	r4, r6, r7, r4
 103:GrannyChordApp.cpp ****     /* send audio in straight to output for monitoring */
 356              		.loc 2 103 3 is_stmt 1 discriminator 2 view .LVU101
 357              	.LVL16:
 103:GrannyChordApp.cpp ****     /* send audio in straight to output for monitoring */
 358              		.loc 2 103 3 is_stmt 0 discriminator 2 view .LVU102
 359 006c 0126     		movs	r6, #1
 360 006e CEE7     		b	.L21
 361              	.L20:
 103:GrannyChordApp.cpp ****     /* send audio in straight to output for monitoring */
 362              		.loc 2 103 3 discriminator 2 view .LVU103
 363 0070 0EB1     		cbz	r6, .L19
 364 0072 CCF80040 		str	r4, [ip]
 365              	.L19:
 366              	.LBE198:
 115:GrannyChordApp.cpp **** 
 116:GrannyChordApp.cpp ****   }
 117:GrannyChordApp.cpp **** }
 367              		.loc 2 117 1 view .LVU104
 368 0076 F0BD     		pop	{r4, r5, r6, r7, pc}
 369              	.LVL17:
 370              	.L28:
 371              		.loc 2 117 1 view .LVU105
 372              		.align	2
 373              	.L27:
 374 0078 00F22B00 		.word	2880000
 375 007c 00000000 		.word	.LANCHOR0
 376              		.cfi_endproc
 377              	.LFE4928:
 379              		.section	.text._ZN14GrannyChordApp16ProcessSynthesisEPPfj,"ax",%progbits
 380              		.align	1
 381              		.global	_ZN14GrannyChordApp16ProcessSynthesisEPPfj
 382              		.syntax unified
 383              		.thumb
 384              		.thumb_func
 386              	_ZN14GrannyChordApp16ProcessSynthesisEPPfj:
 387              	.LVL18:
 388              	.LFB4929:
 118:GrannyChordApp.cpp **** 
 119:GrannyChordApp.cpp **** void GrannyChordApp::ProcessSynthesis(AudioHandle::OutputBuffer out, size_t size){
 389              		.loc 2 119 82 is_stmt 1 view -0
 390              		.cfi_startproc
 391              		@ args = 0, pretend = 0, frame = 8
 392              		@ frame_needed = 0, uses_anonymous_args = 0
 120:GrannyChordApp.cpp ****   for (size_t i=0; i<size; i++){
 393              		.loc 2 120 3 view .LVU107
 119:GrannyChordApp.cpp ****   for (size_t i=0; i<size; i++){
 394              		.loc 2 119 82 is_stmt 0 view .LVU108
ARM GAS  /var/folders/2p/02m_5p7958535cp2tpgps0400000gn/T//ccUF7111.s 			page 16


 395 0000 2DE9FF41 		push	{r0, r1, r2, r3, r4, r5, r6, r7, r8, lr}
 396              		.cfi_def_cfa_offset 40
 397              		.cfi_offset 4, -24
 398              		.cfi_offset 5, -20
 399              		.cfi_offset 6, -16
 400              		.cfi_offset 7, -12
 401              		.cfi_offset 8, -8
 402              		.cfi_offset 14, -4
 119:GrannyChordApp.cpp ****   for (size_t i=0; i<size; i++){
 403              		.loc 2 119 82 view .LVU109
 404 0004 0746     		mov	r7, r0
 405 0006 0D46     		mov	r5, r1
 406 0008 1446     		mov	r4, r2
 407              	.LBB204:
 408              		.loc 2 120 15 view .LVU110
 409 000a 4FF00008 		mov	r8, #0
 410              	.LVL19:
 411              	.L31:
 412              		.loc 2 120 21 is_stmt 1 discriminator 3 view .LVU111
 413 000e A045     		cmp	r8, r4
 414 0010 19D0     		beq	.L29
 121:GrannyChordApp.cpp ****     synth_.ProcessGrains(out[0],out[1],size);
 415              		.loc 2 121 5 discriminator 2 view .LVU112
 416              		.loc 2 121 25 is_stmt 0 discriminator 2 view .LVU113
 417 0012 2346     		mov	r3, r4
 418 0014 381D     		adds	r0, r7, #4
 122:GrannyChordApp.cpp ****     comp_.ProcessBlock(out[0],out[0],size);
 419              		.loc 2 122 23 discriminator 2 view .LVU114
 420 0016 07F5C066 		add	r6, r7, #1536
 120:GrannyChordApp.cpp ****     synth_.ProcessGrains(out[0],out[1],size);
 421              		.loc 2 120 3 discriminator 2 view .LVU115
 422 001a 08F10108 		add	r8, r8, #1
 423              	.LVL20:
 121:GrannyChordApp.cpp ****     synth_.ProcessGrains(out[0],out[1],size);
 424              		.loc 2 121 25 discriminator 2 view .LVU116
 425 001e D5E90012 		ldrd	r1, r2, [r5]
 426 0022 FFF7FEFF 		bl	_ZN13GranularSynth13ProcessGrainsEPfS0_j
 427              	.LVL21:
 428              		.loc 2 122 5 is_stmt 1 discriminator 2 view .LVU117
 429              	.LBB205:
 430              	.LBI205:
  69:../DaisySP/Source/../DaisySP-LGPL/Source/Dynamics/compressor.h ****     {
 431              		.loc 1 69 10 discriminator 2 view .LVU118
 432              	.LBB206:
  71:../DaisySP/Source/../DaisySP-LGPL/Source/Dynamics/compressor.h ****     }
 433              		.loc 1 71 9 discriminator 2 view .LVU119
  71:../DaisySP/Source/../DaisySP-LGPL/Source/Dynamics/compressor.h ****     }
 434              		.loc 1 71 21 is_stmt 0 discriminator 2 view .LVU120
 435 0026 2B68     		ldr	r3, [r5]
 436 0028 3046     		mov	r0, r6
 437 002a 0094     		str	r4, [sp]
 438              	.LVL22:
  71:../DaisySP/Source/../DaisySP-LGPL/Source/Dynamics/compressor.h ****     }
 439              		.loc 1 71 21 discriminator 2 view .LVU121
 440 002c 1A46     		mov	r2, r3
 441 002e 1946     		mov	r1, r3
 442 0030 0396     		str	r6, [sp, #12]
ARM GAS  /var/folders/2p/02m_5p7958535cp2tpgps0400000gn/T//ccUF7111.s 			page 17


 443 0032 FFF7FEFF 		bl	_ZN7daisysp10Compressor12ProcessBlockEPfS1_S1_j
 444              	.LVL23:
  71:../DaisySP/Source/../DaisySP-LGPL/Source/Dynamics/compressor.h ****     }
 445              		.loc 1 71 21 discriminator 2 view .LVU122
 446              	.LBE206:
 447              	.LBE205:
 123:GrannyChordApp.cpp ****     comp_.ProcessBlock(out[1],out[1],size);
 448              		.loc 2 123 5 is_stmt 1 discriminator 2 view .LVU123
 449              	.LBB207:
 450              	.LBI207:
  69:../DaisySP/Source/../DaisySP-LGPL/Source/Dynamics/compressor.h ****     {
 451              		.loc 1 69 10 discriminator 2 view .LVU124
 452              	.LBB208:
  71:../DaisySP/Source/../DaisySP-LGPL/Source/Dynamics/compressor.h ****     }
 453              		.loc 1 71 9 discriminator 2 view .LVU125
  71:../DaisySP/Source/../DaisySP-LGPL/Source/Dynamics/compressor.h ****     }
 454              		.loc 1 71 21 is_stmt 0 discriminator 2 view .LVU126
 455 0036 6B68     		ldr	r3, [r5, #4]
 456 0038 0398     		ldr	r0, [sp, #12]
 457 003a 1A46     		mov	r2, r3
 458 003c 1946     		mov	r1, r3
 459 003e 0094     		str	r4, [sp]
 460              	.LVL24:
  71:../DaisySP/Source/../DaisySP-LGPL/Source/Dynamics/compressor.h ****     }
 461              		.loc 1 71 21 discriminator 2 view .LVU127
 462 0040 FFF7FEFF 		bl	_ZN7daisysp10Compressor12ProcessBlockEPfS1_S1_j
 463              	.LVL25:
  71:../DaisySP/Source/../DaisySP-LGPL/Source/Dynamics/compressor.h ****     }
 464              		.loc 1 71 21 discriminator 2 view .LVU128
 465              	.LBE208:
 466              	.LBE207:
 120:GrannyChordApp.cpp ****     synth_.ProcessGrains(out[0],out[1],size);
 467              		.loc 2 120 3 is_stmt 1 discriminator 2 view .LVU129
 120:GrannyChordApp.cpp ****     synth_.ProcessGrains(out[0],out[1],size);
 468              		.loc 2 120 3 is_stmt 0 discriminator 2 view .LVU130
 469 0044 E3E7     		b	.L31
 470              	.L29:
 120:GrannyChordApp.cpp ****     synth_.ProcessGrains(out[0],out[1],size);
 471              		.loc 2 120 3 discriminator 2 view .LVU131
 472              	.LBE204:
 124:GrannyChordApp.cpp ****   }
 125:GrannyChordApp.cpp **** }
 473              		.loc 2 125 1 view .LVU132
 474 0046 04B0     		add	sp, sp, #16
 475              		.cfi_def_cfa_offset 24
 476              		@ sp needed
 477 0048 BDE8F081 		pop	{r4, r5, r6, r7, r8, pc}
 478              		.loc 2 125 1 view .LVU133
 479              		.cfi_endproc
 480              	.LFE4929:
 482              		.section	.text._ZN14GrannyChordApp13AudioCallbackEPKPKfPPfj,"ax",%progbits
 483              		.align	1
 484              		.global	_ZN14GrannyChordApp13AudioCallbackEPKPKfPPfj
 485              		.syntax unified
 486              		.thumb
 487              		.thumb_func
 489              	_ZN14GrannyChordApp13AudioCallbackEPKPKfPPfj:
ARM GAS  /var/folders/2p/02m_5p7958535cp2tpgps0400000gn/T//ccUF7111.s 			page 18


 490              	.LVL26:
 491              	.LFB4925:
  55:GrannyChordApp.cpp ****   AppState curr_state = instance_->ui_.GetCurrentState();
 492              		.loc 2 55 108 is_stmt 1 view -0
 493              		.cfi_startproc
 494              		@ args = 0, pretend = 0, frame = 0
 495              		@ frame_needed = 0, uses_anonymous_args = 0
 496              		@ link register save eliminated.
  56:GrannyChordApp.cpp ****   // if in RecordIn: clear channel buffers, send input straight to them
 497              		.loc 2 56 3 view .LVU135
  55:GrannyChordApp.cpp ****   AppState curr_state = instance_->ui_.GetCurrentState();
 498              		.loc 2 55 108 is_stmt 0 view .LVU136
 499 0000 70B4     		push	{r4, r5, r6}
 500              		.cfi_def_cfa_offset 12
 501              		.cfi_offset 4, -12
 502              		.cfi_offset 5, -8
 503              		.cfi_offset 6, -4
  55:GrannyChordApp.cpp ****   AppState curr_state = instance_->ui_.GetCurrentState();
 504              		.loc 2 55 108 view .LVU137
 505 0002 0446     		mov	r4, r0
  56:GrannyChordApp.cpp ****   // if in RecordIn: clear channel buffers, send input straight to them
 506              		.loc 2 56 36 view .LVU138
 507 0004 0B48     		ldr	r0, .L38
 508              	.LVL27:
  55:GrannyChordApp.cpp ****   AppState curr_state = instance_->ui_.GetCurrentState();
 509              		.loc 2 55 108 view .LVU139
 510 0006 1346     		mov	r3, r2
  56:GrannyChordApp.cpp ****   // if in RecordIn: clear channel buffers, send input straight to them
 511              		.loc 2 56 36 view .LVU140
 512 0008 0068     		ldr	r0, [r0]
 513              	.LVL28:
 514              	.LBB209:
 515              	.LBI209:
 516              		.file 4 "UIManager.h"
   1:UIManager.h   **** #pragma once
   2:UIManager.h   **** #include "daisy_pod.h"
   3:UIManager.h   **** #include "AppState.h"
   4:UIManager.h   **** #include "constants_utils.h"
   5:UIManager.h   **** 
   6:UIManager.h   **** using namespace daisy;
   7:UIManager.h   **** 
   8:UIManager.h   **** class UIManager {
   9:UIManager.h   ****   public:
  10:UIManager.h   ****     UIManager(DaisyPod& pod): pod_(pod) {}
  11:UIManager.h   **** 
  12:UIManager.h   ****     void Init();
  13:UIManager.h   **** 
  14:UIManager.h   ****     AppState GetCurrentState() { return current_state_; }
 517              		.loc 4 14 14 is_stmt 1 view .LVU141
 518              	.LBB210:
 519              		.loc 4 14 34 view .LVU142
 520              		.loc 4 14 41 is_stmt 0 view .LVU143
 521 000a D0F8A865 		ldr	r6, [r0, #1448]
 522              	.LVL29:
 523              		.loc 4 14 41 view .LVU144
 524              	.LBE210:
 525              	.LBE209:
ARM GAS  /var/folders/2p/02m_5p7958535cp2tpgps0400000gn/T//ccUF7111.s 			page 19


  61:GrannyChordApp.cpp ****     case AppState::PlayWAV:
 526              		.loc 2 61 3 is_stmt 1 view .LVU145
 527 000e 032E     		cmp	r6, #3
 528 0010 0AD0     		beq	.L33
 529 0012 042E     		cmp	r6, #4
 530 0014 03D0     		beq	.L34
 531 0016 022E     		cmp	r6, #2
 532 0018 09D1     		bne	.L37
  76:GrannyChordApp.cpp **** 
 533              		.loc 2 76 1 is_stmt 0 view .LVU146
 534 001a 70BC     		pop	{r4, r5, r6}
 535              		.cfi_remember_state
 536              		.cfi_restore 6
 537              		.cfi_restore 5
 538              		.cfi_restore 4
 539              		.cfi_def_cfa_offset 0
 540              	.LVL30:
  76:GrannyChordApp.cpp **** 
 541              		.loc 2 76 1 view .LVU147
 542 001c 7047     		bx	lr
 543              	.LVL31:
 544              	.L34:
 545              		.cfi_restore_state
  64:GrannyChordApp.cpp ****       instance_->ProcessRecordIn(in, out, size);
 546              		.loc 2 64 5 is_stmt 1 view .LVU148
  65:GrannyChordApp.cpp ****       break;
 547              		.loc 2 65 7 view .LVU149
  65:GrannyChordApp.cpp ****       break;
 548              		.loc 2 65 33 is_stmt 0 view .LVU150
 549 001e 0A46     		mov	r2, r1
 550              	.LVL32:
  65:GrannyChordApp.cpp ****       break;
 551              		.loc 2 65 33 view .LVU151
 552 0020 2146     		mov	r1, r4
 553              	.LVL33:
  76:GrannyChordApp.cpp **** 
 554              		.loc 2 76 1 view .LVU152
 555 0022 70BC     		pop	{r4, r5, r6}
 556              		.cfi_remember_state
 557              		.cfi_restore 6
 558              		.cfi_restore 5
 559              		.cfi_restore 4
 560              		.cfi_def_cfa_offset 0
 561              	.LVL34:
  65:GrannyChordApp.cpp ****       break;
 562              		.loc 2 65 33 view .LVU153
 563 0024 FFF7FEBF 		b	_ZN14GrannyChordApp15ProcessRecordInEPKPKfPPfj
 564              	.LVL35:
 565              	.L33:
 566              		.cfi_restore_state
  67:GrannyChordApp.cpp ****       instance_->ProcessSynthesis(out,size);
 567              		.loc 2 67 5 is_stmt 1 view .LVU154
  68:GrannyChordApp.cpp ****       break;
 568              		.loc 2 68 7 view .LVU155
  76:GrannyChordApp.cpp **** 
 569              		.loc 2 76 1 is_stmt 0 view .LVU156
 570 0028 70BC     		pop	{r4, r5, r6}
ARM GAS  /var/folders/2p/02m_5p7958535cp2tpgps0400000gn/T//ccUF7111.s 			page 20


 571              		.cfi_remember_state
 572              		.cfi_restore 6
 573              		.cfi_restore 5
 574              		.cfi_restore 4
 575              		.cfi_def_cfa_offset 0
 576              	.LVL36:
  68:GrannyChordApp.cpp ****       break;
 577              		.loc 2 68 34 view .LVU157
 578 002a FFF7FEBF 		b	_ZN14GrannyChordApp16ProcessSynthesisEPPfj
 579              	.LVL37:
 580              	.L37:
 581              		.cfi_restore_state
  72:GrannyChordApp.cpp ****       instance_->AudioIdle(out,size);
 582              		.loc 2 72 5 is_stmt 1 view .LVU158
  73:GrannyChordApp.cpp ****       break;
 583              		.loc 2 73 7 view .LVU159
  76:GrannyChordApp.cpp **** 
 584              		.loc 2 76 1 is_stmt 0 view .LVU160
 585 002e 70BC     		pop	{r4, r5, r6}
 586              		.cfi_restore 6
 587              		.cfi_restore 5
 588              		.cfi_restore 4
 589              		.cfi_def_cfa_offset 0
 590              	.LVL38:
  73:GrannyChordApp.cpp ****       break;
 591              		.loc 2 73 27 view .LVU161
 592 0030 FFF7FEBF 		b	_ZN14GrannyChordApp9AudioIdleEPPfj
 593              	.LVL39:
 594              	.L39:
  73:GrannyChordApp.cpp ****       break;
 595              		.loc 2 73 27 view .LVU162
 596              		.align	2
 597              	.L38:
 598 0034 00000000 		.word	.LANCHOR1
 599              		.cfi_endproc
 600              	.LFE4925:
 602              		.section	.text._ZN14GrannyChordApp16ProcessChordModeEPPfj,"ax",%progbits
 603              		.align	1
 604              		.global	_ZN14GrannyChordApp16ProcessChordModeEPPfj
 605              		.syntax unified
 606              		.thumb
 607              		.thumb_func
 609              	_ZN14GrannyChordApp16ProcessChordModeEPPfj:
 610              	.LVL40:
 611              	.LFB4930:
 126:GrannyChordApp.cpp **** 
 127:GrannyChordApp.cpp **** void GrannyChordApp::ProcessChordMode(AudioHandle::OutputBuffer out, size_t size){
 612              		.loc 2 127 82 is_stmt 1 view -0
 613              		.cfi_startproc
 614              		@ args = 0, pretend = 0, frame = 0
 615              		@ frame_needed = 0, uses_anonymous_args = 0
 616              		@ link register save eliminated.
 128:GrannyChordApp.cpp ****   // if (UserTriggeredChord()) {
 129:GrannyChordApp.cpp ****   //   synth_.TriggerChord(out[0], out[1], size);
 130:GrannyChordApp.cpp ****   // } else {
 131:GrannyChordApp.cpp ****   //     std::memset(out[0], 0, size * sizeof(float));
 132:GrannyChordApp.cpp ****   //     std::memset(out[1], 0, size * sizeof(float));
ARM GAS  /var/folders/2p/02m_5p7958535cp2tpgps0400000gn/T//ccUF7111.s 			page 21


 133:GrannyChordApp.cpp ****   // }
 134:GrannyChordApp.cpp **** }
 617              		.loc 2 134 1 is_stmt 0 view .LVU164
 618 0000 7047     		bx	lr
 619              		.cfi_endproc
 620              	.LFE4930:
 622              		.section	.text._ZN14GrannyChordApp13RecordOutToSDEPPfj,"ax",%progbits
 623              		.align	1
 624              		.global	_ZN14GrannyChordApp13RecordOutToSDEPPfj
 625              		.syntax unified
 626              		.thumb
 627              		.thumb_func
 629              	_ZN14GrannyChordApp13RecordOutToSDEPPfj:
 630              	.LFB5536:
 631              		.cfi_startproc
 632              		@ args = 0, pretend = 0, frame = 0
 633              		@ frame_needed = 0, uses_anonymous_args = 0
 634              		@ link register save eliminated.
 635 0000 7047     		bx	lr
 636              		.cfi_endproc
 637              	.LFE5536:
 639              		.section	.text._ZN14GrannyChordApp14StartRecordOutEv,"ax",%progbits
 640              		.align	1
 641              		.global	_ZN14GrannyChordApp14StartRecordOutEv
 642              		.syntax unified
 643              		.thumb
 644              		.thumb_func
 646              	_ZN14GrannyChordApp14StartRecordOutEv:
 647              	.LVL41:
 648              	.LFB4932:
 135:GrannyChordApp.cpp **** 
 136:GrannyChordApp.cpp **** void GrannyChordApp::RecordOutToSD(AudioHandle::OutputBuffer out, size_t size){
 137:GrannyChordApp.cpp ****   // create file on sd card 
 138:GrannyChordApp.cpp ****   // write in blocks
 139:GrannyChordApp.cpp ****   // will have to f2s16 to conv back to int16 
 140:GrannyChordApp.cpp ****   // max recording duration should be 120*48000*sizeof(float)*2(channels)??
 141:GrannyChordApp.cpp ****   // wrap around index ? or just stop recording at max length
 142:GrannyChordApp.cpp ****   // could flash seed led if wrapping, solid if stop at max
 143:GrannyChordApp.cpp ****   // write straight to sd card?
 144:GrannyChordApp.cpp ****   // or is it better to write to a circular buffer in SDRAM
 145:GrannyChordApp.cpp ****   // then asynchronously/more slowly write to SD card
 146:GrannyChordApp.cpp ****   // reset recording buffer pointer
 147:GrannyChordApp.cpp ****   // set up audio input gain or anything?
 148:GrannyChordApp.cpp ****   // init sample counter for recording duration? 
 149:GrannyChordApp.cpp ****   // when finished: update file headers
 150:GrannyChordApp.cpp ****   // update UI to show recording finished
 151:GrannyChordApp.cpp **** }
 152:GrannyChordApp.cpp **** 
 153:GrannyChordApp.cpp **** void GrannyChordApp::StartRecordOut(){
 649              		.loc 2 153 38 is_stmt 1 view -0
 650              		.cfi_startproc
 651              		@ args = 0, pretend = 0, frame = 0
 652              		@ frame_needed = 0, uses_anonymous_args = 0
 653              		@ link register save eliminated.
 154:GrannyChordApp.cpp ****   recording_out_=true;
 654              		.loc 2 154 3 view .LVU166
 655              		.loc 2 154 17 is_stmt 0 view .LVU167
ARM GAS  /var/folders/2p/02m_5p7958535cp2tpgps0400000gn/T//ccUF7111.s 			page 22


 656 0000 0123     		movs	r3, #1
 657 0002 80F88C36 		strb	r3, [r0, #1676]
 155:GrannyChordApp.cpp **** }
 658              		.loc 2 155 1 view .LVU168
 659 0006 7047     		bx	lr
 660              		.cfi_endproc
 661              	.LFE4932:
 663              		.section	.text._ZN14GrannyChordApp13StopRecordOutEv,"ax",%progbits
 664              		.align	1
 665              		.global	_ZN14GrannyChordApp13StopRecordOutEv
 666              		.syntax unified
 667              		.thumb
 668              		.thumb_func
 670              	_ZN14GrannyChordApp13StopRecordOutEv:
 671              	.LVL42:
 672              	.LFB4933:
 156:GrannyChordApp.cpp **** 
 157:GrannyChordApp.cpp **** void GrannyChordApp::StopRecordOut(){
 673              		.loc 2 157 37 is_stmt 1 view -0
 674              		.cfi_startproc
 675              		@ args = 0, pretend = 0, frame = 0
 676              		@ frame_needed = 0, uses_anonymous_args = 0
 677              		@ link register save eliminated.
 158:GrannyChordApp.cpp ****   recording_out_ = false;
 678              		.loc 2 158 3 view .LVU170
 679              		.loc 2 158 18 is_stmt 0 view .LVU171
 680 0000 0023     		movs	r3, #0
 681 0002 80F88C36 		strb	r3, [r0, #1676]
 159:GrannyChordApp.cpp **** }
 682              		.loc 2 159 1 view .LVU172
 683 0006 7047     		bx	lr
 684              		.cfi_endproc
 685              	.LFE4933:
 687              		.section	.text._ZN14GrannyChordApp11InitFileMgrEv,"ax",%progbits
 688              		.align	1
 689              		.global	_ZN14GrannyChordApp11InitFileMgrEv
 690              		.syntax unified
 691              		.thumb
 692              		.thumb_func
 694              	_ZN14GrannyChordApp11InitFileMgrEv:
 695              	.LVL43:
 696              	.LFB4935:
 160:GrannyChordApp.cpp **** 
 161:GrannyChordApp.cpp **** void GrannyChordApp::HandleStateChange(AppState prev, AppState curr){
 162:GrannyChordApp.cpp ****   /* clean up from previous state */
 163:GrannyChordApp.cpp ****   switch (prev){
 164:GrannyChordApp.cpp ****     case AppState::SelectFile:
 165:GrannyChordApp.cpp **** 
 166:GrannyChordApp.cpp ****       break;
 167:GrannyChordApp.cpp ****     case AppState::PlayWAV:
 168:GrannyChordApp.cpp ****       
 169:GrannyChordApp.cpp ****       // what do i need to do here?
 170:GrannyChordApp.cpp ****       break;
 171:GrannyChordApp.cpp ****     case AppState::RecordIn:
 172:GrannyChordApp.cpp ****       // stop recording / writing to buffers
 173:GrannyChordApp.cpp ****       // set playhead to start
 174:GrannyChordApp.cpp ****       // 
ARM GAS  /var/folders/2p/02m_5p7958535cp2tpgps0400000gn/T//ccUF7111.s 			page 23


 175:GrannyChordApp.cpp ****       break;
 176:GrannyChordApp.cpp ****     case AppState::Synthesis:
 177:GrannyChordApp.cpp ****       // stop audio output/synthesis? 
 178:GrannyChordApp.cpp ****       // if we go to either chord mode or select file, audio will stop anyway
 179:GrannyChordApp.cpp ****       // anything else here? 
 180:GrannyChordApp.cpp ****       break;
 181:GrannyChordApp.cpp ****     // case AppState::ChordMode:
 182:GrannyChordApp.cpp ****       // break;
 183:GrannyChordApp.cpp ****     // case AppState::RecordOut:
 184:GrannyChordApp.cpp ****       // finish writing to sd card, close file? 
 185:GrannyChordApp.cpp ****       // break;
 186:GrannyChordApp.cpp ****     default:
 187:GrannyChordApp.cpp ****       break;
 188:GrannyChordApp.cpp ****   }
 189:GrannyChordApp.cpp ****   /* prepare for new state */
 190:GrannyChordApp.cpp ****   switch(curr){
 191:GrannyChordApp.cpp ****     case AppState::SelectFile:
 192:GrannyChordApp.cpp ****       InitFileSelection();
 193:GrannyChordApp.cpp ****       break;
 194:GrannyChordApp.cpp ****     case AppState::PlayWAV:
 195:GrannyChordApp.cpp ****       InitPlayback();
 196:GrannyChordApp.cpp ****       break;
 197:GrannyChordApp.cpp ****     case AppState::RecordIn:
 198:GrannyChordApp.cpp ****       InitRecordIn();
 199:GrannyChordApp.cpp ****       break;
 200:GrannyChordApp.cpp ****     case AppState::Synthesis:
 201:GrannyChordApp.cpp ****       InitSynth();
 202:GrannyChordApp.cpp ****       break;
 203:GrannyChordApp.cpp ****     // case AppState::ChordMode:
 204:GrannyChordApp.cpp ****       // InitChordMode();
 205:GrannyChordApp.cpp ****       // break;
 206:GrannyChordApp.cpp ****     // case AppState::RecordOut:
 207:GrannyChordApp.cpp ****       // do i need to do much here? 
 208:GrannyChordApp.cpp ****       // don't stop audio since i'm recording
 209:GrannyChordApp.cpp ****       // how do i handle this? need to stay in granular/chord mode
 210:GrannyChordApp.cpp ****       // or at least keep outputting audio
 211:GrannyChordApp.cpp ****       // should i just not make this a state? 
 212:GrannyChordApp.cpp ****       // need to check sd card has memory, create file,
 213:GrannyChordApp.cpp ****       // write to it until max recording length, close file,
 214:GrannyChordApp.cpp ****       // return to previous state 
 215:GrannyChordApp.cpp ****     case AppState::Error:
 216:GrannyChordApp.cpp ****       // Handle error state? what to do....
 217:GrannyChordApp.cpp ****       break;
 218:GrannyChordApp.cpp ****     default:
 219:GrannyChordApp.cpp ****       // what here? restart ? 
 220:GrannyChordApp.cpp ****       break;
 221:GrannyChordApp.cpp ****   }
 222:GrannyChordApp.cpp **** }
 223:GrannyChordApp.cpp **** 
 224:GrannyChordApp.cpp **** bool GrannyChordApp::InitFileMgr(){
 697              		.loc 2 224 35 is_stmt 1 view -0
 698              		.cfi_startproc
 699              		@ args = 0, pretend = 0, frame = 0
 700              		@ frame_needed = 0, uses_anonymous_args = 0
 225:GrannyChordApp.cpp ****   filemgr_.SetBuffers(left_buf_,right_buf_);
 701              		.loc 2 225 3 view .LVU174
 224:GrannyChordApp.cpp ****   filemgr_.SetBuffers(left_buf_,right_buf_);
ARM GAS  /var/folders/2p/02m_5p7958535cp2tpgps0400000gn/T//ccUF7111.s 			page 24


 702              		.loc 2 224 35 is_stmt 0 view .LVU175
 703 0000 10B5     		push	{r4, lr}
 704              		.cfi_def_cfa_offset 8
 705              		.cfi_offset 4, -8
 706              		.cfi_offset 14, -4
 224:GrannyChordApp.cpp ****   filemgr_.SetBuffers(left_buf_,right_buf_);
 707              		.loc 2 224 35 view .LVU176
 708 0002 0446     		mov	r4, r0
 709              		.loc 2 225 22 view .LVU177
 710 0004 D0F84426 		ldr	r2, [r0, #1604]
 711 0008 D0F84016 		ldr	r1, [r0, #1600]
 712 000c D0F89C05 		ldr	r0, [r0, #1436]
 713              	.LVL44:
 714              		.loc 2 225 22 view .LVU178
 715 0010 FFF7FEFF 		bl	_ZN16AudioFileManager10SetBuffersEPsS0_
 716              	.LVL45:
 226:GrannyChordApp.cpp ****   if (!filemgr_.Init()){
 717              		.loc 2 226 3 is_stmt 1 view .LVU179
 718              		.loc 2 226 21 is_stmt 0 view .LVU180
 719 0014 D4F89C05 		ldr	r0, [r4, #1436]
 720 0018 FFF7FEFF 		bl	_ZN16AudioFileManager4InitEv
 721              	.LVL46:
 722              		.loc 2 226 3 view .LVU181
 723 001c 28B9     		cbnz	r0, .L45
 724              	.L47:
 227:GrannyChordApp.cpp ****       ui_.SetStateError();
 725              		.loc 2 227 7 is_stmt 1 view .LVU182
 726              		.loc 2 227 24 is_stmt 0 view .LVU183
 727 001e 04F2A450 		addw	r0, r4, #1444
 728 0022 FFF7FEFF 		bl	_ZN9UIManager13SetStateErrorEv
 729              	.LVL47:
 228:GrannyChordApp.cpp ****       return false;
 730              		.loc 2 228 7 is_stmt 1 view .LVU184
 731              		.loc 2 228 14 is_stmt 0 view .LVU185
 732 0026 0020     		movs	r0, #0
 733              	.L46:
 229:GrannyChordApp.cpp ****   }
 230:GrannyChordApp.cpp ****   if (!filemgr_.ScanWavFiles()){
 231:GrannyChordApp.cpp ****     ui_.SetStateError();
 232:GrannyChordApp.cpp ****     return false;
 233:GrannyChordApp.cpp ****   }
 234:GrannyChordApp.cpp ****   return true;
 235:GrannyChordApp.cpp **** }
 734              		.loc 2 235 1 view .LVU186
 735 0028 10BD     		pop	{r4, pc}
 736              	.LVL48:
 737              	.L45:
 738              	.LBB213:
 739              	.LBI213:
 224:GrannyChordApp.cpp ****   filemgr_.SetBuffers(left_buf_,right_buf_);
 740              		.loc 2 224 6 is_stmt 1 view .LVU187
 741              	.LBB214:
 230:GrannyChordApp.cpp ****     ui_.SetStateError();
 742              		.loc 2 230 3 view .LVU188
 230:GrannyChordApp.cpp ****     ui_.SetStateError();
 743              		.loc 2 230 29 is_stmt 0 view .LVU189
 744 002a D4F89C05 		ldr	r0, [r4, #1436]
ARM GAS  /var/folders/2p/02m_5p7958535cp2tpgps0400000gn/T//ccUF7111.s 			page 25


 745 002e FFF7FEFF 		bl	_ZN16AudioFileManager12ScanWavFilesEv
 746              	.LVL49:
 230:GrannyChordApp.cpp ****     ui_.SetStateError();
 747              		.loc 2 230 3 view .LVU190
 748 0032 0028     		cmp	r0, #0
 749 0034 F8D1     		bne	.L46
 750 0036 F2E7     		b	.L47
 751              	.LBE214:
 752              	.LBE213:
 753              		.cfi_endproc
 754              	.LFE4935:
 756              		.section	.text._ZN14GrannyChordApp9InitSynthEv,"ax",%progbits
 757              		.align	1
 758              		.global	_ZN14GrannyChordApp9InitSynthEv
 759              		.syntax unified
 760              		.thumb
 761              		.thumb_func
 763              	_ZN14GrannyChordApp9InitSynthEv:
 764              	.LVL50:
 765              	.LFB4936:
 236:GrannyChordApp.cpp **** 
 237:GrannyChordApp.cpp **** void GrannyChordApp::InitSynth(){
 766              		.loc 2 237 33 is_stmt 1 view -0
 767              		.cfi_startproc
 768              		@ args = 0, pretend = 0, frame = 0
 769              		@ frame_needed = 0, uses_anonymous_args = 0
 770              		@ link register save eliminated.
 238:GrannyChordApp.cpp ****   synth_.Init(left_buf_, right_buf_, audio_len_);
 771              		.loc 2 238 3 view .LVU192
 772              		.loc 2 238 14 is_stmt 0 view .LVU193
 773 0000 D0F85036 		ldr	r3, [r0, #1616]
 774 0004 0430     		adds	r0, r0, #4
 775              	.LVL51:
 776              		.loc 2 238 14 view .LVU194
 777 0006 D0F84026 		ldr	r2, [r0, #1600]
 778 000a D0F83C16 		ldr	r1, [r0, #1596]
 779 000e FFF7FEBF 		b	_ZN13GranularSynth4InitEPKsS1_j
 780              	.LVL52:
 781              		.loc 2 238 14 view .LVU195
 782              		.cfi_endproc
 783              	.LFE4936:
 785              		.section	.text._ZN14GrannyChordApp14InitCompressorEv,"ax",%progbits
 786              		.align	1
 787              		.global	_ZN14GrannyChordApp14InitCompressorEv
 788              		.syntax unified
 789              		.thumb
 790              		.thumb_func
 792              	_ZN14GrannyChordApp14InitCompressorEv:
 793              	.LVL53:
 794              	.LFB4937:
 239:GrannyChordApp.cpp **** }
 240:GrannyChordApp.cpp **** 
 241:GrannyChordApp.cpp **** void GrannyChordApp::InitCompressor(){
 795              		.loc 2 241 38 is_stmt 1 view -0
 796              		.cfi_startproc
 797              		@ args = 0, pretend = 0, frame = 0
 798              		@ frame_needed = 0, uses_anonymous_args = 0
ARM GAS  /var/folders/2p/02m_5p7958535cp2tpgps0400000gn/T//ccUF7111.s 			page 26


 242:GrannyChordApp.cpp ****   comp_.Init(pod_.AudioSampleRate());
 799              		.loc 2 242 3 view .LVU197
 241:GrannyChordApp.cpp ****   comp_.Init(pod_.AudioSampleRate());
 800              		.loc 2 241 38 is_stmt 0 view .LVU198
 801 0000 38B5     		push	{r3, r4, r5, lr}
 802              		.cfi_def_cfa_offset 16
 803              		.cfi_offset 3, -16
 804              		.cfi_offset 4, -12
 805              		.cfi_offset 5, -8
 806              		.cfi_offset 14, -4
 807              		.loc 2 242 13 view .LVU199
 808 0002 00F5C064 		add	r4, r0, #1536
 241:GrannyChordApp.cpp ****   comp_.Init(pod_.AudioSampleRate());
 809              		.loc 2 241 38 view .LVU200
 810 0006 0546     		mov	r5, r0
 811              		.loc 2 242 13 view .LVU201
 812 0008 0068     		ldr	r0, [r0]
 813              	.LVL54:
 241:GrannyChordApp.cpp ****   comp_.Init(pod_.AudioSampleRate());
 814              		.loc 2 241 38 view .LVU202
 815 000a 2DED028B 		vpush.64	{d8}
 816              		.cfi_def_cfa_offset 24
 817              		.cfi_offset 80, -24
 818              		.cfi_offset 81, -20
 819              		.loc 2 242 13 view .LVU203
 820 000e FFF7FEFF 		bl	_ZN5daisy8DaisyPod15AudioSampleRateEv
 821              	.LVL55:
 822              	.LBB233:
 823              	.LBB234:
 824              	.LBB235:
 825              	.LBB236:
 185:../DaisySP/Source/../DaisySP-LGPL/Source/Dynamics/compressor.h ****     }
 826              		.loc 1 185 29 view .LVU204
 827 0012 B7EE008A 		vmov.f32	s16, #1.0e+0
 828              	.LBE236:
 829              	.LBE235:
 830              	.LBE234:
 831              	.LBE233:
 832              		.loc 2 242 13 view .LVU205
 833 0016 2046     		mov	r0, r4
 834 0018 FFF7FEFF 		bl	_ZN7daisysp10Compressor4InitEf
 835              	.LVL56:
 243:GrannyChordApp.cpp ****   comp_.SetRatio(3.0f);
 836              		.loc 2 243 3 is_stmt 1 view .LVU206
 837              	.LBB245:
 838              	.LBI233:
 101:../DaisySP/Source/../DaisySP-LGPL/Source/Dynamics/compressor.h ****     {
 839              		.loc 1 101 10 view .LVU207
 840              	.LBB243:
 103:../DaisySP/Source/../DaisySP-LGPL/Source/Dynamics/compressor.h ****         RecalculateRatio();
 841              		.loc 1 103 9 view .LVU208
 842              	.LBB240:
 843              	.LBB237:
 185:../DaisySP/Source/../DaisySP-LGPL/Source/Dynamics/compressor.h ****     }
 844              		.loc 1 185 29 is_stmt 0 view .LVU209
 845 001c D4ED087A 		vldr.32	s15, [r4, #32]
 185:../DaisySP/Source/../DaisySP-LGPL/Source/Dynamics/compressor.h ****     }
ARM GAS  /var/folders/2p/02m_5p7958535cp2tpgps0400000gn/T//ccUF7111.s 			page 27


 846              		.loc 1 185 42 view .LVU210
 847 0020 9FED267A 		vldr.32	s14, .L53
 185:../DaisySP/Source/../DaisySP-LGPL/Source/Dynamics/compressor.h ****     }
 848              		.loc 1 185 29 view .LVU211
 849 0024 78EE677A 		vsub.f32	s15, s16, s15
 850              	.LBE237:
 851              	.LBE240:
 103:../DaisySP/Source/../DaisySP-LGPL/Source/Dynamics/compressor.h ****         RecalculateRatio();
 852              		.loc 1 103 16 view .LVU212
 853 0028 254B     		ldr	r3, .L53+4
 854 002a 2360     		str	r3, [r4]	@ float
 104:../DaisySP/Source/../DaisySP-LGPL/Source/Dynamics/compressor.h ****     }
 855              		.loc 1 104 9 is_stmt 1 view .LVU213
 856              	.LVL57:
 857              	.LBB241:
 858              	.LBI235:
 183:../DaisySP/Source/../DaisySP-LGPL/Source/Dynamics/compressor.h ****     {
 859              		.loc 1 183 10 view .LVU214
 860              	.LBB238:
 185:../DaisySP/Source/../DaisySP-LGPL/Source/Dynamics/compressor.h ****     }
 861              		.loc 1 185 9 view .LVU215
 185:../DaisySP/Source/../DaisySP-LGPL/Source/Dynamics/compressor.h ****     }
 862              		.loc 1 185 42 is_stmt 0 view .LVU216
 863 002c 67EE877A 		vmul.f32	s15, s15, s14
 864              	.LBE238:
 865              	.LBE241:
 866              	.LBE243:
 867              	.LBE245:
 868              	.LBB246:
 869              	.LBB247:
 870              	.LBB248:
 871              	.LBB249:
 190:../DaisySP/Source/../DaisySP-LGPL/Source/Dynamics/compressor.h ****         atk_slo2_ = expf(-(sample_rate_inv2_ / atk_));
 872              		.loc 1 190 45 view .LVU217
 873 0030 94ED0E7A 		vldr.32	s14, [r4, #56]
 874              	.LBE249:
 875              	.LBE248:
 876              	.LBE247:
 877              	.LBE246:
 878              	.LBB269:
 879              	.LBB244:
 880              	.LBB242:
 881              	.LBB239:
 185:../DaisySP/Source/../DaisySP-LGPL/Source/Dynamics/compressor.h ****     }
 882              		.loc 1 185 20 view .LVU218
 883 0034 C4ED097A 		vstr.32	s15, [r4, #36]
 884              	.LVL58:
 185:../DaisySP/Source/../DaisySP-LGPL/Source/Dynamics/compressor.h ****     }
 885              		.loc 1 185 20 view .LVU219
 886              	.LBE239:
 887              	.LBE242:
 888              	.LBE244:
 889              	.LBE269:
 244:GrannyChordApp.cpp ****   comp_.SetAttack(0.01f);
 890              		.loc 2 244 3 is_stmt 1 view .LVU220
 891              	.LBB270:
 892              	.LBI246:
ARM GAS  /var/folders/2p/02m_5p7958535cp2tpgps0400000gn/T//ccUF7111.s 			page 28


 125:../DaisySP/Source/../DaisySP-LGPL/Source/Dynamics/compressor.h ****     {
 893              		.loc 1 125 10 view .LVU221
 894              	.LBB266:
 127:../DaisySP/Source/../DaisySP-LGPL/Source/Dynamics/compressor.h ****         RecalculateAttack();
 895              		.loc 1 127 9 view .LVU222
 127:../DaisySP/Source/../DaisySP-LGPL/Source/Dynamics/compressor.h ****         RecalculateAttack();
 896              		.loc 1 127 14 is_stmt 0 view .LVU223
 897 0038 DFED227A 		vldr.32	s15, .L53+8
 898              	.LBB262:
 899              	.LBB258:
 190:../DaisySP/Source/../DaisySP-LGPL/Source/Dynamics/compressor.h ****         atk_slo2_ = expf(-(sample_rate_inv2_ / atk_));
 900              		.loc 1 190 45 view .LVU224
 901 003c 87EE270A 		vdiv.f32	s0, s14, s15
 902              	.LBE258:
 903              	.LBE262:
 127:../DaisySP/Source/../DaisySP-LGPL/Source/Dynamics/compressor.h ****         RecalculateAttack();
 904              		.loc 1 127 14 view .LVU225
 905 0040 C4ED027A 		vstr.32	s15, [r4, #8]
 128:../DaisySP/Source/../DaisySP-LGPL/Source/Dynamics/compressor.h ****     }
 906              		.loc 1 128 9 is_stmt 1 view .LVU226
 907              	.LVL59:
 908              	.LBB263:
 909              	.LBI248:
 188:../DaisySP/Source/../DaisySP-LGPL/Source/Dynamics/compressor.h ****     {
 910              		.loc 1 188 10 view .LVU227
 911              	.LBB259:
 190:../DaisySP/Source/../DaisySP-LGPL/Source/Dynamics/compressor.h ****         atk_slo2_ = expf(-(sample_rate_inv2_ / atk_));
 912              		.loc 1 190 9 view .LVU228
 190:../DaisySP/Source/../DaisySP-LGPL/Source/Dynamics/compressor.h ****         atk_slo2_ = expf(-(sample_rate_inv2_ / atk_));
 913              		.loc 1 190 25 is_stmt 0 view .LVU229
 914 0044 B1EE400A 		vneg.f32	s0, s0
 915 0048 FFF7FEFF 		bl	expf
 916              	.LVL60:
 191:../DaisySP/Source/../DaisySP-LGPL/Source/Dynamics/compressor.h **** 
 917              		.loc 1 191 46 view .LVU230
 918 004c 94ED0D7A 		vldr.32	s14, [r4, #52]
 919 0050 D4ED027A 		vldr.32	s15, [r4, #8]
 190:../DaisySP/Source/../DaisySP-LGPL/Source/Dynamics/compressor.h ****         atk_slo2_ = expf(-(sample_rate_inv2_ / atk_));
 920              		.loc 1 190 19 view .LVU231
 921 0054 84ED0A0A 		vstr.32	s0, [r4, #40]
 191:../DaisySP/Source/../DaisySP-LGPL/Source/Dynamics/compressor.h **** 
 922              		.loc 1 191 9 is_stmt 1 view .LVU232
 191:../DaisySP/Source/../DaisySP-LGPL/Source/Dynamics/compressor.h **** 
 923              		.loc 1 191 46 is_stmt 0 view .LVU233
 924 0058 87EE270A 		vdiv.f32	s0, s14, s15
 191:../DaisySP/Source/../DaisySP-LGPL/Source/Dynamics/compressor.h **** 
 925              		.loc 1 191 25 view .LVU234
 926 005c B1EE400A 		vneg.f32	s0, s0
 927 0060 FFF7FEFF 		bl	expf
 928              	.LVL61:
 929              	.LBB250:
 930              	.LBB251:
 185:../DaisySP/Source/../DaisySP-LGPL/Source/Dynamics/compressor.h ****     }
 931              		.loc 1 185 51 view .LVU235
 932 0064 94ED007A 		vldr.32	s14, [r4]
 933              	.LBE251:
 934              	.LBE250:
ARM GAS  /var/folders/2p/02m_5p7958535cp2tpgps0400000gn/T//ccUF7111.s 			page 29


 191:../DaisySP/Source/../DaisySP-LGPL/Source/Dynamics/compressor.h **** 
 935              		.loc 1 191 19 view .LVU236
 936 0068 84ED080A 		vstr.32	s0, [r4, #32]
 193:../DaisySP/Source/../DaisySP-LGPL/Source/Dynamics/compressor.h ****     }
 937              		.loc 1 193 9 is_stmt 1 view .LVU237
 938              	.LVL62:
 939              	.LBB255:
 940              	.LBI250:
 183:../DaisySP/Source/../DaisySP-LGPL/Source/Dynamics/compressor.h ****     {
 941              		.loc 1 183 10 view .LVU238
 942              	.LBB252:
 185:../DaisySP/Source/../DaisySP-LGPL/Source/Dynamics/compressor.h ****     }
 943              		.loc 1 185 9 view .LVU239
 185:../DaisySP/Source/../DaisySP-LGPL/Source/Dynamics/compressor.h ****     }
 944              		.loc 1 185 51 is_stmt 0 view .LVU240
 945 006c C8EE077A 		vdiv.f32	s15, s16, s14
 946              	.LBE252:
 947              	.LBE255:
 948              	.LBE259:
 949              	.LBE263:
 950              	.LBE266:
 951              	.LBE270:
 952              	.LBB271:
 953              	.LBB272:
 954              	.LBB273:
 955              	.LBB274:
 196:../DaisySP/Source/../DaisySP-LGPL/Source/Dynamics/compressor.h **** 
 956              		.loc 1 196 69 view .LVU241
 957 0070 94ED0E7A 		vldr.32	s14, [r4, #56]
 958              	.LBE274:
 959              	.LBE273:
 960              	.LBE272:
 961              	.LBE271:
 962              	.LBB284:
 963              	.LBB267:
 964              	.LBB264:
 965              	.LBB260:
 966              	.LBB256:
 967              	.LBB253:
 185:../DaisySP/Source/../DaisySP-LGPL/Source/Dynamics/compressor.h ****     }
 968              		.loc 1 185 61 view .LVU242
 969 0074 77EEC87A 		vsub.f32	s15, s15, s16
 185:../DaisySP/Source/../DaisySP-LGPL/Source/Dynamics/compressor.h ****     }
 970              		.loc 1 185 29 view .LVU243
 971 0078 38EE408A 		vsub.f32	s16, s16, s0
 185:../DaisySP/Source/../DaisySP-LGPL/Source/Dynamics/compressor.h ****     }
 972              		.loc 1 185 42 view .LVU244
 973 007c 27EE888A 		vmul.f32	s16, s15, s16
 974              	.LBE253:
 975              	.LBE256:
 976              	.LBE260:
 977              	.LBE264:
 978              	.LBE267:
 979              	.LBE284:
 980              	.LBB285:
 981              	.LBB281:
 139:../DaisySP/Source/../DaisySP-LGPL/Source/Dynamics/compressor.h ****         RecalculateRelease();
ARM GAS  /var/folders/2p/02m_5p7958535cp2tpgps0400000gn/T//ccUF7111.s 			page 30


 982              		.loc 1 139 14 view .LVU245
 983 0080 DFED117A 		vldr.32	s15, .L53+12
 984              	.LBB278:
 985              	.LBB275:
 196:../DaisySP/Source/../DaisySP-LGPL/Source/Dynamics/compressor.h **** 
 986              		.loc 1 196 69 view .LVU246
 987 0084 87EE270A 		vdiv.f32	s0, s14, s15
 988              	.LBE275:
 989              	.LBE278:
 139:../DaisySP/Source/../DaisySP-LGPL/Source/Dynamics/compressor.h ****         RecalculateRelease();
 990              		.loc 1 139 14 view .LVU247
 991 0088 C4ED037A 		vstr.32	s15, [r4, #12]
 992              	.LBE281:
 993              	.LBE285:
 994              	.LBB286:
 995              	.LBB268:
 996              	.LBB265:
 997              	.LBB261:
 998              	.LBB257:
 999              	.LBB254:
 185:../DaisySP/Source/../DaisySP-LGPL/Source/Dynamics/compressor.h ****     }
 1000              		.loc 1 185 20 view .LVU248
 1001 008c 84ED098A 		vstr.32	s16, [r4, #36]
 1002              	.LVL63:
 185:../DaisySP/Source/../DaisySP-LGPL/Source/Dynamics/compressor.h ****     }
 1003              		.loc 1 185 20 view .LVU249
 1004              	.LBE254:
 1005              	.LBE257:
 1006              	.LBE261:
 1007              	.LBE265:
 1008              	.LBE268:
 1009              	.LBE286:
 245:GrannyChordApp.cpp ****   comp_.SetRelease(0.1f);
 1010              		.loc 2 245 3 is_stmt 1 view .LVU250
 1011              	.LBB287:
 1012              	.LBI271:
 137:../DaisySP/Source/../DaisySP-LGPL/Source/Dynamics/compressor.h ****     {
 1013              		.loc 1 137 10 view .LVU251
 1014              	.LBB282:
 139:../DaisySP/Source/../DaisySP-LGPL/Source/Dynamics/compressor.h ****         RecalculateRelease();
 1015              		.loc 1 139 9 view .LVU252
 140:../DaisySP/Source/../DaisySP-LGPL/Source/Dynamics/compressor.h ****     }
 1016              		.loc 1 140 9 view .LVU253
 1017              	.LBB279:
 1018              	.LBI273:
 196:../DaisySP/Source/../DaisySP-LGPL/Source/Dynamics/compressor.h **** 
 1019              		.loc 1 196 10 view .LVU254
 1020              	.LBB276:
 196:../DaisySP/Source/../DaisySP-LGPL/Source/Dynamics/compressor.h **** 
 1021              		.loc 1 196 33 view .LVU255
 196:../DaisySP/Source/../DaisySP-LGPL/Source/Dynamics/compressor.h **** 
 1022              		.loc 1 196 48 is_stmt 0 view .LVU256
 1023 0090 B1EE400A 		vneg.f32	s0, s0
 1024 0094 FFF7FEFF 		bl	expf
 1025              	.LVL64:
 1026              	.LBE276:
 1027              	.LBE279:
ARM GAS  /var/folders/2p/02m_5p7958535cp2tpgps0400000gn/T//ccUF7111.s 			page 31


 1028              	.LBE282:
 1029              	.LBE287:
 1030              	.LBB288:
 1031              	.LBB289:
 115:../DaisySP/Source/../DaisySP-LGPL/Source/Dynamics/compressor.h ****         RecalculateMakeup();
 1032              		.loc 1 115 17 view .LVU257
 1033 0098 0C4B     		ldr	r3, .L53+16
 116:../DaisySP/Source/../DaisySP-LGPL/Source/Dynamics/compressor.h ****     }
 1034              		.loc 1 116 26 view .LVU258
 1035 009a 2046     		mov	r0, r4
 1036              	.LBE289:
 1037              	.LBE288:
 1038              	.LBB291:
 1039              	.LBB283:
 1040              	.LBB280:
 1041              	.LBB277:
 196:../DaisySP/Source/../DaisySP-LGPL/Source/Dynamics/compressor.h **** 
 1042              		.loc 1 196 42 view .LVU259
 1043 009c 84ED0B0A 		vstr.32	s0, [r4, #44]
 1044              	.LVL65:
 196:../DaisySP/Source/../DaisySP-LGPL/Source/Dynamics/compressor.h **** 
 1045              		.loc 1 196 42 view .LVU260
 1046              	.LBE277:
 1047              	.LBE280:
 1048              	.LBE283:
 1049              	.LBE291:
 246:GrannyChordApp.cpp ****   comp_.SetThreshold(-12.0f);
 1050              		.loc 2 246 3 is_stmt 1 view .LVU261
 1051              	.LBB292:
 1052              	.LBI288:
 113:../DaisySP/Source/../DaisySP-LGPL/Source/Dynamics/compressor.h ****     {
 1053              		.loc 1 113 10 view .LVU262
 1054              	.LBB290:
 115:../DaisySP/Source/../DaisySP-LGPL/Source/Dynamics/compressor.h ****         RecalculateMakeup();
 1055              		.loc 1 115 9 view .LVU263
 115:../DaisySP/Source/../DaisySP-LGPL/Source/Dynamics/compressor.h ****         RecalculateMakeup();
 1056              		.loc 1 115 17 is_stmt 0 view .LVU264
 1057 00a0 6360     		str	r3, [r4, #4]	@ float
 116:../DaisySP/Source/../DaisySP-LGPL/Source/Dynamics/compressor.h ****     }
 1058              		.loc 1 116 9 is_stmt 1 view .LVU265
 116:../DaisySP/Source/../DaisySP-LGPL/Source/Dynamics/compressor.h ****     }
 1059              		.loc 1 116 26 is_stmt 0 view .LVU266
 1060 00a2 FFF7FEFF 		bl	_ZN7daisysp10Compressor17RecalculateMakeupEv
 1061              	.LVL66:
 116:../DaisySP/Source/../DaisySP-LGPL/Source/Dynamics/compressor.h ****     }
 1062              		.loc 1 116 26 view .LVU267
 1063              	.LBE290:
 1064              	.LBE292:
 247:GrannyChordApp.cpp ****   comp_.AutoMakeup(true);
 1065              		.loc 2 247 3 is_stmt 1 view .LVU268
 1066              	.LBB293:
 1067              	.LBI293:
 154:../DaisySP/Source/../DaisySP-LGPL/Source/Dynamics/compressor.h ****     {
 1068              		.loc 1 154 10 view .LVU269
 1069              	.LBB294:
 156:../DaisySP/Source/../DaisySP-LGPL/Source/Dynamics/compressor.h ****         makeup_gain_ = 0.0f;
 1070              		.loc 1 156 9 view .LVU270
ARM GAS  /var/folders/2p/02m_5p7958535cp2tpgps0400000gn/T//ccUF7111.s 			page 32


 156:../DaisySP/Source/../DaisySP-LGPL/Source/Dynamics/compressor.h ****         makeup_gain_ = 0.0f;
 1071              		.loc 1 156 22 is_stmt 0 view .LVU271
 1072 00a6 0123     		movs	r3, #1
 158:../DaisySP/Source/../DaisySP-LGPL/Source/Dynamics/compressor.h ****     }
 1073              		.loc 1 158 26 view .LVU272
 1074 00a8 2046     		mov	r0, r4
 156:../DaisySP/Source/../DaisySP-LGPL/Source/Dynamics/compressor.h ****         makeup_gain_ = 0.0f;
 1075              		.loc 1 156 22 view .LVU273
 1076 00aa 85F83C36 		strb	r3, [r5, #1596]
 157:../DaisySP/Source/../DaisySP-LGPL/Source/Dynamics/compressor.h ****         RecalculateMakeup();
 1077              		.loc 1 157 9 is_stmt 1 view .LVU274
 157:../DaisySP/Source/../DaisySP-LGPL/Source/Dynamics/compressor.h ****         RecalculateMakeup();
 1078              		.loc 1 157 22 is_stmt 0 view .LVU275
 1079 00ae 0023     		movs	r3, #0
 1080 00b0 2361     		str	r3, [r4, #16]	@ float
 158:../DaisySP/Source/../DaisySP-LGPL/Source/Dynamics/compressor.h ****     }
 1081              		.loc 1 158 9 is_stmt 1 view .LVU276
 158:../DaisySP/Source/../DaisySP-LGPL/Source/Dynamics/compressor.h ****     }
 1082              		.loc 1 158 26 is_stmt 0 view .LVU277
 1083 00b2 FFF7FEFF 		bl	_ZN7daisysp10Compressor17RecalculateMakeupEv
 1084              	.LVL67:
 158:../DaisySP/Source/../DaisySP-LGPL/Source/Dynamics/compressor.h ****     }
 1085              		.loc 1 158 26 view .LVU278
 1086              	.LBE294:
 1087              	.LBE293:
 248:GrannyChordApp.cpp **** }
 1088              		.loc 2 248 1 view .LVU279
 1089 00b6 BDEC028B 		vldm	sp!, {d8}
 1090              		.cfi_restore 80
 1091              		.cfi_restore 81
 1092              		.cfi_def_cfa_offset 16
 1093 00ba 38BD     		pop	{r3, r4, r5, pc}
 1094              	.LVL68:
 1095              	.L54:
 1096              		.loc 2 248 1 view .LVU280
 1097              		.align	2
 1098              	.L53:
 1099 00bc AAAA2ABF 		.word	-1087722838
 1100 00c0 00004040 		.word	1077936128
 1101 00c4 0AD7233C 		.word	1008981770
 1102 00c8 CDCCCC3D 		.word	1036831949
 1103 00cc 000040C1 		.word	-1052770304
 1104              		.cfi_endproc
 1105              	.LFE4937:
 1107              		.section	.rodata._ZN14GrannyChordApp12InitPlaybackEv.str1.1,"aMS",%progbits,1
 1108              	.LC0:
 1109 0000 46696C65 		.ascii	"File loaded: %d:%d \000"
 1109      206C6F61 
 1109      6465643A 
 1109      2025643A 
 1109      25642000 
 1110              		.section	.text._ZN14GrannyChordApp12InitPlaybackEv,"ax",%progbits
 1111              		.align	1
 1112              		.global	_ZN14GrannyChordApp12InitPlaybackEv
 1113              		.syntax unified
 1114              		.thumb
 1115              		.thumb_func
ARM GAS  /var/folders/2p/02m_5p7958535cp2tpgps0400000gn/T//ccUF7111.s 			page 33


 1117              	_ZN14GrannyChordApp12InitPlaybackEv:
 1118              	.LVL69:
 1119              	.LFB4939:
 249:GrannyChordApp.cpp **** 
 250:GrannyChordApp.cpp **** void GrannyChordApp::InitFileSelection(){
 251:GrannyChordApp.cpp ****   file_idx_ =0;
 252:GrannyChordApp.cpp ****   memset(left_buf_, 0, CHNL_BUF_SIZE_ABS);
 253:GrannyChordApp.cpp ****   memset(right_buf_, 0, CHNL_BUF_SIZE_ABS);
 254:GrannyChordApp.cpp ****   if (!HandleFileSelection()){
 255:GrannyChordApp.cpp ****     ui_.SetStateError();
 256:GrannyChordApp.cpp ****     return;
 257:GrannyChordApp.cpp ****   }
 258:GrannyChordApp.cpp ****   else return;
 259:GrannyChordApp.cpp **** }
 260:GrannyChordApp.cpp **** 
 261:GrannyChordApp.cpp **** void GrannyChordApp::InitPlayback(){
 1120              		.loc 2 261 36 is_stmt 1 view -0
 1121              		.cfi_startproc
 1122              		@ args = 0, pretend = 0, frame = 0
 1123              		@ frame_needed = 0, uses_anonymous_args = 0
 1124              		@ link register save eliminated.
 262:GrannyChordApp.cpp ****   wav_playhead_ = 0;
 1125              		.loc 2 262 3 view .LVU282
 263:GrannyChordApp.cpp ****   audio_len_ = filemgr_.GetSamplesPerChannel();
 1126              		.loc 2 263 16 is_stmt 0 view .LVU283
 1127 0000 D0F89C25 		ldr	r2, [r0, #1436]
 262:GrannyChordApp.cpp ****   wav_playhead_ = 0;
 1128              		.loc 2 262 17 view .LVU284
 1129 0004 0023     		movs	r3, #0
 264:GrannyChordApp.cpp ****   float  total_secs = static_cast<float>(audio_len_)/48000.0f;
 1130              		.loc 2 264 10 view .LVU285
 1131 0006 DFED136A 		vldr.32	s13, .L56
 1132              	.LBB295:
 1133              	.LBB296:
 1134              		.file 5 "AudioFileManager.h"
   1:AudioFileManager.h **** #pragma once
   2:AudioFileManager.h **** 
   3:AudioFileManager.h **** #include <stdio.h>
   4:AudioFileManager.h **** #include <stdint.h>
   5:AudioFileManager.h **** #include <vector>
   6:AudioFileManager.h **** #include "daisy_pod.h"
   7:AudioFileManager.h **** #include "constants_utils.h"
   8:AudioFileManager.h **** 
   9:AudioFileManager.h **** using namespace daisy; 
  10:AudioFileManager.h **** 
  11:AudioFileManager.h **** class AudioFileManager {
  12:AudioFileManager.h ****   public:
  13:AudioFileManager.h ****     AudioFileManager(SdmmcHandler &sd, FatFSInterface &fsi, DaisyPod &pod, FIL *file)
  14:AudioFileManager.h ****       : sd_(sd), fsi_(fsi), pod_(pod), curr_file_(file), 
  15:AudioFileManager.h ****         left_channel_(nullptr), right_channel_(nullptr) {};
  16:AudioFileManager.h ****     
  17:AudioFileManager.h ****     bool Init();
  18:AudioFileManager.h ****     bool ScanWavFiles();
  19:AudioFileManager.h ****     void SetBuffers(int16_t *left, int16_t *right);
  20:AudioFileManager.h ****     bool LoadFile(uint16_t file_idx);
  21:AudioFileManager.h ****     bool CloseFile();
  22:AudioFileManager.h ****     bool GetWavHeader(FIL *file);
ARM GAS  /var/folders/2p/02m_5p7958535cp2tpgps0400000gn/T//ccUF7111.s 			page 34


  23:AudioFileManager.h ****     bool CheckChunkID(uint32_t chunkId, uint32_t targetVal);
  24:AudioFileManager.h **** 
  25:AudioFileManager.h ****     int16_t* GetLeftBuffer() const { return left_channel_; }
  26:AudioFileManager.h ****     int16_t* GetRightBuffer() const { return right_channel_; }
  27:AudioFileManager.h ****     size_t GetSamplesPerChannel() const { return curr_header_.total_samples / curr_header_.channels
 1135              		.loc 5 27 63 view .LVU286
 1136 000a 02F58052 		add	r2, r2, #4096
 1137              	.LBE296:
 1138              	.LBE295:
 262:GrannyChordApp.cpp ****   audio_len_ = filemgr_.GetSamplesPerChannel();
 1139              		.loc 2 262 17 view .LVU287
 1140 000e C0F84C36 		str	r3, [r0, #1612]
 263:GrannyChordApp.cpp ****   float  total_secs = static_cast<float>(audio_len_)/48000.0f;
 1141              		.loc 2 263 3 is_stmt 1 view .LVU288
 1142              	.LBB298:
 1143              	.LBI295:
 1144              		.loc 5 27 12 view .LVU289
 1145              	.LBB297:
 1146              		.loc 5 27 43 view .LVU290
 1147              		.loc 5 27 92 is_stmt 0 view .LVU291
 1148 0012 B2F92410 		ldrsh	r1, [r2, #36]
 1149 0016 936A     		ldr	r3, [r2, #40]
 1150 0018 B3FBF1F3 		udiv	r3, r3, r1
 1151              	.LBE297:
 1152              	.LBE298:
 1153              		.loc 2 264 23 view .LVU292
 1154 001c 07EE903A 		vmov	s15, r3	@ int
 263:GrannyChordApp.cpp ****   float  total_secs = static_cast<float>(audio_len_)/48000.0f;
 1155              		.loc 2 263 14 view .LVU293
 1156 0020 C0F85036 		str	r3, [r0, #1616]
 1157              		.loc 2 264 3 is_stmt 1 view .LVU294
 265:GrannyChordApp.cpp ****   int mins = static_cast<int>(total_secs/60.0f);
 266:GrannyChordApp.cpp ****   int secs = static_cast<int>(total_secs)%60;
 1158              		.loc 2 266 7 is_stmt 0 view .LVU295
 1159 0024 3C23     		movs	r3, #60
 1160              	.LBB299:
 1161              	.LBB300:
 1162              		.file 6 "../libDaisy/src/daisy_seed.h"
   1:../libDaisy/src/daisy_seed.h **** #pragma once
   2:../libDaisy/src/daisy_seed.h **** #ifndef DSY_SEED_H
   3:../libDaisy/src/daisy_seed.h **** #define DSY_SEED_H
   4:../libDaisy/src/daisy_seed.h **** 
   5:../libDaisy/src/daisy_seed.h **** #include "daisy.h"
   6:../libDaisy/src/daisy_seed.h **** 
   7:../libDaisy/src/daisy_seed.h **** //Uncomment this out if you're still using the rev2 hardware
   8:../libDaisy/src/daisy_seed.h **** //#define SEED_REV2
   9:../libDaisy/src/daisy_seed.h **** 
  10:../libDaisy/src/daisy_seed.h **** namespace daisy
  11:../libDaisy/src/daisy_seed.h **** {
  12:../libDaisy/src/daisy_seed.h **** /**
  13:../libDaisy/src/daisy_seed.h ****    @brief This is the higher-level interface for the Daisy board. \n 
  14:../libDaisy/src/daisy_seed.h ****     All basic peripheral configuration/initialization is setup here. \n
  15:../libDaisy/src/daisy_seed.h **** 
  16:../libDaisy/src/daisy_seed.h ****    @ingroup boards
  17:../libDaisy/src/daisy_seed.h **** */
  18:../libDaisy/src/daisy_seed.h **** class DaisySeed
  19:../libDaisy/src/daisy_seed.h **** {
ARM GAS  /var/folders/2p/02m_5p7958535cp2tpgps0400000gn/T//ccUF7111.s 			page 35


  20:../libDaisy/src/daisy_seed.h ****   public:
  21:../libDaisy/src/daisy_seed.h ****     DaisySeed() {}
  22:../libDaisy/src/daisy_seed.h ****     ~DaisySeed() {}
  23:../libDaisy/src/daisy_seed.h **** 
  24:../libDaisy/src/daisy_seed.h ****     /** This function used to provide a pre-initialization configuraiton 
  25:../libDaisy/src/daisy_seed.h ****      *  it has since been deprecated, and does nothing.
  26:../libDaisy/src/daisy_seed.h ****      */
  27:../libDaisy/src/daisy_seed.h ****     void Configure();
  28:../libDaisy/src/daisy_seed.h **** 
  29:../libDaisy/src/daisy_seed.h ****     /** 
  30:../libDaisy/src/daisy_seed.h ****     Initializes the Daisy Seed and the following peripherals:
  31:../libDaisy/src/daisy_seed.h ****     SDRAM, QSPI, 24-bit 48kHz Audio via AK4556, Internal USB,
  32:../libDaisy/src/daisy_seed.h ****     as well as the built-in LED and Testpoint.
  33:../libDaisy/src/daisy_seed.h **** 
  34:../libDaisy/src/daisy_seed.h ****     ADCs, DACs, and other special peripherals (such as I2C, SPI, etc.)
  35:../libDaisy/src/daisy_seed.h ****     can be initialized using their specific initializers within libdaisy
  36:../libDaisy/src/daisy_seed.h ****     for a specific application.
  37:../libDaisy/src/daisy_seed.h ****     */
  38:../libDaisy/src/daisy_seed.h ****     void Init(bool boost = false);
  39:../libDaisy/src/daisy_seed.h **** 
  40:../libDaisy/src/daisy_seed.h ****     /** 
  41:../libDaisy/src/daisy_seed.h ****     Deinitializes all peripherals automatically handled by `Init`.
  42:../libDaisy/src/daisy_seed.h ****     */
  43:../libDaisy/src/daisy_seed.h ****     void DeInit();
  44:../libDaisy/src/daisy_seed.h **** 
  45:../libDaisy/src/daisy_seed.h ****     /** 
  46:../libDaisy/src/daisy_seed.h ****     Wait some ms before going on.
  47:../libDaisy/src/daisy_seed.h ****     \param del Delay time in ms.
  48:../libDaisy/src/daisy_seed.h ****     */
  49:../libDaisy/src/daisy_seed.h ****     void DelayMs(size_t del);
  50:../libDaisy/src/daisy_seed.h **** 
  51:../libDaisy/src/daisy_seed.h ****     /** 
  52:../libDaisy/src/daisy_seed.h ****     Returns the gpio_pin corresponding to the index 0-31.
  53:../libDaisy/src/daisy_seed.h ****     For the given GPIO on the Daisy Seed (labeled 1-32 in docs).
  54:../libDaisy/src/daisy_seed.h ****     */
  55:../libDaisy/src/daisy_seed.h ****     static dsy_gpio_pin GetPin(uint8_t pin_idx);
  56:../libDaisy/src/daisy_seed.h **** 
  57:../libDaisy/src/daisy_seed.h ****     /** Begins the audio for the seeds builtin audio.
  58:../libDaisy/src/daisy_seed.h ****     the specified callback will get called whenever
  59:../libDaisy/src/daisy_seed.h ****     new data is ready to be prepared.
  60:../libDaisy/src/daisy_seed.h ****     */
  61:../libDaisy/src/daisy_seed.h ****     void StartAudio(AudioHandle::InterleavingAudioCallback cb);
  62:../libDaisy/src/daisy_seed.h **** 
  63:../libDaisy/src/daisy_seed.h ****     /** Begins the audio for the seeds builtin audio.
  64:../libDaisy/src/daisy_seed.h ****     the specified callback will get called whenever
  65:../libDaisy/src/daisy_seed.h ****     new data is ready to be prepared.
  66:../libDaisy/src/daisy_seed.h ****     This will use the newer non-interleaved callback.
  67:../libDaisy/src/daisy_seed.h ****     */
  68:../libDaisy/src/daisy_seed.h ****     void StartAudio(AudioHandle::AudioCallback cb);
  69:../libDaisy/src/daisy_seed.h **** 
  70:../libDaisy/src/daisy_seed.h ****     /** Changes to a new interleaved callback
  71:../libDaisy/src/daisy_seed.h ****      */
  72:../libDaisy/src/daisy_seed.h ****     void ChangeAudioCallback(AudioHandle::InterleavingAudioCallback cb);
  73:../libDaisy/src/daisy_seed.h **** 
  74:../libDaisy/src/daisy_seed.h ****     /** Changes to a new multichannel callback
  75:../libDaisy/src/daisy_seed.h ****      */
  76:../libDaisy/src/daisy_seed.h ****     void ChangeAudioCallback(AudioHandle::AudioCallback cb);
ARM GAS  /var/folders/2p/02m_5p7958535cp2tpgps0400000gn/T//ccUF7111.s 			page 36


  77:../libDaisy/src/daisy_seed.h **** 
  78:../libDaisy/src/daisy_seed.h ****     /** Stops the audio if it is running. */
  79:../libDaisy/src/daisy_seed.h ****     void StopAudio();
  80:../libDaisy/src/daisy_seed.h **** 
  81:../libDaisy/src/daisy_seed.h ****     /** Updates the Audio Sample Rate, and reinitializes.
  82:../libDaisy/src/daisy_seed.h ****      ** Audio must be stopped for this to work.
  83:../libDaisy/src/daisy_seed.h ****      */
  84:../libDaisy/src/daisy_seed.h ****     void SetAudioSampleRate(SaiHandle::Config::SampleRate samplerate);
  85:../libDaisy/src/daisy_seed.h **** 
  86:../libDaisy/src/daisy_seed.h ****     /** Returns the audio sample rate in Hz as a floating point number.
  87:../libDaisy/src/daisy_seed.h ****      */
  88:../libDaisy/src/daisy_seed.h ****     float AudioSampleRate();
  89:../libDaisy/src/daisy_seed.h **** 
  90:../libDaisy/src/daisy_seed.h ****     /** Sets the number of samples processed per channel by the audio callback.
  91:../libDaisy/src/daisy_seed.h ****      */
  92:../libDaisy/src/daisy_seed.h ****     void SetAudioBlockSize(size_t blocksize);
  93:../libDaisy/src/daisy_seed.h **** 
  94:../libDaisy/src/daisy_seed.h ****     /** Returns the number of samples per channel in a block of audio. */
  95:../libDaisy/src/daisy_seed.h ****     size_t AudioBlockSize();
  96:../libDaisy/src/daisy_seed.h **** 
  97:../libDaisy/src/daisy_seed.h ****     /** Returns the rate in Hz that the Audio callback is called */
  98:../libDaisy/src/daisy_seed.h ****     float AudioCallbackRate() const;
  99:../libDaisy/src/daisy_seed.h **** 
 100:../libDaisy/src/daisy_seed.h ****     /** Returns the SAI Handle for the Daisy Seed 
 101:../libDaisy/src/daisy_seed.h ****      *  This can be useful when adding a secondary codec,
 102:../libDaisy/src/daisy_seed.h ****      *  the result of this function can be passed to the audio reinit 
 103:../libDaisy/src/daisy_seed.h ****      *  with an SAI2 configuration
 104:../libDaisy/src/daisy_seed.h ****      */
 105:../libDaisy/src/daisy_seed.h ****     const SaiHandle& AudioSaiHandle() const;
 106:../libDaisy/src/daisy_seed.h **** 
 107:../libDaisy/src/daisy_seed.h ****     /** Sets the state of the built in LED
 108:../libDaisy/src/daisy_seed.h ****      */
 109:../libDaisy/src/daisy_seed.h ****     void SetLed(bool state);
 110:../libDaisy/src/daisy_seed.h **** 
 111:../libDaisy/src/daisy_seed.h ****     /** Sets the state of the test point near pin 10
 112:../libDaisy/src/daisy_seed.h ****      */
 113:../libDaisy/src/daisy_seed.h ****     void SetTestPoint(bool state);
 114:../libDaisy/src/daisy_seed.h **** 
 115:../libDaisy/src/daisy_seed.h ****     /** Print formatted debug log message
 116:../libDaisy/src/daisy_seed.h ****      */
 117:../libDaisy/src/daisy_seed.h ****     template <typename... VA>
 118:../libDaisy/src/daisy_seed.h ****     static void Print(const char* format, VA... va)
 119:../libDaisy/src/daisy_seed.h ****     {
 120:../libDaisy/src/daisy_seed.h ****         Log::Print(format, va...);
 121:../libDaisy/src/daisy_seed.h ****     }
 122:../libDaisy/src/daisy_seed.h **** 
 123:../libDaisy/src/daisy_seed.h ****     /** Print formatted debug log message with automatic line termination
 124:../libDaisy/src/daisy_seed.h ****     */
 125:../libDaisy/src/daisy_seed.h ****     template <typename... VA>
 126:../libDaisy/src/daisy_seed.h ****     static void PrintLine(const char* format, VA... va)
 127:../libDaisy/src/daisy_seed.h ****     {
 128:../libDaisy/src/daisy_seed.h ****         Log::PrintLine(format, va...);
 1163              		.loc 6 128 23 view .LVU296
 1164 0026 0C48     		ldr	r0, .L56+4
 1165              	.LVL70:
 1166              		.loc 6 128 23 view .LVU297
 1167              	.LBE300:
ARM GAS  /var/folders/2p/02m_5p7958535cp2tpgps0400000gn/T//ccUF7111.s 			page 37


 1168              	.LBE299:
 264:GrannyChordApp.cpp ****   int mins = static_cast<int>(total_secs/60.0f);
 1169              		.loc 2 264 23 view .LVU298
 1170 0028 F8EE677A 		vcvt.f32.u32	s15, s15
 264:GrannyChordApp.cpp ****   int mins = static_cast<int>(total_secs/60.0f);
 1171              		.loc 2 264 10 view .LVU299
 1172 002c 87EEA67A 		vdiv.f32	s14, s15, s13
 1173              	.LVL71:
 265:GrannyChordApp.cpp ****   int mins = static_cast<int>(total_secs/60.0f);
 1174              		.loc 2 265 3 is_stmt 1 view .LVU300
 1175              		.loc 2 266 3 view .LVU301
 267:GrannyChordApp.cpp ****   DebugPrint(pod_,"File loaded: %d:%d ", mins,secs);
 1176              		.loc 2 267 3 view .LVU302
 1177              		.loc 2 267 3 view .LVU303
 1178              	.LBB302:
 1179              	.LBI299:
 126:../libDaisy/src/daisy_seed.h ****     {
 1180              		.loc 6 126 17 view .LVU304
 1181              	.LBE302:
 265:GrannyChordApp.cpp ****   int secs = static_cast<int>(total_secs)%60;
 1182              		.loc 2 265 41 is_stmt 0 view .LVU305
 1183 0030 DFED0A6A 		vldr.32	s13, .L56+8
 266:GrannyChordApp.cpp ****   DebugPrint(pod_,"File loaded: %d:%d ", mins,secs);
 1184              		.loc 2 266 14 view .LVU306
 1185 0034 FDEEC77A 		vcvt.s32.f32	s15, s14
 1186 0038 17EE902A 		vmov	r2, s15	@ int
 265:GrannyChordApp.cpp ****   int secs = static_cast<int>(total_secs)%60;
 1187              		.loc 2 265 41 view .LVU307
 1188 003c C7EE267A 		vdiv.f32	s15, s14, s13
 266:GrannyChordApp.cpp ****   DebugPrint(pod_,"File loaded: %d:%d ", mins,secs);
 1189              		.loc 2 266 7 view .LVU308
 1190 0040 B2FBF3F1 		udiv	r1, r2, r3
 1191              	.LBB303:
 1192              	.LBB301:
 1193              		.loc 6 128 23 view .LVU309
 1194 0044 03FB1122 		mls	r2, r3, r1, r2
 1195 0048 FDEEE77A 		vcvt.s32.f32	s15, s15
 1196 004c 17EE901A 		vmov	r1, s15	@ int
 1197 0050 FFF7FEBF 		b	_ZN5daisy6LoggerILNS_17LoggerDestinationE1EE9PrintLineEPKcz
 1198              	.LVL72:
 1199              	.L57:
 1200              		.loc 6 128 23 view .LVU310
 1201              		.align	2
 1202              	.L56:
 1203 0054 00803B47 		.word	1195081728
 1204 0058 00000000 		.word	.LC0
 1205 005c 00007042 		.word	1114636288
 1206              	.LBE301:
 1207              	.LBE303:
 1208              		.cfi_endproc
 1209              	.LFE4939:
 1211              		.section	.text._ZN14GrannyChordApp12InitRecordInEv,"ax",%progbits
 1212              		.align	1
 1213              		.global	_ZN14GrannyChordApp12InitRecordInEv
 1214              		.syntax unified
 1215              		.thumb
 1216              		.thumb_func
ARM GAS  /var/folders/2p/02m_5p7958535cp2tpgps0400000gn/T//ccUF7111.s 			page 38


 1218              	_ZN14GrannyChordApp12InitRecordInEv:
 1219              	.LVL73:
 1220              	.LFB4940:
 268:GrannyChordApp.cpp **** }
 269:GrannyChordApp.cpp **** 
 270:GrannyChordApp.cpp **** void GrannyChordApp::InitRecordIn(){
 1221              		.loc 2 270 36 is_stmt 1 view -0
 1222              		.cfi_startproc
 1223              		@ args = 0, pretend = 0, frame = 0
 1224              		@ frame_needed = 0, uses_anonymous_args = 0
 271:GrannyChordApp.cpp ****   memset(left_buf_, 0, CHNL_BUF_SIZE_ABS);
 1225              		.loc 2 271 3 view .LVU312
 270:GrannyChordApp.cpp ****   memset(left_buf_, 0, CHNL_BUF_SIZE_ABS);
 1226              		.loc 2 270 36 is_stmt 0 view .LVU313
 1227 0000 10B5     		push	{r4, lr}
 1228              		.cfi_def_cfa_offset 8
 1229              		.cfi_offset 4, -8
 1230              		.cfi_offset 14, -4
 270:GrannyChordApp.cpp ****   memset(left_buf_, 0, CHNL_BUF_SIZE_ABS);
 1231              		.loc 2 270 36 view .LVU314
 1232 0002 0446     		mov	r4, r0
 1233              		.loc 2 271 9 view .LVU315
 1234 0004 4FF08072 		mov	r2, #16777216
 1235 0008 0021     		movs	r1, #0
 1236 000a D0F84006 		ldr	r0, [r0, #1600]
 1237              	.LVL74:
 1238              		.loc 2 271 9 view .LVU316
 1239 000e FFF7FEFF 		bl	memset
 1240              	.LVL75:
 272:GrannyChordApp.cpp ****   memset(right_buf_, 0, CHNL_BUF_SIZE_ABS);
 1241              		.loc 2 272 3 is_stmt 1 view .LVU317
 1242              		.loc 2 272 9 is_stmt 0 view .LVU318
 1243 0012 D4F84406 		ldr	r0, [r4, #1604]
 1244 0016 4FF08072 		mov	r2, #16777216
 1245 001a 0021     		movs	r1, #0
 273:GrannyChordApp.cpp **** }
 1246              		.loc 2 273 1 view .LVU319
 1247 001c BDE81040 		pop	{r4, lr}
 1248              		.cfi_restore 14
 1249              		.cfi_restore 4
 1250              		.cfi_def_cfa_offset 0
 1251              	.LVL76:
 272:GrannyChordApp.cpp ****   memset(right_buf_, 0, CHNL_BUF_SIZE_ABS);
 1252              		.loc 2 272 9 view .LVU320
 1253 0020 FFF7FEBF 		b	memset
 1254              	.LVL77:
 1255              		.cfi_endproc
 1256              	.LFE4940:
 1258              		.section	.rodata._ZN14GrannyChordApp19HandleFileSelectionEv.str1.1,"aMS",%progbits,1
 1259              	.LC1:
 1260 0000 6E6F7420 		.ascii	"not in select file state\000"
 1260      696E2073 
 1260      656C6563 
 1260      74206669 
 1260      6C652073 
 1261              	.LC2:
 1262 0019 73656C65 		.ascii	"selected new file idx %d %s\000"
ARM GAS  /var/folders/2p/02m_5p7958535cp2tpgps0400000gn/T//ccUF7111.s 			page 39


 1262      63746564 
 1262      206E6577 
 1262      2066696C 
 1262      65206964 
 1263              	.LC3:
 1264 0035 4661696C 		.ascii	"Failed to load audio file\000"
 1264      65642074 
 1264      6F206C6F 
 1264      61642061 
 1264      7564696F 
 1265              		.section	.text._ZN14GrannyChordApp19HandleFileSelectionEv,"ax",%progbits
 1266              		.align	1
 1267              		.global	_ZN14GrannyChordApp19HandleFileSelectionEv
 1268              		.syntax unified
 1269              		.thumb
 1270              		.thumb_func
 1272              	_ZN14GrannyChordApp19HandleFileSelectionEv:
 1273              	.LVL78:
 1274              	.LFB4941:
 274:GrannyChordApp.cpp **** 
 275:GrannyChordApp.cpp **** 
 276:GrannyChordApp.cpp **** bool GrannyChordApp::HandleFileSelection(){
 1275              		.loc 2 276 43 is_stmt 1 view -0
 1276              		.cfi_startproc
 1277              		@ args = 0, pretend = 0, frame = 64
 1278              		@ frame_needed = 0, uses_anonymous_args = 0
 277:GrannyChordApp.cpp ****   if (ui_.GetCurrentState() != AppState::SelectFile){
 1279              		.loc 2 277 3 view .LVU322
 1280              	.LBB327:
 1281              	.LBI327:
 1282              		.loc 4 14 14 view .LVU323
 1283              	.LBB328:
 1284              		.loc 4 14 34 view .LVU324
 1285              		.loc 4 14 34 is_stmt 0 view .LVU325
 1286              	.LBE328:
 1287              	.LBE327:
 1288              		.loc 2 277 3 view .LVU326
 1289 0000 D0F8A835 		ldr	r3, [r0, #1448]
 1290 0004 012B     		cmp	r3, #1
 276:GrannyChordApp.cpp ****   if (ui_.GetCurrentState() != AppState::SelectFile){
 1291              		.loc 2 276 43 view .LVU327
 1292 0006 70B5     		push	{r4, r5, r6, lr}
 1293              		.cfi_def_cfa_offset 16
 1294              		.cfi_offset 4, -16
 1295              		.cfi_offset 5, -12
 1296              		.cfi_offset 6, -8
 1297              		.cfi_offset 14, -4
 1298 0008 0446     		mov	r4, r0
 1299 000a 90B0     		sub	sp, sp, #64
 1300              		.cfi_def_cfa_offset 80
 1301              		.loc 2 277 3 view .LVU328
 1302 000c 06D0     		beq	.L60
 278:GrannyChordApp.cpp ****     DebugPrint(pod_,"not in select file state");
 1303              		.loc 2 278 5 is_stmt 1 view .LVU329
 1304              		.loc 2 278 5 view .LVU330
 1305              	.LVL79:
 1306              	.LBB329:
ARM GAS  /var/folders/2p/02m_5p7958535cp2tpgps0400000gn/T//ccUF7111.s 			page 40


 1307              	.LBI329:
 126:../libDaisy/src/daisy_seed.h ****     {
 1308              		.loc 6 126 17 view .LVU331
 1309              	.LBE329:
 279:GrannyChordApp.cpp ****     return false;
 1310              		.loc 2 279 12 is_stmt 0 view .LVU332
 1311 000e 0025     		movs	r5, #0
 1312              	.LBB331:
 1313              	.LBB330:
 1314              		.loc 6 128 23 view .LVU333
 1315 0010 2548     		ldr	r0, .L74
 1316              	.LVL80:
 1317              		.loc 6 128 23 view .LVU334
 1318 0012 FFF7FEFF 		bl	_ZN5daisy6LoggerILNS_17LoggerDestinationE1EE9PrintLineEPKcz
 1319              	.LVL81:
 1320              		.loc 6 128 23 view .LVU335
 1321              	.LBE330:
 1322              	.LBE331:
 1323              		.loc 2 279 5 is_stmt 1 view .LVU336
 1324              	.L61:
 280:GrannyChordApp.cpp ****   }
 281:GrannyChordApp.cpp ****   bool selected = false;
 282:GrannyChordApp.cpp ****   while (!selected){
 283:GrannyChordApp.cpp ****     pod_.ProcessDigitalControls();
 284:GrannyChordApp.cpp ****     int32_t inc = ui_.GetEncoderIncrement();
 285:GrannyChordApp.cpp ****     uint16_t file_count = filemgr_.GetFileCount();
 286:GrannyChordApp.cpp ****     // DebugPrint(pod_,"file count %u", file_count);
 287:GrannyChordApp.cpp ****     if (inc!=0){
 288:GrannyChordApp.cpp ****       char fname[64];
 289:GrannyChordApp.cpp ****       file_idx_ += inc;
 290:GrannyChordApp.cpp ****       /* wrap around list of files */
 291:GrannyChordApp.cpp ****       if (file_idx_<0){ 
 292:GrannyChordApp.cpp ****         file_idx_ = file_count - 1; 
 293:GrannyChordApp.cpp ****       }
 294:GrannyChordApp.cpp ****       if (file_idx_ >= file_count){ 
 295:GrannyChordApp.cpp ****         file_idx_ = 0; 
 296:GrannyChordApp.cpp ****       }
 297:GrannyChordApp.cpp ****       filemgr_.GetName(file_idx_, fname);
 298:GrannyChordApp.cpp ****       DebugPrint(pod_,"selected new file idx %d %s", file_idx_, fname);
 299:GrannyChordApp.cpp ****     }
 300:GrannyChordApp.cpp ****     if (ui_.EncoderPressed()){
 301:GrannyChordApp.cpp ****       if (filemgr_.LoadFile(file_idx_)){
 302:GrannyChordApp.cpp ****         InitPlayback();
 303:GrannyChordApp.cpp ****         selected = true;
 304:GrannyChordApp.cpp ****         return true;
 305:GrannyChordApp.cpp ****       } 
 306:GrannyChordApp.cpp ****       else {
 307:GrannyChordApp.cpp ****         ui_.SetStateError();
 308:GrannyChordApp.cpp ****         DebugPrint(pod_,"Failed to load audio file");
 309:GrannyChordApp.cpp ****         return false;
 310:GrannyChordApp.cpp ****       }
 311:GrannyChordApp.cpp ****     }
 312:GrannyChordApp.cpp ****   }
 313:GrannyChordApp.cpp ****   ui_.SetStateError();
 314:GrannyChordApp.cpp ****   DebugPrint(pod_,"exited while loop weirdly");
 315:GrannyChordApp.cpp ****   return false;
 316:GrannyChordApp.cpp **** }
ARM GAS  /var/folders/2p/02m_5p7958535cp2tpgps0400000gn/T//ccUF7111.s 			page 41


 1325              		.loc 2 316 1 is_stmt 0 view .LVU337
 1326 0016 2846     		mov	r0, r5
 1327 0018 10B0     		add	sp, sp, #64
 1328              		.cfi_remember_state
 1329              		.cfi_def_cfa_offset 16
 1330              		@ sp needed
 1331 001a 70BD     		pop	{r4, r5, r6, pc}
 1332              	.LVL82:
 1333              	.L60:
 1334              		.cfi_restore_state
 1335              	.LBB332:
 1336              	.LBB333:
 282:GrannyChordApp.cpp ****     pod_.ProcessDigitalControls();
 1337              		.loc 2 282 3 is_stmt 1 view .LVU338
 282:GrannyChordApp.cpp ****     pod_.ProcessDigitalControls();
 1338              		.loc 2 282 10 view .LVU339
 1339              	.LBB334:
 283:GrannyChordApp.cpp ****     int32_t inc = ui_.GetEncoderIncrement();
 1340              		.loc 2 283 5 view .LVU340
 284:GrannyChordApp.cpp ****     uint16_t file_count = filemgr_.GetFileCount();
 1341              		.loc 2 284 42 is_stmt 0 view .LVU341
 1342 001c 04F2A456 		addw	r6, r4, #1444
 283:GrannyChordApp.cpp ****     int32_t inc = ui_.GetEncoderIncrement();
 1343              		.loc 2 283 32 view .LVU342
 1344 0020 2068     		ldr	r0, [r4]
 1345 0022 FFF7FEFF 		bl	_ZN5daisy8DaisyPod22ProcessDigitalControlsEv
 1346              	.LVL83:
 284:GrannyChordApp.cpp ****     uint16_t file_count = filemgr_.GetFileCount();
 1347              		.loc 2 284 5 is_stmt 1 view .LVU343
 284:GrannyChordApp.cpp ****     uint16_t file_count = filemgr_.GetFileCount();
 1348              		.loc 2 284 42 is_stmt 0 view .LVU344
 1349 0026 3046     		mov	r0, r6
 1350 0028 FFF7FEFF 		bl	_ZN9UIManager19GetEncoderIncrementEv
 1351              	.LVL84:
 285:GrannyChordApp.cpp ****     // DebugPrint(pod_,"file count %u", file_count);
 1352              		.loc 2 285 5 is_stmt 1 view .LVU345
 1353              	.LBB335:
 1354              	.LBI335:
  28:AudioFileManager.h ****     size_t GetTotalSamples() const { return curr_header_.total_samples; }
  29:AudioFileManager.h ****     int16_t GetNumChannels() const { return curr_header_.channels; }
  30:AudioFileManager.h ****     uint16_t GetFileCount() const { return file_count_; }
 1355              		.loc 5 30 14 view .LVU346
 1356              	.LBB336:
 1357              		.loc 5 30 37 view .LVU347
 1358              		.loc 5 30 37 is_stmt 0 view .LVU348
 1359              	.LBE336:
 1360              	.LBE335:
 287:GrannyChordApp.cpp ****       char fname[64];
 1361              		.loc 2 287 5 is_stmt 1 view .LVU349
 1362              	.LBB338:
 1363 002c 20B3     		cbz	r0, .L62
 1364              	.LBE338:
 285:GrannyChordApp.cpp ****     // DebugPrint(pod_,"file count %u", file_count);
 1365              		.loc 2 285 27 is_stmt 0 view .LVU350
 1366 002e D4F89C15 		ldr	r1, [r4, #1436]
 1367              	.LBB347:
 1368              	.LBB339:
ARM GAS  /var/folders/2p/02m_5p7958535cp2tpgps0400000gn/T//ccUF7111.s 			page 42


 288:GrannyChordApp.cpp ****       file_idx_ += inc;
 1369              		.loc 2 288 7 is_stmt 1 view .LVU351
 289:GrannyChordApp.cpp ****       /* wrap around list of files */
 1370              		.loc 2 289 7 view .LVU352
 291:GrannyChordApp.cpp ****         file_idx_ = file_count - 1; 
 1371              		.loc 2 291 7 view .LVU353
 289:GrannyChordApp.cpp ****       /* wrap around list of files */
 1372              		.loc 2 289 17 is_stmt 0 view .LVU354
 1373 0032 D4F84826 		ldr	r2, [r4, #1608]
 1374              	.LBE339:
 1375              	.LBE347:
 1376              	.LBB348:
 1377              	.LBB337:
 1378              		.loc 5 30 44 view .LVU355
 1379 0036 01F58053 		add	r3, r1, #4096
 1380              	.LBE337:
 1381              	.LBE348:
 1382              	.LBB349:
 1383              	.LBB346:
 291:GrannyChordApp.cpp ****         file_idx_ = file_count - 1; 
 1384              		.loc 2 291 7 view .LVU356
 1385 003a 8018     		adds	r0, r0, r2
 1386              	.LVL85:
 292:GrannyChordApp.cpp ****       }
 1387              		.loc 2 292 21 view .LVU357
 1388 003c 5B8B     		ldrh	r3, [r3, #26]
 289:GrannyChordApp.cpp ****       /* wrap around list of files */
 1389              		.loc 2 289 17 view .LVU358
 1390 003e 58BF     		it	pl
 1391 0040 C4F84806 		strpl	r0, [r4, #1608]
 292:GrannyChordApp.cpp ****       }
 1392              		.loc 2 292 9 is_stmt 1 view .LVU359
 1393              	.LBB340:
 1394              	.LBB341:
  31:AudioFileManager.h ****     void GetName(uint16_t idx, char* name) const { strcpy(name, names_[idx]); }
 1395              		.loc 5 31 58 is_stmt 0 view .LVU360
 1396 0044 6846     		mov	r0, sp
 1397              	.LBE341:
 1398              	.LBE340:
 292:GrannyChordApp.cpp ****       }
 1399              		.loc 2 292 32 view .LVU361
 1400 0046 44BF     		itt	mi
 1401 0048 03F1FF32 		addmi	r2, r3, #-1
 292:GrannyChordApp.cpp ****       }
 1402              		.loc 2 292 19 view .LVU362
 1403 004c C4F84826 		strmi	r2, [r4, #1608]
 294:GrannyChordApp.cpp ****         file_idx_ = 0; 
 1404              		.loc 2 294 7 is_stmt 1 view .LVU363
 1405 0050 D4F84826 		ldr	r2, [r4, #1608]
 1406 0054 9A42     		cmp	r2, r3
 295:GrannyChordApp.cpp ****       }
 1407              		.loc 2 295 9 view .LVU364
 295:GrannyChordApp.cpp ****       }
 1408              		.loc 2 295 19 is_stmt 0 view .LVU365
 1409 0056 A4BF     		itt	ge
 1410 0058 0023     		movge	r3, #0
 1411 005a C4F84836 		strge	r3, [r4, #1608]
ARM GAS  /var/folders/2p/02m_5p7958535cp2tpgps0400000gn/T//ccUF7111.s 			page 43


 297:GrannyChordApp.cpp ****       DebugPrint(pod_,"selected new file idx %d %s", file_idx_, fname);
 1412              		.loc 2 297 7 is_stmt 1 view .LVU366
 297:GrannyChordApp.cpp ****       DebugPrint(pod_,"selected new file idx %d %s", file_idx_, fname);
 1413              		.loc 2 297 24 is_stmt 0 view .LVU367
 1414 005e D4F84856 		ldr	r5, [r4, #1608]
 1415              	.LVL86:
 1416              	.LBB343:
 1417              	.LBI340:
 1418              		.loc 5 31 10 is_stmt 1 view .LVU368
 1419              	.LBB342:
 1420              		.loc 5 31 52 view .LVU369
 1421              		.loc 5 31 75 is_stmt 0 view .LVU370
 1422 0062 ABB2     		uxth	r3, r5
 1423 0064 01EBC311 		add	r1, r1, r3, lsl #7
 1424              		.loc 5 31 58 view .LVU371
 1425 0068 1831     		adds	r1, r1, #24
 1426 006a FFF7FEFF 		bl	strcpy
 1427              	.LVL87:
 1428              		.loc 5 31 58 view .LVU372
 1429              	.LBE342:
 1430              	.LBE343:
 298:GrannyChordApp.cpp ****     }
 1431              		.loc 2 298 7 is_stmt 1 view .LVU373
 298:GrannyChordApp.cpp ****     }
 1432              		.loc 2 298 7 view .LVU374
 1433              	.LBB344:
 1434              	.LBI344:
 126:../libDaisy/src/daisy_seed.h ****     {
 1435              		.loc 6 126 17 view .LVU375
 1436              	.LBB345:
 1437              		.loc 6 128 23 is_stmt 0 view .LVU376
 1438 006e 6A46     		mov	r2, sp
 1439 0070 2946     		mov	r1, r5
 1440 0072 0E48     		ldr	r0, .L74+4
 1441 0074 FFF7FEFF 		bl	_ZN5daisy6LoggerILNS_17LoggerDestinationE1EE9PrintLineEPKcz
 1442              	.LVL88:
 1443              	.L62:
 1444              		.loc 6 128 23 view .LVU377
 1445              	.LBE345:
 1446              	.LBE344:
 1447              	.LBE346:
 1448              	.LBE349:
 300:GrannyChordApp.cpp ****       if (filemgr_.LoadFile(file_idx_)){
 1449              		.loc 2 300 5 is_stmt 1 view .LVU378
 300:GrannyChordApp.cpp ****       if (filemgr_.LoadFile(file_idx_)){
 1450              		.loc 2 300 27 is_stmt 0 view .LVU379
 1451 0078 3046     		mov	r0, r6
 1452 007a FFF7FEFF 		bl	_ZN9UIManager14EncoderPressedEv
 1453              	.LVL89:
 300:GrannyChordApp.cpp ****       if (filemgr_.LoadFile(file_idx_)){
 1454              		.loc 2 300 5 view .LVU380
 1455 007e 0028     		cmp	r0, #0
 1456 0080 CCD0     		beq	.L60
 301:GrannyChordApp.cpp ****         InitPlayback();
 1457              		.loc 2 301 7 is_stmt 1 view .LVU381
 301:GrannyChordApp.cpp ****         InitPlayback();
 1458              		.loc 2 301 28 is_stmt 0 view .LVU382
ARM GAS  /var/folders/2p/02m_5p7958535cp2tpgps0400000gn/T//ccUF7111.s 			page 44


 1459 0082 B4F84816 		ldrh	r1, [r4, #1608]
 1460 0086 D4F89C05 		ldr	r0, [r4, #1436]
 1461 008a FFF7FEFF 		bl	_ZN16AudioFileManager8LoadFileEt
 1462              	.LVL90:
 301:GrannyChordApp.cpp ****         InitPlayback();
 1463              		.loc 2 301 7 view .LVU383
 1464 008e 0546     		mov	r5, r0
 1465 0090 18B1     		cbz	r0, .L66
 302:GrannyChordApp.cpp ****         selected = true;
 1466              		.loc 2 302 9 is_stmt 1 view .LVU384
 302:GrannyChordApp.cpp ****         selected = true;
 1467              		.loc 2 302 21 is_stmt 0 view .LVU385
 1468 0092 2046     		mov	r0, r4
 1469 0094 FFF7FEFF 		bl	_ZN14GrannyChordApp12InitPlaybackEv
 1470              	.LVL91:
 303:GrannyChordApp.cpp ****         return true;
 1471              		.loc 2 303 9 is_stmt 1 view .LVU386
 304:GrannyChordApp.cpp ****       } 
 1472              		.loc 2 304 9 view .LVU387
 304:GrannyChordApp.cpp ****       } 
 1473              		.loc 2 304 16 is_stmt 0 view .LVU388
 1474 0098 BDE7     		b	.L61
 1475              	.LVL92:
 1476              	.L66:
 307:GrannyChordApp.cpp ****         DebugPrint(pod_,"Failed to load audio file");
 1477              		.loc 2 307 9 is_stmt 1 view .LVU389
 307:GrannyChordApp.cpp ****         DebugPrint(pod_,"Failed to load audio file");
 1478              		.loc 2 307 26 is_stmt 0 view .LVU390
 1479 009a 3046     		mov	r0, r6
 1480 009c FFF7FEFF 		bl	_ZN9UIManager13SetStateErrorEv
 1481              	.LVL93:
 308:GrannyChordApp.cpp ****         return false;
 1482              		.loc 2 308 9 is_stmt 1 view .LVU391
 308:GrannyChordApp.cpp ****         return false;
 1483              		.loc 2 308 9 view .LVU392
 1484              	.LBB350:
 1485              	.LBI350:
 126:../libDaisy/src/daisy_seed.h ****     {
 1486              		.loc 6 126 17 view .LVU393
 1487              	.LBB351:
 1488              		.loc 6 128 23 is_stmt 0 view .LVU394
 1489 00a0 0348     		ldr	r0, .L74+8
 1490 00a2 FFF7FEFF 		bl	_ZN5daisy6LoggerILNS_17LoggerDestinationE1EE9PrintLineEPKcz
 1491              	.LVL94:
 1492              		.loc 6 128 23 view .LVU395
 1493              	.LBE351:
 1494              	.LBE350:
 309:GrannyChordApp.cpp ****       }
 1495              		.loc 2 309 9 is_stmt 1 view .LVU396
 309:GrannyChordApp.cpp ****       }
 1496              		.loc 2 309 16 is_stmt 0 view .LVU397
 1497 00a6 B6E7     		b	.L61
 1498              	.L75:
 1499              		.align	2
 1500              	.L74:
 1501 00a8 00000000 		.word	.LC1
 1502 00ac 19000000 		.word	.LC2
ARM GAS  /var/folders/2p/02m_5p7958535cp2tpgps0400000gn/T//ccUF7111.s 			page 45


 1503 00b0 35000000 		.word	.LC3
 1504              	.LBE334:
 1505              	.LBE333:
 1506              	.LBE332:
 1507              		.cfi_endproc
 1508              	.LFE4941:
 1510              		.section	.text._ZN14GrannyChordApp17InitFileSelectionEv,"ax",%progbits
 1511              		.align	1
 1512              		.global	_ZN14GrannyChordApp17InitFileSelectionEv
 1513              		.syntax unified
 1514              		.thumb
 1515              		.thumb_func
 1517              	_ZN14GrannyChordApp17InitFileSelectionEv:
 1518              	.LVL95:
 1519              	.LFB4938:
 250:GrannyChordApp.cpp ****   file_idx_ =0;
 1520              		.loc 2 250 41 is_stmt 1 view -0
 1521              		.cfi_startproc
 1522              		@ args = 0, pretend = 0, frame = 0
 1523              		@ frame_needed = 0, uses_anonymous_args = 0
 251:GrannyChordApp.cpp ****   memset(left_buf_, 0, CHNL_BUF_SIZE_ABS);
 1524              		.loc 2 251 3 view .LVU399
 251:GrannyChordApp.cpp ****   memset(left_buf_, 0, CHNL_BUF_SIZE_ABS);
 1525              		.loc 2 251 13 is_stmt 0 view .LVU400
 1526 0000 0021     		movs	r1, #0
 252:GrannyChordApp.cpp ****   memset(right_buf_, 0, CHNL_BUF_SIZE_ABS);
 1527              		.loc 2 252 9 view .LVU401
 1528 0002 4FF08072 		mov	r2, #16777216
 250:GrannyChordApp.cpp ****   file_idx_ =0;
 1529              		.loc 2 250 41 view .LVU402
 1530 0006 10B5     		push	{r4, lr}
 1531              		.cfi_def_cfa_offset 8
 1532              		.cfi_offset 4, -8
 1533              		.cfi_offset 14, -4
 250:GrannyChordApp.cpp ****   file_idx_ =0;
 1534              		.loc 2 250 41 view .LVU403
 1535 0008 0446     		mov	r4, r0
 251:GrannyChordApp.cpp ****   memset(left_buf_, 0, CHNL_BUF_SIZE_ABS);
 1536              		.loc 2 251 13 view .LVU404
 1537 000a C0F84816 		str	r1, [r0, #1608]
 252:GrannyChordApp.cpp ****   memset(right_buf_, 0, CHNL_BUF_SIZE_ABS);
 1538              		.loc 2 252 3 is_stmt 1 view .LVU405
 252:GrannyChordApp.cpp ****   memset(right_buf_, 0, CHNL_BUF_SIZE_ABS);
 1539              		.loc 2 252 9 is_stmt 0 view .LVU406
 1540 000e D0F84006 		ldr	r0, [r0, #1600]
 1541              	.LVL96:
 252:GrannyChordApp.cpp ****   memset(right_buf_, 0, CHNL_BUF_SIZE_ABS);
 1542              		.loc 2 252 9 view .LVU407
 1543 0012 FFF7FEFF 		bl	memset
 1544              	.LVL97:
 253:GrannyChordApp.cpp ****   if (!HandleFileSelection()){
 1545              		.loc 2 253 3 is_stmt 1 view .LVU408
 253:GrannyChordApp.cpp ****   if (!HandleFileSelection()){
 1546              		.loc 2 253 9 is_stmt 0 view .LVU409
 1547 0016 4FF08072 		mov	r2, #16777216
 1548 001a 0021     		movs	r1, #0
 1549 001c D4F84406 		ldr	r0, [r4, #1604]
ARM GAS  /var/folders/2p/02m_5p7958535cp2tpgps0400000gn/T//ccUF7111.s 			page 46


 1550 0020 FFF7FEFF 		bl	memset
 1551              	.LVL98:
 254:GrannyChordApp.cpp ****     ui_.SetStateError();
 1552              		.loc 2 254 3 is_stmt 1 view .LVU410
 254:GrannyChordApp.cpp ****     ui_.SetStateError();
 1553              		.loc 2 254 27 is_stmt 0 view .LVU411
 1554 0024 2046     		mov	r0, r4
 1555 0026 FFF7FEFF 		bl	_ZN14GrannyChordApp19HandleFileSelectionEv
 1556              	.LVL99:
 254:GrannyChordApp.cpp ****     ui_.SetStateError();
 1557              		.loc 2 254 3 view .LVU412
 1558 002a 28B9     		cbnz	r0, .L76
 255:GrannyChordApp.cpp ****     return;
 1559              		.loc 2 255 5 is_stmt 1 view .LVU413
 255:GrannyChordApp.cpp ****     return;
 1560              		.loc 2 255 22 is_stmt 0 view .LVU414
 1561 002c 04F2A450 		addw	r0, r4, #1444
 259:GrannyChordApp.cpp **** 
 1562              		.loc 2 259 1 view .LVU415
 1563 0030 BDE81040 		pop	{r4, lr}
 1564              		.cfi_remember_state
 1565              		.cfi_restore 14
 1566              		.cfi_restore 4
 1567              		.cfi_def_cfa_offset 0
 1568              	.LVL100:
 255:GrannyChordApp.cpp ****     return;
 1569              		.loc 2 255 22 view .LVU416
 1570 0034 FFF7FEBF 		b	_ZN9UIManager13SetStateErrorEv
 1571              	.LVL101:
 1572              	.L76:
 1573              		.cfi_restore_state
 259:GrannyChordApp.cpp **** 
 1574              		.loc 2 259 1 view .LVU417
 1575 0038 10BD     		pop	{r4, pc}
 259:GrannyChordApp.cpp **** 
 1576              		.loc 2 259 1 view .LVU418
 1577              		.cfi_endproc
 1578              	.LFE4938:
 1580              		.section	.text._ZN14GrannyChordApp17HandleStateChangeE8AppStateS0_,"ax",%progbits
 1581              		.align	1
 1582              		.global	_ZN14GrannyChordApp17HandleStateChangeE8AppStateS0_
 1583              		.syntax unified
 1584              		.thumb
 1585              		.thumb_func
 1587              	_ZN14GrannyChordApp17HandleStateChangeE8AppStateS0_:
 1588              	.LVL102:
 1589              	.LFB4934:
 161:GrannyChordApp.cpp ****   /* clean up from previous state */
 1590              		.loc 2 161 69 is_stmt 1 view -0
 1591              		.cfi_startproc
 1592              		@ args = 0, pretend = 0, frame = 0
 1593              		@ frame_needed = 0, uses_anonymous_args = 0
 1594              		@ link register save eliminated.
 163:GrannyChordApp.cpp ****     case AppState::SelectFile:
 1595              		.loc 2 163 3 view .LVU420
 190:GrannyChordApp.cpp ****     case AppState::SelectFile:
 1596              		.loc 2 190 3 view .LVU421
ARM GAS  /var/folders/2p/02m_5p7958535cp2tpgps0400000gn/T//ccUF7111.s 			page 47


 1597 0000 013A     		subs	r2, r2, #1
 1598              	.LVL103:
 190:GrannyChordApp.cpp ****     case AppState::SelectFile:
 1599              		.loc 2 190 3 is_stmt 0 view .LVU422
 1600 0002 032A     		cmp	r2, #3
 1601 0004 0BD8     		bhi	.L78
 1602 0006 DFE802F0 		tbb	[pc, r2]
 1603              	.L81:
 1604 000a 02       		.byte	(.L84-.L81)/2
 1605 000b 04       		.byte	(.L83-.L81)/2
 1606 000c 08       		.byte	(.L82-.L81)/2
 1607 000d 06       		.byte	(.L80-.L81)/2
 1608              		.p2align 1
 1609              	.L84:
 191:GrannyChordApp.cpp ****       InitFileSelection();
 1610              		.loc 2 191 5 is_stmt 1 view .LVU423
 192:GrannyChordApp.cpp ****       break;
 1611              		.loc 2 192 7 view .LVU424
 192:GrannyChordApp.cpp ****       break;
 1612              		.loc 2 192 24 is_stmt 0 view .LVU425
 1613 000e FFF7FEBF 		b	_ZN14GrannyChordApp17InitFileSelectionEv
 1614              	.LVL104:
 1615              	.L83:
 194:GrannyChordApp.cpp ****       InitPlayback();
 1616              		.loc 2 194 5 is_stmt 1 view .LVU426
 195:GrannyChordApp.cpp ****       break;
 1617              		.loc 2 195 7 view .LVU427
 195:GrannyChordApp.cpp ****       break;
 1618              		.loc 2 195 19 is_stmt 0 view .LVU428
 1619 0012 FFF7FEBF 		b	_ZN14GrannyChordApp12InitPlaybackEv
 1620              	.LVL105:
 1621              	.L80:
 197:GrannyChordApp.cpp ****       InitRecordIn();
 1622              		.loc 2 197 5 is_stmt 1 view .LVU429
 198:GrannyChordApp.cpp ****       break;
 1623              		.loc 2 198 7 view .LVU430
 198:GrannyChordApp.cpp ****       break;
 1624              		.loc 2 198 19 is_stmt 0 view .LVU431
 1625 0016 FFF7FEBF 		b	_ZN14GrannyChordApp12InitRecordInEv
 1626              	.LVL106:
 1627              	.L82:
 200:GrannyChordApp.cpp ****       InitSynth();
 1628              		.loc 2 200 5 is_stmt 1 view .LVU432
 201:GrannyChordApp.cpp ****       break;
 1629              		.loc 2 201 7 view .LVU433
 201:GrannyChordApp.cpp ****       break;
 1630              		.loc 2 201 16 is_stmt 0 view .LVU434
 1631 001a FFF7FEBF 		b	_ZN14GrannyChordApp9InitSynthEv
 1632              	.LVL107:
 1633              	.L78:
 222:GrannyChordApp.cpp **** 
 1634              		.loc 2 222 1 view .LVU435
 1635 001e 7047     		bx	lr
 1636              		.cfi_endproc
 1637              	.LFE4934:
 1639              		.section	.text._ZN14GrannyChordApp20UpdateGranularParamsEv,"ax",%progbits
 1640              		.align	1
ARM GAS  /var/folders/2p/02m_5p7958535cp2tpgps0400000gn/T//ccUF7111.s 			page 48


 1641              		.global	_ZN14GrannyChordApp20UpdateGranularParamsEv
 1642              		.syntax unified
 1643              		.thumb
 1644              		.thumb_func
 1646              	_ZN14GrannyChordApp20UpdateGranularParamsEv:
 1647              	.LVL108:
 1648              	.LFB4943:
 317:GrannyChordApp.cpp **** 
 318:GrannyChordApp.cpp **** void GrannyChordApp::UpdateSynthParams(AppState curr_state){
 319:GrannyChordApp.cpp ****   if (curr_state==AppState::Synthesis){
 320:GrannyChordApp.cpp ****     UpdateGranularParams();
 321:GrannyChordApp.cpp ****   }
 322:GrannyChordApp.cpp ****   // else if (curr_state==AppState::ChordMode){
 323:GrannyChordApp.cpp ****   //   UpdateChordParams();
 324:GrannyChordApp.cpp ****   // }
 325:GrannyChordApp.cpp **** }
 326:GrannyChordApp.cpp **** 
 327:GrannyChordApp.cpp **** void GrannyChordApp::UpdateGranularParams(){
 1649              		.loc 2 327 44 is_stmt 1 view -0
 1650              		.cfi_startproc
 1651              		@ args = 0, pretend = 0, frame = 8
 1652              		@ frame_needed = 0, uses_anonymous_args = 0
 328:GrannyChordApp.cpp ****   SynthMode mode = ui_.GetSynthMode();
 1653              		.loc 2 328 3 view .LVU437
 1654              	.LBB352:
 1655              	.LBI352:
  15:UIManager.h   ****     SynthMode GetSynthMode() { return synth_mode_; }
 1656              		.loc 4 15 15 view .LVU438
 1657              	.LBB353:
 1658              		.loc 4 15 32 view .LVU439
 1659              	.LBE353:
 1660              	.LBE352:
 327:GrannyChordApp.cpp ****   SynthMode mode = ui_.GetSynthMode();
 1661              		.loc 2 327 44 is_stmt 0 view .LVU440
 1662 0000 F0B5     		push	{r4, r5, r6, r7, lr}
 1663              		.cfi_def_cfa_offset 20
 1664              		.cfi_offset 4, -20
 1665              		.cfi_offset 5, -16
 1666              		.cfi_offset 6, -12
 1667              		.cfi_offset 7, -8
 1668              		.cfi_offset 14, -4
 1669              	.LBB355:
 1670              	.LBB354:
 1671              		.loc 4 15 39 view .LVU441
 1672 0002 D0F8AC75 		ldr	r7, [r0, #1452]
 1673              	.LVL109:
 1674              		.loc 4 15 39 view .LVU442
 1675              	.LBE354:
 1676              	.LBE355:
 329:GrannyChordApp.cpp ****   int mode_idx = static_cast<int>(mode);
 1677              		.loc 2 329 3 is_stmt 1 view .LVU443
 330:GrannyChordApp.cpp ****   float knob1_val = ui_.GetKnob1Value(mode_idx);
 1678              		.loc 2 330 3 view .LVU444
 327:GrannyChordApp.cpp ****   SynthMode mode = ui_.GetSynthMode();
 1679              		.loc 2 327 44 is_stmt 0 view .LVU445
 1680 0006 0446     		mov	r4, r0
 1681              		.loc 2 330 38 view .LVU446
ARM GAS  /var/folders/2p/02m_5p7958535cp2tpgps0400000gn/T//ccUF7111.s 			page 49


 1682 0008 00F2A450 		addw	r0, r0, #1444
 1683              	.LVL110:
 1684              		.loc 2 330 38 view .LVU447
 1685 000c 04EB8705 		add	r5, r4, r7, lsl #2
 1686 0010 3946     		mov	r1, r7
 327:GrannyChordApp.cpp ****   SynthMode mode = ui_.GetSynthMode();
 1687              		.loc 2 327 44 view .LVU448
 1688 0012 2DED048B 		vpush.64	{d8, d9}
 1689              		.cfi_def_cfa_offset 36
 1690              		.cfi_offset 80, -36
 1691              		.cfi_offset 81, -32
 1692              		.cfi_offset 82, -28
 1693              		.cfi_offset 83, -24
 1694 0016 83B0     		sub	sp, sp, #12
 1695              		.cfi_def_cfa_offset 48
 331:GrannyChordApp.cpp ****   float knob2_val = ui_.GetKnob2Value(mode_idx);
 332:GrannyChordApp.cpp ****   if (CheckParamDelta(knob1_val, prev_param_vals_k1[mode_idx])){
 1696              		.loc 2 332 22 view .LVU449
 1697 0018 05F25466 		addw	r6, r5, #1620
 1698              		.loc 2 332 3 view .LVU450
 1699 001c 9FED499A 		vldr.32	s18, .L112
 330:GrannyChordApp.cpp ****   float knob1_val = ui_.GetKnob1Value(mode_idx);
 1700              		.loc 2 330 38 view .LVU451
 1701 0020 0190     		str	r0, [sp, #4]
 1702 0022 FFF7FEFF 		bl	_ZN9UIManager13GetKnob1ValueEi
 1703              	.LVL111:
 331:GrannyChordApp.cpp ****   float knob2_val = ui_.GetKnob2Value(mode_idx);
 1704              		.loc 2 331 38 view .LVU452
 1705 0026 3946     		mov	r1, r7
 330:GrannyChordApp.cpp ****   float knob1_val = ui_.GetKnob1Value(mode_idx);
 1706              		.loc 2 330 38 view .LVU453
 1707 0028 F0EE408A 		vmov.f32	s17, s0
 1708              	.LVL112:
 331:GrannyChordApp.cpp ****   float knob2_val = ui_.GetKnob2Value(mode_idx);
 1709              		.loc 2 331 3 is_stmt 1 view .LVU454
 331:GrannyChordApp.cpp ****   float knob2_val = ui_.GetKnob2Value(mode_idx);
 1710              		.loc 2 331 38 is_stmt 0 view .LVU455
 1711 002c 0198     		ldr	r0, [sp, #4]
 1712 002e FFF7FEFF 		bl	_ZN9UIManager13GetKnob2ValueEi
 1713              	.LVL113:
 1714              	.LBB356:
 1715              	.LBB357:
 333:GrannyChordApp.cpp ****     switch (mode){
 334:GrannyChordApp.cpp ****       case SynthMode::Size_Position:
 335:GrannyChordApp.cpp ****         synth_.SetUserGrainSize(knob1_val);
 336:GrannyChordApp.cpp ****         break;
 337:GrannyChordApp.cpp ****       case SynthMode::Pitch_ActiveGrains:
 338:GrannyChordApp.cpp ****         synth_.SetUserPitchRatio(knob1_val);
 339:GrannyChordApp.cpp ****         break;
 340:GrannyChordApp.cpp ****       case SynthMode::Pan_PanRnd:
 341:GrannyChordApp.cpp ****         synth_.SetPan(knob1_val);
 342:GrannyChordApp.cpp ****         break;
 343:GrannyChordApp.cpp ****       case SynthMode::PhasorMode_EnvType:
 344:GrannyChordApp.cpp ****         knob1_val = fmap(knob1_val, 0, NUM_PHASOR_MODES);
 345:GrannyChordApp.cpp ****         synth_.SetPhasorMode(static_cast<GrainPhasor::Mode>(knob1_val));
 346:GrannyChordApp.cpp ****         break;
 347:GrannyChordApp.cpp ****       case SynthMode::Size_Position_Rnd:
ARM GAS  /var/folders/2p/02m_5p7958535cp2tpgps0400000gn/T//ccUF7111.s 			page 50


 348:GrannyChordApp.cpp ****         synth_.SetSizeRnd(knob1_val);
 349:GrannyChordApp.cpp ****         break;
 350:GrannyChordApp.cpp ****       case SynthMode::Pitch_ActiveGrains_Rnd:
 351:GrannyChordApp.cpp ****         synth_.SetPitchRnd(knob1_val);
 352:GrannyChordApp.cpp ****         break;
 353:GrannyChordApp.cpp ****       case SynthMode::PhasorMode_EnvType_Rnd:
 354:GrannyChordApp.cpp ****         synth_.SetPhasorRnd(knob1_val);
 355:GrannyChordApp.cpp ****         break;
 356:GrannyChordApp.cpp ****     }
 357:GrannyChordApp.cpp ****     prev_param_vals_k1[mode_idx] = knob1_val;
 358:GrannyChordApp.cpp ****   }
 359:GrannyChordApp.cpp ****   if (CheckParamDelta(knob2_val, prev_param_vals_k2[mode_idx])){
 360:GrannyChordApp.cpp ****     switch (mode){
 361:GrannyChordApp.cpp ****       case SynthMode::Size_Position:
 362:GrannyChordApp.cpp ****         synth_.SetUserSpawnPos(knob2_val);
 363:GrannyChordApp.cpp ****       case SynthMode::Pitch_ActiveGrains:
 364:GrannyChordApp.cpp ****         synth_.SetUserActiveGrains(knob2_val);
 365:GrannyChordApp.cpp ****       case SynthMode::Pan_PanRnd:
 366:GrannyChordApp.cpp ****         synth_.SetPanRnd(knob2_val);
 367:GrannyChordApp.cpp ****         break;
 368:GrannyChordApp.cpp ****       case SynthMode::PhasorMode_EnvType:
 369:GrannyChordApp.cpp ****         knob2_val = fmap(knob2_val, 0, NUM_ENV_TYPES);
 370:GrannyChordApp.cpp ****         synth_.SetEnvelopeType(static_cast<Grain::EnvelopeType>(knob2_val));
 371:GrannyChordApp.cpp ****         break;
 372:GrannyChordApp.cpp ****       case SynthMode::Size_Position_Rnd:
 373:GrannyChordApp.cpp ****         synth_.SetPositionRnd(knob2_val);
 374:GrannyChordApp.cpp ****         break;
 375:GrannyChordApp.cpp ****       case SynthMode::Pitch_ActiveGrains_Rnd:
 376:GrannyChordApp.cpp ****         synth_.SetCountRnd(knob2_val);
 377:GrannyChordApp.cpp ****         break;
 378:GrannyChordApp.cpp ****       case SynthMode::PhasorMode_EnvType_Rnd:
 379:GrannyChordApp.cpp ****         synth_.SetEnvRnd(knob2_val);
 380:GrannyChordApp.cpp ****         break;
 381:GrannyChordApp.cpp ****     }
 382:GrannyChordApp.cpp ****     prev_param_vals_k2[mode_idx] = knob2_val;
 383:GrannyChordApp.cpp ****   }
 384:GrannyChordApp.cpp **** }
 385:GrannyChordApp.cpp **** 
 386:GrannyChordApp.cpp **** bool GrannyChordApp::CheckParamDelta(float curr_val, float prev_val){
 387:GrannyChordApp.cpp ****   return (fabsf(curr_val - prev_val)>0.01f);
 1716              		.loc 2 387 26 view .LVU456
 1717 0032 D6ED007A 		vldr.32	s15, [r6]
 1718              	.LBE357:
 1719              	.LBE356:
 331:GrannyChordApp.cpp ****   float knob2_val = ui_.GetKnob2Value(mode_idx);
 1720              		.loc 2 331 38 view .LVU457
 1721 0036 B0EE408A 		vmov.f32	s16, s0
 1722              	.LVL114:
 332:GrannyChordApp.cpp ****     switch (mode){
 1723              		.loc 2 332 3 is_stmt 1 view .LVU458
 1724              	.LBB359:
 1725              	.LBI356:
 386:GrannyChordApp.cpp ****   return (fabsf(curr_val - prev_val)>0.01f);
 1726              		.loc 2 386 6 view .LVU459
 1727              	.LBB358:
 1728              		.loc 2 387 3 view .LVU460
 1729              		.loc 2 387 26 is_stmt 0 view .LVU461
ARM GAS  /var/folders/2p/02m_5p7958535cp2tpgps0400000gn/T//ccUF7111.s 			page 51


 1730 003a 78EEE77A 		vsub.f32	s15, s17, s15
 1731              		.loc 2 387 16 view .LVU462
 1732 003e F0EEE77A 		vabs.f32	s15, s15
 1733              	.LBE358:
 1734              	.LBE359:
 332:GrannyChordApp.cpp ****     switch (mode){
 1735              		.loc 2 332 3 view .LVU463
 1736 0042 F4EEC97A 		vcmpe.f32	s15, s18
 1737 0046 F1EE10FA 		vmrs	APSR_nzcv, FPSCR
 1738 004a 0EDD     		ble	.L86
 333:GrannyChordApp.cpp ****     switch (mode){
 1739              		.loc 2 333 5 is_stmt 1 view .LVU464
 1740 004c 062F     		cmp	r7, #6
 1741 004e 0AD8     		bhi	.L88
 1742 0050 DFE807F0 		tbb	[pc, r7]
 1743              	.L90:
 1744 0054 04       		.byte	(.L96-.L90)/2
 1745 0055 20       		.byte	(.L95-.L90)/2
 1746 0056 2B       		.byte	(.L94-.L90)/2
 1747 0057 3E       		.byte	(.L93-.L90)/2
 1748 0058 41       		.byte	(.L92-.L90)/2
 1749 0059 44       		.byte	(.L91-.L90)/2
 1750 005a 26       		.byte	(.L89-.L90)/2
 1751 005b 00       		.p2align 1
 1752              	.L96:
 334:GrannyChordApp.cpp ****         synth_.SetUserGrainSize(knob1_val);
 1753              		.loc 2 334 7 view .LVU465
 335:GrannyChordApp.cpp ****         break;
 1754              		.loc 2 335 9 view .LVU466
 335:GrannyChordApp.cpp ****         break;
 1755              		.loc 2 335 32 is_stmt 0 view .LVU467
 1756 005c B0EE680A 		vmov.f32	s0, s17
 1757              	.LVL115:
 335:GrannyChordApp.cpp ****         break;
 1758              		.loc 2 335 32 view .LVU468
 1759 0060 201D     		adds	r0, r4, #4
 1760 0062 FFF7FEFF 		bl	_ZN13GranularSynth16SetUserGrainSizeEf
 1761              	.LVL116:
 336:GrannyChordApp.cpp ****       case SynthMode::Pitch_ActiveGrains:
 1762              		.loc 2 336 9 is_stmt 1 view .LVU469
 1763              	.L88:
 357:GrannyChordApp.cpp ****   }
 1764              		.loc 2 357 5 view .LVU470
 357:GrannyChordApp.cpp ****   }
 1765              		.loc 2 357 34 is_stmt 0 view .LVU471
 1766 0066 C6ED008A 		vstr.32	s17, [r6]
 1767              	.L86:
 359:GrannyChordApp.cpp ****     switch (mode){
 1768              		.loc 2 359 3 is_stmt 1 view .LVU472
 1769              	.LVL117:
 1770              	.LBB360:
 1771              	.LBI360:
 386:GrannyChordApp.cpp ****   return (fabsf(curr_val - prev_val)>0.01f);
 1772              		.loc 2 386 6 view .LVU473
 1773              	.LBB361:
 1774              		.loc 2 387 3 view .LVU474
 1775              		.loc 2 387 3 is_stmt 0 view .LVU475
ARM GAS  /var/folders/2p/02m_5p7958535cp2tpgps0400000gn/T//ccUF7111.s 			page 52


 1776              	.LBE361:
 1777              	.LBE360:
 359:GrannyChordApp.cpp ****     switch (mode){
 1778              		.loc 2 359 22 view .LVU476
 1779 006a 05F5CE65 		add	r5, r5, #1648
 1780              	.LBB363:
 1781              	.LBB362:
 1782              		.loc 2 387 26 view .LVU477
 1783 006e D5ED007A 		vldr.32	s15, [r5]
 1784 0072 78EE677A 		vsub.f32	s15, s16, s15
 1785              		.loc 2 387 16 view .LVU478
 1786 0076 F0EEE77A 		vabs.f32	s15, s15
 1787              	.LBE362:
 1788              	.LBE363:
 359:GrannyChordApp.cpp ****     switch (mode){
 1789              		.loc 2 359 3 view .LVU479
 1790 007a F4EEC97A 		vcmpe.f32	s15, s18
 1791 007e F1EE10FA 		vmrs	APSR_nzcv, FPSCR
 1792 0082 51DD     		ble	.L85
 360:GrannyChordApp.cpp ****       case SynthMode::Size_Position:
 1793              		.loc 2 360 5 is_stmt 1 view .LVU480
 1794 0084 062F     		cmp	r7, #6
 1795 0086 4DD8     		bhi	.L99
 1796 0088 DFE807F0 		tbb	[pc, r7]
 1797              	.L101:
 1798 008c 2B       		.byte	(.L107-.L101)/2
 1799 008d 30       		.byte	(.L106-.L101)/2
 1800 008e 3A       		.byte	(.L105-.L101)/2
 1801 008f 52       		.byte	(.L104-.L101)/2
 1802 0090 55       		.byte	(.L103-.L101)/2
 1803 0091 58       		.byte	(.L102-.L101)/2
 1804 0092 35       		.byte	(.L100-.L101)/2
 1805              	.LVL118:
 1806 0093 00       		.p2align 1
 1807              	.L95:
 337:GrannyChordApp.cpp ****         synth_.SetUserPitchRatio(knob1_val);
 1808              		.loc 2 337 7 view .LVU481
 338:GrannyChordApp.cpp ****         break;
 1809              		.loc 2 338 9 view .LVU482
 338:GrannyChordApp.cpp ****         break;
 1810              		.loc 2 338 33 is_stmt 0 view .LVU483
 1811 0094 B0EE680A 		vmov.f32	s0, s17
 1812              	.LVL119:
 338:GrannyChordApp.cpp ****         break;
 1813              		.loc 2 338 33 view .LVU484
 1814 0098 201D     		adds	r0, r4, #4
 1815 009a FFF7FEFF 		bl	_ZN13GranularSynth17SetUserPitchRatioEf
 1816              	.LVL120:
 339:GrannyChordApp.cpp ****       case SynthMode::Pan_PanRnd:
 1817              		.loc 2 339 9 is_stmt 1 view .LVU485
 1818 009e E2E7     		b	.L88
 1819              	.LVL121:
 1820              	.L89:
 340:GrannyChordApp.cpp ****         synth_.SetPan(knob1_val);
 1821              		.loc 2 340 7 view .LVU486
 341:GrannyChordApp.cpp ****         break;
 1822              		.loc 2 341 9 view .LVU487
ARM GAS  /var/folders/2p/02m_5p7958535cp2tpgps0400000gn/T//ccUF7111.s 			page 53


 1823              	.LBB364:
 1824              	.LBI364:
 1825              		.file 7 "GranularSynth.h"
   1:GranularSynth.h **** #pragma once
   2:GranularSynth.h **** 
   3:GranularSynth.h **** #include "Grain.h"
   4:GranularSynth.h **** #include "daisy_pod.h"
   5:GranularSynth.h **** #include <vector>
   6:GranularSynth.h **** 
   7:GranularSynth.h **** class GranularSynth{
   8:GranularSynth.h ****   public:
   9:GranularSynth.h ****     GranularSynth(DaisyPod& pod) 
  10:GranularSynth.h ****       : pod_(pod), left_buf_(nullptr), right_buf_(nullptr), audio_len_(0),
  11:GranularSynth.h ****         grains_(){}
  12:GranularSynth.h **** 
  13:GranularSynth.h ****     void Init(const int16_t *left, const int16_t *right, size_t audio_len);
  14:GranularSynth.h ****     void InitParams();
  15:GranularSynth.h ****     void UpdateGrainParams();
  16:GranularSynth.h ****     void ApplyRandomness();
  17:GranularSynth.h ****     void TriggerGrain();
  18:GranularSynth.h ****     void ProcessGrains(float *out_left, float *out_right, size_t size);
  19:GranularSynth.h **** 
  20:GranularSynth.h ****     /* internal setters */
  21:GranularSynth.h ****     void SetGrainSize(float size_ms);
  22:GranularSynth.h ****     void SetSpawnPosSamples(size_t pos);
  23:GranularSynth.h ****     void SetActiveGrains(size_t count);
  24:GranularSynth.h ****     void SetPitchRatio(float ratio);
  25:GranularSynth.h ****     void SetEnvelopeType(Grain::EnvelopeType type){ env_type_ = type; }
  26:GranularSynth.h ****     void SetPhasorMode(GrainPhasor::Mode mode){ phasor_mode_ = mode;}
  27:GranularSynth.h ****     /* don't need a user setter for this
  28:GranularSynth.h ****     since pan range is already 0-1 */
  29:GranularSynth.h ****     void SetPan(float pan){ pan_ = pan; }
 1826              		.loc 7 29 10 view .LVU488
 1827              	.LBB365:
 1828              		.loc 7 29 29 view .LVU489
 1829              		.loc 7 29 34 is_stmt 0 view .LVU490
 1830 00a0 04F27C53 		addw	r3, r4, #1404
 1831              	.LVL122:
 1832              	.L110:
 1833              		.loc 7 29 34 view .LVU491
 1834              	.LBE365:
 1835              	.LBE364:
 1836              	.LBB366:
 1837              	.LBB367:
  30:GranularSynth.h ****     
  31:GranularSynth.h ****     /* user setters that take normalised input */
  32:GranularSynth.h ****     void SetUserGrainSize(float knob_val);
  33:GranularSynth.h ****     void SetUserSpawnPos(float knob_val);
  34:GranularSynth.h ****     void SetUserActiveGrains(float knob_val);
  35:GranularSynth.h ****     void SetUserPitchRatio(float ratio);
  36:GranularSynth.h **** 
  37:GranularSynth.h **** 
  38:GranularSynth.h ****     void SetSizeRnd(float rnd){ rnd_size_ = rnd; }
  39:GranularSynth.h ****     void SetPositionRnd(float rnd){ rnd_spawn_pos_ = rnd; }
  40:GranularSynth.h ****     void SetPitchRnd(float rnd){ rnd_pitch_ = rnd; }
  41:GranularSynth.h ****     void SetCountRnd(float rnd){ rnd_count_ = rnd; }
  42:GranularSynth.h ****     void SetPanRnd(float rnd){ rnd_pan_ = rnd; }
ARM GAS  /var/folders/2p/02m_5p7958535cp2tpgps0400000gn/T//ccUF7111.s 			page 54


  43:GranularSynth.h ****     void SetEnvRnd(float rnd){ rnd_envelope_ = rnd; }
  44:GranularSynth.h ****     void SetPhasorRnd(float rnd){ rnd_phasor_ = rnd; }
 1838              		.loc 7 44 47 view .LVU492
 1839 00a4 C3ED008A 		vstr.32	s17, [r3]
 1840              		.loc 7 44 54 view .LVU493
 1841 00a8 DDE7     		b	.L88
 1842              	.L94:
 1843              		.loc 7 44 54 view .LVU494
 1844              	.LBE367:
 1845              	.LBE366:
 343:GrannyChordApp.cpp ****         knob1_val = fmap(knob1_val, 0, NUM_PHASOR_MODES);
 1846              		.loc 2 343 7 is_stmt 1 view .LVU495
 344:GrannyChordApp.cpp ****         synth_.SetPhasorMode(static_cast<GrainPhasor::Mode>(knob1_val));
 1847              		.loc 2 344 9 view .LVU496
 1848              	.LVL123:
 1849              	.LBB369:
 1850              	.LBI369:
 1851              		.file 8 "../DaisySP/Source/Utility/dsp.h"
   1:../DaisySP/Source/Utility/dsp.h **** /*
   2:../DaisySP/Source/Utility/dsp.h **** Copyright (c) 2020 Electrosmith, Corp, Emilie Gillet
   3:../DaisySP/Source/Utility/dsp.h **** 
   4:../DaisySP/Source/Utility/dsp.h **** Use of this source code is governed by an MIT-style
   5:../DaisySP/Source/Utility/dsp.h **** license that can be found in the LICENSE file or at
   6:../DaisySP/Source/Utility/dsp.h **** https://opensource.org/licenses/MIT.
   7:../DaisySP/Source/Utility/dsp.h **** */
   8:../DaisySP/Source/Utility/dsp.h **** 
   9:../DaisySP/Source/Utility/dsp.h **** /** Helpful defines, functions, and other utilities for use in/with daisysp modules.
  10:../DaisySP/Source/Utility/dsp.h **** */
  11:../DaisySP/Source/Utility/dsp.h **** #pragma once
  12:../DaisySP/Source/Utility/dsp.h **** #ifndef DSY_CORE_DSP
  13:../DaisySP/Source/Utility/dsp.h **** #define DSY_CORE_DSP
  14:../DaisySP/Source/Utility/dsp.h **** #include <cassert>
  15:../DaisySP/Source/Utility/dsp.h **** #include <cstdint>
  16:../DaisySP/Source/Utility/dsp.h **** #include <random>
  17:../DaisySP/Source/Utility/dsp.h **** #include <cmath>
  18:../DaisySP/Source/Utility/dsp.h **** 
  19:../DaisySP/Source/Utility/dsp.h **** /** PIs
  20:../DaisySP/Source/Utility/dsp.h **** */
  21:../DaisySP/Source/Utility/dsp.h **** #define PI_F 3.1415927410125732421875f
  22:../DaisySP/Source/Utility/dsp.h **** #define TWOPI_F (2.0f * PI_F)
  23:../DaisySP/Source/Utility/dsp.h **** #define HALFPI_F (PI_F * 0.5f)
  24:../DaisySP/Source/Utility/dsp.h **** #define DSY_MIN(in, mn) (in < mn ? in : mn)
  25:../DaisySP/Source/Utility/dsp.h **** #define DSY_MAX(in, mx) (in > mx ? in : mx)
  26:../DaisySP/Source/Utility/dsp.h **** #define DSY_CLAMP(in, mn, mx) (DSY_MIN(DSY_MAX(in, mn), mx))
  27:../DaisySP/Source/Utility/dsp.h **** #define DSY_COUNTOF(_arr) (sizeof(_arr) / sizeof(_arr[0]))
  28:../DaisySP/Source/Utility/dsp.h **** 
  29:../DaisySP/Source/Utility/dsp.h **** namespace daisysp
  30:../DaisySP/Source/Utility/dsp.h **** {
  31:../DaisySP/Source/Utility/dsp.h **** //Avoids division for random floats. e.g. rand() * kRandFrac
  32:../DaisySP/Source/Utility/dsp.h **** static constexpr float kRandFrac = 1.f / (float)RAND_MAX;
  33:../DaisySP/Source/Utility/dsp.h **** 
  34:../DaisySP/Source/Utility/dsp.h **** //Convert from semitones to other units. e.g. 2 ^ (kOneTwelfth * x)
  35:../DaisySP/Source/Utility/dsp.h **** static constexpr float kOneTwelfth = 1.f / 12.f;
  36:../DaisySP/Source/Utility/dsp.h **** 
  37:../DaisySP/Source/Utility/dsp.h **** /** efficient floating point min/max
  38:../DaisySP/Source/Utility/dsp.h **** c/o stephen mccaul
  39:../DaisySP/Source/Utility/dsp.h **** */
ARM GAS  /var/folders/2p/02m_5p7958535cp2tpgps0400000gn/T//ccUF7111.s 			page 55


  40:../DaisySP/Source/Utility/dsp.h **** inline float fmax(float a, float b)
  41:../DaisySP/Source/Utility/dsp.h **** {
  42:../DaisySP/Source/Utility/dsp.h ****     float r;
  43:../DaisySP/Source/Utility/dsp.h **** #ifdef __arm__
  44:../DaisySP/Source/Utility/dsp.h ****     asm("vmaxnm.f32 %[d], %[n], %[m]" : [d] "=t"(r) : [n] "t"(a), [m] "t"(b) :);
  45:../DaisySP/Source/Utility/dsp.h **** #else
  46:../DaisySP/Source/Utility/dsp.h ****     r = (a > b) ? a : b;
  47:../DaisySP/Source/Utility/dsp.h **** #endif // __arm__
  48:../DaisySP/Source/Utility/dsp.h ****     return r;
  49:../DaisySP/Source/Utility/dsp.h **** }
  50:../DaisySP/Source/Utility/dsp.h **** 
  51:../DaisySP/Source/Utility/dsp.h **** inline float fmin(float a, float b)
  52:../DaisySP/Source/Utility/dsp.h **** {
  53:../DaisySP/Source/Utility/dsp.h ****     float r;
  54:../DaisySP/Source/Utility/dsp.h **** #ifdef __arm__
  55:../DaisySP/Source/Utility/dsp.h ****     asm("vminnm.f32 %[d], %[n], %[m]" : [d] "=t"(r) : [n] "t"(a), [m] "t"(b) :);
  56:../DaisySP/Source/Utility/dsp.h **** #else
  57:../DaisySP/Source/Utility/dsp.h ****     r = (a < b) ? a : b;
  58:../DaisySP/Source/Utility/dsp.h **** #endif // __arm__
  59:../DaisySP/Source/Utility/dsp.h ****     return r;
  60:../DaisySP/Source/Utility/dsp.h **** }
  61:../DaisySP/Source/Utility/dsp.h **** 
  62:../DaisySP/Source/Utility/dsp.h **** /** quick fp clamp
  63:../DaisySP/Source/Utility/dsp.h **** */
  64:../DaisySP/Source/Utility/dsp.h **** inline float fclamp(float in, float min, float max)
  65:../DaisySP/Source/Utility/dsp.h **** {
  66:../DaisySP/Source/Utility/dsp.h ****     return fmin(fmax(in, min), max);
  67:../DaisySP/Source/Utility/dsp.h **** }
  68:../DaisySP/Source/Utility/dsp.h **** 
  69:../DaisySP/Source/Utility/dsp.h **** /** From Musicdsp.org "Fast power and root estimates for 32bit floats)
  70:../DaisySP/Source/Utility/dsp.h **** Original code by Stefan Stenzel
  71:../DaisySP/Source/Utility/dsp.h **** These are approximations
  72:../DaisySP/Source/Utility/dsp.h **** */
  73:../DaisySP/Source/Utility/dsp.h **** inline float fastpower(float f, int n)
  74:../DaisySP/Source/Utility/dsp.h **** {
  75:../DaisySP/Source/Utility/dsp.h ****     long *lp, l;
  76:../DaisySP/Source/Utility/dsp.h ****     lp = (long *)(&f);
  77:../DaisySP/Source/Utility/dsp.h ****     l  = *lp;
  78:../DaisySP/Source/Utility/dsp.h ****     l -= 0x3F800000;
  79:../DaisySP/Source/Utility/dsp.h ****     l <<= (n - 1);
  80:../DaisySP/Source/Utility/dsp.h ****     l += 0x3F800000;
  81:../DaisySP/Source/Utility/dsp.h ****     *lp = l;
  82:../DaisySP/Source/Utility/dsp.h ****     return f;
  83:../DaisySP/Source/Utility/dsp.h **** }
  84:../DaisySP/Source/Utility/dsp.h **** 
  85:../DaisySP/Source/Utility/dsp.h **** inline float fastroot(float f, int n)
  86:../DaisySP/Source/Utility/dsp.h **** {
  87:../DaisySP/Source/Utility/dsp.h ****     long *lp, l;
  88:../DaisySP/Source/Utility/dsp.h ****     lp = (long *)(&f);
  89:../DaisySP/Source/Utility/dsp.h ****     l  = *lp;
  90:../DaisySP/Source/Utility/dsp.h ****     l -= 0x3F800000;
  91:../DaisySP/Source/Utility/dsp.h ****     l >>= (n - 1);
  92:../DaisySP/Source/Utility/dsp.h ****     l += 0x3F800000;
  93:../DaisySP/Source/Utility/dsp.h ****     *lp = l;
  94:../DaisySP/Source/Utility/dsp.h ****     return f;
  95:../DaisySP/Source/Utility/dsp.h **** }
  96:../DaisySP/Source/Utility/dsp.h **** 
ARM GAS  /var/folders/2p/02m_5p7958535cp2tpgps0400000gn/T//ccUF7111.s 			page 56


  97:../DaisySP/Source/Utility/dsp.h **** /** Significantly more efficient than fmodf(x, 1.0f) for calculating
  98:../DaisySP/Source/Utility/dsp.h ****  *  the decimal part of a floating point value.
  99:../DaisySP/Source/Utility/dsp.h ****  */
 100:../DaisySP/Source/Utility/dsp.h **** inline float fastmod1f(float x)
 101:../DaisySP/Source/Utility/dsp.h **** {
 102:../DaisySP/Source/Utility/dsp.h ****     return x - static_cast<int>(x);
 103:../DaisySP/Source/Utility/dsp.h **** }
 104:../DaisySP/Source/Utility/dsp.h **** 
 105:../DaisySP/Source/Utility/dsp.h **** /** From http://openaudio.blogspot.com/2017/02/faster-log10-and-pow.html
 106:../DaisySP/Source/Utility/dsp.h **** No approximation, pow10f(x) gives a 90% speed increase over powf(10.f, x)
 107:../DaisySP/Source/Utility/dsp.h **** */
 108:../DaisySP/Source/Utility/dsp.h **** inline float pow10f(float f)
 109:../DaisySP/Source/Utility/dsp.h **** {
 110:../DaisySP/Source/Utility/dsp.h ****     return expf(2.302585092994046f * f);
 111:../DaisySP/Source/Utility/dsp.h **** }
 112:../DaisySP/Source/Utility/dsp.h **** 
 113:../DaisySP/Source/Utility/dsp.h **** /* Original code for fastlog2f by Dr. Paul Beckmann from the ARM community forum, adapted from the 
 114:../DaisySP/Source/Utility/dsp.h **** About 25% performance increase over std::log10f
 115:../DaisySP/Source/Utility/dsp.h **** */
 116:../DaisySP/Source/Utility/dsp.h **** inline float fastlog2f(float f)
 117:../DaisySP/Source/Utility/dsp.h **** {
 118:../DaisySP/Source/Utility/dsp.h ****     float frac;
 119:../DaisySP/Source/Utility/dsp.h ****     int   exp;
 120:../DaisySP/Source/Utility/dsp.h ****     frac = frexpf(fabsf(f), &exp);
 121:../DaisySP/Source/Utility/dsp.h ****     f    = 1.23149591368684f;
 122:../DaisySP/Source/Utility/dsp.h ****     f *= frac;
 123:../DaisySP/Source/Utility/dsp.h ****     f += -4.11852516267426f;
 124:../DaisySP/Source/Utility/dsp.h ****     f *= frac;
 125:../DaisySP/Source/Utility/dsp.h ****     f += 6.02197014179219f;
 126:../DaisySP/Source/Utility/dsp.h ****     f *= frac;
 127:../DaisySP/Source/Utility/dsp.h ****     f += -3.13396450166353f;
 128:../DaisySP/Source/Utility/dsp.h ****     f += exp;
 129:../DaisySP/Source/Utility/dsp.h ****     return (f);
 130:../DaisySP/Source/Utility/dsp.h **** }
 131:../DaisySP/Source/Utility/dsp.h **** 
 132:../DaisySP/Source/Utility/dsp.h **** inline float fastlog10f(float f)
 133:../DaisySP/Source/Utility/dsp.h **** {
 134:../DaisySP/Source/Utility/dsp.h ****     return fastlog2f(f) * 0.3010299956639812f;
 135:../DaisySP/Source/Utility/dsp.h **** }
 136:../DaisySP/Source/Utility/dsp.h **** 
 137:../DaisySP/Source/Utility/dsp.h **** /** Midi to frequency helper
 138:../DaisySP/Source/Utility/dsp.h **** */
 139:../DaisySP/Source/Utility/dsp.h **** inline float mtof(float m)
 140:../DaisySP/Source/Utility/dsp.h **** {
 141:../DaisySP/Source/Utility/dsp.h ****     return powf(2, (m - 69.0f) / 12.0f) * 440.0f;
 142:../DaisySP/Source/Utility/dsp.h **** }
 143:../DaisySP/Source/Utility/dsp.h **** 
 144:../DaisySP/Source/Utility/dsp.h **** 
 145:../DaisySP/Source/Utility/dsp.h **** /** one pole lpf
 146:../DaisySP/Source/Utility/dsp.h **** out is passed by reference, and must be retained between
 147:../DaisySP/Source/Utility/dsp.h **** calls to properly filter the signal
 148:../DaisySP/Source/Utility/dsp.h **** coeff can be calculated:
 149:../DaisySP/Source/Utility/dsp.h **** coeff = 1.0 / (time * sample_rate) ; where time is in seconds
 150:../DaisySP/Source/Utility/dsp.h **** */
 151:../DaisySP/Source/Utility/dsp.h **** inline void fonepole(float &out, float in, float coeff)
 152:../DaisySP/Source/Utility/dsp.h **** {
 153:../DaisySP/Source/Utility/dsp.h ****     out += coeff * (in - out);
ARM GAS  /var/folders/2p/02m_5p7958535cp2tpgps0400000gn/T//ccUF7111.s 			page 57


 154:../DaisySP/Source/Utility/dsp.h **** }
 155:../DaisySP/Source/Utility/dsp.h **** 
 156:../DaisySP/Source/Utility/dsp.h **** /** Curves to use with the fmap function */
 157:../DaisySP/Source/Utility/dsp.h **** enum class Mapping
 158:../DaisySP/Source/Utility/dsp.h **** {
 159:../DaisySP/Source/Utility/dsp.h ****     LINEAR,
 160:../DaisySP/Source/Utility/dsp.h ****     EXP,
 161:../DaisySP/Source/Utility/dsp.h ****     LOG,
 162:../DaisySP/Source/Utility/dsp.h **** };
 163:../DaisySP/Source/Utility/dsp.h **** 
 164:../DaisySP/Source/Utility/dsp.h **** /** Maps a float between a specified range, using a specified curve.
 165:../DaisySP/Source/Utility/dsp.h ****  *
 166:../DaisySP/Source/Utility/dsp.h ****  *  \param in a value between 0 to 1 that will be mapped to the new range.
 167:../DaisySP/Source/Utility/dsp.h ****  *  \param min the new minimum value
 168:../DaisySP/Source/Utility/dsp.h ****  *  \param max the new maxmimum value
 169:../DaisySP/Source/Utility/dsp.h ****  *  \param curve a Mapping Value to adjust the response curve of the transformation
 170:../DaisySP/Source/Utility/dsp.h ****  *               defaults to Linear. @see Mapping
 171:../DaisySP/Source/Utility/dsp.h ****  *
 172:../DaisySP/Source/Utility/dsp.h ****  *  When using the log curve min and max, must be greater than zero.
 173:../DaisySP/Source/Utility/dsp.h ****  *
 174:../DaisySP/Source/Utility/dsp.h ****  *  \retval returns the transformed float within the new range.
 175:../DaisySP/Source/Utility/dsp.h **** */
 176:../DaisySP/Source/Utility/dsp.h **** inline float
 177:../DaisySP/Source/Utility/dsp.h **** fmap(float in, float min, float max, Mapping curve = Mapping::LINEAR)
 1852              		.loc 8 177 1 view .LVU497
 1853              	.LBE369:
 178:../DaisySP/Source/Utility/dsp.h **** {
 179:../DaisySP/Source/Utility/dsp.h ****     switch(curve)
 1854              		.loc 8 179 5 view .LVU498
 1855              	.LBB378:
 1856              	.LBB370:
 180:../DaisySP/Source/Utility/dsp.h ****     {
 181:../DaisySP/Source/Utility/dsp.h ****         case Mapping::EXP:
 182:../DaisySP/Source/Utility/dsp.h ****             return fclamp(min + (in * in) * (max - min), min, max);
 183:../DaisySP/Source/Utility/dsp.h ****         case Mapping::LOG:
 184:../DaisySP/Source/Utility/dsp.h ****         {
 185:../DaisySP/Source/Utility/dsp.h ****             const float a = 1.f / log10f(max / min);
 186:../DaisySP/Source/Utility/dsp.h ****             return fclamp(min * powf(10, in / a), min, max);
 187:../DaisySP/Source/Utility/dsp.h ****         }
 188:../DaisySP/Source/Utility/dsp.h ****         case Mapping::LINEAR:
 1857              		.loc 8 188 9 view .LVU499
 189:../DaisySP/Source/Utility/dsp.h ****         default: return fclamp(min + in * (max - min), min, max);
 1858              		.loc 8 189 9 view .LVU500
 1859              		.loc 8 189 18 view .LVU501
 1860              		.loc 8 189 31 is_stmt 0 view .LVU502
 1861 00aa 9FED277A 		vldr.32	s14, .L112+4
 1862 00ae F1EE007A 		vmov.f32	s15, #4.0e+0
 1863 00b2 B0EE470A 		vmov.f32	s0, s14
 1864              	.LVL124:
 1865              		.loc 8 189 31 view .LVU503
 1866 00b6 A8EEA70A 		vfma.f32	s0, s17, s15
 1867              	.LVL125:
 1868              	.LBB371:
 1869              	.LBI371:
  64:../DaisySP/Source/Utility/dsp.h **** {
 1870              		.loc 8 64 14 is_stmt 1 view .LVU504
 1871              	.LBE371:
ARM GAS  /var/folders/2p/02m_5p7958535cp2tpgps0400000gn/T//ccUF7111.s 			page 58


 1872              	.LBE370:
 1873              	.LBE378:
  66:../DaisySP/Source/Utility/dsp.h **** }
 1874              		.loc 8 66 5 view .LVU505
 1875              	.LBB379:
 1876              	.LBB377:
 1877              	.LBB376:
 1878              	.LBB372:
 1879              	.LBI372:
  40:../DaisySP/Source/Utility/dsp.h **** {
 1880              		.loc 8 40 14 view .LVU506
 1881              	.LBB373:
  42:../DaisySP/Source/Utility/dsp.h **** #ifdef __arm__
 1882              		.loc 8 42 5 view .LVU507
  44:../DaisySP/Source/Utility/dsp.h **** #else
 1883              		.loc 8 44 5 view .LVU508
 1884              		.syntax unified
 1885              	@ 44 "../DaisySP/Source/Utility/dsp.h" 1
 1886 00ba C0FE078A 		vmaxnm.f32 s17, s0, s14
 1887              	@ 0 "" 2
 1888              	.LVL126:
  48:../DaisySP/Source/Utility/dsp.h **** }
 1889              		.loc 8 48 5 view .LVU509
  48:../DaisySP/Source/Utility/dsp.h **** }
 1890              		.loc 8 48 5 is_stmt 0 view .LVU510
 1891              		.thumb
 1892              		.syntax unified
 1893              	.LBE373:
 1894              	.LBE372:
 1895              	.LBB374:
 1896              	.LBI374:
  51:../DaisySP/Source/Utility/dsp.h **** {
 1897              		.loc 8 51 14 is_stmt 1 view .LVU511
 1898              	.LBB375:
  53:../DaisySP/Source/Utility/dsp.h **** #ifdef __arm__
 1899              		.loc 8 53 5 view .LVU512
  55:../DaisySP/Source/Utility/dsp.h **** #else
 1900              		.loc 8 55 5 view .LVU513
 1901              		.syntax unified
 1902              	@ 55 "../DaisySP/Source/Utility/dsp.h" 1
 1903 00be C8FEE78A 		vminnm.f32 s17, s17, s15
 1904              	@ 0 "" 2
 1905              	.LVL127:
  59:../DaisySP/Source/Utility/dsp.h **** }
 1906              		.loc 8 59 5 view .LVU514
  59:../DaisySP/Source/Utility/dsp.h **** }
 1907              		.loc 8 59 5 is_stmt 0 view .LVU515
 1908              		.thumb
 1909              		.syntax unified
 1910              	.LBE375:
 1911              	.LBE374:
 1912              	.LBE376:
 1913              	.LBE377:
 1914              	.LBE379:
 345:GrannyChordApp.cpp ****         break;
 1915              		.loc 2 345 9 is_stmt 1 view .LVU516
 1916              	.LBB380:
ARM GAS  /var/folders/2p/02m_5p7958535cp2tpgps0400000gn/T//ccUF7111.s 			page 59


 1917              	.LBI380:
  26:GranularSynth.h ****     /* don't need a user setter for this
 1918              		.loc 7 26 10 view .LVU517
 1919              	.LBB381:
  26:GranularSynth.h ****     /* don't need a user setter for this
 1920              		.loc 7 26 49 view .LVU518
 1921              	.LBE381:
 1922              	.LBE380:
 345:GrannyChordApp.cpp ****         break;
 1923              		.loc 2 345 29 is_stmt 0 view .LVU519
 1924 00c2 FDEEE87A 		vcvt.s32.f32	s15, s17
 1925 00c6 17EE903A 		vmov	r3, s15	@ int
 1926 00ca C4F86435 		str	r3, [r4, #1380]
 1927              	.LBB383:
 1928              	.LBB382:
  26:GranularSynth.h ****     /* don't need a user setter for this
 1929              		.loc 7 26 69 view .LVU520
 1930 00ce CAE7     		b	.L88
 1931              	.LVL128:
 1932              	.L93:
  26:GranularSynth.h ****     /* don't need a user setter for this
 1933              		.loc 7 26 69 view .LVU521
 1934              	.LBE382:
 1935              	.LBE383:
 347:GrannyChordApp.cpp ****         synth_.SetSizeRnd(knob1_val);
 1936              		.loc 2 347 7 is_stmt 1 view .LVU522
 348:GrannyChordApp.cpp ****         break;
 1937              		.loc 2 348 9 view .LVU523
 1938              	.LBB384:
 1939              	.LBI384:
  38:GranularSynth.h ****     void SetPositionRnd(float rnd){ rnd_spawn_pos_ = rnd; }
 1940              		.loc 7 38 10 view .LVU524
 1941              	.LBB385:
  38:GranularSynth.h ****     void SetPositionRnd(float rnd){ rnd_spawn_pos_ = rnd; }
 1942              		.loc 7 38 33 view .LVU525
  38:GranularSynth.h ****     void SetPositionRnd(float rnd){ rnd_spawn_pos_ = rnd; }
 1943              		.loc 7 38 43 is_stmt 0 view .LVU526
 1944 00d0 04F5B063 		add	r3, r4, #1408
 1945 00d4 E6E7     		b	.L110
 1946              	.LVL129:
 1947              	.L92:
  38:GranularSynth.h ****     void SetPositionRnd(float rnd){ rnd_spawn_pos_ = rnd; }
 1948              		.loc 7 38 43 view .LVU527
 1949              	.LBE385:
 1950              	.LBE384:
 350:GrannyChordApp.cpp ****         synth_.SetPitchRnd(knob1_val);
 1951              		.loc 2 350 7 is_stmt 1 view .LVU528
 351:GrannyChordApp.cpp ****         break;
 1952              		.loc 2 351 9 view .LVU529
 1953              	.LBB386:
 1954              	.LBI386:
  40:GranularSynth.h ****     void SetCountRnd(float rnd){ rnd_count_ = rnd; }
 1955              		.loc 7 40 10 view .LVU530
 1956              	.LBB387:
  40:GranularSynth.h ****     void SetCountRnd(float rnd){ rnd_count_ = rnd; }
 1957              		.loc 7 40 34 view .LVU531
  40:GranularSynth.h ****     void SetCountRnd(float rnd){ rnd_count_ = rnd; }
ARM GAS  /var/folders/2p/02m_5p7958535cp2tpgps0400000gn/T//ccUF7111.s 			page 60


 1958              		.loc 7 40 45 is_stmt 0 view .LVU532
 1959 00d6 04F28C53 		addw	r3, r4, #1420
 1960 00da E3E7     		b	.L110
 1961              	.LVL130:
 1962              	.L91:
  40:GranularSynth.h ****     void SetCountRnd(float rnd){ rnd_count_ = rnd; }
 1963              		.loc 7 40 45 view .LVU533
 1964              	.LBE387:
 1965              	.LBE386:
 353:GrannyChordApp.cpp ****         synth_.SetPhasorRnd(knob1_val);
 1966              		.loc 2 353 7 is_stmt 1 view .LVU534
 354:GrannyChordApp.cpp ****         break;
 1967              		.loc 2 354 9 view .LVU535
 1968              	.LBB388:
 1969              	.LBI366:
 1970              		.loc 7 44 10 view .LVU536
 1971              	.LBB368:
 1972              		.loc 7 44 35 view .LVU537
 1973              		.loc 7 44 47 is_stmt 0 view .LVU538
 1974 00dc 04F5B363 		add	r3, r4, #1432
 1975 00e0 E0E7     		b	.L110
 1976              	.LVL131:
 1977              	.L107:
 1978              		.loc 7 44 47 view .LVU539
 1979              	.LBE368:
 1980              	.LBE388:
 361:GrannyChordApp.cpp ****         synth_.SetUserSpawnPos(knob2_val);
 1981              		.loc 2 361 7 is_stmt 1 view .LVU540
 362:GrannyChordApp.cpp ****       case SynthMode::Pitch_ActiveGrains:
 1982              		.loc 2 362 9 view .LVU541
 362:GrannyChordApp.cpp ****       case SynthMode::Pitch_ActiveGrains:
 1983              		.loc 2 362 31 is_stmt 0 view .LVU542
 1984 00e2 B0EE480A 		vmov.f32	s0, s16
 1985 00e6 201D     		adds	r0, r4, #4
 1986 00e8 FFF7FEFF 		bl	_ZN13GranularSynth15SetUserSpawnPosEf
 1987              	.LVL132:
 1988              	.L106:
 363:GrannyChordApp.cpp ****         synth_.SetUserActiveGrains(knob2_val);
 1989              		.loc 2 363 7 is_stmt 1 view .LVU543
 364:GrannyChordApp.cpp ****       case SynthMode::Pan_PanRnd:
 1990              		.loc 2 364 9 view .LVU544
 364:GrannyChordApp.cpp ****       case SynthMode::Pan_PanRnd:
 1991              		.loc 2 364 35 is_stmt 0 view .LVU545
 1992 00ec B0EE480A 		vmov.f32	s0, s16
 1993 00f0 201D     		adds	r0, r4, #4
 1994 00f2 FFF7FEFF 		bl	_ZN13GranularSynth19SetUserActiveGrainsEf
 1995              	.LVL133:
 1996              	.L100:
 365:GrannyChordApp.cpp ****         synth_.SetPanRnd(knob2_val);
 1997              		.loc 2 365 7 is_stmt 1 view .LVU546
 366:GrannyChordApp.cpp ****         break;
 1998              		.loc 2 366 9 view .LVU547
 1999              	.LBB389:
 2000              	.LBI389:
  42:GranularSynth.h ****     void SetEnvRnd(float rnd){ rnd_envelope_ = rnd; }
 2001              		.loc 7 42 10 view .LVU548
 2002              	.LBB390:
ARM GAS  /var/folders/2p/02m_5p7958535cp2tpgps0400000gn/T//ccUF7111.s 			page 61


  42:GranularSynth.h ****     void SetEnvRnd(float rnd){ rnd_envelope_ = rnd; }
 2003              		.loc 7 42 32 view .LVU549
  42:GranularSynth.h ****     void SetEnvRnd(float rnd){ rnd_envelope_ = rnd; }
 2004              		.loc 7 42 41 is_stmt 0 view .LVU550
 2005 00f6 04F5B264 		add	r4, r4, #1424
 2006              	.LVL134:
 2007              	.L111:
  42:GranularSynth.h ****     void SetEnvRnd(float rnd){ rnd_envelope_ = rnd; }
 2008              		.loc 7 42 41 view .LVU551
 2009              	.LBE390:
 2010              	.LBE389:
 2011              	.LBB391:
 2012              	.LBB392:
  43:GranularSynth.h ****     void SetPhasorRnd(float rnd){ rnd_phasor_ = rnd; }
 2013              		.loc 7 43 46 view .LVU552
 2014 00fa 84ED008A 		vstr.32	s16, [r4]
  43:GranularSynth.h ****     void SetPhasorRnd(float rnd){ rnd_phasor_ = rnd; }
 2015              		.loc 7 43 53 view .LVU553
 2016 00fe 11E0     		b	.L99
 2017              	.LVL135:
 2018              	.L105:
  43:GranularSynth.h ****     void SetPhasorRnd(float rnd){ rnd_phasor_ = rnd; }
 2019              		.loc 7 43 53 view .LVU554
 2020              	.LBE392:
 2021              	.LBE391:
 368:GrannyChordApp.cpp ****         knob2_val = fmap(knob2_val, 0, NUM_ENV_TYPES);
 2022              		.loc 2 368 7 is_stmt 1 view .LVU555
 369:GrannyChordApp.cpp ****         synth_.SetEnvelopeType(static_cast<Grain::EnvelopeType>(knob2_val));
 2023              		.loc 2 369 9 view .LVU556
 2024              	.LBB394:
 2025              	.LBI394:
 177:../DaisySP/Source/Utility/dsp.h **** {
 2026              		.loc 8 177 1 view .LVU557
 2027              	.LBE394:
 179:../DaisySP/Source/Utility/dsp.h ****     {
 2028              		.loc 8 179 5 view .LVU558
 2029              	.LBB403:
 2030              	.LBB395:
 188:../DaisySP/Source/Utility/dsp.h ****         default: return fclamp(min + in * (max - min), min, max);
 2031              		.loc 8 188 9 view .LVU559
 2032              		.loc 8 189 9 view .LVU560
 2033              		.loc 8 189 18 view .LVU561
 2034              		.loc 8 189 31 is_stmt 0 view .LVU562
 2035 0100 9FED117A 		vldr.32	s14, .L112+4
 2036 0104 F1EE007A 		vmov.f32	s15, #4.0e+0
 2037 0108 B0EE470A 		vmov.f32	s0, s14
 2038 010c A8EE270A 		vfma.f32	s0, s16, s15
 2039              	.LVL136:
 2040              	.LBB396:
 2041              	.LBI396:
  64:../DaisySP/Source/Utility/dsp.h **** {
 2042              		.loc 8 64 14 is_stmt 1 view .LVU563
 2043              	.LBE396:
 2044              	.LBE395:
 2045              	.LBE403:
  66:../DaisySP/Source/Utility/dsp.h **** }
 2046              		.loc 8 66 5 view .LVU564
ARM GAS  /var/folders/2p/02m_5p7958535cp2tpgps0400000gn/T//ccUF7111.s 			page 62


 2047              	.LBB404:
 2048              	.LBB402:
 2049              	.LBB401:
 2050              	.LBB397:
 2051              	.LBI397:
  40:../DaisySP/Source/Utility/dsp.h **** {
 2052              		.loc 8 40 14 view .LVU565
 2053              	.LBB398:
  42:../DaisySP/Source/Utility/dsp.h **** #ifdef __arm__
 2054              		.loc 8 42 5 view .LVU566
  44:../DaisySP/Source/Utility/dsp.h **** #else
 2055              		.loc 8 44 5 view .LVU567
 2056              		.syntax unified
 2057              	@ 44 "../DaisySP/Source/Utility/dsp.h" 1
 2058 0110 80FE078A 		vmaxnm.f32 s16, s0, s14
 2059              	@ 0 "" 2
 2060              	.LVL137:
  48:../DaisySP/Source/Utility/dsp.h **** }
 2061              		.loc 8 48 5 view .LVU568
  48:../DaisySP/Source/Utility/dsp.h **** }
 2062              		.loc 8 48 5 is_stmt 0 view .LVU569
 2063              		.thumb
 2064              		.syntax unified
 2065              	.LBE398:
 2066              	.LBE397:
 2067              	.LBB399:
 2068              	.LBI399:
  51:../DaisySP/Source/Utility/dsp.h **** {
 2069              		.loc 8 51 14 is_stmt 1 view .LVU570
 2070              	.LBB400:
  53:../DaisySP/Source/Utility/dsp.h **** #ifdef __arm__
 2071              		.loc 8 53 5 view .LVU571
  55:../DaisySP/Source/Utility/dsp.h **** #else
 2072              		.loc 8 55 5 view .LVU572
 2073              		.syntax unified
 2074              	@ 55 "../DaisySP/Source/Utility/dsp.h" 1
 2075 0114 88FE678A 		vminnm.f32 s16, s16, s15
 2076              	@ 0 "" 2
 2077              	.LVL138:
  59:../DaisySP/Source/Utility/dsp.h **** }
 2078              		.loc 8 59 5 view .LVU573
  59:../DaisySP/Source/Utility/dsp.h **** }
 2079              		.loc 8 59 5 is_stmt 0 view .LVU574
 2080              		.thumb
 2081              		.syntax unified
 2082              	.LBE400:
 2083              	.LBE399:
 2084              	.LBE401:
 2085              	.LBE402:
 2086              	.LBE404:
 370:GrannyChordApp.cpp ****         break;
 2087              		.loc 2 370 9 is_stmt 1 view .LVU575
 2088              	.LBB405:
 2089              	.LBI405:
  25:GranularSynth.h ****     void SetPhasorMode(GrainPhasor::Mode mode){ phasor_mode_ = mode;}
 2090              		.loc 7 25 10 view .LVU576
 2091              	.LBB406:
ARM GAS  /var/folders/2p/02m_5p7958535cp2tpgps0400000gn/T//ccUF7111.s 			page 63


  25:GranularSynth.h ****     void SetPhasorMode(GrainPhasor::Mode mode){ phasor_mode_ = mode;}
 2092              		.loc 7 25 53 view .LVU577
 2093              	.LBE406:
 2094              	.LBE405:
 370:GrannyChordApp.cpp ****         break;
 2095              		.loc 2 370 31 is_stmt 0 view .LVU578
 2096 0118 FDEEC87A 		vcvt.s32.f32	s15, s16
 2097 011c 17EE903A 		vmov	r3, s15	@ int
 2098 0120 C4F86835 		str	r3, [r4, #1384]
 2099              	.LVL139:
 2100              	.L99:
 382:GrannyChordApp.cpp ****   }
 2101              		.loc 2 382 5 is_stmt 1 view .LVU579
 382:GrannyChordApp.cpp ****   }
 2102              		.loc 2 382 34 is_stmt 0 view .LVU580
 2103 0124 85ED008A 		vstr.32	s16, [r5]
 2104              	.L85:
 384:GrannyChordApp.cpp **** 
 2105              		.loc 2 384 1 view .LVU581
 2106 0128 03B0     		add	sp, sp, #12
 2107              		.cfi_remember_state
 2108              		.cfi_def_cfa_offset 36
 2109              		@ sp needed
 2110 012a BDEC048B 		vldm	sp!, {d8-d9}
 2111              		.cfi_restore 82
 2112              		.cfi_restore 83
 2113              		.cfi_restore 80
 2114              		.cfi_restore 81
 2115              		.cfi_def_cfa_offset 20
 2116              	.LVL140:
 384:GrannyChordApp.cpp **** 
 2117              		.loc 2 384 1 view .LVU582
 2118 012e F0BD     		pop	{r4, r5, r6, r7, pc}
 2119              	.LVL141:
 2120              	.L104:
 2121              		.cfi_restore_state
 372:GrannyChordApp.cpp ****         synth_.SetPositionRnd(knob2_val);
 2122              		.loc 2 372 7 is_stmt 1 view .LVU583
 373:GrannyChordApp.cpp ****         break;
 2123              		.loc 2 373 9 view .LVU584
 2124              	.LBB407:
 2125              	.LBI407:
  39:GranularSynth.h ****     void SetPitchRnd(float rnd){ rnd_pitch_ = rnd; }
 2126              		.loc 7 39 10 view .LVU585
 2127              	.LBB408:
  39:GranularSynth.h ****     void SetPitchRnd(float rnd){ rnd_pitch_ = rnd; }
 2128              		.loc 7 39 37 view .LVU586
  39:GranularSynth.h ****     void SetPitchRnd(float rnd){ rnd_pitch_ = rnd; }
 2129              		.loc 7 39 52 is_stmt 0 view .LVU587
 2130 0130 04F28454 		addw	r4, r4, #1412
 2131              	.LVL142:
  39:GranularSynth.h ****     void SetPitchRnd(float rnd){ rnd_pitch_ = rnd; }
 2132              		.loc 7 39 52 view .LVU588
 2133 0134 E1E7     		b	.L111
 2134              	.LVL143:
 2135              	.L103:
  39:GranularSynth.h ****     void SetPitchRnd(float rnd){ rnd_pitch_ = rnd; }
ARM GAS  /var/folders/2p/02m_5p7958535cp2tpgps0400000gn/T//ccUF7111.s 			page 64


 2136              		.loc 7 39 52 view .LVU589
 2137              	.LBE408:
 2138              	.LBE407:
 375:GrannyChordApp.cpp ****         synth_.SetCountRnd(knob2_val);
 2139              		.loc 2 375 7 is_stmt 1 view .LVU590
 376:GrannyChordApp.cpp ****         break;
 2140              		.loc 2 376 9 view .LVU591
 2141              	.LBB409:
 2142              	.LBI409:
  41:GranularSynth.h ****     void SetPanRnd(float rnd){ rnd_pan_ = rnd; }
 2143              		.loc 7 41 10 view .LVU592
 2144              	.LBB410:
  41:GranularSynth.h ****     void SetPanRnd(float rnd){ rnd_pan_ = rnd; }
 2145              		.loc 7 41 34 view .LVU593
  41:GranularSynth.h ****     void SetPanRnd(float rnd){ rnd_pan_ = rnd; }
 2146              		.loc 7 41 45 is_stmt 0 view .LVU594
 2147 0136 04F5B164 		add	r4, r4, #1416
 2148              	.LVL144:
  41:GranularSynth.h ****     void SetPanRnd(float rnd){ rnd_pan_ = rnd; }
 2149              		.loc 7 41 45 view .LVU595
 2150 013a DEE7     		b	.L111
 2151              	.LVL145:
 2152              	.L102:
  41:GranularSynth.h ****     void SetPanRnd(float rnd){ rnd_pan_ = rnd; }
 2153              		.loc 7 41 45 view .LVU596
 2154              	.LBE410:
 2155              	.LBE409:
 378:GrannyChordApp.cpp ****         synth_.SetEnvRnd(knob2_val);
 2156              		.loc 2 378 7 is_stmt 1 view .LVU597
 379:GrannyChordApp.cpp ****         break;
 2157              		.loc 2 379 9 view .LVU598
 2158              	.LBB411:
 2159              	.LBI391:
  43:GranularSynth.h ****     void SetPhasorRnd(float rnd){ rnd_phasor_ = rnd; }
 2160              		.loc 7 43 10 view .LVU599
 2161              	.LBB393:
  43:GranularSynth.h ****     void SetPhasorRnd(float rnd){ rnd_phasor_ = rnd; }
 2162              		.loc 7 43 32 view .LVU600
  43:GranularSynth.h ****     void SetPhasorRnd(float rnd){ rnd_phasor_ = rnd; }
 2163              		.loc 7 43 46 is_stmt 0 view .LVU601
 2164 013c 04F29454 		addw	r4, r4, #1428
 2165              	.LVL146:
  43:GranularSynth.h ****     void SetPhasorRnd(float rnd){ rnd_phasor_ = rnd; }
 2166              		.loc 7 43 46 view .LVU602
 2167 0140 DBE7     		b	.L111
 2168              	.L113:
 2169 0142 00BF     		.align	2
 2170              	.L112:
 2171 0144 0AD7233C 		.word	1008981770
 2172 0148 00000000 		.word	0
 2173              	.LBE393:
 2174              	.LBE411:
 2175              		.cfi_endproc
 2176              	.LFE4943:
 2178              		.section	.text._ZN14GrannyChordApp17UpdateSynthParamsE8AppState,"ax",%progbits
 2179              		.align	1
 2180              		.global	_ZN14GrannyChordApp17UpdateSynthParamsE8AppState
ARM GAS  /var/folders/2p/02m_5p7958535cp2tpgps0400000gn/T//ccUF7111.s 			page 65


 2181              		.syntax unified
 2182              		.thumb
 2183              		.thumb_func
 2185              	_ZN14GrannyChordApp17UpdateSynthParamsE8AppState:
 2186              	.LVL147:
 2187              	.LFB4942:
 318:GrannyChordApp.cpp ****   if (curr_state==AppState::Synthesis){
 2188              		.loc 2 318 60 is_stmt 1 view -0
 2189              		.cfi_startproc
 2190              		@ args = 0, pretend = 0, frame = 0
 2191              		@ frame_needed = 0, uses_anonymous_args = 0
 2192              		@ link register save eliminated.
 319:GrannyChordApp.cpp ****     UpdateGranularParams();
 2193              		.loc 2 319 3 view .LVU604
 2194 0000 0329     		cmp	r1, #3
 2195 0002 01D1     		bne	.L114
 320:GrannyChordApp.cpp ****   }
 2196              		.loc 2 320 5 view .LVU605
 320:GrannyChordApp.cpp ****   }
 2197              		.loc 2 320 25 is_stmt 0 view .LVU606
 2198 0004 FFF7FEBF 		b	_ZN14GrannyChordApp20UpdateGranularParamsEv
 2199              	.LVL148:
 2200              	.L114:
 325:GrannyChordApp.cpp **** 
 2201              		.loc 2 325 1 view .LVU607
 2202 0008 7047     		bx	lr
 2203              		.cfi_endproc
 2204              	.LFE4942:
 2206              		.section	.rodata._ZN14GrannyChordApp3RunEv.str1.1,"aMS",%progbits,1
 2207              	.LC4:
 2208 0000 6368616E 		.ascii	"changed state\000"
 2208      67656420 
 2208      73746174 
 2208      6500
 2209              	.LC5:
 2210 000e 70726576 		.ascii	"prev: %d curr: %d\000"
 2210      3A202564 
 2210      20637572 
 2210      723A2025 
 2210      6400
 2211              		.section	.text._ZN14GrannyChordApp3RunEv,"ax",%progbits
 2212              		.align	1
 2213              		.global	_ZN14GrannyChordApp3RunEv
 2214              		.syntax unified
 2215              		.thumb
 2216              		.thumb_func
 2218              	_ZN14GrannyChordApp3RunEv:
 2219              	.LVL149:
 2220              	.LFB4924:
  32:GrannyChordApp.cpp ****   while(true){
 2221              		.loc 2 32 27 is_stmt 1 view -0
 2222              		.cfi_startproc
 2223              		@ args = 0, pretend = 0, frame = 8
 2224              		@ frame_needed = 0, uses_anonymous_args = 0
  32:GrannyChordApp.cpp ****   while(true){
 2225              		.loc 2 32 27 is_stmt 0 view .LVU609
 2226 0000 73B5     		push	{r0, r1, r4, r5, r6, lr}
ARM GAS  /var/folders/2p/02m_5p7958535cp2tpgps0400000gn/T//ccUF7111.s 			page 66


 2227              		.cfi_def_cfa_offset 24
 2228              		.cfi_offset 4, -16
 2229              		.cfi_offset 5, -12
 2230              		.cfi_offset 6, -8
 2231              		.cfi_offset 14, -4
 2232 0002 0446     		mov	r4, r0
 2233              	.LVL150:
 2234              	.L120:
  33:GrannyChordApp.cpp ****     AppState prev_state = ui_.GetCurrentState();
 2235              		.loc 2 33 3 is_stmt 1 view .LVU610
 2236              	.LBB412:
  34:GrannyChordApp.cpp ****     ui_.UpdateUI();
 2237              		.loc 2 34 5 view .LVU611
 2238              	.LBB413:
 2239              	.LBI413:
  14:UIManager.h   ****     SynthMode GetSynthMode() { return synth_mode_; }
 2240              		.loc 4 14 14 view .LVU612
 2241              	.LBB414:
  14:UIManager.h   ****     SynthMode GetSynthMode() { return synth_mode_; }
 2242              		.loc 4 14 34 view .LVU613
 2243              	.LBE414:
 2244              	.LBE413:
  35:GrannyChordApp.cpp ****     AppState curr_state = ui_.GetCurrentState();
 2245              		.loc 2 35 17 is_stmt 0 view .LVU614
 2246 0004 04F2A456 		addw	r6, r4, #1444
 2247              	.LVL151:
 2248              	.LBB417:
 2249              	.LBB415:
  14:UIManager.h   ****     SynthMode GetSynthMode() { return synth_mode_; }
 2250              		.loc 4 14 41 view .LVU615
 2251 0008 D4F8A815 		ldr	r1, [r4, #1448]
 2252              	.LBE415:
 2253              	.LBE417:
  35:GrannyChordApp.cpp ****     AppState curr_state = ui_.GetCurrentState();
 2254              		.loc 2 35 17 view .LVU616
 2255 000c 3046     		mov	r0, r6
 2256              	.LBB418:
 2257              	.LBB416:
  14:UIManager.h   ****     SynthMode GetSynthMode() { return synth_mode_; }
 2258              		.loc 4 14 41 view .LVU617
 2259 000e 0191     		str	r1, [sp, #4]
 2260              	.LVL152:
  14:UIManager.h   ****     SynthMode GetSynthMode() { return synth_mode_; }
 2261              		.loc 4 14 41 view .LVU618
 2262              	.LBE416:
 2263              	.LBE418:
  35:GrannyChordApp.cpp ****     AppState curr_state = ui_.GetCurrentState();
 2264              		.loc 2 35 5 is_stmt 1 view .LVU619
  35:GrannyChordApp.cpp ****     AppState curr_state = ui_.GetCurrentState();
 2265              		.loc 2 35 17 is_stmt 0 view .LVU620
 2266 0010 FFF7FEFF 		bl	_ZN9UIManager8UpdateUIEv
 2267              	.LVL153:
  36:GrannyChordApp.cpp **** 
 2268              		.loc 2 36 5 is_stmt 1 view .LVU621
 2269              	.LBB419:
 2270              	.LBI419:
  14:UIManager.h   ****     SynthMode GetSynthMode() { return synth_mode_; }
ARM GAS  /var/folders/2p/02m_5p7958535cp2tpgps0400000gn/T//ccUF7111.s 			page 67


 2271              		.loc 4 14 14 view .LVU622
 2272              	.LBB420:
  14:UIManager.h   ****     SynthMode GetSynthMode() { return synth_mode_; }
 2273              		.loc 4 14 34 view .LVU623
  14:UIManager.h   ****     SynthMode GetSynthMode() { return synth_mode_; }
 2274              		.loc 4 14 41 is_stmt 0 view .LVU624
 2275 0014 D4F8A855 		ldr	r5, [r4, #1448]
 2276              	.LVL154:
  14:UIManager.h   ****     SynthMode GetSynthMode() { return synth_mode_; }
 2277              		.loc 4 14 41 view .LVU625
 2278              	.LBE420:
 2279              	.LBE419:
  38:GrannyChordApp.cpp ****       HandleStateChange(prev_state, curr_state);
 2280              		.loc 2 38 5 is_stmt 1 view .LVU626
 2281              	.LBB421:
 2282 0018 0199     		ldr	r1, [sp, #4]
 2283 001a A942     		cmp	r1, r5
 2284 001c 0BD0     		beq	.L117
 2285              	.LBB422:
  39:GrannyChordApp.cpp ****       int p = static_cast<int>(prev_state);
 2286              		.loc 2 39 7 view .LVU627
  39:GrannyChordApp.cpp ****       int p = static_cast<int>(prev_state);
 2287              		.loc 2 39 24 is_stmt 0 view .LVU628
 2288 001e 2A46     		mov	r2, r5
 2289 0020 2046     		mov	r0, r4
 2290 0022 FFF7FEFF 		bl	_ZN14GrannyChordApp17HandleStateChangeE8AppStateS0_
 2291              	.LVL155:
  40:GrannyChordApp.cpp ****       int c = static_cast<int>(curr_state);
 2292              		.loc 2 40 7 is_stmt 1 view .LVU629
  41:GrannyChordApp.cpp ****       DebugPrint(pod_,"changed state");
 2293              		.loc 2 41 7 view .LVU630
  42:GrannyChordApp.cpp ****       DebugPrint(pod_,"prev: %d curr: %d",p,c);
 2294              		.loc 2 42 7 view .LVU631
  42:GrannyChordApp.cpp ****       DebugPrint(pod_,"prev: %d curr: %d",p,c);
 2295              		.loc 2 42 7 view .LVU632
 2296              	.LBB423:
 2297              	.LBI423:
 126:../libDaisy/src/daisy_seed.h ****     {
 2298              		.loc 6 126 17 view .LVU633
 2299              	.LBB424:
 2300              		.loc 6 128 23 is_stmt 0 view .LVU634
 2301 0026 0E48     		ldr	r0, .L125
 2302 0028 FFF7FEFF 		bl	_ZN5daisy6LoggerILNS_17LoggerDestinationE1EE9PrintLineEPKcz
 2303              	.LVL156:
 2304              		.loc 6 128 23 view .LVU635
 2305              	.LBE424:
 2306              	.LBE423:
  43:GrannyChordApp.cpp ****     }
 2307              		.loc 2 43 7 is_stmt 1 view .LVU636
  43:GrannyChordApp.cpp ****     }
 2308              		.loc 2 43 7 view .LVU637
 2309              	.LBB425:
 2310              	.LBI425:
 126:../libDaisy/src/daisy_seed.h ****     {
 2311              		.loc 6 126 17 view .LVU638
 2312              	.LBB426:
 2313              		.loc 6 128 23 is_stmt 0 view .LVU639
ARM GAS  /var/folders/2p/02m_5p7958535cp2tpgps0400000gn/T//ccUF7111.s 			page 68


 2314 002c 2A46     		mov	r2, r5
 2315 002e 0199     		ldr	r1, [sp, #4]
 2316 0030 0C48     		ldr	r0, .L125+4
 2317 0032 FFF7FEFF 		bl	_ZN5daisy6LoggerILNS_17LoggerDestinationE1EE9PrintLineEPKcz
 2318              	.LVL157:
 2319              	.L117:
 2320              		.loc 6 128 23 view .LVU640
 2321              	.LBE426:
 2322              	.LBE425:
 2323              	.LBE422:
 2324              	.LBE421:
  45:GrannyChordApp.cpp **** 
 2325              		.loc 2 45 5 is_stmt 1 view .LVU641
  45:GrannyChordApp.cpp **** 
 2326              		.loc 2 45 22 is_stmt 0 view .LVU642
 2327 0036 2046     		mov	r0, r4
 2328 0038 2946     		mov	r1, r5
 2329 003a FFF7FEFF 		bl	_ZN14GrannyChordApp17UpdateSynthParamsE8AppState
 2330              	.LVL158:
  47:GrannyChordApp.cpp ****       if (recording_out_) { StopRecordOut(); }
 2331              		.loc 2 47 5 is_stmt 1 view .LVU643
  47:GrannyChordApp.cpp ****       if (recording_out_) { StopRecordOut(); }
 2332              		.loc 2 47 28 is_stmt 0 view .LVU644
 2333 003e 3046     		mov	r0, r6
 2334 0040 FFF7FEFF 		bl	_ZN9UIManager15ToggleRecordOutEv
 2335              	.LVL159:
  47:GrannyChordApp.cpp ****       if (recording_out_) { StopRecordOut(); }
 2336              		.loc 2 47 5 view .LVU645
 2337 0044 28B1     		cbz	r0, .L118
  48:GrannyChordApp.cpp ****       else { StartRecordOut(); }
 2338              		.loc 2 48 7 is_stmt 1 view .LVU646
 2339 0046 94F88C36 		ldrb	r3, [r4, #1676]	@ zero_extendqisi2
 2340 004a 33B1     		cbz	r3, .L119
  48:GrannyChordApp.cpp ****       else { StartRecordOut(); }
 2341              		.loc 2 48 29 view .LVU647
 2342              	.LVL160:
 2343              	.LBB427:
 2344              	.LBI427:
 157:GrannyChordApp.cpp ****   recording_out_ = false;
 2345              		.loc 2 157 6 view .LVU648
 2346              	.LBB428:
 158:GrannyChordApp.cpp **** }
 2347              		.loc 2 158 3 view .LVU649
 158:GrannyChordApp.cpp **** }
 2348              		.loc 2 158 18 is_stmt 0 view .LVU650
 2349 004c 0023     		movs	r3, #0
 2350              	.LVL161:
 2351              	.L124:
 158:GrannyChordApp.cpp **** }
 2352              		.loc 2 158 18 view .LVU651
 2353              	.LBE428:
 2354              	.LBE427:
 2355              	.LBB429:
 2356              	.LBB430:
 154:GrannyChordApp.cpp **** }
 2357              		.loc 2 154 17 view .LVU652
 2358 004e 84F88C36 		strb	r3, [r4, #1676]
ARM GAS  /var/folders/2p/02m_5p7958535cp2tpgps0400000gn/T//ccUF7111.s 			page 69


 2359              	.L118:
 154:GrannyChordApp.cpp **** }
 2360              		.loc 2 154 17 view .LVU653
 2361              	.LBE430:
 2362              	.LBE429:
  51:GrannyChordApp.cpp ****   }
 2363              		.loc 2 51 5 is_stmt 1 view .LVU654
  51:GrannyChordApp.cpp ****   }
 2364              		.loc 2 51 18 is_stmt 0 view .LVU655
 2365 0052 0120     		movs	r0, #1
 2366 0054 FFF7FEFF 		bl	_ZN5daisy6System5DelayEm
 2367              	.LVL162:
 2368              	.LBE412:
  33:GrannyChordApp.cpp ****     AppState prev_state = ui_.GetCurrentState();
 2369              		.loc 2 33 3 is_stmt 1 view .LVU656
  52:GrannyChordApp.cpp **** }
 2370              		.loc 2 52 3 is_stmt 0 view .LVU657
 2371 0058 D4E7     		b	.L120
 2372              	.L119:
 2373              	.LBB433:
  49:GrannyChordApp.cpp ****     }
 2374              		.loc 2 49 14 is_stmt 1 view .LVU658
 2375              	.LVL163:
 2376              	.LBB432:
 2377              	.LBI429:
 153:GrannyChordApp.cpp ****   recording_out_=true;
 2378              		.loc 2 153 6 view .LVU659
 2379              	.LBB431:
 154:GrannyChordApp.cpp **** }
 2380              		.loc 2 154 3 view .LVU660
 154:GrannyChordApp.cpp **** }
 2381              		.loc 2 154 17 is_stmt 0 view .LVU661
 2382 005a 0123     		movs	r3, #1
 2383 005c F7E7     		b	.L124
 2384              	.L126:
 2385 005e 00BF     		.align	2
 2386              	.L125:
 2387 0060 00000000 		.word	.LC4
 2388 0064 0E000000 		.word	.LC5
 2389              	.LBE431:
 2390              	.LBE432:
 2391              	.LBE433:
 2392              		.cfi_endproc
 2393              	.LFE4924:
 2395              		.section	.text._ZN14GrannyChordApp15CheckParamDeltaEff,"ax",%progbits
 2396              		.align	1
 2397              		.global	_ZN14GrannyChordApp15CheckParamDeltaEff
 2398              		.syntax unified
 2399              		.thumb
 2400              		.thumb_func
 2402              	_ZN14GrannyChordApp15CheckParamDeltaEff:
 2403              	.LVL164:
 2404              	.LFB4944:
 386:GrannyChordApp.cpp ****   return (fabsf(curr_val - prev_val)>0.01f);
 2405              		.loc 2 386 69 is_stmt 1 view -0
 2406              		.cfi_startproc
 2407              		@ args = 0, pretend = 0, frame = 0
ARM GAS  /var/folders/2p/02m_5p7958535cp2tpgps0400000gn/T//ccUF7111.s 			page 70


 2408              		@ frame_needed = 0, uses_anonymous_args = 0
 2409              		@ link register save eliminated.
 2410              		.loc 2 387 3 view .LVU663
 2411              		.loc 2 387 26 is_stmt 0 view .LVU664
 2412 0000 70EE600A 		vsub.f32	s1, s0, s1
 2413              	.LVL165:
 2414              		.loc 2 387 43 view .LVU665
 2415 0004 DFED057A 		vldr.32	s15, .L128
 2416              		.loc 2 387 16 view .LVU666
 2417 0008 F0EEE00A 		vabs.f32	s1, s1
 2418              		.loc 2 387 43 view .LVU667
 2419 000c F4EEE70A 		vcmpe.f32	s1, s15
 2420 0010 F1EE10FA 		vmrs	APSR_nzcv, FPSCR
 388:GrannyChordApp.cpp **** }
 2421              		.loc 2 388 1 view .LVU668
 2422 0014 CCBF     		ite	gt
 2423 0016 0120     		movgt	r0, #1
 2424              	.LVL166:
 2425              		.loc 2 388 1 view .LVU669
 2426 0018 0020     		movle	r0, #0
 2427 001a 7047     		bx	lr
 2428              	.L129:
 2429              		.align	2
 2430              	.L128:
 2431 001c 0AD7233C 		.word	1008981770
 2432              		.cfi_endproc
 2433              	.LFE4944:
 2435              		.section	.text._ZN14GrannyChordApp17InitPrevParamValsEv,"ax",%progbits
 2436              		.align	1
 2437              		.global	_ZN14GrannyChordApp17InitPrevParamValsEv
 2438              		.syntax unified
 2439              		.thumb
 2440              		.thumb_func
 2442              	_ZN14GrannyChordApp17InitPrevParamValsEv:
 2443              	.LVL167:
 2444              	.LFB4945:
 389:GrannyChordApp.cpp **** 
 390:GrannyChordApp.cpp **** void GrannyChordApp::InitPrevParamVals(){
 2445              		.loc 2 390 41 is_stmt 1 view -0
 2446              		.cfi_startproc
 2447              		@ args = 0, pretend = 0, frame = 0
 2448              		@ frame_needed = 0, uses_anonymous_args = 0
 2449              		@ link register save eliminated.
 391:GrannyChordApp.cpp ****       for (int i=0; i < NUM_SYNTH_MODES;i++){
 2450              		.loc 2 391 7 view .LVU671
 2451              	.LBB434:
 2452              		.loc 2 391 23 view .LVU672
 2453 0000 00F25463 		addw	r3, r0, #1620
 2454 0004 00F5CE60 		add	r0, r0, #1648
 2455              	.LVL168:
 2456              	.L131:
 392:GrannyChordApp.cpp ****         prev_param_vals_k1[i] = 0.5f;
 2457              		.loc 2 392 9 discriminator 2 view .LVU673
 2458              		.loc 2 392 31 is_stmt 0 discriminator 2 view .LVU674
 2459 0008 4FF07C52 		mov	r2, #1056964608
 2460 000c 43F8042B 		str	r2, [r3], #4	@ float
 393:GrannyChordApp.cpp ****         prev_param_vals_k2[i] = 0.5f;
ARM GAS  /var/folders/2p/02m_5p7958535cp2tpgps0400000gn/T//ccUF7111.s 			page 71


 2461              		.loc 2 393 9 is_stmt 1 discriminator 2 view .LVU675
 391:GrannyChordApp.cpp ****       for (int i=0; i < NUM_SYNTH_MODES;i++){
 2462              		.loc 2 391 23 is_stmt 0 discriminator 2 view .LVU676
 2463 0010 8342     		cmp	r3, r0
 2464              		.loc 2 393 31 discriminator 2 view .LVU677
 2465 0012 9A61     		str	r2, [r3, #24]	@ float
 391:GrannyChordApp.cpp ****       for (int i=0; i < NUM_SYNTH_MODES;i++){
 2466              		.loc 2 391 7 is_stmt 1 discriminator 2 view .LVU678
 391:GrannyChordApp.cpp ****       for (int i=0; i < NUM_SYNTH_MODES;i++){
 2467              		.loc 2 391 23 discriminator 2 view .LVU679
 2468 0014 F8D1     		bne	.L131
 2469              	.LBE434:
 394:GrannyChordApp.cpp ****       } 
 395:GrannyChordApp.cpp **** };...
 2470              		.loc 2 395 1 is_stmt 0 view .LVU680
 2471 0016 7047     		bx	lr
 2472              		.cfi_endproc
 2473              	.LFE4945:
 2475              		.section	.rodata._ZN14GrannyChordApp4InitEPsS0_.str1.1,"aMS",%progbits,1
 2476              	.LC6:
 2477 0000 73657420 		.ascii	"set sample rate\000"
 2477      73616D70 
 2477      6C652072 
 2477      61746500 
 2478              	.LC7:
 2479 0010 696E6974 		.ascii	"init ui\000"
 2479      20756900 
 2480              	.LC8:
 2481 0018 66696C65 		.ascii	"filemgr init error\000"
 2481      6D677220 
 2481      696E6974 
 2481      20657272 
 2481      6F7200
 2482              	.LC9:
 2483 002b 73656C65 		.ascii	"selecting file now\000"
 2483      6374696E 
 2483      67206669 
 2483      6C65206E 
 2483      6F7700
 2484              	.LC10:
 2485 003e 73656C65 		.ascii	"selected file ok\000"
 2485      63746564 
 2485      2066696C 
 2485      65206F6B 
 2485      00
 2486              	.LC11:
 2487 004f 73746172 		.ascii	"started audio\000"
 2487      74656420 
 2487      61756469 
 2487      6F00
 2488              		.section	.text._ZN14GrannyChordApp4InitEPsS0_,"ax",%progbits
 2489              		.align	1
 2490              		.global	_ZN14GrannyChordApp4InitEPsS0_
 2491              		.syntax unified
 2492              		.thumb
 2493              		.thumb_func
 2495              	_ZN14GrannyChordApp4InitEPsS0_:
ARM GAS  /var/folders/2p/02m_5p7958535cp2tpgps0400000gn/T//ccUF7111.s 			page 72


 2496              	.LVL169:
 2497              	.LFB4923:
   5:GrannyChordApp.cpp **** void GrannyChordApp::Init(int16_t *left, int16_t *right){
 2498              		.loc 2 5 57 is_stmt 1 view -0
 2499              		.cfi_startproc
 2500              		@ args = 0, pretend = 0, frame = 0
 2501              		@ frame_needed = 0, uses_anonymous_args = 0
   6:GrannyChordApp.cpp ****   left_buf_ = left;
 2502              		.loc 2 6 3 view .LVU682
   5:GrannyChordApp.cpp **** void GrannyChordApp::Init(int16_t *left, int16_t *right){
 2503              		.loc 2 5 57 is_stmt 0 view .LVU683
 2504 0000 38B5     		push	{r3, r4, r5, lr}
 2505              		.cfi_def_cfa_offset 16
 2506              		.cfi_offset 3, -16
 2507              		.cfi_offset 4, -12
 2508              		.cfi_offset 5, -8
 2509              		.cfi_offset 14, -4
   5:GrannyChordApp.cpp **** void GrannyChordApp::Init(int16_t *left, int16_t *right){
 2510              		.loc 2 5 57 view .LVU684
 2511 0002 0446     		mov	r4, r0
   7:GrannyChordApp.cpp ****   right_buf_ = right;
 2512              		.loc 2 7 14 view .LVU685
 2513 0004 C0F84426 		str	r2, [r0, #1604]
   6:GrannyChordApp.cpp ****   left_buf_ = left;
 2514              		.loc 2 6 13 view .LVU686
 2515 0008 C0F84016 		str	r1, [r0, #1600]
   7:GrannyChordApp.cpp ****   right_buf_ = right;
 2516              		.loc 2 7 3 is_stmt 1 view .LVU687
   8:GrannyChordApp.cpp ****   pod_.SetAudioBlockSize(4);
 2517              		.loc 2 8 3 view .LVU688
   8:GrannyChordApp.cpp ****   pod_.SetAudioBlockSize(4);
 2518              		.loc 2 8 25 is_stmt 0 view .LVU689
 2519 000c 0421     		movs	r1, #4
 2520              	.LVL170:
   8:GrannyChordApp.cpp ****   pod_.SetAudioBlockSize(4);
 2521              		.loc 2 8 25 view .LVU690
 2522 000e 0068     		ldr	r0, [r0]
 2523              	.LVL171:
  13:GrannyChordApp.cpp ****   ui_.Init();
 2524              		.loc 2 13 11 view .LVU691
 2525 0010 04F2A455 		addw	r5, r4, #1444
   8:GrannyChordApp.cpp ****   pod_.SetAudioBlockSize(4);
 2526              		.loc 2 8 25 view .LVU692
 2527 0014 FFF7FEFF 		bl	_ZN5daisy8DaisyPod17SetAudioBlockSizeEj
 2528              	.LVL172:
   9:GrannyChordApp.cpp ****   pod_.SetAudioSampleRate(SaiHandle::Config::SampleRate::SAI_48KHZ);
 2529              		.loc 2 9 3 is_stmt 1 view .LVU693
   9:GrannyChordApp.cpp ****   pod_.SetAudioSampleRate(SaiHandle::Config::SampleRate::SAI_48KHZ);
 2530              		.loc 2 9 26 is_stmt 0 view .LVU694
 2531 0018 0321     		movs	r1, #3
 2532 001a 2068     		ldr	r0, [r4]
 2533 001c FFF7FEFF 		bl	_ZN5daisy8DaisyPod18SetAudioSampleRateENS_9SaiHandle6Config10SampleRateE
 2534              	.LVL173:
  11:GrannyChordApp.cpp ****   DebugPrint(pod_,"set sample rate");
 2535              		.loc 2 11 3 is_stmt 1 view .LVU695
  11:GrannyChordApp.cpp ****   DebugPrint(pod_,"set sample rate");
 2536              		.loc 2 11 3 view .LVU696
ARM GAS  /var/folders/2p/02m_5p7958535cp2tpgps0400000gn/T//ccUF7111.s 			page 73


 2537              	.LBB449:
 2538              	.LBI449:
 126:../libDaisy/src/daisy_seed.h ****     {
 2539              		.loc 6 126 17 view .LVU697
 2540              	.LBB450:
 2541              		.loc 6 128 23 is_stmt 0 view .LVU698
 2542 0020 1A48     		ldr	r0, .L136
 2543 0022 FFF7FEFF 		bl	_ZN5daisy6LoggerILNS_17LoggerDestinationE1EE9PrintLineEPKcz
 2544              	.LVL174:
 2545              		.loc 6 128 23 view .LVU699
 2546              	.LBE450:
 2547              	.LBE449:
  12:GrannyChordApp.cpp ****   SeedRng();
 2548              		.loc 2 12 3 is_stmt 1 view .LVU700
 2549              	.LBB451:
 2550              	.LBI451:
 2551              		.file 9 "constants_utils.h"
   1:constants_utils.h **** #pragma once
   2:constants_utils.h **** #include "stddef.h"
   3:constants_utils.h **** #include <time.h>
   4:constants_utils.h **** 
   5:constants_utils.h **** constexpr int SAMPLE_RATE = 48000;
   6:constants_utils.h **** constexpr float SAMPLE_RATE_FLOAT = 48000.f;
   7:constants_utils.h **** 
   8:constants_utils.h **** /* 16mb - max size of one stereo channel to be loaded into buffers */
   9:constants_utils.h **** constexpr size_t CHNL_BUF_SIZE_ABS = 16*1024*1024;
  10:constants_utils.h **** /* above is absolute size - each sample needs an int16 (2 bytes) so we do (abs_size)/2 */
  11:constants_utils.h **** constexpr size_t CHNL_BUF_SIZE_SAMPS = 8*1024*1024;
  12:constants_utils.h **** 
  13:constants_utils.h **** /* this is 60s @ 48kHz * 2 channels */
  14:constants_utils.h **** constexpr size_t RECORD_OUT_BUF_SIZE_SAMPS = 60*48000*2;
  15:constants_utils.h **** /* we need 2 bytes for each sample so we do (buf_samps_size)*2 */
  16:constants_utils.h **** constexpr size_t RECORD_OUT_BUF_SIZE_ABS = 60*48000*2*2;
  17:constants_utils.h **** 
  18:constants_utils.h **** constexpr int BIT_DEPTH = 16;
  19:constants_utils.h **** /* min/max number of concurrent active grains */
  20:constants_utils.h **** constexpr int MIN_GRAINS = 1;
  21:constants_utils.h **** constexpr int MAX_GRAINS = 20;
  22:constants_utils.h **** 
  23:constants_utils.h **** constexpr float MIN_GRAIN_SIZE_MS = 100.0f;
  24:constants_utils.h **** constexpr float MAX_GRAIN_SIZE_MS = 3000.0f;
  25:constants_utils.h **** constexpr size_t MIN_GRAIN_SIZE_SAMPLES = 4800; // 100ms at 48kHz
  26:constants_utils.h **** constexpr size_t MAX_GRAIN_SIZE_SAMPLES = 144000; // 3s at 48kHz
  27:constants_utils.h **** constexpr float MIN_PITCH = 0.5f;
  28:constants_utils.h **** constexpr float MAX_PITCH = 3.0f;
  29:constants_utils.h **** 
  30:constants_utils.h **** /* converts milliseconds to number of samples */
  31:constants_utils.h **** inline constexpr size_t MsToSamples(float ms){
  32:constants_utils.h ****   return static_cast<size_t>(SAMPLE_RATE_FLOAT * (ms*0.001f));
  33:constants_utils.h **** }
  34:constants_utils.h **** 
  35:constants_utils.h **** /* converts number of samples to milliseconds */
  36:constants_utils.h **** inline constexpr float SamplesToMs(size_t samples){
  37:constants_utils.h ****   return (static_cast<float>(samples) * 1000.0f) / SAMPLE_RATE_FLOAT; 
  38:constants_utils.h **** }
  39:constants_utils.h **** 
  40:constants_utils.h **** static constexpr int NUM_ENV_TYPES = 4;
ARM GAS  /var/folders/2p/02m_5p7958535cp2tpgps0400000gn/T//ccUF7111.s 			page 74


  41:constants_utils.h **** static constexpr int NUM_PHASOR_MODES = 4;
  42:constants_utils.h **** static constexpr int NUM_SYNTH_MODES = 7;
  43:constants_utils.h **** constexpr float PARAM_CHANGE_THRESHOLD = 0.01f;
  44:constants_utils.h **** 
  45:constants_utils.h **** extern uint32_t rng_state;
  46:constants_utils.h **** 
  47:constants_utils.h **** inline void SeedRng(){
 2552              		.loc 9 47 13 view .LVU701
 2553              	.LBB452:
  48:constants_utils.h ****   rng_state = static_cast<uint32_t>(time(nullptr));
 2554              		.loc 9 48 3 view .LVU702
 2555              		.loc 9 48 41 is_stmt 0 view .LVU703
 2556 0026 0020     		movs	r0, #0
 2557 0028 FFF7FEFF 		bl	time
 2558              	.LVL175:
 2559              		.loc 9 48 13 view .LVU704
 2560 002c 184B     		ldr	r3, .L136+4
 2561 002e 1860     		str	r0, [r3]
 2562              	.LBE452:
 2563              	.LBE451:
  13:GrannyChordApp.cpp ****   ui_.Init();
 2564              		.loc 2 13 3 is_stmt 1 view .LVU705
  13:GrannyChordApp.cpp ****   ui_.Init();
 2565              		.loc 2 13 11 is_stmt 0 view .LVU706
 2566 0030 2846     		mov	r0, r5
 2567 0032 FFF7FEFF 		bl	_ZN9UIManager4InitEv
 2568              	.LVL176:
  14:GrannyChordApp.cpp ****   DebugPrint(pod_,"init ui");
 2569              		.loc 2 14 3 is_stmt 1 view .LVU707
  14:GrannyChordApp.cpp ****   DebugPrint(pod_,"init ui");
 2570              		.loc 2 14 3 view .LVU708
 2571              	.LBB453:
 2572              	.LBI453:
 126:../libDaisy/src/daisy_seed.h ****     {
 2573              		.loc 6 126 17 view .LVU709
 2574              	.LBB454:
 2575              		.loc 6 128 23 is_stmt 0 view .LVU710
 2576 0036 1748     		ldr	r0, .L136+8
 2577 0038 FFF7FEFF 		bl	_ZN5daisy6LoggerILNS_17LoggerDestinationE1EE9PrintLineEPKcz
 2578              	.LVL177:
 2579              		.loc 6 128 23 view .LVU711
 2580              	.LBE454:
 2581              	.LBE453:
  15:GrannyChordApp.cpp ****   if (!InitFileMgr()){
 2582              		.loc 2 15 3 is_stmt 1 view .LVU712
  15:GrannyChordApp.cpp ****   if (!InitFileMgr()){
 2583              		.loc 2 15 19 is_stmt 0 view .LVU713
 2584 003c 2046     		mov	r0, r4
 2585 003e FFF7FEFF 		bl	_ZN14GrannyChordApp11InitFileMgrEv
 2586              	.LVL178:
  15:GrannyChordApp.cpp ****   if (!InitFileMgr()){
 2587              		.loc 2 15 3 view .LVU714
 2588 0042 38B9     		cbnz	r0, .L134
  16:GrannyChordApp.cpp ****     ui_.SetStateError();
 2589              		.loc 2 16 5 is_stmt 1 view .LVU715
  16:GrannyChordApp.cpp ****     ui_.SetStateError();
 2590              		.loc 2 16 22 is_stmt 0 view .LVU716
ARM GAS  /var/folders/2p/02m_5p7958535cp2tpgps0400000gn/T//ccUF7111.s 			page 75


 2591 0044 2846     		mov	r0, r5
 2592 0046 FFF7FEFF 		bl	_ZN9UIManager13SetStateErrorEv
 2593              	.LVL179:
  17:GrannyChordApp.cpp ****     DebugPrint(pod_,"filemgr init error");
 2594              		.loc 2 17 5 is_stmt 1 view .LVU717
  17:GrannyChordApp.cpp ****     DebugPrint(pod_,"filemgr init error");
 2595              		.loc 2 17 5 view .LVU718
 2596              	.LBB455:
 2597              	.LBI455:
 126:../libDaisy/src/daisy_seed.h ****     {
 2598              		.loc 6 126 17 view .LVU719
 2599              	.LBB456:
 2600              		.loc 6 128 23 is_stmt 0 view .LVU720
 2601 004a 1348     		ldr	r0, .L136+12
 2602              	.LVL180:
 2603              	.L135:
 2604              		.loc 6 128 23 view .LVU721
 2605              	.LBE456:
 2606              	.LBE455:
  30:GrannyChordApp.cpp **** }
 2607              		.loc 2 30 1 view .LVU722
 2608 004c BDE83840 		pop	{r3, r4, r5, lr}
 2609              		.cfi_remember_state
 2610              		.cfi_restore 14
 2611              		.cfi_restore 5
 2612              		.cfi_restore 4
 2613              		.cfi_restore 3
 2614              		.cfi_def_cfa_offset 0
 2615              	.LVL181:
 2616              	.LBB457:
 2617              	.LBB458:
 2618              		.loc 6 128 23 view .LVU723
 2619 0050 FFF7FEBF 		b	_ZN5daisy6LoggerILNS_17LoggerDestinationE1EE9PrintLineEPKcz
 2620              	.LVL182:
 2621              	.L134:
 2622              		.cfi_restore_state
 2623              		.loc 6 128 23 view .LVU724
 2624              	.LBE458:
 2625              	.LBE457:
  20:GrannyChordApp.cpp ****   ui_.SetState(AppState::SelectFile);
 2626              		.loc 2 20 3 is_stmt 1 view .LVU725
  20:GrannyChordApp.cpp ****   ui_.SetState(AppState::SelectFile);
 2627              		.loc 2 20 15 is_stmt 0 view .LVU726
 2628 0054 0121     		movs	r1, #1
 2629 0056 2846     		mov	r0, r5
 2630 0058 FFF7FEFF 		bl	_ZN9UIManager8SetStateE8AppState
 2631              	.LVL183:
  21:GrannyChordApp.cpp ****   DebugPrint(pod_,"selecting file now");
 2632              		.loc 2 21 3 is_stmt 1 view .LVU727
  21:GrannyChordApp.cpp ****   DebugPrint(pod_,"selecting file now");
 2633              		.loc 2 21 3 view .LVU728
 2634              	.LBB460:
 2635              	.LBI460:
 126:../libDaisy/src/daisy_seed.h ****     {
 2636              		.loc 6 126 17 view .LVU729
 2637              	.LBB461:
 2638              		.loc 6 128 23 is_stmt 0 view .LVU730
ARM GAS  /var/folders/2p/02m_5p7958535cp2tpgps0400000gn/T//ccUF7111.s 			page 76


 2639 005c 0F48     		ldr	r0, .L136+16
 2640 005e FFF7FEFF 		bl	_ZN5daisy6LoggerILNS_17LoggerDestinationE1EE9PrintLineEPKcz
 2641              	.LVL184:
 2642              		.loc 6 128 23 view .LVU731
 2643              	.LBE461:
 2644              	.LBE460:
  22:GrannyChordApp.cpp ****   InitFileSelection();
 2645              		.loc 2 22 3 is_stmt 1 view .LVU732
  22:GrannyChordApp.cpp ****   InitFileSelection();
 2646              		.loc 2 22 20 is_stmt 0 view .LVU733
 2647 0062 2046     		mov	r0, r4
 2648 0064 FFF7FEFF 		bl	_ZN14GrannyChordApp17InitFileSelectionEv
 2649              	.LVL185:
  23:GrannyChordApp.cpp ****   DebugPrint(pod_,"selected file ok");
 2650              		.loc 2 23 3 is_stmt 1 view .LVU734
  23:GrannyChordApp.cpp ****   DebugPrint(pod_,"selected file ok");
 2651              		.loc 2 23 3 view .LVU735
 2652              	.LBB462:
 2653              	.LBI462:
 126:../libDaisy/src/daisy_seed.h ****     {
 2654              		.loc 6 126 17 view .LVU736
 2655              	.LBB463:
 2656              		.loc 6 128 23 is_stmt 0 view .LVU737
 2657 0068 0D48     		ldr	r0, .L136+20
 2658 006a FFF7FEFF 		bl	_ZN5daisy6LoggerILNS_17LoggerDestinationE1EE9PrintLineEPKcz
 2659              	.LVL186:
 2660              		.loc 6 128 23 view .LVU738
 2661              	.LBE463:
 2662              	.LBE462:
  24:GrannyChordApp.cpp ****   InitCompressor();
 2663              		.loc 2 24 3 is_stmt 1 view .LVU739
  24:GrannyChordApp.cpp ****   InitCompressor();
 2664              		.loc 2 24 17 is_stmt 0 view .LVU740
 2665 006e 2046     		mov	r0, r4
 2666 0070 FFF7FEFF 		bl	_ZN14GrannyChordApp14InitCompressorEv
 2667              	.LVL187:
  25:GrannyChordApp.cpp ****   InitPrevParamVals();
 2668              		.loc 2 25 3 is_stmt 1 view .LVU741
  25:GrannyChordApp.cpp ****   InitPrevParamVals();
 2669              		.loc 2 25 20 is_stmt 0 view .LVU742
 2670 0074 2046     		mov	r0, r4
 2671 0076 FFF7FEFF 		bl	_ZN14GrannyChordApp17InitPrevParamValsEv
 2672              	.LVL188:
  27:GrannyChordApp.cpp ****   pod_.StartAdc();
 2673              		.loc 2 27 3 is_stmt 1 view .LVU743
  27:GrannyChordApp.cpp ****   pod_.StartAdc();
 2674              		.loc 2 27 16 is_stmt 0 view .LVU744
 2675 007a 2068     		ldr	r0, [r4]
 2676 007c FFF7FEFF 		bl	_ZN5daisy8DaisyPod8StartAdcEv
 2677              	.LVL189:
  28:GrannyChordApp.cpp ****   pod_.StartAudio(AudioCallback);
 2678              		.loc 2 28 3 is_stmt 1 view .LVU745
  28:GrannyChordApp.cpp ****   pod_.StartAudio(AudioCallback);
 2679              		.loc 2 28 18 is_stmt 0 view .LVU746
 2680 0080 2068     		ldr	r0, [r4]
 2681 0082 0849     		ldr	r1, .L136+24
 2682 0084 FFF7FEFF 		bl	_ZN5daisy8DaisyPod10StartAudioEPFvPKPKfPPfjE
ARM GAS  /var/folders/2p/02m_5p7958535cp2tpgps0400000gn/T//ccUF7111.s 			page 77


 2683              	.LVL190:
  29:GrannyChordApp.cpp ****   DebugPrint(pod_,"started audio");
 2684              		.loc 2 29 3 is_stmt 1 view .LVU747
  29:GrannyChordApp.cpp ****   DebugPrint(pod_,"started audio");
 2685              		.loc 2 29 3 view .LVU748
 2686              	.LBB464:
 2687              	.LBI457:
 126:../libDaisy/src/daisy_seed.h ****     {
 2688              		.loc 6 126 17 view .LVU749
 2689              	.LBB459:
 2690              		.loc 6 128 23 is_stmt 0 view .LVU750
 2691 0088 0748     		ldr	r0, .L136+28
 2692 008a DFE7     		b	.L135
 2693              	.L137:
 2694              		.align	2
 2695              	.L136:
 2696 008c 00000000 		.word	.LC6
 2697 0090 00000000 		.word	rng_state
 2698 0094 10000000 		.word	.LC7
 2699 0098 18000000 		.word	.LC8
 2700 009c 2B000000 		.word	.LC9
 2701 00a0 3E000000 		.word	.LC10
 2702 00a4 00000000 		.word	_ZN14GrannyChordApp13AudioCallbackEPKPKfPPfj
 2703 00a8 4F000000 		.word	.LC11
 2704              	.LBE459:
 2705              	.LBE464:
 2706              		.cfi_endproc
 2707              	.LFE4923:
 2709              		.global	_ZN14GrannyChordApp9instance_E
 2710              		.section	.bss._ZN14GrannyChordApp9instance_E,"aw",%nobits
 2711              		.align	2
 2712              		.set	.LANCHOR1,. + 0
 2715              	_ZN14GrannyChordApp9instance_E:
 2716 0000 00000000 		.space	4
 2717              		.section	.bss._ZZN14GrannyChordApp15ProcessRecordInEPKPKfPPfjE10record_pos,"aw",%nobits
 2718              		.align	2
 2719              		.set	.LANCHOR0,. + 0
 2722              	_ZZN14GrannyChordApp15ProcessRecordInEPKPKfPPfjE10record_pos:
 2723 0000 00000000 		.space	4
 2724              		.text
 2725              	.Letext0:
 2726              		.file 10 "/Library/DaisyToolchain/0.2.0/arm/arm-none-eabi/include/machine/_default_types.h"
 2727              		.file 11 "/Library/DaisyToolchain/0.2.0/arm/arm-none-eabi/include/sys/_stdint.h"
 2728              		.file 12 "/Library/DaisyToolchain/0.2.0/arm/arm-none-eabi/include/stdint.h"
 2729              		.file 13 "/Library/DaisyToolchain/0.2.0/arm/lib/gcc/arm-none-eabi/10.3.1/include/stddef.h"
 2730              		.file 14 "/Library/DaisyToolchain/0.2.0/arm/arm-none-eabi/include/c++/10.3.1/cmath"
 2731              		.file 15 "/Library/DaisyToolchain/0.2.0/arm/arm-none-eabi/include/c++/10.3.1/bits/std_abs.h"
 2732              		.file 16 "/Library/DaisyToolchain/0.2.0/arm/arm-none-eabi/include/c++/10.3.1/cstdlib"
 2733              		.file 17 "/Library/DaisyToolchain/0.2.0/arm/arm-none-eabi/include/c++/10.3.1/cstdint"
 2734              		.file 18 "/Library/DaisyToolchain/0.2.0/arm/arm-none-eabi/include/c++/10.3.1/arm-none-eabi/thumb/v
 2735              		.file 19 "/Library/DaisyToolchain/0.2.0/arm/arm-none-eabi/include/c++/10.3.1/type_traits"
 2736              		.file 20 "/Library/DaisyToolchain/0.2.0/arm/arm-none-eabi/include/c++/10.3.1/debug/debug.h"
 2737              		.file 21 "/Library/DaisyToolchain/0.2.0/arm/arm-none-eabi/include/c++/10.3.1/bits/algorithmfwd.h"
 2738              		.file 22 "/Library/DaisyToolchain/0.2.0/arm/arm-none-eabi/include/c++/10.3.1/bits/stl_pair.h"
 2739              		.file 23 "/Library/DaisyToolchain/0.2.0/arm/arm-none-eabi/include/c++/10.3.1/bits/exception_ptr.h"
 2740              		.file 24 "/Library/DaisyToolchain/0.2.0/arm/arm-none-eabi/include/c++/10.3.1/initializer_list"
 2741              		.file 25 "/Library/DaisyToolchain/0.2.0/arm/arm-none-eabi/include/c++/10.3.1/cstdarg"
ARM GAS  /var/folders/2p/02m_5p7958535cp2tpgps0400000gn/T//ccUF7111.s 			page 78


 2742              		.file 26 "/Library/DaisyToolchain/0.2.0/arm/arm-none-eabi/include/c++/10.3.1/cstdio"
 2743              		.file 27 "/Library/DaisyToolchain/0.2.0/arm/arm-none-eabi/include/c++/10.3.1/cstring"
 2744              		.file 28 "/Library/DaisyToolchain/0.2.0/arm/arm-none-eabi/include/c++/10.3.1/cwchar"
 2745              		.file 29 "/Library/DaisyToolchain/0.2.0/arm/arm-none-eabi/include/c++/10.3.1/clocale"
 2746              		.file 30 "/Library/DaisyToolchain/0.2.0/arm/arm-none-eabi/include/c++/10.3.1/bits/basic_string.h"
 2747              		.file 31 "/Library/DaisyToolchain/0.2.0/arm/arm-none-eabi/include/c++/10.3.1/bits/stl_iterator.h"
 2748              		.file 32 "/Library/DaisyToolchain/0.2.0/arm/arm-none-eabi/include/c++/10.3.1/bits/predefined_ops.h
 2749              		.file 33 "/Library/DaisyToolchain/0.2.0/arm/arm-none-eabi/include/sys/_types.h"
 2750              		.file 34 "/Library/DaisyToolchain/0.2.0/arm/arm-none-eabi/include/sys/reent.h"
 2751              		.file 35 "/Library/DaisyToolchain/0.2.0/arm/arm-none-eabi/include/sys/lock.h"
 2752              		.file 36 "/Library/DaisyToolchain/0.2.0/arm/arm-none-eabi/include/math.h"
 2753              		.file 37 "/Library/DaisyToolchain/0.2.0/arm/arm-none-eabi/include/stdlib.h"
 2754              		.file 38 "/Library/DaisyToolchain/0.2.0/arm/arm-none-eabi/include/c++/10.3.1/math.h"
 2755              		.file 39 "/Library/DaisyToolchain/0.2.0/arm/arm-none-eabi/include/c++/10.3.1/stdlib.h"
 2756              		.file 40 "../libDaisy/src/per/tim.h"
 2757              		.file 41 "../libDaisy/src/sys/system.h"
 2758              		.file 42 "../libDaisy/src/per/qspi.h"
 2759              		.file 43 "../libDaisy/src/per/dac.h"
 2760              		.file 44 "../libDaisy/src/per/sai.h"
 2761              		.file 45 "../libDaisy/src/hid/audio.h"
 2762              		.file 46 "../libDaisy/src/per/adc.h"
 2763              		.file 47 "../libDaisy/src/per/uart.h"
 2764              		.file 48 "../libDaisy/src/hid/MidiEvent.h"
 2765              		.file 49 "../libDaisy/src/hid/midi_parser.h"
 2766              		.file 50 "../libDaisy/src/hid/usb.h"
 2767              		.file 51 "../libDaisy/src/hid/midi.h"
 2768              		.file 52 "../libDaisy/src/util/FIFO.h"
 2769              		.file 53 "../libDaisy/src/hid/switch.h"
 2770              		.file 54 "../libDaisy/src/hid/encoder.h"
 2771              		.file 55 "../libDaisy/src/hid/ctrl.h"
 2772              		.file 56 "../libDaisy/src/hid/logger_impl.h"
 2773              		.file 57 "../libDaisy/src/per/sdmmc.h"
 2774              		.file 58 "../libDaisy/src/util/wav_format.h"
 2775              		.file 59 "../libDaisy/src/hid/led.h"
 2776              		.file 60 "../libDaisy/src/util/color.h"
 2777              		.file 61 "../libDaisy/src/hid/rgb_led.h"
 2778              		.file 62 "../libDaisy/src/dev/max11300.h"
 2779              		.file 63 "../libDaisy/src/sys/fatfs.h"
 2780              		.file 64 "../libDaisy/src/hid/logger.h"
 2781              		.file 65 "../libDaisy/src/daisy_pod.h"
 2782              		.file 66 "../libDaisy/src/per/gpio.h"
 2783              		.file 67 "../libDaisy/src/dev/sdram.h"
 2784              		.file 68 "/Library/DaisyToolchain/0.2.0/arm/lib/gcc/arm-none-eabi/10.3.1/include/stdarg.h"
 2785              		.file 69 "/Library/DaisyToolchain/0.2.0/arm/arm-none-eabi/include/stdio.h"
 2786              		.file 70 "../libDaisy/Middlewares/Third_Party/FatFs/src/integer.h"
 2787              		.file 71 "../libDaisy/Middlewares/Third_Party/FatFs/src/ff.h"
 2788              		.file 72 "/Library/DaisyToolchain/0.2.0/arm/arm-none-eabi/include/string.h"
 2789              		.file 73 "../DaisySP/Source/Control/adenv.h"
 2790              		.file 74 "/Library/DaisyToolchain/0.2.0/arm/arm-none-eabi/include/wchar.h"
 2791              		.file 75 "/Library/DaisyToolchain/0.2.0/arm/arm-none-eabi/include/time.h"
 2792              		.file 76 "/Library/DaisyToolchain/0.2.0/arm/arm-none-eabi/include/locale.h"
 2793              		.file 77 "AppState.h"
 2794              		.file 78 "GrainPhasor.h"
 2795              		.file 79 "Grain.h"
 2796              		.file 80 "GrannyChordApp.h"
 2797              		.file 81 "../libDaisy/src/dev/sr_595.h"
 2798              		.file 82 "<built-in>"
ARM GAS  /var/folders/2p/02m_5p7958535cp2tpgps0400000gn/T//ccUF7111.s 			page 79


ARM GAS  /var/folders/2p/02m_5p7958535cp2tpgps0400000gn/T//ccUF7111.s 			page 80


DEFINED SYMBOLS
                            *ABS*:0000000000000000 GrannyChordApp.cpp
/var/folders/2p/02m_5p7958535cp2tpgps0400000gn/T//ccUF7111.s:19     .text._ZN7daisysp10Compressor17RecalculateMakeupEv:0000000000000000 $t
/var/folders/2p/02m_5p7958535cp2tpgps0400000gn/T//ccUF7111.s:25     .text._ZN7daisysp10Compressor17RecalculateMakeupEv:0000000000000000 _ZN7daisysp10Compressor17RecalculateMakeupEv
/var/folders/2p/02m_5p7958535cp2tpgps0400000gn/T//ccUF7111.s:69     .text._ZN14GrannyChordApp9AudioIdleEPPfj:0000000000000000 $t
/var/folders/2p/02m_5p7958535cp2tpgps0400000gn/T//ccUF7111.s:75     .text._ZN14GrannyChordApp9AudioIdleEPPfj:0000000000000000 _ZN14GrannyChordApp9AudioIdleEPPfj
/var/folders/2p/02m_5p7958535cp2tpgps0400000gn/T//ccUF7111.s:126    .text._ZN14GrannyChordApp18ProcessWAVPlaybackEPPfj:0000000000000000 $t
/var/folders/2p/02m_5p7958535cp2tpgps0400000gn/T//ccUF7111.s:132    .text._ZN14GrannyChordApp18ProcessWAVPlaybackEPPfj:0000000000000000 _ZN14GrannyChordApp18ProcessWAVPlaybackEPPfj
/var/folders/2p/02m_5p7958535cp2tpgps0400000gn/T//ccUF7111.s:268    .text._ZN14GrannyChordApp18ProcessWAVPlaybackEPPfj:000000000000007c $d
/var/folders/2p/02m_5p7958535cp2tpgps0400000gn/T//ccUF7111.s:273    .text._ZN14GrannyChordApp15ProcessRecordInEPKPKfPPfj:0000000000000000 $t
/var/folders/2p/02m_5p7958535cp2tpgps0400000gn/T//ccUF7111.s:279    .text._ZN14GrannyChordApp15ProcessRecordInEPKPKfPPfj:0000000000000000 _ZN14GrannyChordApp15ProcessRecordInEPKPKfPPfj
/var/folders/2p/02m_5p7958535cp2tpgps0400000gn/T//ccUF7111.s:374    .text._ZN14GrannyChordApp15ProcessRecordInEPKPKfPPfj:0000000000000078 $d
/var/folders/2p/02m_5p7958535cp2tpgps0400000gn/T//ccUF7111.s:380    .text._ZN14GrannyChordApp16ProcessSynthesisEPPfj:0000000000000000 $t
/var/folders/2p/02m_5p7958535cp2tpgps0400000gn/T//ccUF7111.s:386    .text._ZN14GrannyChordApp16ProcessSynthesisEPPfj:0000000000000000 _ZN14GrannyChordApp16ProcessSynthesisEPPfj
/var/folders/2p/02m_5p7958535cp2tpgps0400000gn/T//ccUF7111.s:483    .text._ZN14GrannyChordApp13AudioCallbackEPKPKfPPfj:0000000000000000 $t
/var/folders/2p/02m_5p7958535cp2tpgps0400000gn/T//ccUF7111.s:489    .text._ZN14GrannyChordApp13AudioCallbackEPKPKfPPfj:0000000000000000 _ZN14GrannyChordApp13AudioCallbackEPKPKfPPfj
/var/folders/2p/02m_5p7958535cp2tpgps0400000gn/T//ccUF7111.s:598    .text._ZN14GrannyChordApp13AudioCallbackEPKPKfPPfj:0000000000000034 $d
/var/folders/2p/02m_5p7958535cp2tpgps0400000gn/T//ccUF7111.s:603    .text._ZN14GrannyChordApp16ProcessChordModeEPPfj:0000000000000000 $t
/var/folders/2p/02m_5p7958535cp2tpgps0400000gn/T//ccUF7111.s:609    .text._ZN14GrannyChordApp16ProcessChordModeEPPfj:0000000000000000 _ZN14GrannyChordApp16ProcessChordModeEPPfj
/var/folders/2p/02m_5p7958535cp2tpgps0400000gn/T//ccUF7111.s:623    .text._ZN14GrannyChordApp13RecordOutToSDEPPfj:0000000000000000 $t
/var/folders/2p/02m_5p7958535cp2tpgps0400000gn/T//ccUF7111.s:629    .text._ZN14GrannyChordApp13RecordOutToSDEPPfj:0000000000000000 _ZN14GrannyChordApp13RecordOutToSDEPPfj
/var/folders/2p/02m_5p7958535cp2tpgps0400000gn/T//ccUF7111.s:640    .text._ZN14GrannyChordApp14StartRecordOutEv:0000000000000000 $t
/var/folders/2p/02m_5p7958535cp2tpgps0400000gn/T//ccUF7111.s:646    .text._ZN14GrannyChordApp14StartRecordOutEv:0000000000000000 _ZN14GrannyChordApp14StartRecordOutEv
/var/folders/2p/02m_5p7958535cp2tpgps0400000gn/T//ccUF7111.s:664    .text._ZN14GrannyChordApp13StopRecordOutEv:0000000000000000 $t
/var/folders/2p/02m_5p7958535cp2tpgps0400000gn/T//ccUF7111.s:670    .text._ZN14GrannyChordApp13StopRecordOutEv:0000000000000000 _ZN14GrannyChordApp13StopRecordOutEv
/var/folders/2p/02m_5p7958535cp2tpgps0400000gn/T//ccUF7111.s:688    .text._ZN14GrannyChordApp11InitFileMgrEv:0000000000000000 $t
/var/folders/2p/02m_5p7958535cp2tpgps0400000gn/T//ccUF7111.s:694    .text._ZN14GrannyChordApp11InitFileMgrEv:0000000000000000 _ZN14GrannyChordApp11InitFileMgrEv
/var/folders/2p/02m_5p7958535cp2tpgps0400000gn/T//ccUF7111.s:757    .text._ZN14GrannyChordApp9InitSynthEv:0000000000000000 $t
/var/folders/2p/02m_5p7958535cp2tpgps0400000gn/T//ccUF7111.s:763    .text._ZN14GrannyChordApp9InitSynthEv:0000000000000000 _ZN14GrannyChordApp9InitSynthEv
/var/folders/2p/02m_5p7958535cp2tpgps0400000gn/T//ccUF7111.s:786    .text._ZN14GrannyChordApp14InitCompressorEv:0000000000000000 $t
/var/folders/2p/02m_5p7958535cp2tpgps0400000gn/T//ccUF7111.s:792    .text._ZN14GrannyChordApp14InitCompressorEv:0000000000000000 _ZN14GrannyChordApp14InitCompressorEv
/var/folders/2p/02m_5p7958535cp2tpgps0400000gn/T//ccUF7111.s:1099   .text._ZN14GrannyChordApp14InitCompressorEv:00000000000000bc $d
/var/folders/2p/02m_5p7958535cp2tpgps0400000gn/T//ccUF7111.s:1111   .text._ZN14GrannyChordApp12InitPlaybackEv:0000000000000000 $t
/var/folders/2p/02m_5p7958535cp2tpgps0400000gn/T//ccUF7111.s:1117   .text._ZN14GrannyChordApp12InitPlaybackEv:0000000000000000 _ZN14GrannyChordApp12InitPlaybackEv
/var/folders/2p/02m_5p7958535cp2tpgps0400000gn/T//ccUF7111.s:1203   .text._ZN14GrannyChordApp12InitPlaybackEv:0000000000000054 $d
/var/folders/2p/02m_5p7958535cp2tpgps0400000gn/T//ccUF7111.s:1212   .text._ZN14GrannyChordApp12InitRecordInEv:0000000000000000 $t
/var/folders/2p/02m_5p7958535cp2tpgps0400000gn/T//ccUF7111.s:1218   .text._ZN14GrannyChordApp12InitRecordInEv:0000000000000000 _ZN14GrannyChordApp12InitRecordInEv
/var/folders/2p/02m_5p7958535cp2tpgps0400000gn/T//ccUF7111.s:1266   .text._ZN14GrannyChordApp19HandleFileSelectionEv:0000000000000000 $t
/var/folders/2p/02m_5p7958535cp2tpgps0400000gn/T//ccUF7111.s:1272   .text._ZN14GrannyChordApp19HandleFileSelectionEv:0000000000000000 _ZN14GrannyChordApp19HandleFileSelectionEv
/var/folders/2p/02m_5p7958535cp2tpgps0400000gn/T//ccUF7111.s:1501   .text._ZN14GrannyChordApp19HandleFileSelectionEv:00000000000000a8 $d
/var/folders/2p/02m_5p7958535cp2tpgps0400000gn/T//ccUF7111.s:1511   .text._ZN14GrannyChordApp17InitFileSelectionEv:0000000000000000 $t
/var/folders/2p/02m_5p7958535cp2tpgps0400000gn/T//ccUF7111.s:1517   .text._ZN14GrannyChordApp17InitFileSelectionEv:0000000000000000 _ZN14GrannyChordApp17InitFileSelectionEv
/var/folders/2p/02m_5p7958535cp2tpgps0400000gn/T//ccUF7111.s:1581   .text._ZN14GrannyChordApp17HandleStateChangeE8AppStateS0_:0000000000000000 $t
/var/folders/2p/02m_5p7958535cp2tpgps0400000gn/T//ccUF7111.s:1587   .text._ZN14GrannyChordApp17HandleStateChangeE8AppStateS0_:0000000000000000 _ZN14GrannyChordApp17HandleStateChangeE8AppStateS0_
/var/folders/2p/02m_5p7958535cp2tpgps0400000gn/T//ccUF7111.s:1604   .text._ZN14GrannyChordApp17HandleStateChangeE8AppStateS0_:000000000000000a $d
/var/folders/2p/02m_5p7958535cp2tpgps0400000gn/T//ccUF7111.s:1608   .text._ZN14GrannyChordApp17HandleStateChangeE8AppStateS0_:000000000000000e $t
/var/folders/2p/02m_5p7958535cp2tpgps0400000gn/T//ccUF7111.s:1640   .text._ZN14GrannyChordApp20UpdateGranularParamsEv:0000000000000000 $t
/var/folders/2p/02m_5p7958535cp2tpgps0400000gn/T//ccUF7111.s:1646   .text._ZN14GrannyChordApp20UpdateGranularParamsEv:0000000000000000 _ZN14GrannyChordApp20UpdateGranularParamsEv
/var/folders/2p/02m_5p7958535cp2tpgps0400000gn/T//ccUF7111.s:1744   .text._ZN14GrannyChordApp20UpdateGranularParamsEv:0000000000000054 $d
/var/folders/2p/02m_5p7958535cp2tpgps0400000gn/T//ccUF7111.s:1798   .text._ZN14GrannyChordApp20UpdateGranularParamsEv:000000000000008c $d
/var/folders/2p/02m_5p7958535cp2tpgps0400000gn/T//ccUF7111.s:2171   .text._ZN14GrannyChordApp20UpdateGranularParamsEv:0000000000000144 $d
/var/folders/2p/02m_5p7958535cp2tpgps0400000gn/T//ccUF7111.s:2179   .text._ZN14GrannyChordApp17UpdateSynthParamsE8AppState:0000000000000000 $t
/var/folders/2p/02m_5p7958535cp2tpgps0400000gn/T//ccUF7111.s:2185   .text._ZN14GrannyChordApp17UpdateSynthParamsE8AppState:0000000000000000 _ZN14GrannyChordApp17UpdateSynthParamsE8AppState
/var/folders/2p/02m_5p7958535cp2tpgps0400000gn/T//ccUF7111.s:2212   .text._ZN14GrannyChordApp3RunEv:0000000000000000 $t
/var/folders/2p/02m_5p7958535cp2tpgps0400000gn/T//ccUF7111.s:2218   .text._ZN14GrannyChordApp3RunEv:0000000000000000 _ZN14GrannyChordApp3RunEv
/var/folders/2p/02m_5p7958535cp2tpgps0400000gn/T//ccUF7111.s:2387   .text._ZN14GrannyChordApp3RunEv:0000000000000060 $d
/var/folders/2p/02m_5p7958535cp2tpgps0400000gn/T//ccUF7111.s:2396   .text._ZN14GrannyChordApp15CheckParamDeltaEff:0000000000000000 $t
ARM GAS  /var/folders/2p/02m_5p7958535cp2tpgps0400000gn/T//ccUF7111.s 			page 81


/var/folders/2p/02m_5p7958535cp2tpgps0400000gn/T//ccUF7111.s:2402   .text._ZN14GrannyChordApp15CheckParamDeltaEff:0000000000000000 _ZN14GrannyChordApp15CheckParamDeltaEff
/var/folders/2p/02m_5p7958535cp2tpgps0400000gn/T//ccUF7111.s:2431   .text._ZN14GrannyChordApp15CheckParamDeltaEff:000000000000001c $d
/var/folders/2p/02m_5p7958535cp2tpgps0400000gn/T//ccUF7111.s:2436   .text._ZN14GrannyChordApp17InitPrevParamValsEv:0000000000000000 $t
/var/folders/2p/02m_5p7958535cp2tpgps0400000gn/T//ccUF7111.s:2442   .text._ZN14GrannyChordApp17InitPrevParamValsEv:0000000000000000 _ZN14GrannyChordApp17InitPrevParamValsEv
/var/folders/2p/02m_5p7958535cp2tpgps0400000gn/T//ccUF7111.s:2489   .text._ZN14GrannyChordApp4InitEPsS0_:0000000000000000 $t
/var/folders/2p/02m_5p7958535cp2tpgps0400000gn/T//ccUF7111.s:2495   .text._ZN14GrannyChordApp4InitEPsS0_:0000000000000000 _ZN14GrannyChordApp4InitEPsS0_
/var/folders/2p/02m_5p7958535cp2tpgps0400000gn/T//ccUF7111.s:2696   .text._ZN14GrannyChordApp4InitEPsS0_:000000000000008c $d
/var/folders/2p/02m_5p7958535cp2tpgps0400000gn/T//ccUF7111.s:2715   .bss._ZN14GrannyChordApp9instance_E:0000000000000000 _ZN14GrannyChordApp9instance_E
/var/folders/2p/02m_5p7958535cp2tpgps0400000gn/T//ccUF7111.s:2711   .bss._ZN14GrannyChordApp9instance_E:0000000000000000 $d
/var/folders/2p/02m_5p7958535cp2tpgps0400000gn/T//ccUF7111.s:2718   .bss._ZZN14GrannyChordApp15ProcessRecordInEPKPKfPPfjE10record_pos:0000000000000000 $d
/var/folders/2p/02m_5p7958535cp2tpgps0400000gn/T//ccUF7111.s:2722   .bss._ZZN14GrannyChordApp15ProcessRecordInEPKPKfPPfjE10record_pos:0000000000000000 _ZZN14GrannyChordApp15ProcessRecordInEPKPKfPPfjE10record_pos
/var/folders/2p/02m_5p7958535cp2tpgps0400000gn/T//ccUF7111.s:1751   .text._ZN14GrannyChordApp20UpdateGranularParamsEv:000000000000005b $d
/var/folders/2p/02m_5p7958535cp2tpgps0400000gn/T//ccUF7111.s:1751   .text._ZN14GrannyChordApp20UpdateGranularParamsEv:000000000000005c $t
/var/folders/2p/02m_5p7958535cp2tpgps0400000gn/T//ccUF7111.s:1806   .text._ZN14GrannyChordApp20UpdateGranularParamsEv:0000000000000093 $d
/var/folders/2p/02m_5p7958535cp2tpgps0400000gn/T//ccUF7111.s:1806   .text._ZN14GrannyChordApp20UpdateGranularParamsEv:0000000000000094 $t

UNDEFINED SYMBOLS
_ZN13GranularSynth13ProcessGrainsEPfS0_j
_ZN7daisysp10Compressor12ProcessBlockEPfS1_S1_j
_ZN16AudioFileManager10SetBuffersEPsS0_
_ZN16AudioFileManager4InitEv
_ZN9UIManager13SetStateErrorEv
_ZN16AudioFileManager12ScanWavFilesEv
_ZN13GranularSynth4InitEPKsS1_j
_ZN5daisy8DaisyPod15AudioSampleRateEv
_ZN7daisysp10Compressor4InitEf
expf
_ZN5daisy6LoggerILNS_17LoggerDestinationE1EE9PrintLineEPKcz
memset
_ZN5daisy8DaisyPod22ProcessDigitalControlsEv
_ZN9UIManager19GetEncoderIncrementEv
strcpy
_ZN9UIManager14EncoderPressedEv
_ZN16AudioFileManager8LoadFileEt
_ZN9UIManager13GetKnob1ValueEi
_ZN9UIManager13GetKnob2ValueEi
_ZN13GranularSynth16SetUserGrainSizeEf
_ZN13GranularSynth17SetUserPitchRatioEf
_ZN13GranularSynth15SetUserSpawnPosEf
_ZN13GranularSynth19SetUserActiveGrainsEf
_ZN9UIManager8UpdateUIEv
_ZN9UIManager15ToggleRecordOutEv
_ZN5daisy6System5DelayEm
_ZN5daisy8DaisyPod17SetAudioBlockSizeEj
_ZN5daisy8DaisyPod18SetAudioSampleRateENS_9SaiHandle6Config10SampleRateE
time
_ZN9UIManager4InitEv
_ZN9UIManager8SetStateE8AppState
_ZN5daisy8DaisyPod8StartAdcEv
_ZN5daisy8DaisyPod10StartAudioEPFvPKPKfPPfjE
rng_state
