ARM GAS  /var/folders/2p/02m_5p7958535cp2tpgps0400000gn/T//ccYth1xv.s 			page 1


   1              		.cpu cortex-m7
   2              		.arch armv7e-m
   3              		.fpu fpv5-d16
   4              		.eabi_attribute 28, 1
   5              		.eabi_attribute 20, 1
   6              		.eabi_attribute 21, 1
   7              		.eabi_attribute 23, 3
   8              		.eabi_attribute 24, 1
   9              		.eabi_attribute 25, 1
  10              		.eabi_attribute 26, 1
  11              		.eabi_attribute 30, 4
  12              		.eabi_attribute 34, 1
  13              		.eabi_attribute 18, 4
  14              		.file	"GrannyChordApp.cpp"
  15              		.text
  16              	.Ltext0:
  17              		.cfi_sections	.debug_frame
  18              		.section	.text._ZN7daisysp10Compressor16RecalculateRatioEv,"axG",%progbits,_ZN7daisysp10Compressor
  19              		.align	1
  20              		.weak	_ZN7daisysp10Compressor16RecalculateRatioEv
  21              		.syntax unified
  22              		.thumb
  23              		.thumb_func
  25              	_ZN7daisysp10Compressor16RecalculateRatioEv:
  26              	.LVL0:
  27              	.LFB4773:
  28              		.file 1 "../DaisySP/DaisySP-LGPL/Source/Dynamics/compressor.h"
   1:../DaisySP/DaisySP-LGPL/Source/Dynamics/compressor.h **** /*
   2:../DaisySP/DaisySP-LGPL/Source/Dynamics/compressor.h **** Copyright (c) 2023 Electrosmith, Corp, GRAME, Centre National de Creation Musicale.
   3:../DaisySP/DaisySP-LGPL/Source/Dynamics/compressor.h **** 
   4:../DaisySP/DaisySP-LGPL/Source/Dynamics/compressor.h **** Use of this source code is governed by the LGPL V2.1
   5:../DaisySP/DaisySP-LGPL/Source/Dynamics/compressor.h **** license that can be found in the LICENSE file or at
   6:../DaisySP/DaisySP-LGPL/Source/Dynamics/compressor.h **** https://opensource.org/license/lgpl-2-1/
   7:../DaisySP/DaisySP-LGPL/Source/Dynamics/compressor.h **** */
   8:../DaisySP/DaisySP-LGPL/Source/Dynamics/compressor.h **** 
   9:../DaisySP/DaisySP-LGPL/Source/Dynamics/compressor.h **** #pragma once
  10:../DaisySP/DaisySP-LGPL/Source/Dynamics/compressor.h **** #ifndef DSY_COMPRESSOR_H
  11:../DaisySP/DaisySP-LGPL/Source/Dynamics/compressor.h **** #define DSY_COMPRESSOR_H
  12:../DaisySP/DaisySP-LGPL/Source/Dynamics/compressor.h **** 
  13:../DaisySP/DaisySP-LGPL/Source/Dynamics/compressor.h **** #include "Utility/dsp.h"
  14:../DaisySP/DaisySP-LGPL/Source/Dynamics/compressor.h **** 
  15:../DaisySP/DaisySP-LGPL/Source/Dynamics/compressor.h **** namespace daisysp
  16:../DaisySP/DaisySP-LGPL/Source/Dynamics/compressor.h **** {
  17:../DaisySP/DaisySP-LGPL/Source/Dynamics/compressor.h **** /** dynamics compressor
  18:../DaisySP/DaisySP-LGPL/Source/Dynamics/compressor.h **** 
  19:../DaisySP/DaisySP-LGPL/Source/Dynamics/compressor.h **** influenced by compressor in soundpipe (from faust).
  20:../DaisySP/DaisySP-LGPL/Source/Dynamics/compressor.h **** 
  21:../DaisySP/DaisySP-LGPL/Source/Dynamics/compressor.h **** Modifications made to do:
  22:../DaisySP/DaisySP-LGPL/Source/Dynamics/compressor.h **** - Less calculations during each process loop (coefficients recalculated on parameter change).
  23:../DaisySP/DaisySP-LGPL/Source/Dynamics/compressor.h **** - C++-ified
  24:../DaisySP/DaisySP-LGPL/Source/Dynamics/compressor.h **** - added sidechain support
  25:../DaisySP/DaisySP-LGPL/Source/Dynamics/compressor.h **** - pulled gain apart for monitoring and multichannel support
  26:../DaisySP/DaisySP-LGPL/Source/Dynamics/compressor.h **** - improved readability
  27:../DaisySP/DaisySP-LGPL/Source/Dynamics/compressor.h **** - improved makeup-gain calculations
  28:../DaisySP/DaisySP-LGPL/Source/Dynamics/compressor.h **** - changing controls now costs a lot less
  29:../DaisySP/DaisySP-LGPL/Source/Dynamics/compressor.h **** - a lot less expensive
  30:../DaisySP/DaisySP-LGPL/Source/Dynamics/compressor.h **** 
ARM GAS  /var/folders/2p/02m_5p7958535cp2tpgps0400000gn/T//ccYth1xv.s 			page 2


  31:../DaisySP/DaisySP-LGPL/Source/Dynamics/compressor.h **** by: shensley, improved upon by AvAars
  32:../DaisySP/DaisySP-LGPL/Source/Dynamics/compressor.h **** \todo Add soft/hard knee settings
  33:../DaisySP/DaisySP-LGPL/Source/Dynamics/compressor.h **** */
  34:../DaisySP/DaisySP-LGPL/Source/Dynamics/compressor.h **** class Compressor
  35:../DaisySP/DaisySP-LGPL/Source/Dynamics/compressor.h **** {
  36:../DaisySP/DaisySP-LGPL/Source/Dynamics/compressor.h ****   public:
  37:../DaisySP/DaisySP-LGPL/Source/Dynamics/compressor.h ****     Compressor() {}
  38:../DaisySP/DaisySP-LGPL/Source/Dynamics/compressor.h ****     ~Compressor() {}
  39:../DaisySP/DaisySP-LGPL/Source/Dynamics/compressor.h ****     /** Initializes compressor
  40:../DaisySP/DaisySP-LGPL/Source/Dynamics/compressor.h ****         \param sample_rate rate at which samples will be produced by the audio engine.
  41:../DaisySP/DaisySP-LGPL/Source/Dynamics/compressor.h ****     */
  42:../DaisySP/DaisySP-LGPL/Source/Dynamics/compressor.h ****     void Init(float sample_rate);
  43:../DaisySP/DaisySP-LGPL/Source/Dynamics/compressor.h **** 
  44:../DaisySP/DaisySP-LGPL/Source/Dynamics/compressor.h ****     /** Compress the audio input signal, saves the calculated gain
  45:../DaisySP/DaisySP-LGPL/Source/Dynamics/compressor.h ****         \param in audio input signal
  46:../DaisySP/DaisySP-LGPL/Source/Dynamics/compressor.h ****     */
  47:../DaisySP/DaisySP-LGPL/Source/Dynamics/compressor.h ****     float Process(float in);
  48:../DaisySP/DaisySP-LGPL/Source/Dynamics/compressor.h **** 
  49:../DaisySP/DaisySP-LGPL/Source/Dynamics/compressor.h ****     /** Compresses the audio input signal, keyed by a secondary input.
  50:../DaisySP/DaisySP-LGPL/Source/Dynamics/compressor.h ****         \param in audio input signal (to be compressed)
  51:../DaisySP/DaisySP-LGPL/Source/Dynamics/compressor.h ****         \param key audio input that will be used to side-chain the compressor
  52:../DaisySP/DaisySP-LGPL/Source/Dynamics/compressor.h ****     */
  53:../DaisySP/DaisySP-LGPL/Source/Dynamics/compressor.h ****     float Process(float in, float key)
  54:../DaisySP/DaisySP-LGPL/Source/Dynamics/compressor.h ****     {
  55:../DaisySP/DaisySP-LGPL/Source/Dynamics/compressor.h ****         Process(key);
  56:../DaisySP/DaisySP-LGPL/Source/Dynamics/compressor.h ****         return Apply(in);
  57:../DaisySP/DaisySP-LGPL/Source/Dynamics/compressor.h ****     }
  58:../DaisySP/DaisySP-LGPL/Source/Dynamics/compressor.h **** 
  59:../DaisySP/DaisySP-LGPL/Source/Dynamics/compressor.h ****     /** Apply compression to the audio signal, based on the previously calculated gain
  60:../DaisySP/DaisySP-LGPL/Source/Dynamics/compressor.h ****         \param in audio input signal
  61:../DaisySP/DaisySP-LGPL/Source/Dynamics/compressor.h ****     */
  62:../DaisySP/DaisySP-LGPL/Source/Dynamics/compressor.h ****     float Apply(float in) { return gain_ * in; }
  63:../DaisySP/DaisySP-LGPL/Source/Dynamics/compressor.h **** 
  64:../DaisySP/DaisySP-LGPL/Source/Dynamics/compressor.h ****     /** Compresses a block of audio
  65:../DaisySP/DaisySP-LGPL/Source/Dynamics/compressor.h ****         \param in audio input signal
  66:../DaisySP/DaisySP-LGPL/Source/Dynamics/compressor.h ****         \param out audio output signal
  67:../DaisySP/DaisySP-LGPL/Source/Dynamics/compressor.h ****         \param size the size of the block
  68:../DaisySP/DaisySP-LGPL/Source/Dynamics/compressor.h ****     */
  69:../DaisySP/DaisySP-LGPL/Source/Dynamics/compressor.h ****     void ProcessBlock(float *in, float *out, size_t size)
  70:../DaisySP/DaisySP-LGPL/Source/Dynamics/compressor.h ****     {
  71:../DaisySP/DaisySP-LGPL/Source/Dynamics/compressor.h ****         ProcessBlock(in, out, in, size);
  72:../DaisySP/DaisySP-LGPL/Source/Dynamics/compressor.h ****     }
  73:../DaisySP/DaisySP-LGPL/Source/Dynamics/compressor.h **** 
  74:../DaisySP/DaisySP-LGPL/Source/Dynamics/compressor.h ****     /** Compresses a block of audio, keyed by a secondary input
  75:../DaisySP/DaisySP-LGPL/Source/Dynamics/compressor.h ****         \param in audio input signal (to be compressed)
  76:../DaisySP/DaisySP-LGPL/Source/Dynamics/compressor.h ****         \param out audio output signal
  77:../DaisySP/DaisySP-LGPL/Source/Dynamics/compressor.h ****         \param key audio input that will be used to side-chain the compressor
  78:../DaisySP/DaisySP-LGPL/Source/Dynamics/compressor.h ****         \param size the size of the block
  79:../DaisySP/DaisySP-LGPL/Source/Dynamics/compressor.h ****     */
  80:../DaisySP/DaisySP-LGPL/Source/Dynamics/compressor.h ****     void ProcessBlock(float *in, float *out, float *key, size_t size);
  81:../DaisySP/DaisySP-LGPL/Source/Dynamics/compressor.h **** 
  82:../DaisySP/DaisySP-LGPL/Source/Dynamics/compressor.h ****     /** Compresses a block of multiple channels of audio, keyed by a secondary input
  83:../DaisySP/DaisySP-LGPL/Source/Dynamics/compressor.h ****         \param in audio input signals (to be compressed)
  84:../DaisySP/DaisySP-LGPL/Source/Dynamics/compressor.h ****         \param out audio output signals
  85:../DaisySP/DaisySP-LGPL/Source/Dynamics/compressor.h ****         \param key audio input that will be used to side-chain the compressor
  86:../DaisySP/DaisySP-LGPL/Source/Dynamics/compressor.h ****         \param channels the number of audio channels
  87:../DaisySP/DaisySP-LGPL/Source/Dynamics/compressor.h ****         \param size the size of the block
ARM GAS  /var/folders/2p/02m_5p7958535cp2tpgps0400000gn/T//ccYth1xv.s 			page 3


  88:../DaisySP/DaisySP-LGPL/Source/Dynamics/compressor.h ****     */
  89:../DaisySP/DaisySP-LGPL/Source/Dynamics/compressor.h ****     void ProcessBlock(float **in,
  90:../DaisySP/DaisySP-LGPL/Source/Dynamics/compressor.h ****                       float **out,
  91:../DaisySP/DaisySP-LGPL/Source/Dynamics/compressor.h ****                       float * key,
  92:../DaisySP/DaisySP-LGPL/Source/Dynamics/compressor.h ****                       size_t  channels,
  93:../DaisySP/DaisySP-LGPL/Source/Dynamics/compressor.h ****                       size_t  size);
  94:../DaisySP/DaisySP-LGPL/Source/Dynamics/compressor.h **** 
  95:../DaisySP/DaisySP-LGPL/Source/Dynamics/compressor.h ****     /** Gets the amount of gain reduction */
  96:../DaisySP/DaisySP-LGPL/Source/Dynamics/compressor.h ****     float GetRatio() { return ratio_; }
  97:../DaisySP/DaisySP-LGPL/Source/Dynamics/compressor.h **** 
  98:../DaisySP/DaisySP-LGPL/Source/Dynamics/compressor.h ****     /** Sets the amount of gain reduction applied to compressed signals
  99:../DaisySP/DaisySP-LGPL/Source/Dynamics/compressor.h ****      \param ratio Expects 1.0 -> 40. (untested with values < 1.0)
 100:../DaisySP/DaisySP-LGPL/Source/Dynamics/compressor.h ****     */
 101:../DaisySP/DaisySP-LGPL/Source/Dynamics/compressor.h ****     void SetRatio(float ratio)
 102:../DaisySP/DaisySP-LGPL/Source/Dynamics/compressor.h ****     {
 103:../DaisySP/DaisySP-LGPL/Source/Dynamics/compressor.h ****         ratio_ = ratio;
 104:../DaisySP/DaisySP-LGPL/Source/Dynamics/compressor.h ****         RecalculateRatio();
 105:../DaisySP/DaisySP-LGPL/Source/Dynamics/compressor.h ****     }
 106:../DaisySP/DaisySP-LGPL/Source/Dynamics/compressor.h **** 
 107:../DaisySP/DaisySP-LGPL/Source/Dynamics/compressor.h ****     /** Gets the threshold in dB */
 108:../DaisySP/DaisySP-LGPL/Source/Dynamics/compressor.h ****     float GetThreshold() { return thresh_; }
 109:../DaisySP/DaisySP-LGPL/Source/Dynamics/compressor.h **** 
 110:../DaisySP/DaisySP-LGPL/Source/Dynamics/compressor.h ****     /** Sets the threshold in dB at which compression will be applied
 111:../DaisySP/DaisySP-LGPL/Source/Dynamics/compressor.h ****      \param threshold Expects 0.0 -> -80.
 112:../DaisySP/DaisySP-LGPL/Source/Dynamics/compressor.h ****     */
 113:../DaisySP/DaisySP-LGPL/Source/Dynamics/compressor.h ****     void SetThreshold(float threshold)
 114:../DaisySP/DaisySP-LGPL/Source/Dynamics/compressor.h ****     {
 115:../DaisySP/DaisySP-LGPL/Source/Dynamics/compressor.h ****         thresh_ = threshold;
 116:../DaisySP/DaisySP-LGPL/Source/Dynamics/compressor.h ****         RecalculateMakeup();
 117:../DaisySP/DaisySP-LGPL/Source/Dynamics/compressor.h ****     }
 118:../DaisySP/DaisySP-LGPL/Source/Dynamics/compressor.h **** 
 119:../DaisySP/DaisySP-LGPL/Source/Dynamics/compressor.h ****     /** Gets the envelope time for onset of compression */
 120:../DaisySP/DaisySP-LGPL/Source/Dynamics/compressor.h ****     float GetAttack() { return atk_; }
 121:../DaisySP/DaisySP-LGPL/Source/Dynamics/compressor.h **** 
 122:../DaisySP/DaisySP-LGPL/Source/Dynamics/compressor.h ****     /** Sets the envelope time for onset of compression for signals above the threshold.
 123:../DaisySP/DaisySP-LGPL/Source/Dynamics/compressor.h ****         \param attack Expects 0.001 -> 10
 124:../DaisySP/DaisySP-LGPL/Source/Dynamics/compressor.h ****     */
 125:../DaisySP/DaisySP-LGPL/Source/Dynamics/compressor.h ****     void SetAttack(float attack)
 126:../DaisySP/DaisySP-LGPL/Source/Dynamics/compressor.h ****     {
 127:../DaisySP/DaisySP-LGPL/Source/Dynamics/compressor.h ****         atk_ = attack;
 128:../DaisySP/DaisySP-LGPL/Source/Dynamics/compressor.h ****         RecalculateAttack();
 129:../DaisySP/DaisySP-LGPL/Source/Dynamics/compressor.h ****     }
 130:../DaisySP/DaisySP-LGPL/Source/Dynamics/compressor.h **** 
 131:../DaisySP/DaisySP-LGPL/Source/Dynamics/compressor.h ****     /** Gets the envelope time for release of compression */
 132:../DaisySP/DaisySP-LGPL/Source/Dynamics/compressor.h ****     float GetRelease() { return rel_; }
 133:../DaisySP/DaisySP-LGPL/Source/Dynamics/compressor.h **** 
 134:../DaisySP/DaisySP-LGPL/Source/Dynamics/compressor.h ****     /** Sets the envelope time for release of compression as input signal falls below threshold.
 135:../DaisySP/DaisySP-LGPL/Source/Dynamics/compressor.h ****         \param release Expects 0.001 -> 10
 136:../DaisySP/DaisySP-LGPL/Source/Dynamics/compressor.h ****     */
 137:../DaisySP/DaisySP-LGPL/Source/Dynamics/compressor.h ****     void SetRelease(float release)
 138:../DaisySP/DaisySP-LGPL/Source/Dynamics/compressor.h ****     {
 139:../DaisySP/DaisySP-LGPL/Source/Dynamics/compressor.h ****         rel_ = release;
 140:../DaisySP/DaisySP-LGPL/Source/Dynamics/compressor.h ****         RecalculateRelease();
 141:../DaisySP/DaisySP-LGPL/Source/Dynamics/compressor.h ****     }
 142:../DaisySP/DaisySP-LGPL/Source/Dynamics/compressor.h **** 
 143:../DaisySP/DaisySP-LGPL/Source/Dynamics/compressor.h ****     /** Gets the additional gain to make up for the compression */
 144:../DaisySP/DaisySP-LGPL/Source/Dynamics/compressor.h ****     float GetMakeup() { return makeup_gain_; }
ARM GAS  /var/folders/2p/02m_5p7958535cp2tpgps0400000gn/T//ccYth1xv.s 			page 4


 145:../DaisySP/DaisySP-LGPL/Source/Dynamics/compressor.h **** 
 146:../DaisySP/DaisySP-LGPL/Source/Dynamics/compressor.h ****     /** Manually sets the additional gain to make up for the compression
 147:../DaisySP/DaisySP-LGPL/Source/Dynamics/compressor.h ****         \param gain Expects 0.0 -> 80
 148:../DaisySP/DaisySP-LGPL/Source/Dynamics/compressor.h ****     */
 149:../DaisySP/DaisySP-LGPL/Source/Dynamics/compressor.h ****     void SetMakeup(float gain) { makeup_gain_ = gain; }
 150:../DaisySP/DaisySP-LGPL/Source/Dynamics/compressor.h **** 
 151:../DaisySP/DaisySP-LGPL/Source/Dynamics/compressor.h ****     /** Enables or disables the automatic makeup gain. Disabling sets the makeup gain to 0.0
 152:../DaisySP/DaisySP-LGPL/Source/Dynamics/compressor.h ****         \param enable true to enable, false to disable
 153:../DaisySP/DaisySP-LGPL/Source/Dynamics/compressor.h ****     */
 154:../DaisySP/DaisySP-LGPL/Source/Dynamics/compressor.h ****     void AutoMakeup(bool enable)
 155:../DaisySP/DaisySP-LGPL/Source/Dynamics/compressor.h ****     {
 156:../DaisySP/DaisySP-LGPL/Source/Dynamics/compressor.h ****         makeup_auto_ = enable;
 157:../DaisySP/DaisySP-LGPL/Source/Dynamics/compressor.h ****         makeup_gain_ = 0.0f;
 158:../DaisySP/DaisySP-LGPL/Source/Dynamics/compressor.h ****         RecalculateMakeup();
 159:../DaisySP/DaisySP-LGPL/Source/Dynamics/compressor.h ****     }
 160:../DaisySP/DaisySP-LGPL/Source/Dynamics/compressor.h **** 
 161:../DaisySP/DaisySP-LGPL/Source/Dynamics/compressor.h ****     /** Gets the gain reduction in dB
 162:../DaisySP/DaisySP-LGPL/Source/Dynamics/compressor.h ****     */
 163:../DaisySP/DaisySP-LGPL/Source/Dynamics/compressor.h ****     float GetGain() { return fastlog10f(gain_) * 20.0f; }
 164:../DaisySP/DaisySP-LGPL/Source/Dynamics/compressor.h **** 
 165:../DaisySP/DaisySP-LGPL/Source/Dynamics/compressor.h ****   private:
 166:../DaisySP/DaisySP-LGPL/Source/Dynamics/compressor.h ****     float ratio_, thresh_, atk_, rel_;
 167:../DaisySP/DaisySP-LGPL/Source/Dynamics/compressor.h ****     float makeup_gain_;
 168:../DaisySP/DaisySP-LGPL/Source/Dynamics/compressor.h ****     float gain_;
 169:../DaisySP/DaisySP-LGPL/Source/Dynamics/compressor.h **** 
 170:../DaisySP/DaisySP-LGPL/Source/Dynamics/compressor.h ****     // Recorded slope and gain, used in next sample
 171:../DaisySP/DaisySP-LGPL/Source/Dynamics/compressor.h ****     float slope_rec_, gain_rec_;
 172:../DaisySP/DaisySP-LGPL/Source/Dynamics/compressor.h **** 
 173:../DaisySP/DaisySP-LGPL/Source/Dynamics/compressor.h ****     // Internals from faust
 174:../DaisySP/DaisySP-LGPL/Source/Dynamics/compressor.h ****     float atk_slo2_, ratio_mul_, atk_slo_, rel_slo_;
 175:../DaisySP/DaisySP-LGPL/Source/Dynamics/compressor.h **** 
 176:../DaisySP/DaisySP-LGPL/Source/Dynamics/compressor.h ****     int   sample_rate_;
 177:../DaisySP/DaisySP-LGPL/Source/Dynamics/compressor.h ****     float sample_rate_inv2_, sample_rate_inv_;
 178:../DaisySP/DaisySP-LGPL/Source/Dynamics/compressor.h **** 
 179:../DaisySP/DaisySP-LGPL/Source/Dynamics/compressor.h ****     // Auto makeup gain enable
 180:../DaisySP/DaisySP-LGPL/Source/Dynamics/compressor.h ****     bool makeup_auto_;
 181:../DaisySP/DaisySP-LGPL/Source/Dynamics/compressor.h **** 
 182:../DaisySP/DaisySP-LGPL/Source/Dynamics/compressor.h ****     // Methods for recalculating internals
 183:../DaisySP/DaisySP-LGPL/Source/Dynamics/compressor.h ****     void RecalculateRatio()
  29              		.loc 1 183 10 view -0
  30              		.cfi_startproc
  31              		@ args = 0, pretend = 0, frame = 0
  32              		@ frame_needed = 0, uses_anonymous_args = 0
  33              		@ link register save eliminated.
 184:../DaisySP/DaisySP-LGPL/Source/Dynamics/compressor.h ****     {
 185:../DaisySP/DaisySP-LGPL/Source/Dynamics/compressor.h ****         ratio_mul_ = ((1.0f - atk_slo2_) * ((1.0f / ratio_) - 1.0f));
  34              		.loc 1 185 9 view .LVU1
  35              		.loc 1 185 51 is_stmt 0 view .LVU2
  36 0000 B7EE007A 		vmov.f32	s14, #1.0e+0
  37 0004 D0ED006A 		vldr.32	s13, [r0]
  38 0008 C7EE267A 		vdiv.f32	s15, s14, s13
  39              		.loc 1 185 29 view .LVU3
  40 000c D0ED086A 		vldr.32	s13, [r0, #32]
  41              		.loc 1 185 61 view .LVU4
  42 0010 77EEC77A 		vsub.f32	s15, s15, s14
  43              		.loc 1 185 29 view .LVU5
  44 0014 37EE667A 		vsub.f32	s14, s14, s13
ARM GAS  /var/folders/2p/02m_5p7958535cp2tpgps0400000gn/T//ccYth1xv.s 			page 5


  45              		.loc 1 185 42 view .LVU6
  46 0018 67EE877A 		vmul.f32	s15, s15, s14
  47              		.loc 1 185 20 view .LVU7
  48 001c C0ED097A 		vstr.32	s15, [r0, #36]
 186:../DaisySP/DaisySP-LGPL/Source/Dynamics/compressor.h ****     }
  49              		.loc 1 186 5 view .LVU8
  50 0020 7047     		bx	lr
  51              		.cfi_endproc
  52              	.LFE4773:
  54              		.section	.text._ZN7daisysp10Compressor17RecalculateAttackEv,"axG",%progbits,_ZN7daisysp10Compresso
  55              		.align	1
  56              		.weak	_ZN7daisysp10Compressor17RecalculateAttackEv
  57              		.syntax unified
  58              		.thumb
  59              		.thumb_func
  61              	_ZN7daisysp10Compressor17RecalculateAttackEv:
  62              	.LVL1:
  63              	.LFB4774:
 187:../DaisySP/DaisySP-LGPL/Source/Dynamics/compressor.h **** 
 188:../DaisySP/DaisySP-LGPL/Source/Dynamics/compressor.h ****     void RecalculateAttack()
  64              		.loc 1 188 10 is_stmt 1 view -0
  65              		.cfi_startproc
  66              		@ args = 0, pretend = 0, frame = 0
  67              		@ frame_needed = 0, uses_anonymous_args = 0
 189:../DaisySP/DaisySP-LGPL/Source/Dynamics/compressor.h ****     {
 190:../DaisySP/DaisySP-LGPL/Source/Dynamics/compressor.h ****         atk_slo_  = expf(-(sample_rate_inv_ / atk_));
  68              		.loc 1 190 9 view .LVU10
  69              		.loc 1 190 45 is_stmt 0 view .LVU11
  70 0000 90ED0E7A 		vldr.32	s14, [r0, #56]
  71 0004 D0ED027A 		vldr.32	s15, [r0, #8]
  72 0008 87EE270A 		vdiv.f32	s0, s14, s15
 188:../DaisySP/DaisySP-LGPL/Source/Dynamics/compressor.h ****     {
  73              		.loc 1 188 10 view .LVU12
  74 000c 10B5     		push	{r4, lr}
  75              		.cfi_def_cfa_offset 8
  76              		.cfi_offset 4, -8
  77              		.cfi_offset 14, -4
 188:../DaisySP/DaisySP-LGPL/Source/Dynamics/compressor.h ****     {
  78              		.loc 1 188 10 view .LVU13
  79 000e 0446     		mov	r4, r0
  80              		.loc 1 190 25 view .LVU14
  81 0010 B1EE400A 		vneg.f32	s0, s0
  82 0014 FFF7FEFF 		bl	expf
  83              	.LVL2:
 191:../DaisySP/DaisySP-LGPL/Source/Dynamics/compressor.h ****         atk_slo2_ = expf(-(sample_rate_inv2_ / atk_));
  84              		.loc 1 191 46 view .LVU15
  85 0018 94ED0D7A 		vldr.32	s14, [r4, #52]
  86 001c D4ED027A 		vldr.32	s15, [r4, #8]
 190:../DaisySP/DaisySP-LGPL/Source/Dynamics/compressor.h ****         atk_slo2_ = expf(-(sample_rate_inv2_ / atk_));
  87              		.loc 1 190 19 view .LVU16
  88 0020 84ED0A0A 		vstr.32	s0, [r4, #40]
  89              		.loc 1 191 9 is_stmt 1 view .LVU17
  90              		.loc 1 191 46 is_stmt 0 view .LVU18
  91 0024 87EE270A 		vdiv.f32	s0, s14, s15
  92              		.loc 1 191 25 view .LVU19
  93 0028 B1EE400A 		vneg.f32	s0, s0
  94 002c FFF7FEFF 		bl	expf
ARM GAS  /var/folders/2p/02m_5p7958535cp2tpgps0400000gn/T//ccYth1xv.s 			page 6


  95              	.LVL3:
 192:../DaisySP/DaisySP-LGPL/Source/Dynamics/compressor.h **** 
 193:../DaisySP/DaisySP-LGPL/Source/Dynamics/compressor.h ****         RecalculateRatio();
  96              		.loc 1 193 25 view .LVU20
  97 0030 2046     		mov	r0, r4
 191:../DaisySP/DaisySP-LGPL/Source/Dynamics/compressor.h **** 
  98              		.loc 1 191 19 view .LVU21
  99 0032 84ED080A 		vstr.32	s0, [r4, #32]
 100              		.loc 1 193 9 is_stmt 1 view .LVU22
 101              		.loc 1 193 25 is_stmt 0 view .LVU23
 102 0036 FFF7FEFF 		bl	_ZN7daisysp10Compressor16RecalculateRatioEv
 103              	.LVL4:
 194:../DaisySP/DaisySP-LGPL/Source/Dynamics/compressor.h ****     }
 104              		.loc 1 194 5 view .LVU24
 105 003a 10BD     		pop	{r4, pc}
 106              		.loc 1 194 5 view .LVU25
 107              		.cfi_endproc
 108              	.LFE4774:
 110              		.section	.text._ZN7daisysp10Compressor17RecalculateMakeupEv,"axG",%progbits,_ZN7daisysp10Compresso
 111              		.align	1
 112              		.weak	_ZN7daisysp10Compressor17RecalculateMakeupEv
 113              		.syntax unified
 114              		.thumb
 115              		.thumb_func
 117              	_ZN7daisysp10Compressor17RecalculateMakeupEv:
 118              	.LVL5:
 119              	.LFB4776:
 195:../DaisySP/DaisySP-LGPL/Source/Dynamics/compressor.h **** 
 196:../DaisySP/DaisySP-LGPL/Source/Dynamics/compressor.h ****     void RecalculateRelease() { rel_slo_ = expf((-(sample_rate_inv_ / rel_))); }
 197:../DaisySP/DaisySP-LGPL/Source/Dynamics/compressor.h **** 
 198:../DaisySP/DaisySP-LGPL/Source/Dynamics/compressor.h ****     void RecalculateMakeup()
 120              		.loc 1 198 10 is_stmt 1 view -0
 121              		.cfi_startproc
 122              		@ args = 0, pretend = 0, frame = 0
 123              		@ frame_needed = 0, uses_anonymous_args = 0
 124              		@ link register save eliminated.
 199:../DaisySP/DaisySP-LGPL/Source/Dynamics/compressor.h ****     {
 200:../DaisySP/DaisySP-LGPL/Source/Dynamics/compressor.h ****         if(makeup_auto_)
 125              		.loc 1 200 9 view .LVU27
 126 0000 90F83C30 		ldrb	r3, [r0, #60]	@ zero_extendqisi2
 127 0004 7BB1     		cbz	r3, .L3
 128              	.LVL6:
 129              	.LBB148:
 130              	.LBI148:
 198:../DaisySP/DaisySP-LGPL/Source/Dynamics/compressor.h ****     {
 131              		.loc 1 198 10 view .LVU28
 132              	.LBB149:
 201:../DaisySP/DaisySP-LGPL/Source/Dynamics/compressor.h ****             makeup_gain_ = fabsf(thresh_ - thresh_ / ratio_) * 0.5f;
 133              		.loc 1 201 13 view .LVU29
 134              		.loc 1 201 34 is_stmt 0 view .LVU30
 135 0006 D0ED017A 		vldr.32	s15, [r0, #4]
 136              		.loc 1 201 52 view .LVU31
 137 000a D0ED006A 		vldr.32	s13, [r0]
 138 000e 87EEA67A 		vdiv.f32	s14, s15, s13
 139              		.loc 1 201 42 view .LVU32
 140 0012 77EEC77A 		vsub.f32	s15, s15, s14
 141              		.loc 1 201 62 view .LVU33
ARM GAS  /var/folders/2p/02m_5p7958535cp2tpgps0400000gn/T//ccYth1xv.s 			page 7


 142 0016 B6EE007A 		vmov.f32	s14, #5.0e-1
 143              		.loc 1 201 33 view .LVU34
 144 001a F0EEE77A 		vabs.f32	s15, s15
 145              		.loc 1 201 62 view .LVU35
 146 001e 67EE877A 		vmul.f32	s15, s15, s14
 147              		.loc 1 201 26 view .LVU36
 148 0022 C0ED047A 		vstr.32	s15, [r0, #16]
 149              	.LVL7:
 150              	.L3:
 151              		.loc 1 201 26 view .LVU37
 152              	.LBE149:
 153              	.LBE148:
 202:../DaisySP/DaisySP-LGPL/Source/Dynamics/compressor.h ****     }
 154              		.loc 1 202 5 view .LVU38
 155 0026 7047     		bx	lr
 156              		.cfi_endproc
 157              	.LFE4776:
 159              		.section	.text._ZN7daisysp10Compressor4InitEf,"ax",%progbits
 160              		.align	1
 161              		.global	_ZN7daisysp10Compressor4InitEf
 162              		.syntax unified
 163              		.thumb
 164              		.thumb_func
 166              	_ZN7daisysp10Compressor4InitEf:
 167              	.LVL8:
 168              	.LFB4777:
 169              		.file 2 "../DaisySP/DaisySP-LGPL/Source/Dynamics/compressor.cpp"
   1:../DaisySP/DaisySP-LGPL/Source/Dynamics/compressor.cpp **** // # compressor
   2:../DaisySP/DaisySP-LGPL/Source/Dynamics/compressor.cpp **** //
   3:../DaisySP/DaisySP-LGPL/Source/Dynamics/compressor.cpp **** // Author: shensley, AvAars
   4:../DaisySP/DaisySP-LGPL/Source/Dynamics/compressor.cpp **** //
   5:../DaisySP/DaisySP-LGPL/Source/Dynamics/compressor.cpp **** 
   6:../DaisySP/DaisySP-LGPL/Source/Dynamics/compressor.cpp **** #include <cmath>
   7:../DaisySP/DaisySP-LGPL/Source/Dynamics/compressor.cpp **** #include <stdlib.h>
   8:../DaisySP/DaisySP-LGPL/Source/Dynamics/compressor.cpp **** #include <stdint.h>
   9:../DaisySP/DaisySP-LGPL/Source/Dynamics/compressor.cpp **** #include "compressor.h"
  10:../DaisySP/DaisySP-LGPL/Source/Dynamics/compressor.cpp **** 
  11:../DaisySP/DaisySP-LGPL/Source/Dynamics/compressor.cpp **** using namespace daisysp;
  12:../DaisySP/DaisySP-LGPL/Source/Dynamics/compressor.cpp **** 
  13:../DaisySP/DaisySP-LGPL/Source/Dynamics/compressor.cpp **** #ifndef max
  14:../DaisySP/DaisySP-LGPL/Source/Dynamics/compressor.cpp **** #define max(a, b) ((a < b) ? b : a)
  15:../DaisySP/DaisySP-LGPL/Source/Dynamics/compressor.cpp **** #endif
  16:../DaisySP/DaisySP-LGPL/Source/Dynamics/compressor.cpp **** 
  17:../DaisySP/DaisySP-LGPL/Source/Dynamics/compressor.cpp **** #ifndef min
  18:../DaisySP/DaisySP-LGPL/Source/Dynamics/compressor.cpp **** #define min(a, b) ((a < b) ? a : b)
  19:../DaisySP/DaisySP-LGPL/Source/Dynamics/compressor.cpp **** #endif
  20:../DaisySP/DaisySP-LGPL/Source/Dynamics/compressor.cpp **** 
  21:../DaisySP/DaisySP-LGPL/Source/Dynamics/compressor.cpp **** void Compressor::Init(float sample_rate)
  22:../DaisySP/DaisySP-LGPL/Source/Dynamics/compressor.cpp **** {
 170              		.loc 2 22 1 is_stmt 1 view -0
 171              		.cfi_startproc
 172              		@ args = 0, pretend = 0, frame = 0
 173              		@ frame_needed = 0, uses_anonymous_args = 0
  23:../DaisySP/DaisySP-LGPL/Source/Dynamics/compressor.cpp ****     sample_rate_      = min(192000, max(1, sample_rate));
 174              		.loc 2 23 5 view .LVU40
 175              		.loc 2 23 25 is_stmt 0 view .LVU41
 176 0000 F7EE007A 		vmov.f32	s15, #1.0e+0
ARM GAS  /var/folders/2p/02m_5p7958535cp2tpgps0400000gn/T//ccYth1xv.s 			page 8


  22:../DaisySP/DaisySP-LGPL/Source/Dynamics/compressor.cpp ****     sample_rate_      = min(192000, max(1, sample_rate));
 177              		.loc 2 22 1 view .LVU42
 178 0004 10B5     		push	{r4, lr}
 179              		.cfi_def_cfa_offset 8
 180              		.cfi_offset 4, -8
 181              		.cfi_offset 14, -4
 182              		.loc 2 23 25 view .LVU43
 183 0006 B4EEE70A 		vcmpe.f32	s0, s15
  22:../DaisySP/DaisySP-LGPL/Source/Dynamics/compressor.cpp ****     sample_rate_      = min(192000, max(1, sample_rate));
 184              		.loc 2 22 1 view .LVU44
 185 000a 0446     		mov	r4, r0
 186 000c 2DED028B 		vpush.64	{d8}
 187              		.cfi_def_cfa_offset 16
 188              		.cfi_offset 80, -16
 189              		.cfi_offset 81, -12
 190              		.loc 2 23 25 view .LVU45
 191 0010 F1EE10FA 		vmrs	APSR_nzcv, FPSCR
 192 0014 50DD     		ble	.L14
 193              		.loc 2 23 23 discriminator 4 view .LVU46
 194 0016 9FED2A7A 		vldr.32	s14, .L15
 195 001a B4EEC70A 		vcmpe.f32	s0, s14
 196 001e F1EE10FA 		vmrs	APSR_nzcv, FPSCR
 197 0022 4BDC     		bgt	.L12
 198              		.loc 2 23 23 discriminator 8 view .LVU47
 199 0024 BDEEC07A 		vcvt.s32.f32	s14, s0
 200 0028 17EE103A 		vmov	r3, s14	@ int
 201              	.L9:
  24:../DaisySP/DaisySP-LGPL/Source/Dynamics/compressor.cpp ****     sample_rate_inv_  = 1.0f / (float)sample_rate_;
 202              		.loc 2 24 32 discriminator 12 view .LVU48
 203 002c 07EE103A 		vmov	s14, r3	@ int
 204              	.LBB166:
 205              	.LBB167:
 127:../DaisySP/DaisySP-LGPL/Source/Dynamics/compressor.h ****         RecalculateAttack();
 206              		.loc 1 127 14 discriminator 12 view .LVU49
 207 0030 9FED248A 		vldr.32	s16, .L15+4
 208              	.LBE167:
 209              	.LBE166:
  23:../DaisySP/DaisySP-LGPL/Source/Dynamics/compressor.cpp ****     sample_rate_inv_  = 1.0f / (float)sample_rate_;
 210              		.loc 2 23 23 discriminator 12 view .LVU50
 211 0034 2363     		str	r3, [r4, #48]
 212              		.loc 2 24 5 is_stmt 1 discriminator 12 view .LVU51
 213              	.LBB169:
 214              	.LBB170:
 104:../DaisySP/DaisySP-LGPL/Source/Dynamics/compressor.h ****     }
 215              		.loc 1 104 25 is_stmt 0 discriminator 12 view .LVU52
 216 0036 2046     		mov	r0, r4
 217              	.LVL9:
 104:../DaisySP/DaisySP-LGPL/Source/Dynamics/compressor.h ****     }
 218              		.loc 1 104 25 discriminator 12 view .LVU53
 219              	.LBE170:
 220              	.LBE169:
 221              		.loc 2 24 32 discriminator 12 view .LVU54
 222 0038 B8EEC70A 		vcvt.f32.s32	s0, s14
 223              	.LVL10:
 224              		.loc 2 24 30 discriminator 12 view .LVU55
 225 003c 87EE807A 		vdiv.f32	s14, s15, s0
  25:../DaisySP/DaisySP-LGPL/Source/Dynamics/compressor.cpp ****     sample_rate_inv2_ = 2.0f / (float)sample_rate_;
ARM GAS  /var/folders/2p/02m_5p7958535cp2tpgps0400000gn/T//ccYth1xv.s 			page 9


 226              		.loc 2 25 30 discriminator 12 view .LVU56
 227 0040 F0EE007A 		vmov.f32	s15, #2.0e+0
 228              	.LBB173:
 229              	.LBB171:
 103:../DaisySP/DaisySP-LGPL/Source/Dynamics/compressor.h ****         RecalculateRatio();
 230              		.loc 1 103 16 discriminator 12 view .LVU57
 231 0044 C4ED007A 		vstr.32	s15, [r4]
 232              	.LBE171:
 233              	.LBE173:
  24:../DaisySP/DaisySP-LGPL/Source/Dynamics/compressor.cpp ****     sample_rate_inv2_ = 2.0f / (float)sample_rate_;
 234              		.loc 2 24 23 discriminator 12 view .LVU58
 235 0048 84ED0E7A 		vstr.32	s14, [r4, #56]
 236              		.loc 2 25 5 is_stmt 1 discriminator 12 view .LVU59
 237              		.loc 2 25 30 is_stmt 0 discriminator 12 view .LVU60
 238 004c 87EE807A 		vdiv.f32	s14, s15, s0
 239              		.loc 2 25 23 discriminator 12 view .LVU61
 240 0050 84ED0D7A 		vstr.32	s14, [r4, #52]
  26:../DaisySP/DaisySP-LGPL/Source/Dynamics/compressor.cpp **** 
  27:../DaisySP/DaisySP-LGPL/Source/Dynamics/compressor.cpp ****     // Initializing the params in this order to avoid dividing by zero
  28:../DaisySP/DaisySP-LGPL/Source/Dynamics/compressor.cpp **** 
  29:../DaisySP/DaisySP-LGPL/Source/Dynamics/compressor.cpp ****     SetRatio(2.0f);
 241              		.loc 2 29 5 is_stmt 1 discriminator 12 view .LVU62
 242              	.LVL11:
 243              	.LBB174:
 244              	.LBI169:
 101:../DaisySP/DaisySP-LGPL/Source/Dynamics/compressor.h ****     {
 245              		.loc 1 101 10 discriminator 12 view .LVU63
 246              	.LBB172:
 103:../DaisySP/DaisySP-LGPL/Source/Dynamics/compressor.h ****         RecalculateRatio();
 247              		.loc 1 103 9 discriminator 12 view .LVU64
 104:../DaisySP/DaisySP-LGPL/Source/Dynamics/compressor.h ****     }
 248              		.loc 1 104 9 discriminator 12 view .LVU65
 104:../DaisySP/DaisySP-LGPL/Source/Dynamics/compressor.h ****     }
 249              		.loc 1 104 25 is_stmt 0 discriminator 12 view .LVU66
 250 0054 FFF7FEFF 		bl	_ZN7daisysp10Compressor16RecalculateRatioEv
 251              	.LVL12:
 104:../DaisySP/DaisySP-LGPL/Source/Dynamics/compressor.h ****     }
 252              		.loc 1 104 25 discriminator 12 view .LVU67
 253              	.LBE172:
 254              	.LBE174:
  30:../DaisySP/DaisySP-LGPL/Source/Dynamics/compressor.cpp ****     SetAttack(0.1f);
 255              		.loc 2 30 5 is_stmt 1 discriminator 12 view .LVU68
 256              	.LBB175:
 257              	.LBI166:
 125:../DaisySP/DaisySP-LGPL/Source/Dynamics/compressor.h ****     {
 258              		.loc 1 125 10 discriminator 12 view .LVU69
 259              	.LBB168:
 127:../DaisySP/DaisySP-LGPL/Source/Dynamics/compressor.h ****         RecalculateAttack();
 260              		.loc 1 127 9 discriminator 12 view .LVU70
 128:../DaisySP/DaisySP-LGPL/Source/Dynamics/compressor.h ****     }
 261              		.loc 1 128 26 is_stmt 0 discriminator 12 view .LVU71
 262 0058 2046     		mov	r0, r4
 127:../DaisySP/DaisySP-LGPL/Source/Dynamics/compressor.h ****         RecalculateAttack();
 263              		.loc 1 127 14 discriminator 12 view .LVU72
 264 005a 84ED028A 		vstr.32	s16, [r4, #8]
 128:../DaisySP/DaisySP-LGPL/Source/Dynamics/compressor.h ****     }
 265              		.loc 1 128 9 is_stmt 1 discriminator 12 view .LVU73
ARM GAS  /var/folders/2p/02m_5p7958535cp2tpgps0400000gn/T//ccYth1xv.s 			page 10


 128:../DaisySP/DaisySP-LGPL/Source/Dynamics/compressor.h ****     }
 266              		.loc 1 128 26 is_stmt 0 discriminator 12 view .LVU74
 267 005e FFF7FEFF 		bl	_ZN7daisysp10Compressor17RecalculateAttackEv
 268              	.LVL13:
 128:../DaisySP/DaisySP-LGPL/Source/Dynamics/compressor.h ****     }
 269              		.loc 1 128 26 discriminator 12 view .LVU75
 270              	.LBE168:
 271              	.LBE175:
  31:../DaisySP/DaisySP-LGPL/Source/Dynamics/compressor.cpp ****     SetRelease(0.1f);
 272              		.loc 2 31 5 is_stmt 1 discriminator 12 view .LVU76
 273              	.LBB176:
 274              	.LBI176:
 137:../DaisySP/DaisySP-LGPL/Source/Dynamics/compressor.h ****     {
 275              		.loc 1 137 10 discriminator 12 view .LVU77
 276              	.LBB177:
 139:../DaisySP/DaisySP-LGPL/Source/Dynamics/compressor.h ****         RecalculateRelease();
 277              		.loc 1 139 9 discriminator 12 view .LVU78
 278              	.LBB178:
 279              	.LBB179:
 196:../DaisySP/DaisySP-LGPL/Source/Dynamics/compressor.h **** 
 280              		.loc 1 196 69 is_stmt 0 discriminator 12 view .LVU79
 281 0062 D4ED0E7A 		vldr.32	s15, [r4, #56]
 282              	.LBE179:
 283              	.LBE178:
 139:../DaisySP/DaisySP-LGPL/Source/Dynamics/compressor.h ****         RecalculateRelease();
 284              		.loc 1 139 14 discriminator 12 view .LVU80
 285 0066 84ED038A 		vstr.32	s16, [r4, #12]
 140:../DaisySP/DaisySP-LGPL/Source/Dynamics/compressor.h ****     }
 286              		.loc 1 140 9 is_stmt 1 discriminator 12 view .LVU81
 287              	.LVL14:
 288              	.LBB182:
 289              	.LBI178:
 196:../DaisySP/DaisySP-LGPL/Source/Dynamics/compressor.h **** 
 290              		.loc 1 196 10 discriminator 12 view .LVU82
 291              	.LBB180:
 196:../DaisySP/DaisySP-LGPL/Source/Dynamics/compressor.h **** 
 292              		.loc 1 196 33 discriminator 12 view .LVU83
 196:../DaisySP/DaisySP-LGPL/Source/Dynamics/compressor.h **** 
 293              		.loc 1 196 69 is_stmt 0 discriminator 12 view .LVU84
 294 006a 87EE880A 		vdiv.f32	s0, s15, s16
 196:../DaisySP/DaisySP-LGPL/Source/Dynamics/compressor.h **** 
 295              		.loc 1 196 48 discriminator 12 view .LVU85
 296 006e B1EE400A 		vneg.f32	s0, s0
 297 0072 FFF7FEFF 		bl	expf
 298              	.LVL15:
 299              	.LBE180:
 300              	.LBE182:
 301              	.LBE177:
 302              	.LBE176:
 303              	.LBB185:
 304              	.LBB186:
 115:../DaisySP/DaisySP-LGPL/Source/Dynamics/compressor.h ****         RecalculateMakeup();
 305              		.loc 1 115 17 discriminator 12 view .LVU86
 306 0076 144B     		ldr	r3, .L15+8
 116:../DaisySP/DaisySP-LGPL/Source/Dynamics/compressor.h ****     }
 307              		.loc 1 116 26 discriminator 12 view .LVU87
 308 0078 2046     		mov	r0, r4
ARM GAS  /var/folders/2p/02m_5p7958535cp2tpgps0400000gn/T//ccYth1xv.s 			page 11


 309              	.LBE186:
 310              	.LBE185:
 311              	.LBB188:
 312              	.LBB184:
 313              	.LBB183:
 314              	.LBB181:
 196:../DaisySP/DaisySP-LGPL/Source/Dynamics/compressor.h **** 
 315              		.loc 1 196 42 discriminator 12 view .LVU88
 316 007a 84ED0B0A 		vstr.32	s0, [r4, #44]
 317              	.LVL16:
 196:../DaisySP/DaisySP-LGPL/Source/Dynamics/compressor.h **** 
 318              		.loc 1 196 42 discriminator 12 view .LVU89
 319              	.LBE181:
 320              	.LBE183:
 321              	.LBE184:
 322              	.LBE188:
  32:../DaisySP/DaisySP-LGPL/Source/Dynamics/compressor.cpp ****     SetThreshold(-12.0f);
 323              		.loc 2 32 5 is_stmt 1 discriminator 12 view .LVU90
 324              	.LBB189:
 325              	.LBI185:
 113:../DaisySP/DaisySP-LGPL/Source/Dynamics/compressor.h ****     {
 326              		.loc 1 113 10 discriminator 12 view .LVU91
 327              	.LBB187:
 115:../DaisySP/DaisySP-LGPL/Source/Dynamics/compressor.h ****         RecalculateMakeup();
 328              		.loc 1 115 9 discriminator 12 view .LVU92
 115:../DaisySP/DaisySP-LGPL/Source/Dynamics/compressor.h ****         RecalculateMakeup();
 329              		.loc 1 115 17 is_stmt 0 discriminator 12 view .LVU93
 330 007e 6360     		str	r3, [r4, #4]	@ float
 116:../DaisySP/DaisySP-LGPL/Source/Dynamics/compressor.h ****     }
 331              		.loc 1 116 9 is_stmt 1 discriminator 12 view .LVU94
 116:../DaisySP/DaisySP-LGPL/Source/Dynamics/compressor.h ****     }
 332              		.loc 1 116 26 is_stmt 0 discriminator 12 view .LVU95
 333 0080 FFF7FEFF 		bl	_ZN7daisysp10Compressor17RecalculateMakeupEv
 334              	.LVL17:
 116:../DaisySP/DaisySP-LGPL/Source/Dynamics/compressor.h ****     }
 335              		.loc 1 116 26 discriminator 12 view .LVU96
 336              	.LBE187:
 337              	.LBE189:
  33:../DaisySP/DaisySP-LGPL/Source/Dynamics/compressor.cpp ****     AutoMakeup(true);
 338              		.loc 2 33 5 is_stmt 1 discriminator 12 view .LVU97
 339              	.LBB190:
 340              	.LBI190:
 154:../DaisySP/DaisySP-LGPL/Source/Dynamics/compressor.h ****     {
 341              		.loc 1 154 10 discriminator 12 view .LVU98
 342              	.LBB191:
 156:../DaisySP/DaisySP-LGPL/Source/Dynamics/compressor.h ****         makeup_gain_ = 0.0f;
 343              		.loc 1 156 9 discriminator 12 view .LVU99
 344              	.LBB192:
 345              	.LBB193:
 346              	.LBB194:
 201:../DaisySP/DaisySP-LGPL/Source/Dynamics/compressor.h ****     }
 347              		.loc 1 201 34 is_stmt 0 discriminator 12 view .LVU100
 348 0084 D4ED017A 		vldr.32	s15, [r4, #4]
 201:../DaisySP/DaisySP-LGPL/Source/Dynamics/compressor.h ****     }
 349              		.loc 1 201 52 discriminator 12 view .LVU101
 350 0088 D4ED006A 		vldr.32	s13, [r4]
 351              	.LBE194:
ARM GAS  /var/folders/2p/02m_5p7958535cp2tpgps0400000gn/T//ccYth1xv.s 			page 12


 352              	.LBE193:
 353              	.LBE192:
 156:../DaisySP/DaisySP-LGPL/Source/Dynamics/compressor.h ****         makeup_gain_ = 0.0f;
 354              		.loc 1 156 22 discriminator 12 view .LVU102
 355 008c 0123     		movs	r3, #1
 356              	.LBE191:
 357              	.LBE190:
  34:../DaisySP/DaisySP-LGPL/Source/Dynamics/compressor.cpp **** 
  35:../DaisySP/DaisySP-LGPL/Source/Dynamics/compressor.cpp ****     gain_rec_  = 0.1f;
 358              		.loc 2 35 16 discriminator 12 view .LVU103
 359 008e 84ED078A 		vstr.32	s16, [r4, #28]
 360              	.LBB209:
 361              	.LBB205:
 362              	.LBB201:
 363              	.LBB198:
 364              	.LBB195:
 201:../DaisySP/DaisySP-LGPL/Source/Dynamics/compressor.h ****     }
 365              		.loc 1 201 52 discriminator 12 view .LVU104
 366 0092 87EEA67A 		vdiv.f32	s14, s15, s13
 367              	.LBE195:
 368              	.LBE198:
 369              	.LBE201:
 370              	.LBE205:
 371              	.LBE209:
  36:../DaisySP/DaisySP-LGPL/Source/Dynamics/compressor.cpp ****     slope_rec_ = 0.1f;
 372              		.loc 2 36 16 discriminator 12 view .LVU105
 373 0096 84ED068A 		vstr.32	s16, [r4, #24]
 374              	.LBB210:
 375              	.LBB206:
 156:../DaisySP/DaisySP-LGPL/Source/Dynamics/compressor.h ****         makeup_gain_ = 0.0f;
 376              		.loc 1 156 22 discriminator 12 view .LVU106
 377 009a 84F83C30 		strb	r3, [r4, #60]
 157:../DaisySP/DaisySP-LGPL/Source/Dynamics/compressor.h ****         RecalculateMakeup();
 378              		.loc 1 157 9 is_stmt 1 discriminator 12 view .LVU107
 158:../DaisySP/DaisySP-LGPL/Source/Dynamics/compressor.h ****     }
 379              		.loc 1 158 9 discriminator 12 view .LVU108
 380              	.LVL18:
 381              	.LBB202:
 382              	.LBI192:
 198:../DaisySP/DaisySP-LGPL/Source/Dynamics/compressor.h ****     {
 383              		.loc 1 198 10 discriminator 12 view .LVU109
 384              	.LBE202:
 385              	.LBE206:
 386              	.LBE210:
 200:../DaisySP/DaisySP-LGPL/Source/Dynamics/compressor.h ****             makeup_gain_ = fabsf(thresh_ - thresh_ / ratio_) * 0.5f;
 387              		.loc 1 200 9 discriminator 12 view .LVU110
 388              	.LBB211:
 389              	.LBB207:
 390              	.LBB203:
 391              	.LBB199:
 392              	.LBI193:
 198:../DaisySP/DaisySP-LGPL/Source/Dynamics/compressor.h ****     {
 393              		.loc 1 198 10 discriminator 12 view .LVU111
 394              	.LBB196:
 201:../DaisySP/DaisySP-LGPL/Source/Dynamics/compressor.h ****     }
 395              		.loc 1 201 13 discriminator 12 view .LVU112
 396              	.LBE196:
ARM GAS  /var/folders/2p/02m_5p7958535cp2tpgps0400000gn/T//ccYth1xv.s 			page 13


 397              	.LBE199:
 398              	.LBE203:
 399              	.LBE207:
 400              	.LBE211:
  37:../DaisySP/DaisySP-LGPL/Source/Dynamics/compressor.cpp **** }
 401              		.loc 2 37 1 is_stmt 0 discriminator 12 view .LVU113
 402 009e BDEC028B 		vldm	sp!, {d8}
 403              		.cfi_remember_state
 404              		.cfi_restore 80
 405              		.cfi_restore 81
 406              		.cfi_def_cfa_offset 8
 407              	.LBB212:
 408              	.LBB208:
 409              	.LBB204:
 410              	.LBB200:
 411              	.LBB197:
 201:../DaisySP/DaisySP-LGPL/Source/Dynamics/compressor.h ****     }
 412              		.loc 1 201 42 discriminator 12 view .LVU114
 413 00a2 77EEC77A 		vsub.f32	s15, s15, s14
 201:../DaisySP/DaisySP-LGPL/Source/Dynamics/compressor.h ****     }
 414              		.loc 1 201 62 discriminator 12 view .LVU115
 415 00a6 B6EE007A 		vmov.f32	s14, #5.0e-1
 201:../DaisySP/DaisySP-LGPL/Source/Dynamics/compressor.h ****     }
 416              		.loc 1 201 33 discriminator 12 view .LVU116
 417 00aa F0EEE77A 		vabs.f32	s15, s15
 201:../DaisySP/DaisySP-LGPL/Source/Dynamics/compressor.h ****     }
 418              		.loc 1 201 62 discriminator 12 view .LVU117
 419 00ae 67EE877A 		vmul.f32	s15, s15, s14
 201:../DaisySP/DaisySP-LGPL/Source/Dynamics/compressor.h ****     }
 420              		.loc 1 201 26 discriminator 12 view .LVU118
 421 00b2 C4ED047A 		vstr.32	s15, [r4, #16]
 422              	.LVL19:
 201:../DaisySP/DaisySP-LGPL/Source/Dynamics/compressor.h ****     }
 423              		.loc 1 201 26 discriminator 12 view .LVU119
 424              	.LBE197:
 425              	.LBE200:
 426              	.LBE204:
 427              	.LBE208:
 428              	.LBE212:
  35:../DaisySP/DaisySP-LGPL/Source/Dynamics/compressor.cpp ****     slope_rec_ = 0.1f;
 429              		.loc 2 35 5 is_stmt 1 discriminator 12 view .LVU120
  36:../DaisySP/DaisySP-LGPL/Source/Dynamics/compressor.cpp **** }
 430              		.loc 2 36 5 discriminator 12 view .LVU121
 431              		.loc 2 37 1 is_stmt 0 discriminator 12 view .LVU122
 432 00b6 10BD     		pop	{r4, pc}
 433              	.LVL20:
 434              	.L14:
 435              		.cfi_restore_state
  23:../DaisySP/DaisySP-LGPL/Source/Dynamics/compressor.cpp ****     sample_rate_inv_  = 1.0f / (float)sample_rate_;
 436              		.loc 2 23 23 view .LVU123
 437 00b8 0123     		movs	r3, #1
 438 00ba B7E7     		b	.L9
 439              	.L12:
 440 00bc 034B     		ldr	r3, .L15+12
 441 00be B5E7     		b	.L9
 442              	.L16:
 443              		.align	2
ARM GAS  /var/folders/2p/02m_5p7958535cp2tpgps0400000gn/T//ccYth1xv.s 			page 14


 444              	.L15:
 445 00c0 00803B48 		.word	1211858944
 446 00c4 CDCCCC3D 		.word	1036831949
 447 00c8 000040C1 		.word	-1052770304
 448 00cc 00EE0200 		.word	192000
 449              		.cfi_endproc
 450              	.LFE4777:
 452              		.section	.text._ZN7daisysp10Compressor7ProcessEf,"ax",%progbits
 453              		.align	1
 454              		.global	_ZN7daisysp10Compressor7ProcessEf
 455              		.syntax unified
 456              		.thumb
 457              		.thumb_func
 459              	_ZN7daisysp10Compressor7ProcessEf:
 460              	.LVL21:
 461              	.LFB4778:
  38:../DaisySP/DaisySP-LGPL/Source/Dynamics/compressor.cpp **** 
  39:../DaisySP/DaisySP-LGPL/Source/Dynamics/compressor.cpp **** float Compressor::Process(float in)
  40:../DaisySP/DaisySP-LGPL/Source/Dynamics/compressor.cpp **** {
 462              		.loc 2 40 1 is_stmt 1 view -0
 463              		.cfi_startproc
 464              		@ args = 0, pretend = 0, frame = 8
 465              		@ frame_needed = 0, uses_anonymous_args = 0
  41:../DaisySP/DaisySP-LGPL/Source/Dynamics/compressor.cpp ****     float inAbs   = fabsf(in);
 466              		.loc 2 41 5 view .LVU125
  40:../DaisySP/DaisySP-LGPL/Source/Dynamics/compressor.cpp ****     float inAbs   = fabsf(in);
 467              		.loc 2 40 1 is_stmt 0 view .LVU126
 468 0000 10B5     		push	{r4, lr}
 469              		.cfi_def_cfa_offset 8
 470              		.cfi_offset 4, -8
 471              		.cfi_offset 14, -4
 472 0002 2DED048B 		vpush.64	{d8, d9}
 473              		.cfi_def_cfa_offset 24
 474              		.cfi_offset 80, -24
 475              		.cfi_offset 81, -20
 476              		.cfi_offset 82, -16
 477              		.cfi_offset 83, -12
 478 0006 F0EE408A 		vmov.f32	s17, s0
  42:../DaisySP/DaisySP-LGPL/Source/Dynamics/compressor.cpp ****     float cur_slo = ((slope_rec_ > inAbs) ? rel_slo_ : atk_slo_);
 479              		.loc 2 42 23 view .LVU127
 480 000a D0ED066A 		vldr.32	s13, [r0, #24]
  41:../DaisySP/DaisySP-LGPL/Source/Dynamics/compressor.cpp ****     float inAbs   = fabsf(in);
 481              		.loc 2 41 11 view .LVU128
 482 000e B0EEC00A 		vabs.f32	s0, s0
 483              	.LVL22:
 484              		.loc 2 42 5 is_stmt 1 view .LVU129
  40:../DaisySP/DaisySP-LGPL/Source/Dynamics/compressor.cpp ****     float inAbs   = fabsf(in);
 485              		.loc 2 40 1 is_stmt 0 view .LVU130
 486 0012 82B0     		sub	sp, sp, #8
 487              		.cfi_def_cfa_offset 32
  43:../DaisySP/DaisySP-LGPL/Source/Dynamics/compressor.cpp ****     slope_rec_    = ((slope_rec_ * cur_slo) + ((1.0f - cur_slo) * inAbs));
 488              		.loc 2 43 54 view .LVU131
 489 0014 F7EE007A 		vmov.f32	s15, #1.0e+0
  40:../DaisySP/DaisySP-LGPL/Source/Dynamics/compressor.cpp ****     float inAbs   = fabsf(in);
 490              		.loc 2 40 1 view .LVU132
 491 0018 0446     		mov	r4, r0
  44:../DaisySP/DaisySP-LGPL/Source/Dynamics/compressor.cpp ****     gain_rec_     = ((atk_slo2_ * gain_rec_)
ARM GAS  /var/folders/2p/02m_5p7958535cp2tpgps0400000gn/T//ccYth1xv.s 			page 15


 492              		.loc 2 44 23 view .LVU133
 493 001a D0ED089A 		vldr.32	s19, [r0, #32]
  42:../DaisySP/DaisySP-LGPL/Source/Dynamics/compressor.cpp ****     float cur_slo = ((slope_rec_ > inAbs) ? rel_slo_ : atk_slo_);
 494              		.loc 2 42 43 view .LVU134
 495 001e F4EEC06A 		vcmpe.f32	s13, s0
 496              		.loc 2 44 35 view .LVU135
 497 0022 90ED079A 		vldr.32	s18, [r0, #28]
  45:../DaisySP/DaisySP-LGPL/Source/Dynamics/compressor.cpp ****                  + (ratio_mul_
 498              		.loc 2 45 21 view .LVU136
 499 0026 90ED098A 		vldr.32	s16, [r0, #36]
  42:../DaisySP/DaisySP-LGPL/Source/Dynamics/compressor.cpp ****     slope_rec_    = ((slope_rec_ * cur_slo) + ((1.0f - cur_slo) * inAbs));
 500              		.loc 2 42 43 view .LVU137
 501 002a F1EE10FA 		vmrs	APSR_nzcv, FPSCR
 502 002e CCBF     		ite	gt
 503 0030 90ED0B7A 		vldrgt.32	s14, [r0, #44]
 504 0034 90ED0A7A 		vldrle.32	s14, [r0, #40]
 505              	.LVL23:
  43:../DaisySP/DaisySP-LGPL/Source/Dynamics/compressor.cpp ****     gain_rec_     = ((atk_slo2_ * gain_rec_)
 506              		.loc 2 43 5 is_stmt 1 view .LVU138
  43:../DaisySP/DaisySP-LGPL/Source/Dynamics/compressor.cpp ****     gain_rec_     = ((atk_slo2_ * gain_rec_)
 507              		.loc 2 43 54 is_stmt 0 view .LVU139
 508 0038 77EEC77A 		vsub.f32	s15, s15, s14
  43:../DaisySP/DaisySP-LGPL/Source/Dynamics/compressor.cpp ****     gain_rec_     = ((atk_slo2_ * gain_rec_)
 509              		.loc 2 43 65 view .LVU140
 510 003c 67EE807A 		vmul.f32	s15, s15, s0
  43:../DaisySP/DaisySP-LGPL/Source/Dynamics/compressor.cpp ****     gain_rec_     = ((atk_slo2_ * gain_rec_)
 511              		.loc 2 43 45 view .LVU141
 512 0040 E6EE877A 		vfma.f32	s15, s13, s14
  43:../DaisySP/DaisySP-LGPL/Source/Dynamics/compressor.cpp ****     gain_rec_     = ((atk_slo2_ * gain_rec_)
 513              		.loc 2 43 19 view .LVU142
 514 0044 C0ED067A 		vstr.32	s15, [r0, #24]
  44:../DaisySP/DaisySP-LGPL/Source/Dynamics/compressor.cpp ****                  + (ratio_mul_
 515              		.loc 2 44 5 is_stmt 1 view .LVU143
 516              	.LVL24:
 517              	.LBB221:
 518              	.LBI221:
 519              		.file 3 "../DaisySP/Source/Utility/dsp.h"
   1:../DaisySP/Source/Utility/dsp.h **** /*
   2:../DaisySP/Source/Utility/dsp.h **** Copyright (c) 2020 Electrosmith, Corp, Emilie Gillet
   3:../DaisySP/Source/Utility/dsp.h **** 
   4:../DaisySP/Source/Utility/dsp.h **** Use of this source code is governed by an MIT-style
   5:../DaisySP/Source/Utility/dsp.h **** license that can be found in the LICENSE file or at
   6:../DaisySP/Source/Utility/dsp.h **** https://opensource.org/licenses/MIT.
   7:../DaisySP/Source/Utility/dsp.h **** */
   8:../DaisySP/Source/Utility/dsp.h **** 
   9:../DaisySP/Source/Utility/dsp.h **** /** Helpful defines, functions, and other utilities for use in/with daisysp modules.
  10:../DaisySP/Source/Utility/dsp.h **** */
  11:../DaisySP/Source/Utility/dsp.h **** #pragma once
  12:../DaisySP/Source/Utility/dsp.h **** #ifndef DSY_CORE_DSP
  13:../DaisySP/Source/Utility/dsp.h **** #define DSY_CORE_DSP
  14:../DaisySP/Source/Utility/dsp.h **** #include <cassert>
  15:../DaisySP/Source/Utility/dsp.h **** #include <cstdint>
  16:../DaisySP/Source/Utility/dsp.h **** #include <random>
  17:../DaisySP/Source/Utility/dsp.h **** #include <cmath>
  18:../DaisySP/Source/Utility/dsp.h **** 
  19:../DaisySP/Source/Utility/dsp.h **** /** PIs
  20:../DaisySP/Source/Utility/dsp.h **** */
ARM GAS  /var/folders/2p/02m_5p7958535cp2tpgps0400000gn/T//ccYth1xv.s 			page 16


  21:../DaisySP/Source/Utility/dsp.h **** #define PI_F 3.1415927410125732421875f
  22:../DaisySP/Source/Utility/dsp.h **** #define TWOPI_F (2.0f * PI_F)
  23:../DaisySP/Source/Utility/dsp.h **** #define HALFPI_F (PI_F * 0.5f)
  24:../DaisySP/Source/Utility/dsp.h **** #define DSY_MIN(in, mn) (in < mn ? in : mn)
  25:../DaisySP/Source/Utility/dsp.h **** #define DSY_MAX(in, mx) (in > mx ? in : mx)
  26:../DaisySP/Source/Utility/dsp.h **** #define DSY_CLAMP(in, mn, mx) (DSY_MIN(DSY_MAX(in, mn), mx))
  27:../DaisySP/Source/Utility/dsp.h **** #define DSY_COUNTOF(_arr) (sizeof(_arr) / sizeof(_arr[0]))
  28:../DaisySP/Source/Utility/dsp.h **** 
  29:../DaisySP/Source/Utility/dsp.h **** namespace daisysp
  30:../DaisySP/Source/Utility/dsp.h **** {
  31:../DaisySP/Source/Utility/dsp.h **** //Avoids division for random floats. e.g. rand() * kRandFrac
  32:../DaisySP/Source/Utility/dsp.h **** static constexpr float kRandFrac = 1.f / (float)RAND_MAX;
  33:../DaisySP/Source/Utility/dsp.h **** 
  34:../DaisySP/Source/Utility/dsp.h **** //Convert from semitones to other units. e.g. 2 ^ (kOneTwelfth * x)
  35:../DaisySP/Source/Utility/dsp.h **** static constexpr float kOneTwelfth = 1.f / 12.f;
  36:../DaisySP/Source/Utility/dsp.h **** 
  37:../DaisySP/Source/Utility/dsp.h **** /** efficient floating point min/max
  38:../DaisySP/Source/Utility/dsp.h **** c/o stephen mccaul
  39:../DaisySP/Source/Utility/dsp.h **** */
  40:../DaisySP/Source/Utility/dsp.h **** inline float fmax(float a, float b)
  41:../DaisySP/Source/Utility/dsp.h **** {
  42:../DaisySP/Source/Utility/dsp.h ****     float r;
  43:../DaisySP/Source/Utility/dsp.h **** #ifdef __arm__
  44:../DaisySP/Source/Utility/dsp.h ****     asm("vmaxnm.f32 %[d], %[n], %[m]" : [d] "=t"(r) : [n] "t"(a), [m] "t"(b) :);
  45:../DaisySP/Source/Utility/dsp.h **** #else
  46:../DaisySP/Source/Utility/dsp.h ****     r = (a > b) ? a : b;
  47:../DaisySP/Source/Utility/dsp.h **** #endif // __arm__
  48:../DaisySP/Source/Utility/dsp.h ****     return r;
  49:../DaisySP/Source/Utility/dsp.h **** }
  50:../DaisySP/Source/Utility/dsp.h **** 
  51:../DaisySP/Source/Utility/dsp.h **** inline float fmin(float a, float b)
  52:../DaisySP/Source/Utility/dsp.h **** {
  53:../DaisySP/Source/Utility/dsp.h ****     float r;
  54:../DaisySP/Source/Utility/dsp.h **** #ifdef __arm__
  55:../DaisySP/Source/Utility/dsp.h ****     asm("vminnm.f32 %[d], %[n], %[m]" : [d] "=t"(r) : [n] "t"(a), [m] "t"(b) :);
  56:../DaisySP/Source/Utility/dsp.h **** #else
  57:../DaisySP/Source/Utility/dsp.h ****     r = (a < b) ? a : b;
  58:../DaisySP/Source/Utility/dsp.h **** #endif // __arm__
  59:../DaisySP/Source/Utility/dsp.h ****     return r;
  60:../DaisySP/Source/Utility/dsp.h **** }
  61:../DaisySP/Source/Utility/dsp.h **** 
  62:../DaisySP/Source/Utility/dsp.h **** /** quick fp clamp
  63:../DaisySP/Source/Utility/dsp.h **** */
  64:../DaisySP/Source/Utility/dsp.h **** inline float fclamp(float in, float min, float max)
  65:../DaisySP/Source/Utility/dsp.h **** {
  66:../DaisySP/Source/Utility/dsp.h ****     return fmin(fmax(in, min), max);
  67:../DaisySP/Source/Utility/dsp.h **** }
  68:../DaisySP/Source/Utility/dsp.h **** 
  69:../DaisySP/Source/Utility/dsp.h **** /** From Musicdsp.org "Fast power and root estimates for 32bit floats)
  70:../DaisySP/Source/Utility/dsp.h **** Original code by Stefan Stenzel
  71:../DaisySP/Source/Utility/dsp.h **** These are approximations
  72:../DaisySP/Source/Utility/dsp.h **** */
  73:../DaisySP/Source/Utility/dsp.h **** inline float fastpower(float f, int n)
  74:../DaisySP/Source/Utility/dsp.h **** {
  75:../DaisySP/Source/Utility/dsp.h ****     long *lp, l;
  76:../DaisySP/Source/Utility/dsp.h ****     lp = (long *)(&f);
  77:../DaisySP/Source/Utility/dsp.h ****     l  = *lp;
ARM GAS  /var/folders/2p/02m_5p7958535cp2tpgps0400000gn/T//ccYth1xv.s 			page 17


  78:../DaisySP/Source/Utility/dsp.h ****     l -= 0x3F800000;
  79:../DaisySP/Source/Utility/dsp.h ****     l <<= (n - 1);
  80:../DaisySP/Source/Utility/dsp.h ****     l += 0x3F800000;
  81:../DaisySP/Source/Utility/dsp.h ****     *lp = l;
  82:../DaisySP/Source/Utility/dsp.h ****     return f;
  83:../DaisySP/Source/Utility/dsp.h **** }
  84:../DaisySP/Source/Utility/dsp.h **** 
  85:../DaisySP/Source/Utility/dsp.h **** inline float fastroot(float f, int n)
  86:../DaisySP/Source/Utility/dsp.h **** {
  87:../DaisySP/Source/Utility/dsp.h ****     long *lp, l;
  88:../DaisySP/Source/Utility/dsp.h ****     lp = (long *)(&f);
  89:../DaisySP/Source/Utility/dsp.h ****     l  = *lp;
  90:../DaisySP/Source/Utility/dsp.h ****     l -= 0x3F800000;
  91:../DaisySP/Source/Utility/dsp.h ****     l >>= (n - 1);
  92:../DaisySP/Source/Utility/dsp.h ****     l += 0x3F800000;
  93:../DaisySP/Source/Utility/dsp.h ****     *lp = l;
  94:../DaisySP/Source/Utility/dsp.h ****     return f;
  95:../DaisySP/Source/Utility/dsp.h **** }
  96:../DaisySP/Source/Utility/dsp.h **** 
  97:../DaisySP/Source/Utility/dsp.h **** /** Significantly more efficient than fmodf(x, 1.0f) for calculating
  98:../DaisySP/Source/Utility/dsp.h ****  *  the decimal part of a floating point value.
  99:../DaisySP/Source/Utility/dsp.h ****  */
 100:../DaisySP/Source/Utility/dsp.h **** inline float fastmod1f(float x)
 101:../DaisySP/Source/Utility/dsp.h **** {
 102:../DaisySP/Source/Utility/dsp.h ****     return x - static_cast<int>(x);
 103:../DaisySP/Source/Utility/dsp.h **** }
 104:../DaisySP/Source/Utility/dsp.h **** 
 105:../DaisySP/Source/Utility/dsp.h **** /** From http://openaudio.blogspot.com/2017/02/faster-log10-and-pow.html
 106:../DaisySP/Source/Utility/dsp.h **** No approximation, pow10f(x) gives a 90% speed increase over powf(10.f, x)
 107:../DaisySP/Source/Utility/dsp.h **** */
 108:../DaisySP/Source/Utility/dsp.h **** inline float pow10f(float f)
 109:../DaisySP/Source/Utility/dsp.h **** {
 110:../DaisySP/Source/Utility/dsp.h ****     return expf(2.302585092994046f * f);
 111:../DaisySP/Source/Utility/dsp.h **** }
 112:../DaisySP/Source/Utility/dsp.h **** 
 113:../DaisySP/Source/Utility/dsp.h **** /* Original code for fastlog2f by Dr. Paul Beckmann from the ARM community forum, adapted from the 
 114:../DaisySP/Source/Utility/dsp.h **** About 25% performance increase over std::log10f
 115:../DaisySP/Source/Utility/dsp.h **** */
 116:../DaisySP/Source/Utility/dsp.h **** inline float fastlog2f(float f)
 117:../DaisySP/Source/Utility/dsp.h **** {
 118:../DaisySP/Source/Utility/dsp.h ****     float frac;
 119:../DaisySP/Source/Utility/dsp.h ****     int   exp;
 120:../DaisySP/Source/Utility/dsp.h ****     frac = frexpf(fabsf(f), &exp);
 121:../DaisySP/Source/Utility/dsp.h ****     f    = 1.23149591368684f;
 122:../DaisySP/Source/Utility/dsp.h ****     f *= frac;
 123:../DaisySP/Source/Utility/dsp.h ****     f += -4.11852516267426f;
 124:../DaisySP/Source/Utility/dsp.h ****     f *= frac;
 125:../DaisySP/Source/Utility/dsp.h ****     f += 6.02197014179219f;
 126:../DaisySP/Source/Utility/dsp.h ****     f *= frac;
 127:../DaisySP/Source/Utility/dsp.h ****     f += -3.13396450166353f;
 128:../DaisySP/Source/Utility/dsp.h ****     f += exp;
 129:../DaisySP/Source/Utility/dsp.h ****     return (f);
 130:../DaisySP/Source/Utility/dsp.h **** }
 131:../DaisySP/Source/Utility/dsp.h **** 
 132:../DaisySP/Source/Utility/dsp.h **** inline float fastlog10f(float f)
 520              		.loc 3 132 14 view .LVU144
 521              	.LBB222:
ARM GAS  /var/folders/2p/02m_5p7958535cp2tpgps0400000gn/T//ccYth1xv.s 			page 18


 133:../DaisySP/Source/Utility/dsp.h **** {
 134:../DaisySP/Source/Utility/dsp.h ****     return fastlog2f(f) * 0.3010299956639812f;
 522              		.loc 3 134 5 view .LVU145
 523              	.LBB223:
 524              	.LBI223:
 116:../DaisySP/Source/Utility/dsp.h **** {
 525              		.loc 3 116 14 view .LVU146
 526              	.LBB224:
 118:../DaisySP/Source/Utility/dsp.h ****     int   exp;
 527              		.loc 3 118 5 view .LVU147
 119:../DaisySP/Source/Utility/dsp.h ****     frac = frexpf(fabsf(f), &exp);
 528              		.loc 3 119 5 view .LVU148
 120:../DaisySP/Source/Utility/dsp.h ****     f    = 1.23149591368684f;
 529              		.loc 3 120 5 view .LVU149
 120:../DaisySP/Source/Utility/dsp.h ****     f    = 1.23149591368684f;
 530              		.loc 3 120 18 is_stmt 0 view .LVU150
 531 0048 B0EEE70A 		vabs.f32	s0, s15
 532              	.LVL25:
 120:../DaisySP/Source/Utility/dsp.h ****     f    = 1.23149591368684f;
 533              		.loc 3 120 18 view .LVU151
 534 004c 01A8     		add	r0, sp, #4
 535              	.LVL26:
 120:../DaisySP/Source/Utility/dsp.h ****     f    = 1.23149591368684f;
 536              		.loc 3 120 18 view .LVU152
 537 004e FFF7FEFF 		bl	frexpf
 538              	.LVL27:
 121:../DaisySP/Source/Utility/dsp.h ****     f *= frac;
 539              		.loc 3 121 5 is_stmt 1 view .LVU153
 122:../DaisySP/Source/Utility/dsp.h ****     f += -4.11852516267426f;
 540              		.loc 3 122 5 view .LVU154
 123:../DaisySP/Source/Utility/dsp.h ****     f *= frac;
 541              		.loc 3 123 5 view .LVU155
 123:../DaisySP/Source/Utility/dsp.h ****     f *= frac;
 542              		.loc 3 123 7 is_stmt 0 view .LVU156
 543 0052 9FED207A 		vldr.32	s14, .L23
 544 0056 DFED207A 		vldr.32	s15, .L23+4
 125:../DaisySP/Source/Utility/dsp.h ****     f *= frac;
 545              		.loc 3 125 7 view .LVU157
 546 005a DFED206A 		vldr.32	s13, .L23+8
 123:../DaisySP/Source/Utility/dsp.h ****     f *= frac;
 547              		.loc 3 123 7 view .LVU158
 548 005e E0EE077A 		vfma.f32	s15, s0, s14
 549              	.LVL28:
 124:../DaisySP/Source/Utility/dsp.h ****     f += 6.02197014179219f;
 550              		.loc 3 124 5 is_stmt 1 view .LVU159
 125:../DaisySP/Source/Utility/dsp.h ****     f *= frac;
 551              		.loc 3 125 5 view .LVU160
 127:../DaisySP/Source/Utility/dsp.h ****     f += exp;
 552              		.loc 3 127 7 is_stmt 0 view .LVU161
 553 0062 9FED1F7A 		vldr.32	s14, .L23+12
 125:../DaisySP/Source/Utility/dsp.h ****     f *= frac;
 554              		.loc 3 125 7 view .LVU162
 555 0066 E0EE276A 		vfma.f32	s13, s0, s15
 556              	.LVL29:
 126:../DaisySP/Source/Utility/dsp.h ****     f += -3.13396450166353f;
 557              		.loc 3 126 5 is_stmt 1 view .LVU163
 127:../DaisySP/Source/Utility/dsp.h ****     f += exp;
ARM GAS  /var/folders/2p/02m_5p7958535cp2tpgps0400000gn/T//ccYth1xv.s 			page 19


 558              		.loc 3 127 5 view .LVU164
 127:../DaisySP/Source/Utility/dsp.h ****     f += exp;
 559              		.loc 3 127 7 is_stmt 0 view .LVU165
 560 006a F0EE477A 		vmov.f32	s15, s14
 128:../DaisySP/Source/Utility/dsp.h ****     return (f);
 561              		.loc 3 128 7 view .LVU166
 562 006e 9DED017A 		vldr.32	s14, [sp, #4]	@ int
 563 0072 B8EEC77A 		vcvt.f32.s32	s14, s14
 127:../DaisySP/Source/Utility/dsp.h ****     f += exp;
 564              		.loc 3 127 7 view .LVU167
 565 0076 E0EE267A 		vfma.f32	s15, s0, s13
 566              	.LVL30:
 128:../DaisySP/Source/Utility/dsp.h ****     return (f);
 567              		.loc 3 128 5 is_stmt 1 view .LVU168
 568              	.LBE224:
 569              	.LBE223:
 570              	.LBE222:
 571              	.LBE221:
  46:../DaisySP/DaisySP-LGPL/Source/Dynamics/compressor.cpp ****                     * fmax(((20.f * fastlog10f(slope_rec_)) - thresh_), 0.f)));
  47:../DaisySP/DaisySP-LGPL/Source/Dynamics/compressor.cpp ****     gain_         = pow10f(0.05f * (gain_rec_ + makeup_gain_));
 572              		.loc 2 47 47 is_stmt 0 view .LVU169
 573 007a 94ED040A 		vldr.32	s0, [r4, #16]
 574              	.LVL31:
  46:../DaisySP/DaisySP-LGPL/Source/Dynamics/compressor.cpp ****                     * fmax(((20.f * fastlog10f(slope_rec_)) - thresh_), 0.f)));
 575              		.loc 2 46 27 view .LVU170
 576 007e F3EE046A 		vmov.f32	s13, #2.0e+1
 577              	.LBB228:
 578              	.LBB227:
 579              	.LBB226:
 580              	.LBB225:
 128:../DaisySP/Source/Utility/dsp.h ****     return (f);
 581              		.loc 3 128 7 view .LVU171
 582 0082 37EE277A 		vadd.f32	s14, s14, s15
 583              	.LVL32:
 129:../DaisySP/Source/Utility/dsp.h **** }
 584              		.loc 3 129 5 is_stmt 1 view .LVU172
 129:../DaisySP/Source/Utility/dsp.h **** }
 585              		.loc 3 129 5 is_stmt 0 view .LVU173
 586              	.LBE225:
 587              	.LBE226:
 588              		.loc 3 134 27 view .LVU174
 589 0086 DFED177A 		vldr.32	s15, .L23+16
 590 008a 27EE277A 		vmul.f32	s14, s14, s15
 591              	.LBE227:
 592              	.LBE228:
  46:../DaisySP/DaisySP-LGPL/Source/Dynamics/compressor.cpp ****                     * fmax(((20.f * fastlog10f(slope_rec_)) - thresh_), 0.f)));
 593              		.loc 2 46 27 view .LVU175
 594 008e D4ED017A 		vldr.32	s15, [r4, #4]
 595 0092 D7EE267A 		vfnms.f32	s15, s14, s13
 596              	.LVL33:
 597              	.LBB229:
 598              	.LBI229:
  40:../DaisySP/Source/Utility/dsp.h **** {
 599              		.loc 3 40 14 is_stmt 1 view .LVU176
 600              	.LBB230:
  42:../DaisySP/Source/Utility/dsp.h **** #ifdef __arm__
 601              		.loc 3 42 5 view .LVU177
ARM GAS  /var/folders/2p/02m_5p7958535cp2tpgps0400000gn/T//ccYth1xv.s 			page 20


  44:../DaisySP/Source/Utility/dsp.h **** #else
 602              		.loc 3 44 5 view .LVU178
 603 0096 9FED147A 		vldr.32	s14, .L23+20
 604              		.syntax unified
 605              	@ 44 "../DaisySP/Source/Utility/dsp.h" 1
 606 009a C7FE877A 		vmaxnm.f32 s15, s15, s14
 607              	@ 0 "" 2
 608              	.LVL34:
  48:../DaisySP/Source/Utility/dsp.h **** }
 609              		.loc 3 48 5 view .LVU179
  48:../DaisySP/Source/Utility/dsp.h **** }
 610              		.loc 3 48 5 is_stmt 0 view .LVU180
 611              		.thumb
 612              		.syntax unified
 613              	.LBE230:
 614              	.LBE229:
  46:../DaisySP/DaisySP-LGPL/Source/Dynamics/compressor.cpp ****     gain_         = pow10f(0.05f * (gain_rec_ + makeup_gain_));
 615              		.loc 2 46 21 view .LVU181
 616 009e 68EE277A 		vmul.f32	s15, s16, s15
  45:../DaisySP/DaisySP-LGPL/Source/Dynamics/compressor.cpp ****                     * fmax(((20.f * fastlog10f(slope_rec_)) - thresh_), 0.f)));
 617              		.loc 2 45 18 view .LVU182
 618 00a2 E9EE897A 		vfma.f32	s15, s19, s18
  44:../DaisySP/DaisySP-LGPL/Source/Dynamics/compressor.cpp ****                  + (ratio_mul_
 619              		.loc 2 44 19 view .LVU183
 620 00a6 C4ED077A 		vstr.32	s15, [r4, #28]
 621              		.loc 2 47 5 is_stmt 1 view .LVU184
 622              	.LVL35:
 623              	.LBB231:
 624              	.LBI231:
 108:../DaisySP/Source/Utility/dsp.h **** {
 625              		.loc 3 108 14 view .LVU185
 626              	.LBB232:
 110:../DaisySP/Source/Utility/dsp.h **** }
 627              		.loc 3 110 5 view .LVU186
 628              	.LBE232:
 629              	.LBE231:
 630              		.loc 2 47 47 is_stmt 0 view .LVU187
 631 00aa 77EE807A 		vadd.f32	s15, s15, s0
 632              	.LVL36:
 633              		.loc 2 47 27 view .LVU188
 634 00ae 9FED0F0A 		vldr.32	s0, .L23+24
 635              	.LVL37:
 636              		.loc 2 47 27 view .LVU189
 637 00b2 67EE807A 		vmul.f32	s15, s15, s0
 638              	.LVL38:
 639              	.LBB234:
 640              	.LBB233:
 110:../DaisySP/Source/Utility/dsp.h **** }
 641              		.loc 3 110 16 view .LVU190
 642 00b6 9FED0E0A 		vldr.32	s0, .L23+28
 643 00ba 27EE800A 		vmul.f32	s0, s15, s0
 644 00be FFF7FEFF 		bl	expf
 645              	.LVL39:
 110:../DaisySP/Source/Utility/dsp.h **** }
 646              		.loc 3 110 16 view .LVU191
 647              	.LBE233:
 648              	.LBE234:
ARM GAS  /var/folders/2p/02m_5p7958535cp2tpgps0400000gn/T//ccYth1xv.s 			page 21


 649              		.loc 2 47 19 view .LVU192
 650 00c2 84ED050A 		vstr.32	s0, [r4, #20]
  48:../DaisySP/DaisySP-LGPL/Source/Dynamics/compressor.cpp **** 
  49:../DaisySP/DaisySP-LGPL/Source/Dynamics/compressor.cpp ****     return gain_ * in;
 651              		.loc 2 49 5 is_stmt 1 view .LVU193
  50:../DaisySP/DaisySP-LGPL/Source/Dynamics/compressor.cpp **** }
 652              		.loc 2 50 1 is_stmt 0 view .LVU194
 653 00c6 28EE800A 		vmul.f32	s0, s17, s0
 654 00ca 02B0     		add	sp, sp, #8
 655              		.cfi_def_cfa_offset 24
 656              		@ sp needed
 657 00cc BDEC048B 		vldm	sp!, {d8-d9}
 658              		.cfi_restore 82
 659              		.cfi_restore 83
 660              		.cfi_restore 80
 661              		.cfi_restore 81
 662              		.cfi_def_cfa_offset 8
 663 00d0 10BD     		pop	{r4, pc}
 664              	.LVL40:
 665              	.L24:
 666              		.loc 2 50 1 view .LVU195
 667 00d2 00BF     		.align	2
 668              	.L23:
 669 00d4 A8A19D3F 		.word	1067295144
 670 00d8 F5CA83C0 		.word	-1065104651
 671 00dc FBB3C040 		.word	1086370811
 672 00e0 E09248C0 		.word	-1068985632
 673 00e4 9B209A3E 		.word	1050288283
 674 00e8 00000000 		.word	0
 675 00ec CDCC4C3D 		.word	1028443341
 676 00f0 8E5D1340 		.word	1075010958
 677              		.cfi_endproc
 678              	.LFE4778:
 680              		.section	.text._ZN7daisysp10Compressor12ProcessBlockEPfS1_S1_j,"ax",%progbits
 681              		.align	1
 682              		.global	_ZN7daisysp10Compressor12ProcessBlockEPfS1_S1_j
 683              		.syntax unified
 684              		.thumb
 685              		.thumb_func
 687              	_ZN7daisysp10Compressor12ProcessBlockEPfS1_S1_j:
 688              	.LVL41:
 689              	.LFB4779:
  51:../DaisySP/DaisySP-LGPL/Source/Dynamics/compressor.cpp **** 
  52:../DaisySP/DaisySP-LGPL/Source/Dynamics/compressor.cpp **** void Compressor::ProcessBlock(float *in, float *out, float *key, size_t size)
  53:../DaisySP/DaisySP-LGPL/Source/Dynamics/compressor.cpp **** {
 690              		.loc 2 53 1 is_stmt 1 view -0
 691              		.cfi_startproc
 692              		@ args = 4, pretend = 0, frame = 0
 693              		@ frame_needed = 0, uses_anonymous_args = 0
  54:../DaisySP/DaisySP-LGPL/Source/Dynamics/compressor.cpp ****     for(size_t i = 0; i < size; i++)
 694              		.loc 2 54 5 view .LVU197
  53:../DaisySP/DaisySP-LGPL/Source/Dynamics/compressor.cpp ****     for(size_t i = 0; i < size; i++)
 695              		.loc 2 53 1 is_stmt 0 view .LVU198
 696 0000 2DE9F843 		push	{r3, r4, r5, r6, r7, r8, r9, lr}
 697              		.cfi_def_cfa_offset 32
 698              		.cfi_offset 3, -32
 699              		.cfi_offset 4, -28
ARM GAS  /var/folders/2p/02m_5p7958535cp2tpgps0400000gn/T//ccYth1xv.s 			page 22


 700              		.cfi_offset 5, -24
 701              		.cfi_offset 6, -20
 702              		.cfi_offset 7, -16
 703              		.cfi_offset 8, -12
 704              		.cfi_offset 9, -8
 705              		.cfi_offset 14, -4
  53:../DaisySP/DaisySP-LGPL/Source/Dynamics/compressor.cpp ****     for(size_t i = 0; i < size; i++)
 706              		.loc 2 53 1 view .LVU199
 707 0004 089E     		ldr	r6, [sp, #32]
 708 0006 0546     		mov	r5, r0
 709 0008 9846     		mov	r8, r3
 710 000a 0F46     		mov	r7, r1
 711 000c 1446     		mov	r4, r2
 712              	.LBB235:
 713              		.loc 2 54 16 view .LVU200
 714 000e 4FF00009 		mov	r9, #0
 715              	.LVL42:
 716              	.L27:
 717              		.loc 2 54 25 is_stmt 1 discriminator 3 view .LVU201
 718 0012 B145     		cmp	r9, r6
 719 0014 0FD0     		beq	.L25
  55:../DaisySP/DaisySP-LGPL/Source/Dynamics/compressor.cpp ****     {
  56:../DaisySP/DaisySP-LGPL/Source/Dynamics/compressor.cpp ****         Process(key[i]);
 720              		.loc 2 56 9 discriminator 2 view .LVU202
 721              		.loc 2 56 16 is_stmt 0 discriminator 2 view .LVU203
 722 0016 B8EC010A 		vldmia.32	r8!, {s0}
 723 001a 2846     		mov	r0, r5
 724 001c FFF7FEFF 		bl	_ZN7daisysp10Compressor7ProcessEf
 725              	.LVL43:
  57:../DaisySP/DaisySP-LGPL/Source/Dynamics/compressor.cpp ****         out[i] = Apply(in[i]);
 726              		.loc 2 57 9 is_stmt 1 discriminator 2 view .LVU204
 727              		.loc 2 57 23 is_stmt 0 discriminator 2 view .LVU205
 728 0020 B7EC017A 		vldmia.32	r7!, {s14}
 729              	.LVL44:
 730              	.LBB236:
 731              	.LBI236:
  62:../DaisySP/DaisySP-LGPL/Source/Dynamics/compressor.h **** 
 732              		.loc 1 62 11 is_stmt 1 discriminator 2 view .LVU206
 733              	.LBB237:
  62:../DaisySP/DaisySP-LGPL/Source/Dynamics/compressor.h **** 
 734              		.loc 1 62 29 discriminator 2 view .LVU207
  62:../DaisySP/DaisySP-LGPL/Source/Dynamics/compressor.h **** 
 735              		.loc 1 62 44 is_stmt 0 discriminator 2 view .LVU208
 736 0024 D5ED057A 		vldr.32	s15, [r5, #20]
 737              	.LBE237:
 738              	.LBE236:
  54:../DaisySP/DaisySP-LGPL/Source/Dynamics/compressor.cpp ****     {
 739              		.loc 2 54 5 discriminator 2 view .LVU209
 740 0028 09F10109 		add	r9, r9, #1
 741              	.LVL45:
 742              	.LBB239:
 743              	.LBB238:
  62:../DaisySP/DaisySP-LGPL/Source/Dynamics/compressor.h **** 
 744              		.loc 1 62 44 discriminator 2 view .LVU210
 745 002c 67EE877A 		vmul.f32	s15, s15, s14
 746              	.LBE238:
 747              	.LBE239:
ARM GAS  /var/folders/2p/02m_5p7958535cp2tpgps0400000gn/T//ccYth1xv.s 			page 23


 748              		.loc 2 57 16 discriminator 2 view .LVU211
 749 0030 E4EC017A 		vstmia.32	r4!, {s15}
  54:../DaisySP/DaisySP-LGPL/Source/Dynamics/compressor.cpp ****     {
 750              		.loc 2 54 5 is_stmt 1 discriminator 2 view .LVU212
 751              	.LVL46:
  54:../DaisySP/DaisySP-LGPL/Source/Dynamics/compressor.cpp ****     {
 752              		.loc 2 54 5 is_stmt 0 discriminator 2 view .LVU213
 753 0034 EDE7     		b	.L27
 754              	.L25:
  54:../DaisySP/DaisySP-LGPL/Source/Dynamics/compressor.cpp ****     {
 755              		.loc 2 54 5 discriminator 2 view .LVU214
 756              	.LBE235:
  58:../DaisySP/DaisySP-LGPL/Source/Dynamics/compressor.cpp ****     }
  59:../DaisySP/DaisySP-LGPL/Source/Dynamics/compressor.cpp **** }
 757              		.loc 2 59 1 view .LVU215
 758 0036 BDE8F883 		pop	{r3, r4, r5, r6, r7, r8, r9, pc}
 759              		.loc 2 59 1 view .LVU216
 760              		.cfi_endproc
 761              	.LFE4779:
 763              		.section	.text._ZN14GrannyChordApp13AudioCallbackEPKPKfPPfj,"ax",%progbits
 764              		.align	1
 765              		.global	_ZN14GrannyChordApp13AudioCallbackEPKPKfPPfj
 766              		.syntax unified
 767              		.thumb
 768              		.thumb_func
 770              	_ZN14GrannyChordApp13AudioCallbackEPKPKfPPfj:
 771              	.LVL47:
 772              	.LFB4792:
 773              		.file 4 "GrannyChordApp.cpp"
   1:GrannyChordApp.cpp **** #include "GrannyChordApp.h"
   2:GrannyChordApp.cpp **** 
   3:GrannyChordApp.cpp **** void GrannyChordApp::Init(){
   4:GrannyChordApp.cpp ****   // 
   5:GrannyChordApp.cpp ****   pod_.SetAudioBlockSize(4);
   6:GrannyChordApp.cpp ****   pod_.SetAudioSampleRate(SaiHandle::Config::SampleRate::SAI_48KHZ);
   7:GrannyChordApp.cpp ****   SeedRng();
   8:GrannyChordApp.cpp ****   ui_.Init();
   9:GrannyChordApp.cpp ****   if (!InitFileMgr()){
  10:GrannyChordApp.cpp ****     return;
  11:GrannyChordApp.cpp ****   }
  12:GrannyChordApp.cpp ****   ui_.SetState(AppState::SelectFile);
  13:GrannyChordApp.cpp ****   if (!HandleFileSelection()){
  14:GrannyChordApp.cpp ****     return;
  15:GrannyChordApp.cpp ****   }
  16:GrannyChordApp.cpp ****   InitCompressor();
  17:GrannyChordApp.cpp **** 
  18:GrannyChordApp.cpp ****   // init synth? or do that in main? 
  19:GrannyChordApp.cpp ****   InitPrevParamVals();
  20:GrannyChordApp.cpp **** 
  21:GrannyChordApp.cpp ****   pod_.StartAdc();
  22:GrannyChordApp.cpp ****   pod_.StartAudio(AudioCallback);
  23:GrannyChordApp.cpp **** }
  24:GrannyChordApp.cpp **** 
  25:GrannyChordApp.cpp **** void GrannyChordApp::AudioCallback(AudioHandle::InputBuffer in, AudioHandle::OutputBuffer out, size
  26:GrannyChordApp.cpp **** {
 774              		.loc 4 26 1 is_stmt 1 view -0
 775              		.cfi_startproc
ARM GAS  /var/folders/2p/02m_5p7958535cp2tpgps0400000gn/T//ccYth1xv.s 			page 24


 776              		@ args = 0, pretend = 0, frame = 0
 777              		@ frame_needed = 0, uses_anonymous_args = 0
  27:GrannyChordApp.cpp ****   // if in PlayWAV: just send output from channels straight to output
  28:GrannyChordApp.cpp ****   // if in RecordIn: clear channel buffers, send input straight to them
  29:GrannyChordApp.cpp ****   // track audio length, if greater than (60*48000) ie 60s, wrap index
  30:GrannyChordApp.cpp ****   // to front of buffer so it's circular and can't record > 60s
  31:GrannyChordApp.cpp ****   // then set audio_len_ vbl to tracked length so synth works properly
  32:GrannyChordApp.cpp **** 
  33:GrannyChordApp.cpp ****   for(size_t i = 0; i < size; i++)
 778              		.loc 4 33 3 view .LVU218
  26:GrannyChordApp.cpp ****   // if in PlayWAV: just send output from channels straight to output
 779              		.loc 4 26 1 is_stmt 0 view .LVU219
 780 0000 F7B5     		push	{r0, r1, r2, r4, r5, r6, r7, lr}
 781              		.cfi_def_cfa_offset 32
 782              		.cfi_offset 4, -20
 783              		.cfi_offset 5, -16
 784              		.cfi_offset 6, -12
 785              		.cfi_offset 7, -8
 786              		.cfi_offset 14, -4
  26:GrannyChordApp.cpp ****   // if in PlayWAV: just send output from channels straight to output
 787              		.loc 4 26 1 view .LVU220
 788 0002 0D46     		mov	r5, r1
 789 0004 1446     		mov	r4, r2
 790              	.LBB245:
 791              		.loc 4 33 14 view .LVU221
 792 0006 0026     		movs	r6, #0
 793              	.LVL48:
 794              	.L30:
 795              		.loc 4 33 23 is_stmt 1 discriminator 3 view .LVU222
 796 0008 A642     		cmp	r6, r4
 797 000a 1BD0     		beq	.L28
  34:GrannyChordApp.cpp ****   {
  35:GrannyChordApp.cpp ****     instance_->synth_.ProcessGrains(out[0], out[1], size);
 798              		.loc 4 35 5 discriminator 2 view .LVU223
 799              		.loc 4 35 16 is_stmt 0 discriminator 2 view .LVU224
 800 000c 0E4F     		ldr	r7, .L31
 801              		.loc 4 35 36 discriminator 2 view .LVU225
 802 000e 2346     		mov	r3, r4
  33:GrannyChordApp.cpp ****   {
 803              		.loc 4 33 3 discriminator 2 view .LVU226
 804 0010 0136     		adds	r6, r6, #1
 805              	.LVL49:
 806              		.loc 4 35 36 discriminator 2 view .LVU227
 807 0012 3868     		ldr	r0, [r7]
 808 0014 D5E90012 		ldrd	r1, r2, [r5]
 809 0018 0430     		adds	r0, r0, #4
 810 001a FFF7FEFF 		bl	_ZN13GranularSynth13ProcessGrainsEPfS0_j
 811              	.LVL50:
  36:GrannyChordApp.cpp ****     instance_->comp_.ProcessBlock(out[0],out[0], size);
 812              		.loc 4 36 5 is_stmt 1 discriminator 2 view .LVU228
 813              	.LBB246:
 814              	.LBI246:
  69:../DaisySP/DaisySP-LGPL/Source/Dynamics/compressor.h ****     {
 815              		.loc 1 69 10 discriminator 2 view .LVU229
 816              	.LBB247:
  71:../DaisySP/DaisySP-LGPL/Source/Dynamics/compressor.h ****     }
 817              		.loc 1 71 9 discriminator 2 view .LVU230
ARM GAS  /var/folders/2p/02m_5p7958535cp2tpgps0400000gn/T//ccYth1xv.s 			page 25


  71:../DaisySP/DaisySP-LGPL/Source/Dynamics/compressor.h ****     }
 818              		.loc 1 71 21 is_stmt 0 discriminator 2 view .LVU231
 819 001e 2B68     		ldr	r3, [r5]
 820              	.LBE247:
 821              	.LBE246:
 822              		.loc 4 36 34 discriminator 2 view .LVU232
 823 0020 3868     		ldr	r0, [r7]
 824              	.LBB249:
 825              	.LBB248:
  71:../DaisySP/DaisySP-LGPL/Source/Dynamics/compressor.h ****     }
 826              		.loc 1 71 21 discriminator 2 view .LVU233
 827 0022 1A46     		mov	r2, r3
 828 0024 1946     		mov	r1, r3
 829 0026 00F5CA60 		add	r0, r0, #1616
 830              	.LVL51:
  71:../DaisySP/DaisySP-LGPL/Source/Dynamics/compressor.h ****     }
 831              		.loc 1 71 21 discriminator 2 view .LVU234
 832 002a 0094     		str	r4, [sp]
 833              	.LVL52:
  71:../DaisySP/DaisySP-LGPL/Source/Dynamics/compressor.h ****     }
 834              		.loc 1 71 21 discriminator 2 view .LVU235
 835 002c FFF7FEFF 		bl	_ZN7daisysp10Compressor12ProcessBlockEPfS1_S1_j
 836              	.LVL53:
  71:../DaisySP/DaisySP-LGPL/Source/Dynamics/compressor.h ****     }
 837              		.loc 1 71 21 discriminator 2 view .LVU236
 838              	.LBE248:
 839              	.LBE249:
  37:GrannyChordApp.cpp ****     instance_->comp_.ProcessBlock(out[1],out[1], size);
 840              		.loc 4 37 5 is_stmt 1 discriminator 2 view .LVU237
 841              	.LBB250:
 842              	.LBI250:
  69:../DaisySP/DaisySP-LGPL/Source/Dynamics/compressor.h ****     {
 843              		.loc 1 69 10 discriminator 2 view .LVU238
 844              	.LBB251:
  71:../DaisySP/DaisySP-LGPL/Source/Dynamics/compressor.h ****     }
 845              		.loc 1 71 9 discriminator 2 view .LVU239
  71:../DaisySP/DaisySP-LGPL/Source/Dynamics/compressor.h ****     }
 846              		.loc 1 71 21 is_stmt 0 discriminator 2 view .LVU240
 847 0030 6B68     		ldr	r3, [r5, #4]
 848              	.LBE251:
 849              	.LBE250:
 850              		.loc 4 37 34 discriminator 2 view .LVU241
 851 0032 3868     		ldr	r0, [r7]
 852              	.LBB253:
 853              	.LBB252:
  71:../DaisySP/DaisySP-LGPL/Source/Dynamics/compressor.h ****     }
 854              		.loc 1 71 21 discriminator 2 view .LVU242
 855 0034 1A46     		mov	r2, r3
 856 0036 1946     		mov	r1, r3
 857 0038 00F5CA60 		add	r0, r0, #1616
 858              	.LVL54:
  71:../DaisySP/DaisySP-LGPL/Source/Dynamics/compressor.h ****     }
 859              		.loc 1 71 21 discriminator 2 view .LVU243
 860 003c 0094     		str	r4, [sp]
 861              	.LVL55:
  71:../DaisySP/DaisySP-LGPL/Source/Dynamics/compressor.h ****     }
 862              		.loc 1 71 21 discriminator 2 view .LVU244
ARM GAS  /var/folders/2p/02m_5p7958535cp2tpgps0400000gn/T//ccYth1xv.s 			page 26


 863 003e FFF7FEFF 		bl	_ZN7daisysp10Compressor12ProcessBlockEPfS1_S1_j
 864              	.LVL56:
  71:../DaisySP/DaisySP-LGPL/Source/Dynamics/compressor.h ****     }
 865              		.loc 1 71 21 discriminator 2 view .LVU245
 866              	.LBE252:
 867              	.LBE253:
  33:GrannyChordApp.cpp ****   {
 868              		.loc 4 33 3 is_stmt 1 discriminator 2 view .LVU246
  33:GrannyChordApp.cpp ****   {
 869              		.loc 4 33 3 is_stmt 0 discriminator 2 view .LVU247
 870 0042 E1E7     		b	.L30
 871              	.L28:
  33:GrannyChordApp.cpp ****   {
 872              		.loc 4 33 3 discriminator 2 view .LVU248
 873              	.LBE245:
  38:GrannyChordApp.cpp ****   }
  39:GrannyChordApp.cpp **** }
 874              		.loc 4 39 1 view .LVU249
 875 0044 03B0     		add	sp, sp, #12
 876              		.cfi_def_cfa_offset 20
 877              		@ sp needed
 878 0046 F0BD     		pop	{r4, r5, r6, r7, pc}
 879              	.LVL57:
 880              	.L32:
 881              		.loc 4 39 1 view .LVU250
 882              		.align	2
 883              	.L31:
 884 0048 00000000 		.word	_ZN14GrannyChordApp9instance_E
 885              		.cfi_endproc
 886              	.LFE4792:
 888              		.section	.text._ZN7daisysp10Compressor12ProcessBlockEPPfS2_S1_jj,"ax",%progbits
 889              		.align	1
 890              		.global	_ZN7daisysp10Compressor12ProcessBlockEPPfS2_S1_jj
 891              		.syntax unified
 892              		.thumb
 893              		.thumb_func
 895              	_ZN7daisysp10Compressor12ProcessBlockEPPfS2_S1_jj:
 896              	.LVL58:
 897              	.LFB4780:
  60:../DaisySP/DaisySP-LGPL/Source/Dynamics/compressor.cpp **** 
  61:../DaisySP/DaisySP-LGPL/Source/Dynamics/compressor.cpp **** // Multi-channel block processing
  62:../DaisySP/DaisySP-LGPL/Source/Dynamics/compressor.cpp **** void Compressor::ProcessBlock(float **in,
  63:../DaisySP/DaisySP-LGPL/Source/Dynamics/compressor.cpp ****                               float **out,
  64:../DaisySP/DaisySP-LGPL/Source/Dynamics/compressor.cpp ****                               float * key,
  65:../DaisySP/DaisySP-LGPL/Source/Dynamics/compressor.cpp ****                               size_t  channels,
  66:../DaisySP/DaisySP-LGPL/Source/Dynamics/compressor.cpp ****                               size_t  size)
  67:../DaisySP/DaisySP-LGPL/Source/Dynamics/compressor.cpp **** {
 898              		.loc 2 67 1 is_stmt 1 view -0
 899              		.cfi_startproc
 900              		@ args = 8, pretend = 0, frame = 0
 901              		@ frame_needed = 0, uses_anonymous_args = 0
  68:../DaisySP/DaisySP-LGPL/Source/Dynamics/compressor.cpp ****     for(size_t i = 0; i < size; i++)
 902              		.loc 2 68 5 view .LVU252
  67:../DaisySP/DaisySP-LGPL/Source/Dynamics/compressor.cpp ****     for(size_t i = 0; i < size; i++)
 903              		.loc 2 67 1 is_stmt 0 view .LVU253
 904 0000 2DE9F84F 		push	{r3, r4, r5, r6, r7, r8, r9, r10, fp, lr}
 905              		.cfi_def_cfa_offset 40
ARM GAS  /var/folders/2p/02m_5p7958535cp2tpgps0400000gn/T//ccYth1xv.s 			page 27


 906              		.cfi_offset 3, -40
 907              		.cfi_offset 4, -36
 908              		.cfi_offset 5, -32
 909              		.cfi_offset 6, -28
 910              		.cfi_offset 7, -24
 911              		.cfi_offset 8, -20
 912              		.cfi_offset 9, -16
 913              		.cfi_offset 10, -12
 914              		.cfi_offset 11, -8
 915              		.cfi_offset 14, -4
  67:../DaisySP/DaisySP-LGPL/Source/Dynamics/compressor.cpp ****     for(size_t i = 0; i < size; i++)
 916              		.loc 2 67 1 view .LVU254
 917 0004 0B9F     		ldr	r7, [sp, #44]
 918 0006 8146     		mov	r9, r0
 919 0008 8A46     		mov	r10, r1
 920 000a 9346     		mov	fp, r2
 921 000c 9846     		mov	r8, r3
 922              	.LBB254:
 923              		.loc 2 68 16 view .LVU255
 924 000e 0025     		movs	r5, #0
 925              	.LVL59:
 926              	.L37:
 927              		.loc 2 68 25 is_stmt 1 discriminator 1 view .LVU256
 928 0010 BD42     		cmp	r5, r7
 929 0012 1BD0     		beq	.L33
 930              	.LBB255:
  69:../DaisySP/DaisySP-LGPL/Source/Dynamics/compressor.cpp ****     {
  70:../DaisySP/DaisySP-LGPL/Source/Dynamics/compressor.cpp ****         Process(key[i]);
 931              		.loc 2 70 9 view .LVU257
 932 0014 AE00     		lsls	r6, r5, #2
 933              	.LBB256:
  71:../DaisySP/DaisySP-LGPL/Source/Dynamics/compressor.cpp ****         for(size_t c = 0; c < channels; c++)
 934              		.loc 2 71 20 is_stmt 0 view .LVU258
 935 0016 0024     		movs	r4, #0
 936              	.LBE256:
  70:../DaisySP/DaisySP-LGPL/Source/Dynamics/compressor.cpp ****         for(size_t c = 0; c < channels; c++)
 937              		.loc 2 70 16 view .LVU259
 938 0018 B8EC010A 		vldmia.32	r8!, {s0}
 939 001c 4846     		mov	r0, r9
 940 001e FFF7FEFF 		bl	_ZN7daisysp10Compressor7ProcessEf
 941              	.LVL60:
 942              		.loc 2 71 9 is_stmt 1 view .LVU260
 943              	.L36:
 944              	.LBB265:
 945              		.loc 2 71 29 discriminator 3 view .LVU261
 946 0022 0A9B     		ldr	r3, [sp, #40]
 947 0024 9C42     		cmp	r4, r3
 948 0026 0FD0     		beq	.L35
  72:../DaisySP/DaisySP-LGPL/Source/Dynamics/compressor.cpp ****         {
  73:../DaisySP/DaisySP-LGPL/Source/Dynamics/compressor.cpp ****             out[c][i] = Apply(in[c][i]);
 949              		.loc 2 73 13 discriminator 2 view .LVU262
 950              	.LVL61:
 951              	.LBB257:
 952              	.LBI257:
  62:../DaisySP/DaisySP-LGPL/Source/Dynamics/compressor.h **** 
 953              		.loc 1 62 11 discriminator 2 view .LVU263
 954              	.LBB258:
ARM GAS  /var/folders/2p/02m_5p7958535cp2tpgps0400000gn/T//ccYth1xv.s 			page 28


  62:../DaisySP/DaisySP-LGPL/Source/Dynamics/compressor.h **** 
 955              		.loc 1 62 29 discriminator 2 view .LVU264
  62:../DaisySP/DaisySP-LGPL/Source/Dynamics/compressor.h **** 
 956              		.loc 1 62 29 is_stmt 0 discriminator 2 view .LVU265
 957              	.LBE258:
 958              	.LBE257:
 959              		.loc 2 73 30 discriminator 2 view .LVU266
 960 0028 5AF82410 		ldr	r1, [r10, r4, lsl #2]
 961              	.LBB262:
 962              	.LBB259:
  62:../DaisySP/DaisySP-LGPL/Source/Dynamics/compressor.h **** 
 963              		.loc 1 62 44 discriminator 2 view .LVU267
 964 002c 99ED057A 		vldr.32	s14, [r9, #20]
 965              	.LBE259:
 966              	.LBE262:
 967              		.loc 2 73 30 discriminator 2 view .LVU268
 968 0030 3144     		add	r1, r1, r6
 969              		.loc 2 73 23 discriminator 2 view .LVU269
 970 0032 5BF82430 		ldr	r3, [fp, r4, lsl #2]
  71:../DaisySP/DaisySP-LGPL/Source/Dynamics/compressor.cpp ****         {
 971              		.loc 2 71 9 discriminator 2 view .LVU270
 972 0036 0134     		adds	r4, r4, #1
 973              	.LVL62:
 974              	.LBB263:
 975              	.LBB260:
  62:../DaisySP/DaisySP-LGPL/Source/Dynamics/compressor.h **** 
 976              		.loc 1 62 44 discriminator 2 view .LVU271
 977 0038 D1ED007A 		vldr.32	s15, [r1]
 978              	.LBE260:
 979              	.LBE263:
 980              		.loc 2 73 23 discriminator 2 view .LVU272
 981 003c 3344     		add	r3, r3, r6
 982              	.LBB264:
 983              	.LBB261:
  62:../DaisySP/DaisySP-LGPL/Source/Dynamics/compressor.h **** 
 984              		.loc 1 62 44 discriminator 2 view .LVU273
 985 003e 67EE877A 		vmul.f32	s15, s15, s14
 986              	.LBE261:
 987              	.LBE264:
 988              		.loc 2 73 23 discriminator 2 view .LVU274
 989 0042 C3ED007A 		vstr.32	s15, [r3]
  71:../DaisySP/DaisySP-LGPL/Source/Dynamics/compressor.cpp ****         {
 990              		.loc 2 71 9 is_stmt 1 discriminator 2 view .LVU275
 991              	.LVL63:
  71:../DaisySP/DaisySP-LGPL/Source/Dynamics/compressor.cpp ****         {
 992              		.loc 2 71 9 is_stmt 0 discriminator 2 view .LVU276
 993 0046 ECE7     		b	.L36
 994              	.L35:
  71:../DaisySP/DaisySP-LGPL/Source/Dynamics/compressor.cpp ****         {
 995              		.loc 2 71 9 discriminator 2 view .LVU277
 996              	.LBE265:
 997              	.LBE255:
  68:../DaisySP/DaisySP-LGPL/Source/Dynamics/compressor.cpp ****     {
 998              		.loc 2 68 5 is_stmt 1 discriminator 2 view .LVU278
 999 0048 0135     		adds	r5, r5, #1
 1000              	.LVL64:
  68:../DaisySP/DaisySP-LGPL/Source/Dynamics/compressor.cpp ****     {
ARM GAS  /var/folders/2p/02m_5p7958535cp2tpgps0400000gn/T//ccYth1xv.s 			page 29


 1001              		.loc 2 68 5 is_stmt 0 discriminator 2 view .LVU279
 1002 004a E1E7     		b	.L37
 1003              	.LVL65:
 1004              	.L33:
  68:../DaisySP/DaisySP-LGPL/Source/Dynamics/compressor.cpp ****     {
 1005              		.loc 2 68 5 discriminator 2 view .LVU280
 1006              	.LBE254:
  74:../DaisySP/DaisySP-LGPL/Source/Dynamics/compressor.cpp ****         }
  75:../DaisySP/DaisySP-LGPL/Source/Dynamics/compressor.cpp ****     }
  76:../DaisySP/DaisySP-LGPL/Source/Dynamics/compressor.cpp **** }
 1007              		.loc 2 76 1 view .LVU281
 1008 004c BDE8F88F 		pop	{r3, r4, r5, r6, r7, r8, r9, r10, fp, pc}
 1009              		.loc 2 76 1 view .LVU282
 1010              		.cfi_endproc
 1011              	.LFE4780:
 1013              		.section	.text._ZN14GrannyChordApp17HandleStateChangeE8AppStateS0_,"ax",%progbits
 1014              		.align	1
 1015              		.global	_ZN14GrannyChordApp17HandleStateChangeE8AppStateS0_
 1016              		.syntax unified
 1017              		.thumb
 1018              		.thumb_func
 1020              	_ZN14GrannyChordApp17HandleStateChangeE8AppStateS0_:
 1021              	.LVL66:
 1022              	.LFB4794:
  40:GrannyChordApp.cpp **** 
  41:GrannyChordApp.cpp **** void GrannyChordApp::Run(){
  42:GrannyChordApp.cpp ****   while(true){
  43:GrannyChordApp.cpp ****     AppState prev_state = ui_.GetCurrentState();
  44:GrannyChordApp.cpp ****     ui_.UpdateUI();
  45:GrannyChordApp.cpp ****     AppState curr_state = ui_.GetCurrentState();
  46:GrannyChordApp.cpp ****     if (prev_state!=curr_state){
  47:GrannyChordApp.cpp ****       HandleStateChange(prev_state, curr_state);
  48:GrannyChordApp.cpp ****     }
  49:GrannyChordApp.cpp ****     UpdateSynthParams();
  50:GrannyChordApp.cpp **** 
  51:GrannyChordApp.cpp ****     // handle states, playback, chords
  52:GrannyChordApp.cpp ****     System::Delay(1);
  53:GrannyChordApp.cpp ****   }
  54:GrannyChordApp.cpp **** }
  55:GrannyChordApp.cpp **** 
  56:GrannyChordApp.cpp **** void GrannyChordApp::HandleStateChange(AppState prev, AppState curr){
 1023              		.loc 4 56 69 is_stmt 1 view -0
 1024              		.cfi_startproc
 1025              		@ args = 0, pretend = 0, frame = 0
 1026              		@ frame_needed = 0, uses_anonymous_args = 0
 1027              		@ link register save eliminated.
  57:GrannyChordApp.cpp ****   switch (prev){
 1028              		.loc 4 57 3 view .LVU284
  58:GrannyChordApp.cpp ****     case AppState::SelectFile:
  59:GrannyChordApp.cpp ****       if (curr==AppState::PlayWAV){
  60:GrannyChordApp.cpp ****         break;
  61:GrannyChordApp.cpp ****       default:
  62:GrannyChordApp.cpp ****         break;
  63:GrannyChordApp.cpp ****         // start wav playback
  64:GrannyChordApp.cpp ****       }
  65:GrannyChordApp.cpp ****       
  66:GrannyChordApp.cpp **** 
ARM GAS  /var/folders/2p/02m_5p7958535cp2tpgps0400000gn/T//ccYth1xv.s 			page 30


  67:GrannyChordApp.cpp ****   }
  68:GrannyChordApp.cpp **** 
  69:GrannyChordApp.cpp **** }
 1029              		.loc 4 69 1 is_stmt 0 view .LVU285
 1030 0000 7047     		bx	lr
 1031              		.cfi_endproc
 1032              	.LFE4794:
 1034              		.section	.text._ZN14GrannyChordApp11InitFileMgrEv,"ax",%progbits
 1035              		.align	1
 1036              		.global	_ZN14GrannyChordApp11InitFileMgrEv
 1037              		.syntax unified
 1038              		.thumb
 1039              		.thumb_func
 1041              	_ZN14GrannyChordApp11InitFileMgrEv:
 1042              	.LVL67:
 1043              	.LFB4795:
  70:GrannyChordApp.cpp **** 
  71:GrannyChordApp.cpp **** 
  72:GrannyChordApp.cpp **** 
  73:GrannyChordApp.cpp **** 
  74:GrannyChordApp.cpp **** bool GrannyChordApp::InitFileMgr(){
 1044              		.loc 4 74 35 is_stmt 1 view -0
 1045              		.cfi_startproc
 1046              		@ args = 0, pretend = 0, frame = 0
 1047              		@ frame_needed = 0, uses_anonymous_args = 0
  75:GrannyChordApp.cpp ****   if (!filemgr_.Init()){
 1048              		.loc 4 75 3 view .LVU287
  74:GrannyChordApp.cpp ****   if (!filemgr_.Init()){
 1049              		.loc 4 74 35 is_stmt 0 view .LVU288
 1050 0000 38B5     		push	{r3, r4, r5, lr}
 1051              		.cfi_def_cfa_offset 16
 1052              		.cfi_offset 3, -16
 1053              		.cfi_offset 4, -12
 1054              		.cfi_offset 5, -8
 1055              		.cfi_offset 14, -4
  74:GrannyChordApp.cpp ****   if (!filemgr_.Init()){
 1056              		.loc 4 74 35 view .LVU289
 1057 0002 0446     		mov	r4, r0
 1058              		.loc 4 75 21 view .LVU290
 1059 0004 D0F8EC05 		ldr	r0, [r0, #1516]
 1060              	.LVL68:
 1061              		.loc 4 75 21 view .LVU291
 1062 0008 FFF7FEFF 		bl	_ZN16AudioFileManager4InitEv
 1063              	.LVL69:
 1064              		.loc 4 75 3 view .LVU292
 1065 000c 30B9     		cbnz	r0, .L41
 1066              	.L43:
  76:GrannyChordApp.cpp ****       ui_.SetStateError();
 1067              		.loc 4 76 7 is_stmt 1 view .LVU293
  77:GrannyChordApp.cpp ****       return false;
 1068              		.loc 4 77 14 is_stmt 0 view .LVU294
 1069 000e 0025     		movs	r5, #0
  76:GrannyChordApp.cpp ****       ui_.SetStateError();
 1070              		.loc 4 76 24 view .LVU295
 1071 0010 04F2F450 		addw	r0, r4, #1524
 1072 0014 FFF7FEFF 		bl	_ZN9UIManager13SetStateErrorEv
 1073              	.LVL70:
ARM GAS  /var/folders/2p/02m_5p7958535cp2tpgps0400000gn/T//ccYth1xv.s 			page 31


 1074              		.loc 4 77 7 is_stmt 1 view .LVU296
 1075              	.L42:
  78:GrannyChordApp.cpp ****   }
  79:GrannyChordApp.cpp ****   if (!filemgr_.ScanWavFiles()){
  80:GrannyChordApp.cpp ****     ui_.SetStateError();
  81:GrannyChordApp.cpp ****     return false;
  82:GrannyChordApp.cpp ****   }
  83:GrannyChordApp.cpp ****   if (filemgr_.LoadFile(0)){
  84:GrannyChordApp.cpp ****     InitSynth();
  85:GrannyChordApp.cpp ****   }
  86:GrannyChordApp.cpp ****   else {
  87:GrannyChordApp.cpp ****     ui_.SetStateError();
  88:GrannyChordApp.cpp ****     return false;
  89:GrannyChordApp.cpp ****   }
  90:GrannyChordApp.cpp ****   return true;
  91:GrannyChordApp.cpp **** }
 1076              		.loc 4 91 1 is_stmt 0 view .LVU297
 1077 0018 2846     		mov	r0, r5
 1078 001a 38BD     		pop	{r3, r4, r5, pc}
 1079              	.LVL71:
 1080              	.L41:
  79:GrannyChordApp.cpp ****     ui_.SetStateError();
 1081              		.loc 4 79 3 is_stmt 1 view .LVU298
  79:GrannyChordApp.cpp ****     ui_.SetStateError();
 1082              		.loc 4 79 29 is_stmt 0 view .LVU299
 1083 001c D4F8EC05 		ldr	r0, [r4, #1516]
 1084 0020 FFF7FEFF 		bl	_ZN16AudioFileManager12ScanWavFilesEv
 1085              	.LVL72:
  79:GrannyChordApp.cpp ****     ui_.SetStateError();
 1086              		.loc 4 79 3 view .LVU300
 1087 0024 0028     		cmp	r0, #0
 1088 0026 F2D0     		beq	.L43
 1089              	.LVL73:
 1090              	.LBB268:
 1091              	.LBI268:
  74:GrannyChordApp.cpp ****   if (!filemgr_.Init()){
 1092              		.loc 4 74 6 is_stmt 1 view .LVU301
 1093              	.LBB269:
  83:GrannyChordApp.cpp ****     InitSynth();
 1094              		.loc 4 83 3 view .LVU302
  83:GrannyChordApp.cpp ****     InitSynth();
 1095              		.loc 4 83 24 is_stmt 0 view .LVU303
 1096 0028 0021     		movs	r1, #0
 1097 002a D4F8EC05 		ldr	r0, [r4, #1516]
 1098 002e FFF7FEFF 		bl	_ZN16AudioFileManager8LoadFileEt
 1099              	.LVL74:
  83:GrannyChordApp.cpp ****     InitSynth();
 1100              		.loc 4 83 3 view .LVU304
 1101 0032 0546     		mov	r5, r0
 1102 0034 0028     		cmp	r0, #0
 1103 0036 EAD0     		beq	.L43
  84:GrannyChordApp.cpp ****   }
 1104              		.loc 4 84 5 is_stmt 1 view .LVU305
  84:GrannyChordApp.cpp ****   }
 1105              		.loc 4 84 14 is_stmt 0 view .LVU306
 1106 0038 2046     		mov	r0, r4
 1107 003a FFF7FEFF 		bl	_ZN14GrannyChordApp9InitSynthEv
ARM GAS  /var/folders/2p/02m_5p7958535cp2tpgps0400000gn/T//ccYth1xv.s 			page 32


 1108              	.LVL75:
  90:GrannyChordApp.cpp **** }
 1109              		.loc 4 90 3 is_stmt 1 view .LVU307
  90:GrannyChordApp.cpp **** }
 1110              		.loc 4 90 10 is_stmt 0 view .LVU308
 1111 003e EBE7     		b	.L42
 1112              	.LBE269:
 1113              	.LBE268:
 1114              		.cfi_endproc
 1115              	.LFE4795:
 1117              		.section	.text._ZN14GrannyChordApp14InitCompressorEv,"ax",%progbits
 1118              		.align	1
 1119              		.global	_ZN14GrannyChordApp14InitCompressorEv
 1120              		.syntax unified
 1121              		.thumb
 1122              		.thumb_func
 1124              	_ZN14GrannyChordApp14InitCompressorEv:
 1125              	.LVL76:
 1126              	.LFB4796:
  92:GrannyChordApp.cpp **** 
  93:GrannyChordApp.cpp **** void GrannyChordApp::InitCompressor(){
 1127              		.loc 4 93 38 is_stmt 1 view -0
 1128              		.cfi_startproc
 1129              		@ args = 0, pretend = 0, frame = 0
 1130              		@ frame_needed = 0, uses_anonymous_args = 0
  94:GrannyChordApp.cpp ****   comp_.Init(pod_.AudioSampleRate());
 1131              		.loc 4 94 3 view .LVU310
  93:GrannyChordApp.cpp ****   comp_.Init(pod_.AudioSampleRate());
 1132              		.loc 4 93 38 is_stmt 0 view .LVU311
 1133 0000 38B5     		push	{r3, r4, r5, lr}
 1134              		.cfi_def_cfa_offset 16
 1135              		.cfi_offset 3, -16
 1136              		.cfi_offset 4, -12
 1137              		.cfi_offset 5, -8
 1138              		.cfi_offset 14, -4
 1139              		.loc 4 94 13 view .LVU312
 1140 0002 00F5CA64 		add	r4, r0, #1616
  93:GrannyChordApp.cpp ****   comp_.Init(pod_.AudioSampleRate());
 1141              		.loc 4 93 38 view .LVU313
 1142 0006 0546     		mov	r5, r0
 1143              		.loc 4 94 13 view .LVU314
 1144 0008 0068     		ldr	r0, [r0]
 1145              	.LVL77:
 1146              		.loc 4 94 13 view .LVU315
 1147 000a FFF7FEFF 		bl	_ZN5daisy8DaisyPod15AudioSampleRateEv
 1148              	.LVL78:
 1149 000e 2046     		mov	r0, r4
 1150 0010 FFF7FEFF 		bl	_ZN7daisysp10Compressor4InitEf
 1151              	.LVL79:
  95:GrannyChordApp.cpp ****   comp_.SetRatio(3.0f);
 1152              		.loc 4 95 3 is_stmt 1 view .LVU316
 1153              	.LBB282:
 1154              	.LBI282:
 101:../DaisySP/DaisySP-LGPL/Source/Dynamics/compressor.h ****     {
 1155              		.loc 1 101 10 view .LVU317
 1156              	.LBB283:
 103:../DaisySP/DaisySP-LGPL/Source/Dynamics/compressor.h ****         RecalculateRatio();
ARM GAS  /var/folders/2p/02m_5p7958535cp2tpgps0400000gn/T//ccYth1xv.s 			page 33


 1157              		.loc 1 103 9 view .LVU318
 103:../DaisySP/DaisySP-LGPL/Source/Dynamics/compressor.h ****         RecalculateRatio();
 1158              		.loc 1 103 16 is_stmt 0 view .LVU319
 1159 0014 124B     		ldr	r3, .L51
 104:../DaisySP/DaisySP-LGPL/Source/Dynamics/compressor.h ****     }
 1160              		.loc 1 104 25 view .LVU320
 1161 0016 2046     		mov	r0, r4
 103:../DaisySP/DaisySP-LGPL/Source/Dynamics/compressor.h ****         RecalculateRatio();
 1162              		.loc 1 103 16 view .LVU321
 1163 0018 2360     		str	r3, [r4]	@ float
 104:../DaisySP/DaisySP-LGPL/Source/Dynamics/compressor.h ****     }
 1164              		.loc 1 104 9 is_stmt 1 view .LVU322
 104:../DaisySP/DaisySP-LGPL/Source/Dynamics/compressor.h ****     }
 1165              		.loc 1 104 25 is_stmt 0 view .LVU323
 1166 001a FFF7FEFF 		bl	_ZN7daisysp10Compressor16RecalculateRatioEv
 1167              	.LVL80:
 104:../DaisySP/DaisySP-LGPL/Source/Dynamics/compressor.h ****     }
 1168              		.loc 1 104 25 view .LVU324
 1169              	.LBE283:
 1170              	.LBE282:
  96:GrannyChordApp.cpp ****   comp_.SetAttack(0.01f);
 1171              		.loc 4 96 3 is_stmt 1 view .LVU325
 1172              	.LBB284:
 1173              	.LBI284:
 125:../DaisySP/DaisySP-LGPL/Source/Dynamics/compressor.h ****     {
 1174              		.loc 1 125 10 view .LVU326
 1175              	.LBB285:
 127:../DaisySP/DaisySP-LGPL/Source/Dynamics/compressor.h ****         RecalculateAttack();
 1176              		.loc 1 127 9 view .LVU327
 127:../DaisySP/DaisySP-LGPL/Source/Dynamics/compressor.h ****         RecalculateAttack();
 1177              		.loc 1 127 14 is_stmt 0 view .LVU328
 1178 001e 114B     		ldr	r3, .L51+4
 128:../DaisySP/DaisySP-LGPL/Source/Dynamics/compressor.h ****     }
 1179              		.loc 1 128 26 view .LVU329
 1180 0020 2046     		mov	r0, r4
 127:../DaisySP/DaisySP-LGPL/Source/Dynamics/compressor.h ****         RecalculateAttack();
 1181              		.loc 1 127 14 view .LVU330
 1182 0022 A360     		str	r3, [r4, #8]	@ float
 128:../DaisySP/DaisySP-LGPL/Source/Dynamics/compressor.h ****     }
 1183              		.loc 1 128 9 is_stmt 1 view .LVU331
 128:../DaisySP/DaisySP-LGPL/Source/Dynamics/compressor.h ****     }
 1184              		.loc 1 128 26 is_stmt 0 view .LVU332
 1185 0024 FFF7FEFF 		bl	_ZN7daisysp10Compressor17RecalculateAttackEv
 1186              	.LVL81:
 128:../DaisySP/DaisySP-LGPL/Source/Dynamics/compressor.h ****     }
 1187              		.loc 1 128 26 view .LVU333
 1188              	.LBE285:
 1189              	.LBE284:
  97:GrannyChordApp.cpp ****   comp_.SetRelease(0.1f);
 1190              		.loc 4 97 3 is_stmt 1 view .LVU334
 1191              	.LBB286:
 1192              	.LBI286:
 137:../DaisySP/DaisySP-LGPL/Source/Dynamics/compressor.h ****     {
 1193              		.loc 1 137 10 view .LVU335
 1194              	.LBB287:
 139:../DaisySP/DaisySP-LGPL/Source/Dynamics/compressor.h ****         RecalculateRelease();
 1195              		.loc 1 139 9 view .LVU336
ARM GAS  /var/folders/2p/02m_5p7958535cp2tpgps0400000gn/T//ccYth1xv.s 			page 34


 139:../DaisySP/DaisySP-LGPL/Source/Dynamics/compressor.h ****         RecalculateRelease();
 1196              		.loc 1 139 14 is_stmt 0 view .LVU337
 1197 0028 DFED0F7A 		vldr.32	s15, .L51+8
 1198              	.LBB288:
 1199              	.LBB289:
 196:../DaisySP/DaisySP-LGPL/Source/Dynamics/compressor.h **** 
 1200              		.loc 1 196 69 view .LVU338
 1201 002c 94ED0E7A 		vldr.32	s14, [r4, #56]
 1202              	.LBE289:
 1203              	.LBE288:
 139:../DaisySP/DaisySP-LGPL/Source/Dynamics/compressor.h ****         RecalculateRelease();
 1204              		.loc 1 139 14 view .LVU339
 1205 0030 C4ED037A 		vstr.32	s15, [r4, #12]
 140:../DaisySP/DaisySP-LGPL/Source/Dynamics/compressor.h ****     }
 1206              		.loc 1 140 9 is_stmt 1 view .LVU340
 1207              	.LVL82:
 1208              	.LBB292:
 1209              	.LBI288:
 196:../DaisySP/DaisySP-LGPL/Source/Dynamics/compressor.h **** 
 1210              		.loc 1 196 10 view .LVU341
 1211              	.LBB290:
 196:../DaisySP/DaisySP-LGPL/Source/Dynamics/compressor.h **** 
 1212              		.loc 1 196 33 view .LVU342
 196:../DaisySP/DaisySP-LGPL/Source/Dynamics/compressor.h **** 
 1213              		.loc 1 196 69 is_stmt 0 view .LVU343
 1214 0034 87EE270A 		vdiv.f32	s0, s14, s15
 196:../DaisySP/DaisySP-LGPL/Source/Dynamics/compressor.h **** 
 1215              		.loc 1 196 48 view .LVU344
 1216 0038 B1EE400A 		vneg.f32	s0, s0
 1217 003c FFF7FEFF 		bl	expf
 1218              	.LVL83:
 1219              	.LBE290:
 1220              	.LBE292:
 1221              	.LBE287:
 1222              	.LBE286:
 1223              	.LBB295:
 1224              	.LBB296:
 115:../DaisySP/DaisySP-LGPL/Source/Dynamics/compressor.h ****         RecalculateMakeup();
 1225              		.loc 1 115 17 view .LVU345
 1226 0040 0A4B     		ldr	r3, .L51+12
 116:../DaisySP/DaisySP-LGPL/Source/Dynamics/compressor.h ****     }
 1227              		.loc 1 116 26 view .LVU346
 1228 0042 2046     		mov	r0, r4
 1229              	.LBE296:
 1230              	.LBE295:
 1231              	.LBB298:
 1232              	.LBB294:
 1233              	.LBB293:
 1234              	.LBB291:
 196:../DaisySP/DaisySP-LGPL/Source/Dynamics/compressor.h **** 
 1235              		.loc 1 196 42 view .LVU347
 1236 0044 84ED0B0A 		vstr.32	s0, [r4, #44]
 1237              	.LVL84:
 196:../DaisySP/DaisySP-LGPL/Source/Dynamics/compressor.h **** 
 1238              		.loc 1 196 42 view .LVU348
 1239              	.LBE291:
 1240              	.LBE293:
ARM GAS  /var/folders/2p/02m_5p7958535cp2tpgps0400000gn/T//ccYth1xv.s 			page 35


 1241              	.LBE294:
 1242              	.LBE298:
  98:GrannyChordApp.cpp ****   comp_.SetThreshold(-12.0f);
 1243              		.loc 4 98 3 is_stmt 1 view .LVU349
 1244              	.LBB299:
 1245              	.LBI295:
 113:../DaisySP/DaisySP-LGPL/Source/Dynamics/compressor.h ****     {
 1246              		.loc 1 113 10 view .LVU350
 1247              	.LBB297:
 115:../DaisySP/DaisySP-LGPL/Source/Dynamics/compressor.h ****         RecalculateMakeup();
 1248              		.loc 1 115 9 view .LVU351
 115:../DaisySP/DaisySP-LGPL/Source/Dynamics/compressor.h ****         RecalculateMakeup();
 1249              		.loc 1 115 17 is_stmt 0 view .LVU352
 1250 0048 6360     		str	r3, [r4, #4]	@ float
 116:../DaisySP/DaisySP-LGPL/Source/Dynamics/compressor.h ****     }
 1251              		.loc 1 116 9 is_stmt 1 view .LVU353
 116:../DaisySP/DaisySP-LGPL/Source/Dynamics/compressor.h ****     }
 1252              		.loc 1 116 26 is_stmt 0 view .LVU354
 1253 004a FFF7FEFF 		bl	_ZN7daisysp10Compressor17RecalculateMakeupEv
 1254              	.LVL85:
 116:../DaisySP/DaisySP-LGPL/Source/Dynamics/compressor.h ****     }
 1255              		.loc 1 116 26 view .LVU355
 1256              	.LBE297:
 1257              	.LBE299:
  99:GrannyChordApp.cpp ****   comp_.AutoMakeup(true);
 1258              		.loc 4 99 3 is_stmt 1 view .LVU356
 1259              	.LBB300:
 1260              	.LBI300:
 154:../DaisySP/DaisySP-LGPL/Source/Dynamics/compressor.h ****     {
 1261              		.loc 1 154 10 view .LVU357
 1262              	.LBB301:
 156:../DaisySP/DaisySP-LGPL/Source/Dynamics/compressor.h ****         makeup_gain_ = 0.0f;
 1263              		.loc 1 156 9 view .LVU358
 156:../DaisySP/DaisySP-LGPL/Source/Dynamics/compressor.h ****         makeup_gain_ = 0.0f;
 1264              		.loc 1 156 22 is_stmt 0 view .LVU359
 1265 004e 0123     		movs	r3, #1
 158:../DaisySP/DaisySP-LGPL/Source/Dynamics/compressor.h ****     }
 1266              		.loc 1 158 26 view .LVU360
 1267 0050 2046     		mov	r0, r4
 156:../DaisySP/DaisySP-LGPL/Source/Dynamics/compressor.h ****         makeup_gain_ = 0.0f;
 1268              		.loc 1 156 22 view .LVU361
 1269 0052 85F88C36 		strb	r3, [r5, #1676]
 157:../DaisySP/DaisySP-LGPL/Source/Dynamics/compressor.h ****         RecalculateMakeup();
 1270              		.loc 1 157 9 is_stmt 1 view .LVU362
 157:../DaisySP/DaisySP-LGPL/Source/Dynamics/compressor.h ****         RecalculateMakeup();
 1271              		.loc 1 157 22 is_stmt 0 view .LVU363
 1272 0056 0023     		movs	r3, #0
 1273 0058 2361     		str	r3, [r4, #16]	@ float
 158:../DaisySP/DaisySP-LGPL/Source/Dynamics/compressor.h ****     }
 1274              		.loc 1 158 9 is_stmt 1 view .LVU364
 158:../DaisySP/DaisySP-LGPL/Source/Dynamics/compressor.h ****     }
 1275              		.loc 1 158 26 is_stmt 0 view .LVU365
 1276 005a FFF7FEFF 		bl	_ZN7daisysp10Compressor17RecalculateMakeupEv
 1277              	.LVL86:
 158:../DaisySP/DaisySP-LGPL/Source/Dynamics/compressor.h ****     }
 1278              		.loc 1 158 26 view .LVU366
 1279              	.LBE301:
ARM GAS  /var/folders/2p/02m_5p7958535cp2tpgps0400000gn/T//ccYth1xv.s 			page 36


 1280              	.LBE300:
 100:GrannyChordApp.cpp **** }
 1281              		.loc 4 100 1 view .LVU367
 1282 005e 38BD     		pop	{r3, r4, r5, pc}
 1283              	.LVL87:
 1284              	.L52:
 1285              		.loc 4 100 1 view .LVU368
 1286              		.align	2
 1287              	.L51:
 1288 0060 00004040 		.word	1077936128
 1289 0064 0AD7233C 		.word	1008981770
 1290 0068 CDCCCC3D 		.word	1036831949
 1291 006c 000040C1 		.word	-1052770304
 1292              		.cfi_endproc
 1293              	.LFE4796:
 1295              		.section	.text._ZN14GrannyChordApp19HandleFileSelectionEv,"ax",%progbits
 1296              		.align	1
 1297              		.global	_ZN14GrannyChordApp19HandleFileSelectionEv
 1298              		.syntax unified
 1299              		.thumb
 1300              		.thumb_func
 1302              	_ZN14GrannyChordApp19HandleFileSelectionEv:
 1303              	.LVL88:
 1304              	.LFB4797:
 101:GrannyChordApp.cpp **** 
 102:GrannyChordApp.cpp **** bool GrannyChordApp::HandleFileSelection(){
 1305              		.loc 4 102 43 is_stmt 1 view -0
 1306              		.cfi_startproc
 1307              		@ args = 0, pretend = 0, frame = 0
 1308              		@ frame_needed = 0, uses_anonymous_args = 0
 103:GrannyChordApp.cpp ****   if (ui_.GetCurrentState() != AppState::SelectFile){
 1309              		.loc 4 103 3 view .LVU370
 1310              	.LBB310:
 1311              	.LBI310:
 1312              		.file 5 "UIManager.h"
   1:UIManager.h   **** #pragma once
   2:UIManager.h   **** #include "daisy_pod.h"
   3:UIManager.h   **** #include "AppState.h"
   4:UIManager.h   **** #include "constants_utils.h"
   5:UIManager.h   **** 
   6:UIManager.h   **** using namespace daisy;
   7:UIManager.h   **** 
   8:UIManager.h   **** class UIManager {
   9:UIManager.h   ****   public:
  10:UIManager.h   ****     UIManager(DaisyPod& pod): pod_(pod) {}
  11:UIManager.h   **** 
  12:UIManager.h   ****     void Init();
  13:UIManager.h   **** 
  14:UIManager.h   ****     AppState GetCurrentState() { return current_state_; }
 1313              		.loc 5 14 14 view .LVU371
 1314              	.LBB311:
 1315              		.loc 5 14 34 view .LVU372
 1316              		.loc 5 14 34 is_stmt 0 view .LVU373
 1317              	.LBE311:
 1318              	.LBE310:
 1319              		.loc 4 103 3 view .LVU374
 1320 0000 D0F8F835 		ldr	r3, [r0, #1528]
ARM GAS  /var/folders/2p/02m_5p7958535cp2tpgps0400000gn/T//ccYth1xv.s 			page 37


 1321 0004 012B     		cmp	r3, #1
 102:GrannyChordApp.cpp ****   if (ui_.GetCurrentState() != AppState::SelectFile){
 1322              		.loc 4 102 43 view .LVU375
 1323 0006 70B5     		push	{r4, r5, r6, lr}
 1324              		.cfi_def_cfa_offset 16
 1325              		.cfi_offset 4, -16
 1326              		.cfi_offset 5, -12
 1327              		.cfi_offset 6, -8
 1328              		.cfi_offset 14, -4
 102:GrannyChordApp.cpp ****   if (ui_.GetCurrentState() != AppState::SelectFile){
 1329              		.loc 4 102 43 view .LVU376
 1330 0008 0446     		mov	r4, r0
 1331              		.loc 4 103 3 view .LVU377
 1332 000a 4AD1     		bne	.L62
 1333              	.LVL89:
 1334              	.LBB312:
 1335              	.LBI312:
 102:GrannyChordApp.cpp ****   if (ui_.GetCurrentState() != AppState::SelectFile){
 1336              		.loc 4 102 6 is_stmt 1 view .LVU378
 1337              	.LBB313:
 104:GrannyChordApp.cpp ****     return false;
 105:GrannyChordApp.cpp ****   }
 106:GrannyChordApp.cpp ****   int32_t inc = ui_.GetEncoderIncrement();
 1338              		.loc 4 106 3 view .LVU379
 1339              		.loc 4 106 40 is_stmt 0 view .LVU380
 1340 000c 00F2F456 		addw	r6, r0, #1524
 1341 0010 3046     		mov	r0, r6
 1342              	.LVL90:
 1343              		.loc 4 106 40 view .LVU381
 1344 0012 FFF7FEFF 		bl	_ZN9UIManager19GetEncoderIncrementEv
 1345              	.LVL91:
 107:GrannyChordApp.cpp ****   uint16_t file_count = filemgr_.GetFileCount();
 1346              		.loc 4 107 3 is_stmt 1 view .LVU382
 1347              	.LBB314:
 1348              	.LBI314:
 1349              		.file 6 "AudioFileManager.h"
   1:AudioFileManager.h **** #pragma once
   2:AudioFileManager.h **** 
   3:AudioFileManager.h **** #include <stdio.h>
   4:AudioFileManager.h **** #include <stdint.h>
   5:AudioFileManager.h **** #include <vector>
   6:AudioFileManager.h **** #include "daisy_pod.h"
   7:AudioFileManager.h **** #include "constants_utils.h"
   8:AudioFileManager.h **** 
   9:AudioFileManager.h **** using namespace daisy; 
  10:AudioFileManager.h **** 
  11:AudioFileManager.h **** class AudioFileManager {
  12:AudioFileManager.h ****   public:
  13:AudioFileManager.h ****     AudioFileManager(SdmmcHandler &sd, FatFSInterface &fsi, DaisyPod &pod, FIL *file)
  14:AudioFileManager.h ****       : sd_(sd), fsi_(fsi), pod_(pod), curr_file_(file), 
  15:AudioFileManager.h ****         left_channel_(nullptr), right_channel_(nullptr) {};
  16:AudioFileManager.h ****     
  17:AudioFileManager.h ****     bool Init();
  18:AudioFileManager.h ****     bool ScanWavFiles();
  19:AudioFileManager.h ****     void SetBuffers(int16_t *left, int16_t *right);
  20:AudioFileManager.h ****     bool LoadFile(uint16_t file_idx);
  21:AudioFileManager.h ****     bool CloseFile();
ARM GAS  /var/folders/2p/02m_5p7958535cp2tpgps0400000gn/T//ccYth1xv.s 			page 38


  22:AudioFileManager.h ****     bool GetWavHeader(FIL *file);
  23:AudioFileManager.h ****     bool CheckChunkID(uint32_t chunkId, uint32_t targetVal);
  24:AudioFileManager.h **** 
  25:AudioFileManager.h ****     int16_t* GetLeftBuffer() const { return left_channel_; }
  26:AudioFileManager.h ****     int16_t* GetRightBuffer() const { return right_channel_; }
  27:AudioFileManager.h ****     size_t GetSamplesPerChannel() const { return curr_header_.total_samples / curr_header_.channels
  28:AudioFileManager.h ****     size_t GetTotalSamples() const { return curr_header_.total_samples; }
  29:AudioFileManager.h ****     int16_t GetNumChannels() const { return curr_header_.channels; }
  30:AudioFileManager.h ****     uint16_t GetFileCount() const { return file_count_; }
 1350              		.loc 6 30 14 view .LVU383
 1351              	.LBB315:
 1352              		.loc 6 30 37 view .LVU384
 1353              		.loc 6 30 37 is_stmt 0 view .LVU385
 1354              	.LBE315:
 1355              	.LBE314:
 108:GrannyChordApp.cpp ****   if (inc!=0){
 1356              		.loc 4 108 3 is_stmt 1 view .LVU386
 1357 0016 40B3     		cbz	r0, .L56
 109:GrannyChordApp.cpp ****     // char fname[64];
 110:GrannyChordApp.cpp ****     file_idx_ += inc;
 1358              		.loc 4 110 5 view .LVU387
 1359              		.loc 4 110 15 is_stmt 0 view .LVU388
 1360 0018 07EE900A 		vmov	s15, r0	@ int
 1361 001c 04F5D263 		add	r3, r4, #1680
 1362              	.LBB318:
 1363              	.LBB316:
 1364              		.loc 6 30 44 view .LVU389
 1365 0020 D4F8EC25 		ldr	r2, [r4, #1516]
 1366              	.LBE316:
 1367              	.LBE318:
 1368              		.loc 4 110 15 view .LVU390
 1369 0024 F8EEE77A 		vcvt.f32.s32	s15, s15
 1370 0028 93ED007A 		vldr.32	s14, [r3]
 1371              	.LBB319:
 1372              	.LBB317:
 1373              		.loc 6 30 44 view .LVU391
 1374 002c 02F58052 		add	r2, r2, #4096
 1375              	.LBE317:
 1376              	.LBE319:
 1377              		.loc 4 110 15 view .LVU392
 1378 0030 77EE877A 		vadd.f32	s15, s15, s14
 111:GrannyChordApp.cpp ****     if (file_idx_<0){ 
 1379              		.loc 4 111 5 is_stmt 1 view .LVU393
 112:GrannyChordApp.cpp ****       file_idx_ = file_count - 1; 
 1380              		.loc 4 112 19 is_stmt 0 view .LVU394
 1381 0034 528B     		ldrh	r2, [r2, #26]
 111:GrannyChordApp.cpp ****     if (file_idx_<0){ 
 1382              		.loc 4 111 5 view .LVU395
 1383 0036 F5EEC07A 		vcmpe.f32	s15, #0
 1384 003a F1EE10FA 		vmrs	APSR_nzcv, FPSCR
 1385              		.loc 4 112 7 is_stmt 1 view .LVU396
 1386              		.loc 4 112 30 is_stmt 0 view .LVU397
 1387 003e 42BF     		ittt	mi
 1388 0040 02F1FF31 		addmi	r1, r2, #-1
 1389 0044 07EE901A 		vmovmi	s15, r1	@ int
 1390              		.loc 4 112 17 view .LVU398
 1391 0048 F8EEE77A 		vcvtmi.f32.s32	s15, s15
ARM GAS  /var/folders/2p/02m_5p7958535cp2tpgps0400000gn/T//ccYth1xv.s 			page 39


 1392 004c C3ED007A 		vstr.32	s15, [r3]
 113:GrannyChordApp.cpp ****     }
 114:GrannyChordApp.cpp ****     if (file_idx_ >= file_count){ 
 1393              		.loc 4 114 5 is_stmt 1 view .LVU399
 1394              		.loc 4 114 19 is_stmt 0 view .LVU400
 1395 0050 07EE902A 		vmov	s15, r2	@ int
 1396              		.loc 4 114 5 view .LVU401
 1397 0054 93ED007A 		vldr.32	s14, [r3]
 1398              		.loc 4 114 19 view .LVU402
 1399 0058 F8EEE77A 		vcvt.f32.s32	s15, s15
 1400              		.loc 4 114 5 view .LVU403
 1401 005c B4EEE77A 		vcmpe.f32	s14, s15
 1402 0060 F1EE10FA 		vmrs	APSR_nzcv, FPSCR
 115:GrannyChordApp.cpp ****       file_idx_ = 0; 
 1403              		.loc 4 115 7 is_stmt 1 view .LVU404
 1404              		.loc 4 115 17 is_stmt 0 view .LVU405
 1405 0064 A4BF     		itt	ge
 1406 0066 0022     		movge	r2, #0
 1407 0068 1A60     		strge	r2, [r3]	@ float
 1408              	.L56:
 116:GrannyChordApp.cpp ****     }
 117:GrannyChordApp.cpp ****     
 118:GrannyChordApp.cpp ****     // filemgr_.GetName(file_idx_, fname);
 119:GrannyChordApp.cpp ****     // pod_.seed.PrintLine("selected new file idx %d %s", file_idx_, fname);
 120:GrannyChordApp.cpp ****   }
 121:GrannyChordApp.cpp ****   if (ui_.Button1Pressed()){
 1409              		.loc 4 121 3 is_stmt 1 view .LVU406
 1410              		.loc 4 121 25 is_stmt 0 view .LVU407
 1411 006a 3046     		mov	r0, r6
 1412              	.LVL92:
 1413              		.loc 4 121 25 view .LVU408
 1414 006c FFF7FEFF 		bl	_ZN9UIManager14Button1PressedEv
 1415              	.LVL93:
 1416              		.loc 4 121 3 view .LVU409
 1417 0070 C8B1     		cbz	r0, .L63
 122:GrannyChordApp.cpp ****     if (filemgr_.LoadFile(file_idx_)){
 1418              		.loc 4 122 5 is_stmt 1 view .LVU410
 1419              		.loc 4 122 27 is_stmt 0 view .LVU411
 1420 0072 04F5D263 		add	r3, r4, #1680
 1421              		.loc 4 122 26 view .LVU412
 1422 0076 D4F8EC05 		ldr	r0, [r4, #1516]
 1423 007a D3ED007A 		vldr.32	s15, [r3]
 1424 007e FCEEE77A 		vcvt.u32.f32	s15, s15
 1425 0082 17EE903A 		vmov	r3, s15	@ int
 1426 0086 99B2     		uxth	r1, r3
 1427 0088 FFF7FEFF 		bl	_ZN16AudioFileManager8LoadFileEt
 1428              	.LVL94:
 1429              		.loc 4 122 5 view .LVU413
 1430 008c 0546     		mov	r5, r0
 1431 008e 20B1     		cbz	r0, .L61
 123:GrannyChordApp.cpp ****       InitSynth();
 1432              		.loc 4 123 7 is_stmt 1 view .LVU414
 1433              		.loc 4 123 16 is_stmt 0 view .LVU415
 1434 0090 2046     		mov	r0, r4
 1435 0092 FFF7FEFF 		bl	_ZN14GrannyChordApp9InitSynthEv
 1436              	.LVL95:
 124:GrannyChordApp.cpp ****       return true;
ARM GAS  /var/folders/2p/02m_5p7958535cp2tpgps0400000gn/T//ccYth1xv.s 			page 40


 1437              		.loc 4 124 7 is_stmt 1 view .LVU416
 1438              	.L54:
 1439              		.loc 4 124 7 is_stmt 0 view .LVU417
 1440              	.LBE313:
 1441              	.LBE312:
 125:GrannyChordApp.cpp ****     } 
 126:GrannyChordApp.cpp ****     else {
 127:GrannyChordApp.cpp ****       ui_.SetStateError();
 128:GrannyChordApp.cpp ****       // pod.seed.PrintLine("Failed to load audio file");
 129:GrannyChordApp.cpp ****       return false;
 130:GrannyChordApp.cpp ****     }
 131:GrannyChordApp.cpp ****   }
 132:GrannyChordApp.cpp ****   return true;
 133:GrannyChordApp.cpp **** }
 1442              		.loc 4 133 1 view .LVU418
 1443 0096 2846     		mov	r0, r5
 1444 0098 70BD     		pop	{r4, r5, r6, pc}
 1445              	.LVL96:
 1446              	.L61:
 1447              	.LBB322:
 1448              	.LBB320:
 127:GrannyChordApp.cpp ****       // pod.seed.PrintLine("Failed to load audio file");
 1449              		.loc 4 127 7 is_stmt 1 view .LVU419
 127:GrannyChordApp.cpp ****       // pod.seed.PrintLine("Failed to load audio file");
 1450              		.loc 4 127 24 is_stmt 0 view .LVU420
 1451 009a 3046     		mov	r0, r6
 1452 009c FFF7FEFF 		bl	_ZN9UIManager13SetStateErrorEv
 1453              	.LVL97:
 129:GrannyChordApp.cpp ****     }
 1454              		.loc 4 129 7 is_stmt 1 view .LVU421
 129:GrannyChordApp.cpp ****     }
 1455              		.loc 4 129 14 is_stmt 0 view .LVU422
 1456 00a0 F9E7     		b	.L54
 1457              	.LVL98:
 1458              	.L62:
 129:GrannyChordApp.cpp ****     }
 1459              		.loc 4 129 14 view .LVU423
 1460              	.LBE320:
 1461              	.LBE322:
 104:GrannyChordApp.cpp ****   }
 1462              		.loc 4 104 12 view .LVU424
 1463 00a2 0025     		movs	r5, #0
 1464 00a4 F7E7     		b	.L54
 1465              	.LVL99:
 1466              	.L63:
 1467              	.LBB323:
 1468              	.LBB321:
 132:GrannyChordApp.cpp **** }
 1469              		.loc 4 132 10 view .LVU425
 1470 00a6 0125     		movs	r5, #1
 1471 00a8 F5E7     		b	.L54
 1472              	.LBE321:
 1473              	.LBE323:
 1474              		.cfi_endproc
 1475              	.LFE4797:
 1477              		.section	.text._ZN14GrannyChordApp4InitEv,"ax",%progbits
 1478              		.align	1
ARM GAS  /var/folders/2p/02m_5p7958535cp2tpgps0400000gn/T//ccYth1xv.s 			page 41


 1479              		.global	_ZN14GrannyChordApp4InitEv
 1480              		.syntax unified
 1481              		.thumb
 1482              		.thumb_func
 1484              	_ZN14GrannyChordApp4InitEv:
 1485              	.LVL100:
 1486              	.LFB4791:
   3:GrannyChordApp.cpp ****   pod_.SetAudioBlockSize(4);
 1487              		.loc 4 3 28 is_stmt 1 view -0
 1488              		.cfi_startproc
 1489              		@ args = 0, pretend = 0, frame = 0
 1490              		@ frame_needed = 0, uses_anonymous_args = 0
   5:GrannyChordApp.cpp ****   pod_.SetAudioSampleRate(SaiHandle::Config::SampleRate::SAI_48KHZ);
 1491              		.loc 4 5 3 view .LVU427
   3:GrannyChordApp.cpp ****   pod_.SetAudioBlockSize(4);
 1492              		.loc 4 3 28 is_stmt 0 view .LVU428
 1493 0000 38B5     		push	{r3, r4, r5, lr}
 1494              		.cfi_def_cfa_offset 16
 1495              		.cfi_offset 3, -16
 1496              		.cfi_offset 4, -12
 1497              		.cfi_offset 5, -8
 1498              		.cfi_offset 14, -4
   3:GrannyChordApp.cpp ****   pod_.SetAudioBlockSize(4);
 1499              		.loc 4 3 28 view .LVU429
 1500 0002 0446     		mov	r4, r0
   5:GrannyChordApp.cpp ****   pod_.SetAudioSampleRate(SaiHandle::Config::SampleRate::SAI_48KHZ);
 1501              		.loc 4 5 25 view .LVU430
 1502 0004 0421     		movs	r1, #4
 1503 0006 0068     		ldr	r0, [r0]
 1504              	.LVL101:
   5:GrannyChordApp.cpp ****   pod_.SetAudioSampleRate(SaiHandle::Config::SampleRate::SAI_48KHZ);
 1505              		.loc 4 5 25 view .LVU431
 1506 0008 FFF7FEFF 		bl	_ZN5daisy8DaisyPod17SetAudioBlockSizeEj
 1507              	.LVL102:
   6:GrannyChordApp.cpp ****   SeedRng();
 1508              		.loc 4 6 3 is_stmt 1 view .LVU432
   6:GrannyChordApp.cpp ****   SeedRng();
 1509              		.loc 4 6 26 is_stmt 0 view .LVU433
 1510 000c 0321     		movs	r1, #3
 1511 000e 2068     		ldr	r0, [r4]
   8:GrannyChordApp.cpp ****   if (!InitFileMgr()){
 1512              		.loc 4 8 11 view .LVU434
 1513 0010 04F2F455 		addw	r5, r4, #1524
   6:GrannyChordApp.cpp ****   SeedRng();
 1514              		.loc 4 6 26 view .LVU435
 1515 0014 FFF7FEFF 		bl	_ZN5daisy8DaisyPod18SetAudioSampleRateENS_9SaiHandle6Config10SampleRateE
 1516              	.LVL103:
   7:GrannyChordApp.cpp ****   ui_.Init();
 1517              		.loc 4 7 3 is_stmt 1 view .LVU436
 1518              	.LBB329:
 1519              	.LBI329:
 1520              		.file 7 "constants_utils.h"
   1:constants_utils.h **** #pragma once
   2:constants_utils.h **** #include "stddef.h"
   3:constants_utils.h **** #include <time.h>
   4:constants_utils.h **** 
   5:constants_utils.h **** const int SAMPLE_RATE = 48000;
ARM GAS  /var/folders/2p/02m_5p7958535cp2tpgps0400000gn/T//ccYth1xv.s 			page 42


   6:constants_utils.h **** constexpr float SAMPLE_RATE_FLOAT = 48000.f;
   7:constants_utils.h **** 
   8:constants_utils.h **** constexpr size_t CHNL_BUF_SIZE_SAMPS = 8*1024*1024;
   9:constants_utils.h **** /* above is max number of samples per channel
  10:constants_utils.h ****   so we allocate int16s - each is 2bytes -> 16mb */
  11:constants_utils.h **** const size_t ABS_CHNL_BUF_SIZE = 16*1024*1024;
  12:constants_utils.h **** const int BIT_DEPTH = 16;
  13:constants_utils.h **** /* min/max number of concurrent active grains */
  14:constants_utils.h **** const int MIN_GRAINS = 1;
  15:constants_utils.h **** const int MAX_GRAINS = 20;
  16:constants_utils.h **** 
  17:constants_utils.h **** constexpr float MIN_GRAIN_SIZE_MS = 100.0f;
  18:constants_utils.h **** constexpr float MAX_GRAIN_SIZE_MS = 3000.0f;
  19:constants_utils.h **** constexpr size_t MIN_GRAIN_SIZE_SAMPLES = 4800; // 100ms at 48kHz
  20:constants_utils.h **** constexpr size_t MAX_GRAIN_SIZE_SAMPLES = 144000; // 3s at 48kHz
  21:constants_utils.h **** constexpr float MIN_PITCH = 0.5f;
  22:constants_utils.h **** constexpr float MAX_PITCH = 3.0f;
  23:constants_utils.h **** 
  24:constants_utils.h **** /* converts milliseconds to number of samples */
  25:constants_utils.h **** inline constexpr size_t MsToSamples(float ms){
  26:constants_utils.h ****   return static_cast<size_t>(SAMPLE_RATE_FLOAT * (ms*0.001f));
  27:constants_utils.h **** }
  28:constants_utils.h **** 
  29:constants_utils.h **** /* converts number of samples to milliseconds */
  30:constants_utils.h **** inline constexpr float SamplesToMs(size_t samples){
  31:constants_utils.h ****   return (static_cast<float>(samples) * 1000.0f) / SAMPLE_RATE_FLOAT; 
  32:constants_utils.h **** }
  33:constants_utils.h **** 
  34:constants_utils.h **** static const int NUM_ENV_TYPES = 4;
  35:constants_utils.h **** static const int NUM_PHASOR_MODES = 4;
  36:constants_utils.h **** static const int NUM_SYNTH_MODES = 7;
  37:constants_utils.h **** const float PARAM_CHANGE_THRESHOLD = 0.01f;
  38:constants_utils.h **** 
  39:constants_utils.h **** extern uint32_t rng_state;
  40:constants_utils.h **** 
  41:constants_utils.h **** inline void SeedRng(){
 1521              		.loc 7 41 13 view .LVU437
 1522              	.LBB330:
  42:constants_utils.h ****   rng_state = static_cast<uint32_t>(time(nullptr));
 1523              		.loc 7 42 3 view .LVU438
 1524              		.loc 7 42 41 is_stmt 0 view .LVU439
 1525 0018 0020     		movs	r0, #0
 1526 001a FFF7FEFF 		bl	time
 1527              	.LVL104:
 1528              		.loc 7 42 13 view .LVU440
 1529 001e 144B     		ldr	r3, .L75
 1530 0020 1860     		str	r0, [r3]
 1531              	.LBE330:
 1532              	.LBE329:
   8:GrannyChordApp.cpp ****   if (!InitFileMgr()){
 1533              		.loc 4 8 3 is_stmt 1 view .LVU441
   8:GrannyChordApp.cpp ****   if (!InitFileMgr()){
 1534              		.loc 4 8 11 is_stmt 0 view .LVU442
 1535 0022 2846     		mov	r0, r5
 1536 0024 FFF7FEFF 		bl	_ZN9UIManager4InitEv
 1537              	.LVL105:
   9:GrannyChordApp.cpp ****     return;
ARM GAS  /var/folders/2p/02m_5p7958535cp2tpgps0400000gn/T//ccYth1xv.s 			page 43


 1538              		.loc 4 9 3 is_stmt 1 view .LVU443
   9:GrannyChordApp.cpp ****     return;
 1539              		.loc 4 9 19 is_stmt 0 view .LVU444
 1540 0028 2046     		mov	r0, r4
 1541 002a FFF7FEFF 		bl	_ZN14GrannyChordApp11InitFileMgrEv
 1542              	.LVL106:
   9:GrannyChordApp.cpp ****     return;
 1543              		.loc 4 9 3 view .LVU445
 1544 002e F0B1     		cbz	r0, .L66
  12:GrannyChordApp.cpp ****   if (!HandleFileSelection()){
 1545              		.loc 4 12 3 is_stmt 1 view .LVU446
  12:GrannyChordApp.cpp ****   if (!HandleFileSelection()){
 1546              		.loc 4 12 15 is_stmt 0 view .LVU447
 1547 0030 2846     		mov	r0, r5
 1548 0032 0121     		movs	r1, #1
 1549 0034 FFF7FEFF 		bl	_ZN9UIManager8SetStateE8AppState
 1550              	.LVL107:
  13:GrannyChordApp.cpp ****     return;
 1551              		.loc 4 13 3 is_stmt 1 view .LVU448
  13:GrannyChordApp.cpp ****     return;
 1552              		.loc 4 13 27 is_stmt 0 view .LVU449
 1553 0038 2046     		mov	r0, r4
 1554 003a FFF7FEFF 		bl	_ZN14GrannyChordApp19HandleFileSelectionEv
 1555              	.LVL108:
  13:GrannyChordApp.cpp ****     return;
 1556              		.loc 4 13 3 view .LVU450
 1557 003e B0B1     		cbz	r0, .L66
  16:GrannyChordApp.cpp **** 
 1558              		.loc 4 16 3 is_stmt 1 view .LVU451
  16:GrannyChordApp.cpp **** 
 1559              		.loc 4 16 17 is_stmt 0 view .LVU452
 1560 0040 2046     		mov	r0, r4
 1561 0042 FFF7FEFF 		bl	_ZN14GrannyChordApp14InitCompressorEv
 1562              	.LVL109:
  19:GrannyChordApp.cpp **** 
 1563              		.loc 4 19 3 is_stmt 1 view .LVU453
 1564              	.LBB331:
 1565              	.LBI331:
 1566              		.file 8 "GrannyChordApp.h"
   1:GrannyChordApp.h **** #pragma once 
   2:GrannyChordApp.h **** #include "daisy_pod.h"
   3:GrannyChordApp.h **** #include "daisysp.h"
   4:GrannyChordApp.h **** #include "UIManager.h"
   5:GrannyChordApp.h **** #include "GranularSynth.h"
   6:GrannyChordApp.h **** #include "AudioFileManager.h"
   7:GrannyChordApp.h **** #include "../DaisySP/DaisySP-LGPL/Source/Dynamics/compressor.cpp"
   8:GrannyChordApp.h **** 
   9:GrannyChordApp.h **** using namespace daisy;
  10:GrannyChordApp.h **** using namespace daisysp;
  11:GrannyChordApp.h **** 
  12:GrannyChordApp.h **** class GrannyChordApp {
  13:GrannyChordApp.h ****   public:
  14:GrannyChordApp.h ****   GrannyChordApp(DaisyPod& pod, GranularSynth& synth, AudioFileManager& filemgr)
  15:GrannyChordApp.h ****         : pod_(pod), synth_(synth), 
  16:GrannyChordApp.h ****           filemgr_(filemgr), ui_(pod) {};
  17:GrannyChordApp.h **** 
  18:GrannyChordApp.h ****     void Init();
ARM GAS  /var/folders/2p/02m_5p7958535cp2tpgps0400000gn/T//ccYth1xv.s 			page 44


  19:GrannyChordApp.h ****     void Run();
  20:GrannyChordApp.h ****     static void AudioCallback(AudioHandle::InputBuffer in, AudioHandle::OutputBuffer out, size_t si
  21:GrannyChordApp.h ****     // GranularSynth &synth_;
  22:GrannyChordApp.h ****     // Compressor comp_;
  23:GrannyChordApp.h ****     static GrannyChordApp* instance_;
  24:GrannyChordApp.h **** 
  25:GrannyChordApp.h ****   private:
  26:GrannyChordApp.h ****     DaisyPod &pod_;
  27:GrannyChordApp.h ****     GranularSynth synth_;
  28:GrannyChordApp.h ****     AudioFileManager &filemgr_;
  29:GrannyChordApp.h ****     FIL *file_;
  30:GrannyChordApp.h ****     UIManager ui_;
  31:GrannyChordApp.h ****     Compressor comp_;
  32:GrannyChordApp.h **** 
  33:GrannyChordApp.h **** 
  34:GrannyChordApp.h ****     float file_idx_ = 0; 
  35:GrannyChordApp.h ****     // AppState curr_state_;
  36:GrannyChordApp.h ****     // const float PARAM_CHANGE_THRESHOLD = 0.01f;
  37:GrannyChordApp.h ****     float prev_grain_size_ = 0.5f;
  38:GrannyChordApp.h ****     float prev_pos_ = 0.5f;
  39:GrannyChordApp.h ****     float prev_active_count_ = 0.5f;
  40:GrannyChordApp.h ****     float prev_pitch_ = 0.5f;
  41:GrannyChordApp.h ****     /* previous values for parameters controlled by knob 1*/
  42:GrannyChordApp.h ****     float prev_param_vals_k1[NUM_SYNTH_MODES];
  43:GrannyChordApp.h ****     float prev_param_vals_k2[NUM_SYNTH_MODES];
  44:GrannyChordApp.h **** 
  45:GrannyChordApp.h **** 
  46:GrannyChordApp.h ****     // initialise file manager, ui manager, do startup stuff
  47:GrannyChordApp.h ****     // get updated state from ui manager
  48:GrannyChordApp.h ****     bool InitFileMgr();
  49:GrannyChordApp.h ****     void InitSynth();
  50:GrannyChordApp.h ****     void InitCompressor();
  51:GrannyChordApp.h ****     // handle file selection, playback, chord mode
  52:GrannyChordApp.h **** 
  53:GrannyChordApp.h ****     void HandleStateChange(AppState prev, AppState curr);
  54:GrannyChordApp.h ****     bool HandleFileSelection();
  55:GrannyChordApp.h ****     void HandleGranulation();
  56:GrannyChordApp.h **** 
  57:GrannyChordApp.h ****     void UpdateSynthParams();
  58:GrannyChordApp.h ****     void UpdateGranularParams();
  59:GrannyChordApp.h ****     bool CheckParamDelta(float curr_val, float prev_val);
  60:GrannyChordApp.h **** 
  61:GrannyChordApp.h ****     void InitPrevParamVals(){
 1567              		.loc 8 61 10 view .LVU454
 1568              	.LBE331:
  62:GrannyChordApp.h ****       for (int i=0; i < NUM_SYNTH_MODES;i++){
 1569              		.loc 8 62 7 view .LVU455
 1570              	.LBB333:
 1571              	.LBB332:
 1572              		.loc 8 62 23 view .LVU456
 1573 0046 04F2A463 		addw	r3, r4, #1700
 1574 004a 04F5D861 		add	r1, r4, #1728
 1575              	.LVL110:
 1576              	.L70:
  63:GrannyChordApp.h ****         prev_param_vals_k1[i] = 0.5f;
 1577              		.loc 8 63 9 view .LVU457
 1578              		.loc 8 63 31 is_stmt 0 view .LVU458
ARM GAS  /var/folders/2p/02m_5p7958535cp2tpgps0400000gn/T//ccYth1xv.s 			page 45


 1579 004e 4FF07C52 		mov	r2, #1056964608
 1580 0052 43F8042B 		str	r2, [r3], #4	@ float
  64:GrannyChordApp.h ****         prev_param_vals_k2[i] = 0.5f;
 1581              		.loc 8 64 9 is_stmt 1 view .LVU459
  62:GrannyChordApp.h ****       for (int i=0; i < NUM_SYNTH_MODES;i++){
 1582              		.loc 8 62 23 is_stmt 0 view .LVU460
 1583 0056 8B42     		cmp	r3, r1
 1584              		.loc 8 64 31 view .LVU461
 1585 0058 9A61     		str	r2, [r3, #24]	@ float
  62:GrannyChordApp.h ****       for (int i=0; i < NUM_SYNTH_MODES;i++){
 1586              		.loc 8 62 7 is_stmt 1 view .LVU462
  62:GrannyChordApp.h ****       for (int i=0; i < NUM_SYNTH_MODES;i++){
 1587              		.loc 8 62 23 view .LVU463
 1588 005a F8D1     		bne	.L70
 1589              	.LVL111:
  62:GrannyChordApp.h ****       for (int i=0; i < NUM_SYNTH_MODES;i++){
 1590              		.loc 8 62 23 is_stmt 0 view .LVU464
 1591              	.LBE332:
 1592              	.LBE333:
  21:GrannyChordApp.cpp ****   pod_.StartAudio(AudioCallback);
 1593              		.loc 4 21 3 is_stmt 1 view .LVU465
  21:GrannyChordApp.cpp ****   pod_.StartAudio(AudioCallback);
 1594              		.loc 4 21 16 is_stmt 0 view .LVU466
 1595 005c 2068     		ldr	r0, [r4]
 1596 005e FFF7FEFF 		bl	_ZN5daisy8DaisyPod8StartAdcEv
 1597              	.LVL112:
  22:GrannyChordApp.cpp **** }
 1598              		.loc 4 22 3 is_stmt 1 view .LVU467
  22:GrannyChordApp.cpp **** }
 1599              		.loc 4 22 18 is_stmt 0 view .LVU468
 1600 0062 2068     		ldr	r0, [r4]
 1601 0064 0349     		ldr	r1, .L75+4
  23:GrannyChordApp.cpp **** 
 1602              		.loc 4 23 1 view .LVU469
 1603 0066 BDE83840 		pop	{r3, r4, r5, lr}
 1604              		.cfi_remember_state
 1605              		.cfi_restore 14
 1606              		.cfi_restore 5
 1607              		.cfi_restore 4
 1608              		.cfi_restore 3
 1609              		.cfi_def_cfa_offset 0
 1610              	.LVL113:
  22:GrannyChordApp.cpp **** }
 1611              		.loc 4 22 18 view .LVU470
 1612 006a FFF7FEBF 		b	_ZN5daisy8DaisyPod10StartAudioEPFvPKPKfPPfjE
 1613              	.LVL114:
 1614              	.L66:
 1615              		.cfi_restore_state
  23:GrannyChordApp.cpp **** 
 1616              		.loc 4 23 1 view .LVU471
 1617 006e 38BD     		pop	{r3, r4, r5, pc}
 1618              	.LVL115:
 1619              	.L76:
  23:GrannyChordApp.cpp **** 
 1620              		.loc 4 23 1 view .LVU472
 1621              		.align	2
 1622              	.L75:
ARM GAS  /var/folders/2p/02m_5p7958535cp2tpgps0400000gn/T//ccYth1xv.s 			page 46


 1623 0070 00000000 		.word	rng_state
 1624 0074 00000000 		.word	_ZN14GrannyChordApp13AudioCallbackEPKPKfPPfj
 1625              		.cfi_endproc
 1626              	.LFE4791:
 1628              		.section	.text._ZN14GrannyChordApp20UpdateGranularParamsEv,"ax",%progbits
 1629              		.align	1
 1630              		.global	_ZN14GrannyChordApp20UpdateGranularParamsEv
 1631              		.syntax unified
 1632              		.thumb
 1633              		.thumb_func
 1635              	_ZN14GrannyChordApp20UpdateGranularParamsEv:
 1636              	.LVL116:
 1637              	.LFB4799:
 134:GrannyChordApp.cpp **** 
 135:GrannyChordApp.cpp **** 
 136:GrannyChordApp.cpp **** 
 137:GrannyChordApp.cpp **** 
 138:GrannyChordApp.cpp **** 
 139:GrannyChordApp.cpp **** void GrannyChordApp::UpdateSynthParams(){
 140:GrannyChordApp.cpp ****   AppState curr_state = ui_.GetCurrentState();
 141:GrannyChordApp.cpp ****   if (curr_state==AppState::Synthesis){
 142:GrannyChordApp.cpp ****     UpdateGranularParams();
 143:GrannyChordApp.cpp ****   }
 144:GrannyChordApp.cpp ****   // else if (curr_state==AppState::ChordMode){
 145:GrannyChordApp.cpp ****   //   UpdateChordParams();
 146:GrannyChordApp.cpp ****   // }
 147:GrannyChordApp.cpp **** }
 148:GrannyChordApp.cpp **** 
 149:GrannyChordApp.cpp **** void GrannyChordApp::UpdateGranularParams(){
 1638              		.loc 4 149 44 is_stmt 1 view -0
 1639              		.cfi_startproc
 1640              		@ args = 0, pretend = 0, frame = 8
 1641              		@ frame_needed = 0, uses_anonymous_args = 0
 150:GrannyChordApp.cpp ****   SynthMode mode = ui_.GetSynthMode();
 1642              		.loc 4 150 3 view .LVU474
 1643              	.LBB334:
 1644              	.LBI334:
  15:UIManager.h   ****     SynthMode GetSynthMode() { return synth_mode_; }
 1645              		.loc 5 15 15 view .LVU475
 1646              	.LBB335:
 1647              		.loc 5 15 32 view .LVU476
 1648              	.LBE335:
 1649              	.LBE334:
 149:GrannyChordApp.cpp ****   SynthMode mode = ui_.GetSynthMode();
 1650              		.loc 4 149 44 is_stmt 0 view .LVU477
 1651 0000 F0B5     		push	{r4, r5, r6, r7, lr}
 1652              		.cfi_def_cfa_offset 20
 1653              		.cfi_offset 4, -20
 1654              		.cfi_offset 5, -16
 1655              		.cfi_offset 6, -12
 1656              		.cfi_offset 7, -8
 1657              		.cfi_offset 14, -4
 1658              	.LBB337:
 1659              	.LBB336:
 1660              		.loc 5 15 39 view .LVU478
 1661 0002 D0F8FC75 		ldr	r7, [r0, #1532]
 1662              	.LVL117:
ARM GAS  /var/folders/2p/02m_5p7958535cp2tpgps0400000gn/T//ccYth1xv.s 			page 47


 1663              		.loc 5 15 39 view .LVU479
 1664              	.LBE336:
 1665              	.LBE337:
 151:GrannyChordApp.cpp ****   int mode_idx = static_cast<int>(mode);
 1666              		.loc 4 151 3 is_stmt 1 view .LVU480
 152:GrannyChordApp.cpp ****   float knob1_val = ui_.GetKnob1Value(mode_idx);
 1667              		.loc 4 152 3 view .LVU481
 149:GrannyChordApp.cpp ****   SynthMode mode = ui_.GetSynthMode();
 1668              		.loc 4 149 44 is_stmt 0 view .LVU482
 1669 0006 0446     		mov	r4, r0
 1670              		.loc 4 152 38 view .LVU483
 1671 0008 00F2F450 		addw	r0, r0, #1524
 1672              	.LVL118:
 1673              		.loc 4 152 38 view .LVU484
 1674 000c 04EB8705 		add	r5, r4, r7, lsl #2
 1675 0010 3946     		mov	r1, r7
 149:GrannyChordApp.cpp ****   SynthMode mode = ui_.GetSynthMode();
 1676              		.loc 4 149 44 view .LVU485
 1677 0012 2DED048B 		vpush.64	{d8, d9}
 1678              		.cfi_def_cfa_offset 36
 1679              		.cfi_offset 80, -36
 1680              		.cfi_offset 81, -32
 1681              		.cfi_offset 82, -28
 1682              		.cfi_offset 83, -24
 1683 0016 83B0     		sub	sp, sp, #12
 1684              		.cfi_def_cfa_offset 48
 153:GrannyChordApp.cpp ****   float knob2_val = ui_.GetKnob2Value(mode_idx);
 154:GrannyChordApp.cpp ****   if (CheckParamDelta(knob1_val, prev_param_vals_k1[mode_idx])){
 1685              		.loc 4 154 22 view .LVU486
 1686 0018 05F2A466 		addw	r6, r5, #1700
 1687              		.loc 4 154 3 view .LVU487
 1688 001c 9FED499A 		vldr.32	s18, .L104
 152:GrannyChordApp.cpp ****   float knob1_val = ui_.GetKnob1Value(mode_idx);
 1689              		.loc 4 152 38 view .LVU488
 1690 0020 0190     		str	r0, [sp, #4]
 1691 0022 FFF7FEFF 		bl	_ZN9UIManager13GetKnob1ValueEi
 1692              	.LVL119:
 153:GrannyChordApp.cpp ****   float knob2_val = ui_.GetKnob2Value(mode_idx);
 1693              		.loc 4 153 38 view .LVU489
 1694 0026 3946     		mov	r1, r7
 152:GrannyChordApp.cpp ****   float knob1_val = ui_.GetKnob1Value(mode_idx);
 1695              		.loc 4 152 38 view .LVU490
 1696 0028 F0EE408A 		vmov.f32	s17, s0
 1697              	.LVL120:
 153:GrannyChordApp.cpp ****   float knob2_val = ui_.GetKnob2Value(mode_idx);
 1698              		.loc 4 153 3 is_stmt 1 view .LVU491
 153:GrannyChordApp.cpp ****   float knob2_val = ui_.GetKnob2Value(mode_idx);
 1699              		.loc 4 153 38 is_stmt 0 view .LVU492
 1700 002c 0198     		ldr	r0, [sp, #4]
 1701 002e FFF7FEFF 		bl	_ZN9UIManager13GetKnob2ValueEi
 1702              	.LVL121:
 1703              	.LBB338:
 1704              	.LBB339:
 155:GrannyChordApp.cpp ****     switch (mode){
 156:GrannyChordApp.cpp ****       case SynthMode::Size_Position:
 157:GrannyChordApp.cpp ****         synth_.SetUserGrainSize(knob1_val);
 158:GrannyChordApp.cpp ****         break;
ARM GAS  /var/folders/2p/02m_5p7958535cp2tpgps0400000gn/T//ccYth1xv.s 			page 48


 159:GrannyChordApp.cpp ****       case SynthMode::Pitch_ActiveGrains:
 160:GrannyChordApp.cpp ****         synth_.SetUserPitchRatio(knob1_val);
 161:GrannyChordApp.cpp ****         break;
 162:GrannyChordApp.cpp ****       case SynthMode::Pan_PanRnd:
 163:GrannyChordApp.cpp ****         synth_.SetPan(knob1_val);
 164:GrannyChordApp.cpp ****         break;
 165:GrannyChordApp.cpp ****       case SynthMode::PhasorMode_EnvType:
 166:GrannyChordApp.cpp ****         knob1_val = fmap(knob1_val, 0, NUM_PHASOR_MODES);
 167:GrannyChordApp.cpp ****         synth_.SetPhasorMode(static_cast<GrainPhasor::Mode>(knob1_val));
 168:GrannyChordApp.cpp ****         break;
 169:GrannyChordApp.cpp ****       case SynthMode::Size_Position_Rnd:
 170:GrannyChordApp.cpp ****         synth_.SetSizeRnd(knob1_val);
 171:GrannyChordApp.cpp ****         break;
 172:GrannyChordApp.cpp ****       case SynthMode::Pitch_ActiveGrains_Rnd:
 173:GrannyChordApp.cpp ****         synth_.SetPitchRnd(knob1_val);
 174:GrannyChordApp.cpp ****         break;
 175:GrannyChordApp.cpp ****       case SynthMode::PhasorMode_EnvType_Rnd:
 176:GrannyChordApp.cpp ****         synth_.SetPhasorRnd(knob1_val);
 177:GrannyChordApp.cpp ****         break;
 178:GrannyChordApp.cpp ****     }
 179:GrannyChordApp.cpp ****   prev_param_vals_k1[mode_idx] = knob1_val;
 180:GrannyChordApp.cpp ****   }
 181:GrannyChordApp.cpp ****   if (CheckParamDelta(knob2_val, prev_param_vals_k2[mode_idx])){
 182:GrannyChordApp.cpp ****     switch (mode){
 183:GrannyChordApp.cpp ****       case SynthMode::Size_Position:
 184:GrannyChordApp.cpp ****         synth_.SetUserSpawnPos(knob2_val);
 185:GrannyChordApp.cpp ****       case SynthMode::Pitch_ActiveGrains:
 186:GrannyChordApp.cpp ****         synth_.SetUserActiveGrains(knob2_val);
 187:GrannyChordApp.cpp ****       case SynthMode::Pan_PanRnd:
 188:GrannyChordApp.cpp ****         synth_.SetPanRnd(knob2_val);
 189:GrannyChordApp.cpp ****         break;
 190:GrannyChordApp.cpp ****       case SynthMode::PhasorMode_EnvType:
 191:GrannyChordApp.cpp ****         knob2_val = fmap(knob2_val, 0, NUM_ENV_TYPES);
 192:GrannyChordApp.cpp ****         synth_.SetEnvelopeType(static_cast<Grain::EnvelopeType>(knob2_val));
 193:GrannyChordApp.cpp ****         break;
 194:GrannyChordApp.cpp ****       case SynthMode::Size_Position_Rnd:
 195:GrannyChordApp.cpp ****         synth_.SetPositionRnd(knob2_val);
 196:GrannyChordApp.cpp ****         break;
 197:GrannyChordApp.cpp ****       case SynthMode::Pitch_ActiveGrains_Rnd:
 198:GrannyChordApp.cpp ****         synth_.SetCountRnd(knob2_val);
 199:GrannyChordApp.cpp ****         break;
 200:GrannyChordApp.cpp ****       case SynthMode::PhasorMode_EnvType_Rnd:
 201:GrannyChordApp.cpp ****         synth_.SetEnvRnd(knob2_val);
 202:GrannyChordApp.cpp ****         break;
 203:GrannyChordApp.cpp ****     }
 204:GrannyChordApp.cpp ****     prev_param_vals_k2[mode_idx] = knob2_val;
 205:GrannyChordApp.cpp ****   }
 206:GrannyChordApp.cpp **** }
 207:GrannyChordApp.cpp **** 
 208:GrannyChordApp.cpp **** bool GrannyChordApp::CheckParamDelta(float curr_val, float prev_val){
 209:GrannyChordApp.cpp ****   return (fabsf(curr_val - prev_val)>0.01f);
 1705              		.loc 4 209 26 view .LVU493
 1706 0032 D6ED007A 		vldr.32	s15, [r6]
 1707              	.LBE339:
 1708              	.LBE338:
 153:GrannyChordApp.cpp ****   float knob2_val = ui_.GetKnob2Value(mode_idx);
 1709              		.loc 4 153 38 view .LVU494
ARM GAS  /var/folders/2p/02m_5p7958535cp2tpgps0400000gn/T//ccYth1xv.s 			page 49


 1710 0036 B0EE408A 		vmov.f32	s16, s0
 1711              	.LVL122:
 154:GrannyChordApp.cpp ****     switch (mode){
 1712              		.loc 4 154 3 is_stmt 1 view .LVU495
 1713              	.LBB341:
 1714              	.LBI338:
 208:GrannyChordApp.cpp ****   return (fabsf(curr_val - prev_val)>0.01f);
 1715              		.loc 4 208 6 view .LVU496
 1716              	.LBB340:
 1717              		.loc 4 209 3 view .LVU497
 1718              		.loc 4 209 26 is_stmt 0 view .LVU498
 1719 003a 78EEE77A 		vsub.f32	s15, s17, s15
 1720              		.loc 4 209 16 view .LVU499
 1721 003e F0EEE77A 		vabs.f32	s15, s15
 1722              	.LBE340:
 1723              	.LBE341:
 154:GrannyChordApp.cpp ****     switch (mode){
 1724              		.loc 4 154 3 view .LVU500
 1725 0042 F4EEC97A 		vcmpe.f32	s15, s18
 1726 0046 F1EE10FA 		vmrs	APSR_nzcv, FPSCR
 1727 004a 0EDD     		ble	.L78
 155:GrannyChordApp.cpp ****     switch (mode){
 1728              		.loc 4 155 5 is_stmt 1 view .LVU501
 1729 004c 062F     		cmp	r7, #6
 1730 004e 0AD8     		bhi	.L80
 1731 0050 DFE807F0 		tbb	[pc, r7]
 1732              	.L82:
 1733 0054 04       		.byte	(.L88-.L82)/2
 1734 0055 20       		.byte	(.L87-.L82)/2
 1735 0056 2B       		.byte	(.L86-.L82)/2
 1736 0057 3E       		.byte	(.L85-.L82)/2
 1737 0058 41       		.byte	(.L84-.L82)/2
 1738 0059 44       		.byte	(.L83-.L82)/2
 1739 005a 26       		.byte	(.L81-.L82)/2
 1740 005b 00       		.p2align 1
 1741              	.L88:
 156:GrannyChordApp.cpp ****         synth_.SetUserGrainSize(knob1_val);
 1742              		.loc 4 156 7 view .LVU502
 157:GrannyChordApp.cpp ****         break;
 1743              		.loc 4 157 9 view .LVU503
 157:GrannyChordApp.cpp ****         break;
 1744              		.loc 4 157 32 is_stmt 0 view .LVU504
 1745 005c B0EE680A 		vmov.f32	s0, s17
 1746              	.LVL123:
 157:GrannyChordApp.cpp ****         break;
 1747              		.loc 4 157 32 view .LVU505
 1748 0060 201D     		adds	r0, r4, #4
 1749 0062 FFF7FEFF 		bl	_ZN13GranularSynth16SetUserGrainSizeEf
 1750              	.LVL124:
 158:GrannyChordApp.cpp ****       case SynthMode::Pitch_ActiveGrains:
 1751              		.loc 4 158 9 is_stmt 1 view .LVU506
 1752              	.L80:
 179:GrannyChordApp.cpp ****   }
 1753              		.loc 4 179 3 view .LVU507
 179:GrannyChordApp.cpp ****   }
 1754              		.loc 4 179 32 is_stmt 0 view .LVU508
 1755 0066 C6ED008A 		vstr.32	s17, [r6]
ARM GAS  /var/folders/2p/02m_5p7958535cp2tpgps0400000gn/T//ccYth1xv.s 			page 50


 1756              	.L78:
 181:GrannyChordApp.cpp ****     switch (mode){
 1757              		.loc 4 181 3 is_stmt 1 view .LVU509
 1758              	.LVL125:
 1759              	.LBB342:
 1760              	.LBI342:
 208:GrannyChordApp.cpp ****   return (fabsf(curr_val - prev_val)>0.01f);
 1761              		.loc 4 208 6 view .LVU510
 1762              	.LBB343:
 1763              		.loc 4 209 3 view .LVU511
 1764              		.loc 4 209 3 is_stmt 0 view .LVU512
 1765              	.LBE343:
 1766              	.LBE342:
 181:GrannyChordApp.cpp ****     switch (mode){
 1767              		.loc 4 181 22 view .LVU513
 1768 006a 05F5D865 		add	r5, r5, #1728
 1769              	.LBB345:
 1770              	.LBB344:
 1771              		.loc 4 209 26 view .LVU514
 1772 006e D5ED007A 		vldr.32	s15, [r5]
 1773 0072 78EE677A 		vsub.f32	s15, s16, s15
 1774              		.loc 4 209 16 view .LVU515
 1775 0076 F0EEE77A 		vabs.f32	s15, s15
 1776              	.LBE344:
 1777              	.LBE345:
 181:GrannyChordApp.cpp ****     switch (mode){
 1778              		.loc 4 181 3 view .LVU516
 1779 007a F4EEC97A 		vcmpe.f32	s15, s18
 1780 007e F1EE10FA 		vmrs	APSR_nzcv, FPSCR
 1781 0082 51DD     		ble	.L77
 182:GrannyChordApp.cpp ****       case SynthMode::Size_Position:
 1782              		.loc 4 182 5 is_stmt 1 view .LVU517
 1783 0084 062F     		cmp	r7, #6
 1784 0086 4DD8     		bhi	.L91
 1785 0088 DFE807F0 		tbb	[pc, r7]
 1786              	.L93:
 1787 008c 2B       		.byte	(.L99-.L93)/2
 1788 008d 30       		.byte	(.L98-.L93)/2
 1789 008e 3A       		.byte	(.L97-.L93)/2
 1790 008f 52       		.byte	(.L96-.L93)/2
 1791 0090 55       		.byte	(.L95-.L93)/2
 1792 0091 58       		.byte	(.L94-.L93)/2
 1793 0092 35       		.byte	(.L92-.L93)/2
 1794              	.LVL126:
 1795 0093 00       		.p2align 1
 1796              	.L87:
 159:GrannyChordApp.cpp ****         synth_.SetUserPitchRatio(knob1_val);
 1797              		.loc 4 159 7 view .LVU518
 160:GrannyChordApp.cpp ****         break;
 1798              		.loc 4 160 9 view .LVU519
 160:GrannyChordApp.cpp ****         break;
 1799              		.loc 4 160 33 is_stmt 0 view .LVU520
 1800 0094 B0EE680A 		vmov.f32	s0, s17
 1801              	.LVL127:
 160:GrannyChordApp.cpp ****         break;
 1802              		.loc 4 160 33 view .LVU521
 1803 0098 201D     		adds	r0, r4, #4
ARM GAS  /var/folders/2p/02m_5p7958535cp2tpgps0400000gn/T//ccYth1xv.s 			page 51


 1804 009a FFF7FEFF 		bl	_ZN13GranularSynth17SetUserPitchRatioEf
 1805              	.LVL128:
 161:GrannyChordApp.cpp ****       case SynthMode::Pan_PanRnd:
 1806              		.loc 4 161 9 is_stmt 1 view .LVU522
 1807 009e E2E7     		b	.L80
 1808              	.LVL129:
 1809              	.L81:
 162:GrannyChordApp.cpp ****         synth_.SetPan(knob1_val);
 1810              		.loc 4 162 7 view .LVU523
 163:GrannyChordApp.cpp ****         break;
 1811              		.loc 4 163 9 view .LVU524
 1812              	.LBB346:
 1813              	.LBI346:
 1814              		.file 9 "GranularSynth.h"
   1:GranularSynth.h **** #pragma once
   2:GranularSynth.h **** 
   3:GranularSynth.h **** #include "Grain.h"
   4:GranularSynth.h **** #include "daisy_pod.h"
   5:GranularSynth.h **** #include <vector>
   6:GranularSynth.h **** 
   7:GranularSynth.h **** class GranularSynth{
   8:GranularSynth.h ****   public:
   9:GranularSynth.h ****     GranularSynth(DaisyPod& pod) 
  10:GranularSynth.h ****       : pod_(pod), left_buf_(nullptr), right_buf_(nullptr), audio_len_(0),
  11:GranularSynth.h ****         grains_(), phasor_mode_(GrainPhasor::Mode::OneShot),
  12:GranularSynth.h ****         grain_size_(4800), spawn_pos_(0), 
  13:GranularSynth.h ****         active_count_(1), pitch_ratio_(1.0f), pan_(0.5f){}
  14:GranularSynth.h **** 
  15:GranularSynth.h ****     void Init(const int16_t *left, const int16_t *right, size_t audio_len);
  16:GranularSynth.h ****     
  17:GranularSynth.h ****     /* internal setters */
  18:GranularSynth.h ****     void SetGrainSize(float size_ms);
  19:GranularSynth.h ****     void SetSpawnPosSamples(size_t pos);
  20:GranularSynth.h ****     void SetActiveGrains(size_t count);
  21:GranularSynth.h ****     void SetPitchRatio(float ratio);
  22:GranularSynth.h ****     void SetEnvelopeType(Grain::EnvelopeType type){ env_type_ = type; }
  23:GranularSynth.h ****     void SetPhasorMode(GrainPhasor::Mode mode){ phasor_mode_ = mode;}
  24:GranularSynth.h ****     /* don't need a user setter for this
  25:GranularSynth.h ****     since pan range is already 0-1 */
  26:GranularSynth.h ****     void SetPan(float pan){ pan_ = pan; }
 1815              		.loc 9 26 10 view .LVU525
 1816              	.LBB347:
 1817              		.loc 9 26 29 view .LVU526
 1818              		.loc 9 26 34 is_stmt 0 view .LVU527
 1819 00a0 04F2CC53 		addw	r3, r4, #1484
 1820              	.LVL130:
 1821              	.L102:
 1822              		.loc 9 26 34 view .LVU528
 1823              	.LBE347:
 1824              	.LBE346:
 1825              	.LBB348:
 1826              	.LBB349:
  27:GranularSynth.h ****     
  28:GranularSynth.h ****     /* user setters that take normalised input */
  29:GranularSynth.h ****     void SetUserGrainSize(float knob_val);
  30:GranularSynth.h ****     void SetUserSpawnPos(float knob_val);
  31:GranularSynth.h ****     void SetUserActiveGrains(float knob_val);
ARM GAS  /var/folders/2p/02m_5p7958535cp2tpgps0400000gn/T//ccYth1xv.s 			page 52


  32:GranularSynth.h ****     void SetUserPitchRatio(float ratio);
  33:GranularSynth.h **** 
  34:GranularSynth.h ****     void UpdateGrainParams();
  35:GranularSynth.h ****     void ApplyRandomness();
  36:GranularSynth.h ****     void TriggerGrain();
  37:GranularSynth.h ****     void ProcessGrains(float *out_left, float *out_right, size_t size);
  38:GranularSynth.h **** 
  39:GranularSynth.h ****     void SetSizeRnd(float rnd){ rnd_size_ = rnd; }
  40:GranularSynth.h ****     void SetPositionRnd(float rnd){ rnd_spawn_pos_ = rnd; }
  41:GranularSynth.h ****     void SetPitchRnd(float rnd){ rnd_pitch_ = rnd; }
  42:GranularSynth.h ****     void SetCountRnd(float rnd){ rnd_count_ = rnd; }
  43:GranularSynth.h ****     void SetPanRnd(float rnd){ rnd_pan_ = rnd; }
  44:GranularSynth.h ****     void SetEnvRnd(float rnd){ rnd_envelope_ = rnd; }
  45:GranularSynth.h ****     void SetPhasorRnd(float rnd){ rnd_phasor_ = rnd; }
 1827              		.loc 9 45 47 view .LVU529
 1828 00a4 C3ED008A 		vstr.32	s17, [r3]
 1829              		.loc 9 45 54 view .LVU530
 1830 00a8 DDE7     		b	.L80
 1831              	.L86:
 1832              		.loc 9 45 54 view .LVU531
 1833              	.LBE349:
 1834              	.LBE348:
 165:GrannyChordApp.cpp ****         knob1_val = fmap(knob1_val, 0, NUM_PHASOR_MODES);
 1835              		.loc 4 165 7 is_stmt 1 view .LVU532
 166:GrannyChordApp.cpp ****         synth_.SetPhasorMode(static_cast<GrainPhasor::Mode>(knob1_val));
 1836              		.loc 4 166 9 view .LVU533
 1837              	.LVL131:
 1838              	.LBB351:
 1839              	.LBI351:
 135:../DaisySP/Source/Utility/dsp.h **** }
 136:../DaisySP/Source/Utility/dsp.h **** 
 137:../DaisySP/Source/Utility/dsp.h **** /** Midi to frequency helper
 138:../DaisySP/Source/Utility/dsp.h **** */
 139:../DaisySP/Source/Utility/dsp.h **** inline float mtof(float m)
 140:../DaisySP/Source/Utility/dsp.h **** {
 141:../DaisySP/Source/Utility/dsp.h ****     return powf(2, (m - 69.0f) / 12.0f) * 440.0f;
 142:../DaisySP/Source/Utility/dsp.h **** }
 143:../DaisySP/Source/Utility/dsp.h **** 
 144:../DaisySP/Source/Utility/dsp.h **** 
 145:../DaisySP/Source/Utility/dsp.h **** /** one pole lpf
 146:../DaisySP/Source/Utility/dsp.h **** out is passed by reference, and must be retained between
 147:../DaisySP/Source/Utility/dsp.h **** calls to properly filter the signal
 148:../DaisySP/Source/Utility/dsp.h **** coeff can be calculated:
 149:../DaisySP/Source/Utility/dsp.h **** coeff = 1.0 / (time * sample_rate) ; where time is in seconds
 150:../DaisySP/Source/Utility/dsp.h **** */
 151:../DaisySP/Source/Utility/dsp.h **** inline void fonepole(float &out, float in, float coeff)
 152:../DaisySP/Source/Utility/dsp.h **** {
 153:../DaisySP/Source/Utility/dsp.h ****     out += coeff * (in - out);
 154:../DaisySP/Source/Utility/dsp.h **** }
 155:../DaisySP/Source/Utility/dsp.h **** 
 156:../DaisySP/Source/Utility/dsp.h **** /** Curves to use with the fmap function */
 157:../DaisySP/Source/Utility/dsp.h **** enum class Mapping
 158:../DaisySP/Source/Utility/dsp.h **** {
 159:../DaisySP/Source/Utility/dsp.h ****     LINEAR,
 160:../DaisySP/Source/Utility/dsp.h ****     EXP,
 161:../DaisySP/Source/Utility/dsp.h ****     LOG,
 162:../DaisySP/Source/Utility/dsp.h **** };
ARM GAS  /var/folders/2p/02m_5p7958535cp2tpgps0400000gn/T//ccYth1xv.s 			page 53


 163:../DaisySP/Source/Utility/dsp.h **** 
 164:../DaisySP/Source/Utility/dsp.h **** /** Maps a float between a specified range, using a specified curve.
 165:../DaisySP/Source/Utility/dsp.h ****  *
 166:../DaisySP/Source/Utility/dsp.h ****  *  \param in a value between 0 to 1 that will be mapped to the new range.
 167:../DaisySP/Source/Utility/dsp.h ****  *  \param min the new minimum value
 168:../DaisySP/Source/Utility/dsp.h ****  *  \param max the new maxmimum value
 169:../DaisySP/Source/Utility/dsp.h ****  *  \param curve a Mapping Value to adjust the response curve of the transformation
 170:../DaisySP/Source/Utility/dsp.h ****  *               defaults to Linear. @see Mapping
 171:../DaisySP/Source/Utility/dsp.h ****  *
 172:../DaisySP/Source/Utility/dsp.h ****  *  When using the log curve min and max, must be greater than zero.
 173:../DaisySP/Source/Utility/dsp.h ****  *
 174:../DaisySP/Source/Utility/dsp.h ****  *  \retval returns the transformed float within the new range.
 175:../DaisySP/Source/Utility/dsp.h **** */
 176:../DaisySP/Source/Utility/dsp.h **** inline float
 177:../DaisySP/Source/Utility/dsp.h **** fmap(float in, float min, float max, Mapping curve = Mapping::LINEAR)
 1840              		.loc 3 177 1 view .LVU534
 1841              	.LBE351:
 178:../DaisySP/Source/Utility/dsp.h **** {
 179:../DaisySP/Source/Utility/dsp.h ****     switch(curve)
 1842              		.loc 3 179 5 view .LVU535
 1843              	.LBB360:
 1844              	.LBB352:
 180:../DaisySP/Source/Utility/dsp.h ****     {
 181:../DaisySP/Source/Utility/dsp.h ****         case Mapping::EXP:
 182:../DaisySP/Source/Utility/dsp.h ****             return fclamp(min + (in * in) * (max - min), min, max);
 183:../DaisySP/Source/Utility/dsp.h ****         case Mapping::LOG:
 184:../DaisySP/Source/Utility/dsp.h ****         {
 185:../DaisySP/Source/Utility/dsp.h ****             const float a = 1.f / log10f(max / min);
 186:../DaisySP/Source/Utility/dsp.h ****             return fclamp(min * powf(10, in / a), min, max);
 187:../DaisySP/Source/Utility/dsp.h ****         }
 188:../DaisySP/Source/Utility/dsp.h ****         case Mapping::LINEAR:
 1845              		.loc 3 188 9 view .LVU536
 189:../DaisySP/Source/Utility/dsp.h ****         default: return fclamp(min + in * (max - min), min, max);
 1846              		.loc 3 189 9 view .LVU537
 1847              		.loc 3 189 18 view .LVU538
 1848              		.loc 3 189 31 is_stmt 0 view .LVU539
 1849 00aa 9FED277A 		vldr.32	s14, .L104+4
 1850 00ae F1EE007A 		vmov.f32	s15, #4.0e+0
 1851 00b2 B0EE470A 		vmov.f32	s0, s14
 1852              	.LVL132:
 1853              		.loc 3 189 31 view .LVU540
 1854 00b6 A8EEA70A 		vfma.f32	s0, s17, s15
 1855              	.LVL133:
 1856              	.LBB353:
 1857              	.LBI353:
  64:../DaisySP/Source/Utility/dsp.h **** {
 1858              		.loc 3 64 14 is_stmt 1 view .LVU541
 1859              	.LBE353:
 1860              	.LBE352:
 1861              	.LBE360:
  66:../DaisySP/Source/Utility/dsp.h **** }
 1862              		.loc 3 66 5 view .LVU542
 1863              	.LBB361:
 1864              	.LBB359:
 1865              	.LBB358:
 1866              	.LBB354:
 1867              	.LBI354:
ARM GAS  /var/folders/2p/02m_5p7958535cp2tpgps0400000gn/T//ccYth1xv.s 			page 54


  40:../DaisySP/Source/Utility/dsp.h **** {
 1868              		.loc 3 40 14 view .LVU543
 1869              	.LBB355:
  42:../DaisySP/Source/Utility/dsp.h **** #ifdef __arm__
 1870              		.loc 3 42 5 view .LVU544
  44:../DaisySP/Source/Utility/dsp.h **** #else
 1871              		.loc 3 44 5 view .LVU545
 1872              		.syntax unified
 1873              	@ 44 "../DaisySP/Source/Utility/dsp.h" 1
 1874 00ba C0FE078A 		vmaxnm.f32 s17, s0, s14
 1875              	@ 0 "" 2
 1876              	.LVL134:
  48:../DaisySP/Source/Utility/dsp.h **** }
 1877              		.loc 3 48 5 view .LVU546
  48:../DaisySP/Source/Utility/dsp.h **** }
 1878              		.loc 3 48 5 is_stmt 0 view .LVU547
 1879              		.thumb
 1880              		.syntax unified
 1881              	.LBE355:
 1882              	.LBE354:
 1883              	.LBB356:
 1884              	.LBI356:
  51:../DaisySP/Source/Utility/dsp.h **** {
 1885              		.loc 3 51 14 is_stmt 1 view .LVU548
 1886              	.LBB357:
  53:../DaisySP/Source/Utility/dsp.h **** #ifdef __arm__
 1887              		.loc 3 53 5 view .LVU549
  55:../DaisySP/Source/Utility/dsp.h **** #else
 1888              		.loc 3 55 5 view .LVU550
 1889              		.syntax unified
 1890              	@ 55 "../DaisySP/Source/Utility/dsp.h" 1
 1891 00be C8FEE78A 		vminnm.f32 s17, s17, s15
 1892              	@ 0 "" 2
 1893              	.LVL135:
  59:../DaisySP/Source/Utility/dsp.h **** }
 1894              		.loc 3 59 5 view .LVU551
  59:../DaisySP/Source/Utility/dsp.h **** }
 1895              		.loc 3 59 5 is_stmt 0 view .LVU552
 1896              		.thumb
 1897              		.syntax unified
 1898              	.LBE357:
 1899              	.LBE356:
 1900              	.LBE358:
 1901              	.LBE359:
 1902              	.LBE361:
 167:GrannyChordApp.cpp ****         break;
 1903              		.loc 4 167 9 is_stmt 1 view .LVU553
 1904              	.LBB362:
 1905              	.LBI362:
  23:GranularSynth.h ****     /* don't need a user setter for this
 1906              		.loc 9 23 10 view .LVU554
 1907              	.LBB363:
  23:GranularSynth.h ****     /* don't need a user setter for this
 1908              		.loc 9 23 49 view .LVU555
 1909              	.LBE363:
 1910              	.LBE362:
 167:GrannyChordApp.cpp ****         break;
ARM GAS  /var/folders/2p/02m_5p7958535cp2tpgps0400000gn/T//ccYth1xv.s 			page 55


 1911              		.loc 4 167 29 is_stmt 0 view .LVU556
 1912 00c2 FDEEE87A 		vcvt.s32.f32	s15, s17
 1913 00c6 17EE903A 		vmov	r3, s15	@ int
 1914 00ca C4F8B435 		str	r3, [r4, #1460]
 1915              	.LBB365:
 1916              	.LBB364:
  23:GranularSynth.h ****     /* don't need a user setter for this
 1917              		.loc 9 23 69 view .LVU557
 1918 00ce CAE7     		b	.L80
 1919              	.LVL136:
 1920              	.L85:
  23:GranularSynth.h ****     /* don't need a user setter for this
 1921              		.loc 9 23 69 view .LVU558
 1922              	.LBE364:
 1923              	.LBE365:
 169:GrannyChordApp.cpp ****         synth_.SetSizeRnd(knob1_val);
 1924              		.loc 4 169 7 is_stmt 1 view .LVU559
 170:GrannyChordApp.cpp ****         break;
 1925              		.loc 4 170 9 view .LVU560
 1926              	.LBB366:
 1927              	.LBI366:
  39:GranularSynth.h ****     void SetPositionRnd(float rnd){ rnd_spawn_pos_ = rnd; }
 1928              		.loc 9 39 10 view .LVU561
 1929              	.LBB367:
  39:GranularSynth.h ****     void SetPositionRnd(float rnd){ rnd_spawn_pos_ = rnd; }
 1930              		.loc 9 39 33 view .LVU562
  39:GranularSynth.h ****     void SetPositionRnd(float rnd){ rnd_spawn_pos_ = rnd; }
 1931              		.loc 9 39 43 is_stmt 0 view .LVU563
 1932 00d0 04F5BA63 		add	r3, r4, #1488
 1933 00d4 E6E7     		b	.L102
 1934              	.LVL137:
 1935              	.L84:
  39:GranularSynth.h ****     void SetPositionRnd(float rnd){ rnd_spawn_pos_ = rnd; }
 1936              		.loc 9 39 43 view .LVU564
 1937              	.LBE367:
 1938              	.LBE366:
 172:GrannyChordApp.cpp ****         synth_.SetPitchRnd(knob1_val);
 1939              		.loc 4 172 7 is_stmt 1 view .LVU565
 173:GrannyChordApp.cpp ****         break;
 1940              		.loc 4 173 9 view .LVU566
 1941              	.LBB368:
 1942              	.LBI368:
  41:GranularSynth.h ****     void SetCountRnd(float rnd){ rnd_count_ = rnd; }
 1943              		.loc 9 41 10 view .LVU567
 1944              	.LBB369:
  41:GranularSynth.h ****     void SetCountRnd(float rnd){ rnd_count_ = rnd; }
 1945              		.loc 9 41 34 view .LVU568
  41:GranularSynth.h ****     void SetCountRnd(float rnd){ rnd_count_ = rnd; }
 1946              		.loc 9 41 45 is_stmt 0 view .LVU569
 1947 00d6 04F2DC53 		addw	r3, r4, #1500
 1948 00da E3E7     		b	.L102
 1949              	.LVL138:
 1950              	.L83:
  41:GranularSynth.h ****     void SetCountRnd(float rnd){ rnd_count_ = rnd; }
 1951              		.loc 9 41 45 view .LVU570
 1952              	.LBE369:
 1953              	.LBE368:
ARM GAS  /var/folders/2p/02m_5p7958535cp2tpgps0400000gn/T//ccYth1xv.s 			page 56


 175:GrannyChordApp.cpp ****         synth_.SetPhasorRnd(knob1_val);
 1954              		.loc 4 175 7 is_stmt 1 view .LVU571
 176:GrannyChordApp.cpp ****         break;
 1955              		.loc 4 176 9 view .LVU572
 1956              	.LBB370:
 1957              	.LBI348:
 1958              		.loc 9 45 10 view .LVU573
 1959              	.LBB350:
 1960              		.loc 9 45 35 view .LVU574
 1961              		.loc 9 45 47 is_stmt 0 view .LVU575
 1962 00dc 04F5BD63 		add	r3, r4, #1512
 1963 00e0 E0E7     		b	.L102
 1964              	.LVL139:
 1965              	.L99:
 1966              		.loc 9 45 47 view .LVU576
 1967              	.LBE350:
 1968              	.LBE370:
 183:GrannyChordApp.cpp ****         synth_.SetUserSpawnPos(knob2_val);
 1969              		.loc 4 183 7 is_stmt 1 view .LVU577
 184:GrannyChordApp.cpp ****       case SynthMode::Pitch_ActiveGrains:
 1970              		.loc 4 184 9 view .LVU578
 184:GrannyChordApp.cpp ****       case SynthMode::Pitch_ActiveGrains:
 1971              		.loc 4 184 31 is_stmt 0 view .LVU579
 1972 00e2 B0EE480A 		vmov.f32	s0, s16
 1973 00e6 201D     		adds	r0, r4, #4
 1974 00e8 FFF7FEFF 		bl	_ZN13GranularSynth15SetUserSpawnPosEf
 1975              	.LVL140:
 1976              	.L98:
 185:GrannyChordApp.cpp ****         synth_.SetUserActiveGrains(knob2_val);
 1977              		.loc 4 185 7 is_stmt 1 view .LVU580
 186:GrannyChordApp.cpp ****       case SynthMode::Pan_PanRnd:
 1978              		.loc 4 186 9 view .LVU581
 186:GrannyChordApp.cpp ****       case SynthMode::Pan_PanRnd:
 1979              		.loc 4 186 35 is_stmt 0 view .LVU582
 1980 00ec B0EE480A 		vmov.f32	s0, s16
 1981 00f0 201D     		adds	r0, r4, #4
 1982 00f2 FFF7FEFF 		bl	_ZN13GranularSynth19SetUserActiveGrainsEf
 1983              	.LVL141:
 1984              	.L92:
 187:GrannyChordApp.cpp ****         synth_.SetPanRnd(knob2_val);
 1985              		.loc 4 187 7 is_stmt 1 view .LVU583
 188:GrannyChordApp.cpp ****         break;
 1986              		.loc 4 188 9 view .LVU584
 1987              	.LBB371:
 1988              	.LBI371:
  43:GranularSynth.h ****     void SetEnvRnd(float rnd){ rnd_envelope_ = rnd; }
 1989              		.loc 9 43 10 view .LVU585
 1990              	.LBB372:
  43:GranularSynth.h ****     void SetEnvRnd(float rnd){ rnd_envelope_ = rnd; }
 1991              		.loc 9 43 32 view .LVU586
  43:GranularSynth.h ****     void SetEnvRnd(float rnd){ rnd_envelope_ = rnd; }
 1992              		.loc 9 43 41 is_stmt 0 view .LVU587
 1993 00f6 04F5BC64 		add	r4, r4, #1504
 1994              	.LVL142:
 1995              	.L103:
  43:GranularSynth.h ****     void SetEnvRnd(float rnd){ rnd_envelope_ = rnd; }
 1996              		.loc 9 43 41 view .LVU588
ARM GAS  /var/folders/2p/02m_5p7958535cp2tpgps0400000gn/T//ccYth1xv.s 			page 57


 1997              	.LBE372:
 1998              	.LBE371:
 1999              	.LBB373:
 2000              	.LBB374:
  44:GranularSynth.h ****     void SetPhasorRnd(float rnd){ rnd_phasor_ = rnd; }
 2001              		.loc 9 44 46 view .LVU589
 2002 00fa 84ED008A 		vstr.32	s16, [r4]
  44:GranularSynth.h ****     void SetPhasorRnd(float rnd){ rnd_phasor_ = rnd; }
 2003              		.loc 9 44 53 view .LVU590
 2004 00fe 11E0     		b	.L91
 2005              	.LVL143:
 2006              	.L97:
  44:GranularSynth.h ****     void SetPhasorRnd(float rnd){ rnd_phasor_ = rnd; }
 2007              		.loc 9 44 53 view .LVU591
 2008              	.LBE374:
 2009              	.LBE373:
 190:GrannyChordApp.cpp ****         knob2_val = fmap(knob2_val, 0, NUM_ENV_TYPES);
 2010              		.loc 4 190 7 is_stmt 1 view .LVU592
 191:GrannyChordApp.cpp ****         synth_.SetEnvelopeType(static_cast<Grain::EnvelopeType>(knob2_val));
 2011              		.loc 4 191 9 view .LVU593
 2012              	.LBB376:
 2013              	.LBI376:
 177:../DaisySP/Source/Utility/dsp.h **** {
 2014              		.loc 3 177 1 view .LVU594
 2015              	.LBE376:
 179:../DaisySP/Source/Utility/dsp.h ****     {
 2016              		.loc 3 179 5 view .LVU595
 2017              	.LBB385:
 2018              	.LBB377:
 188:../DaisySP/Source/Utility/dsp.h ****         default: return fclamp(min + in * (max - min), min, max);
 2019              		.loc 3 188 9 view .LVU596
 2020              		.loc 3 189 9 view .LVU597
 2021              		.loc 3 189 18 view .LVU598
 2022              		.loc 3 189 31 is_stmt 0 view .LVU599
 2023 0100 9FED117A 		vldr.32	s14, .L104+4
 2024 0104 F1EE007A 		vmov.f32	s15, #4.0e+0
 2025 0108 B0EE470A 		vmov.f32	s0, s14
 2026 010c A8EE270A 		vfma.f32	s0, s16, s15
 2027              	.LVL144:
 2028              	.LBB378:
 2029              	.LBI378:
  64:../DaisySP/Source/Utility/dsp.h **** {
 2030              		.loc 3 64 14 is_stmt 1 view .LVU600
 2031              	.LBE378:
 2032              	.LBE377:
 2033              	.LBE385:
  66:../DaisySP/Source/Utility/dsp.h **** }
 2034              		.loc 3 66 5 view .LVU601
 2035              	.LBB386:
 2036              	.LBB384:
 2037              	.LBB383:
 2038              	.LBB379:
 2039              	.LBI379:
  40:../DaisySP/Source/Utility/dsp.h **** {
 2040              		.loc 3 40 14 view .LVU602
 2041              	.LBB380:
  42:../DaisySP/Source/Utility/dsp.h **** #ifdef __arm__
ARM GAS  /var/folders/2p/02m_5p7958535cp2tpgps0400000gn/T//ccYth1xv.s 			page 58


 2042              		.loc 3 42 5 view .LVU603
  44:../DaisySP/Source/Utility/dsp.h **** #else
 2043              		.loc 3 44 5 view .LVU604
 2044              		.syntax unified
 2045              	@ 44 "../DaisySP/Source/Utility/dsp.h" 1
 2046 0110 80FE078A 		vmaxnm.f32 s16, s0, s14
 2047              	@ 0 "" 2
 2048              	.LVL145:
  48:../DaisySP/Source/Utility/dsp.h **** }
 2049              		.loc 3 48 5 view .LVU605
  48:../DaisySP/Source/Utility/dsp.h **** }
 2050              		.loc 3 48 5 is_stmt 0 view .LVU606
 2051              		.thumb
 2052              		.syntax unified
 2053              	.LBE380:
 2054              	.LBE379:
 2055              	.LBB381:
 2056              	.LBI381:
  51:../DaisySP/Source/Utility/dsp.h **** {
 2057              		.loc 3 51 14 is_stmt 1 view .LVU607
 2058              	.LBB382:
  53:../DaisySP/Source/Utility/dsp.h **** #ifdef __arm__
 2059              		.loc 3 53 5 view .LVU608
  55:../DaisySP/Source/Utility/dsp.h **** #else
 2060              		.loc 3 55 5 view .LVU609
 2061              		.syntax unified
 2062              	@ 55 "../DaisySP/Source/Utility/dsp.h" 1
 2063 0114 88FE678A 		vminnm.f32 s16, s16, s15
 2064              	@ 0 "" 2
 2065              	.LVL146:
  59:../DaisySP/Source/Utility/dsp.h **** }
 2066              		.loc 3 59 5 view .LVU610
  59:../DaisySP/Source/Utility/dsp.h **** }
 2067              		.loc 3 59 5 is_stmt 0 view .LVU611
 2068              		.thumb
 2069              		.syntax unified
 2070              	.LBE382:
 2071              	.LBE381:
 2072              	.LBE383:
 2073              	.LBE384:
 2074              	.LBE386:
 192:GrannyChordApp.cpp ****         break;
 2075              		.loc 4 192 9 is_stmt 1 view .LVU612
 2076              	.LBB387:
 2077              	.LBI387:
  22:GranularSynth.h ****     void SetPhasorMode(GrainPhasor::Mode mode){ phasor_mode_ = mode;}
 2078              		.loc 9 22 10 view .LVU613
 2079              	.LBB388:
  22:GranularSynth.h ****     void SetPhasorMode(GrainPhasor::Mode mode){ phasor_mode_ = mode;}
 2080              		.loc 9 22 53 view .LVU614
 2081              	.LBE388:
 2082              	.LBE387:
 192:GrannyChordApp.cpp ****         break;
 2083              		.loc 4 192 31 is_stmt 0 view .LVU615
 2084 0118 FDEEC87A 		vcvt.s32.f32	s15, s16
 2085 011c 17EE903A 		vmov	r3, s15	@ int
 2086 0120 C4F8B835 		str	r3, [r4, #1464]
ARM GAS  /var/folders/2p/02m_5p7958535cp2tpgps0400000gn/T//ccYth1xv.s 			page 59


 2087              	.LVL147:
 2088              	.L91:
 204:GrannyChordApp.cpp ****   }
 2089              		.loc 4 204 5 is_stmt 1 view .LVU616
 204:GrannyChordApp.cpp ****   }
 2090              		.loc 4 204 34 is_stmt 0 view .LVU617
 2091 0124 85ED008A 		vstr.32	s16, [r5]
 2092              	.L77:
 206:GrannyChordApp.cpp **** 
 2093              		.loc 4 206 1 view .LVU618
 2094 0128 03B0     		add	sp, sp, #12
 2095              		.cfi_remember_state
 2096              		.cfi_def_cfa_offset 36
 2097              		@ sp needed
 2098 012a BDEC048B 		vldm	sp!, {d8-d9}
 2099              		.cfi_restore 82
 2100              		.cfi_restore 83
 2101              		.cfi_restore 80
 2102              		.cfi_restore 81
 2103              		.cfi_def_cfa_offset 20
 2104              	.LVL148:
 206:GrannyChordApp.cpp **** 
 2105              		.loc 4 206 1 view .LVU619
 2106 012e F0BD     		pop	{r4, r5, r6, r7, pc}
 2107              	.LVL149:
 2108              	.L96:
 2109              		.cfi_restore_state
 194:GrannyChordApp.cpp ****         synth_.SetPositionRnd(knob2_val);
 2110              		.loc 4 194 7 is_stmt 1 view .LVU620
 195:GrannyChordApp.cpp ****         break;
 2111              		.loc 4 195 9 view .LVU621
 2112              	.LBB389:
 2113              	.LBI389:
  40:GranularSynth.h ****     void SetPitchRnd(float rnd){ rnd_pitch_ = rnd; }
 2114              		.loc 9 40 10 view .LVU622
 2115              	.LBB390:
  40:GranularSynth.h ****     void SetPitchRnd(float rnd){ rnd_pitch_ = rnd; }
 2116              		.loc 9 40 37 view .LVU623
  40:GranularSynth.h ****     void SetPitchRnd(float rnd){ rnd_pitch_ = rnd; }
 2117              		.loc 9 40 52 is_stmt 0 view .LVU624
 2118 0130 04F2D454 		addw	r4, r4, #1492
 2119              	.LVL150:
  40:GranularSynth.h ****     void SetPitchRnd(float rnd){ rnd_pitch_ = rnd; }
 2120              		.loc 9 40 52 view .LVU625
 2121 0134 E1E7     		b	.L103
 2122              	.LVL151:
 2123              	.L95:
  40:GranularSynth.h ****     void SetPitchRnd(float rnd){ rnd_pitch_ = rnd; }
 2124              		.loc 9 40 52 view .LVU626
 2125              	.LBE390:
 2126              	.LBE389:
 197:GrannyChordApp.cpp ****         synth_.SetCountRnd(knob2_val);
 2127              		.loc 4 197 7 is_stmt 1 view .LVU627
 198:GrannyChordApp.cpp ****         break;
 2128              		.loc 4 198 9 view .LVU628
 2129              	.LBB391:
 2130              	.LBI391:
ARM GAS  /var/folders/2p/02m_5p7958535cp2tpgps0400000gn/T//ccYth1xv.s 			page 60


  42:GranularSynth.h ****     void SetPanRnd(float rnd){ rnd_pan_ = rnd; }
 2131              		.loc 9 42 10 view .LVU629
 2132              	.LBB392:
  42:GranularSynth.h ****     void SetPanRnd(float rnd){ rnd_pan_ = rnd; }
 2133              		.loc 9 42 34 view .LVU630
  42:GranularSynth.h ****     void SetPanRnd(float rnd){ rnd_pan_ = rnd; }
 2134              		.loc 9 42 45 is_stmt 0 view .LVU631
 2135 0136 04F5BB64 		add	r4, r4, #1496
 2136              	.LVL152:
  42:GranularSynth.h ****     void SetPanRnd(float rnd){ rnd_pan_ = rnd; }
 2137              		.loc 9 42 45 view .LVU632
 2138 013a DEE7     		b	.L103
 2139              	.LVL153:
 2140              	.L94:
  42:GranularSynth.h ****     void SetPanRnd(float rnd){ rnd_pan_ = rnd; }
 2141              		.loc 9 42 45 view .LVU633
 2142              	.LBE392:
 2143              	.LBE391:
 200:GrannyChordApp.cpp ****         synth_.SetEnvRnd(knob2_val);
 2144              		.loc 4 200 7 is_stmt 1 view .LVU634
 201:GrannyChordApp.cpp ****         break;
 2145              		.loc 4 201 9 view .LVU635
 2146              	.LBB393:
 2147              	.LBI373:
  44:GranularSynth.h ****     void SetPhasorRnd(float rnd){ rnd_phasor_ = rnd; }
 2148              		.loc 9 44 10 view .LVU636
 2149              	.LBB375:
  44:GranularSynth.h ****     void SetPhasorRnd(float rnd){ rnd_phasor_ = rnd; }
 2150              		.loc 9 44 32 view .LVU637
  44:GranularSynth.h ****     void SetPhasorRnd(float rnd){ rnd_phasor_ = rnd; }
 2151              		.loc 9 44 46 is_stmt 0 view .LVU638
 2152 013c 04F2E454 		addw	r4, r4, #1508
 2153              	.LVL154:
  44:GranularSynth.h ****     void SetPhasorRnd(float rnd){ rnd_phasor_ = rnd; }
 2154              		.loc 9 44 46 view .LVU639
 2155 0140 DBE7     		b	.L103
 2156              	.L105:
 2157 0142 00BF     		.align	2
 2158              	.L104:
 2159 0144 0AD7233C 		.word	1008981770
 2160 0148 00000000 		.word	0
 2161              	.LBE375:
 2162              	.LBE393:
 2163              		.cfi_endproc
 2164              	.LFE4799:
 2166              		.section	.text._ZN14GrannyChordApp17UpdateSynthParamsEv,"ax",%progbits
 2167              		.align	1
 2168              		.global	_ZN14GrannyChordApp17UpdateSynthParamsEv
 2169              		.syntax unified
 2170              		.thumb
 2171              		.thumb_func
 2173              	_ZN14GrannyChordApp17UpdateSynthParamsEv:
 2174              	.LVL155:
 2175              	.LFB4798:
 139:GrannyChordApp.cpp ****   AppState curr_state = ui_.GetCurrentState();
 2176              		.loc 4 139 41 is_stmt 1 view -0
 2177              		.cfi_startproc
ARM GAS  /var/folders/2p/02m_5p7958535cp2tpgps0400000gn/T//ccYth1xv.s 			page 61


 2178              		@ args = 0, pretend = 0, frame = 0
 2179              		@ frame_needed = 0, uses_anonymous_args = 0
 2180              		@ link register save eliminated.
 140:GrannyChordApp.cpp ****   if (curr_state==AppState::Synthesis){
 2181              		.loc 4 140 3 view .LVU641
 2182              	.LBB394:
 2183              	.LBI394:
  14:UIManager.h   ****     SynthMode GetSynthMode() { return synth_mode_; }
 2184              		.loc 5 14 14 view .LVU642
 2185              	.LBB395:
  14:UIManager.h   ****     SynthMode GetSynthMode() { return synth_mode_; }
 2186              		.loc 5 14 34 view .LVU643
  14:UIManager.h   ****     SynthMode GetSynthMode() { return synth_mode_; }
 2187              		.loc 5 14 34 is_stmt 0 view .LVU644
 2188              	.LBE395:
 2189              	.LBE394:
 141:GrannyChordApp.cpp ****     UpdateGranularParams();
 2190              		.loc 4 141 3 is_stmt 1 view .LVU645
 2191 0000 D0F8F835 		ldr	r3, [r0, #1528]
 2192 0004 032B     		cmp	r3, #3
 2193 0006 01D1     		bne	.L106
 142:GrannyChordApp.cpp ****   }
 2194              		.loc 4 142 5 view .LVU646
 142:GrannyChordApp.cpp ****   }
 2195              		.loc 4 142 25 is_stmt 0 view .LVU647
 2196 0008 FFF7FEBF 		b	_ZN14GrannyChordApp20UpdateGranularParamsEv
 2197              	.LVL156:
 2198              	.L106:
 147:GrannyChordApp.cpp **** 
 2199              		.loc 4 147 1 view .LVU648
 2200 000c 7047     		bx	lr
 2201              		.cfi_endproc
 2202              	.LFE4798:
 2204              		.section	.text._ZN14GrannyChordApp3RunEv,"ax",%progbits
 2205              		.align	1
 2206              		.global	_ZN14GrannyChordApp3RunEv
 2207              		.syntax unified
 2208              		.thumb
 2209              		.thumb_func
 2211              	_ZN14GrannyChordApp3RunEv:
 2212              	.LVL157:
 2213              	.LFB4793:
  41:GrannyChordApp.cpp ****   while(true){
 2214              		.loc 4 41 27 is_stmt 1 view -0
 2215              		.cfi_startproc
 2216              		@ args = 0, pretend = 0, frame = 0
 2217              		@ frame_needed = 0, uses_anonymous_args = 0
  41:GrannyChordApp.cpp ****   while(true){
 2218              		.loc 4 41 27 is_stmt 0 view .LVU650
 2219 0000 10B5     		push	{r4, lr}
 2220              		.cfi_def_cfa_offset 8
 2221              		.cfi_offset 4, -8
 2222              		.cfi_offset 14, -4
 2223 0002 0446     		mov	r4, r0
 2224              	.LVL158:
 2225              	.L109:
  42:GrannyChordApp.cpp ****     AppState prev_state = ui_.GetCurrentState();
ARM GAS  /var/folders/2p/02m_5p7958535cp2tpgps0400000gn/T//ccYth1xv.s 			page 62


 2226              		.loc 4 42 3 is_stmt 1 view .LVU651
 2227              	.LBB396:
  43:GrannyChordApp.cpp ****     ui_.UpdateUI();
 2228              		.loc 4 43 5 view .LVU652
  43:GrannyChordApp.cpp ****     ui_.UpdateUI();
 2229              		.loc 4 43 5 is_stmt 0 view .LVU653
 2230              	.LBE396:
  14:UIManager.h   ****     SynthMode GetSynthMode() { return synth_mode_; }
 2231              		.loc 5 14 34 is_stmt 1 view .LVU654
 2232              	.LBB397:
  44:GrannyChordApp.cpp ****     AppState curr_state = ui_.GetCurrentState();
 2233              		.loc 4 44 5 view .LVU655
  44:GrannyChordApp.cpp ****     AppState curr_state = ui_.GetCurrentState();
 2234              		.loc 4 44 17 is_stmt 0 view .LVU656
 2235 0004 04F2F450 		addw	r0, r4, #1524
 2236 0008 FFF7FEFF 		bl	_ZN9UIManager8UpdateUIEv
 2237              	.LVL159:
  45:GrannyChordApp.cpp ****     if (prev_state!=curr_state){
 2238              		.loc 4 45 5 is_stmt 1 view .LVU657
  45:GrannyChordApp.cpp ****     if (prev_state!=curr_state){
 2239              		.loc 4 45 5 is_stmt 0 view .LVU658
 2240              	.LBE397:
  14:UIManager.h   ****     SynthMode GetSynthMode() { return synth_mode_; }
 2241              		.loc 5 14 34 is_stmt 1 view .LVU659
 2242              	.LBB398:
  46:GrannyChordApp.cpp ****       HandleStateChange(prev_state, curr_state);
 2243              		.loc 4 46 5 view .LVU660
  49:GrannyChordApp.cpp **** 
 2244              		.loc 4 49 5 view .LVU661
  49:GrannyChordApp.cpp **** 
 2245              		.loc 4 49 22 is_stmt 0 view .LVU662
 2246 000c 2046     		mov	r0, r4
 2247 000e FFF7FEFF 		bl	_ZN14GrannyChordApp17UpdateSynthParamsEv
 2248              	.LVL160:
  52:GrannyChordApp.cpp ****   }
 2249              		.loc 4 52 5 is_stmt 1 view .LVU663
  52:GrannyChordApp.cpp ****   }
 2250              		.loc 4 52 18 is_stmt 0 view .LVU664
 2251 0012 0120     		movs	r0, #1
 2252 0014 FFF7FEFF 		bl	_ZN5daisy6System5DelayEm
 2253              	.LVL161:
 2254              	.LBE398:
  42:GrannyChordApp.cpp ****     AppState prev_state = ui_.GetCurrentState();
 2255              		.loc 4 42 3 is_stmt 1 view .LVU665
 2256 0018 F4E7     		b	.L109
 2257              		.cfi_endproc
 2258              	.LFE4793:
 2260              		.section	.text._ZN14GrannyChordApp15CheckParamDeltaEff,"ax",%progbits
 2261              		.align	1
 2262              		.global	_ZN14GrannyChordApp15CheckParamDeltaEff
 2263              		.syntax unified
 2264              		.thumb
 2265              		.thumb_func
 2267              	_ZN14GrannyChordApp15CheckParamDeltaEff:
 2268              	.LVL162:
 2269              	.LFB4800:
 208:GrannyChordApp.cpp ****   return (fabsf(curr_val - prev_val)>0.01f);
ARM GAS  /var/folders/2p/02m_5p7958535cp2tpgps0400000gn/T//ccYth1xv.s 			page 63


 2270              		.loc 4 208 69 view -0
 2271              		.cfi_startproc
 2272              		@ args = 0, pretend = 0, frame = 0
 2273              		@ frame_needed = 0, uses_anonymous_args = 0
 2274              		@ link register save eliminated.
 2275              		.loc 4 209 3 view .LVU667
 2276              		.loc 4 209 26 is_stmt 0 view .LVU668
 2277 0000 70EE600A 		vsub.f32	s1, s0, s1
 2278              	.LVL163:
 2279              		.loc 4 209 43 view .LVU669
 2280 0004 DFED057A 		vldr.32	s15, .L111
 2281              		.loc 4 209 16 view .LVU670
 2282 0008 F0EEE00A 		vabs.f32	s1, s1
 2283              		.loc 4 209 43 view .LVU671
 2284 000c F4EEE70A 		vcmpe.f32	s1, s15
 2285 0010 F1EE10FA 		vmrs	APSR_nzcv, FPSCR
 210:GrannyChordApp.cpp **** }...
 2286              		.loc 4 210 1 view .LVU672
 2287 0014 CCBF     		ite	gt
 2288 0016 0120     		movgt	r0, #1
 2289              	.LVL164:
 2290              		.loc 4 210 1 view .LVU673
 2291 0018 0020     		movle	r0, #0
 2292 001a 7047     		bx	lr
 2293              	.L112:
 2294              		.align	2
 2295              	.L111:
 2296 001c 0AD7233C 		.word	1008981770
 2297              		.cfi_endproc
 2298              	.LFE4800:
 2300              		.text
 2301              	.Letext0:
 2302              		.file 10 "/Library/DaisyToolchain/0.2.0/arm/arm-none-eabi/include/machine/_default_types.h"
 2303              		.file 11 "/Library/DaisyToolchain/0.2.0/arm/arm-none-eabi/include/sys/_stdint.h"
 2304              		.file 12 "/Library/DaisyToolchain/0.2.0/arm/arm-none-eabi/include/stdint.h"
 2305              		.file 13 "/Library/DaisyToolchain/0.2.0/arm/lib/gcc/arm-none-eabi/10.3.1/include/stddef.h"
 2306              		.file 14 "/Library/DaisyToolchain/0.2.0/arm/arm-none-eabi/include/c++/10.3.1/cmath"
 2307              		.file 15 "/Library/DaisyToolchain/0.2.0/arm/arm-none-eabi/include/c++/10.3.1/bits/std_abs.h"
 2308              		.file 16 "/Library/DaisyToolchain/0.2.0/arm/arm-none-eabi/include/c++/10.3.1/cstdlib"
 2309              		.file 17 "/Library/DaisyToolchain/0.2.0/arm/arm-none-eabi/include/c++/10.3.1/cstdint"
 2310              		.file 18 "/Library/DaisyToolchain/0.2.0/arm/arm-none-eabi/include/c++/10.3.1/arm-none-eabi/thumb/v
 2311              		.file 19 "/Library/DaisyToolchain/0.2.0/arm/arm-none-eabi/include/c++/10.3.1/type_traits"
 2312              		.file 20 "/Library/DaisyToolchain/0.2.0/arm/arm-none-eabi/include/c++/10.3.1/debug/debug.h"
 2313              		.file 21 "/Library/DaisyToolchain/0.2.0/arm/arm-none-eabi/include/c++/10.3.1/bits/algorithmfwd.h"
 2314              		.file 22 "/Library/DaisyToolchain/0.2.0/arm/arm-none-eabi/include/c++/10.3.1/bits/stl_pair.h"
 2315              		.file 23 "/Library/DaisyToolchain/0.2.0/arm/arm-none-eabi/include/c++/10.3.1/bits/exception_ptr.h"
 2316              		.file 24 "/Library/DaisyToolchain/0.2.0/arm/arm-none-eabi/include/c++/10.3.1/initializer_list"
 2317              		.file 25 "/Library/DaisyToolchain/0.2.0/arm/arm-none-eabi/include/c++/10.3.1/cstdarg"
 2318              		.file 26 "/Library/DaisyToolchain/0.2.0/arm/arm-none-eabi/include/c++/10.3.1/cstdio"
 2319              		.file 27 "/Library/DaisyToolchain/0.2.0/arm/arm-none-eabi/include/c++/10.3.1/cstring"
 2320              		.file 28 "/Library/DaisyToolchain/0.2.0/arm/arm-none-eabi/include/c++/10.3.1/cwchar"
 2321              		.file 29 "/Library/DaisyToolchain/0.2.0/arm/arm-none-eabi/include/c++/10.3.1/clocale"
 2322              		.file 30 "/Library/DaisyToolchain/0.2.0/arm/arm-none-eabi/include/c++/10.3.1/bits/basic_string.h"
 2323              		.file 31 "/Library/DaisyToolchain/0.2.0/arm/arm-none-eabi/include/c++/10.3.1/bits/stl_iterator.h"
 2324              		.file 32 "/Library/DaisyToolchain/0.2.0/arm/arm-none-eabi/include/c++/10.3.1/bits/predefined_ops.h
 2325              		.file 33 "/Library/DaisyToolchain/0.2.0/arm/arm-none-eabi/include/sys/_types.h"
 2326              		.file 34 "/Library/DaisyToolchain/0.2.0/arm/arm-none-eabi/include/sys/reent.h"
ARM GAS  /var/folders/2p/02m_5p7958535cp2tpgps0400000gn/T//ccYth1xv.s 			page 64


 2327              		.file 35 "/Library/DaisyToolchain/0.2.0/arm/arm-none-eabi/include/sys/lock.h"
 2328              		.file 36 "/Library/DaisyToolchain/0.2.0/arm/arm-none-eabi/include/math.h"
 2329              		.file 37 "/Library/DaisyToolchain/0.2.0/arm/arm-none-eabi/include/stdlib.h"
 2330              		.file 38 "/Library/DaisyToolchain/0.2.0/arm/arm-none-eabi/include/c++/10.3.1/math.h"
 2331              		.file 39 "/Library/DaisyToolchain/0.2.0/arm/arm-none-eabi/include/c++/10.3.1/stdlib.h"
 2332              		.file 40 "../libDaisy/src/daisy_core.h"
 2333              		.file 41 "../libDaisy/src/per/tim.h"
 2334              		.file 42 "../libDaisy/src/sys/system.h"
 2335              		.file 43 "../libDaisy/src/per/qspi.h"
 2336              		.file 44 "../libDaisy/src/per/dac.h"
 2337              		.file 45 "../libDaisy/src/per/sai.h"
 2338              		.file 46 "../libDaisy/src/hid/audio.h"
 2339              		.file 47 "../libDaisy/src/per/adc.h"
 2340              		.file 48 "../libDaisy/src/per/uart.h"
 2341              		.file 49 "../libDaisy/src/hid/MidiEvent.h"
 2342              		.file 50 "../libDaisy/src/hid/midi_parser.h"
 2343              		.file 51 "../libDaisy/src/hid/usb.h"
 2344              		.file 52 "../libDaisy/src/hid/midi.h"
 2345              		.file 53 "../libDaisy/src/util/FIFO.h"
 2346              		.file 54 "../libDaisy/src/hid/switch.h"
 2347              		.file 55 "../libDaisy/src/hid/encoder.h"
 2348              		.file 56 "../libDaisy/src/hid/ctrl.h"
 2349              		.file 57 "../libDaisy/src/per/sdmmc.h"
 2350              		.file 58 "../libDaisy/src/util/wav_format.h"
 2351              		.file 59 "../libDaisy/src/hid/led.h"
 2352              		.file 60 "../libDaisy/src/util/color.h"
 2353              		.file 61 "../libDaisy/src/hid/rgb_led.h"
 2354              		.file 62 "../libDaisy/src/dev/max11300.h"
 2355              		.file 63 "../libDaisy/src/sys/fatfs.h"
 2356              		.file 64 "../libDaisy/src/daisy_seed.h"
 2357              		.file 65 "../libDaisy/src/daisy_pod.h"
 2358              		.file 66 "../libDaisy/src/per/gpio.h"
 2359              		.file 67 "../libDaisy/src/dev/sdram.h"
 2360              		.file 68 "/Library/DaisyToolchain/0.2.0/arm/lib/gcc/arm-none-eabi/10.3.1/include/stdarg.h"
 2361              		.file 69 "/Library/DaisyToolchain/0.2.0/arm/arm-none-eabi/include/stdio.h"
 2362              		.file 70 "../libDaisy/Middlewares/Third_Party/FatFs/src/integer.h"
 2363              		.file 71 "../libDaisy/Middlewares/Third_Party/FatFs/src/ff.h"
 2364              		.file 72 "/Library/DaisyToolchain/0.2.0/arm/arm-none-eabi/include/string.h"
 2365              		.file 73 "../DaisySP/Source/Control/adenv.h"
 2366              		.file 74 "/Library/DaisyToolchain/0.2.0/arm/arm-none-eabi/include/wchar.h"
 2367              		.file 75 "/Library/DaisyToolchain/0.2.0/arm/arm-none-eabi/include/time.h"
 2368              		.file 76 "/Library/DaisyToolchain/0.2.0/arm/arm-none-eabi/include/locale.h"
 2369              		.file 77 "AppState.h"
 2370              		.file 78 "../libDaisy/src/dev/sr_595.h"
 2371              		.file 79 "GrainPhasor.h"
 2372              		.file 80 "Grain.h"
 2373              		.file 81 "<built-in>"
ARM GAS  /var/folders/2p/02m_5p7958535cp2tpgps0400000gn/T//ccYth1xv.s 			page 65


DEFINED SYMBOLS
                            *ABS*:0000000000000000 GrannyChordApp.cpp
/var/folders/2p/02m_5p7958535cp2tpgps0400000gn/T//ccYth1xv.s:19     .text._ZN7daisysp10Compressor16RecalculateRatioEv:0000000000000000 $t
/var/folders/2p/02m_5p7958535cp2tpgps0400000gn/T//ccYth1xv.s:25     .text._ZN7daisysp10Compressor16RecalculateRatioEv:0000000000000000 _ZN7daisysp10Compressor16RecalculateRatioEv
/var/folders/2p/02m_5p7958535cp2tpgps0400000gn/T//ccYth1xv.s:55     .text._ZN7daisysp10Compressor17RecalculateAttackEv:0000000000000000 $t
/var/folders/2p/02m_5p7958535cp2tpgps0400000gn/T//ccYth1xv.s:61     .text._ZN7daisysp10Compressor17RecalculateAttackEv:0000000000000000 _ZN7daisysp10Compressor17RecalculateAttackEv
/var/folders/2p/02m_5p7958535cp2tpgps0400000gn/T//ccYth1xv.s:111    .text._ZN7daisysp10Compressor17RecalculateMakeupEv:0000000000000000 $t
/var/folders/2p/02m_5p7958535cp2tpgps0400000gn/T//ccYth1xv.s:117    .text._ZN7daisysp10Compressor17RecalculateMakeupEv:0000000000000000 _ZN7daisysp10Compressor17RecalculateMakeupEv
/var/folders/2p/02m_5p7958535cp2tpgps0400000gn/T//ccYth1xv.s:160    .text._ZN7daisysp10Compressor4InitEf:0000000000000000 $t
/var/folders/2p/02m_5p7958535cp2tpgps0400000gn/T//ccYth1xv.s:166    .text._ZN7daisysp10Compressor4InitEf:0000000000000000 _ZN7daisysp10Compressor4InitEf
/var/folders/2p/02m_5p7958535cp2tpgps0400000gn/T//ccYth1xv.s:445    .text._ZN7daisysp10Compressor4InitEf:00000000000000c0 $d
/var/folders/2p/02m_5p7958535cp2tpgps0400000gn/T//ccYth1xv.s:453    .text._ZN7daisysp10Compressor7ProcessEf:0000000000000000 $t
/var/folders/2p/02m_5p7958535cp2tpgps0400000gn/T//ccYth1xv.s:459    .text._ZN7daisysp10Compressor7ProcessEf:0000000000000000 _ZN7daisysp10Compressor7ProcessEf
/var/folders/2p/02m_5p7958535cp2tpgps0400000gn/T//ccYth1xv.s:669    .text._ZN7daisysp10Compressor7ProcessEf:00000000000000d4 $d
/var/folders/2p/02m_5p7958535cp2tpgps0400000gn/T//ccYth1xv.s:681    .text._ZN7daisysp10Compressor12ProcessBlockEPfS1_S1_j:0000000000000000 $t
/var/folders/2p/02m_5p7958535cp2tpgps0400000gn/T//ccYth1xv.s:687    .text._ZN7daisysp10Compressor12ProcessBlockEPfS1_S1_j:0000000000000000 _ZN7daisysp10Compressor12ProcessBlockEPfS1_S1_j
/var/folders/2p/02m_5p7958535cp2tpgps0400000gn/T//ccYth1xv.s:764    .text._ZN14GrannyChordApp13AudioCallbackEPKPKfPPfj:0000000000000000 $t
/var/folders/2p/02m_5p7958535cp2tpgps0400000gn/T//ccYth1xv.s:770    .text._ZN14GrannyChordApp13AudioCallbackEPKPKfPPfj:0000000000000000 _ZN14GrannyChordApp13AudioCallbackEPKPKfPPfj
/var/folders/2p/02m_5p7958535cp2tpgps0400000gn/T//ccYth1xv.s:884    .text._ZN14GrannyChordApp13AudioCallbackEPKPKfPPfj:0000000000000048 $d
/var/folders/2p/02m_5p7958535cp2tpgps0400000gn/T//ccYth1xv.s:889    .text._ZN7daisysp10Compressor12ProcessBlockEPPfS2_S1_jj:0000000000000000 $t
/var/folders/2p/02m_5p7958535cp2tpgps0400000gn/T//ccYth1xv.s:895    .text._ZN7daisysp10Compressor12ProcessBlockEPPfS2_S1_jj:0000000000000000 _ZN7daisysp10Compressor12ProcessBlockEPPfS2_S1_jj
/var/folders/2p/02m_5p7958535cp2tpgps0400000gn/T//ccYth1xv.s:1014   .text._ZN14GrannyChordApp17HandleStateChangeE8AppStateS0_:0000000000000000 $t
/var/folders/2p/02m_5p7958535cp2tpgps0400000gn/T//ccYth1xv.s:1020   .text._ZN14GrannyChordApp17HandleStateChangeE8AppStateS0_:0000000000000000 _ZN14GrannyChordApp17HandleStateChangeE8AppStateS0_
/var/folders/2p/02m_5p7958535cp2tpgps0400000gn/T//ccYth1xv.s:1035   .text._ZN14GrannyChordApp11InitFileMgrEv:0000000000000000 $t
/var/folders/2p/02m_5p7958535cp2tpgps0400000gn/T//ccYth1xv.s:1041   .text._ZN14GrannyChordApp11InitFileMgrEv:0000000000000000 _ZN14GrannyChordApp11InitFileMgrEv
/var/folders/2p/02m_5p7958535cp2tpgps0400000gn/T//ccYth1xv.s:1118   .text._ZN14GrannyChordApp14InitCompressorEv:0000000000000000 $t
/var/folders/2p/02m_5p7958535cp2tpgps0400000gn/T//ccYth1xv.s:1124   .text._ZN14GrannyChordApp14InitCompressorEv:0000000000000000 _ZN14GrannyChordApp14InitCompressorEv
/var/folders/2p/02m_5p7958535cp2tpgps0400000gn/T//ccYth1xv.s:1288   .text._ZN14GrannyChordApp14InitCompressorEv:0000000000000060 $d
/var/folders/2p/02m_5p7958535cp2tpgps0400000gn/T//ccYth1xv.s:1296   .text._ZN14GrannyChordApp19HandleFileSelectionEv:0000000000000000 $t
/var/folders/2p/02m_5p7958535cp2tpgps0400000gn/T//ccYth1xv.s:1302   .text._ZN14GrannyChordApp19HandleFileSelectionEv:0000000000000000 _ZN14GrannyChordApp19HandleFileSelectionEv
/var/folders/2p/02m_5p7958535cp2tpgps0400000gn/T//ccYth1xv.s:1478   .text._ZN14GrannyChordApp4InitEv:0000000000000000 $t
/var/folders/2p/02m_5p7958535cp2tpgps0400000gn/T//ccYth1xv.s:1484   .text._ZN14GrannyChordApp4InitEv:0000000000000000 _ZN14GrannyChordApp4InitEv
/var/folders/2p/02m_5p7958535cp2tpgps0400000gn/T//ccYth1xv.s:1623   .text._ZN14GrannyChordApp4InitEv:0000000000000070 $d
/var/folders/2p/02m_5p7958535cp2tpgps0400000gn/T//ccYth1xv.s:1629   .text._ZN14GrannyChordApp20UpdateGranularParamsEv:0000000000000000 $t
/var/folders/2p/02m_5p7958535cp2tpgps0400000gn/T//ccYth1xv.s:1635   .text._ZN14GrannyChordApp20UpdateGranularParamsEv:0000000000000000 _ZN14GrannyChordApp20UpdateGranularParamsEv
/var/folders/2p/02m_5p7958535cp2tpgps0400000gn/T//ccYth1xv.s:1733   .text._ZN14GrannyChordApp20UpdateGranularParamsEv:0000000000000054 $d
/var/folders/2p/02m_5p7958535cp2tpgps0400000gn/T//ccYth1xv.s:1787   .text._ZN14GrannyChordApp20UpdateGranularParamsEv:000000000000008c $d
/var/folders/2p/02m_5p7958535cp2tpgps0400000gn/T//ccYth1xv.s:2159   .text._ZN14GrannyChordApp20UpdateGranularParamsEv:0000000000000144 $d
/var/folders/2p/02m_5p7958535cp2tpgps0400000gn/T//ccYth1xv.s:2167   .text._ZN14GrannyChordApp17UpdateSynthParamsEv:0000000000000000 $t
/var/folders/2p/02m_5p7958535cp2tpgps0400000gn/T//ccYth1xv.s:2173   .text._ZN14GrannyChordApp17UpdateSynthParamsEv:0000000000000000 _ZN14GrannyChordApp17UpdateSynthParamsEv
/var/folders/2p/02m_5p7958535cp2tpgps0400000gn/T//ccYth1xv.s:2205   .text._ZN14GrannyChordApp3RunEv:0000000000000000 $t
/var/folders/2p/02m_5p7958535cp2tpgps0400000gn/T//ccYth1xv.s:2211   .text._ZN14GrannyChordApp3RunEv:0000000000000000 _ZN14GrannyChordApp3RunEv
/var/folders/2p/02m_5p7958535cp2tpgps0400000gn/T//ccYth1xv.s:2261   .text._ZN14GrannyChordApp15CheckParamDeltaEff:0000000000000000 $t
/var/folders/2p/02m_5p7958535cp2tpgps0400000gn/T//ccYth1xv.s:2267   .text._ZN14GrannyChordApp15CheckParamDeltaEff:0000000000000000 _ZN14GrannyChordApp15CheckParamDeltaEff
/var/folders/2p/02m_5p7958535cp2tpgps0400000gn/T//ccYth1xv.s:2296   .text._ZN14GrannyChordApp15CheckParamDeltaEff:000000000000001c $d
/var/folders/2p/02m_5p7958535cp2tpgps0400000gn/T//ccYth1xv.s:1740   .text._ZN14GrannyChordApp20UpdateGranularParamsEv:000000000000005b $d
/var/folders/2p/02m_5p7958535cp2tpgps0400000gn/T//ccYth1xv.s:1740   .text._ZN14GrannyChordApp20UpdateGranularParamsEv:000000000000005c $t
/var/folders/2p/02m_5p7958535cp2tpgps0400000gn/T//ccYth1xv.s:1795   .text._ZN14GrannyChordApp20UpdateGranularParamsEv:0000000000000093 $d
/var/folders/2p/02m_5p7958535cp2tpgps0400000gn/T//ccYth1xv.s:1795   .text._ZN14GrannyChordApp20UpdateGranularParamsEv:0000000000000094 $t

UNDEFINED SYMBOLS
expf
frexpf
_ZN13GranularSynth13ProcessGrainsEPfS0_j
_ZN14GrannyChordApp9instance_E
_ZN16AudioFileManager4InitEv
_ZN9UIManager13SetStateErrorEv
ARM GAS  /var/folders/2p/02m_5p7958535cp2tpgps0400000gn/T//ccYth1xv.s 			page 66


_ZN16AudioFileManager12ScanWavFilesEv
_ZN16AudioFileManager8LoadFileEt
_ZN14GrannyChordApp9InitSynthEv
_ZN5daisy8DaisyPod15AudioSampleRateEv
_ZN9UIManager19GetEncoderIncrementEv
_ZN9UIManager14Button1PressedEv
_ZN5daisy8DaisyPod17SetAudioBlockSizeEj
_ZN5daisy8DaisyPod18SetAudioSampleRateENS_9SaiHandle6Config10SampleRateE
time
_ZN9UIManager4InitEv
_ZN9UIManager8SetStateE8AppState
_ZN5daisy8DaisyPod8StartAdcEv
_ZN5daisy8DaisyPod10StartAudioEPFvPKPKfPPfjE
rng_state
_ZN9UIManager13GetKnob1ValueEi
_ZN9UIManager13GetKnob2ValueEi
_ZN13GranularSynth16SetUserGrainSizeEf
_ZN13GranularSynth17SetUserPitchRatioEf
_ZN13GranularSynth15SetUserSpawnPosEf
_ZN13GranularSynth19SetUserActiveGrainsEf
_ZN9UIManager8UpdateUIEv
_ZN5daisy6System5DelayEm
