ARM GAS  /var/folders/2p/02m_5p7958535cp2tpgps0400000gn/T//cco1mNMf.s 			page 1


   1              		.cpu cortex-m7
   2              		.arch armv7e-m
   3              		.fpu fpv5-d16
   4              		.eabi_attribute 28, 1
   5              		.eabi_attribute 20, 1
   6              		.eabi_attribute 21, 1
   7              		.eabi_attribute 23, 3
   8              		.eabi_attribute 24, 1
   9              		.eabi_attribute 25, 1
  10              		.eabi_attribute 26, 1
  11              		.eabi_attribute 30, 4
  12              		.eabi_attribute 34, 1
  13              		.eabi_attribute 18, 4
  14              		.file	"GrannyChordApp.cpp"
  15              		.text
  16              	.Ltext0:
  17              		.cfi_sections	.debug_frame
  18              		.section	.text._ZNK5daisy6Switch10TimeHeldMsEv,"axG",%progbits,_ZNK5daisy6Switch10TimeHeldMsEv,com
  19              		.align	1
  20              		.weak	_ZNK5daisy6Switch10TimeHeldMsEv
  21              		.syntax unified
  22              		.thumb
  23              		.thumb_func
  25              	_ZNK5daisy6Switch10TimeHeldMsEv:
  26              	.LVL0:
  27              	.LFB1646:
  28              		.file 1 "../libDaisy/src/hid/switch.h"
   1:../libDaisy/src/hid/switch.h **** #pragma once
   2:../libDaisy/src/hid/switch.h **** #ifndef DSY_SWITCH_H
   3:../libDaisy/src/hid/switch.h **** #define DSY_SWITCH_H
   4:../libDaisy/src/hid/switch.h **** #include "daisy_core.h"
   5:../libDaisy/src/hid/switch.h **** #include "per/gpio.h"
   6:../libDaisy/src/hid/switch.h **** #include "sys/system.h"
   7:../libDaisy/src/hid/switch.h **** 
   8:../libDaisy/src/hid/switch.h **** namespace daisy
   9:../libDaisy/src/hid/switch.h **** {
  10:../libDaisy/src/hid/switch.h **** /** 
  11:../libDaisy/src/hid/switch.h ****     Generic Class for handling momentary/latching switches \n 
  12:../libDaisy/src/hid/switch.h ****     Inspired/influenced by Mutable Instruments (pichenettes) Switch classes
  13:../libDaisy/src/hid/switch.h ****     @author Stephen Hensley
  14:../libDaisy/src/hid/switch.h ****     @date December 2019
  15:../libDaisy/src/hid/switch.h ****     @ingroup controls
  16:../libDaisy/src/hid/switch.h **** */
  17:../libDaisy/src/hid/switch.h **** class Switch
  18:../libDaisy/src/hid/switch.h **** {
  19:../libDaisy/src/hid/switch.h ****   public:
  20:../libDaisy/src/hid/switch.h ****     /** Specifies the expected behavior of the switch */
  21:../libDaisy/src/hid/switch.h ****     enum Type
  22:../libDaisy/src/hid/switch.h ****     {
  23:../libDaisy/src/hid/switch.h ****         TYPE_TOGGLE,    /**< & */
  24:../libDaisy/src/hid/switch.h ****         TYPE_MOMENTARY, /**< & */
  25:../libDaisy/src/hid/switch.h ****     };
  26:../libDaisy/src/hid/switch.h ****     /** Specifies whether the pressed is HIGH or LOW. */
  27:../libDaisy/src/hid/switch.h ****     enum Polarity
  28:../libDaisy/src/hid/switch.h ****     {
  29:../libDaisy/src/hid/switch.h ****         POLARITY_NORMAL,   /**< & */
  30:../libDaisy/src/hid/switch.h ****         POLARITY_INVERTED, /**< & */
ARM GAS  /var/folders/2p/02m_5p7958535cp2tpgps0400000gn/T//cco1mNMf.s 			page 2


  31:../libDaisy/src/hid/switch.h ****     };
  32:../libDaisy/src/hid/switch.h **** 
  33:../libDaisy/src/hid/switch.h ****     /** Specifies whether to use built-in Pull Up/Down resistors to hold button at a given state wh
  34:../libDaisy/src/hid/switch.h ****     enum Pull
  35:../libDaisy/src/hid/switch.h ****     {
  36:../libDaisy/src/hid/switch.h ****         PULL_UP,   /**< & */
  37:../libDaisy/src/hid/switch.h ****         PULL_DOWN, /**< & */
  38:../libDaisy/src/hid/switch.h ****         PULL_NONE, /**< & */
  39:../libDaisy/src/hid/switch.h ****     };
  40:../libDaisy/src/hid/switch.h **** 
  41:../libDaisy/src/hid/switch.h ****     Switch() {}
  42:../libDaisy/src/hid/switch.h ****     ~Switch() {}
  43:../libDaisy/src/hid/switch.h **** 
  44:../libDaisy/src/hid/switch.h ****     /** 
  45:../libDaisy/src/hid/switch.h ****     Initializes the switch object with a given port/pin combo.
  46:../libDaisy/src/hid/switch.h ****     \param pin port/pin object to tell the switch which hardware pin to use.
  47:../libDaisy/src/hid/switch.h ****     \param update_rate Does nothing. Backwards compatibility until next breaking update.
  48:../libDaisy/src/hid/switch.h ****     \param t switch type -- Default: TYPE_MOMENTARY
  49:../libDaisy/src/hid/switch.h ****     \param pol switch polarity -- Default: POLARITY_INVERTED
  50:../libDaisy/src/hid/switch.h ****     \param pu switch pull up/down -- Default: PULL_UP
  51:../libDaisy/src/hid/switch.h ****     */
  52:../libDaisy/src/hid/switch.h ****     void
  53:../libDaisy/src/hid/switch.h ****     Init(dsy_gpio_pin pin, float update_rate, Type t, Polarity pol, Pull pu);
  54:../libDaisy/src/hid/switch.h **** 
  55:../libDaisy/src/hid/switch.h ****     /**
  56:../libDaisy/src/hid/switch.h ****        Simplified Init.
  57:../libDaisy/src/hid/switch.h ****        \param pin port/pin object to tell the switch which hardware pin to use.
  58:../libDaisy/src/hid/switch.h ****        \param update_rate Left for backwards compatibility until next breaking change.
  59:../libDaisy/src/hid/switch.h ****     */
  60:../libDaisy/src/hid/switch.h ****     void Init(dsy_gpio_pin pin, float update_rate = 0.f);
  61:../libDaisy/src/hid/switch.h **** 
  62:../libDaisy/src/hid/switch.h ****     /** 
  63:../libDaisy/src/hid/switch.h ****     Called at update_rate to debounce and handle timing for the switch.
  64:../libDaisy/src/hid/switch.h ****     In order for events not to be missed, its important that the Edge/Pressed checks
  65:../libDaisy/src/hid/switch.h ****     be made at the same rate as the debounce function is being called.
  66:../libDaisy/src/hid/switch.h ****     */
  67:../libDaisy/src/hid/switch.h ****     void Debounce();
  68:../libDaisy/src/hid/switch.h **** 
  69:../libDaisy/src/hid/switch.h ****     /** \return true if a button was just pressed. */
  70:../libDaisy/src/hid/switch.h ****     inline bool RisingEdge() const { return updated_ ? state_ == 0x7f : false; }
  71:../libDaisy/src/hid/switch.h **** 
  72:../libDaisy/src/hid/switch.h ****     /** \return true if the button was just released */
  73:../libDaisy/src/hid/switch.h ****     inline bool FallingEdge() const
  74:../libDaisy/src/hid/switch.h ****     {
  75:../libDaisy/src/hid/switch.h ****         return updated_ ? state_ == 0x80 : false;
  76:../libDaisy/src/hid/switch.h ****     }
  77:../libDaisy/src/hid/switch.h **** 
  78:../libDaisy/src/hid/switch.h ****     /** \return true if the button is held down (or if the toggle is on) */
  79:../libDaisy/src/hid/switch.h ****     inline bool Pressed() const { return state_ == 0xff; }
  80:../libDaisy/src/hid/switch.h **** 
  81:../libDaisy/src/hid/switch.h ****     /** \return true if the button is held down, without debouncing */
  82:../libDaisy/src/hid/switch.h ****     inline bool RawState()
  83:../libDaisy/src/hid/switch.h ****     {
  84:../libDaisy/src/hid/switch.h ****         return flip_ ? !dsy_gpio_read(&hw_gpio_) : dsy_gpio_read(&hw_gpio_);
  85:../libDaisy/src/hid/switch.h ****     }
  86:../libDaisy/src/hid/switch.h **** 
  87:../libDaisy/src/hid/switch.h ****     /** \return the time in milliseconds that the button has been held (or toggle has been on) */
ARM GAS  /var/folders/2p/02m_5p7958535cp2tpgps0400000gn/T//cco1mNMf.s 			page 3


  88:../libDaisy/src/hid/switch.h ****     inline float TimeHeldMs() const
  29              		.loc 1 88 18 view -0
  30              		.cfi_startproc
  31              		@ args = 0, pretend = 0, frame = 0
  32              		@ frame_needed = 0, uses_anonymous_args = 0
  89:../libDaisy/src/hid/switch.h ****     {
  90:../libDaisy/src/hid/switch.h ****         return Pressed() ? System::GetNow() - rising_edge_time_ : 0;
  33              		.loc 1 90 9 view .LVU1
  34              	.LBB225:
  35              	.LBI225:
  79:../libDaisy/src/hid/switch.h **** 
  36              		.loc 1 79 17 view .LVU2
  37              	.LBB226:
  79:../libDaisy/src/hid/switch.h **** 
  38              		.loc 1 79 35 view .LVU3
  79:../libDaisy/src/hid/switch.h **** 
  39              		.loc 1 79 35 is_stmt 0 view .LVU4
  40              	.LBE226:
  41              	.LBE225:
  88:../libDaisy/src/hid/switch.h ****     {
  42              		.loc 1 88 18 view .LVU5
  43 0000 10B5     		push	{r4, lr}
  44              		.cfi_def_cfa_offset 8
  45              		.cfi_offset 4, -8
  46              		.cfi_offset 14, -4
  47              		.loc 1 90 26 view .LVU6
  48 0002 837A     		ldrb	r3, [r0, #10]	@ zero_extendqisi2
  88:../libDaisy/src/hid/switch.h ****     {
  49              		.loc 1 88 18 view .LVU7
  50 0004 0446     		mov	r4, r0
  51              		.loc 1 90 26 view .LVU8
  52 0006 FF2B     		cmp	r3, #255
  53 0008 0AD1     		bne	.L3
  54              	.LVL1:
  55              	.LBB227:
  56              	.LBI227:
  88:../libDaisy/src/hid/switch.h ****     {
  57              		.loc 1 88 18 is_stmt 1 view .LVU9
  58              	.LBB228:
  59              		.loc 1 90 42 is_stmt 0 view .LVU10
  60 000a FFF7FEFF 		bl	_ZN5daisy6System6GetNowEv
  61              	.LVL2:
  62              		.loc 1 90 45 view .LVU11
  63 000e 07EE900A 		vmov	s15, r0	@ int
  64 0012 B8EE670A 		vcvt.f32.u32	s0, s15
  65              		.loc 1 90 26 view .LVU12
  66 0016 D4ED037A 		vldr.32	s15, [r4, #12]
  67 001a 30EE670A 		vsub.f32	s0, s0, s15
  68              	.LVL3:
  69              	.L1:
  70              		.loc 1 90 26 view .LVU13
  71              	.LBE228:
  72              	.LBE227:
  91:../libDaisy/src/hid/switch.h ****     }
  73              		.loc 1 91 5 view .LVU14
  74 001e 10BD     		pop	{r4, pc}
  75              	.LVL4:
ARM GAS  /var/folders/2p/02m_5p7958535cp2tpgps0400000gn/T//cco1mNMf.s 			page 4


  76              	.L3:
  90:../libDaisy/src/hid/switch.h ****     }
  77              		.loc 1 90 26 view .LVU15
  78 0020 9FED010A 		vldr.32	s0, .L4
  90:../libDaisy/src/hid/switch.h ****     }
  79              		.loc 1 90 67 view .LVU16
  80 0024 FBE7     		b	.L1
  81              	.L5:
  82 0026 00BF     		.align	2
  83              	.L4:
  84 0028 00000000 		.word	0
  85              		.cfi_endproc
  86              	.LFE1646:
  88              		.section	.text._ZN14GrannyChordApp20HandleEncoderPressedEv,"ax",%progbits
  89              		.align	1
  90              		.global	_ZN14GrannyChordApp20HandleEncoderPressedEv
  91              		.syntax unified
  92              		.thumb
  93              		.thumb_func
  95              	_ZN14GrannyChordApp20HandleEncoderPressedEv:
  96              	.LVL5:
  97              	.LFB4791:
  98              		.file 2 "GrannyChordApp.cpp"
   1:GrannyChordApp.cpp **** #include "GrannyChordApp.h"
   2:GrannyChordApp.cpp **** 
   3:GrannyChordApp.cpp **** /* this is required for AudioCallback as it needs a static object */
   4:GrannyChordApp.cpp **** GrannyChordApp* GrannyChordApp::instance_ = nullptr;
   5:GrannyChordApp.cpp **** 
   6:GrannyChordApp.cpp **** /// @brief Initialises app state and members and goes through app startup process
   7:GrannyChordApp.cpp **** /// @param left Left channel audio data buffer
   8:GrannyChordApp.cpp **** /// @param right Right channel audio data buffer
   9:GrannyChordApp.cpp **** void GrannyChordApp::Init(int16_t *left, int16_t *right, ReverbSc* reverb){
  10:GrannyChordApp.cpp ****   left_buf_ = left;
  11:GrannyChordApp.cpp ****   right_buf_ = right;
  12:GrannyChordApp.cpp ****   reverb_ = reverb;
  13:GrannyChordApp.cpp ****   pod_.SetAudioBlockSize(4);
  14:GrannyChordApp.cpp ****   pod_.SetAudioSampleRate(SaiHandle::Config::SampleRate::SAI_48KHZ);
  15:GrannyChordApp.cpp ****   if (!InitFileMgr()){
  16:GrannyChordApp.cpp ****     DebugPrint(pod_,"File manager failed to init - can't read SD card");
  17:GrannyChordApp.cpp ****     pod_.led1.SetRed(1);
  18:GrannyChordApp.cpp ****   }
  19:GrannyChordApp.cpp **** 
  20:GrannyChordApp.cpp ****   InitFX();
  21:GrannyChordApp.cpp ****   // InitPrevParamVals();
  22:GrannyChordApp.cpp ****   SeedRng();
  23:GrannyChordApp.cpp ****   
  24:GrannyChordApp.cpp ****   pod_.StartAdc();
  25:GrannyChordApp.cpp ****   pod_.StartAudio(AudioCallback);
  26:GrannyChordApp.cpp **** }
  27:GrannyChordApp.cpp **** 
  28:GrannyChordApp.cpp **** 
  29:GrannyChordApp.cpp **** /// @brief Loops whilst app is running, updating state and UI, handling 
  30:GrannyChordApp.cpp **** ///        state transitions, updating parameters and managing audio recordings
  31:GrannyChordApp.cpp **** void GrannyChordApp::Run(){
  32:GrannyChordApp.cpp ****   while(true){
  33:GrannyChordApp.cpp ****     UpdateUI();
  34:GrannyChordApp.cpp ****     UpdateSynthParams();
ARM GAS  /var/folders/2p/02m_5p7958535cp2tpgps0400000gn/T//cco1mNMf.s 			page 5


  35:GrannyChordApp.cpp ****     System::Delay(1);
  36:GrannyChordApp.cpp ****   }
  37:GrannyChordApp.cpp **** }
  38:GrannyChordApp.cpp **** 
  39:GrannyChordApp.cpp **** void GrannyChordApp::UpdateUI(){
  40:GrannyChordApp.cpp ****   AppState prev_state = curr_state_;
  41:GrannyChordApp.cpp ****   pod_.ProcessDigitalControls();
  42:GrannyChordApp.cpp ****   if (pod_.encoder.Pressed()) HandleEncoderPressed();
  43:GrannyChordApp.cpp ****   if (pod_.encoder.TimeHeldMs() > 1000.0f) HandleEncoderLongPress();
  44:GrannyChordApp.cpp ****   if (pod_.button1.Pressed()) HandleButton1();
  45:GrannyChordApp.cpp ****   if (pod_.button2.Pressed()) HandleButton2();
  46:GrannyChordApp.cpp ****   if (curr_state_==AppState::Synthesis){
  47:GrannyChordApp.cpp ****     if (pod_.button1.TimeHeldMs() >1000.0f) HandleButton1LongPress();
  48:GrannyChordApp.cpp ****     if (pod_.button2.TimeHeldMs() >1000.0f) HandleButton2LongPress();
  49:GrannyChordApp.cpp ****   }
  50:GrannyChordApp.cpp **** 
  51:GrannyChordApp.cpp ****   int32_t encoder_inc = pod_.encoder.Increment();
  52:GrannyChordApp.cpp ****   if (encoder_inc!=0 && curr_state_== AppState::SelectFile){
  53:GrannyChordApp.cpp ****     HandleFileSelection(encoder_inc);
  54:GrannyChordApp.cpp ****   }
  55:GrannyChordApp.cpp **** 
  56:GrannyChordApp.cpp ****   if (prev_state != curr_state_){
  57:GrannyChordApp.cpp ****     HandleStateChange();
  58:GrannyChordApp.cpp ****   }
  59:GrannyChordApp.cpp **** }
  60:GrannyChordApp.cpp **** 
  61:GrannyChordApp.cpp **** void GrannyChordApp::HandleStateChange(){
  62:GrannyChordApp.cpp ****   switch(curr_state_){
  63:GrannyChordApp.cpp ****     // case AppState::SelectFile:  HandleFileSelection(); break; 
  64:GrannyChordApp.cpp ****     case AppState::RecordIn:    ClearAudioBuffers();    break;
  65:GrannyChordApp.cpp ****     case AppState::PlayWAV:     InitPlayback();        break;
  66:GrannyChordApp.cpp ****     case AppState::Synthesis:   InitSynth();           break;
  67:GrannyChordApp.cpp ****     case AppState::Error: 
  68:GrannyChordApp.cpp ****       pod_.led1.SetRed(1); 
  69:GrannyChordApp.cpp ****       pod_.led2.SetRed(1); 
  70:GrannyChordApp.cpp ****       break;
  71:GrannyChordApp.cpp ****     default: break;
  72:GrannyChordApp.cpp ****   }
  73:GrannyChordApp.cpp **** }
  74:GrannyChordApp.cpp **** 
  75:GrannyChordApp.cpp **** void GrannyChordApp::HandleEncoderPressed(){
  99              		.loc 2 75 44 is_stmt 1 view -0
 100              		.cfi_startproc
 101              		@ args = 0, pretend = 0, frame = 0
 102              		@ frame_needed = 0, uses_anonymous_args = 0
 103              		@ link register save eliminated.
  76:GrannyChordApp.cpp ****   switch(curr_state_){
 104              		.loc 2 76 3 view .LVU18
 105              		.loc 2 76 10 is_stmt 0 view .LVU19
 106 0000 D0F87435 		ldr	r3, [r0, #1396]
 107              		.loc 2 76 3 view .LVU20
 108 0004 012B     		cmp	r3, #1
 109 0006 06D0     		beq	.L7
 110 0008 032B     		cmp	r3, #3
 111 000a 00D0     		beq	.L8
 112 000c 13B9     		cbnz	r3, .L6
 113              	.L8:
ARM GAS  /var/folders/2p/02m_5p7958535cp2tpgps0400000gn/T//cco1mNMf.s 			page 6


  77:GrannyChordApp.cpp ****     case AppState::SelectFile:
 114              		.loc 2 77 5 is_stmt 1 view .LVU21
  78:GrannyChordApp.cpp ****     case AppState::RecordIn: 
 115              		.loc 2 78 5 view .LVU22
  79:GrannyChordApp.cpp ****       curr_state_ = AppState::PlayWAV;
 116              		.loc 2 79 7 view .LVU23
 117              		.loc 2 79 19 is_stmt 0 view .LVU24
 118 000e 0123     		movs	r3, #1
 119              	.L13:
  80:GrannyChordApp.cpp ****       break;
  81:GrannyChordApp.cpp ****     case AppState::PlayWAV:   curr_state_ = AppState::Synthesis; break;
 120              		.loc 2 81 43 view .LVU25
 121 0010 C0F87435 		str	r3, [r0, #1396]
 122              		.loc 2 81 66 is_stmt 1 view .LVU26
 123              	.L6:
  82:GrannyChordApp.cpp ****     default:
  83:GrannyChordApp.cpp ****       break;
  84:GrannyChordApp.cpp ****   }
  85:GrannyChordApp.cpp **** }
 124              		.loc 2 85 1 is_stmt 0 view .LVU27
 125 0014 7047     		bx	lr
 126              	.L7:
  81:GrannyChordApp.cpp ****     default:
 127              		.loc 2 81 5 is_stmt 1 view .LVU28
  81:GrannyChordApp.cpp ****     default:
 128              		.loc 2 81 31 view .LVU29
  81:GrannyChordApp.cpp ****     default:
 129              		.loc 2 81 43 is_stmt 0 view .LVU30
 130 0016 0223     		movs	r3, #2
 131 0018 FAE7     		b	.L13
 132              		.cfi_endproc
 133              	.LFE4791:
 135              		.section	.text._ZN14GrannyChordApp22HandleEncoderLongPressEv,"ax",%progbits
 136              		.align	1
 137              		.global	_ZN14GrannyChordApp22HandleEncoderLongPressEv
 138              		.syntax unified
 139              		.thumb
 140              		.thumb_func
 142              	_ZN14GrannyChordApp22HandleEncoderLongPressEv:
 143              	.LVL6:
 144              	.LFB4792:
  86:GrannyChordApp.cpp **** 
  87:GrannyChordApp.cpp **** void GrannyChordApp::HandleEncoderLongPress(){
 145              		.loc 2 87 46 is_stmt 1 view -0
 146              		.cfi_startproc
 147              		@ args = 0, pretend = 0, frame = 0
 148              		@ frame_needed = 0, uses_anonymous_args = 0
 149              		@ link register save eliminated.
  88:GrannyChordApp.cpp ****   switch(curr_state_){
 150              		.loc 2 88 3 view .LVU32
 151              		.loc 2 88 10 is_stmt 0 view .LVU33
 152 0000 D0F87435 		ldr	r3, [r0, #1396]
 153              		.loc 2 88 3 view .LVU34
 154 0004 012B     		cmp	r3, #1
 155 0006 03DC     		bgt	.L15
 156 0008 002B     		cmp	r3, #0
 157 000a 07DB     		blt	.L14
ARM GAS  /var/folders/2p/02m_5p7958535cp2tpgps0400000gn/T//cco1mNMf.s 			page 7


  89:GrannyChordApp.cpp ****     case AppState::Synthesis:
  90:GrannyChordApp.cpp ****     case AppState::RecordIn:  
  91:GrannyChordApp.cpp ****       curr_state_ = AppState::SelectFile;
  92:GrannyChordApp.cpp ****       break;
  93:GrannyChordApp.cpp ****     case AppState::SelectFile:
 158              		.loc 2 93 5 is_stmt 1 view .LVU35
  94:GrannyChordApp.cpp ****     case AppState::PlayWAV: 
 159              		.loc 2 94 5 view .LVU36
  95:GrannyChordApp.cpp ****       curr_state_ = AppState::RecordIn;  
 160              		.loc 2 95 7 view .LVU37
 161              		.loc 2 95 19 is_stmt 0 view .LVU38
 162 000c 0323     		movs	r3, #3
 163 000e 03E0     		b	.L18
 164              	.L15:
  88:GrannyChordApp.cpp ****     case AppState::Synthesis:
 165              		.loc 2 88 3 view .LVU39
 166 0010 023B     		subs	r3, r3, #2
 167 0012 012B     		cmp	r3, #1
 168 0014 02D8     		bhi	.L14
  89:GrannyChordApp.cpp ****     case AppState::RecordIn:  
 169              		.loc 2 89 5 is_stmt 1 view .LVU40
  90:GrannyChordApp.cpp ****       curr_state_ = AppState::SelectFile;
 170              		.loc 2 90 5 view .LVU41
  91:GrannyChordApp.cpp ****       break;
 171              		.loc 2 91 7 view .LVU42
  91:GrannyChordApp.cpp ****       break;
 172              		.loc 2 91 19 is_stmt 0 view .LVU43
 173 0016 0023     		movs	r3, #0
 174              	.L18:
 175              		.loc 2 95 19 view .LVU44
 176 0018 C0F87435 		str	r3, [r0, #1396]
  96:GrannyChordApp.cpp ****       break;
 177              		.loc 2 96 7 is_stmt 1 view .LVU45
 178              	.L14:
  97:GrannyChordApp.cpp ****     default:
  98:GrannyChordApp.cpp ****       break;
  99:GrannyChordApp.cpp ****   }
 100:GrannyChordApp.cpp **** }
 179              		.loc 2 100 1 is_stmt 0 view .LVU46
 180 001c 7047     		bx	lr
 181              		.cfi_endproc
 182              	.LFE4792:
 184              		.section	.rodata._ZN14GrannyChordApp19HandleFileSelectionEl.str1.1,"aMS",%progbits,1
 185              	.LC0:
 186 0000 73656C65 		.ascii	"selected file %d\000"
 186      63746564 
 186      2066696C 
 186      65202564 
 186      00
 187              		.section	.text._ZN14GrannyChordApp19HandleFileSelectionEl,"ax",%progbits
 188              		.align	1
 189              		.global	_ZN14GrannyChordApp19HandleFileSelectionEl
 190              		.syntax unified
 191              		.thumb
 192              		.thumb_func
 194              	_ZN14GrannyChordApp19HandleFileSelectionEl:
 195              	.LVL7:
ARM GAS  /var/folders/2p/02m_5p7958535cp2tpgps0400000gn/T//cco1mNMf.s 			page 8


 196              	.LFB4797:
 101:GrannyChordApp.cpp **** 
 102:GrannyChordApp.cpp **** void GrannyChordApp::HandleButton1(){
 103:GrannyChordApp.cpp ****   if (curr_state_==AppState::Synthesis){
 104:GrannyChordApp.cpp ****     UpdateSynthMode();
 105:GrannyChordApp.cpp ****   }
 106:GrannyChordApp.cpp **** }
 107:GrannyChordApp.cpp **** 
 108:GrannyChordApp.cpp **** /// @brief Toggles on/off randomness for synth parameters
 109:GrannyChordApp.cpp **** void GrannyChordApp::HandleButton2(){
 110:GrannyChordApp.cpp ****   if (curr_state_==AppState::Synthesis){
 111:GrannyChordApp.cpp ****     ToggleRandomnessControls();
 112:GrannyChordApp.cpp ****   }
 113:GrannyChordApp.cpp **** }
 114:GrannyChordApp.cpp **** 
 115:GrannyChordApp.cpp **** void GrannyChordApp::HandleButton1LongPress(){
 116:GrannyChordApp.cpp ****   if (curr_state_==AppState::Synthesis){
 117:GrannyChordApp.cpp ****     ToggleFX(true);
 118:GrannyChordApp.cpp ****   }
 119:GrannyChordApp.cpp **** }
 120:GrannyChordApp.cpp **** 
 121:GrannyChordApp.cpp **** void GrannyChordApp::HandleButton2LongPress(){
 122:GrannyChordApp.cpp ****   if (curr_state_==AppState::Synthesis){
 123:GrannyChordApp.cpp ****     ToggleFX(false);
 124:GrannyChordApp.cpp ****   }
 125:GrannyChordApp.cpp **** }
 126:GrannyChordApp.cpp **** 
 127:GrannyChordApp.cpp **** /// @brief Scrolls through list of files for user selection
 128:GrannyChordApp.cpp **** void GrannyChordApp::HandleFileSelection(int32_t encoder_inc){
 197              		.loc 2 128 62 is_stmt 1 view -0
 198              		.cfi_startproc
 199              		@ args = 0, pretend = 0, frame = 0
 200              		@ frame_needed = 0, uses_anonymous_args = 0
 201              		@ link register save eliminated.
 129:GrannyChordApp.cpp ****   int file_count = filemgr_.GetFileCount();
 202              		.loc 2 129 3 view .LVU48
 203              	.LBB229:
 204              	.LBI229:
 205              		.file 3 "AudioFileManager.h"
   1:AudioFileManager.h **** #pragma once
   2:AudioFileManager.h **** #include <stdio.h>
   3:AudioFileManager.h **** #include <stdint.h>
   4:AudioFileManager.h **** // #include <vector>
   5:AudioFileManager.h **** #include "daisy_pod.h"
   6:AudioFileManager.h **** #include "constants_utils.h"
   7:AudioFileManager.h **** #include "debug_print.h"
   8:AudioFileManager.h **** 
   9:AudioFileManager.h **** using namespace daisy; 
  10:AudioFileManager.h **** 
  11:AudioFileManager.h **** class AudioFileManager {
  12:AudioFileManager.h ****   public:
  13:AudioFileManager.h ****     AudioFileManager(SdmmcHandler &sd, FatFSInterface &fsi, DaisyPod &pod, FIL *file)
  14:AudioFileManager.h ****       : sd_(sd), fsi_(fsi), pod_(pod), curr_file_(file), 
  15:AudioFileManager.h ****         left_buf_(nullptr), right_buf_(nullptr) {};
  16:AudioFileManager.h ****     
  17:AudioFileManager.h ****     bool Init();
  18:AudioFileManager.h ****     bool ScanWavFiles();
ARM GAS  /var/folders/2p/02m_5p7958535cp2tpgps0400000gn/T//cco1mNMf.s 			page 9


  19:AudioFileManager.h ****     void SetBuffers(int16_t *left, int16_t *right);
  20:AudioFileManager.h ****     bool LoadFile(uint16_t file_idx);
  21:AudioFileManager.h ****     
  22:AudioFileManager.h ****     bool CloseFile();
  23:AudioFileManager.h ****     bool GetWavHeader(FIL *file);
  24:AudioFileManager.h **** 
  25:AudioFileManager.h ****     int16_t* GetLeftBuffer() const { return left_buf_; }
  26:AudioFileManager.h ****     int16_t* GetRightBuffer() const { return right_buf_; }
  27:AudioFileManager.h ****     size_t GetSamplesPerChannel() const { return header_.total_samples / header_.channels; }
  28:AudioFileManager.h ****     size_t GetTotalSamples() const { return header_.total_samples; }
  29:AudioFileManager.h ****     int16_t GetNumChannels() const { return header_.channels; }
  30:AudioFileManager.h ****     uint16_t GetFileCount() const { return file_count_; }
 206              		.loc 3 30 14 view .LVU49
 207              	.LBB230:
 208              		.loc 3 30 37 view .LVU50
 209              		.loc 3 30 37 is_stmt 0 view .LVU51
 210              	.LBE230:
 211              	.LBE229:
 130:GrannyChordApp.cpp ****   file_idx_ = (file_idx_ + encoder_inc + file_count) % file_count;
 212              		.loc 2 130 26 view .LVU52
 213 0000 D0F82826 		ldr	r2, [r0, #1576]
 214              	.LBB232:
 215              	.LBB231:
 216              		.loc 3 30 44 view .LVU53
 217 0004 D0F8AC34 		ldr	r3, [r0, #1196]
 218              	.LBE231:
 219              	.LBE232:
 220              		.loc 2 130 26 view .LVU54
 221 0008 1144     		add	r1, r1, r2
 222              	.LVL8:
 129:GrannyChordApp.cpp ****   int file_count = filemgr_.GetFileCount();
 223              		.loc 2 129 42 view .LVU55
 224 000a B3F85A38 		ldrh	r3, [r3, #2138]
 225              	.LVL9:
 226              		.loc 2 130 3 is_stmt 1 view .LVU56
 227              		.loc 2 130 40 is_stmt 0 view .LVU57
 228 000e 1944     		add	r1, r1, r3
 229              		.loc 2 130 54 view .LVU58
 230 0010 91FBF3F2 		sdiv	r2, r1, r3
 231 0014 03FB1211 		mls	r1, r3, r2, r1
 232              		.loc 2 130 13 view .LVU59
 233 0018 C0F82816 		str	r1, [r0, #1576]
 131:GrannyChordApp.cpp ****   // filemgr_.GetName(file_idx_,fname);
 132:GrannyChordApp.cpp ****   DebugPrint(pod_, "selected file %d",file_idx_);
 234              		.loc 2 132 3 is_stmt 1 view .LVU60
 235              		.loc 2 132 3 view .LVU61
 236              	.LVL10:
 237              	.LBB233:
 238              	.LBI233:
 239              		.file 4 "../libDaisy/src/daisy_seed.h"
   1:../libDaisy/src/daisy_seed.h **** #pragma once
   2:../libDaisy/src/daisy_seed.h **** #ifndef DSY_SEED_H
   3:../libDaisy/src/daisy_seed.h **** #define DSY_SEED_H
   4:../libDaisy/src/daisy_seed.h **** 
   5:../libDaisy/src/daisy_seed.h **** #include "daisy.h"
   6:../libDaisy/src/daisy_seed.h **** 
   7:../libDaisy/src/daisy_seed.h **** //Uncomment this out if you're still using the rev2 hardware
ARM GAS  /var/folders/2p/02m_5p7958535cp2tpgps0400000gn/T//cco1mNMf.s 			page 10


   8:../libDaisy/src/daisy_seed.h **** //#define SEED_REV2
   9:../libDaisy/src/daisy_seed.h **** 
  10:../libDaisy/src/daisy_seed.h **** namespace daisy
  11:../libDaisy/src/daisy_seed.h **** {
  12:../libDaisy/src/daisy_seed.h **** /**
  13:../libDaisy/src/daisy_seed.h ****    @brief This is the higher-level interface for the Daisy board. \n 
  14:../libDaisy/src/daisy_seed.h ****     All basic peripheral configuration/initialization is setup here. \n
  15:../libDaisy/src/daisy_seed.h **** 
  16:../libDaisy/src/daisy_seed.h ****    @ingroup boards
  17:../libDaisy/src/daisy_seed.h **** */
  18:../libDaisy/src/daisy_seed.h **** class DaisySeed
  19:../libDaisy/src/daisy_seed.h **** {
  20:../libDaisy/src/daisy_seed.h ****   public:
  21:../libDaisy/src/daisy_seed.h ****     DaisySeed() {}
  22:../libDaisy/src/daisy_seed.h ****     ~DaisySeed() {}
  23:../libDaisy/src/daisy_seed.h **** 
  24:../libDaisy/src/daisy_seed.h ****     /** This function used to provide a pre-initialization configuraiton 
  25:../libDaisy/src/daisy_seed.h ****      *  it has since been deprecated, and does nothing.
  26:../libDaisy/src/daisy_seed.h ****      */
  27:../libDaisy/src/daisy_seed.h ****     void Configure();
  28:../libDaisy/src/daisy_seed.h **** 
  29:../libDaisy/src/daisy_seed.h ****     /** 
  30:../libDaisy/src/daisy_seed.h ****     Initializes the Daisy Seed and the following peripherals:
  31:../libDaisy/src/daisy_seed.h ****     SDRAM, QSPI, 24-bit 48kHz Audio via AK4556, Internal USB,
  32:../libDaisy/src/daisy_seed.h ****     as well as the built-in LED and Testpoint.
  33:../libDaisy/src/daisy_seed.h **** 
  34:../libDaisy/src/daisy_seed.h ****     ADCs, DACs, and other special peripherals (such as I2C, SPI, etc.)
  35:../libDaisy/src/daisy_seed.h ****     can be initialized using their specific initializers within libdaisy
  36:../libDaisy/src/daisy_seed.h ****     for a specific application.
  37:../libDaisy/src/daisy_seed.h ****     */
  38:../libDaisy/src/daisy_seed.h ****     void Init(bool boost = false);
  39:../libDaisy/src/daisy_seed.h **** 
  40:../libDaisy/src/daisy_seed.h ****     /** 
  41:../libDaisy/src/daisy_seed.h ****     Deinitializes all peripherals automatically handled by `Init`.
  42:../libDaisy/src/daisy_seed.h ****     */
  43:../libDaisy/src/daisy_seed.h ****     void DeInit();
  44:../libDaisy/src/daisy_seed.h **** 
  45:../libDaisy/src/daisy_seed.h ****     /** 
  46:../libDaisy/src/daisy_seed.h ****     Wait some ms before going on.
  47:../libDaisy/src/daisy_seed.h ****     \param del Delay time in ms.
  48:../libDaisy/src/daisy_seed.h ****     */
  49:../libDaisy/src/daisy_seed.h ****     void DelayMs(size_t del);
  50:../libDaisy/src/daisy_seed.h **** 
  51:../libDaisy/src/daisy_seed.h ****     /** 
  52:../libDaisy/src/daisy_seed.h ****     Returns the gpio_pin corresponding to the index 0-31.
  53:../libDaisy/src/daisy_seed.h ****     For the given GPIO on the Daisy Seed (labeled 1-32 in docs).
  54:../libDaisy/src/daisy_seed.h ****     */
  55:../libDaisy/src/daisy_seed.h ****     static dsy_gpio_pin GetPin(uint8_t pin_idx);
  56:../libDaisy/src/daisy_seed.h **** 
  57:../libDaisy/src/daisy_seed.h ****     /** Begins the audio for the seeds builtin audio.
  58:../libDaisy/src/daisy_seed.h ****     the specified callback will get called whenever
  59:../libDaisy/src/daisy_seed.h ****     new data is ready to be prepared.
  60:../libDaisy/src/daisy_seed.h ****     */
  61:../libDaisy/src/daisy_seed.h ****     void StartAudio(AudioHandle::InterleavingAudioCallback cb);
  62:../libDaisy/src/daisy_seed.h **** 
  63:../libDaisy/src/daisy_seed.h ****     /** Begins the audio for the seeds builtin audio.
  64:../libDaisy/src/daisy_seed.h ****     the specified callback will get called whenever
ARM GAS  /var/folders/2p/02m_5p7958535cp2tpgps0400000gn/T//cco1mNMf.s 			page 11


  65:../libDaisy/src/daisy_seed.h ****     new data is ready to be prepared.
  66:../libDaisy/src/daisy_seed.h ****     This will use the newer non-interleaved callback.
  67:../libDaisy/src/daisy_seed.h ****     */
  68:../libDaisy/src/daisy_seed.h ****     void StartAudio(AudioHandle::AudioCallback cb);
  69:../libDaisy/src/daisy_seed.h **** 
  70:../libDaisy/src/daisy_seed.h ****     /** Changes to a new interleaved callback
  71:../libDaisy/src/daisy_seed.h ****      */
  72:../libDaisy/src/daisy_seed.h ****     void ChangeAudioCallback(AudioHandle::InterleavingAudioCallback cb);
  73:../libDaisy/src/daisy_seed.h **** 
  74:../libDaisy/src/daisy_seed.h ****     /** Changes to a new multichannel callback
  75:../libDaisy/src/daisy_seed.h ****      */
  76:../libDaisy/src/daisy_seed.h ****     void ChangeAudioCallback(AudioHandle::AudioCallback cb);
  77:../libDaisy/src/daisy_seed.h **** 
  78:../libDaisy/src/daisy_seed.h ****     /** Stops the audio if it is running. */
  79:../libDaisy/src/daisy_seed.h ****     void StopAudio();
  80:../libDaisy/src/daisy_seed.h **** 
  81:../libDaisy/src/daisy_seed.h ****     /** Updates the Audio Sample Rate, and reinitializes.
  82:../libDaisy/src/daisy_seed.h ****      ** Audio must be stopped for this to work.
  83:../libDaisy/src/daisy_seed.h ****      */
  84:../libDaisy/src/daisy_seed.h ****     void SetAudioSampleRate(SaiHandle::Config::SampleRate samplerate);
  85:../libDaisy/src/daisy_seed.h **** 
  86:../libDaisy/src/daisy_seed.h ****     /** Returns the audio sample rate in Hz as a floating point number.
  87:../libDaisy/src/daisy_seed.h ****      */
  88:../libDaisy/src/daisy_seed.h ****     float AudioSampleRate();
  89:../libDaisy/src/daisy_seed.h **** 
  90:../libDaisy/src/daisy_seed.h ****     /** Sets the number of samples processed per channel by the audio callback.
  91:../libDaisy/src/daisy_seed.h ****      */
  92:../libDaisy/src/daisy_seed.h ****     void SetAudioBlockSize(size_t blocksize);
  93:../libDaisy/src/daisy_seed.h **** 
  94:../libDaisy/src/daisy_seed.h ****     /** Returns the number of samples per channel in a block of audio. */
  95:../libDaisy/src/daisy_seed.h ****     size_t AudioBlockSize();
  96:../libDaisy/src/daisy_seed.h **** 
  97:../libDaisy/src/daisy_seed.h ****     /** Returns the rate in Hz that the Audio callback is called */
  98:../libDaisy/src/daisy_seed.h ****     float AudioCallbackRate() const;
  99:../libDaisy/src/daisy_seed.h **** 
 100:../libDaisy/src/daisy_seed.h ****     /** Returns the SAI Handle for the Daisy Seed 
 101:../libDaisy/src/daisy_seed.h ****      *  This can be useful when adding a secondary codec,
 102:../libDaisy/src/daisy_seed.h ****      *  the result of this function can be passed to the audio reinit 
 103:../libDaisy/src/daisy_seed.h ****      *  with an SAI2 configuration
 104:../libDaisy/src/daisy_seed.h ****      */
 105:../libDaisy/src/daisy_seed.h ****     const SaiHandle& AudioSaiHandle() const;
 106:../libDaisy/src/daisy_seed.h **** 
 107:../libDaisy/src/daisy_seed.h ****     /** Sets the state of the built in LED
 108:../libDaisy/src/daisy_seed.h ****      */
 109:../libDaisy/src/daisy_seed.h ****     void SetLed(bool state);
 110:../libDaisy/src/daisy_seed.h **** 
 111:../libDaisy/src/daisy_seed.h ****     /** Sets the state of the test point near pin 10
 112:../libDaisy/src/daisy_seed.h ****      */
 113:../libDaisy/src/daisy_seed.h ****     void SetTestPoint(bool state);
 114:../libDaisy/src/daisy_seed.h **** 
 115:../libDaisy/src/daisy_seed.h ****     /** Print formatted debug log message
 116:../libDaisy/src/daisy_seed.h ****      */
 117:../libDaisy/src/daisy_seed.h ****     template <typename... VA>
 118:../libDaisy/src/daisy_seed.h ****     static void Print(const char* format, VA... va)
 119:../libDaisy/src/daisy_seed.h ****     {
 120:../libDaisy/src/daisy_seed.h ****         Log::Print(format, va...);
 121:../libDaisy/src/daisy_seed.h ****     }
ARM GAS  /var/folders/2p/02m_5p7958535cp2tpgps0400000gn/T//cco1mNMf.s 			page 12


 122:../libDaisy/src/daisy_seed.h **** 
 123:../libDaisy/src/daisy_seed.h ****     /** Print formatted debug log message with automatic line termination
 124:../libDaisy/src/daisy_seed.h ****     */
 125:../libDaisy/src/daisy_seed.h ****     template <typename... VA>
 126:../libDaisy/src/daisy_seed.h ****     static void PrintLine(const char* format, VA... va)
 240              		.loc 4 126 17 view .LVU62
 241              	.LBB234:
 127:../libDaisy/src/daisy_seed.h ****     {
 128:../libDaisy/src/daisy_seed.h ****         Log::PrintLine(format, va...);
 242              		.loc 4 128 23 is_stmt 0 view .LVU63
 243 001c 0148     		ldr	r0, .L20
 244              	.LVL11:
 245              		.loc 4 128 23 view .LVU64
 246 001e FFF7FEBF 		b	_ZN5daisy6LoggerILNS_17LoggerDestinationE1EE9PrintLineEPKcz
 247              	.LVL12:
 248              	.L21:
 249              		.loc 4 128 23 view .LVU65
 250 0022 00BF     		.align	2
 251              	.L20:
 252 0024 00000000 		.word	.LC0
 253              	.LBE234:
 254              	.LBE233:
 255              		.cfi_endproc
 256              	.LFE4797:
 258              		.section	.text._ZN14GrannyChordApp15UpdateSynthModeEv,"ax",%progbits
 259              		.align	1
 260              		.global	_ZN14GrannyChordApp15UpdateSynthModeEv
 261              		.syntax unified
 262              		.thumb
 263              		.thumb_func
 265              	_ZN14GrannyChordApp15UpdateSynthModeEv:
 266              	.LVL13:
 267              	.LFB4798:
 133:GrannyChordApp.cpp **** }
 134:GrannyChordApp.cpp **** 
 135:GrannyChordApp.cpp **** /// @brief iterates through synth parameter control modes
 136:GrannyChordApp.cpp **** void GrannyChordApp::UpdateSynthMode(){
 268              		.loc 2 136 39 is_stmt 1 view -0
 269              		.cfi_startproc
 270              		@ args = 0, pretend = 0, frame = 0
 271              		@ frame_needed = 0, uses_anonymous_args = 0
 272              		@ link register save eliminated.
 137:GrannyChordApp.cpp ****   switch(curr_synth_mode_){
 273              		.loc 2 137 3 view .LVU67
 274 0000 D0F87C35 		ldr	r3, [r0, #1404]
 275 0004 062B     		cmp	r3, #6
 276 0006 08D8     		bhi	.L22
 277 0008 DFE803F0 		tbb	[pc, r3]
 278              	.L25:
 279 000c 04       		.byte	(.L28-.L25)/2
 280 000d 07       		.byte	(.L22-.L25)/2
 281 000e 08       		.byte	(.L27-.L25)/2
 282 000f 07       		.byte	(.L22-.L25)/2
 283 0010 0A       		.byte	(.L26-.L25)/2
 284 0011 07       		.byte	(.L22-.L25)/2
 285 0012 0C       		.byte	(.L24-.L25)/2
 286 0013 00       		.p2align 1
ARM GAS  /var/folders/2p/02m_5p7958535cp2tpgps0400000gn/T//cco1mNMf.s 			page 13


 287              	.L28:
 138:GrannyChordApp.cpp ****     case SynthMode::Size_Position:
 288              		.loc 2 138 5 view .LVU68
 139:GrannyChordApp.cpp ****       curr_synth_mode_ = SynthMode::Pitch_ActiveGrains;
 289              		.loc 2 139 7 view .LVU69
 290              		.loc 2 139 24 is_stmt 0 view .LVU70
 291 0014 0223     		movs	r3, #2
 292              	.L29:
 140:GrannyChordApp.cpp ****       break;
 141:GrannyChordApp.cpp ****     case SynthMode::Pitch_ActiveGrains:
 142:GrannyChordApp.cpp ****       curr_synth_mode_ = SynthMode::PhasorMode_EnvType;
 143:GrannyChordApp.cpp ****       break;
 144:GrannyChordApp.cpp ****     case SynthMode::PhasorMode_EnvType:
 145:GrannyChordApp.cpp ****       curr_synth_mode_ = SynthMode::Pan_PanRnd;
 146:GrannyChordApp.cpp ****       break;
 147:GrannyChordApp.cpp ****     case SynthMode::Pan_PanRnd:
 148:GrannyChordApp.cpp ****       curr_synth_mode_ = SynthMode::Size_Position;
 293              		.loc 2 148 24 view .LVU71
 294 0016 C0F87C35 		str	r3, [r0, #1404]
 149:GrannyChordApp.cpp ****       break;
 295              		.loc 2 149 7 is_stmt 1 view .LVU72
 296              	.L22:
 150:GrannyChordApp.cpp ****     default:
 151:GrannyChordApp.cpp ****       break;
 152:GrannyChordApp.cpp ****   }
 153:GrannyChordApp.cpp **** }
 297              		.loc 2 153 1 is_stmt 0 view .LVU73
 298 001a 7047     		bx	lr
 299              	.L27:
 141:GrannyChordApp.cpp ****       curr_synth_mode_ = SynthMode::PhasorMode_EnvType;
 300              		.loc 2 141 5 is_stmt 1 view .LVU74
 142:GrannyChordApp.cpp ****       break;
 301              		.loc 2 142 7 view .LVU75
 142:GrannyChordApp.cpp ****       break;
 302              		.loc 2 142 24 is_stmt 0 view .LVU76
 303 001c 0423     		movs	r3, #4
 304 001e FAE7     		b	.L29
 305              	.L26:
 144:GrannyChordApp.cpp ****       curr_synth_mode_ = SynthMode::Pan_PanRnd;
 306              		.loc 2 144 5 is_stmt 1 view .LVU77
 145:GrannyChordApp.cpp ****       break;
 307              		.loc 2 145 7 view .LVU78
 145:GrannyChordApp.cpp ****       break;
 308              		.loc 2 145 24 is_stmt 0 view .LVU79
 309 0020 0623     		movs	r3, #6
 310 0022 F8E7     		b	.L29
 311              	.L24:
 147:GrannyChordApp.cpp ****       curr_synth_mode_ = SynthMode::Size_Position;
 312              		.loc 2 147 5 is_stmt 1 view .LVU80
 148:GrannyChordApp.cpp ****       break;
 313              		.loc 2 148 7 view .LVU81
 148:GrannyChordApp.cpp ****       break;
 314              		.loc 2 148 24 is_stmt 0 view .LVU82
 315 0024 0023     		movs	r3, #0
 316 0026 F6E7     		b	.L29
 317              		.cfi_endproc
 318              	.LFE4798:
ARM GAS  /var/folders/2p/02m_5p7958535cp2tpgps0400000gn/T//cco1mNMf.s 			page 14


 320              		.section	.text._ZN14GrannyChordApp13HandleButton1Ev,"ax",%progbits
 321              		.align	1
 322              		.global	_ZN14GrannyChordApp13HandleButton1Ev
 323              		.syntax unified
 324              		.thumb
 325              		.thumb_func
 327              	_ZN14GrannyChordApp13HandleButton1Ev:
 328              	.LVL14:
 329              	.LFB4793:
 102:GrannyChordApp.cpp ****   if (curr_state_==AppState::Synthesis){
 330              		.loc 2 102 37 is_stmt 1 view -0
 331              		.cfi_startproc
 332              		@ args = 0, pretend = 0, frame = 0
 333              		@ frame_needed = 0, uses_anonymous_args = 0
 334              		@ link register save eliminated.
 103:GrannyChordApp.cpp ****     UpdateSynthMode();
 335              		.loc 2 103 3 view .LVU84
 336 0000 D0F87435 		ldr	r3, [r0, #1396]
 337 0004 022B     		cmp	r3, #2
 338 0006 01D1     		bne	.L30
 104:GrannyChordApp.cpp ****   }
 339              		.loc 2 104 5 view .LVU85
 104:GrannyChordApp.cpp ****   }
 340              		.loc 2 104 20 is_stmt 0 view .LVU86
 341 0008 FFF7FEBF 		b	_ZN14GrannyChordApp15UpdateSynthModeEv
 342              	.LVL15:
 343              	.L30:
 106:GrannyChordApp.cpp **** 
 344              		.loc 2 106 1 view .LVU87
 345 000c 7047     		bx	lr
 346              		.cfi_endproc
 347              	.LFE4793:
 349              		.section	.text._ZN14GrannyChordApp24ToggleRandomnessControlsEv,"ax",%progbits
 350              		.align	1
 351              		.global	_ZN14GrannyChordApp24ToggleRandomnessControlsEv
 352              		.syntax unified
 353              		.thumb
 354              		.thumb_func
 356              	_ZN14GrannyChordApp24ToggleRandomnessControlsEv:
 357              	.LVL16:
 358              	.LFB4800:
 154:GrannyChordApp.cpp **** 
 155:GrannyChordApp.cpp **** /// @brief Updates synth parameters based on current synth mode and adjusts
 156:GrannyChordApp.cpp **** ///        knob input values to account for knob jitter and deadzones around 0/1
 157:GrannyChordApp.cpp **** void GrannyChordApp::UpdateSynthParams(){
 158:GrannyChordApp.cpp ****   if (curr_state_!=AppState::Synthesis) return;
 159:GrannyChordApp.cpp ****   int mode_idx = static_cast<int>(curr_synth_mode_);
 160:GrannyChordApp.cpp ****   float knob1_val = MapKnobDeadzone(pod_.knob1.Process());
 161:GrannyChordApp.cpp ****   float knob2_val = MapKnobDeadzone(pod_.knob2.Process());
 162:GrannyChordApp.cpp **** 
 163:GrannyChordApp.cpp ****   if (CheckParamDelta(knob1_val,prev_param_vals_k1[mode_idx])){
 164:GrannyChordApp.cpp ****     UpdateKnob1Params(knob1_val,curr_synth_mode_);
 165:GrannyChordApp.cpp ****     prev_param_vals_k1[mode_idx] = knob1_val;
 166:GrannyChordApp.cpp ****   }
 167:GrannyChordApp.cpp ****   if(CheckParamDelta(knob2_val, prev_param_vals_k2[mode_idx])){
 168:GrannyChordApp.cpp ****     UpdateKnob2Params(knob2_val, curr_synth_mode_);
 169:GrannyChordApp.cpp ****     prev_param_vals_k2[mode_idx] = knob2_val;
ARM GAS  /var/folders/2p/02m_5p7958535cp2tpgps0400000gn/T//cco1mNMf.s 			page 15


 170:GrannyChordApp.cpp ****   }
 171:GrannyChordApp.cpp **** }
 172:GrannyChordApp.cpp **** 
 173:GrannyChordApp.cpp **** void GrannyChordApp::ToggleRandomnessControls(){
 359              		.loc 2 173 48 is_stmt 1 view -0
 360              		.cfi_startproc
 361              		@ args = 0, pretend = 0, frame = 0
 362              		@ frame_needed = 0, uses_anonymous_args = 0
 363              		@ link register save eliminated.
 174:GrannyChordApp.cpp ****   if (curr_synth_mode_ <= SynthMode::PhasorMode_EnvType_Rnd){
 364              		.loc 2 174 3 view .LVU89
 365              		.loc 2 174 7 is_stmt 0 view .LVU90
 366 0000 D0F87C35 		ldr	r3, [r0, #1404]
 367              		.loc 2 174 3 view .LVU91
 368 0004 052B     		cmp	r3, #5
 175:GrannyChordApp.cpp ****     /* below works because regular modes are even, random modes are odd
 176:GrannyChordApp.cpp ****       so we can XOR their enum value to get the corresponding mode */
 177:GrannyChordApp.cpp ****     curr_synth_mode_ = static_cast<SynthMode>(static_cast<int>(curr_synth_mode_) ^ 1);
 369              		.loc 2 177 5 is_stmt 1 view .LVU92
 370              		.loc 2 177 82 is_stmt 0 view .LVU93
 371 0006 DCBF     		itt	le
 372 0008 83F00103 		eorle	r3, r3, #1
 373              		.loc 2 177 22 view .LVU94
 374 000c C0F87C35 		strle	r3, [r0, #1404]
 178:GrannyChordApp.cpp ****   }
 179:GrannyChordApp.cpp **** }
 375              		.loc 2 179 1 view .LVU95
 376 0010 7047     		bx	lr
 377              		.cfi_endproc
 378              	.LFE4800:
 380              		.section	.text._ZN14GrannyChordApp13HandleButton2Ev,"ax",%progbits
 381              		.align	1
 382              		.global	_ZN14GrannyChordApp13HandleButton2Ev
 383              		.syntax unified
 384              		.thumb
 385              		.thumb_func
 387              	_ZN14GrannyChordApp13HandleButton2Ev:
 388              	.LVL17:
 389              	.LFB4794:
 109:GrannyChordApp.cpp ****   if (curr_state_==AppState::Synthesis){
 390              		.loc 2 109 37 is_stmt 1 view -0
 391              		.cfi_startproc
 392              		@ args = 0, pretend = 0, frame = 0
 393              		@ frame_needed = 0, uses_anonymous_args = 0
 394              		@ link register save eliminated.
 110:GrannyChordApp.cpp ****     ToggleRandomnessControls();
 395              		.loc 2 110 3 view .LVU97
 396 0000 D0F87435 		ldr	r3, [r0, #1396]
 397 0004 022B     		cmp	r3, #2
 398 0006 01D1     		bne	.L34
 111:GrannyChordApp.cpp ****   }
 399              		.loc 2 111 5 view .LVU98
 111:GrannyChordApp.cpp ****   }
 400              		.loc 2 111 29 is_stmt 0 view .LVU99
 401 0008 FFF7FEBF 		b	_ZN14GrannyChordApp24ToggleRandomnessControlsEv
 402              	.LVL18:
 403              	.L34:
ARM GAS  /var/folders/2p/02m_5p7958535cp2tpgps0400000gn/T//cco1mNMf.s 			page 16


 113:GrannyChordApp.cpp **** 
 404              		.loc 2 113 1 view .LVU100
 405 000c 7047     		bx	lr
 406              		.cfi_endproc
 407              	.LFE4794:
 409              		.section	.text._ZN14GrannyChordApp8ToggleFXEb,"ax",%progbits
 410              		.align	1
 411              		.global	_ZN14GrannyChordApp8ToggleFXEb
 412              		.syntax unified
 413              		.thumb
 414              		.thumb_func
 416              	_ZN14GrannyChordApp8ToggleFXEb:
 417              	.LVL19:
 418              	.LFB4801:
 180:GrannyChordApp.cpp **** 
 181:GrannyChordApp.cpp **** void GrannyChordApp::ToggleFX(bool which_fx){
 419              		.loc 2 181 45 is_stmt 1 view -0
 420              		.cfi_startproc
 421              		@ args = 0, pretend = 0, frame = 0
 422              		@ frame_needed = 0, uses_anonymous_args = 0
 423              		@ link register save eliminated.
 182:GrannyChordApp.cpp ****   if (curr_synth_mode_ >= SynthMode::Reverb){
 424              		.loc 2 182 3 view .LVU102
 425              		.loc 2 182 7 is_stmt 0 view .LVU103
 426 0000 D0F87C35 		ldr	r3, [r0, #1404]
 427              		.loc 2 182 3 view .LVU104
 428 0004 062B     		cmp	r3, #6
 429 0006 04DD     		ble	.L37
 183:GrannyChordApp.cpp ****     curr_synth_mode_ = prev_synth_mode_;
 430              		.loc 2 183 5 is_stmt 1 view .LVU105
 431              		.loc 2 183 22 is_stmt 0 view .LVU106
 432 0008 D0F88035 		ldr	r3, [r0, #1408]
 433              	.L41:
 184:GrannyChordApp.cpp ****     return;
 185:GrannyChordApp.cpp ****   }
 186:GrannyChordApp.cpp ****   prev_synth_mode_ =  curr_synth_mode_;
 187:GrannyChordApp.cpp ****   /* if true, switch to reverb, else false - cheap but it works */
 188:GrannyChordApp.cpp ****   curr_synth_mode_ = which_fx ? SynthMode::Reverb : SynthMode::Filter;
 434              		.loc 2 188 20 view .LVU107
 435 000c C0F87C35 		str	r3, [r0, #1404]
 189:GrannyChordApp.cpp **** }
 436              		.loc 2 189 1 view .LVU108
 437 0010 7047     		bx	lr
 438              	.L37:
 186:GrannyChordApp.cpp ****   /* if true, switch to reverb, else false - cheap but it works */
 439              		.loc 2 186 3 is_stmt 1 view .LVU109
 188:GrannyChordApp.cpp **** }
 440              		.loc 2 188 31 is_stmt 0 view .LVU110
 441 0012 0029     		cmp	r1, #0
 186:GrannyChordApp.cpp ****   /* if true, switch to reverb, else false - cheap but it works */
 442              		.loc 2 186 20 view .LVU111
 443 0014 C0F88035 		str	r3, [r0, #1408]
 188:GrannyChordApp.cpp **** }
 444              		.loc 2 188 3 is_stmt 1 view .LVU112
 188:GrannyChordApp.cpp **** }
 445              		.loc 2 188 31 is_stmt 0 view .LVU113
 446 0018 14BF     		ite	ne
ARM GAS  /var/folders/2p/02m_5p7958535cp2tpgps0400000gn/T//cco1mNMf.s 			page 17


 447 001a 0723     		movne	r3, #7
 448 001c 0823     		moveq	r3, #8
 449 001e F5E7     		b	.L41
 450              		.cfi_endproc
 451              	.LFE4801:
 453              		.section	.text._ZN14GrannyChordApp22HandleButton1LongPressEv,"ax",%progbits
 454              		.align	1
 455              		.global	_ZN14GrannyChordApp22HandleButton1LongPressEv
 456              		.syntax unified
 457              		.thumb
 458              		.thumb_func
 460              	_ZN14GrannyChordApp22HandleButton1LongPressEv:
 461              	.LVL20:
 462              	.LFB4795:
 115:GrannyChordApp.cpp ****   if (curr_state_==AppState::Synthesis){
 463              		.loc 2 115 46 is_stmt 1 view -0
 464              		.cfi_startproc
 465              		@ args = 0, pretend = 0, frame = 0
 466              		@ frame_needed = 0, uses_anonymous_args = 0
 467              		@ link register save eliminated.
 116:GrannyChordApp.cpp ****     ToggleFX(true);
 468              		.loc 2 116 3 view .LVU115
 469 0000 D0F87435 		ldr	r3, [r0, #1396]
 470 0004 022B     		cmp	r3, #2
 471 0006 02D1     		bne	.L42
 117:GrannyChordApp.cpp ****   }
 472              		.loc 2 117 5 view .LVU116
 117:GrannyChordApp.cpp ****   }
 473              		.loc 2 117 13 is_stmt 0 view .LVU117
 474 0008 0121     		movs	r1, #1
 475 000a FFF7FEBF 		b	_ZN14GrannyChordApp8ToggleFXEb
 476              	.LVL21:
 477              	.L42:
 119:GrannyChordApp.cpp **** 
 478              		.loc 2 119 1 view .LVU118
 479 000e 7047     		bx	lr
 480              		.cfi_endproc
 481              	.LFE4795:
 483              		.section	.text._ZN14GrannyChordApp22HandleButton2LongPressEv,"ax",%progbits
 484              		.align	1
 485              		.global	_ZN14GrannyChordApp22HandleButton2LongPressEv
 486              		.syntax unified
 487              		.thumb
 488              		.thumb_func
 490              	_ZN14GrannyChordApp22HandleButton2LongPressEv:
 491              	.LVL22:
 492              	.LFB4796:
 121:GrannyChordApp.cpp ****   if (curr_state_==AppState::Synthesis){
 493              		.loc 2 121 46 is_stmt 1 view -0
 494              		.cfi_startproc
 495              		@ args = 0, pretend = 0, frame = 0
 496              		@ frame_needed = 0, uses_anonymous_args = 0
 497              		@ link register save eliminated.
 122:GrannyChordApp.cpp ****     ToggleFX(false);
 498              		.loc 2 122 3 view .LVU120
 499 0000 D0F87435 		ldr	r3, [r0, #1396]
 500 0004 022B     		cmp	r3, #2
ARM GAS  /var/folders/2p/02m_5p7958535cp2tpgps0400000gn/T//cco1mNMf.s 			page 18


 501 0006 02D1     		bne	.L44
 123:GrannyChordApp.cpp ****   }
 502              		.loc 2 123 5 view .LVU121
 123:GrannyChordApp.cpp ****   }
 503              		.loc 2 123 13 is_stmt 0 view .LVU122
 504 0008 0021     		movs	r1, #0
 505 000a FFF7FEBF 		b	_ZN14GrannyChordApp8ToggleFXEb
 506              	.LVL23:
 507              	.L44:
 125:GrannyChordApp.cpp **** 
 508              		.loc 2 125 1 view .LVU123
 509 000e 7047     		bx	lr
 510              		.cfi_endproc
 511              	.LFE4796:
 513              		.section	.rodata._ZN14GrannyChordApp11InitFileMgrEv.str1.1,"aMS",%progbits,1
 514              	.LC1:
 515 0000 696E6974 		.ascii	"init in app failed ret false\000"
 515      20696E20 
 515      61707020 
 515      6661696C 
 515      65642072 
 516              	.LC2:
 517 001d 7363616E 		.ascii	"scanning wavs now\000"
 517      6E696E67 
 517      20776176 
 517      73206E6F 
 517      7700
 518              	.LC3:
 519 002f 6661696C 		.ascii	"failed to scan wavs\000"
 519      65642074 
 519      6F207363 
 519      616E2077 
 519      61767300 
 520              		.section	.text._ZN14GrannyChordApp11InitFileMgrEv,"ax",%progbits
 521              		.align	1
 522              		.global	_ZN14GrannyChordApp11InitFileMgrEv
 523              		.syntax unified
 524              		.thumb
 525              		.thumb_func
 527              	_ZN14GrannyChordApp11InitFileMgrEv:
 528              	.LVL24:
 529              	.LFB4802:
 190:GrannyChordApp.cpp **** 
 191:GrannyChordApp.cpp **** /// @brief Initialises file manager, sets audio data buffers and scans SD card for WAV files
 192:GrannyChordApp.cpp **** /// @return True on successful initialisation, false if init fails or no WAV files found
 193:GrannyChordApp.cpp **** bool GrannyChordApp::InitFileMgr(){
 530              		.loc 2 193 35 is_stmt 1 view -0
 531              		.cfi_startproc
 532              		@ args = 0, pretend = 0, frame = 0
 533              		@ frame_needed = 0, uses_anonymous_args = 0
 194:GrannyChordApp.cpp ****   filemgr_.SetBuffers(left_buf_,right_buf_);
 534              		.loc 2 194 3 view .LVU125
 193:GrannyChordApp.cpp ****   filemgr_.SetBuffers(left_buf_,right_buf_);
 535              		.loc 2 193 35 is_stmt 0 view .LVU126
 536 0000 38B5     		push	{r3, r4, r5, lr}
 537              		.cfi_def_cfa_offset 16
 538              		.cfi_offset 3, -16
ARM GAS  /var/folders/2p/02m_5p7958535cp2tpgps0400000gn/T//cco1mNMf.s 			page 19


 539              		.cfi_offset 4, -12
 540              		.cfi_offset 5, -8
 541              		.cfi_offset 14, -4
 193:GrannyChordApp.cpp ****   filemgr_.SetBuffers(left_buf_,right_buf_);
 542              		.loc 2 193 35 view .LVU127
 543 0002 0546     		mov	r5, r0
 544              		.loc 2 194 22 view .LVU128
 545 0004 D0F82426 		ldr	r2, [r0, #1572]
 546 0008 D0F82016 		ldr	r1, [r0, #1568]
 547 000c D0F8AC04 		ldr	r0, [r0, #1196]
 548              	.LVL25:
 549              		.loc 2 194 22 view .LVU129
 550 0010 FFF7FEFF 		bl	_ZN16AudioFileManager10SetBuffersEPsS0_
 551              	.LVL26:
 195:GrannyChordApp.cpp ****   if (filemgr_.Init()==false){
 552              		.loc 2 195 3 is_stmt 1 view .LVU130
 553              		.loc 2 195 20 is_stmt 0 view .LVU131
 554 0014 D5F8AC04 		ldr	r0, [r5, #1196]
 555 0018 FFF7FEFF 		bl	_ZN16AudioFileManager4InitEv
 556              	.LVL27:
 557              		.loc 2 195 3 view .LVU132
 558 001c 0446     		mov	r4, r0
 559 001e 20B9     		cbnz	r0, .L47
 196:GrannyChordApp.cpp ****       pod_.seed.PrintLine("init in app failed ret false");
 560              		.loc 2 196 7 is_stmt 1 view .LVU133
 561              	.LVL28:
 562              	.LBB245:
 563              	.LBI245:
 126:../libDaisy/src/daisy_seed.h ****     {
 564              		.loc 4 126 17 view .LVU134
 565              	.LBB246:
 566              		.loc 4 128 23 is_stmt 0 view .LVU135
 567 0020 0848     		ldr	r0, .L50
 568              	.LVL29:
 569              	.L49:
 570              		.loc 4 128 23 view .LVU136
 571              	.LBE246:
 572              	.LBE245:
 573              	.LBB247:
 574              	.LBB248:
 575              	.LBB249:
 576              	.LBB250:
 577 0022 FFF7FEFF 		bl	_ZN5daisy6LoggerILNS_17LoggerDestinationE1EE9PrintLineEPKcz
 578              	.LVL30:
 579              	.LBE250:
 580              	.LBE249:
 197:GrannyChordApp.cpp ****       // curr_state_ = AppState::Error;
 198:GrannyChordApp.cpp ****       return false;
 199:GrannyChordApp.cpp ****   }
 200:GrannyChordApp.cpp ****   pod_.seed.PrintLine("scanning wavs now");
 201:GrannyChordApp.cpp ****   if (!filemgr_.ScanWavFiles()){
 202:GrannyChordApp.cpp ****     pod_.seed.PrintLine("failed to scan wavs");
 203:GrannyChordApp.cpp ****     // curr_state_ = AppState::Error;
 204:GrannyChordApp.cpp ****     return false;
 581              		.loc 2 204 5 is_stmt 1 view .LVU137
 582              	.L48:
 583              	.LBE248:
ARM GAS  /var/folders/2p/02m_5p7958535cp2tpgps0400000gn/T//cco1mNMf.s 			page 20


 584              	.LBE247:
 205:GrannyChordApp.cpp ****   }
 206:GrannyChordApp.cpp ****   return true;
 207:GrannyChordApp.cpp **** }
 585              		.loc 2 207 1 is_stmt 0 view .LVU138
 586 0026 2046     		mov	r0, r4
 587 0028 38BD     		pop	{r3, r4, r5, pc}
 588              	.LVL31:
 589              	.L47:
 590              	.LBB256:
 591              	.LBI247:
 193:GrannyChordApp.cpp ****   filemgr_.SetBuffers(left_buf_,right_buf_);
 592              		.loc 2 193 6 is_stmt 1 view .LVU139
 593              	.LBB255:
 200:GrannyChordApp.cpp ****   if (!filemgr_.ScanWavFiles()){
 594              		.loc 2 200 3 view .LVU140
 595              	.LBB252:
 596              	.LBI252:
 126:../libDaisy/src/daisy_seed.h ****     {
 597              		.loc 4 126 17 view .LVU141
 598              	.LBB253:
 599              		.loc 4 128 23 is_stmt 0 view .LVU142
 600 002a 0748     		ldr	r0, .L50+4
 601 002c FFF7FEFF 		bl	_ZN5daisy6LoggerILNS_17LoggerDestinationE1EE9PrintLineEPKcz
 602              	.LVL32:
 603              		.loc 4 128 23 view .LVU143
 604              	.LBE253:
 605              	.LBE252:
 201:GrannyChordApp.cpp ****     pod_.seed.PrintLine("failed to scan wavs");
 606              		.loc 2 201 3 is_stmt 1 view .LVU144
 201:GrannyChordApp.cpp ****     pod_.seed.PrintLine("failed to scan wavs");
 607              		.loc 2 201 29 is_stmt 0 view .LVU145
 608 0030 D5F8AC04 		ldr	r0, [r5, #1196]
 609 0034 FFF7FEFF 		bl	_ZN16AudioFileManager12ScanWavFilesEv
 610              	.LVL33:
 201:GrannyChordApp.cpp ****     pod_.seed.PrintLine("failed to scan wavs");
 611              		.loc 2 201 3 view .LVU146
 612 0038 0446     		mov	r4, r0
 613 003a 0028     		cmp	r0, #0
 614 003c F3D1     		bne	.L48
 202:GrannyChordApp.cpp ****     // curr_state_ = AppState::Error;
 615              		.loc 2 202 5 is_stmt 1 view .LVU147
 616              	.LVL34:
 617              	.LBB254:
 618              	.LBI249:
 126:../libDaisy/src/daisy_seed.h ****     {
 619              		.loc 4 126 17 view .LVU148
 620              	.LBB251:
 621              		.loc 4 128 23 is_stmt 0 view .LVU149
 622 003e 0348     		ldr	r0, .L50+8
 623 0040 EFE7     		b	.L49
 624              	.L51:
 625 0042 00BF     		.align	2
 626              	.L50:
 627 0044 00000000 		.word	.LC1
 628 0048 1D000000 		.word	.LC2
 629 004c 2F000000 		.word	.LC3
ARM GAS  /var/folders/2p/02m_5p7958535cp2tpgps0400000gn/T//cco1mNMf.s 			page 21


 630              	.LBE251:
 631              	.LBE254:
 632              	.LBE255:
 633              	.LBE256:
 634              		.cfi_endproc
 635              	.LFE4802:
 637              		.section	.text._ZN14GrannyChordApp9InitSynthEv,"ax",%progbits
 638              		.align	1
 639              		.global	_ZN14GrannyChordApp9InitSynthEv
 640              		.syntax unified
 641              		.thumb
 642              		.thumb_func
 644              	_ZN14GrannyChordApp9InitSynthEv:
 645              	.LVL35:
 646              	.LFB4803:
 208:GrannyChordApp.cpp **** 
 209:GrannyChordApp.cpp **** /// @brief Calls synth initialisation function, passes audio data buffers and audio length
 210:GrannyChordApp.cpp **** void GrannyChordApp::InitSynth(){
 647              		.loc 2 210 33 is_stmt 1 view -0
 648              		.cfi_startproc
 649              		@ args = 0, pretend = 0, frame = 0
 650              		@ frame_needed = 0, uses_anonymous_args = 0
 651              		@ link register save eliminated.
 211:GrannyChordApp.cpp ****   // synth_.Init(left_buf_, right_buf_, audio_len_);
 212:GrannyChordApp.cpp ****   synth_.Init(left_buf_, right_buf_, filemgr_.GetSamplesPerChannel());
 652              		.loc 2 212 3 view .LVU151
 653              		.loc 2 212 38 is_stmt 0 view .LVU152
 654 0000 D0F8AC24 		ldr	r2, [r0, #1196]
 655              	.LVL36:
 656              	.LBB257:
 657              	.LBI257:
  27:AudioFileManager.h ****     size_t GetTotalSamples() const { return header_.total_samples; }
 658              		.loc 3 27 12 is_stmt 1 view .LVU153
 659              	.LBB258:
  27:AudioFileManager.h ****     size_t GetTotalSamples() const { return header_.total_samples; }
 660              		.loc 3 27 43 view .LVU154
  27:AudioFileManager.h ****     size_t GetTotalSamples() const { return header_.total_samples; }
 661              		.loc 3 27 43 is_stmt 0 view .LVU155
 662              	.LBE258:
 663              	.LBE257:
 664              		.loc 2 212 14 view .LVU156
 665 0004 0430     		adds	r0, r0, #4
 666              	.LVL37:
 667              		.loc 2 212 14 view .LVU157
 668 0006 D0F81C16 		ldr	r1, [r0, #1564]
 669              	.LBB260:
 670              	.LBB259:
  27:AudioFileManager.h ****     size_t GetTotalSamples() const { return header_.total_samples; }
 671              		.loc 3 27 82 view .LVU158
 672 000a B2F96438 		ldrsh	r3, [r2, #2148]
 673 000e D2F86828 		ldr	r2, [r2, #2152]
 674              	.LBE259:
 675              	.LBE260:
 676              		.loc 2 212 14 view .LVU159
 677 0012 B2FBF3F3 		udiv	r3, r2, r3
 678 0016 D0F82026 		ldr	r2, [r0, #1568]
 679 001a FFF7FEBF 		b	_ZN13GranularSynth4InitEPKsS1_j
ARM GAS  /var/folders/2p/02m_5p7958535cp2tpgps0400000gn/T//cco1mNMf.s 			page 22


 680              	.LVL38:
 681              		.loc 2 212 14 view .LVU160
 682              		.cfi_endproc
 683              	.LFE4803:
 685              		.section	.text._ZN14GrannyChordApp17ClearAudioBuffersEv,"ax",%progbits
 686              		.align	1
 687              		.global	_ZN14GrannyChordApp17ClearAudioBuffersEv
 688              		.syntax unified
 689              		.thumb
 690              		.thumb_func
 692              	_ZN14GrannyChordApp17ClearAudioBuffersEv:
 693              	.LVL39:
 694              	.LFB4804:
 213:GrannyChordApp.cpp **** }
 214:GrannyChordApp.cpp **** 
 215:GrannyChordApp.cpp **** /// @brief Resets current file index and audio data buffers
 216:GrannyChordApp.cpp **** ///        Calls method to handle WAV file selection
 217:GrannyChordApp.cpp **** void GrannyChordApp::ClearAudioBuffers(){
 695              		.loc 2 217 41 is_stmt 1 view -0
 696              		.cfi_startproc
 697              		@ args = 0, pretend = 0, frame = 0
 698              		@ frame_needed = 0, uses_anonymous_args = 0
 218:GrannyChordApp.cpp ****   memset(left_buf_, 0, CHNL_BUF_SIZE_ABS);
 699              		.loc 2 218 3 view .LVU162
 217:GrannyChordApp.cpp ****   memset(left_buf_, 0, CHNL_BUF_SIZE_ABS);
 700              		.loc 2 217 41 is_stmt 0 view .LVU163
 701 0000 10B5     		push	{r4, lr}
 702              		.cfi_def_cfa_offset 8
 703              		.cfi_offset 4, -8
 704              		.cfi_offset 14, -4
 217:GrannyChordApp.cpp ****   memset(left_buf_, 0, CHNL_BUF_SIZE_ABS);
 705              		.loc 2 217 41 view .LVU164
 706 0002 0446     		mov	r4, r0
 707              		.loc 2 218 9 view .LVU165
 708 0004 4FF08072 		mov	r2, #16777216
 709 0008 0021     		movs	r1, #0
 710 000a D0F82006 		ldr	r0, [r0, #1568]
 711              	.LVL40:
 712              		.loc 2 218 9 view .LVU166
 713 000e FFF7FEFF 		bl	memset
 714              	.LVL41:
 219:GrannyChordApp.cpp ****   memset(right_buf_, 0, CHNL_BUF_SIZE_ABS);
 715              		.loc 2 219 3 is_stmt 1 view .LVU167
 716              		.loc 2 219 9 is_stmt 0 view .LVU168
 717 0012 D4F82406 		ldr	r0, [r4, #1572]
 718 0016 4FF08072 		mov	r2, #16777216
 719 001a 0021     		movs	r1, #0
 220:GrannyChordApp.cpp **** }
 720              		.loc 2 220 1 view .LVU169
 721 001c BDE81040 		pop	{r4, lr}
 722              		.cfi_restore 14
 723              		.cfi_restore 4
 724              		.cfi_def_cfa_offset 0
 725              	.LVL42:
 219:GrannyChordApp.cpp ****   memset(right_buf_, 0, CHNL_BUF_SIZE_ABS);
 726              		.loc 2 219 9 view .LVU170
 727 0020 FFF7FEBF 		b	memset
ARM GAS  /var/folders/2p/02m_5p7958535cp2tpgps0400000gn/T//cco1mNMf.s 			page 23


 728              	.LVL43:
 729              		.cfi_endproc
 730              	.LFE4804:
 732              		.section	.text._ZN14GrannyChordApp12InitPlaybackEv,"ax",%progbits
 733              		.align	1
 734              		.global	_ZN14GrannyChordApp12InitPlaybackEv
 735              		.syntax unified
 736              		.thumb
 737              		.thumb_func
 739              	_ZN14GrannyChordApp12InitPlaybackEv:
 740              	.LVL44:
 741              	.LFB4805:
 221:GrannyChordApp.cpp **** 
 222:GrannyChordApp.cpp **** /// @brief Initialises WAV playback state, resets playhead, sets current file audio length
 223:GrannyChordApp.cpp **** void GrannyChordApp::InitPlayback(){
 742              		.loc 2 223 36 is_stmt 1 view -0
 743              		.cfi_startproc
 744              		@ args = 0, pretend = 0, frame = 0
 745              		@ frame_needed = 0, uses_anonymous_args = 0
 224:GrannyChordApp.cpp ****   wav_playhead_ = 0;
 746              		.loc 2 224 3 view .LVU172
 747              		.loc 2 224 17 is_stmt 0 view .LVU173
 748 0000 0023     		movs	r3, #0
 225:GrannyChordApp.cpp ****   // audio_len_ = filemgr_.GetSamplesPerChannel();
 226:GrannyChordApp.cpp ****   if (!filemgr_.LoadFile(file_idx_)) curr_state_=AppState::Error;
 749              		.loc 2 226 25 view .LVU174
 750 0002 B0F82816 		ldrh	r1, [r0, #1576]
 223:GrannyChordApp.cpp ****   wav_playhead_ = 0;
 751              		.loc 2 223 36 view .LVU175
 752 0006 10B5     		push	{r4, lr}
 753              		.cfi_def_cfa_offset 8
 754              		.cfi_offset 4, -8
 755              		.cfi_offset 14, -4
 223:GrannyChordApp.cpp ****   wav_playhead_ = 0;
 756              		.loc 2 223 36 view .LVU176
 757 0008 0446     		mov	r4, r0
 224:GrannyChordApp.cpp ****   wav_playhead_ = 0;
 758              		.loc 2 224 17 view .LVU177
 759 000a C0F82C36 		str	r3, [r0, #1580]
 760              		.loc 2 226 3 is_stmt 1 view .LVU178
 761              		.loc 2 226 25 is_stmt 0 view .LVU179
 762 000e D0F8AC04 		ldr	r0, [r0, #1196]
 763              	.LVL45:
 764              		.loc 2 226 25 view .LVU180
 765 0012 FFF7FEFF 		bl	_ZN16AudioFileManager8LoadFileEt
 766              	.LVL46:
 767              		.loc 2 226 3 view .LVU181
 768 0016 10B9     		cbnz	r0, .L54
 769              		.loc 2 226 38 is_stmt 1 discriminator 1 view .LVU182
 770              		.loc 2 226 49 is_stmt 0 discriminator 1 view .LVU183
 771 0018 0423     		movs	r3, #4
 772 001a C4F87435 		str	r3, [r4, #1396]
 773              	.L54:
 227:GrannyChordApp.cpp **** }
 774              		.loc 2 227 1 view .LVU184
 775 001e 10BD     		pop	{r4, pc}
 776              		.loc 2 227 1 view .LVU185
ARM GAS  /var/folders/2p/02m_5p7958535cp2tpgps0400000gn/T//cco1mNMf.s 			page 24


 777              		.cfi_endproc
 778              	.LFE4805:
 780              		.section	.text._ZN14GrannyChordApp17HandleStateChangeEv,"ax",%progbits
 781              		.align	1
 782              		.global	_ZN14GrannyChordApp17HandleStateChangeEv
 783              		.syntax unified
 784              		.thumb
 785              		.thumb_func
 787              	_ZN14GrannyChordApp17HandleStateChangeEv:
 788              	.LVL47:
 789              	.LFB4790:
  61:GrannyChordApp.cpp ****   switch(curr_state_){
 790              		.loc 2 61 41 is_stmt 1 view -0
 791              		.cfi_startproc
 792              		@ args = 0, pretend = 0, frame = 0
 793              		@ frame_needed = 0, uses_anonymous_args = 0
  62:GrannyChordApp.cpp ****     // case AppState::SelectFile:  HandleFileSelection(); break; 
 794              		.loc 2 62 3 view .LVU187
 795 0000 D0F87435 		ldr	r3, [r0, #1396]
 796 0004 013B     		subs	r3, r3, #1
  61:GrannyChordApp.cpp ****   switch(curr_state_){
 797              		.loc 2 61 41 is_stmt 0 view .LVU188
 798 0006 10B5     		push	{r4, lr}
 799              		.cfi_def_cfa_offset 8
 800              		.cfi_offset 4, -8
 801              		.cfi_offset 14, -4
  61:GrannyChordApp.cpp ****   switch(curr_state_){
 802              		.loc 2 61 41 view .LVU189
 803 0008 0446     		mov	r4, r0
  62:GrannyChordApp.cpp ****     // case AppState::SelectFile:  HandleFileSelection(); break; 
 804              		.loc 2 62 3 view .LVU190
 805 000a 032B     		cmp	r3, #3
 806 000c 1ED8     		bhi	.L56
 807 000e DFE803F0 		tbb	[pc, r3]
 808              	.L59:
 809 0012 06       		.byte	(.L62-.L59)/2
 810 0013 0A       		.byte	(.L61-.L59)/2
 811 0014 02       		.byte	(.L60-.L59)/2
 812 0015 0E       		.byte	(.L58-.L59)/2
 813              		.p2align 1
 814              	.L60:
  64:GrannyChordApp.cpp ****     case AppState::PlayWAV:     InitPlayback();        break;
 815              		.loc 2 64 5 is_stmt 1 view .LVU191
  64:GrannyChordApp.cpp ****     case AppState::PlayWAV:     InitPlayback();        break;
 816              		.loc 2 64 33 view .LVU192
  73:GrannyChordApp.cpp **** 
 817              		.loc 2 73 1 is_stmt 0 view .LVU193
 818 0016 BDE81040 		pop	{r4, lr}
 819              		.cfi_remember_state
 820              		.cfi_restore 14
 821              		.cfi_restore 4
 822              		.cfi_def_cfa_offset 0
  64:GrannyChordApp.cpp ****     case AppState::PlayWAV:     InitPlayback();        break;
 823              		.loc 2 64 50 view .LVU194
 824 001a FFF7FEBF 		b	_ZN14GrannyChordApp17ClearAudioBuffersEv
 825              	.LVL48:
 826              	.L62:
ARM GAS  /var/folders/2p/02m_5p7958535cp2tpgps0400000gn/T//cco1mNMf.s 			page 25


 827              		.cfi_restore_state
  65:GrannyChordApp.cpp ****     case AppState::Synthesis:   InitSynth();           break;
 828              		.loc 2 65 5 is_stmt 1 view .LVU195
  65:GrannyChordApp.cpp ****     case AppState::Synthesis:   InitSynth();           break;
 829              		.loc 2 65 33 view .LVU196
  73:GrannyChordApp.cpp **** 
 830              		.loc 2 73 1 is_stmt 0 view .LVU197
 831 001e BDE81040 		pop	{r4, lr}
 832              		.cfi_remember_state
 833              		.cfi_restore 14
 834              		.cfi_restore 4
 835              		.cfi_def_cfa_offset 0
  65:GrannyChordApp.cpp ****     case AppState::Synthesis:   InitSynth();           break;
 836              		.loc 2 65 45 view .LVU198
 837 0022 FFF7FEBF 		b	_ZN14GrannyChordApp12InitPlaybackEv
 838              	.LVL49:
 839              	.L61:
 840              		.cfi_restore_state
  66:GrannyChordApp.cpp ****     case AppState::Error: 
 841              		.loc 2 66 5 is_stmt 1 view .LVU199
  66:GrannyChordApp.cpp ****     case AppState::Error: 
 842              		.loc 2 66 33 view .LVU200
  73:GrannyChordApp.cpp **** 
 843              		.loc 2 73 1 is_stmt 0 view .LVU201
 844 0026 BDE81040 		pop	{r4, lr}
 845              		.cfi_remember_state
 846              		.cfi_restore 14
 847              		.cfi_restore 4
 848              		.cfi_def_cfa_offset 0
  66:GrannyChordApp.cpp ****     case AppState::Error: 
 849              		.loc 2 66 42 view .LVU202
 850 002a FFF7FEBF 		b	_ZN14GrannyChordApp9InitSynthEv
 851              	.LVL50:
 852              	.L58:
 853              		.cfi_restore_state
 854              	.LBB263:
 855              	.LBI263:
  61:GrannyChordApp.cpp ****   switch(curr_state_){
 856              		.loc 2 61 6 is_stmt 1 view .LVU203
 857              	.LBB264:
  67:GrannyChordApp.cpp ****       pod_.led1.SetRed(1); 
 858              		.loc 2 67 5 view .LVU204
  68:GrannyChordApp.cpp ****       pod_.led2.SetRed(1); 
 859              		.loc 2 68 7 view .LVU205
  68:GrannyChordApp.cpp ****       pod_.led2.SetRed(1); 
 860              		.loc 2 68 23 is_stmt 0 view .LVU206
 861 002e 0068     		ldr	r0, [r0]
 862              	.LVL51:
  68:GrannyChordApp.cpp ****       pod_.led2.SetRed(1); 
 863              		.loc 2 68 23 view .LVU207
 864 0030 B7EE000A 		vmov.f32	s0, #1.0e+0
 865 0034 D830     		adds	r0, r0, #216
 866 0036 FFF7FEFF 		bl	_ZN5daisy6RgbLed6SetRedEf
 867              	.LVL52:
  69:GrannyChordApp.cpp ****       break;
 868              		.loc 2 69 7 is_stmt 1 view .LVU208
  69:GrannyChordApp.cpp ****       break;
ARM GAS  /var/folders/2p/02m_5p7958535cp2tpgps0400000gn/T//cco1mNMf.s 			page 26


 869              		.loc 2 69 23 is_stmt 0 view .LVU209
 870 003a 2068     		ldr	r0, [r4]
 871 003c B7EE000A 		vmov.f32	s0, #1.0e+0
 872 0040 00F59670 		add	r0, r0, #300
 873              	.LBE264:
 874              	.LBE263:
  73:GrannyChordApp.cpp **** 
 875              		.loc 2 73 1 view .LVU210
 876 0044 BDE81040 		pop	{r4, lr}
 877              		.cfi_remember_state
 878              		.cfi_restore 14
 879              		.cfi_restore 4
 880              		.cfi_def_cfa_offset 0
 881              	.LVL53:
 882              	.LBB266:
 883              	.LBB265:
  69:GrannyChordApp.cpp ****       break;
 884              		.loc 2 69 23 view .LVU211
 885 0048 FFF7FEBF 		b	_ZN5daisy6RgbLed6SetRedEf
 886              	.LVL54:
 887              	.L56:
 888              		.cfi_restore_state
  69:GrannyChordApp.cpp ****       break;
 889              		.loc 2 69 23 view .LVU212
 890              	.LBE265:
 891              	.LBE266:
  73:GrannyChordApp.cpp **** 
 892              		.loc 2 73 1 view .LVU213
 893 004c 10BD     		pop	{r4, pc}
 894              		.cfi_endproc
 895              	.LFE4790:
 897              		.section	.text._ZN14GrannyChordApp8UpdateUIEv,"ax",%progbits
 898              		.align	1
 899              		.global	_ZN14GrannyChordApp8UpdateUIEv
 900              		.syntax unified
 901              		.thumb
 902              		.thumb_func
 904              	_ZN14GrannyChordApp8UpdateUIEv:
 905              	.LVL55:
 906              	.LFB4789:
  39:GrannyChordApp.cpp ****   AppState prev_state = curr_state_;
 907              		.loc 2 39 32 is_stmt 1 view -0
 908              		.cfi_startproc
 909              		@ args = 0, pretend = 0, frame = 0
 910              		@ frame_needed = 0, uses_anonymous_args = 0
  40:GrannyChordApp.cpp ****   pod_.ProcessDigitalControls();
 911              		.loc 2 40 3 view .LVU215
  39:GrannyChordApp.cpp ****   AppState prev_state = curr_state_;
 912              		.loc 2 39 32 is_stmt 0 view .LVU216
 913 0000 38B5     		push	{r3, r4, r5, lr}
 914              		.cfi_def_cfa_offset 16
 915              		.cfi_offset 3, -16
 916              		.cfi_offset 4, -12
 917              		.cfi_offset 5, -8
 918              		.cfi_offset 14, -4
 919 0002 0446     		mov	r4, r0
  40:GrannyChordApp.cpp ****   pod_.ProcessDigitalControls();
ARM GAS  /var/folders/2p/02m_5p7958535cp2tpgps0400000gn/T//cco1mNMf.s 			page 27


 920              		.loc 2 40 12 view .LVU217
 921 0004 D0F87455 		ldr	r5, [r0, #1396]
 922              	.LVL56:
  41:GrannyChordApp.cpp ****   if (pod_.encoder.Pressed()) HandleEncoderPressed();
 923              		.loc 2 41 3 is_stmt 1 view .LVU218
  41:GrannyChordApp.cpp ****   if (pod_.encoder.Pressed()) HandleEncoderPressed();
 924              		.loc 2 41 30 is_stmt 0 view .LVU219
 925 0008 0068     		ldr	r0, [r0]
 926              	.LVL57:
  39:GrannyChordApp.cpp ****   AppState prev_state = curr_state_;
 927              		.loc 2 39 32 view .LVU220
 928 000a 2DED028B 		vpush.64	{d8}
 929              		.cfi_def_cfa_offset 24
 930              		.cfi_offset 80, -24
 931              		.cfi_offset 81, -20
  41:GrannyChordApp.cpp ****   if (pod_.encoder.Pressed()) HandleEncoderPressed();
 932              		.loc 2 41 30 view .LVU221
 933 000e FFF7FEFF 		bl	_ZN5daisy8DaisyPod22ProcessDigitalControlsEv
 934              	.LVL58:
  42:GrannyChordApp.cpp ****   if (pod_.encoder.TimeHeldMs() > 1000.0f) HandleEncoderLongPress();
 935              		.loc 2 42 3 is_stmt 1 view .LVU222
 936              	.LBB267:
 937              	.LBI267:
 938              		.file 5 "../libDaisy/src/hid/encoder.h"
   1:../libDaisy/src/hid/encoder.h **** #pragma once
   2:../libDaisy/src/hid/encoder.h **** #ifndef DSY_ENCODER_H
   3:../libDaisy/src/hid/encoder.h **** #define DSY_ENCODER_H
   4:../libDaisy/src/hid/encoder.h **** #include "daisy_core.h"
   5:../libDaisy/src/hid/encoder.h **** #include "per/gpio.h"
   6:../libDaisy/src/hid/encoder.h **** #include "hid/switch.h"
   7:../libDaisy/src/hid/encoder.h **** 
   8:../libDaisy/src/hid/encoder.h **** namespace daisy
   9:../libDaisy/src/hid/encoder.h **** {
  10:../libDaisy/src/hid/encoder.h **** /** 
  11:../libDaisy/src/hid/encoder.h ****     @brief Generic Class for handling Quadrature Encoders \n 
  12:../libDaisy/src/hid/encoder.h ****     Inspired/influenced by Mutable Instruments (pichenettes) Encoder classes
  13:../libDaisy/src/hid/encoder.h ****     @author Stephen Hensley
  14:../libDaisy/src/hid/encoder.h ****     @date December 2019
  15:../libDaisy/src/hid/encoder.h ****     @ingroup controls
  16:../libDaisy/src/hid/encoder.h **** */
  17:../libDaisy/src/hid/encoder.h **** class Encoder
  18:../libDaisy/src/hid/encoder.h **** {
  19:../libDaisy/src/hid/encoder.h ****   public:
  20:../libDaisy/src/hid/encoder.h ****     Encoder() {}
  21:../libDaisy/src/hid/encoder.h ****     ~Encoder() {}
  22:../libDaisy/src/hid/encoder.h **** 
  23:../libDaisy/src/hid/encoder.h ****     /** Initializes the encoder with the specified hardware pins.
  24:../libDaisy/src/hid/encoder.h ****      * Update rate is to be deprecated in a future release
  25:../libDaisy/src/hid/encoder.h ****      */
  26:../libDaisy/src/hid/encoder.h ****     void Init(dsy_gpio_pin a,
  27:../libDaisy/src/hid/encoder.h ****               dsy_gpio_pin b,
  28:../libDaisy/src/hid/encoder.h ****               dsy_gpio_pin click,
  29:../libDaisy/src/hid/encoder.h ****               float        update_rate = 0.f);
  30:../libDaisy/src/hid/encoder.h ****     /** Called at update_rate to debounce and handle timing for the switch.
  31:../libDaisy/src/hid/encoder.h ****      * In order for events not to be missed, its important that the Edge/Pressed checks be made at 
  32:../libDaisy/src/hid/encoder.h ****      */
  33:../libDaisy/src/hid/encoder.h ****     void Debounce();
ARM GAS  /var/folders/2p/02m_5p7958535cp2tpgps0400000gn/T//cco1mNMf.s 			page 28


  34:../libDaisy/src/hid/encoder.h **** 
  35:../libDaisy/src/hid/encoder.h ****     /** Returns +1 if the encoder was turned clockwise, -1 if it was turned counter-clockwise, or 0
  36:../libDaisy/src/hid/encoder.h ****     inline int32_t Increment() const { return updated_ ? inc_ : 0; }
  37:../libDaisy/src/hid/encoder.h **** 
  38:../libDaisy/src/hid/encoder.h ****     /** Returns true if the encoder was just pressed. */
  39:../libDaisy/src/hid/encoder.h ****     inline bool RisingEdge() const { return sw_.RisingEdge(); }
  40:../libDaisy/src/hid/encoder.h **** 
  41:../libDaisy/src/hid/encoder.h ****     /** Returns true if the encoder was just released. */
  42:../libDaisy/src/hid/encoder.h ****     inline bool FallingEdge() const { return sw_.FallingEdge(); }
  43:../libDaisy/src/hid/encoder.h **** 
  44:../libDaisy/src/hid/encoder.h ****     /** Returns true while the encoder is held down.*/
  45:../libDaisy/src/hid/encoder.h ****     inline bool Pressed() const { return sw_.Pressed(); }
 939              		.loc 5 45 17 view .LVU223
 940              	.LBE267:
 941              		.loc 5 45 35 view .LVU224
 942              	.LBB270:
 943              	.LBB268:
 944              	.LBI268:
  79:../libDaisy/src/hid/switch.h **** 
 945              		.loc 1 79 17 view .LVU225
 946              	.LBB269:
  79:../libDaisy/src/hid/switch.h **** 
 947              		.loc 1 79 35 view .LVU226
  79:../libDaisy/src/hid/switch.h **** 
 948              		.loc 1 79 42 is_stmt 0 view .LVU227
 949 0012 2368     		ldr	r3, [r4]
 950              	.LBE269:
 951              	.LBE268:
 952              	.LBE270:
  42:GrannyChordApp.cpp ****   if (pod_.encoder.TimeHeldMs() > 1000.0f) HandleEncoderLongPress();
 953              		.loc 2 42 3 view .LVU228
 954 0014 93F85230 		ldrb	r3, [r3, #82]	@ zero_extendqisi2
 955 0018 FF2B     		cmp	r3, #255
 956 001a 02D1     		bne	.L64
  42:GrannyChordApp.cpp ****   if (pod_.encoder.TimeHeldMs() > 1000.0f) HandleEncoderLongPress();
 957              		.loc 2 42 31 is_stmt 1 discriminator 1 view .LVU229
  42:GrannyChordApp.cpp ****   if (pod_.encoder.TimeHeldMs() > 1000.0f) HandleEncoderLongPress();
 958              		.loc 2 42 51 is_stmt 0 discriminator 1 view .LVU230
 959 001c 2046     		mov	r0, r4
 960 001e FFF7FEFF 		bl	_ZN14GrannyChordApp20HandleEncoderPressedEv
 961              	.LVL59:
 962              	.L64:
  43:GrannyChordApp.cpp ****   if (pod_.button1.Pressed()) HandleButton1();
 963              		.loc 2 43 3 is_stmt 1 view .LVU231
 964              	.LBB271:
 965              	.LBI271:
  46:../libDaisy/src/hid/encoder.h **** 
  47:../libDaisy/src/hid/encoder.h ****     /** Returns the time in milliseconds that the encoder has been held down. */
  48:../libDaisy/src/hid/encoder.h ****     inline float TimeHeldMs() const { return sw_.TimeHeldMs(); }
 966              		.loc 5 48 18 view .LVU232
 967              	.LBB272:
 968              		.loc 5 48 39 view .LVU233
 969              		.loc 5 48 60 is_stmt 0 view .LVU234
 970 0022 2068     		ldr	r0, [r4]
 971              	.LBE272:
 972              	.LBE271:
  43:GrannyChordApp.cpp ****   if (pod_.button1.Pressed()) HandleButton1();
ARM GAS  /var/folders/2p/02m_5p7958535cp2tpgps0400000gn/T//cco1mNMf.s 			page 29


 973              		.loc 2 43 3 view .LVU235
 974 0024 9FED298A 		vldr.32	s16, .L86
 975              	.LBB274:
 976              	.LBB273:
 977              		.loc 5 48 60 view .LVU236
 978 0028 4830     		adds	r0, r0, #72
 979 002a FFF7FEFF 		bl	_ZNK5daisy6Switch10TimeHeldMsEv
 980              	.LVL60:
 981              		.loc 5 48 60 view .LVU237
 982              	.LBE273:
 983              	.LBE274:
  43:GrannyChordApp.cpp ****   if (pod_.button1.Pressed()) HandleButton1();
 984              		.loc 2 43 3 view .LVU238
 985 002e B4EEC80A 		vcmpe.f32	s0, s16
 986 0032 F1EE10FA 		vmrs	APSR_nzcv, FPSCR
 987 0036 02DD     		ble	.L65
  43:GrannyChordApp.cpp ****   if (pod_.button1.Pressed()) HandleButton1();
 988              		.loc 2 43 44 is_stmt 1 discriminator 1 view .LVU239
  43:GrannyChordApp.cpp ****   if (pod_.button1.Pressed()) HandleButton1();
 989              		.loc 2 43 66 is_stmt 0 discriminator 1 view .LVU240
 990 0038 2046     		mov	r0, r4
 991 003a FFF7FEFF 		bl	_ZN14GrannyChordApp22HandleEncoderLongPressEv
 992              	.LVL61:
 993              	.L65:
  44:GrannyChordApp.cpp ****   if (pod_.button2.Pressed()) HandleButton2();
 994              		.loc 2 44 3 is_stmt 1 view .LVU241
 995              	.LBB275:
 996              	.LBI275:
  79:../libDaisy/src/hid/switch.h **** 
 997              		.loc 1 79 17 view .LVU242
 998              	.LBB276:
  79:../libDaisy/src/hid/switch.h **** 
 999              		.loc 1 79 35 view .LVU243
  79:../libDaisy/src/hid/switch.h **** 
 1000              		.loc 1 79 42 is_stmt 0 view .LVU244
 1001 003e 2368     		ldr	r3, [r4]
 1002              	.LBE276:
 1003              	.LBE275:
  44:GrannyChordApp.cpp ****   if (pod_.button2.Pressed()) HandleButton2();
 1004              		.loc 2 44 3 view .LVU245
 1005 0040 93F8BA30 		ldrb	r3, [r3, #186]	@ zero_extendqisi2
 1006 0044 FF2B     		cmp	r3, #255
 1007 0046 02D1     		bne	.L67
  44:GrannyChordApp.cpp ****   if (pod_.button2.Pressed()) HandleButton2();
 1008              		.loc 2 44 31 is_stmt 1 discriminator 1 view .LVU246
  44:GrannyChordApp.cpp ****   if (pod_.button2.Pressed()) HandleButton2();
 1009              		.loc 2 44 44 is_stmt 0 discriminator 1 view .LVU247
 1010 0048 2046     		mov	r0, r4
 1011 004a FFF7FEFF 		bl	_ZN14GrannyChordApp13HandleButton1Ev
 1012              	.LVL62:
 1013              	.L67:
  45:GrannyChordApp.cpp ****   if (curr_state_==AppState::Synthesis){
 1014              		.loc 2 45 3 is_stmt 1 view .LVU248
 1015              	.LBB277:
 1016              	.LBI277:
  79:../libDaisy/src/hid/switch.h **** 
 1017              		.loc 1 79 17 view .LVU249
ARM GAS  /var/folders/2p/02m_5p7958535cp2tpgps0400000gn/T//cco1mNMf.s 			page 30


 1018              	.LBB278:
  79:../libDaisy/src/hid/switch.h **** 
 1019              		.loc 1 79 35 view .LVU250
  79:../libDaisy/src/hid/switch.h **** 
 1020              		.loc 1 79 42 is_stmt 0 view .LVU251
 1021 004e 2368     		ldr	r3, [r4]
 1022              	.LBE278:
 1023              	.LBE277:
  45:GrannyChordApp.cpp ****   if (curr_state_==AppState::Synthesis){
 1024              		.loc 2 45 3 view .LVU252
 1025 0050 93F8CA30 		ldrb	r3, [r3, #202]	@ zero_extendqisi2
 1026 0054 FF2B     		cmp	r3, #255
 1027 0056 02D1     		bne	.L68
  45:GrannyChordApp.cpp ****   if (curr_state_==AppState::Synthesis){
 1028              		.loc 2 45 31 is_stmt 1 discriminator 1 view .LVU253
  45:GrannyChordApp.cpp ****   if (curr_state_==AppState::Synthesis){
 1029              		.loc 2 45 44 is_stmt 0 discriminator 1 view .LVU254
 1030 0058 2046     		mov	r0, r4
 1031 005a FFF7FEFF 		bl	_ZN14GrannyChordApp13HandleButton2Ev
 1032              	.LVL63:
 1033              	.L68:
  46:GrannyChordApp.cpp ****     if (pod_.button1.TimeHeldMs() >1000.0f) HandleButton1LongPress();
 1034              		.loc 2 46 3 is_stmt 1 view .LVU255
 1035 005e D4F87435 		ldr	r3, [r4, #1396]
 1036 0062 022B     		cmp	r3, #2
 1037 0064 17D1     		bne	.L70
  47:GrannyChordApp.cpp ****     if (pod_.button2.TimeHeldMs() >1000.0f) HandleButton2LongPress();
 1038              		.loc 2 47 5 view .LVU256
  47:GrannyChordApp.cpp ****     if (pod_.button2.TimeHeldMs() >1000.0f) HandleButton2LongPress();
 1039              		.loc 2 47 32 is_stmt 0 view .LVU257
 1040 0066 2068     		ldr	r0, [r4]
 1041 0068 B030     		adds	r0, r0, #176
 1042 006a FFF7FEFF 		bl	_ZNK5daisy6Switch10TimeHeldMsEv
 1043              	.LVL64:
  47:GrannyChordApp.cpp ****     if (pod_.button2.TimeHeldMs() >1000.0f) HandleButton2LongPress();
 1044              		.loc 2 47 5 view .LVU258
 1045 006e B4EEC80A 		vcmpe.f32	s0, s16
 1046 0072 F1EE10FA 		vmrs	APSR_nzcv, FPSCR
 1047 0076 02DD     		ble	.L71
  47:GrannyChordApp.cpp ****     if (pod_.button2.TimeHeldMs() >1000.0f) HandleButton2LongPress();
 1048              		.loc 2 47 45 is_stmt 1 discriminator 1 view .LVU259
  47:GrannyChordApp.cpp ****     if (pod_.button2.TimeHeldMs() >1000.0f) HandleButton2LongPress();
 1049              		.loc 2 47 67 is_stmt 0 discriminator 1 view .LVU260
 1050 0078 2046     		mov	r0, r4
 1051 007a FFF7FEFF 		bl	_ZN14GrannyChordApp22HandleButton1LongPressEv
 1052              	.LVL65:
 1053              	.L71:
  48:GrannyChordApp.cpp ****   }
 1054              		.loc 2 48 5 is_stmt 1 view .LVU261
  48:GrannyChordApp.cpp ****   }
 1055              		.loc 2 48 32 is_stmt 0 view .LVU262
 1056 007e 2068     		ldr	r0, [r4]
 1057 0080 C030     		adds	r0, r0, #192
 1058 0082 FFF7FEFF 		bl	_ZNK5daisy6Switch10TimeHeldMsEv
 1059              	.LVL66:
  48:GrannyChordApp.cpp ****   }
 1060              		.loc 2 48 5 view .LVU263
ARM GAS  /var/folders/2p/02m_5p7958535cp2tpgps0400000gn/T//cco1mNMf.s 			page 31


 1061 0086 B4EEC80A 		vcmpe.f32	s0, s16
 1062 008a F1EE10FA 		vmrs	APSR_nzcv, FPSCR
 1063 008e 02DD     		ble	.L70
  48:GrannyChordApp.cpp ****   }
 1064              		.loc 2 48 45 is_stmt 1 discriminator 1 view .LVU264
  48:GrannyChordApp.cpp ****   }
 1065              		.loc 2 48 67 is_stmt 0 discriminator 1 view .LVU265
 1066 0090 2046     		mov	r0, r4
 1067 0092 FFF7FEFF 		bl	_ZN14GrannyChordApp22HandleButton2LongPressEv
 1068              	.LVL67:
 1069              	.L70:
  51:GrannyChordApp.cpp ****   if (encoder_inc!=0 && curr_state_== AppState::SelectFile){
 1070              		.loc 2 51 3 is_stmt 1 view .LVU266
  51:GrannyChordApp.cpp ****   if (encoder_inc!=0 && curr_state_== AppState::SelectFile){
 1071              		.loc 2 51 25 is_stmt 0 view .LVU267
 1072 0096 2368     		ldr	r3, [r4]
 1073              	.LVL68:
 1074              	.LBB279:
 1075              	.LBI279:
  36:../libDaisy/src/hid/encoder.h **** 
 1076              		.loc 5 36 20 is_stmt 1 view .LVU268
 1077              	.LBB280:
  36:../libDaisy/src/hid/encoder.h **** 
 1078              		.loc 5 36 40 view .LVU269
  36:../libDaisy/src/hid/encoder.h **** 
 1079              		.loc 5 36 56 is_stmt 0 view .LVU270
 1080 0098 93F84420 		ldrb	r2, [r3, #68]	@ zero_extendqisi2
 1081 009c 3AB1     		cbz	r2, .L75
 1082 009e 596E     		ldr	r1, [r3, #100]
 1083              	.LVL69:
  36:../libDaisy/src/hid/encoder.h **** 
 1084              		.loc 5 36 56 view .LVU271
 1085              	.LBE280:
 1086              	.LBE279:
  52:GrannyChordApp.cpp ****     HandleFileSelection(encoder_inc);
 1087              		.loc 2 52 3 is_stmt 1 view .LVU272
 1088 00a0 29B1     		cbz	r1, .L75
  52:GrannyChordApp.cpp ****     HandleFileSelection(encoder_inc);
 1089              		.loc 2 52 22 is_stmt 0 discriminator 1 view .LVU273
 1090 00a2 D4F87435 		ldr	r3, [r4, #1396]
 1091 00a6 13B9     		cbnz	r3, .L75
  53:GrannyChordApp.cpp ****   }
 1092              		.loc 2 53 5 is_stmt 1 view .LVU274
  53:GrannyChordApp.cpp ****   }
 1093              		.loc 2 53 24 is_stmt 0 view .LVU275
 1094 00a8 2046     		mov	r0, r4
 1095 00aa FFF7FEFF 		bl	_ZN14GrannyChordApp19HandleFileSelectionEl
 1096              	.LVL70:
 1097              	.L75:
  56:GrannyChordApp.cpp ****     HandleStateChange();
 1098              		.loc 2 56 3 is_stmt 1 view .LVU276
 1099 00ae D4F87435 		ldr	r3, [r4, #1396]
 1100 00b2 AB42     		cmp	r3, r5
 1101 00b4 06D0     		beq	.L63
  57:GrannyChordApp.cpp ****   }
 1102              		.loc 2 57 5 view .LVU277
  57:GrannyChordApp.cpp ****   }
ARM GAS  /var/folders/2p/02m_5p7958535cp2tpgps0400000gn/T//cco1mNMf.s 			page 32


 1103              		.loc 2 57 22 is_stmt 0 view .LVU278
 1104 00b6 2046     		mov	r0, r4
  59:GrannyChordApp.cpp **** 
 1105              		.loc 2 59 1 view .LVU279
 1106 00b8 BDEC028B 		vldm	sp!, {d8}
 1107              		.cfi_remember_state
 1108              		.cfi_restore 80
 1109              		.cfi_restore 81
 1110              		.cfi_def_cfa_offset 16
 1111 00bc BDE83840 		pop	{r3, r4, r5, lr}
 1112              		.cfi_restore 14
 1113              		.cfi_restore 5
 1114              		.cfi_restore 4
 1115              		.cfi_restore 3
 1116              		.cfi_def_cfa_offset 0
 1117              	.LVL71:
  57:GrannyChordApp.cpp ****   }
 1118              		.loc 2 57 22 view .LVU280
 1119 00c0 FFF7FEBF 		b	_ZN14GrannyChordApp17HandleStateChangeEv
 1120              	.LVL72:
 1121              	.L63:
 1122              		.cfi_restore_state
  59:GrannyChordApp.cpp **** 
 1123              		.loc 2 59 1 view .LVU281
 1124 00c4 BDEC028B 		vldm	sp!, {d8}
 1125              		.cfi_restore 80
 1126              		.cfi_restore 81
 1127              		.cfi_def_cfa_offset 16
 1128 00c8 38BD     		pop	{r3, r4, r5, pc}
 1129              	.LVL73:
 1130              	.L87:
  59:GrannyChordApp.cpp **** 
 1131              		.loc 2 59 1 view .LVU282
 1132 00ca 00BF     		.align	2
 1133              	.L86:
 1134 00cc 00007A44 		.word	1148846080
 1135              		.cfi_endproc
 1136              	.LFE4789:
 1138              		.section	.rodata._ZN14GrannyChordApp12InitRecordInEv.str1.1,"aMS",%progbits,1
 1139              	.LC4:
 1140 0000 636C6561 		.ascii	"cleared audio buffers for recording in\000"
 1140      72656420 
 1140      61756469 
 1140      6F206275 
 1140      66666572 
 1141              		.section	.text._ZN14GrannyChordApp12InitRecordInEv,"ax",%progbits
 1142              		.align	1
 1143              		.global	_ZN14GrannyChordApp12InitRecordInEv
 1144              		.syntax unified
 1145              		.thumb
 1146              		.thumb_func
 1148              	_ZN14GrannyChordApp12InitRecordInEv:
 1149              	.LVL74:
 1150              	.LFB4806:
 228:GrannyChordApp.cpp **** 
 229:GrannyChordApp.cpp **** /// @brief Initialises RecordIn state, clears audio buffers
 230:GrannyChordApp.cpp **** void GrannyChordApp::InitRecordIn(){
ARM GAS  /var/folders/2p/02m_5p7958535cp2tpgps0400000gn/T//cco1mNMf.s 			page 33


 1151              		.loc 2 230 36 is_stmt 1 view -0
 1152              		.cfi_startproc
 1153              		@ args = 0, pretend = 0, frame = 0
 1154              		@ frame_needed = 0, uses_anonymous_args = 0
 1155              		@ link register save eliminated.
 231:GrannyChordApp.cpp **** 
 232:GrannyChordApp.cpp ****   DebugPrint(pod_, "cleared audio buffers for recording in");
 1156              		.loc 2 232 3 view .LVU284
 1157              		.loc 2 232 3 view .LVU285
 1158              	.LBB281:
 1159              	.LBI281:
 126:../libDaisy/src/daisy_seed.h ****     {
 1160              		.loc 4 126 17 view .LVU286
 1161              	.LBB282:
 1162              		.loc 4 128 23 is_stmt 0 view .LVU287
 1163 0000 0148     		ldr	r0, .L89
 1164              	.LVL75:
 1165              		.loc 4 128 23 view .LVU288
 1166 0002 FFF7FEBF 		b	_ZN5daisy6LoggerILNS_17LoggerDestinationE1EE9PrintLineEPKcz
 1167              	.LVL76:
 1168              	.L90:
 1169 0006 00BF     		.align	2
 1170              	.L89:
 1171 0008 00000000 		.word	.LC4
 1172              	.LBE282:
 1173              	.LBE281:
 1174              		.cfi_endproc
 1175              	.LFE4806:
 1177              		.section	.text._ZN14GrannyChordApp13InitWavWriterEv,"ax",%progbits
 1178              		.align	1
 1179              		.global	_ZN14GrannyChordApp13InitWavWriterEv
 1180              		.syntax unified
 1181              		.thumb
 1182              		.thumb_func
 1184              	_ZN14GrannyChordApp13InitWavWriterEv:
 1185              	.LVL77:
 1186              	.LFB4807:
 233:GrannyChordApp.cpp **** }
 234:GrannyChordApp.cpp **** 
 235:GrannyChordApp.cpp **** /// @brief Initialise object for recording out to SD card
 236:GrannyChordApp.cpp **** void GrannyChordApp::InitWavWriter(){
 1187              		.loc 2 236 37 is_stmt 1 view -0
 1188              		.cfi_startproc
 1189              		@ args = 0, pretend = 0, frame = 0
 1190              		@ frame_needed = 0, uses_anonymous_args = 0
 1191              		@ link register save eliminated.
 237:GrannyChordApp.cpp ****   WavWriter<16384>::Config cfg;
 1192              		.loc 2 237 3 view .LVU290
 238:GrannyChordApp.cpp ****   cfg.bitspersample = BIT_DEPTH;
 1193              		.loc 2 238 3 view .LVU291
 239:GrannyChordApp.cpp ****   cfg.channels = filemgr_.GetNumChannels();
 1194              		.loc 2 239 3 view .LVU292
 1195              	.LBB291:
 1196              	.LBI291:
  29:AudioFileManager.h ****     uint16_t GetFileCount() const { return file_count_; }
 1197              		.loc 3 29 13 view .LVU293
 1198              	.LBB292:
ARM GAS  /var/folders/2p/02m_5p7958535cp2tpgps0400000gn/T//cco1mNMf.s 			page 34


  29:AudioFileManager.h ****     uint16_t GetFileCount() const { return file_count_; }
 1199              		.loc 3 29 38 view .LVU294
  29:AudioFileManager.h ****     uint16_t GetFileCount() const { return file_count_; }
 1200              		.loc 3 29 53 is_stmt 0 view .LVU295
 1201 0000 D0F8AC34 		ldr	r3, [r0, #1196]
 1202              	.LBE292:
 1203              	.LBE291:
 1204              	.LBB294:
 1205              	.LBB295:
 1206              		.file 6 "../libDaisy/src/util/WavWriter.h"
   1:../libDaisy/src/util/WavWriter.h **** #pragma once
   2:../libDaisy/src/util/WavWriter.h **** #pragma once
   3:../libDaisy/src/util/WavWriter.h **** #include "fatfs.h"
   4:../libDaisy/src/util/WavWriter.h **** 
   5:../libDaisy/src/util/WavWriter.h **** namespace daisy
   6:../libDaisy/src/util/WavWriter.h **** {
   7:../libDaisy/src/util/WavWriter.h **** /** Audio Recording Module
   8:../libDaisy/src/util/WavWriter.h ****  ** 
   9:../libDaisy/src/util/WavWriter.h ****  ** Record audio into a working buffer that is gradually written to a WAV file on an SD Card. 
  10:../libDaisy/src/util/WavWriter.h ****  **
  11:../libDaisy/src/util/WavWriter.h ****  ** Recordings are made with floating point input, and will be converted to the 
  12:../libDaisy/src/util/WavWriter.h ****  ** specified bits per sample internally 
  13:../libDaisy/src/util/WavWriter.h ****  **
  14:../libDaisy/src/util/WavWriter.h ****  ** For now only 16-bit and 32-bit (signed int) formats are supported
  15:../libDaisy/src/util/WavWriter.h ****  ** f32 and s24 formats will be added next
  16:../libDaisy/src/util/WavWriter.h ****  **
  17:../libDaisy/src/util/WavWriter.h ****  ** The transfer size determines the amount of internal memory used, and can have an
  18:../libDaisy/src/util/WavWriter.h ****  ** effect on the performance of the streaming behavior of the WavWriter.
  19:../libDaisy/src/util/WavWriter.h ****  ** Memory use can be calculated as: (2 * transfer_size) bytes
  20:../libDaisy/src/util/WavWriter.h ****  ** Performance optimal with sizes: 16384, 32768
  21:../libDaisy/src/util/WavWriter.h ****  ** 
  22:../libDaisy/src/util/WavWriter.h ****  ** To use:
  23:../libDaisy/src/util/WavWriter.h ****  ** 1. Create a WavWriter<size> object (e.g. WavWriter<32768> writer)
  24:../libDaisy/src/util/WavWriter.h ****  ** 2. Configure the settings as desired by creating a WavWriter<32768>::Config struct and setting 
  25:../libDaisy/src/util/WavWriter.h ****  ** 3. Initialize the object with the configuration struct.
  26:../libDaisy/src/util/WavWriter.h ****  ** 4. Open a new file for writing with: writer.OpenFile("FileName.wav")
  27:../libDaisy/src/util/WavWriter.h ****  ** 5. Write to it within your audio callback using: writer.Sample(value)
  28:../libDaisy/src/util/WavWriter.h ****  ** 6. Fill the Wav File on the SD Card with data from your main loop by running: writer.Write()
  29:../libDaisy/src/util/WavWriter.h ****  ** 7. When finished with the recording finalize, and close the file with: writer.SaveFile();
  30:../libDaisy/src/util/WavWriter.h ****  ** 
  31:../libDaisy/src/util/WavWriter.h ****  ** */
  32:../libDaisy/src/util/WavWriter.h **** template <size_t transfer_size>
  33:../libDaisy/src/util/WavWriter.h **** class WavWriter
  34:../libDaisy/src/util/WavWriter.h **** {
  35:../libDaisy/src/util/WavWriter.h ****   public:
  36:../libDaisy/src/util/WavWriter.h ****     WavWriter() {}
  37:../libDaisy/src/util/WavWriter.h ****     ~WavWriter() {}
  38:../libDaisy/src/util/WavWriter.h **** 
  39:../libDaisy/src/util/WavWriter.h ****     /** Return values for write related functions */
  40:../libDaisy/src/util/WavWriter.h ****     enum class Result
  41:../libDaisy/src/util/WavWriter.h ****     {
  42:../libDaisy/src/util/WavWriter.h ****         OK,
  43:../libDaisy/src/util/WavWriter.h ****         ERROR,
  44:../libDaisy/src/util/WavWriter.h ****     };
  45:../libDaisy/src/util/WavWriter.h **** 
  46:../libDaisy/src/util/WavWriter.h ****     /** Configuration structure for the wave writer.
  47:../libDaisy/src/util/WavWriter.h **** 	 ** */
ARM GAS  /var/folders/2p/02m_5p7958535cp2tpgps0400000gn/T//cco1mNMf.s 			page 35


  48:../libDaisy/src/util/WavWriter.h ****     struct Config
  49:../libDaisy/src/util/WavWriter.h ****     {
  50:../libDaisy/src/util/WavWriter.h ****         float   samplerate;
  51:../libDaisy/src/util/WavWriter.h ****         int32_t channels;
  52:../libDaisy/src/util/WavWriter.h ****         int32_t bitspersample;
  53:../libDaisy/src/util/WavWriter.h ****     };
  54:../libDaisy/src/util/WavWriter.h **** 
  55:../libDaisy/src/util/WavWriter.h ****     /** State of the internal Writing mechanism. 
  56:../libDaisy/src/util/WavWriter.h **** 	 ** When the buffer is a certain amount full one section will write its contents
  57:../libDaisy/src/util/WavWriter.h **** 	 ** while the other is still being written to. This is performed circularly
  58:../libDaisy/src/util/WavWriter.h **** 	 ** so that audio will be uninterrupted during writing. */
  59:../libDaisy/src/util/WavWriter.h ****     enum class BufferState
  60:../libDaisy/src/util/WavWriter.h ****     {
  61:../libDaisy/src/util/WavWriter.h ****         IDLE,
  62:../libDaisy/src/util/WavWriter.h ****         FLUSH0,
  63:../libDaisy/src/util/WavWriter.h ****         FLUSH1,
  64:../libDaisy/src/util/WavWriter.h ****     };
  65:../libDaisy/src/util/WavWriter.h **** 
  66:../libDaisy/src/util/WavWriter.h ****     /**  Initializes the WavFile header, and prepares the object for recording. */
  67:../libDaisy/src/util/WavWriter.h ****     void Init(const Config &cfg)
  68:../libDaisy/src/util/WavWriter.h ****     {
  69:../libDaisy/src/util/WavWriter.h ****         cfg_       = cfg;
 1207              		.loc 6 69 9 view .LVU296
 1208 0004 00F5CE62 		add	r2, r0, #1648
 1209 0008 9FED277A 		vldr.32	s14, .L93
  70:../libDaisy/src/util/WavWriter.h ****         num_samps_ = 0;
 1210              		.loc 6 70 20 view .LVU297
 1211 000c 0021     		movs	r1, #0
 1212              	.LBE295:
 1213              	.LBE294:
 1214              	.LBB324:
 1215              	.LBB293:
  29:AudioFileManager.h ****     uint16_t GetFileCount() const { return file_count_; }
 1216              		.loc 3 29 53 view .LVU298
 1217 000e B3F96438 		ldrsh	r3, [r3, #2148]
 1218              	.LVL78:
  29:AudioFileManager.h ****     uint16_t GetFileCount() const { return file_count_; }
 1219              		.loc 3 29 53 view .LVU299
 1220              	.LBE293:
 1221              	.LBE324:
 240:GrannyChordApp.cpp ****   cfg.samplerate = SAMPLE_RATE;
 1222              		.loc 2 240 3 is_stmt 1 view .LVU300
 241:GrannyChordApp.cpp ****   sd_out_writer_.Init(cfg);
 1223              		.loc 2 241 3 view .LVU301
 1224              	.LBB325:
 1225              	.LBI294:
  67:../libDaisy/src/util/WavWriter.h ****     {
 1226              		.loc 6 67 10 view .LVU302
 1227              	.LBB322:
  69:../libDaisy/src/util/WavWriter.h ****         num_samps_ = 0;
 1228              		.loc 6 69 9 is_stmt 0 view .LVU303
 1229 0012 82ED0D7A 		vstr.32	s14, [r2, #52]
 1230 0016 1022     		movs	r2, #16
 1231              	.LVL79:
 1232              	.LBB296:
 1233              	.LBB297:
  71:../libDaisy/src/util/WavWriter.h ****         // Prep the wav header according to config.
ARM GAS  /var/folders/2p/02m_5p7958535cp2tpgps0400000gn/T//cco1mNMf.s 			page 36


  72:../libDaisy/src/util/WavWriter.h ****         // Certain things (i.e. Size, etc. will have to wait until the finalization of the file, or
  73:../libDaisy/src/util/WavWriter.h ****         wavheader_.ChunkId       = kWavFileChunkId;     /** "RIFF" */
  74:../libDaisy/src/util/WavWriter.h ****         wavheader_.FileFormat    = kWavFileWaveId;      /** "WAVE" */
  75:../libDaisy/src/util/WavWriter.h ****         wavheader_.SubChunk1ID   = kWavFileSubChunk1Id; /** "fmt " */
  76:../libDaisy/src/util/WavWriter.h ****         wavheader_.SubChunk1Size = 16;                  // for PCM
  77:../libDaisy/src/util/WavWriter.h ****         wavheader_.AudioFormat   = WAVE_FORMAT_PCM;
  78:../libDaisy/src/util/WavWriter.h ****         wavheader_.NbrChannels   = cfg.channels;
  79:../libDaisy/src/util/WavWriter.h ****         wavheader_.SampleRate    = static_cast<int>(cfg.samplerate);
  80:../libDaisy/src/util/WavWriter.h ****         wavheader_.ByteRate      = CalcByteRate();
  81:../libDaisy/src/util/WavWriter.h ****         wavheader_.BlockAlign    = cfg_.channels * cfg_.bitspersample / 8;
  82:../libDaisy/src/util/WavWriter.h ****         wavheader_.BitPerSample  = cfg_.bitspersample;
  83:../libDaisy/src/util/WavWriter.h ****         wavheader_.SubChunk2ID   = kWavFileSubChunk2Id; /** "data" */
  84:../libDaisy/src/util/WavWriter.h ****         /** Also calcs SubChunk2Size */
  85:../libDaisy/src/util/WavWriter.h ****         wavheader_.FileSize = CalcFileSize();
  86:../libDaisy/src/util/WavWriter.h ****         // This is calculated as part of the subchunk size
  87:../libDaisy/src/util/WavWriter.h ****     }
  88:../libDaisy/src/util/WavWriter.h **** 
  89:../libDaisy/src/util/WavWriter.h ****     /** Records the current sample into the working buffer,
  90:../libDaisy/src/util/WavWriter.h ****      ** queues writes to media when necessary. 
  91:../libDaisy/src/util/WavWriter.h ****      ** 
  92:../libDaisy/src/util/WavWriter.h ****      ** \param in should be a pointer to an array of samples */
  93:../libDaisy/src/util/WavWriter.h ****     void Sample(const float *in)
  94:../libDaisy/src/util/WavWriter.h ****     {
  95:../libDaisy/src/util/WavWriter.h ****         for(size_t i = 0; i < cfg_.channels; i++)
  96:../libDaisy/src/util/WavWriter.h ****         {
  97:../libDaisy/src/util/WavWriter.h ****             switch(cfg_.bitspersample)
  98:../libDaisy/src/util/WavWriter.h ****             {
  99:../libDaisy/src/util/WavWriter.h ****                 case 16:
 100:../libDaisy/src/util/WavWriter.h ****                 {
 101:../libDaisy/src/util/WavWriter.h ****                     int16_t *tp;
 102:../libDaisy/src/util/WavWriter.h ****                     tp            = (int16_t *)transfer_buff;
 103:../libDaisy/src/util/WavWriter.h ****                     tp[wptr_ + i] = f2s16(in[i]);
 104:../libDaisy/src/util/WavWriter.h ****                 }
 105:../libDaisy/src/util/WavWriter.h ****                 break;
 106:../libDaisy/src/util/WavWriter.h ****                 case 32: transfer_buff[wptr_ + i] = f2s32(in[i]); break;
 107:../libDaisy/src/util/WavWriter.h ****                 default: break;
 108:../libDaisy/src/util/WavWriter.h ****             }
 109:../libDaisy/src/util/WavWriter.h ****         }
 110:../libDaisy/src/util/WavWriter.h ****         num_samps_++;
 111:../libDaisy/src/util/WavWriter.h ****         wptr_ += cfg_.channels;
 112:../libDaisy/src/util/WavWriter.h ****         size_t cap_point
 113:../libDaisy/src/util/WavWriter.h ****             = cfg_.bitspersample == 16 ? kTransferSamps * 2 : kTransferSamps;
 114:../libDaisy/src/util/WavWriter.h ****         if(wptr_ == cap_point)
 115:../libDaisy/src/util/WavWriter.h ****         {
 116:../libDaisy/src/util/WavWriter.h ****             bstate_ = BufferState::FLUSH0;
 117:../libDaisy/src/util/WavWriter.h ****         }
 118:../libDaisy/src/util/WavWriter.h ****         if(wptr_ >= cap_point * 2)
 119:../libDaisy/src/util/WavWriter.h ****         {
 120:../libDaisy/src/util/WavWriter.h ****             wptr_   = 0;
 121:../libDaisy/src/util/WavWriter.h ****             bstate_ = BufferState::FLUSH1;
 122:../libDaisy/src/util/WavWriter.h ****         }
 123:../libDaisy/src/util/WavWriter.h ****     }
 124:../libDaisy/src/util/WavWriter.h **** 
 125:../libDaisy/src/util/WavWriter.h ****     /** Check buffer state and write */
 126:../libDaisy/src/util/WavWriter.h ****     void Write()
 127:../libDaisy/src/util/WavWriter.h ****     {
 128:../libDaisy/src/util/WavWriter.h ****         if(bstate_ != BufferState::IDLE && IsRecording())
ARM GAS  /var/folders/2p/02m_5p7958535cp2tpgps0400000gn/T//cco1mNMf.s 			page 37


 129:../libDaisy/src/util/WavWriter.h ****         {
 130:../libDaisy/src/util/WavWriter.h ****             uint32_t     offset;
 131:../libDaisy/src/util/WavWriter.h ****             unsigned int bw = 0;
 132:../libDaisy/src/util/WavWriter.h ****             //offset          = bstate_ == BufferState::FLUSH0 ? 0 : transfer_size;
 133:../libDaisy/src/util/WavWriter.h ****             offset  = bstate_ == BufferState::FLUSH0 ? 0 : kTransferSamps;
 134:../libDaisy/src/util/WavWriter.h ****             bstate_ = BufferState::IDLE;
 135:../libDaisy/src/util/WavWriter.h ****             f_write(&fp_, &transfer_buff[offset], transfer_size, &bw);
 136:../libDaisy/src/util/WavWriter.h ****         }
 137:../libDaisy/src/util/WavWriter.h ****     }
 138:../libDaisy/src/util/WavWriter.h **** 
 139:../libDaisy/src/util/WavWriter.h ****     /** Finalizes the writing of the WAV file.
 140:../libDaisy/src/util/WavWriter.h **** 	 ** This overwrites the WAV Header with the correct
 141:../libDaisy/src/util/WavWriter.h **** 	 ** final size, and closes the fptr. */
 142:../libDaisy/src/util/WavWriter.h ****     void SaveFile()
 143:../libDaisy/src/util/WavWriter.h ****     {
 144:../libDaisy/src/util/WavWriter.h ****         unsigned int bw = 0;
 145:../libDaisy/src/util/WavWriter.h ****         recording_      = false;
 146:../libDaisy/src/util/WavWriter.h ****         // We _should_ flush whatever's left in the transfer buff
 147:../libDaisy/src/util/WavWriter.h ****         // TODO: that.
 148:../libDaisy/src/util/WavWriter.h ****         wavheader_.FileSize = CalcFileSize();
 149:../libDaisy/src/util/WavWriter.h ****         f_lseek(&fp_, 0);
 150:../libDaisy/src/util/WavWriter.h ****         f_write(&fp_, &wavheader_, sizeof(wavheader_), &bw);
 151:../libDaisy/src/util/WavWriter.h ****         f_close(&fp_);
 152:../libDaisy/src/util/WavWriter.h ****     }
 153:../libDaisy/src/util/WavWriter.h **** 
 154:../libDaisy/src/util/WavWriter.h ****     /** Opens a file for writing. Writes the initial WAV Header, and gets ready for stream-based re
 155:../libDaisy/src/util/WavWriter.h ****     void OpenFile(const char *name)
 156:../libDaisy/src/util/WavWriter.h ****     {
 157:../libDaisy/src/util/WavWriter.h ****         if(f_open(&fp_, name, FA_WRITE | FA_CREATE_ALWAYS) == FR_OK)
 158:../libDaisy/src/util/WavWriter.h ****         {
 159:../libDaisy/src/util/WavWriter.h ****             unsigned int bw = 0;
 160:../libDaisy/src/util/WavWriter.h ****             if(f_write(&fp_, &wavheader_, sizeof(wavheader_), &bw) == FR_OK)
 161:../libDaisy/src/util/WavWriter.h ****             {
 162:../libDaisy/src/util/WavWriter.h ****                 recording_ = true;
 163:../libDaisy/src/util/WavWriter.h ****                 num_samps_ = 0;
 164:../libDaisy/src/util/WavWriter.h ****             }
 165:../libDaisy/src/util/WavWriter.h ****         }
 166:../libDaisy/src/util/WavWriter.h ****     }
 167:../libDaisy/src/util/WavWriter.h **** 
 168:../libDaisy/src/util/WavWriter.h ****     /** Returns whether recording is currently active or not. */
 169:../libDaisy/src/util/WavWriter.h ****     inline bool IsRecording() const { return recording_; }
 170:../libDaisy/src/util/WavWriter.h **** 
 171:../libDaisy/src/util/WavWriter.h ****     /** Returns the current length in samples of the recording. */
 172:../libDaisy/src/util/WavWriter.h ****     inline uint32_t GetLengthSamps() { return num_samps_; }
 173:../libDaisy/src/util/WavWriter.h **** 
 174:../libDaisy/src/util/WavWriter.h ****     /** Returns the current length of the recording in seconds. */
 175:../libDaisy/src/util/WavWriter.h ****     inline float GetLengthSeconds()
 176:../libDaisy/src/util/WavWriter.h ****     {
 177:../libDaisy/src/util/WavWriter.h ****         return (float)num_samps_ / (float)cfg_.samplerate;
 178:../libDaisy/src/util/WavWriter.h ****     }
 179:../libDaisy/src/util/WavWriter.h **** 
 180:../libDaisy/src/util/WavWriter.h ****   private:
 181:../libDaisy/src/util/WavWriter.h ****     /** Calculate the file size based on current recording */
 182:../libDaisy/src/util/WavWriter.h ****     inline uint32_t CalcFileSize()
 183:../libDaisy/src/util/WavWriter.h ****     {
 184:../libDaisy/src/util/WavWriter.h ****         wavheader_.SubCHunk2Size
 185:../libDaisy/src/util/WavWriter.h ****             = num_samps_ * cfg_.channels * cfg_.bitspersample / 8;
ARM GAS  /var/folders/2p/02m_5p7958535cp2tpgps0400000gn/T//cco1mNMf.s 			page 38


 186:../libDaisy/src/util/WavWriter.h ****         return 36 + wavheader_.SubCHunk2Size;
 187:../libDaisy/src/util/WavWriter.h ****     }
 188:../libDaisy/src/util/WavWriter.h **** 
 189:../libDaisy/src/util/WavWriter.h ****     /** Compute the byte rate given the user settings. */
 190:../libDaisy/src/util/WavWriter.h ****     inline uint32_t CalcByteRate()
 191:../libDaisy/src/util/WavWriter.h ****     {
 192:../libDaisy/src/util/WavWriter.h ****         return cfg_.samplerate * cfg_.channels * cfg_.bitspersample / 8;
 1234              		.loc 6 192 32 view .LVU304
 1235 0018 07EE903A 		vmov	s15, r3	@ int
 1236              	.LBE297:
 1237              	.LBE296:
  70:../libDaisy/src/util/WavWriter.h ****         // Prep the wav header according to config.
 1238              		.loc 6 70 20 view .LVU305
 1239 001c C0F89C16 		str	r1, [r0, #1692]
  73:../libDaisy/src/util/WavWriter.h ****         wavheader_.FileFormat    = kWavFileWaveId;      /** "WAVE" */
 1240              		.loc 6 73 34 view .LVU306
 1241 0020 2249     		ldr	r1, .L93+4
 1242              	.LBB307:
 1243              	.LBB298:
 1244              		.loc 6 192 32 view .LVU307
 1245 0022 F8EEE77A 		vcvt.f32.s32	s15, s15
 1246              	.LBE298:
 1247              	.LBE307:
 1248              	.LBE322:
 1249              	.LBE325:
 239:GrannyChordApp.cpp ****   cfg.samplerate = SAMPLE_RATE;
 1250              		.loc 2 239 41 view .LVU308
 1251 0026 C0F8A836 		str	r3, [r0, #1704]
 1252              	.LBB326:
 1253              	.LBB323:
  73:../libDaisy/src/util/WavWriter.h ****         wavheader_.FileFormat    = kWavFileWaveId;      /** "WAVE" */
 1254              		.loc 6 73 34 view .LVU309
 1255 002a C0F87016 		str	r1, [r0, #1648]
  74:../libDaisy/src/util/WavWriter.h ****         wavheader_.SubChunk1ID   = kWavFileSubChunk1Id; /** "fmt " */
 1256              		.loc 6 74 34 view .LVU310
 1257 002e A1F57001 		sub	r1, r1, #15728640
  78:../libDaisy/src/util/WavWriter.h ****         wavheader_.SampleRate    = static_cast<int>(cfg.samplerate);
 1258              		.loc 6 78 34 view .LVU311
 1259 0032 A0F88636 		strh	r3, [r0, #1670]	@ movhi
  81:../libDaisy/src/util/WavWriter.h ****         wavheader_.BitPerSample  = cfg_.bitspersample;
 1260              		.loc 6 81 71 view .LVU312
 1261 0036 1B01     		lsls	r3, r3, #4
 1262              	.LVL80:
 1263              	.LBB308:
 1264              	.LBB299:
 1265              		.loc 6 192 32 view .LVU313
 1266 0038 67EE877A 		vmul.f32	s15, s15, s14
 1267              	.LBE299:
 1268              	.LBE308:
  74:../libDaisy/src/util/WavWriter.h ****         wavheader_.SubChunk1ID   = kWavFileSubChunk1Id; /** "fmt " */
 1269              		.loc 6 74 34 view .LVU314
 1270 003c A1F2FB71 		subw	r1, r1, #2043
 1271              	.LBB309:
 1272              	.LBB300:
 1273              		.loc 6 192 48 view .LVU315
 1274 0040 B3EE007A 		vmov.f32	s14, #1.6e+1
 1275              	.LBE300:
ARM GAS  /var/folders/2p/02m_5p7958535cp2tpgps0400000gn/T//cco1mNMf.s 			page 39


 1276              	.LBE309:
  81:../libDaisy/src/util/WavWriter.h ****         wavheader_.BitPerSample  = cfg_.bitspersample;
 1277              		.loc 6 81 71 view .LVU316
 1278 0044 48BF     		it	mi
 1279 0046 0733     		addmi	r3, r3, #7
  74:../libDaisy/src/util/WavWriter.h ****         wavheader_.SubChunk1ID   = kWavFileSubChunk1Id; /** "fmt " */
 1280              		.loc 6 74 34 view .LVU317
 1281 0048 C0F87816 		str	r1, [r0, #1656]
  75:../libDaisy/src/util/WavWriter.h ****         wavheader_.SubChunk1Size = 16;                  // for PCM
 1282              		.loc 6 75 34 view .LVU318
 1283 004c 01F15B41 		add	r1, r1, #-620756992
  81:../libDaisy/src/util/WavWriter.h ****         wavheader_.BitPerSample  = cfg_.bitspersample;
 1284              		.loc 6 81 71 view .LVU319
 1285 0050 DB10     		asrs	r3, r3, #3
  69:../libDaisy/src/util/WavWriter.h ****         num_samps_ = 0;
 1286              		.loc 6 69 9 view .LVU320
 1287 0052 C0F8AC26 		str	r2, [r0, #1708]
 1288              	.LBB310:
 1289              	.LBB301:
 1290              		.loc 6 192 48 view .LVU321
 1291 0056 67EE877A 		vmul.f32	s15, s15, s14
 1292              	.LBE301:
 1293              	.LBE310:
  75:../libDaisy/src/util/WavWriter.h ****         wavheader_.SubChunk1Size = 16;                  // for PCM
 1294              		.loc 6 75 34 view .LVU322
 1295 005a 01F5F111 		add	r1, r1, #1974272
 1296              	.LBB311:
 1297              	.LBB302:
 1298              		.loc 6 192 69 view .LVU323
 1299 005e B4EE007A 		vmov.f32	s14, #1.25e-1
 1300              	.LBE302:
 1301              	.LBE311:
  81:../libDaisy/src/util/WavWriter.h ****         wavheader_.BitPerSample  = cfg_.bitspersample;
 1302              		.loc 6 81 34 view .LVU324
 1303 0062 A0F89036 		strh	r3, [r0, #1680]	@ movhi
  75:../libDaisy/src/util/WavWriter.h ****         wavheader_.SubChunk1Size = 16;                  // for PCM
 1304              		.loc 6 75 34 view .LVU325
 1305 0066 01F60F41 		addw	r1, r1, #3087
  83:../libDaisy/src/util/WavWriter.h ****         /** Also calcs SubChunk2Size */
 1306              		.loc 6 83 34 view .LVU326
 1307 006a 114B     		ldr	r3, .L93+8
  76:../libDaisy/src/util/WavWriter.h ****         wavheader_.AudioFormat   = WAVE_FORMAT_PCM;
 1308              		.loc 6 76 34 view .LVU327
 1309 006c C0F88026 		str	r2, [r0, #1664]
 1310              	.LBB312:
 1311              	.LBB303:
 1312              		.loc 6 192 69 view .LVU328
 1313 0070 67EE877A 		vmul.f32	s15, s15, s14
 1314              	.LBE303:
 1315              	.LBE312:
  75:../libDaisy/src/util/WavWriter.h ****         wavheader_.SubChunk1Size = 16;                  // for PCM
 1316              		.loc 6 75 34 view .LVU329
 1317 0074 C0F87C16 		str	r1, [r0, #1660]
  77:../libDaisy/src/util/WavWriter.h ****         wavheader_.NbrChannels   = cfg.channels;
 1318              		.loc 6 77 34 view .LVU330
 1319 0078 0121     		movs	r1, #1
  83:../libDaisy/src/util/WavWriter.h ****         /** Also calcs SubChunk2Size */
ARM GAS  /var/folders/2p/02m_5p7958535cp2tpgps0400000gn/T//cco1mNMf.s 			page 40


 1320              		.loc 6 83 34 view .LVU331
 1321 007a C0F89436 		str	r3, [r0, #1684]
 1322              	.LBB313:
 1323              	.LBB314:
 185:../libDaisy/src/util/WavWriter.h ****         return 36 + wavheader_.SubCHunk2Size;
 1324              		.loc 6 185 13 view .LVU332
 1325 007e 0023     		movs	r3, #0
 1326              	.LBE314:
 1327              	.LBE313:
  82:../libDaisy/src/util/WavWriter.h ****         wavheader_.SubChunk2ID   = kWavFileSubChunk2Id; /** "data" */
 1328              		.loc 6 82 34 view .LVU333
 1329 0080 A0F89226 		strh	r2, [r0, #1682]	@ movhi
 1330              	.LBB316:
 1331              	.LBB304:
 1332              		.loc 6 192 71 view .LVU334
 1333 0084 FCEEE77A 		vcvt.u32.f32	s15, s15
 1334              	.LBE304:
 1335              	.LBE316:
  77:../libDaisy/src/util/WavWriter.h ****         wavheader_.NbrChannels   = cfg.channels;
 1336              		.loc 6 77 34 view .LVU335
 1337 0088 A0F88416 		strh	r1, [r0, #1668]	@ movhi
  79:../libDaisy/src/util/WavWriter.h ****         wavheader_.ByteRate      = CalcByteRate();
 1338              		.loc 6 79 34 view .LVU336
 1339 008c 4BF68031 		movw	r1, #48000
 1340              	.LBB317:
 1341              	.LBB315:
 185:../libDaisy/src/util/WavWriter.h ****         return 36 + wavheader_.SubCHunk2Size;
 1342              		.loc 6 185 13 view .LVU337
 1343 0090 C0F89836 		str	r3, [r0, #1688]
 1344              	.LBE315:
 1345              	.LBE317:
  85:../libDaisy/src/util/WavWriter.h ****         // This is calculated as part of the subchunk size
 1346              		.loc 6 85 29 view .LVU338
 1347 0094 2423     		movs	r3, #36
  79:../libDaisy/src/util/WavWriter.h ****         wavheader_.ByteRate      = CalcByteRate();
 1348              		.loc 6 79 34 view .LVU339
 1349 0096 C0F88816 		str	r1, [r0, #1672]
 1350              	.LVL81:
 1351              	.LBB318:
 1352              	.LBI296:
 190:../libDaisy/src/util/WavWriter.h ****     {
 1353              		.loc 6 190 21 is_stmt 1 view .LVU340
 190:../libDaisy/src/util/WavWriter.h ****     {
 1354              		.loc 6 190 21 is_stmt 0 view .LVU341
 1355              	.LBE318:
 1356              	.LBB319:
 1357              	.LBI313:
 182:../libDaisy/src/util/WavWriter.h ****     {
 1358              		.loc 6 182 21 is_stmt 1 view .LVU342
 182:../libDaisy/src/util/WavWriter.h ****     {
 1359              		.loc 6 182 21 is_stmt 0 view .LVU343
 1360              	.LBE319:
 1361              	.LBB320:
 1362              	.LBB305:
 1363              		.loc 6 192 71 view .LVU344
 1364 009a 17EE901A 		vmov	r1, s15	@ int
 1365              	.LBE305:
ARM GAS  /var/folders/2p/02m_5p7958535cp2tpgps0400000gn/T//cco1mNMf.s 			page 41


 1366              	.LBE320:
  85:../libDaisy/src/util/WavWriter.h ****         // This is calculated as part of the subchunk size
 1367              		.loc 6 85 29 view .LVU345
 1368 009e C0F87436 		str	r3, [r0, #1652]
 1369              	.LVL82:
 1370              	.LBB321:
 1371              	.LBB306:
 1372              		.loc 6 192 71 view .LVU346
 1373 00a2 C0F88C16 		str	r1, [r0, #1676]
 1374              	.LBE306:
 1375              	.LBE321:
 1376              	.LBE323:
 1377              	.LBE326:
 242:GrannyChordApp.cpp **** }
 1378              		.loc 2 242 1 view .LVU347
 1379 00a6 7047     		bx	lr
 1380              	.L94:
 1381              		.align	2
 1382              	.L93:
 1383 00a8 00803B47 		.word	1195081728
 1384 00ac 52494646 		.word	1179011410
 1385 00b0 64617461 		.word	1635017060
 1386              		.cfi_endproc
 1387              	.LFE4807:
 1389              		.section	.text._ZN14GrannyChordApp6InitFXEv,"ax",%progbits
 1390              		.align	1
 1391              		.global	_ZN14GrannyChordApp6InitFXEv
 1392              		.syntax unified
 1393              		.thumb
 1394              		.thumb_func
 1396              	_ZN14GrannyChordApp6InitFXEv:
 1397              	.LVL83:
 1398              	.LFB4808:
 243:GrannyChordApp.cpp **** 
 244:GrannyChordApp.cpp **** 
 245:GrannyChordApp.cpp **** /// @brief initialise reverb, compressor, filter configs for FX section 
 246:GrannyChordApp.cpp **** void GrannyChordApp::InitFX(){
 1399              		.loc 2 246 30 is_stmt 1 view -0
 1400              		.cfi_startproc
 1401              		@ args = 0, pretend = 0, frame = 8
 1402              		@ frame_needed = 0, uses_anonymous_args = 0
 247:GrannyChordApp.cpp ****   comp_.Init(pod_.AudioSampleRate());
 1403              		.loc 2 247 3 view .LVU349
 246:GrannyChordApp.cpp ****   comp_.Init(pod_.AudioSampleRate());
 1404              		.loc 2 246 30 is_stmt 0 view .LVU350
 1405 0000 37B5     		push	{r0, r1, r2, r4, r5, lr}
 1406              		.cfi_def_cfa_offset 24
 1407              		.cfi_offset 4, -12
 1408              		.cfi_offset 5, -8
 1409              		.cfi_offset 14, -4
 246:GrannyChordApp.cpp ****   comp_.Init(pod_.AudioSampleRate());
 1410              		.loc 2 246 30 view .LVU351
 1411 0002 0446     		mov	r4, r0
 1412              		.loc 2 247 13 view .LVU352
 1413 0004 0068     		ldr	r0, [r0]
 1414              	.LVL84:
 1415              		.loc 2 247 13 view .LVU353
ARM GAS  /var/folders/2p/02m_5p7958535cp2tpgps0400000gn/T//cco1mNMf.s 			page 42


 1416 0006 FFF7FEFF 		bl	_ZN5daisy8DaisyPod15AudioSampleRateEv
 1417              	.LVL85:
 1418 000a 04F5B160 		add	r0, r4, #1416
 248:GrannyChordApp.cpp ****   reverb_->Init(SAMPLE_RATE_FLOAT);
 249:GrannyChordApp.cpp ****   lowpass_moog_.Init(SAMPLE_RATE_FLOAT);
 1419              		.loc 2 249 21 view .LVU354
 1420 000e 04F2CC55 		addw	r5, r4, #1484
 247:GrannyChordApp.cpp ****   reverb_->Init(SAMPLE_RATE_FLOAT);
 1421              		.loc 2 247 13 view .LVU355
 1422 0012 FFF7FEFF 		bl	_ZN7daisysp10Compressor4InitEf
 1423              	.LVL86:
 248:GrannyChordApp.cpp ****   reverb_->Init(SAMPLE_RATE_FLOAT);
 1424              		.loc 2 248 3 is_stmt 1 view .LVU356
 248:GrannyChordApp.cpp ****   reverb_->Init(SAMPLE_RATE_FLOAT);
 1425              		.loc 2 248 16 is_stmt 0 view .LVU357
 1426 0016 9FED0F0A 		vldr.32	s0, .L96
 1427 001a D4F8C805 		ldr	r0, [r4, #1480]
 1428 001e 8DED010A 		vstr.32	s0, [sp, #4]	@ int
 1429 0022 FFF7FEFF 		bl	_ZN7daisysp8ReverbSc4InitEf
 1430              	.LVL87:
 1431              		.loc 2 249 3 is_stmt 1 view .LVU358
 1432              		.loc 2 249 21 is_stmt 0 view .LVU359
 1433 0026 9DED010A 		vldr.32	s0, [sp, #4]	@ int
 1434 002a 2846     		mov	r0, r5
 1435 002c FFF7FEFF 		bl	_ZN7daisysp10MoogLadder4InitEf
 1436              	.LVL88:
 250:GrannyChordApp.cpp ****   lowpass_moog_.SetFreq(20000.0f);
 1437              		.loc 2 250 3 is_stmt 1 view .LVU360
 1438              	.LBB338:
 1439              	.LBI338:
 1440              		.file 7 "DaisySP-LGPL-FX/moogladder.h"
   1:DaisySP-LGPL-FX/moogladder.h **** /*
   2:DaisySP-LGPL-FX/moogladder.h **** Copyright (c) 2023 Electrosmith, Corp, Victor Lazzarini, John ffitch (fast tanh), Bob Moog
   3:DaisySP-LGPL-FX/moogladder.h **** 
   4:DaisySP-LGPL-FX/moogladder.h **** Use of this source code is governed by the LGPL V2.1
   5:DaisySP-LGPL-FX/moogladder.h **** license that can be found in the LICENSE file or at
   6:DaisySP-LGPL-FX/moogladder.h **** https://opensource.org/license/lgpl-2-1/
   7:DaisySP-LGPL-FX/moogladder.h **** */
   8:DaisySP-LGPL-FX/moogladder.h **** 
   9:DaisySP-LGPL-FX/moogladder.h **** #pragma once
  10:DaisySP-LGPL-FX/moogladder.h **** #ifndef DSY_MOOGLADDER_H
  11:DaisySP-LGPL-FX/moogladder.h **** #define DSY_MOOGLADDER_H
  12:DaisySP-LGPL-FX/moogladder.h **** 
  13:DaisySP-LGPL-FX/moogladder.h **** #include <stdint.h>
  14:DaisySP-LGPL-FX/moogladder.h **** #ifdef __cplusplus
  15:DaisySP-LGPL-FX/moogladder.h **** 
  16:DaisySP-LGPL-FX/moogladder.h **** namespace daisysp
  17:DaisySP-LGPL-FX/moogladder.h **** {
  18:DaisySP-LGPL-FX/moogladder.h **** /** Moog ladder filter module*/
  19:DaisySP-LGPL-FX/moogladder.h **** class MoogLadder
  20:DaisySP-LGPL-FX/moogladder.h **** {
  21:DaisySP-LGPL-FX/moogladder.h ****   public:
  22:DaisySP-LGPL-FX/moogladder.h ****     MoogLadder() {}
  23:DaisySP-LGPL-FX/moogladder.h ****     ~MoogLadder() {}
  24:DaisySP-LGPL-FX/moogladder.h ****     /** Initializes the MoogLadder module.
  25:DaisySP-LGPL-FX/moogladder.h ****         sample_rate - The sample rate of the audio engine being run. 
  26:DaisySP-LGPL-FX/moogladder.h ****     */
ARM GAS  /var/folders/2p/02m_5p7958535cp2tpgps0400000gn/T//cco1mNMf.s 			page 43


  27:DaisySP-LGPL-FX/moogladder.h ****     void Init(float sample_rate);
  28:DaisySP-LGPL-FX/moogladder.h **** 
  29:DaisySP-LGPL-FX/moogladder.h **** 
  30:DaisySP-LGPL-FX/moogladder.h ****     /** Processes the lowpass filter
  31:DaisySP-LGPL-FX/moogladder.h ****     */
  32:DaisySP-LGPL-FX/moogladder.h ****     float Process(float in);
  33:DaisySP-LGPL-FX/moogladder.h **** 
  34:DaisySP-LGPL-FX/moogladder.h ****     /** 
  35:DaisySP-LGPL-FX/moogladder.h ****         Sets the cutoff frequency or half-way point of the filter.
  36:DaisySP-LGPL-FX/moogladder.h ****         Arguments
  37:DaisySP-LGPL-FX/moogladder.h ****         - freq - frequency value in Hz. Range: Any positive value.
  38:DaisySP-LGPL-FX/moogladder.h ****     */
  39:DaisySP-LGPL-FX/moogladder.h ****     inline void SetFreq(float freq) { freq_ = freq; }
 1441              		.loc 7 39 17 view .LVU361
 1442              	.LBB339:
 1443              		.loc 7 39 39 view .LVU362
 1444              		.loc 7 39 45 is_stmt 0 view .LVU363
 1445 0030 094B     		ldr	r3, .L96+4
 1446              	.LBE339:
 1447              	.LBE338:
 1448              	.LBB341:
 1449              	.LBB342:
 1450              	.LBB343:
 1451              		.file 8 "../DaisySP/Source/Filters/onepole.h"
   1:../DaisySP/Source/Filters/onepole.h **** /*
   2:../DaisySP/Source/Filters/onepole.h **** Copyright (c) 2020 Electrosmith, Corp, Emilie Gillet
   3:../DaisySP/Source/Filters/onepole.h **** 
   4:../DaisySP/Source/Filters/onepole.h **** Use of this source code is governed by an MIT-style
   5:../DaisySP/Source/Filters/onepole.h **** license that can be found in the LICENSE file or at
   6:../DaisySP/Source/Filters/onepole.h **** https://opensource.org/licenses/MIT.
   7:../DaisySP/Source/Filters/onepole.h **** */
   8:../DaisySP/Source/Filters/onepole.h **** 
   9:../DaisySP/Source/Filters/onepole.h **** #ifndef DSY_ONEPOLE_H
  10:../DaisySP/Source/Filters/onepole.h **** #define DSY_ONEPOLE_H
  11:../DaisySP/Source/Filters/onepole.h **** 
  12:../DaisySP/Source/Filters/onepole.h **** #include "Utility/dsp.h"
  13:../DaisySP/Source/Filters/onepole.h **** #include <cmath>
  14:../DaisySP/Source/Filters/onepole.h **** #include <algorithm>
  15:../DaisySP/Source/Filters/onepole.h **** 
  16:../DaisySP/Source/Filters/onepole.h **** namespace daisysp
  17:../DaisySP/Source/Filters/onepole.h **** {
  18:../DaisySP/Source/Filters/onepole.h **** /**         
  19:../DaisySP/Source/Filters/onepole.h ****     @brief One Pole Lowpass / Highpass Filter
  20:../DaisySP/Source/Filters/onepole.h ****     @author beserge
  21:../DaisySP/Source/Filters/onepole.h ****     @date Dec 2023 
  22:../DaisySP/Source/Filters/onepole.h ****     Ported from pichenettes/stmlib/dsp/filter.h \n 
  23:../DaisySP/Source/Filters/onepole.h ****     \n to an independent module. \n
  24:../DaisySP/Source/Filters/onepole.h ****     Original code written by Emilie Gillet. \n
  25:../DaisySP/Source/Filters/onepole.h **** */
  26:../DaisySP/Source/Filters/onepole.h **** class OnePole
  27:../DaisySP/Source/Filters/onepole.h **** {
  28:../DaisySP/Source/Filters/onepole.h ****   public:
  29:../DaisySP/Source/Filters/onepole.h ****     OnePole() {}
  30:../DaisySP/Source/Filters/onepole.h ****     ~OnePole() {}
  31:../DaisySP/Source/Filters/onepole.h **** 
  32:../DaisySP/Source/Filters/onepole.h ****     /**
  33:../DaisySP/Source/Filters/onepole.h ****      * @brief Operational modes of the filter
ARM GAS  /var/folders/2p/02m_5p7958535cp2tpgps0400000gn/T//cco1mNMf.s 			page 44


  34:../DaisySP/Source/Filters/onepole.h ****      * - LOW_PASS = cuts out high frequency sound, lets low frequency sound pass through
  35:../DaisySP/Source/Filters/onepole.h ****      * - HIGH_PASS = cuts out low frequency sound, lets high frequency sound pass through
  36:../DaisySP/Source/Filters/onepole.h ****      */
  37:../DaisySP/Source/Filters/onepole.h ****     enum FilterMode
  38:../DaisySP/Source/Filters/onepole.h ****     {
  39:../DaisySP/Source/Filters/onepole.h ****         FILTER_MODE_LOW_PASS,
  40:../DaisySP/Source/Filters/onepole.h ****         FILTER_MODE_HIGH_PASS
  41:../DaisySP/Source/Filters/onepole.h ****     };
  42:../DaisySP/Source/Filters/onepole.h **** 
  43:../DaisySP/Source/Filters/onepole.h ****     /** Initializes the module */
  44:../DaisySP/Source/Filters/onepole.h ****     void Init()
  45:../DaisySP/Source/Filters/onepole.h ****     {
  46:../DaisySP/Source/Filters/onepole.h ****         Reset();
  47:../DaisySP/Source/Filters/onepole.h ****         mode_ = FILTER_MODE_LOW_PASS;
  48:../DaisySP/Source/Filters/onepole.h ****     }
  49:../DaisySP/Source/Filters/onepole.h **** 
  50:../DaisySP/Source/Filters/onepole.h ****     /** Reset the module to its default state */
  51:../DaisySP/Source/Filters/onepole.h ****     inline void Reset() { state_ = 0.0f; }
 1452              		.loc 8 51 34 view .LVU364
 1453 0032 0022     		movs	r2, #0
 1454              	.LBE343:
 1455              	.LBE342:
 1456              	.LBE341:
 1457              	.LBB346:
 1458              	.LBB347:
  52:../DaisySP/Source/Filters/onepole.h **** 
  53:../DaisySP/Source/Filters/onepole.h ****     /** Set the filter cutoff frequency
  54:../DaisySP/Source/Filters/onepole.h ****     *   \param freq Cutoff frequency. Valid range from 0 to .497f
  55:../DaisySP/Source/Filters/onepole.h ****     */
  56:../DaisySP/Source/Filters/onepole.h ****     inline void SetFrequency(float freq)
  57:../DaisySP/Source/Filters/onepole.h ****     {
  58:../DaisySP/Source/Filters/onepole.h ****         // Clip coefficient to about 100.
  59:../DaisySP/Source/Filters/onepole.h ****         freq = freq < 0.497f ? freq : 0.497f;
  60:../DaisySP/Source/Filters/onepole.h **** 
  61:../DaisySP/Source/Filters/onepole.h ****         g_  = tanf(PI_F * freq);
  62:../DaisySP/Source/Filters/onepole.h ****         gi_ = 1.f / (1.f + g_);
  63:../DaisySP/Source/Filters/onepole.h ****     }
  64:../DaisySP/Source/Filters/onepole.h **** 
  65:../DaisySP/Source/Filters/onepole.h ****     /** Set the filter mode
  66:../DaisySP/Source/Filters/onepole.h ****     *   \param mode Filter mode. Can be lowpass or highpass
  67:../DaisySP/Source/Filters/onepole.h ****     */
  68:../DaisySP/Source/Filters/onepole.h ****     inline void SetFilterMode(FilterMode mode) { mode_ = mode; }
 1459              		.loc 8 68 56 view .LVU365
 1460 0034 0121     		movs	r1, #1
 1461              	.LBE347:
 1462              	.LBE346:
 1463              	.LBB349:
 1464              	.LBB340:
 1465              		.loc 7 39 45 view .LVU366
 1466 0036 AB60     		str	r3, [r5, #8]	@ float
 1467              	.LVL89:
 1468              		.loc 7 39 45 view .LVU367
 1469              	.LBE340:
 1470              	.LBE349:
 251:GrannyChordApp.cpp ****   lowpass_moog_.SetRes(0.7f);
 1471              		.loc 2 251 3 is_stmt 1 view .LVU368
 1472              	.LBB350:
ARM GAS  /var/folders/2p/02m_5p7958535cp2tpgps0400000gn/T//cco1mNMf.s 			page 45


 1473              	.LBI350:
  40:DaisySP-LGPL-FX/moogladder.h ****     /** 
  41:DaisySP-LGPL-FX/moogladder.h ****         Sets the resonance of the filter.
  42:DaisySP-LGPL-FX/moogladder.h ****     */
  43:DaisySP-LGPL-FX/moogladder.h ****     inline void SetRes(float res) { res_ = res; }
 1474              		.loc 7 43 17 view .LVU369
 1475              	.LBB351:
 1476              		.loc 7 43 37 view .LVU370
 1477              		.loc 7 43 42 is_stmt 0 view .LVU371
 1478 0038 084B     		ldr	r3, .L96+8
 1479 003a 6B60     		str	r3, [r5, #4]	@ float
 1480              	.LVL90:
 1481              		.loc 7 43 42 view .LVU372
 1482              	.LBE351:
 1483              	.LBE350:
 252:GrannyChordApp.cpp ****   hipass_.Init();
 1484              		.loc 2 252 3 is_stmt 1 view .LVU373
 1485              	.LBB352:
 1486              	.LBI341:
  44:../DaisySP/Source/Filters/onepole.h ****     {
 1487              		.loc 8 44 10 view .LVU374
 1488              	.LBE352:
  46:../DaisySP/Source/Filters/onepole.h ****         mode_ = FILTER_MODE_LOW_PASS;
 1489              		.loc 8 46 9 view .LVU375
 1490              	.LBB353:
 1491              	.LBB345:
 1492              	.LBI342:
  51:../DaisySP/Source/Filters/onepole.h **** 
 1493              		.loc 8 51 17 view .LVU376
 1494              	.LBB344:
  51:../DaisySP/Source/Filters/onepole.h **** 
 1495              		.loc 8 51 27 view .LVU377
  51:../DaisySP/Source/Filters/onepole.h **** 
 1496              		.loc 8 51 34 is_stmt 0 view .LVU378
 1497 003c 04F5C263 		add	r3, r4, #1552
 1498              	.LVL91:
  51:../DaisySP/Source/Filters/onepole.h **** 
 1499              		.loc 8 51 34 view .LVU379
 1500 0040 9A60     		str	r2, [r3, #8]	@ float
 1501              	.LVL92:
  51:../DaisySP/Source/Filters/onepole.h **** 
 1502              		.loc 8 51 34 view .LVU380
 1503              	.LBE344:
 1504              	.LBE345:
 1505              	.LBE353:
  47:../DaisySP/Source/Filters/onepole.h ****     }
 1506              		.loc 8 47 9 is_stmt 1 view .LVU381
 253:GrannyChordApp.cpp ****   hipass_.SetFilterMode(daisysp::OnePole::FilterMode::FILTER_MODE_HIGH_PASS);
 1507              		.loc 2 253 3 view .LVU382
 1508              	.LBB354:
 1509              	.LBI346:
 1510              		.loc 8 68 17 view .LVU383
 1511              	.LBB348:
 1512              		.loc 8 68 50 view .LVU384
 1513              		.loc 8 68 56 is_stmt 0 view .LVU385
 1514 0042 84F81C16 		strb	r1, [r4, #1564]
 1515              	.LVL93:
ARM GAS  /var/folders/2p/02m_5p7958535cp2tpgps0400000gn/T//cco1mNMf.s 			page 46


 1516              		.loc 8 68 56 view .LVU386
 1517              	.LBE348:
 1518              	.LBE354:
 254:GrannyChordApp.cpp ****   hipass_.SetFrequency(0.0f); // NOTE: CHECK THIS
 1519              		.loc 2 254 3 is_stmt 1 view .LVU387
 1520              	.LBB355:
 1521              	.LBI355:
  56:../DaisySP/Source/Filters/onepole.h ****     {
 1522              		.loc 8 56 17 view .LVU388
 1523              	.LBB356:
  59:../DaisySP/Source/Filters/onepole.h **** 
 1524              		.loc 8 59 9 view .LVU389
  61:../DaisySP/Source/Filters/onepole.h ****         gi_ = 1.f / (1.f + g_);
 1525              		.loc 8 61 9 view .LVU390
  61:../DaisySP/Source/Filters/onepole.h ****         gi_ = 1.f / (1.f + g_);
 1526              		.loc 8 61 13 is_stmt 0 view .LVU391
 1527 0046 1A60     		str	r2, [r3]	@ float
  62:../DaisySP/Source/Filters/onepole.h ****     }
 1528              		.loc 8 62 9 is_stmt 1 view .LVU392
  62:../DaisySP/Source/Filters/onepole.h ****     }
 1529              		.loc 8 62 13 is_stmt 0 view .LVU393
 1530 0048 4FF07E52 		mov	r2, #1065353216
 1531 004c 5A60     		str	r2, [r3, #4]	@ float
 1532              	.LVL94:
  62:../DaisySP/Source/Filters/onepole.h ****     }
 1533              		.loc 8 62 13 view .LVU394
 1534              	.LBE356:
 1535              	.LBE355:
 255:GrannyChordApp.cpp **** }
 1536              		.loc 2 255 1 view .LVU395
 1537 004e 03B0     		add	sp, sp, #12
 1538              		.cfi_def_cfa_offset 12
 1539              		@ sp needed
 1540 0050 30BD     		pop	{r4, r5, pc}
 1541              	.LVL95:
 1542              	.L97:
 1543              		.loc 2 255 1 view .LVU396
 1544 0052 00BF     		.align	2
 1545              	.L96:
 1546 0054 00803B47 		.word	1195081728
 1547 0058 00409C46 		.word	1184645120
 1548 005c 3333333F 		.word	1060320051
 1549              		.cfi_endproc
 1550              	.LFE4808:
 1552              		.section	.rodata._ZN14GrannyChordApp4InitEPsS0_PN7daisysp8ReverbScE.str1.1,"aMS",%progbits,1
 1553              	.LC5:
 1554 0000 46696C65 		.ascii	"File manager failed to init - can't read SD card\000"
 1554      206D616E 
 1554      61676572 
 1554      20666169 
 1554      6C656420 
 1555              		.section	.text._ZN14GrannyChordApp4InitEPsS0_PN7daisysp8ReverbScE,"ax",%progbits
 1556              		.align	1
 1557              		.global	_ZN14GrannyChordApp4InitEPsS0_PN7daisysp8ReverbScE
 1558              		.syntax unified
 1559              		.thumb
 1560              		.thumb_func
ARM GAS  /var/folders/2p/02m_5p7958535cp2tpgps0400000gn/T//cco1mNMf.s 			page 47


 1562              	_ZN14GrannyChordApp4InitEPsS0_PN7daisysp8ReverbScE:
 1563              	.LVL96:
 1564              	.LFB4787:
   9:GrannyChordApp.cpp ****   left_buf_ = left;
 1565              		.loc 2 9 75 is_stmt 1 view -0
 1566              		.cfi_startproc
 1567              		@ args = 0, pretend = 0, frame = 0
 1568              		@ frame_needed = 0, uses_anonymous_args = 0
  10:GrannyChordApp.cpp ****   right_buf_ = right;
 1569              		.loc 2 10 3 view .LVU398
   9:GrannyChordApp.cpp ****   left_buf_ = left;
 1570              		.loc 2 9 75 is_stmt 0 view .LVU399
 1571 0000 10B5     		push	{r4, lr}
 1572              		.cfi_def_cfa_offset 8
 1573              		.cfi_offset 4, -8
 1574              		.cfi_offset 14, -4
   9:GrannyChordApp.cpp ****   left_buf_ = left;
 1575              		.loc 2 9 75 view .LVU400
 1576 0002 0446     		mov	r4, r0
  10:GrannyChordApp.cpp ****   right_buf_ = right;
 1577              		.loc 2 10 13 view .LVU401
 1578 0004 C0F82016 		str	r1, [r0, #1568]
  11:GrannyChordApp.cpp ****   reverb_ = reverb;
 1579              		.loc 2 11 3 is_stmt 1 view .LVU402
  11:GrannyChordApp.cpp ****   reverb_ = reverb;
 1580              		.loc 2 11 14 is_stmt 0 view .LVU403
 1581 0008 C0F82426 		str	r2, [r0, #1572]
  12:GrannyChordApp.cpp ****   pod_.SetAudioBlockSize(4);
 1582              		.loc 2 12 3 is_stmt 1 view .LVU404
  13:GrannyChordApp.cpp ****   pod_.SetAudioSampleRate(SaiHandle::Config::SampleRate::SAI_48KHZ);
 1583              		.loc 2 13 25 is_stmt 0 view .LVU405
 1584 000c 0421     		movs	r1, #4
 1585              	.LVL97:
  12:GrannyChordApp.cpp ****   pod_.SetAudioBlockSize(4);
 1586              		.loc 2 12 11 view .LVU406
 1587 000e C0F8C835 		str	r3, [r0, #1480]
  13:GrannyChordApp.cpp ****   pod_.SetAudioSampleRate(SaiHandle::Config::SampleRate::SAI_48KHZ);
 1588              		.loc 2 13 3 is_stmt 1 view .LVU407
  13:GrannyChordApp.cpp ****   pod_.SetAudioSampleRate(SaiHandle::Config::SampleRate::SAI_48KHZ);
 1589              		.loc 2 13 25 is_stmt 0 view .LVU408
 1590 0012 0068     		ldr	r0, [r0]
 1591              	.LVL98:
  13:GrannyChordApp.cpp ****   pod_.SetAudioSampleRate(SaiHandle::Config::SampleRate::SAI_48KHZ);
 1592              		.loc 2 13 25 view .LVU409
 1593 0014 FFF7FEFF 		bl	_ZN5daisy8DaisyPod17SetAudioBlockSizeEj
 1594              	.LVL99:
  14:GrannyChordApp.cpp ****   if (!InitFileMgr()){
 1595              		.loc 2 14 3 is_stmt 1 view .LVU410
  14:GrannyChordApp.cpp ****   if (!InitFileMgr()){
 1596              		.loc 2 14 26 is_stmt 0 view .LVU411
 1597 0018 2068     		ldr	r0, [r4]
 1598 001a 0321     		movs	r1, #3
 1599 001c FFF7FEFF 		bl	_ZN5daisy8DaisyPod18SetAudioSampleRateENS_9SaiHandle6Config10SampleRateE
 1600              	.LVL100:
  15:GrannyChordApp.cpp ****     DebugPrint(pod_,"File manager failed to init - can't read SD card");
 1601              		.loc 2 15 3 is_stmt 1 view .LVU412
  15:GrannyChordApp.cpp ****     DebugPrint(pod_,"File manager failed to init - can't read SD card");
ARM GAS  /var/folders/2p/02m_5p7958535cp2tpgps0400000gn/T//cco1mNMf.s 			page 48


 1602              		.loc 2 15 19 is_stmt 0 view .LVU413
 1603 0020 2046     		mov	r0, r4
 1604 0022 FFF7FEFF 		bl	_ZN14GrannyChordApp11InitFileMgrEv
 1605              	.LVL101:
  15:GrannyChordApp.cpp ****     DebugPrint(pod_,"File manager failed to init - can't read SD card");
 1606              		.loc 2 15 3 view .LVU414
 1607 0026 40B9     		cbnz	r0, .L99
  16:GrannyChordApp.cpp ****     pod_.led1.SetRed(1);
 1608              		.loc 2 16 5 is_stmt 1 view .LVU415
  16:GrannyChordApp.cpp ****     pod_.led1.SetRed(1);
 1609              		.loc 2 16 5 view .LVU416
 1610              	.LVL102:
 1611              	.LBB361:
 1612              	.LBI361:
 126:../libDaisy/src/daisy_seed.h ****     {
 1613              		.loc 4 126 17 view .LVU417
 1614              	.LBB362:
 1615              		.loc 4 128 23 is_stmt 0 view .LVU418
 1616 0028 0C48     		ldr	r0, .L100
 1617 002a FFF7FEFF 		bl	_ZN5daisy6LoggerILNS_17LoggerDestinationE1EE9PrintLineEPKcz
 1618              	.LVL103:
 1619              		.loc 4 128 23 view .LVU419
 1620              	.LBE362:
 1621              	.LBE361:
  17:GrannyChordApp.cpp ****   }
 1622              		.loc 2 17 5 is_stmt 1 view .LVU420
  17:GrannyChordApp.cpp ****   }
 1623              		.loc 2 17 21 is_stmt 0 view .LVU421
 1624 002e 2068     		ldr	r0, [r4]
 1625 0030 B7EE000A 		vmov.f32	s0, #1.0e+0
 1626 0034 D830     		adds	r0, r0, #216
 1627 0036 FFF7FEFF 		bl	_ZN5daisy6RgbLed6SetRedEf
 1628              	.LVL104:
 1629              	.L99:
  20:GrannyChordApp.cpp ****   // InitPrevParamVals();
 1630              		.loc 2 20 3 is_stmt 1 view .LVU422
  20:GrannyChordApp.cpp ****   // InitPrevParamVals();
 1631              		.loc 2 20 9 is_stmt 0 view .LVU423
 1632 003a 2046     		mov	r0, r4
 1633 003c FFF7FEFF 		bl	_ZN14GrannyChordApp6InitFXEv
 1634              	.LVL105:
  22:GrannyChordApp.cpp ****   
 1635              		.loc 2 22 3 is_stmt 1 view .LVU424
 1636              	.LBB363:
 1637              	.LBI363:
 1638              		.file 9 "constants_utils.h"
   1:constants_utils.h **** #pragma once
   2:constants_utils.h **** #include "stddef.h"
   3:constants_utils.h **** #include <time.h>
   4:constants_utils.h **** 
   5:constants_utils.h **** constexpr int SAMPLE_RATE = 48000;
   6:constants_utils.h **** constexpr float SAMPLE_RATE_FLOAT = 48000.f;
   7:constants_utils.h **** 
   8:constants_utils.h **** constexpr uint16_t MAX_FILES = 32;                      
   9:constants_utils.h **** constexpr uint16_t MAX_FNAME_LEN = 64;
  10:constants_utils.h **** 
  11:constants_utils.h **** /* 16mb - max size of one stereo channel to be loaded into buffers */
ARM GAS  /var/folders/2p/02m_5p7958535cp2tpgps0400000gn/T//cco1mNMf.s 			page 49


  12:constants_utils.h **** constexpr size_t CHNL_BUF_SIZE_ABS = 16*1024*1024;
  13:constants_utils.h **** /* above is absolute size - each sample needs an int16 (2 bytes) so we do (abs_size)/2 */
  14:constants_utils.h **** constexpr size_t CHNL_BUF_SIZE_SAMPS = 8*1024*1024;
  15:constants_utils.h **** 
  16:constants_utils.h **** /* this is 60s @ 48kHz * 2 channels 
  17:constants_utils.h **** nb: we can return out into one channel by interleaving the channels */
  18:constants_utils.h **** constexpr size_t RECORD_OUT_BUF_SIZE_SAMPS = 60*48000*2;
  19:constants_utils.h **** /* we need 2 bytes for each sample so we do (buf_samps_size)*2 */
  20:constants_utils.h **** constexpr size_t RECORD_OUT_BUF_SIZE_ABS = 60*48000*2*2;
  21:constants_utils.h **** 
  22:constants_utils.h **** constexpr int BIT_DEPTH = 16;
  23:constants_utils.h **** /* min/max number of concurrent active grains */
  24:constants_utils.h **** constexpr int MIN_GRAINS = 1;
  25:constants_utils.h **** constexpr int MAX_GRAINS = 20;
  26:constants_utils.h **** 
  27:constants_utils.h **** constexpr float MIN_GRAIN_SIZE_MS = 100.0f; /* 100ms */
  28:constants_utils.h **** constexpr float MAX_GRAIN_SIZE_MS = 3000.0f; /* 3s */
  29:constants_utils.h **** constexpr float MIN_PITCH = 0.5f;
  30:constants_utils.h **** constexpr float MAX_PITCH = 3.0f;
  31:constants_utils.h **** 
  32:constants_utils.h **** /* integer clamp as can't use std::clamp */
  33:constants_utils.h **** inline constexpr size_t intclamp(size_t val, size_t min, size_t max){
  34:constants_utils.h ****   if (val < min) val = min;
  35:constants_utils.h ****   else if (val > max) val = max;
  36:constants_utils.h ****   return val;
  37:constants_utils.h **** }
  38:constants_utils.h **** 
  39:constants_utils.h **** /* converts milliseconds to number of samples */
  40:constants_utils.h **** inline constexpr size_t MsToSamples(float ms){
  41:constants_utils.h ****   return static_cast<size_t>(SAMPLE_RATE_FLOAT * (ms*0.001f));
  42:constants_utils.h **** }
  43:constants_utils.h **** 
  44:constants_utils.h **** /* converts number of samples to milliseconds */
  45:constants_utils.h **** inline constexpr float SamplesToMs(size_t samples){
  46:constants_utils.h ****   return (static_cast<float>(samples) * 1000.0f) / SAMPLE_RATE_FLOAT; 
  47:constants_utils.h **** }
  48:constants_utils.h **** 
  49:constants_utils.h **** static constexpr int NUM_ENV_TYPES = 4;
  50:constants_utils.h **** static constexpr int NUM_PHASOR_MODES = 4;
  51:constants_utils.h **** static constexpr int NUM_SYNTH_MODES = 7;
  52:constants_utils.h **** constexpr float PARAM_CHANGE_THRESHOLD = 0.01f;
  53:constants_utils.h **** 
  54:constants_utils.h **** extern uint32_t rng_state;
  55:constants_utils.h **** 
  56:constants_utils.h **** inline void SeedRng(){
 1639              		.loc 9 56 13 view .LVU425
 1640              	.LBB364:
  57:constants_utils.h ****   rng_state = static_cast<uint32_t>(time(nullptr));
 1641              		.loc 9 57 3 view .LVU426
 1642              		.loc 9 57 41 is_stmt 0 view .LVU427
 1643 0040 0020     		movs	r0, #0
 1644 0042 FFF7FEFF 		bl	time
 1645              	.LVL106:
 1646              		.loc 9 57 13 view .LVU428
 1647 0046 064B     		ldr	r3, .L100+4
 1648 0048 1860     		str	r0, [r3]
 1649              	.LBE364:
ARM GAS  /var/folders/2p/02m_5p7958535cp2tpgps0400000gn/T//cco1mNMf.s 			page 50


 1650              	.LBE363:
  24:GrannyChordApp.cpp ****   pod_.StartAudio(AudioCallback);
 1651              		.loc 2 24 3 is_stmt 1 view .LVU429
  24:GrannyChordApp.cpp ****   pod_.StartAudio(AudioCallback);
 1652              		.loc 2 24 16 is_stmt 0 view .LVU430
 1653 004a 2068     		ldr	r0, [r4]
 1654 004c FFF7FEFF 		bl	_ZN5daisy8DaisyPod8StartAdcEv
 1655              	.LVL107:
  25:GrannyChordApp.cpp **** }
 1656              		.loc 2 25 3 is_stmt 1 view .LVU431
  25:GrannyChordApp.cpp **** }
 1657              		.loc 2 25 18 is_stmt 0 view .LVU432
 1658 0050 2068     		ldr	r0, [r4]
 1659 0052 0449     		ldr	r1, .L100+8
  26:GrannyChordApp.cpp **** 
 1660              		.loc 2 26 1 view .LVU433
 1661 0054 BDE81040 		pop	{r4, lr}
 1662              		.cfi_restore 14
 1663              		.cfi_restore 4
 1664              		.cfi_def_cfa_offset 0
 1665              	.LVL108:
  25:GrannyChordApp.cpp **** }
 1666              		.loc 2 25 18 view .LVU434
 1667 0058 FFF7FEBF 		b	_ZN5daisy8DaisyPod10StartAudioEPFvPKPKfPPfjE
 1668              	.LVL109:
 1669              	.L101:
 1670              		.align	2
 1671              	.L100:
 1672 005c 00000000 		.word	.LC5
 1673 0060 00000000 		.word	rng_state
 1674 0064 00000000 		.word	_ZN14GrannyChordApp13AudioCallbackEPKPKfPPfj
 1675              		.cfi_endproc
 1676              	.LFE4787:
 1678              		.section	.text._ZN14GrannyChordApp17InitPrevParamValsEv,"ax",%progbits
 1679              		.align	1
 1680              		.global	_ZN14GrannyChordApp17InitPrevParamValsEv
 1681              		.syntax unified
 1682              		.thumb
 1683              		.thumb_func
 1685              	_ZN14GrannyChordApp17InitPrevParamValsEv:
 1686              	.LVL110:
 1687              	.LFB4809:
 256:GrannyChordApp.cpp **** 
 257:GrannyChordApp.cpp **** /// @brief Initialise previous parameter value arrays to defaults
 258:GrannyChordApp.cpp **** void GrannyChordApp::InitPrevParamVals(){
 1688              		.loc 2 258 41 is_stmt 1 view -0
 1689              		.cfi_startproc
 1690              		@ args = 0, pretend = 0, frame = 0
 1691              		@ frame_needed = 0, uses_anonymous_args = 0
 1692              		@ link register save eliminated.
 259:GrannyChordApp.cpp ****       for (int i=0; i < NUM_SYNTH_MODES;i++){
 1693              		.loc 2 259 7 view .LVU436
 1694              	.LBB365:
 1695              		.loc 2 259 23 view .LVU437
 1696 0000 00F23463 		addw	r3, r0, #1588
 1697 0004 00F5CA60 		add	r0, r0, #1616
 1698              	.LVL111:
ARM GAS  /var/folders/2p/02m_5p7958535cp2tpgps0400000gn/T//cco1mNMf.s 			page 51


 1699              	.L103:
 260:GrannyChordApp.cpp ****         prev_param_vals_k1[i] = 0.5f;
 1700              		.loc 2 260 9 discriminator 2 view .LVU438
 1701              		.loc 2 260 31 is_stmt 0 discriminator 2 view .LVU439
 1702 0008 4FF07C52 		mov	r2, #1056964608
 1703 000c 43F8042B 		str	r2, [r3], #4	@ float
 261:GrannyChordApp.cpp ****         prev_param_vals_k2[i] = 0.5f;
 1704              		.loc 2 261 9 is_stmt 1 discriminator 2 view .LVU440
 259:GrannyChordApp.cpp ****       for (int i=0; i < NUM_SYNTH_MODES;i++){
 1705              		.loc 2 259 23 is_stmt 0 discriminator 2 view .LVU441
 1706 0010 8342     		cmp	r3, r0
 1707              		.loc 2 261 31 discriminator 2 view .LVU442
 1708 0012 9A61     		str	r2, [r3, #24]	@ float
 259:GrannyChordApp.cpp ****       for (int i=0; i < NUM_SYNTH_MODES;i++){
 1709              		.loc 2 259 7 is_stmt 1 discriminator 2 view .LVU443
 259:GrannyChordApp.cpp ****       for (int i=0; i < NUM_SYNTH_MODES;i++){
 1710              		.loc 2 259 23 discriminator 2 view .LVU444
 1711 0014 F8D1     		bne	.L103
 1712              	.LBE365:
 262:GrannyChordApp.cpp ****       } 
 263:GrannyChordApp.cpp **** };
 1713              		.loc 2 263 1 is_stmt 0 view .LVU445
 1714 0016 7047     		bx	lr
 1715              		.cfi_endproc
 1716              	.LFE4809:
 1718              		.section	.text._ZN14GrannyChordApp9AudioIdleEPPfj,"ax",%progbits
 1719              		.align	1
 1720              		.global	_ZN14GrannyChordApp9AudioIdleEPPfj
 1721              		.syntax unified
 1722              		.thumb
 1723              		.thumb_func
 1725              	_ZN14GrannyChordApp9AudioIdleEPPfj:
 1726              	.LVL112:
 1727              	.LFB4812:
 264:GrannyChordApp.cpp **** 
 265:GrannyChordApp.cpp **** /// @brief Master audio callback, called at audio rate, calls all audio processing methods
 266:GrannyChordApp.cpp **** /// @param in Audio input buffer
 267:GrannyChordApp.cpp **** /// @param out Audio output buffer
 268:GrannyChordApp.cpp **** /// @param size Number of samples to process in this call
 269:GrannyChordApp.cpp **** void GrannyChordApp::AudioCallback(AudioHandle::InputBuffer in, AudioHandle::OutputBuffer out, size
 270:GrannyChordApp.cpp ****   instance_->ProcessAudio(in,out,size);
 271:GrannyChordApp.cpp **** }
 272:GrannyChordApp.cpp **** 
 273:GrannyChordApp.cpp **** void GrannyChordApp::ProcessAudio(AudioHandle::InputBuffer in, AudioHandle::OutputBuffer out, size_
 274:GrannyChordApp.cpp ****   switch(curr_state_){
 275:GrannyChordApp.cpp ****     case AppState::PlayWAV: 
 276:GrannyChordApp.cpp ****       if (wav_playhead_>= filemgr_.GetSamplesPerChannel() -1){
 277:GrannyChordApp.cpp ****         AudioIdle(out,size);
 278:GrannyChordApp.cpp ****         break;
 279:GrannyChordApp.cpp ****       }
 280:GrannyChordApp.cpp ****       ProcessWAVPlayback(out,size);
 281:GrannyChordApp.cpp ****       break;  
 282:GrannyChordApp.cpp ****     case AppState::RecordIn:
 283:GrannyChordApp.cpp ****       ProcessRecordIn(in, out, size);
 284:GrannyChordApp.cpp ****       break;
 285:GrannyChordApp.cpp ****     case AppState::Synthesis:
 286:GrannyChordApp.cpp ****       ProcessSynthesis(out,size);
ARM GAS  /var/folders/2p/02m_5p7958535cp2tpgps0400000gn/T//cco1mNMf.s 			page 52


 287:GrannyChordApp.cpp ****       break;
 288:GrannyChordApp.cpp ****     // case AppState::ChordMode:
 289:GrannyChordApp.cpp ****     default:
 290:GrannyChordApp.cpp ****       AudioIdle(out,size);
 291:GrannyChordApp.cpp ****       break;
 292:GrannyChordApp.cpp ****   }
 293:GrannyChordApp.cpp **** }
 294:GrannyChordApp.cpp **** 
 295:GrannyChordApp.cpp **** /// @brief Outputs silence if app is in non audio output state
 296:GrannyChordApp.cpp **** /// @param out Output audio buffer
 297:GrannyChordApp.cpp **** /// @param size Number of samples to process in this call (irrelevant)
 298:GrannyChordApp.cpp **** void GrannyChordApp::AudioIdle(AudioHandle::OutputBuffer out, size_t size){
 1728              		.loc 2 298 75 is_stmt 1 view -0
 1729              		.cfi_startproc
 1730              		@ args = 0, pretend = 0, frame = 0
 1731              		@ frame_needed = 0, uses_anonymous_args = 0
 299:GrannyChordApp.cpp ****   for (size_t i=0; i<size; i++){
 1732              		.loc 2 299 3 view .LVU447
 1733              	.LBB366:
 1734              		.loc 2 299 15 is_stmt 0 view .LVU448
 1735 0000 0023     		movs	r3, #0
 1736              	.LBE366:
 298:GrannyChordApp.cpp ****   for (size_t i=0; i<size; i++){
 1737              		.loc 2 298 75 view .LVU449
 1738 0002 10B5     		push	{r4, lr}
 1739              		.cfi_def_cfa_offset 8
 1740              		.cfi_offset 4, -8
 1741              		.cfi_offset 14, -4
 1742              	.LVL113:
 1743              	.L107:
 1744              	.LBB367:
 1745              		.loc 2 299 21 is_stmt 1 discriminator 3 view .LVU450
 1746 0004 9342     		cmp	r3, r2
 1747 0006 0AD0     		beq	.L105
 300:GrannyChordApp.cpp ****     out[0][i]=out[1][i]=0.0f;
 1748              		.loc 2 300 5 discriminator 2 view .LVU451
 1749              		.loc 2 300 24 is_stmt 0 discriminator 2 view .LVU452
 1750 0008 4868     		ldr	r0, [r1, #4]
 1751 000a 0024     		movs	r4, #0
 1752 000c 00EB8300 		add	r0, r0, r3, lsl #2
 1753 0010 0460     		str	r4, [r0]	@ float
 1754              		.loc 2 300 14 discriminator 2 view .LVU453
 1755 0012 0868     		ldr	r0, [r1]
 1756 0014 00EB8300 		add	r0, r0, r3, lsl #2
 299:GrannyChordApp.cpp ****   for (size_t i=0; i<size; i++){
 1757              		.loc 2 299 3 discriminator 2 view .LVU454
 1758 0018 0133     		adds	r3, r3, #1
 1759              	.LVL114:
 1760              		.loc 2 300 14 discriminator 2 view .LVU455
 1761 001a 0460     		str	r4, [r0]	@ float
 299:GrannyChordApp.cpp ****   for (size_t i=0; i<size; i++){
 1762              		.loc 2 299 3 is_stmt 1 discriminator 2 view .LVU456
 1763              	.LVL115:
 299:GrannyChordApp.cpp ****   for (size_t i=0; i<size; i++){
 1764              		.loc 2 299 3 is_stmt 0 discriminator 2 view .LVU457
 1765 001c F2E7     		b	.L107
 1766              	.L105:
ARM GAS  /var/folders/2p/02m_5p7958535cp2tpgps0400000gn/T//cco1mNMf.s 			page 53


 299:GrannyChordApp.cpp ****   for (size_t i=0; i<size; i++){
 1767              		.loc 2 299 3 discriminator 2 view .LVU458
 1768              	.LBE367:
 301:GrannyChordApp.cpp ****   }
 302:GrannyChordApp.cpp **** }
 1769              		.loc 2 302 1 view .LVU459
 1770 001e 10BD     		pop	{r4, pc}
 1771              		.cfi_endproc
 1772              	.LFE4812:
 1774              		.section	.text._ZN14GrannyChordApp18ProcessWAVPlaybackEPPfj,"ax",%progbits
 1775              		.align	1
 1776              		.global	_ZN14GrannyChordApp18ProcessWAVPlaybackEPPfj
 1777              		.syntax unified
 1778              		.thumb
 1779              		.thumb_func
 1781              	_ZN14GrannyChordApp18ProcessWAVPlaybackEPPfj:
 1782              	.LVL116:
 1783              	.LFB4813:
 303:GrannyChordApp.cpp **** 
 304:GrannyChordApp.cpp **** /// @brief Process audio for WAV playback mode and increment playback position
 305:GrannyChordApp.cpp **** /// @param out Output audio buffer
 306:GrannyChordApp.cpp **** /// @param size Number of samples to process in this call
 307:GrannyChordApp.cpp **** void GrannyChordApp::ProcessWAVPlayback(AudioHandle::OutputBuffer out, size_t size){
 1784              		.loc 2 307 84 is_stmt 1 view -0
 1785              		.cfi_startproc
 1786              		@ args = 0, pretend = 0, frame = 0
 1787              		@ frame_needed = 0, uses_anonymous_args = 0
 308:GrannyChordApp.cpp ****   for (size_t i=0; i<size; i++){
 1788              		.loc 2 308 3 view .LVU461
 307:GrannyChordApp.cpp ****   for (size_t i=0; i<size; i++){
 1789              		.loc 2 307 84 is_stmt 0 view .LVU462
 1790 0000 F0B5     		push	{r4, r5, r6, r7, lr}
 1791              		.cfi_def_cfa_offset 20
 1792              		.cfi_offset 4, -20
 1793              		.cfi_offset 5, -16
 1794              		.cfi_offset 6, -12
 1795              		.cfi_offset 7, -8
 1796              		.cfi_offset 14, -4
 1797              	.LBB368:
 1798              		.loc 2 308 15 view .LVU463
 1799 0002 0024     		movs	r4, #0
 1800              	.LVL117:
 1801              	.L112:
 1802              		.loc 2 308 21 is_stmt 1 discriminator 1 view .LVU464
 1803 0004 9442     		cmp	r4, r2
 1804 0006 2ED0     		beq	.L109
 309:GrannyChordApp.cpp ****     // if (wav_playhead_ < audio_len_){
 310:GrannyChordApp.cpp ****     if (wav_playhead_ < filemgr_.GetSamplesPerChannel()){
 1805              		.loc 2 310 5 view .LVU465
 1806              		.loc 2 310 25 is_stmt 0 view .LVU466
 1807 0008 D0F8AC64 		ldr	r6, [r0, #1196]
 1808              	.LVL118:
 1809              	.LBB369:
 1810              	.LBI369:
  27:AudioFileManager.h ****     size_t GetTotalSamples() const { return header_.total_samples; }
 1811              		.loc 3 27 12 is_stmt 1 view .LVU467
 1812              	.LBB370:
ARM GAS  /var/folders/2p/02m_5p7958535cp2tpgps0400000gn/T//cco1mNMf.s 			page 54


  27:AudioFileManager.h ****     size_t GetTotalSamples() const { return header_.total_samples; }
 1813              		.loc 3 27 43 view .LVU468
  27:AudioFileManager.h ****     size_t GetTotalSamples() const { return header_.total_samples; }
 1814              		.loc 3 27 43 is_stmt 0 view .LVU469
 1815              	.LBE370:
 1816              	.LBE369:
 1817              		.loc 2 310 9 view .LVU470
 1818 000c D0F82C36 		ldr	r3, [r0, #1580]
 1819              	.LBB372:
 1820              	.LBB371:
  27:AudioFileManager.h ****     size_t GetTotalSamples() const { return header_.total_samples; }
 1821              		.loc 3 27 82 view .LVU471
 1822 0010 B6F96478 		ldrsh	r7, [r6, #2148]
 1823 0014 D6F86858 		ldr	r5, [r6, #2152]
 1824 0018 B5FBF7F5 		udiv	r5, r5, r7
 1825              	.LBE371:
 1826              	.LBE372:
 1827              		.loc 2 310 5 view .LVU472
 1828 001c AB42     		cmp	r3, r5
 1829 001e 20D2     		bcs	.L111
 311:GrannyChordApp.cpp ****       out[0][i] = s162f(left_buf_[wav_playhead_]);
 1830              		.loc 2 311 7 is_stmt 1 view .LVU473
 1831              	.LVL119:
 1832              	.LBB373:
 1833              	.LBI373:
 1834              		.file 10 "../libDaisy/src/daisy_core.h"
   1:../libDaisy/src/daisy_core.h **** #pragma once
   2:../libDaisy/src/daisy_core.h **** #ifndef DSY_CORE_HW_H
   3:../libDaisy/src/daisy_core.h **** #define DSY_CORE_HW_H /**< & */
   4:../libDaisy/src/daisy_core.h **** #include <stdint.h>
   5:../libDaisy/src/daisy_core.h **** #include <stdlib.h>
   6:../libDaisy/src/daisy_core.h **** 
   7:../libDaisy/src/daisy_core.h **** #if defined(_MSC_VER)
   8:../libDaisy/src/daisy_core.h **** #define FORCE_INLINE __forceinline /**< & */
   9:../libDaisy/src/daisy_core.h **** #elif defined(__clang__)
  10:../libDaisy/src/daisy_core.h **** #define FORCE_INLINE inline __attribute__((always_inline)) /**< & */
  11:../libDaisy/src/daisy_core.h **** #pragma clang diagnostic ignored "-Wduplicate-decl-specifier"
  12:../libDaisy/src/daisy_core.h **** #elif defined(__GNUC__)
  13:../libDaisy/src/daisy_core.h **** #define FORCE_INLINE inline __attribute__((always_inline)) /**< & */
  14:../libDaisy/src/daisy_core.h **** #else
  15:../libDaisy/src/daisy_core.h **** #error unknown compiler
  16:../libDaisy/src/daisy_core.h **** #endif
  17:../libDaisy/src/daisy_core.h **** 
  18:../libDaisy/src/daisy_core.h **** /** @addtogroup utility
  19:../libDaisy/src/daisy_core.h ****     @{
  20:../libDaisy/src/daisy_core.h **** */
  21:../libDaisy/src/daisy_core.h **** 
  22:../libDaisy/src/daisy_core.h **** /** Macro for area of memory that is configured as cacheless
  23:../libDaisy/src/daisy_core.h **** This should be used primarily for DMA buffers, and the like.
  24:../libDaisy/src/daisy_core.h **** */
  25:../libDaisy/src/daisy_core.h **** #define DMA_BUFFER_MEM_SECTION __attribute__((section(".sram1_bss")))
  26:../libDaisy/src/daisy_core.h **** /** 
  27:../libDaisy/src/daisy_core.h **** THE DTCM RAM section is also non-cached. However, is not suitable 
  28:../libDaisy/src/daisy_core.h **** for DMA transfers. Performance is on par with internal SRAM w/ 
  29:../libDaisy/src/daisy_core.h **** cache enabled.
  30:../libDaisy/src/daisy_core.h **** */
  31:../libDaisy/src/daisy_core.h **** #define DTCM_MEM_SECTION __attribute__((section(".dtcmram_bss")))
ARM GAS  /var/folders/2p/02m_5p7958535cp2tpgps0400000gn/T//cco1mNMf.s 			page 55


  32:../libDaisy/src/daisy_core.h **** 
  33:../libDaisy/src/daisy_core.h **** #define FBIPMAX 0.999985f             /**< close to 1.0f-LSB at 16 bit */
  34:../libDaisy/src/daisy_core.h **** #define FBIPMIN (-FBIPMAX)            /**< - (1 - LSB) */
  35:../libDaisy/src/daisy_core.h **** #define U82F_SCALE 0.0078740f         /**< 1 / 127 */
  36:../libDaisy/src/daisy_core.h **** #define F2U8_SCALE 127.0f             /**< 128 - 1 */
  37:../libDaisy/src/daisy_core.h **** #define S82F_SCALE 0.0078125f         /**< 1 / (2**7) */
  38:../libDaisy/src/daisy_core.h **** #define F2S8_SCALE 127.0f             /**< (2 ** 7) - 1 */
  39:../libDaisy/src/daisy_core.h **** #define S162F_SCALE 3.0517578125e-05f /**< 1 / (2** 15) */
  40:../libDaisy/src/daisy_core.h **** #define F2S16_SCALE 32767.0f          /**< (2 ** 15) - 1 */
  41:../libDaisy/src/daisy_core.h **** #define F2S24_SCALE 8388608.0f        /**< 2 ** 23 */
  42:../libDaisy/src/daisy_core.h **** #define S242F_SCALE 1.192092896e-07f  /**< 1 / (2 ** 23) */
  43:../libDaisy/src/daisy_core.h **** #define S24SIGN 0x800000              /**< 2 ** 23 */
  44:../libDaisy/src/daisy_core.h **** #define S322F_SCALE 4.6566129e-10f    /**< 1 / (2** 31) */
  45:../libDaisy/src/daisy_core.h **** #define F2S32_SCALE 2147483647.f      /**< (2 ** 31) - 1 */
  46:../libDaisy/src/daisy_core.h **** 
  47:../libDaisy/src/daisy_core.h **** 
  48:../libDaisy/src/daisy_core.h **** /** shorthand macro for simplifying the reading of the left 
  49:../libDaisy/src/daisy_core.h ****  *  channel of a non-interleaved output buffer named out */
  50:../libDaisy/src/daisy_core.h **** #define OUT_L out[0]
  51:../libDaisy/src/daisy_core.h **** 
  52:../libDaisy/src/daisy_core.h **** /** shorthand macro for simplifying the reading of the right 
  53:../libDaisy/src/daisy_core.h ****  *  channel of a non-interleaved output buffer named out */
  54:../libDaisy/src/daisy_core.h **** #define OUT_R out[1]
  55:../libDaisy/src/daisy_core.h **** 
  56:../libDaisy/src/daisy_core.h **** /** shorthand macro for simplifying the reading of the left 
  57:../libDaisy/src/daisy_core.h ****  *  channel of a non-interleaved input buffer named in */
  58:../libDaisy/src/daisy_core.h **** #define IN_L in[0]
  59:../libDaisy/src/daisy_core.h **** 
  60:../libDaisy/src/daisy_core.h **** /** shorthand macro for simplifying the reading of the right 
  61:../libDaisy/src/daisy_core.h ****  *  channel of a non-interleaved input buffer named in */
  62:../libDaisy/src/daisy_core.h **** #define IN_R in[1]
  63:../libDaisy/src/daisy_core.h **** 
  64:../libDaisy/src/daisy_core.h **** /** 
  65:../libDaisy/src/daisy_core.h ****     Computes cube.
  66:../libDaisy/src/daisy_core.h ****     \param x Number to be cubed
  67:../libDaisy/src/daisy_core.h ****     \return x ^ 3
  68:../libDaisy/src/daisy_core.h **** */
  69:../libDaisy/src/daisy_core.h **** FORCE_INLINE float cube(float x)
  70:../libDaisy/src/daisy_core.h **** {
  71:../libDaisy/src/daisy_core.h ****     return (x * x) * x;
  72:../libDaisy/src/daisy_core.h **** }
  73:../libDaisy/src/daisy_core.h **** 
  74:../libDaisy/src/daisy_core.h **** /** 
  75:../libDaisy/src/daisy_core.h ****     Converts unsigned 8-bit to float
  76:../libDaisy/src/daisy_core.h ****     \param x Number to be scaled.
  77:../libDaisy/src/daisy_core.h ****     \return Scaled number.
  78:../libDaisy/src/daisy_core.h **** */
  79:../libDaisy/src/daisy_core.h **** FORCE_INLINE float u82f(uint8_t x)
  80:../libDaisy/src/daisy_core.h **** {
  81:../libDaisy/src/daisy_core.h ****     return ((float)x - 127.f) * U82F_SCALE;
  82:../libDaisy/src/daisy_core.h **** }
  83:../libDaisy/src/daisy_core.h **** 
  84:../libDaisy/src/daisy_core.h **** /**
  85:../libDaisy/src/daisy_core.h ****     Converts float to unsigned 8-bit
  86:../libDaisy/src/daisy_core.h **** */
  87:../libDaisy/src/daisy_core.h **** FORCE_INLINE uint8_t f2u8(float x)
  88:../libDaisy/src/daisy_core.h **** {
ARM GAS  /var/folders/2p/02m_5p7958535cp2tpgps0400000gn/T//cco1mNMf.s 			page 56


  89:../libDaisy/src/daisy_core.h ****     x = x <= FBIPMIN ? FBIPMIN : x;
  90:../libDaisy/src/daisy_core.h ****     x = x >= FBIPMAX ? FBIPMAX : x;
  91:../libDaisy/src/daisy_core.h ****     return (uint8_t)((x * F2U8_SCALE) + F2U8_SCALE);
  92:../libDaisy/src/daisy_core.h **** }
  93:../libDaisy/src/daisy_core.h **** 
  94:../libDaisy/src/daisy_core.h **** 
  95:../libDaisy/src/daisy_core.h **** /** 
  96:../libDaisy/src/daisy_core.h ****     Converts Signed 8-bit to float
  97:../libDaisy/src/daisy_core.h ****     \param x Number to be scaled.
  98:../libDaisy/src/daisy_core.h ****     \return Scaled number.
  99:../libDaisy/src/daisy_core.h **** */
 100:../libDaisy/src/daisy_core.h **** FORCE_INLINE float s82f(int8_t x)
 101:../libDaisy/src/daisy_core.h **** {
 102:../libDaisy/src/daisy_core.h ****     return (float)x * S82F_SCALE;
 103:../libDaisy/src/daisy_core.h **** }
 104:../libDaisy/src/daisy_core.h **** 
 105:../libDaisy/src/daisy_core.h **** /**
 106:../libDaisy/src/daisy_core.h ****     Converts float to Signed 8-bit
 107:../libDaisy/src/daisy_core.h **** */
 108:../libDaisy/src/daisy_core.h **** FORCE_INLINE int8_t f2s8(float x)
 109:../libDaisy/src/daisy_core.h **** {
 110:../libDaisy/src/daisy_core.h ****     x = x <= FBIPMIN ? FBIPMIN : x;
 111:../libDaisy/src/daisy_core.h ****     x = x >= FBIPMAX ? FBIPMAX : x;
 112:../libDaisy/src/daisy_core.h ****     return (int32_t)(x * F2S8_SCALE);
 113:../libDaisy/src/daisy_core.h **** }
 114:../libDaisy/src/daisy_core.h **** 
 115:../libDaisy/src/daisy_core.h **** /** 
 116:../libDaisy/src/daisy_core.h ****     Converts Signed 16-bit to float
 117:../libDaisy/src/daisy_core.h ****     \param x Number to be scaled.
 118:../libDaisy/src/daisy_core.h ****     \return Scaled number.
 119:../libDaisy/src/daisy_core.h **** */
 120:../libDaisy/src/daisy_core.h **** FORCE_INLINE float s162f(int16_t x)
 1835              		.loc 10 120 20 view .LVU474
 1836              	.LBB374:
 121:../libDaisy/src/daisy_core.h **** {
 122:../libDaisy/src/daisy_core.h ****     return (float)x * S162F_SCALE;
 1837              		.loc 10 122 5 view .LVU475
 1838              		.loc 10 122 5 is_stmt 0 view .LVU476
 1839              	.LBE374:
 1840              	.LBE373:
 1841              		.loc 2 311 24 view .LVU477
 1842 0020 D0F82066 		ldr	r6, [r0, #1568]
 1843              	.LBB379:
 1844              	.LBB375:
 1845              		.loc 10 122 23 view .LVU478
 1846 0024 DFED106A 		vldr.32	s13, .L114
 1847              		.loc 10 122 12 view .LVU479
 1848 0028 36F91360 		ldrsh	r6, [r6, r3, lsl #1]
 1849              	.LBE375:
 1850              	.LBE379:
 1851              		.loc 2 311 17 view .LVU480
 1852 002c 0D68     		ldr	r5, [r1]
 1853              	.LBB380:
 1854              	.LBB376:
 1855              		.loc 10 122 12 view .LVU481
 1856 002e 07EE106A 		vmov	s14, r6	@ int
 1857              	.LBE376:
ARM GAS  /var/folders/2p/02m_5p7958535cp2tpgps0400000gn/T//cco1mNMf.s 			page 57


 1858              	.LBE380:
 312:GrannyChordApp.cpp ****       out[1][1] = s162f(right_buf_[wav_playhead_]);
 1859              		.loc 2 312 24 view .LVU482
 1860 0032 D0F82466 		ldr	r6, [r0, #1572]
 311:GrannyChordApp.cpp ****       out[1][1] = s162f(right_buf_[wav_playhead_]);
 1861              		.loc 2 311 17 view .LVU483
 1862 0036 05EB8405 		add	r5, r5, r4, lsl #2
 1863              	.LBB381:
 1864              	.LBB382:
 1865              		.loc 10 122 12 view .LVU484
 1866 003a 36F91360 		ldrsh	r6, [r6, r3, lsl #1]
 1867              	.LBE382:
 1868              	.LBE381:
 1869              	.LBB386:
 1870              	.LBB377:
 1871 003e B8EEC77A 		vcvt.f32.s32	s14, s14
 1872              	.LBE377:
 1873              	.LBE386:
 313:GrannyChordApp.cpp ****       wav_playhead_++;
 1874              		.loc 2 313 20 view .LVU485
 1875 0042 0133     		adds	r3, r3, #1
 1876              	.LBB387:
 1877              	.LBB383:
 1878              		.loc 10 122 12 view .LVU486
 1879 0044 07EE906A 		vmov	s15, r6	@ int
 1880              	.LBE383:
 1881              	.LBE387:
 1882              	.LBB388:
 1883              	.LBB378:
 1884              		.loc 10 122 23 view .LVU487
 1885 0048 27EE267A 		vmul.f32	s14, s14, s13
 1886              	.LBE378:
 1887              	.LBE388:
 1888              	.LBB389:
 1889              	.LBB384:
 1890              		.loc 10 122 12 view .LVU488
 1891 004c F8EEE77A 		vcvt.f32.s32	s15, s15
 1892              	.LBE384:
 1893              	.LBE389:
 311:GrannyChordApp.cpp ****       out[1][1] = s162f(right_buf_[wav_playhead_]);
 1894              		.loc 2 311 17 view .LVU489
 1895 0050 85ED007A 		vstr.32	s14, [r5]
 312:GrannyChordApp.cpp ****       out[1][1] = s162f(right_buf_[wav_playhead_]);
 1896              		.loc 2 312 7 is_stmt 1 view .LVU490
 1897              	.LVL120:
 1898              	.LBB390:
 1899              	.LBI381:
 120:../libDaisy/src/daisy_core.h **** {
 1900              		.loc 10 120 20 view .LVU491
 1901              	.LBB385:
 1902              		.loc 10 122 5 view .LVU492
 1903              		.loc 10 122 23 is_stmt 0 view .LVU493
 1904 0054 67EEA67A 		vmul.f32	s15, s15, s13
 1905              	.LBE385:
 1906              	.LBE390:
 312:GrannyChordApp.cpp ****       wav_playhead_++;
 1907              		.loc 2 312 17 view .LVU494
ARM GAS  /var/folders/2p/02m_5p7958535cp2tpgps0400000gn/T//cco1mNMf.s 			page 58


 1908 0058 4D68     		ldr	r5, [r1, #4]
 1909 005a C5ED017A 		vstr.32	s15, [r5, #4]
 1910              		.loc 2 313 7 is_stmt 1 view .LVU495
 1911              		.loc 2 313 20 is_stmt 0 view .LVU496
 1912 005e C0F82C36 		str	r3, [r0, #1580]
 1913              	.L111:
 308:GrannyChordApp.cpp ****     // if (wav_playhead_ < audio_len_){
 1914              		.loc 2 308 3 is_stmt 1 discriminator 2 view .LVU497
 1915 0062 0134     		adds	r4, r4, #1
 1916              	.LVL121:
 308:GrannyChordApp.cpp ****     // if (wav_playhead_ < audio_len_){
 1917              		.loc 2 308 3 is_stmt 0 discriminator 2 view .LVU498
 1918 0064 CEE7     		b	.L112
 1919              	.L109:
 308:GrannyChordApp.cpp ****     // if (wav_playhead_ < audio_len_){
 1920              		.loc 2 308 3 discriminator 2 view .LVU499
 1921              	.LBE368:
 314:GrannyChordApp.cpp ****     }
 315:GrannyChordApp.cpp ****   }
 316:GrannyChordApp.cpp **** }
 1922              		.loc 2 316 1 view .LVU500
 1923 0066 F0BD     		pop	{r4, r5, r6, r7, pc}
 1924              	.LVL122:
 1925              	.L115:
 1926              		.loc 2 316 1 view .LVU501
 1927              		.align	2
 1928              	.L114:
 1929 0068 00000038 		.word	939524096
 1930              		.cfi_endproc
 1931              	.LFE4813:
 1933              		.section	.text._ZN14GrannyChordApp15ProcessRecordInEPKPKfPPfj,"ax",%progbits
 1934              		.align	1
 1935              		.global	_ZN14GrannyChordApp15ProcessRecordInEPKPKfPPfj
 1936              		.syntax unified
 1937              		.thumb
 1938              		.thumb_func
 1940              	_ZN14GrannyChordApp15ProcessRecordInEPKPKfPPfj:
 1941              	.LVL123:
 1942              	.LFB4814:
 317:GrannyChordApp.cpp **** 
 318:GrannyChordApp.cpp **** /// @brief Process input audio when app is in RecordIn state
 319:GrannyChordApp.cpp **** /// @param in Input audio buffer
 320:GrannyChordApp.cpp **** /// @param out Output audio buffer
 321:GrannyChordApp.cpp **** /// @param size Number of samples to process in this call
 322:GrannyChordApp.cpp **** void GrannyChordApp::ProcessRecordIn(AudioHandle::InputBuffer in, AudioHandle::OutputBuffer out, si
 1943              		.loc 2 322 110 is_stmt 1 view -0
 1944              		.cfi_startproc
 1945              		@ args = 0, pretend = 0, frame = 0
 1946              		@ frame_needed = 0, uses_anonymous_args = 0
 323:GrannyChordApp.cpp ****   static const size_t MAX_RECORDING_LEN = 60*48000; // 60s @ 48kHZ
 1947              		.loc 2 323 3 view .LVU503
 324:GrannyChordApp.cpp ****   static size_t record_pos = 0;
 1948              		.loc 2 324 3 view .LVU504
 325:GrannyChordApp.cpp ****   for (size_t i=0; i<size;i++){
 1949              		.loc 2 325 3 view .LVU505
 322:GrannyChordApp.cpp ****   static const size_t MAX_RECORDING_LEN = 60*48000; // 60s @ 48kHZ
 1950              		.loc 2 322 110 is_stmt 0 view .LVU506
ARM GAS  /var/folders/2p/02m_5p7958535cp2tpgps0400000gn/T//cco1mNMf.s 			page 59


 1951 0000 F0B5     		push	{r4, r5, r6, r7, lr}
 1952              		.cfi_def_cfa_offset 20
 1953              		.cfi_offset 4, -20
 1954              		.cfi_offset 5, -16
 1955              		.cfi_offset 6, -12
 1956              		.cfi_offset 7, -8
 1957              		.cfi_offset 14, -4
 1958 0002 DFF878C0 		ldr	ip, .L124+4
 322:GrannyChordApp.cpp ****   static const size_t MAX_RECORDING_LEN = 60*48000; // 60s @ 48kHZ
 1959              		.loc 2 322 110 view .LVU507
 1960 0006 0026     		movs	r6, #0
 1961 0008 DCF80040 		ldr	r4, [ip]
 1962              	.LBB391:
 1963              		.loc 2 325 15 view .LVU508
 1964 000c 3546     		mov	r5, r6
 1965              	.LVL124:
 1966              	.L118:
 1967              		.loc 2 325 21 is_stmt 1 discriminator 3 view .LVU509
 1968 000e 9D42     		cmp	r5, r3
 1969 0010 2ED0     		beq	.L117
 326:GrannyChordApp.cpp ****     /* send audio in straight to output for monitoring */
 327:GrannyChordApp.cpp ****     out[0][i]=in[0][i];
 1970              		.loc 2 327 5 discriminator 2 view .LVU510
 1971              		.loc 2 327 22 is_stmt 0 discriminator 2 view .LVU511
 1972 0012 0E68     		ldr	r6, [r1]
 1973              		.loc 2 327 14 discriminator 2 view .LVU512
 1974 0014 1768     		ldr	r7, [r2]
 1975              		.loc 2 327 22 discriminator 2 view .LVU513
 1976 0016 06EB8506 		add	r6, r6, r5, lsl #2
 1977              		.loc 2 327 14 discriminator 2 view .LVU514
 1978 001a 07EB8507 		add	r7, r7, r5, lsl #2
 1979              		.loc 2 327 22 discriminator 2 view .LVU515
 1980 001e D6F800E0 		ldr	lr, [r6]	@ float
 1981              		.loc 2 327 14 discriminator 2 view .LVU516
 1982 0022 C7F800E0 		str	lr, [r7]	@ float
 328:GrannyChordApp.cpp ****     out[1][i]=in[1][i];
 1983              		.loc 2 328 5 is_stmt 1 discriminator 2 view .LVU517
 1984              		.loc 2 328 22 is_stmt 0 discriminator 2 view .LVU518
 1985 0026 4F68     		ldr	r7, [r1, #4]
 1986 0028 07EB8507 		add	r7, r7, r5, lsl #2
 1987 002c D7ED007A 		vldr.32	s15, [r7]
 1988              		.loc 2 328 14 discriminator 2 view .LVU519
 1989 0030 5768     		ldr	r7, [r2, #4]
 1990 0032 07EB8507 		add	r7, r7, r5, lsl #2
 325:GrannyChordApp.cpp ****     /* send audio in straight to output for monitoring */
 1991              		.loc 2 325 3 discriminator 2 view .LVU520
 1992 0036 0135     		adds	r5, r5, #1
 1993              	.LVL125:
 1994              		.loc 2 328 14 discriminator 2 view .LVU521
 1995 0038 C7ED007A 		vstr.32	s15, [r7]
 329:GrannyChordApp.cpp **** 
 330:GrannyChordApp.cpp ****     /* record audio in to SDRAM buffers */
 331:GrannyChordApp.cpp ****     left_buf_[record_pos] = in[0][i];
 1996              		.loc 2 331 5 is_stmt 1 discriminator 2 view .LVU522
 332:GrannyChordApp.cpp ****     right_buf_[record_pos] = in[1][i];
 1997              		.loc 2 332 28 is_stmt 0 discriminator 2 view .LVU523
 1998 003c FDEEE77A 		vcvt.s32.f32	s15, s15
ARM GAS  /var/folders/2p/02m_5p7958535cp2tpgps0400000gn/T//cco1mNMf.s 			page 60


 331:GrannyChordApp.cpp ****     right_buf_[record_pos] = in[1][i];
 1999              		.loc 2 331 27 discriminator 2 view .LVU524
 2000 0040 96ED007A 		vldr.32	s14, [r6]
 2001 0044 D0F82076 		ldr	r7, [r0, #1568]
 2002 0048 BDEEC77A 		vcvt.s32.f32	s14, s14
 2003 004c 17EE106A 		vmov	r6, s14	@ int
 2004 0050 27F81460 		strh	r6, [r7, r4, lsl #1]	@ movhi
 2005              		.loc 2 332 5 is_stmt 1 discriminator 2 view .LVU525
 2006              		.loc 2 332 28 is_stmt 0 discriminator 2 view .LVU526
 2007 0054 17EE907A 		vmov	r7, s15	@ int
 2008 0058 D0F82466 		ldr	r6, [r0, #1572]
 2009 005c 26F81470 		strh	r7, [r6, r4, lsl #1]	@ movhi
 333:GrannyChordApp.cpp **** 
 334:GrannyChordApp.cpp ****     /* wrap around recording length - if it exceeds 60s,
 335:GrannyChordApp.cpp ****       the start of the recording will be overwritten */
 336:GrannyChordApp.cpp ****     record_pos = (record_pos+1)%MAX_RECORDING_LEN;
 2010              		.loc 2 336 5 is_stmt 1 discriminator 2 view .LVU527
 2011              		.loc 2 336 29 is_stmt 0 discriminator 2 view .LVU528
 2012 0060 0134     		adds	r4, r4, #1
 2013              		.loc 2 336 32 discriminator 2 view .LVU529
 2014 0062 054E     		ldr	r6, .L124
 2015 0064 B4FBF6F7 		udiv	r7, r4, r6
 2016 0068 06FB1744 		mls	r4, r6, r7, r4
 325:GrannyChordApp.cpp ****     /* send audio in straight to output for monitoring */
 2017              		.loc 2 325 3 is_stmt 1 discriminator 2 view .LVU530
 2018              	.LVL126:
 325:GrannyChordApp.cpp ****     /* send audio in straight to output for monitoring */
 2019              		.loc 2 325 3 is_stmt 0 discriminator 2 view .LVU531
 2020 006c 0126     		movs	r6, #1
 2021 006e CEE7     		b	.L118
 2022              	.L117:
 325:GrannyChordApp.cpp ****     /* send audio in straight to output for monitoring */
 2023              		.loc 2 325 3 discriminator 2 view .LVU532
 2024 0070 0EB1     		cbz	r6, .L116
 2025 0072 CCF80040 		str	r4, [ip]
 2026              	.L116:
 2027              	.LBE391:
 337:GrannyChordApp.cpp **** 
 338:GrannyChordApp.cpp ****   }
 339:GrannyChordApp.cpp **** }
 2028              		.loc 2 339 1 view .LVU533
 2029 0076 F0BD     		pop	{r4, r5, r6, r7, pc}
 2030              	.LVL127:
 2031              	.L125:
 2032              		.loc 2 339 1 view .LVU534
 2033              		.align	2
 2034              	.L124:
 2035 0078 00F22B00 		.word	2880000
 2036 007c 00000000 		.word	.LANCHOR0
 2037              		.cfi_endproc
 2038              	.LFE4814:
 2040              		.section	.text._ZN14GrannyChordApp16ProcessSynthesisEPPfj,"ax",%progbits
 2041              		.align	1
 2042              		.global	_ZN14GrannyChordApp16ProcessSynthesisEPPfj
 2043              		.syntax unified
 2044              		.thumb
 2045              		.thumb_func
ARM GAS  /var/folders/2p/02m_5p7958535cp2tpgps0400000gn/T//cco1mNMf.s 			page 61


 2047              	_ZN14GrannyChordApp16ProcessSynthesisEPPfj:
 2048              	.LVL128:
 2049              	.LFB4815:
 340:GrannyChordApp.cpp **** 
 341:GrannyChordApp.cpp **** /// @brief Process audio through granular synth and mix to output buffer
 342:GrannyChordApp.cpp **** /// @param out Output audio buffer
 343:GrannyChordApp.cpp **** /// @param size Number of samples to process in this call
 344:GrannyChordApp.cpp **** void GrannyChordApp::ProcessSynthesis(AudioHandle::OutputBuffer out, size_t size){
 2050              		.loc 2 344 82 is_stmt 1 view -0
 2051              		.cfi_startproc
 2052              		@ args = 0, pretend = 0, frame = 8
 2053              		@ frame_needed = 1, uses_anonymous_args = 0
 345:GrannyChordApp.cpp ****   // for (size_t i=0; i<size; i++){ // NOTE: is this correct? do i need to loop? don't think so
 346:GrannyChordApp.cpp ****     synth_.ProcessGrains(out[0],out[1],size); 
 2054              		.loc 2 346 5 view .LVU536
 344:GrannyChordApp.cpp ****   // for (size_t i=0; i<size; i++){ // NOTE: is this correct? do i need to loop? don't think so
 2055              		.loc 2 344 82 is_stmt 0 view .LVU537
 2056 0000 2DE9F047 		push	{r4, r5, r6, r7, r8, r9, r10, lr}
 2057              		.cfi_def_cfa_offset 32
 2058              		.cfi_offset 4, -32
 2059              		.cfi_offset 5, -28
 2060              		.cfi_offset 6, -24
 2061              		.cfi_offset 7, -20
 2062              		.cfi_offset 8, -16
 2063              		.cfi_offset 9, -12
 2064              		.cfi_offset 10, -8
 2065              		.cfi_offset 14, -4
 2066 0004 84B0     		sub	sp, sp, #16
 2067              		.cfi_def_cfa_offset 48
 2068 0006 0C46     		mov	r4, r1
 2069 0008 1546     		mov	r5, r2
 2070              		.loc 2 346 25 view .LVU538
 2071 000a 1346     		mov	r3, r2
 344:GrannyChordApp.cpp ****   // for (size_t i=0; i<size; i++){ // NOTE: is this correct? do i need to loop? don't think so
 2072              		.loc 2 344 82 view .LVU539
 2073 000c 8046     		mov	r8, r0
 2074 000e 02AF     		add	r7, sp, #8
 2075              		.cfi_def_cfa 7, 40
 2076              		.loc 2 346 25 view .LVU540
 2077 0010 0430     		adds	r0, r0, #4
 2078              	.LVL129:
 2079              	.LBB397:
 347:GrannyChordApp.cpp ****     comp_.ProcessBlock(out[0],out[0],size);
 348:GrannyChordApp.cpp ****     comp_.ProcessBlock(out[1],out[1],size);
 349:GrannyChordApp.cpp **** 
 350:GrannyChordApp.cpp ****     float temp_left[size];
 351:GrannyChordApp.cpp ****     float temp_right[size];
 352:GrannyChordApp.cpp ****     
 353:GrannyChordApp.cpp ****     for (size_t i=0; i<size; i++){
 2080              		.loc 2 353 17 view .LVU541
 2081 0012 4FF00009 		mov	r9, #0
 2082              	.LBE397:
 346:GrannyChordApp.cpp ****     comp_.ProcessBlock(out[0],out[0],size);
 2083              		.loc 2 346 25 view .LVU542
 2084 0016 D1E90012 		ldrd	r1, r2, [r1]
 2085              	.LVL130:
 346:GrannyChordApp.cpp ****     comp_.ProcessBlock(out[0],out[0],size);
ARM GAS  /var/folders/2p/02m_5p7958535cp2tpgps0400000gn/T//cco1mNMf.s 			page 62


 2086              		.loc 2 346 25 view .LVU543
 2087 001a FFF7FEFF 		bl	_ZN13GranularSynth13ProcessGrainsEPfS0_j
 2088              	.LVL131:
 347:GrannyChordApp.cpp ****     comp_.ProcessBlock(out[0],out[0],size);
 2089              		.loc 2 347 5 is_stmt 1 view .LVU544
 2090              	.LBB398:
 2091              	.LBB399:
 2092              		.file 11 "DaisySP-LGPL-FX/compressor.h"
   1:DaisySP-LGPL-FX/compressor.h **** /*
   2:DaisySP-LGPL-FX/compressor.h **** Copyright (c) 2023 Electrosmith, Corp, GRAME, Centre National de Creation Musicale.
   3:DaisySP-LGPL-FX/compressor.h **** 
   4:DaisySP-LGPL-FX/compressor.h **** Use of this source code is governed by the LGPL V2.1
   5:DaisySP-LGPL-FX/compressor.h **** license that can be found in the LICENSE file or at
   6:DaisySP-LGPL-FX/compressor.h **** https://opensource.org/license/lgpl-2-1/
   7:DaisySP-LGPL-FX/compressor.h **** */
   8:DaisySP-LGPL-FX/compressor.h **** 
   9:DaisySP-LGPL-FX/compressor.h **** #pragma once
  10:DaisySP-LGPL-FX/compressor.h **** #ifndef DSY_COMPRESSOR_H
  11:DaisySP-LGPL-FX/compressor.h **** #define DSY_COMPRESSOR_H
  12:DaisySP-LGPL-FX/compressor.h **** 
  13:DaisySP-LGPL-FX/compressor.h **** #include "Utility/dsp.h"
  14:DaisySP-LGPL-FX/compressor.h **** 
  15:DaisySP-LGPL-FX/compressor.h **** namespace daisysp
  16:DaisySP-LGPL-FX/compressor.h **** {
  17:DaisySP-LGPL-FX/compressor.h **** /** dynamics compressor
  18:DaisySP-LGPL-FX/compressor.h **** 
  19:DaisySP-LGPL-FX/compressor.h **** influenced by compressor in soundpipe (from faust).
  20:DaisySP-LGPL-FX/compressor.h **** 
  21:DaisySP-LGPL-FX/compressor.h **** Modifications made to do:
  22:DaisySP-LGPL-FX/compressor.h **** - Less calculations during each process loop (coefficients recalculated on parameter change).
  23:DaisySP-LGPL-FX/compressor.h **** - C++-ified
  24:DaisySP-LGPL-FX/compressor.h **** - added sidechain support
  25:DaisySP-LGPL-FX/compressor.h **** - pulled gain apart for monitoring and multichannel support
  26:DaisySP-LGPL-FX/compressor.h **** - improved readability
  27:DaisySP-LGPL-FX/compressor.h **** - improved makeup-gain calculations
  28:DaisySP-LGPL-FX/compressor.h **** - changing controls now costs a lot less
  29:DaisySP-LGPL-FX/compressor.h **** - a lot less expensive
  30:DaisySP-LGPL-FX/compressor.h **** 
  31:DaisySP-LGPL-FX/compressor.h **** by: shensley, improved upon by AvAars
  32:DaisySP-LGPL-FX/compressor.h **** \todo Add soft/hard knee settings
  33:DaisySP-LGPL-FX/compressor.h **** */
  34:DaisySP-LGPL-FX/compressor.h **** class Compressor
  35:DaisySP-LGPL-FX/compressor.h **** {
  36:DaisySP-LGPL-FX/compressor.h ****   public:
  37:DaisySP-LGPL-FX/compressor.h ****     Compressor() {}
  38:DaisySP-LGPL-FX/compressor.h ****     ~Compressor() {}
  39:DaisySP-LGPL-FX/compressor.h ****     /** Initializes compressor
  40:DaisySP-LGPL-FX/compressor.h ****         \param sample_rate rate at which samples will be produced by the audio engine.
  41:DaisySP-LGPL-FX/compressor.h ****     */
  42:DaisySP-LGPL-FX/compressor.h ****     void Init(float sample_rate);
  43:DaisySP-LGPL-FX/compressor.h **** 
  44:DaisySP-LGPL-FX/compressor.h ****     /** Compress the audio input signal, saves the calculated gain
  45:DaisySP-LGPL-FX/compressor.h ****         \param in audio input signal
  46:DaisySP-LGPL-FX/compressor.h ****     */
  47:DaisySP-LGPL-FX/compressor.h ****     float Process(float in);
  48:DaisySP-LGPL-FX/compressor.h **** 
  49:DaisySP-LGPL-FX/compressor.h ****     /** Compresses the audio input signal, keyed by a secondary input.
ARM GAS  /var/folders/2p/02m_5p7958535cp2tpgps0400000gn/T//cco1mNMf.s 			page 63


  50:DaisySP-LGPL-FX/compressor.h ****         \param in audio input signal (to be compressed)
  51:DaisySP-LGPL-FX/compressor.h ****         \param key audio input that will be used to side-chain the compressor
  52:DaisySP-LGPL-FX/compressor.h ****     */
  53:DaisySP-LGPL-FX/compressor.h ****     float Process(float in, float key)
  54:DaisySP-LGPL-FX/compressor.h ****     {
  55:DaisySP-LGPL-FX/compressor.h ****         Process(key);
  56:DaisySP-LGPL-FX/compressor.h ****         return Apply(in);
  57:DaisySP-LGPL-FX/compressor.h ****     }
  58:DaisySP-LGPL-FX/compressor.h **** 
  59:DaisySP-LGPL-FX/compressor.h ****     /** Apply compression to the audio signal, based on the previously calculated gain
  60:DaisySP-LGPL-FX/compressor.h ****         \param in audio input signal
  61:DaisySP-LGPL-FX/compressor.h ****     */
  62:DaisySP-LGPL-FX/compressor.h ****     float Apply(float in) { return gain_ * in; }
  63:DaisySP-LGPL-FX/compressor.h **** 
  64:DaisySP-LGPL-FX/compressor.h ****     /** Compresses a block of audio
  65:DaisySP-LGPL-FX/compressor.h ****         \param in audio input signal
  66:DaisySP-LGPL-FX/compressor.h ****         \param out audio output signal
  67:DaisySP-LGPL-FX/compressor.h ****         \param size the size of the block
  68:DaisySP-LGPL-FX/compressor.h ****     */
  69:DaisySP-LGPL-FX/compressor.h ****     void ProcessBlock(float *in, float *out, size_t size)
  70:DaisySP-LGPL-FX/compressor.h ****     {
  71:DaisySP-LGPL-FX/compressor.h ****         ProcessBlock(in, out, in, size);
 2093              		.loc 11 71 21 is_stmt 0 view .LVU545
 2094 001e 2368     		ldr	r3, [r4]
 2095              	.LBE399:
 2096              	.LBE398:
 347:GrannyChordApp.cpp ****     comp_.ProcessBlock(out[1],out[1],size);
 2097              		.loc 2 347 23 view .LVU546
 2098 0020 08F5B160 		add	r0, r8, #1416
 2099              	.LVL132:
 2100              	.LBB401:
 2101              	.LBI398:
  69:DaisySP-LGPL-FX/compressor.h ****     {
 2102              		.loc 11 69 10 is_stmt 1 view .LVU547
 2103              	.LBB400:
 2104              		.loc 11 71 9 view .LVU548
 2105              		.loc 11 71 21 is_stmt 0 view .LVU549
 2106 0024 0095     		str	r5, [sp]
 2107 0026 1A46     		mov	r2, r3
 2108 0028 1946     		mov	r1, r3
 2109 002a 7860     		str	r0, [r7, #4]
 2110 002c FFF7FEFF 		bl	_ZN7daisysp10Compressor12ProcessBlockEPfS1_S1_j
 2111              	.LVL133:
 2112              		.loc 11 71 21 view .LVU550
 2113              	.LBE400:
 2114              	.LBE401:
 348:GrannyChordApp.cpp **** 
 2115              		.loc 2 348 5 is_stmt 1 view .LVU551
 2116              	.LBB402:
 2117              	.LBI402:
  69:DaisySP-LGPL-FX/compressor.h ****     {
 2118              		.loc 11 69 10 view .LVU552
 2119              	.LBB403:
 2120              		.loc 11 71 9 view .LVU553
 2121              		.loc 11 71 21 is_stmt 0 view .LVU554
 2122 0030 6368     		ldr	r3, [r4, #4]
 2123 0032 0095     		str	r5, [sp]
ARM GAS  /var/folders/2p/02m_5p7958535cp2tpgps0400000gn/T//cco1mNMf.s 			page 64


 2124              	.LVL134:
 2125              		.loc 11 71 21 view .LVU555
 2126 0034 1A46     		mov	r2, r3
 2127 0036 1946     		mov	r1, r3
 2128 0038 7868     		ldr	r0, [r7, #4]
 2129 003a FFF7FEFF 		bl	_ZN7daisysp10Compressor12ProcessBlockEPfS1_S1_j
 2130              	.LVL135:
 2131              		.loc 11 71 21 view .LVU556
 2132              	.LBE403:
 2133              	.LBE402:
 350:GrannyChordApp.cpp ****     float temp_right[size];
 2134              		.loc 2 350 5 is_stmt 1 view .LVU557
 350:GrannyChordApp.cpp ****     float temp_right[size];
 2135              		.loc 2 350 11 is_stmt 0 view .LVU558
 2136 003e AB00     		lsls	r3, r5, #2
 2137 0040 0733     		adds	r3, r3, #7
 2138 0042 23F00703 		bic	r3, r3, #7
 2139 0046 ADEB030D 		sub	sp, sp, r3
 2140 004a 02AE     		add	r6, sp, #8
 2141              	.LVL136:
 351:GrannyChordApp.cpp ****     
 2142              		.loc 2 351 5 is_stmt 1 view .LVU559
 351:GrannyChordApp.cpp ****     
 2143              		.loc 2 351 11 is_stmt 0 view .LVU560
 2144 004c ADEB030D 		sub	sp, sp, r3
 2145              	.LVL137:
 2146              		.loc 2 353 5 is_stmt 1 view .LVU561
 2147              		.loc 2 353 5 is_stmt 0 view .LVU562
 2148 0050 0DF1080A 		add	r10, sp, #8
 2149              	.LVL138:
 2150              	.L128:
 2151              	.LBB404:
 2152              		.loc 2 353 23 is_stmt 1 discriminator 3 view .LVU563
 2153 0054 4D45     		cmp	r5, r9
 2154 0056 17D0     		beq	.L126
 354:GrannyChordApp.cpp ****       temp_left[i] = out[0][i];
 2155              		.loc 2 354 7 discriminator 2 view .LVU564
 2156              		.loc 2 354 30 is_stmt 0 discriminator 2 view .LVU565
 2157 0058 2368     		ldr	r3, [r4]
 355:GrannyChordApp.cpp ****       temp_right[i] = out[1][i];
 356:GrannyChordApp.cpp ****       reverb_->Process(temp_left[i],temp_right[i],&out[0][i],&out[1][i]); // NOTE: check this works
 2158              		.loc 2 356 23 discriminator 2 view .LVU566
 2159 005a D8F8C805 		ldr	r0, [r8, #1480]
 354:GrannyChordApp.cpp ****       temp_left[i] = out[0][i];
 2160              		.loc 2 354 30 discriminator 2 view .LVU567
 2161 005e 03EB8903 		add	r3, r3, r9, lsl #2
 2162 0062 1A68     		ldr	r2, [r3]	@ float
 354:GrannyChordApp.cpp ****       temp_left[i] = out[0][i];
 2163              		.loc 2 354 20 discriminator 2 view .LVU568
 2164 0064 3260     		str	r2, [r6]	@ float
 355:GrannyChordApp.cpp ****       temp_right[i] = out[1][i];
 2165              		.loc 2 355 7 is_stmt 1 discriminator 2 view .LVU569
 355:GrannyChordApp.cpp ****       temp_right[i] = out[1][i];
 2166              		.loc 2 355 31 is_stmt 0 discriminator 2 view .LVU570
 2167 0066 6268     		ldr	r2, [r4, #4]
 2168 0068 02EB8902 		add	r2, r2, r9, lsl #2
 353:GrannyChordApp.cpp ****       temp_left[i] = out[0][i];
ARM GAS  /var/folders/2p/02m_5p7958535cp2tpgps0400000gn/T//cco1mNMf.s 			page 65


 2169              		.loc 2 353 5 discriminator 2 view .LVU571
 2170 006c 09F10109 		add	r9, r9, #1
 2171              	.LVL139:
 355:GrannyChordApp.cpp ****       temp_right[i] = out[1][i];
 2172              		.loc 2 355 31 discriminator 2 view .LVU572
 2173 0070 1168     		ldr	r1, [r2]	@ float
 355:GrannyChordApp.cpp ****       temp_right[i] = out[1][i];
 2174              		.loc 2 355 21 discriminator 2 view .LVU573
 2175 0072 CAF80010 		str	r1, [r10]	@ float
 2176              		.loc 2 356 7 is_stmt 1 discriminator 2 view .LVU574
 2177              		.loc 2 356 23 is_stmt 0 discriminator 2 view .LVU575
 2178 0076 3146     		mov	r1, r6
 2179 0078 0092     		str	r2, [sp]
 2180 007a 5246     		mov	r2, r10
 2181 007c 0436     		adds	r6, r6, #4
 2182 007e 0AF1040A 		add	r10, r10, #4
 2183 0082 FFF7FEFF 		bl	_ZN7daisysp8ReverbSc7ProcessERKfS2_PfS3_
 2184              	.LVL140:
 353:GrannyChordApp.cpp ****       temp_left[i] = out[0][i];
 2185              		.loc 2 353 5 is_stmt 1 discriminator 2 view .LVU576
 353:GrannyChordApp.cpp ****       temp_left[i] = out[0][i];
 2186              		.loc 2 353 5 is_stmt 0 discriminator 2 view .LVU577
 2187 0086 E5E7     		b	.L128
 2188              	.L126:
 353:GrannyChordApp.cpp ****       temp_left[i] = out[0][i];
 2189              		.loc 2 353 5 discriminator 2 view .LVU578
 2190              	.LBE404:
 357:GrannyChordApp.cpp ****     }
 358:GrannyChordApp.cpp **** }
 2191              		.loc 2 358 1 view .LVU579
 2192 0088 0837     		adds	r7, r7, #8
 2193              		.cfi_def_cfa_offset 32
 2194 008a BD46     		mov	sp, r7
 2195              		.cfi_def_cfa_register 13
 2196              	.LVL141:
 2197              		.loc 2 358 1 view .LVU580
 2198              		@ sp needed
 2199 008c BDE8F087 		pop	{r4, r5, r6, r7, r8, r9, r10, pc}
 2200              		.loc 2 358 1 view .LVU581
 2201              		.cfi_endproc
 2202              	.LFE4815:
 2204              		.section	.text._ZN14GrannyChordApp12ProcessAudioEPKPKfPPfj,"ax",%progbits
 2205              		.align	1
 2206              		.global	_ZN14GrannyChordApp12ProcessAudioEPKPKfPPfj
 2207              		.syntax unified
 2208              		.thumb
 2209              		.thumb_func
 2211              	_ZN14GrannyChordApp12ProcessAudioEPKPKfPPfj:
 2212              	.LVL142:
 2213              	.LFB4811:
 273:GrannyChordApp.cpp ****   switch(curr_state_){
 2214              		.loc 2 273 107 is_stmt 1 view -0
 2215              		.cfi_startproc
 2216              		@ args = 0, pretend = 0, frame = 0
 2217              		@ frame_needed = 0, uses_anonymous_args = 0
 2218              		@ link register save eliminated.
 274:GrannyChordApp.cpp ****     case AppState::PlayWAV: 
ARM GAS  /var/folders/2p/02m_5p7958535cp2tpgps0400000gn/T//cco1mNMf.s 			page 66


 2219              		.loc 2 274 3 view .LVU583
 273:GrannyChordApp.cpp ****   switch(curr_state_){
 2220              		.loc 2 273 107 is_stmt 0 view .LVU584
 2221 0000 F0B4     		push	{r4, r5, r6, r7}
 2222              		.cfi_def_cfa_offset 16
 2223              		.cfi_offset 4, -16
 2224              		.cfi_offset 5, -12
 2225              		.cfi_offset 6, -8
 2226              		.cfi_offset 7, -4
 274:GrannyChordApp.cpp ****     case AppState::PlayWAV: 
 2227              		.loc 2 274 10 view .LVU585
 2228 0002 D0F87475 		ldr	r7, [r0, #1396]
 273:GrannyChordApp.cpp ****   switch(curr_state_){
 2229              		.loc 2 273 107 view .LVU586
 2230 0006 1446     		mov	r4, r2
 2231 0008 1D46     		mov	r5, r3
 274:GrannyChordApp.cpp ****     case AppState::PlayWAV: 
 2232              		.loc 2 274 3 view .LVU587
 2233 000a 022F     		cmp	r7, #2
 2234 000c 1BD0     		beq	.L130
 2235 000e 032F     		cmp	r7, #3
 2236 0010 16D0     		beq	.L131
 2237 0012 012F     		cmp	r7, #1
 2238 0014 1CD1     		bne	.L132
 275:GrannyChordApp.cpp ****       if (wav_playhead_>= filemgr_.GetSamplesPerChannel() -1){
 2239              		.loc 2 275 5 is_stmt 1 view .LVU588
 276:GrannyChordApp.cpp ****         AudioIdle(out,size);
 2240              		.loc 2 276 7 view .LVU589
 276:GrannyChordApp.cpp ****         AudioIdle(out,size);
 2241              		.loc 2 276 27 is_stmt 0 view .LVU590
 2242 0016 D0F8AC24 		ldr	r2, [r0, #1196]
 2243              	.LVL143:
 2244              	.LBB405:
 2245              	.LBI405:
  27:AudioFileManager.h ****     size_t GetTotalSamples() const { return header_.total_samples; }
 2246              		.loc 3 27 12 is_stmt 1 view .LVU591
 2247              	.LBB406:
  27:AudioFileManager.h ****     size_t GetTotalSamples() const { return header_.total_samples; }
 2248              		.loc 3 27 43 view .LVU592
  27:AudioFileManager.h ****     size_t GetTotalSamples() const { return header_.total_samples; }
 2249              		.loc 3 27 82 is_stmt 0 view .LVU593
 2250 001a B2F96418 		ldrsh	r1, [r2, #2148]
 2251              	.LVL144:
  27:AudioFileManager.h ****     size_t GetTotalSamples() const { return header_.total_samples; }
 2252              		.loc 3 27 82 view .LVU594
 2253 001e D2F86838 		ldr	r3, [r2, #2152]
 2254              	.LVL145:
  27:AudioFileManager.h ****     size_t GetTotalSamples() const { return header_.total_samples; }
 2255              		.loc 3 27 82 view .LVU595
 2256              	.LBE406:
 2257              	.LBE405:
 276:GrannyChordApp.cpp ****         AudioIdle(out,size);
 2258              		.loc 2 276 7 view .LVU596
 2259 0022 D0F82C26 		ldr	r2, [r0, #1580]
 2260              	.LBB408:
 2261              	.LBB407:
  27:AudioFileManager.h ****     size_t GetTotalSamples() const { return header_.total_samples; }
ARM GAS  /var/folders/2p/02m_5p7958535cp2tpgps0400000gn/T//cco1mNMf.s 			page 67


 2262              		.loc 3 27 82 view .LVU597
 2263 0026 B3FBF1F3 		udiv	r3, r3, r1
 2264              	.LBE407:
 2265              	.LBE408:
 276:GrannyChordApp.cpp ****         AudioIdle(out,size);
 2266              		.loc 2 276 59 view .LVU598
 2267 002a 013B     		subs	r3, r3, #1
 277:GrannyChordApp.cpp ****         break;
 2268              		.loc 2 277 18 view .LVU599
 2269 002c 2146     		mov	r1, r4
 276:GrannyChordApp.cpp ****         AudioIdle(out,size);
 2270              		.loc 2 276 7 view .LVU600
 2271 002e 9A42     		cmp	r2, r3
 277:GrannyChordApp.cpp ****         break;
 2272              		.loc 2 277 18 view .LVU601
 2273 0030 2A46     		mov	r2, r5
 276:GrannyChordApp.cpp ****         AudioIdle(out,size);
 2274              		.loc 2 276 7 view .LVU602
 2275 0032 02D3     		bcc	.L133
 2276              	.L134:
 293:GrannyChordApp.cpp **** 
 2277              		.loc 2 293 1 view .LVU603
 2278 0034 F0BC     		pop	{r4, r5, r6, r7}
 2279              		.cfi_remember_state
 2280              		.cfi_restore 7
 2281              		.cfi_restore 6
 2282              		.cfi_restore 5
 2283              		.cfi_restore 4
 2284              		.cfi_def_cfa_offset 0
 2285              	.LVL146:
 290:GrannyChordApp.cpp ****       break;
 2286              		.loc 2 290 16 view .LVU604
 2287 0036 FFF7FEBF 		b	_ZN14GrannyChordApp9AudioIdleEPPfj
 2288              	.LVL147:
 2289              	.L133:
 2290              		.cfi_restore_state
 280:GrannyChordApp.cpp ****       break;  
 2291              		.loc 2 280 7 is_stmt 1 view .LVU605
 293:GrannyChordApp.cpp **** 
 2292              		.loc 2 293 1 is_stmt 0 view .LVU606
 2293 003a F0BC     		pop	{r4, r5, r6, r7}
 2294              		.cfi_remember_state
 2295              		.cfi_restore 7
 2296              		.cfi_restore 6
 2297              		.cfi_restore 5
 2298              		.cfi_restore 4
 2299              		.cfi_def_cfa_offset 0
 280:GrannyChordApp.cpp ****       break;  
 2300              		.loc 2 280 25 view .LVU607
 2301 003c FFF7FEBF 		b	_ZN14GrannyChordApp18ProcessWAVPlaybackEPPfj
 2302              	.LVL148:
 2303              	.L131:
 2304              		.cfi_restore_state
 282:GrannyChordApp.cpp ****       ProcessRecordIn(in, out, size);
 2305              		.loc 2 282 5 is_stmt 1 view .LVU608
 283:GrannyChordApp.cpp ****       break;
 2306              		.loc 2 283 7 view .LVU609
ARM GAS  /var/folders/2p/02m_5p7958535cp2tpgps0400000gn/T//cco1mNMf.s 			page 68


 293:GrannyChordApp.cpp **** 
 2307              		.loc 2 293 1 is_stmt 0 view .LVU610
 2308 0040 F0BC     		pop	{r4, r5, r6, r7}
 2309              		.cfi_remember_state
 2310              		.cfi_restore 7
 2311              		.cfi_restore 6
 2312              		.cfi_restore 5
 2313              		.cfi_restore 4
 2314              		.cfi_def_cfa_offset 0
 283:GrannyChordApp.cpp ****       break;
 2315              		.loc 2 283 22 view .LVU611
 2316 0042 FFF7FEBF 		b	_ZN14GrannyChordApp15ProcessRecordInEPKPKfPPfj
 2317              	.LVL149:
 2318              	.L130:
 2319              		.cfi_restore_state
 285:GrannyChordApp.cpp ****       ProcessSynthesis(out,size);
 2320              		.loc 2 285 5 is_stmt 1 view .LVU612
 286:GrannyChordApp.cpp ****       break;
 2321              		.loc 2 286 7 view .LVU613
 286:GrannyChordApp.cpp ****       break;
 2322              		.loc 2 286 23 is_stmt 0 view .LVU614
 2323 0046 2146     		mov	r1, r4
 2324              	.LVL150:
 286:GrannyChordApp.cpp ****       break;
 2325              		.loc 2 286 23 view .LVU615
 2326 0048 1A46     		mov	r2, r3
 2327              	.LVL151:
 293:GrannyChordApp.cpp **** 
 2328              		.loc 2 293 1 view .LVU616
 2329 004a F0BC     		pop	{r4, r5, r6, r7}
 2330              		.cfi_remember_state
 2331              		.cfi_restore 7
 2332              		.cfi_restore 6
 2333              		.cfi_restore 5
 2334              		.cfi_restore 4
 2335              		.cfi_def_cfa_offset 0
 2336              	.LVL152:
 286:GrannyChordApp.cpp ****       break;
 2337              		.loc 2 286 23 view .LVU617
 2338 004c FFF7FEBF 		b	_ZN14GrannyChordApp16ProcessSynthesisEPPfj
 2339              	.LVL153:
 2340              	.L132:
 2341              		.cfi_restore_state
 289:GrannyChordApp.cpp ****       AudioIdle(out,size);
 2342              		.loc 2 289 5 is_stmt 1 view .LVU618
 290:GrannyChordApp.cpp ****       break;
 2343              		.loc 2 290 7 view .LVU619
 290:GrannyChordApp.cpp ****       break;
 2344              		.loc 2 290 16 is_stmt 0 view .LVU620
 2345 0050 1A46     		mov	r2, r3
 2346              	.LVL154:
 290:GrannyChordApp.cpp ****       break;
 2347              		.loc 2 290 16 view .LVU621
 2348 0052 2146     		mov	r1, r4
 2349              	.LVL155:
 290:GrannyChordApp.cpp ****       break;
 2350              		.loc 2 290 16 view .LVU622
ARM GAS  /var/folders/2p/02m_5p7958535cp2tpgps0400000gn/T//cco1mNMf.s 			page 69


 2351 0054 EEE7     		b	.L134
 2352              		.cfi_endproc
 2353              	.LFE4811:
 2355              		.section	.text._ZN14GrannyChordApp13AudioCallbackEPKPKfPPfj,"ax",%progbits
 2356              		.align	1
 2357              		.global	_ZN14GrannyChordApp13AudioCallbackEPKPKfPPfj
 2358              		.syntax unified
 2359              		.thumb
 2360              		.thumb_func
 2362              	_ZN14GrannyChordApp13AudioCallbackEPKPKfPPfj:
 2363              	.LVL156:
 2364              	.LFB4810:
 269:GrannyChordApp.cpp ****   instance_->ProcessAudio(in,out,size);
 2365              		.loc 2 269 108 is_stmt 1 view -0
 2366              		.cfi_startproc
 2367              		@ args = 0, pretend = 0, frame = 0
 2368              		@ frame_needed = 0, uses_anonymous_args = 0
 2369              		@ link register save eliminated.
 270:GrannyChordApp.cpp **** }
 2370              		.loc 2 270 3 view .LVU624
 269:GrannyChordApp.cpp ****   instance_->ProcessAudio(in,out,size);
 2371              		.loc 2 269 108 is_stmt 0 view .LVU625
 2372 0000 1346     		mov	r3, r2
 270:GrannyChordApp.cpp **** }
 2373              		.loc 2 270 26 view .LVU626
 2374 0002 0A46     		mov	r2, r1
 2375              	.LVL157:
 270:GrannyChordApp.cpp **** }
 2376              		.loc 2 270 26 view .LVU627
 2377 0004 0146     		mov	r1, r0
 2378              	.LVL158:
 270:GrannyChordApp.cpp **** }
 2379              		.loc 2 270 26 view .LVU628
 2380 0006 0248     		ldr	r0, .L136
 2381              	.LVL159:
 270:GrannyChordApp.cpp **** }
 2382              		.loc 2 270 26 view .LVU629
 2383 0008 0068     		ldr	r0, [r0]
 2384 000a FFF7FEBF 		b	_ZN14GrannyChordApp12ProcessAudioEPKPKfPPfj
 2385              	.LVL160:
 2386              	.L137:
 270:GrannyChordApp.cpp **** }
 2387              		.loc 2 270 26 view .LVU630
 2388 000e 00BF     		.align	2
 2389              	.L136:
 2390 0010 00000000 		.word	.LANCHOR1
 2391              		.cfi_endproc
 2392              	.LFE4810:
 2394              		.section	.text._ZN14GrannyChordApp16ProcessChordModeEPPfj,"ax",%progbits
 2395              		.align	1
 2396              		.global	_ZN14GrannyChordApp16ProcessChordModeEPPfj
 2397              		.syntax unified
 2398              		.thumb
 2399              		.thumb_func
 2401              	_ZN14GrannyChordApp16ProcessChordModeEPPfj:
 2402              	.LVL161:
 2403              	.LFB4816:
ARM GAS  /var/folders/2p/02m_5p7958535cp2tpgps0400000gn/T//cco1mNMf.s 			page 70


 359:GrannyChordApp.cpp **** 
 360:GrannyChordApp.cpp **** /// @brief Process audio from chord mode and mix to output buffer
 361:GrannyChordApp.cpp **** /// @param out Output audio buffer
 362:GrannyChordApp.cpp **** /// @param size Number of samples to process in this call
 363:GrannyChordApp.cpp **** void GrannyChordApp::ProcessChordMode(AudioHandle::OutputBuffer out, size_t size){
 2404              		.loc 2 363 82 is_stmt 1 view -0
 2405              		.cfi_startproc
 2406              		@ args = 0, pretend = 0, frame = 0
 2407              		@ frame_needed = 0, uses_anonymous_args = 0
 2408              		@ link register save eliminated.
 364:GrannyChordApp.cpp ****   // if (UserTriggeredChord()) {
 365:GrannyChordApp.cpp ****   //   synth_.TriggerChord(out[0], out[1], size);
 366:GrannyChordApp.cpp ****   // } else {
 367:GrannyChordApp.cpp ****   //     std::memset(out[0], 0, size * sizeof(float));
 368:GrannyChordApp.cpp ****   //     std::memset(out[1], 0, size * sizeof(float));
 369:GrannyChordApp.cpp ****   // }
 370:GrannyChordApp.cpp **** }
 2409              		.loc 2 370 1 is_stmt 0 view .LVU632
 2410 0000 7047     		bx	lr
 2411              		.cfi_endproc
 2412              	.LFE4816:
 2414              		.section	.rodata._ZN14GrannyChordApp13RecordOutToSDEPPfj.str1.1,"aMS",%progbits,1
 2415              	.LC6:
 2416 0000 7265636F 		.ascii	"recording_%d\000"
 2416      7264696E 
 2416      675F2564 
 2416      00
 2417              		.section	.text._ZN14GrannyChordApp13RecordOutToSDEPPfj,"ax",%progbits
 2418              		.align	1
 2419              		.global	_ZN14GrannyChordApp13RecordOutToSDEPPfj
 2420              		.syntax unified
 2421              		.thumb
 2422              		.thumb_func
 2424              	_ZN14GrannyChordApp13RecordOutToSDEPPfj:
 2425              	.LVL162:
 2426              	.LFB4817:
 371:GrannyChordApp.cpp **** 
 372:GrannyChordApp.cpp **** /// @brief Record granular synth or chord output audio to SD card
 373:GrannyChordApp.cpp **** /// @param out Output audio buffer
 374:GrannyChordApp.cpp **** /// @param size Number of samples to process in this call
 375:GrannyChordApp.cpp **** void GrannyChordApp::RecordOutToSD(AudioHandle::OutputBuffer out, size_t size){
 2427              		.loc 2 375 79 is_stmt 1 view -0
 2428              		.cfi_startproc
 2429              		@ args = 0, pretend = 0, frame = 40
 2430              		@ frame_needed = 0, uses_anonymous_args = 0
 376:GrannyChordApp.cpp ****   InitWavWriter();
 2431              		.loc 2 376 3 view .LVU634
 375:GrannyChordApp.cpp ****   InitWavWriter();
 2432              		.loc 2 375 79 is_stmt 0 view .LVU635
 2433 0000 F0B5     		push	{r4, r5, r6, r7, lr}
 2434              		.cfi_def_cfa_offset 20
 2435              		.cfi_offset 4, -20
 2436              		.cfi_offset 5, -16
 2437              		.cfi_offset 6, -12
 2438              		.cfi_offset 7, -8
 2439              		.cfi_offset 14, -4
 2440 0002 0446     		mov	r4, r0
ARM GAS  /var/folders/2p/02m_5p7958535cp2tpgps0400000gn/T//cco1mNMf.s 			page 71


 2441 0004 8BB0     		sub	sp, sp, #44
 2442              		.cfi_def_cfa_offset 64
 377:GrannyChordApp.cpp ****   char name[32];
 378:GrannyChordApp.cpp ****   sprintf(name,"recording_%d",recording_count_);
 2443              		.loc 2 378 10 view .LVU636
 2444 0006 00F50045 		add	r5, r0, #32768
 376:GrannyChordApp.cpp ****   char name[32];
 2445              		.loc 2 376 16 view .LVU637
 2446 000a FFF7FEFF 		bl	_ZN14GrannyChordApp13InitWavWriterEv
 2447              	.LVL163:
 377:GrannyChordApp.cpp ****   char name[32];
 2448              		.loc 2 377 3 is_stmt 1 view .LVU638
 2449              		.loc 2 378 3 view .LVU639
 2450              	.LBB413:
 2451              	.LBB414:
 157:../libDaisy/src/util/WavWriter.h ****         {
 2452              		.loc 6 157 18 is_stmt 0 view .LVU640
 2453 000e 04F50646 		add	r6, r4, #34304
 2454              	.LBE414:
 2455              	.LBE413:
 2456              		.loc 2 378 10 view .LVU641
 2457 0012 1349     		ldr	r1, .L142
 2458 0014 D5F8E428 		ldr	r2, [r5, #2276]
 2459 0018 02A8     		add	r0, sp, #8
 2460              	.LVL164:
 2461              	.LBB418:
 2462              	.LBB416:
 157:../libDaisy/src/util/WavWriter.h ****         {
 2463              		.loc 6 157 18 view .LVU642
 2464 001a B836     		adds	r6, r6, #184
 2465              	.LBE416:
 2466              	.LBE418:
 2467              		.loc 2 378 10 view .LVU643
 2468 001c FFF7FEFF 		bl	sprintf
 2469              	.LVL165:
 379:GrannyChordApp.cpp ****   sd_out_writer_.OpenFile(name);
 2470              		.loc 2 379 3 is_stmt 1 view .LVU644
 2471              	.LBB419:
 2472              	.LBI413:
 155:../libDaisy/src/util/WavWriter.h ****     {
 2473              		.loc 6 155 10 view .LVU645
 2474              	.LBB417:
 157:../libDaisy/src/util/WavWriter.h ****         {
 2475              		.loc 6 157 18 is_stmt 0 view .LVU646
 2476 0020 0A22     		movs	r2, #10
 2477 0022 02A9     		add	r1, sp, #8
 2478              	.LVL166:
 157:../libDaisy/src/util/WavWriter.h ****         {
 2479              		.loc 6 157 18 view .LVU647
 2480 0024 3046     		mov	r0, r6
 2481 0026 04F5CE67 		add	r7, r4, #1648
 2482              	.LVL167:
 157:../libDaisy/src/util/WavWriter.h ****         {
 2483              		.loc 6 157 18 view .LVU648
 2484 002a FFF7FEFF 		bl	f_open
 2485              	.LVL168:
 157:../libDaisy/src/util/WavWriter.h ****         {
ARM GAS  /var/folders/2p/02m_5p7958535cp2tpgps0400000gn/T//cco1mNMf.s 			page 72


 2486              		.loc 6 157 9 view .LVU649
 2487 002e 60B9     		cbnz	r0, .L140
 2488              	.LBB415:
 159:../libDaisy/src/util/WavWriter.h ****             if(f_write(&fp_, &wavheader_, sizeof(wavheader_), &bw) == FR_OK)
 2489              		.loc 6 159 26 view .LVU650
 2490 0030 0190     		str	r0, [sp, #4]
 160:../libDaisy/src/util/WavWriter.h ****             {
 2491              		.loc 6 160 23 view .LVU651
 2492 0032 01AB     		add	r3, sp, #4
 2493 0034 2C22     		movs	r2, #44
 2494 0036 3946     		mov	r1, r7
 2495 0038 3046     		mov	r0, r6
 2496 003a FFF7FEFF 		bl	f_write
 2497              	.LVL169:
 160:../libDaisy/src/util/WavWriter.h ****             {
 2498              		.loc 6 160 13 view .LVU652
 2499 003e 20B9     		cbnz	r0, .L140
 162:../libDaisy/src/util/WavWriter.h ****                 num_samps_ = 0;
 2500              		.loc 6 162 28 view .LVU653
 2501 0040 0123     		movs	r3, #1
 2502 0042 85F8B436 		strb	r3, [r5, #1716]
 163:../libDaisy/src/util/WavWriter.h ****             }
 2503              		.loc 6 163 28 view .LVU654
 2504 0046 C4F89C06 		str	r0, [r4, #1692]
 2505              	.L140:
 2506              	.LVL170:
 163:../libDaisy/src/util/WavWriter.h ****             }
 2507              		.loc 6 163 28 view .LVU655
 2508              	.LBE415:
 2509              	.LBE417:
 2510              	.LBE419:
 380:GrannyChordApp.cpp ****   recording_count_++;
 2511              		.loc 2 380 3 is_stmt 1 view .LVU656
 2512              		.loc 2 380 19 is_stmt 0 view .LVU657
 2513 004a D5F8E438 		ldr	r3, [r5, #2276]
 2514 004e 0133     		adds	r3, r3, #1
 2515 0050 C5F8E438 		str	r3, [r5, #2276]
 381:GrannyChordApp.cpp ****   recording_out_ = true;
 2516              		.loc 2 381 3 is_stmt 1 view .LVU658
 2517              		.loc 2 381 18 is_stmt 0 view .LVU659
 2518 0054 0123     		movs	r3, #1
 2519 0056 84F86C36 		strb	r3, [r4, #1644]
 382:GrannyChordApp.cpp ****   // NOTE: what now? do i just record in audiocallback? 
 383:GrannyChordApp.cpp **** 
 384:GrannyChordApp.cpp **** //    Open a new file for writing with: writer.OpenFile("FileName.wav")
 385:GrannyChordApp.cpp **** //  ** 5. Write to it within your audio callback using: writer.Sample(value)
 386:GrannyChordApp.cpp **** //  ** 6. Fill the Wav File on the SD Card with data from your main loop by running: writer.Write()
 387:GrannyChordApp.cpp **** //  ** 7. When finished with the recording finalize, and close the file with: writer.SaveFile();
 388:GrannyChordApp.cpp **** // NOTE: 
 389:GrannyChordApp.cpp **** // USE THIS 
 390:GrannyChordApp.cpp **** // https://electro-smith.github.io/libDaisy/classdaisy_1_1_wav_writer.html
 391:GrannyChordApp.cpp **** 
 392:GrannyChordApp.cpp ****   // create file on sd card 
 393:GrannyChordApp.cpp ****   // write in blocks]
 394:GrannyChordApp.cpp ****   // will have to f2s16 to conv back to int16 
 395:GrannyChordApp.cpp ****   // max recording duration should be 120*48000*sizeof(float)*2(channels)??
 396:GrannyChordApp.cpp ****   // wrap around index ? or just stop recording at max length
ARM GAS  /var/folders/2p/02m_5p7958535cp2tpgps0400000gn/T//cco1mNMf.s 			page 73


 397:GrannyChordApp.cpp ****   // could flash seed led if wrapping, solid if stop at max
 398:GrannyChordApp.cpp ****   // write straight to sd card?
 399:GrannyChordApp.cpp ****   // or is it better to write to a circular buffer in SDRAM
 400:GrannyChordApp.cpp ****   // then asynchronously/more slowly write to SD card
 401:GrannyChordApp.cpp ****   // reset recording buffer pointer
 402:GrannyChordApp.cpp ****   // set up audio input gain or anything?
 403:GrannyChordApp.cpp ****   // init sample counter for recording duration? 
 404:GrannyChordApp.cpp ****   // when finished: update file headers
 405:GrannyChordApp.cpp ****   // update UI to show recording finished
 406:GrannyChordApp.cpp **** 
 407:GrannyChordApp.cpp ****   // don't stop audio since i'm recording
 408:GrannyChordApp.cpp **** }
 2520              		.loc 2 408 1 view .LVU660
 2521 005a 0BB0     		add	sp, sp, #44
 2522              		.cfi_def_cfa_offset 20
 2523              		@ sp needed
 2524 005c F0BD     		pop	{r4, r5, r6, r7, pc}
 2525              	.LVL171:
 2526              	.L143:
 2527              		.loc 2 408 1 view .LVU661
 2528 005e 00BF     		.align	2
 2529              	.L142:
 2530 0060 00000000 		.word	.LC6
 2531              		.cfi_endproc
 2532              	.LFE4817:
 2534              		.section	.text._ZN14GrannyChordApp17UpdateKnob1ParamsEf9SynthMode,"ax",%progbits
 2535              		.align	1
 2536              		.global	_ZN14GrannyChordApp17UpdateKnob1ParamsEf9SynthMode
 2537              		.syntax unified
 2538              		.thumb
 2539              		.thumb_func
 2541              	_ZN14GrannyChordApp17UpdateKnob1ParamsEf9SynthMode:
 2542              	.LVL172:
 2543              	.LFB4818:
 409:GrannyChordApp.cpp **** 
 410:GrannyChordApp.cpp **** // void GrannyChordApp::ToggleRecordOut(){
 411:GrannyChordApp.cpp **** //   recording_out_ = !recording_out_;
 412:GrannyChordApp.cpp **** // }
 413:GrannyChordApp.cpp **** 
 414:GrannyChordApp.cpp **** 
 415:GrannyChordApp.cpp **** void GrannyChordApp::UpdateKnob1Params(float knob1_val, SynthMode mode){
 2544              		.loc 2 415 72 is_stmt 1 view -0
 2545              		.cfi_startproc
 2546              		@ args = 0, pretend = 0, frame = 0
 2547              		@ frame_needed = 0, uses_anonymous_args = 0
 2548              		@ link register save eliminated.
 416:GrannyChordApp.cpp ****   switch (mode){
 2549              		.loc 2 416 3 view .LVU663
 2550 0000 0829     		cmp	r1, #8
 2551 0002 46D8     		bhi	.L144
 2552 0004 DFE801F0 		tbb	[pc, r1]
 2553              	.L147:
 2554 0008 05       		.byte	(.L155-.L147)/2
 2555 0009 21       		.byte	(.L154-.L147)/2
 2556 000a 08       		.byte	(.L153-.L147)/2
 2557 000b 26       		.byte	(.L152-.L147)/2
 2558 000c 0E       		.byte	(.L151-.L147)/2
ARM GAS  /var/folders/2p/02m_5p7958535cp2tpgps0400000gn/T//cco1mNMf.s 			page 74


 2559 000d 29       		.byte	(.L150-.L147)/2
 2560 000e 0B       		.byte	(.L149-.L147)/2
 2561 000f 2C       		.byte	(.L148-.L147)/2
 2562 0010 31       		.byte	(.L146-.L147)/2
 2563 0011 00       		.p2align 1
 2564              	.L155:
 417:GrannyChordApp.cpp ****     case SynthMode::Size_Position:
 2565              		.loc 2 417 5 view .LVU664
 418:GrannyChordApp.cpp ****       synth_.SetGrainSize(knob1_val);
 2566              		.loc 2 418 7 view .LVU665
 2567              		.loc 2 418 26 is_stmt 0 view .LVU666
 2568 0012 0430     		adds	r0, r0, #4
 2569              	.LVL173:
 2570              		.loc 2 418 26 view .LVU667
 2571 0014 FFF7FEBF 		b	_ZN13GranularSynth12SetGrainSizeEf
 2572              	.LVL174:
 2573              	.L153:
 419:GrannyChordApp.cpp ****       break;
 420:GrannyChordApp.cpp ****     case SynthMode::Pitch_ActiveGrains:
 2574              		.loc 2 420 5 is_stmt 1 view .LVU668
 421:GrannyChordApp.cpp ****       synth_.SetPitchRatio(knob1_val);
 2575              		.loc 2 421 7 view .LVU669
 2576              		.loc 2 421 27 is_stmt 0 view .LVU670
 2577 0018 0430     		adds	r0, r0, #4
 2578              	.LVL175:
 2579              		.loc 2 421 27 view .LVU671
 2580 001a FFF7FEBF 		b	_ZN13GranularSynth13SetPitchRatioEf
 2581              	.LVL176:
 2582              	.L149:
 422:GrannyChordApp.cpp ****       break;
 423:GrannyChordApp.cpp ****     case SynthMode::Pan_PanRnd:
 2583              		.loc 2 423 5 is_stmt 1 view .LVU672
 424:GrannyChordApp.cpp ****       synth_.SetPan(knob1_val);
 2584              		.loc 2 424 7 view .LVU673
 2585              		.loc 2 424 20 is_stmt 0 view .LVU674
 2586 001e 0430     		adds	r0, r0, #4
 2587              	.LVL177:
 2588              		.loc 2 424 20 view .LVU675
 2589 0020 FFF7FEBF 		b	_ZN13GranularSynth6SetPanEf
 2590              	.LVL178:
 2591              	.L151:
 425:GrannyChordApp.cpp ****       break;
 426:GrannyChordApp.cpp ****     case SynthMode::PhasorMode_EnvType:
 2592              		.loc 2 426 5 is_stmt 1 view .LVU676
 427:GrannyChordApp.cpp ****       knob1_val = fmap(knob1_val, 0, NUM_PHASOR_MODES);
 2593              		.loc 2 427 7 view .LVU677
 2594              	.LBB420:
 2595              	.LBI420:
 2596              		.file 12 "../DaisySP/Source/Utility/dsp.h"
   1:../DaisySP/Source/Utility/dsp.h **** /*
   2:../DaisySP/Source/Utility/dsp.h **** Copyright (c) 2020 Electrosmith, Corp, Emilie Gillet
   3:../DaisySP/Source/Utility/dsp.h **** 
   4:../DaisySP/Source/Utility/dsp.h **** Use of this source code is governed by an MIT-style
   5:../DaisySP/Source/Utility/dsp.h **** license that can be found in the LICENSE file or at
   6:../DaisySP/Source/Utility/dsp.h **** https://opensource.org/licenses/MIT.
   7:../DaisySP/Source/Utility/dsp.h **** */
   8:../DaisySP/Source/Utility/dsp.h **** 
ARM GAS  /var/folders/2p/02m_5p7958535cp2tpgps0400000gn/T//cco1mNMf.s 			page 75


   9:../DaisySP/Source/Utility/dsp.h **** /** Helpful defines, functions, and other utilities for use in/with daisysp modules.
  10:../DaisySP/Source/Utility/dsp.h **** */
  11:../DaisySP/Source/Utility/dsp.h **** #pragma once
  12:../DaisySP/Source/Utility/dsp.h **** #ifndef DSY_CORE_DSP
  13:../DaisySP/Source/Utility/dsp.h **** #define DSY_CORE_DSP
  14:../DaisySP/Source/Utility/dsp.h **** #include <cassert>
  15:../DaisySP/Source/Utility/dsp.h **** #include <cstdint>
  16:../DaisySP/Source/Utility/dsp.h **** #include <random>
  17:../DaisySP/Source/Utility/dsp.h **** #include <cmath>
  18:../DaisySP/Source/Utility/dsp.h **** 
  19:../DaisySP/Source/Utility/dsp.h **** /** PIs
  20:../DaisySP/Source/Utility/dsp.h **** */
  21:../DaisySP/Source/Utility/dsp.h **** #define PI_F 3.1415927410125732421875f
  22:../DaisySP/Source/Utility/dsp.h **** #define TWOPI_F (2.0f * PI_F)
  23:../DaisySP/Source/Utility/dsp.h **** #define HALFPI_F (PI_F * 0.5f)
  24:../DaisySP/Source/Utility/dsp.h **** #define DSY_MIN(in, mn) (in < mn ? in : mn)
  25:../DaisySP/Source/Utility/dsp.h **** #define DSY_MAX(in, mx) (in > mx ? in : mx)
  26:../DaisySP/Source/Utility/dsp.h **** #define DSY_CLAMP(in, mn, mx) (DSY_MIN(DSY_MAX(in, mn), mx))
  27:../DaisySP/Source/Utility/dsp.h **** #define DSY_COUNTOF(_arr) (sizeof(_arr) / sizeof(_arr[0]))
  28:../DaisySP/Source/Utility/dsp.h **** 
  29:../DaisySP/Source/Utility/dsp.h **** namespace daisysp
  30:../DaisySP/Source/Utility/dsp.h **** {
  31:../DaisySP/Source/Utility/dsp.h **** //Avoids division for random floats. e.g. rand() * kRandFrac
  32:../DaisySP/Source/Utility/dsp.h **** static constexpr float kRandFrac = 1.f / (float)RAND_MAX;
  33:../DaisySP/Source/Utility/dsp.h **** 
  34:../DaisySP/Source/Utility/dsp.h **** //Convert from semitones to other units. e.g. 2 ^ (kOneTwelfth * x)
  35:../DaisySP/Source/Utility/dsp.h **** static constexpr float kOneTwelfth = 1.f / 12.f;
  36:../DaisySP/Source/Utility/dsp.h **** 
  37:../DaisySP/Source/Utility/dsp.h **** /** efficient floating point min/max
  38:../DaisySP/Source/Utility/dsp.h **** c/o stephen mccaul
  39:../DaisySP/Source/Utility/dsp.h **** */
  40:../DaisySP/Source/Utility/dsp.h **** inline float fmax(float a, float b)
  41:../DaisySP/Source/Utility/dsp.h **** {
  42:../DaisySP/Source/Utility/dsp.h ****     float r;
  43:../DaisySP/Source/Utility/dsp.h **** #ifdef __arm__
  44:../DaisySP/Source/Utility/dsp.h ****     asm("vmaxnm.f32 %[d], %[n], %[m]" : [d] "=t"(r) : [n] "t"(a), [m] "t"(b) :);
  45:../DaisySP/Source/Utility/dsp.h **** #else
  46:../DaisySP/Source/Utility/dsp.h ****     r = (a > b) ? a : b;
  47:../DaisySP/Source/Utility/dsp.h **** #endif // __arm__
  48:../DaisySP/Source/Utility/dsp.h ****     return r;
  49:../DaisySP/Source/Utility/dsp.h **** }
  50:../DaisySP/Source/Utility/dsp.h **** 
  51:../DaisySP/Source/Utility/dsp.h **** inline float fmin(float a, float b)
  52:../DaisySP/Source/Utility/dsp.h **** {
  53:../DaisySP/Source/Utility/dsp.h ****     float r;
  54:../DaisySP/Source/Utility/dsp.h **** #ifdef __arm__
  55:../DaisySP/Source/Utility/dsp.h ****     asm("vminnm.f32 %[d], %[n], %[m]" : [d] "=t"(r) : [n] "t"(a), [m] "t"(b) :);
  56:../DaisySP/Source/Utility/dsp.h **** #else
  57:../DaisySP/Source/Utility/dsp.h ****     r = (a < b) ? a : b;
  58:../DaisySP/Source/Utility/dsp.h **** #endif // __arm__
  59:../DaisySP/Source/Utility/dsp.h ****     return r;
  60:../DaisySP/Source/Utility/dsp.h **** }
  61:../DaisySP/Source/Utility/dsp.h **** 
  62:../DaisySP/Source/Utility/dsp.h **** /** quick fp clamp
  63:../DaisySP/Source/Utility/dsp.h **** */
  64:../DaisySP/Source/Utility/dsp.h **** inline float fclamp(float in, float min, float max)
  65:../DaisySP/Source/Utility/dsp.h **** {
ARM GAS  /var/folders/2p/02m_5p7958535cp2tpgps0400000gn/T//cco1mNMf.s 			page 76


  66:../DaisySP/Source/Utility/dsp.h ****     return fmin(fmax(in, min), max);
  67:../DaisySP/Source/Utility/dsp.h **** }
  68:../DaisySP/Source/Utility/dsp.h **** 
  69:../DaisySP/Source/Utility/dsp.h **** /** From Musicdsp.org "Fast power and root estimates for 32bit floats)
  70:../DaisySP/Source/Utility/dsp.h **** Original code by Stefan Stenzel
  71:../DaisySP/Source/Utility/dsp.h **** These are approximations
  72:../DaisySP/Source/Utility/dsp.h **** */
  73:../DaisySP/Source/Utility/dsp.h **** inline float fastpower(float f, int n)
  74:../DaisySP/Source/Utility/dsp.h **** {
  75:../DaisySP/Source/Utility/dsp.h ****     long *lp, l;
  76:../DaisySP/Source/Utility/dsp.h ****     lp = (long *)(&f);
  77:../DaisySP/Source/Utility/dsp.h ****     l  = *lp;
  78:../DaisySP/Source/Utility/dsp.h ****     l -= 0x3F800000;
  79:../DaisySP/Source/Utility/dsp.h ****     l <<= (n - 1);
  80:../DaisySP/Source/Utility/dsp.h ****     l += 0x3F800000;
  81:../DaisySP/Source/Utility/dsp.h ****     *lp = l;
  82:../DaisySP/Source/Utility/dsp.h ****     return f;
  83:../DaisySP/Source/Utility/dsp.h **** }
  84:../DaisySP/Source/Utility/dsp.h **** 
  85:../DaisySP/Source/Utility/dsp.h **** inline float fastroot(float f, int n)
  86:../DaisySP/Source/Utility/dsp.h **** {
  87:../DaisySP/Source/Utility/dsp.h ****     long *lp, l;
  88:../DaisySP/Source/Utility/dsp.h ****     lp = (long *)(&f);
  89:../DaisySP/Source/Utility/dsp.h ****     l  = *lp;
  90:../DaisySP/Source/Utility/dsp.h ****     l -= 0x3F800000;
  91:../DaisySP/Source/Utility/dsp.h ****     l >>= (n - 1);
  92:../DaisySP/Source/Utility/dsp.h ****     l += 0x3F800000;
  93:../DaisySP/Source/Utility/dsp.h ****     *lp = l;
  94:../DaisySP/Source/Utility/dsp.h ****     return f;
  95:../DaisySP/Source/Utility/dsp.h **** }
  96:../DaisySP/Source/Utility/dsp.h **** 
  97:../DaisySP/Source/Utility/dsp.h **** /** Significantly more efficient than fmodf(x, 1.0f) for calculating
  98:../DaisySP/Source/Utility/dsp.h ****  *  the decimal part of a floating point value.
  99:../DaisySP/Source/Utility/dsp.h ****  */
 100:../DaisySP/Source/Utility/dsp.h **** inline float fastmod1f(float x)
 101:../DaisySP/Source/Utility/dsp.h **** {
 102:../DaisySP/Source/Utility/dsp.h ****     return x - static_cast<int>(x);
 103:../DaisySP/Source/Utility/dsp.h **** }
 104:../DaisySP/Source/Utility/dsp.h **** 
 105:../DaisySP/Source/Utility/dsp.h **** /** From http://openaudio.blogspot.com/2017/02/faster-log10-and-pow.html
 106:../DaisySP/Source/Utility/dsp.h **** No approximation, pow10f(x) gives a 90% speed increase over powf(10.f, x)
 107:../DaisySP/Source/Utility/dsp.h **** */
 108:../DaisySP/Source/Utility/dsp.h **** inline float pow10f(float f)
 109:../DaisySP/Source/Utility/dsp.h **** {
 110:../DaisySP/Source/Utility/dsp.h ****     return expf(2.302585092994046f * f);
 111:../DaisySP/Source/Utility/dsp.h **** }
 112:../DaisySP/Source/Utility/dsp.h **** 
 113:../DaisySP/Source/Utility/dsp.h **** /* Original code for fastlog2f by Dr. Paul Beckmann from the ARM community forum, adapted from the 
 114:../DaisySP/Source/Utility/dsp.h **** About 25% performance increase over std::log10f
 115:../DaisySP/Source/Utility/dsp.h **** */
 116:../DaisySP/Source/Utility/dsp.h **** inline float fastlog2f(float f)
 117:../DaisySP/Source/Utility/dsp.h **** {
 118:../DaisySP/Source/Utility/dsp.h ****     float frac;
 119:../DaisySP/Source/Utility/dsp.h ****     int   exp;
 120:../DaisySP/Source/Utility/dsp.h ****     frac = frexpf(fabsf(f), &exp);
 121:../DaisySP/Source/Utility/dsp.h ****     f    = 1.23149591368684f;
 122:../DaisySP/Source/Utility/dsp.h ****     f *= frac;
ARM GAS  /var/folders/2p/02m_5p7958535cp2tpgps0400000gn/T//cco1mNMf.s 			page 77


 123:../DaisySP/Source/Utility/dsp.h ****     f += -4.11852516267426f;
 124:../DaisySP/Source/Utility/dsp.h ****     f *= frac;
 125:../DaisySP/Source/Utility/dsp.h ****     f += 6.02197014179219f;
 126:../DaisySP/Source/Utility/dsp.h ****     f *= frac;
 127:../DaisySP/Source/Utility/dsp.h ****     f += -3.13396450166353f;
 128:../DaisySP/Source/Utility/dsp.h ****     f += exp;
 129:../DaisySP/Source/Utility/dsp.h ****     return (f);
 130:../DaisySP/Source/Utility/dsp.h **** }
 131:../DaisySP/Source/Utility/dsp.h **** 
 132:../DaisySP/Source/Utility/dsp.h **** inline float fastlog10f(float f)
 133:../DaisySP/Source/Utility/dsp.h **** {
 134:../DaisySP/Source/Utility/dsp.h ****     return fastlog2f(f) * 0.3010299956639812f;
 135:../DaisySP/Source/Utility/dsp.h **** }
 136:../DaisySP/Source/Utility/dsp.h **** 
 137:../DaisySP/Source/Utility/dsp.h **** /** Midi to frequency helper
 138:../DaisySP/Source/Utility/dsp.h **** */
 139:../DaisySP/Source/Utility/dsp.h **** inline float mtof(float m)
 140:../DaisySP/Source/Utility/dsp.h **** {
 141:../DaisySP/Source/Utility/dsp.h ****     return powf(2, (m - 69.0f) / 12.0f) * 440.0f;
 142:../DaisySP/Source/Utility/dsp.h **** }
 143:../DaisySP/Source/Utility/dsp.h **** 
 144:../DaisySP/Source/Utility/dsp.h **** 
 145:../DaisySP/Source/Utility/dsp.h **** /** one pole lpf
 146:../DaisySP/Source/Utility/dsp.h **** out is passed by reference, and must be retained between
 147:../DaisySP/Source/Utility/dsp.h **** calls to properly filter the signal
 148:../DaisySP/Source/Utility/dsp.h **** coeff can be calculated:
 149:../DaisySP/Source/Utility/dsp.h **** coeff = 1.0 / (time * sample_rate) ; where time is in seconds
 150:../DaisySP/Source/Utility/dsp.h **** */
 151:../DaisySP/Source/Utility/dsp.h **** inline void fonepole(float &out, float in, float coeff)
 152:../DaisySP/Source/Utility/dsp.h **** {
 153:../DaisySP/Source/Utility/dsp.h ****     out += coeff * (in - out);
 154:../DaisySP/Source/Utility/dsp.h **** }
 155:../DaisySP/Source/Utility/dsp.h **** 
 156:../DaisySP/Source/Utility/dsp.h **** /** Curves to use with the fmap function */
 157:../DaisySP/Source/Utility/dsp.h **** enum class Mapping
 158:../DaisySP/Source/Utility/dsp.h **** {
 159:../DaisySP/Source/Utility/dsp.h ****     LINEAR,
 160:../DaisySP/Source/Utility/dsp.h ****     EXP,
 161:../DaisySP/Source/Utility/dsp.h ****     LOG,
 162:../DaisySP/Source/Utility/dsp.h **** };
 163:../DaisySP/Source/Utility/dsp.h **** 
 164:../DaisySP/Source/Utility/dsp.h **** /** Maps a float between a specified range, using a specified curve.
 165:../DaisySP/Source/Utility/dsp.h ****  *
 166:../DaisySP/Source/Utility/dsp.h ****  *  \param in a value between 0 to 1 that will be mapped to the new range.
 167:../DaisySP/Source/Utility/dsp.h ****  *  \param min the new minimum value
 168:../DaisySP/Source/Utility/dsp.h ****  *  \param max the new maxmimum value
 169:../DaisySP/Source/Utility/dsp.h ****  *  \param curve a Mapping Value to adjust the response curve of the transformation
 170:../DaisySP/Source/Utility/dsp.h ****  *               defaults to Linear. @see Mapping
 171:../DaisySP/Source/Utility/dsp.h ****  *
 172:../DaisySP/Source/Utility/dsp.h ****  *  When using the log curve min and max, must be greater than zero.
 173:../DaisySP/Source/Utility/dsp.h ****  *
 174:../DaisySP/Source/Utility/dsp.h ****  *  \retval returns the transformed float within the new range.
 175:../DaisySP/Source/Utility/dsp.h **** */
 176:../DaisySP/Source/Utility/dsp.h **** inline float
 177:../DaisySP/Source/Utility/dsp.h **** fmap(float in, float min, float max, Mapping curve = Mapping::LINEAR)
 2597              		.loc 12 177 1 view .LVU678
 2598              	.LBE420:
ARM GAS  /var/folders/2p/02m_5p7958535cp2tpgps0400000gn/T//cco1mNMf.s 			page 78


 178:../DaisySP/Source/Utility/dsp.h **** {
 179:../DaisySP/Source/Utility/dsp.h ****     switch(curve)
 2599              		.loc 12 179 5 view .LVU679
 2600              	.LBB430:
 2601              	.LBB421:
 180:../DaisySP/Source/Utility/dsp.h ****     {
 181:../DaisySP/Source/Utility/dsp.h ****         case Mapping::EXP:
 182:../DaisySP/Source/Utility/dsp.h ****             return fclamp(min + (in * in) * (max - min), min, max);
 183:../DaisySP/Source/Utility/dsp.h ****         case Mapping::LOG:
 184:../DaisySP/Source/Utility/dsp.h ****         {
 185:../DaisySP/Source/Utility/dsp.h ****             const float a = 1.f / log10f(max / min);
 186:../DaisySP/Source/Utility/dsp.h ****             return fclamp(min * powf(10, in / a), min, max);
 187:../DaisySP/Source/Utility/dsp.h ****         }
 188:../DaisySP/Source/Utility/dsp.h ****         case Mapping::LINEAR:
 2602              		.loc 12 188 9 view .LVU680
 189:../DaisySP/Source/Utility/dsp.h ****         default: return fclamp(min + in * (max - min), min, max);
 2603              		.loc 12 189 9 view .LVU681
 2604              		.loc 12 189 18 view .LVU682
 2605              		.loc 12 189 31 is_stmt 0 view .LVU683
 2606 0024 DFED1B6A 		vldr.32	s13, .L157
 2607 0028 B1EE007A 		vmov.f32	s14, #4.0e+0
 2608              	.LBE421:
 2609              	.LBE430:
 428:GrannyChordApp.cpp ****       synth_.SetPhasorMode(static_cast<GrainPhasor::Mode>(knob1_val));
 2610              		.loc 2 428 27 view .LVU684
 2611 002c 0430     		adds	r0, r0, #4
 2612              	.LVL179:
 2613              	.LBB431:
 2614              	.LBB428:
 2615              		.loc 12 189 31 view .LVU685
 2616 002e F0EE667A 		vmov.f32	s15, s13
 2617 0032 E0EE077A 		vfma.f32	s15, s0, s14
 2618              	.LVL180:
 2619              	.LBB422:
 2620              	.LBI422:
  64:../DaisySP/Source/Utility/dsp.h **** {
 2621              		.loc 12 64 14 is_stmt 1 view .LVU686
 2622              	.LBE422:
 2623              	.LBE428:
 2624              	.LBE431:
  66:../DaisySP/Source/Utility/dsp.h **** }
 2625              		.loc 12 66 5 view .LVU687
 2626              	.LBB432:
 2627              	.LBB429:
 2628              	.LBB427:
 2629              	.LBB423:
 2630              	.LBI423:
  40:../DaisySP/Source/Utility/dsp.h **** {
 2631              		.loc 12 40 14 view .LVU688
 2632              	.LBB424:
  42:../DaisySP/Source/Utility/dsp.h **** #ifdef __arm__
 2633              		.loc 12 42 5 view .LVU689
  44:../DaisySP/Source/Utility/dsp.h **** #else
 2634              		.loc 12 44 5 view .LVU690
 2635              		.syntax unified
 2636              	@ 44 "../DaisySP/Source/Utility/dsp.h" 1
 2637 0036 C7FEA67A 		vmaxnm.f32 s15, s15, s13
ARM GAS  /var/folders/2p/02m_5p7958535cp2tpgps0400000gn/T//cco1mNMf.s 			page 79


 2638              	@ 0 "" 2
 2639              	.LVL181:
  48:../DaisySP/Source/Utility/dsp.h **** }
 2640              		.loc 12 48 5 view .LVU691
  48:../DaisySP/Source/Utility/dsp.h **** }
 2641              		.loc 12 48 5 is_stmt 0 view .LVU692
 2642              		.thumb
 2643              		.syntax unified
 2644              	.LBE424:
 2645              	.LBE423:
 2646              	.LBB425:
 2647              	.LBI425:
  51:../DaisySP/Source/Utility/dsp.h **** {
 2648              		.loc 12 51 14 is_stmt 1 view .LVU693
 2649              	.LBB426:
  53:../DaisySP/Source/Utility/dsp.h **** #ifdef __arm__
 2650              		.loc 12 53 5 view .LVU694
  55:../DaisySP/Source/Utility/dsp.h **** #else
 2651              		.loc 12 55 5 view .LVU695
 2652              		.syntax unified
 2653              	@ 55 "../DaisySP/Source/Utility/dsp.h" 1
 2654 003a C7FEC77A 		vminnm.f32 s15, s15, s14
 2655              	@ 0 "" 2
 2656              	.LVL182:
  59:../DaisySP/Source/Utility/dsp.h **** }
 2657              		.loc 12 59 5 view .LVU696
  59:../DaisySP/Source/Utility/dsp.h **** }
 2658              		.loc 12 59 5 is_stmt 0 view .LVU697
 2659              		.thumb
 2660              		.syntax unified
 2661              	.LBE426:
 2662              	.LBE425:
 2663              	.LBE427:
 2664              	.LBE429:
 2665              	.LBE432:
 2666              		.loc 2 428 7 is_stmt 1 view .LVU698
 2667              		.loc 2 428 27 is_stmt 0 view .LVU699
 2668 003e FDEEE77A 		vcvt.s32.f32	s15, s15
 2669              	.LVL183:
 2670              		.loc 2 428 27 view .LVU700
 2671 0042 17EE901A 		vmov	r1, s15	@ int
 2672              	.LVL184:
 2673              		.loc 2 428 27 view .LVU701
 2674 0046 FFF7FEBF 		b	_ZN13GranularSynth13SetPhasorModeEN11GrainPhasor4ModeE
 2675              	.LVL185:
 2676              	.L154:
 429:GrannyChordApp.cpp ****       break;
 430:GrannyChordApp.cpp ****     case SynthMode::Size_Position_Rnd:
 2677              		.loc 2 430 5 is_stmt 1 view .LVU702
 431:GrannyChordApp.cpp ****       synth_.SetSizeRnd(knob1_val);
 2678              		.loc 2 431 7 view .LVU703
 2679              	.LBB433:
 2680              	.LBI433:
 2681              		.file 13 "GranularSynth.h"
   1:GranularSynth.h **** #pragma once
   2:GranularSynth.h **** 
   3:GranularSynth.h **** #include "Grain.h"
ARM GAS  /var/folders/2p/02m_5p7958535cp2tpgps0400000gn/T//cco1mNMf.s 			page 80


   4:GranularSynth.h **** #include "daisy_pod.h"
   5:GranularSynth.h **** #include "debug_print.h"
   6:GranularSynth.h **** 
   7:GranularSynth.h **** class GranularSynth{
   8:GranularSynth.h ****   public:
   9:GranularSynth.h ****     GranularSynth(DaisyPod& pod) 
  10:GranularSynth.h ****       : pod_(pod), left_buf_(nullptr), right_buf_(nullptr), audio_len_(0),
  11:GranularSynth.h ****         grains_(){}
  12:GranularSynth.h **** 
  13:GranularSynth.h ****     void Init(const int16_t *left, const int16_t *right, size_t audio_len);
  14:GranularSynth.h ****     void UpdateGrainParams();
  15:GranularSynth.h ****     void ApplyRandomness();
  16:GranularSynth.h ****     void TriggerGrain();
  17:GranularSynth.h ****     void ProcessGrains(float *out_left, float *out_right, size_t size);
  18:GranularSynth.h **** 
  19:GranularSynth.h ****     void SetEnvelopeType(Grain::EnvelopeType type);
  20:GranularSynth.h ****     void SetPhasorMode(GrainPhasor::Mode mode);
  21:GranularSynth.h ****     void SetPan(float pan);
  22:GranularSynth.h ****     
  23:GranularSynth.h ****     void SetGrainSize(float knob_val);
  24:GranularSynth.h ****     void SetSpawnPos(float knob_val);
  25:GranularSynth.h ****     void SetActiveGrains(float knob_val);
  26:GranularSynth.h ****     void SetPitchRatio(float ratio);
  27:GranularSynth.h **** 
  28:GranularSynth.h ****     void SetSizeRnd(float rnd){ rnd_size_ = rnd; }
 2682              		.loc 13 28 10 view .LVU704
 2683              	.LBB434:
 2684              		.loc 13 28 33 view .LVU705
 2685              		.loc 13 28 43 is_stmt 0 view .LVU706
 2686 004a 00F59260 		add	r0, r0, #1168
 2687              	.LVL186:
 2688              	.L156:
 2689              		.loc 13 28 43 view .LVU707
 2690              	.LBE434:
 2691              	.LBE433:
 2692              	.LBB435:
 2693              	.LBB436:
  29:GranularSynth.h ****     void SetPositionRnd(float rnd){ rnd_spawn_pos_ = rnd; }
  30:GranularSynth.h ****     void SetPitchRnd(float rnd){ rnd_pitch_ = rnd; }
 2694              		.loc 13 30 45 view .LVU708
 2695 004e 80ED000A 		vstr.32	s0, [r0]
 2696              		.loc 13 30 52 view .LVU709
 2697 0052 7047     		bx	lr
 2698              	.LVL187:
 2699              	.L152:
 2700              		.loc 13 30 52 view .LVU710
 2701              	.LBE436:
 2702              	.LBE435:
 432:GrannyChordApp.cpp ****       break;
 433:GrannyChordApp.cpp ****     case SynthMode::Pitch_ActiveGrains_Rnd:
 2703              		.loc 2 433 5 is_stmt 1 view .LVU711
 434:GrannyChordApp.cpp ****       synth_.SetPitchRnd(knob1_val);
 2704              		.loc 2 434 7 view .LVU712
 2705              	.LBB438:
 2706              	.LBI435:
 2707              		.loc 13 30 10 view .LVU713
 2708              	.LBB437:
ARM GAS  /var/folders/2p/02m_5p7958535cp2tpgps0400000gn/T//cco1mNMf.s 			page 81


 2709              		.loc 13 30 34 view .LVU714
 2710              		.loc 13 30 45 is_stmt 0 view .LVU715
 2711 0054 00F29C40 		addw	r0, r0, #1180
 2712              	.LVL188:
 2713              		.loc 13 30 45 view .LVU716
 2714 0058 F9E7     		b	.L156
 2715              	.LVL189:
 2716              	.L150:
 2717              		.loc 13 30 45 view .LVU717
 2718              	.LBE437:
 2719              	.LBE438:
 435:GrannyChordApp.cpp ****       break;
 436:GrannyChordApp.cpp ****     case SynthMode::PhasorMode_EnvType_Rnd:
 2720              		.loc 2 436 5 is_stmt 1 view .LVU718
 437:GrannyChordApp.cpp ****       synth_.SetPhasorRnd(knob1_val);
 2721              		.loc 2 437 7 view .LVU719
 2722              	.LBB439:
 2723              	.LBI439:
  31:GranularSynth.h ****     void SetCountRnd(float rnd){ rnd_count_ = rnd; }
  32:GranularSynth.h ****     void SetPanRnd(float rnd){ rnd_pan_ = rnd; }
  33:GranularSynth.h ****     void SetEnvRnd(float rnd){ rnd_envelope_ = rnd; }
  34:GranularSynth.h ****     void SetPhasorRnd(float rnd){ rnd_phasor_ = rnd; }
 2724              		.loc 13 34 10 view .LVU720
 2725              	.LBB440:
 2726              		.loc 13 34 35 view .LVU721
 2727              		.loc 13 34 47 is_stmt 0 view .LVU722
 2728 005a 00F59560 		add	r0, r0, #1192
 2729              	.LVL190:
 2730              		.loc 13 34 47 view .LVU723
 2731 005e F6E7     		b	.L156
 2732              	.LVL191:
 2733              	.L148:
 2734              		.loc 13 34 47 view .LVU724
 2735              	.LBE440:
 2736              	.LBE439:
 438:GrannyChordApp.cpp ****       break;
 439:GrannyChordApp.cpp ****     case SynthMode::Reverb:
 2737              		.loc 2 439 5 is_stmt 1 view .LVU725
 440:GrannyChordApp.cpp ****       /* set reverb feedback ie tail length */
 441:GrannyChordApp.cpp ****       reverb_->SetFeedback(knob1_val); // NOTE check it doesn't clip
 2738              		.loc 2 441 7 view .LVU726
 2739              	.LBB441:
 2740              	.LBI441:
 2741              		.file 14 "DaisySP-LGPL-FX/reverbsc.h"
   1:DaisySP-LGPL-FX/reverbsc.h **** /*
   2:DaisySP-LGPL-FX/reverbsc.h **** Copyright (c) 2023 Electrosmith, Corp, Sean Costello, Istvan Varga, Paul Batchelor
   3:DaisySP-LGPL-FX/reverbsc.h **** 
   4:DaisySP-LGPL-FX/reverbsc.h **** Use of this source code is governed by the LGPL V2.1
   5:DaisySP-LGPL-FX/reverbsc.h **** license that can be found in the LICENSE file or at
   6:DaisySP-LGPL-FX/reverbsc.h **** https://opensource.org/license/lgpl-2-1/
   7:DaisySP-LGPL-FX/reverbsc.h **** */
   8:DaisySP-LGPL-FX/reverbsc.h **** 
   9:DaisySP-LGPL-FX/reverbsc.h **** #pragma once
  10:DaisySP-LGPL-FX/reverbsc.h **** #ifndef DSYSP_REVERBSC_H
  11:DaisySP-LGPL-FX/reverbsc.h **** #define DSYSP_REVERBSC_H
  12:DaisySP-LGPL-FX/reverbsc.h **** 
  13:DaisySP-LGPL-FX/reverbsc.h **** #define DSY_REVERBSC_MAX_SIZE 98936
ARM GAS  /var/folders/2p/02m_5p7958535cp2tpgps0400000gn/T//cco1mNMf.s 			page 82


  14:DaisySP-LGPL-FX/reverbsc.h **** 
  15:DaisySP-LGPL-FX/reverbsc.h **** namespace daisysp
  16:DaisySP-LGPL-FX/reverbsc.h **** {
  17:DaisySP-LGPL-FX/reverbsc.h **** /**Delay line for internal reverb use
  18:DaisySP-LGPL-FX/reverbsc.h **** */
  19:DaisySP-LGPL-FX/reverbsc.h **** typedef struct
  20:DaisySP-LGPL-FX/reverbsc.h **** {
  21:DaisySP-LGPL-FX/reverbsc.h ****     int    write_pos;         /**< write position */
  22:DaisySP-LGPL-FX/reverbsc.h ****     int    buffer_size;       /**< buffer size */
  23:DaisySP-LGPL-FX/reverbsc.h ****     int    read_pos;          /**< read position */
  24:DaisySP-LGPL-FX/reverbsc.h ****     int    read_pos_frac;     /**< fractional component of read pos */
  25:DaisySP-LGPL-FX/reverbsc.h ****     int    read_pos_frac_inc; /**< increment for fractional */
  26:DaisySP-LGPL-FX/reverbsc.h ****     int    dummy;             /**<  dummy var */
  27:DaisySP-LGPL-FX/reverbsc.h ****     int    seed_val;          /**< randseed */
  28:DaisySP-LGPL-FX/reverbsc.h ****     int    rand_line_cnt;     /**< number of random lines */
  29:DaisySP-LGPL-FX/reverbsc.h ****     float  filter_state;      /**< state of filter */
  30:DaisySP-LGPL-FX/reverbsc.h ****     float *buf;               /**< buffer ptr */
  31:DaisySP-LGPL-FX/reverbsc.h **** } ReverbScDl;
  32:DaisySP-LGPL-FX/reverbsc.h **** 
  33:DaisySP-LGPL-FX/reverbsc.h **** /** Stereo Reverb */
  34:DaisySP-LGPL-FX/reverbsc.h **** class ReverbSc
  35:DaisySP-LGPL-FX/reverbsc.h **** {
  36:DaisySP-LGPL-FX/reverbsc.h ****   public:
  37:DaisySP-LGPL-FX/reverbsc.h ****     ReverbSc() {}
  38:DaisySP-LGPL-FX/reverbsc.h ****     ~ReverbSc() {}
  39:DaisySP-LGPL-FX/reverbsc.h ****     /** Initializes the reverb module, and sets the sample_rate at which the Process function will 
  40:DaisySP-LGPL-FX/reverbsc.h ****         Returns 0 if all good, or 1 if it runs out of delay times exceed maximum allowed.
  41:DaisySP-LGPL-FX/reverbsc.h ****     */
  42:DaisySP-LGPL-FX/reverbsc.h ****     int Init(float sample_rate);
  43:DaisySP-LGPL-FX/reverbsc.h **** 
  44:DaisySP-LGPL-FX/reverbsc.h ****     /** Process the input through the reverb, and updates values of out1, and out2 with the new pro
  45:DaisySP-LGPL-FX/reverbsc.h ****     */
  46:DaisySP-LGPL-FX/reverbsc.h ****     int Process(const float &in1, const float &in2, float *out1, float *out2);
  47:DaisySP-LGPL-FX/reverbsc.h **** 
  48:DaisySP-LGPL-FX/reverbsc.h ****     /** controls the reverb time. reverb tail becomes infinite when set to 1.0
  49:DaisySP-LGPL-FX/reverbsc.h ****         \param fb - sets reverb time. range: 0.0 to 1.0
  50:DaisySP-LGPL-FX/reverbsc.h ****     */
  51:DaisySP-LGPL-FX/reverbsc.h ****     inline void SetFeedback(const float &fb) { feedback_ = fb; }
 2742              		.loc 14 51 17 view .LVU727
 2743              	.LBB442:
 2744              		.loc 14 51 48 view .LVU728
 2745              		.loc 14 51 58 is_stmt 0 view .LVU729
 2746 0060 D0F8C835 		ldr	r3, [r0, #1480]
 2747 0064 83ED000A 		vstr.32	s0, [r3]
 2748              		.loc 14 51 64 view .LVU730
 2749 0068 7047     		bx	lr
 2750              	.LVL192:
 2751              	.L146:
 2752              		.loc 14 51 64 view .LVU731
 2753              	.LBE442:
 2754              	.LBE441:
 442:GrannyChordApp.cpp ****       break;
 443:GrannyChordApp.cpp ****     case SynthMode::Filter:
 2755              		.loc 2 443 5 is_stmt 1 view .LVU732
 444:GrannyChordApp.cpp ****       // knob1_val = fmap(knob1_val, 20.0f, 20000.0f, daisysp::Mapping::EXP);
 445:GrannyChordApp.cpp ****       /* map knob value to frequency range with an exponential curve */
 446:GrannyChordApp.cpp ****       knob1_val = fmap(knob1_val, 20.0f, 5000.0f, daisysp::Mapping::EXP);
ARM GAS  /var/folders/2p/02m_5p7958535cp2tpgps0400000gn/T//cco1mNMf.s 			page 83


 2756              		.loc 2 446 7 view .LVU733
 2757              	.LBB443:
 2758              	.LBI443:
 177:../DaisySP/Source/Utility/dsp.h **** {
 2759              		.loc 12 177 1 view .LVU734
 2760              	.LBE443:
 179:../DaisySP/Source/Utility/dsp.h ****     {
 2761              		.loc 12 179 5 view .LVU735
 2762              	.LBB453:
 2763              	.LBB444:
 181:../DaisySP/Source/Utility/dsp.h ****             return fclamp(min + (in * in) * (max - min), min, max);
 2764              		.loc 12 181 9 view .LVU736
 182:../DaisySP/Source/Utility/dsp.h ****         case Mapping::LOG:
 2765              		.loc 12 182 13 view .LVU737
 182:../DaisySP/Source/Utility/dsp.h ****         case Mapping::LOG:
 2766              		.loc 12 182 26 is_stmt 0 view .LVU738
 2767 006a B3EE047A 		vmov.f32	s14, #2.0e+1
 2768 006e DFED0A6A 		vldr.32	s13, .L157+4
 182:../DaisySP/Source/Utility/dsp.h ****         case Mapping::LOG:
 2769              		.loc 12 182 37 view .LVU739
 2770 0072 20EE000A 		vmul.f32	s0, s0, s0
 2771              	.LVL193:
 182:../DaisySP/Source/Utility/dsp.h ****         case Mapping::LOG:
 2772              		.loc 12 182 37 view .LVU740
 2773              	.LBE444:
 2774              	.LBE453:
 2775              	.LBB454:
 2776              	.LBB455:
  39:DaisySP-LGPL-FX/moogladder.h ****     /** 
 2777              		.loc 7 39 45 view .LVU741
 2778 0076 00F2CC50 		addw	r0, r0, #1484
 2779              	.LVL194:
  39:DaisySP-LGPL-FX/moogladder.h ****     /** 
 2780              		.loc 7 39 45 view .LVU742
 2781              	.LBE455:
 2782              	.LBE454:
 2783              	.LBB457:
 2784              	.LBB451:
 182:../DaisySP/Source/Utility/dsp.h ****         case Mapping::LOG:
 2785              		.loc 12 182 26 view .LVU743
 2786 007a F0EE477A 		vmov.f32	s15, s14
 2787 007e E0EE267A 		vfma.f32	s15, s0, s13
 2788              	.LVL195:
 2789              	.LBB445:
 2790              	.LBI445:
  64:../DaisySP/Source/Utility/dsp.h **** {
 2791              		.loc 12 64 14 is_stmt 1 view .LVU744
 2792              	.LBE445:
 2793              	.LBE451:
 2794              	.LBE457:
  66:../DaisySP/Source/Utility/dsp.h **** }
 2795              		.loc 12 66 5 view .LVU745
 2796              	.LBB458:
 2797              	.LBB452:
 2798              	.LBB450:
 2799              	.LBB446:
 2800              	.LBI446:
ARM GAS  /var/folders/2p/02m_5p7958535cp2tpgps0400000gn/T//cco1mNMf.s 			page 84


  40:../DaisySP/Source/Utility/dsp.h **** {
 2801              		.loc 12 40 14 view .LVU746
 2802              	.LBB447:
  42:../DaisySP/Source/Utility/dsp.h **** #ifdef __arm__
 2803              		.loc 12 42 5 view .LVU747
  44:../DaisySP/Source/Utility/dsp.h **** #else
 2804              		.loc 12 44 5 view .LVU748
 2805              		.syntax unified
 2806              	@ 44 "../DaisySP/Source/Utility/dsp.h" 1
 2807 0082 C7FE877A 		vmaxnm.f32 s15, s15, s14
 2808              	@ 0 "" 2
 2809              	.LVL196:
  48:../DaisySP/Source/Utility/dsp.h **** }
 2810              		.loc 12 48 5 view .LVU749
  48:../DaisySP/Source/Utility/dsp.h **** }
 2811              		.loc 12 48 5 is_stmt 0 view .LVU750
 2812              		.thumb
 2813              		.syntax unified
 2814              	.LBE447:
 2815              	.LBE446:
 2816              	.LBB448:
 2817              	.LBI448:
  51:../DaisySP/Source/Utility/dsp.h **** {
 2818              		.loc 12 51 14 is_stmt 1 view .LVU751
 2819              	.LBB449:
  53:../DaisySP/Source/Utility/dsp.h **** #ifdef __arm__
 2820              		.loc 12 53 5 view .LVU752
  55:../DaisySP/Source/Utility/dsp.h **** #else
 2821              		.loc 12 55 5 view .LVU753
 2822 0086 9FED057A 		vldr.32	s14, .L157+8
 2823              	.LVL197:
  55:../DaisySP/Source/Utility/dsp.h **** #else
 2824              		.loc 12 55 5 is_stmt 0 view .LVU754
 2825              		.syntax unified
 2826              	@ 55 "../DaisySP/Source/Utility/dsp.h" 1
 2827 008a C7FEC77A 		vminnm.f32 s15, s15, s14
 2828              	@ 0 "" 2
 2829              	.LVL198:
  59:../DaisySP/Source/Utility/dsp.h **** }
 2830              		.loc 12 59 5 is_stmt 1 view .LVU755
  59:../DaisySP/Source/Utility/dsp.h **** }
 2831              		.loc 12 59 5 is_stmt 0 view .LVU756
 2832              		.thumb
 2833              		.syntax unified
 2834              	.LBE449:
 2835              	.LBE448:
 2836              	.LBE450:
 2837              	.LBE452:
 2838              	.LBE458:
 447:GrannyChordApp.cpp ****       /* set cutoff frequency of low pass moog filter */
 448:GrannyChordApp.cpp ****       lowpass_moog_.SetFreq(knob1_val);
 2839              		.loc 2 448 7 is_stmt 1 view .LVU757
 2840              	.LBB459:
 2841              	.LBI454:
  39:DaisySP-LGPL-FX/moogladder.h ****     /** 
 2842              		.loc 7 39 17 view .LVU758
 2843              	.LBB456:
ARM GAS  /var/folders/2p/02m_5p7958535cp2tpgps0400000gn/T//cco1mNMf.s 			page 85


  39:DaisySP-LGPL-FX/moogladder.h ****     /** 
 2844              		.loc 7 39 39 view .LVU759
  39:DaisySP-LGPL-FX/moogladder.h ****     /** 
 2845              		.loc 7 39 45 is_stmt 0 view .LVU760
 2846 008e C0ED027A 		vstr.32	s15, [r0, #8]
 2847              	.LVL199:
 2848              	.L144:
  39:DaisySP-LGPL-FX/moogladder.h ****     /** 
 2849              		.loc 7 39 45 view .LVU761
 2850              	.LBE456:
 2851              	.LBE459:
 449:GrannyChordApp.cpp ****       break;
 450:GrannyChordApp.cpp ****   }
 451:GrannyChordApp.cpp **** }
 2852              		.loc 2 451 1 view .LVU762
 2853 0092 7047     		bx	lr
 2854              	.L158:
 2855              		.align	2
 2856              	.L157:
 2857 0094 00000000 		.word	0
 2858 0098 00A09B45 		.word	1167826944
 2859 009c 00409C45 		.word	1167867904
 2860              		.cfi_endproc
 2861              	.LFE4818:
 2863              		.section	.text._ZN14GrannyChordApp17UpdateKnob2ParamsEf9SynthMode,"ax",%progbits
 2864              		.align	1
 2865              		.global	_ZN14GrannyChordApp17UpdateKnob2ParamsEf9SynthMode
 2866              		.syntax unified
 2867              		.thumb
 2868              		.thumb_func
 2870              	_ZN14GrannyChordApp17UpdateKnob2ParamsEf9SynthMode:
 2871              	.LVL200:
 2872              	.LFB4819:
 452:GrannyChordApp.cpp **** 
 453:GrannyChordApp.cpp **** void GrannyChordApp::UpdateKnob2Params(float knob2_val, SynthMode mode){
 2873              		.loc 2 453 72 is_stmt 1 view -0
 2874              		.cfi_startproc
 2875              		@ args = 0, pretend = 0, frame = 0
 2876              		@ frame_needed = 0, uses_anonymous_args = 0
 454:GrannyChordApp.cpp ****   switch (mode){
 2877              		.loc 2 454 3 view .LVU764
 453:GrannyChordApp.cpp ****   switch (mode){
 2878              		.loc 2 453 72 is_stmt 0 view .LVU765
 2879 0000 10B5     		push	{r4, lr}
 2880              		.cfi_def_cfa_offset 8
 2881              		.cfi_offset 4, -8
 2882              		.cfi_offset 14, -4
 2883 0002 0446     		mov	r4, r0
 2884 0004 2DED028B 		vpush.64	{d8}
 2885              		.cfi_def_cfa_offset 16
 2886              		.cfi_offset 80, -16
 2887              		.cfi_offset 81, -12
 453:GrannyChordApp.cpp ****   switch (mode){
 2888              		.loc 2 453 72 view .LVU766
 2889 0008 B0EE408A 		vmov.f32	s16, s0
 2890              		.loc 2 454 3 view .LVU767
 2891 000c 0829     		cmp	r1, #8
ARM GAS  /var/folders/2p/02m_5p7958535cp2tpgps0400000gn/T//cco1mNMf.s 			page 86


 2892 000e 12D8     		bhi	.L159
 2893 0010 DFE801F0 		tbb	[pc, r1]
 2894              	.L162:
 2895 0014 05       		.byte	(.L170-.L162)/2
 2896 0015 2B       		.byte	(.L169-.L162)/2
 2897 0016 08       		.byte	(.L168-.L162)/2
 2898 0017 2E       		.byte	(.L167-.L162)/2
 2899 0018 14       		.byte	(.L166-.L162)/2
 2900 0019 31       		.byte	(.L165-.L162)/2
 2901 001a 0D       		.byte	(.L164-.L162)/2
 2902 001b 34       		.byte	(.L163-.L162)/2
 2903 001c 49       		.byte	(.L161-.L162)/2
 2904 001d 00       		.p2align 1
 2905              	.L170:
 455:GrannyChordApp.cpp ****     case SynthMode::Size_Position:
 2906              		.loc 2 455 5 is_stmt 1 view .LVU768
 456:GrannyChordApp.cpp ****       synth_.SetSpawnPos(knob2_val);
 2907              		.loc 2 456 7 view .LVU769
 2908              		.loc 2 456 25 is_stmt 0 view .LVU770
 2909 001e 0430     		adds	r0, r0, #4
 2910              	.LVL201:
 2911              		.loc 2 456 25 view .LVU771
 2912 0020 FFF7FEFF 		bl	_ZN13GranularSynth11SetSpawnPosEf
 2913              	.LVL202:
 2914              	.L168:
 457:GrannyChordApp.cpp ****     case SynthMode::Pitch_ActiveGrains:
 2915              		.loc 2 457 5 is_stmt 1 view .LVU772
 458:GrannyChordApp.cpp ****       synth_.SetActiveGrains(knob2_val);
 2916              		.loc 2 458 7 view .LVU773
 2917              		.loc 2 458 29 is_stmt 0 view .LVU774
 2918 0024 B0EE480A 		vmov.f32	s0, s16
 2919 0028 201D     		adds	r0, r4, #4
 2920 002a FFF7FEFF 		bl	_ZN13GranularSynth15SetActiveGrainsEf
 2921              	.LVL203:
 2922              	.L164:
 459:GrannyChordApp.cpp ****     case SynthMode::Pan_PanRnd:
 2923              		.loc 2 459 5 is_stmt 1 view .LVU775
 460:GrannyChordApp.cpp ****       synth_.SetPanRnd(knob2_val);
 2924              		.loc 2 460 7 view .LVU776
 2925              	.LBB493:
 2926              	.LBI493:
  32:GranularSynth.h ****     void SetEnvRnd(float rnd){ rnd_envelope_ = rnd; }
 2927              		.loc 13 32 10 view .LVU777
 2928              	.LBB494:
  32:GranularSynth.h ****     void SetEnvRnd(float rnd){ rnd_envelope_ = rnd; }
 2929              		.loc 13 32 32 view .LVU778
  32:GranularSynth.h ****     void SetEnvRnd(float rnd){ rnd_envelope_ = rnd; }
 2930              		.loc 13 32 41 is_stmt 0 view .LVU779
 2931 002e 04F59464 		add	r4, r4, #1184
 2932              	.LVL204:
 2933              	.L172:
  32:GranularSynth.h ****     void SetEnvRnd(float rnd){ rnd_envelope_ = rnd; }
 2934              		.loc 13 32 41 view .LVU780
 2935              	.LBE494:
 2936              	.LBE493:
 2937              	.LBB495:
 2938              	.LBB496:
ARM GAS  /var/folders/2p/02m_5p7958535cp2tpgps0400000gn/T//cco1mNMf.s 			page 87


  33:GranularSynth.h ****     void SetPhasorRnd(float rnd){ rnd_phasor_ = rnd; }
 2939              		.loc 13 33 46 view .LVU781
 2940 0032 84ED008A 		vstr.32	s16, [r4]
 2941              	.LVL205:
 2942              	.L159:
  33:GranularSynth.h ****     void SetPhasorRnd(float rnd){ rnd_phasor_ = rnd; }
 2943              		.loc 13 33 46 view .LVU782
 2944              	.LBE496:
 2945              	.LBE495:
 461:GrannyChordApp.cpp ****       break;
 462:GrannyChordApp.cpp ****     case SynthMode::PhasorMode_EnvType:
 463:GrannyChordApp.cpp ****       knob2_val = fmap(knob2_val, 0, NUM_ENV_TYPES);
 464:GrannyChordApp.cpp ****       synth_.SetEnvelopeType(static_cast<Grain::EnvelopeType>(knob2_val));
 465:GrannyChordApp.cpp ****       break;
 466:GrannyChordApp.cpp ****     case SynthMode::Size_Position_Rnd:
 467:GrannyChordApp.cpp ****       synth_.SetPositionRnd(knob2_val);
 468:GrannyChordApp.cpp ****       break;
 469:GrannyChordApp.cpp ****     case SynthMode::Pitch_ActiveGrains_Rnd:
 470:GrannyChordApp.cpp ****       synth_.SetCountRnd(knob2_val);
 471:GrannyChordApp.cpp ****       break;
 472:GrannyChordApp.cpp ****     case SynthMode::PhasorMode_EnvType_Rnd:
 473:GrannyChordApp.cpp ****       synth_.SetEnvRnd(knob2_val);
 474:GrannyChordApp.cpp ****       break;
 475:GrannyChordApp.cpp ****     case SynthMode::Reverb:
 476:GrannyChordApp.cpp ****       /* map knob value to frequency range with an exponential curve */
 477:GrannyChordApp.cpp ****       knob2_val = fmap(knob2_val, 100.0f, 20000.0f, daisysp::Mapping::EXP);
 478:GrannyChordApp.cpp ****       /* set reverb low pass frequency */
 479:GrannyChordApp.cpp ****       reverb_->SetLpFreq(knob2_val);
 480:GrannyChordApp.cpp ****       break;
 481:GrannyChordApp.cpp ****     case SynthMode::Filter:
 482:GrannyChordApp.cpp ****       /* again, map knob value to frequency range with an exponential curve */
 483:GrannyChordApp.cpp ****       knob2_val = fmap(knob2_val, 0.001f, 0.497f, daisysp::Mapping::EXP);
 484:GrannyChordApp.cpp ****       /* set cutoff frequency for high pass filter */
 485:GrannyChordApp.cpp ****       hipass_.SetFrequency(knob2_val);
 486:GrannyChordApp.cpp ****       break;
 487:GrannyChordApp.cpp ****   }
 488:GrannyChordApp.cpp **** }
 2946              		.loc 2 488 1 view .LVU783
 2947 0036 BDEC028B 		vldm	sp!, {d8}
 2948              		.cfi_remember_state
 2949              		.cfi_restore 80
 2950              		.cfi_restore 81
 2951              		.cfi_def_cfa_offset 8
 2952 003a 10BD     		pop	{r4, pc}
 2953              	.LVL206:
 2954              	.L166:
 2955              		.cfi_restore_state
 462:GrannyChordApp.cpp ****       knob2_val = fmap(knob2_val, 0, NUM_ENV_TYPES);
 2956              		.loc 2 462 5 is_stmt 1 view .LVU784
 463:GrannyChordApp.cpp ****       synth_.SetEnvelopeType(static_cast<Grain::EnvelopeType>(knob2_val));
 2957              		.loc 2 463 7 view .LVU785
 2958              	.LBB498:
 2959              	.LBI498:
 177:../DaisySP/Source/Utility/dsp.h **** {
 2960              		.loc 12 177 1 view .LVU786
 2961              	.LBE498:
 179:../DaisySP/Source/Utility/dsp.h ****     {
ARM GAS  /var/folders/2p/02m_5p7958535cp2tpgps0400000gn/T//cco1mNMf.s 			page 88


 2962              		.loc 12 179 5 view .LVU787
 2963              	.LBB509:
 2964              	.LBB499:
 188:../DaisySP/Source/Utility/dsp.h ****         default: return fclamp(min + in * (max - min), min, max);
 2965              		.loc 12 188 9 view .LVU788
 2966              		.loc 12 189 9 view .LVU789
 2967              		.loc 12 189 18 view .LVU790
 2968              		.loc 12 189 31 is_stmt 0 view .LVU791
 2969 003c DFED2F6A 		vldr.32	s13, .L173
 2970 0040 B1EE007A 		vmov.f32	s14, #4.0e+0
 2971              	.LBE499:
 2972              	.LBE509:
 464:GrannyChordApp.cpp ****       break;
 2973              		.loc 2 464 29 view .LVU792
 2974 0044 0430     		adds	r0, r0, #4
 2975              	.LVL207:
 2976              	.LBB510:
 2977              	.LBB506:
 2978              		.loc 12 189 31 view .LVU793
 2979 0046 F0EE667A 		vmov.f32	s15, s13
 2980              	.LBE506:
 2981              	.LBE510:
 2982              		.loc 2 488 1 view .LVU794
 2983 004a BDEC028B 		vldm	sp!, {d8}
 2984              		.cfi_remember_state
 2985              		.cfi_restore 80
 2986              		.cfi_restore 81
 2987              		.cfi_def_cfa_offset 8
 2988              	.LBB511:
 2989              	.LBB507:
 2990              		.loc 12 189 31 view .LVU795
 2991 004e E0EE077A 		vfma.f32	s15, s0, s14
 2992              	.LVL208:
 2993              	.LBB500:
 2994              	.LBI500:
  64:../DaisySP/Source/Utility/dsp.h **** {
 2995              		.loc 12 64 14 is_stmt 1 view .LVU796
 2996              	.LBE500:
 2997              	.LBE507:
 2998              	.LBE511:
  66:../DaisySP/Source/Utility/dsp.h **** }
 2999              		.loc 12 66 5 view .LVU797
 3000              	.LBB512:
 3001              	.LBB508:
 3002              	.LBB505:
 3003              	.LBB501:
 3004              	.LBI501:
  40:../DaisySP/Source/Utility/dsp.h **** {
 3005              		.loc 12 40 14 view .LVU798
 3006              	.LBB502:
  42:../DaisySP/Source/Utility/dsp.h **** #ifdef __arm__
 3007              		.loc 12 42 5 view .LVU799
  44:../DaisySP/Source/Utility/dsp.h **** #else
 3008              		.loc 12 44 5 view .LVU800
 3009              		.syntax unified
 3010              	@ 44 "../DaisySP/Source/Utility/dsp.h" 1
 3011 0052 C7FEA67A 		vmaxnm.f32 s15, s15, s13
ARM GAS  /var/folders/2p/02m_5p7958535cp2tpgps0400000gn/T//cco1mNMf.s 			page 89


 3012              	@ 0 "" 2
 3013              	.LVL209:
  48:../DaisySP/Source/Utility/dsp.h **** }
 3014              		.loc 12 48 5 view .LVU801
  48:../DaisySP/Source/Utility/dsp.h **** }
 3015              		.loc 12 48 5 is_stmt 0 view .LVU802
 3016              		.thumb
 3017              		.syntax unified
 3018              	.LBE502:
 3019              	.LBE501:
 3020              	.LBB503:
 3021              	.LBI503:
  51:../DaisySP/Source/Utility/dsp.h **** {
 3022              		.loc 12 51 14 is_stmt 1 view .LVU803
 3023              	.LBB504:
  53:../DaisySP/Source/Utility/dsp.h **** #ifdef __arm__
 3024              		.loc 12 53 5 view .LVU804
  55:../DaisySP/Source/Utility/dsp.h **** #else
 3025              		.loc 12 55 5 view .LVU805
 3026              		.syntax unified
 3027              	@ 55 "../DaisySP/Source/Utility/dsp.h" 1
 3028 0056 C7FEC77A 		vminnm.f32 s15, s15, s14
 3029              	@ 0 "" 2
 3030              	.LVL210:
  59:../DaisySP/Source/Utility/dsp.h **** }
 3031              		.loc 12 59 5 view .LVU806
  59:../DaisySP/Source/Utility/dsp.h **** }
 3032              		.loc 12 59 5 is_stmt 0 view .LVU807
 3033              		.thumb
 3034              		.syntax unified
 3035              	.LBE504:
 3036              	.LBE503:
 3037              	.LBE505:
 3038              	.LBE508:
 3039              	.LBE512:
 464:GrannyChordApp.cpp ****       break;
 3040              		.loc 2 464 7 is_stmt 1 view .LVU808
 464:GrannyChordApp.cpp ****       break;
 3041              		.loc 2 464 29 is_stmt 0 view .LVU809
 3042 005a FDEEE77A 		vcvt.s32.f32	s15, s15
 3043              	.LVL211:
 3044              		.loc 2 488 1 view .LVU810
 3045 005e BDE81040 		pop	{r4, lr}
 3046              		.cfi_restore 14
 3047              		.cfi_restore 4
 3048              		.cfi_def_cfa_offset 0
 3049              	.LVL212:
 464:GrannyChordApp.cpp ****       break;
 3050              		.loc 2 464 29 view .LVU811
 3051 0062 17EE901A 		vmov	r1, s15	@ int
 3052              	.LVL213:
 464:GrannyChordApp.cpp ****       break;
 3053              		.loc 2 464 29 view .LVU812
 3054 0066 FFF7FEBF 		b	_ZN13GranularSynth15SetEnvelopeTypeEN5Grain12EnvelopeTypeE
 3055              	.LVL214:
 3056              	.L169:
 3057              		.cfi_restore_state
ARM GAS  /var/folders/2p/02m_5p7958535cp2tpgps0400000gn/T//cco1mNMf.s 			page 90


 466:GrannyChordApp.cpp ****       synth_.SetPositionRnd(knob2_val);
 3058              		.loc 2 466 5 is_stmt 1 view .LVU813
 467:GrannyChordApp.cpp ****       break;
 3059              		.loc 2 467 7 view .LVU814
 3060              	.LBB513:
 3061              	.LBI513:
  29:GranularSynth.h ****     void SetPitchRnd(float rnd){ rnd_pitch_ = rnd; }
 3062              		.loc 13 29 10 view .LVU815
 3063              	.LBB514:
  29:GranularSynth.h ****     void SetPitchRnd(float rnd){ rnd_pitch_ = rnd; }
 3064              		.loc 13 29 37 view .LVU816
  29:GranularSynth.h ****     void SetPitchRnd(float rnd){ rnd_pitch_ = rnd; }
 3065              		.loc 13 29 52 is_stmt 0 view .LVU817
 3066 006a 00F29444 		addw	r4, r0, #1172
 3067 006e E0E7     		b	.L172
 3068              	.LVL215:
 3069              	.L167:
  29:GranularSynth.h ****     void SetPitchRnd(float rnd){ rnd_pitch_ = rnd; }
 3070              		.loc 13 29 52 view .LVU818
 3071              	.LBE514:
 3072              	.LBE513:
 469:GrannyChordApp.cpp ****       synth_.SetCountRnd(knob2_val);
 3073              		.loc 2 469 5 is_stmt 1 view .LVU819
 470:GrannyChordApp.cpp ****       break;
 3074              		.loc 2 470 7 view .LVU820
 3075              	.LBB515:
 3076              	.LBI515:
  31:GranularSynth.h ****     void SetPanRnd(float rnd){ rnd_pan_ = rnd; }
 3077              		.loc 13 31 10 view .LVU821
 3078              	.LBB516:
  31:GranularSynth.h ****     void SetPanRnd(float rnd){ rnd_pan_ = rnd; }
 3079              		.loc 13 31 34 view .LVU822
  31:GranularSynth.h ****     void SetPanRnd(float rnd){ rnd_pan_ = rnd; }
 3080              		.loc 13 31 45 is_stmt 0 view .LVU823
 3081 0070 00F59364 		add	r4, r0, #1176
 3082 0074 DDE7     		b	.L172
 3083              	.LVL216:
 3084              	.L165:
  31:GranularSynth.h ****     void SetPanRnd(float rnd){ rnd_pan_ = rnd; }
 3085              		.loc 13 31 45 view .LVU824
 3086              	.LBE516:
 3087              	.LBE515:
 472:GrannyChordApp.cpp ****       synth_.SetEnvRnd(knob2_val);
 3088              		.loc 2 472 5 is_stmt 1 view .LVU825
 473:GrannyChordApp.cpp ****       break;
 3089              		.loc 2 473 7 view .LVU826
 3090              	.LBB517:
 3091              	.LBI495:
  33:GranularSynth.h ****     void SetPhasorRnd(float rnd){ rnd_phasor_ = rnd; }
 3092              		.loc 13 33 10 view .LVU827
 3093              	.LBB497:
  33:GranularSynth.h ****     void SetPhasorRnd(float rnd){ rnd_phasor_ = rnd; }
 3094              		.loc 13 33 32 view .LVU828
  33:GranularSynth.h ****     void SetPhasorRnd(float rnd){ rnd_phasor_ = rnd; }
 3095              		.loc 13 33 46 is_stmt 0 view .LVU829
 3096 0076 00F2A444 		addw	r4, r0, #1188
 3097 007a DAE7     		b	.L172
ARM GAS  /var/folders/2p/02m_5p7958535cp2tpgps0400000gn/T//cco1mNMf.s 			page 91


 3098              	.LVL217:
 3099              	.L163:
  33:GranularSynth.h ****     void SetPhasorRnd(float rnd){ rnd_phasor_ = rnd; }
 3100              		.loc 13 33 46 view .LVU830
 3101              	.LBE497:
 3102              	.LBE517:
 475:GrannyChordApp.cpp ****       /* map knob value to frequency range with an exponential curve */
 3103              		.loc 2 475 5 is_stmt 1 view .LVU831
 477:GrannyChordApp.cpp ****       /* set reverb low pass frequency */
 3104              		.loc 2 477 7 view .LVU832
 3105              	.LBB518:
 3106              	.LBI518:
 177:../DaisySP/Source/Utility/dsp.h **** {
 3107              		.loc 12 177 1 view .LVU833
 3108              	.LBE518:
 179:../DaisySP/Source/Utility/dsp.h ****     {
 3109              		.loc 12 179 5 view .LVU834
 3110              	.LBB528:
 3111              	.LBB519:
 181:../DaisySP/Source/Utility/dsp.h ****             return fclamp(min + (in * in) * (max - min), min, max);
 3112              		.loc 12 181 9 view .LVU835
 182:../DaisySP/Source/Utility/dsp.h ****         case Mapping::LOG:
 3113              		.loc 12 182 13 view .LVU836
 182:../DaisySP/Source/Utility/dsp.h ****         case Mapping::LOG:
 3114              		.loc 12 182 26 is_stmt 0 view .LVU837
 3115 007c 9FED207A 		vldr.32	s14, .L173+4
 182:../DaisySP/Source/Utility/dsp.h ****         case Mapping::LOG:
 3116              		.loc 12 182 37 view .LVU838
 3117 0080 20EE008A 		vmul.f32	s16, s0, s0
 182:../DaisySP/Source/Utility/dsp.h ****         case Mapping::LOG:
 3118              		.loc 12 182 26 view .LVU839
 3119 0084 DFED1F6A 		vldr.32	s13, .L173+8
 3120 0088 F0EE477A 		vmov.f32	s15, s14
 3121              	.LBE519:
 3122              	.LBE528:
 3123              	.LBB529:
 3124              	.LBB530:
  52:DaisySP-LGPL-FX/reverbsc.h ****     /** controls the internal dampening filter's cutoff frequency.
  53:DaisySP-LGPL-FX/reverbsc.h ****         \param freq - low pass frequency. range: 0.0 to sample_rate / 2
  54:DaisySP-LGPL-FX/reverbsc.h ****     */
  55:DaisySP-LGPL-FX/reverbsc.h ****     inline void SetLpFreq(const float &freq) { lpfreq_ = freq; }
 3125              		.loc 14 55 56 view .LVU840
 3126 008c D0F8C835 		ldr	r3, [r0, #1480]
 3127              	.LBE530:
 3128              	.LBE529:
 3129              	.LBB532:
 3130              	.LBB526:
 182:../DaisySP/Source/Utility/dsp.h ****         case Mapping::LOG:
 3131              		.loc 12 182 26 view .LVU841
 3132 0090 E8EE267A 		vfma.f32	s15, s16, s13
 3133              	.LVL218:
 3134              	.LBB520:
 3135              	.LBI520:
  64:../DaisySP/Source/Utility/dsp.h **** {
 3136              		.loc 12 64 14 is_stmt 1 view .LVU842
 3137              	.LBE520:
 3138              	.LBE526:
ARM GAS  /var/folders/2p/02m_5p7958535cp2tpgps0400000gn/T//cco1mNMf.s 			page 92


 3139              	.LBE532:
  66:../DaisySP/Source/Utility/dsp.h **** }
 3140              		.loc 12 66 5 view .LVU843
 3141              	.LBB533:
 3142              	.LBB527:
 3143              	.LBB525:
 3144              	.LBB521:
 3145              	.LBI521:
  40:../DaisySP/Source/Utility/dsp.h **** {
 3146              		.loc 12 40 14 view .LVU844
 3147              	.LBB522:
  42:../DaisySP/Source/Utility/dsp.h **** #ifdef __arm__
 3148              		.loc 12 42 5 view .LVU845
  44:../DaisySP/Source/Utility/dsp.h **** #else
 3149              		.loc 12 44 5 view .LVU846
 3150              		.syntax unified
 3151              	@ 44 "../DaisySP/Source/Utility/dsp.h" 1
 3152 0094 C7FE877A 		vmaxnm.f32 s15, s15, s14
 3153              	@ 0 "" 2
 3154              	.LVL219:
  48:../DaisySP/Source/Utility/dsp.h **** }
 3155              		.loc 12 48 5 view .LVU847
  48:../DaisySP/Source/Utility/dsp.h **** }
 3156              		.loc 12 48 5 is_stmt 0 view .LVU848
 3157              		.thumb
 3158              		.syntax unified
 3159              	.LBE522:
 3160              	.LBE521:
 3161              	.LBB523:
 3162              	.LBI523:
  51:../DaisySP/Source/Utility/dsp.h **** {
 3163              		.loc 12 51 14 is_stmt 1 view .LVU849
 3164              	.LBB524:
  53:../DaisySP/Source/Utility/dsp.h **** #ifdef __arm__
 3165              		.loc 12 53 5 view .LVU850
  55:../DaisySP/Source/Utility/dsp.h **** #else
 3166              		.loc 12 55 5 view .LVU851
 3167 0098 9FED1B7A 		vldr.32	s14, .L173+12
 3168              	.LVL220:
  55:../DaisySP/Source/Utility/dsp.h **** #else
 3169              		.loc 12 55 5 is_stmt 0 view .LVU852
 3170              		.syntax unified
 3171              	@ 55 "../DaisySP/Source/Utility/dsp.h" 1
 3172 009c C7FEC77A 		vminnm.f32 s15, s15, s14
 3173              	@ 0 "" 2
 3174              	.LVL221:
  59:../DaisySP/Source/Utility/dsp.h **** }
 3175              		.loc 12 59 5 is_stmt 1 view .LVU853
  59:../DaisySP/Source/Utility/dsp.h **** }
 3176              		.loc 12 59 5 is_stmt 0 view .LVU854
 3177              		.thumb
 3178              		.syntax unified
 3179              	.LBE524:
 3180              	.LBE523:
 3181              	.LBE525:
 3182              	.LBE527:
 3183              	.LBE533:
ARM GAS  /var/folders/2p/02m_5p7958535cp2tpgps0400000gn/T//cco1mNMf.s 			page 93


 479:GrannyChordApp.cpp ****       break;
 3184              		.loc 2 479 7 is_stmt 1 view .LVU855
 3185              	.LBB534:
 3186              	.LBI529:
 3187              		.loc 14 55 17 view .LVU856
 3188              	.LBB531:
 3189              		.loc 14 55 48 view .LVU857
 3190              		.loc 14 55 56 is_stmt 0 view .LVU858
 3191 00a0 C3ED017A 		vstr.32	s15, [r3, #4]
 3192              		.loc 14 55 64 view .LVU859
 3193 00a4 C7E7     		b	.L159
 3194              	.LVL222:
 3195              	.L161:
 3196              		.loc 14 55 64 view .LVU860
 3197              	.LBE531:
 3198              	.LBE534:
 481:GrannyChordApp.cpp ****       /* again, map knob value to frequency range with an exponential curve */
 3199              		.loc 2 481 5 is_stmt 1 view .LVU861
 483:GrannyChordApp.cpp ****       /* set cutoff frequency for high pass filter */
 3200              		.loc 2 483 7 view .LVU862
 3201              	.LBB535:
 3202              	.LBI535:
 177:../DaisySP/Source/Utility/dsp.h **** {
 3203              		.loc 12 177 1 view .LVU863
 3204              	.LBE535:
 179:../DaisySP/Source/Utility/dsp.h ****     {
 3205              		.loc 12 179 5 view .LVU864
 3206              	.LBB549:
 3207              	.LBB536:
 181:../DaisySP/Source/Utility/dsp.h ****             return fclamp(min + (in * in) * (max - min), min, max);
 3208              		.loc 12 181 9 view .LVU865
 182:../DaisySP/Source/Utility/dsp.h ****         case Mapping::LOG:
 3209              		.loc 12 182 13 view .LVU866
 182:../DaisySP/Source/Utility/dsp.h ****         case Mapping::LOG:
 3210              		.loc 12 182 37 is_stmt 0 view .LVU867
 3211 00a6 20EE008A 		vmul.f32	s16, s0, s0
 182:../DaisySP/Source/Utility/dsp.h ****         case Mapping::LOG:
 3212              		.loc 12 182 26 view .LVU868
 3213 00aa 9FED180A 		vldr.32	s0, .L173+16
 3214              	.LVL223:
 182:../DaisySP/Source/Utility/dsp.h ****         case Mapping::LOG:
 3215              		.loc 12 182 26 view .LVU869
 3216 00ae 9FED187A 		vldr.32	s14, .L173+20
 3217              	.LBE536:
 3218              	.LBE549:
 3219              	.LBB550:
 3220              	.LBB551:
  61:../DaisySP/Source/Filters/onepole.h ****         gi_ = 1.f / (1.f + g_);
 3221              		.loc 8 61 13 view .LVU870
 3222 00b2 04F5C264 		add	r4, r4, #1552
 3223              	.LBE551:
 3224              	.LBE550:
 3225              	.LBB553:
 3226              	.LBB547:
 182:../DaisySP/Source/Utility/dsp.h ****         case Mapping::LOG:
 3227              		.loc 12 182 26 view .LVU871
 3228 00b6 F0EE407A 		vmov.f32	s15, s0
ARM GAS  /var/folders/2p/02m_5p7958535cp2tpgps0400000gn/T//cco1mNMf.s 			page 94


 3229 00ba E8EE077A 		vfma.f32	s15, s16, s14
 3230              	.LVL224:
 3231              	.LBB537:
 3232              	.LBI537:
  64:../DaisySP/Source/Utility/dsp.h **** {
 3233              		.loc 12 64 14 is_stmt 1 view .LVU872
 3234              	.LBE537:
 3235              	.LBE547:
 3236              	.LBE553:
  66:../DaisySP/Source/Utility/dsp.h **** }
 3237              		.loc 12 66 5 view .LVU873
 3238              	.LBB554:
 3239              	.LBB548:
 3240              	.LBB546:
 3241              	.LBB538:
 3242              	.LBI538:
  40:../DaisySP/Source/Utility/dsp.h **** {
 3243              		.loc 12 40 14 view .LVU874
 3244              	.LBB539:
  42:../DaisySP/Source/Utility/dsp.h **** #ifdef __arm__
 3245              		.loc 12 42 5 view .LVU875
  44:../DaisySP/Source/Utility/dsp.h **** #else
 3246              		.loc 12 44 5 view .LVU876
 3247              	.LBE539:
 3248              	.LBE538:
 3249              	.LBB541:
 3250              	.LBB542:
  55:../DaisySP/Source/Utility/dsp.h **** #else
 3251              		.loc 12 55 5 is_stmt 0 view .LVU877
 3252 00be 9FED157A 		vldr.32	s14, .L173+24
 3253              	.LBE542:
 3254              	.LBE541:
 3255              	.LBB544:
 3256              	.LBB540:
  44:../DaisySP/Source/Utility/dsp.h **** #else
 3257              		.loc 12 44 5 view .LVU878
 3258              		.syntax unified
 3259              	@ 44 "../DaisySP/Source/Utility/dsp.h" 1
 3260 00c2 C7FE807A 		vmaxnm.f32 s15, s15, s0
 3261              	@ 0 "" 2
 3262              	.LVL225:
  48:../DaisySP/Source/Utility/dsp.h **** }
 3263              		.loc 12 48 5 is_stmt 1 view .LVU879
  48:../DaisySP/Source/Utility/dsp.h **** }
 3264              		.loc 12 48 5 is_stmt 0 view .LVU880
 3265              		.thumb
 3266              		.syntax unified
 3267              	.LBE540:
 3268              	.LBE544:
 3269              	.LBB545:
 3270              	.LBI541:
  51:../DaisySP/Source/Utility/dsp.h **** {
 3271              		.loc 12 51 14 is_stmt 1 view .LVU881
 3272              	.LBB543:
  53:../DaisySP/Source/Utility/dsp.h **** #ifdef __arm__
 3273              		.loc 12 53 5 view .LVU882
  55:../DaisySP/Source/Utility/dsp.h **** #else
ARM GAS  /var/folders/2p/02m_5p7958535cp2tpgps0400000gn/T//cco1mNMf.s 			page 95


 3274              		.loc 12 55 5 view .LVU883
 3275              		.syntax unified
 3276              	@ 55 "../DaisySP/Source/Utility/dsp.h" 1
 3277 00c6 C7FEC77A 		vminnm.f32 s15, s15, s14
 3278              	@ 0 "" 2
 3279              	.LVL226:
  59:../DaisySP/Source/Utility/dsp.h **** }
 3280              		.loc 12 59 5 view .LVU884
  59:../DaisySP/Source/Utility/dsp.h **** }
 3281              		.loc 12 59 5 is_stmt 0 view .LVU885
 3282              		.thumb
 3283              		.syntax unified
 3284              	.LBE543:
 3285              	.LBE545:
 3286              	.LBE546:
 3287              	.LBE548:
 3288              	.LBE554:
 485:GrannyChordApp.cpp ****       break;
 3289              		.loc 2 485 7 is_stmt 1 view .LVU886
 3290              	.LBB555:
 3291              	.LBI550:
  56:../DaisySP/Source/Filters/onepole.h ****     {
 3292              		.loc 8 56 17 view .LVU887
 3293              	.LBB552:
  59:../DaisySP/Source/Filters/onepole.h **** 
 3294              		.loc 8 59 9 view .LVU888
  59:../DaisySP/Source/Filters/onepole.h **** 
 3295              		.loc 8 59 30 is_stmt 0 view .LVU889
 3296 00ca F4EEC77A 		vcmpe.f32	s15, s14
  61:../DaisySP/Source/Filters/onepole.h ****         gi_ = 1.f / (1.f + g_);
 3297              		.loc 8 61 19 view .LVU890
 3298 00ce 9FED120A 		vldr.32	s0, .L173+28
  59:../DaisySP/Source/Filters/onepole.h **** 
 3299              		.loc 8 59 30 view .LVU891
 3300 00d2 F1EE10FA 		vmrs	APSR_nzcv, FPSCR
 3301 00d6 58BF     		it	pl
 3302 00d8 F0EE477A 		vmovpl.f32	s15, s14
 3303              	.LVL227:
  61:../DaisySP/Source/Filters/onepole.h ****         gi_ = 1.f / (1.f + g_);
 3304              		.loc 8 61 9 is_stmt 1 view .LVU892
  61:../DaisySP/Source/Filters/onepole.h ****         gi_ = 1.f / (1.f + g_);
 3305              		.loc 8 61 19 is_stmt 0 view .LVU893
 3306 00dc 27EE800A 		vmul.f32	s0, s15, s0
 3307 00e0 FFF7FEFF 		bl	tanf
 3308              	.LVL228:
  62:../DaisySP/Source/Filters/onepole.h ****     }
 3309              		.loc 8 62 26 view .LVU894
 3310 00e4 F7EE007A 		vmov.f32	s15, #1.0e+0
  61:../DaisySP/Source/Filters/onepole.h ****         gi_ = 1.f / (1.f + g_);
 3311              		.loc 8 61 13 view .LVU895
 3312 00e8 84ED000A 		vstr.32	s0, [r4]
  62:../DaisySP/Source/Filters/onepole.h ****     }
 3313              		.loc 8 62 9 is_stmt 1 view .LVU896
  62:../DaisySP/Source/Filters/onepole.h ****     }
 3314              		.loc 8 62 26 is_stmt 0 view .LVU897
 3315 00ec 30EE270A 		vadd.f32	s0, s0, s15
  62:../DaisySP/Source/Filters/onepole.h ****     }
ARM GAS  /var/folders/2p/02m_5p7958535cp2tpgps0400000gn/T//cco1mNMf.s 			page 96


 3316              		.loc 8 62 19 view .LVU898
 3317 00f0 87EE807A 		vdiv.f32	s14, s15, s0
  62:../DaisySP/Source/Filters/onepole.h ****     }
 3318              		.loc 8 62 13 view .LVU899
 3319 00f4 84ED017A 		vstr.32	s14, [r4, #4]
  62:../DaisySP/Source/Filters/onepole.h ****     }
 3320              		.loc 8 62 13 view .LVU900
 3321              	.LBE552:
 3322              	.LBE555:
 3323              		.loc 2 488 1 view .LVU901
 3324 00f8 9DE7     		b	.L159
 3325              	.L174:
 3326 00fa 00BF     		.align	2
 3327              	.L173:
 3328 00fc 00000000 		.word	0
 3329 0100 0000C842 		.word	1120403456
 3330 0104 00789B46 		.word	1184593920
 3331 0108 00409C46 		.word	1184645120
 3332 010c 6F12833A 		.word	981668463
 3333 0110 B7F3FD3E 		.word	1056830391
 3334 0114 C976FE3E 		.word	1056863945
 3335 0118 DB0F4940 		.word	1078530011
 3336              		.cfi_endproc
 3337              	.LFE4819:
 3339              		.section	.text._ZN14GrannyChordApp17UpdateSynthParamsEv,"ax",%progbits
 3340              		.align	1
 3341              		.global	_ZN14GrannyChordApp17UpdateSynthParamsEv
 3342              		.syntax unified
 3343              		.thumb
 3344              		.thumb_func
 3346              	_ZN14GrannyChordApp17UpdateSynthParamsEv:
 3347              	.LVL229:
 3348              	.LFB4799:
 157:GrannyChordApp.cpp ****   if (curr_state_!=AppState::Synthesis) return;
 3349              		.loc 2 157 41 is_stmt 1 view -0
 3350              		.cfi_startproc
 3351              		@ args = 0, pretend = 0, frame = 0
 3352              		@ frame_needed = 0, uses_anonymous_args = 0
 158:GrannyChordApp.cpp ****   int mode_idx = static_cast<int>(curr_synth_mode_);
 3353              		.loc 2 158 3 view .LVU903
 3354 0000 D0F87435 		ldr	r3, [r0, #1396]
 3355 0004 022B     		cmp	r3, #2
 157:GrannyChordApp.cpp ****   if (curr_state_!=AppState::Synthesis) return;
 3356              		.loc 2 157 41 is_stmt 0 view .LVU904
 3357 0006 70B5     		push	{r4, r5, r6, lr}
 3358              		.cfi_def_cfa_offset 16
 3359              		.cfi_offset 4, -16
 3360              		.cfi_offset 5, -12
 3361              		.cfi_offset 6, -8
 3362              		.cfi_offset 14, -4
 3363 0008 0446     		mov	r4, r0
 3364 000a 2DED048B 		vpush.64	{d8, d9}
 3365              		.cfi_def_cfa_offset 32
 3366              		.cfi_offset 80, -32
 3367              		.cfi_offset 81, -28
 3368              		.cfi_offset 82, -24
 3369              		.cfi_offset 83, -20
ARM GAS  /var/folders/2p/02m_5p7958535cp2tpgps0400000gn/T//cco1mNMf.s 			page 97


 158:GrannyChordApp.cpp ****   int mode_idx = static_cast<int>(curr_synth_mode_);
 3370              		.loc 2 158 3 view .LVU905
 3371 000e 57D1     		bne	.L175
 3372              	.LVL230:
 3373              	.LBB566:
 3374              	.LBI566:
 157:GrannyChordApp.cpp ****   if (curr_state_!=AppState::Synthesis) return;
 3375              		.loc 2 157 6 is_stmt 1 view .LVU906
 3376              	.LBB567:
 159:GrannyChordApp.cpp ****   float knob1_val = MapKnobDeadzone(pod_.knob1.Process());
 3377              		.loc 2 159 3 view .LVU907
 159:GrannyChordApp.cpp ****   float knob1_val = MapKnobDeadzone(pod_.knob1.Process());
 3378              		.loc 2 159 7 is_stmt 0 view .LVU908
 3379 0010 D0F87C55 		ldr	r5, [r0, #1404]
 3380              	.LVL231:
 160:GrannyChordApp.cpp ****   float knob2_val = MapKnobDeadzone(pod_.knob2.Process());
 3381              		.loc 2 160 3 is_stmt 1 view .LVU909
 160:GrannyChordApp.cpp ****   float knob2_val = MapKnobDeadzone(pod_.knob2.Process());
 3382              		.loc 2 160 36 is_stmt 0 view .LVU910
 3383 0014 0068     		ldr	r0, [r0]
 3384              	.LVL232:
 3385              	.LBB568:
 3386              	.LBB569:
 489:GrannyChordApp.cpp **** 
 490:GrannyChordApp.cpp **** /* check parameter value change is over a certain level to avoid reading knob jitter */
 491:GrannyChordApp.cpp **** inline constexpr bool GrannyChordApp::CheckParamDelta(float curr_val, float prev_val){
 492:GrannyChordApp.cpp ****   return (fabsf(curr_val - prev_val)>0.01f);
 493:GrannyChordApp.cpp **** }
 494:GrannyChordApp.cpp **** 
 495:GrannyChordApp.cpp **** 
 496:GrannyChordApp.cpp **** /* knobs on the Pod have deadzones around 0 and 1 so we adjust for this */
 497:GrannyChordApp.cpp **** inline constexpr float GrannyChordApp::MapKnobDeadzone(float knob_val ){
 498:GrannyChordApp.cpp ****   if (knob_val<=0.01f) return 0.0f;
 3387              		.loc 2 498 3 view .LVU911
 3388 0016 9FED2F9A 		vldr.32	s18, .L192
 3389              	.LBE569:
 3390              	.LBE568:
 160:GrannyChordApp.cpp ****   float knob2_val = MapKnobDeadzone(pod_.knob2.Process());
 3391              		.loc 2 160 36 view .LVU912
 3392 001a 6830     		adds	r0, r0, #104
 3393 001c FFF7FEFF 		bl	_ZN5daisy13AnalogControl7ProcessEv
 3394              	.LVL233:
 3395              	.LBB572:
 3396              	.LBI568:
 497:GrannyChordApp.cpp ****   if (knob_val<=0.01f) return 0.0f;
 3397              		.loc 2 497 24 is_stmt 1 view .LVU913
 3398              	.LBB570:
 3399              		.loc 2 498 3 view .LVU914
 3400 0020 B4EEC90A 		vcmpe.f32	s0, s18
 3401 0024 F1EE10FA 		vmrs	APSR_nzcv, FPSCR
 3402 0028 4DD9     		bls	.L186
 499:GrannyChordApp.cpp ****   if (knob_val>=0.99f) return 1.0f;
 3403              		.loc 2 499 3 view .LVU915
 3404              		.loc 2 499 31 is_stmt 0 view .LVU916
 3405 002a DFED2B7A 		vldr.32	s15, .L192+4
 3406 002e B4EE670A 		vcmp.f32	s0, s15
 3407 0032 F7EE007A 		vmov.f32	s15, #1.0e+0
ARM GAS  /var/folders/2p/02m_5p7958535cp2tpgps0400000gn/T//cco1mNMf.s 			page 98


 3408 0036 F1EE10FA 		vmrs	APSR_nzcv, FPSCR
 3409 003a 67FE808A 		vselge.f32	s17, s15, s0
 3410              	.L178:
 3411              	.LVL234:
 3412              		.loc 2 499 31 view .LVU917
 3413              	.LBE570:
 3414              	.LBE572:
 161:GrannyChordApp.cpp **** 
 3415              		.loc 2 161 3 is_stmt 1 view .LVU918
 161:GrannyChordApp.cpp **** 
 3416              		.loc 2 161 36 is_stmt 0 view .LVU919
 3417 003e 2068     		ldr	r0, [r4]
 3418 0040 8830     		adds	r0, r0, #136
 3419 0042 FFF7FEFF 		bl	_ZN5daisy13AnalogControl7ProcessEv
 3420              	.LVL235:
 3421              	.LBB573:
 3422              	.LBI573:
 497:GrannyChordApp.cpp ****   if (knob_val<=0.01f) return 0.0f;
 3423              		.loc 2 497 24 is_stmt 1 view .LVU920
 3424              	.LBB574:
 498:GrannyChordApp.cpp ****   if (knob_val>=0.99f) return 1.0f;
 3425              		.loc 2 498 3 view .LVU921
 3426 0046 B4EEC90A 		vcmpe.f32	s0, s18
 3427 004a F1EE10FA 		vmrs	APSR_nzcv, FPSCR
 3428 004e 3DD9     		bls	.L187
 3429              		.loc 2 499 3 view .LVU922
 3430              		.loc 2 499 31 is_stmt 0 view .LVU923
 3431 0050 DFED217A 		vldr.32	s15, .L192+4
 3432 0054 B4EE670A 		vcmp.f32	s0, s15
 3433 0058 F7EE007A 		vmov.f32	s15, #1.0e+0
 3434 005c F1EE10FA 		vmrs	APSR_nzcv, FPSCR
 3435 0060 27FE808A 		vselge.f32	s16, s15, s0
 3436              	.L180:
 3437              	.LVL236:
 3438              		.loc 2 499 31 view .LVU924
 3439              	.LBE574:
 3440              	.LBE573:
 163:GrannyChordApp.cpp ****     UpdateKnob1Params(knob1_val,curr_synth_mode_);
 3441              		.loc 2 163 3 is_stmt 1 view .LVU925
 3442 0064 04EB8505 		add	r5, r4, r5, lsl #2
 3443              	.LVL237:
 3444              	.LBB576:
 3445              	.LBI576:
 491:GrannyChordApp.cpp ****   return (fabsf(curr_val - prev_val)>0.01f);
 3446              		.loc 2 491 23 view .LVU926
 3447              	.LBB577:
 492:GrannyChordApp.cpp **** }
 3448              		.loc 2 492 3 view .LVU927
 492:GrannyChordApp.cpp **** }
 3449              		.loc 2 492 3 is_stmt 0 view .LVU928
 3450              	.LBE577:
 3451              	.LBE576:
 163:GrannyChordApp.cpp ****     UpdateKnob1Params(knob1_val,curr_synth_mode_);
 3452              		.loc 2 163 22 view .LVU929
 3453 0068 05F23466 		addw	r6, r5, #1588
 3454              	.LBB579:
 3455              	.LBB578:
ARM GAS  /var/folders/2p/02m_5p7958535cp2tpgps0400000gn/T//cco1mNMf.s 			page 99


 492:GrannyChordApp.cpp **** }
 3456              		.loc 2 492 26 view .LVU930
 3457 006c D6ED007A 		vldr.32	s15, [r6]
 3458 0070 78EEE77A 		vsub.f32	s15, s17, s15
 492:GrannyChordApp.cpp **** }
 3459              		.loc 2 492 16 view .LVU931
 3460 0074 F0EEE77A 		vabs.f32	s15, s15
 3461              	.LBE578:
 3462              	.LBE579:
 163:GrannyChordApp.cpp ****     UpdateKnob1Params(knob1_val,curr_synth_mode_);
 3463              		.loc 2 163 3 view .LVU932
 3464 0078 F4EEC97A 		vcmpe.f32	s15, s18
 3465 007c F1EE10FA 		vmrs	APSR_nzcv, FPSCR
 3466 0080 08DD     		ble	.L182
 164:GrannyChordApp.cpp ****     prev_param_vals_k1[mode_idx] = knob1_val;
 3467              		.loc 2 164 5 is_stmt 1 view .LVU933
 164:GrannyChordApp.cpp ****     prev_param_vals_k1[mode_idx] = knob1_val;
 3468              		.loc 2 164 22 is_stmt 0 view .LVU934
 3469 0082 B0EE680A 		vmov.f32	s0, s17
 3470 0086 D4F87C15 		ldr	r1, [r4, #1404]
 3471 008a 2046     		mov	r0, r4
 3472 008c FFF7FEFF 		bl	_ZN14GrannyChordApp17UpdateKnob1ParamsEf9SynthMode
 3473              	.LVL238:
 165:GrannyChordApp.cpp ****   }
 3474              		.loc 2 165 5 is_stmt 1 view .LVU935
 165:GrannyChordApp.cpp ****   }
 3475              		.loc 2 165 34 is_stmt 0 view .LVU936
 3476 0090 C6ED008A 		vstr.32	s17, [r6]
 3477              	.L182:
 167:GrannyChordApp.cpp ****     UpdateKnob2Params(knob2_val, curr_synth_mode_);
 3478              		.loc 2 167 3 is_stmt 1 view .LVU937
 3479              	.LVL239:
 3480              	.LBB580:
 3481              	.LBI580:
 491:GrannyChordApp.cpp ****   return (fabsf(curr_val - prev_val)>0.01f);
 3482              		.loc 2 491 23 view .LVU938
 3483              	.LBB581:
 492:GrannyChordApp.cpp **** }
 3484              		.loc 2 492 3 view .LVU939
 492:GrannyChordApp.cpp **** }
 3485              		.loc 2 492 3 is_stmt 0 view .LVU940
 3486              	.LBE581:
 3487              	.LBE580:
 167:GrannyChordApp.cpp ****     UpdateKnob2Params(knob2_val, curr_synth_mode_);
 3488              		.loc 2 167 21 view .LVU941
 3489 0094 05F5CA65 		add	r5, r5, #1616
 3490              	.LBB583:
 3491              	.LBB582:
 492:GrannyChordApp.cpp **** }
 3492              		.loc 2 492 26 view .LVU942
 3493 0098 D5ED007A 		vldr.32	s15, [r5]
 3494 009c 78EE677A 		vsub.f32	s15, s16, s15
 492:GrannyChordApp.cpp **** }
 3495              		.loc 2 492 16 view .LVU943
 3496 00a0 F0EEE77A 		vabs.f32	s15, s15
 3497              	.LBE582:
 3498              	.LBE583:
ARM GAS  /var/folders/2p/02m_5p7958535cp2tpgps0400000gn/T//cco1mNMf.s 			page 100


 167:GrannyChordApp.cpp ****     UpdateKnob2Params(knob2_val, curr_synth_mode_);
 3499              		.loc 2 167 3 view .LVU944
 3500 00a4 F4EEC97A 		vcmpe.f32	s15, s18
 3501 00a8 F1EE10FA 		vmrs	APSR_nzcv, FPSCR
 3502 00ac 08DD     		ble	.L175
 168:GrannyChordApp.cpp ****     prev_param_vals_k2[mode_idx] = knob2_val;
 3503              		.loc 2 168 5 is_stmt 1 view .LVU945
 168:GrannyChordApp.cpp ****     prev_param_vals_k2[mode_idx] = knob2_val;
 3504              		.loc 2 168 22 is_stmt 0 view .LVU946
 3505 00ae B0EE480A 		vmov.f32	s0, s16
 3506 00b2 D4F87C15 		ldr	r1, [r4, #1404]
 3507 00b6 2046     		mov	r0, r4
 3508 00b8 FFF7FEFF 		bl	_ZN14GrannyChordApp17UpdateKnob2ParamsEf9SynthMode
 3509              	.LVL240:
 169:GrannyChordApp.cpp ****   }
 3510              		.loc 2 169 5 is_stmt 1 view .LVU947
 169:GrannyChordApp.cpp ****   }
 3511              		.loc 2 169 34 is_stmt 0 view .LVU948
 3512 00bc 85ED008A 		vstr.32	s16, [r5]
 3513              	.LVL241:
 3514              	.L175:
 169:GrannyChordApp.cpp ****   }
 3515              		.loc 2 169 34 view .LVU949
 3516              	.LBE567:
 3517              	.LBE566:
 171:GrannyChordApp.cpp **** 
 3518              		.loc 2 171 1 view .LVU950
 3519 00c0 BDEC048B 		vldm	sp!, {d8-d9}
 3520              		.cfi_remember_state
 3521              		.cfi_restore 82
 3522              		.cfi_restore 83
 3523              		.cfi_restore 80
 3524              		.cfi_restore 81
 3525              		.cfi_def_cfa_offset 16
 3526 00c4 70BD     		pop	{r4, r5, r6, pc}
 3527              	.LVL242:
 3528              	.L186:
 3529              		.cfi_restore_state
 3530              	.LBB587:
 3531              	.LBB586:
 3532              	.LBB584:
 3533              	.LBB571:
 498:GrannyChordApp.cpp ****   if (knob_val>=0.99f) return 1.0f;
 3534              		.loc 2 498 31 view .LVU951
 3535 00c6 DFED058A 		vldr.32	s17, .L192+8
 3536 00ca B8E7     		b	.L178
 3537              	.LVL243:
 3538              	.L187:
 498:GrannyChordApp.cpp ****   if (knob_val>=0.99f) return 1.0f;
 3539              		.loc 2 498 31 view .LVU952
 3540              	.LBE571:
 3541              	.LBE584:
 3542              	.LBB585:
 3543              	.LBB575:
 3544 00cc 9FED038A 		vldr.32	s16, .L192+8
 3545 00d0 C8E7     		b	.L180
 3546              	.L193:
ARM GAS  /var/folders/2p/02m_5p7958535cp2tpgps0400000gn/T//cco1mNMf.s 			page 101


 3547 00d2 00BF     		.align	2
 3548              	.L192:
 3549 00d4 0AD7233C 		.word	1008981770
 3550 00d8 A4707D3F 		.word	1065185444
 3551 00dc 00000000 		.word	0
 3552              	.LBE575:
 3553              	.LBE585:
 3554              	.LBE586:
 3555              	.LBE587:
 3556              		.cfi_endproc
 3557              	.LFE4799:
 3559              		.section	.text._ZN14GrannyChordApp3RunEv,"ax",%progbits
 3560              		.align	1
 3561              		.global	_ZN14GrannyChordApp3RunEv
 3562              		.syntax unified
 3563              		.thumb
 3564              		.thumb_func
 3566              	_ZN14GrannyChordApp3RunEv:
 3567              	.LVL244:
 3568              	.LFB4788:
  31:GrannyChordApp.cpp ****   while(true){
 3569              		.loc 2 31 27 is_stmt 1 view -0
 3570              		.cfi_startproc
 3571              		@ Volatile: function does not return.
 3572              		@ args = 0, pretend = 0, frame = 0
 3573              		@ frame_needed = 0, uses_anonymous_args = 0
  31:GrannyChordApp.cpp ****   while(true){
 3574              		.loc 2 31 27 is_stmt 0 view .LVU954
 3575 0000 0446     		mov	r4, r0
 3576 0002 08B5     		push	{r3, lr}
 3577              		.cfi_def_cfa_offset 8
 3578              		.cfi_offset 3, -8
 3579              		.cfi_offset 14, -4
 3580              	.LVL245:
 3581              	.L195:
  32:GrannyChordApp.cpp ****     UpdateUI();
 3582              		.loc 2 32 3 is_stmt 1 discriminator 1 view .LVU955
  33:GrannyChordApp.cpp ****     UpdateSynthParams();
 3583              		.loc 2 33 5 discriminator 1 view .LVU956
  33:GrannyChordApp.cpp ****     UpdateSynthParams();
 3584              		.loc 2 33 13 is_stmt 0 discriminator 1 view .LVU957
 3585 0004 2046     		mov	r0, r4
 3586 0006 FFF7FEFF 		bl	_ZN14GrannyChordApp8UpdateUIEv
 3587              	.LVL246:
  34:GrannyChordApp.cpp ****     System::Delay(1);
 3588              		.loc 2 34 5 is_stmt 1 discriminator 1 view .LVU958
  34:GrannyChordApp.cpp ****     System::Delay(1);
 3589              		.loc 2 34 22 is_stmt 0 discriminator 1 view .LVU959
 3590 000a 2046     		mov	r0, r4
 3591 000c FFF7FEFF 		bl	_ZN14GrannyChordApp17UpdateSynthParamsEv
 3592              	.LVL247:
  35:GrannyChordApp.cpp ****   }
 3593              		.loc 2 35 5 is_stmt 1 discriminator 1 view .LVU960
  35:GrannyChordApp.cpp ****   }
 3594              		.loc 2 35 18 is_stmt 0 discriminator 1 view .LVU961
 3595 0010 0120     		movs	r0, #1
 3596 0012 FFF7FEFF 		bl	_ZN5daisy6System5DelayEm
ARM GAS  /var/folders/2p/02m_5p7958535cp2tpgps0400000gn/T//cco1mNMf.s 			page 102


 3597              	.LVL248:
  32:GrannyChordApp.cpp ****     UpdateUI();
 3598              		.loc 2 32 3 is_stmt 1 discriminator 1 view .LVU962
 3599 0016 F5E7     		b	.L195
 3600              		.cfi_endproc
 3601              	.LFE4788:
 3603              		.global	_ZN14GrannyChordApp9instance_E
 3604              		.section	.bss._ZN14GrannyChordApp9instance_E,"aw",%nobits
 3605              		.align	2
 3606              		.set	.LANCHOR1,. + 0
 3609              	_ZN14GrannyChordApp9instance_E:
 3610 0000 00000000 		.space	4
 3611              		.section	.bss._ZZN14GrannyChordApp15ProcessRecordInEPKPKfPPfjE10record_pos,"aw",%nobits
 3612              		.align	2
 3613              		.set	.LANCHOR0,. + 0
 3616              	_ZZN14GrannyChordApp15ProcessRecordInEPKPKfPPfjE10record_pos:
 3617 0000 00000000 		.space	4
 3618              		.text
 3619              	.Letext0:
 3620              		.file 15 "/Library/DaisyToolchain/0.2.0/arm/arm-none-eabi/include/machine/_default_types.h"
 3621              		.file 16 "/Library/DaisyToolchain/0.2.0/arm/arm-none-eabi/include/sys/_stdint.h"
 3622              		.file 17 "/Library/DaisyToolchain/0.2.0/arm/arm-none-eabi/include/stdint.h"
 3623              		.file 18 "/Library/DaisyToolchain/0.2.0/arm/lib/gcc/arm-none-eabi/10.3.1/include/stddef.h"
 3624              		.file 19 "/Library/DaisyToolchain/0.2.0/arm/arm-none-eabi/include/c++/10.3.1/cmath"
 3625              		.file 20 "/Library/DaisyToolchain/0.2.0/arm/arm-none-eabi/include/c++/10.3.1/bits/std_abs.h"
 3626              		.file 21 "/Library/DaisyToolchain/0.2.0/arm/arm-none-eabi/include/c++/10.3.1/cstdlib"
 3627              		.file 22 "/Library/DaisyToolchain/0.2.0/arm/arm-none-eabi/include/c++/10.3.1/cstdint"
 3628              		.file 23 "/Library/DaisyToolchain/0.2.0/arm/arm-none-eabi/include/c++/10.3.1/arm-none-eabi/thumb/v
 3629              		.file 24 "/Library/DaisyToolchain/0.2.0/arm/arm-none-eabi/include/c++/10.3.1/type_traits"
 3630              		.file 25 "/Library/DaisyToolchain/0.2.0/arm/arm-none-eabi/include/c++/10.3.1/debug/debug.h"
 3631              		.file 26 "/Library/DaisyToolchain/0.2.0/arm/arm-none-eabi/include/c++/10.3.1/bits/algorithmfwd.h"
 3632              		.file 27 "/Library/DaisyToolchain/0.2.0/arm/arm-none-eabi/include/c++/10.3.1/bits/stl_pair.h"
 3633              		.file 28 "/Library/DaisyToolchain/0.2.0/arm/arm-none-eabi/include/c++/10.3.1/bits/exception_ptr.h"
 3634              		.file 29 "/Library/DaisyToolchain/0.2.0/arm/arm-none-eabi/include/c++/10.3.1/initializer_list"
 3635              		.file 30 "/Library/DaisyToolchain/0.2.0/arm/arm-none-eabi/include/c++/10.3.1/cstdarg"
 3636              		.file 31 "/Library/DaisyToolchain/0.2.0/arm/arm-none-eabi/include/c++/10.3.1/cstdio"
 3637              		.file 32 "/Library/DaisyToolchain/0.2.0/arm/arm-none-eabi/include/c++/10.3.1/cstring"
 3638              		.file 33 "/Library/DaisyToolchain/0.2.0/arm/arm-none-eabi/include/c++/10.3.1/cwchar"
 3639              		.file 34 "/Library/DaisyToolchain/0.2.0/arm/arm-none-eabi/include/c++/10.3.1/clocale"
 3640              		.file 35 "/Library/DaisyToolchain/0.2.0/arm/arm-none-eabi/include/c++/10.3.1/bits/basic_string.h"
 3641              		.file 36 "/Library/DaisyToolchain/0.2.0/arm/arm-none-eabi/include/c++/10.3.1/bits/stl_iterator.h"
 3642              		.file 37 "/Library/DaisyToolchain/0.2.0/arm/arm-none-eabi/include/c++/10.3.1/bits/predefined_ops.h
 3643              		.file 38 "/Library/DaisyToolchain/0.2.0/arm/arm-none-eabi/include/sys/_types.h"
 3644              		.file 39 "/Library/DaisyToolchain/0.2.0/arm/arm-none-eabi/include/sys/reent.h"
 3645              		.file 40 "/Library/DaisyToolchain/0.2.0/arm/arm-none-eabi/include/sys/lock.h"
 3646              		.file 41 "/Library/DaisyToolchain/0.2.0/arm/arm-none-eabi/include/math.h"
 3647              		.file 42 "/Library/DaisyToolchain/0.2.0/arm/arm-none-eabi/include/stdlib.h"
 3648              		.file 43 "/Library/DaisyToolchain/0.2.0/arm/arm-none-eabi/include/c++/10.3.1/math.h"
 3649              		.file 44 "/Library/DaisyToolchain/0.2.0/arm/arm-none-eabi/include/c++/10.3.1/stdlib.h"
 3650              		.file 45 "../libDaisy/src/per/tim.h"
 3651              		.file 46 "../libDaisy/src/sys/system.h"
 3652              		.file 47 "../libDaisy/src/per/qspi.h"
 3653              		.file 48 "../libDaisy/src/per/dac.h"
 3654              		.file 49 "../libDaisy/src/per/sai.h"
 3655              		.file 50 "../libDaisy/src/hid/audio.h"
 3656              		.file 51 "../libDaisy/src/per/adc.h"
 3657              		.file 52 "../libDaisy/src/per/uart.h"
ARM GAS  /var/folders/2p/02m_5p7958535cp2tpgps0400000gn/T//cco1mNMf.s 			page 103


 3658              		.file 53 "../libDaisy/src/hid/MidiEvent.h"
 3659              		.file 54 "../libDaisy/src/hid/midi_parser.h"
 3660              		.file 55 "../libDaisy/src/hid/usb.h"
 3661              		.file 56 "../libDaisy/src/hid/midi.h"
 3662              		.file 57 "../libDaisy/src/util/FIFO.h"
 3663              		.file 58 "../libDaisy/src/hid/ctrl.h"
 3664              		.file 59 "../libDaisy/src/hid/logger_impl.h"
 3665              		.file 60 "../libDaisy/src/per/sdmmc.h"
 3666              		.file 61 "../libDaisy/src/util/wav_format.h"
 3667              		.file 62 "../libDaisy/src/hid/led.h"
 3668              		.file 63 "../libDaisy/src/util/color.h"
 3669              		.file 64 "../libDaisy/src/hid/rgb_led.h"
 3670              		.file 65 "../libDaisy/src/dev/max11300.h"
 3671              		.file 66 "../libDaisy/src/sys/fatfs.h"
 3672              		.file 67 "../libDaisy/src/hid/logger.h"
 3673              		.file 68 "../libDaisy/src/daisy_pod.h"
 3674              		.file 69 "../libDaisy/src/per/gpio.h"
 3675              		.file 70 "../libDaisy/src/dev/sdram.h"
 3676              		.file 71 "/Library/DaisyToolchain/0.2.0/arm/lib/gcc/arm-none-eabi/10.3.1/include/stdarg.h"
 3677              		.file 72 "/Library/DaisyToolchain/0.2.0/arm/arm-none-eabi/include/stdio.h"
 3678              		.file 73 "../libDaisy/Middlewares/Third_Party/FatFs/src/integer.h"
 3679              		.file 74 "../libDaisy/Middlewares/Third_Party/FatFs/src/ff.h"
 3680              		.file 75 "/Library/DaisyToolchain/0.2.0/arm/arm-none-eabi/include/string.h"
 3681              		.file 76 "../DaisySP/Source/Control/adenv.h"
 3682              		.file 77 "/Library/DaisyToolchain/0.2.0/arm/arm-none-eabi/include/wchar.h"
 3683              		.file 78 "/Library/DaisyToolchain/0.2.0/arm/arm-none-eabi/include/time.h"
 3684              		.file 79 "/Library/DaisyToolchain/0.2.0/arm/arm-none-eabi/include/locale.h"
 3685              		.file 80 "AppState.h"
 3686              		.file 81 "UIManager.h"
 3687              		.file 82 "GrainPhasor.h"
 3688              		.file 83 "Grain.h"
 3689              		.file 84 "GrannyChordApp.h"
 3690              		.file 85 "../libDaisy/src/dev/sr_595.h"
 3691              		.file 86 "<built-in>"
ARM GAS  /var/folders/2p/02m_5p7958535cp2tpgps0400000gn/T//cco1mNMf.s 			page 104


DEFINED SYMBOLS
                            *ABS*:0000000000000000 GrannyChordApp.cpp
/var/folders/2p/02m_5p7958535cp2tpgps0400000gn/T//cco1mNMf.s:19     .text._ZNK5daisy6Switch10TimeHeldMsEv:0000000000000000 $t
/var/folders/2p/02m_5p7958535cp2tpgps0400000gn/T//cco1mNMf.s:25     .text._ZNK5daisy6Switch10TimeHeldMsEv:0000000000000000 _ZNK5daisy6Switch10TimeHeldMsEv
/var/folders/2p/02m_5p7958535cp2tpgps0400000gn/T//cco1mNMf.s:84     .text._ZNK5daisy6Switch10TimeHeldMsEv:0000000000000028 $d
/var/folders/2p/02m_5p7958535cp2tpgps0400000gn/T//cco1mNMf.s:89     .text._ZN14GrannyChordApp20HandleEncoderPressedEv:0000000000000000 $t
/var/folders/2p/02m_5p7958535cp2tpgps0400000gn/T//cco1mNMf.s:95     .text._ZN14GrannyChordApp20HandleEncoderPressedEv:0000000000000000 _ZN14GrannyChordApp20HandleEncoderPressedEv
/var/folders/2p/02m_5p7958535cp2tpgps0400000gn/T//cco1mNMf.s:136    .text._ZN14GrannyChordApp22HandleEncoderLongPressEv:0000000000000000 $t
/var/folders/2p/02m_5p7958535cp2tpgps0400000gn/T//cco1mNMf.s:142    .text._ZN14GrannyChordApp22HandleEncoderLongPressEv:0000000000000000 _ZN14GrannyChordApp22HandleEncoderLongPressEv
/var/folders/2p/02m_5p7958535cp2tpgps0400000gn/T//cco1mNMf.s:188    .text._ZN14GrannyChordApp19HandleFileSelectionEl:0000000000000000 $t
/var/folders/2p/02m_5p7958535cp2tpgps0400000gn/T//cco1mNMf.s:194    .text._ZN14GrannyChordApp19HandleFileSelectionEl:0000000000000000 _ZN14GrannyChordApp19HandleFileSelectionEl
/var/folders/2p/02m_5p7958535cp2tpgps0400000gn/T//cco1mNMf.s:252    .text._ZN14GrannyChordApp19HandleFileSelectionEl:0000000000000024 $d
/var/folders/2p/02m_5p7958535cp2tpgps0400000gn/T//cco1mNMf.s:259    .text._ZN14GrannyChordApp15UpdateSynthModeEv:0000000000000000 $t
/var/folders/2p/02m_5p7958535cp2tpgps0400000gn/T//cco1mNMf.s:265    .text._ZN14GrannyChordApp15UpdateSynthModeEv:0000000000000000 _ZN14GrannyChordApp15UpdateSynthModeEv
/var/folders/2p/02m_5p7958535cp2tpgps0400000gn/T//cco1mNMf.s:279    .text._ZN14GrannyChordApp15UpdateSynthModeEv:000000000000000c $d
/var/folders/2p/02m_5p7958535cp2tpgps0400000gn/T//cco1mNMf.s:321    .text._ZN14GrannyChordApp13HandleButton1Ev:0000000000000000 $t
/var/folders/2p/02m_5p7958535cp2tpgps0400000gn/T//cco1mNMf.s:327    .text._ZN14GrannyChordApp13HandleButton1Ev:0000000000000000 _ZN14GrannyChordApp13HandleButton1Ev
/var/folders/2p/02m_5p7958535cp2tpgps0400000gn/T//cco1mNMf.s:350    .text._ZN14GrannyChordApp24ToggleRandomnessControlsEv:0000000000000000 $t
/var/folders/2p/02m_5p7958535cp2tpgps0400000gn/T//cco1mNMf.s:356    .text._ZN14GrannyChordApp24ToggleRandomnessControlsEv:0000000000000000 _ZN14GrannyChordApp24ToggleRandomnessControlsEv
/var/folders/2p/02m_5p7958535cp2tpgps0400000gn/T//cco1mNMf.s:381    .text._ZN14GrannyChordApp13HandleButton2Ev:0000000000000000 $t
/var/folders/2p/02m_5p7958535cp2tpgps0400000gn/T//cco1mNMf.s:387    .text._ZN14GrannyChordApp13HandleButton2Ev:0000000000000000 _ZN14GrannyChordApp13HandleButton2Ev
/var/folders/2p/02m_5p7958535cp2tpgps0400000gn/T//cco1mNMf.s:410    .text._ZN14GrannyChordApp8ToggleFXEb:0000000000000000 $t
/var/folders/2p/02m_5p7958535cp2tpgps0400000gn/T//cco1mNMf.s:416    .text._ZN14GrannyChordApp8ToggleFXEb:0000000000000000 _ZN14GrannyChordApp8ToggleFXEb
/var/folders/2p/02m_5p7958535cp2tpgps0400000gn/T//cco1mNMf.s:454    .text._ZN14GrannyChordApp22HandleButton1LongPressEv:0000000000000000 $t
/var/folders/2p/02m_5p7958535cp2tpgps0400000gn/T//cco1mNMf.s:460    .text._ZN14GrannyChordApp22HandleButton1LongPressEv:0000000000000000 _ZN14GrannyChordApp22HandleButton1LongPressEv
/var/folders/2p/02m_5p7958535cp2tpgps0400000gn/T//cco1mNMf.s:484    .text._ZN14GrannyChordApp22HandleButton2LongPressEv:0000000000000000 $t
/var/folders/2p/02m_5p7958535cp2tpgps0400000gn/T//cco1mNMf.s:490    .text._ZN14GrannyChordApp22HandleButton2LongPressEv:0000000000000000 _ZN14GrannyChordApp22HandleButton2LongPressEv
/var/folders/2p/02m_5p7958535cp2tpgps0400000gn/T//cco1mNMf.s:521    .text._ZN14GrannyChordApp11InitFileMgrEv:0000000000000000 $t
/var/folders/2p/02m_5p7958535cp2tpgps0400000gn/T//cco1mNMf.s:527    .text._ZN14GrannyChordApp11InitFileMgrEv:0000000000000000 _ZN14GrannyChordApp11InitFileMgrEv
/var/folders/2p/02m_5p7958535cp2tpgps0400000gn/T//cco1mNMf.s:627    .text._ZN14GrannyChordApp11InitFileMgrEv:0000000000000044 $d
/var/folders/2p/02m_5p7958535cp2tpgps0400000gn/T//cco1mNMf.s:638    .text._ZN14GrannyChordApp9InitSynthEv:0000000000000000 $t
/var/folders/2p/02m_5p7958535cp2tpgps0400000gn/T//cco1mNMf.s:644    .text._ZN14GrannyChordApp9InitSynthEv:0000000000000000 _ZN14GrannyChordApp9InitSynthEv
/var/folders/2p/02m_5p7958535cp2tpgps0400000gn/T//cco1mNMf.s:686    .text._ZN14GrannyChordApp17ClearAudioBuffersEv:0000000000000000 $t
/var/folders/2p/02m_5p7958535cp2tpgps0400000gn/T//cco1mNMf.s:692    .text._ZN14GrannyChordApp17ClearAudioBuffersEv:0000000000000000 _ZN14GrannyChordApp17ClearAudioBuffersEv
/var/folders/2p/02m_5p7958535cp2tpgps0400000gn/T//cco1mNMf.s:733    .text._ZN14GrannyChordApp12InitPlaybackEv:0000000000000000 $t
/var/folders/2p/02m_5p7958535cp2tpgps0400000gn/T//cco1mNMf.s:739    .text._ZN14GrannyChordApp12InitPlaybackEv:0000000000000000 _ZN14GrannyChordApp12InitPlaybackEv
/var/folders/2p/02m_5p7958535cp2tpgps0400000gn/T//cco1mNMf.s:781    .text._ZN14GrannyChordApp17HandleStateChangeEv:0000000000000000 $t
/var/folders/2p/02m_5p7958535cp2tpgps0400000gn/T//cco1mNMf.s:787    .text._ZN14GrannyChordApp17HandleStateChangeEv:0000000000000000 _ZN14GrannyChordApp17HandleStateChangeEv
/var/folders/2p/02m_5p7958535cp2tpgps0400000gn/T//cco1mNMf.s:809    .text._ZN14GrannyChordApp17HandleStateChangeEv:0000000000000012 $d
/var/folders/2p/02m_5p7958535cp2tpgps0400000gn/T//cco1mNMf.s:813    .text._ZN14GrannyChordApp17HandleStateChangeEv:0000000000000016 $t
/var/folders/2p/02m_5p7958535cp2tpgps0400000gn/T//cco1mNMf.s:898    .text._ZN14GrannyChordApp8UpdateUIEv:0000000000000000 $t
/var/folders/2p/02m_5p7958535cp2tpgps0400000gn/T//cco1mNMf.s:904    .text._ZN14GrannyChordApp8UpdateUIEv:0000000000000000 _ZN14GrannyChordApp8UpdateUIEv
/var/folders/2p/02m_5p7958535cp2tpgps0400000gn/T//cco1mNMf.s:1134   .text._ZN14GrannyChordApp8UpdateUIEv:00000000000000cc $d
/var/folders/2p/02m_5p7958535cp2tpgps0400000gn/T//cco1mNMf.s:1142   .text._ZN14GrannyChordApp12InitRecordInEv:0000000000000000 $t
/var/folders/2p/02m_5p7958535cp2tpgps0400000gn/T//cco1mNMf.s:1148   .text._ZN14GrannyChordApp12InitRecordInEv:0000000000000000 _ZN14GrannyChordApp12InitRecordInEv
/var/folders/2p/02m_5p7958535cp2tpgps0400000gn/T//cco1mNMf.s:1171   .text._ZN14GrannyChordApp12InitRecordInEv:0000000000000008 $d
/var/folders/2p/02m_5p7958535cp2tpgps0400000gn/T//cco1mNMf.s:1178   .text._ZN14GrannyChordApp13InitWavWriterEv:0000000000000000 $t
/var/folders/2p/02m_5p7958535cp2tpgps0400000gn/T//cco1mNMf.s:1184   .text._ZN14GrannyChordApp13InitWavWriterEv:0000000000000000 _ZN14GrannyChordApp13InitWavWriterEv
/var/folders/2p/02m_5p7958535cp2tpgps0400000gn/T//cco1mNMf.s:1383   .text._ZN14GrannyChordApp13InitWavWriterEv:00000000000000a8 $d
/var/folders/2p/02m_5p7958535cp2tpgps0400000gn/T//cco1mNMf.s:1390   .text._ZN14GrannyChordApp6InitFXEv:0000000000000000 $t
/var/folders/2p/02m_5p7958535cp2tpgps0400000gn/T//cco1mNMf.s:1396   .text._ZN14GrannyChordApp6InitFXEv:0000000000000000 _ZN14GrannyChordApp6InitFXEv
/var/folders/2p/02m_5p7958535cp2tpgps0400000gn/T//cco1mNMf.s:1546   .text._ZN14GrannyChordApp6InitFXEv:0000000000000054 $d
/var/folders/2p/02m_5p7958535cp2tpgps0400000gn/T//cco1mNMf.s:1556   .text._ZN14GrannyChordApp4InitEPsS0_PN7daisysp8ReverbScE:0000000000000000 $t
/var/folders/2p/02m_5p7958535cp2tpgps0400000gn/T//cco1mNMf.s:1562   .text._ZN14GrannyChordApp4InitEPsS0_PN7daisysp8ReverbScE:0000000000000000 _ZN14GrannyChordApp4InitEPsS0_PN7daisysp8ReverbScE
/var/folders/2p/02m_5p7958535cp2tpgps0400000gn/T//cco1mNMf.s:1672   .text._ZN14GrannyChordApp4InitEPsS0_PN7daisysp8ReverbScE:000000000000005c $d
/var/folders/2p/02m_5p7958535cp2tpgps0400000gn/T//cco1mNMf.s:2362   .text._ZN14GrannyChordApp13AudioCallbackEPKPKfPPfj:0000000000000000 _ZN14GrannyChordApp13AudioCallbackEPKPKfPPfj
/var/folders/2p/02m_5p7958535cp2tpgps0400000gn/T//cco1mNMf.s:1679   .text._ZN14GrannyChordApp17InitPrevParamValsEv:0000000000000000 $t
ARM GAS  /var/folders/2p/02m_5p7958535cp2tpgps0400000gn/T//cco1mNMf.s 			page 105


/var/folders/2p/02m_5p7958535cp2tpgps0400000gn/T//cco1mNMf.s:1685   .text._ZN14GrannyChordApp17InitPrevParamValsEv:0000000000000000 _ZN14GrannyChordApp17InitPrevParamValsEv
/var/folders/2p/02m_5p7958535cp2tpgps0400000gn/T//cco1mNMf.s:1719   .text._ZN14GrannyChordApp9AudioIdleEPPfj:0000000000000000 $t
/var/folders/2p/02m_5p7958535cp2tpgps0400000gn/T//cco1mNMf.s:1725   .text._ZN14GrannyChordApp9AudioIdleEPPfj:0000000000000000 _ZN14GrannyChordApp9AudioIdleEPPfj
/var/folders/2p/02m_5p7958535cp2tpgps0400000gn/T//cco1mNMf.s:1775   .text._ZN14GrannyChordApp18ProcessWAVPlaybackEPPfj:0000000000000000 $t
/var/folders/2p/02m_5p7958535cp2tpgps0400000gn/T//cco1mNMf.s:1781   .text._ZN14GrannyChordApp18ProcessWAVPlaybackEPPfj:0000000000000000 _ZN14GrannyChordApp18ProcessWAVPlaybackEPPfj
/var/folders/2p/02m_5p7958535cp2tpgps0400000gn/T//cco1mNMf.s:1929   .text._ZN14GrannyChordApp18ProcessWAVPlaybackEPPfj:0000000000000068 $d
/var/folders/2p/02m_5p7958535cp2tpgps0400000gn/T//cco1mNMf.s:1934   .text._ZN14GrannyChordApp15ProcessRecordInEPKPKfPPfj:0000000000000000 $t
/var/folders/2p/02m_5p7958535cp2tpgps0400000gn/T//cco1mNMf.s:1940   .text._ZN14GrannyChordApp15ProcessRecordInEPKPKfPPfj:0000000000000000 _ZN14GrannyChordApp15ProcessRecordInEPKPKfPPfj
/var/folders/2p/02m_5p7958535cp2tpgps0400000gn/T//cco1mNMf.s:2035   .text._ZN14GrannyChordApp15ProcessRecordInEPKPKfPPfj:0000000000000078 $d
/var/folders/2p/02m_5p7958535cp2tpgps0400000gn/T//cco1mNMf.s:2041   .text._ZN14GrannyChordApp16ProcessSynthesisEPPfj:0000000000000000 $t
/var/folders/2p/02m_5p7958535cp2tpgps0400000gn/T//cco1mNMf.s:2047   .text._ZN14GrannyChordApp16ProcessSynthesisEPPfj:0000000000000000 _ZN14GrannyChordApp16ProcessSynthesisEPPfj
/var/folders/2p/02m_5p7958535cp2tpgps0400000gn/T//cco1mNMf.s:2205   .text._ZN14GrannyChordApp12ProcessAudioEPKPKfPPfj:0000000000000000 $t
/var/folders/2p/02m_5p7958535cp2tpgps0400000gn/T//cco1mNMf.s:2211   .text._ZN14GrannyChordApp12ProcessAudioEPKPKfPPfj:0000000000000000 _ZN14GrannyChordApp12ProcessAudioEPKPKfPPfj
/var/folders/2p/02m_5p7958535cp2tpgps0400000gn/T//cco1mNMf.s:2356   .text._ZN14GrannyChordApp13AudioCallbackEPKPKfPPfj:0000000000000000 $t
/var/folders/2p/02m_5p7958535cp2tpgps0400000gn/T//cco1mNMf.s:2390   .text._ZN14GrannyChordApp13AudioCallbackEPKPKfPPfj:0000000000000010 $d
/var/folders/2p/02m_5p7958535cp2tpgps0400000gn/T//cco1mNMf.s:2395   .text._ZN14GrannyChordApp16ProcessChordModeEPPfj:0000000000000000 $t
/var/folders/2p/02m_5p7958535cp2tpgps0400000gn/T//cco1mNMf.s:2401   .text._ZN14GrannyChordApp16ProcessChordModeEPPfj:0000000000000000 _ZN14GrannyChordApp16ProcessChordModeEPPfj
/var/folders/2p/02m_5p7958535cp2tpgps0400000gn/T//cco1mNMf.s:2418   .text._ZN14GrannyChordApp13RecordOutToSDEPPfj:0000000000000000 $t
/var/folders/2p/02m_5p7958535cp2tpgps0400000gn/T//cco1mNMf.s:2424   .text._ZN14GrannyChordApp13RecordOutToSDEPPfj:0000000000000000 _ZN14GrannyChordApp13RecordOutToSDEPPfj
/var/folders/2p/02m_5p7958535cp2tpgps0400000gn/T//cco1mNMf.s:2530   .text._ZN14GrannyChordApp13RecordOutToSDEPPfj:0000000000000060 $d
/var/folders/2p/02m_5p7958535cp2tpgps0400000gn/T//cco1mNMf.s:2535   .text._ZN14GrannyChordApp17UpdateKnob1ParamsEf9SynthMode:0000000000000000 $t
/var/folders/2p/02m_5p7958535cp2tpgps0400000gn/T//cco1mNMf.s:2541   .text._ZN14GrannyChordApp17UpdateKnob1ParamsEf9SynthMode:0000000000000000 _ZN14GrannyChordApp17UpdateKnob1ParamsEf9SynthMode
/var/folders/2p/02m_5p7958535cp2tpgps0400000gn/T//cco1mNMf.s:2554   .text._ZN14GrannyChordApp17UpdateKnob1ParamsEf9SynthMode:0000000000000008 $d
/var/folders/2p/02m_5p7958535cp2tpgps0400000gn/T//cco1mNMf.s:2857   .text._ZN14GrannyChordApp17UpdateKnob1ParamsEf9SynthMode:0000000000000094 $d
/var/folders/2p/02m_5p7958535cp2tpgps0400000gn/T//cco1mNMf.s:2864   .text._ZN14GrannyChordApp17UpdateKnob2ParamsEf9SynthMode:0000000000000000 $t
/var/folders/2p/02m_5p7958535cp2tpgps0400000gn/T//cco1mNMf.s:2870   .text._ZN14GrannyChordApp17UpdateKnob2ParamsEf9SynthMode:0000000000000000 _ZN14GrannyChordApp17UpdateKnob2ParamsEf9SynthMode
/var/folders/2p/02m_5p7958535cp2tpgps0400000gn/T//cco1mNMf.s:2895   .text._ZN14GrannyChordApp17UpdateKnob2ParamsEf9SynthMode:0000000000000014 $d
/var/folders/2p/02m_5p7958535cp2tpgps0400000gn/T//cco1mNMf.s:3328   .text._ZN14GrannyChordApp17UpdateKnob2ParamsEf9SynthMode:00000000000000fc $d
/var/folders/2p/02m_5p7958535cp2tpgps0400000gn/T//cco1mNMf.s:3340   .text._ZN14GrannyChordApp17UpdateSynthParamsEv:0000000000000000 $t
/var/folders/2p/02m_5p7958535cp2tpgps0400000gn/T//cco1mNMf.s:3346   .text._ZN14GrannyChordApp17UpdateSynthParamsEv:0000000000000000 _ZN14GrannyChordApp17UpdateSynthParamsEv
/var/folders/2p/02m_5p7958535cp2tpgps0400000gn/T//cco1mNMf.s:3549   .text._ZN14GrannyChordApp17UpdateSynthParamsEv:00000000000000d4 $d
/var/folders/2p/02m_5p7958535cp2tpgps0400000gn/T//cco1mNMf.s:3560   .text._ZN14GrannyChordApp3RunEv:0000000000000000 $t
/var/folders/2p/02m_5p7958535cp2tpgps0400000gn/T//cco1mNMf.s:3566   .text._ZN14GrannyChordApp3RunEv:0000000000000000 _ZN14GrannyChordApp3RunEv
/var/folders/2p/02m_5p7958535cp2tpgps0400000gn/T//cco1mNMf.s:3609   .bss._ZN14GrannyChordApp9instance_E:0000000000000000 _ZN14GrannyChordApp9instance_E
/var/folders/2p/02m_5p7958535cp2tpgps0400000gn/T//cco1mNMf.s:3605   .bss._ZN14GrannyChordApp9instance_E:0000000000000000 $d
/var/folders/2p/02m_5p7958535cp2tpgps0400000gn/T//cco1mNMf.s:3612   .bss._ZZN14GrannyChordApp15ProcessRecordInEPKPKfPPfjE10record_pos:0000000000000000 $d
/var/folders/2p/02m_5p7958535cp2tpgps0400000gn/T//cco1mNMf.s:3616   .bss._ZZN14GrannyChordApp15ProcessRecordInEPKPKfPPfjE10record_pos:0000000000000000 _ZZN14GrannyChordApp15ProcessRecordInEPKPKfPPfjE10record_pos
/var/folders/2p/02m_5p7958535cp2tpgps0400000gn/T//cco1mNMf.s:286    .text._ZN14GrannyChordApp15UpdateSynthModeEv:0000000000000013 $d
/var/folders/2p/02m_5p7958535cp2tpgps0400000gn/T//cco1mNMf.s:286    .text._ZN14GrannyChordApp15UpdateSynthModeEv:0000000000000014 $t
/var/folders/2p/02m_5p7958535cp2tpgps0400000gn/T//cco1mNMf.s:2563   .text._ZN14GrannyChordApp17UpdateKnob1ParamsEf9SynthMode:0000000000000011 $d
/var/folders/2p/02m_5p7958535cp2tpgps0400000gn/T//cco1mNMf.s:2563   .text._ZN14GrannyChordApp17UpdateKnob1ParamsEf9SynthMode:0000000000000012 $t
/var/folders/2p/02m_5p7958535cp2tpgps0400000gn/T//cco1mNMf.s:2904   .text._ZN14GrannyChordApp17UpdateKnob2ParamsEf9SynthMode:000000000000001d $d
/var/folders/2p/02m_5p7958535cp2tpgps0400000gn/T//cco1mNMf.s:2904   .text._ZN14GrannyChordApp17UpdateKnob2ParamsEf9SynthMode:000000000000001e $t

UNDEFINED SYMBOLS
_ZN5daisy6System6GetNowEv
_ZN5daisy6LoggerILNS_17LoggerDestinationE1EE9PrintLineEPKcz
_ZN16AudioFileManager10SetBuffersEPsS0_
_ZN16AudioFileManager4InitEv
_ZN16AudioFileManager12ScanWavFilesEv
_ZN13GranularSynth4InitEPKsS1_j
memset
_ZN16AudioFileManager8LoadFileEt
_ZN5daisy6RgbLed6SetRedEf
_ZN5daisy8DaisyPod22ProcessDigitalControlsEv
_ZN5daisy8DaisyPod15AudioSampleRateEv
_ZN7daisysp10Compressor4InitEf
ARM GAS  /var/folders/2p/02m_5p7958535cp2tpgps0400000gn/T//cco1mNMf.s 			page 106


_ZN7daisysp8ReverbSc4InitEf
_ZN7daisysp10MoogLadder4InitEf
_ZN5daisy8DaisyPod17SetAudioBlockSizeEj
_ZN5daisy8DaisyPod18SetAudioSampleRateENS_9SaiHandle6Config10SampleRateE
time
_ZN5daisy8DaisyPod8StartAdcEv
_ZN5daisy8DaisyPod10StartAudioEPFvPKPKfPPfjE
rng_state
_ZN13GranularSynth13ProcessGrainsEPfS0_j
_ZN7daisysp10Compressor12ProcessBlockEPfS1_S1_j
_ZN7daisysp8ReverbSc7ProcessERKfS2_PfS3_
sprintf
f_open
f_write
_ZN13GranularSynth12SetGrainSizeEf
_ZN13GranularSynth13SetPitchRatioEf
_ZN13GranularSynth6SetPanEf
_ZN13GranularSynth13SetPhasorModeEN11GrainPhasor4ModeE
_ZN13GranularSynth11SetSpawnPosEf
_ZN13GranularSynth15SetActiveGrainsEf
_ZN13GranularSynth15SetEnvelopeTypeEN5Grain12EnvelopeTypeE
tanf
_ZN5daisy13AnalogControl7ProcessEv
_ZN5daisy6System5DelayEm
