ARM GAS  /var/folders/2p/02m_5p7958535cp2tpgps0400000gn/T//ccHnEWZO.s 			page 1


   1              		.cpu cortex-m7
   2              		.arch armv7e-m
   3              		.fpu fpv5-d16
   4              		.eabi_attribute 28, 1
   5              		.eabi_attribute 20, 1
   6              		.eabi_attribute 21, 1
   7              		.eabi_attribute 23, 3
   8              		.eabi_attribute 24, 1
   9              		.eabi_attribute 25, 1
  10              		.eabi_attribute 26, 1
  11              		.eabi_attribute 30, 4
  12              		.eabi_attribute 34, 1
  13              		.eabi_attribute 18, 4
  14              		.file	"GrannyChordApp.cpp"
  15              		.text
  16              	.Ltext0:
  17              		.cfi_sections	.debug_frame
  18              		.section	.text._ZN7daisysp7OnePole12SetFrequencyEf,"axG",%progbits,_ZN7daisysp7OnePole12SetFrequen
  19              		.align	1
  20              		.weak	_ZN7daisysp7OnePole12SetFrequencyEf
  21              		.syntax unified
  22              		.thumb
  23              		.thumb_func
  25              	_ZN7daisysp7OnePole12SetFrequencyEf:
  26              	.LVL0:
  27              	.LFB4465:
  28              		.file 1 "../DaisySP/Source/Filters/onepole.h"
   1:../DaisySP/Source/Filters/onepole.h **** /*
   2:../DaisySP/Source/Filters/onepole.h **** Copyright (c) 2020 Electrosmith, Corp, Emilie Gillet
   3:../DaisySP/Source/Filters/onepole.h **** 
   4:../DaisySP/Source/Filters/onepole.h **** Use of this source code is governed by an MIT-style
   5:../DaisySP/Source/Filters/onepole.h **** license that can be found in the LICENSE file or at
   6:../DaisySP/Source/Filters/onepole.h **** https://opensource.org/licenses/MIT.
   7:../DaisySP/Source/Filters/onepole.h **** */
   8:../DaisySP/Source/Filters/onepole.h **** 
   9:../DaisySP/Source/Filters/onepole.h **** #ifndef DSY_ONEPOLE_H
  10:../DaisySP/Source/Filters/onepole.h **** #define DSY_ONEPOLE_H
  11:../DaisySP/Source/Filters/onepole.h **** 
  12:../DaisySP/Source/Filters/onepole.h **** #include "Utility/dsp.h"
  13:../DaisySP/Source/Filters/onepole.h **** #include <cmath>
  14:../DaisySP/Source/Filters/onepole.h **** #include <algorithm>
  15:../DaisySP/Source/Filters/onepole.h **** 
  16:../DaisySP/Source/Filters/onepole.h **** namespace daisysp
  17:../DaisySP/Source/Filters/onepole.h **** {
  18:../DaisySP/Source/Filters/onepole.h **** /**         
  19:../DaisySP/Source/Filters/onepole.h ****     @brief One Pole Lowpass / Highpass Filter
  20:../DaisySP/Source/Filters/onepole.h ****     @author beserge
  21:../DaisySP/Source/Filters/onepole.h ****     @date Dec 2023 
  22:../DaisySP/Source/Filters/onepole.h ****     Ported from pichenettes/stmlib/dsp/filter.h \n 
  23:../DaisySP/Source/Filters/onepole.h ****     \n to an independent module. \n
  24:../DaisySP/Source/Filters/onepole.h ****     Original code written by Emilie Gillet. \n
  25:../DaisySP/Source/Filters/onepole.h **** */
  26:../DaisySP/Source/Filters/onepole.h **** class OnePole
  27:../DaisySP/Source/Filters/onepole.h **** {
  28:../DaisySP/Source/Filters/onepole.h ****   public:
  29:../DaisySP/Source/Filters/onepole.h ****     OnePole() {}
  30:../DaisySP/Source/Filters/onepole.h ****     ~OnePole() {}
ARM GAS  /var/folders/2p/02m_5p7958535cp2tpgps0400000gn/T//ccHnEWZO.s 			page 2


  31:../DaisySP/Source/Filters/onepole.h **** 
  32:../DaisySP/Source/Filters/onepole.h ****     /**
  33:../DaisySP/Source/Filters/onepole.h ****      * @brief Operational modes of the filter
  34:../DaisySP/Source/Filters/onepole.h ****      * - LOW_PASS = cuts out high frequency sound, lets low frequency sound pass through
  35:../DaisySP/Source/Filters/onepole.h ****      * - HIGH_PASS = cuts out low frequency sound, lets high frequency sound pass through
  36:../DaisySP/Source/Filters/onepole.h ****      */
  37:../DaisySP/Source/Filters/onepole.h ****     enum FilterMode
  38:../DaisySP/Source/Filters/onepole.h ****     {
  39:../DaisySP/Source/Filters/onepole.h ****         FILTER_MODE_LOW_PASS,
  40:../DaisySP/Source/Filters/onepole.h ****         FILTER_MODE_HIGH_PASS
  41:../DaisySP/Source/Filters/onepole.h ****     };
  42:../DaisySP/Source/Filters/onepole.h **** 
  43:../DaisySP/Source/Filters/onepole.h ****     /** Initializes the module */
  44:../DaisySP/Source/Filters/onepole.h ****     void Init()
  45:../DaisySP/Source/Filters/onepole.h ****     {
  46:../DaisySP/Source/Filters/onepole.h ****         Reset();
  47:../DaisySP/Source/Filters/onepole.h ****         mode_ = FILTER_MODE_LOW_PASS;
  48:../DaisySP/Source/Filters/onepole.h ****     }
  49:../DaisySP/Source/Filters/onepole.h **** 
  50:../DaisySP/Source/Filters/onepole.h ****     /** Reset the module to its default state */
  51:../DaisySP/Source/Filters/onepole.h ****     inline void Reset() { state_ = 0.0f; }
  52:../DaisySP/Source/Filters/onepole.h **** 
  53:../DaisySP/Source/Filters/onepole.h ****     /** Set the filter cutoff frequency
  54:../DaisySP/Source/Filters/onepole.h ****     *   \param freq Cutoff frequency. Valid range from 0 to .497f
  55:../DaisySP/Source/Filters/onepole.h ****     */
  56:../DaisySP/Source/Filters/onepole.h ****     inline void SetFrequency(float freq)
  29              		.loc 1 56 17 view -0
  30              		.cfi_startproc
  31              		@ args = 0, pretend = 0, frame = 0
  32              		@ frame_needed = 0, uses_anonymous_args = 0
  57:../DaisySP/Source/Filters/onepole.h ****     {
  58:../DaisySP/Source/Filters/onepole.h ****         // Clip coefficient to about 100.
  59:../DaisySP/Source/Filters/onepole.h ****         freq = freq < 0.497f ? freq : 0.497f;
  33              		.loc 1 59 9 view .LVU1
  34              		.loc 1 59 30 is_stmt 0 view .LVU2
  35 0000 DFED0D7A 		vldr.32	s15, .L3
  36 0004 B4EEE70A 		vcmpe.f32	s0, s15
  56:../DaisySP/Source/Filters/onepole.h ****     {
  37              		.loc 1 56 17 view .LVU3
  38 0008 10B5     		push	{r4, lr}
  39              		.cfi_def_cfa_offset 8
  40              		.cfi_offset 4, -8
  41              		.cfi_offset 14, -4
  42              		.loc 1 59 30 view .LVU4
  43 000a F1EE10FA 		vmrs	APSR_nzcv, FPSCR
  56:../DaisySP/Source/Filters/onepole.h ****     {
  44              		.loc 1 56 17 view .LVU5
  45 000e 0446     		mov	r4, r0
  46              		.loc 1 59 30 view .LVU6
  47 0010 58BF     		it	pl
  48 0012 B0EE670A 		vmovpl.f32	s0, s15
  49              	.LVL1:
  60:../DaisySP/Source/Filters/onepole.h **** 
  61:../DaisySP/Source/Filters/onepole.h ****         g_  = tanf(PI_F * freq);
  50              		.loc 1 61 9 is_stmt 1 view .LVU7
  51              		.loc 1 61 19 is_stmt 0 view .LVU8
  52 0016 DFED097A 		vldr.32	s15, .L3+4
ARM GAS  /var/folders/2p/02m_5p7958535cp2tpgps0400000gn/T//ccHnEWZO.s 			page 3


  53 001a 20EE270A 		vmul.f32	s0, s0, s15
  54              	.LVL2:
  55              		.loc 1 61 19 view .LVU9
  56 001e FFF7FEFF 		bl	tanf
  57              	.LVL3:
  62:../DaisySP/Source/Filters/onepole.h ****         gi_ = 1.f / (1.f + g_);
  58              		.loc 1 62 26 view .LVU10
  59 0022 F7EE007A 		vmov.f32	s15, #1.0e+0
  61:../DaisySP/Source/Filters/onepole.h ****         gi_ = 1.f / (1.f + g_);
  60              		.loc 1 61 13 view .LVU11
  61 0026 84ED000A 		vstr.32	s0, [r4]
  62              		.loc 1 62 9 is_stmt 1 view .LVU12
  63              		.loc 1 62 26 is_stmt 0 view .LVU13
  64 002a 30EE270A 		vadd.f32	s0, s0, s15
  65              		.loc 1 62 19 view .LVU14
  66 002e 87EE807A 		vdiv.f32	s14, s15, s0
  67              		.loc 1 62 13 view .LVU15
  68 0032 84ED017A 		vstr.32	s14, [r4, #4]
  63:../DaisySP/Source/Filters/onepole.h ****     }
  69              		.loc 1 63 5 view .LVU16
  70 0036 10BD     		pop	{r4, pc}
  71              	.LVL4:
  72              	.L4:
  73              		.loc 1 63 5 view .LVU17
  74              		.align	2
  75              	.L3:
  76 0038 C976FE3E 		.word	1056863945
  77 003c DB0F4940 		.word	1078530011
  78              		.cfi_endproc
  79              	.LFE4465:
  81              		.section	.text._ZN7daisysp7OnePole7ProcessEf,"axG",%progbits,_ZN7daisysp7OnePole7ProcessEf,comdat
  82              		.align	1
  83              		.weak	_ZN7daisysp7OnePole7ProcessEf
  84              		.syntax unified
  85              		.thumb
  86              		.thumb_func
  88              	_ZN7daisysp7OnePole7ProcessEf:
  89              	.LVL5:
  90              	.LFB4467:
  64:../DaisySP/Source/Filters/onepole.h **** 
  65:../DaisySP/Source/Filters/onepole.h ****     /** Set the filter mode
  66:../DaisySP/Source/Filters/onepole.h ****     *   \param mode Filter mode. Can be lowpass or highpass
  67:../DaisySP/Source/Filters/onepole.h ****     */
  68:../DaisySP/Source/Filters/onepole.h ****     inline void SetFilterMode(FilterMode mode) { mode_ = mode; }
  69:../DaisySP/Source/Filters/onepole.h **** 
  70:../DaisySP/Source/Filters/onepole.h ****     /** Process audio through the filter
  71:../DaisySP/Source/Filters/onepole.h ****     *   \param in The next sample to be processed
  72:../DaisySP/Source/Filters/onepole.h ****     */
  73:../DaisySP/Source/Filters/onepole.h ****     inline float Process(float in)
  91              		.loc 1 73 18 is_stmt 1 view -0
  92              		.cfi_startproc
  93              		@ args = 0, pretend = 0, frame = 0
  94              		@ frame_needed = 0, uses_anonymous_args = 0
  95              		@ link register save eliminated.
  74:../DaisySP/Source/Filters/onepole.h ****     {
  75:../DaisySP/Source/Filters/onepole.h ****         float lp;
  96              		.loc 1 75 9 view .LVU19
ARM GAS  /var/folders/2p/02m_5p7958535cp2tpgps0400000gn/T//ccHnEWZO.s 			page 4


  76:../DaisySP/Source/Filters/onepole.h ****         lp     = (g_ * in + state_) * gi_;
  97              		.loc 1 76 9 view .LVU20
  98              		.loc 1 76 19 is_stmt 0 view .LVU21
  99 0000 D0ED006A 		vldr.32	s13, [r0]
  73:../DaisySP/Source/Filters/onepole.h ****     {
 100              		.loc 1 73 18 view .LVU22
 101 0004 B0EE407A 		vmov.f32	s14, s0
 102              		.loc 1 76 27 view .LVU23
 103 0008 D0ED027A 		vldr.32	s15, [r0, #8]
  77:../DaisySP/Source/Filters/onepole.h ****         state_ = g_ * (in - lp) + lp;
  78:../DaisySP/Source/Filters/onepole.h **** 
  79:../DaisySP/Source/Filters/onepole.h ****         switch(mode_)
 104              		.loc 1 79 16 view .LVU24
 105 000c 037B     		ldrb	r3, [r0, #12]	@ zero_extendqisi2
  76:../DaisySP/Source/Filters/onepole.h ****         state_ = g_ * (in - lp) + lp;
 106              		.loc 1 76 27 view .LVU25
 107 000e E6EE807A 		vfma.f32	s15, s13, s0
  76:../DaisySP/Source/Filters/onepole.h ****         state_ = g_ * (in - lp) + lp;
 108              		.loc 1 76 16 view .LVU26
 109 0012 90ED010A 		vldr.32	s0, [r0, #4]
 110              	.LVL6:
  76:../DaisySP/Source/Filters/onepole.h ****         state_ = g_ * (in - lp) + lp;
 111              		.loc 1 76 16 view .LVU27
 112 0016 27EE800A 		vmul.f32	s0, s15, s0
 113              	.LVL7:
  77:../DaisySP/Source/Filters/onepole.h ****         state_ = g_ * (in - lp) + lp;
 114              		.loc 1 77 9 is_stmt 1 view .LVU28
  77:../DaisySP/Source/Filters/onepole.h ****         state_ = g_ * (in - lp) + lp;
 115              		.loc 1 77 27 is_stmt 0 view .LVU29
 116 001a 77EE407A 		vsub.f32	s15, s14, s0
  77:../DaisySP/Source/Filters/onepole.h ****         state_ = g_ * (in - lp) + lp;
 117              		.loc 1 77 33 view .LVU30
 118 001e B0EE407A 		vmov.f32	s14, s0
 119              	.LVL8:
  77:../DaisySP/Source/Filters/onepole.h ****         state_ = g_ * (in - lp) + lp;
 120              		.loc 1 77 33 view .LVU31
 121 0022 A6EEA77A 		vfma.f32	s14, s13, s15
  77:../DaisySP/Source/Filters/onepole.h ****         state_ = g_ * (in - lp) + lp;
 122              		.loc 1 77 16 view .LVU32
 123 0026 80ED027A 		vstr.32	s14, [r0, #8]
 124              		.loc 1 79 9 is_stmt 1 view .LVU33
 125 002a 23B1     		cbz	r3, .L5
 126 002c 012B     		cmp	r3, #1
 127 002e 9FED020A 		vldr.32	s0, .L11
 128              	.LVL9:
 129              		.loc 1 79 9 is_stmt 0 view .LVU34
 130 0032 07FE800A 		vseleq.f32	s0, s15, s0
 131              	.L5:
  80:../DaisySP/Source/Filters/onepole.h ****         {
  81:../DaisySP/Source/Filters/onepole.h ****             case FILTER_MODE_LOW_PASS: return lp;
  82:../DaisySP/Source/Filters/onepole.h ****             case FILTER_MODE_HIGH_PASS: return in - lp;
  83:../DaisySP/Source/Filters/onepole.h ****         }
  84:../DaisySP/Source/Filters/onepole.h **** 
  85:../DaisySP/Source/Filters/onepole.h ****         return 0.0f;
  86:../DaisySP/Source/Filters/onepole.h ****     }
 132              		.loc 1 86 5 view .LVU35
 133 0036 7047     		bx	lr
ARM GAS  /var/folders/2p/02m_5p7958535cp2tpgps0400000gn/T//ccHnEWZO.s 			page 5


 134              	.L12:
 135              		.align	2
 136              	.L11:
 137 0038 00000000 		.word	0
 138              		.cfi_endproc
 139              	.LFE4467:
 141              		.section	.rodata._ZN14GrannyChordApp12PrintCPULoadEv.str1.1,"aMS",%progbits,1
 142              	.LC0:
 143 0000 50726F63 		.ascii	"Processing Load %:\000"
 143      65737369 
 143      6E67204C 
 143      6F616420 
 143      253A00
 144              	.LC1:
 145 0013 4D61783A 		.ascii	"Max: %c%d.%03d\000"
 145      20256325 
 145      642E2530 
 145      336400
 146              	.LC2:
 147 0022 4176673A 		.ascii	"Avg: %c%d.%03d\000"
 147      20256325 
 147      642E2530 
 147      336400
 148              	.LC3:
 149 0031 4D696E3A 		.ascii	"Min: %c%d.%03d\000"
 149      20256325 
 149      642E2530 
 149      336400
 150              	.LC4:
 151 0040 6163636F 		.ascii	"account: %d\000"
 151      756E743A 
 151      20256400 
 152              		.section	.text._ZN14GrannyChordApp12PrintCPULoadEv,"ax",%progbits
 153              		.align	1
 154              		.global	_ZN14GrannyChordApp12PrintCPULoadEv
 155              		.syntax unified
 156              		.thumb
 157              		.thumb_func
 159              	_ZN14GrannyChordApp12PrintCPULoadEv:
 160              	.LVL10:
 161              	.LFB4915:
 162              		.file 2 "GrannyChordApp.cpp"
   1:GrannyChordApp.cpp **** #ifdef DEBUG_MODE // TODO: remove
   2:GrannyChordApp.cpp **** #pragma message("Debug mode is ON")
   3:GrannyChordApp.cpp **** #else
   4:GrannyChordApp.cpp **** #pragma message("Debug mode is OFF")
   5:GrannyChordApp.cpp **** #endif
   6:GrannyChordApp.cpp **** 
   7:GrannyChordApp.cpp **** #include "GrannyChordApp.h"
   8:GrannyChordApp.cpp **** 
   9:GrannyChordApp.cpp **** /* this is required for AudioCallback as it needs a static object */
  10:GrannyChordApp.cpp **** GrannyChordApp* GrannyChordApp::instance_ = nullptr;
  11:GrannyChordApp.cpp **** 
  12:GrannyChordApp.cpp **** /// @brief Initialises app state and members and goes through app startup process
  13:GrannyChordApp.cpp **** /// @param left Left channel audio data buffer
  14:GrannyChordApp.cpp **** /// @param right Right channel audio data buffer
  15:GrannyChordApp.cpp **** void GrannyChordApp::Init(int16_t *left, int16_t *right){
ARM GAS  /var/folders/2p/02m_5p7958535cp2tpgps0400000gn/T//ccHnEWZO.s 			page 6


  16:GrannyChordApp.cpp ****   left_buf_ = left, right_buf_ = right;
  17:GrannyChordApp.cpp ****   pod_.SetAudioBlockSize(2);
  18:GrannyChordApp.cpp ****   pod_.SetAudioSampleRate(SaiHandle::Config::SampleRate::SAI_48KHZ);
  19:GrannyChordApp.cpp ****   curr_state_ = AppState::SelectFile;
  20:GrannyChordApp.cpp ****   // SetupTimer();
  21:GrannyChordApp.cpp ****   if (!InitFileMgr()){
  22:GrannyChordApp.cpp ****     DebugPrint(pod_,"File manager failed to init");
  23:GrannyChordApp.cpp ****     pod_.led1.SetRed(1);
  24:GrannyChordApp.cpp ****     pod_.led2.SetRed(1);
  25:GrannyChordApp.cpp ****     pod_.UpdateLeds();
  26:GrannyChordApp.cpp ****     return;
  27:GrannyChordApp.cpp ****   }
  28:GrannyChordApp.cpp ****   loadmeter.Init(pod_.AudioSampleRate(), pod_.AudioBlockSize());
  29:GrannyChordApp.cpp ****   InitFX();
  30:GrannyChordApp.cpp ****   InitPrevParamVals();
  31:GrannyChordApp.cpp ****   InitColours();
  32:GrannyChordApp.cpp ****   SetLedAppState();
  33:GrannyChordApp.cpp ****   pod_.UpdateLeds();
  34:GrannyChordApp.cpp ****   SeedRng();
  35:GrannyChordApp.cpp ****   synth_.Init(left_buf_, right_buf_, 0);
  36:GrannyChordApp.cpp ****   pod_.StartAdc();
  37:GrannyChordApp.cpp **** }
  38:GrannyChordApp.cpp **** 
  39:GrannyChordApp.cpp **** // #ifdef DEBUG_MODE
  40:GrannyChordApp.cpp **** void GrannyChordApp::PrintCPULoad(){
 163              		.loc 2 40 36 is_stmt 1 view -0
 164              		.cfi_startproc
 165              		@ args = 0, pretend = 0, frame = 0
 166              		@ frame_needed = 0, uses_anonymous_args = 0
  41:GrannyChordApp.cpp ****   const float avgLoad = loadmeter.GetAvgCpuLoad();
 167              		.loc 2 41 3 view .LVU37
 168              	.LBB322:
 169              	.LBI322:
 170              		.file 3 "../libDaisy/src/util/CpuLoadMeter.h"
   1:../libDaisy/src/util/CpuLoadMeter.h **** #pragma once
   2:../libDaisy/src/util/CpuLoadMeter.h **** 
   3:../libDaisy/src/util/CpuLoadMeter.h **** #include "sys/system.h"
   4:../libDaisy/src/util/CpuLoadMeter.h **** #include <cmath>
   5:../libDaisy/src/util/CpuLoadMeter.h **** 
   6:../libDaisy/src/util/CpuLoadMeter.h **** namespace daisy
   7:../libDaisy/src/util/CpuLoadMeter.h **** {
   8:../libDaisy/src/util/CpuLoadMeter.h **** /** @brief CPU load metering
   9:../libDaisy/src/util/CpuLoadMeter.h ****  *  @author jelliesen
  10:../libDaisy/src/util/CpuLoadMeter.h ****  *  @addtogroup utility
  11:../libDaisy/src/util/CpuLoadMeter.h ****  * 
  12:../libDaisy/src/util/CpuLoadMeter.h ****  *  To measure the CPU load of your audio processing, create a CpuLoadMeter
  13:../libDaisy/src/util/CpuLoadMeter.h ****  *  and initialize it with your block size and sample rate.
  14:../libDaisy/src/util/CpuLoadMeter.h ****  *  Then at the beginning of the audio callback, call `OnBlockStart()`, 
  15:../libDaisy/src/util/CpuLoadMeter.h ****  *  and at the end of the audio callback, call `OnBlockEnd()`.
  16:../libDaisy/src/util/CpuLoadMeter.h ****  *  You can then read out the minimum, maximum and average CPU load.
  17:../libDaisy/src/util/CpuLoadMeter.h ****  */
  18:../libDaisy/src/util/CpuLoadMeter.h **** class CpuLoadMeter
  19:../libDaisy/src/util/CpuLoadMeter.h **** {
  20:../libDaisy/src/util/CpuLoadMeter.h ****   public:
  21:../libDaisy/src/util/CpuLoadMeter.h ****     CpuLoadMeter(){};
  22:../libDaisy/src/util/CpuLoadMeter.h **** 
  23:../libDaisy/src/util/CpuLoadMeter.h ****     /** Initializes the CpuLoadMeter for a particular sample rate and block size.
ARM GAS  /var/folders/2p/02m_5p7958535cp2tpgps0400000gn/T//ccHnEWZO.s 			page 7


  24:../libDaisy/src/util/CpuLoadMeter.h ****      *  @param sampleRateInHz           The sample rate in Hz
  25:../libDaisy/src/util/CpuLoadMeter.h ****      *  @param blockSizeInSamples       The block size in samples
  26:../libDaisy/src/util/CpuLoadMeter.h ****      *  @param smoothingFilterCutoffHz  The cutoff frequency of the smoothing filter that's used to
  27:../libDaisy/src/util/CpuLoadMeter.h ****      *                                  create the average CPU load reading.
  28:../libDaisy/src/util/CpuLoadMeter.h ****      */
  29:../libDaisy/src/util/CpuLoadMeter.h ****     void Init(float sampleRateInHz,
  30:../libDaisy/src/util/CpuLoadMeter.h ****               int   blockSizeInSamples,
  31:../libDaisy/src/util/CpuLoadMeter.h ****               float smoothingFilterCutoffHz = 1.0f)
  32:../libDaisy/src/util/CpuLoadMeter.h ****     {
  33:../libDaisy/src/util/CpuLoadMeter.h ****         const auto secPerBlock = float(blockSizeInSamples) / sampleRateInHz;
  34:../libDaisy/src/util/CpuLoadMeter.h ****         const auto ticksPerS   = float(System::GetTickFreq());
  35:../libDaisy/src/util/CpuLoadMeter.h ****         ticksPerBlockInv_      = 1.0f / (ticksPerS * secPerBlock);
  36:../libDaisy/src/util/CpuLoadMeter.h **** 
  37:../libDaisy/src/util/CpuLoadMeter.h ****         // update filter coefficient for smoothing filter (1pole lowpass)
  38:../libDaisy/src/util/CpuLoadMeter.h ****         const auto blockRateInHz = sampleRateInHz / float(blockSizeInSamples);
  39:../libDaisy/src/util/CpuLoadMeter.h ****         const auto cutoffNormalized
  40:../libDaisy/src/util/CpuLoadMeter.h ****             = smoothingFilterCutoffHz * 2.0f * 3.141592653f / blockRateInHz;
  41:../libDaisy/src/util/CpuLoadMeter.h ****         // according to
  42:../libDaisy/src/util/CpuLoadMeter.h ****         // https://en.wikipedia.org/wiki/Low-pass_filter#Simple_infinite_impulse_response_filter
  43:../libDaisy/src/util/CpuLoadMeter.h ****         smoothingConstant_ = cutoffNormalized / (cutoffNormalized + 1.0f);
  44:../libDaisy/src/util/CpuLoadMeter.h **** 
  45:../libDaisy/src/util/CpuLoadMeter.h ****         Reset();
  46:../libDaisy/src/util/CpuLoadMeter.h ****     }
  47:../libDaisy/src/util/CpuLoadMeter.h **** 
  48:../libDaisy/src/util/CpuLoadMeter.h ****     /** Call this at the beginning of your audio callback */
  49:../libDaisy/src/util/CpuLoadMeter.h ****     void OnBlockStart() { currentBlockStartTicks_ = System::GetTick(); }
  50:../libDaisy/src/util/CpuLoadMeter.h **** 
  51:../libDaisy/src/util/CpuLoadMeter.h ****     /** Call this at the end of your audio callback */
  52:../libDaisy/src/util/CpuLoadMeter.h ****     void OnBlockEnd()
  53:../libDaisy/src/util/CpuLoadMeter.h ****     {
  54:../libDaisy/src/util/CpuLoadMeter.h ****         const auto end         = System::GetTick();
  55:../libDaisy/src/util/CpuLoadMeter.h ****         const auto ticksPassed = end - currentBlockStartTicks_;
  56:../libDaisy/src/util/CpuLoadMeter.h ****         const auto currentBlockLoad
  57:../libDaisy/src/util/CpuLoadMeter.h ****             = float(ticksPassed) * ticksPerBlockInv_; // usPassed / usPerBlock
  58:../libDaisy/src/util/CpuLoadMeter.h **** 
  59:../libDaisy/src/util/CpuLoadMeter.h ****         if(firstCycle_)
  60:../libDaisy/src/util/CpuLoadMeter.h ****         {
  61:../libDaisy/src/util/CpuLoadMeter.h ****             max_ = min_ = avg_ = currentBlockLoad;
  62:../libDaisy/src/util/CpuLoadMeter.h ****             firstCycle_        = false;
  63:../libDaisy/src/util/CpuLoadMeter.h ****         }
  64:../libDaisy/src/util/CpuLoadMeter.h ****         else
  65:../libDaisy/src/util/CpuLoadMeter.h ****         {
  66:../libDaisy/src/util/CpuLoadMeter.h ****             if(currentBlockLoad > max_)
  67:../libDaisy/src/util/CpuLoadMeter.h ****                 max_ = currentBlockLoad;
  68:../libDaisy/src/util/CpuLoadMeter.h ****             if(currentBlockLoad < min_)
  69:../libDaisy/src/util/CpuLoadMeter.h ****                 min_ = currentBlockLoad;
  70:../libDaisy/src/util/CpuLoadMeter.h **** 
  71:../libDaisy/src/util/CpuLoadMeter.h ****             avg_ = smoothingConstant_ * currentBlockLoad
  72:../libDaisy/src/util/CpuLoadMeter.h ****                    + (1.0f - smoothingConstant_) * avg_;
  73:../libDaisy/src/util/CpuLoadMeter.h ****         }
  74:../libDaisy/src/util/CpuLoadMeter.h ****     }
  75:../libDaisy/src/util/CpuLoadMeter.h **** 
  76:../libDaisy/src/util/CpuLoadMeter.h ****     /** Returns the smoothed average CPU load in the range 0..1 */
  77:../libDaisy/src/util/CpuLoadMeter.h ****     float GetAvgCpuLoad() const { return avg_; }
 171              		.loc 3 77 11 view .LVU38
 172              	.LBB323:
 173              		.loc 3 77 35 view .LVU39
ARM GAS  /var/folders/2p/02m_5p7958535cp2tpgps0400000gn/T//ccHnEWZO.s 			page 8


 174              	.LBE323:
 175              	.LBE322:
  40:GrannyChordApp.cpp ****   const float avgLoad = loadmeter.GetAvgCpuLoad();
 176              		.loc 2 40 36 is_stmt 0 view .LVU40
 177 0000 10B5     		push	{r4, lr}
 178              		.cfi_def_cfa_offset 8
 179              		.cfi_offset 4, -8
 180              		.cfi_offset 14, -4
 181 0002 2DED068B 		vpush.64	{d8, d9, d10}
 182              		.cfi_def_cfa_offset 32
 183              		.cfi_offset 80, -32
 184              		.cfi_offset 81, -28
 185              		.cfi_offset 82, -24
 186              		.cfi_offset 83, -20
 187              		.cfi_offset 84, -16
 188              		.cfi_offset 85, -12
 189              	.LBB325:
 190              	.LBB326:
  78:../libDaisy/src/util/CpuLoadMeter.h ****     /** Returns the minimun CPU load observed since the last call to Reset(). */
  79:../libDaisy/src/util/CpuLoadMeter.h ****     float GetMinCpuLoad() const { return min_; }
  80:../libDaisy/src/util/CpuLoadMeter.h ****     /** Returns the maximum CPU load observed since the last call to Reset(). */
  81:../libDaisy/src/util/CpuLoadMeter.h ****     float GetMaxCpuLoad() const { return max_; }
 191              		.loc 3 81 42 view .LVU41
 192 0006 90ED049A 		vldr.32	s18, [r0, #16]
 193              	.LBE326:
 194              	.LBE325:
  40:GrannyChordApp.cpp ****   const float avgLoad = loadmeter.GetAvgCpuLoad();
 195              		.loc 2 40 36 view .LVU42
 196 000a 0446     		mov	r4, r0
  42:GrannyChordApp.cpp ****   const float maxLoad = loadmeter.GetMaxCpuLoad();
  43:GrannyChordApp.cpp ****   const float minLoad = loadmeter.GetMinCpuLoad();
  44:GrannyChordApp.cpp ****   pod_.seed.PrintLine("Processing Load %:");
  45:GrannyChordApp.cpp ****   pod_.seed.PrintLine("Max: " FLT_FMT3, FLT_VAR3(maxLoad * 100.0f));
 197              		.loc 2 45 41 view .LVU43
 198 000c DFED3CAA 		vldr.32	s21, .L20+8
 199              	.LBB328:
 200              	.LBB324:
  77:../libDaisy/src/util/CpuLoadMeter.h ****     /** Returns the minimun CPU load observed since the last call to Reset(). */
 201              		.loc 3 77 42 view .LVU44
 202 0010 D0ED058A 		vldr.32	s17, [r0, #20]
 203              	.LVL11:
  77:../libDaisy/src/util/CpuLoadMeter.h ****     /** Returns the minimun CPU load observed since the last call to Reset(). */
 204              		.loc 3 77 42 view .LVU45
 205              	.LBE324:
 206              	.LBE328:
  42:GrannyChordApp.cpp ****   const float maxLoad = loadmeter.GetMaxCpuLoad();
 207              		.loc 2 42 3 is_stmt 1 view .LVU46
 208              	.LBB329:
 209              	.LBI325:
 210              		.loc 3 81 11 view .LVU47
 211              	.LBB327:
 212              		.loc 3 81 35 view .LVU48
 213              		.loc 3 81 35 is_stmt 0 view .LVU49
 214              	.LBE327:
 215              	.LBE329:
  43:GrannyChordApp.cpp ****   pod_.seed.PrintLine("Processing Load %:");
 216              		.loc 2 43 3 is_stmt 1 view .LVU50
ARM GAS  /var/folders/2p/02m_5p7958535cp2tpgps0400000gn/T//ccHnEWZO.s 			page 9


 217              	.LBB330:
 218              	.LBI330:
  79:../libDaisy/src/util/CpuLoadMeter.h ****     /** Returns the maximum CPU load observed since the last call to Reset(). */
 219              		.loc 3 79 11 view .LVU51
 220              	.LBB331:
  79:../libDaisy/src/util/CpuLoadMeter.h ****     /** Returns the maximum CPU load observed since the last call to Reset(). */
 221              		.loc 3 79 35 view .LVU52
  79:../libDaisy/src/util/CpuLoadMeter.h ****     /** Returns the maximum CPU load observed since the last call to Reset(). */
 222              		.loc 3 79 42 is_stmt 0 view .LVU53
 223 0014 90ED038A 		vldr.32	s16, [r0, #12]
 224              	.LVL12:
  79:../libDaisy/src/util/CpuLoadMeter.h ****     /** Returns the maximum CPU load observed since the last call to Reset(). */
 225              		.loc 3 79 42 view .LVU54
 226              	.LBE331:
 227              	.LBE330:
  44:GrannyChordApp.cpp ****   pod_.seed.PrintLine("Max: " FLT_FMT3, FLT_VAR3(maxLoad * 100.0f));
 228              		.loc 2 44 3 is_stmt 1 view .LVU55
 229              	.LBB332:
 230              	.LBI332:
 231              		.file 4 "../libDaisy/src/daisy_seed.h"
   1:../libDaisy/src/daisy_seed.h **** #pragma once
   2:../libDaisy/src/daisy_seed.h **** #ifndef DSY_SEED_H
   3:../libDaisy/src/daisy_seed.h **** #define DSY_SEED_H
   4:../libDaisy/src/daisy_seed.h **** 
   5:../libDaisy/src/daisy_seed.h **** #include "daisy.h"
   6:../libDaisy/src/daisy_seed.h **** 
   7:../libDaisy/src/daisy_seed.h **** //Uncomment this out if you're still using the rev2 hardware
   8:../libDaisy/src/daisy_seed.h **** //#define SEED_REV2
   9:../libDaisy/src/daisy_seed.h **** 
  10:../libDaisy/src/daisy_seed.h **** namespace daisy
  11:../libDaisy/src/daisy_seed.h **** {
  12:../libDaisy/src/daisy_seed.h **** /**
  13:../libDaisy/src/daisy_seed.h ****    @brief This is the higher-level interface for the Daisy board. \n 
  14:../libDaisy/src/daisy_seed.h ****     All basic peripheral configuration/initialization is setup here. \n
  15:../libDaisy/src/daisy_seed.h **** 
  16:../libDaisy/src/daisy_seed.h ****    @ingroup boards
  17:../libDaisy/src/daisy_seed.h **** */
  18:../libDaisy/src/daisy_seed.h **** class DaisySeed
  19:../libDaisy/src/daisy_seed.h **** {
  20:../libDaisy/src/daisy_seed.h ****   public:
  21:../libDaisy/src/daisy_seed.h ****     DaisySeed() {}
  22:../libDaisy/src/daisy_seed.h ****     ~DaisySeed() {}
  23:../libDaisy/src/daisy_seed.h **** 
  24:../libDaisy/src/daisy_seed.h ****     /** This function used to provide a pre-initialization configuraiton 
  25:../libDaisy/src/daisy_seed.h ****      *  it has since been deprecated, and does nothing.
  26:../libDaisy/src/daisy_seed.h ****      */
  27:../libDaisy/src/daisy_seed.h ****     void Configure();
  28:../libDaisy/src/daisy_seed.h **** 
  29:../libDaisy/src/daisy_seed.h ****     /** 
  30:../libDaisy/src/daisy_seed.h ****     Initializes the Daisy Seed and the following peripherals:
  31:../libDaisy/src/daisy_seed.h ****     SDRAM, QSPI, 24-bit 48kHz Audio via AK4556, Internal USB,
  32:../libDaisy/src/daisy_seed.h ****     as well as the built-in LED and Testpoint.
  33:../libDaisy/src/daisy_seed.h **** 
  34:../libDaisy/src/daisy_seed.h ****     ADCs, DACs, and other special peripherals (such as I2C, SPI, etc.)
  35:../libDaisy/src/daisy_seed.h ****     can be initialized using their specific initializers within libdaisy
  36:../libDaisy/src/daisy_seed.h ****     for a specific application.
  37:../libDaisy/src/daisy_seed.h ****     */
ARM GAS  /var/folders/2p/02m_5p7958535cp2tpgps0400000gn/T//ccHnEWZO.s 			page 10


  38:../libDaisy/src/daisy_seed.h ****     void Init(bool boost = false);
  39:../libDaisy/src/daisy_seed.h **** 
  40:../libDaisy/src/daisy_seed.h ****     /** 
  41:../libDaisy/src/daisy_seed.h ****     Deinitializes all peripherals automatically handled by `Init`.
  42:../libDaisy/src/daisy_seed.h ****     */
  43:../libDaisy/src/daisy_seed.h ****     void DeInit();
  44:../libDaisy/src/daisy_seed.h **** 
  45:../libDaisy/src/daisy_seed.h ****     /** 
  46:../libDaisy/src/daisy_seed.h ****     Wait some ms before going on.
  47:../libDaisy/src/daisy_seed.h ****     \param del Delay time in ms.
  48:../libDaisy/src/daisy_seed.h ****     */
  49:../libDaisy/src/daisy_seed.h ****     void DelayMs(size_t del);
  50:../libDaisy/src/daisy_seed.h **** 
  51:../libDaisy/src/daisy_seed.h ****     /** 
  52:../libDaisy/src/daisy_seed.h ****     Returns the gpio_pin corresponding to the index 0-31.
  53:../libDaisy/src/daisy_seed.h ****     For the given GPIO on the Daisy Seed (labeled 1-32 in docs).
  54:../libDaisy/src/daisy_seed.h ****     */
  55:../libDaisy/src/daisy_seed.h ****     static dsy_gpio_pin GetPin(uint8_t pin_idx);
  56:../libDaisy/src/daisy_seed.h **** 
  57:../libDaisy/src/daisy_seed.h ****     /** Begins the audio for the seeds builtin audio.
  58:../libDaisy/src/daisy_seed.h ****     the specified callback will get called whenever
  59:../libDaisy/src/daisy_seed.h ****     new data is ready to be prepared.
  60:../libDaisy/src/daisy_seed.h ****     */
  61:../libDaisy/src/daisy_seed.h ****     void StartAudio(AudioHandle::InterleavingAudioCallback cb);
  62:../libDaisy/src/daisy_seed.h **** 
  63:../libDaisy/src/daisy_seed.h ****     /** Begins the audio for the seeds builtin audio.
  64:../libDaisy/src/daisy_seed.h ****     the specified callback will get called whenever
  65:../libDaisy/src/daisy_seed.h ****     new data is ready to be prepared.
  66:../libDaisy/src/daisy_seed.h ****     This will use the newer non-interleaved callback.
  67:../libDaisy/src/daisy_seed.h ****     */
  68:../libDaisy/src/daisy_seed.h ****     void StartAudio(AudioHandle::AudioCallback cb);
  69:../libDaisy/src/daisy_seed.h **** 
  70:../libDaisy/src/daisy_seed.h ****     /** Changes to a new interleaved callback
  71:../libDaisy/src/daisy_seed.h ****      */
  72:../libDaisy/src/daisy_seed.h ****     void ChangeAudioCallback(AudioHandle::InterleavingAudioCallback cb);
  73:../libDaisy/src/daisy_seed.h **** 
  74:../libDaisy/src/daisy_seed.h ****     /** Changes to a new multichannel callback
  75:../libDaisy/src/daisy_seed.h ****      */
  76:../libDaisy/src/daisy_seed.h ****     void ChangeAudioCallback(AudioHandle::AudioCallback cb);
  77:../libDaisy/src/daisy_seed.h **** 
  78:../libDaisy/src/daisy_seed.h ****     /** Stops the audio if it is running. */
  79:../libDaisy/src/daisy_seed.h ****     void StopAudio();
  80:../libDaisy/src/daisy_seed.h **** 
  81:../libDaisy/src/daisy_seed.h ****     /** Updates the Audio Sample Rate, and reinitializes.
  82:../libDaisy/src/daisy_seed.h ****      ** Audio must be stopped for this to work.
  83:../libDaisy/src/daisy_seed.h ****      */
  84:../libDaisy/src/daisy_seed.h ****     void SetAudioSampleRate(SaiHandle::Config::SampleRate samplerate);
  85:../libDaisy/src/daisy_seed.h **** 
  86:../libDaisy/src/daisy_seed.h ****     /** Returns the audio sample rate in Hz as a floating point number.
  87:../libDaisy/src/daisy_seed.h ****      */
  88:../libDaisy/src/daisy_seed.h ****     float AudioSampleRate();
  89:../libDaisy/src/daisy_seed.h **** 
  90:../libDaisy/src/daisy_seed.h ****     /** Sets the number of samples processed per channel by the audio callback.
  91:../libDaisy/src/daisy_seed.h ****      */
  92:../libDaisy/src/daisy_seed.h ****     void SetAudioBlockSize(size_t blocksize);
  93:../libDaisy/src/daisy_seed.h **** 
  94:../libDaisy/src/daisy_seed.h ****     /** Returns the number of samples per channel in a block of audio. */
ARM GAS  /var/folders/2p/02m_5p7958535cp2tpgps0400000gn/T//ccHnEWZO.s 			page 11


  95:../libDaisy/src/daisy_seed.h ****     size_t AudioBlockSize();
  96:../libDaisy/src/daisy_seed.h **** 
  97:../libDaisy/src/daisy_seed.h ****     /** Returns the rate in Hz that the Audio callback is called */
  98:../libDaisy/src/daisy_seed.h ****     float AudioCallbackRate() const;
  99:../libDaisy/src/daisy_seed.h **** 
 100:../libDaisy/src/daisy_seed.h ****     /** Returns the SAI Handle for the Daisy Seed 
 101:../libDaisy/src/daisy_seed.h ****      *  This can be useful when adding a secondary codec,
 102:../libDaisy/src/daisy_seed.h ****      *  the result of this function can be passed to the audio reinit 
 103:../libDaisy/src/daisy_seed.h ****      *  with an SAI2 configuration
 104:../libDaisy/src/daisy_seed.h ****      */
 105:../libDaisy/src/daisy_seed.h ****     const SaiHandle& AudioSaiHandle() const;
 106:../libDaisy/src/daisy_seed.h **** 
 107:../libDaisy/src/daisy_seed.h ****     /** Sets the state of the built in LED
 108:../libDaisy/src/daisy_seed.h ****      */
 109:../libDaisy/src/daisy_seed.h ****     void SetLed(bool state);
 110:../libDaisy/src/daisy_seed.h **** 
 111:../libDaisy/src/daisy_seed.h ****     /** Sets the state of the test point near pin 10
 112:../libDaisy/src/daisy_seed.h ****      */
 113:../libDaisy/src/daisy_seed.h ****     void SetTestPoint(bool state);
 114:../libDaisy/src/daisy_seed.h **** 
 115:../libDaisy/src/daisy_seed.h ****     /** Print formatted debug log message
 116:../libDaisy/src/daisy_seed.h ****      */
 117:../libDaisy/src/daisy_seed.h ****     template <typename... VA>
 118:../libDaisy/src/daisy_seed.h ****     static void Print(const char* format, VA... va)
 119:../libDaisy/src/daisy_seed.h ****     {
 120:../libDaisy/src/daisy_seed.h ****         Log::Print(format, va...);
 121:../libDaisy/src/daisy_seed.h ****     }
 122:../libDaisy/src/daisy_seed.h **** 
 123:../libDaisy/src/daisy_seed.h ****     /** Print formatted debug log message with automatic line termination
 124:../libDaisy/src/daisy_seed.h ****     */
 125:../libDaisy/src/daisy_seed.h ****     template <typename... VA>
 126:../libDaisy/src/daisy_seed.h ****     static void PrintLine(const char* format, VA... va)
 232              		.loc 4 126 17 view .LVU56
 233              	.LBB333:
 127:../libDaisy/src/daisy_seed.h ****     {
 128:../libDaisy/src/daisy_seed.h ****         Log::PrintLine(format, va...);
 234              		.loc 4 128 23 is_stmt 0 view .LVU57
 235 0018 3A48     		ldr	r0, .L20+12
 236              	.LVL13:
 237              		.loc 4 128 23 view .LVU58
 238 001a FFF7FEFF 		bl	_ZN5daisy6LoggerILNS_17LoggerDestinationE1EE9PrintLineEPKcz
 239              	.LVL14:
 240              		.loc 4 128 23 view .LVU59
 241              	.LBE333:
 242              	.LBE332:
 243              		.loc 2 45 3 is_stmt 1 view .LVU60
 244              	.LBB334:
 245              	.LBI334:
 246              		.file 5 "/Library/DaisyToolchain/0.2.0/arm/arm-none-eabi/include/c++/10.3.1/bits/std_abs.h"
   1:/Library/DaisyToolchain/0.2.0/arm/arm-none-eabi/include/c++/10.3.1/bits/std_abs.h **** // -*- C++ -*- C library enhancements header.
   2:/Library/DaisyToolchain/0.2.0/arm/arm-none-eabi/include/c++/10.3.1/bits/std_abs.h **** 
   3:/Library/DaisyToolchain/0.2.0/arm/arm-none-eabi/include/c++/10.3.1/bits/std_abs.h **** // Copyright (C) 2016-2020 Free Software Foundation, Inc.
   4:/Library/DaisyToolchain/0.2.0/arm/arm-none-eabi/include/c++/10.3.1/bits/std_abs.h **** //
   5:/Library/DaisyToolchain/0.2.0/arm/arm-none-eabi/include/c++/10.3.1/bits/std_abs.h **** // This file is part of the GNU ISO C++ Library.  This library is free
   6:/Library/DaisyToolchain/0.2.0/arm/arm-none-eabi/include/c++/10.3.1/bits/std_abs.h **** // software; you can redistribute it and/or modify it under the
   7:/Library/DaisyToolchain/0.2.0/arm/arm-none-eabi/include/c++/10.3.1/bits/std_abs.h **** // terms of the GNU General Public License as published by the
   8:/Library/DaisyToolchain/0.2.0/arm/arm-none-eabi/include/c++/10.3.1/bits/std_abs.h **** // Free Software Foundation; either version 3, or (at your option)
ARM GAS  /var/folders/2p/02m_5p7958535cp2tpgps0400000gn/T//ccHnEWZO.s 			page 12


   9:/Library/DaisyToolchain/0.2.0/arm/arm-none-eabi/include/c++/10.3.1/bits/std_abs.h **** // any later version.
  10:/Library/DaisyToolchain/0.2.0/arm/arm-none-eabi/include/c++/10.3.1/bits/std_abs.h **** 
  11:/Library/DaisyToolchain/0.2.0/arm/arm-none-eabi/include/c++/10.3.1/bits/std_abs.h **** // This library is distributed in the hope that it will be useful,
  12:/Library/DaisyToolchain/0.2.0/arm/arm-none-eabi/include/c++/10.3.1/bits/std_abs.h **** // but WITHOUT ANY WARRANTY; without even the implied warranty of
  13:/Library/DaisyToolchain/0.2.0/arm/arm-none-eabi/include/c++/10.3.1/bits/std_abs.h **** // MERCHANTABILITY or FITNESS FOR A PARTICULAR PURPOSE.  See the
  14:/Library/DaisyToolchain/0.2.0/arm/arm-none-eabi/include/c++/10.3.1/bits/std_abs.h **** // GNU General Public License for more details.
  15:/Library/DaisyToolchain/0.2.0/arm/arm-none-eabi/include/c++/10.3.1/bits/std_abs.h **** 
  16:/Library/DaisyToolchain/0.2.0/arm/arm-none-eabi/include/c++/10.3.1/bits/std_abs.h **** // Under Section 7 of GPL version 3, you are granted additional
  17:/Library/DaisyToolchain/0.2.0/arm/arm-none-eabi/include/c++/10.3.1/bits/std_abs.h **** // permissions described in the GCC Runtime Library Exception, version
  18:/Library/DaisyToolchain/0.2.0/arm/arm-none-eabi/include/c++/10.3.1/bits/std_abs.h **** // 3.1, as published by the Free Software Foundation.
  19:/Library/DaisyToolchain/0.2.0/arm/arm-none-eabi/include/c++/10.3.1/bits/std_abs.h **** 
  20:/Library/DaisyToolchain/0.2.0/arm/arm-none-eabi/include/c++/10.3.1/bits/std_abs.h **** // You should have received a copy of the GNU General Public License and
  21:/Library/DaisyToolchain/0.2.0/arm/arm-none-eabi/include/c++/10.3.1/bits/std_abs.h **** // a copy of the GCC Runtime Library Exception along with this program;
  22:/Library/DaisyToolchain/0.2.0/arm/arm-none-eabi/include/c++/10.3.1/bits/std_abs.h **** // see the files COPYING3 and COPYING.RUNTIME respectively.  If not, see
  23:/Library/DaisyToolchain/0.2.0/arm/arm-none-eabi/include/c++/10.3.1/bits/std_abs.h **** // <http://www.gnu.org/licenses/>.
  24:/Library/DaisyToolchain/0.2.0/arm/arm-none-eabi/include/c++/10.3.1/bits/std_abs.h **** 
  25:/Library/DaisyToolchain/0.2.0/arm/arm-none-eabi/include/c++/10.3.1/bits/std_abs.h **** /** @file include/bits/std_abs.h
  26:/Library/DaisyToolchain/0.2.0/arm/arm-none-eabi/include/c++/10.3.1/bits/std_abs.h ****  *  This is an internal header file, included by other library headers.
  27:/Library/DaisyToolchain/0.2.0/arm/arm-none-eabi/include/c++/10.3.1/bits/std_abs.h ****  *  Do not attempt to use it directly. @headername{cmath, cstdlib}
  28:/Library/DaisyToolchain/0.2.0/arm/arm-none-eabi/include/c++/10.3.1/bits/std_abs.h ****  */
  29:/Library/DaisyToolchain/0.2.0/arm/arm-none-eabi/include/c++/10.3.1/bits/std_abs.h **** 
  30:/Library/DaisyToolchain/0.2.0/arm/arm-none-eabi/include/c++/10.3.1/bits/std_abs.h **** #ifndef _GLIBCXX_BITS_STD_ABS_H
  31:/Library/DaisyToolchain/0.2.0/arm/arm-none-eabi/include/c++/10.3.1/bits/std_abs.h **** #define _GLIBCXX_BITS_STD_ABS_H
  32:/Library/DaisyToolchain/0.2.0/arm/arm-none-eabi/include/c++/10.3.1/bits/std_abs.h **** 
  33:/Library/DaisyToolchain/0.2.0/arm/arm-none-eabi/include/c++/10.3.1/bits/std_abs.h **** #pragma GCC system_header
  34:/Library/DaisyToolchain/0.2.0/arm/arm-none-eabi/include/c++/10.3.1/bits/std_abs.h **** 
  35:/Library/DaisyToolchain/0.2.0/arm/arm-none-eabi/include/c++/10.3.1/bits/std_abs.h **** #include <bits/c++config.h>
  36:/Library/DaisyToolchain/0.2.0/arm/arm-none-eabi/include/c++/10.3.1/bits/std_abs.h **** 
  37:/Library/DaisyToolchain/0.2.0/arm/arm-none-eabi/include/c++/10.3.1/bits/std_abs.h **** #define _GLIBCXX_INCLUDE_NEXT_C_HEADERS
  38:/Library/DaisyToolchain/0.2.0/arm/arm-none-eabi/include/c++/10.3.1/bits/std_abs.h **** #include_next <stdlib.h>
  39:/Library/DaisyToolchain/0.2.0/arm/arm-none-eabi/include/c++/10.3.1/bits/std_abs.h **** #ifdef __CORRECT_ISO_CPP_MATH_H_PROTO
  40:/Library/DaisyToolchain/0.2.0/arm/arm-none-eabi/include/c++/10.3.1/bits/std_abs.h **** # include_next <math.h>
  41:/Library/DaisyToolchain/0.2.0/arm/arm-none-eabi/include/c++/10.3.1/bits/std_abs.h **** #endif
  42:/Library/DaisyToolchain/0.2.0/arm/arm-none-eabi/include/c++/10.3.1/bits/std_abs.h **** #undef _GLIBCXX_INCLUDE_NEXT_C_HEADERS
  43:/Library/DaisyToolchain/0.2.0/arm/arm-none-eabi/include/c++/10.3.1/bits/std_abs.h **** 
  44:/Library/DaisyToolchain/0.2.0/arm/arm-none-eabi/include/c++/10.3.1/bits/std_abs.h **** #undef abs
  45:/Library/DaisyToolchain/0.2.0/arm/arm-none-eabi/include/c++/10.3.1/bits/std_abs.h **** 
  46:/Library/DaisyToolchain/0.2.0/arm/arm-none-eabi/include/c++/10.3.1/bits/std_abs.h **** extern "C++"
  47:/Library/DaisyToolchain/0.2.0/arm/arm-none-eabi/include/c++/10.3.1/bits/std_abs.h **** {
  48:/Library/DaisyToolchain/0.2.0/arm/arm-none-eabi/include/c++/10.3.1/bits/std_abs.h **** namespace std _GLIBCXX_VISIBILITY(default)
  49:/Library/DaisyToolchain/0.2.0/arm/arm-none-eabi/include/c++/10.3.1/bits/std_abs.h **** {
  50:/Library/DaisyToolchain/0.2.0/arm/arm-none-eabi/include/c++/10.3.1/bits/std_abs.h **** _GLIBCXX_BEGIN_NAMESPACE_VERSION
  51:/Library/DaisyToolchain/0.2.0/arm/arm-none-eabi/include/c++/10.3.1/bits/std_abs.h **** 
  52:/Library/DaisyToolchain/0.2.0/arm/arm-none-eabi/include/c++/10.3.1/bits/std_abs.h ****   using ::abs;
  53:/Library/DaisyToolchain/0.2.0/arm/arm-none-eabi/include/c++/10.3.1/bits/std_abs.h **** 
  54:/Library/DaisyToolchain/0.2.0/arm/arm-none-eabi/include/c++/10.3.1/bits/std_abs.h **** #ifndef __CORRECT_ISO_CPP_STDLIB_H_PROTO
  55:/Library/DaisyToolchain/0.2.0/arm/arm-none-eabi/include/c++/10.3.1/bits/std_abs.h ****   inline long
  56:/Library/DaisyToolchain/0.2.0/arm/arm-none-eabi/include/c++/10.3.1/bits/std_abs.h ****   abs(long __i) { return __builtin_labs(__i); }
  57:/Library/DaisyToolchain/0.2.0/arm/arm-none-eabi/include/c++/10.3.1/bits/std_abs.h **** #endif
  58:/Library/DaisyToolchain/0.2.0/arm/arm-none-eabi/include/c++/10.3.1/bits/std_abs.h **** 
  59:/Library/DaisyToolchain/0.2.0/arm/arm-none-eabi/include/c++/10.3.1/bits/std_abs.h **** #ifdef _GLIBCXX_USE_LONG_LONG
  60:/Library/DaisyToolchain/0.2.0/arm/arm-none-eabi/include/c++/10.3.1/bits/std_abs.h ****   inline long long
  61:/Library/DaisyToolchain/0.2.0/arm/arm-none-eabi/include/c++/10.3.1/bits/std_abs.h ****   abs(long long __x) { return __builtin_llabs (__x); }
  62:/Library/DaisyToolchain/0.2.0/arm/arm-none-eabi/include/c++/10.3.1/bits/std_abs.h **** #endif
  63:/Library/DaisyToolchain/0.2.0/arm/arm-none-eabi/include/c++/10.3.1/bits/std_abs.h **** 
  64:/Library/DaisyToolchain/0.2.0/arm/arm-none-eabi/include/c++/10.3.1/bits/std_abs.h **** // _GLIBCXX_RESOLVE_LIB_DEFECTS
  65:/Library/DaisyToolchain/0.2.0/arm/arm-none-eabi/include/c++/10.3.1/bits/std_abs.h **** // 2192. Validity and return type of std::abs(0u) is unclear
ARM GAS  /var/folders/2p/02m_5p7958535cp2tpgps0400000gn/T//ccHnEWZO.s 			page 13


  66:/Library/DaisyToolchain/0.2.0/arm/arm-none-eabi/include/c++/10.3.1/bits/std_abs.h **** // 2294. <cstdlib> should declare abs(double)
  67:/Library/DaisyToolchain/0.2.0/arm/arm-none-eabi/include/c++/10.3.1/bits/std_abs.h **** // 2735. std::abs(short), std::abs(signed char) and others should return int
  68:/Library/DaisyToolchain/0.2.0/arm/arm-none-eabi/include/c++/10.3.1/bits/std_abs.h **** 
  69:/Library/DaisyToolchain/0.2.0/arm/arm-none-eabi/include/c++/10.3.1/bits/std_abs.h **** #ifndef __CORRECT_ISO_CPP_MATH_H_PROTO
  70:/Library/DaisyToolchain/0.2.0/arm/arm-none-eabi/include/c++/10.3.1/bits/std_abs.h ****   inline _GLIBCXX_CONSTEXPR double
  71:/Library/DaisyToolchain/0.2.0/arm/arm-none-eabi/include/c++/10.3.1/bits/std_abs.h ****   abs(double __x)
  72:/Library/DaisyToolchain/0.2.0/arm/arm-none-eabi/include/c++/10.3.1/bits/std_abs.h ****   { return __builtin_fabs(__x); }
  73:/Library/DaisyToolchain/0.2.0/arm/arm-none-eabi/include/c++/10.3.1/bits/std_abs.h **** 
  74:/Library/DaisyToolchain/0.2.0/arm/arm-none-eabi/include/c++/10.3.1/bits/std_abs.h ****   inline _GLIBCXX_CONSTEXPR float
  75:/Library/DaisyToolchain/0.2.0/arm/arm-none-eabi/include/c++/10.3.1/bits/std_abs.h ****   abs(float __x)
 247              		.loc 5 75 3 view .LVU61
 248              	.LBB335:
  76:/Library/DaisyToolchain/0.2.0/arm/arm-none-eabi/include/c++/10.3.1/bits/std_abs.h ****   { return __builtin_fabsf(__x); }
 249              		.loc 5 76 5 view .LVU62
 250              	.LBE335:
 251              	.LBE334:
 252              		.loc 2 45 41 is_stmt 0 view .LVU63
 253 001e 29EE2A6A 		vmul.f32	s12, s18, s21
 254              	.LVL15:
 255              		.loc 2 45 22 view .LVU64
 256 0022 9FED39AA 		vldr.32	s20, .L20+16
 257              	.LBB337:
 258              	.LBB338:
 259              		.loc 4 128 23 view .LVU65
 260 0026 3948     		ldr	r0, .L20+20
 261              	.LBE338:
 262              	.LBE337:
 263              		.loc 2 45 22 view .LVU66
 264 0028 B4EECA6A 		vcmpe.f32	s12, s20
 265              	.LBB341:
 266              	.LBB336:
 267              		.loc 5 76 31 view .LVU67
 268 002c B0EEC66A 		vabs.f32	s12, s12
 269              	.LVL16:
 270              		.loc 5 76 31 view .LVU68
 271              	.LBE336:
 272              	.LBE341:
 273              		.loc 2 45 41 view .LVU69
 274 0030 9FED319B 		vldr.64	d9, .L20
 275              	.LVL17:
 276              		.loc 2 45 22 view .LVU70
 277 0034 FDEEC67A 		vcvt.s32.f32	s15, s12
 278              	.LVL18:
 279              		.loc 5 76 5 is_stmt 1 view .LVU71
 280              		.loc 5 76 5 view .LVU72
 281              		.loc 2 45 22 is_stmt 0 view .LVU73
 282 0038 F1EE10FA 		vmrs	APSR_nzcv, FPSCR
 283              	.LVL19:
 284              	.LBB342:
 285              	.LBI337:
 126:../libDaisy/src/daisy_seed.h ****     {
 286              		.loc 4 126 17 is_stmt 1 view .LVU74
 287              	.LBE342:
 288              		.loc 2 45 41 is_stmt 0 view .LVU75
 289 003c B8EEE77A 		vcvt.f32.s32	s14, s15
 290              	.LVL20:
 291              	.LBB343:
ARM GAS  /var/folders/2p/02m_5p7958535cp2tpgps0400000gn/T//ccHnEWZO.s 			page 14


 292              	.LBB339:
 293              		.loc 4 128 23 view .LVU76
 294 0040 17EE902A 		vmov	r2, s15	@ int
 295 0044 4CBF     		ite	mi
 296 0046 2D21     		movmi	r1, #45
 297 0048 2021     		movpl	r1, #32
 298              	.LBE339:
 299              	.LBE343:
 300              		.loc 2 45 41 view .LVU77
 301 004a 36EE476A 		vsub.f32	s12, s12, s14
 302              	.LVL21:
 303              		.loc 2 45 41 view .LVU78
 304 004e B7EEC66A 		vcvt.f64.f32	d6, s12
 305 0052 26EE096B 		vmul.f64	d6, d6, d9
 306              	.LBB344:
 307              	.LBB340:
 308              		.loc 4 128 23 view .LVU79
 309 0056 BDEEC67B 		vcvt.s32.f64	s14, d6
 310 005a 17EE103A 		vmov	r3, s14	@ int
 311 005e FFF7FEFF 		bl	_ZN5daisy6LoggerILNS_17LoggerDestinationE1EE9PrintLineEPKcz
 312              	.LVL22:
 313              		.loc 4 128 23 view .LVU80
 314              	.LBE340:
 315              	.LBE344:
  46:GrannyChordApp.cpp ****   pod_.seed.PrintLine("Avg: " FLT_FMT3, FLT_VAR3(avgLoad * 100.0f));
 316              		.loc 2 46 3 is_stmt 1 view .LVU81
 317              	.LBB345:
 318              	.LBI345:
  75:/Library/DaisyToolchain/0.2.0/arm/arm-none-eabi/include/c++/10.3.1/bits/std_abs.h ****   { return __builtin_fabsf(__x); }
 319              		.loc 5 75 3 view .LVU82
 320              	.LBB346:
 321              		.loc 5 76 5 view .LVU83
 322              	.LBE346:
 323              	.LBE345:
 324              		.loc 2 46 41 is_stmt 0 view .LVU84
 325 0062 28EEAA6A 		vmul.f32	s12, s17, s21
 326              	.LVL23:
 327              	.LBB348:
 328              	.LBB349:
 329              		.loc 4 128 23 view .LVU85
 330 0066 2A48     		ldr	r0, .L20+24
 331              	.LBE349:
 332              	.LBE348:
 333              		.loc 2 46 22 view .LVU86
 334 0068 B4EECA6A 		vcmpe.f32	s12, s20
 335              	.LBB353:
 336              	.LBB347:
 337              		.loc 5 76 31 view .LVU87
 338 006c B0EEC66A 		vabs.f32	s12, s12
 339              	.LVL24:
 340              		.loc 5 76 31 view .LVU88
 341              	.LBE347:
 342              	.LBE353:
 343              		.loc 2 46 22 view .LVU89
 344 0070 F1EE10FA 		vmrs	APSR_nzcv, FPSCR
 345 0074 FDEEC67A 		vcvt.s32.f32	s15, s12
 346              	.LVL25:
ARM GAS  /var/folders/2p/02m_5p7958535cp2tpgps0400000gn/T//ccHnEWZO.s 			page 15


 347              		.loc 5 76 5 is_stmt 1 view .LVU90
 348              		.loc 5 76 5 view .LVU91
 349              	.LBB354:
 350              	.LBI348:
 126:../libDaisy/src/daisy_seed.h ****     {
 351              		.loc 4 126 17 view .LVU92
 352              	.LBB350:
 353              		.loc 4 128 23 is_stmt 0 view .LVU93
 354 0078 4CBF     		ite	mi
 355 007a 2D21     		movmi	r1, #45
 356 007c 2021     		movpl	r1, #32
 357              	.LBE350:
 358              	.LBE354:
 359              		.loc 2 46 41 view .LVU94
 360 007e B8EEE77A 		vcvt.f32.s32	s14, s15
 361              	.LVL26:
 362              	.LBB355:
 363              	.LBB351:
 364              		.loc 4 128 23 view .LVU95
 365 0082 17EE902A 		vmov	r2, s15	@ int
 366              	.LBE351:
 367              	.LBE355:
 368              		.loc 2 46 41 view .LVU96
 369 0086 36EE476A 		vsub.f32	s12, s12, s14
 370              	.LVL27:
 371              		.loc 2 46 41 view .LVU97
 372 008a B7EEC66A 		vcvt.f64.f32	d6, s12
 373 008e 26EE096B 		vmul.f64	d6, d6, d9
 374              	.LBB356:
 375              	.LBB352:
 376              		.loc 4 128 23 view .LVU98
 377 0092 BDEEC67B 		vcvt.s32.f64	s14, d6
 378              	.LVL28:
 379              		.loc 4 128 23 view .LVU99
 380 0096 17EE103A 		vmov	r3, s14	@ int
 381 009a FFF7FEFF 		bl	_ZN5daisy6LoggerILNS_17LoggerDestinationE1EE9PrintLineEPKcz
 382              	.LVL29:
 383              		.loc 4 128 23 view .LVU100
 384              	.LBE352:
 385              	.LBE356:
  47:GrannyChordApp.cpp ****   pod_.seed.PrintLine("Min: " FLT_FMT3, FLT_VAR3(minLoad * 100.0f));
 386              		.loc 2 47 3 is_stmt 1 view .LVU101
 387              	.LBB357:
 388              	.LBI357:
  75:/Library/DaisyToolchain/0.2.0/arm/arm-none-eabi/include/c++/10.3.1/bits/std_abs.h ****   { return __builtin_fabsf(__x); }
 389              		.loc 5 75 3 view .LVU102
 390              	.LBB358:
 391              		.loc 5 76 5 view .LVU103
 392              	.LBE358:
 393              	.LBE357:
 394              		.loc 2 47 41 is_stmt 0 view .LVU104
 395 009e 28EE2A7A 		vmul.f32	s14, s16, s21
 396              	.LVL30:
 397              	.LBB360:
 398              	.LBB361:
 399              		.loc 4 128 23 view .LVU105
 400 00a2 1C48     		ldr	r0, .L20+28
ARM GAS  /var/folders/2p/02m_5p7958535cp2tpgps0400000gn/T//ccHnEWZO.s 			page 16


 401              	.LBE361:
 402              	.LBE360:
 403              		.loc 2 47 22 view .LVU106
 404 00a4 B4EECA7A 		vcmpe.f32	s14, s20
 405              	.LBB365:
 406              	.LBB359:
 407              		.loc 5 76 31 view .LVU107
 408 00a8 B0EEC77A 		vabs.f32	s14, s14
 409              	.LVL31:
 410              		.loc 5 76 31 view .LVU108
 411              	.LBE359:
 412              	.LBE365:
 413              		.loc 2 47 22 view .LVU109
 414 00ac F1EE10FA 		vmrs	APSR_nzcv, FPSCR
 415 00b0 FDEEC76A 		vcvt.s32.f32	s13, s14
 416              	.LVL32:
 417              		.loc 5 76 5 is_stmt 1 view .LVU110
 418              		.loc 5 76 5 view .LVU111
 419              	.LBB366:
 420              	.LBI360:
 126:../libDaisy/src/daisy_seed.h ****     {
 421              		.loc 4 126 17 view .LVU112
 422              	.LBB362:
 423              		.loc 4 128 23 is_stmt 0 view .LVU113
 424 00b4 4CBF     		ite	mi
 425 00b6 2D21     		movmi	r1, #45
 426 00b8 2021     		movpl	r1, #32
 427              	.LBE362:
 428              	.LBE366:
 429              		.loc 2 47 41 view .LVU114
 430 00ba F8EEE67A 		vcvt.f32.s32	s15, s13
 431              	.LVL33:
 432              	.LBB367:
 433              	.LBB363:
 434              		.loc 4 128 23 view .LVU115
 435 00be 16EE902A 		vmov	r2, s13	@ int
 436              	.LBE363:
 437              	.LBE367:
 438              		.loc 2 47 41 view .LVU116
 439 00c2 37EE677A 		vsub.f32	s14, s14, s15
 440              	.LVL34:
 441              		.loc 2 47 41 view .LVU117
 442 00c6 B7EEC77A 		vcvt.f64.f32	d7, s14
 443 00ca 27EE097B 		vmul.f64	d7, d7, d9
 444              	.LBB368:
 445              	.LBB364:
 446              		.loc 4 128 23 view .LVU118
 447 00ce FDEEC77B 		vcvt.s32.f64	s15, d7
 448              	.LVL35:
 449              		.loc 4 128 23 view .LVU119
 450 00d2 17EE903A 		vmov	r3, s15	@ int
 451 00d6 FFF7FEFF 		bl	_ZN5daisy6LoggerILNS_17LoggerDestinationE1EE9PrintLineEPKcz
 452              	.LVL36:
 453              		.loc 4 128 23 view .LVU120
 454              	.LBE364:
 455              	.LBE368:
  48:GrannyChordApp.cpp ****   pod_.seed.PrintLine("account: %d",synth_.GetActiveGrains());
ARM GAS  /var/folders/2p/02m_5p7958535cp2tpgps0400000gn/T//ccHnEWZO.s 			page 17


 456              		.loc 2 48 3 is_stmt 1 view .LVU121
 457              		.loc 2 48 22 is_stmt 0 view .LVU122
 458 00da 04F12000 		add	r0, r4, #32
 459 00de FFF7FEFF 		bl	_ZN13GranularSynth15GetActiveGrainsEv
 460              	.LVL37:
 461              		.loc 2 48 22 view .LVU123
 462 00e2 0146     		mov	r1, r0
 463              	.LVL38:
 464              	.LBB369:
 465              	.LBI369:
 126:../libDaisy/src/daisy_seed.h ****     {
 466              		.loc 4 126 17 is_stmt 1 view .LVU124
 467              	.LBB370:
 468              		.loc 4 128 23 is_stmt 0 view .LVU125
 469 00e4 0C48     		ldr	r0, .L20+32
 470              	.LVL39:
 471              		.loc 4 128 23 view .LVU126
 472              	.LBE370:
 473              	.LBE369:
  49:GrannyChordApp.cpp **** }
 474              		.loc 2 49 1 view .LVU127
 475 00e6 BDEC068B 		vldm	sp!, {d8-d10}
 476              		.cfi_restore 84
 477              		.cfi_restore 85
 478              		.cfi_restore 82
 479              		.cfi_restore 83
 480              		.cfi_restore 80
 481              		.cfi_restore 81
 482              		.cfi_def_cfa_offset 8
 483              	.LVL40:
 484              		.loc 2 49 1 view .LVU128
 485 00ea BDE81040 		pop	{r4, lr}
 486              		.cfi_restore 14
 487              		.cfi_restore 4
 488              		.cfi_def_cfa_offset 0
 489              	.LVL41:
 490              	.LBB372:
 491              	.LBB371:
 492              		.loc 4 128 23 view .LVU129
 493 00ee FFF7FEBF 		b	_ZN5daisy6LoggerILNS_17LoggerDestinationE1EE9PrintLineEPKcz
 494              	.LVL42:
 495              	.L21:
 496              		.loc 4 128 23 view .LVU130
 497 00f2 00BFAFF3 		.align	3
 497      0080
 498              	.L20:
 499 00f8 00000000 		.word	0
 500 00fc 00408F40 		.word	1083129856
 501 0100 0000C842 		.word	1120403456
 502 0104 00000000 		.word	.LC0
 503 0108 00000000 		.word	0
 504 010c 13000000 		.word	.LC1
 505 0110 22000000 		.word	.LC2
 506 0114 31000000 		.word	.LC3
 507 0118 40000000 		.word	.LC4
 508              	.LBE371:
 509              	.LBE372:
ARM GAS  /var/folders/2p/02m_5p7958535cp2tpgps0400000gn/T//ccHnEWZO.s 			page 18


 510              		.cfi_endproc
 511              	.LFE4915:
 513              		.section	.text._ZN14GrannyChordApp20HandleEncoderPressedEv,"ax",%progbits
 514              		.align	1
 515              		.global	_ZN14GrannyChordApp20HandleEncoderPressedEv
 516              		.syntax unified
 517              		.thumb
 518              		.thumb_func
 520              	_ZN14GrannyChordApp20HandleEncoderPressedEv:
 521              	.LVL43:
 522              	.LFB4921:
  50:GrannyChordApp.cpp **** // #endif
  51:GrannyChordApp.cpp **** 
  52:GrannyChordApp.cpp **** /// @brief Loops whilst app is running, updating state and UI, handling 
  53:GrannyChordApp.cpp **** ///        state transitions, updating parameters and managing audio recordings
  54:GrannyChordApp.cpp **** void GrannyChordApp::Run(){
  55:GrannyChordApp.cpp ****   pod_.seed.PrintLine("app is running");
  56:GrannyChordApp.cpp ****   // timer_.Start();
  57:GrannyChordApp.cpp ****   while(true){
  58:GrannyChordApp.cpp ****     // #ifdef DEBUG_MODE
  59:GrannyChordApp.cpp ****     loop_count++;
  60:GrannyChordApp.cpp ****     if (loop_count%10000==0){
  61:GrannyChordApp.cpp ****       PrintCPULoad();
  62:GrannyChordApp.cpp ****       loop_count=0;
  63:GrannyChordApp.cpp ****       // System::Delay(500);
  64:GrannyChordApp.cpp ****     }
  65:GrannyChordApp.cpp ****     // #endif
  66:GrannyChordApp.cpp **** 
  67:GrannyChordApp.cpp ****     if (recording_out_) {
  68:GrannyChordApp.cpp ****       sd_writer_.Write();
  69:GrannyChordApp.cpp ****       if (sd_writer_.GetLengthSeconds()>120){
  70:GrannyChordApp.cpp ****         sd_writer_.SaveFile();
  71:GrannyChordApp.cpp ****         recording_out_ = false;
  72:GrannyChordApp.cpp ****       }
  73:GrannyChordApp.cpp ****     }
  74:GrannyChordApp.cpp ****     UpdateUI();
  75:GrannyChordApp.cpp ****     UpdateSynthParams();
  76:GrannyChordApp.cpp ****     System::Delay(1);
  77:GrannyChordApp.cpp ****   }
  78:GrannyChordApp.cpp **** }
  79:GrannyChordApp.cpp **** 
  80:GrannyChordApp.cpp **** /// @brief Handles hardware control inputs and calls state change methods
  81:GrannyChordApp.cpp **** void GrannyChordApp::UpdateUI(){
  82:GrannyChordApp.cpp ****   pod_.ProcessDigitalControls();
  83:GrannyChordApp.cpp **** 
  84:GrannyChordApp.cpp ****   if (pod_.encoder.TimeHeldMs() > 1000.0f) HandleEncoderLongPress();
  85:GrannyChordApp.cpp ****   else if (pod_.encoder.FallingEdge()) HandleEncoderPressed();
  86:GrannyChordApp.cpp **** 
  87:GrannyChordApp.cpp ****   if (curr_state_==AppState::Synthesis){
  88:GrannyChordApp.cpp ****     // if (pod_.button1.TimeHeldMs()>500.0f || pod_.button2.TimeHeldMs()>500.0f){
  89:GrannyChordApp.cpp ****       // ButtonLongPressHandler();
  90:GrannyChordApp.cpp ****     // }
  91:GrannyChordApp.cpp ****     // else if (pod_.button1.FallingEdge() || pod_.button2.FallingEdge()){
  92:GrannyChordApp.cpp ****       ButtonHandler();
  93:GrannyChordApp.cpp ****     // }
  94:GrannyChordApp.cpp ****   }
  95:GrannyChordApp.cpp **** 
ARM GAS  /var/folders/2p/02m_5p7958535cp2tpgps0400000gn/T//ccHnEWZO.s 			page 19


  96:GrannyChordApp.cpp ****   int32_t encoder_inc = pod_.encoder.Increment();
  97:GrannyChordApp.cpp ****   if (encoder_inc!=0){
  98:GrannyChordApp.cpp ****     HandleEncoderIncrement(encoder_inc);
  99:GrannyChordApp.cpp ****   }
 100:GrannyChordApp.cpp ****   if (curr_state_ != next_state_){
 101:GrannyChordApp.cpp ****     #ifdef DEBUG_MODE
 102:GrannyChordApp.cpp ****     DebugPrintState(curr_state_);
 103:GrannyChordApp.cpp ****     DebugPrint(pod_, "switching states");
 104:GrannyChordApp.cpp ****     DebugPrintState(next_state_);
 105:GrannyChordApp.cpp ****     #endif
 106:GrannyChordApp.cpp ****     SetLedAppState();
 107:GrannyChordApp.cpp ****     HandleStateChange();
 108:GrannyChordApp.cpp ****     // DebugPrint(pod_, "handled state change");
 109:GrannyChordApp.cpp ****   }
 110:GrannyChordApp.cpp **** }
 111:GrannyChordApp.cpp **** 
 112:GrannyChordApp.cpp **** /// @brief handles transitions between states and prepares for next state
 113:GrannyChordApp.cpp **** void GrannyChordApp::HandleStateChange(){
 114:GrannyChordApp.cpp ****   switch(next_state_){
 115:GrannyChordApp.cpp ****     case AppState::SelectFile:
 116:GrannyChordApp.cpp ****       pod_.StopAudio();
 117:GrannyChordApp.cpp ****       // DebugPrint(pod_, "stopped audio for select file");
 118:GrannyChordApp.cpp ****       curr_state_ = AppState::SelectFile;
 119:GrannyChordApp.cpp ****       break; 
 120:GrannyChordApp.cpp ****     case AppState::RecordIn:
 121:GrannyChordApp.cpp ****       InitRecordIn();
 122:GrannyChordApp.cpp ****       DebugPrint(pod_, "Recording in");
 123:GrannyChordApp.cpp ****       curr_state_ = AppState::RecordIn;  
 124:GrannyChordApp.cpp ****       break;
 125:GrannyChordApp.cpp ****     case AppState::PlayWAV:
 126:GrannyChordApp.cpp ****       InitPlayback(); 
 127:GrannyChordApp.cpp ****       DebugPrint(pod_,"starting playback");
 128:GrannyChordApp.cpp ****       curr_state_ = AppState::PlayWAV;
 129:GrannyChordApp.cpp ****       break;
 130:GrannyChordApp.cpp ****     case AppState::Synthesis:
 131:GrannyChordApp.cpp ****       InitSynth();
 132:GrannyChordApp.cpp ****       curr_state_ = AppState::Synthesis;
 133:GrannyChordApp.cpp ****       // SetLedSynthMode();
 134:GrannyChordApp.cpp ****       // DebugPrint(pod_, "started audiocallback");
 135:GrannyChordApp.cpp ****       break;
 136:GrannyChordApp.cpp ****     case AppState::Error: 
 137:GrannyChordApp.cpp ****       curr_state_ = AppState::Error;
 138:GrannyChordApp.cpp ****       break;
 139:GrannyChordApp.cpp ****     default: 
 140:GrannyChordApp.cpp ****       break;
 141:GrannyChordApp.cpp ****   }
 142:GrannyChordApp.cpp **** }
 143:GrannyChordApp.cpp **** 
 144:GrannyChordApp.cpp **** /// @brief Handles when encoder is scrolled to select a file 
 145:GrannyChordApp.cpp **** /// @param encoder_inc amount the encoder has been scrolled/incremented
 146:GrannyChordApp.cpp **** void GrannyChordApp::HandleEncoderIncrement(int encoder_inc){
 147:GrannyChordApp.cpp ****   if (curr_state_==AppState::PlayWAV){
 148:GrannyChordApp.cpp ****     recorded_in_ = false;
 149:GrannyChordApp.cpp ****     next_state_ = AppState::SelectFile;
 150:GrannyChordApp.cpp ****   }
 151:GrannyChordApp.cpp ****   if (next_state_== AppState::SelectFile){
 152:GrannyChordApp.cpp ****     recorded_in_ = false;
ARM GAS  /var/folders/2p/02m_5p7958535cp2tpgps0400000gn/T//ccHnEWZO.s 			page 20


 153:GrannyChordApp.cpp ****     HandleFileSelection(encoder_inc);
 154:GrannyChordApp.cpp ****   }
 155:GrannyChordApp.cpp **** }
 156:GrannyChordApp.cpp **** 
 157:GrannyChordApp.cpp **** /// @brief handles when the encoder is pressed down (not held)
 158:GrannyChordApp.cpp **** void GrannyChordApp::HandleEncoderPressed(){
 523              		.loc 2 158 44 is_stmt 1 view -0
 524              		.cfi_startproc
 525              		@ args = 0, pretend = 0, frame = 0
 526              		@ frame_needed = 0, uses_anonymous_args = 0
 527              		@ link register save eliminated.
 159:GrannyChordApp.cpp ****   switch(curr_state_){
 528              		.loc 2 159 3 view .LVU132
 529              		.loc 2 159 10 is_stmt 0 view .LVU133
 530 0000 D0F8E430 		ldr	r3, [r0, #228]
 531              		.loc 2 159 3 view .LVU134
 532 0004 012B     		cmp	r3, #1
 533 0006 0CD0     		beq	.L23
 534 0008 032B     		cmp	r3, #3
 535 000a 04D0     		beq	.L24
 536 000c 13B9     		cbnz	r3, .L22
 160:GrannyChordApp.cpp ****     case AppState::SelectFile:
 537              		.loc 2 160 5 is_stmt 1 view .LVU135
 161:GrannyChordApp.cpp ****       next_state_ = AppState::PlayWAV;
 538              		.loc 2 161 7 view .LVU136
 539              		.loc 2 161 19 is_stmt 0 view .LVU137
 540 000e 0123     		movs	r3, #1
 541              	.L26:
 162:GrannyChordApp.cpp ****       return;
 163:GrannyChordApp.cpp ****     case AppState::RecordIn: 
 164:GrannyChordApp.cpp ****       recorded_in_ = true;
 165:GrannyChordApp.cpp ****       next_state_ = AppState::PlayWAV; 
 166:GrannyChordApp.cpp ****       return;
 167:GrannyChordApp.cpp ****     case AppState::PlayWAV:
 168:GrannyChordApp.cpp ****       next_state_ = AppState::Synthesis;
 542              		.loc 2 168 19 view .LVU138
 543 0010 C0F8E830 		str	r3, [r0, #232]
 169:GrannyChordApp.cpp ****       return;
 544              		.loc 2 169 7 is_stmt 1 view .LVU139
 545              	.L22:
 170:GrannyChordApp.cpp ****     default:
 171:GrannyChordApp.cpp ****       return;
 172:GrannyChordApp.cpp ****   }
 173:GrannyChordApp.cpp **** }
 546              		.loc 2 173 1 is_stmt 0 view .LVU140
 547 0014 7047     		bx	lr
 548              	.L24:
 163:GrannyChordApp.cpp ****       recorded_in_ = true;
 549              		.loc 2 163 5 is_stmt 1 view .LVU141
 164:GrannyChordApp.cpp ****       next_state_ = AppState::PlayWAV; 
 550              		.loc 2 164 7 view .LVU142
 164:GrannyChordApp.cpp ****       next_state_ = AppState::PlayWAV; 
 551              		.loc 2 164 20 is_stmt 0 view .LVU143
 552 0016 00F50042 		add	r2, r0, #32768
 553 001a 0123     		movs	r3, #1
 554 001c 82F8F834 		strb	r3, [r2, #1272]
 165:GrannyChordApp.cpp ****       return;
ARM GAS  /var/folders/2p/02m_5p7958535cp2tpgps0400000gn/T//ccHnEWZO.s 			page 21


 555              		.loc 2 165 7 is_stmt 1 view .LVU144
 556 0020 F6E7     		b	.L26
 557              	.L23:
 167:GrannyChordApp.cpp ****       next_state_ = AppState::Synthesis;
 558              		.loc 2 167 5 view .LVU145
 168:GrannyChordApp.cpp ****       return;
 559              		.loc 2 168 7 view .LVU146
 168:GrannyChordApp.cpp ****       return;
 560              		.loc 2 168 19 is_stmt 0 view .LVU147
 561 0022 0223     		movs	r3, #2
 562 0024 F4E7     		b	.L26
 563              		.cfi_endproc
 564              	.LFE4921:
 566              		.section	.text._ZN14GrannyChordApp22HandleEncoderLongPressEv,"ax",%progbits
 567              		.align	1
 568              		.global	_ZN14GrannyChordApp22HandleEncoderLongPressEv
 569              		.syntax unified
 570              		.thumb
 571              		.thumb_func
 573              	_ZN14GrannyChordApp22HandleEncoderLongPressEv:
 574              	.LVL44:
 575              	.LFB4922:
 174:GrannyChordApp.cpp **** 
 175:GrannyChordApp.cpp **** /// @brief switch between app states by long pressing encoder.
 176:GrannyChordApp.cpp **** void GrannyChordApp::HandleEncoderLongPress(){
 576              		.loc 2 176 46 is_stmt 1 view -0
 577              		.cfi_startproc
 578              		@ args = 0, pretend = 0, frame = 0
 579              		@ frame_needed = 0, uses_anonymous_args = 0
 580              		.loc 2 176 46 is_stmt 0 view .LVU149
 581 0000 10B5     		push	{r4, lr}
 582              		.cfi_def_cfa_offset 8
 583              		.cfi_offset 4, -8
 584              		.cfi_offset 14, -4
 585 0002 0446     		mov	r4, r0
 586              	.LVL45:
 587              	.L33:
 177:GrannyChordApp.cpp ****   do { pod_.encoder.Debounce();  }
 588              		.loc 2 177 3 is_stmt 1 view .LVU150
 589              		.loc 2 177 8 view .LVU151
 590              		.loc 2 177 29 is_stmt 0 view .LVU152
 591 0004 E069     		ldr	r0, [r4, #28]
 592 0006 4030     		adds	r0, r0, #64
 593 0008 FFF7FEFF 		bl	_ZN5daisy7Encoder8DebounceEv
 594              	.LVL46:
 178:GrannyChordApp.cpp ****   while(!pod_.encoder.FallingEdge());
 595              		.loc 2 178 9 is_stmt 1 view .LVU153
 596              		.loc 2 178 10 is_stmt 0 view .LVU154
 597 000c E369     		ldr	r3, [r4, #28]
 598              	.LVL47:
 599              	.LBB377:
 600              	.LBI377:
 601              		.file 6 "../libDaisy/src/hid/encoder.h"
   1:../libDaisy/src/hid/encoder.h **** #pragma once
   2:../libDaisy/src/hid/encoder.h **** #ifndef DSY_ENCODER_H
   3:../libDaisy/src/hid/encoder.h **** #define DSY_ENCODER_H
   4:../libDaisy/src/hid/encoder.h **** #include "daisy_core.h"
ARM GAS  /var/folders/2p/02m_5p7958535cp2tpgps0400000gn/T//ccHnEWZO.s 			page 22


   5:../libDaisy/src/hid/encoder.h **** #include "per/gpio.h"
   6:../libDaisy/src/hid/encoder.h **** #include "hid/switch.h"
   7:../libDaisy/src/hid/encoder.h **** 
   8:../libDaisy/src/hid/encoder.h **** namespace daisy
   9:../libDaisy/src/hid/encoder.h **** {
  10:../libDaisy/src/hid/encoder.h **** /** 
  11:../libDaisy/src/hid/encoder.h ****     @brief Generic Class for handling Quadrature Encoders \n 
  12:../libDaisy/src/hid/encoder.h ****     Inspired/influenced by Mutable Instruments (pichenettes) Encoder classes
  13:../libDaisy/src/hid/encoder.h ****     @author Stephen Hensley
  14:../libDaisy/src/hid/encoder.h ****     @date December 2019
  15:../libDaisy/src/hid/encoder.h ****     @ingroup controls
  16:../libDaisy/src/hid/encoder.h **** */
  17:../libDaisy/src/hid/encoder.h **** class Encoder
  18:../libDaisy/src/hid/encoder.h **** {
  19:../libDaisy/src/hid/encoder.h ****   public:
  20:../libDaisy/src/hid/encoder.h ****     Encoder() {}
  21:../libDaisy/src/hid/encoder.h ****     ~Encoder() {}
  22:../libDaisy/src/hid/encoder.h **** 
  23:../libDaisy/src/hid/encoder.h ****     /** Initializes the encoder with the specified hardware pins.
  24:../libDaisy/src/hid/encoder.h ****      * Update rate is to be deprecated in a future release
  25:../libDaisy/src/hid/encoder.h ****      */
  26:../libDaisy/src/hid/encoder.h ****     void Init(dsy_gpio_pin a,
  27:../libDaisy/src/hid/encoder.h ****               dsy_gpio_pin b,
  28:../libDaisy/src/hid/encoder.h ****               dsy_gpio_pin click,
  29:../libDaisy/src/hid/encoder.h ****               float        update_rate = 0.f);
  30:../libDaisy/src/hid/encoder.h ****     /** Called at update_rate to debounce and handle timing for the switch.
  31:../libDaisy/src/hid/encoder.h ****      * In order for events not to be missed, its important that the Edge/Pressed checks be made at 
  32:../libDaisy/src/hid/encoder.h ****      */
  33:../libDaisy/src/hid/encoder.h ****     void Debounce();
  34:../libDaisy/src/hid/encoder.h **** 
  35:../libDaisy/src/hid/encoder.h ****     /** Returns +1 if the encoder was turned clockwise, -1 if it was turned counter-clockwise, or 0
  36:../libDaisy/src/hid/encoder.h ****     inline int32_t Increment() const { return updated_ ? inc_ : 0; }
  37:../libDaisy/src/hid/encoder.h **** 
  38:../libDaisy/src/hid/encoder.h ****     /** Returns true if the encoder was just pressed. */
  39:../libDaisy/src/hid/encoder.h ****     inline bool RisingEdge() const { return sw_.RisingEdge(); }
  40:../libDaisy/src/hid/encoder.h **** 
  41:../libDaisy/src/hid/encoder.h ****     /** Returns true if the encoder was just released. */
  42:../libDaisy/src/hid/encoder.h ****     inline bool FallingEdge() const { return sw_.FallingEdge(); }
 602              		.loc 6 42 17 is_stmt 1 view .LVU155
 603              	.LBE377:
 604              		.loc 6 42 39 view .LVU156
 605              	.LBB380:
 606              	.LBB378:
 607              	.LBI378:
 608              		.file 7 "../libDaisy/src/hid/switch.h"
   1:../libDaisy/src/hid/switch.h **** #pragma once
   2:../libDaisy/src/hid/switch.h **** #ifndef DSY_SWITCH_H
   3:../libDaisy/src/hid/switch.h **** #define DSY_SWITCH_H
   4:../libDaisy/src/hid/switch.h **** #include "daisy_core.h"
   5:../libDaisy/src/hid/switch.h **** #include "per/gpio.h"
   6:../libDaisy/src/hid/switch.h **** #include "sys/system.h"
   7:../libDaisy/src/hid/switch.h **** 
   8:../libDaisy/src/hid/switch.h **** namespace daisy
   9:../libDaisy/src/hid/switch.h **** {
  10:../libDaisy/src/hid/switch.h **** /** 
  11:../libDaisy/src/hid/switch.h ****     Generic Class for handling momentary/latching switches \n 
  12:../libDaisy/src/hid/switch.h ****     Inspired/influenced by Mutable Instruments (pichenettes) Switch classes
ARM GAS  /var/folders/2p/02m_5p7958535cp2tpgps0400000gn/T//ccHnEWZO.s 			page 23


  13:../libDaisy/src/hid/switch.h ****     @author Stephen Hensley
  14:../libDaisy/src/hid/switch.h ****     @date December 2019
  15:../libDaisy/src/hid/switch.h ****     @ingroup controls
  16:../libDaisy/src/hid/switch.h **** */
  17:../libDaisy/src/hid/switch.h **** class Switch
  18:../libDaisy/src/hid/switch.h **** {
  19:../libDaisy/src/hid/switch.h ****   public:
  20:../libDaisy/src/hid/switch.h ****     /** Specifies the expected behavior of the switch */
  21:../libDaisy/src/hid/switch.h ****     enum Type
  22:../libDaisy/src/hid/switch.h ****     {
  23:../libDaisy/src/hid/switch.h ****         TYPE_TOGGLE,    /**< & */
  24:../libDaisy/src/hid/switch.h ****         TYPE_MOMENTARY, /**< & */
  25:../libDaisy/src/hid/switch.h ****     };
  26:../libDaisy/src/hid/switch.h ****     /** Specifies whether the pressed is HIGH or LOW. */
  27:../libDaisy/src/hid/switch.h ****     enum Polarity
  28:../libDaisy/src/hid/switch.h ****     {
  29:../libDaisy/src/hid/switch.h ****         POLARITY_NORMAL,   /**< & */
  30:../libDaisy/src/hid/switch.h ****         POLARITY_INVERTED, /**< & */
  31:../libDaisy/src/hid/switch.h ****     };
  32:../libDaisy/src/hid/switch.h **** 
  33:../libDaisy/src/hid/switch.h ****     /** Specifies whether to use built-in Pull Up/Down resistors to hold button at a given state wh
  34:../libDaisy/src/hid/switch.h ****     enum Pull
  35:../libDaisy/src/hid/switch.h ****     {
  36:../libDaisy/src/hid/switch.h ****         PULL_UP,   /**< & */
  37:../libDaisy/src/hid/switch.h ****         PULL_DOWN, /**< & */
  38:../libDaisy/src/hid/switch.h ****         PULL_NONE, /**< & */
  39:../libDaisy/src/hid/switch.h ****     };
  40:../libDaisy/src/hid/switch.h **** 
  41:../libDaisy/src/hid/switch.h ****     Switch() {}
  42:../libDaisy/src/hid/switch.h ****     ~Switch() {}
  43:../libDaisy/src/hid/switch.h **** 
  44:../libDaisy/src/hid/switch.h ****     /** 
  45:../libDaisy/src/hid/switch.h ****     Initializes the switch object with a given port/pin combo.
  46:../libDaisy/src/hid/switch.h ****     \param pin port/pin object to tell the switch which hardware pin to use.
  47:../libDaisy/src/hid/switch.h ****     \param update_rate Does nothing. Backwards compatibility until next breaking update.
  48:../libDaisy/src/hid/switch.h ****     \param t switch type -- Default: TYPE_MOMENTARY
  49:../libDaisy/src/hid/switch.h ****     \param pol switch polarity -- Default: POLARITY_INVERTED
  50:../libDaisy/src/hid/switch.h ****     \param pu switch pull up/down -- Default: PULL_UP
  51:../libDaisy/src/hid/switch.h ****     */
  52:../libDaisy/src/hid/switch.h ****     void
  53:../libDaisy/src/hid/switch.h ****     Init(dsy_gpio_pin pin, float update_rate, Type t, Polarity pol, Pull pu);
  54:../libDaisy/src/hid/switch.h **** 
  55:../libDaisy/src/hid/switch.h ****     /**
  56:../libDaisy/src/hid/switch.h ****        Simplified Init.
  57:../libDaisy/src/hid/switch.h ****        \param pin port/pin object to tell the switch which hardware pin to use.
  58:../libDaisy/src/hid/switch.h ****        \param update_rate Left for backwards compatibility until next breaking change.
  59:../libDaisy/src/hid/switch.h ****     */
  60:../libDaisy/src/hid/switch.h ****     void Init(dsy_gpio_pin pin, float update_rate = 0.f);
  61:../libDaisy/src/hid/switch.h **** 
  62:../libDaisy/src/hid/switch.h ****     /** 
  63:../libDaisy/src/hid/switch.h ****     Called at update_rate to debounce and handle timing for the switch.
  64:../libDaisy/src/hid/switch.h ****     In order for events not to be missed, its important that the Edge/Pressed checks
  65:../libDaisy/src/hid/switch.h ****     be made at the same rate as the debounce function is being called.
  66:../libDaisy/src/hid/switch.h ****     */
  67:../libDaisy/src/hid/switch.h ****     void Debounce();
  68:../libDaisy/src/hid/switch.h **** 
  69:../libDaisy/src/hid/switch.h ****     /** \return true if a button was just pressed. */
ARM GAS  /var/folders/2p/02m_5p7958535cp2tpgps0400000gn/T//ccHnEWZO.s 			page 24


  70:../libDaisy/src/hid/switch.h ****     inline bool RisingEdge() const { return updated_ ? state_ == 0x7f : false; }
  71:../libDaisy/src/hid/switch.h **** 
  72:../libDaisy/src/hid/switch.h ****     /** \return true if the button was just released */
  73:../libDaisy/src/hid/switch.h ****     inline bool FallingEdge() const
 609              		.loc 7 73 17 view .LVU157
 610              	.LBB379:
  74:../libDaisy/src/hid/switch.h ****     {
  75:../libDaisy/src/hid/switch.h ****         return updated_ ? state_ == 0x80 : false;
 611              		.loc 7 75 9 view .LVU158
 612              		.loc 7 75 25 is_stmt 0 view .LVU159
 613 000e 93F84C20 		ldrb	r2, [r3, #76]	@ zero_extendqisi2
 614 0012 002A     		cmp	r2, #0
 615 0014 F6D0     		beq	.L33
 616              	.LVL48:
 617              		.loc 7 75 25 view .LVU160
 618              	.LBE379:
 619              	.LBE378:
 620              	.LBE380:
 621              		.loc 2 178 9 view .LVU161
 622 0016 93F85230 		ldrb	r3, [r3, #82]	@ zero_extendqisi2
 623 001a 802B     		cmp	r3, #128
 624 001c F2D1     		bne	.L33
 179:GrannyChordApp.cpp ****   switch(curr_state_){
 625              		.loc 2 179 3 is_stmt 1 view .LVU162
 626              		.loc 2 179 10 is_stmt 0 view .LVU163
 627 001e D4F8E430 		ldr	r3, [r4, #228]
 628              		.loc 2 179 3 view .LVU164
 629 0022 012B     		cmp	r3, #1
 630 0024 08DC     		bgt	.L29
 631 0026 002B     		cmp	r3, #0
 632 0028 0CDB     		blt	.L27
 180:GrannyChordApp.cpp ****     case AppState::Synthesis:
 181:GrannyChordApp.cpp ****     case AppState::RecordIn:  
 182:GrannyChordApp.cpp ****       next_state_ = AppState::SelectFile;
 183:GrannyChordApp.cpp ****       return;
 184:GrannyChordApp.cpp ****     case AppState::SelectFile:
 633              		.loc 2 184 5 is_stmt 1 view .LVU165
 185:GrannyChordApp.cpp ****     case AppState::PlayWAV: 
 634              		.loc 2 185 5 view .LVU166
 186:GrannyChordApp.cpp ****       recorded_in_ = true;
 635              		.loc 2 186 7 view .LVU167
 636              		.loc 2 186 20 is_stmt 0 view .LVU168
 637 002a 04F50043 		add	r3, r4, #32768
 638 002e 0122     		movs	r2, #1
 639 0030 83F8F824 		strb	r2, [r3, #1272]
 187:GrannyChordApp.cpp ****       next_state_ = AppState::RecordIn;  
 640              		.loc 2 187 7 is_stmt 1 view .LVU169
 641              		.loc 2 187 19 is_stmt 0 view .LVU170
 642 0034 0323     		movs	r3, #3
 643 0036 03E0     		b	.L35
 644              	.L29:
 179:GrannyChordApp.cpp ****     case AppState::Synthesis:
 645              		.loc 2 179 3 view .LVU171
 646 0038 023B     		subs	r3, r3, #2
 647 003a 012B     		cmp	r3, #1
 648 003c 02D8     		bhi	.L27
 180:GrannyChordApp.cpp ****     case AppState::RecordIn:  
ARM GAS  /var/folders/2p/02m_5p7958535cp2tpgps0400000gn/T//ccHnEWZO.s 			page 25


 649              		.loc 2 180 5 is_stmt 1 view .LVU172
 181:GrannyChordApp.cpp ****       next_state_ = AppState::SelectFile;
 650              		.loc 2 181 5 view .LVU173
 182:GrannyChordApp.cpp ****       return;
 651              		.loc 2 182 7 view .LVU174
 182:GrannyChordApp.cpp ****       return;
 652              		.loc 2 182 19 is_stmt 0 view .LVU175
 653 003e 0023     		movs	r3, #0
 654              	.L35:
 655              		.loc 2 187 19 view .LVU176
 656 0040 C4F8E830 		str	r3, [r4, #232]
 188:GrannyChordApp.cpp ****       return;
 657              		.loc 2 188 7 is_stmt 1 view .LVU177
 658              	.L27:
 189:GrannyChordApp.cpp ****     default:
 190:GrannyChordApp.cpp ****       return;
 191:GrannyChordApp.cpp ****   }
 192:GrannyChordApp.cpp **** }
 659              		.loc 2 192 1 is_stmt 0 view .LVU178
 660 0044 10BD     		pop	{r4, pc}
 661              		.loc 2 192 1 view .LVU179
 662              		.cfi_endproc
 663              	.LFE4922:
 665              		.section	.text._ZN14GrannyChordApp22HandleButton2LongPressEv,"ax",%progbits
 666              		.align	1
 667              		.global	_ZN14GrannyChordApp22HandleButton2LongPressEv
 668              		.syntax unified
 669              		.thumb
 670              		.thumb_func
 672              	_ZN14GrannyChordApp22HandleButton2LongPressEv:
 673              	.LVL49:
 674              	.LFB4926:
 193:GrannyChordApp.cpp **** 
 194:GrannyChordApp.cpp **** // void GrannyChordApp::ButtonLongPressHandler(){
 195:GrannyChordApp.cpp **** //   if (pod_.button1.TimeHeldMs()>1000.0f){
 196:GrannyChordApp.cpp **** //     while (!pod_.button1.FallingEdge()){
 197:GrannyChordApp.cpp **** //       pod_.button1.Debounce();
 198:GrannyChordApp.cpp **** //     }
 199:GrannyChordApp.cpp **** //     // HandleButton1LongPress();
 200:GrannyChordApp.cpp **** //   }
 201:GrannyChordApp.cpp **** //   if (pod_.button2.TimeHeldMs()>1000.0f){
 202:GrannyChordApp.cpp **** //     while(!pod_.button2.FallingEdge()){
 203:GrannyChordApp.cpp **** //       pod_.button2.Debounce();
 204:GrannyChordApp.cpp **** //     }
 205:GrannyChordApp.cpp **** //     DebugPrint(pod_,"held button 2 and released");
 206:GrannyChordApp.cpp **** //   }
 207:GrannyChordApp.cpp **** // }
 208:GrannyChordApp.cpp **** 
 209:GrannyChordApp.cpp **** 
 210:GrannyChordApp.cpp **** void GrannyChordApp::ButtonHandler(){
 211:GrannyChordApp.cpp ****   if (pod_.button1.FallingEdge()){
 212:GrannyChordApp.cpp ****     HandleButton1();
 213:GrannyChordApp.cpp ****   }
 214:GrannyChordApp.cpp **** 
 215:GrannyChordApp.cpp ****   if (pod_.button2.FallingEdge()){
 216:GrannyChordApp.cpp ****     HandleButton2();
 217:GrannyChordApp.cpp ****   }
ARM GAS  /var/folders/2p/02m_5p7958535cp2tpgps0400000gn/T//ccHnEWZO.s 			page 26


 218:GrannyChordApp.cpp **** 
 219:GrannyChordApp.cpp ****   /* handle case when both buttons are held down */
 220:GrannyChordApp.cpp ****   // if (pod_.button1.Pressed() && pod_.button2.Pressed()){
 221:GrannyChordApp.cpp ****   //   float heldTime1 = pod_.button1.TimeHeldMs();
 222:GrannyChordApp.cpp ****   //   float heldTime2 = pod_.button2.TimeHeldMs();
 223:GrannyChordApp.cpp ****   //   if (heldTime1 > LONG_PRESS_TIME &&
 224:GrannyChordApp.cpp ****   //       heldTime2 > LONG_PRESS_TIME &&
 225:GrannyChordApp.cpp ****   //       !both_btns_long_press_fired_) 
 226:GrannyChordApp.cpp ****   //   {
 227:GrannyChordApp.cpp ****   //     if (!recording_out_){
 228:GrannyChordApp.cpp ****   //       pod_.seed.SetLed(1);
 229:GrannyChordApp.cpp ****   //       recording_out_ = true;
 230:GrannyChordApp.cpp ****   //       DebugPrint(pod_,"now recording out!");
 231:GrannyChordApp.cpp ****   //       RecordOutToSD();
 232:GrannyChordApp.cpp ****   //     } 
 233:GrannyChordApp.cpp ****   //     else{
 234:GrannyChordApp.cpp ****   //       pod_.seed.SetLed(0);
 235:GrannyChordApp.cpp ****   //       DebugPrint(pod_, "finished recording out: %.2fs",sd_writer_.GetLengthSeconds());
 236:GrannyChordApp.cpp ****   //       FinishRecording();
 237:GrannyChordApp.cpp ****   //     }
 238:GrannyChordApp.cpp ****   //     both_btns_long_press_fired_ = true;
 239:GrannyChordApp.cpp ****   //     last_action_time_ = time_now;
 240:GrannyChordApp.cpp ****   //   }
 241:GrannyChordApp.cpp ****   // } 
 242:GrannyChordApp.cpp ****   // else{
 243:GrannyChordApp.cpp ****   //   both_btns_long_press_fired_ = false;
 244:GrannyChordApp.cpp ****   // }
 245:GrannyChordApp.cpp **** }
 246:GrannyChordApp.cpp **** 
 247:GrannyChordApp.cpp **** /// @brief Switch between synth parameter control modes
 248:GrannyChordApp.cpp **** void GrannyChordApp::HandleButton1(){
 249:GrannyChordApp.cpp ****   NextSynthMode();
 250:GrannyChordApp.cpp **** }
 251:GrannyChordApp.cpp **** 
 252:GrannyChordApp.cpp **** /// @brief Toggles on/off synth parameter randomness controls
 253:GrannyChordApp.cpp **** void GrannyChordApp::HandleButton2(){
 254:GrannyChordApp.cpp ****     PrevSynthMode();
 255:GrannyChordApp.cpp **** }
 256:GrannyChordApp.cpp **** 
 257:GrannyChordApp.cpp **** // /// @brief Switches between controlling regular parameter modes and FX parameter modes
 258:GrannyChordApp.cpp **** // void GrannyChordApp::HandleButton1LongPress(){
 259:GrannyChordApp.cpp **** //   int mode_idx = static_cast<int>(curr_synth_mode_);
 260:GrannyChordApp.cpp **** //   if (mode_idx<4) mode_idx = 4;
 261:GrannyChordApp.cpp **** //   else mode_idx = 0;
 262:GrannyChordApp.cpp **** //   curr_synth_mode_ = static_cast<SynthMode>(mode_idx);
 263:GrannyChordApp.cpp **** //   SetLedSynthMode();
 264:GrannyChordApp.cpp **** // }
 265:GrannyChordApp.cpp **** 
 266:GrannyChordApp.cpp **** /// @brief Switches to Chord Mode
 267:GrannyChordApp.cpp **** void GrannyChordApp::HandleButton2LongPress(){
 675              		.loc 2 267 46 is_stmt 1 view -0
 676              		.cfi_startproc
 677              		@ args = 0, pretend = 0, frame = 0
 678              		@ frame_needed = 0, uses_anonymous_args = 0
 679              		@ link register save eliminated.
 268:GrannyChordApp.cpp ****   // TODO: RECORD OUT? 
 269:GrannyChordApp.cpp **** }
ARM GAS  /var/folders/2p/02m_5p7958535cp2tpgps0400000gn/T//ccHnEWZO.s 			page 27


 680              		.loc 2 269 1 is_stmt 0 view .LVU181
 681 0000 7047     		bx	lr
 682              		.cfi_endproc
 683              	.LFE4926:
 685              		.section	.rodata._ZN14GrannyChordApp19HandleFileSelectionEl.str1.1,"aMS",%progbits,1
 686              	.LC5:
 687 0000 73656C65 		.ascii	"selected file %d %s\000"
 687      63746564 
 687      2066696C 
 687      65202564 
 687      20257300 
 688              		.section	.text._ZN14GrannyChordApp19HandleFileSelectionEl,"ax",%progbits
 689              		.align	1
 690              		.global	_ZN14GrannyChordApp19HandleFileSelectionEl
 691              		.syntax unified
 692              		.thumb
 693              		.thumb_func
 695              	_ZN14GrannyChordApp19HandleFileSelectionEl:
 696              	.LVL50:
 697              	.LFB4927:
 270:GrannyChordApp.cpp **** 
 271:GrannyChordApp.cpp **** /// @brief Scrolls through list of files for user selection
 272:GrannyChordApp.cpp **** void GrannyChordApp::HandleFileSelection(int32_t encoder_inc){
 698              		.loc 2 272 62 is_stmt 1 view -0
 699              		.cfi_startproc
 700              		@ args = 0, pretend = 0, frame = 0
 701              		@ frame_needed = 0, uses_anonymous_args = 0
 273:GrannyChordApp.cpp ****   int file_count = filemgr_.GetFileCount();
 702              		.loc 2 273 3 view .LVU183
 703              		.loc 2 273 20 is_stmt 0 view .LVU184
 704 0000 D0F8DC30 		ldr	r3, [r0, #220]
 705              	.LVL51:
 706              	.LBB381:
 707              	.LBI381:
 708              		.file 8 "AudioFileManager.h"
   1:AudioFileManager.h **** #pragma once
   2:AudioFileManager.h **** #include <stdio.h>
   3:AudioFileManager.h **** #include <stdint.h>
   4:AudioFileManager.h **** #include <vector>
   5:AudioFileManager.h **** #include "daisy_pod.h"
   6:AudioFileManager.h **** #include "constants_utils.h"
   7:AudioFileManager.h **** #include "debug_print.h"
   8:AudioFileManager.h **** 
   9:AudioFileManager.h **** using namespace daisy; 
  10:AudioFileManager.h **** 
  11:AudioFileManager.h **** class AudioFileManager {
  12:AudioFileManager.h ****   public:
  13:AudioFileManager.h ****     AudioFileManager(SdmmcHandler &sd, FatFSInterface &fsi, DaisyPod &pod, FIL *file)
  14:AudioFileManager.h ****       : sd_(sd), fsi_(fsi), pod_(pod), curr_file_(file), 
  15:AudioFileManager.h ****         left_buf_(nullptr), right_buf_(nullptr) {};
  16:AudioFileManager.h ****     
  17:AudioFileManager.h ****     bool Init();
  18:AudioFileManager.h ****     bool ScanWavFiles();
  19:AudioFileManager.h ****     void SetBuffers(int16_t *left, int16_t *right);
  20:AudioFileManager.h ****     bool LoadFile(uint16_t file_idx);
  21:AudioFileManager.h ****     
  22:AudioFileManager.h ****     bool CloseFile();
ARM GAS  /var/folders/2p/02m_5p7958535cp2tpgps0400000gn/T//ccHnEWZO.s 			page 28


  23:AudioFileManager.h ****     bool GetWavHeader(FIL *file);
  24:AudioFileManager.h **** 
  25:AudioFileManager.h ****     int16_t* GetLeftBuffer() const { return left_buf_; }
  26:AudioFileManager.h ****     int16_t* GetRightBuffer() const { return right_buf_; }
  27:AudioFileManager.h ****     size_t GetSamplesPerChannel() const { return header_.total_samples / header_.channels; }
  28:AudioFileManager.h ****     size_t GetTotalSamples() const { return header_.total_samples; }
  29:AudioFileManager.h ****     int16_t GetNumChannels() const { return header_.channels; }
  30:AudioFileManager.h ****     uint16_t GetFileCount() const { return file_count_; }
 709              		.loc 8 30 14 is_stmt 1 view .LVU185
 710              	.LBB382:
 711              		.loc 8 30 37 view .LVU186
 712              		.loc 8 30 37 is_stmt 0 view .LVU187
 713              	.LBE382:
 714              	.LBE381:
 272:GrannyChordApp.cpp ****   int file_count = filemgr_.GetFileCount();
 715              		.loc 2 272 62 view .LVU188
 716 0004 10B5     		push	{r4, lr}
 717              		.cfi_def_cfa_offset 8
 718              		.cfi_offset 4, -8
 719              		.cfi_offset 14, -4
 720              	.LBB384:
 721              	.LBB383:
 722              		.loc 8 30 44 view .LVU189
 723 0006 03F58052 		add	r2, r3, #4096
 724              	.LBE383:
 725              	.LBE384:
 274:GrannyChordApp.cpp ****   file_idx_ = (file_idx_ + encoder_inc + file_count) % file_count;
 726              		.loc 2 274 26 view .LVU190
 727 000a D0F8B841 		ldr	r4, [r0, #440]
 273:GrannyChordApp.cpp ****   file_idx_ = (file_idx_ + encoder_inc + file_count) % file_count;
 728              		.loc 2 273 42 view .LVU191
 729 000e D28B     		ldrh	r2, [r2, #30]
 730              	.LVL52:
 731              		.loc 2 274 3 is_stmt 1 view .LVU192
 732              		.loc 2 274 26 is_stmt 0 view .LVU193
 733 0010 2144     		add	r1, r1, r4
 734              	.LVL53:
 735              		.loc 2 274 40 view .LVU194
 736 0012 8C18     		adds	r4, r1, r2
 737              		.loc 2 274 54 view .LVU195
 738 0014 94FBF2F1 		sdiv	r1, r4, r2
 739 0018 02FB1144 		mls	r4, r2, r1, r4
 275:GrannyChordApp.cpp ****   filemgr_.GetName(file_idx_,fname_);
 740              		.loc 2 275 30 view .LVU196
 741 001c 00F5E272 		add	r2, r0, #452
 742              	.LVL54:
 743              	.LBB385:
 744              	.LBB386:
  31:AudioFileManager.h ****     void GetName(uint16_t idx, char* name) const { strcpy(name, names_[idx]); }
 745              		.loc 8 31 75 view .LVU197
 746 0020 A1B2     		uxth	r1, r4
 747              	.LBE386:
 748              	.LBE385:
 274:GrannyChordApp.cpp ****   filemgr_.GetName(file_idx_,fname_);
 749              		.loc 2 274 13 view .LVU198
 750 0022 C0F8B841 		str	r4, [r0, #440]
 751              		.loc 2 275 3 is_stmt 1 view .LVU199
ARM GAS  /var/folders/2p/02m_5p7958535cp2tpgps0400000gn/T//ccHnEWZO.s 			page 29


 752              	.LVL55:
 753              	.LBB389:
 754              	.LBI385:
 755              		.loc 8 31 10 view .LVU200
 756              	.LBB387:
 757              		.loc 8 31 52 view .LVU201
 758              		.loc 8 31 58 is_stmt 0 view .LVU202
 759 0026 1046     		mov	r0, r2
 760              	.LVL56:
 761              		.loc 8 31 75 view .LVU203
 762 0028 03EBC111 		add	r1, r3, r1, lsl #7
 763              		.loc 8 31 58 view .LVU204
 764 002c 1C31     		adds	r1, r1, #28
 765 002e FFF7FEFF 		bl	strcpy
 766              	.LVL57:
 767              		.loc 8 31 58 view .LVU205
 768              	.LBE387:
 769              	.LBE389:
 770              	.LBB390:
 771              	.LBB391:
 772              		.loc 4 128 23 view .LVU206
 773 0032 2146     		mov	r1, r4
 774              	.LBE391:
 775              	.LBE390:
 776              	.LBB394:
 777              	.LBB388:
 778              		.loc 8 31 58 view .LVU207
 779 0034 0246     		mov	r2, r0
 780              	.LVL58:
 781              		.loc 8 31 58 view .LVU208
 782              	.LBE388:
 783              	.LBE394:
 276:GrannyChordApp.cpp ****   DebugPrint(pod_, "selected file %d %s",file_idx_,fname_);
 784              		.loc 2 276 3 is_stmt 1 view .LVU209
 785              		.loc 2 276 3 view .LVU210
 786              	.LBB395:
 787              	.LBI390:
 126:../libDaisy/src/daisy_seed.h ****     {
 788              		.loc 4 126 17 view .LVU211
 789              	.LBB392:
 790              		.loc 4 128 23 is_stmt 0 view .LVU212
 791 0036 0248     		ldr	r0, .L38
 792              	.LVL59:
 793              		.loc 4 128 23 view .LVU213
 794              	.LBE392:
 795              	.LBE395:
 277:GrannyChordApp.cpp **** }
 796              		.loc 2 277 1 view .LVU214
 797 0038 BDE81040 		pop	{r4, lr}
 798              		.cfi_restore 14
 799              		.cfi_restore 4
 800              		.cfi_def_cfa_offset 0
 801              	.LBB396:
 802              	.LBB393:
 803              		.loc 4 128 23 view .LVU215
 804 003c FFF7FEBF 		b	_ZN5daisy6LoggerILNS_17LoggerDestinationE1EE9PrintLineEPKcz
 805              	.LVL60:
ARM GAS  /var/folders/2p/02m_5p7958535cp2tpgps0400000gn/T//ccHnEWZO.s 			page 30


 806              	.L39:
 807              		.loc 4 128 23 view .LVU216
 808              		.align	2
 809              	.L38:
 810 0040 00000000 		.word	.LC5
 811              	.LBE393:
 812              	.LBE396:
 813              		.cfi_endproc
 814              	.LFE4927:
 816              		.section	.text._ZN14GrannyChordApp22HandleEncoderIncrementEi,"ax",%progbits
 817              		.align	1
 818              		.global	_ZN14GrannyChordApp22HandleEncoderIncrementEi
 819              		.syntax unified
 820              		.thumb
 821              		.thumb_func
 823              	_ZN14GrannyChordApp22HandleEncoderIncrementEi:
 824              	.LVL61:
 825              	.LFB4920:
 146:GrannyChordApp.cpp ****   if (curr_state_==AppState::PlayWAV){
 826              		.loc 2 146 61 is_stmt 1 view -0
 827              		.cfi_startproc
 828              		@ args = 0, pretend = 0, frame = 0
 829              		@ frame_needed = 0, uses_anonymous_args = 0
 830              		@ link register save eliminated.
 147:GrannyChordApp.cpp ****     recorded_in_ = false;
 831              		.loc 2 147 3 view .LVU218
 832 0000 D0F8E430 		ldr	r3, [r0, #228]
 833 0004 012B     		cmp	r3, #1
 834 0006 09D1     		bne	.L41
 148:GrannyChordApp.cpp ****     next_state_ = AppState::SelectFile;
 835              		.loc 2 148 5 view .LVU219
 149:GrannyChordApp.cpp ****   }
 836              		.loc 2 149 5 view .LVU220
 149:GrannyChordApp.cpp ****   }
 837              		.loc 2 149 17 is_stmt 0 view .LVU221
 838 0008 0023     		movs	r3, #0
 839 000a C0F8E830 		str	r3, [r0, #232]
 151:GrannyChordApp.cpp ****     recorded_in_ = false;
 840              		.loc 2 151 3 is_stmt 1 view .LVU222
 841              	.L42:
 152:GrannyChordApp.cpp ****     HandleFileSelection(encoder_inc);
 842              		.loc 2 152 5 view .LVU223
 152:GrannyChordApp.cpp ****     HandleFileSelection(encoder_inc);
 843              		.loc 2 152 18 is_stmt 0 view .LVU224
 844 000e 00F50043 		add	r3, r0, #32768
 845 0012 0022     		movs	r2, #0
 846 0014 83F8F824 		strb	r2, [r3, #1272]
 153:GrannyChordApp.cpp ****   }
 847              		.loc 2 153 5 is_stmt 1 view .LVU225
 153:GrannyChordApp.cpp ****   }
 848              		.loc 2 153 24 is_stmt 0 view .LVU226
 849 0018 FFF7FEBF 		b	_ZN14GrannyChordApp19HandleFileSelectionEl
 850              	.LVL62:
 851              	.L41:
 151:GrannyChordApp.cpp ****     recorded_in_ = false;
 852              		.loc 2 151 3 is_stmt 1 view .LVU227
 853 001c D0F8E830 		ldr	r3, [r0, #232]
ARM GAS  /var/folders/2p/02m_5p7958535cp2tpgps0400000gn/T//ccHnEWZO.s 			page 31


 854 0020 002B     		cmp	r3, #0
 855 0022 F4D0     		beq	.L42
 155:GrannyChordApp.cpp **** 
 856              		.loc 2 155 1 is_stmt 0 view .LVU228
 857 0024 7047     		bx	lr
 858              		.cfi_endproc
 859              	.LFE4920:
 861              		.section	.text._ZN14GrannyChordApp11InitFileMgrEv,"ax",%progbits
 862              		.align	1
 863              		.global	_ZN14GrannyChordApp11InitFileMgrEv
 864              		.syntax unified
 865              		.thumb
 866              		.thumb_func
 868              	_ZN14GrannyChordApp11InitFileMgrEv:
 869              	.LVL63:
 870              	.LFB4931:
 278:GrannyChordApp.cpp **** 
 279:GrannyChordApp.cpp **** /// @brief iterates to next synth mode within regular or FX group
 280:GrannyChordApp.cpp **** void GrannyChordApp::NextSynthMode(){
 281:GrannyChordApp.cpp ****   DebugPrint(pod_, "going to synth mode");
 282:GrannyChordApp.cpp ****   int mode_idx = static_cast<int>(curr_synth_mode_);
 283:GrannyChordApp.cpp ****   prev_k1_pos[mode_idx] = MapKnobDeadzone(pod_.knob1.Process());
 284:GrannyChordApp.cpp ****   prev_k2_pos[mode_idx] = MapKnobDeadzone(pod_.knob2.Process());
 285:GrannyChordApp.cpp ****   knob1_latched = false;
 286:GrannyChordApp.cpp ****   knob2_latched = false;
 287:GrannyChordApp.cpp ****   mode_idx++;
 288:GrannyChordApp.cpp ****   if (mode_idx>3) mode_idx =0;
 289:GrannyChordApp.cpp ****   curr_synth_mode_ = static_cast<SynthMode>(mode_idx);
 290:GrannyChordApp.cpp ****   DebugPrintMode(curr_synth_mode_);
 291:GrannyChordApp.cpp ****   SetLedSynthMode();
 292:GrannyChordApp.cpp **** }
 293:GrannyChordApp.cpp **** 
 294:GrannyChordApp.cpp **** /// @brief iterates to previous synth mode within regular or FX group
 295:GrannyChordApp.cpp **** void GrannyChordApp::PrevSynthMode(){
 296:GrannyChordApp.cpp ****   DebugPrint(pod_, "going to prev synth mode");
 297:GrannyChordApp.cpp ****   int mode_idx = static_cast<int>(curr_synth_mode_);
 298:GrannyChordApp.cpp ****   prev_k1_pos[mode_idx] = MapKnobDeadzone(pod_.knob1.Process());
 299:GrannyChordApp.cpp ****   prev_k2_pos[mode_idx] = MapKnobDeadzone(pod_.knob2.Process());
 300:GrannyChordApp.cpp ****   knob1_latched = false;
 301:GrannyChordApp.cpp ****   knob2_latched = false;  
 302:GrannyChordApp.cpp ****   mode_idx --;
 303:GrannyChordApp.cpp ****   if (mode_idx<0) mode_idx=3;
 304:GrannyChordApp.cpp ****   curr_synth_mode_ = static_cast<SynthMode>(mode_idx);
 305:GrannyChordApp.cpp ****   DebugPrintMode(curr_synth_mode_);
 306:GrannyChordApp.cpp ****   SetLedSynthMode();
 307:GrannyChordApp.cpp **** }
 308:GrannyChordApp.cpp **** 
 309:GrannyChordApp.cpp **** /// @brief Updates synth parameters based on current synth mode and adjusts
 310:GrannyChordApp.cpp **** ///        knob input values to account for knob jitter and deadzones around 0/1
 311:GrannyChordApp.cpp **** void GrannyChordApp::UpdateSynthParams(){
 312:GrannyChordApp.cpp ****   if (curr_state_!=AppState::Synthesis) return;
 313:GrannyChordApp.cpp ****   int mode_idx = static_cast<int>(curr_synth_mode_);
 314:GrannyChordApp.cpp **** 
 315:GrannyChordApp.cpp ****   /* set to 0 or 1 if very close to these bounds */
 316:GrannyChordApp.cpp ****   float knob1_val = MapKnobDeadzone(pod_.knob1.Process());
 317:GrannyChordApp.cpp ****   float knob2_val = MapKnobDeadzone(pod_.knob2.Process());
 318:GrannyChordApp.cpp **** 
ARM GAS  /var/folders/2p/02m_5p7958535cp2tpgps0400000gn/T//ccHnEWZO.s 			page 32


 319:GrannyChordApp.cpp ****   // UpdateKnob1Params(knob1_val, curr_synth_mode_);
 320:GrannyChordApp.cpp ****   // UpdateKnob2Params(knob2_val, curr_synth_mode_);
 321:GrannyChordApp.cpp **** 
 322:GrannyChordApp.cpp ****   // if (UpdateKnobPassThru(&knob1_latched, knob1_val,prev_param_k1[mode_idx])){
 323:GrannyChordApp.cpp ****   //   UpdateKnob1Params(knob1_val,curr_synth_mode_);
 324:GrannyChordApp.cpp ****   //   prev_param_k1[mode_idx] = knob1_val;
 325:GrannyChordApp.cpp ****   //   System::Delay(5);
 326:GrannyChordApp.cpp ****   // }
 327:GrannyChordApp.cpp **** 
 328:GrannyChordApp.cpp ****   // if (UpdateKnobPassThru(&knob2_latched, knob2_val,prev_param_k2[mode_idx])){
 329:GrannyChordApp.cpp ****   //   UpdateKnob2Params(knob2_val, curr_synth_mode_);
 330:GrannyChordApp.cpp ****   //   prev_param_k2[mode_idx] = knob2_val;
 331:GrannyChordApp.cpp ****   //   System::Delay(5);
 332:GrannyChordApp.cpp ****   // }
 333:GrannyChordApp.cpp **** 
 334:GrannyChordApp.cpp **** 
 335:GrannyChordApp.cpp **** 
 336:GrannyChordApp.cpp ****   if (!knob1_latched){
 337:GrannyChordApp.cpp ****     if ((fabs(knob1_val - prev_k1_pos[mode_idx])<=0.05f) &&
 338:GrannyChordApp.cpp ****         (fabs(prev_k1_pos[mode_idx] - prev_param_k1[mode_idx])<=0.05f)){
 339:GrannyChordApp.cpp ****           knob1_latched = true;
 340:GrannyChordApp.cpp ****           DebugPrint(pod_, "latched 1");
 341:GrannyChordApp.cpp ****     }
 342:GrannyChordApp.cpp ****   }
 343:GrannyChordApp.cpp **** 
 344:GrannyChordApp.cpp ****   if (!knob2_latched){
 345:GrannyChordApp.cpp ****     if ((fabs(knob2_val-prev_k2_pos[mode_idx])<=0.05f) &&
 346:GrannyChordApp.cpp ****         (fabs(prev_k2_pos[mode_idx]-prev_param_k2[mode_idx])<=0.05f)){
 347:GrannyChordApp.cpp ****           knob2_latched = true;
 348:GrannyChordApp.cpp ****           DebugPrint(pod_, "latched 2");
 349:GrannyChordApp.cpp ****     }
 350:GrannyChordApp.cpp ****   }
 351:GrannyChordApp.cpp **** 
 352:GrannyChordApp.cpp ****   if (knob1_latched){
 353:GrannyChordApp.cpp ****     UpdateKnob1Params(knob1_val, curr_synth_mode_);
 354:GrannyChordApp.cpp ****     prev_param_k1[mode_idx] = knob1_val;
 355:GrannyChordApp.cpp ****     prev_k1_pos[mode_idx] = knob1_val;
 356:GrannyChordApp.cpp ****     // System::Delay(5);
 357:GrannyChordApp.cpp ****   }
 358:GrannyChordApp.cpp **** 
 359:GrannyChordApp.cpp ****   if (knob2_latched){
 360:GrannyChordApp.cpp ****     UpdateKnob2Params(knob2_val, curr_synth_mode_);
 361:GrannyChordApp.cpp ****     prev_param_k2[mode_idx] = knob2_val;
 362:GrannyChordApp.cpp ****     prev_k2_pos[mode_idx] = knob2_val;
 363:GrannyChordApp.cpp ****     // System::Delay(5);
 364:GrannyChordApp.cpp ****   }
 365:GrannyChordApp.cpp ****   System::Delay(1);
 366:GrannyChordApp.cpp **** }
 367:GrannyChordApp.cpp **** 
 368:GrannyChordApp.cpp **** /// @brief Initialises file manager, sets audio data buffers and scans SD card for WAV files
 369:GrannyChordApp.cpp **** /// @return True on successful initialisation, false if init fails or no WAV files found
 370:GrannyChordApp.cpp **** bool GrannyChordApp::InitFileMgr(){
 871              		.loc 2 370 35 is_stmt 1 view -0
 872              		.cfi_startproc
 873              		@ args = 0, pretend = 0, frame = 0
 874              		@ frame_needed = 0, uses_anonymous_args = 0
 371:GrannyChordApp.cpp ****   filemgr_.SetBuffers(left_buf_,right_buf_);
ARM GAS  /var/folders/2p/02m_5p7958535cp2tpgps0400000gn/T//ccHnEWZO.s 			page 33


 875              		.loc 2 371 3 view .LVU230
 370:GrannyChordApp.cpp ****   filemgr_.SetBuffers(left_buf_,right_buf_);
 876              		.loc 2 370 35 is_stmt 0 view .LVU231
 877 0000 10B5     		push	{r4, lr}
 878              		.cfi_def_cfa_offset 8
 879              		.cfi_offset 4, -8
 880              		.cfi_offset 14, -4
 370:GrannyChordApp.cpp ****   filemgr_.SetBuffers(left_buf_,right_buf_);
 881              		.loc 2 370 35 view .LVU232
 882 0002 0446     		mov	r4, r0
 883              		.loc 2 371 22 view .LVU233
 884 0004 D0E96C12 		ldrd	r1, r2, [r0, #432]
 885 0008 D0F8DC00 		ldr	r0, [r0, #220]
 886              	.LVL64:
 887              		.loc 2 371 22 view .LVU234
 888 000c FFF7FEFF 		bl	_ZN16AudioFileManager10SetBuffersEPsS0_
 889              	.LVL65:
 372:GrannyChordApp.cpp ****   if (!filemgr_.Init())return false;
 890              		.loc 2 372 3 is_stmt 1 view .LVU235
 891              		.loc 2 372 21 is_stmt 0 view .LVU236
 892 0010 D4F8DC00 		ldr	r0, [r4, #220]
 893 0014 FFF7FEFF 		bl	_ZN16AudioFileManager4InitEv
 894              	.LVL66:
 895              		.loc 2 372 3 view .LVU237
 896 0018 28B1     		cbz	r0, .L45
 897              	.LBB399:
 898              	.LBI399:
 370:GrannyChordApp.cpp ****   filemgr_.SetBuffers(left_buf_,right_buf_);
 899              		.loc 2 370 6 is_stmt 1 view .LVU238
 900              	.LVL67:
 901              	.LBB400:
 373:GrannyChordApp.cpp **** 
 374:GrannyChordApp.cpp ****   return filemgr_.ScanWavFiles();
 902              		.loc 2 374 3 view .LVU239
 903              		.loc 2 374 31 is_stmt 0 view .LVU240
 904 001a D4F8DC00 		ldr	r0, [r4, #220]
 905              	.LBE400:
 906              	.LBE399:
 375:GrannyChordApp.cpp **** }
 907              		.loc 2 375 1 view .LVU241
 908 001e BDE81040 		pop	{r4, lr}
 909              		.cfi_remember_state
 910              		.cfi_restore 14
 911              		.cfi_restore 4
 912              		.cfi_def_cfa_offset 0
 913              	.LVL68:
 914              	.LBB402:
 915              	.LBB401:
 374:GrannyChordApp.cpp **** }
 916              		.loc 2 374 31 view .LVU242
 917 0022 FFF7FEBF 		b	_ZN16AudioFileManager12ScanWavFilesEv
 918              	.LVL69:
 919              	.L45:
 920              		.cfi_restore_state
 374:GrannyChordApp.cpp **** }
 921              		.loc 2 374 31 view .LVU243
 922              	.LBE401:
ARM GAS  /var/folders/2p/02m_5p7958535cp2tpgps0400000gn/T//ccHnEWZO.s 			page 34


 923              	.LBE402:
 924              		.loc 2 375 1 view .LVU244
 925 0026 10BD     		pop	{r4, pc}
 926              		.loc 2 375 1 view .LVU245
 927              		.cfi_endproc
 928              	.LFE4931:
 930              		.section	.rodata._ZN14GrannyChordApp12InitPlaybackEv.str1.1,"aMS",%progbits,1
 931              	.LC6:
 932 0000 6661696C 		.ascii	"failed to load file\000"
 932      65642074 
 932      6F206C6F 
 932      61642066 
 932      696C6500 
 933              	.LC7:
 934 0014 6C6F6164 		.ascii	"loaded file\000"
 934      65642066 
 934      696C6500 
 935              		.section	.text._ZN14GrannyChordApp12InitPlaybackEv,"ax",%progbits
 936              		.align	1
 937              		.global	_ZN14GrannyChordApp12InitPlaybackEv
 938              		.syntax unified
 939              		.thumb
 940              		.thumb_func
 942              	_ZN14GrannyChordApp12InitPlaybackEv:
 943              	.LVL70:
 944              	.LFB4933:
 376:GrannyChordApp.cpp **** 
 377:GrannyChordApp.cpp **** /// @brief Calls synth initialisation function, passes audio data buffers and audio length
 378:GrannyChordApp.cpp **** void GrannyChordApp::InitSynth(){
 379:GrannyChordApp.cpp ****   synth_.Init(left_buf_, right_buf_, filemgr_.GetSamplesPerChannel());
 380:GrannyChordApp.cpp ****   InitPrevParamVals();
 381:GrannyChordApp.cpp ****   DebugPrint(pod_,"synth init ok - samples %u",filemgr_.GetSamplesPerChannel());
 382:GrannyChordApp.cpp **** }
 383:GrannyChordApp.cpp **** 
 384:GrannyChordApp.cpp **** /// @brief Initialises WAV playback state, resets playhead, sets current file audio length
 385:GrannyChordApp.cpp **** void GrannyChordApp::InitPlayback(){
 945              		.loc 2 385 36 is_stmt 1 view -0
 946              		.cfi_startproc
 947              		@ args = 0, pretend = 0, frame = 0
 948              		@ frame_needed = 0, uses_anonymous_args = 0
 386:GrannyChordApp.cpp ****   wav_playhead_ = 0;
 949              		.loc 2 386 3 view .LVU247
 950              		.loc 2 386 17 is_stmt 0 view .LVU248
 951 0000 0022     		movs	r2, #0
 387:GrannyChordApp.cpp ****   record_in_pos_  = 0;
 952              		.loc 2 387 19 view .LVU249
 953 0002 00F50043 		add	r3, r0, #32768
 385:GrannyChordApp.cpp ****   wav_playhead_ = 0;
 954              		.loc 2 385 36 view .LVU250
 955 0006 10B5     		push	{r4, lr}
 956              		.cfi_def_cfa_offset 8
 957              		.cfi_offset 4, -8
 958              		.cfi_offset 14, -4
 386:GrannyChordApp.cpp ****   wav_playhead_ = 0;
 959              		.loc 2 386 17 view .LVU251
 960 0008 C0F8BC21 		str	r2, [r0, #444]
 961              		.loc 2 387 3 is_stmt 1 view .LVU252
ARM GAS  /var/folders/2p/02m_5p7958535cp2tpgps0400000gn/T//ccHnEWZO.s 			page 35


 385:GrannyChordApp.cpp ****   wav_playhead_ = 0;
 962              		.loc 2 385 36 is_stmt 0 view .LVU253
 963 000c 0446     		mov	r4, r0
 964              		.loc 2 387 19 view .LVU254
 965 000e C3F8FC24 		str	r2, [r3, #1276]
 388:GrannyChordApp.cpp ****   if (!recorded_in_){
 966              		.loc 2 388 3 is_stmt 1 view .LVU255
 967 0012 93F8F834 		ldrb	r3, [r3, #1272]	@ zero_extendqisi2
 968 0016 6BB9     		cbnz	r3, .L47
 389:GrannyChordApp.cpp ****     if (!filemgr_.LoadFile(file_idx_)) {
 969              		.loc 2 389 5 view .LVU256
 970              		.loc 2 389 27 is_stmt 0 view .LVU257
 971 0018 B0F8B811 		ldrh	r1, [r0, #440]
 972 001c D0F8DC00 		ldr	r0, [r0, #220]
 973              	.LVL71:
 974              		.loc 2 389 27 view .LVU258
 975 0020 FFF7FEFF 		bl	_ZN16AudioFileManager8LoadFileEt
 976              	.LVL72:
 977              		.loc 2 389 5 view .LVU259
 978 0024 30B9     		cbnz	r0, .L47
 390:GrannyChordApp.cpp ****       DebugPrint(pod_,"failed to load file");
 979              		.loc 2 390 7 is_stmt 1 view .LVU260
 980              		.loc 2 390 7 view .LVU261
 981              	.LVL73:
 982              	.LBB403:
 983              	.LBI403:
 126:../libDaisy/src/daisy_seed.h ****     {
 984              		.loc 4 126 17 view .LVU262
 985              	.LBB404:
 986              		.loc 4 128 23 is_stmt 0 view .LVU263
 987 0026 0848     		ldr	r0, .L50
 988 0028 FFF7FEFF 		bl	_ZN5daisy6LoggerILNS_17LoggerDestinationE1EE9PrintLineEPKcz
 989              	.LVL74:
 990              		.loc 4 128 23 view .LVU264
 991              	.LBE404:
 992              	.LBE403:
 391:GrannyChordApp.cpp ****       curr_state_=AppState::Error;
 993              		.loc 2 391 7 is_stmt 1 view .LVU265
 994              		.loc 2 391 18 is_stmt 0 view .LVU266
 995 002c 0523     		movs	r3, #5
 996 002e C4F8E430 		str	r3, [r4, #228]
 392:GrannyChordApp.cpp ****       return;
 997              		.loc 2 392 7 is_stmt 1 view .LVU267
 393:GrannyChordApp.cpp ****     }
 394:GrannyChordApp.cpp ****   }
 395:GrannyChordApp.cpp ****   DebugPrint(pod_, "loaded file");
 396:GrannyChordApp.cpp ****   pod_.StartAudio(AudioCallback);
 397:GrannyChordApp.cpp **** }
 998              		.loc 2 397 1 is_stmt 0 view .LVU268
 999 0032 10BD     		pop	{r4, pc}
 1000              	.LVL75:
 1001              	.L47:
 395:GrannyChordApp.cpp ****   pod_.StartAudio(AudioCallback);
 1002              		.loc 2 395 3 is_stmt 1 view .LVU269
 395:GrannyChordApp.cpp ****   pod_.StartAudio(AudioCallback);
 1003              		.loc 2 395 3 view .LVU270
 1004              	.LBB405:
ARM GAS  /var/folders/2p/02m_5p7958535cp2tpgps0400000gn/T//ccHnEWZO.s 			page 36


 1005              	.LBI405:
 126:../libDaisy/src/daisy_seed.h ****     {
 1006              		.loc 4 126 17 view .LVU271
 1007              	.LBB406:
 1008              		.loc 4 128 23 is_stmt 0 view .LVU272
 1009 0034 0548     		ldr	r0, .L50+4
 1010 0036 FFF7FEFF 		bl	_ZN5daisy6LoggerILNS_17LoggerDestinationE1EE9PrintLineEPKcz
 1011              	.LVL76:
 1012              		.loc 4 128 23 view .LVU273
 1013              	.LBE406:
 1014              	.LBE405:
 396:GrannyChordApp.cpp **** }
 1015              		.loc 2 396 3 is_stmt 1 view .LVU274
 396:GrannyChordApp.cpp **** }
 1016              		.loc 2 396 18 is_stmt 0 view .LVU275
 1017 003a E069     		ldr	r0, [r4, #28]
 1018 003c 0449     		ldr	r1, .L50+8
 1019              		.loc 2 397 1 view .LVU276
 1020 003e BDE81040 		pop	{r4, lr}
 1021              		.cfi_restore 14
 1022              		.cfi_restore 4
 1023              		.cfi_def_cfa_offset 0
 1024              	.LVL77:
 396:GrannyChordApp.cpp **** }
 1025              		.loc 2 396 18 view .LVU277
 1026 0042 FFF7FEBF 		b	_ZN5daisy8DaisyPod10StartAudioEPFvPKPKfPPfjE
 1027              	.LVL78:
 1028              	.L51:
 1029 0046 00BF     		.align	2
 1030              	.L50:
 1031 0048 00000000 		.word	.LC6
 1032 004c 14000000 		.word	.LC7
 1033 0050 00000000 		.word	_ZN14GrannyChordApp13AudioCallbackEPKPKfPPfj
 1034              		.cfi_endproc
 1035              	.LFE4933:
 1037              		.section	.text._ZN14GrannyChordApp12InitRecordInEv,"ax",%progbits
 1038              		.align	1
 1039              		.global	_ZN14GrannyChordApp12InitRecordInEv
 1040              		.syntax unified
 1041              		.thumb
 1042              		.thumb_func
 1044              	_ZN14GrannyChordApp12InitRecordInEv:
 1045              	.LVL79:
 1046              	.LFB4934:
 398:GrannyChordApp.cpp **** 
 399:GrannyChordApp.cpp **** /// @brief Initialises RecordIn state, clears audio buffers
 400:GrannyChordApp.cpp **** void GrannyChordApp::InitRecordIn(){
 1047              		.loc 2 400 36 is_stmt 1 view -0
 1048              		.cfi_startproc
 1049              		@ args = 0, pretend = 0, frame = 0
 1050              		@ frame_needed = 0, uses_anonymous_args = 0
 401:GrannyChordApp.cpp ****   memset(left_buf_, 0, CHNL_BUF_SIZE_ABS);
 1051              		.loc 2 401 3 view .LVU279
 400:GrannyChordApp.cpp ****   memset(left_buf_, 0, CHNL_BUF_SIZE_ABS);
 1052              		.loc 2 400 36 is_stmt 0 view .LVU280
 1053 0000 10B5     		push	{r4, lr}
 1054              		.cfi_def_cfa_offset 8
ARM GAS  /var/folders/2p/02m_5p7958535cp2tpgps0400000gn/T//ccHnEWZO.s 			page 37


 1055              		.cfi_offset 4, -8
 1056              		.cfi_offset 14, -4
 400:GrannyChordApp.cpp ****   memset(left_buf_, 0, CHNL_BUF_SIZE_ABS);
 1057              		.loc 2 400 36 view .LVU281
 1058 0002 0446     		mov	r4, r0
 1059              		.loc 2 401 9 view .LVU282
 1060 0004 4FF08072 		mov	r2, #16777216
 1061 0008 0021     		movs	r1, #0
 1062 000a D0F8B001 		ldr	r0, [r0, #432]
 1063              	.LVL80:
 1064              		.loc 2 401 9 view .LVU283
 1065 000e FFF7FEFF 		bl	memset
 1066              	.LVL81:
 402:GrannyChordApp.cpp ****   memset(right_buf_, 0, CHNL_BUF_SIZE_ABS);
 1067              		.loc 2 402 3 is_stmt 1 view .LVU284
 1068              		.loc 2 402 9 is_stmt 0 view .LVU285
 1069 0012 D4F8B401 		ldr	r0, [r4, #436]
 1070 0016 4FF08072 		mov	r2, #16777216
 1071 001a 0021     		movs	r1, #0
 1072 001c FFF7FEFF 		bl	memset
 1073              	.LVL82:
 403:GrannyChordApp.cpp ****   record_in_pos_ = 0;
 1074              		.loc 2 403 3 is_stmt 1 view .LVU286
 1075              		.loc 2 403 18 is_stmt 0 view .LVU287
 1076 0020 04F50044 		add	r4, r4, #32768
 1077              	.LVL83:
 1078              		.loc 2 403 18 view .LVU288
 1079 0024 0023     		movs	r3, #0
 1080 0026 C4F8FC34 		str	r3, [r4, #1276]
 404:GrannyChordApp.cpp **** }
 1081              		.loc 2 404 1 view .LVU289
 1082 002a 10BD     		pop	{r4, pc}
 1083              		.loc 2 404 1 view .LVU290
 1084              		.cfi_endproc
 1085              	.LFE4934:
 1087              		.section	.text._ZN14GrannyChordApp13InitWavWriterEv,"ax",%progbits
 1088              		.align	1
 1089              		.global	_ZN14GrannyChordApp13InitWavWriterEv
 1090              		.syntax unified
 1091              		.thumb
 1092              		.thumb_func
 1094              	_ZN14GrannyChordApp13InitWavWriterEv:
 1095              	.LVL84:
 1096              	.LFB4935:
 405:GrannyChordApp.cpp **** 
 406:GrannyChordApp.cpp **** // /// @brief Initialise object for recording out to SD card
 407:GrannyChordApp.cpp **** void GrannyChordApp::InitWavWriter(){
 1097              		.loc 2 407 37 is_stmt 1 view -0
 1098              		.cfi_startproc
 1099              		@ args = 0, pretend = 0, frame = 0
 1100              		@ frame_needed = 0, uses_anonymous_args = 0
 1101              		@ link register save eliminated.
 408:GrannyChordApp.cpp ****   WavWriter<16384>::Config cfg;
 1102              		.loc 2 408 3 view .LVU292
 409:GrannyChordApp.cpp ****   cfg.bitspersample = BIT_DEPTH;
 1103              		.loc 2 409 3 view .LVU293
 410:GrannyChordApp.cpp ****   cfg.channels = filemgr_.GetNumChannels();
ARM GAS  /var/folders/2p/02m_5p7958535cp2tpgps0400000gn/T//ccHnEWZO.s 			page 38


 1104              		.loc 2 410 3 view .LVU294
 1105              	.LBB415:
 1106              	.LBI415:
  29:AudioFileManager.h ****     uint16_t GetFileCount() const { return file_count_; }
 1107              		.loc 8 29 13 view .LVU295
 1108              	.LBB416:
  29:AudioFileManager.h ****     uint16_t GetFileCount() const { return file_count_; }
 1109              		.loc 8 29 38 view .LVU296
  29:AudioFileManager.h ****     uint16_t GetFileCount() const { return file_count_; }
 1110              		.loc 8 29 53 is_stmt 0 view .LVU297
 1111 0000 D0F8DC30 		ldr	r3, [r0, #220]
 1112              	.LBE416:
 1113              	.LBE415:
 1114              	.LBB418:
 1115              	.LBB419:
 1116              		.file 9 "../libDaisy/src/util/WavWriter.h"
   1:../libDaisy/src/util/WavWriter.h **** #pragma once
   2:../libDaisy/src/util/WavWriter.h **** #pragma once
   3:../libDaisy/src/util/WavWriter.h **** #include "fatfs.h"
   4:../libDaisy/src/util/WavWriter.h **** 
   5:../libDaisy/src/util/WavWriter.h **** namespace daisy
   6:../libDaisy/src/util/WavWriter.h **** {
   7:../libDaisy/src/util/WavWriter.h **** /** Audio Recording Module
   8:../libDaisy/src/util/WavWriter.h ****  ** 
   9:../libDaisy/src/util/WavWriter.h ****  ** Record audio into a working buffer that is gradually written to a WAV file on an SD Card. 
  10:../libDaisy/src/util/WavWriter.h ****  **
  11:../libDaisy/src/util/WavWriter.h ****  ** Recordings are made with floating point input, and will be converted to the 
  12:../libDaisy/src/util/WavWriter.h ****  ** specified bits per sample internally 
  13:../libDaisy/src/util/WavWriter.h ****  **
  14:../libDaisy/src/util/WavWriter.h ****  ** For now only 16-bit and 32-bit (signed int) formats are supported
  15:../libDaisy/src/util/WavWriter.h ****  ** f32 and s24 formats will be added next
  16:../libDaisy/src/util/WavWriter.h ****  **
  17:../libDaisy/src/util/WavWriter.h ****  ** The transfer size determines the amount of internal memory used, and can have an
  18:../libDaisy/src/util/WavWriter.h ****  ** effect on the performance of the streaming behavior of the WavWriter.
  19:../libDaisy/src/util/WavWriter.h ****  ** Memory use can be calculated as: (2 * transfer_size) bytes
  20:../libDaisy/src/util/WavWriter.h ****  ** Performance optimal with sizes: 16384, 32768
  21:../libDaisy/src/util/WavWriter.h ****  ** 
  22:../libDaisy/src/util/WavWriter.h ****  ** To use:
  23:../libDaisy/src/util/WavWriter.h ****  ** 1. Create a WavWriter<size> object (e.g. WavWriter<32768> writer)
  24:../libDaisy/src/util/WavWriter.h ****  ** 2. Configure the settings as desired by creating a WavWriter<32768>::Config struct and setting 
  25:../libDaisy/src/util/WavWriter.h ****  ** 3. Initialize the object with the configuration struct.
  26:../libDaisy/src/util/WavWriter.h ****  ** 4. Open a new file for writing with: writer.OpenFile("FileName.wav")
  27:../libDaisy/src/util/WavWriter.h ****  ** 5. Write to it within your audio callback using: writer.Sample(value)
  28:../libDaisy/src/util/WavWriter.h ****  ** 6. Fill the Wav File on the SD Card with data from your main loop by running: writer.Write()
  29:../libDaisy/src/util/WavWriter.h ****  ** 7. When finished with the recording finalize, and close the file with: writer.SaveFile();
  30:../libDaisy/src/util/WavWriter.h ****  ** 
  31:../libDaisy/src/util/WavWriter.h ****  ** */
  32:../libDaisy/src/util/WavWriter.h **** template <size_t transfer_size>
  33:../libDaisy/src/util/WavWriter.h **** class WavWriter
  34:../libDaisy/src/util/WavWriter.h **** {
  35:../libDaisy/src/util/WavWriter.h ****   public:
  36:../libDaisy/src/util/WavWriter.h ****     WavWriter() {}
  37:../libDaisy/src/util/WavWriter.h ****     ~WavWriter() {}
  38:../libDaisy/src/util/WavWriter.h **** 
  39:../libDaisy/src/util/WavWriter.h ****     /** Return values for write related functions */
  40:../libDaisy/src/util/WavWriter.h ****     enum class Result
  41:../libDaisy/src/util/WavWriter.h ****     {
ARM GAS  /var/folders/2p/02m_5p7958535cp2tpgps0400000gn/T//ccHnEWZO.s 			page 39


  42:../libDaisy/src/util/WavWriter.h ****         OK,
  43:../libDaisy/src/util/WavWriter.h ****         ERROR,
  44:../libDaisy/src/util/WavWriter.h ****     };
  45:../libDaisy/src/util/WavWriter.h **** 
  46:../libDaisy/src/util/WavWriter.h ****     /** Configuration structure for the wave writer.
  47:../libDaisy/src/util/WavWriter.h **** 	 ** */
  48:../libDaisy/src/util/WavWriter.h ****     struct Config
  49:../libDaisy/src/util/WavWriter.h ****     {
  50:../libDaisy/src/util/WavWriter.h ****         float   samplerate;
  51:../libDaisy/src/util/WavWriter.h ****         int32_t channels;
  52:../libDaisy/src/util/WavWriter.h ****         int32_t bitspersample;
  53:../libDaisy/src/util/WavWriter.h ****     };
  54:../libDaisy/src/util/WavWriter.h **** 
  55:../libDaisy/src/util/WavWriter.h ****     /** State of the internal Writing mechanism. 
  56:../libDaisy/src/util/WavWriter.h **** 	 ** When the buffer is a certain amount full one section will write its contents
  57:../libDaisy/src/util/WavWriter.h **** 	 ** while the other is still being written to. This is performed circularly
  58:../libDaisy/src/util/WavWriter.h **** 	 ** so that audio will be uninterrupted during writing. */
  59:../libDaisy/src/util/WavWriter.h ****     enum class BufferState
  60:../libDaisy/src/util/WavWriter.h ****     {
  61:../libDaisy/src/util/WavWriter.h ****         IDLE,
  62:../libDaisy/src/util/WavWriter.h ****         FLUSH0,
  63:../libDaisy/src/util/WavWriter.h ****         FLUSH1,
  64:../libDaisy/src/util/WavWriter.h ****     };
  65:../libDaisy/src/util/WavWriter.h **** 
  66:../libDaisy/src/util/WavWriter.h ****     /**  Initializes the WavFile header, and prepares the object for recording. */
  67:../libDaisy/src/util/WavWriter.h ****     void Init(const Config &cfg)
  68:../libDaisy/src/util/WavWriter.h ****     {
  69:../libDaisy/src/util/WavWriter.h ****         cfg_       = cfg;
  70:../libDaisy/src/util/WavWriter.h ****         num_samps_ = 0;
 1117              		.loc 9 70 20 view .LVU298
 1118 0004 0021     		movs	r1, #0
  69:../libDaisy/src/util/WavWriter.h ****         num_samps_ = 0;
 1119              		.loc 9 69 9 view .LVU299
 1120 0006 9FED257A 		vldr.32	s14, .L55
 1121 000a 1022     		movs	r2, #16
 1122              	.LBE419:
 1123              	.LBE418:
 1124              	.LBB446:
 1125              	.LBB417:
  29:AudioFileManager.h ****     uint16_t GetFileCount() const { return file_count_; }
 1126              		.loc 8 29 53 view .LVU300
 1127 000c 03F58053 		add	r3, r3, #4096
 1128 0010 B3F92830 		ldrsh	r3, [r3, #40]
 1129              	.LVL85:
  29:AudioFileManager.h ****     uint16_t GetFileCount() const { return file_count_; }
 1130              		.loc 8 29 53 view .LVU301
 1131              	.LBE417:
 1132              	.LBE446:
 411:GrannyChordApp.cpp ****   cfg.samplerate = SAMPLE_RATE;
 1133              		.loc 2 411 3 is_stmt 1 view .LVU302
 412:GrannyChordApp.cpp ****   sd_writer_.Init(cfg);
 1134              		.loc 2 412 3 view .LVU303
 1135              	.LBB447:
 1136              	.LBI418:
  67:../libDaisy/src/util/WavWriter.h ****     {
 1137              		.loc 9 67 10 view .LVU304
 1138              	.LBB444:
ARM GAS  /var/folders/2p/02m_5p7958535cp2tpgps0400000gn/T//ccHnEWZO.s 			page 40


 1139              		.loc 9 70 20 is_stmt 0 view .LVU305
 1140 0014 C0F8B012 		str	r1, [r0, #688]
 1141              	.LBB420:
 1142              	.LBB421:
  71:../libDaisy/src/util/WavWriter.h ****         // Prep the wav header according to config.
  72:../libDaisy/src/util/WavWriter.h ****         // Certain things (i.e. Size, etc. will have to wait until the finalization of the file, or
  73:../libDaisy/src/util/WavWriter.h ****         wavheader_.ChunkId       = kWavFileChunkId;     /** "RIFF" */
  74:../libDaisy/src/util/WavWriter.h ****         wavheader_.FileFormat    = kWavFileWaveId;      /** "WAVE" */
  75:../libDaisy/src/util/WavWriter.h ****         wavheader_.SubChunk1ID   = kWavFileSubChunk1Id; /** "fmt " */
  76:../libDaisy/src/util/WavWriter.h ****         wavheader_.SubChunk1Size = 16;                  // for PCM
  77:../libDaisy/src/util/WavWriter.h ****         wavheader_.AudioFormat   = WAVE_FORMAT_PCM;
  78:../libDaisy/src/util/WavWriter.h ****         wavheader_.NbrChannels   = cfg.channels;
  79:../libDaisy/src/util/WavWriter.h ****         wavheader_.SampleRate    = static_cast<int>(cfg.samplerate);
  80:../libDaisy/src/util/WavWriter.h ****         wavheader_.ByteRate      = CalcByteRate();
  81:../libDaisy/src/util/WavWriter.h ****         wavheader_.BlockAlign    = cfg_.channels * cfg_.bitspersample / 8;
  82:../libDaisy/src/util/WavWriter.h ****         wavheader_.BitPerSample  = cfg_.bitspersample;
  83:../libDaisy/src/util/WavWriter.h ****         wavheader_.SubChunk2ID   = kWavFileSubChunk2Id; /** "data" */
  84:../libDaisy/src/util/WavWriter.h ****         /** Also calcs SubChunk2Size */
  85:../libDaisy/src/util/WavWriter.h ****         wavheader_.FileSize = CalcFileSize();
  86:../libDaisy/src/util/WavWriter.h ****         // This is calculated as part of the subchunk size
  87:../libDaisy/src/util/WavWriter.h ****     }
  88:../libDaisy/src/util/WavWriter.h **** 
  89:../libDaisy/src/util/WavWriter.h ****     /** Records the current sample into the working buffer,
  90:../libDaisy/src/util/WavWriter.h ****      ** queues writes to media when necessary. 
  91:../libDaisy/src/util/WavWriter.h ****      ** 
  92:../libDaisy/src/util/WavWriter.h ****      ** \param in should be a pointer to an array of samples */
  93:../libDaisy/src/util/WavWriter.h ****     void Sample(const float *in)
  94:../libDaisy/src/util/WavWriter.h ****     {
  95:../libDaisy/src/util/WavWriter.h ****         for(int32_t i = 0; i < cfg_.channels; i++)
  96:../libDaisy/src/util/WavWriter.h ****         {
  97:../libDaisy/src/util/WavWriter.h ****             switch(cfg_.bitspersample)
  98:../libDaisy/src/util/WavWriter.h ****             {
  99:../libDaisy/src/util/WavWriter.h ****                 case 16:
 100:../libDaisy/src/util/WavWriter.h ****                 {
 101:../libDaisy/src/util/WavWriter.h ****                     int16_t *tp;
 102:../libDaisy/src/util/WavWriter.h ****                     tp            = (int16_t *)transfer_buff;
 103:../libDaisy/src/util/WavWriter.h ****                     tp[wptr_ + i] = f2s16(in[i]);
 104:../libDaisy/src/util/WavWriter.h ****                 }
 105:../libDaisy/src/util/WavWriter.h ****                 break;
 106:../libDaisy/src/util/WavWriter.h ****                 case 32: transfer_buff[wptr_ + i] = f2s32(in[i]); break;
 107:../libDaisy/src/util/WavWriter.h ****                 default: break;
 108:../libDaisy/src/util/WavWriter.h ****             }
 109:../libDaisy/src/util/WavWriter.h ****         }
 110:../libDaisy/src/util/WavWriter.h ****         num_samps_++;
 111:../libDaisy/src/util/WavWriter.h ****         wptr_ += cfg_.channels;
 112:../libDaisy/src/util/WavWriter.h ****         size_t cap_point
 113:../libDaisy/src/util/WavWriter.h ****             = cfg_.bitspersample == 16 ? kTransferSamps * 2 : kTransferSamps;
 114:../libDaisy/src/util/WavWriter.h ****         if(wptr_ == cap_point)
 115:../libDaisy/src/util/WavWriter.h ****         {
 116:../libDaisy/src/util/WavWriter.h ****             bstate_ = BufferState::FLUSH0;
 117:../libDaisy/src/util/WavWriter.h ****         }
 118:../libDaisy/src/util/WavWriter.h ****         if(wptr_ >= cap_point * 2)
 119:../libDaisy/src/util/WavWriter.h ****         {
 120:../libDaisy/src/util/WavWriter.h ****             wptr_   = 0;
 121:../libDaisy/src/util/WavWriter.h ****             bstate_ = BufferState::FLUSH1;
 122:../libDaisy/src/util/WavWriter.h ****         }
 123:../libDaisy/src/util/WavWriter.h ****     }
ARM GAS  /var/folders/2p/02m_5p7958535cp2tpgps0400000gn/T//ccHnEWZO.s 			page 41


 124:../libDaisy/src/util/WavWriter.h **** 
 125:../libDaisy/src/util/WavWriter.h ****     /** Check buffer state and write */
 126:../libDaisy/src/util/WavWriter.h ****     void Write()
 127:../libDaisy/src/util/WavWriter.h ****     {
 128:../libDaisy/src/util/WavWriter.h ****         if(bstate_ != BufferState::IDLE && IsRecording())
 129:../libDaisy/src/util/WavWriter.h ****         {
 130:../libDaisy/src/util/WavWriter.h ****             uint32_t     offset;
 131:../libDaisy/src/util/WavWriter.h ****             unsigned int bw = 0;
 132:../libDaisy/src/util/WavWriter.h ****             //offset          = bstate_ == BufferState::FLUSH0 ? 0 : transfer_size;
 133:../libDaisy/src/util/WavWriter.h ****             offset  = bstate_ == BufferState::FLUSH0 ? 0 : kTransferSamps;
 134:../libDaisy/src/util/WavWriter.h ****             bstate_ = BufferState::IDLE;
 135:../libDaisy/src/util/WavWriter.h ****             f_write(&fp_, &transfer_buff[offset], transfer_size, &bw);
 136:../libDaisy/src/util/WavWriter.h ****         }
 137:../libDaisy/src/util/WavWriter.h ****     }
 138:../libDaisy/src/util/WavWriter.h **** 
 139:../libDaisy/src/util/WavWriter.h ****     /** Finalizes the writing of the WAV file.
 140:../libDaisy/src/util/WavWriter.h **** 	 ** This overwrites the WAV Header with the correct
 141:../libDaisy/src/util/WavWriter.h **** 	 ** final size, and closes the fptr. */
 142:../libDaisy/src/util/WavWriter.h ****     void SaveFile()
 143:../libDaisy/src/util/WavWriter.h ****     {
 144:../libDaisy/src/util/WavWriter.h ****         unsigned int bw = 0;
 145:../libDaisy/src/util/WavWriter.h ****         recording_      = false;
 146:../libDaisy/src/util/WavWriter.h ****         // We _should_ flush whatever's left in the transfer buff
 147:../libDaisy/src/util/WavWriter.h ****         // TODO: that.
 148:../libDaisy/src/util/WavWriter.h ****         wavheader_.FileSize = CalcFileSize();
 149:../libDaisy/src/util/WavWriter.h ****         f_lseek(&fp_, 0);
 150:../libDaisy/src/util/WavWriter.h ****         f_write(&fp_, &wavheader_, sizeof(wavheader_), &bw);
 151:../libDaisy/src/util/WavWriter.h ****         f_close(&fp_);
 152:../libDaisy/src/util/WavWriter.h ****     }
 153:../libDaisy/src/util/WavWriter.h **** 
 154:../libDaisy/src/util/WavWriter.h ****     /** Opens a file for writing. Writes the initial WAV Header, and gets ready for stream-based re
 155:../libDaisy/src/util/WavWriter.h ****     void OpenFile(const char *name)
 156:../libDaisy/src/util/WavWriter.h ****     {
 157:../libDaisy/src/util/WavWriter.h ****         if(f_open(&fp_, name, FA_WRITE | FA_CREATE_ALWAYS) == FR_OK)
 158:../libDaisy/src/util/WavWriter.h ****         {
 159:../libDaisy/src/util/WavWriter.h ****             unsigned int bw = 0;
 160:../libDaisy/src/util/WavWriter.h ****             if(f_write(&fp_, &wavheader_, sizeof(wavheader_), &bw) == FR_OK)
 161:../libDaisy/src/util/WavWriter.h ****             {
 162:../libDaisy/src/util/WavWriter.h ****                 recording_ = true;
 163:../libDaisy/src/util/WavWriter.h ****                 num_samps_ = 0;
 164:../libDaisy/src/util/WavWriter.h ****             }
 165:../libDaisy/src/util/WavWriter.h ****         }
 166:../libDaisy/src/util/WavWriter.h ****     }
 167:../libDaisy/src/util/WavWriter.h **** 
 168:../libDaisy/src/util/WavWriter.h ****     /** Returns whether recording is currently active or not. */
 169:../libDaisy/src/util/WavWriter.h ****     inline bool IsRecording() const { return recording_; }
 170:../libDaisy/src/util/WavWriter.h **** 
 171:../libDaisy/src/util/WavWriter.h ****     /** Returns the current length in samples of the recording. */
 172:../libDaisy/src/util/WavWriter.h ****     inline uint32_t GetLengthSamps() { return num_samps_; }
 173:../libDaisy/src/util/WavWriter.h **** 
 174:../libDaisy/src/util/WavWriter.h ****     /** Returns the current length of the recording in seconds. */
 175:../libDaisy/src/util/WavWriter.h ****     inline float GetLengthSeconds()
 176:../libDaisy/src/util/WavWriter.h ****     {
 177:../libDaisy/src/util/WavWriter.h ****         return (float)num_samps_ / (float)cfg_.samplerate;
 178:../libDaisy/src/util/WavWriter.h ****     }
 179:../libDaisy/src/util/WavWriter.h **** 
 180:../libDaisy/src/util/WavWriter.h ****   private:
ARM GAS  /var/folders/2p/02m_5p7958535cp2tpgps0400000gn/T//ccHnEWZO.s 			page 42


 181:../libDaisy/src/util/WavWriter.h ****     /** Calculate the file size based on current recording */
 182:../libDaisy/src/util/WavWriter.h ****     inline uint32_t CalcFileSize()
 183:../libDaisy/src/util/WavWriter.h ****     {
 184:../libDaisy/src/util/WavWriter.h ****         wavheader_.SubCHunk2Size
 185:../libDaisy/src/util/WavWriter.h ****             = num_samps_ * cfg_.channels * cfg_.bitspersample / 8;
 186:../libDaisy/src/util/WavWriter.h ****         return 36 + wavheader_.SubCHunk2Size;
 187:../libDaisy/src/util/WavWriter.h ****     }
 188:../libDaisy/src/util/WavWriter.h **** 
 189:../libDaisy/src/util/WavWriter.h ****     /** Compute the byte rate given the user settings. */
 190:../libDaisy/src/util/WavWriter.h ****     inline uint32_t CalcByteRate()
 191:../libDaisy/src/util/WavWriter.h ****     {
 192:../libDaisy/src/util/WavWriter.h ****         return cfg_.samplerate * cfg_.channels * cfg_.bitspersample / 8;
 1143              		.loc 9 192 32 view .LVU306
 1144 0018 07EE903A 		vmov	s15, r3	@ int
 1145              	.LBE421:
 1146              	.LBE420:
  73:../libDaisy/src/util/WavWriter.h ****         wavheader_.FileFormat    = kWavFileWaveId;      /** "WAVE" */
 1147              		.loc 9 73 34 view .LVU307
 1148 001c 2049     		ldr	r1, .L55+4
  69:../libDaisy/src/util/WavWriter.h ****         num_samps_ = 0;
 1149              		.loc 9 69 9 view .LVU308
 1150 001e 80EDAE7A 		vstr.32	s14, [r0, #696]
 1151              	.LBB430:
 1152              	.LBB422:
 1153              		.loc 9 192 32 view .LVU309
 1154 0022 F8EEE77A 		vcvt.f32.s32	s15, s15
 1155              	.LBE422:
 1156              	.LBE430:
  73:../libDaisy/src/util/WavWriter.h ****         wavheader_.FileFormat    = kWavFileWaveId;      /** "WAVE" */
 1157              		.loc 9 73 34 view .LVU310
 1158 0026 C0F88412 		str	r1, [r0, #644]
  74:../libDaisy/src/util/WavWriter.h ****         wavheader_.SubChunk1ID   = kWavFileSubChunk1Id; /** "fmt " */
 1159              		.loc 9 74 34 view .LVU311
 1160 002a A1F57001 		sub	r1, r1, #15728640
 1161              	.LBE444:
 1162              	.LBE447:
 410:GrannyChordApp.cpp ****   cfg.samplerate = SAMPLE_RATE;
 1163              		.loc 2 410 41 view .LVU312
 1164 002e C0F8BC32 		str	r3, [r0, #700]
 1165              	.LBB448:
 1166              	.LBB445:
  78:../libDaisy/src/util/WavWriter.h ****         wavheader_.SampleRate    = static_cast<int>(cfg.samplerate);
 1167              		.loc 9 78 34 view .LVU313
 1168 0032 A0F89A32 		strh	r3, [r0, #666]	@ movhi
  81:../libDaisy/src/util/WavWriter.h ****         wavheader_.BitPerSample  = cfg_.bitspersample;
 1169              		.loc 9 81 71 view .LVU314
 1170 0036 1B01     		lsls	r3, r3, #4
 1171              	.LVL86:
 1172              	.LBB431:
 1173              	.LBB423:
 1174              		.loc 9 192 32 view .LVU315
 1175 0038 67EE877A 		vmul.f32	s15, s15, s14
 1176              	.LBE423:
 1177              	.LBE431:
  74:../libDaisy/src/util/WavWriter.h ****         wavheader_.SubChunk1ID   = kWavFileSubChunk1Id; /** "fmt " */
 1178              		.loc 9 74 34 view .LVU316
 1179 003c A1F2FB71 		subw	r1, r1, #2043
ARM GAS  /var/folders/2p/02m_5p7958535cp2tpgps0400000gn/T//ccHnEWZO.s 			page 43


 1180              	.LBB432:
 1181              	.LBB424:
 1182              		.loc 9 192 48 view .LVU317
 1183 0040 B3EE007A 		vmov.f32	s14, #1.6e+1
 1184              	.LBE424:
 1185              	.LBE432:
  81:../libDaisy/src/util/WavWriter.h ****         wavheader_.BitPerSample  = cfg_.bitspersample;
 1186              		.loc 9 81 71 view .LVU318
 1187 0044 48BF     		it	mi
 1188 0046 0733     		addmi	r3, r3, #7
  74:../libDaisy/src/util/WavWriter.h ****         wavheader_.SubChunk1ID   = kWavFileSubChunk1Id; /** "fmt " */
 1189              		.loc 9 74 34 view .LVU319
 1190 0048 C0F88C12 		str	r1, [r0, #652]
  75:../libDaisy/src/util/WavWriter.h ****         wavheader_.SubChunk1Size = 16;                  // for PCM
 1191              		.loc 9 75 34 view .LVU320
 1192 004c 01F15B41 		add	r1, r1, #-620756992
  81:../libDaisy/src/util/WavWriter.h ****         wavheader_.BitPerSample  = cfg_.bitspersample;
 1193              		.loc 9 81 71 view .LVU321
 1194 0050 DB10     		asrs	r3, r3, #3
  69:../libDaisy/src/util/WavWriter.h ****         num_samps_ = 0;
 1195              		.loc 9 69 9 view .LVU322
 1196 0052 C0F8C022 		str	r2, [r0, #704]
 1197              	.LBB433:
 1198              	.LBB425:
 1199              		.loc 9 192 48 view .LVU323
 1200 0056 67EE877A 		vmul.f32	s15, s15, s14
 1201              	.LBE425:
 1202              	.LBE433:
  75:../libDaisy/src/util/WavWriter.h ****         wavheader_.SubChunk1Size = 16;                  // for PCM
 1203              		.loc 9 75 34 view .LVU324
 1204 005a 01F5F111 		add	r1, r1, #1974272
 1205              	.LBB434:
 1206              	.LBB426:
 1207              		.loc 9 192 69 view .LVU325
 1208 005e B4EE007A 		vmov.f32	s14, #1.25e-1
 1209              	.LBE426:
 1210              	.LBE434:
  81:../libDaisy/src/util/WavWriter.h ****         wavheader_.BitPerSample  = cfg_.bitspersample;
 1211              		.loc 9 81 34 view .LVU326
 1212 0062 A0F8A432 		strh	r3, [r0, #676]	@ movhi
  75:../libDaisy/src/util/WavWriter.h ****         wavheader_.SubChunk1Size = 16;                  // for PCM
 1213              		.loc 9 75 34 view .LVU327
 1214 0066 01F60F41 		addw	r1, r1, #3087
 1215              	.LBB435:
 1216              	.LBB436:
 185:../libDaisy/src/util/WavWriter.h ****         return 36 + wavheader_.SubCHunk2Size;
 1217              		.loc 9 185 13 view .LVU328
 1218 006a 0023     		movs	r3, #0
 1219              	.LBE436:
 1220              	.LBE435:
  82:../libDaisy/src/util/WavWriter.h ****         wavheader_.SubChunk2ID   = kWavFileSubChunk2Id; /** "data" */
 1221              		.loc 9 82 34 view .LVU329
 1222 006c A0F8A622 		strh	r2, [r0, #678]	@ movhi
 1223              	.LBB439:
 1224              	.LBB427:
 1225              		.loc 9 192 69 view .LVU330
 1226 0070 67EE877A 		vmul.f32	s15, s15, s14
ARM GAS  /var/folders/2p/02m_5p7958535cp2tpgps0400000gn/T//ccHnEWZO.s 			page 44


 1227              	.LBE427:
 1228              	.LBE439:
  76:../libDaisy/src/util/WavWriter.h ****         wavheader_.AudioFormat   = WAVE_FORMAT_PCM;
 1229              		.loc 9 76 34 view .LVU331
 1230 0074 C0E9A412 		strd	r1, r2, [r0, #656]
  77:../libDaisy/src/util/WavWriter.h ****         wavheader_.NbrChannels   = cfg.channels;
 1231              		.loc 9 77 34 view .LVU332
 1232 0078 0121     		movs	r1, #1
 1233              	.LBB440:
 1234              	.LBB437:
 185:../libDaisy/src/util/WavWriter.h ****         return 36 + wavheader_.SubCHunk2Size;
 1235              		.loc 9 185 13 view .LVU333
 1236 007a 0A4A     		ldr	r2, .L55+8
 1237              	.LBE437:
 1238              	.LBE440:
 1239              	.LBB441:
 1240              	.LBB428:
 1241              		.loc 9 192 71 view .LVU334
 1242 007c FCEEE77A 		vcvt.u32.f32	s15, s15
 1243              	.LBE428:
 1244              	.LBE441:
  77:../libDaisy/src/util/WavWriter.h ****         wavheader_.NbrChannels   = cfg.channels;
 1245              		.loc 9 77 34 view .LVU335
 1246 0080 A0F89812 		strh	r1, [r0, #664]	@ movhi
  79:../libDaisy/src/util/WavWriter.h ****         wavheader_.ByteRate      = CalcByteRate();
 1247              		.loc 9 79 34 view .LVU336
 1248 0084 4BF68031 		movw	r1, #48000
 1249              	.LBB442:
 1250              	.LBB438:
 185:../libDaisy/src/util/WavWriter.h ****         return 36 + wavheader_.SubCHunk2Size;
 1251              		.loc 9 185 13 view .LVU337
 1252 0088 C0E9AA23 		strd	r2, r3, [r0, #680]
 1253              	.LBE438:
 1254              	.LBE442:
  85:../libDaisy/src/util/WavWriter.h ****         // This is calculated as part of the subchunk size
 1255              		.loc 9 85 29 view .LVU338
 1256 008c 2423     		movs	r3, #36
  79:../libDaisy/src/util/WavWriter.h ****         wavheader_.ByteRate      = CalcByteRate();
 1257              		.loc 9 79 34 view .LVU339
 1258 008e C0F89C12 		str	r1, [r0, #668]
 1259              	.LVL87:
 1260              	.LBB443:
 1261              	.LBI420:
 190:../libDaisy/src/util/WavWriter.h ****     {
 1262              		.loc 9 190 21 is_stmt 1 view .LVU340
 1263              	.LBB429:
 1264              		.loc 9 192 71 is_stmt 0 view .LVU341
 1265 0092 C0EDA87A 		vstr.32	s15, [r0, #672]	@ int
 1266              	.LBE429:
 1267              	.LBE443:
  85:../libDaisy/src/util/WavWriter.h ****         // This is calculated as part of the subchunk size
 1268              		.loc 9 85 29 view .LVU342
 1269 0096 C0F88832 		str	r3, [r0, #648]
 1270              	.LVL88:
  85:../libDaisy/src/util/WavWriter.h ****         // This is calculated as part of the subchunk size
 1271              		.loc 9 85 29 view .LVU343
 1272              	.LBE445:
ARM GAS  /var/folders/2p/02m_5p7958535cp2tpgps0400000gn/T//ccHnEWZO.s 			page 45


 1273              	.LBE448:
 413:GrannyChordApp.cpp **** }
 1274              		.loc 2 413 1 view .LVU344
 1275 009a 7047     		bx	lr
 1276              	.L56:
 1277              		.align	2
 1278              	.L55:
 1279 009c 00803B47 		.word	1195081728
 1280 00a0 52494646 		.word	1179011410
 1281 00a4 64617461 		.word	1635017060
 1282              		.cfi_endproc
 1283              	.LFE4935:
 1285              		.section	.text._ZN14GrannyChordApp6InitFXEv,"ax",%progbits
 1286              		.align	1
 1287              		.global	_ZN14GrannyChordApp6InitFXEv
 1288              		.syntax unified
 1289              		.thumb
 1290              		.thumb_func
 1292              	_ZN14GrannyChordApp6InitFXEv:
 1293              	.LVL89:
 1294              	.LFB4936:
 414:GrannyChordApp.cpp **** 
 415:GrannyChordApp.cpp **** /// @brief initialise reverb, compressor, filter configs for FX section 
 416:GrannyChordApp.cpp **** void GrannyChordApp::InitFX(){
 1295              		.loc 2 416 30 is_stmt 1 view -0
 1296              		.cfi_startproc
 1297              		@ args = 0, pretend = 0, frame = 8
 1298              		@ frame_needed = 0, uses_anonymous_args = 0
 417:GrannyChordApp.cpp ****   limiter_.Init();
 1299              		.loc 2 417 3 view .LVU346
 416:GrannyChordApp.cpp ****   limiter_.Init();
 1300              		.loc 2 416 30 is_stmt 0 view .LVU347
 1301 0000 13B5     		push	{r0, r1, r4, lr}
 1302              		.cfi_def_cfa_offset 16
 1303              		.cfi_offset 4, -8
 1304              		.cfi_offset 14, -4
 416:GrannyChordApp.cpp ****   limiter_.Init();
 1305              		.loc 2 416 30 view .LVU348
 1306 0002 0446     		mov	r4, r0
 1307              		.loc 2 417 16 view .LVU349
 1308 0004 00F59C70 		add	r0, r0, #312
 1309              	.LVL90:
 1310              		.loc 2 417 16 view .LVU350
 1311 0008 FFF7FEFF 		bl	_ZN7daisysp7Limiter4InitEv
 1312              	.LVL91:
 418:GrannyChordApp.cpp ****   comp_.Init(SAMPLE_RATE_FLOAT);
 1313              		.loc 2 418 3 is_stmt 1 view .LVU351
 1314              		.loc 2 418 13 is_stmt 0 view .LVU352
 1315 000c 9FED180A 		vldr.32	s0, .L58
 1316 0010 04F1F800 		add	r0, r4, #248
 1317 0014 8DED010A 		vstr.32	s0, [sp, #4]	@ int
 1318 0018 FFF7FEFF 		bl	_ZN7daisysp10Compressor4InitEf
 1319              	.LVL92:
 419:GrannyChordApp.cpp ****   reverb_.Init(SAMPLE_RATE_FLOAT);
 1320              		.loc 2 419 3 is_stmt 1 view .LVU353
 1321              		.loc 2 419 15 is_stmt 0 view .LVU354
 1322 001c 9DED010A 		vldr.32	s0, [sp, #4]	@ int
ARM GAS  /var/folders/2p/02m_5p7958535cp2tpgps0400000gn/T//ccHnEWZO.s 			page 46


 1323 0020 D4F83C01 		ldr	r0, [r4, #316]
 1324 0024 FFF7FEFF 		bl	_ZN7daisysp8ReverbSc4InitEf
 1325              	.LVL93:
 420:GrannyChordApp.cpp ****   
 421:GrannyChordApp.cpp ****   lowpass_moog_.Init(SAMPLE_RATE_FLOAT);
 1326              		.loc 2 421 3 is_stmt 1 view .LVU355
 1327              		.loc 2 421 21 is_stmt 0 view .LVU356
 1328 0028 9DED010A 		vldr.32	s0, [sp, #4]	@ int
 1329 002c 04F5A070 		add	r0, r4, #320
 1330 0030 FFF7FEFF 		bl	_ZN7daisysp10MoogLadder4InitEf
 1331              	.LVL94:
 422:GrannyChordApp.cpp ****   lowpass_moog_.SetFreq(LOPASS_UPPER_BOUND);
 1332              		.loc 2 422 3 is_stmt 1 view .LVU357
 1333              	.LBB449:
 1334              	.LBI449:
 1335              		.file 10 "../DaisySP/Source/../DaisySP-LGPL/Source/Filters/moogladder.h"
   1:../DaisySP/Source/../DaisySP-LGPL/Source/Filters/moogladder.h **** /*
   2:../DaisySP/Source/../DaisySP-LGPL/Source/Filters/moogladder.h **** Copyright (c) 2023 Electrosmith, Corp, Victor Lazzarini, John ffitch (fast tanh), Bob Moog
   3:../DaisySP/Source/../DaisySP-LGPL/Source/Filters/moogladder.h **** 
   4:../DaisySP/Source/../DaisySP-LGPL/Source/Filters/moogladder.h **** Use of this source code is governed by the LGPL V2.1
   5:../DaisySP/Source/../DaisySP-LGPL/Source/Filters/moogladder.h **** license that can be found in the LICENSE file or at
   6:../DaisySP/Source/../DaisySP-LGPL/Source/Filters/moogladder.h **** https://opensource.org/license/lgpl-2-1/
   7:../DaisySP/Source/../DaisySP-LGPL/Source/Filters/moogladder.h **** */
   8:../DaisySP/Source/../DaisySP-LGPL/Source/Filters/moogladder.h **** 
   9:../DaisySP/Source/../DaisySP-LGPL/Source/Filters/moogladder.h **** #pragma once
  10:../DaisySP/Source/../DaisySP-LGPL/Source/Filters/moogladder.h **** #ifndef DSY_MOOGLADDER_H
  11:../DaisySP/Source/../DaisySP-LGPL/Source/Filters/moogladder.h **** #define DSY_MOOGLADDER_H
  12:../DaisySP/Source/../DaisySP-LGPL/Source/Filters/moogladder.h **** 
  13:../DaisySP/Source/../DaisySP-LGPL/Source/Filters/moogladder.h **** #include <stdint.h>
  14:../DaisySP/Source/../DaisySP-LGPL/Source/Filters/moogladder.h **** #ifdef __cplusplus
  15:../DaisySP/Source/../DaisySP-LGPL/Source/Filters/moogladder.h **** 
  16:../DaisySP/Source/../DaisySP-LGPL/Source/Filters/moogladder.h **** namespace daisysp
  17:../DaisySP/Source/../DaisySP-LGPL/Source/Filters/moogladder.h **** {
  18:../DaisySP/Source/../DaisySP-LGPL/Source/Filters/moogladder.h **** /** Moog ladder filter module*/
  19:../DaisySP/Source/../DaisySP-LGPL/Source/Filters/moogladder.h **** class MoogLadder
  20:../DaisySP/Source/../DaisySP-LGPL/Source/Filters/moogladder.h **** {
  21:../DaisySP/Source/../DaisySP-LGPL/Source/Filters/moogladder.h ****   public:
  22:../DaisySP/Source/../DaisySP-LGPL/Source/Filters/moogladder.h ****     MoogLadder() {}
  23:../DaisySP/Source/../DaisySP-LGPL/Source/Filters/moogladder.h ****     ~MoogLadder() {}
  24:../DaisySP/Source/../DaisySP-LGPL/Source/Filters/moogladder.h ****     /** Initializes the MoogLadder module.
  25:../DaisySP/Source/../DaisySP-LGPL/Source/Filters/moogladder.h ****         sample_rate - The sample rate of the audio engine being run. 
  26:../DaisySP/Source/../DaisySP-LGPL/Source/Filters/moogladder.h ****     */
  27:../DaisySP/Source/../DaisySP-LGPL/Source/Filters/moogladder.h ****     void Init(float sample_rate);
  28:../DaisySP/Source/../DaisySP-LGPL/Source/Filters/moogladder.h **** 
  29:../DaisySP/Source/../DaisySP-LGPL/Source/Filters/moogladder.h **** 
  30:../DaisySP/Source/../DaisySP-LGPL/Source/Filters/moogladder.h ****     /** Processes the lowpass filter
  31:../DaisySP/Source/../DaisySP-LGPL/Source/Filters/moogladder.h ****     */
  32:../DaisySP/Source/../DaisySP-LGPL/Source/Filters/moogladder.h ****     float Process(float in);
  33:../DaisySP/Source/../DaisySP-LGPL/Source/Filters/moogladder.h **** 
  34:../DaisySP/Source/../DaisySP-LGPL/Source/Filters/moogladder.h ****     /** 
  35:../DaisySP/Source/../DaisySP-LGPL/Source/Filters/moogladder.h ****         Sets the cutoff frequency or half-way point of the filter.
  36:../DaisySP/Source/../DaisySP-LGPL/Source/Filters/moogladder.h ****         Arguments
  37:../DaisySP/Source/../DaisySP-LGPL/Source/Filters/moogladder.h ****         - freq - frequency value in Hz. Range: Any positive value.
  38:../DaisySP/Source/../DaisySP-LGPL/Source/Filters/moogladder.h ****     */
  39:../DaisySP/Source/../DaisySP-LGPL/Source/Filters/moogladder.h ****     inline void SetFreq(float freq) { freq_ = freq; }
 1336              		.loc 10 39 17 view .LVU358
 1337              	.LBB450:
ARM GAS  /var/folders/2p/02m_5p7958535cp2tpgps0400000gn/T//ccHnEWZO.s 			page 47


 1338              		.loc 10 39 39 view .LVU359
 1339              		.loc 10 39 45 is_stmt 0 view .LVU360
 1340 0034 0F4B     		ldr	r3, .L58+4
 1341              	.LBE450:
 1342              	.LBE449:
 423:GrannyChordApp.cpp ****   lowpass_moog_.SetRes(0.7f);
 424:GrannyChordApp.cpp ****   
 425:GrannyChordApp.cpp ****   hipass_.Init();
 426:GrannyChordApp.cpp ****   hipass_.SetFilterMode(daisysp::OnePole::FilterMode::FILTER_MODE_HIGH_PASS);
 427:GrannyChordApp.cpp ****   hipass_.SetFrequency(HIPASS_LOWER_BOUND);
 1343              		.loc 2 427 23 view .LVU361
 1344 0036 04F5C270 		add	r0, r4, #388
 1345 003a 9FED0F0A 		vldr.32	s0, .L58+8
 1346              	.LBB452:
 1347              	.LBB451:
 1348              		.loc 10 39 45 view .LVU362
 1349 003e C4F84831 		str	r3, [r4, #328]	@ float
 1350              	.LVL95:
 1351              		.loc 10 39 45 view .LVU363
 1352              	.LBE451:
 1353              	.LBE452:
 423:GrannyChordApp.cpp ****   lowpass_moog_.SetRes(0.7f);
 1354              		.loc 2 423 3 is_stmt 1 view .LVU364
 1355              	.LBB453:
 1356              	.LBI453:
  40:../DaisySP/Source/../DaisySP-LGPL/Source/Filters/moogladder.h ****     /** 
  41:../DaisySP/Source/../DaisySP-LGPL/Source/Filters/moogladder.h ****         Sets the resonance of the filter.
  42:../DaisySP/Source/../DaisySP-LGPL/Source/Filters/moogladder.h ****     */
  43:../DaisySP/Source/../DaisySP-LGPL/Source/Filters/moogladder.h ****     inline void SetRes(float res) { res_ = res; }
 1357              		.loc 10 43 17 view .LVU365
 1358              	.LBB454:
 1359              		.loc 10 43 37 view .LVU366
 1360              		.loc 10 43 42 is_stmt 0 view .LVU367
 1361 0042 0E4B     		ldr	r3, .L58+12
 1362 0044 C4F84431 		str	r3, [r4, #324]	@ float
 1363              	.LVL96:
 1364              		.loc 10 43 42 view .LVU368
 1365              	.LBE454:
 1366              	.LBE453:
 425:GrannyChordApp.cpp ****   hipass_.SetFilterMode(daisysp::OnePole::FilterMode::FILTER_MODE_HIGH_PASS);
 1367              		.loc 2 425 3 is_stmt 1 view .LVU369
 1368              	.LBB455:
 1369              	.LBI455:
  44:../DaisySP/Source/Filters/onepole.h ****     {
 1370              		.loc 1 44 10 view .LVU370
 1371              	.LBE455:
  46:../DaisySP/Source/Filters/onepole.h ****         mode_ = FILTER_MODE_LOW_PASS;
 1372              		.loc 1 46 9 view .LVU371
 1373              	.LBB458:
 1374              	.LBB456:
 1375              	.LBI456:
  51:../DaisySP/Source/Filters/onepole.h **** 
 1376              		.loc 1 51 17 view .LVU372
 1377              	.LBB457:
  51:../DaisySP/Source/Filters/onepole.h **** 
 1378              		.loc 1 51 27 view .LVU373
  51:../DaisySP/Source/Filters/onepole.h **** 
ARM GAS  /var/folders/2p/02m_5p7958535cp2tpgps0400000gn/T//ccHnEWZO.s 			page 48


 1379              		.loc 1 51 34 is_stmt 0 view .LVU374
 1380 0048 0023     		movs	r3, #0
 1381 004a C4F88C31 		str	r3, [r4, #396]	@ float
 1382              	.LVL97:
  51:../DaisySP/Source/Filters/onepole.h **** 
 1383              		.loc 1 51 34 view .LVU375
 1384              	.LBE457:
 1385              	.LBE456:
 1386              	.LBE458:
  47:../DaisySP/Source/Filters/onepole.h ****     }
 1387              		.loc 1 47 9 is_stmt 1 view .LVU376
 426:GrannyChordApp.cpp ****   hipass_.SetFrequency(HIPASS_LOWER_BOUND);
 1388              		.loc 2 426 3 view .LVU377
 1389              	.LBB459:
 1390              	.LBI459:
  68:../DaisySP/Source/Filters/onepole.h **** 
 1391              		.loc 1 68 17 view .LVU378
 1392              	.LBB460:
  68:../DaisySP/Source/Filters/onepole.h **** 
 1393              		.loc 1 68 50 view .LVU379
  68:../DaisySP/Source/Filters/onepole.h **** 
 1394              		.loc 1 68 56 is_stmt 0 view .LVU380
 1395 004e 0123     		movs	r3, #1
 1396 0050 84F89031 		strb	r3, [r4, #400]
 1397              	.LVL98:
  68:../DaisySP/Source/Filters/onepole.h **** 
 1398              		.loc 1 68 56 view .LVU381
 1399              	.LBE460:
 1400              	.LBE459:
 1401              		.loc 2 427 3 is_stmt 1 view .LVU382
 1402              		.loc 2 427 23 is_stmt 0 view .LVU383
 1403 0054 FFF7FEFF 		bl	_ZN7daisysp7OnePole12SetFrequencyEf
 1404              	.LVL99:
 428:GrannyChordApp.cpp **** 
 429:GrannyChordApp.cpp ****   hicut_.SetFilterMode(daisysp::OnePole::FilterMode::FILTER_MODE_LOW_PASS);
 1405              		.loc 2 429 3 is_stmt 1 view .LVU384
 1406              	.LBB461:
 1407              	.LBI461:
  68:../DaisySP/Source/Filters/onepole.h **** 
 1408              		.loc 1 68 17 view .LVU385
 1409              	.LBB462:
  68:../DaisySP/Source/Filters/onepole.h **** 
 1410              		.loc 1 68 50 view .LVU386
  68:../DaisySP/Source/Filters/onepole.h **** 
 1411              		.loc 1 68 56 is_stmt 0 view .LVU387
 1412 0058 0023     		movs	r3, #0
 1413              	.LBE462:
 1414              	.LBE461:
 430:GrannyChordApp.cpp ****   hicut_.SetFrequency(HICUT_FREQ);
 1415              		.loc 2 430 22 view .LVU388
 1416 005a B5EE060A 		vmov.f32	s0, #3.4375e-1
 1417 005e 04F5D070 		add	r0, r4, #416
 1418              	.LVL100:
 1419              	.LBB464:
 1420              	.LBB463:
  68:../DaisySP/Source/Filters/onepole.h **** 
 1421              		.loc 1 68 56 view .LVU389
ARM GAS  /var/folders/2p/02m_5p7958535cp2tpgps0400000gn/T//ccHnEWZO.s 			page 49


 1422 0062 84F8AC31 		strb	r3, [r4, #428]
 1423              	.LVL101:
  68:../DaisySP/Source/Filters/onepole.h **** 
 1424              		.loc 1 68 56 view .LVU390
 1425              	.LBE463:
 1426              	.LBE464:
 1427              		.loc 2 430 3 is_stmt 1 view .LVU391
 1428              		.loc 2 430 22 is_stmt 0 view .LVU392
 1429 0066 FFF7FEFF 		bl	_ZN7daisysp7OnePole12SetFrequencyEf
 1430              	.LVL102:
 431:GrannyChordApp.cpp **** }
 1431              		.loc 2 431 1 view .LVU393
 1432 006a 02B0     		add	sp, sp, #8
 1433              		.cfi_def_cfa_offset 8
 1434              		@ sp needed
 1435 006c 10BD     		pop	{r4, pc}
 1436              	.LVL103:
 1437              	.L59:
 1438              		.loc 2 431 1 view .LVU394
 1439 006e 00BF     		.align	2
 1440              	.L58:
 1441 0070 00803B47 		.word	1195081728
 1442 0074 00A08C46 		.word	1183621120
 1443 0078 17B7D139 		.word	970045207
 1444 007c 3333333F 		.word	1060320051
 1445              		.cfi_endproc
 1446              	.LFE4936:
 1448              		.section	.text._ZN14GrannyChordApp17InitPrevParamValsEv,"ax",%progbits
 1449              		.align	1
 1450              		.global	_ZN14GrannyChordApp17InitPrevParamValsEv
 1451              		.syntax unified
 1452              		.thumb
 1453              		.thumb_func
 1455              	_ZN14GrannyChordApp17InitPrevParamValsEv:
 1456              	.LVL104:
 1457              	.LFB4937:
 432:GrannyChordApp.cpp **** 
 433:GrannyChordApp.cpp **** /// @brief Initialise previous parameter value arrays to defaults
 434:GrannyChordApp.cpp **** void GrannyChordApp::InitPrevParamVals(){
 1458              		.loc 2 434 41 is_stmt 1 view -0
 1459              		.cfi_startproc
 1460              		@ args = 0, pretend = 0, frame = 0
 1461              		@ frame_needed = 0, uses_anonymous_args = 0
 1462              		@ link register save eliminated.
 435:GrannyChordApp.cpp ****   /* set regular synth parameters */
 436:GrannyChordApp.cpp ****   for (int i=0; i < NUM_SYNTH_MODES;i++){
 1463              		.loc 2 436 3 view .LVU396
 1464              	.LBB465:
 1465              		.loc 2 436 19 view .LVU397
 1466 0000 00F51173 		add	r3, r0, #580
 1467              		.loc 2 436 12 is_stmt 0 view .LVU398
 1468 0004 0022     		movs	r2, #0
 1469              	.LVL105:
 1470              	.L63:
 437:GrannyChordApp.cpp ****     if (i<3){
 1471              		.loc 2 437 5 is_stmt 1 view .LVU399
 1472 0006 032A     		cmp	r2, #3
ARM GAS  /var/folders/2p/02m_5p7958535cp2tpgps0400000gn/T//ccHnEWZO.s 			page 50


 1473 0008 0AD0     		beq	.L61
 438:GrannyChordApp.cpp ****       prev_param_k1[i] = 0.5f;
 1474              		.loc 2 438 7 view .LVU400
 1475              		.loc 2 438 24 is_stmt 0 view .LVU401
 1476 000a 4FF07C51 		mov	r1, #1056964608
 1477 000e 1960     		str	r1, [r3]	@ float
 439:GrannyChordApp.cpp ****       prev_param_k2[i] = 0.5f;
 1478              		.loc 2 439 7 is_stmt 1 view .LVU402
 1479              		.loc 2 439 24 is_stmt 0 view .LVU403
 1480 0010 1961     		str	r1, [r3, #16]	@ float
 440:GrannyChordApp.cpp ****       prev_k1_pos[i]=0.5f;
 1481              		.loc 2 440 7 is_stmt 1 view .LVU404
 1482              		.loc 2 440 21 is_stmt 0 view .LVU405
 1483 0012 1962     		str	r1, [r3, #32]	@ float
 441:GrannyChordApp.cpp ****       prev_k2_pos[i]=0.5f;
 1484              		.loc 2 441 7 is_stmt 1 view .LVU406
 1485              		.loc 2 441 21 is_stmt 0 view .LVU407
 1486 0014 1963     		str	r1, [r3, #48]	@ float
 1487              	.L62:
 436:GrannyChordApp.cpp ****     if (i<3){
 1488              		.loc 2 436 3 is_stmt 1 discriminator 2 view .LVU408
 1489 0016 0132     		adds	r2, r2, #1
 1490              	.LVL106:
 436:GrannyChordApp.cpp ****     if (i<3){
 1491              		.loc 2 436 19 discriminator 2 view .LVU409
 1492 0018 0433     		adds	r3, r3, #4
 1493 001a 042A     		cmp	r2, #4
 1494 001c F3D1     		bne	.L63
 1495              	.LBE465:
 442:GrannyChordApp.cpp ****     }
 443:GrannyChordApp.cpp ****     /* set reverb values to 0.05 initially */
 444:GrannyChordApp.cpp ****     else {
 445:GrannyChordApp.cpp ****       prev_param_k1[i]=0.05f;
 446:GrannyChordApp.cpp ****       prev_param_k2[i]=0.05f;
 447:GrannyChordApp.cpp ****       prev_k1_pos[i]=0.05f;
 448:GrannyChordApp.cpp ****       prev_k2_pos[i]=0.05f;
 449:GrannyChordApp.cpp ****     }
 450:GrannyChordApp.cpp ****   }
 451:GrannyChordApp.cpp **** 
 452:GrannyChordApp.cpp **** }
 1496              		.loc 2 452 1 is_stmt 0 view .LVU410
 1497 001e 7047     		bx	lr
 1498              	.L61:
 1499              	.LBB466:
 445:GrannyChordApp.cpp ****       prev_param_k2[i]=0.05f;
 1500              		.loc 2 445 7 is_stmt 1 view .LVU411
 445:GrannyChordApp.cpp ****       prev_param_k2[i]=0.05f;
 1501              		.loc 2 445 23 is_stmt 0 view .LVU412
 1502 0020 0449     		ldr	r1, .L65
 1503 0022 C0F85012 		str	r1, [r0, #592]	@ float
 446:GrannyChordApp.cpp ****       prev_k1_pos[i]=0.05f;
 1504              		.loc 2 446 7 is_stmt 1 view .LVU413
 446:GrannyChordApp.cpp ****       prev_k1_pos[i]=0.05f;
 1505              		.loc 2 446 23 is_stmt 0 view .LVU414
 1506 0026 C0F86012 		str	r1, [r0, #608]	@ float
 447:GrannyChordApp.cpp ****       prev_k2_pos[i]=0.05f;
 1507              		.loc 2 447 7 is_stmt 1 view .LVU415
ARM GAS  /var/folders/2p/02m_5p7958535cp2tpgps0400000gn/T//ccHnEWZO.s 			page 51


 447:GrannyChordApp.cpp ****       prev_k2_pos[i]=0.05f;
 1508              		.loc 2 447 21 is_stmt 0 view .LVU416
 1509 002a C0F87012 		str	r1, [r0, #624]	@ float
 448:GrannyChordApp.cpp ****     }
 1510              		.loc 2 448 7 is_stmt 1 view .LVU417
 448:GrannyChordApp.cpp ****     }
 1511              		.loc 2 448 21 is_stmt 0 view .LVU418
 1512 002e C0F88012 		str	r1, [r0, #640]	@ float
 1513 0032 F0E7     		b	.L62
 1514              	.L66:
 1515              		.align	2
 1516              	.L65:
 1517 0034 CDCC4C3D 		.word	1028443341
 1518              	.LBE466:
 1519              		.cfi_endproc
 1520              	.LFE4937:
 1522              		.section	.rodata._ZN14GrannyChordApp9InitSynthEv.str1.1,"aMS",%progbits,1
 1523              	.LC8:
 1524 0000 73796E74 		.ascii	"synth init ok - samples %u\000"
 1524      6820696E 
 1524      6974206F 
 1524      6B202D20 
 1524      73616D70 
 1525              		.section	.text._ZN14GrannyChordApp9InitSynthEv,"ax",%progbits
 1526              		.align	1
 1527              		.global	_ZN14GrannyChordApp9InitSynthEv
 1528              		.syntax unified
 1529              		.thumb
 1530              		.thumb_func
 1532              	_ZN14GrannyChordApp9InitSynthEv:
 1533              	.LVL107:
 1534              	.LFB4932:
 378:GrannyChordApp.cpp ****   synth_.Init(left_buf_, right_buf_, filemgr_.GetSamplesPerChannel());
 1535              		.loc 2 378 33 is_stmt 1 view -0
 1536              		.cfi_startproc
 1537              		@ args = 0, pretend = 0, frame = 0
 1538              		@ frame_needed = 0, uses_anonymous_args = 0
 379:GrannyChordApp.cpp ****   InitPrevParamVals();
 1539              		.loc 2 379 3 view .LVU420
 379:GrannyChordApp.cpp ****   InitPrevParamVals();
 1540              		.loc 2 379 38 is_stmt 0 view .LVU421
 1541 0000 D0F8DC20 		ldr	r2, [r0, #220]
 1542              	.LVL108:
 1543              	.LBB467:
 1544              	.LBI467:
  27:AudioFileManager.h ****     size_t GetTotalSamples() const { return header_.total_samples; }
 1545              		.loc 8 27 12 is_stmt 1 view .LVU422
 1546              	.LBB468:
  27:AudioFileManager.h ****     size_t GetTotalSamples() const { return header_.total_samples; }
 1547              		.loc 8 27 43 view .LVU423
  27:AudioFileManager.h ****     size_t GetTotalSamples() const { return header_.total_samples; }
 1548              		.loc 8 27 58 is_stmt 0 view .LVU424
 1549 0004 02F58052 		add	r2, r2, #4096
  27:AudioFileManager.h ****     size_t GetTotalSamples() const { return header_.total_samples; }
 1550              		.loc 8 27 82 view .LVU425
 1551 0008 B2F92830 		ldrsh	r3, [r2, #40]
 1552 000c D26A     		ldr	r2, [r2, #44]
ARM GAS  /var/folders/2p/02m_5p7958535cp2tpgps0400000gn/T//ccHnEWZO.s 			page 52


 1553              	.LBE468:
 1554              	.LBE467:
 378:GrannyChordApp.cpp ****   synth_.Init(left_buf_, right_buf_, filemgr_.GetSamplesPerChannel());
 1555              		.loc 2 378 33 view .LVU426
 1556 000e 10B5     		push	{r4, lr}
 1557              		.cfi_def_cfa_offset 8
 1558              		.cfi_offset 4, -8
 1559              		.cfi_offset 14, -4
 378:GrannyChordApp.cpp ****   synth_.Init(left_buf_, right_buf_, filemgr_.GetSamplesPerChannel());
 1560              		.loc 2 378 33 view .LVU427
 1561 0010 0446     		mov	r4, r0
 379:GrannyChordApp.cpp ****   InitPrevParamVals();
 1562              		.loc 2 379 14 view .LVU428
 1563 0012 B2FBF3F3 		udiv	r3, r2, r3
 1564 0016 D0E96C12 		ldrd	r1, r2, [r0, #432]
 1565 001a 2030     		adds	r0, r0, #32
 1566              	.LVL109:
 379:GrannyChordApp.cpp ****   InitPrevParamVals();
 1567              		.loc 2 379 14 view .LVU429
 1568 001c FFF7FEFF 		bl	_ZN13GranularSynth4InitEPsS0_j
 1569              	.LVL110:
 380:GrannyChordApp.cpp ****   DebugPrint(pod_,"synth init ok - samples %u",filemgr_.GetSamplesPerChannel());
 1570              		.loc 2 380 3 is_stmt 1 view .LVU430
 380:GrannyChordApp.cpp ****   DebugPrint(pod_,"synth init ok - samples %u",filemgr_.GetSamplesPerChannel());
 1571              		.loc 2 380 20 is_stmt 0 view .LVU431
 1572 0020 2046     		mov	r0, r4
 1573 0022 FFF7FEFF 		bl	_ZN14GrannyChordApp17InitPrevParamValsEv
 1574              	.LVL111:
 381:GrannyChordApp.cpp **** }
 1575              		.loc 2 381 3 is_stmt 1 view .LVU432
 381:GrannyChordApp.cpp **** }
 1576              		.loc 2 381 3 view .LVU433
 1577 0026 D4F8DC30 		ldr	r3, [r4, #220]
 1578              	.LVL112:
 1579              	.LBB469:
 1580              	.LBI469:
  27:AudioFileManager.h ****     size_t GetTotalSamples() const { return header_.total_samples; }
 1581              		.loc 8 27 12 view .LVU434
 1582              	.LBB470:
  27:AudioFileManager.h ****     size_t GetTotalSamples() const { return header_.total_samples; }
 1583              		.loc 8 27 43 view .LVU435
  27:AudioFileManager.h ****     size_t GetTotalSamples() const { return header_.total_samples; }
 1584              		.loc 8 27 43 is_stmt 0 view .LVU436
 1585              	.LBE470:
 1586              	.LBE469:
 1587              	.LBB472:
 1588              	.LBI472:
 126:../libDaisy/src/daisy_seed.h ****     {
 1589              		.loc 4 126 17 is_stmt 1 view .LVU437
 1590              	.LBB473:
 1591              		.loc 4 128 23 is_stmt 0 view .LVU438
 1592 002a 0648     		ldr	r0, .L68
 1593              	.LBE473:
 1594              	.LBE472:
 1595              	.LBB475:
 1596              	.LBB471:
  27:AudioFileManager.h ****     size_t GetTotalSamples() const { return header_.total_samples; }
ARM GAS  /var/folders/2p/02m_5p7958535cp2tpgps0400000gn/T//ccHnEWZO.s 			page 53


 1597              		.loc 8 27 58 view .LVU439
 1598 002c 03F58053 		add	r3, r3, #4096
 1599              	.LVL113:
  27:AudioFileManager.h ****     size_t GetTotalSamples() const { return header_.total_samples; }
 1600              		.loc 8 27 82 view .LVU440
 1601 0030 B3F92820 		ldrsh	r2, [r3, #40]
 1602 0034 D96A     		ldr	r1, [r3, #44]
 1603              	.LBE471:
 1604              	.LBE475:
 382:GrannyChordApp.cpp **** 
 1605              		.loc 2 382 1 view .LVU441
 1606 0036 BDE81040 		pop	{r4, lr}
 1607              		.cfi_restore 14
 1608              		.cfi_restore 4
 1609              		.cfi_def_cfa_offset 0
 1610              	.LVL114:
 1611              	.LBB476:
 1612              	.LBB474:
 1613              		.loc 4 128 23 view .LVU442
 1614 003a B1FBF2F1 		udiv	r1, r1, r2
 1615 003e FFF7FEBF 		b	_ZN5daisy6LoggerILNS_17LoggerDestinationE1EE9PrintLineEPKcz
 1616              	.LVL115:
 1617              	.L69:
 1618              		.loc 4 128 23 view .LVU443
 1619 0042 00BF     		.align	2
 1620              	.L68:
 1621 0044 00000000 		.word	.LC8
 1622              	.LBE474:
 1623              	.LBE476:
 1624              		.cfi_endproc
 1625              	.LFE4932:
 1627              		.section	.rodata._ZN14GrannyChordApp17HandleStateChangeEv.str1.1,"aMS",%progbits,1
 1628              	.LC9:
 1629 0000 5265636F 		.ascii	"Recording in\000"
 1629      7264696E 
 1629      6720696E 
 1629      00
 1630              	.LC10:
 1631 000d 73746172 		.ascii	"starting playback\000"
 1631      74696E67 
 1631      20706C61 
 1631      79626163 
 1631      6B00
 1632              		.section	.text._ZN14GrannyChordApp17HandleStateChangeEv,"ax",%progbits
 1633              		.align	1
 1634              		.global	_ZN14GrannyChordApp17HandleStateChangeEv
 1635              		.syntax unified
 1636              		.thumb
 1637              		.thumb_func
 1639              	_ZN14GrannyChordApp17HandleStateChangeEv:
 1640              	.LVL116:
 1641              	.LFB4919:
 113:GrannyChordApp.cpp ****   switch(next_state_){
 1642              		.loc 2 113 41 is_stmt 1 view -0
 1643              		.cfi_startproc
 1644              		@ args = 0, pretend = 0, frame = 0
 1645              		@ frame_needed = 0, uses_anonymous_args = 0
ARM GAS  /var/folders/2p/02m_5p7958535cp2tpgps0400000gn/T//ccHnEWZO.s 			page 54


 114:GrannyChordApp.cpp ****     case AppState::SelectFile:
 1646              		.loc 2 114 3 view .LVU445
 1647 0000 D0F8E830 		ldr	r3, [r0, #232]
 113:GrannyChordApp.cpp ****   switch(next_state_){
 1648              		.loc 2 113 41 is_stmt 0 view .LVU446
 1649 0004 10B5     		push	{r4, lr}
 1650              		.cfi_def_cfa_offset 8
 1651              		.cfi_offset 4, -8
 1652              		.cfi_offset 14, -4
 113:GrannyChordApp.cpp ****   switch(next_state_){
 1653              		.loc 2 113 41 view .LVU447
 1654 0006 0446     		mov	r4, r0
 114:GrannyChordApp.cpp ****     case AppState::SelectFile:
 1655              		.loc 2 114 3 view .LVU448
 1656 0008 052B     		cmp	r3, #5
 1657 000a 0AD8     		bhi	.L70
 1658 000c DFE803F0 		tbb	[pc, r3]
 1659              	.L73:
 1660 0010 03       		.byte	(.L77-.L73)/2
 1661 0011 11       		.byte	(.L76-.L73)/2
 1662 0012 18       		.byte	(.L75-.L73)/2
 1663 0013 0A       		.byte	(.L74-.L73)/2
 1664 0014 09       		.byte	(.L70-.L73)/2
 1665 0015 1C       		.byte	(.L72-.L73)/2
 1666              		.p2align 1
 1667              	.L77:
 115:GrannyChordApp.cpp ****       pod_.StopAudio();
 1668              		.loc 2 115 5 is_stmt 1 view .LVU449
 116:GrannyChordApp.cpp ****       // DebugPrint(pod_, "stopped audio for select file");
 1669              		.loc 2 116 7 view .LVU450
 116:GrannyChordApp.cpp ****       // DebugPrint(pod_, "stopped audio for select file");
 1670              		.loc 2 116 21 is_stmt 0 view .LVU451
 1671 0016 C069     		ldr	r0, [r0, #28]
 1672              	.LVL117:
 116:GrannyChordApp.cpp ****       // DebugPrint(pod_, "stopped audio for select file");
 1673              		.loc 2 116 21 view .LVU452
 1674 0018 FFF7FEFF 		bl	_ZN5daisy8DaisyPod9StopAudioEv
 1675              	.LVL118:
 118:GrannyChordApp.cpp ****       break; 
 1676              		.loc 2 118 7 is_stmt 1 view .LVU453
 118:GrannyChordApp.cpp ****       break; 
 1677              		.loc 2 118 19 is_stmt 0 view .LVU454
 1678 001c 0023     		movs	r3, #0
 1679              	.L78:
 137:GrannyChordApp.cpp ****       break;
 1680              		.loc 2 137 19 view .LVU455
 1681 001e C4F8E430 		str	r3, [r4, #228]
 138:GrannyChordApp.cpp ****     default: 
 1682              		.loc 2 138 7 is_stmt 1 view .LVU456
 1683              	.L70:
 142:GrannyChordApp.cpp **** 
 1684              		.loc 2 142 1 is_stmt 0 view .LVU457
 1685 0022 10BD     		pop	{r4, pc}
 1686              	.LVL119:
 1687              	.L74:
 120:GrannyChordApp.cpp ****       InitRecordIn();
 1688              		.loc 2 120 5 is_stmt 1 view .LVU458
ARM GAS  /var/folders/2p/02m_5p7958535cp2tpgps0400000gn/T//ccHnEWZO.s 			page 55


 121:GrannyChordApp.cpp ****       DebugPrint(pod_, "Recording in");
 1689              		.loc 2 121 7 view .LVU459
 121:GrannyChordApp.cpp ****       DebugPrint(pod_, "Recording in");
 1690              		.loc 2 121 19 is_stmt 0 view .LVU460
 1691 0024 FFF7FEFF 		bl	_ZN14GrannyChordApp12InitRecordInEv
 1692              	.LVL120:
 122:GrannyChordApp.cpp ****       curr_state_ = AppState::RecordIn;  
 1693              		.loc 2 122 7 is_stmt 1 view .LVU461
 122:GrannyChordApp.cpp ****       curr_state_ = AppState::RecordIn;  
 1694              		.loc 2 122 7 view .LVU462
 1695              	.LBB477:
 1696              	.LBI477:
 126:../libDaisy/src/daisy_seed.h ****     {
 1697              		.loc 4 126 17 view .LVU463
 1698              	.LBB478:
 1699              		.loc 4 128 23 is_stmt 0 view .LVU464
 1700 0028 0848     		ldr	r0, .L79
 1701 002a FFF7FEFF 		bl	_ZN5daisy6LoggerILNS_17LoggerDestinationE1EE9PrintLineEPKcz
 1702              	.LVL121:
 1703              		.loc 4 128 23 view .LVU465
 1704              	.LBE478:
 1705              	.LBE477:
 123:GrannyChordApp.cpp ****       break;
 1706              		.loc 2 123 7 is_stmt 1 view .LVU466
 123:GrannyChordApp.cpp ****       break;
 1707              		.loc 2 123 19 is_stmt 0 view .LVU467
 1708 002e 0323     		movs	r3, #3
 1709 0030 F5E7     		b	.L78
 1710              	.LVL122:
 1711              	.L76:
 125:GrannyChordApp.cpp ****       InitPlayback(); 
 1712              		.loc 2 125 5 is_stmt 1 view .LVU468
 126:GrannyChordApp.cpp ****       DebugPrint(pod_,"starting playback");
 1713              		.loc 2 126 7 view .LVU469
 126:GrannyChordApp.cpp ****       DebugPrint(pod_,"starting playback");
 1714              		.loc 2 126 19 is_stmt 0 view .LVU470
 1715 0032 FFF7FEFF 		bl	_ZN14GrannyChordApp12InitPlaybackEv
 1716              	.LVL123:
 127:GrannyChordApp.cpp ****       curr_state_ = AppState::PlayWAV;
 1717              		.loc 2 127 7 is_stmt 1 view .LVU471
 127:GrannyChordApp.cpp ****       curr_state_ = AppState::PlayWAV;
 1718              		.loc 2 127 7 view .LVU472
 1719              	.LBB479:
 1720              	.LBI479:
 126:../libDaisy/src/daisy_seed.h ****     {
 1721              		.loc 4 126 17 view .LVU473
 1722              	.LBB480:
 1723              		.loc 4 128 23 is_stmt 0 view .LVU474
 1724 0036 0648     		ldr	r0, .L79+4
 1725 0038 FFF7FEFF 		bl	_ZN5daisy6LoggerILNS_17LoggerDestinationE1EE9PrintLineEPKcz
 1726              	.LVL124:
 1727              		.loc 4 128 23 view .LVU475
 1728              	.LBE480:
 1729              	.LBE479:
 128:GrannyChordApp.cpp ****       break;
 1730              		.loc 2 128 7 is_stmt 1 view .LVU476
 128:GrannyChordApp.cpp ****       break;
ARM GAS  /var/folders/2p/02m_5p7958535cp2tpgps0400000gn/T//ccHnEWZO.s 			page 56


 1731              		.loc 2 128 19 is_stmt 0 view .LVU477
 1732 003c 0123     		movs	r3, #1
 1733 003e EEE7     		b	.L78
 1734              	.LVL125:
 1735              	.L75:
 130:GrannyChordApp.cpp ****       InitSynth();
 1736              		.loc 2 130 5 is_stmt 1 view .LVU478
 131:GrannyChordApp.cpp ****       curr_state_ = AppState::Synthesis;
 1737              		.loc 2 131 7 view .LVU479
 131:GrannyChordApp.cpp ****       curr_state_ = AppState::Synthesis;
 1738              		.loc 2 131 16 is_stmt 0 view .LVU480
 1739 0040 FFF7FEFF 		bl	_ZN14GrannyChordApp9InitSynthEv
 1740              	.LVL126:
 132:GrannyChordApp.cpp ****       // SetLedSynthMode();
 1741              		.loc 2 132 7 is_stmt 1 view .LVU481
 132:GrannyChordApp.cpp ****       // SetLedSynthMode();
 1742              		.loc 2 132 19 is_stmt 0 view .LVU482
 1743 0044 0223     		movs	r3, #2
 1744 0046 EAE7     		b	.L78
 1745              	.LVL127:
 1746              	.L72:
 136:GrannyChordApp.cpp ****       curr_state_ = AppState::Error;
 1747              		.loc 2 136 5 is_stmt 1 view .LVU483
 137:GrannyChordApp.cpp ****       break;
 1748              		.loc 2 137 7 view .LVU484
 137:GrannyChordApp.cpp ****       break;
 1749              		.loc 2 137 19 is_stmt 0 view .LVU485
 1750 0048 0523     		movs	r3, #5
 1751 004a E8E7     		b	.L78
 1752              	.L80:
 1753              		.align	2
 1754              	.L79:
 1755 004c 00000000 		.word	.LC9
 1756 0050 0D000000 		.word	.LC10
 1757              		.cfi_endproc
 1758              	.LFE4919:
 1760              		.section	.text._ZN14GrannyChordApp18ProcessWAVPlaybackEPPfj,"ax",%progbits
 1761              		.align	1
 1762              		.global	_ZN14GrannyChordApp18ProcessWAVPlaybackEPPfj
 1763              		.syntax unified
 1764              		.thumb
 1765              		.thumb_func
 1767              	_ZN14GrannyChordApp18ProcessWAVPlaybackEPPfj:
 1768              	.LVL128:
 1769              	.LFB4940:
 453:GrannyChordApp.cpp **** 
 454:GrannyChordApp.cpp **** /// @brief Master audio callback, called at audio rate, calls all audio processing methods
 455:GrannyChordApp.cpp **** /// @param in Audio input buffer
 456:GrannyChordApp.cpp **** /// @param out Audio output buffer
 457:GrannyChordApp.cpp **** /// @param size Number of samples to process in this call
 458:GrannyChordApp.cpp **** void GrannyChordApp::AudioCallback(AudioHandle::InputBuffer in, AudioHandle::OutputBuffer out, size
 459:GrannyChordApp.cpp ****   instance_->ProcessAudio(in,out,size);
 460:GrannyChordApp.cpp **** }
 461:GrannyChordApp.cpp **** 
 462:GrannyChordApp.cpp **** void GrannyChordApp::ProcessAudio(AudioHandle::InputBuffer in, AudioHandle::OutputBuffer out, size_
 463:GrannyChordApp.cpp ****   switch(curr_state_){
 464:GrannyChordApp.cpp ****     case AppState::PlayWAV:
ARM GAS  /var/folders/2p/02m_5p7958535cp2tpgps0400000gn/T//ccHnEWZO.s 			page 57


 465:GrannyChordApp.cpp ****       if (wav_playhead_>= filemgr_.GetSamplesPerChannel() -1){
 466:GrannyChordApp.cpp ****         instance_->pod_.StopAudio();
 467:GrannyChordApp.cpp ****         DebugPrint(pod_, "stopped audio > len"); 
 468:GrannyChordApp.cpp ****         return;
 469:GrannyChordApp.cpp ****       }
 470:GrannyChordApp.cpp ****       ProcessWAVPlayback(out,size);
 471:GrannyChordApp.cpp ****       return;  
 472:GrannyChordApp.cpp ****     case AppState::RecordIn:
 473:GrannyChordApp.cpp ****       // ProcessRecordIn(in, out, size);
 474:GrannyChordApp.cpp ****       return;
 475:GrannyChordApp.cpp ****     case AppState::Synthesis:
 476:GrannyChordApp.cpp ****       ProcessSynthesis(out,size);
 477:GrannyChordApp.cpp ****       return;
 478:GrannyChordApp.cpp ****     // case AppState::ChordMode:
 479:GrannyChordApp.cpp ****     // return;
 480:GrannyChordApp.cpp ****     default:
 481:GrannyChordApp.cpp ****       return;
 482:GrannyChordApp.cpp ****   }
 483:GrannyChordApp.cpp **** }
 484:GrannyChordApp.cpp **** 
 485:GrannyChordApp.cpp **** /// @brief Process audio for WAV playback mode and increment playback position
 486:GrannyChordApp.cpp **** /// @param out Output audio buffer
 487:GrannyChordApp.cpp **** /// @param size Number of samples to process in this call
 488:GrannyChordApp.cpp **** void GrannyChordApp::ProcessWAVPlayback(AudioHandle::OutputBuffer out, size_t size){
 1770              		.loc 2 488 84 is_stmt 1 view -0
 1771              		.cfi_startproc
 1772              		@ args = 0, pretend = 0, frame = 0
 1773              		@ frame_needed = 0, uses_anonymous_args = 0
 489:GrannyChordApp.cpp ****   for (size_t i=0; i<size; i++){
 1774              		.loc 2 489 3 view .LVU487
 488:GrannyChordApp.cpp ****   for (size_t i=0; i<size; i++){
 1775              		.loc 2 488 84 is_stmt 0 view .LVU488
 1776 0000 70B5     		push	{r4, r5, r6, lr}
 1777              		.cfi_def_cfa_offset 16
 1778              		.cfi_offset 4, -16
 1779              		.cfi_offset 5, -12
 1780              		.cfi_offset 6, -8
 1781              		.cfi_offset 14, -4
 1782              	.LBB481:
 1783              		.loc 2 489 15 view .LVU489
 1784 0002 0024     		movs	r4, #0
 1785              	.LVL129:
 1786              	.L84:
 1787              		.loc 2 489 21 is_stmt 1 discriminator 1 view .LVU490
 1788 0004 9442     		cmp	r4, r2
 1789 0006 37D0     		beq	.L81
 490:GrannyChordApp.cpp ****     if (wav_playhead_ < filemgr_.GetSamplesPerChannel()){
 1790              		.loc 2 490 5 view .LVU491
 1791              		.loc 2 490 25 is_stmt 0 view .LVU492
 1792 0008 D0F8DC50 		ldr	r5, [r0, #220]
 1793              	.LVL130:
 1794              	.LBB482:
 1795              	.LBI482:
  27:AudioFileManager.h ****     size_t GetTotalSamples() const { return header_.total_samples; }
 1796              		.loc 8 27 12 is_stmt 1 view .LVU493
 1797              	.LBB483:
  27:AudioFileManager.h ****     size_t GetTotalSamples() const { return header_.total_samples; }
ARM GAS  /var/folders/2p/02m_5p7958535cp2tpgps0400000gn/T//ccHnEWZO.s 			page 58


 1798              		.loc 8 27 43 view .LVU494
  27:AudioFileManager.h ****     size_t GetTotalSamples() const { return header_.total_samples; }
 1799              		.loc 8 27 43 is_stmt 0 view .LVU495
 1800              	.LBE483:
 1801              	.LBE482:
 1802              		.loc 2 490 9 view .LVU496
 1803 000c D0F8BC31 		ldr	r3, [r0, #444]
 1804              	.LBB485:
 1805              	.LBB484:
  27:AudioFileManager.h ****     size_t GetTotalSamples() const { return header_.total_samples; }
 1806              		.loc 8 27 58 view .LVU497
 1807 0010 05F58055 		add	r5, r5, #4096
  27:AudioFileManager.h ****     size_t GetTotalSamples() const { return header_.total_samples; }
 1808              		.loc 8 27 82 view .LVU498
 1809 0014 B5F92860 		ldrsh	r6, [r5, #40]
 1810 0018 ED6A     		ldr	r5, [r5, #44]
 1811 001a B5FBF6F5 		udiv	r5, r5, r6
 1812              	.LBE484:
 1813              	.LBE485:
 1814              		.loc 2 490 5 view .LVU499
 1815 001e AB42     		cmp	r3, r5
 1816 0020 28D2     		bcs	.L83
 491:GrannyChordApp.cpp ****       out[0][i] = s162f(left_buf_[wav_playhead_]) * 0.5f;
 1817              		.loc 2 491 7 is_stmt 1 view .LVU500
 1818              	.LVL131:
 1819              	.LBB486:
 1820              	.LBI486:
 1821              		.file 11 "../libDaisy/src/daisy_core.h"
   1:../libDaisy/src/daisy_core.h **** #pragma once
   2:../libDaisy/src/daisy_core.h **** #ifndef DSY_CORE_HW_H
   3:../libDaisy/src/daisy_core.h **** #define DSY_CORE_HW_H /**< & */
   4:../libDaisy/src/daisy_core.h **** #include <stdint.h>
   5:../libDaisy/src/daisy_core.h **** #include <stdlib.h>
   6:../libDaisy/src/daisy_core.h **** 
   7:../libDaisy/src/daisy_core.h **** #if defined(_MSC_VER)
   8:../libDaisy/src/daisy_core.h **** #define FORCE_INLINE __forceinline /**< & */
   9:../libDaisy/src/daisy_core.h **** #elif defined(__clang__)
  10:../libDaisy/src/daisy_core.h **** #define FORCE_INLINE inline __attribute__((always_inline)) /**< & */
  11:../libDaisy/src/daisy_core.h **** #pragma clang diagnostic ignored "-Wduplicate-decl-specifier"
  12:../libDaisy/src/daisy_core.h **** #elif defined(__GNUC__)
  13:../libDaisy/src/daisy_core.h **** #define FORCE_INLINE inline __attribute__((always_inline)) /**< & */
  14:../libDaisy/src/daisy_core.h **** #else
  15:../libDaisy/src/daisy_core.h **** #error unknown compiler
  16:../libDaisy/src/daisy_core.h **** #endif
  17:../libDaisy/src/daisy_core.h **** 
  18:../libDaisy/src/daisy_core.h **** /** @addtogroup utility
  19:../libDaisy/src/daisy_core.h ****     @{
  20:../libDaisy/src/daisy_core.h **** */
  21:../libDaisy/src/daisy_core.h **** 
  22:../libDaisy/src/daisy_core.h **** /** Macro for area of memory that is configured as cacheless
  23:../libDaisy/src/daisy_core.h **** This should be used primarily for DMA buffers, and the like.
  24:../libDaisy/src/daisy_core.h **** */
  25:../libDaisy/src/daisy_core.h **** #define DMA_BUFFER_MEM_SECTION __attribute__((section(".sram1_bss")))
  26:../libDaisy/src/daisy_core.h **** /** 
  27:../libDaisy/src/daisy_core.h **** THE DTCM RAM section is also non-cached. However, is not suitable 
  28:../libDaisy/src/daisy_core.h **** for DMA transfers. Performance is on par with internal SRAM w/ 
  29:../libDaisy/src/daisy_core.h **** cache enabled.
ARM GAS  /var/folders/2p/02m_5p7958535cp2tpgps0400000gn/T//ccHnEWZO.s 			page 59


  30:../libDaisy/src/daisy_core.h **** */
  31:../libDaisy/src/daisy_core.h **** #define DTCM_MEM_SECTION __attribute__((section(".dtcmram_bss")))
  32:../libDaisy/src/daisy_core.h **** 
  33:../libDaisy/src/daisy_core.h **** #define FBIPMAX 0.999985f             /**< close to 1.0f-LSB at 16 bit */
  34:../libDaisy/src/daisy_core.h **** #define FBIPMIN (-FBIPMAX)            /**< - (1 - LSB) */
  35:../libDaisy/src/daisy_core.h **** #define U82F_SCALE 0.0078740f         /**< 1 / 127 */
  36:../libDaisy/src/daisy_core.h **** #define F2U8_SCALE 127.0f             /**< 128 - 1 */
  37:../libDaisy/src/daisy_core.h **** #define S82F_SCALE 0.0078125f         /**< 1 / (2**7) */
  38:../libDaisy/src/daisy_core.h **** #define F2S8_SCALE 127.0f             /**< (2 ** 7) - 1 */
  39:../libDaisy/src/daisy_core.h **** #define S162F_SCALE 3.0517578125e-05f /**< 1 / (2** 15) */
  40:../libDaisy/src/daisy_core.h **** #define F2S16_SCALE 32767.0f          /**< (2 ** 15) - 1 */
  41:../libDaisy/src/daisy_core.h **** #define F2S24_SCALE 8388608.0f        /**< 2 ** 23 */
  42:../libDaisy/src/daisy_core.h **** #define S242F_SCALE 1.192092896e-07f  /**< 1 / (2 ** 23) */
  43:../libDaisy/src/daisy_core.h **** #define S24SIGN 0x800000              /**< 2 ** 23 */
  44:../libDaisy/src/daisy_core.h **** #define S322F_SCALE 4.6566129e-10f    /**< 1 / (2** 31) */
  45:../libDaisy/src/daisy_core.h **** #define F2S32_SCALE 2147483647.f      /**< (2 ** 31) - 1 */
  46:../libDaisy/src/daisy_core.h **** 
  47:../libDaisy/src/daisy_core.h **** 
  48:../libDaisy/src/daisy_core.h **** /** shorthand macro for simplifying the reading of the left 
  49:../libDaisy/src/daisy_core.h ****  *  channel of a non-interleaved output buffer named out */
  50:../libDaisy/src/daisy_core.h **** #define OUT_L out[0]
  51:../libDaisy/src/daisy_core.h **** 
  52:../libDaisy/src/daisy_core.h **** /** shorthand macro for simplifying the reading of the right 
  53:../libDaisy/src/daisy_core.h ****  *  channel of a non-interleaved output buffer named out */
  54:../libDaisy/src/daisy_core.h **** #define OUT_R out[1]
  55:../libDaisy/src/daisy_core.h **** 
  56:../libDaisy/src/daisy_core.h **** /** shorthand macro for simplifying the reading of the left 
  57:../libDaisy/src/daisy_core.h ****  *  channel of a non-interleaved input buffer named in */
  58:../libDaisy/src/daisy_core.h **** #define IN_L in[0]
  59:../libDaisy/src/daisy_core.h **** 
  60:../libDaisy/src/daisy_core.h **** /** shorthand macro for simplifying the reading of the right 
  61:../libDaisy/src/daisy_core.h ****  *  channel of a non-interleaved input buffer named in */
  62:../libDaisy/src/daisy_core.h **** #define IN_R in[1]
  63:../libDaisy/src/daisy_core.h **** 
  64:../libDaisy/src/daisy_core.h **** /** 
  65:../libDaisy/src/daisy_core.h ****     Computes cube.
  66:../libDaisy/src/daisy_core.h ****     \param x Number to be cubed
  67:../libDaisy/src/daisy_core.h ****     \return x ^ 3
  68:../libDaisy/src/daisy_core.h **** */
  69:../libDaisy/src/daisy_core.h **** FORCE_INLINE float cube(float x)
  70:../libDaisy/src/daisy_core.h **** {
  71:../libDaisy/src/daisy_core.h ****     return (x * x) * x;
  72:../libDaisy/src/daisy_core.h **** }
  73:../libDaisy/src/daisy_core.h **** 
  74:../libDaisy/src/daisy_core.h **** /** 
  75:../libDaisy/src/daisy_core.h ****     Converts unsigned 8-bit to float
  76:../libDaisy/src/daisy_core.h ****     \param x Number to be scaled.
  77:../libDaisy/src/daisy_core.h ****     \return Scaled number.
  78:../libDaisy/src/daisy_core.h **** */
  79:../libDaisy/src/daisy_core.h **** FORCE_INLINE float u82f(uint8_t x)
  80:../libDaisy/src/daisy_core.h **** {
  81:../libDaisy/src/daisy_core.h ****     return ((float)x - 127.f) * U82F_SCALE;
  82:../libDaisy/src/daisy_core.h **** }
  83:../libDaisy/src/daisy_core.h **** 
  84:../libDaisy/src/daisy_core.h **** /**
  85:../libDaisy/src/daisy_core.h ****     Converts float to unsigned 8-bit
  86:../libDaisy/src/daisy_core.h **** */
ARM GAS  /var/folders/2p/02m_5p7958535cp2tpgps0400000gn/T//ccHnEWZO.s 			page 60


  87:../libDaisy/src/daisy_core.h **** FORCE_INLINE uint8_t f2u8(float x)
  88:../libDaisy/src/daisy_core.h **** {
  89:../libDaisy/src/daisy_core.h ****     x = x <= FBIPMIN ? FBIPMIN : x;
  90:../libDaisy/src/daisy_core.h ****     x = x >= FBIPMAX ? FBIPMAX : x;
  91:../libDaisy/src/daisy_core.h ****     return (uint8_t)((x * F2U8_SCALE) + F2U8_SCALE);
  92:../libDaisy/src/daisy_core.h **** }
  93:../libDaisy/src/daisy_core.h **** 
  94:../libDaisy/src/daisy_core.h **** 
  95:../libDaisy/src/daisy_core.h **** /** 
  96:../libDaisy/src/daisy_core.h ****     Converts Signed 8-bit to float
  97:../libDaisy/src/daisy_core.h ****     \param x Number to be scaled.
  98:../libDaisy/src/daisy_core.h ****     \return Scaled number.
  99:../libDaisy/src/daisy_core.h **** */
 100:../libDaisy/src/daisy_core.h **** FORCE_INLINE float s82f(int8_t x)
 101:../libDaisy/src/daisy_core.h **** {
 102:../libDaisy/src/daisy_core.h ****     return (float)x * S82F_SCALE;
 103:../libDaisy/src/daisy_core.h **** }
 104:../libDaisy/src/daisy_core.h **** 
 105:../libDaisy/src/daisy_core.h **** /**
 106:../libDaisy/src/daisy_core.h ****     Converts float to Signed 8-bit
 107:../libDaisy/src/daisy_core.h **** */
 108:../libDaisy/src/daisy_core.h **** FORCE_INLINE int8_t f2s8(float x)
 109:../libDaisy/src/daisy_core.h **** {
 110:../libDaisy/src/daisy_core.h ****     x = x <= FBIPMIN ? FBIPMIN : x;
 111:../libDaisy/src/daisy_core.h ****     x = x >= FBIPMAX ? FBIPMAX : x;
 112:../libDaisy/src/daisy_core.h ****     return (int32_t)(x * F2S8_SCALE);
 113:../libDaisy/src/daisy_core.h **** }
 114:../libDaisy/src/daisy_core.h **** 
 115:../libDaisy/src/daisy_core.h **** /** 
 116:../libDaisy/src/daisy_core.h ****     Converts Signed 16-bit to float
 117:../libDaisy/src/daisy_core.h ****     \param x Number to be scaled.
 118:../libDaisy/src/daisy_core.h ****     \return Scaled number.
 119:../libDaisy/src/daisy_core.h **** */
 120:../libDaisy/src/daisy_core.h **** FORCE_INLINE float s162f(int16_t x)
 1822              		.loc 11 120 20 view .LVU501
 1823              	.LBB487:
 121:../libDaisy/src/daisy_core.h **** {
 122:../libDaisy/src/daisy_core.h ****     return (float)x * S162F_SCALE;
 1824              		.loc 11 122 5 view .LVU502
 1825              		.loc 11 122 5 is_stmt 0 view .LVU503
 1826              	.LBE487:
 1827              	.LBE486:
 1828              		.loc 2 491 24 view .LVU504
 1829 0022 D0F8B061 		ldr	r6, [r0, #432]
 1830              		.loc 2 491 51 view .LVU505
 1831 0026 F6EE006A 		vmov.f32	s13, #5.0e-1
 1832              	.LBB492:
 1833              	.LBB488:
 1834              		.loc 11 122 23 view .LVU506
 1835 002a 9FED146A 		vldr.32	s12, .L86
 1836              		.loc 11 122 12 view .LVU507
 1837 002e 36F91360 		ldrsh	r6, [r6, r3, lsl #1]
 1838              	.LBE488:
 1839              	.LBE492:
 1840              		.loc 2 491 17 view .LVU508
 1841 0032 0D68     		ldr	r5, [r1]
 1842              	.LBB493:
ARM GAS  /var/folders/2p/02m_5p7958535cp2tpgps0400000gn/T//ccHnEWZO.s 			page 61


 1843              	.LBB489:
 1844              		.loc 11 122 12 view .LVU509
 1845 0034 07EE106A 		vmov	s14, r6	@ int
 1846              	.LBE489:
 1847              	.LBE493:
 492:GrannyChordApp.cpp ****       out[1][i] = s162f(right_buf_[wav_playhead_]) * 0.5f;
 1848              		.loc 2 492 24 view .LVU510
 1849 0038 D0F8B461 		ldr	r6, [r0, #436]
 491:GrannyChordApp.cpp ****       out[1][i] = s162f(right_buf_[wav_playhead_]) * 0.5f;
 1850              		.loc 2 491 17 view .LVU511
 1851 003c 05EB8405 		add	r5, r5, r4, lsl #2
 1852              	.LBB494:
 1853              	.LBB495:
 1854              		.loc 11 122 12 view .LVU512
 1855 0040 36F91360 		ldrsh	r6, [r6, r3, lsl #1]
 1856              	.LBE495:
 1857              	.LBE494:
 1858              	.LBB500:
 1859              	.LBB490:
 1860 0044 B8EEC77A 		vcvt.f32.s32	s14, s14
 1861              	.LBE490:
 1862              	.LBE500:
 493:GrannyChordApp.cpp ****       wav_playhead_++;
 1863              		.loc 2 493 20 view .LVU513
 1864 0048 0133     		adds	r3, r3, #1
 1865              	.LBB501:
 1866              	.LBB496:
 1867              		.loc 11 122 12 view .LVU514
 1868 004a 07EE906A 		vmov	s15, r6	@ int
 1869              	.LBE496:
 1870              	.LBE501:
 1871              	.LBB502:
 1872              	.LBB491:
 1873              		.loc 11 122 23 view .LVU515
 1874 004e 27EE067A 		vmul.f32	s14, s14, s12
 1875              	.LBE491:
 1876              	.LBE502:
 1877              	.LBB503:
 1878              	.LBB497:
 1879              		.loc 11 122 12 view .LVU516
 1880 0052 F8EEE77A 		vcvt.f32.s32	s15, s15
 1881              	.LBE497:
 1882              	.LBE503:
 491:GrannyChordApp.cpp ****       out[1][i] = s162f(right_buf_[wav_playhead_]) * 0.5f;
 1883              		.loc 2 491 51 view .LVU517
 1884 0056 27EE267A 		vmul.f32	s14, s14, s13
 1885              	.LBB504:
 1886              	.LBB498:
 1887              		.loc 11 122 23 view .LVU518
 1888 005a 67EE867A 		vmul.f32	s15, s15, s12
 1889              	.LBE498:
 1890              	.LBE504:
 491:GrannyChordApp.cpp ****       out[1][i] = s162f(right_buf_[wav_playhead_]) * 0.5f;
 1891              		.loc 2 491 17 view .LVU519
 1892 005e 85ED007A 		vstr.32	s14, [r5]
 492:GrannyChordApp.cpp ****       out[1][i] = s162f(right_buf_[wav_playhead_]) * 0.5f;
 1893              		.loc 2 492 7 is_stmt 1 view .LVU520
ARM GAS  /var/folders/2p/02m_5p7958535cp2tpgps0400000gn/T//ccHnEWZO.s 			page 62


 1894              	.LVL132:
 1895              	.LBB505:
 1896              	.LBI494:
 120:../libDaisy/src/daisy_core.h **** {
 1897              		.loc 11 120 20 view .LVU521
 1898              	.LBB499:
 1899              		.loc 11 122 5 view .LVU522
 1900              		.loc 11 122 5 is_stmt 0 view .LVU523
 1901              	.LBE499:
 1902              	.LBE505:
 492:GrannyChordApp.cpp ****       wav_playhead_++;
 1903              		.loc 2 492 17 view .LVU524
 1904 0062 4D68     		ldr	r5, [r1, #4]
 492:GrannyChordApp.cpp ****       wav_playhead_++;
 1905              		.loc 2 492 52 view .LVU525
 1906 0064 67EEA67A 		vmul.f32	s15, s15, s13
 492:GrannyChordApp.cpp ****       wav_playhead_++;
 1907              		.loc 2 492 17 view .LVU526
 1908 0068 05EB8405 		add	r5, r5, r4, lsl #2
 1909 006c C5ED007A 		vstr.32	s15, [r5]
 1910              		.loc 2 493 7 is_stmt 1 view .LVU527
 1911              		.loc 2 493 20 is_stmt 0 view .LVU528
 1912 0070 C0F8BC31 		str	r3, [r0, #444]
 1913              	.L83:
 489:GrannyChordApp.cpp ****     if (wav_playhead_ < filemgr_.GetSamplesPerChannel()){
 1914              		.loc 2 489 3 is_stmt 1 discriminator 2 view .LVU529
 1915 0074 0134     		adds	r4, r4, #1
 1916              	.LVL133:
 489:GrannyChordApp.cpp ****     if (wav_playhead_ < filemgr_.GetSamplesPerChannel()){
 1917              		.loc 2 489 3 is_stmt 0 discriminator 2 view .LVU530
 1918 0076 C5E7     		b	.L84
 1919              	.L81:
 489:GrannyChordApp.cpp ****     if (wav_playhead_ < filemgr_.GetSamplesPerChannel()){
 1920              		.loc 2 489 3 discriminator 2 view .LVU531
 1921              	.LBE481:
 494:GrannyChordApp.cpp ****     }
 495:GrannyChordApp.cpp ****   }
 496:GrannyChordApp.cpp **** }
 1922              		.loc 2 496 1 view .LVU532
 1923 0078 70BD     		pop	{r4, r5, r6, pc}
 1924              	.LVL134:
 1925              	.L87:
 1926              		.loc 2 496 1 view .LVU533
 1927 007a 00BF     		.align	2
 1928              	.L86:
 1929 007c 00000038 		.word	939524096
 1930              		.cfi_endproc
 1931              	.LFE4940:
 1933              		.section	.text._ZN14GrannyChordApp15ProcessRecordInEPKPKfPPfj,"ax",%progbits
 1934              		.align	1
 1935              		.global	_ZN14GrannyChordApp15ProcessRecordInEPKPKfPPfj
 1936              		.syntax unified
 1937              		.thumb
 1938              		.thumb_func
 1940              	_ZN14GrannyChordApp15ProcessRecordInEPKPKfPPfj:
 1941              	.LVL135:
 1942              	.LFB4941:
ARM GAS  /var/folders/2p/02m_5p7958535cp2tpgps0400000gn/T//ccHnEWZO.s 			page 63


 497:GrannyChordApp.cpp **** 
 498:GrannyChordApp.cpp **** /// @brief Process input audio when app is in RecordIn state
 499:GrannyChordApp.cpp **** /// @param in Input audio buffer
 500:GrannyChordApp.cpp **** /// @param out Output audio buffer
 501:GrannyChordApp.cpp **** /// @param size Number of samples to process in this call
 502:GrannyChordApp.cpp **** void GrannyChordApp::ProcessRecordIn(AudioHandle::InputBuffer in, AudioHandle::OutputBuffer out, si
 1943              		.loc 2 502 110 is_stmt 1 view -0
 1944              		.cfi_startproc
 1945              		@ args = 0, pretend = 0, frame = 0
 1946              		@ frame_needed = 0, uses_anonymous_args = 0
 503:GrannyChordApp.cpp ****   const size_t MAX_RECORDING_LEN = 120*48000; /* 120s @ 48kHZ */
 1947              		.loc 2 503 3 view .LVU535
 504:GrannyChordApp.cpp ****   for (size_t i=0; i<size;i++){
 1948              		.loc 2 504 3 view .LVU536
 502:GrannyChordApp.cpp ****   const size_t MAX_RECORDING_LEN = 120*48000; /* 120s @ 48kHZ */
 1949              		.loc 2 502 110 is_stmt 0 view .LVU537
 1950 0000 F0B5     		push	{r4, r5, r6, r7, lr}
 1951              		.cfi_def_cfa_offset 20
 1952              		.cfi_offset 4, -20
 1953              		.cfi_offset 5, -16
 1954              		.cfi_offset 6, -12
 1955              		.cfi_offset 7, -8
 1956              		.cfi_offset 14, -4
 1957              	.LBB506:
 1958              		.loc 2 504 15 view .LVU538
 1959 0002 0025     		movs	r5, #0
 1960              	.LVL136:
 1961              	.L90:
 1962              		.loc 2 504 21 is_stmt 1 discriminator 3 view .LVU539
 1963 0004 9D42     		cmp	r5, r3
 1964 0006 31D0     		beq	.L88
 505:GrannyChordApp.cpp ****     /* send audio in straight to output for monitoring */
 506:GrannyChordApp.cpp ****     out[0][i]=in[0][i];
 1965              		.loc 2 506 5 discriminator 2 view .LVU540
 1966              		.loc 2 506 22 is_stmt 0 discriminator 2 view .LVU541
 1967 0008 0E68     		ldr	r6, [r1]
 507:GrannyChordApp.cpp ****     out[1][i]=in[1][i];
 508:GrannyChordApp.cpp ****     /* record audio in to SDRAM buffers */
 509:GrannyChordApp.cpp ****     left_buf_[record_in_pos_] = in[0][i];
 1968              		.loc 2 509 15 discriminator 2 view .LVU542
 1969 000a 00F5004C 		add	ip, r0, #32768
 506:GrannyChordApp.cpp ****     out[1][i]=in[1][i];
 1970              		.loc 2 506 14 discriminator 2 view .LVU543
 1971 000e 1468     		ldr	r4, [r2]
 506:GrannyChordApp.cpp ****     out[1][i]=in[1][i];
 1972              		.loc 2 506 22 discriminator 2 view .LVU544
 1973 0010 06EB8506 		add	r6, r6, r5, lsl #2
 506:GrannyChordApp.cpp ****     out[1][i]=in[1][i];
 1974              		.loc 2 506 14 discriminator 2 view .LVU545
 1975 0014 04EB8504 		add	r4, r4, r5, lsl #2
 506:GrannyChordApp.cpp ****     out[1][i]=in[1][i];
 1976              		.loc 2 506 22 discriminator 2 view .LVU546
 1977 0018 3768     		ldr	r7, [r6]	@ float
 506:GrannyChordApp.cpp ****     out[1][i]=in[1][i];
 1978              		.loc 2 506 14 discriminator 2 view .LVU547
 1979 001a 2760     		str	r7, [r4]	@ float
 507:GrannyChordApp.cpp ****     out[1][i]=in[1][i];
ARM GAS  /var/folders/2p/02m_5p7958535cp2tpgps0400000gn/T//ccHnEWZO.s 			page 64


 1980              		.loc 2 507 5 is_stmt 1 discriminator 2 view .LVU548
 507:GrannyChordApp.cpp ****     out[1][i]=in[1][i];
 1981              		.loc 2 507 22 is_stmt 0 discriminator 2 view .LVU549
 1982 001c 4C68     		ldr	r4, [r1, #4]
 1983              		.loc 2 509 31 discriminator 2 view .LVU550
 1984 001e D0F8B071 		ldr	r7, [r0, #432]
 507:GrannyChordApp.cpp ****     out[1][i]=in[1][i];
 1985              		.loc 2 507 22 discriminator 2 view .LVU551
 1986 0022 04EB8504 		add	r4, r4, r5, lsl #2
 1987 0026 D4ED007A 		vldr.32	s15, [r4]
 507:GrannyChordApp.cpp ****     out[1][i]=in[1][i];
 1988              		.loc 2 507 14 discriminator 2 view .LVU552
 1989 002a 5468     		ldr	r4, [r2, #4]
 1990 002c 04EB8504 		add	r4, r4, r5, lsl #2
 504:GrannyChordApp.cpp ****     /* send audio in straight to output for monitoring */
 1991              		.loc 2 504 3 discriminator 2 view .LVU553
 1992 0030 0135     		adds	r5, r5, #1
 1993              	.LVL137:
 507:GrannyChordApp.cpp ****     out[1][i]=in[1][i];
 1994              		.loc 2 507 14 discriminator 2 view .LVU554
 1995 0032 C4ED007A 		vstr.32	s15, [r4]
 1996              		.loc 2 509 5 is_stmt 1 discriminator 2 view .LVU555
 510:GrannyChordApp.cpp ****     right_buf_[record_in_pos_] = in[1][i];
 1997              		.loc 2 510 32 is_stmt 0 discriminator 2 view .LVU556
 1998 0036 FDEEE77A 		vcvt.s32.f32	s15, s15
 509:GrannyChordApp.cpp ****     right_buf_[record_in_pos_] = in[1][i];
 1999              		.loc 2 509 31 discriminator 2 view .LVU557
 2000 003a 96ED007A 		vldr.32	s14, [r6]
 509:GrannyChordApp.cpp ****     right_buf_[record_in_pos_] = in[1][i];
 2001              		.loc 2 509 15 discriminator 2 view .LVU558
 2002 003e DCF8FC44 		ldr	r4, [ip, #1276]
 509:GrannyChordApp.cpp ****     right_buf_[record_in_pos_] = in[1][i];
 2003              		.loc 2 509 31 discriminator 2 view .LVU559
 2004 0042 BDEEC77A 		vcvt.s32.f32	s14, s14
 2005 0046 17EE106A 		vmov	r6, s14	@ int
 2006 004a 27F81460 		strh	r6, [r7, r4, lsl #1]	@ movhi
 2007              		.loc 2 510 5 is_stmt 1 discriminator 2 view .LVU560
 2008              		.loc 2 510 32 is_stmt 0 discriminator 2 view .LVU561
 2009 004e 17EE907A 		vmov	r7, s15	@ int
 2010 0052 D0F8B461 		ldr	r6, [r0, #436]
 2011 0056 26F81470 		strh	r7, [r6, r4, lsl #1]	@ movhi
 511:GrannyChordApp.cpp ****     /* wrap around recording length - if it exceeds 120s,
 512:GrannyChordApp.cpp ****       the start of the recording will be overwritten */
 513:GrannyChordApp.cpp ****     record_in_pos_ = (record_in_pos_+1)%MAX_RECORDING_LEN;
 2012              		.loc 2 513 5 is_stmt 1 discriminator 2 view .LVU562
 2013              		.loc 2 513 37 is_stmt 0 discriminator 2 view .LVU563
 2014 005a 0134     		adds	r4, r4, #1
 2015              		.loc 2 513 40 discriminator 2 view .LVU564
 2016 005c 044E     		ldr	r6, .L92
 2017 005e B4FBF6F7 		udiv	r7, r4, r6
 2018 0062 06FB1744 		mls	r4, r6, r7, r4
 2019              		.loc 2 513 20 discriminator 2 view .LVU565
 2020 0066 CCF8FC44 		str	r4, [ip, #1276]
 504:GrannyChordApp.cpp ****     /* send audio in straight to output for monitoring */
 2021              		.loc 2 504 3 is_stmt 1 discriminator 2 view .LVU566
 2022              	.LVL138:
 504:GrannyChordApp.cpp ****     /* send audio in straight to output for monitoring */
ARM GAS  /var/folders/2p/02m_5p7958535cp2tpgps0400000gn/T//ccHnEWZO.s 			page 65


 2023              		.loc 2 504 3 is_stmt 0 discriminator 2 view .LVU567
 2024 006a CBE7     		b	.L90
 2025              	.L88:
 504:GrannyChordApp.cpp ****     /* send audio in straight to output for monitoring */
 2026              		.loc 2 504 3 discriminator 2 view .LVU568
 2027              	.LBE506:
 514:GrannyChordApp.cpp ****   }
 515:GrannyChordApp.cpp **** }
 2028              		.loc 2 515 1 view .LVU569
 2029 006c F0BD     		pop	{r4, r5, r6, r7, pc}
 2030              	.LVL139:
 2031              	.L93:
 2032              		.loc 2 515 1 view .LVU570
 2033 006e 00BF     		.align	2
 2034              	.L92:
 2035 0070 00E45700 		.word	5760000
 2036              		.cfi_endproc
 2037              	.LFE4941:
 2039              		.section	.text._ZN14GrannyChordApp9ProcessFXE6Sample,"ax",%progbits
 2040              		.align	1
 2041              		.global	_ZN14GrannyChordApp9ProcessFXE6Sample
 2042              		.syntax unified
 2043              		.thumb
 2044              		.thumb_func
 2046              	_ZN14GrannyChordApp9ProcessFXE6Sample:
 2047              	.LVL140:
 2048              	.LFB4943:
 516:GrannyChordApp.cpp **** 
 517:GrannyChordApp.cpp **** /// @brief Process audio through granular synth and mix to output buffer
 518:GrannyChordApp.cpp **** /// @param out Output audio buffer
 519:GrannyChordApp.cpp **** /// @param size Number of samples to process in this call
 520:GrannyChordApp.cpp **** void GrannyChordApp::ProcessSynthesis(AudioHandle::OutputBuffer out, size_t size){
 521:GrannyChordApp.cpp ****   // Sample samp;
 522:GrannyChordApp.cpp ****   loadmeter.OnBlockStart();
 523:GrannyChordApp.cpp ****   for (size_t i=0; i<size; i++){ 
 524:GrannyChordApp.cpp ****     Sample samp = synth_.ProcessGrains();
 525:GrannyChordApp.cpp ****     counter++;
 526:GrannyChordApp.cpp **** 
 527:GrannyChordApp.cpp ****     Sample processed = ProcessFX(samp);
 528:GrannyChordApp.cpp ****     limiter_.ProcessBlock(&processed.left, 1, 0.5f);
 529:GrannyChordApp.cpp ****     limiter_.ProcessBlock(&processed.right, 1, 0.5f);
 530:GrannyChordApp.cpp ****     // limiter_.ProcessBlock(&samp.left, 1, 0.0f);
 531:GrannyChordApp.cpp ****     // limiter_.ProcessBlock(&samp.right, 1, 0.0f);
 532:GrannyChordApp.cpp ****   //   // if (counter%128000==0){
 533:GrannyChordApp.cpp ****   //   //   counter=0;
 534:GrannyChordApp.cpp ****   //   //   DebugPrint(pod_, "l: %f, r: %f", samp.left, samp.right);
 535:GrannyChordApp.cpp ****   //   // }
 536:GrannyChordApp.cpp ****     // out[0][i] = samp.left;
 537:GrannyChordApp.cpp ****     // out[1][i] = samp.right;
 538:GrannyChordApp.cpp ****     out[0][i] = processed.left;
 539:GrannyChordApp.cpp ****     out[1][i] = processed.right;
 540:GrannyChordApp.cpp **** 
 541:GrannyChordApp.cpp ****     // if (recording_out_ && sd_writer_.GetLengthSeconds()<MAX_REC_OUT_LEN){
 542:GrannyChordApp.cpp ****     //   temp_interleaved_buf_[0]=out[0][i];
 543:GrannyChordApp.cpp ****     //   temp_interleaved_buf_[1]=out[1][i];
 544:GrannyChordApp.cpp ****     //   sd_writer_.Sample(temp_interleaved_buf_);
 545:GrannyChordApp.cpp ****     // }
ARM GAS  /var/folders/2p/02m_5p7958535cp2tpgps0400000gn/T//ccHnEWZO.s 			page 66


 546:GrannyChordApp.cpp ****   }
 547:GrannyChordApp.cpp ****   loadmeter.OnBlockEnd();
 548:GrannyChordApp.cpp **** }
 549:GrannyChordApp.cpp **** 
 550:GrannyChordApp.cpp **** Sample GrannyChordApp::ProcessFX(Sample in){
 2049              		.loc 2 550 44 is_stmt 1 view -0
 2050              		.cfi_startproc
 2051              		@ args = 0, pretend = 0, frame = 40
 2052              		@ frame_needed = 0, uses_anonymous_args = 0
 551:GrannyChordApp.cpp ****   Sample out;
 2053              		.loc 2 551 3 view .LVU572
 552:GrannyChordApp.cpp ****   /* hipass: remove rumble */
 553:GrannyChordApp.cpp ****   out.left = hipass_.Process(in.left);
 2054              		.loc 2 553 3 view .LVU573
 550:GrannyChordApp.cpp ****   Sample out;
 2055              		.loc 2 550 44 is_stmt 0 view .LVU574
 2056 0000 30B5     		push	{r4, r5, lr}
 2057              		.cfi_def_cfa_offset 12
 2058              		.cfi_offset 4, -12
 2059              		.cfi_offset 5, -8
 2060              		.cfi_offset 14, -4
 2061 0002 0446     		mov	r4, r0
 2062 0004 8DB0     		sub	sp, sp, #52
 2063              		.cfi_def_cfa_offset 64
 2064              		.loc 2 553 29 view .LVU575
 2065 0006 00F5C270 		add	r0, r0, #388
 2066              	.LVL141:
 550:GrannyChordApp.cpp ****   Sample out;
 2067              		.loc 2 550 44 view .LVU576
 2068 000a CDED070A 		vstr.32	s1, [sp, #28]
 554:GrannyChordApp.cpp ****   out.right = hipass_.Process(in.right);
 555:GrannyChordApp.cpp ****   // out.left = comp_.Process(in.left);
 556:GrannyChordApp.cpp ****   // out.right = comp_.Process(in.right);
 557:GrannyChordApp.cpp **** 
 558:GrannyChordApp.cpp ****   /* apply lowpass filter */
 559:GrannyChordApp.cpp ****   out.left = lowpass_moog_.Process(out.left);
 560:GrannyChordApp.cpp ****   out.right = lowpass_moog_.Process(out.right);
 561:GrannyChordApp.cpp **** 
 562:GrannyChordApp.cpp **** 
 563:GrannyChordApp.cpp ****   /* apply reverb */
 564:GrannyChordApp.cpp ****   reverb_.ProcessMix(out.left, out.right, &out.left, &out.right);
 2069              		.loc 2 564 21 view .LVU577
 2070 000e 08AD     		add	r5, sp, #32
 553:GrannyChordApp.cpp ****   out.right = hipass_.Process(in.right);
 2071              		.loc 2 553 29 view .LVU578
 2072 0010 0390     		str	r0, [sp, #12]
 2073 0012 FFF7FEFF 		bl	_ZN7daisysp7OnePole7ProcessEf
 2074              	.LVL142:
 554:GrannyChordApp.cpp ****   out.right = hipass_.Process(in.right);
 2075              		.loc 2 554 30 view .LVU579
 2076 0016 0398     		ldr	r0, [sp, #12]
 553:GrannyChordApp.cpp ****   out.right = hipass_.Process(in.right);
 2077              		.loc 2 553 12 view .LVU580
 2078 0018 8DED080A 		vstr.32	s0, [sp, #32]
 554:GrannyChordApp.cpp ****   out.right = hipass_.Process(in.right);
 2079              		.loc 2 554 3 is_stmt 1 view .LVU581
 554:GrannyChordApp.cpp ****   out.right = hipass_.Process(in.right);
ARM GAS  /var/folders/2p/02m_5p7958535cp2tpgps0400000gn/T//ccHnEWZO.s 			page 67


 2080              		.loc 2 554 30 is_stmt 0 view .LVU582
 2081 001c 9DED070A 		vldr.32	s0, [sp, #28]
 2082 0020 FFF7FEFF 		bl	_ZN7daisysp7OnePole7ProcessEf
 2083              	.LVL143:
 559:GrannyChordApp.cpp ****   out.right = lowpass_moog_.Process(out.right);
 2084              		.loc 2 559 35 view .LVU583
 2085 0024 04F5A070 		add	r0, r4, #320
 554:GrannyChordApp.cpp ****   out.right = hipass_.Process(in.right);
 2086              		.loc 2 554 13 view .LVU584
 2087 0028 8DED090A 		vstr.32	s0, [sp, #36]
 559:GrannyChordApp.cpp ****   out.right = lowpass_moog_.Process(out.right);
 2088              		.loc 2 559 3 is_stmt 1 view .LVU585
 559:GrannyChordApp.cpp ****   out.right = lowpass_moog_.Process(out.right);
 2089              		.loc 2 559 35 is_stmt 0 view .LVU586
 2090 002c 9DED080A 		vldr.32	s0, [sp, #32]
 2091 0030 0390     		str	r0, [sp, #12]
 2092 0032 FFF7FEFF 		bl	_ZN7daisysp10MoogLadder7ProcessEf
 2093              	.LVL144:
 560:GrannyChordApp.cpp **** 
 2094              		.loc 2 560 36 view .LVU587
 2095 0036 0398     		ldr	r0, [sp, #12]
 559:GrannyChordApp.cpp ****   out.right = lowpass_moog_.Process(out.right);
 2096              		.loc 2 559 12 view .LVU588
 2097 0038 8DED080A 		vstr.32	s0, [sp, #32]
 560:GrannyChordApp.cpp **** 
 2098              		.loc 2 560 3 is_stmt 1 view .LVU589
 560:GrannyChordApp.cpp **** 
 2099              		.loc 2 560 36 is_stmt 0 view .LVU590
 2100 003c 9DED090A 		vldr.32	s0, [sp, #36]
 2101 0040 FFF7FEFF 		bl	_ZN7daisysp10MoogLadder7ProcessEf
 2102              	.LVL145:
 2103              		.loc 2 564 21 view .LVU591
 2104 0044 09AA     		add	r2, sp, #36
 2105 0046 2B46     		mov	r3, r5
 2106 0048 2946     		mov	r1, r5
 2107 004a D4F83C01 		ldr	r0, [r4, #316]
 2108 004e 0092     		str	r2, [sp]
 560:GrannyChordApp.cpp **** 
 2109              		.loc 2 560 13 view .LVU592
 2110 0050 8DED090A 		vstr.32	s0, [sp, #36]
 2111              		.loc 2 564 3 is_stmt 1 view .LVU593
 2112              		.loc 2 564 21 is_stmt 0 view .LVU594
 2113 0054 FFF7FEFF 		bl	_ZN7daisysp8ReverbSc10ProcessMixERKfS2_PfS3_
 2114              	.LVL146:
 565:GrannyChordApp.cpp ****   return out;
 2115              		.loc 2 565 3 is_stmt 1 view .LVU595
 2116              		.loc 2 565 10 is_stmt 0 view .LVU596
 2117 0058 0CAB     		add	r3, sp, #48
 2118 005a 95E80300 		ldm	r5, {r0, r1}
 2119 005e 03E90300 		stmdb	r3, {r0, r1}
 566:GrannyChordApp.cpp **** }
 2120              		.loc 2 566 1 view .LVU597
 2121 0062 9DED0A0A 		vldr.32	s0, [sp, #40]
 2122 0066 DDED0B0A 		vldr.32	s1, [sp, #44]
 2123 006a 0DB0     		add	sp, sp, #52
 2124              		.cfi_def_cfa_offset 12
 2125              		@ sp needed
ARM GAS  /var/folders/2p/02m_5p7958535cp2tpgps0400000gn/T//ccHnEWZO.s 			page 68


 2126 006c 30BD     		pop	{r4, r5, pc}
 2127              		.loc 2 566 1 view .LVU598
 2128              		.cfi_endproc
 2129              	.LFE4943:
 2131              		.section	.text._ZN14GrannyChordApp16ProcessSynthesisEPPfj,"ax",%progbits
 2132              		.align	1
 2133              		.global	_ZN14GrannyChordApp16ProcessSynthesisEPPfj
 2134              		.syntax unified
 2135              		.thumb
 2136              		.thumb_func
 2138              	_ZN14GrannyChordApp16ProcessSynthesisEPPfj:
 2139              	.LVL147:
 2140              	.LFB4942:
 520:GrannyChordApp.cpp ****   // Sample samp;
 2141              		.loc 2 520 82 is_stmt 1 view -0
 2142              		.cfi_startproc
 2143              		@ args = 0, pretend = 0, frame = 24
 2144              		@ frame_needed = 0, uses_anonymous_args = 0
 522:GrannyChordApp.cpp ****   for (size_t i=0; i<size; i++){ 
 2145              		.loc 2 522 3 view .LVU600
 520:GrannyChordApp.cpp ****   // Sample samp;
 2146              		.loc 2 520 82 is_stmt 0 view .LVU601
 2147 0000 F0B5     		push	{r4, r5, r6, r7, lr}
 2148              		.cfi_def_cfa_offset 20
 2149              		.cfi_offset 4, -20
 2150              		.cfi_offset 5, -16
 2151              		.cfi_offset 6, -12
 2152              		.cfi_offset 7, -8
 2153              		.cfi_offset 14, -4
 2154 0002 0446     		mov	r4, r0
 2155              	.LVL148:
 2156              	.LBB513:
 2157              	.LBI513:
  49:../libDaisy/src/util/CpuLoadMeter.h **** 
 2158              		.loc 3 49 10 is_stmt 1 view .LVU602
 2159              	.LBB514:
  49:../libDaisy/src/util/CpuLoadMeter.h **** 
 2160              		.loc 3 49 27 view .LVU603
 2161              	.LBE514:
 2162              	.LBE513:
 2163              	.LBB516:
 523:GrannyChordApp.cpp ****     Sample samp = synth_.ProcessGrains();
 2164              		.loc 2 523 15 is_stmt 0 view .LVU604
 2165 0004 0025     		movs	r5, #0
 2166              	.LBE516:
 520:GrannyChordApp.cpp ****   // Sample samp;
 2167              		.loc 2 520 82 view .LVU605
 2168 0006 87B0     		sub	sp, sp, #28
 2169              		.cfi_def_cfa_offset 48
 520:GrannyChordApp.cpp ****   // Sample samp;
 2170              		.loc 2 520 82 view .LVU606
 2171 0008 0E46     		mov	r6, r1
 2172 000a 1746     		mov	r7, r2
 2173              	.LBB519:
 2174              	.LBB515:
  49:../libDaisy/src/util/CpuLoadMeter.h **** 
 2175              		.loc 3 49 68 view .LVU607
ARM GAS  /var/folders/2p/02m_5p7958535cp2tpgps0400000gn/T//ccHnEWZO.s 			page 69


 2176 000c FFF7FEFF 		bl	_ZN5daisy6System7GetTickEv
 2177              	.LVL149:
  49:../libDaisy/src/util/CpuLoadMeter.h **** 
 2178              		.loc 3 49 51 view .LVU608
 2179 0010 A060     		str	r0, [r4, #8]
 2180              	.LVL150:
 2181              	.L97:
  49:../libDaisy/src/util/CpuLoadMeter.h **** 
 2182              		.loc 3 49 51 view .LVU609
 2183              	.LBE515:
 2184              	.LBE519:
 2185              	.LBB520:
 523:GrannyChordApp.cpp ****     Sample samp = synth_.ProcessGrains();
 2186              		.loc 2 523 21 is_stmt 1 discriminator 3 view .LVU610
 2187 0012 BD42     		cmp	r5, r7
 2188 0014 2DD0     		beq	.L96
 2189              	.LBB517:
 524:GrannyChordApp.cpp ****     counter++;
 2190              		.loc 2 524 5 discriminator 2 view .LVU611
 524:GrannyChordApp.cpp ****     counter++;
 2191              		.loc 2 524 40 is_stmt 0 discriminator 2 view .LVU612
 2192 0016 04F12000 		add	r0, r4, #32
 2193 001a FFF7FEFF 		bl	_ZN13GranularSynth13ProcessGrainsEv
 2194              	.LVL151:
 525:GrannyChordApp.cpp **** 
 2195              		.loc 2 525 5 is_stmt 1 discriminator 2 view .LVU613
 525:GrannyChordApp.cpp **** 
 2196              		.loc 2 525 12 is_stmt 0 discriminator 2 view .LVU614
 2197 001e 04F50042 		add	r2, r4, #32768
 527:GrannyChordApp.cpp ****     limiter_.ProcessBlock(&processed.left, 1, 0.5f);
 2198              		.loc 2 527 38 discriminator 2 view .LVU615
 2199 0022 2046     		mov	r0, r4
 525:GrannyChordApp.cpp **** 
 2200              		.loc 2 525 12 discriminator 2 view .LVU616
 2201 0024 D2F87835 		ldr	r3, [r2, #1400]
 2202 0028 0133     		adds	r3, r3, #1
 2203 002a C2F87835 		str	r3, [r2, #1400]
 527:GrannyChordApp.cpp ****     limiter_.ProcessBlock(&processed.left, 1, 0.5f);
 2204              		.loc 2 527 5 is_stmt 1 discriminator 2 view .LVU617
 527:GrannyChordApp.cpp ****     limiter_.ProcessBlock(&processed.left, 1, 0.5f);
 2205              		.loc 2 527 38 is_stmt 0 discriminator 2 view .LVU618
 2206 002e FFF7FEFF 		bl	_ZN14GrannyChordApp9ProcessFXE6Sample
 2207              	.LVL152:
 528:GrannyChordApp.cpp ****     limiter_.ProcessBlock(&processed.right, 1, 0.5f);
 2208              		.loc 2 528 26 discriminator 2 view .LVU619
 2209 0032 04F59C70 		add	r0, r4, #312
 2210 0036 0122     		movs	r2, #1
 2211 0038 04A9     		add	r1, sp, #16
 527:GrannyChordApp.cpp ****     limiter_.ProcessBlock(&processed.left, 1, 0.5f);
 2212              		.loc 2 527 38 discriminator 2 view .LVU620
 2213 003a 8DED040A 		vstr.32	s0, [sp, #16]
 528:GrannyChordApp.cpp ****     limiter_.ProcessBlock(&processed.right, 1, 0.5f);
 2214              		.loc 2 528 26 discriminator 2 view .LVU621
 2215 003e B6EE000A 		vmov.f32	s0, #5.0e-1
 527:GrannyChordApp.cpp ****     limiter_.ProcessBlock(&processed.left, 1, 0.5f);
 2216              		.loc 2 527 38 discriminator 2 view .LVU622
 2217 0042 CDED050A 		vstr.32	s1, [sp, #20]
ARM GAS  /var/folders/2p/02m_5p7958535cp2tpgps0400000gn/T//ccHnEWZO.s 			page 70


 528:GrannyChordApp.cpp ****     limiter_.ProcessBlock(&processed.right, 1, 0.5f);
 2218              		.loc 2 528 5 is_stmt 1 discriminator 2 view .LVU623
 528:GrannyChordApp.cpp ****     limiter_.ProcessBlock(&processed.right, 1, 0.5f);
 2219              		.loc 2 528 26 is_stmt 0 discriminator 2 view .LVU624
 2220 0046 0190     		str	r0, [sp, #4]
 2221 0048 FFF7FEFF 		bl	_ZN7daisysp7Limiter12ProcessBlockEPfjf
 2222              	.LVL153:
 529:GrannyChordApp.cpp ****     // limiter_.ProcessBlock(&samp.left, 1, 0.0f);
 2223              		.loc 2 529 5 is_stmt 1 discriminator 2 view .LVU625
 529:GrannyChordApp.cpp ****     // limiter_.ProcessBlock(&samp.left, 1, 0.0f);
 2224              		.loc 2 529 26 is_stmt 0 discriminator 2 view .LVU626
 2225 004c 0122     		movs	r2, #1
 2226 004e B6EE000A 		vmov.f32	s0, #5.0e-1
 2227 0052 05A9     		add	r1, sp, #20
 2228 0054 0198     		ldr	r0, [sp, #4]
 2229 0056 FFF7FEFF 		bl	_ZN7daisysp7Limiter12ProcessBlockEPfjf
 2230              	.LVL154:
 538:GrannyChordApp.cpp ****     out[1][i] = processed.right;
 2231              		.loc 2 538 5 is_stmt 1 discriminator 2 view .LVU627
 538:GrannyChordApp.cpp ****     out[1][i] = processed.right;
 2232              		.loc 2 538 15 is_stmt 0 discriminator 2 view .LVU628
 2233 005a 3368     		ldr	r3, [r6]
 2234 005c 049A     		ldr	r2, [sp, #16]	@ float
 2235 005e 03EB8503 		add	r3, r3, r5, lsl #2
 2236 0062 1A60     		str	r2, [r3]	@ float
 539:GrannyChordApp.cpp **** 
 2237              		.loc 2 539 5 is_stmt 1 discriminator 2 view .LVU629
 539:GrannyChordApp.cpp **** 
 2238              		.loc 2 539 15 is_stmt 0 discriminator 2 view .LVU630
 2239 0064 7368     		ldr	r3, [r6, #4]
 2240 0066 059A     		ldr	r2, [sp, #20]	@ float
 2241 0068 03EB8503 		add	r3, r3, r5, lsl #2
 2242              	.LBE517:
 523:GrannyChordApp.cpp ****     Sample samp = synth_.ProcessGrains();
 2243              		.loc 2 523 3 discriminator 2 view .LVU631
 2244 006c 0135     		adds	r5, r5, #1
 2245              	.LVL155:
 2246              	.LBB518:
 539:GrannyChordApp.cpp **** 
 2247              		.loc 2 539 15 discriminator 2 view .LVU632
 2248 006e 1A60     		str	r2, [r3]	@ float
 2249              	.LBE518:
 523:GrannyChordApp.cpp ****     Sample samp = synth_.ProcessGrains();
 2250              		.loc 2 523 3 is_stmt 1 discriminator 2 view .LVU633
 2251              	.LVL156:
 523:GrannyChordApp.cpp ****     Sample samp = synth_.ProcessGrains();
 2252              		.loc 2 523 3 is_stmt 0 discriminator 2 view .LVU634
 2253 0070 CFE7     		b	.L97
 2254              	.L96:
 523:GrannyChordApp.cpp ****     Sample samp = synth_.ProcessGrains();
 2255              		.loc 2 523 3 discriminator 2 view .LVU635
 2256              	.LBE520:
 547:GrannyChordApp.cpp **** }
 2257              		.loc 2 547 3 is_stmt 1 view .LVU636
 2258              	.LVL157:
 2259              	.LBB521:
 2260              	.LBI521:
ARM GAS  /var/folders/2p/02m_5p7958535cp2tpgps0400000gn/T//ccHnEWZO.s 			page 71


  52:../libDaisy/src/util/CpuLoadMeter.h ****     {
 2261              		.loc 3 52 10 view .LVU637
 2262              	.LBB522:
  54:../libDaisy/src/util/CpuLoadMeter.h ****         const auto ticksPassed = end - currentBlockStartTicks_;
 2263              		.loc 3 54 9 view .LVU638
  54:../libDaisy/src/util/CpuLoadMeter.h ****         const auto ticksPassed = end - currentBlockStartTicks_;
 2264              		.loc 3 54 49 is_stmt 0 view .LVU639
 2265 0072 FFF7FEFF 		bl	_ZN5daisy6System7GetTickEv
 2266              	.LVL158:
  55:../libDaisy/src/util/CpuLoadMeter.h ****         const auto currentBlockLoad
 2267              		.loc 3 55 9 is_stmt 1 view .LVU640
  56:../libDaisy/src/util/CpuLoadMeter.h ****             = float(ticksPassed) * ticksPerBlockInv_; // usPassed / usPerBlock
 2268              		.loc 3 56 9 view .LVU641
  55:../libDaisy/src/util/CpuLoadMeter.h ****         const auto currentBlockLoad
 2269              		.loc 3 55 20 is_stmt 0 view .LVU642
 2270 0076 A368     		ldr	r3, [r4, #8]
  56:../libDaisy/src/util/CpuLoadMeter.h ****             = float(ticksPassed) * ticksPerBlockInv_; // usPassed / usPerBlock
 2271              		.loc 3 56 20 view .LVU643
 2272 0078 94ED017A 		vldr.32	s14, [r4, #4]
  55:../libDaisy/src/util/CpuLoadMeter.h ****         const auto currentBlockLoad
 2273              		.loc 3 55 20 view .LVU644
 2274 007c C31A     		subs	r3, r0, r3
 2275              	.LVL159:
  55:../libDaisy/src/util/CpuLoadMeter.h ****         const auto currentBlockLoad
 2276              		.loc 3 55 20 view .LVU645
 2277 007e 07EE903A 		vmov	s15, r3	@ int
  59:../libDaisy/src/util/CpuLoadMeter.h ****         {
 2278              		.loc 3 59 9 view .LVU646
 2279 0082 2378     		ldrb	r3, [r4]	@ zero_extendqisi2
 2280              	.LVL160:
  57:../libDaisy/src/util/CpuLoadMeter.h **** 
 2281              		.loc 3 57 15 view .LVU647
 2282 0084 F8EE677A 		vcvt.f32.u32	s15, s15
 2283              	.LVL161:
  56:../libDaisy/src/util/CpuLoadMeter.h ****             = float(ticksPassed) * ticksPerBlockInv_; // usPassed / usPerBlock
 2284              		.loc 3 56 20 view .LVU648
 2285 0088 67EE877A 		vmul.f32	s15, s15, s14
 2286              	.LVL162:
  59:../libDaisy/src/util/CpuLoadMeter.h ****         {
 2287              		.loc 3 59 9 is_stmt 1 view .LVU649
 2288 008c 4BB1     		cbz	r3, .L98
  61:../libDaisy/src/util/CpuLoadMeter.h ****             firstCycle_        = false;
 2289              		.loc 3 61 13 view .LVU650
  62:../libDaisy/src/util/CpuLoadMeter.h ****         }
 2290              		.loc 3 62 32 is_stmt 0 view .LVU651
 2291 008e 0023     		movs	r3, #0
  61:../libDaisy/src/util/CpuLoadMeter.h ****             firstCycle_        = false;
 2292              		.loc 3 61 32 view .LVU652
 2293 0090 C4ED057A 		vstr.32	s15, [r4, #20]
  61:../libDaisy/src/util/CpuLoadMeter.h ****             firstCycle_        = false;
 2294              		.loc 3 61 25 view .LVU653
 2295 0094 C4ED037A 		vstr.32	s15, [r4, #12]
  61:../libDaisy/src/util/CpuLoadMeter.h ****             firstCycle_        = false;
 2296              		.loc 3 61 18 view .LVU654
 2297 0098 C4ED047A 		vstr.32	s15, [r4, #16]
  62:../libDaisy/src/util/CpuLoadMeter.h ****         }
 2298              		.loc 3 62 13 is_stmt 1 view .LVU655
ARM GAS  /var/folders/2p/02m_5p7958535cp2tpgps0400000gn/T//ccHnEWZO.s 			page 72


  62:../libDaisy/src/util/CpuLoadMeter.h ****         }
 2299              		.loc 3 62 32 is_stmt 0 view .LVU656
 2300 009c 2370     		strb	r3, [r4]
 2301              	.LVL163:
 2302              	.L95:
  62:../libDaisy/src/util/CpuLoadMeter.h ****         }
 2303              		.loc 3 62 32 view .LVU657
 2304              	.LBE522:
 2305              	.LBE521:
 548:GrannyChordApp.cpp **** 
 2306              		.loc 2 548 1 view .LVU658
 2307 009e 07B0     		add	sp, sp, #28
 2308              		.cfi_remember_state
 2309              		.cfi_def_cfa_offset 20
 2310              		@ sp needed
 2311 00a0 F0BD     		pop	{r4, r5, r6, r7, pc}
 2312              	.LVL164:
 2313              	.L98:
 2314              		.cfi_restore_state
 2315              	.LBB524:
 2316              	.LBB523:
  66:../libDaisy/src/util/CpuLoadMeter.h ****                 max_ = currentBlockLoad;
 2317              		.loc 3 66 13 is_stmt 1 view .LVU659
 2318 00a2 94ED047A 		vldr.32	s14, [r4, #16]
  71:../libDaisy/src/util/CpuLoadMeter.h ****                    + (1.0f - smoothingConstant_) * avg_;
 2319              		.loc 3 71 20 is_stmt 0 view .LVU660
 2320 00a6 D4ED066A 		vldr.32	s13, [r4, #24]
  66:../libDaisy/src/util/CpuLoadMeter.h ****                 max_ = currentBlockLoad;
 2321              		.loc 3 66 13 view .LVU661
 2322 00aa F4EEC77A 		vcmpe.f32	s15, s14
  68:../libDaisy/src/util/CpuLoadMeter.h ****                 min_ = currentBlockLoad;
 2323              		.loc 3 68 13 view .LVU662
 2324 00ae 94ED037A 		vldr.32	s14, [r4, #12]
  72:../libDaisy/src/util/CpuLoadMeter.h ****         }
 2325              		.loc 3 72 50 view .LVU663
 2326 00b2 94ED056A 		vldr.32	s12, [r4, #20]
  66:../libDaisy/src/util/CpuLoadMeter.h ****                 max_ = currentBlockLoad;
 2327              		.loc 3 66 13 view .LVU664
 2328 00b6 F1EE10FA 		vmrs	APSR_nzcv, FPSCR
  67:../libDaisy/src/util/CpuLoadMeter.h ****             if(currentBlockLoad < min_)
 2329              		.loc 3 67 17 is_stmt 1 view .LVU665
  68:../libDaisy/src/util/CpuLoadMeter.h ****                 min_ = currentBlockLoad;
 2330              		.loc 3 68 13 is_stmt 0 view .LVU666
 2331 00ba F4EEC77A 		vcmpe.f32	s15, s14
  72:../libDaisy/src/util/CpuLoadMeter.h ****         }
 2332              		.loc 3 72 28 view .LVU667
 2333 00be B7EE007A 		vmov.f32	s14, #1.0e+0
  67:../libDaisy/src/util/CpuLoadMeter.h ****             if(currentBlockLoad < min_)
 2334              		.loc 3 67 22 view .LVU668
 2335 00c2 C8BF     		it	gt
 2336 00c4 C4ED047A 		vstrgt.32	s15, [r4, #16]
  68:../libDaisy/src/util/CpuLoadMeter.h ****                 min_ = currentBlockLoad;
 2337              		.loc 3 68 13 is_stmt 1 view .LVU669
 2338 00c8 F1EE10FA 		vmrs	APSR_nzcv, FPSCR
  69:../libDaisy/src/util/CpuLoadMeter.h **** 
 2339              		.loc 3 69 17 view .LVU670
  72:../libDaisy/src/util/CpuLoadMeter.h ****         }
ARM GAS  /var/folders/2p/02m_5p7958535cp2tpgps0400000gn/T//ccHnEWZO.s 			page 73


 2340              		.loc 3 72 28 is_stmt 0 view .LVU671
 2341 00cc 37EE667A 		vsub.f32	s14, s14, s13
  69:../libDaisy/src/util/CpuLoadMeter.h **** 
 2342              		.loc 3 69 22 view .LVU672
 2343 00d0 48BF     		it	mi
 2344 00d2 C4ED037A 		vstrmi.32	s15, [r4, #12]
  71:../libDaisy/src/util/CpuLoadMeter.h ****                    + (1.0f - smoothingConstant_) * avg_;
 2345              		.loc 3 71 13 is_stmt 1 view .LVU673
  72:../libDaisy/src/util/CpuLoadMeter.h ****         }
 2346              		.loc 3 72 50 is_stmt 0 view .LVU674
 2347 00d6 27EE067A 		vmul.f32	s14, s14, s12
  72:../libDaisy/src/util/CpuLoadMeter.h ****         }
 2348              		.loc 3 72 20 view .LVU675
 2349 00da A7EEA67A 		vfma.f32	s14, s15, s13
  71:../libDaisy/src/util/CpuLoadMeter.h ****                    + (1.0f - smoothingConstant_) * avg_;
 2350              		.loc 3 71 18 view .LVU676
 2351 00de 84ED057A 		vstr.32	s14, [r4, #20]
 2352              	.LVL165:
  71:../libDaisy/src/util/CpuLoadMeter.h ****                    + (1.0f - smoothingConstant_) * avg_;
 2353              		.loc 3 71 18 view .LVU677
 2354              	.LBE523:
 2355              	.LBE524:
 548:GrannyChordApp.cpp **** 
 2356              		.loc 2 548 1 view .LVU678
 2357 00e2 DCE7     		b	.L95
 2358              		.cfi_endproc
 2359              	.LFE4942:
 2361              		.section	.rodata._ZN14GrannyChordApp12ProcessAudioEPKPKfPPfj.str1.1,"aMS",%progbits,1
 2362              	.LC11:
 2363 0000 73746F70 		.ascii	"stopped audio > len\000"
 2363      70656420 
 2363      61756469 
 2363      6F203E20 
 2363      6C656E00 
 2364              		.section	.text._ZN14GrannyChordApp12ProcessAudioEPKPKfPPfj,"ax",%progbits
 2365              		.align	1
 2366              		.global	_ZN14GrannyChordApp12ProcessAudioEPKPKfPPfj
 2367              		.syntax unified
 2368              		.thumb
 2369              		.thumb_func
 2371              	_ZN14GrannyChordApp12ProcessAudioEPKPKfPPfj:
 2372              	.LVL166:
 2373              	.LFB4939:
 462:GrannyChordApp.cpp ****   switch(curr_state_){
 2374              		.loc 2 462 107 is_stmt 1 view -0
 2375              		.cfi_startproc
 2376              		@ args = 0, pretend = 0, frame = 0
 2377              		@ frame_needed = 0, uses_anonymous_args = 0
 463:GrannyChordApp.cpp ****     case AppState::PlayWAV:
 2378              		.loc 2 463 3 view .LVU680
 462:GrannyChordApp.cpp ****   switch(curr_state_){
 2379              		.loc 2 462 107 is_stmt 0 view .LVU681
 2380 0000 1146     		mov	r1, r2
 2381              	.LVL167:
 462:GrannyChordApp.cpp ****   switch(curr_state_){
 2382              		.loc 2 462 107 view .LVU682
 2383 0002 1A46     		mov	r2, r3
ARM GAS  /var/folders/2p/02m_5p7958535cp2tpgps0400000gn/T//ccHnEWZO.s 			page 74


 2384              	.LVL168:
 463:GrannyChordApp.cpp ****     case AppState::PlayWAV:
 2385              		.loc 2 463 10 view .LVU683
 2386 0004 D0F8E430 		ldr	r3, [r0, #228]
 2387              	.LVL169:
 463:GrannyChordApp.cpp ****     case AppState::PlayWAV:
 2388              		.loc 2 463 3 view .LVU684
 2389 0008 012B     		cmp	r3, #1
 462:GrannyChordApp.cpp ****   switch(curr_state_){
 2390              		.loc 2 462 107 view .LVU685
 2391 000a 70B5     		push	{r4, r5, r6, lr}
 2392              		.cfi_def_cfa_offset 16
 2393              		.cfi_offset 4, -16
 2394              		.cfi_offset 5, -12
 2395              		.cfi_offset 6, -8
 2396              		.cfi_offset 14, -4
 463:GrannyChordApp.cpp ****     case AppState::PlayWAV:
 2397              		.loc 2 463 3 view .LVU686
 2398 000c 02D0     		beq	.L107
 2399 000e 022B     		cmp	r3, #2
 2400 0010 1CD0     		beq	.L108
 483:GrannyChordApp.cpp **** 
 2401              		.loc 2 483 1 view .LVU687
 2402 0012 70BD     		pop	{r4, r5, r6, pc}
 2403              	.L107:
 2404              	.LVL170:
 2405              	.LBB531:
 2406              	.LBI531:
 462:GrannyChordApp.cpp ****   switch(curr_state_){
 2407              		.loc 2 462 6 is_stmt 1 view .LVU688
 2408              	.LBB532:
 464:GrannyChordApp.cpp ****       if (wav_playhead_>= filemgr_.GetSamplesPerChannel() -1){
 2409              		.loc 2 464 5 view .LVU689
 465:GrannyChordApp.cpp ****         instance_->pod_.StopAudio();
 2410              		.loc 2 465 7 view .LVU690
 465:GrannyChordApp.cpp ****         instance_->pod_.StopAudio();
 2411              		.loc 2 465 27 is_stmt 0 view .LVU691
 2412 0014 D0F8DC30 		ldr	r3, [r0, #220]
 2413              	.LVL171:
 2414              	.LBB533:
 2415              	.LBI533:
  27:AudioFileManager.h ****     size_t GetTotalSamples() const { return header_.total_samples; }
 2416              		.loc 8 27 12 is_stmt 1 view .LVU692
 2417              	.LBB534:
  27:AudioFileManager.h ****     size_t GetTotalSamples() const { return header_.total_samples; }
 2418              		.loc 8 27 43 view .LVU693
  27:AudioFileManager.h ****     size_t GetTotalSamples() const { return header_.total_samples; }
 2419              		.loc 8 27 58 is_stmt 0 view .LVU694
 2420 0018 03F58053 		add	r3, r3, #4096
  27:AudioFileManager.h ****     size_t GetTotalSamples() const { return header_.total_samples; }
 2421              		.loc 8 27 82 view .LVU695
 2422 001c B3F92860 		ldrsh	r6, [r3, #40]
 2423 0020 DC6A     		ldr	r4, [r3, #44]
 2424              	.LBE534:
 2425              	.LBE533:
 465:GrannyChordApp.cpp ****         instance_->pod_.StopAudio();
 2426              		.loc 2 465 7 view .LVU696
ARM GAS  /var/folders/2p/02m_5p7958535cp2tpgps0400000gn/T//ccHnEWZO.s 			page 75


 2427 0022 D0F8BC31 		ldr	r3, [r0, #444]
 2428              	.LBB536:
 2429              	.LBB535:
  27:AudioFileManager.h ****     size_t GetTotalSamples() const { return header_.total_samples; }
 2430              		.loc 8 27 82 view .LVU697
 2431 0026 B4FBF6F4 		udiv	r4, r4, r6
 2432              	.LBE535:
 2433              	.LBE536:
 465:GrannyChordApp.cpp ****         instance_->pod_.StopAudio();
 2434              		.loc 2 465 59 view .LVU698
 2435 002a 013C     		subs	r4, r4, #1
 465:GrannyChordApp.cpp ****         instance_->pod_.StopAudio();
 2436              		.loc 2 465 7 view .LVU699
 2437 002c A342     		cmp	r3, r4
 2438 002e 09D3     		bcc	.L110
 466:GrannyChordApp.cpp ****         DebugPrint(pod_, "stopped audio > len"); 
 2439              		.loc 2 466 9 is_stmt 1 view .LVU700
 466:GrannyChordApp.cpp ****         DebugPrint(pod_, "stopped audio > len"); 
 2440              		.loc 2 466 34 is_stmt 0 view .LVU701
 2441 0030 084B     		ldr	r3, .L112
 466:GrannyChordApp.cpp ****         DebugPrint(pod_, "stopped audio > len"); 
 2442              		.loc 2 466 20 view .LVU702
 2443 0032 1B68     		ldr	r3, [r3]
 466:GrannyChordApp.cpp ****         DebugPrint(pod_, "stopped audio > len"); 
 2444              		.loc 2 466 34 view .LVU703
 2445 0034 D869     		ldr	r0, [r3, #28]
 2446              	.LVL172:
 466:GrannyChordApp.cpp ****         DebugPrint(pod_, "stopped audio > len"); 
 2447              		.loc 2 466 34 view .LVU704
 2448 0036 FFF7FEFF 		bl	_ZN5daisy8DaisyPod9StopAudioEv
 2449              	.LVL173:
 467:GrannyChordApp.cpp ****         return;
 2450              		.loc 2 467 9 is_stmt 1 view .LVU705
 467:GrannyChordApp.cpp ****         return;
 2451              		.loc 2 467 9 view .LVU706
 2452              	.LBB537:
 2453              	.LBI537:
 126:../libDaisy/src/daisy_seed.h ****     {
 2454              		.loc 4 126 17 view .LVU707
 2455              	.LBB538:
 2456              		.loc 4 128 23 is_stmt 0 view .LVU708
 2457 003a 0748     		ldr	r0, .L112+4
 2458              	.LBE538:
 2459              	.LBE537:
 2460              	.LBE532:
 2461              	.LBE531:
 483:GrannyChordApp.cpp **** 
 2462              		.loc 2 483 1 view .LVU709
 2463 003c BDE87040 		pop	{r4, r5, r6, lr}
 2464              		.cfi_remember_state
 2465              		.cfi_restore 14
 2466              		.cfi_restore 6
 2467              		.cfi_restore 5
 2468              		.cfi_restore 4
 2469              		.cfi_def_cfa_offset 0
 2470              	.LBB543:
 2471              	.LBB541:
ARM GAS  /var/folders/2p/02m_5p7958535cp2tpgps0400000gn/T//ccHnEWZO.s 			page 76


 2472              	.LBB540:
 2473              	.LBB539:
 2474              		.loc 4 128 23 view .LVU710
 2475 0040 FFF7FEBF 		b	_ZN5daisy6LoggerILNS_17LoggerDestinationE1EE9PrintLineEPKcz
 2476              	.LVL174:
 2477              	.L110:
 2478              		.cfi_restore_state
 2479              		.loc 4 128 23 view .LVU711
 2480              	.LBE539:
 2481              	.LBE540:
 470:GrannyChordApp.cpp ****       return;  
 2482              		.loc 2 470 7 is_stmt 1 view .LVU712
 2483              	.LBE541:
 2484              	.LBE543:
 483:GrannyChordApp.cpp **** 
 2485              		.loc 2 483 1 is_stmt 0 view .LVU713
 2486 0044 BDE87040 		pop	{r4, r5, r6, lr}
 2487              		.cfi_remember_state
 2488              		.cfi_restore 14
 2489              		.cfi_restore 6
 2490              		.cfi_restore 5
 2491              		.cfi_restore 4
 2492              		.cfi_def_cfa_offset 0
 2493              	.LBB544:
 2494              	.LBB542:
 470:GrannyChordApp.cpp ****       return;  
 2495              		.loc 2 470 25 view .LVU714
 2496 0048 FFF7FEBF 		b	_ZN14GrannyChordApp18ProcessWAVPlaybackEPPfj
 2497              	.LVL175:
 2498              	.L108:
 2499              		.cfi_restore_state
 470:GrannyChordApp.cpp ****       return;  
 2500              		.loc 2 470 25 view .LVU715
 2501              	.LBE542:
 2502              	.LBE544:
 475:GrannyChordApp.cpp ****       ProcessSynthesis(out,size);
 2503              		.loc 2 475 5 is_stmt 1 view .LVU716
 476:GrannyChordApp.cpp ****       return;
 2504              		.loc 2 476 7 view .LVU717
 483:GrannyChordApp.cpp **** 
 2505              		.loc 2 483 1 is_stmt 0 view .LVU718
 2506 004c BDE87040 		pop	{r4, r5, r6, lr}
 2507              		.cfi_restore 14
 2508              		.cfi_restore 6
 2509              		.cfi_restore 5
 2510              		.cfi_restore 4
 2511              		.cfi_def_cfa_offset 0
 476:GrannyChordApp.cpp ****       return;
 2512              		.loc 2 476 23 view .LVU719
 2513 0050 FFF7FEBF 		b	_ZN14GrannyChordApp16ProcessSynthesisEPPfj
 2514              	.LVL176:
 2515              	.L113:
 476:GrannyChordApp.cpp ****       return;
 2516              		.loc 2 476 23 view .LVU720
 2517              		.align	2
 2518              	.L112:
 2519 0054 00000000 		.word	.LANCHOR0
ARM GAS  /var/folders/2p/02m_5p7958535cp2tpgps0400000gn/T//ccHnEWZO.s 			page 77


 2520 0058 00000000 		.word	.LC11
 2521              		.cfi_endproc
 2522              	.LFE4939:
 2524              		.section	.text._ZN14GrannyChordApp13AudioCallbackEPKPKfPPfj,"ax",%progbits
 2525              		.align	1
 2526              		.global	_ZN14GrannyChordApp13AudioCallbackEPKPKfPPfj
 2527              		.syntax unified
 2528              		.thumb
 2529              		.thumb_func
 2531              	_ZN14GrannyChordApp13AudioCallbackEPKPKfPPfj:
 2532              	.LVL177:
 2533              	.LFB4938:
 458:GrannyChordApp.cpp ****   instance_->ProcessAudio(in,out,size);
 2534              		.loc 2 458 108 is_stmt 1 view -0
 2535              		.cfi_startproc
 2536              		@ args = 0, pretend = 0, frame = 0
 2537              		@ frame_needed = 0, uses_anonymous_args = 0
 2538              		@ link register save eliminated.
 459:GrannyChordApp.cpp **** }
 2539              		.loc 2 459 3 view .LVU722
 458:GrannyChordApp.cpp ****   instance_->ProcessAudio(in,out,size);
 2540              		.loc 2 458 108 is_stmt 0 view .LVU723
 2541 0000 1346     		mov	r3, r2
 459:GrannyChordApp.cpp **** }
 2542              		.loc 2 459 26 view .LVU724
 2543 0002 0A46     		mov	r2, r1
 2544              	.LVL178:
 459:GrannyChordApp.cpp **** }
 2545              		.loc 2 459 26 view .LVU725
 2546 0004 0146     		mov	r1, r0
 2547              	.LVL179:
 459:GrannyChordApp.cpp **** }
 2548              		.loc 2 459 26 view .LVU726
 2549 0006 0248     		ldr	r0, .L115
 2550              	.LVL180:
 459:GrannyChordApp.cpp **** }
 2551              		.loc 2 459 26 view .LVU727
 2552 0008 0068     		ldr	r0, [r0]
 2553 000a FFF7FEBF 		b	_ZN14GrannyChordApp12ProcessAudioEPKPKfPPfj
 2554              	.LVL181:
 2555              	.L116:
 459:GrannyChordApp.cpp **** }
 2556              		.loc 2 459 26 view .LVU728
 2557 000e 00BF     		.align	2
 2558              	.L115:
 2559 0010 00000000 		.word	.LANCHOR0
 2560              		.cfi_endproc
 2561              	.LFE4938:
 2563              		.section	.rodata._ZN14GrannyChordApp13RecordOutToSDEv.str1.1,"aMS",%progbits,1
 2564              	.LC12:
 2565 0000 7265636F 		.ascii	"recording_%d\000"
 2565      7264696E 
 2565      675F2564 
 2565      00
 2566              		.section	.text._ZN14GrannyChordApp13RecordOutToSDEv,"ax",%progbits
 2567              		.align	1
 2568              		.global	_ZN14GrannyChordApp13RecordOutToSDEv
ARM GAS  /var/folders/2p/02m_5p7958535cp2tpgps0400000gn/T//ccHnEWZO.s 			page 78


 2569              		.syntax unified
 2570              		.thumb
 2571              		.thumb_func
 2573              	_ZN14GrannyChordApp13RecordOutToSDEv:
 2574              	.LVL182:
 2575              	.LFB4944:
 567:GrannyChordApp.cpp **** 
 568:GrannyChordApp.cpp **** /// @brief Process audio from chord mode and mix to output buffer
 569:GrannyChordApp.cpp **** /// @param out Output audio buffer
 570:GrannyChordApp.cpp **** /// @param size Number of samples to process in this call
 571:GrannyChordApp.cpp **** // void GrannyChordApp::ProcessChordMode(AudioHandle::OutputBuffer out, size_t size){
 572:GrannyChordApp.cpp **** //   // if (UserTriggeredChord()) {
 573:GrannyChordApp.cpp **** //   //   synth_.TriggerChord(out[0], out[1], size);
 574:GrannyChordApp.cpp **** //   // } else {
 575:GrannyChordApp.cpp **** //   //     std::memset(out[0], 0, size * sizeof(float));
 576:GrannyChordApp.cpp **** //   //     std::memset(out[1], 0, size * sizeof(float));
 577:GrannyChordApp.cpp **** //   // }
 578:GrannyChordApp.cpp **** // }
 579:GrannyChordApp.cpp **** 
 580:GrannyChordApp.cpp **** /// @brief Record granular synth or chord output audio to SD card
 581:GrannyChordApp.cpp **** /// @param out Output audio buffer
 582:GrannyChordApp.cpp **** /// @param size Number of samples to process in this call
 583:GrannyChordApp.cpp **** void GrannyChordApp::RecordOutToSD(){
 2576              		.loc 2 583 37 is_stmt 1 view -0
 2577              		.cfi_startproc
 2578              		@ args = 0, pretend = 0, frame = 40
 2579              		@ frame_needed = 0, uses_anonymous_args = 0
 584:GrannyChordApp.cpp ****   InitWavWriter();
 2580              		.loc 2 584 3 view .LVU730
 583:GrannyChordApp.cpp ****   InitWavWriter();
 2581              		.loc 2 583 37 is_stmt 0 view .LVU731
 2582 0000 F0B5     		push	{r4, r5, r6, r7, lr}
 2583              		.cfi_def_cfa_offset 20
 2584              		.cfi_offset 4, -20
 2585              		.cfi_offset 5, -16
 2586              		.cfi_offset 6, -12
 2587              		.cfi_offset 7, -8
 2588              		.cfi_offset 14, -4
 585:GrannyChordApp.cpp ****   char name[32];
 586:GrannyChordApp.cpp ****   sprintf(name,"recording_%d",recording_count_);
 2589              		.loc 2 586 10 view .LVU732
 2590 0002 00F50045 		add	r5, r0, #32768
 583:GrannyChordApp.cpp ****   InitWavWriter();
 2591              		.loc 2 583 37 view .LVU733
 2592 0006 8BB0     		sub	sp, sp, #44
 2593              		.cfi_def_cfa_offset 64
 583:GrannyChordApp.cpp ****   InitWavWriter();
 2594              		.loc 2 583 37 view .LVU734
 2595 0008 0446     		mov	r4, r0
 584:GrannyChordApp.cpp ****   char name[32];
 2596              		.loc 2 584 16 view .LVU735
 2597 000a FFF7FEFF 		bl	_ZN14GrannyChordApp13InitWavWriterEv
 2598              	.LVL183:
 585:GrannyChordApp.cpp ****   char name[32];
 2599              		.loc 2 585 3 is_stmt 1 view .LVU736
 2600              		.loc 2 586 3 view .LVU737
 2601              		.loc 2 586 10 is_stmt 0 view .LVU738
ARM GAS  /var/folders/2p/02m_5p7958535cp2tpgps0400000gn/T//ccHnEWZO.s 			page 79


 2602 000e D5F80425 		ldr	r2, [r5, #1284]
 2603 0012 02A8     		add	r0, sp, #8
 2604              	.LVL184:
 2605              		.loc 2 586 10 view .LVU739
 2606 0014 1249     		ldr	r1, .L120
 2607              	.LBB549:
 2608              	.LBB550:
 157:../libDaisy/src/util/WavWriter.h ****         {
 2609              		.loc 9 157 18 view .LVU740
 2610 0016 04F50246 		add	r6, r4, #33280
 2611              	.LBE550:
 2612              	.LBE549:
 2613              		.loc 2 586 10 view .LVU741
 2614 001a FFF7FEFF 		bl	sprintf
 2615              	.LVL185:
 587:GrannyChordApp.cpp ****   recording_count_++;
 2616              		.loc 2 587 3 is_stmt 1 view .LVU742
 2617              		.loc 2 587 19 is_stmt 0 view .LVU743
 2618 001e D5F80435 		ldr	r3, [r5, #1284]
 2619              	.LBB555:
 2620              	.LBB552:
 157:../libDaisy/src/util/WavWriter.h ****         {
 2621              		.loc 9 157 18 view .LVU744
 2622 0022 CC36     		adds	r6, r6, #204
 2623 0024 0A22     		movs	r2, #10
 2624              	.LBE552:
 2625              	.LBE555:
 2626              		.loc 2 587 19 view .LVU745
 2627 0026 0133     		adds	r3, r3, #1
 2628              	.LBB556:
 2629              	.LBB553:
 157:../libDaisy/src/util/WavWriter.h ****         {
 2630              		.loc 9 157 18 view .LVU746
 2631 0028 02A9     		add	r1, sp, #8
 2632 002a 3046     		mov	r0, r6
 2633 002c 04F52177 		add	r7, r4, #644
 2634              	.LBE553:
 2635              	.LBE556:
 2636              		.loc 2 587 19 view .LVU747
 2637 0030 C5F80435 		str	r3, [r5, #1284]
 588:GrannyChordApp.cpp ****   sd_writer_.OpenFile(name);
 2638              		.loc 2 588 3 is_stmt 1 view .LVU748
 2639              	.LVL186:
 2640              	.LBB557:
 2641              	.LBI549:
 155:../libDaisy/src/util/WavWriter.h ****     {
 2642              		.loc 9 155 10 view .LVU749
 2643              	.LBB554:
 157:../libDaisy/src/util/WavWriter.h ****         {
 2644              		.loc 9 157 18 is_stmt 0 view .LVU750
 2645 0034 FFF7FEFF 		bl	f_open
 2646              	.LVL187:
 157:../libDaisy/src/util/WavWriter.h ****         {
 2647              		.loc 9 157 9 view .LVU751
 2648 0038 60B9     		cbnz	r0, .L118
 2649              	.LBB551:
 159:../libDaisy/src/util/WavWriter.h ****             if(f_write(&fp_, &wavheader_, sizeof(wavheader_), &bw) == FR_OK)
ARM GAS  /var/folders/2p/02m_5p7958535cp2tpgps0400000gn/T//ccHnEWZO.s 			page 80


 2650              		.loc 9 159 26 view .LVU752
 2651 003a 0190     		str	r0, [sp, #4]
 160:../libDaisy/src/util/WavWriter.h ****             {
 2652              		.loc 9 160 23 view .LVU753
 2653 003c 01AB     		add	r3, sp, #4
 2654 003e 2C22     		movs	r2, #44
 2655 0040 3946     		mov	r1, r7
 2656 0042 3046     		mov	r0, r6
 2657 0044 FFF7FEFF 		bl	f_write
 2658              	.LVL188:
 160:../libDaisy/src/util/WavWriter.h ****             {
 2659              		.loc 9 160 13 view .LVU754
 2660 0048 20B9     		cbnz	r0, .L118
 162:../libDaisy/src/util/WavWriter.h ****                 num_samps_ = 0;
 2661              		.loc 9 162 28 view .LVU755
 2662 004a 0123     		movs	r3, #1
 2663 004c 85F8C832 		strb	r3, [r5, #712]
 163:../libDaisy/src/util/WavWriter.h ****             }
 2664              		.loc 9 163 28 view .LVU756
 2665 0050 C4F8B002 		str	r0, [r4, #688]
 2666              	.L118:
 2667              	.LVL189:
 163:../libDaisy/src/util/WavWriter.h ****             }
 2668              		.loc 9 163 28 view .LVU757
 2669              	.LBE551:
 2670              	.LBE554:
 2671              	.LBE557:
 589:GrannyChordApp.cpp ****   recording_out_ = true;
 2672              		.loc 2 589 3 is_stmt 1 view .LVU758
 2673              		.loc 2 589 18 is_stmt 0 view .LVU759
 2674 0054 0123     		movs	r3, #1
 2675 0056 85F80035 		strb	r3, [r5, #1280]
 590:GrannyChordApp.cpp **** }
 2676              		.loc 2 590 1 view .LVU760
 2677 005a 0BB0     		add	sp, sp, #44
 2678              		.cfi_def_cfa_offset 20
 2679              		@ sp needed
 2680 005c F0BD     		pop	{r4, r5, r6, r7, pc}
 2681              	.LVL190:
 2682              	.L121:
 2683              		.loc 2 590 1 view .LVU761
 2684 005e 00BF     		.align	2
 2685              	.L120:
 2686 0060 00000000 		.word	.LC12
 2687              		.cfi_endproc
 2688              	.LFE4944:
 2690              		.section	.text._ZN14GrannyChordApp17UpdateKnob1ParamsEf9SynthMode,"ax",%progbits
 2691              		.align	1
 2692              		.global	_ZN14GrannyChordApp17UpdateKnob1ParamsEf9SynthMode
 2693              		.syntax unified
 2694              		.thumb
 2695              		.thumb_func
 2697              	_ZN14GrannyChordApp17UpdateKnob1ParamsEf9SynthMode:
 2698              	.LVL191:
 2699              	.LFB4946:
 591:GrannyChordApp.cpp **** 
 592:GrannyChordApp.cpp **** /// @brief cleans up after recording to SD card is finished
ARM GAS  /var/folders/2p/02m_5p7958535cp2tpgps0400000gn/T//ccHnEWZO.s 			page 81


 593:GrannyChordApp.cpp **** void GrannyChordApp::FinishRecording(){
 594:GrannyChordApp.cpp ****   sd_writer_.SaveFile();
 595:GrannyChordApp.cpp ****   recording_out_=false;
 596:GrannyChordApp.cpp **** }
 597:GrannyChordApp.cpp **** 
 598:GrannyChordApp.cpp **** /// @brief Updates synth parameters from hardware knob 1 input
 599:GrannyChordApp.cpp **** /// @param knob1_val float between 0-1 from knob input
 600:GrannyChordApp.cpp **** /// @param mode current synth mode that determines which parameters to update
 601:GrannyChordApp.cpp **** void GrannyChordApp::UpdateKnob1Params(float knob1_val, SynthMode mode){
 2700              		.loc 2 601 72 is_stmt 1 view -0
 2701              		.cfi_startproc
 2702              		@ args = 0, pretend = 0, frame = 0
 2703              		@ frame_needed = 0, uses_anonymous_args = 0
 2704              		@ link register save eliminated.
 602:GrannyChordApp.cpp ****   switch (mode){
 2705              		.loc 2 602 3 view .LVU763
 2706 0000 0329     		cmp	r1, #3
 2707 0002 20D8     		bhi	.L122
 2708 0004 DFE801F0 		tbb	[pc, r1]
 2709              	.L125:
 2710 0008 02       		.byte	(.L128-.L125)/2
 2711 0009 05       		.byte	(.L127-.L125)/2
 2712 000a 08       		.byte	(.L126-.L125)/2
 2713 000b 0D       		.byte	(.L124-.L125)/2
 2714              		.p2align 1
 2715              	.L128:
 603:GrannyChordApp.cpp ****     case SynthMode::Size_Position:
 2716              		.loc 2 603 5 view .LVU764
 604:GrannyChordApp.cpp ****       synth_.SetGrainSize(knob1_val);
 2717              		.loc 2 604 7 view .LVU765
 2718              		.loc 2 604 26 is_stmt 0 view .LVU766
 2719 000c 2030     		adds	r0, r0, #32
 2720              	.LVL192:
 2721              		.loc 2 604 26 view .LVU767
 2722 000e FFF7FEBF 		b	_ZN13GranularSynth12SetGrainSizeEf
 2723              	.LVL193:
 2724              	.L127:
 605:GrannyChordApp.cpp ****       break;
 606:GrannyChordApp.cpp ****     case SynthMode::Pitch_ActiveGrains:
 2725              		.loc 2 606 5 is_stmt 1 view .LVU768
 607:GrannyChordApp.cpp ****       synth_.SetPitchRatio(knob1_val);
 2726              		.loc 2 607 7 view .LVU769
 2727              		.loc 2 607 27 is_stmt 0 view .LVU770
 2728 0012 2030     		adds	r0, r0, #32
 2729              	.LVL194:
 2730              		.loc 2 607 27 view .LVU771
 2731 0014 FFF7FEBF 		b	_ZN13GranularSynth13SetPitchRatioEf
 2732              	.LVL195:
 2733              	.L126:
 608:GrannyChordApp.cpp ****       break;
 609:GrannyChordApp.cpp ****     case SynthMode::Reverb:
 2734              		.loc 2 609 5 is_stmt 1 view .LVU772
 610:GrannyChordApp.cpp ****        /* set reverb feedback ie tail length */
 611:GrannyChordApp.cpp ****       reverb_.SetFeedback(knob1_val);
 2735              		.loc 2 611 7 view .LVU773
 2736              	.LBB573:
 2737              	.LBI573:
ARM GAS  /var/folders/2p/02m_5p7958535cp2tpgps0400000gn/T//ccHnEWZO.s 			page 82


 2738              		.file 12 "../DaisySP/Source/../DaisySP-LGPL/Source/Effects/reverbsc.h"
   1:../DaisySP/Source/../DaisySP-LGPL/Source/Effects/reverbsc.h **** /*
   2:../DaisySP/Source/../DaisySP-LGPL/Source/Effects/reverbsc.h **** Copyright (c) 2023 Electrosmith, Corp, Sean Costello, Istvan Varga, Paul Batchelor
   3:../DaisySP/Source/../DaisySP-LGPL/Source/Effects/reverbsc.h **** 
   4:../DaisySP/Source/../DaisySP-LGPL/Source/Effects/reverbsc.h **** Use of this source code is governed by the LGPL V2.1
   5:../DaisySP/Source/../DaisySP-LGPL/Source/Effects/reverbsc.h **** license that can be found in the LICENSE file or at
   6:../DaisySP/Source/../DaisySP-LGPL/Source/Effects/reverbsc.h **** https://opensource.org/license/lgpl-2-1/
   7:../DaisySP/Source/../DaisySP-LGPL/Source/Effects/reverbsc.h **** */
   8:../DaisySP/Source/../DaisySP-LGPL/Source/Effects/reverbsc.h **** 
   9:../DaisySP/Source/../DaisySP-LGPL/Source/Effects/reverbsc.h **** #pragma once
  10:../DaisySP/Source/../DaisySP-LGPL/Source/Effects/reverbsc.h **** #ifndef DSYSP_REVERBSC_H
  11:../DaisySP/Source/../DaisySP-LGPL/Source/Effects/reverbsc.h **** #define DSYSP_REVERBSC_H
  12:../DaisySP/Source/../DaisySP-LGPL/Source/Effects/reverbsc.h **** 
  13:../DaisySP/Source/../DaisySP-LGPL/Source/Effects/reverbsc.h **** #define DSY_REVERBSC_MAX_SIZE 98936
  14:../DaisySP/Source/../DaisySP-LGPL/Source/Effects/reverbsc.h **** 
  15:../DaisySP/Source/../DaisySP-LGPL/Source/Effects/reverbsc.h **** namespace daisysp
  16:../DaisySP/Source/../DaisySP-LGPL/Source/Effects/reverbsc.h **** {
  17:../DaisySP/Source/../DaisySP-LGPL/Source/Effects/reverbsc.h **** /**Delay line for internal reverb use
  18:../DaisySP/Source/../DaisySP-LGPL/Source/Effects/reverbsc.h **** */
  19:../DaisySP/Source/../DaisySP-LGPL/Source/Effects/reverbsc.h **** typedef struct
  20:../DaisySP/Source/../DaisySP-LGPL/Source/Effects/reverbsc.h **** {
  21:../DaisySP/Source/../DaisySP-LGPL/Source/Effects/reverbsc.h ****     int    write_pos;         /**< write position */
  22:../DaisySP/Source/../DaisySP-LGPL/Source/Effects/reverbsc.h ****     int    buffer_size;       /**< buffer size */
  23:../DaisySP/Source/../DaisySP-LGPL/Source/Effects/reverbsc.h ****     int    read_pos;          /**< read position */
  24:../DaisySP/Source/../DaisySP-LGPL/Source/Effects/reverbsc.h ****     int    read_pos_frac;     /**< fractional component of read pos */
  25:../DaisySP/Source/../DaisySP-LGPL/Source/Effects/reverbsc.h ****     int    read_pos_frac_inc; /**< increment for fractional */
  26:../DaisySP/Source/../DaisySP-LGPL/Source/Effects/reverbsc.h ****     int    dummy;             /**<  dummy var */
  27:../DaisySP/Source/../DaisySP-LGPL/Source/Effects/reverbsc.h ****     int    seed_val;          /**< randseed */
  28:../DaisySP/Source/../DaisySP-LGPL/Source/Effects/reverbsc.h ****     int    rand_line_cnt;     /**< number of random lines */
  29:../DaisySP/Source/../DaisySP-LGPL/Source/Effects/reverbsc.h ****     float  filter_state;      /**< state of filter */
  30:../DaisySP/Source/../DaisySP-LGPL/Source/Effects/reverbsc.h ****     float *buf;               /**< buffer ptr */
  31:../DaisySP/Source/../DaisySP-LGPL/Source/Effects/reverbsc.h **** } ReverbScDl;
  32:../DaisySP/Source/../DaisySP-LGPL/Source/Effects/reverbsc.h **** 
  33:../DaisySP/Source/../DaisySP-LGPL/Source/Effects/reverbsc.h **** /** Stereo Reverb */
  34:../DaisySP/Source/../DaisySP-LGPL/Source/Effects/reverbsc.h **** class ReverbSc
  35:../DaisySP/Source/../DaisySP-LGPL/Source/Effects/reverbsc.h **** {
  36:../DaisySP/Source/../DaisySP-LGPL/Source/Effects/reverbsc.h ****   public:
  37:../DaisySP/Source/../DaisySP-LGPL/Source/Effects/reverbsc.h ****     ReverbSc() {}
  38:../DaisySP/Source/../DaisySP-LGPL/Source/Effects/reverbsc.h ****     ~ReverbSc() {}
  39:../DaisySP/Source/../DaisySP-LGPL/Source/Effects/reverbsc.h ****     /** Initializes the reverb module, and sets the sample_rate at which the Process function will 
  40:../DaisySP/Source/../DaisySP-LGPL/Source/Effects/reverbsc.h ****         Returns 0 if all good, or 1 if it runs out of delay times exceed maximum allowed.
  41:../DaisySP/Source/../DaisySP-LGPL/Source/Effects/reverbsc.h ****     */
  42:../DaisySP/Source/../DaisySP-LGPL/Source/Effects/reverbsc.h ****     int Init(float sample_rate);
  43:../DaisySP/Source/../DaisySP-LGPL/Source/Effects/reverbsc.h **** 
  44:../DaisySP/Source/../DaisySP-LGPL/Source/Effects/reverbsc.h ****     /** Process the input through the reverb, and updates values of out1, and out2 with the new pro
  45:../DaisySP/Source/../DaisySP-LGPL/Source/Effects/reverbsc.h ****     */
  46:../DaisySP/Source/../DaisySP-LGPL/Source/Effects/reverbsc.h ****     int Process(const float &in1, const float &in2, float *out1, float *out2);
  47:../DaisySP/Source/../DaisySP-LGPL/Source/Effects/reverbsc.h **** 
  48:../DaisySP/Source/../DaisySP-LGPL/Source/Effects/reverbsc.h ****     void ProcessMix(const float &in1, const float &in2, float *out1, float *out2);
  49:../DaisySP/Source/../DaisySP-LGPL/Source/Effects/reverbsc.h **** 
  50:../DaisySP/Source/../DaisySP-LGPL/Source/Effects/reverbsc.h ****     /** controls the reverb time. reverb tail becomes infinite when set to 1.0
  51:../DaisySP/Source/../DaisySP-LGPL/Source/Effects/reverbsc.h ****         \param fb - sets reverb time. range: 0.0 to 1.0
  52:../DaisySP/Source/../DaisySP-LGPL/Source/Effects/reverbsc.h ****     */
  53:../DaisySP/Source/../DaisySP-LGPL/Source/Effects/reverbsc.h ****     inline void SetFeedback(const float &fb) { feedback_ = fb; }
 2739              		.loc 12 53 17 view .LVU774
 2740              	.LBB574:
 2741              		.loc 12 53 48 view .LVU775
ARM GAS  /var/folders/2p/02m_5p7958535cp2tpgps0400000gn/T//ccHnEWZO.s 			page 83


 2742              		.loc 12 53 58 is_stmt 0 view .LVU776
 2743 0018 D0F83C31 		ldr	r3, [r0, #316]
 2744 001c 83ED000A 		vstr.32	s0, [r3]
 2745              		.loc 12 53 64 view .LVU777
 2746 0020 7047     		bx	lr
 2747              	.LVL196:
 2748              	.L124:
 2749              		.loc 12 53 64 view .LVU778
 2750              	.LBE574:
 2751              	.LBE573:
 2752              	.LBB575:
 2753              	.LBI575:
 601:GrannyChordApp.cpp ****   switch (mode){
 2754              		.loc 2 601 6 is_stmt 1 view .LVU779
 2755              	.LBB576:
 612:GrannyChordApp.cpp ****       break;
 613:GrannyChordApp.cpp ****     case SynthMode::Filter:
 2756              		.loc 2 613 5 view .LVU780
 614:GrannyChordApp.cpp ****       /* map knob value to frequency range with an exponential curve */
 615:GrannyChordApp.cpp ****       knob1_val = fmap(knob1_val, LOPASS_LOWER_BOUND, LOPASS_UPPER_BOUND, daisysp::Mapping::EXP);
 2757              		.loc 2 615 7 view .LVU781
 2758              	.LBB577:
 2759              	.LBI577:
 2760              		.file 13 "../DaisySP/Source/Utility/dsp.h"
   1:../DaisySP/Source/Utility/dsp.h **** /*
   2:../DaisySP/Source/Utility/dsp.h **** Copyright (c) 2020 Electrosmith, Corp, Emilie Gillet
   3:../DaisySP/Source/Utility/dsp.h **** 
   4:../DaisySP/Source/Utility/dsp.h **** Use of this source code is governed by an MIT-style
   5:../DaisySP/Source/Utility/dsp.h **** license that can be found in the LICENSE file or at
   6:../DaisySP/Source/Utility/dsp.h **** https://opensource.org/licenses/MIT.
   7:../DaisySP/Source/Utility/dsp.h **** */
   8:../DaisySP/Source/Utility/dsp.h **** 
   9:../DaisySP/Source/Utility/dsp.h **** /** Helpful defines, functions, and other utilities for use in/with daisysp modules.
  10:../DaisySP/Source/Utility/dsp.h **** */
  11:../DaisySP/Source/Utility/dsp.h **** #pragma once
  12:../DaisySP/Source/Utility/dsp.h **** #ifndef DSY_CORE_DSP
  13:../DaisySP/Source/Utility/dsp.h **** #define DSY_CORE_DSP
  14:../DaisySP/Source/Utility/dsp.h **** #include <cassert>
  15:../DaisySP/Source/Utility/dsp.h **** #include <cstdint>
  16:../DaisySP/Source/Utility/dsp.h **** #include <random>
  17:../DaisySP/Source/Utility/dsp.h **** #include <cmath>
  18:../DaisySP/Source/Utility/dsp.h **** 
  19:../DaisySP/Source/Utility/dsp.h **** /** PIs
  20:../DaisySP/Source/Utility/dsp.h **** */
  21:../DaisySP/Source/Utility/dsp.h **** #define PI_F 3.1415927410125732421875f
  22:../DaisySP/Source/Utility/dsp.h **** #define TWOPI_F (2.0f * PI_F)
  23:../DaisySP/Source/Utility/dsp.h **** #define HALFPI_F (PI_F * 0.5f)
  24:../DaisySP/Source/Utility/dsp.h **** #define DSY_MIN(in, mn) (in < mn ? in : mn)
  25:../DaisySP/Source/Utility/dsp.h **** #define DSY_MAX(in, mx) (in > mx ? in : mx)
  26:../DaisySP/Source/Utility/dsp.h **** #define DSY_CLAMP(in, mn, mx) (DSY_MIN(DSY_MAX(in, mn), mx))
  27:../DaisySP/Source/Utility/dsp.h **** #define DSY_COUNTOF(_arr) (sizeof(_arr) / sizeof(_arr[0]))
  28:../DaisySP/Source/Utility/dsp.h **** 
  29:../DaisySP/Source/Utility/dsp.h **** namespace daisysp
  30:../DaisySP/Source/Utility/dsp.h **** {
  31:../DaisySP/Source/Utility/dsp.h **** //Avoids division for random floats. e.g. rand() * kRandFrac
  32:../DaisySP/Source/Utility/dsp.h **** static constexpr float kRandFrac = 1.f / (float)RAND_MAX;
  33:../DaisySP/Source/Utility/dsp.h **** 
ARM GAS  /var/folders/2p/02m_5p7958535cp2tpgps0400000gn/T//ccHnEWZO.s 			page 84


  34:../DaisySP/Source/Utility/dsp.h **** //Convert from semitones to other units. e.g. 2 ^ (kOneTwelfth * x)
  35:../DaisySP/Source/Utility/dsp.h **** static constexpr float kOneTwelfth = 1.f / 12.f;
  36:../DaisySP/Source/Utility/dsp.h **** 
  37:../DaisySP/Source/Utility/dsp.h **** /** efficient floating point min/max
  38:../DaisySP/Source/Utility/dsp.h **** c/o stephen mccaul
  39:../DaisySP/Source/Utility/dsp.h **** */
  40:../DaisySP/Source/Utility/dsp.h **** inline float fmax(float a, float b)
  41:../DaisySP/Source/Utility/dsp.h **** {
  42:../DaisySP/Source/Utility/dsp.h ****     float r;
  43:../DaisySP/Source/Utility/dsp.h **** #ifdef __arm__
  44:../DaisySP/Source/Utility/dsp.h ****     asm("vmaxnm.f32 %[d], %[n], %[m]" : [d] "=t"(r) : [n] "t"(a), [m] "t"(b) :);
  45:../DaisySP/Source/Utility/dsp.h **** #else
  46:../DaisySP/Source/Utility/dsp.h ****     r = (a > b) ? a : b;
  47:../DaisySP/Source/Utility/dsp.h **** #endif // __arm__
  48:../DaisySP/Source/Utility/dsp.h ****     return r;
  49:../DaisySP/Source/Utility/dsp.h **** }
  50:../DaisySP/Source/Utility/dsp.h **** 
  51:../DaisySP/Source/Utility/dsp.h **** inline float fmin(float a, float b)
  52:../DaisySP/Source/Utility/dsp.h **** {
  53:../DaisySP/Source/Utility/dsp.h ****     float r;
  54:../DaisySP/Source/Utility/dsp.h **** #ifdef __arm__
  55:../DaisySP/Source/Utility/dsp.h ****     asm("vminnm.f32 %[d], %[n], %[m]" : [d] "=t"(r) : [n] "t"(a), [m] "t"(b) :);
  56:../DaisySP/Source/Utility/dsp.h **** #else
  57:../DaisySP/Source/Utility/dsp.h ****     r = (a < b) ? a : b;
  58:../DaisySP/Source/Utility/dsp.h **** #endif // __arm__
  59:../DaisySP/Source/Utility/dsp.h ****     return r;
  60:../DaisySP/Source/Utility/dsp.h **** }
  61:../DaisySP/Source/Utility/dsp.h **** 
  62:../DaisySP/Source/Utility/dsp.h **** /** quick fp clamp
  63:../DaisySP/Source/Utility/dsp.h **** */
  64:../DaisySP/Source/Utility/dsp.h **** inline float fclamp(float in, float min, float max)
  65:../DaisySP/Source/Utility/dsp.h **** {
  66:../DaisySP/Source/Utility/dsp.h ****     return fmin(fmax(in, min), max);
  67:../DaisySP/Source/Utility/dsp.h **** }
  68:../DaisySP/Source/Utility/dsp.h **** 
  69:../DaisySP/Source/Utility/dsp.h **** /** From Musicdsp.org "Fast power and root estimates for 32bit floats)
  70:../DaisySP/Source/Utility/dsp.h **** Original code by Stefan Stenzel
  71:../DaisySP/Source/Utility/dsp.h **** These are approximations
  72:../DaisySP/Source/Utility/dsp.h **** */
  73:../DaisySP/Source/Utility/dsp.h **** inline float fastpower(float f, int n)
  74:../DaisySP/Source/Utility/dsp.h **** {
  75:../DaisySP/Source/Utility/dsp.h ****     long *lp, l;
  76:../DaisySP/Source/Utility/dsp.h ****     lp = (long *)(&f);
  77:../DaisySP/Source/Utility/dsp.h ****     l  = *lp;
  78:../DaisySP/Source/Utility/dsp.h ****     l -= 0x3F800000;
  79:../DaisySP/Source/Utility/dsp.h ****     l <<= (n - 1);
  80:../DaisySP/Source/Utility/dsp.h ****     l += 0x3F800000;
  81:../DaisySP/Source/Utility/dsp.h ****     *lp = l;
  82:../DaisySP/Source/Utility/dsp.h ****     return f;
  83:../DaisySP/Source/Utility/dsp.h **** }
  84:../DaisySP/Source/Utility/dsp.h **** 
  85:../DaisySP/Source/Utility/dsp.h **** inline float fastroot(float f, int n)
  86:../DaisySP/Source/Utility/dsp.h **** {
  87:../DaisySP/Source/Utility/dsp.h ****     long *lp, l;
  88:../DaisySP/Source/Utility/dsp.h ****     lp = (long *)(&f);
  89:../DaisySP/Source/Utility/dsp.h ****     l  = *lp;
  90:../DaisySP/Source/Utility/dsp.h ****     l -= 0x3F800000;
ARM GAS  /var/folders/2p/02m_5p7958535cp2tpgps0400000gn/T//ccHnEWZO.s 			page 85


  91:../DaisySP/Source/Utility/dsp.h ****     l >>= (n - 1);
  92:../DaisySP/Source/Utility/dsp.h ****     l += 0x3F800000;
  93:../DaisySP/Source/Utility/dsp.h ****     *lp = l;
  94:../DaisySP/Source/Utility/dsp.h ****     return f;
  95:../DaisySP/Source/Utility/dsp.h **** }
  96:../DaisySP/Source/Utility/dsp.h **** 
  97:../DaisySP/Source/Utility/dsp.h **** /** Significantly more efficient than fmodf(x, 1.0f) for calculating
  98:../DaisySP/Source/Utility/dsp.h ****  *  the decimal part of a floating point value.
  99:../DaisySP/Source/Utility/dsp.h ****  */
 100:../DaisySP/Source/Utility/dsp.h **** inline float fastmod1f(float x)
 101:../DaisySP/Source/Utility/dsp.h **** {
 102:../DaisySP/Source/Utility/dsp.h ****     return x - static_cast<int>(x);
 103:../DaisySP/Source/Utility/dsp.h **** }
 104:../DaisySP/Source/Utility/dsp.h **** 
 105:../DaisySP/Source/Utility/dsp.h **** /** From http://openaudio.blogspot.com/2017/02/faster-log10-and-pow.html
 106:../DaisySP/Source/Utility/dsp.h **** No approximation, pow10f(x) gives a 90% speed increase over powf(10.f, x)
 107:../DaisySP/Source/Utility/dsp.h **** */
 108:../DaisySP/Source/Utility/dsp.h **** inline float pow10f(float f)
 109:../DaisySP/Source/Utility/dsp.h **** {
 110:../DaisySP/Source/Utility/dsp.h ****     return expf(2.302585092994046f * f);
 111:../DaisySP/Source/Utility/dsp.h **** }
 112:../DaisySP/Source/Utility/dsp.h **** 
 113:../DaisySP/Source/Utility/dsp.h **** /* Original code for fastlog2f by Dr. Paul Beckmann from the ARM community forum, adapted from the 
 114:../DaisySP/Source/Utility/dsp.h **** About 25% performance increase over std::log10f
 115:../DaisySP/Source/Utility/dsp.h **** */
 116:../DaisySP/Source/Utility/dsp.h **** inline float fastlog2f(float f)
 117:../DaisySP/Source/Utility/dsp.h **** {
 118:../DaisySP/Source/Utility/dsp.h ****     float frac;
 119:../DaisySP/Source/Utility/dsp.h ****     int   exp;
 120:../DaisySP/Source/Utility/dsp.h ****     frac = frexpf(fabsf(f), &exp);
 121:../DaisySP/Source/Utility/dsp.h ****     f    = 1.23149591368684f;
 122:../DaisySP/Source/Utility/dsp.h ****     f *= frac;
 123:../DaisySP/Source/Utility/dsp.h ****     f += -4.11852516267426f;
 124:../DaisySP/Source/Utility/dsp.h ****     f *= frac;
 125:../DaisySP/Source/Utility/dsp.h ****     f += 6.02197014179219f;
 126:../DaisySP/Source/Utility/dsp.h ****     f *= frac;
 127:../DaisySP/Source/Utility/dsp.h ****     f += -3.13396450166353f;
 128:../DaisySP/Source/Utility/dsp.h ****     f += exp;
 129:../DaisySP/Source/Utility/dsp.h ****     return (f);
 130:../DaisySP/Source/Utility/dsp.h **** }
 131:../DaisySP/Source/Utility/dsp.h **** 
 132:../DaisySP/Source/Utility/dsp.h **** inline float fastlog10f(float f)
 133:../DaisySP/Source/Utility/dsp.h **** {
 134:../DaisySP/Source/Utility/dsp.h ****     return fastlog2f(f) * 0.3010299956639812f;
 135:../DaisySP/Source/Utility/dsp.h **** }
 136:../DaisySP/Source/Utility/dsp.h **** 
 137:../DaisySP/Source/Utility/dsp.h **** /** Midi to frequency helper
 138:../DaisySP/Source/Utility/dsp.h **** */
 139:../DaisySP/Source/Utility/dsp.h **** inline float mtof(float m)
 140:../DaisySP/Source/Utility/dsp.h **** {
 141:../DaisySP/Source/Utility/dsp.h ****     return powf(2, (m - 69.0f) / 12.0f) * 440.0f;
 142:../DaisySP/Source/Utility/dsp.h **** }
 143:../DaisySP/Source/Utility/dsp.h **** 
 144:../DaisySP/Source/Utility/dsp.h **** 
 145:../DaisySP/Source/Utility/dsp.h **** /** one pole lpf
 146:../DaisySP/Source/Utility/dsp.h **** out is passed by reference, and must be retained between
 147:../DaisySP/Source/Utility/dsp.h **** calls to properly filter the signal
ARM GAS  /var/folders/2p/02m_5p7958535cp2tpgps0400000gn/T//ccHnEWZO.s 			page 86


 148:../DaisySP/Source/Utility/dsp.h **** coeff can be calculated:
 149:../DaisySP/Source/Utility/dsp.h **** coeff = 1.0 / (time * sample_rate) ; where time is in seconds
 150:../DaisySP/Source/Utility/dsp.h **** */
 151:../DaisySP/Source/Utility/dsp.h **** inline void fonepole(float &out, float in, float coeff)
 152:../DaisySP/Source/Utility/dsp.h **** {
 153:../DaisySP/Source/Utility/dsp.h ****     out += coeff * (in - out);
 154:../DaisySP/Source/Utility/dsp.h **** }
 155:../DaisySP/Source/Utility/dsp.h **** 
 156:../DaisySP/Source/Utility/dsp.h **** /** Curves to use with the fmap function */
 157:../DaisySP/Source/Utility/dsp.h **** enum class Mapping
 158:../DaisySP/Source/Utility/dsp.h **** {
 159:../DaisySP/Source/Utility/dsp.h ****     LINEAR,
 160:../DaisySP/Source/Utility/dsp.h ****     EXP,
 161:../DaisySP/Source/Utility/dsp.h ****     LOG,
 162:../DaisySP/Source/Utility/dsp.h **** };
 163:../DaisySP/Source/Utility/dsp.h **** 
 164:../DaisySP/Source/Utility/dsp.h **** /** Maps a float between a specified range, using a specified curve.
 165:../DaisySP/Source/Utility/dsp.h ****  *
 166:../DaisySP/Source/Utility/dsp.h ****  *  \param in a value between 0 to 1 that will be mapped to the new range.
 167:../DaisySP/Source/Utility/dsp.h ****  *  \param min the new minimum value
 168:../DaisySP/Source/Utility/dsp.h ****  *  \param max the new maxmimum value
 169:../DaisySP/Source/Utility/dsp.h ****  *  \param curve a Mapping Value to adjust the response curve of the transformation
 170:../DaisySP/Source/Utility/dsp.h ****  *               defaults to Linear. @see Mapping
 171:../DaisySP/Source/Utility/dsp.h ****  *
 172:../DaisySP/Source/Utility/dsp.h ****  *  When using the log curve min and max, must be greater than zero.
 173:../DaisySP/Source/Utility/dsp.h ****  *
 174:../DaisySP/Source/Utility/dsp.h ****  *  \retval returns the transformed float within the new range.
 175:../DaisySP/Source/Utility/dsp.h **** */
 176:../DaisySP/Source/Utility/dsp.h **** inline float
 177:../DaisySP/Source/Utility/dsp.h **** fmap(float in, float min, float max, Mapping curve = Mapping::LINEAR)
 2761              		.loc 13 177 1 view .LVU782
 2762              	.LBE577:
 2763              	.LBE576:
 2764              	.LBE575:
 178:../DaisySP/Source/Utility/dsp.h **** {
 179:../DaisySP/Source/Utility/dsp.h ****     switch(curve)
 2765              		.loc 13 179 5 view .LVU783
 2766              	.LBB592:
 2767              	.LBB590:
 2768              	.LBB586:
 2769              	.LBB578:
 180:../DaisySP/Source/Utility/dsp.h ****     {
 181:../DaisySP/Source/Utility/dsp.h ****         case Mapping::EXP:
 2770              		.loc 13 181 9 view .LVU784
 182:../DaisySP/Source/Utility/dsp.h ****             return fclamp(min + (in * in) * (max - min), min, max);
 2771              		.loc 13 182 13 view .LVU785
 2772              		.loc 13 182 26 is_stmt 0 view .LVU786
 2773 0022 B3EE047A 		vmov.f32	s14, #2.0e+1
 2774 0026 DFED086A 		vldr.32	s13, .L129
 2775              		.loc 13 182 37 view .LVU787
 2776 002a 20EE000A 		vmul.f32	s0, s0, s0
 2777              	.LVL197:
 2778              		.loc 13 182 26 view .LVU788
 2779 002e F0EE477A 		vmov.f32	s15, s14
 2780 0032 E0EE267A 		vfma.f32	s15, s0, s13
 2781              	.LVL198:
 2782              	.LBB579:
ARM GAS  /var/folders/2p/02m_5p7958535cp2tpgps0400000gn/T//ccHnEWZO.s 			page 87


 2783              	.LBI579:
  64:../DaisySP/Source/Utility/dsp.h **** {
 2784              		.loc 13 64 14 is_stmt 1 view .LVU789
 2785              	.LBE579:
 2786              	.LBE578:
 2787              	.LBE586:
 2788              	.LBE590:
 2789              	.LBE592:
  66:../DaisySP/Source/Utility/dsp.h **** }
 2790              		.loc 13 66 5 view .LVU790
 2791              	.LBB593:
 2792              	.LBB591:
 2793              	.LBB587:
 2794              	.LBB585:
 2795              	.LBB584:
 2796              	.LBB580:
 2797              	.LBI580:
  40:../DaisySP/Source/Utility/dsp.h **** {
 2798              		.loc 13 40 14 view .LVU791
 2799              	.LBB581:
  42:../DaisySP/Source/Utility/dsp.h **** #ifdef __arm__
 2800              		.loc 13 42 5 view .LVU792
  44:../DaisySP/Source/Utility/dsp.h **** #else
 2801              		.loc 13 44 5 view .LVU793
 2802              		.syntax unified
 2803              	@ 44 "../DaisySP/Source/Utility/dsp.h" 1
 2804 0036 C7FE877A 		vmaxnm.f32 s15, s15, s14
 2805              	@ 0 "" 2
 2806              	.LVL199:
  48:../DaisySP/Source/Utility/dsp.h **** }
 2807              		.loc 13 48 5 view .LVU794
  48:../DaisySP/Source/Utility/dsp.h **** }
 2808              		.loc 13 48 5 is_stmt 0 view .LVU795
 2809              		.thumb
 2810              		.syntax unified
 2811              	.LBE581:
 2812              	.LBE580:
 2813              	.LBB582:
 2814              	.LBI582:
  51:../DaisySP/Source/Utility/dsp.h **** {
 2815              		.loc 13 51 14 is_stmt 1 view .LVU796
 2816              	.LBB583:
  53:../DaisySP/Source/Utility/dsp.h **** #ifdef __arm__
 2817              		.loc 13 53 5 view .LVU797
  55:../DaisySP/Source/Utility/dsp.h **** #else
 2818              		.loc 13 55 5 view .LVU798
 2819 003a 9FED047A 		vldr.32	s14, .L129+4
 2820              	.LVL200:
  55:../DaisySP/Source/Utility/dsp.h **** #else
 2821              		.loc 13 55 5 is_stmt 0 view .LVU799
 2822              		.syntax unified
 2823              	@ 55 "../DaisySP/Source/Utility/dsp.h" 1
 2824 003e C7FEC77A 		vminnm.f32 s15, s15, s14
 2825              	@ 0 "" 2
 2826              	.LVL201:
  59:../DaisySP/Source/Utility/dsp.h **** }
 2827              		.loc 13 59 5 is_stmt 1 view .LVU800
ARM GAS  /var/folders/2p/02m_5p7958535cp2tpgps0400000gn/T//ccHnEWZO.s 			page 88


  59:../DaisySP/Source/Utility/dsp.h **** }
 2828              		.loc 13 59 5 is_stmt 0 view .LVU801
 2829              		.thumb
 2830              		.syntax unified
 2831              	.LBE583:
 2832              	.LBE582:
 2833              	.LBE584:
 2834              	.LBE585:
 2835              	.LBE587:
 616:GrannyChordApp.cpp ****       /* set cutoff frequency of low pass moog filter */
 617:GrannyChordApp.cpp ****       lowpass_moog_.SetFreq(knob1_val);
 2836              		.loc 2 617 7 is_stmt 1 view .LVU802
 2837              	.LBB588:
 2838              	.LBI588:
  39:../DaisySP/Source/../DaisySP-LGPL/Source/Filters/moogladder.h ****     /** 
 2839              		.loc 10 39 17 view .LVU803
 2840              	.LBB589:
  39:../DaisySP/Source/../DaisySP-LGPL/Source/Filters/moogladder.h ****     /** 
 2841              		.loc 10 39 39 view .LVU804
  39:../DaisySP/Source/../DaisySP-LGPL/Source/Filters/moogladder.h ****     /** 
 2842              		.loc 10 39 45 is_stmt 0 view .LVU805
 2843 0042 C0ED527A 		vstr.32	s15, [r0, #328]
 2844              	.LVL202:
 2845              	.L122:
  39:../DaisySP/Source/../DaisySP-LGPL/Source/Filters/moogladder.h ****     /** 
 2846              		.loc 10 39 45 view .LVU806
 2847              	.LBE589:
 2848              	.LBE588:
 2849              	.LBE591:
 2850              	.LBE593:
 618:GrannyChordApp.cpp ****       break;
 619:GrannyChordApp.cpp ****   }
 620:GrannyChordApp.cpp **** }
 2851              		.loc 2 620 1 view .LVU807
 2852 0046 7047     		bx	lr
 2853              	.L130:
 2854              		.align	2
 2855              	.L129:
 2856 0048 00788C46 		.word	1183610880
 2857 004c 00A08C46 		.word	1183621120
 2858              		.cfi_endproc
 2859              	.LFE4946:
 2861              		.section	.text._ZN14GrannyChordApp17UpdateKnob2ParamsEf9SynthMode,"ax",%progbits
 2862              		.align	1
 2863              		.global	_ZN14GrannyChordApp17UpdateKnob2ParamsEf9SynthMode
 2864              		.syntax unified
 2865              		.thumb
 2866              		.thumb_func
 2868              	_ZN14GrannyChordApp17UpdateKnob2ParamsEf9SynthMode:
 2869              	.LVL203:
 2870              	.LFB4947:
 621:GrannyChordApp.cpp **** 
 622:GrannyChordApp.cpp **** /// @brief Updates synth parameters from hardware knob 2 input
 623:GrannyChordApp.cpp **** /// @param knob1_val float between 0-1 from knob input
 624:GrannyChordApp.cpp **** /// @param mode current synth mode that determines which parameters to update
 625:GrannyChordApp.cpp **** void GrannyChordApp::UpdateKnob2Params(float knob2_val, SynthMode mode){
 2871              		.loc 2 625 72 is_stmt 1 view -0
ARM GAS  /var/folders/2p/02m_5p7958535cp2tpgps0400000gn/T//ccHnEWZO.s 			page 89


 2872              		.cfi_startproc
 2873              		@ args = 0, pretend = 0, frame = 0
 2874              		@ frame_needed = 0, uses_anonymous_args = 0
 626:GrannyChordApp.cpp ****   switch (mode){
 2875              		.loc 2 626 3 view .LVU809
 625:GrannyChordApp.cpp ****   switch (mode){
 2876              		.loc 2 625 72 is_stmt 0 view .LVU810
 2877 0000 08B5     		push	{r3, lr}
 2878              		.cfi_def_cfa_offset 8
 2879              		.cfi_offset 3, -8
 2880              		.cfi_offset 14, -4
 2881              		.loc 2 626 3 view .LVU811
 2882 0002 0329     		cmp	r1, #3
 2883 0004 13D8     		bhi	.L131
 2884 0006 DFE801F0 		tbb	[pc, r1]
 2885              	.L134:
 2886 000a 02       		.byte	(.L137-.L134)/2
 2887 000b 07       		.byte	(.L136-.L134)/2
 2888 000c 0C       		.byte	(.L135-.L134)/2
 2889 000d 13       		.byte	(.L133-.L134)/2
 2890              		.p2align 1
 2891              	.L137:
 627:GrannyChordApp.cpp ****     case SynthMode::Size_Position:
 2892              		.loc 2 627 5 is_stmt 1 view .LVU812
 628:GrannyChordApp.cpp ****       synth_.SetSpawnPos(knob2_val);
 2893              		.loc 2 628 7 view .LVU813
 2894              		.loc 2 628 25 is_stmt 0 view .LVU814
 2895 000e 2030     		adds	r0, r0, #32
 2896              	.LVL204:
 629:GrannyChordApp.cpp ****       break;
 630:GrannyChordApp.cpp ****     case SynthMode::Pitch_ActiveGrains:
 631:GrannyChordApp.cpp ****       synth_.SetTargetActiveGrains(knob2_val);
 632:GrannyChordApp.cpp ****       break;
 633:GrannyChordApp.cpp ****     case SynthMode::Reverb:
 634:GrannyChordApp.cpp ****       reverb_.SetMix(knob2_val);
 635:GrannyChordApp.cpp ****       break;
 636:GrannyChordApp.cpp ****     case SynthMode::Filter:
 637:GrannyChordApp.cpp ****       /* map knob value to frequency range with linear curve */
 638:GrannyChordApp.cpp ****       knob2_val = fmap(knob2_val, HIPASS_LOWER_BOUND, HIPASS_UPPER_BOUND, daisysp::Mapping::EXP);
 639:GrannyChordApp.cpp ****       /* set cutoff frequency for high pass filter */
 640:GrannyChordApp.cpp ****       hipass_.SetFrequency(knob2_val);
 641:GrannyChordApp.cpp ****       break;
 642:GrannyChordApp.cpp ****   }
 643:GrannyChordApp.cpp **** }
 2897              		.loc 2 643 1 view .LVU815
 2898 0010 BDE80840 		pop	{r3, lr}
 2899              		.cfi_remember_state
 2900              		.cfi_restore 14
 2901              		.cfi_restore 3
 2902              		.cfi_def_cfa_offset 0
 628:GrannyChordApp.cpp ****       synth_.SetSpawnPos(knob2_val);
 2903              		.loc 2 628 25 view .LVU816
 2904 0014 FFF7FEBF 		b	_ZN13GranularSynth11SetSpawnPosEf
 2905              	.LVL205:
 2906              	.L136:
 2907              		.cfi_restore_state
 630:GrannyChordApp.cpp ****       synth_.SetTargetActiveGrains(knob2_val);
ARM GAS  /var/folders/2p/02m_5p7958535cp2tpgps0400000gn/T//ccHnEWZO.s 			page 90


 2908              		.loc 2 630 5 is_stmt 1 view .LVU817
 631:GrannyChordApp.cpp ****       break;
 2909              		.loc 2 631 7 view .LVU818
 631:GrannyChordApp.cpp ****       break;
 2910              		.loc 2 631 35 is_stmt 0 view .LVU819
 2911 0018 2030     		adds	r0, r0, #32
 2912              	.LVL206:
 2913              		.loc 2 643 1 view .LVU820
 2914 001a BDE80840 		pop	{r3, lr}
 2915              		.cfi_remember_state
 2916              		.cfi_restore 14
 2917              		.cfi_restore 3
 2918              		.cfi_def_cfa_offset 0
 631:GrannyChordApp.cpp ****       break;
 2919              		.loc 2 631 35 view .LVU821
 2920 001e FFF7FEBF 		b	_ZN13GranularSynth21SetTargetActiveGrainsEf
 2921              	.LVL207:
 2922              	.L135:
 2923              		.cfi_restore_state
 633:GrannyChordApp.cpp ****       reverb_.SetMix(knob2_val);
 2924              		.loc 2 633 5 is_stmt 1 view .LVU822
 634:GrannyChordApp.cpp ****       break;
 2925              		.loc 2 634 7 view .LVU823
 2926              	.LBB609:
 2927              	.LBI609:
  54:../DaisySP/Source/../DaisySP-LGPL/Source/Effects/reverbsc.h ****     /** controls the internal dampening filter's cutoff frequency.
  55:../DaisySP/Source/../DaisySP-LGPL/Source/Effects/reverbsc.h ****         \param freq - low pass frequency. range: 0.0 to sample_rate / 2
  56:../DaisySP/Source/../DaisySP-LGPL/Source/Effects/reverbsc.h ****     */
  57:../DaisySP/Source/../DaisySP-LGPL/Source/Effects/reverbsc.h ****     inline void SetLpFreq(const float &freq) { lpfreq_ = freq; }
  58:../DaisySP/Source/../DaisySP-LGPL/Source/Effects/reverbsc.h **** 
  59:../DaisySP/Source/../DaisySP-LGPL/Source/Effects/reverbsc.h ****     inline void SetMix(const float mix){ wet_mix_ = mix; }
 2928              		.loc 12 59 17 view .LVU824
 2929              	.LBB610:
 2930              		.loc 12 59 42 view .LVU825
 2931              		.loc 12 59 51 is_stmt 0 view .LVU826
 2932 0022 D0F83C31 		ldr	r3, [r0, #316]
 2933 0026 03F5C123 		add	r3, r3, #395264
 2934 002a 83EDD10A 		vstr.32	s0, [r3, #836]
 2935              	.LVL208:
 2936              	.L131:
 2937              		.loc 12 59 51 view .LVU827
 2938              	.LBE610:
 2939              	.LBE609:
 2940              		.loc 2 643 1 view .LVU828
 2941 002e 08BD     		pop	{r3, pc}
 2942              	.LVL209:
 2943              	.L133:
 2944              	.LBB611:
 2945              	.LBI611:
 625:GrannyChordApp.cpp ****   switch (mode){
 2946              		.loc 2 625 6 is_stmt 1 view .LVU829
 2947              	.LBB612:
 636:GrannyChordApp.cpp ****       /* map knob value to frequency range with linear curve */
 2948              		.loc 2 636 5 view .LVU830
 638:GrannyChordApp.cpp ****       /* set cutoff frequency for high pass filter */
 2949              		.loc 2 638 7 view .LVU831
 2950              	.LBB613:
ARM GAS  /var/folders/2p/02m_5p7958535cp2tpgps0400000gn/T//ccHnEWZO.s 			page 91


 2951              	.LBI613:
 177:../DaisySP/Source/Utility/dsp.h **** {
 2952              		.loc 13 177 1 view .LVU832
 2953              	.LBE613:
 2954              	.LBE612:
 2955              	.LBE611:
 179:../DaisySP/Source/Utility/dsp.h ****     {
 2956              		.loc 13 179 5 view .LVU833
 2957              	.LBB628:
 2958              	.LBB626:
 2959              	.LBB623:
 2960              	.LBB614:
 181:../DaisySP/Source/Utility/dsp.h ****             return fclamp(min + (in * in) * (max - min), min, max);
 2961              		.loc 13 181 9 view .LVU834
 2962              		.loc 13 182 13 view .LVU835
 2963              		.loc 13 182 26 is_stmt 0 view .LVU836
 2964 0030 9FED0A7A 		vldr.32	s14, .L138
 2965              		.loc 13 182 37 view .LVU837
 2966 0034 20EE000A 		vmul.f32	s0, s0, s0
 2967              	.LVL210:
 2968              		.loc 13 182 26 view .LVU838
 2969 0038 DFED096A 		vldr.32	s13, .L138+4
 2970              	.LBE614:
 2971              	.LBE623:
 640:GrannyChordApp.cpp ****       break;
 2972              		.loc 2 640 27 view .LVU839
 2973 003c 00F5C270 		add	r0, r0, #388
 2974              	.LVL211:
 2975              	.LBB624:
 2976              	.LBB621:
 2977              		.loc 13 182 26 view .LVU840
 2978 0040 F0EE477A 		vmov.f32	s15, s14
 2979 0044 E0EE267A 		vfma.f32	s15, s0, s13
 2980              	.LVL212:
 2981              	.LBB615:
 2982              	.LBI615:
  64:../DaisySP/Source/Utility/dsp.h **** {
 2983              		.loc 13 64 14 is_stmt 1 view .LVU841
 2984              	.LBE615:
 2985              	.LBE621:
 2986              	.LBE624:
 2987              	.LBE626:
 2988              	.LBE628:
  66:../DaisySP/Source/Utility/dsp.h **** }
 2989              		.loc 13 66 5 view .LVU842
 2990              	.LBB629:
 2991              	.LBB627:
 2992              	.LBB625:
 2993              	.LBB622:
 2994              	.LBB620:
 2995              	.LBB616:
 2996              	.LBI616:
  40:../DaisySP/Source/Utility/dsp.h **** {
 2997              		.loc 13 40 14 view .LVU843
 2998              	.LBB617:
  42:../DaisySP/Source/Utility/dsp.h **** #ifdef __arm__
 2999              		.loc 13 42 5 view .LVU844
ARM GAS  /var/folders/2p/02m_5p7958535cp2tpgps0400000gn/T//ccHnEWZO.s 			page 92


  44:../DaisySP/Source/Utility/dsp.h **** #else
 3000              		.loc 13 44 5 view .LVU845
 3001              		.syntax unified
 3002              	@ 44 "../DaisySP/Source/Utility/dsp.h" 1
 3003 0048 87FE870A 		vmaxnm.f32 s0, s15, s14
 3004              	@ 0 "" 2
 3005              	.LVL213:
  48:../DaisySP/Source/Utility/dsp.h **** }
 3006              		.loc 13 48 5 view .LVU846
  48:../DaisySP/Source/Utility/dsp.h **** }
 3007              		.loc 13 48 5 is_stmt 0 view .LVU847
 3008              		.thumb
 3009              		.syntax unified
 3010              	.LBE617:
 3011              	.LBE616:
 3012              	.LBB618:
 3013              	.LBI618:
  51:../DaisySP/Source/Utility/dsp.h **** {
 3014              		.loc 13 51 14 is_stmt 1 view .LVU848
 3015              	.LBB619:
  53:../DaisySP/Source/Utility/dsp.h **** #ifdef __arm__
 3016              		.loc 13 53 5 view .LVU849
  55:../DaisySP/Source/Utility/dsp.h **** #else
 3017              		.loc 13 55 5 view .LVU850
 3018 004c DFED057A 		vldr.32	s15, .L138+8
 3019              	.LVL214:
  55:../DaisySP/Source/Utility/dsp.h **** #else
 3020              		.loc 13 55 5 is_stmt 0 view .LVU851
 3021              		.syntax unified
 3022              	@ 55 "../DaisySP/Source/Utility/dsp.h" 1
 3023 0050 80FE670A 		vminnm.f32 s0, s0, s15
 3024              	@ 0 "" 2
 3025              	.LVL215:
  59:../DaisySP/Source/Utility/dsp.h **** }
 3026              		.loc 13 59 5 is_stmt 1 view .LVU852
  59:../DaisySP/Source/Utility/dsp.h **** }
 3027              		.loc 13 59 5 is_stmt 0 view .LVU853
 3028              		.thumb
 3029              		.syntax unified
 3030              	.LBE619:
 3031              	.LBE618:
 3032              	.LBE620:
 3033              	.LBE622:
 3034              	.LBE625:
 640:GrannyChordApp.cpp ****       break;
 3035              		.loc 2 640 7 is_stmt 1 view .LVU854
 640:GrannyChordApp.cpp ****       break;
 3036              		.loc 2 640 27 is_stmt 0 view .LVU855
 3037 0054 FFF7FEFF 		bl	_ZN7daisysp7OnePole12SetFrequencyEf
 3038              	.LVL216:
 641:GrannyChordApp.cpp ****   }
 3039              		.loc 2 641 7 is_stmt 1 view .LVU856
 641:GrannyChordApp.cpp ****   }
 3040              		.loc 2 641 7 is_stmt 0 view .LVU857
 3041              	.LBE627:
 3042              	.LBE629:
 3043              		.loc 2 643 1 view .LVU858
ARM GAS  /var/folders/2p/02m_5p7958535cp2tpgps0400000gn/T//ccHnEWZO.s 			page 93


 3044 0058 E9E7     		b	.L131
 3045              	.L139:
 3046 005a 00BF     		.align	2
 3047              	.L138:
 3048 005c 17B7D139 		.word	970045207
 3049 0060 51491D3C 		.word	1008552273
 3050 0064 0AD7233C 		.word	1008981770
 3051              		.cfi_endproc
 3052              	.LFE4947:
 3054              		.section	.rodata._ZN14GrannyChordApp17UpdateSynthParamsEv.str1.1,"aMS",%progbits,1
 3055              	.LC13:
 3056 0000 6C617463 		.ascii	"latched 1\000"
 3056      68656420 
 3056      3100
 3057              	.LC14:
 3058 000a 6C617463 		.ascii	"latched 2\000"
 3058      68656420 
 3058      3200
 3059              		.section	.text._ZN14GrannyChordApp17UpdateSynthParamsEv,"ax",%progbits
 3060              		.align	1
 3061              		.global	_ZN14GrannyChordApp17UpdateSynthParamsEv
 3062              		.syntax unified
 3063              		.thumb
 3064              		.thumb_func
 3066              	_ZN14GrannyChordApp17UpdateSynthParamsEv:
 3067              	.LVL217:
 3068              	.LFB4930:
 311:GrannyChordApp.cpp ****   if (curr_state_!=AppState::Synthesis) return;
 3069              		.loc 2 311 41 is_stmt 1 view -0
 3070              		.cfi_startproc
 3071              		@ args = 0, pretend = 0, frame = 0
 3072              		@ frame_needed = 0, uses_anonymous_args = 0
 312:GrannyChordApp.cpp ****   int mode_idx = static_cast<int>(curr_synth_mode_);
 3073              		.loc 2 312 3 view .LVU860
 311:GrannyChordApp.cpp ****   if (curr_state_!=AppState::Synthesis) return;
 3074              		.loc 2 311 41 is_stmt 0 view .LVU861
 3075 0000 38B5     		push	{r3, r4, r5, lr}
 3076              		.cfi_def_cfa_offset 16
 3077              		.cfi_offset 3, -16
 3078              		.cfi_offset 4, -12
 3079              		.cfi_offset 5, -8
 3080              		.cfi_offset 14, -4
 312:GrannyChordApp.cpp ****   int mode_idx = static_cast<int>(curr_synth_mode_);
 3081              		.loc 2 312 3 view .LVU862
 3082 0002 D0F8E430 		ldr	r3, [r0, #228]
 311:GrannyChordApp.cpp ****   if (curr_state_!=AppState::Synthesis) return;
 3083              		.loc 2 311 41 view .LVU863
 3084 0006 0446     		mov	r4, r0
 312:GrannyChordApp.cpp ****   int mode_idx = static_cast<int>(curr_synth_mode_);
 3085              		.loc 2 312 3 view .LVU864
 3086 0008 022B     		cmp	r3, #2
 311:GrannyChordApp.cpp ****   if (curr_state_!=AppState::Synthesis) return;
 3087              		.loc 2 311 41 view .LVU865
 3088 000a 2DED048B 		vpush.64	{d8, d9}
 3089              		.cfi_def_cfa_offset 32
 3090              		.cfi_offset 80, -32
 3091              		.cfi_offset 81, -28
ARM GAS  /var/folders/2p/02m_5p7958535cp2tpgps0400000gn/T//ccHnEWZO.s 			page 94


 3092              		.cfi_offset 82, -24
 3093              		.cfi_offset 83, -20
 312:GrannyChordApp.cpp ****   int mode_idx = static_cast<int>(curr_synth_mode_);
 3094              		.loc 2 312 3 view .LVU866
 3095 000e 40F09E80 		bne	.L140
 3096              	.LVL218:
 3097              	.LBB648:
 3098              	.LBI648:
 311:GrannyChordApp.cpp ****   if (curr_state_!=AppState::Synthesis) return;
 3099              		.loc 2 311 6 is_stmt 1 view .LVU867
 3100              	.LBB649:
 313:GrannyChordApp.cpp **** 
 3101              		.loc 2 313 3 view .LVU868
 313:GrannyChordApp.cpp **** 
 3102              		.loc 2 313 7 is_stmt 0 view .LVU869
 3103 0012 D0F8EC50 		ldr	r5, [r0, #236]
 3104              	.LVL219:
 316:GrannyChordApp.cpp ****   float knob2_val = MapKnobDeadzone(pod_.knob2.Process());
 3105              		.loc 2 316 3 is_stmt 1 view .LVU870
 316:GrannyChordApp.cpp ****   float knob2_val = MapKnobDeadzone(pod_.knob2.Process());
 3106              		.loc 2 316 36 is_stmt 0 view .LVU871
 3107 0016 C069     		ldr	r0, [r0, #28]
 3108              	.LVL220:
 3109              	.LBB650:
 3110              	.LBB651:
 644:GrannyChordApp.cpp **** 
 645:GrannyChordApp.cpp **** 
 646:GrannyChordApp.cpp **** 
 647:GrannyChordApp.cpp **** /*
 648:GrannyChordApp.cpp **** 
 649:GrannyChordApp.cpp **** encoder for strum??? nice clicks 
 650:GrannyChordApp.cpp **** knob1 pitch? 
 651:GrannyChordApp.cpp **** knob2 position?
 652:GrannyChordApp.cpp **** buttons chords? 
 653:GrannyChordApp.cpp **** click encoder for granular stuff
 654:GrannyChordApp.cpp **** 
 655:GrannyChordApp.cpp **** */
 656:GrannyChordApp.cpp **** 
 657:GrannyChordApp.cpp **** /* knobs on the Pod have deadzones around 0 and 1 so we adjust for this */
 658:GrannyChordApp.cpp **** inline float GrannyChordApp::MapKnobDeadzone(float knob_val ){
 659:GrannyChordApp.cpp ****   if (knob_val<=0.01f) return 0.0f;
 3111              		.loc 2 659 3 view .LVU872
 3112 0018 9FED4E9A 		vldr.32	s18, .L168
 3113              	.LBE651:
 3114              	.LBE650:
 316:GrannyChordApp.cpp ****   float knob2_val = MapKnobDeadzone(pod_.knob2.Process());
 3115              		.loc 2 316 36 view .LVU873
 3116 001c 6830     		adds	r0, r0, #104
 3117 001e FFF7FEFF 		bl	_ZN5daisy13AnalogControl7ProcessEv
 3118              	.LVL221:
 3119              	.LBB654:
 3120              	.LBI650:
 658:GrannyChordApp.cpp ****   if (knob_val<=0.01f) return 0.0f;
 3121              		.loc 2 658 14 is_stmt 1 view .LVU874
 3122              	.LBB652:
 3123              		.loc 2 659 3 view .LVU875
 3124 0022 B4EEC90A 		vcmpe.f32	s0, s18
ARM GAS  /var/folders/2p/02m_5p7958535cp2tpgps0400000gn/T//ccHnEWZO.s 			page 95


 3125 0026 F1EE10FA 		vmrs	APSR_nzcv, FPSCR
 3126 002a 40F28A80 		bls	.L154
 660:GrannyChordApp.cpp ****   if (knob_val>=0.99f) return 1.0f;
 3127              		.loc 2 660 3 view .LVU876
 3128              		.loc 2 660 31 is_stmt 0 view .LVU877
 3129 002e DFED4A7A 		vldr.32	s15, .L168+4
 3130 0032 B4EE670A 		vcmp.f32	s0, s15
 3131 0036 F7EE007A 		vmov.f32	s15, #1.0e+0
 3132 003a F1EE10FA 		vmrs	APSR_nzcv, FPSCR
 3133 003e 67FE808A 		vselge.f32	s17, s15, s0
 3134              	.L142:
 3135              	.LVL222:
 3136              		.loc 2 660 31 view .LVU878
 3137              	.LBE652:
 3138              	.LBE654:
 317:GrannyChordApp.cpp **** 
 3139              		.loc 2 317 3 is_stmt 1 view .LVU879
 317:GrannyChordApp.cpp **** 
 3140              		.loc 2 317 36 is_stmt 0 view .LVU880
 3141 0042 E069     		ldr	r0, [r4, #28]
 3142 0044 8830     		adds	r0, r0, #136
 3143 0046 FFF7FEFF 		bl	_ZN5daisy13AnalogControl7ProcessEv
 3144              	.LVL223:
 3145              	.LBB655:
 3146              	.LBI655:
 658:GrannyChordApp.cpp ****   if (knob_val<=0.01f) return 0.0f;
 3147              		.loc 2 658 14 is_stmt 1 view .LVU881
 3148              	.LBB656:
 659:GrannyChordApp.cpp ****   if (knob_val>=0.99f) return 1.0f;
 3149              		.loc 2 659 3 view .LVU882
 3150 004a B4EEC90A 		vcmpe.f32	s0, s18
 3151 004e F1EE10FA 		vmrs	APSR_nzcv, FPSCR
 3152 0052 79D9     		bls	.L155
 3153              		.loc 2 660 3 view .LVU883
 3154              		.loc 2 660 31 is_stmt 0 view .LVU884
 3155 0054 DFED407A 		vldr.32	s15, .L168+4
 3156 0058 B4EE670A 		vcmp.f32	s0, s15
 3157 005c F7EE007A 		vmov.f32	s15, #1.0e+0
 3158 0060 F1EE10FA 		vmrs	APSR_nzcv, FPSCR
 3159 0064 27FE808A 		vselge.f32	s16, s15, s0
 3160              	.L144:
 3161              	.LVL224:
 3162              		.loc 2 660 31 view .LVU885
 3163              	.LBE656:
 3164              	.LBE655:
 336:GrannyChordApp.cpp ****     if ((fabs(knob1_val - prev_k1_pos[mode_idx])<=0.05f) &&
 3165              		.loc 2 336 3 is_stmt 1 view .LVU886
 3166 0068 94F8F430 		ldrb	r3, [r4, #244]	@ zero_extendqisi2
 3167 006c FBB9     		cbnz	r3, .L146
 337:GrannyChordApp.cpp ****         (fabs(prev_k1_pos[mode_idx] - prev_param_k1[mode_idx])<=0.05f)){
 3168              		.loc 2 337 5 view .LVU887
 3169 006e 04EB8503 		add	r3, r4, r5, lsl #2
 337:GrannyChordApp.cpp ****         (fabs(prev_k1_pos[mode_idx] - prev_param_k1[mode_idx])<=0.05f)){
 3170              		.loc 2 337 58 is_stmt 0 view .LVU888
 3171 0072 DFED3A6A 		vldr.32	s13, .L168+8
 337:GrannyChordApp.cpp ****         (fabs(prev_k1_pos[mode_idx] - prev_param_k1[mode_idx])<=0.05f)){
 3172              		.loc 2 337 47 view .LVU889
ARM GAS  /var/folders/2p/02m_5p7958535cp2tpgps0400000gn/T//ccHnEWZO.s 			page 96


 3173 0076 D3ED997A 		vldr.32	s15, [r3, #612]
 3174              	.LVL225:
 3175              	.LBB658:
 3176              	.LBI658:
 3177              		.file 14 "/Library/DaisyToolchain/0.2.0/arm/arm-none-eabi/include/c++/10.3.1/cmath"
   1:/Library/DaisyToolchain/0.2.0/arm/arm-none-eabi/include/c++/10.3.1/cmath **** // -*- C++ -*- C forwarding header.
   2:/Library/DaisyToolchain/0.2.0/arm/arm-none-eabi/include/c++/10.3.1/cmath **** 
   3:/Library/DaisyToolchain/0.2.0/arm/arm-none-eabi/include/c++/10.3.1/cmath **** // Copyright (C) 1997-2020 Free Software Foundation, Inc.
   4:/Library/DaisyToolchain/0.2.0/arm/arm-none-eabi/include/c++/10.3.1/cmath **** //
   5:/Library/DaisyToolchain/0.2.0/arm/arm-none-eabi/include/c++/10.3.1/cmath **** // This file is part of the GNU ISO C++ Library.  This library is free
   6:/Library/DaisyToolchain/0.2.0/arm/arm-none-eabi/include/c++/10.3.1/cmath **** // software; you can redistribute it and/or modify it under the
   7:/Library/DaisyToolchain/0.2.0/arm/arm-none-eabi/include/c++/10.3.1/cmath **** // terms of the GNU General Public License as published by the
   8:/Library/DaisyToolchain/0.2.0/arm/arm-none-eabi/include/c++/10.3.1/cmath **** // Free Software Foundation; either version 3, or (at your option)
   9:/Library/DaisyToolchain/0.2.0/arm/arm-none-eabi/include/c++/10.3.1/cmath **** // any later version.
  10:/Library/DaisyToolchain/0.2.0/arm/arm-none-eabi/include/c++/10.3.1/cmath **** 
  11:/Library/DaisyToolchain/0.2.0/arm/arm-none-eabi/include/c++/10.3.1/cmath **** // This library is distributed in the hope that it will be useful,
  12:/Library/DaisyToolchain/0.2.0/arm/arm-none-eabi/include/c++/10.3.1/cmath **** // but WITHOUT ANY WARRANTY; without even the implied warranty of
  13:/Library/DaisyToolchain/0.2.0/arm/arm-none-eabi/include/c++/10.3.1/cmath **** // MERCHANTABILITY or FITNESS FOR A PARTICULAR PURPOSE.  See the
  14:/Library/DaisyToolchain/0.2.0/arm/arm-none-eabi/include/c++/10.3.1/cmath **** // GNU General Public License for more details.
  15:/Library/DaisyToolchain/0.2.0/arm/arm-none-eabi/include/c++/10.3.1/cmath **** 
  16:/Library/DaisyToolchain/0.2.0/arm/arm-none-eabi/include/c++/10.3.1/cmath **** // Under Section 7 of GPL version 3, you are granted additional
  17:/Library/DaisyToolchain/0.2.0/arm/arm-none-eabi/include/c++/10.3.1/cmath **** // permissions described in the GCC Runtime Library Exception, version
  18:/Library/DaisyToolchain/0.2.0/arm/arm-none-eabi/include/c++/10.3.1/cmath **** // 3.1, as published by the Free Software Foundation.
  19:/Library/DaisyToolchain/0.2.0/arm/arm-none-eabi/include/c++/10.3.1/cmath **** 
  20:/Library/DaisyToolchain/0.2.0/arm/arm-none-eabi/include/c++/10.3.1/cmath **** // You should have received a copy of the GNU General Public License and
  21:/Library/DaisyToolchain/0.2.0/arm/arm-none-eabi/include/c++/10.3.1/cmath **** // a copy of the GCC Runtime Library Exception along with this program;
  22:/Library/DaisyToolchain/0.2.0/arm/arm-none-eabi/include/c++/10.3.1/cmath **** // see the files COPYING3 and COPYING.RUNTIME respectively.  If not, see
  23:/Library/DaisyToolchain/0.2.0/arm/arm-none-eabi/include/c++/10.3.1/cmath **** // <http://www.gnu.org/licenses/>.
  24:/Library/DaisyToolchain/0.2.0/arm/arm-none-eabi/include/c++/10.3.1/cmath **** 
  25:/Library/DaisyToolchain/0.2.0/arm/arm-none-eabi/include/c++/10.3.1/cmath **** /** @file include/cmath
  26:/Library/DaisyToolchain/0.2.0/arm/arm-none-eabi/include/c++/10.3.1/cmath ****  *  This is a Standard C++ Library file.  You should @c \#include this file
  27:/Library/DaisyToolchain/0.2.0/arm/arm-none-eabi/include/c++/10.3.1/cmath ****  *  in your programs, rather than any of the @a *.h implementation files.
  28:/Library/DaisyToolchain/0.2.0/arm/arm-none-eabi/include/c++/10.3.1/cmath ****  *
  29:/Library/DaisyToolchain/0.2.0/arm/arm-none-eabi/include/c++/10.3.1/cmath ****  *  This is the C++ version of the Standard C Library header @c math.h,
  30:/Library/DaisyToolchain/0.2.0/arm/arm-none-eabi/include/c++/10.3.1/cmath ****  *  and its contents are (mostly) the same as that header, but are all
  31:/Library/DaisyToolchain/0.2.0/arm/arm-none-eabi/include/c++/10.3.1/cmath ****  *  contained in the namespace @c std (except for names which are defined
  32:/Library/DaisyToolchain/0.2.0/arm/arm-none-eabi/include/c++/10.3.1/cmath ****  *  as macros in C).
  33:/Library/DaisyToolchain/0.2.0/arm/arm-none-eabi/include/c++/10.3.1/cmath ****  */
  34:/Library/DaisyToolchain/0.2.0/arm/arm-none-eabi/include/c++/10.3.1/cmath **** 
  35:/Library/DaisyToolchain/0.2.0/arm/arm-none-eabi/include/c++/10.3.1/cmath **** //
  36:/Library/DaisyToolchain/0.2.0/arm/arm-none-eabi/include/c++/10.3.1/cmath **** // ISO C++ 14882: 26.5  C library
  37:/Library/DaisyToolchain/0.2.0/arm/arm-none-eabi/include/c++/10.3.1/cmath **** //
  38:/Library/DaisyToolchain/0.2.0/arm/arm-none-eabi/include/c++/10.3.1/cmath **** 
  39:/Library/DaisyToolchain/0.2.0/arm/arm-none-eabi/include/c++/10.3.1/cmath **** #pragma GCC system_header
  40:/Library/DaisyToolchain/0.2.0/arm/arm-none-eabi/include/c++/10.3.1/cmath **** 
  41:/Library/DaisyToolchain/0.2.0/arm/arm-none-eabi/include/c++/10.3.1/cmath **** #include <bits/c++config.h>
  42:/Library/DaisyToolchain/0.2.0/arm/arm-none-eabi/include/c++/10.3.1/cmath **** #include <bits/cpp_type_traits.h>
  43:/Library/DaisyToolchain/0.2.0/arm/arm-none-eabi/include/c++/10.3.1/cmath **** #include <ext/type_traits.h>
  44:/Library/DaisyToolchain/0.2.0/arm/arm-none-eabi/include/c++/10.3.1/cmath **** #define _GLIBCXX_INCLUDE_NEXT_C_HEADERS
  45:/Library/DaisyToolchain/0.2.0/arm/arm-none-eabi/include/c++/10.3.1/cmath **** #include_next <math.h>
  46:/Library/DaisyToolchain/0.2.0/arm/arm-none-eabi/include/c++/10.3.1/cmath **** #undef _GLIBCXX_INCLUDE_NEXT_C_HEADERS
  47:/Library/DaisyToolchain/0.2.0/arm/arm-none-eabi/include/c++/10.3.1/cmath **** #include <bits/std_abs.h>
  48:/Library/DaisyToolchain/0.2.0/arm/arm-none-eabi/include/c++/10.3.1/cmath **** 
  49:/Library/DaisyToolchain/0.2.0/arm/arm-none-eabi/include/c++/10.3.1/cmath **** #ifndef _GLIBCXX_CMATH
  50:/Library/DaisyToolchain/0.2.0/arm/arm-none-eabi/include/c++/10.3.1/cmath **** #define _GLIBCXX_CMATH 1
  51:/Library/DaisyToolchain/0.2.0/arm/arm-none-eabi/include/c++/10.3.1/cmath **** 
  52:/Library/DaisyToolchain/0.2.0/arm/arm-none-eabi/include/c++/10.3.1/cmath **** // Get rid of those macros defined in <math.h> in lieu of real functions.
ARM GAS  /var/folders/2p/02m_5p7958535cp2tpgps0400000gn/T//ccHnEWZO.s 			page 97


  53:/Library/DaisyToolchain/0.2.0/arm/arm-none-eabi/include/c++/10.3.1/cmath **** #undef div
  54:/Library/DaisyToolchain/0.2.0/arm/arm-none-eabi/include/c++/10.3.1/cmath **** #undef acos
  55:/Library/DaisyToolchain/0.2.0/arm/arm-none-eabi/include/c++/10.3.1/cmath **** #undef asin
  56:/Library/DaisyToolchain/0.2.0/arm/arm-none-eabi/include/c++/10.3.1/cmath **** #undef atan
  57:/Library/DaisyToolchain/0.2.0/arm/arm-none-eabi/include/c++/10.3.1/cmath **** #undef atan2
  58:/Library/DaisyToolchain/0.2.0/arm/arm-none-eabi/include/c++/10.3.1/cmath **** #undef ceil
  59:/Library/DaisyToolchain/0.2.0/arm/arm-none-eabi/include/c++/10.3.1/cmath **** #undef cos
  60:/Library/DaisyToolchain/0.2.0/arm/arm-none-eabi/include/c++/10.3.1/cmath **** #undef cosh
  61:/Library/DaisyToolchain/0.2.0/arm/arm-none-eabi/include/c++/10.3.1/cmath **** #undef exp
  62:/Library/DaisyToolchain/0.2.0/arm/arm-none-eabi/include/c++/10.3.1/cmath **** #undef fabs
  63:/Library/DaisyToolchain/0.2.0/arm/arm-none-eabi/include/c++/10.3.1/cmath **** #undef floor
  64:/Library/DaisyToolchain/0.2.0/arm/arm-none-eabi/include/c++/10.3.1/cmath **** #undef fmod
  65:/Library/DaisyToolchain/0.2.0/arm/arm-none-eabi/include/c++/10.3.1/cmath **** #undef frexp
  66:/Library/DaisyToolchain/0.2.0/arm/arm-none-eabi/include/c++/10.3.1/cmath **** #undef ldexp
  67:/Library/DaisyToolchain/0.2.0/arm/arm-none-eabi/include/c++/10.3.1/cmath **** #undef log
  68:/Library/DaisyToolchain/0.2.0/arm/arm-none-eabi/include/c++/10.3.1/cmath **** #undef log10
  69:/Library/DaisyToolchain/0.2.0/arm/arm-none-eabi/include/c++/10.3.1/cmath **** #undef modf
  70:/Library/DaisyToolchain/0.2.0/arm/arm-none-eabi/include/c++/10.3.1/cmath **** #undef pow
  71:/Library/DaisyToolchain/0.2.0/arm/arm-none-eabi/include/c++/10.3.1/cmath **** #undef sin
  72:/Library/DaisyToolchain/0.2.0/arm/arm-none-eabi/include/c++/10.3.1/cmath **** #undef sinh
  73:/Library/DaisyToolchain/0.2.0/arm/arm-none-eabi/include/c++/10.3.1/cmath **** #undef sqrt
  74:/Library/DaisyToolchain/0.2.0/arm/arm-none-eabi/include/c++/10.3.1/cmath **** #undef tan
  75:/Library/DaisyToolchain/0.2.0/arm/arm-none-eabi/include/c++/10.3.1/cmath **** #undef tanh
  76:/Library/DaisyToolchain/0.2.0/arm/arm-none-eabi/include/c++/10.3.1/cmath **** 
  77:/Library/DaisyToolchain/0.2.0/arm/arm-none-eabi/include/c++/10.3.1/cmath **** extern "C++"
  78:/Library/DaisyToolchain/0.2.0/arm/arm-none-eabi/include/c++/10.3.1/cmath **** {
  79:/Library/DaisyToolchain/0.2.0/arm/arm-none-eabi/include/c++/10.3.1/cmath **** namespace std _GLIBCXX_VISIBILITY(default)
  80:/Library/DaisyToolchain/0.2.0/arm/arm-none-eabi/include/c++/10.3.1/cmath **** {
  81:/Library/DaisyToolchain/0.2.0/arm/arm-none-eabi/include/c++/10.3.1/cmath **** _GLIBCXX_BEGIN_NAMESPACE_VERSION
  82:/Library/DaisyToolchain/0.2.0/arm/arm-none-eabi/include/c++/10.3.1/cmath **** 
  83:/Library/DaisyToolchain/0.2.0/arm/arm-none-eabi/include/c++/10.3.1/cmath ****   using ::acos;
  84:/Library/DaisyToolchain/0.2.0/arm/arm-none-eabi/include/c++/10.3.1/cmath **** 
  85:/Library/DaisyToolchain/0.2.0/arm/arm-none-eabi/include/c++/10.3.1/cmath **** #ifndef __CORRECT_ISO_CPP_MATH_H_PROTO
  86:/Library/DaisyToolchain/0.2.0/arm/arm-none-eabi/include/c++/10.3.1/cmath ****   inline _GLIBCXX_CONSTEXPR float
  87:/Library/DaisyToolchain/0.2.0/arm/arm-none-eabi/include/c++/10.3.1/cmath ****   acos(float __x)
  88:/Library/DaisyToolchain/0.2.0/arm/arm-none-eabi/include/c++/10.3.1/cmath ****   { return __builtin_acosf(__x); }
  89:/Library/DaisyToolchain/0.2.0/arm/arm-none-eabi/include/c++/10.3.1/cmath **** 
  90:/Library/DaisyToolchain/0.2.0/arm/arm-none-eabi/include/c++/10.3.1/cmath ****   inline _GLIBCXX_CONSTEXPR long double
  91:/Library/DaisyToolchain/0.2.0/arm/arm-none-eabi/include/c++/10.3.1/cmath ****   acos(long double __x)
  92:/Library/DaisyToolchain/0.2.0/arm/arm-none-eabi/include/c++/10.3.1/cmath ****   { return __builtin_acosl(__x); }
  93:/Library/DaisyToolchain/0.2.0/arm/arm-none-eabi/include/c++/10.3.1/cmath **** #endif
  94:/Library/DaisyToolchain/0.2.0/arm/arm-none-eabi/include/c++/10.3.1/cmath **** 
  95:/Library/DaisyToolchain/0.2.0/arm/arm-none-eabi/include/c++/10.3.1/cmath ****   template<typename _Tp>
  96:/Library/DaisyToolchain/0.2.0/arm/arm-none-eabi/include/c++/10.3.1/cmath ****     inline _GLIBCXX_CONSTEXPR
  97:/Library/DaisyToolchain/0.2.0/arm/arm-none-eabi/include/c++/10.3.1/cmath ****     typename __gnu_cxx::__enable_if<__is_integer<_Tp>::__value, 
  98:/Library/DaisyToolchain/0.2.0/arm/arm-none-eabi/include/c++/10.3.1/cmath ****                                     double>::__type
  99:/Library/DaisyToolchain/0.2.0/arm/arm-none-eabi/include/c++/10.3.1/cmath ****     acos(_Tp __x)
 100:/Library/DaisyToolchain/0.2.0/arm/arm-none-eabi/include/c++/10.3.1/cmath ****     { return __builtin_acos(__x); }
 101:/Library/DaisyToolchain/0.2.0/arm/arm-none-eabi/include/c++/10.3.1/cmath **** 
 102:/Library/DaisyToolchain/0.2.0/arm/arm-none-eabi/include/c++/10.3.1/cmath ****   using ::asin;
 103:/Library/DaisyToolchain/0.2.0/arm/arm-none-eabi/include/c++/10.3.1/cmath **** 
 104:/Library/DaisyToolchain/0.2.0/arm/arm-none-eabi/include/c++/10.3.1/cmath **** #ifndef __CORRECT_ISO_CPP_MATH_H_PROTO
 105:/Library/DaisyToolchain/0.2.0/arm/arm-none-eabi/include/c++/10.3.1/cmath ****   inline _GLIBCXX_CONSTEXPR float
 106:/Library/DaisyToolchain/0.2.0/arm/arm-none-eabi/include/c++/10.3.1/cmath ****   asin(float __x)
 107:/Library/DaisyToolchain/0.2.0/arm/arm-none-eabi/include/c++/10.3.1/cmath ****   { return __builtin_asinf(__x); }
 108:/Library/DaisyToolchain/0.2.0/arm/arm-none-eabi/include/c++/10.3.1/cmath **** 
 109:/Library/DaisyToolchain/0.2.0/arm/arm-none-eabi/include/c++/10.3.1/cmath ****   inline _GLIBCXX_CONSTEXPR long double
ARM GAS  /var/folders/2p/02m_5p7958535cp2tpgps0400000gn/T//ccHnEWZO.s 			page 98


 110:/Library/DaisyToolchain/0.2.0/arm/arm-none-eabi/include/c++/10.3.1/cmath ****   asin(long double __x)
 111:/Library/DaisyToolchain/0.2.0/arm/arm-none-eabi/include/c++/10.3.1/cmath ****   { return __builtin_asinl(__x); }
 112:/Library/DaisyToolchain/0.2.0/arm/arm-none-eabi/include/c++/10.3.1/cmath **** #endif
 113:/Library/DaisyToolchain/0.2.0/arm/arm-none-eabi/include/c++/10.3.1/cmath **** 
 114:/Library/DaisyToolchain/0.2.0/arm/arm-none-eabi/include/c++/10.3.1/cmath ****   template<typename _Tp>
 115:/Library/DaisyToolchain/0.2.0/arm/arm-none-eabi/include/c++/10.3.1/cmath ****     inline _GLIBCXX_CONSTEXPR
 116:/Library/DaisyToolchain/0.2.0/arm/arm-none-eabi/include/c++/10.3.1/cmath ****     typename __gnu_cxx::__enable_if<__is_integer<_Tp>::__value,
 117:/Library/DaisyToolchain/0.2.0/arm/arm-none-eabi/include/c++/10.3.1/cmath ****                                     double>::__type
 118:/Library/DaisyToolchain/0.2.0/arm/arm-none-eabi/include/c++/10.3.1/cmath ****     asin(_Tp __x)
 119:/Library/DaisyToolchain/0.2.0/arm/arm-none-eabi/include/c++/10.3.1/cmath ****     { return __builtin_asin(__x); }
 120:/Library/DaisyToolchain/0.2.0/arm/arm-none-eabi/include/c++/10.3.1/cmath **** 
 121:/Library/DaisyToolchain/0.2.0/arm/arm-none-eabi/include/c++/10.3.1/cmath ****   using ::atan;
 122:/Library/DaisyToolchain/0.2.0/arm/arm-none-eabi/include/c++/10.3.1/cmath **** 
 123:/Library/DaisyToolchain/0.2.0/arm/arm-none-eabi/include/c++/10.3.1/cmath **** #ifndef __CORRECT_ISO_CPP_MATH_H_PROTO
 124:/Library/DaisyToolchain/0.2.0/arm/arm-none-eabi/include/c++/10.3.1/cmath ****   inline _GLIBCXX_CONSTEXPR float
 125:/Library/DaisyToolchain/0.2.0/arm/arm-none-eabi/include/c++/10.3.1/cmath ****   atan(float __x)
 126:/Library/DaisyToolchain/0.2.0/arm/arm-none-eabi/include/c++/10.3.1/cmath ****   { return __builtin_atanf(__x); }
 127:/Library/DaisyToolchain/0.2.0/arm/arm-none-eabi/include/c++/10.3.1/cmath **** 
 128:/Library/DaisyToolchain/0.2.0/arm/arm-none-eabi/include/c++/10.3.1/cmath ****   inline _GLIBCXX_CONSTEXPR long double
 129:/Library/DaisyToolchain/0.2.0/arm/arm-none-eabi/include/c++/10.3.1/cmath ****   atan(long double __x)
 130:/Library/DaisyToolchain/0.2.0/arm/arm-none-eabi/include/c++/10.3.1/cmath ****   { return __builtin_atanl(__x); }
 131:/Library/DaisyToolchain/0.2.0/arm/arm-none-eabi/include/c++/10.3.1/cmath **** #endif
 132:/Library/DaisyToolchain/0.2.0/arm/arm-none-eabi/include/c++/10.3.1/cmath **** 
 133:/Library/DaisyToolchain/0.2.0/arm/arm-none-eabi/include/c++/10.3.1/cmath ****   template<typename _Tp>
 134:/Library/DaisyToolchain/0.2.0/arm/arm-none-eabi/include/c++/10.3.1/cmath ****     inline _GLIBCXX_CONSTEXPR
 135:/Library/DaisyToolchain/0.2.0/arm/arm-none-eabi/include/c++/10.3.1/cmath ****     typename __gnu_cxx::__enable_if<__is_integer<_Tp>::__value,
 136:/Library/DaisyToolchain/0.2.0/arm/arm-none-eabi/include/c++/10.3.1/cmath ****                                     double>::__type
 137:/Library/DaisyToolchain/0.2.0/arm/arm-none-eabi/include/c++/10.3.1/cmath ****     atan(_Tp __x)
 138:/Library/DaisyToolchain/0.2.0/arm/arm-none-eabi/include/c++/10.3.1/cmath ****     { return __builtin_atan(__x); }
 139:/Library/DaisyToolchain/0.2.0/arm/arm-none-eabi/include/c++/10.3.1/cmath **** 
 140:/Library/DaisyToolchain/0.2.0/arm/arm-none-eabi/include/c++/10.3.1/cmath ****   using ::atan2;
 141:/Library/DaisyToolchain/0.2.0/arm/arm-none-eabi/include/c++/10.3.1/cmath **** 
 142:/Library/DaisyToolchain/0.2.0/arm/arm-none-eabi/include/c++/10.3.1/cmath **** #ifndef __CORRECT_ISO_CPP_MATH_H_PROTO
 143:/Library/DaisyToolchain/0.2.0/arm/arm-none-eabi/include/c++/10.3.1/cmath ****   inline _GLIBCXX_CONSTEXPR float
 144:/Library/DaisyToolchain/0.2.0/arm/arm-none-eabi/include/c++/10.3.1/cmath ****   atan2(float __y, float __x)
 145:/Library/DaisyToolchain/0.2.0/arm/arm-none-eabi/include/c++/10.3.1/cmath ****   { return __builtin_atan2f(__y, __x); }
 146:/Library/DaisyToolchain/0.2.0/arm/arm-none-eabi/include/c++/10.3.1/cmath **** 
 147:/Library/DaisyToolchain/0.2.0/arm/arm-none-eabi/include/c++/10.3.1/cmath ****   inline _GLIBCXX_CONSTEXPR long double
 148:/Library/DaisyToolchain/0.2.0/arm/arm-none-eabi/include/c++/10.3.1/cmath ****   atan2(long double __y, long double __x)
 149:/Library/DaisyToolchain/0.2.0/arm/arm-none-eabi/include/c++/10.3.1/cmath ****   { return __builtin_atan2l(__y, __x); }
 150:/Library/DaisyToolchain/0.2.0/arm/arm-none-eabi/include/c++/10.3.1/cmath **** #endif
 151:/Library/DaisyToolchain/0.2.0/arm/arm-none-eabi/include/c++/10.3.1/cmath **** 
 152:/Library/DaisyToolchain/0.2.0/arm/arm-none-eabi/include/c++/10.3.1/cmath ****   template<typename _Tp, typename _Up>
 153:/Library/DaisyToolchain/0.2.0/arm/arm-none-eabi/include/c++/10.3.1/cmath ****     inline _GLIBCXX_CONSTEXPR
 154:/Library/DaisyToolchain/0.2.0/arm/arm-none-eabi/include/c++/10.3.1/cmath ****     typename __gnu_cxx::__promote_2<_Tp, _Up>::__type
 155:/Library/DaisyToolchain/0.2.0/arm/arm-none-eabi/include/c++/10.3.1/cmath ****     atan2(_Tp __y, _Up __x)
 156:/Library/DaisyToolchain/0.2.0/arm/arm-none-eabi/include/c++/10.3.1/cmath ****     {
 157:/Library/DaisyToolchain/0.2.0/arm/arm-none-eabi/include/c++/10.3.1/cmath ****       typedef typename __gnu_cxx::__promote_2<_Tp, _Up>::__type __type;
 158:/Library/DaisyToolchain/0.2.0/arm/arm-none-eabi/include/c++/10.3.1/cmath ****       return atan2(__type(__y), __type(__x));
 159:/Library/DaisyToolchain/0.2.0/arm/arm-none-eabi/include/c++/10.3.1/cmath ****     }
 160:/Library/DaisyToolchain/0.2.0/arm/arm-none-eabi/include/c++/10.3.1/cmath **** 
 161:/Library/DaisyToolchain/0.2.0/arm/arm-none-eabi/include/c++/10.3.1/cmath ****   using ::ceil;
 162:/Library/DaisyToolchain/0.2.0/arm/arm-none-eabi/include/c++/10.3.1/cmath **** 
 163:/Library/DaisyToolchain/0.2.0/arm/arm-none-eabi/include/c++/10.3.1/cmath **** #ifndef __CORRECT_ISO_CPP_MATH_H_PROTO
 164:/Library/DaisyToolchain/0.2.0/arm/arm-none-eabi/include/c++/10.3.1/cmath ****   inline _GLIBCXX_CONSTEXPR float
 165:/Library/DaisyToolchain/0.2.0/arm/arm-none-eabi/include/c++/10.3.1/cmath ****   ceil(float __x)
 166:/Library/DaisyToolchain/0.2.0/arm/arm-none-eabi/include/c++/10.3.1/cmath ****   { return __builtin_ceilf(__x); }
ARM GAS  /var/folders/2p/02m_5p7958535cp2tpgps0400000gn/T//ccHnEWZO.s 			page 99


 167:/Library/DaisyToolchain/0.2.0/arm/arm-none-eabi/include/c++/10.3.1/cmath **** 
 168:/Library/DaisyToolchain/0.2.0/arm/arm-none-eabi/include/c++/10.3.1/cmath ****   inline _GLIBCXX_CONSTEXPR long double
 169:/Library/DaisyToolchain/0.2.0/arm/arm-none-eabi/include/c++/10.3.1/cmath ****   ceil(long double __x)
 170:/Library/DaisyToolchain/0.2.0/arm/arm-none-eabi/include/c++/10.3.1/cmath ****   { return __builtin_ceill(__x); }
 171:/Library/DaisyToolchain/0.2.0/arm/arm-none-eabi/include/c++/10.3.1/cmath **** #endif
 172:/Library/DaisyToolchain/0.2.0/arm/arm-none-eabi/include/c++/10.3.1/cmath **** 
 173:/Library/DaisyToolchain/0.2.0/arm/arm-none-eabi/include/c++/10.3.1/cmath ****   template<typename _Tp>
 174:/Library/DaisyToolchain/0.2.0/arm/arm-none-eabi/include/c++/10.3.1/cmath ****     inline _GLIBCXX_CONSTEXPR
 175:/Library/DaisyToolchain/0.2.0/arm/arm-none-eabi/include/c++/10.3.1/cmath ****     typename __gnu_cxx::__enable_if<__is_integer<_Tp>::__value, 
 176:/Library/DaisyToolchain/0.2.0/arm/arm-none-eabi/include/c++/10.3.1/cmath ****                                     double>::__type
 177:/Library/DaisyToolchain/0.2.0/arm/arm-none-eabi/include/c++/10.3.1/cmath ****     ceil(_Tp __x)
 178:/Library/DaisyToolchain/0.2.0/arm/arm-none-eabi/include/c++/10.3.1/cmath ****     { return __builtin_ceil(__x); }
 179:/Library/DaisyToolchain/0.2.0/arm/arm-none-eabi/include/c++/10.3.1/cmath **** 
 180:/Library/DaisyToolchain/0.2.0/arm/arm-none-eabi/include/c++/10.3.1/cmath ****   using ::cos;
 181:/Library/DaisyToolchain/0.2.0/arm/arm-none-eabi/include/c++/10.3.1/cmath **** 
 182:/Library/DaisyToolchain/0.2.0/arm/arm-none-eabi/include/c++/10.3.1/cmath **** #ifndef __CORRECT_ISO_CPP_MATH_H_PROTO
 183:/Library/DaisyToolchain/0.2.0/arm/arm-none-eabi/include/c++/10.3.1/cmath ****   inline _GLIBCXX_CONSTEXPR float
 184:/Library/DaisyToolchain/0.2.0/arm/arm-none-eabi/include/c++/10.3.1/cmath ****   cos(float __x)
 185:/Library/DaisyToolchain/0.2.0/arm/arm-none-eabi/include/c++/10.3.1/cmath ****   { return __builtin_cosf(__x); }
 186:/Library/DaisyToolchain/0.2.0/arm/arm-none-eabi/include/c++/10.3.1/cmath **** 
 187:/Library/DaisyToolchain/0.2.0/arm/arm-none-eabi/include/c++/10.3.1/cmath ****   inline _GLIBCXX_CONSTEXPR long double
 188:/Library/DaisyToolchain/0.2.0/arm/arm-none-eabi/include/c++/10.3.1/cmath ****   cos(long double __x)
 189:/Library/DaisyToolchain/0.2.0/arm/arm-none-eabi/include/c++/10.3.1/cmath ****   { return __builtin_cosl(__x); }
 190:/Library/DaisyToolchain/0.2.0/arm/arm-none-eabi/include/c++/10.3.1/cmath **** #endif
 191:/Library/DaisyToolchain/0.2.0/arm/arm-none-eabi/include/c++/10.3.1/cmath **** 
 192:/Library/DaisyToolchain/0.2.0/arm/arm-none-eabi/include/c++/10.3.1/cmath ****   template<typename _Tp>
 193:/Library/DaisyToolchain/0.2.0/arm/arm-none-eabi/include/c++/10.3.1/cmath ****     inline _GLIBCXX_CONSTEXPR
 194:/Library/DaisyToolchain/0.2.0/arm/arm-none-eabi/include/c++/10.3.1/cmath ****     typename __gnu_cxx::__enable_if<__is_integer<_Tp>::__value,
 195:/Library/DaisyToolchain/0.2.0/arm/arm-none-eabi/include/c++/10.3.1/cmath ****                                     double>::__type
 196:/Library/DaisyToolchain/0.2.0/arm/arm-none-eabi/include/c++/10.3.1/cmath ****     cos(_Tp __x)
 197:/Library/DaisyToolchain/0.2.0/arm/arm-none-eabi/include/c++/10.3.1/cmath ****     { return __builtin_cos(__x); }
 198:/Library/DaisyToolchain/0.2.0/arm/arm-none-eabi/include/c++/10.3.1/cmath **** 
 199:/Library/DaisyToolchain/0.2.0/arm/arm-none-eabi/include/c++/10.3.1/cmath ****   using ::cosh;
 200:/Library/DaisyToolchain/0.2.0/arm/arm-none-eabi/include/c++/10.3.1/cmath **** 
 201:/Library/DaisyToolchain/0.2.0/arm/arm-none-eabi/include/c++/10.3.1/cmath **** #ifndef __CORRECT_ISO_CPP_MATH_H_PROTO
 202:/Library/DaisyToolchain/0.2.0/arm/arm-none-eabi/include/c++/10.3.1/cmath ****   inline _GLIBCXX_CONSTEXPR float
 203:/Library/DaisyToolchain/0.2.0/arm/arm-none-eabi/include/c++/10.3.1/cmath ****   cosh(float __x)
 204:/Library/DaisyToolchain/0.2.0/arm/arm-none-eabi/include/c++/10.3.1/cmath ****   { return __builtin_coshf(__x); }
 205:/Library/DaisyToolchain/0.2.0/arm/arm-none-eabi/include/c++/10.3.1/cmath **** 
 206:/Library/DaisyToolchain/0.2.0/arm/arm-none-eabi/include/c++/10.3.1/cmath ****   inline _GLIBCXX_CONSTEXPR long double
 207:/Library/DaisyToolchain/0.2.0/arm/arm-none-eabi/include/c++/10.3.1/cmath ****   cosh(long double __x)
 208:/Library/DaisyToolchain/0.2.0/arm/arm-none-eabi/include/c++/10.3.1/cmath ****   { return __builtin_coshl(__x); }
 209:/Library/DaisyToolchain/0.2.0/arm/arm-none-eabi/include/c++/10.3.1/cmath **** #endif
 210:/Library/DaisyToolchain/0.2.0/arm/arm-none-eabi/include/c++/10.3.1/cmath **** 
 211:/Library/DaisyToolchain/0.2.0/arm/arm-none-eabi/include/c++/10.3.1/cmath ****   template<typename _Tp>
 212:/Library/DaisyToolchain/0.2.0/arm/arm-none-eabi/include/c++/10.3.1/cmath ****     inline _GLIBCXX_CONSTEXPR
 213:/Library/DaisyToolchain/0.2.0/arm/arm-none-eabi/include/c++/10.3.1/cmath ****     typename __gnu_cxx::__enable_if<__is_integer<_Tp>::__value,
 214:/Library/DaisyToolchain/0.2.0/arm/arm-none-eabi/include/c++/10.3.1/cmath ****                                     double>::__type
 215:/Library/DaisyToolchain/0.2.0/arm/arm-none-eabi/include/c++/10.3.1/cmath ****     cosh(_Tp __x)
 216:/Library/DaisyToolchain/0.2.0/arm/arm-none-eabi/include/c++/10.3.1/cmath ****     { return __builtin_cosh(__x); }
 217:/Library/DaisyToolchain/0.2.0/arm/arm-none-eabi/include/c++/10.3.1/cmath **** 
 218:/Library/DaisyToolchain/0.2.0/arm/arm-none-eabi/include/c++/10.3.1/cmath ****   using ::exp;
 219:/Library/DaisyToolchain/0.2.0/arm/arm-none-eabi/include/c++/10.3.1/cmath **** 
 220:/Library/DaisyToolchain/0.2.0/arm/arm-none-eabi/include/c++/10.3.1/cmath **** #ifndef __CORRECT_ISO_CPP_MATH_H_PROTO
 221:/Library/DaisyToolchain/0.2.0/arm/arm-none-eabi/include/c++/10.3.1/cmath ****   inline _GLIBCXX_CONSTEXPR float
 222:/Library/DaisyToolchain/0.2.0/arm/arm-none-eabi/include/c++/10.3.1/cmath ****   exp(float __x)
 223:/Library/DaisyToolchain/0.2.0/arm/arm-none-eabi/include/c++/10.3.1/cmath ****   { return __builtin_expf(__x); }
ARM GAS  /var/folders/2p/02m_5p7958535cp2tpgps0400000gn/T//ccHnEWZO.s 			page 100


 224:/Library/DaisyToolchain/0.2.0/arm/arm-none-eabi/include/c++/10.3.1/cmath **** 
 225:/Library/DaisyToolchain/0.2.0/arm/arm-none-eabi/include/c++/10.3.1/cmath ****   inline _GLIBCXX_CONSTEXPR long double
 226:/Library/DaisyToolchain/0.2.0/arm/arm-none-eabi/include/c++/10.3.1/cmath ****   exp(long double __x)
 227:/Library/DaisyToolchain/0.2.0/arm/arm-none-eabi/include/c++/10.3.1/cmath ****   { return __builtin_expl(__x); }
 228:/Library/DaisyToolchain/0.2.0/arm/arm-none-eabi/include/c++/10.3.1/cmath **** #endif
 229:/Library/DaisyToolchain/0.2.0/arm/arm-none-eabi/include/c++/10.3.1/cmath **** 
 230:/Library/DaisyToolchain/0.2.0/arm/arm-none-eabi/include/c++/10.3.1/cmath ****   template<typename _Tp>
 231:/Library/DaisyToolchain/0.2.0/arm/arm-none-eabi/include/c++/10.3.1/cmath ****     inline _GLIBCXX_CONSTEXPR
 232:/Library/DaisyToolchain/0.2.0/arm/arm-none-eabi/include/c++/10.3.1/cmath ****     typename __gnu_cxx::__enable_if<__is_integer<_Tp>::__value,
 233:/Library/DaisyToolchain/0.2.0/arm/arm-none-eabi/include/c++/10.3.1/cmath ****                                     double>::__type
 234:/Library/DaisyToolchain/0.2.0/arm/arm-none-eabi/include/c++/10.3.1/cmath ****     exp(_Tp __x)
 235:/Library/DaisyToolchain/0.2.0/arm/arm-none-eabi/include/c++/10.3.1/cmath ****     { return __builtin_exp(__x); }
 236:/Library/DaisyToolchain/0.2.0/arm/arm-none-eabi/include/c++/10.3.1/cmath **** 
 237:/Library/DaisyToolchain/0.2.0/arm/arm-none-eabi/include/c++/10.3.1/cmath ****   using ::fabs;
 238:/Library/DaisyToolchain/0.2.0/arm/arm-none-eabi/include/c++/10.3.1/cmath **** 
 239:/Library/DaisyToolchain/0.2.0/arm/arm-none-eabi/include/c++/10.3.1/cmath **** #ifndef __CORRECT_ISO_CPP_MATH_H_PROTO
 240:/Library/DaisyToolchain/0.2.0/arm/arm-none-eabi/include/c++/10.3.1/cmath ****   inline _GLIBCXX_CONSTEXPR float
 241:/Library/DaisyToolchain/0.2.0/arm/arm-none-eabi/include/c++/10.3.1/cmath ****   fabs(float __x)
 3178              		.loc 14 241 3 is_stmt 1 view .LVU890
 3179              	.LBB659:
 242:/Library/DaisyToolchain/0.2.0/arm/arm-none-eabi/include/c++/10.3.1/cmath ****   { return __builtin_fabsf(__x); }
 3180              		.loc 14 242 5 view .LVU891
 3181              		.loc 14 242 5 is_stmt 0 view .LVU892
 3182              	.LBE659:
 3183              	.LBE658:
 337:GrannyChordApp.cpp ****         (fabs(prev_k1_pos[mode_idx] - prev_param_k1[mode_idx])<=0.05f)){
 3184              		.loc 2 337 14 view .LVU893
 3185 007a 38EEE77A 		vsub.f32	s14, s17, s15
 3186              	.LBB661:
 3187              	.LBB660:
 3188              		.loc 14 242 31 view .LVU894
 3189 007e B0EEC77A 		vabs.f32	s14, s14
 3190              	.LBE660:
 3191              	.LBE661:
 337:GrannyChordApp.cpp ****         (fabs(prev_k1_pos[mode_idx] - prev_param_k1[mode_idx])<=0.05f)){
 3192              		.loc 2 337 58 view .LVU895
 3193 0082 B4EEE67A 		vcmpe.f32	s14, s13
 3194 0086 F1EE10FA 		vmrs	APSR_nzcv, FPSCR
 3195 008a 10D8     		bhi	.L146
 3196              	.LVL226:
 3197              	.LBB662:
 3198              	.LBI662:
 241:/Library/DaisyToolchain/0.2.0/arm/arm-none-eabi/include/c++/10.3.1/cmath ****   { return __builtin_fabsf(__x); }
 3199              		.loc 14 241 3 is_stmt 1 view .LVU896
 3200              	.LBB663:
 3201              		.loc 14 242 5 view .LVU897
 3202              		.loc 14 242 5 is_stmt 0 view .LVU898
 3203              	.LBE663:
 3204              	.LBE662:
 338:GrannyChordApp.cpp ****           knob1_latched = true;
 3205              		.loc 2 338 14 view .LVU899
 3206 008c 93ED917A 		vldr.32	s14, [r3, #580]
 3207 0090 77EEC77A 		vsub.f32	s15, s15, s14
 3208              	.LBB665:
 3209              	.LBB664:
 3210              		.loc 14 242 31 view .LVU900
 3211 0094 F0EEE77A 		vabs.f32	s15, s15
ARM GAS  /var/folders/2p/02m_5p7958535cp2tpgps0400000gn/T//ccHnEWZO.s 			page 101


 3212              	.LBE664:
 3213              	.LBE665:
 337:GrannyChordApp.cpp ****         (fabs(prev_k1_pos[mode_idx] - prev_param_k1[mode_idx])<=0.05f)){
 3214              		.loc 2 337 58 view .LVU901
 3215 0098 F4EEE67A 		vcmpe.f32	s15, s13
 3216 009c F1EE10FA 		vmrs	APSR_nzcv, FPSCR
 3217 00a0 05D8     		bhi	.L146
 339:GrannyChordApp.cpp ****           DebugPrint(pod_, "latched 1");
 3218              		.loc 2 339 11 is_stmt 1 view .LVU902
 339:GrannyChordApp.cpp ****           DebugPrint(pod_, "latched 1");
 3219              		.loc 2 339 25 is_stmt 0 view .LVU903
 3220 00a2 0123     		movs	r3, #1
 3221              	.LBB666:
 3222              	.LBB667:
 3223              		.loc 4 128 23 view .LVU904
 3224 00a4 2E48     		ldr	r0, .L168+12
 3225              	.LBE667:
 3226              	.LBE666:
 339:GrannyChordApp.cpp ****           DebugPrint(pod_, "latched 1");
 3227              		.loc 2 339 25 view .LVU905
 3228 00a6 84F8F430 		strb	r3, [r4, #244]
 340:GrannyChordApp.cpp ****     }
 3229              		.loc 2 340 11 is_stmt 1 view .LVU906
 340:GrannyChordApp.cpp ****     }
 3230              		.loc 2 340 11 view .LVU907
 3231              	.LVL227:
 3232              	.LBB669:
 3233              	.LBI666:
 126:../libDaisy/src/daisy_seed.h ****     {
 3234              		.loc 4 126 17 view .LVU908
 3235              	.LBB668:
 3236              		.loc 4 128 23 is_stmt 0 view .LVU909
 3237 00aa FFF7FEFF 		bl	_ZN5daisy6LoggerILNS_17LoggerDestinationE1EE9PrintLineEPKcz
 3238              	.LVL228:
 3239              	.L146:
 3240              		.loc 4 128 23 view .LVU910
 3241              	.LBE668:
 3242              	.LBE669:
 344:GrannyChordApp.cpp ****     if ((fabs(knob2_val-prev_k2_pos[mode_idx])<=0.05f) &&
 3243              		.loc 2 344 3 is_stmt 1 view .LVU911
 3244 00ae 94F8F530 		ldrb	r3, [r4, #245]	@ zero_extendqisi2
 3245 00b2 FBB9     		cbnz	r3, .L149
 345:GrannyChordApp.cpp ****         (fabs(prev_k2_pos[mode_idx]-prev_param_k2[mode_idx])<=0.05f)){
 3246              		.loc 2 345 5 view .LVU912
 3247 00b4 04EB8503 		add	r3, r4, r5, lsl #2
 345:GrannyChordApp.cpp ****         (fabs(prev_k2_pos[mode_idx]-prev_param_k2[mode_idx])<=0.05f)){
 3248              		.loc 2 345 56 is_stmt 0 view .LVU913
 3249 00b8 DFED286A 		vldr.32	s13, .L168+8
 345:GrannyChordApp.cpp ****         (fabs(prev_k2_pos[mode_idx]-prev_param_k2[mode_idx])<=0.05f)){
 3250              		.loc 2 345 45 view .LVU914
 3251 00bc D3ED9D7A 		vldr.32	s15, [r3, #628]
 3252              	.LVL229:
 3253              	.LBB670:
 3254              	.LBI670:
 241:/Library/DaisyToolchain/0.2.0/arm/arm-none-eabi/include/c++/10.3.1/cmath ****   { return __builtin_fabsf(__x); }
 3255              		.loc 14 241 3 is_stmt 1 view .LVU915
 3256              	.LBB671:
ARM GAS  /var/folders/2p/02m_5p7958535cp2tpgps0400000gn/T//ccHnEWZO.s 			page 102


 3257              		.loc 14 242 5 view .LVU916
 3258              		.loc 14 242 5 is_stmt 0 view .LVU917
 3259              	.LBE671:
 3260              	.LBE670:
 345:GrannyChordApp.cpp ****         (fabs(prev_k2_pos[mode_idx]-prev_param_k2[mode_idx])<=0.05f)){
 3261              		.loc 2 345 14 view .LVU918
 3262 00c0 38EE677A 		vsub.f32	s14, s16, s15
 3263              	.LBB673:
 3264              	.LBB672:
 3265              		.loc 14 242 31 view .LVU919
 3266 00c4 B0EEC77A 		vabs.f32	s14, s14
 3267              	.LBE672:
 3268              	.LBE673:
 345:GrannyChordApp.cpp ****         (fabs(prev_k2_pos[mode_idx]-prev_param_k2[mode_idx])<=0.05f)){
 3269              		.loc 2 345 56 view .LVU920
 3270 00c8 B4EEE67A 		vcmpe.f32	s14, s13
 3271 00cc F1EE10FA 		vmrs	APSR_nzcv, FPSCR
 3272 00d0 10D8     		bhi	.L149
 3273              	.LVL230:
 3274              	.LBB674:
 3275              	.LBI674:
 241:/Library/DaisyToolchain/0.2.0/arm/arm-none-eabi/include/c++/10.3.1/cmath ****   { return __builtin_fabsf(__x); }
 3276              		.loc 14 241 3 is_stmt 1 view .LVU921
 3277              	.LBB675:
 3278              		.loc 14 242 5 view .LVU922
 3279              		.loc 14 242 5 is_stmt 0 view .LVU923
 3280              	.LBE675:
 3281              	.LBE674:
 346:GrannyChordApp.cpp ****           knob2_latched = true;
 3282              		.loc 2 346 14 view .LVU924
 3283 00d2 93ED957A 		vldr.32	s14, [r3, #596]
 3284 00d6 77EEC77A 		vsub.f32	s15, s15, s14
 3285              	.LBB677:
 3286              	.LBB676:
 3287              		.loc 14 242 31 view .LVU925
 3288 00da F0EEE77A 		vabs.f32	s15, s15
 3289              	.LBE676:
 3290              	.LBE677:
 345:GrannyChordApp.cpp ****         (fabs(prev_k2_pos[mode_idx]-prev_param_k2[mode_idx])<=0.05f)){
 3291              		.loc 2 345 56 view .LVU926
 3292 00de F4EEE67A 		vcmpe.f32	s15, s13
 3293 00e2 F1EE10FA 		vmrs	APSR_nzcv, FPSCR
 3294 00e6 05D8     		bhi	.L149
 347:GrannyChordApp.cpp ****           DebugPrint(pod_, "latched 2");
 3295              		.loc 2 347 11 is_stmt 1 view .LVU927
 347:GrannyChordApp.cpp ****           DebugPrint(pod_, "latched 2");
 3296              		.loc 2 347 25 is_stmt 0 view .LVU928
 3297 00e8 0123     		movs	r3, #1
 3298              	.LBB678:
 3299              	.LBB679:
 3300              		.loc 4 128 23 view .LVU929
 3301 00ea 1E48     		ldr	r0, .L168+16
 3302              	.LBE679:
 3303              	.LBE678:
 347:GrannyChordApp.cpp ****           DebugPrint(pod_, "latched 2");
 3304              		.loc 2 347 25 view .LVU930
 3305 00ec 84F8F530 		strb	r3, [r4, #245]
ARM GAS  /var/folders/2p/02m_5p7958535cp2tpgps0400000gn/T//ccHnEWZO.s 			page 103


 348:GrannyChordApp.cpp ****     }
 3306              		.loc 2 348 11 is_stmt 1 view .LVU931
 348:GrannyChordApp.cpp ****     }
 3307              		.loc 2 348 11 view .LVU932
 3308              	.LVL231:
 3309              	.LBB681:
 3310              	.LBI678:
 126:../libDaisy/src/daisy_seed.h ****     {
 3311              		.loc 4 126 17 view .LVU933
 3312              	.LBB680:
 3313              		.loc 4 128 23 is_stmt 0 view .LVU934
 3314 00f0 FFF7FEFF 		bl	_ZN5daisy6LoggerILNS_17LoggerDestinationE1EE9PrintLineEPKcz
 3315              	.LVL232:
 3316              	.L149:
 3317              		.loc 4 128 23 view .LVU935
 3318              	.LBE680:
 3319              	.LBE681:
 352:GrannyChordApp.cpp ****     UpdateKnob1Params(knob1_val, curr_synth_mode_);
 3320              		.loc 2 352 3 is_stmt 1 view .LVU936
 3321 00f4 94F8F430 		ldrb	r3, [r4, #244]	@ zero_extendqisi2
 3322 00f8 63B1     		cbz	r3, .L152
 353:GrannyChordApp.cpp ****     prev_param_k1[mode_idx] = knob1_val;
 3323              		.loc 2 353 5 view .LVU937
 353:GrannyChordApp.cpp ****     prev_param_k1[mode_idx] = knob1_val;
 3324              		.loc 2 353 22 is_stmt 0 view .LVU938
 3325 00fa B0EE680A 		vmov.f32	s0, s17
 3326 00fe D4F8EC10 		ldr	r1, [r4, #236]
 3327 0102 2046     		mov	r0, r4
 3328 0104 FFF7FEFF 		bl	_ZN14GrannyChordApp17UpdateKnob1ParamsEf9SynthMode
 3329              	.LVL233:
 354:GrannyChordApp.cpp ****     prev_k1_pos[mode_idx] = knob1_val;
 3330              		.loc 2 354 5 is_stmt 1 view .LVU939
 3331 0108 04EB8503 		add	r3, r4, r5, lsl #2
 354:GrannyChordApp.cpp ****     prev_k1_pos[mode_idx] = knob1_val;
 3332              		.loc 2 354 29 is_stmt 0 view .LVU940
 3333 010c C3ED918A 		vstr.32	s17, [r3, #580]
 355:GrannyChordApp.cpp ****     // System::Delay(5);
 3334              		.loc 2 355 5 is_stmt 1 view .LVU941
 355:GrannyChordApp.cpp ****     // System::Delay(5);
 3335              		.loc 2 355 27 is_stmt 0 view .LVU942
 3336 0110 C3ED998A 		vstr.32	s17, [r3, #612]
 3337              	.L152:
 359:GrannyChordApp.cpp ****     UpdateKnob2Params(knob2_val, curr_synth_mode_);
 3338              		.loc 2 359 3 is_stmt 1 view .LVU943
 3339 0114 94F8F530 		ldrb	r3, [r4, #245]	@ zero_extendqisi2
 3340 0118 63B1     		cbz	r3, .L153
 360:GrannyChordApp.cpp ****     prev_param_k2[mode_idx] = knob2_val;
 3341              		.loc 2 360 5 view .LVU944
 360:GrannyChordApp.cpp ****     prev_param_k2[mode_idx] = knob2_val;
 3342              		.loc 2 360 22 is_stmt 0 view .LVU945
 3343 011a D4F8EC10 		ldr	r1, [r4, #236]
 3344 011e 2046     		mov	r0, r4
 3345 0120 04EB8504 		add	r4, r4, r5, lsl #2
 3346              	.LVL234:
 360:GrannyChordApp.cpp ****     prev_param_k2[mode_idx] = knob2_val;
 3347              		.loc 2 360 22 view .LVU946
 3348 0124 B0EE480A 		vmov.f32	s0, s16
ARM GAS  /var/folders/2p/02m_5p7958535cp2tpgps0400000gn/T//ccHnEWZO.s 			page 104


 3349 0128 FFF7FEFF 		bl	_ZN14GrannyChordApp17UpdateKnob2ParamsEf9SynthMode
 3350              	.LVL235:
 361:GrannyChordApp.cpp ****     prev_k2_pos[mode_idx] = knob2_val;
 3351              		.loc 2 361 5 is_stmt 1 view .LVU947
 361:GrannyChordApp.cpp ****     prev_k2_pos[mode_idx] = knob2_val;
 3352              		.loc 2 361 29 is_stmt 0 view .LVU948
 3353 012c 84ED958A 		vstr.32	s16, [r4, #596]
 362:GrannyChordApp.cpp ****     // System::Delay(5);
 3354              		.loc 2 362 5 is_stmt 1 view .LVU949
 362:GrannyChordApp.cpp ****     // System::Delay(5);
 3355              		.loc 2 362 27 is_stmt 0 view .LVU950
 3356 0130 84ED9D8A 		vstr.32	s16, [r4, #628]
 3357              	.L153:
 365:GrannyChordApp.cpp **** }
 3358              		.loc 2 365 3 is_stmt 1 view .LVU951
 365:GrannyChordApp.cpp **** }
 3359              		.loc 2 365 16 is_stmt 0 view .LVU952
 3360 0134 0120     		movs	r0, #1
 3361              	.LBE649:
 3362              	.LBE648:
 366:GrannyChordApp.cpp **** 
 3363              		.loc 2 366 1 view .LVU953
 3364 0136 BDEC048B 		vldm	sp!, {d8-d9}
 3365              		.cfi_remember_state
 3366              		.cfi_restore 82
 3367              		.cfi_restore 83
 3368              		.cfi_restore 80
 3369              		.cfi_restore 81
 3370              		.cfi_def_cfa_offset 16
 3371              	.LVL236:
 366:GrannyChordApp.cpp **** 
 3372              		.loc 2 366 1 view .LVU954
 3373 013a BDE83840 		pop	{r3, r4, r5, lr}
 3374              		.cfi_restore 14
 3375              		.cfi_restore 5
 3376              		.cfi_restore 4
 3377              		.cfi_restore 3
 3378              		.cfi_def_cfa_offset 0
 3379              	.LVL237:
 3380              	.LBB685:
 3381              	.LBB684:
 365:GrannyChordApp.cpp **** }
 3382              		.loc 2 365 16 view .LVU955
 3383 013e FFF7FEBF 		b	_ZN5daisy6System5DelayEm
 3384              	.LVL238:
 3385              	.L154:
 3386              		.cfi_restore_state
 3387              	.LBB682:
 3388              	.LBB653:
 659:GrannyChordApp.cpp ****   if (knob_val>=0.99f) return 1.0f;
 3389              		.loc 2 659 31 view .LVU956
 3390 0142 DFED098A 		vldr.32	s17, .L168+20
 3391 0146 7CE7     		b	.L142
 3392              	.LVL239:
 3393              	.L155:
 659:GrannyChordApp.cpp ****   if (knob_val>=0.99f) return 1.0f;
 3394              		.loc 2 659 31 view .LVU957
ARM GAS  /var/folders/2p/02m_5p7958535cp2tpgps0400000gn/T//ccHnEWZO.s 			page 105


 3395              	.LBE653:
 3396              	.LBE682:
 3397              	.LBB683:
 3398              	.LBB657:
 3399 0148 9FED078A 		vldr.32	s16, .L168+20
 3400 014c 8CE7     		b	.L144
 3401              	.LVL240:
 3402              	.L140:
 659:GrannyChordApp.cpp ****   if (knob_val>=0.99f) return 1.0f;
 3403              		.loc 2 659 31 view .LVU958
 3404              	.LBE657:
 3405              	.LBE683:
 3406              	.LBE684:
 3407              	.LBE685:
 366:GrannyChordApp.cpp **** 
 3408              		.loc 2 366 1 view .LVU959
 3409 014e BDEC048B 		vldm	sp!, {d8-d9}
 3410              		.cfi_restore 82
 3411              		.cfi_restore 83
 3412              		.cfi_restore 80
 3413              		.cfi_restore 81
 3414              		.cfi_def_cfa_offset 16
 3415 0152 38BD     		pop	{r3, r4, r5, pc}
 3416              	.L169:
 3417              		.align	2
 3418              	.L168:
 3419 0154 0AD7233C 		.word	1008981770
 3420 0158 A4707D3F 		.word	1065185444
 3421 015c CDCC4C3D 		.word	1028443341
 3422 0160 00000000 		.word	.LC13
 3423 0164 0A000000 		.word	.LC14
 3424 0168 00000000 		.word	0
 3425              		.cfi_endproc
 3426              	.LFE4930:
 3428              		.section	.rodata._ZN14GrannyChordApp15DebugPrintStateE8AppState.str1.1,"aMS",%progbits,1
 3429              	.LC15:
 3430 0000 53746174 		.ascii	"State now in: SelectFile\000"
 3430      65206E6F 
 3430      7720696E 
 3430      3A205365 
 3430      6C656374 
 3431              	.LC16:
 3432 0019 53746174 		.ascii	"State now in: RecordIn\000"
 3432      65206E6F 
 3432      7720696E 
 3432      3A205265 
 3432      636F7264 
 3433              	.LC17:
 3434 0030 53746174 		.ascii	"State now in: PlayWAV\000"
 3434      65206E6F 
 3434      7720696E 
 3434      3A20506C 
 3434      61795741 
 3435              	.LC18:
 3436 0046 53746174 		.ascii	"State now in: Synthesis\000"
 3436      65206E6F 
 3436      7720696E 
ARM GAS  /var/folders/2p/02m_5p7958535cp2tpgps0400000gn/T//ccHnEWZO.s 			page 106


 3436      3A205379 
 3436      6E746865 
 3437              	.LC19:
 3438 005e 53746174 		.ascii	"State now in: Error\000"
 3438      65206E6F 
 3438      7720696E 
 3438      3A204572 
 3438      726F7200 
 3439              		.section	.text._ZN14GrannyChordApp15DebugPrintStateE8AppState,"ax",%progbits
 3440              		.align	1
 3441              		.global	_ZN14GrannyChordApp15DebugPrintStateE8AppState
 3442              		.syntax unified
 3443              		.thumb
 3444              		.thumb_func
 3446              	_ZN14GrannyChordApp15DebugPrintStateE8AppState:
 3447              	.LVL241:
 3448              	.LFB4950:
 661:GrannyChordApp.cpp ****   return knob_val;
 662:GrannyChordApp.cpp **** }
 663:GrannyChordApp.cpp **** 
 664:GrannyChordApp.cpp **** inline bool GrannyChordApp::UpdateKnobPassThru(bool *knob_latched, float curr_knob_val, float prev_
 665:GrannyChordApp.cpp ****   if ((*knob_latched)){
 666:GrannyChordApp.cpp ****     if (fabs(curr_knob_val - prev_param)<0.001){
 667:GrannyChordApp.cpp ****       (*knob_latched) = false;
 668:GrannyChordApp.cpp ****       DebugPrint(pod_, "unlatched knob");
 669:GrannyChordApp.cpp ****       return true;
 670:GrannyChordApp.cpp ****     }
 671:GrannyChordApp.cpp ****     else return false;
 672:GrannyChordApp.cpp ****   }
 673:GrannyChordApp.cpp ****   else return true;
 674:GrannyChordApp.cpp **** }
 675:GrannyChordApp.cpp **** 
 676:GrannyChordApp.cpp **** 
 677:GrannyChordApp.cpp **** 
 678:GrannyChordApp.cpp **** void GrannyChordApp::DebugPrintState(AppState state){
 3449              		.loc 2 678 53 is_stmt 1 view -0
 3450              		.cfi_startproc
 3451              		@ args = 0, pretend = 0, frame = 0
 3452              		@ frame_needed = 0, uses_anonymous_args = 0
 3453              		@ link register save eliminated.
 679:GrannyChordApp.cpp ****   switch(state){
 3454              		.loc 2 679 3 view .LVU961
 3455 0000 0329     		cmp	r1, #3
 3456 0002 0CD8     		bhi	.L171
 3457 0004 DFE801F0 		tbb	[pc, r1]
 3458              	.L173:
 3459 0008 02       		.byte	(.L176-.L173)/2
 3460 0009 07       		.byte	(.L175-.L173)/2
 3461 000a 09       		.byte	(.L174-.L173)/2
 3462 000b 05       		.byte	(.L172-.L173)/2
 3463              		.p2align 1
 3464              	.L176:
 680:GrannyChordApp.cpp ****     case AppState::SelectFile:
 3465              		.loc 2 680 5 view .LVU962
 681:GrannyChordApp.cpp ****       DebugPrint(pod_, "State now in: SelectFile");
 3466              		.loc 2 681 7 view .LVU963
 3467              		.loc 2 681 7 view .LVU964
ARM GAS  /var/folders/2p/02m_5p7958535cp2tpgps0400000gn/T//ccHnEWZO.s 			page 107


 3468              	.LVL242:
 3469              	.LBB686:
 3470              	.LBI686:
 126:../libDaisy/src/daisy_seed.h ****     {
 3471              		.loc 4 126 17 view .LVU965
 3472              	.LBB687:
 3473              		.loc 4 128 23 is_stmt 0 view .LVU966
 3474 000c 0548     		ldr	r0, .L178
 3475              	.LVL243:
 3476              	.L177:
 3477              		.loc 4 128 23 view .LVU967
 3478              	.LBE687:
 3479              	.LBE686:
 3480              	.LBB688:
 3481              	.LBB689:
 3482 000e FFF7FEBF 		b	_ZN5daisy6LoggerILNS_17LoggerDestinationE1EE9PrintLineEPKcz
 3483              	.LVL244:
 3484              	.L172:
 3485              		.loc 4 128 23 view .LVU968
 3486              	.LBE689:
 3487              	.LBE688:
 682:GrannyChordApp.cpp ****       return;
 683:GrannyChordApp.cpp ****     case AppState::RecordIn:
 3488              		.loc 2 683 5 is_stmt 1 view .LVU969
 684:GrannyChordApp.cpp ****       DebugPrint(pod_, "State now in: RecordIn");
 3489              		.loc 2 684 7 view .LVU970
 3490              		.loc 2 684 7 view .LVU971
 3491              	.LBB691:
 3492              	.LBI691:
 126:../libDaisy/src/daisy_seed.h ****     {
 3493              		.loc 4 126 17 view .LVU972
 3494              	.LBB692:
 3495              		.loc 4 128 23 is_stmt 0 view .LVU973
 3496 0012 0548     		ldr	r0, .L178+4
 3497              	.LVL245:
 3498              		.loc 4 128 23 view .LVU974
 3499 0014 FBE7     		b	.L177
 3500              	.LVL246:
 3501              	.L175:
 3502              		.loc 4 128 23 view .LVU975
 3503              	.LBE692:
 3504              	.LBE691:
 685:GrannyChordApp.cpp ****       return;
 686:GrannyChordApp.cpp ****     case AppState::PlayWAV:
 3505              		.loc 2 686 5 is_stmt 1 view .LVU976
 687:GrannyChordApp.cpp ****       DebugPrint(pod_, "State now in: PlayWAV");
 3506              		.loc 2 687 7 view .LVU977
 3507              		.loc 2 687 7 view .LVU978
 3508              	.LBB693:
 3509              	.LBI693:
 126:../libDaisy/src/daisy_seed.h ****     {
 3510              		.loc 4 126 17 view .LVU979
 3511              	.LBB694:
 3512              		.loc 4 128 23 is_stmt 0 view .LVU980
 3513 0016 0548     		ldr	r0, .L178+8
 3514              	.LVL247:
 3515              		.loc 4 128 23 view .LVU981
ARM GAS  /var/folders/2p/02m_5p7958535cp2tpgps0400000gn/T//ccHnEWZO.s 			page 108


 3516 0018 F9E7     		b	.L177
 3517              	.LVL248:
 3518              	.L174:
 3519              		.loc 4 128 23 view .LVU982
 3520              	.LBE694:
 3521              	.LBE693:
 688:GrannyChordApp.cpp ****       return;
 689:GrannyChordApp.cpp ****     case AppState::Synthesis:
 3522              		.loc 2 689 5 is_stmt 1 view .LVU983
 690:GrannyChordApp.cpp ****       DebugPrint(pod_, "State now in: Synthesis");
 3523              		.loc 2 690 7 view .LVU984
 3524              		.loc 2 690 7 view .LVU985
 3525              	.LBB695:
 3526              	.LBI695:
 126:../libDaisy/src/daisy_seed.h ****     {
 3527              		.loc 4 126 17 view .LVU986
 3528              	.LBB696:
 3529              		.loc 4 128 23 is_stmt 0 view .LVU987
 3530 001a 0548     		ldr	r0, .L178+12
 3531              	.LVL249:
 3532              		.loc 4 128 23 view .LVU988
 3533 001c F7E7     		b	.L177
 3534              	.LVL250:
 3535              	.L171:
 3536              		.loc 4 128 23 view .LVU989
 3537              	.LBE696:
 3538              	.LBE695:
 691:GrannyChordApp.cpp ****       return;
 692:GrannyChordApp.cpp ****     // case AppState::ChordMode:
 693:GrannyChordApp.cpp ****       DebugPrint(pod_, "State now in: ChordMode");
 694:GrannyChordApp.cpp ****     case AppState::Error:
 3539              		.loc 2 694 5 is_stmt 1 view .LVU990
 695:GrannyChordApp.cpp ****     default:
 3540              		.loc 2 695 5 view .LVU991
 696:GrannyChordApp.cpp ****       DebugPrint(pod_, "State now in: Error");
 3541              		.loc 2 696 7 view .LVU992
 3542              		.loc 2 696 7 view .LVU993
 3543              	.LBB697:
 3544              	.LBI688:
 126:../libDaisy/src/daisy_seed.h ****     {
 3545              		.loc 4 126 17 view .LVU994
 3546              	.LBB690:
 3547              		.loc 4 128 23 is_stmt 0 view .LVU995
 3548 001e 0548     		ldr	r0, .L178+16
 3549              	.LVL251:
 3550              		.loc 4 128 23 view .LVU996
 3551 0020 F5E7     		b	.L177
 3552              	.L179:
 3553 0022 00BF     		.align	2
 3554              	.L178:
 3555 0024 00000000 		.word	.LC15
 3556 0028 19000000 		.word	.LC16
 3557 002c 30000000 		.word	.LC17
 3558 0030 46000000 		.word	.LC18
 3559 0034 5E000000 		.word	.LC19
 3560              	.LBE690:
 3561              	.LBE697:
ARM GAS  /var/folders/2p/02m_5p7958535cp2tpgps0400000gn/T//ccHnEWZO.s 			page 109


 3562              		.cfi_endproc
 3563              	.LFE4950:
 3565              		.section	.rodata._ZN14GrannyChordApp14DebugPrintModeE9SynthMode.str1.1,"aMS",%progbits,1
 3566              	.LC20:
 3567 0000 53746174 		.ascii	"State now in: SizePos\000"
 3567      65206E6F 
 3567      7720696E 
 3567      3A205369 
 3567      7A65506F 
 3568              	.LC21:
 3569 0016 53746174 		.ascii	"State now in: PitchGrains\000"
 3569      65206E6F 
 3569      7720696E 
 3569      3A205069 
 3569      74636847 
 3570              	.LC22:
 3571 0030 53746174 		.ascii	"State now in: Reverb\000"
 3571      65206E6F 
 3571      7720696E 
 3571      3A205265 
 3571      76657262 
 3572              	.LC23:
 3573 0045 53746174 		.ascii	"State now in: Filter\000"
 3573      65206E6F 
 3573      7720696E 
 3573      3A204669 
 3573      6C746572 
 3574              		.section	.text._ZN14GrannyChordApp14DebugPrintModeE9SynthMode,"ax",%progbits
 3575              		.align	1
 3576              		.global	_ZN14GrannyChordApp14DebugPrintModeE9SynthMode
 3577              		.syntax unified
 3578              		.thumb
 3579              		.thumb_func
 3581              	_ZN14GrannyChordApp14DebugPrintModeE9SynthMode:
 3582              	.LVL252:
 3583              	.LFB4951:
 697:GrannyChordApp.cpp ****       return;
 698:GrannyChordApp.cpp ****   }
 699:GrannyChordApp.cpp **** };
 700:GrannyChordApp.cpp **** 
 701:GrannyChordApp.cpp **** void GrannyChordApp::DebugPrintMode(SynthMode mode){
 3584              		.loc 2 701 52 is_stmt 1 view -0
 3585              		.cfi_startproc
 3586              		@ args = 0, pretend = 0, frame = 0
 3587              		@ frame_needed = 0, uses_anonymous_args = 0
 3588              		@ link register save eliminated.
 702:GrannyChordApp.cpp ****   switch(mode){
 3589              		.loc 2 702 3 view .LVU998
 3590 0000 0329     		cmp	r1, #3
 3591 0002 0CD8     		bhi	.L180
 3592 0004 DFE801F0 		tbb	[pc, r1]
 3593              	.L183:
 3594 0008 02       		.byte	(.L186-.L183)/2
 3595 0009 05       		.byte	(.L185-.L183)/2
 3596 000a 07       		.byte	(.L184-.L183)/2
 3597 000b 09       		.byte	(.L182-.L183)/2
 3598              		.p2align 1
ARM GAS  /var/folders/2p/02m_5p7958535cp2tpgps0400000gn/T//ccHnEWZO.s 			page 110


 3599              	.L186:
 703:GrannyChordApp.cpp ****     case SynthMode::Size_Position:
 3600              		.loc 2 703 5 view .LVU999
 704:GrannyChordApp.cpp ****       DebugPrint(pod_, "State now in: SizePos");
 3601              		.loc 2 704 7 view .LVU1000
 3602              		.loc 2 704 7 view .LVU1001
 3603              	.LVL253:
 3604              	.LBB698:
 3605              	.LBI698:
 126:../libDaisy/src/daisy_seed.h ****     {
 3606              		.loc 4 126 17 view .LVU1002
 3607              	.LBB699:
 3608              		.loc 4 128 23 is_stmt 0 view .LVU1003
 3609 000c 0448     		ldr	r0, .L188
 3610              	.LVL254:
 3611              	.L187:
 3612              		.loc 4 128 23 view .LVU1004
 3613              	.LBE699:
 3614              	.LBE698:
 3615              	.LBB700:
 3616              	.LBB701:
 3617 000e FFF7FEBF 		b	_ZN5daisy6LoggerILNS_17LoggerDestinationE1EE9PrintLineEPKcz
 3618              	.LVL255:
 3619              	.L185:
 3620              		.loc 4 128 23 view .LVU1005
 3621              	.LBE701:
 3622              	.LBE700:
 705:GrannyChordApp.cpp ****       return;
 706:GrannyChordApp.cpp ****     case SynthMode::Pitch_ActiveGrains:
 3623              		.loc 2 706 5 is_stmt 1 view .LVU1006
 707:GrannyChordApp.cpp ****       DebugPrint(pod_, "State now in: PitchGrains");
 3624              		.loc 2 707 7 view .LVU1007
 3625              		.loc 2 707 7 view .LVU1008
 3626              	.LBB703:
 3627              	.LBI703:
 126:../libDaisy/src/daisy_seed.h ****     {
 3628              		.loc 4 126 17 view .LVU1009
 3629              	.LBB704:
 3630              		.loc 4 128 23 is_stmt 0 view .LVU1010
 3631 0012 0448     		ldr	r0, .L188+4
 3632              	.LVL256:
 3633              		.loc 4 128 23 view .LVU1011
 3634 0014 FBE7     		b	.L187
 3635              	.LVL257:
 3636              	.L184:
 3637              		.loc 4 128 23 view .LVU1012
 3638              	.LBE704:
 3639              	.LBE703:
 708:GrannyChordApp.cpp ****       return;
 709:GrannyChordApp.cpp ****     case SynthMode::Reverb:
 3640              		.loc 2 709 5 is_stmt 1 view .LVU1013
 710:GrannyChordApp.cpp ****       DebugPrint(pod_, "State now in: Reverb");
 3641              		.loc 2 710 7 view .LVU1014
 3642              		.loc 2 710 7 view .LVU1015
 3643              	.LBB705:
 3644              	.LBI705:
 126:../libDaisy/src/daisy_seed.h ****     {
ARM GAS  /var/folders/2p/02m_5p7958535cp2tpgps0400000gn/T//ccHnEWZO.s 			page 111


 3645              		.loc 4 126 17 view .LVU1016
 3646              	.LBB706:
 3647              		.loc 4 128 23 is_stmt 0 view .LVU1017
 3648 0016 0448     		ldr	r0, .L188+8
 3649              	.LVL258:
 3650              		.loc 4 128 23 view .LVU1018
 3651 0018 F9E7     		b	.L187
 3652              	.LVL259:
 3653              	.L182:
 3654              		.loc 4 128 23 view .LVU1019
 3655              	.LBE706:
 3656              	.LBE705:
 711:GrannyChordApp.cpp ****       return;
 712:GrannyChordApp.cpp ****     case SynthMode::Filter:
 3657              		.loc 2 712 5 is_stmt 1 view .LVU1020
 713:GrannyChordApp.cpp ****       DebugPrint(pod_, "State now in: Filter");
 3658              		.loc 2 713 7 view .LVU1021
 3659              		.loc 2 713 7 view .LVU1022
 3660              	.LBB707:
 3661              	.LBI700:
 126:../libDaisy/src/daisy_seed.h ****     {
 3662              		.loc 4 126 17 view .LVU1023
 3663              	.LBB702:
 3664              		.loc 4 128 23 is_stmt 0 view .LVU1024
 3665 001a 0448     		ldr	r0, .L188+12
 3666              	.LVL260:
 3667              		.loc 4 128 23 view .LVU1025
 3668 001c F7E7     		b	.L187
 3669              	.LVL261:
 3670              	.L180:
 3671              		.loc 4 128 23 view .LVU1026
 3672              	.LBE702:
 3673              	.LBE707:
 714:GrannyChordApp.cpp ****       return;
 715:GrannyChordApp.cpp ****   }
 716:GrannyChordApp.cpp **** };
 3674              		.loc 2 716 1 view .LVU1027
 3675 001e 7047     		bx	lr
 3676              	.L189:
 3677              		.align	2
 3678              	.L188:
 3679 0020 00000000 		.word	.LC20
 3680 0024 16000000 		.word	.LC21
 3681 0028 30000000 		.word	.LC22
 3682 002c 45000000 		.word	.LC23
 3683              		.cfi_endproc
 3684              	.LFE4951:
 3686              		.section	.text._ZN14GrannyChordApp11InitColoursEv,"ax",%progbits
 3687              		.align	1
 3688              		.global	_ZN14GrannyChordApp11InitColoursEv
 3689              		.syntax unified
 3690              		.thumb
 3691              		.thumb_func
 3693              	_ZN14GrannyChordApp11InitColoursEv:
 3694              	.LVL262:
 3695              	.LFB4952:
 717:GrannyChordApp.cpp **** 
ARM GAS  /var/folders/2p/02m_5p7958535cp2tpgps0400000gn/T//ccHnEWZO.s 			page 112


 718:GrannyChordApp.cpp **** void GrannyChordApp::InitColours(){
 3696              		.loc 2 718 35 is_stmt 1 view -0
 3697              		.cfi_startproc
 3698              		@ args = 0, pretend = 0, frame = 0
 3699              		@ frame_needed = 0, uses_anonymous_args = 0
 719:GrannyChordApp.cpp ****   colours.BLUE.Init(Color::PresetColor::BLUE);
 3700              		.loc 2 719 3 view .LVU1029
 718:GrannyChordApp.cpp ****   colours.BLUE.Init(Color::PresetColor::BLUE);
 3701              		.loc 2 718 35 is_stmt 0 view .LVU1030
 3702 0000 10B5     		push	{r4, lr}
 3703              		.cfi_def_cfa_offset 8
 3704              		.cfi_offset 4, -8
 3705              		.cfi_offset 14, -4
 3706 0002 0446     		mov	r4, r0
 3707              		.loc 2 719 20 view .LVU1031
 3708 0004 00F50540 		add	r0, r0, #34048
 3709              	.LVL263:
 3710              		.loc 2 719 20 view .LVU1032
 3711 0008 0221     		movs	r1, #2
 3712 000a 1430     		adds	r0, r0, #20
 718:GrannyChordApp.cpp ****   colours.BLUE.Init(Color::PresetColor::BLUE);
 3713              		.loc 2 718 35 view .LVU1033
 3714 000c 2DED028B 		vpush.64	{d8}
 3715              		.cfi_def_cfa_offset 16
 3716              		.cfi_offset 80, -16
 3717              		.cfi_offset 81, -12
 3718              		.loc 2 719 20 view .LVU1034
 3719 0010 FFF7FEFF 		bl	_ZN5daisy5Color4InitENS0_11PresetColorE
 3720              	.LVL264:
 720:GrannyChordApp.cpp ****   colours.GREEN.Init(Color::PresetColor::GREEN);
 3721              		.loc 2 720 3 is_stmt 1 view .LVU1035
 3722              		.loc 2 720 21 is_stmt 0 view .LVU1036
 3723 0014 04F50540 		add	r0, r4, #34048
 3724 0018 0121     		movs	r1, #1
 721:GrannyChordApp.cpp ****   colours.RED.Init(Color::PresetColor::RED);
 722:GrannyChordApp.cpp ****   colours.CYAN.Init(0,255,255);
 3725              		.loc 2 722 20 view .LVU1037
 3726 001a 9FED1F8A 		vldr.32	s16, .L191
 720:GrannyChordApp.cpp ****   colours.GREEN.Init(Color::PresetColor::GREEN);
 3727              		.loc 2 720 21 view .LVU1038
 3728 001e 2030     		adds	r0, r0, #32
 3729              		.loc 2 722 20 view .LVU1039
 3730 0020 DFED1E8A 		vldr.32	s17, .L191+4
 720:GrannyChordApp.cpp ****   colours.GREEN.Init(Color::PresetColor::GREEN);
 3731              		.loc 2 720 21 view .LVU1040
 3732 0024 FFF7FEFF 		bl	_ZN5daisy5Color4InitENS0_11PresetColorE
 3733              	.LVL265:
 721:GrannyChordApp.cpp ****   colours.RED.Init(Color::PresetColor::RED);
 3734              		.loc 2 721 3 is_stmt 1 view .LVU1041
 721:GrannyChordApp.cpp ****   colours.RED.Init(Color::PresetColor::RED);
 3735              		.loc 2 721 19 is_stmt 0 view .LVU1042
 3736 0028 04F50540 		add	r0, r4, #34048
 3737 002c 0021     		movs	r1, #0
 3738 002e 2C30     		adds	r0, r0, #44
 3739 0030 FFF7FEFF 		bl	_ZN5daisy5Color4InitENS0_11PresetColorE
 3740              	.LVL266:
 3741              		.loc 2 722 3 is_stmt 1 view .LVU1043
ARM GAS  /var/folders/2p/02m_5p7958535cp2tpgps0400000gn/T//ccHnEWZO.s 			page 113


 3742              		.loc 2 722 20 is_stmt 0 view .LVU1044
 3743 0034 04F50540 		add	r0, r4, #34048
 3744 0038 B0EE481A 		vmov.f32	s2, s16
 3745 003c F0EE480A 		vmov.f32	s1, s16
 3746 0040 3830     		adds	r0, r0, #56
 3747 0042 B0EE680A 		vmov.f32	s0, s17
 3748 0046 FFF7FEFF 		bl	_ZN5daisy5Color4InitEfff
 3749              	.LVL267:
 723:GrannyChordApp.cpp ****   colours.PURPLE.Init(Color::PresetColor::PURPLE);
 3750              		.loc 2 723 3 is_stmt 1 view .LVU1045
 3751              		.loc 2 723 22 is_stmt 0 view .LVU1046
 3752 004a 04F50540 		add	r0, r4, #34048
 3753 004e 0421     		movs	r1, #4
 3754 0050 4430     		adds	r0, r0, #68
 3755 0052 FFF7FEFF 		bl	_ZN5daisy5Color4InitENS0_11PresetColorE
 3756              	.LVL268:
 724:GrannyChordApp.cpp ****   colours.ORANGE.Init(Color::PresetColor::GOLD);
 3757              		.loc 2 724 3 is_stmt 1 view .LVU1047
 3758              		.loc 2 724 22 is_stmt 0 view .LVU1048
 3759 0056 04F50540 		add	r0, r4, #34048
 3760 005a 0621     		movs	r1, #6
 3761 005c 5030     		adds	r0, r0, #80
 3762 005e FFF7FEFF 		bl	_ZN5daisy5Color4InitENS0_11PresetColorE
 3763              	.LVL269:
 725:GrannyChordApp.cpp ****   colours.YELLOW.Init(255,255,0);
 3764              		.loc 2 725 3 is_stmt 1 view .LVU1049
 3765              		.loc 2 725 22 is_stmt 0 view .LVU1050
 3766 0062 04F50540 		add	r0, r4, #34048
 3767 0066 B0EE681A 		vmov.f32	s2, s17
 3768 006a F0EE480A 		vmov.f32	s1, s16
 3769 006e 5C30     		adds	r0, r0, #92
 3770 0070 B0EE480A 		vmov.f32	s0, s16
 3771 0074 FFF7FEFF 		bl	_ZN5daisy5Color4InitEfff
 3772              	.LVL270:
 726:GrannyChordApp.cpp ****   colours.PINK.Init(255,0,255);
 3773              		.loc 2 726 3 is_stmt 1 view .LVU1051
 3774              		.loc 2 726 20 is_stmt 0 view .LVU1052
 3775 0078 04F50540 		add	r0, r4, #34048
 3776 007c B0EE481A 		vmov.f32	s2, s16
 3777 0080 F0EE680A 		vmov.f32	s1, s17
 3778 0084 6830     		adds	r0, r0, #104
 3779 0086 B0EE480A 		vmov.f32	s0, s16
 727:GrannyChordApp.cpp **** }
 3780              		.loc 2 727 1 view .LVU1053
 3781 008a BDEC028B 		vldm	sp!, {d8}
 3782              		.cfi_restore 80
 3783              		.cfi_restore 81
 3784              		.cfi_def_cfa_offset 8
 3785 008e BDE81040 		pop	{r4, lr}
 3786              		.cfi_restore 14
 3787              		.cfi_restore 4
 3788              		.cfi_def_cfa_offset 0
 3789              	.LVL271:
 726:GrannyChordApp.cpp ****   colours.PINK.Init(255,0,255);
 3790              		.loc 2 726 20 view .LVU1054
 3791 0092 FFF7FEBF 		b	_ZN5daisy5Color4InitEfff
 3792              	.LVL272:
ARM GAS  /var/folders/2p/02m_5p7958535cp2tpgps0400000gn/T//ccHnEWZO.s 			page 114


 3793              	.L192:
 726:GrannyChordApp.cpp ****   colours.PINK.Init(255,0,255);
 3794              		.loc 2 726 20 view .LVU1055
 3795 0096 00BF     		.align	2
 3796              	.L191:
 3797 0098 00007F43 		.word	1132396544
 3798 009c 00000000 		.word	0
 3799              		.cfi_endproc
 3800              	.LFE4952:
 3802              		.section	.text._ZN14GrannyChordApp14SetLedAppStateEv,"ax",%progbits
 3803              		.align	1
 3804              		.global	_ZN14GrannyChordApp14SetLedAppStateEv
 3805              		.syntax unified
 3806              		.thumb
 3807              		.thumb_func
 3809              	_ZN14GrannyChordApp14SetLedAppStateEv:
 3810              	.LVL273:
 3811              	.LFB4953:
 728:GrannyChordApp.cpp **** 
 729:GrannyChordApp.cpp **** /// @brief sets led colours based on app state
 730:GrannyChordApp.cpp **** void GrannyChordApp::SetLedAppState(){
 3812              		.loc 2 730 38 is_stmt 1 view -0
 3813              		.cfi_startproc
 3814              		@ args = 0, pretend = 0, frame = 16
 3815              		@ frame_needed = 0, uses_anonymous_args = 0
 731:GrannyChordApp.cpp ****   switch(next_state_){
 3816              		.loc 2 731 3 view .LVU1057
 730:GrannyChordApp.cpp ****   switch(next_state_){
 3817              		.loc 2 730 38 is_stmt 0 view .LVU1058
 3818 0000 7FB5     		push	{r0, r1, r2, r3, r4, r5, r6, lr}
 3819              		.cfi_def_cfa_offset 32
 3820              		.cfi_offset 4, -16
 3821              		.cfi_offset 5, -12
 3822              		.cfi_offset 6, -8
 3823              		.cfi_offset 14, -4
 3824              		.loc 2 731 3 view .LVU1059
 3825 0002 D0F8E820 		ldr	r2, [r0, #232]
 730:GrannyChordApp.cpp ****   switch(next_state_){
 3826              		.loc 2 730 38 view .LVU1060
 3827 0006 0446     		mov	r4, r0
 732:GrannyChordApp.cpp ****     case AppState::SelectFile:
 733:GrannyChordApp.cpp ****       pod_.led1.SetColor(colours.GREEN);
 3828              		.loc 2 733 7 view .LVU1061
 3829 0008 C369     		ldr	r3, [r0, #28]
 731:GrannyChordApp.cpp ****     case AppState::SelectFile:
 3830              		.loc 2 731 3 view .LVU1062
 3831 000a 052A     		cmp	r2, #5
 3832 000c 10D8     		bhi	.L194
 3833 000e DFE802F0 		tbb	[pc, r2]
 3834              	.L196:
 3835 0012 03       		.byte	(.L201-.L196)/2
 3836 0013 24       		.byte	(.L200-.L196)/2
 3837 0014 29       		.byte	(.L199-.L196)/2
 3838 0015 2E       		.byte	(.L198-.L196)/2
 3839 0016 33       		.byte	(.L197-.L196)/2
 3840 0017 38       		.byte	(.L195-.L196)/2
 3841              		.p2align 1
ARM GAS  /var/folders/2p/02m_5p7958535cp2tpgps0400000gn/T//ccHnEWZO.s 			page 115


 3842              	.L201:
 732:GrannyChordApp.cpp ****     case AppState::SelectFile:
 3843              		.loc 2 732 5 is_stmt 1 view .LVU1063
 3844              		.loc 2 733 7 view .LVU1064
 3845              		.loc 2 733 34 is_stmt 0 view .LVU1065
 3846 0018 00F50542 		add	r2, r0, #34048
 3847 001c 01AD     		add	r5, sp, #4
 3848 001e 2032     		adds	r2, r2, #32
 3849              	.L207:
 734:GrannyChordApp.cpp ****       break;
 735:GrannyChordApp.cpp ****     case AppState::PlayWAV:
 736:GrannyChordApp.cpp ****       pod_.led1.SetColor(colours.CYAN);
 737:GrannyChordApp.cpp ****       break;
 738:GrannyChordApp.cpp ****     case AppState::Synthesis:
 739:GrannyChordApp.cpp ****       pod_.led1.SetColor(colours.BLUE);
 740:GrannyChordApp.cpp ****       break;
 741:GrannyChordApp.cpp ****     case AppState::RecordIn:
 742:GrannyChordApp.cpp ****       pod_.led1.SetColor(colours.YELLOW);
 743:GrannyChordApp.cpp ****       break;
 744:GrannyChordApp.cpp ****     case AppState::ChordMode:
 745:GrannyChordApp.cpp ****       pod_.led1.SetColor(colours.PURPLE);
 3850              		.loc 2 745 34 view .LVU1066
 3851 0020 07CA     		ldm	r2, {r0, r1, r2}
 3852              	.LVL274:
 3853              		.loc 2 745 34 view .LVU1067
 3854 0022 85E80700 		stm	r5, {r0, r1, r2}
 3855              		.loc 2 745 25 view .LVU1068
 3856 0026 2946     		mov	r1, r5
 3857 0028 03F1D800 		add	r0, r3, #216
 3858              	.L206:
 746:GrannyChordApp.cpp ****       break;
 747:GrannyChordApp.cpp ****     case AppState::Error:
 748:GrannyChordApp.cpp ****       pod_.led1.SetColor(colours.RED);
 749:GrannyChordApp.cpp ****       pod_.led2.SetColor(colours.RED);
 3859              		.loc 2 749 25 view .LVU1069
 3860 002c FFF7FEFF 		bl	_ZN5daisy6RgbLed8SetColorENS_5ColorE
 3861              	.LVL275:
 3862              	.LBB708:
 3863              	.LBI708:
 3864              		.file 15 "../libDaisy/src/util/color.h"
   1:../libDaisy/src/util/color.h **** /* 
   2:../libDaisy/src/util/color.h **** TODO:
   3:../libDaisy/src/util/color.h **** - Add Blend(), Scale(), etc.
   4:../libDaisy/src/util/color.h **** - I'd also like to change the way the Color names are accessed.
   5:../libDaisy/src/util/color.h **** */
   6:../libDaisy/src/util/color.h **** /**        I'd like for it to be easy and not `Color::PresetColor::Foo`
   7:../libDaisy/src/util/color.h **** */
   8:../libDaisy/src/util/color.h **** /** - There's no way to change a color once its been created (without unintuitively reiniting it).
   9:../libDaisy/src/util/color.h **** */
  10:../libDaisy/src/util/color.h **** #pragma once
  11:../libDaisy/src/util/color.h **** #ifndef DSY_COLOR_H
  12:../libDaisy/src/util/color.h **** #define DSY_COLOR_H
  13:../libDaisy/src/util/color.h **** #include <stdint.h>
  14:../libDaisy/src/util/color.h **** 
  15:../libDaisy/src/util/color.h **** 
  16:../libDaisy/src/util/color.h **** namespace daisy
  17:../libDaisy/src/util/color.h **** {
ARM GAS  /var/folders/2p/02m_5p7958535cp2tpgps0400000gn/T//ccHnEWZO.s 			page 116


  18:../libDaisy/src/util/color.h **** /** @addtogroup utility
  19:../libDaisy/src/util/color.h ****     @{
  20:../libDaisy/src/util/color.h **** */
  21:../libDaisy/src/util/color.h **** 
  22:../libDaisy/src/util/color.h **** /** Class for handling simple colors */
  23:../libDaisy/src/util/color.h **** class Color
  24:../libDaisy/src/util/color.h **** {
  25:../libDaisy/src/util/color.h ****   public:
  26:../libDaisy/src/util/color.h ****     Color() {}
  27:../libDaisy/src/util/color.h ****     ~Color() {}
 3865              		.loc 15 27 5 is_stmt 1 view .LVU1070
 3866              		.loc 15 27 5 is_stmt 0 view .LVU1071
 3867              	.LBE708:
 750:GrannyChordApp.cpp ****       break;
 3868              		.loc 2 750 7 is_stmt 1 view .LVU1072
 3869              	.L194:
 751:GrannyChordApp.cpp ****     default:
 752:GrannyChordApp.cpp ****       break;
 753:GrannyChordApp.cpp ****   }
 754:GrannyChordApp.cpp ****   if (curr_state_ != AppState::Synthesis) pod_.led2.Set(0,0,0); /* turn off led2 */
 3870              		.loc 2 754 3 view .LVU1073
 3871 0030 D4F8E430 		ldr	r3, [r4, #228]
 3872 0034 022B     		cmp	r3, #2
 3873 0036 0AD0     		beq	.L202
 3874              		.loc 2 754 43 discriminator 1 view .LVU1074
 3875              		.loc 2 754 56 is_stmt 0 discriminator 1 view .LVU1075
 3876 0038 9FED1D1A 		vldr.32	s2, .L208
 3877 003c E069     		ldr	r0, [r4, #28]
 3878 003e F0EE410A 		vmov.f32	s1, s2
 3879 0042 B0EE410A 		vmov.f32	s0, s2
 3880 0046 00F59670 		add	r0, r0, #300
 3881 004a FFF7FEFF 		bl	_ZN5daisy6RgbLed3SetEfff
 3882              	.LVL276:
 3883              	.L202:
 755:GrannyChordApp.cpp ****   pod_.UpdateLeds();
 3884              		.loc 2 755 3 is_stmt 1 view .LVU1076
 3885              		.loc 2 755 18 is_stmt 0 view .LVU1077
 3886 004e E069     		ldr	r0, [r4, #28]
 756:GrannyChordApp.cpp **** }
 3887              		.loc 2 756 1 view .LVU1078
 3888 0050 04B0     		add	sp, sp, #16
 3889              		.cfi_remember_state
 3890              		.cfi_def_cfa_offset 16
 3891              		@ sp needed
 3892 0052 BDE87040 		pop	{r4, r5, r6, lr}
 3893              		.cfi_restore 14
 3894              		.cfi_restore 6
 3895              		.cfi_restore 5
 3896              		.cfi_restore 4
 3897              		.cfi_def_cfa_offset 0
 3898              	.LVL277:
 755:GrannyChordApp.cpp ****   pod_.UpdateLeds();
 3899              		.loc 2 755 18 view .LVU1079
 3900 0056 FFF7FEBF 		b	_ZN5daisy8DaisyPod10UpdateLedsEv
 3901              	.LVL278:
 3902              	.L200:
 3903              		.cfi_restore_state
ARM GAS  /var/folders/2p/02m_5p7958535cp2tpgps0400000gn/T//ccHnEWZO.s 			page 117


 735:GrannyChordApp.cpp ****       pod_.led1.SetColor(colours.CYAN);
 3904              		.loc 2 735 5 is_stmt 1 view .LVU1080
 736:GrannyChordApp.cpp ****       break;
 3905              		.loc 2 736 7 view .LVU1081
 736:GrannyChordApp.cpp ****       break;
 3906              		.loc 2 736 34 is_stmt 0 view .LVU1082
 3907 005a 00F50542 		add	r2, r0, #34048
 3908 005e 01AD     		add	r5, sp, #4
 3909 0060 3832     		adds	r2, r2, #56
 3910 0062 DDE7     		b	.L207
 3911              	.L199:
 738:GrannyChordApp.cpp ****       pod_.led1.SetColor(colours.BLUE);
 3912              		.loc 2 738 5 is_stmt 1 view .LVU1083
 739:GrannyChordApp.cpp ****       break;
 3913              		.loc 2 739 7 view .LVU1084
 739:GrannyChordApp.cpp ****       break;
 3914              		.loc 2 739 34 is_stmt 0 view .LVU1085
 3915 0064 00F50542 		add	r2, r0, #34048
 3916 0068 01AD     		add	r5, sp, #4
 3917 006a 1432     		adds	r2, r2, #20
 3918 006c D8E7     		b	.L207
 3919              	.L198:
 741:GrannyChordApp.cpp ****       pod_.led1.SetColor(colours.YELLOW);
 3920              		.loc 2 741 5 is_stmt 1 view .LVU1086
 742:GrannyChordApp.cpp ****       break;
 3921              		.loc 2 742 7 view .LVU1087
 742:GrannyChordApp.cpp ****       break;
 3922              		.loc 2 742 34 is_stmt 0 view .LVU1088
 3923 006e 00F50542 		add	r2, r0, #34048
 3924 0072 01AD     		add	r5, sp, #4
 3925 0074 5C32     		adds	r2, r2, #92
 3926 0076 D3E7     		b	.L207
 3927              	.L197:
 744:GrannyChordApp.cpp ****       pod_.led1.SetColor(colours.PURPLE);
 3928              		.loc 2 744 5 is_stmt 1 view .LVU1089
 745:GrannyChordApp.cpp ****       break;
 3929              		.loc 2 745 7 view .LVU1090
 745:GrannyChordApp.cpp ****       break;
 3930              		.loc 2 745 34 is_stmt 0 view .LVU1091
 3931 0078 00F50542 		add	r2, r0, #34048
 3932 007c 01AD     		add	r5, sp, #4
 3933 007e 4432     		adds	r2, r2, #68
 3934 0080 CEE7     		b	.L207
 3935              	.L195:
 747:GrannyChordApp.cpp ****       pod_.led1.SetColor(colours.RED);
 3936              		.loc 2 747 5 is_stmt 1 view .LVU1092
 748:GrannyChordApp.cpp ****       pod_.led2.SetColor(colours.RED);
 3937              		.loc 2 748 7 view .LVU1093
 748:GrannyChordApp.cpp ****       pod_.led2.SetColor(colours.RED);
 3938              		.loc 2 748 34 is_stmt 0 view .LVU1094
 3939 0082 00F50546 		add	r6, r0, #34048
 3940 0086 01AD     		add	r5, sp, #4
 3941 0088 2C36     		adds	r6, r6, #44
 3942 008a 96E80700 		ldm	r6, {r0, r1, r2}
 3943              	.LVL279:
 748:GrannyChordApp.cpp ****       pod_.led2.SetColor(colours.RED);
 3944              		.loc 2 748 34 view .LVU1095
ARM GAS  /var/folders/2p/02m_5p7958535cp2tpgps0400000gn/T//ccHnEWZO.s 			page 118


 3945 008e 85E80700 		stm	r5, {r0, r1, r2}
 748:GrannyChordApp.cpp ****       pod_.led2.SetColor(colours.RED);
 3946              		.loc 2 748 25 view .LVU1096
 3947 0092 03F1D800 		add	r0, r3, #216
 3948 0096 2946     		mov	r1, r5
 3949 0098 FFF7FEFF 		bl	_ZN5daisy6RgbLed8SetColorENS_5ColorE
 3950              	.LVL280:
 3951              	.LBB709:
 3952              	.LBI709:
 3953              		.loc 15 27 5 is_stmt 1 view .LVU1097
 3954              		.loc 15 27 5 is_stmt 0 view .LVU1098
 3955              	.LBE709:
 749:GrannyChordApp.cpp ****       break;
 3956              		.loc 2 749 7 is_stmt 1 view .LVU1099
 749:GrannyChordApp.cpp ****       break;
 3957              		.loc 2 749 25 is_stmt 0 view .LVU1100
 3958 009c E369     		ldr	r3, [r4, #28]
 749:GrannyChordApp.cpp ****       break;
 3959              		.loc 2 749 34 view .LVU1101
 3960 009e 96E80700 		ldm	r6, {r0, r1, r2}
 3961 00a2 85E80700 		stm	r5, {r0, r1, r2}
 749:GrannyChordApp.cpp ****       break;
 3962              		.loc 2 749 25 view .LVU1102
 3963 00a6 2946     		mov	r1, r5
 3964 00a8 03F59670 		add	r0, r3, #300
 3965 00ac BEE7     		b	.L206
 3966              	.L209:
 3967 00ae 00BF     		.align	2
 3968              	.L208:
 3969 00b0 00000000 		.word	0
 3970              		.cfi_endproc
 3971              	.LFE4953:
 3973              		.section	.rodata._ZN14GrannyChordApp4InitEPsS0_.str1.1,"aMS",%progbits,1
 3974              	.LC24:
 3975 0000 46696C65 		.ascii	"File manager failed to init\000"
 3975      206D616E 
 3975      61676572 
 3975      20666169 
 3975      6C656420 
 3976              		.section	.text._ZN14GrannyChordApp4InitEPsS0_,"ax",%progbits
 3977              		.align	1
 3978              		.global	_ZN14GrannyChordApp4InitEPsS0_
 3979              		.syntax unified
 3980              		.thumb
 3981              		.thumb_func
 3983              	_ZN14GrannyChordApp4InitEPsS0_:
 3984              	.LVL281:
 3985              	.LFB4914:
  15:GrannyChordApp.cpp ****   left_buf_ = left, right_buf_ = right;
 3986              		.loc 2 15 57 is_stmt 1 view -0
 3987              		.cfi_startproc
 3988              		@ args = 0, pretend = 0, frame = 0
 3989              		@ frame_needed = 0, uses_anonymous_args = 0
  16:GrannyChordApp.cpp ****   pod_.SetAudioBlockSize(2);
 3990              		.loc 2 16 3 view .LVU1104
  15:GrannyChordApp.cpp ****   left_buf_ = left, right_buf_ = right;
 3991              		.loc 2 15 57 is_stmt 0 view .LVU1105
ARM GAS  /var/folders/2p/02m_5p7958535cp2tpgps0400000gn/T//ccHnEWZO.s 			page 119


 3992 0000 38B5     		push	{r3, r4, r5, lr}
 3993              		.cfi_def_cfa_offset 16
 3994              		.cfi_offset 3, -16
 3995              		.cfi_offset 4, -12
 3996              		.cfi_offset 5, -8
 3997              		.cfi_offset 14, -4
 3998 0002 0446     		mov	r4, r0
  19:GrannyChordApp.cpp ****   // SetupTimer();
 3999              		.loc 2 19 15 view .LVU1106
 4000 0004 0025     		movs	r5, #0
  15:GrannyChordApp.cpp ****   left_buf_ = left, right_buf_ = right;
 4001              		.loc 2 15 57 view .LVU1107
 4002 0006 2DED048B 		vpush.64	{d8, d9}
 4003              		.cfi_def_cfa_offset 32
 4004              		.cfi_offset 80, -32
 4005              		.cfi_offset 81, -28
 4006              		.cfi_offset 82, -24
 4007              		.cfi_offset 83, -20
  16:GrannyChordApp.cpp ****   pod_.SetAudioBlockSize(2);
 4008              		.loc 2 16 32 view .LVU1108
 4009 000a C0E96C12 		strd	r1, r2, [r0, #432]
  17:GrannyChordApp.cpp ****   pod_.SetAudioSampleRate(SaiHandle::Config::SampleRate::SAI_48KHZ);
 4010              		.loc 2 17 3 is_stmt 1 view .LVU1109
  17:GrannyChordApp.cpp ****   pod_.SetAudioSampleRate(SaiHandle::Config::SampleRate::SAI_48KHZ);
 4011              		.loc 2 17 25 is_stmt 0 view .LVU1110
 4012 000e 0221     		movs	r1, #2
 4013              	.LVL282:
  17:GrannyChordApp.cpp ****   pod_.SetAudioSampleRate(SaiHandle::Config::SampleRate::SAI_48KHZ);
 4014              		.loc 2 17 25 view .LVU1111
 4015 0010 C069     		ldr	r0, [r0, #28]
 4016              	.LVL283:
  17:GrannyChordApp.cpp ****   pod_.SetAudioSampleRate(SaiHandle::Config::SampleRate::SAI_48KHZ);
 4017              		.loc 2 17 25 view .LVU1112
 4018 0012 FFF7FEFF 		bl	_ZN5daisy8DaisyPod17SetAudioBlockSizeEj
 4019              	.LVL284:
  18:GrannyChordApp.cpp ****   curr_state_ = AppState::SelectFile;
 4020              		.loc 2 18 3 is_stmt 1 view .LVU1113
  18:GrannyChordApp.cpp ****   curr_state_ = AppState::SelectFile;
 4021              		.loc 2 18 26 is_stmt 0 view .LVU1114
 4022 0016 E069     		ldr	r0, [r4, #28]
 4023 0018 0321     		movs	r1, #3
 4024 001a FFF7FEFF 		bl	_ZN5daisy8DaisyPod18SetAudioSampleRateENS_9SaiHandle6Config10SampleRateE
 4025              	.LVL285:
  19:GrannyChordApp.cpp ****   // SetupTimer();
 4026              		.loc 2 19 3 is_stmt 1 view .LVU1115
  21:GrannyChordApp.cpp ****     DebugPrint(pod_,"File manager failed to init");
 4027              		.loc 2 21 19 is_stmt 0 view .LVU1116
 4028 001e 2046     		mov	r0, r4
  19:GrannyChordApp.cpp ****   // SetupTimer();
 4029              		.loc 2 19 15 view .LVU1117
 4030 0020 C4F8E450 		str	r5, [r4, #228]
  21:GrannyChordApp.cpp ****     DebugPrint(pod_,"File manager failed to init");
 4031              		.loc 2 21 3 is_stmt 1 view .LVU1118
  21:GrannyChordApp.cpp ****     DebugPrint(pod_,"File manager failed to init");
 4032              		.loc 2 21 19 is_stmt 0 view .LVU1119
 4033 0024 FFF7FEFF 		bl	_ZN14GrannyChordApp11InitFileMgrEv
 4034              	.LVL286:
ARM GAS  /var/folders/2p/02m_5p7958535cp2tpgps0400000gn/T//ccHnEWZO.s 			page 120


  21:GrannyChordApp.cpp ****     DebugPrint(pod_,"File manager failed to init");
 4035              		.loc 2 21 3 view .LVU1120
 4036 0028 B0B9     		cbnz	r0, .L211
  22:GrannyChordApp.cpp ****     pod_.led1.SetRed(1);
 4037              		.loc 2 22 5 is_stmt 1 view .LVU1121
  22:GrannyChordApp.cpp ****     pod_.led1.SetRed(1);
 4038              		.loc 2 22 5 view .LVU1122
 4039              	.LVL287:
 4040              	.LBB718:
 4041              	.LBI718:
 126:../libDaisy/src/daisy_seed.h ****     {
 4042              		.loc 4 126 17 view .LVU1123
 4043              	.LBB719:
 4044              		.loc 4 128 23 is_stmt 0 view .LVU1124
 4045 002a 3348     		ldr	r0, .L212
 4046 002c FFF7FEFF 		bl	_ZN5daisy6LoggerILNS_17LoggerDestinationE1EE9PrintLineEPKcz
 4047              	.LVL288:
 4048              		.loc 4 128 23 view .LVU1125
 4049              	.LBE719:
 4050              	.LBE718:
  23:GrannyChordApp.cpp ****     pod_.led2.SetRed(1);
 4051              		.loc 2 23 5 is_stmt 1 view .LVU1126
  23:GrannyChordApp.cpp ****     pod_.led2.SetRed(1);
 4052              		.loc 2 23 21 is_stmt 0 view .LVU1127
 4053 0030 E069     		ldr	r0, [r4, #28]
 4054 0032 B7EE000A 		vmov.f32	s0, #1.0e+0
 4055 0036 D830     		adds	r0, r0, #216
 4056 0038 FFF7FEFF 		bl	_ZN5daisy6RgbLed6SetRedEf
 4057              	.LVL289:
  24:GrannyChordApp.cpp ****     pod_.UpdateLeds();
 4058              		.loc 2 24 5 is_stmt 1 view .LVU1128
  24:GrannyChordApp.cpp ****     pod_.UpdateLeds();
 4059              		.loc 2 24 21 is_stmt 0 view .LVU1129
 4060 003c E069     		ldr	r0, [r4, #28]
 4061 003e B7EE000A 		vmov.f32	s0, #1.0e+0
 4062 0042 00F59670 		add	r0, r0, #300
 4063 0046 FFF7FEFF 		bl	_ZN5daisy6RgbLed6SetRedEf
 4064              	.LVL290:
  25:GrannyChordApp.cpp ****     return;
 4065              		.loc 2 25 5 is_stmt 1 view .LVU1130
  25:GrannyChordApp.cpp ****     return;
 4066              		.loc 2 25 20 is_stmt 0 view .LVU1131
 4067 004a E069     		ldr	r0, [r4, #28]
  37:GrannyChordApp.cpp **** 
 4068              		.loc 2 37 1 view .LVU1132
 4069 004c BDEC048B 		vldm	sp!, {d8-d9}
 4070              		.cfi_remember_state
 4071              		.cfi_restore 82
 4072              		.cfi_restore 83
 4073              		.cfi_restore 80
 4074              		.cfi_restore 81
 4075              		.cfi_def_cfa_offset 16
 4076 0050 BDE83840 		pop	{r3, r4, r5, lr}
 4077              		.cfi_restore 14
 4078              		.cfi_restore 5
 4079              		.cfi_restore 4
 4080              		.cfi_restore 3
ARM GAS  /var/folders/2p/02m_5p7958535cp2tpgps0400000gn/T//ccHnEWZO.s 			page 121


 4081              		.cfi_def_cfa_offset 0
 4082              	.LVL291:
  25:GrannyChordApp.cpp ****     return;
 4083              		.loc 2 25 20 view .LVU1133
 4084 0054 FFF7FEBF 		b	_ZN5daisy8DaisyPod10UpdateLedsEv
 4085              	.LVL292:
 4086              	.L211:
 4087              		.cfi_restore_state
  28:GrannyChordApp.cpp ****   InitFX();
 4088              		.loc 2 28 3 is_stmt 1 view .LVU1134
  28:GrannyChordApp.cpp ****   InitFX();
 4089              		.loc 2 28 17 is_stmt 0 view .LVU1135
 4090 0058 E069     		ldr	r0, [r4, #28]
 4091 005a FFF7FEFF 		bl	_ZN5daisy8DaisyPod15AudioSampleRateEv
 4092              	.LVL293:
  28:GrannyChordApp.cpp ****   InitFX();
 4093              		.loc 2 28 61 view .LVU1136
 4094 005e E069     		ldr	r0, [r4, #28]
  28:GrannyChordApp.cpp ****   InitFX();
 4095              		.loc 2 28 17 view .LVU1137
 4096 0060 F0EE408A 		vmov.f32	s17, s0
  28:GrannyChordApp.cpp ****   InitFX();
 4097              		.loc 2 28 61 view .LVU1138
 4098 0064 FFF7FEFF 		bl	_ZN5daisy8DaisyPod14AudioBlockSizeEv
 4099              	.LVL294:
 4100              	.LBB720:
 4101              	.LBI720:
  29:../libDaisy/src/util/CpuLoadMeter.h ****               int   blockSizeInSamples,
 4102              		.loc 3 29 10 is_stmt 1 view .LVU1139
 4103              	.LBB721:
  33:../libDaisy/src/util/CpuLoadMeter.h ****         const auto ticksPerS   = float(System::GetTickFreq());
 4104              		.loc 3 33 9 view .LVU1140
  33:../libDaisy/src/util/CpuLoadMeter.h ****         const auto ticksPerS   = float(System::GetTickFreq());
 4105              		.loc 3 33 34 is_stmt 0 view .LVU1141
 4106 0068 07EE900A 		vmov	s15, r0	@ int
 4107 006c B8EEE78A 		vcvt.f32.s32	s16, s15
  34:../libDaisy/src/util/CpuLoadMeter.h ****         ticksPerBlockInv_      = 1.0f / (ticksPerS * secPerBlock);
 4108              		.loc 3 34 59 view .LVU1142
 4109 0070 FFF7FEFF 		bl	_ZN5daisy6System11GetTickFreqEv
 4110              	.LVL295:
  34:../libDaisy/src/util/CpuLoadMeter.h ****         ticksPerBlockInv_      = 1.0f / (ticksPerS * secPerBlock);
 4111              		.loc 3 34 61 view .LVU1143
 4112 0074 07EE900A 		vmov	s15, r0	@ int
  35:../libDaisy/src/util/CpuLoadMeter.h **** 
 4113              		.loc 3 35 39 view .LVU1144
 4114 0078 B7EE007A 		vmov.f32	s14, #1.0e+0
  39:../libDaisy/src/util/CpuLoadMeter.h ****             = smoothingFilterCutoffHz * 2.0f * 3.141592653f / blockRateInHz;
 4115              		.loc 3 39 20 view .LVU1145
 4116 007c 9FED1F6A 		vldr.32	s12, .L212+4
 4117              	.LBB722:
 4118              	.LBB723:
  82:../libDaisy/src/util/CpuLoadMeter.h **** 
  83:../libDaisy/src/util/CpuLoadMeter.h ****     /** Resets the minimun, maximum and average load readings. */
  84:../libDaisy/src/util/CpuLoadMeter.h ****     void Reset()
  85:../libDaisy/src/util/CpuLoadMeter.h ****     {
  86:../libDaisy/src/util/CpuLoadMeter.h ****         firstCycle_ = true;
 4119              		.loc 3 86 21 view .LVU1146
ARM GAS  /var/folders/2p/02m_5p7958535cp2tpgps0400000gn/T//ccHnEWZO.s 			page 122


 4120 0080 0123     		movs	r3, #1
 4121              	.LBE723:
 4122              	.LBE722:
  33:../libDaisy/src/util/CpuLoadMeter.h ****         const auto ticksPerS   = float(System::GetTickFreq());
 4123              		.loc 3 33 20 view .LVU1147
 4124 0082 88EE289A 		vdiv.f32	s18, s16, s17
 4125              	.LVL296:
  34:../libDaisy/src/util/CpuLoadMeter.h ****         ticksPerBlockInv_      = 1.0f / (ticksPerS * secPerBlock);
 4126              		.loc 3 34 9 is_stmt 1 view .LVU1148
  35:../libDaisy/src/util/CpuLoadMeter.h **** 
 4127              		.loc 3 35 9 view .LVU1149
 4128              	.LBE721:
 4129              	.LBE720:
  29:GrannyChordApp.cpp ****   InitPrevParamVals();
 4130              		.loc 2 29 9 is_stmt 0 view .LVU1150
 4131 0086 2046     		mov	r0, r4
 4132              	.LVL297:
 4133              	.LBB731:
 4134              	.LBB730:
 4135              	.LBB727:
 4136              	.LBB724:
 4137              		.loc 3 86 21 view .LVU1151
 4138 0088 2370     		strb	r3, [r4]
  87:../libDaisy/src/util/CpuLoadMeter.h ****         avg_ = max_ = min_ = NAN;
 4139              		.loc 3 87 28 view .LVU1152
 4140 008a 1D4B     		ldr	r3, .L212+8
 4141 008c E360     		str	r3, [r4, #12]	@ float
 4142              	.LBE724:
 4143              	.LBE727:
  34:../libDaisy/src/util/CpuLoadMeter.h ****         ticksPerBlockInv_      = 1.0f / (ticksPerS * secPerBlock);
 4144              		.loc 3 34 61 view .LVU1153
 4145 008e F8EE677A 		vcvt.f32.u32	s15, s15
 4146              	.LVL298:
 4147              	.LBB728:
 4148              	.LBB725:
 4149              		.loc 3 87 21 view .LVU1154
 4150 0092 2361     		str	r3, [r4, #16]	@ float
 4151              		.loc 3 87 14 view .LVU1155
 4152 0094 6361     		str	r3, [r4, #20]	@ float
 4153              	.LBE725:
 4154              	.LBE728:
  35:../libDaisy/src/util/CpuLoadMeter.h **** 
 4155              		.loc 3 35 52 view .LVU1156
 4156 0096 67EE897A 		vmul.f32	s15, s15, s18
 4157              	.LVL299:
  35:../libDaisy/src/util/CpuLoadMeter.h **** 
 4158              		.loc 3 35 39 view .LVU1157
 4159 009a C7EE276A 		vdiv.f32	s13, s14, s15
  35:../libDaisy/src/util/CpuLoadMeter.h **** 
 4160              		.loc 3 35 32 view .LVU1158
 4161 009e C4ED016A 		vstr.32	s13, [r4, #4]
  38:../libDaisy/src/util/CpuLoadMeter.h ****         const auto cutoffNormalized
 4162              		.loc 3 38 9 is_stmt 1 view .LVU1159
 4163              	.LVL300:
  39:../libDaisy/src/util/CpuLoadMeter.h ****             = smoothingFilterCutoffHz * 2.0f * 3.141592653f / blockRateInHz;
 4164              		.loc 3 39 9 view .LVU1160
  38:../libDaisy/src/util/CpuLoadMeter.h ****         const auto cutoffNormalized
ARM GAS  /var/folders/2p/02m_5p7958535cp2tpgps0400000gn/T//ccHnEWZO.s 			page 123


 4165              		.loc 3 38 20 is_stmt 0 view .LVU1161
 4166 00a2 C8EE886A 		vdiv.f32	s13, s17, s16
 4167              	.LVL301:
  39:../libDaisy/src/util/CpuLoadMeter.h ****             = smoothingFilterCutoffHz * 2.0f * 3.141592653f / blockRateInHz;
 4168              		.loc 3 39 20 view .LVU1162
 4169 00a6 C6EE267A 		vdiv.f32	s15, s12, s13
 4170              	.LVL302:
  43:../libDaisy/src/util/CpuLoadMeter.h **** 
 4171              		.loc 3 43 9 is_stmt 1 view .LVU1163
  43:../libDaisy/src/util/CpuLoadMeter.h **** 
 4172              		.loc 3 43 67 is_stmt 0 view .LVU1164
 4173 00aa 37EE877A 		vadd.f32	s14, s15, s14
  43:../libDaisy/src/util/CpuLoadMeter.h **** 
 4174              		.loc 3 43 47 view .LVU1165
 4175 00ae C7EE876A 		vdiv.f32	s13, s15, s14
 4176              	.LVL303:
  43:../libDaisy/src/util/CpuLoadMeter.h **** 
 4177              		.loc 3 43 28 view .LVU1166
 4178 00b2 C4ED066A 		vstr.32	s13, [r4, #24]
  45:../libDaisy/src/util/CpuLoadMeter.h ****     }
 4179              		.loc 3 45 9 is_stmt 1 view .LVU1167
 4180              	.LVL304:
 4181              	.LBB729:
 4182              	.LBI722:
  84:../libDaisy/src/util/CpuLoadMeter.h ****     {
 4183              		.loc 3 84 10 view .LVU1168
 4184              	.LBB726:
  86:../libDaisy/src/util/CpuLoadMeter.h ****         avg_ = max_ = min_ = NAN;
 4185              		.loc 3 86 9 view .LVU1169
 4186              		.loc 3 87 9 view .LVU1170
 4187              		.loc 3 87 9 is_stmt 0 view .LVU1171
 4188              	.LBE726:
 4189              	.LBE729:
 4190              	.LBE730:
 4191              	.LBE731:
  29:GrannyChordApp.cpp ****   InitPrevParamVals();
 4192              		.loc 2 29 3 is_stmt 1 view .LVU1172
  29:GrannyChordApp.cpp ****   InitPrevParamVals();
 4193              		.loc 2 29 9 is_stmt 0 view .LVU1173
 4194 00b6 FFF7FEFF 		bl	_ZN14GrannyChordApp6InitFXEv
 4195              	.LVL305:
  30:GrannyChordApp.cpp ****   InitColours();
 4196              		.loc 2 30 3 is_stmt 1 view .LVU1174
  30:GrannyChordApp.cpp ****   InitColours();
 4197              		.loc 2 30 20 is_stmt 0 view .LVU1175
 4198 00ba 2046     		mov	r0, r4
 4199 00bc FFF7FEFF 		bl	_ZN14GrannyChordApp17InitPrevParamValsEv
 4200              	.LVL306:
  31:GrannyChordApp.cpp ****   SetLedAppState();
 4201              		.loc 2 31 3 is_stmt 1 view .LVU1176
  31:GrannyChordApp.cpp ****   SetLedAppState();
 4202              		.loc 2 31 14 is_stmt 0 view .LVU1177
 4203 00c0 FFF7FEFF 		bl	_ZN14GrannyChordApp11InitColoursEv
 4204              	.LVL307:
  32:GrannyChordApp.cpp ****   pod_.UpdateLeds();
 4205              		.loc 2 32 3 is_stmt 1 view .LVU1178
  32:GrannyChordApp.cpp ****   pod_.UpdateLeds();
ARM GAS  /var/folders/2p/02m_5p7958535cp2tpgps0400000gn/T//ccHnEWZO.s 			page 124


 4206              		.loc 2 32 17 is_stmt 0 view .LVU1179
 4207 00c4 2046     		mov	r0, r4
 4208 00c6 FFF7FEFF 		bl	_ZN14GrannyChordApp14SetLedAppStateEv
 4209              	.LVL308:
  33:GrannyChordApp.cpp ****   SeedRng();
 4210              		.loc 2 33 3 is_stmt 1 view .LVU1180
  33:GrannyChordApp.cpp ****   SeedRng();
 4211              		.loc 2 33 18 is_stmt 0 view .LVU1181
 4212 00ca E069     		ldr	r0, [r4, #28]
 4213 00cc FFF7FEFF 		bl	_ZN5daisy8DaisyPod10UpdateLedsEv
 4214              	.LVL309:
  34:GrannyChordApp.cpp ****   synth_.Init(left_buf_, right_buf_, 0);
 4215              		.loc 2 34 3 is_stmt 1 view .LVU1182
 4216              	.LBB732:
 4217              	.LBI732:
 4218              		.file 16 "constants_utils.h"
   1:constants_utils.h **** #pragma once
   2:constants_utils.h **** #include "stddef.h"
   3:constants_utils.h **** #include <time.h>
   4:constants_utils.h **** 
   5:constants_utils.h **** /* audio constants */
   6:constants_utils.h **** constexpr int SAMPLE_RATE = 48000;
   7:constants_utils.h **** constexpr float SAMPLE_RATE_FLOAT = 48000.f;
   8:constants_utils.h **** constexpr int BIT_DEPTH = 16;
   9:constants_utils.h **** 
  10:constants_utils.h **** /* delay line buffer size (2s @ 48kHz) */
  11:constants_utils.h **** constexpr size_t DELAY_TIME = 96000;
  12:constants_utils.h **** 
  13:constants_utils.h **** /* maximum length of recording to SD card */
  14:constants_utils.h **** constexpr size_t MAX_REC_OUT_LEN = 120;
  15:constants_utils.h **** 
  16:constants_utils.h **** /* 16mb - max size of one stereo channel to be loaded into buffers */
  17:constants_utils.h **** constexpr size_t CHNL_BUF_SIZE_ABS = 16*1024*1024;
  18:constants_utils.h **** /* above is absolute size - each sample needs an int16 (2 bytes) so we do (abs_size)/2 */
  19:constants_utils.h **** constexpr size_t CHNL_BUF_SIZE_SAMPS = 8*1024*1024;
  20:constants_utils.h **** 
  21:constants_utils.h **** /* chunk size for reading audio into temporary buffer */
  22:constants_utils.h **** const size_t BUF_CHUNK_SZ = 16384;
  23:constants_utils.h **** 
  24:constants_utils.h **** /* file reading constants*/
  25:constants_utils.h **** static const uint16_t MAX_FILES = 32;                      
  26:constants_utils.h **** static const uint16_t MAX_FNAME_LEN = 128;
  27:constants_utils.h **** 
  28:constants_utils.h **** /* granular synth parameter constants */
  29:constants_utils.h **** constexpr int MIN_GRAINS = 1;
  30:constants_utils.h **** constexpr int MAX_GRAINS = 5;
  31:constants_utils.h **** 
  32:constants_utils.h **** static constexpr int NUM_SYNTH_MODES = 4;
  33:constants_utils.h **** constexpr float PARAM_CHANGE_THRESHOLD = 0.01f;
  34:constants_utils.h **** constexpr float MIN_GRAIN_SIZE_MS = 100.0f;
  35:constants_utils.h **** constexpr float MAX_GRAIN_SIZE_MS = 3000.0f;
  36:constants_utils.h **** constexpr size_t MIN_GRAIN_SIZE_SAMPLES = 4800; /* 100ms at 48kHz */
  37:constants_utils.h **** constexpr size_t MAX_GRAIN_SIZE_SAMPLES = 144000; /* 3s at 48kHz */
  38:constants_utils.h **** constexpr float MIN_PITCH = 0.5f;
  39:constants_utils.h **** constexpr float MAX_PITCH = 3.0f;
  40:constants_utils.h **** 
  41:constants_utils.h **** 
ARM GAS  /var/folders/2p/02m_5p7958535cp2tpgps0400000gn/T//ccHnEWZO.s 			page 125


  42:constants_utils.h **** /* button event constants */
  43:constants_utils.h **** const unsigned long DEBOUNCE_DELAY = 50; 
  44:constants_utils.h **** const unsigned long LONG_PRESS_TIME = 1000;
  45:constants_utils.h **** 
  46:constants_utils.h **** /* hipass filter frequency range */
  47:constants_utils.h **** const float HIPASS_LOWER_BOUND = 0.0004f;
  48:constants_utils.h **** const float HIPASS_UPPER_BOUND = 0.01f;
  49:constants_utils.h **** 
  50:constants_utils.h **** /* lowpass filter frequency range */
  51:constants_utils.h **** const float LOPASS_LOWER_BOUND = 20.0f;
  52:constants_utils.h **** const float LOPASS_UPPER_BOUND = 18000.0f;
  53:constants_utils.h **** 
  54:constants_utils.h **** // const float HICUT_FREQ = 0.3125f; /* 15000Hz @ 48kHz sample rate */
  55:constants_utils.h **** const float HICUT_FREQ = 0.34375; /* 16500Hz @ 48kHz sample rate */
  56:constants_utils.h **** 
  57:constants_utils.h **** /* random number generator variables and helper functions */
  58:constants_utils.h **** extern uint32_t rng_state;
  59:constants_utils.h **** static inline void SeedRng(){
 4219              		.loc 16 59 20 view .LVU1183
 4220              	.LBB733:
  60:constants_utils.h ****   rng_state = static_cast<uint32_t>(time(nullptr));
 4221              		.loc 16 60 3 view .LVU1184
 4222              		.loc 16 60 41 is_stmt 0 view .LVU1185
 4223 00d0 2846     		mov	r0, r5
 4224 00d2 FFF7FEFF 		bl	time
 4225              	.LVL310:
 4226              		.loc 16 60 13 view .LVU1186
 4227 00d6 0B4B     		ldr	r3, .L212+12
 4228              	.LBE733:
 4229              	.LBE732:
  35:GrannyChordApp.cpp ****   pod_.StartAdc();
 4230              		.loc 2 35 14 view .LVU1187
 4231 00d8 D4E96C12 		ldrd	r1, r2, [r4, #432]
 4232              	.LBB735:
 4233              	.LBB734:
 4234              		.loc 16 60 13 view .LVU1188
 4235 00dc 1860     		str	r0, [r3]
 4236              	.LBE734:
 4237              	.LBE735:
  35:GrannyChordApp.cpp ****   pod_.StartAdc();
 4238              		.loc 2 35 3 is_stmt 1 view .LVU1189
  35:GrannyChordApp.cpp ****   pod_.StartAdc();
 4239              		.loc 2 35 14 is_stmt 0 view .LVU1190
 4240 00de 04F12000 		add	r0, r4, #32
 4241 00e2 2B46     		mov	r3, r5
 4242 00e4 FFF7FEFF 		bl	_ZN13GranularSynth4InitEPsS0_j
 4243              	.LVL311:
  36:GrannyChordApp.cpp **** }
 4244              		.loc 2 36 3 is_stmt 1 view .LVU1191
  36:GrannyChordApp.cpp **** }
 4245              		.loc 2 36 16 is_stmt 0 view .LVU1192
 4246 00e8 E069     		ldr	r0, [r4, #28]
  37:GrannyChordApp.cpp **** 
 4247              		.loc 2 37 1 view .LVU1193
 4248 00ea BDEC048B 		vldm	sp!, {d8-d9}
 4249              		.cfi_restore 82
 4250              		.cfi_restore 83
ARM GAS  /var/folders/2p/02m_5p7958535cp2tpgps0400000gn/T//ccHnEWZO.s 			page 126


 4251              		.cfi_restore 80
 4252              		.cfi_restore 81
 4253              		.cfi_def_cfa_offset 16
 4254 00ee BDE83840 		pop	{r3, r4, r5, lr}
 4255              		.cfi_restore 14
 4256              		.cfi_restore 5
 4257              		.cfi_restore 4
 4258              		.cfi_restore 3
 4259              		.cfi_def_cfa_offset 0
 4260              	.LVL312:
  36:GrannyChordApp.cpp **** }
 4261              		.loc 2 36 16 view .LVU1194
 4262 00f2 FFF7FEBF 		b	_ZN5daisy8DaisyPod8StartAdcEv
 4263              	.LVL313:
 4264              	.L213:
 4265 00f6 00BF     		.align	2
 4266              	.L212:
 4267 00f8 00000000 		.word	.LC24
 4268 00fc DB0FC940 		.word	1086918619
 4269 0100 0000C07F 		.word	2143289344
 4270 0104 00000000 		.word	rng_state
 4271              		.cfi_endproc
 4272              	.LFE4914:
 4274              		.section	.text._ZN14GrannyChordApp15SetLedSynthModeEv,"ax",%progbits
 4275              		.align	1
 4276              		.global	_ZN14GrannyChordApp15SetLedSynthModeEv
 4277              		.syntax unified
 4278              		.thumb
 4279              		.thumb_func
 4281              	_ZN14GrannyChordApp15SetLedSynthModeEv:
 4282              	.LVL314:
 4283              	.LFB4954:
 757:GrannyChordApp.cpp **** 
 758:GrannyChordApp.cpp **** void GrannyChordApp::SetLedSynthMode(){
 4284              		.loc 2 758 39 is_stmt 1 view -0
 4285              		.cfi_startproc
 4286              		@ args = 0, pretend = 0, frame = 16
 4287              		@ frame_needed = 0, uses_anonymous_args = 0
 759:GrannyChordApp.cpp ****   if (curr_state_ == AppState::Synthesis){
 4288              		.loc 2 759 3 view .LVU1196
 758:GrannyChordApp.cpp ****   if (curr_state_ == AppState::Synthesis){
 4289              		.loc 2 758 39 is_stmt 0 view .LVU1197
 4290 0000 7FB5     		push	{r0, r1, r2, r3, r4, r5, r6, lr}
 4291              		.cfi_def_cfa_offset 32
 4292              		.cfi_offset 4, -16
 4293              		.cfi_offset 5, -12
 4294              		.cfi_offset 6, -8
 4295              		.cfi_offset 14, -4
 4296              		.loc 2 759 3 view .LVU1198
 4297 0002 D0F8E430 		ldr	r3, [r0, #228]
 758:GrannyChordApp.cpp ****   if (curr_state_ == AppState::Synthesis){
 4298              		.loc 2 758 39 view .LVU1199
 4299 0006 0446     		mov	r4, r0
 4300              		.loc 2 759 3 view .LVU1200
 4301 0008 022B     		cmp	r3, #2
 4302 000a 2AD1     		bne	.L214
 4303              	.LVL315:
ARM GAS  /var/folders/2p/02m_5p7958535cp2tpgps0400000gn/T//ccHnEWZO.s 			page 127


 4304              	.LBB750:
 4305              	.LBI750:
 758:GrannyChordApp.cpp ****   if (curr_state_ == AppState::Synthesis){
 4306              		.loc 2 758 6 is_stmt 1 view .LVU1201
 4307              	.LBB751:
 760:GrannyChordApp.cpp ****     switch(curr_synth_mode_){
 4308              		.loc 2 760 5 view .LVU1202
 4309 000c D0F8EC30 		ldr	r3, [r0, #236]
 761:GrannyChordApp.cpp ****       /* led2 blue / cyan / orange / yellow */
 762:GrannyChordApp.cpp ****       case SynthMode::Size_Position:
 763:GrannyChordApp.cpp ****         pod_.led2.SetColor(colours.BLUE);
 4310              		.loc 2 763 9 is_stmt 0 view .LVU1203
 4311 0010 C569     		ldr	r5, [r0, #28]
 760:GrannyChordApp.cpp ****     switch(curr_synth_mode_){
 4312              		.loc 2 760 5 view .LVU1204
 4313 0012 032B     		cmp	r3, #3
 4314 0014 10D8     		bhi	.L216
 4315 0016 DFE803F0 		tbb	[pc, r3]
 4316              	.L218:
 4317 001a 02       		.byte	(.L221-.L218)/2
 4318 001b 15       		.byte	(.L220-.L218)/2
 4319 001c 1A       		.byte	(.L219-.L218)/2
 4320 001d 1F       		.byte	(.L217-.L218)/2
 4321              		.p2align 1
 4322              	.L221:
 762:GrannyChordApp.cpp ****         pod_.led2.SetColor(colours.BLUE);
 4323              		.loc 2 762 7 is_stmt 1 view .LVU1205
 4324              		.loc 2 763 9 view .LVU1206
 4325              		.loc 2 763 36 is_stmt 0 view .LVU1207
 4326 001e 00F50543 		add	r3, r0, #34048
 4327 0022 01AE     		add	r6, sp, #4
 4328 0024 1433     		adds	r3, r3, #20
 4329              	.L222:
 764:GrannyChordApp.cpp ****         break;
 765:GrannyChordApp.cpp ****       case SynthMode::Pitch_ActiveGrains:
 766:GrannyChordApp.cpp ****         pod_.led2.SetColor(colours.CYAN);
 767:GrannyChordApp.cpp ****         break;
 768:GrannyChordApp.cpp ****       case SynthMode::Reverb:
 769:GrannyChordApp.cpp ****       pod_.led2.SetColor(colours.ORANGE);
 770:GrannyChordApp.cpp ****         break;
 771:GrannyChordApp.cpp ****       case SynthMode::Filter:
 772:GrannyChordApp.cpp ****         pod_.led2.SetColor(colours.YELLOW);
 4330              		.loc 2 772 36 view .LVU1208
 4331 0026 93E80700 		ldm	r3, {r0, r1, r2}
 4332              	.LVL316:
 4333              		.loc 2 772 36 view .LVU1209
 4334 002a 86E80700 		stm	r6, {r0, r1, r2}
 4335              		.loc 2 772 27 view .LVU1210
 4336 002e 3146     		mov	r1, r6
 4337 0030 05F59670 		add	r0, r5, #300
 4338 0034 FFF7FEFF 		bl	_ZN5daisy6RgbLed8SetColorENS_5ColorE
 4339              	.LVL317:
 4340              	.LBB752:
 4341              	.LBI752:
 4342              		.loc 15 27 5 is_stmt 1 view .LVU1211
 4343              		.loc 15 27 5 is_stmt 0 view .LVU1212
 4344              	.LBE752:
ARM GAS  /var/folders/2p/02m_5p7958535cp2tpgps0400000gn/T//ccHnEWZO.s 			page 128


 773:GrannyChordApp.cpp ****         break;
 4345              		.loc 2 773 9 is_stmt 1 view .LVU1213
 4346              	.L216:
 774:GrannyChordApp.cpp ****       default:
 775:GrannyChordApp.cpp ****         break;
 776:GrannyChordApp.cpp ****     }
 777:GrannyChordApp.cpp ****     pod_.UpdateLeds();
 4347              		.loc 2 777 5 view .LVU1214
 4348              		.loc 2 777 20 is_stmt 0 view .LVU1215
 4349 0038 E069     		ldr	r0, [r4, #28]
 4350              	.LBE751:
 4351              	.LBE750:
 778:GrannyChordApp.cpp ****   }
 779:GrannyChordApp.cpp **** }...
 4352              		.loc 2 779 1 view .LVU1216
 4353 003a 04B0     		add	sp, sp, #16
 4354              		.cfi_remember_state
 4355              		.cfi_def_cfa_offset 16
 4356              		@ sp needed
 4357 003c BDE87040 		pop	{r4, r5, r6, lr}
 4358              		.cfi_restore 14
 4359              		.cfi_restore 6
 4360              		.cfi_restore 5
 4361              		.cfi_restore 4
 4362              		.cfi_def_cfa_offset 0
 4363              	.LVL318:
 4364              	.LBB754:
 4365              	.LBB753:
 777:GrannyChordApp.cpp ****     pod_.UpdateLeds();
 4366              		.loc 2 777 20 view .LVU1217
 4367 0040 FFF7FEBF 		b	_ZN5daisy8DaisyPod10UpdateLedsEv
 4368              	.LVL319:
 4369              	.L220:
 4370              		.cfi_restore_state
 765:GrannyChordApp.cpp ****       case SynthMode::Pitch_ActiveGrains:
 4371              		.loc 2 765 7 is_stmt 1 view .LVU1218
 766:GrannyChordApp.cpp ****         pod_.led2.SetColor(colours.CYAN);
 4372              		.loc 2 766 9 view .LVU1219
 766:GrannyChordApp.cpp ****         pod_.led2.SetColor(colours.CYAN);
 4373              		.loc 2 766 36 is_stmt 0 view .LVU1220
 4374 0044 00F50543 		add	r3, r0, #34048
 4375 0048 01AE     		add	r6, sp, #4
 4376 004a 3833     		adds	r3, r3, #56
 4377 004c EBE7     		b	.L222
 4378              	.L219:
 768:GrannyChordApp.cpp ****       case SynthMode::Reverb:
 4379              		.loc 2 768 7 is_stmt 1 view .LVU1221
 769:GrannyChordApp.cpp ****       pod_.led2.SetColor(colours.ORANGE);
 4380              		.loc 2 769 7 view .LVU1222
 769:GrannyChordApp.cpp ****       pod_.led2.SetColor(colours.ORANGE);
 4381              		.loc 2 769 34 is_stmt 0 view .LVU1223
 4382 004e 00F50543 		add	r3, r0, #34048
 4383 0052 01AE     		add	r6, sp, #4
 4384 0054 5033     		adds	r3, r3, #80
 4385 0056 E6E7     		b	.L222
 4386              	.L217:
 771:GrannyChordApp.cpp ****       case SynthMode::Filter:
ARM GAS  /var/folders/2p/02m_5p7958535cp2tpgps0400000gn/T//ccHnEWZO.s 			page 129


 4387              		.loc 2 771 7 is_stmt 1 view .LVU1224
 772:GrannyChordApp.cpp ****         pod_.led2.SetColor(colours.YELLOW);
 4388              		.loc 2 772 9 view .LVU1225
 772:GrannyChordApp.cpp ****         pod_.led2.SetColor(colours.YELLOW);
 4389              		.loc 2 772 36 is_stmt 0 view .LVU1226
 4390 0058 00F50543 		add	r3, r0, #34048
 4391 005c 01AE     		add	r6, sp, #4
 4392 005e 5C33     		adds	r3, r3, #92
 4393 0060 E1E7     		b	.L222
 4394              	.LVL320:
 4395              	.L214:
 772:GrannyChordApp.cpp ****         pod_.led2.SetColor(colours.YELLOW);
 4396              		.loc 2 772 36 view .LVU1227
 4397              	.LBE753:
 4398              	.LBE754:
 4399              		.loc 2 779 1 view .LVU1228
 4400 0062 04B0     		add	sp, sp, #16
 4401              		.cfi_def_cfa_offset 16
 4402              		@ sp needed
 4403 0064 70BD     		pop	{r4, r5, r6, pc}
 4404              		.cfi_endproc
 4405              	.LFE4954:
 4407              		.section	.rodata._ZN14GrannyChordApp13NextSynthModeEv.str1.1,"aMS",%progbits,1
 4408              	.LC25:
 4409 0000 676F696E 		.ascii	"going to synth mode\000"
 4409      6720746F 
 4409      2073796E 
 4409      7468206D 
 4409      6F646500 
 4410              		.section	.text._ZN14GrannyChordApp13NextSynthModeEv,"ax",%progbits
 4411              		.align	1
 4412              		.global	_ZN14GrannyChordApp13NextSynthModeEv
 4413              		.syntax unified
 4414              		.thumb
 4415              		.thumb_func
 4417              	_ZN14GrannyChordApp13NextSynthModeEv:
 4418              	.LVL321:
 4419              	.LFB4928:
 280:GrannyChordApp.cpp **** void GrannyChordApp::NextSynthMode(){
 4420              		.loc 2 280 37 is_stmt 1 view -0
 4421              		.cfi_startproc
 4422              		@ args = 0, pretend = 0, frame = 0
 4423              		@ frame_needed = 0, uses_anonymous_args = 0
 281:GrannyChordApp.cpp ****   DebugPrint(pod_, "going to synth mode");
 4424              		.loc 2 281 3 view .LVU1230
 281:GrannyChordApp.cpp ****   DebugPrint(pod_, "going to synth mode");
 4425              		.loc 2 281 3 view .LVU1231
 4426              	.LBB755:
 4427              	.LBI755:
 126:../libDaisy/src/daisy_seed.h ****     {
 4428              		.loc 4 126 17 view .LVU1232
 4429              	.LBE755:
 280:GrannyChordApp.cpp **** void GrannyChordApp::NextSynthMode(){
 4430              		.loc 2 280 37 is_stmt 0 view .LVU1233
 4431 0000 70B5     		push	{r4, r5, r6, lr}
 4432              		.cfi_def_cfa_offset 16
 4433              		.cfi_offset 4, -16
ARM GAS  /var/folders/2p/02m_5p7958535cp2tpgps0400000gn/T//ccHnEWZO.s 			page 130


 4434              		.cfi_offset 5, -12
 4435              		.cfi_offset 6, -8
 4436              		.cfi_offset 14, -4
 4437 0002 0446     		mov	r4, r0
 4438              	.LBB758:
 4439              	.LBB756:
 4440              		.loc 4 128 23 view .LVU1234
 4441 0004 2648     		ldr	r0, .L233
 4442              	.LVL322:
 4443              		.loc 4 128 23 view .LVU1235
 4444              	.LBE756:
 4445              	.LBE758:
 280:GrannyChordApp.cpp **** void GrannyChordApp::NextSynthMode(){
 4446              		.loc 2 280 37 view .LVU1236
 4447 0006 2DED028B 		vpush.64	{d8}
 4448              		.cfi_def_cfa_offset 24
 4449              		.cfi_offset 80, -24
 4450              		.cfi_offset 81, -20
 4451              	.LBB759:
 4452              	.LBB757:
 4453              		.loc 4 128 23 view .LVU1237
 4454 000a FFF7FEFF 		bl	_ZN5daisy6LoggerILNS_17LoggerDestinationE1EE9PrintLineEPKcz
 4455              	.LVL323:
 4456              		.loc 4 128 23 view .LVU1238
 4457              	.LBE757:
 4458              	.LBE759:
 282:GrannyChordApp.cpp ****   int mode_idx = static_cast<int>(curr_synth_mode_);
 4459              		.loc 2 282 3 is_stmt 1 view .LVU1239
 283:GrannyChordApp.cpp ****   prev_k1_pos[mode_idx] = MapKnobDeadzone(pod_.knob1.Process());
 4460              		.loc 2 283 42 is_stmt 0 view .LVU1240
 4461 000e E069     		ldr	r0, [r4, #28]
 4462              	.LBB760:
 4463              	.LBB761:
 659:GrannyChordApp.cpp ****   if (knob_val<=0.01f) return 0.0f;
 4464              		.loc 2 659 3 view .LVU1241
 4465 0010 9FED248A 		vldr.32	s16, .L233+4
 4466              	.LBE761:
 4467              	.LBE760:
 283:GrannyChordApp.cpp ****   prev_k1_pos[mode_idx] = MapKnobDeadzone(pod_.knob1.Process());
 4468              		.loc 2 283 42 view .LVU1242
 4469 0014 6830     		adds	r0, r0, #104
 282:GrannyChordApp.cpp ****   int mode_idx = static_cast<int>(curr_synth_mode_);
 4470              		.loc 2 282 7 view .LVU1243
 4471 0016 D4F8EC50 		ldr	r5, [r4, #236]
 4472              	.LVL324:
 283:GrannyChordApp.cpp ****   prev_k1_pos[mode_idx] = MapKnobDeadzone(pod_.knob1.Process());
 4473              		.loc 2 283 3 is_stmt 1 view .LVU1244
 283:GrannyChordApp.cpp ****   prev_k1_pos[mode_idx] = MapKnobDeadzone(pod_.knob1.Process());
 4474              		.loc 2 283 42 is_stmt 0 view .LVU1245
 4475 001a FFF7FEFF 		bl	_ZN5daisy13AnalogControl7ProcessEv
 4476              	.LVL325:
 4477              	.LBB764:
 4478              	.LBI760:
 658:GrannyChordApp.cpp **** inline float GrannyChordApp::MapKnobDeadzone(float knob_val ){
 4479              		.loc 2 658 14 is_stmt 1 view .LVU1246
 4480              	.LBB762:
 659:GrannyChordApp.cpp ****   if (knob_val<=0.01f) return 0.0f;
ARM GAS  /var/folders/2p/02m_5p7958535cp2tpgps0400000gn/T//ccHnEWZO.s 			page 131


 4481              		.loc 2 659 3 view .LVU1247
 4482 001e B4EEC80A 		vcmpe.f32	s0, s16
 4483 0022 F1EE10FA 		vmrs	APSR_nzcv, FPSCR
 4484 0026 35D9     		bls	.L229
 660:GrannyChordApp.cpp ****   if (knob_val>=0.99f) return 1.0f;
 4485              		.loc 2 660 3 view .LVU1248
 660:GrannyChordApp.cpp ****   if (knob_val>=0.99f) return 1.0f;
 4486              		.loc 2 660 31 is_stmt 0 view .LVU1249
 4487 0028 DFED1F7A 		vldr.32	s15, .L233+8
 4488 002c B4EE670A 		vcmp.f32	s0, s15
 4489 0030 F7EE007A 		vmov.f32	s15, #1.0e+0
 4490 0034 F1EE10FA 		vmrs	APSR_nzcv, FPSCR
 4491 0038 27FE800A 		vselge.f32	s0, s15, s0
 4492              	.LVL326:
 4493              	.L224:
 660:GrannyChordApp.cpp ****   if (knob_val>=0.99f) return 1.0f;
 4494              		.loc 2 660 31 view .LVU1250
 4495 003c 04EB8506 		add	r6, r4, r5, lsl #2
 4496              	.LBE762:
 4497              	.LBE764:
 283:GrannyChordApp.cpp ****   prev_k1_pos[mode_idx] = MapKnobDeadzone(pod_.knob1.Process());
 4498              		.loc 2 283 25 view .LVU1251
 4499 0040 86ED990A 		vstr.32	s0, [r6, #612]
 284:GrannyChordApp.cpp ****   prev_k2_pos[mode_idx] = MapKnobDeadzone(pod_.knob2.Process());
 4500              		.loc 2 284 3 is_stmt 1 view .LVU1252
 284:GrannyChordApp.cpp ****   prev_k2_pos[mode_idx] = MapKnobDeadzone(pod_.knob2.Process());
 4501              		.loc 2 284 42 is_stmt 0 view .LVU1253
 4502 0044 E069     		ldr	r0, [r4, #28]
 4503 0046 8830     		adds	r0, r0, #136
 4504 0048 FFF7FEFF 		bl	_ZN5daisy13AnalogControl7ProcessEv
 4505              	.LVL327:
 4506              	.LBB765:
 4507              	.LBI765:
 658:GrannyChordApp.cpp **** inline float GrannyChordApp::MapKnobDeadzone(float knob_val ){
 4508              		.loc 2 658 14 is_stmt 1 view .LVU1254
 4509              	.LBB766:
 659:GrannyChordApp.cpp ****   if (knob_val<=0.01f) return 0.0f;
 4510              		.loc 2 659 3 view .LVU1255
 4511 004c B4EEC80A 		vcmpe.f32	s0, s16
 4512 0050 F1EE10FA 		vmrs	APSR_nzcv, FPSCR
 4513 0054 21D9     		bls	.L230
 660:GrannyChordApp.cpp ****   if (knob_val>=0.99f) return 1.0f;
 4514              		.loc 2 660 3 view .LVU1256
 660:GrannyChordApp.cpp ****   if (knob_val>=0.99f) return 1.0f;
 4515              		.loc 2 660 31 is_stmt 0 view .LVU1257
 4516 0056 DFED147A 		vldr.32	s15, .L233+8
 4517 005a B4EE670A 		vcmp.f32	s0, s15
 4518 005e F7EE007A 		vmov.f32	s15, #1.0e+0
 4519 0062 F1EE10FA 		vmrs	APSR_nzcv, FPSCR
 4520 0066 27FE800A 		vselge.f32	s0, s15, s0
 4521              	.LVL328:
 4522              	.L226:
 660:GrannyChordApp.cpp ****   if (knob_val>=0.99f) return 1.0f;
 4523              		.loc 2 660 31 view .LVU1258
 4524              	.LBE766:
 4525              	.LBE765:
 287:GrannyChordApp.cpp ****   mode_idx++;
ARM GAS  /var/folders/2p/02m_5p7958535cp2tpgps0400000gn/T//ccHnEWZO.s 			page 132


 4526              		.loc 2 287 11 view .LVU1259
 4527 006a 691C     		adds	r1, r5, #1
 285:GrannyChordApp.cpp ****   knob1_latched = false;
 4528              		.loc 2 285 17 view .LVU1260
 4529 006c 0023     		movs	r3, #0
 284:GrannyChordApp.cpp ****   prev_k2_pos[mode_idx] = MapKnobDeadzone(pod_.knob2.Process());
 4530              		.loc 2 284 25 view .LVU1261
 4531 006e 86ED9D0A 		vstr.32	s0, [r6, #628]
 285:GrannyChordApp.cpp ****   knob1_latched = false;
 4532              		.loc 2 285 3 is_stmt 1 view .LVU1262
 286:GrannyChordApp.cpp ****   knob2_latched = false;
 4533              		.loc 2 286 3 view .LVU1263
 290:GrannyChordApp.cpp ****   DebugPrintMode(curr_synth_mode_);
 4534              		.loc 2 290 17 is_stmt 0 view .LVU1264
 4535 0072 2046     		mov	r0, r4
 288:GrannyChordApp.cpp ****   if (mode_idx>3) mode_idx =0;
 4536              		.loc 2 288 28 view .LVU1265
 4537 0074 0429     		cmp	r1, #4
 285:GrannyChordApp.cpp ****   knob1_latched = false;
 4538              		.loc 2 285 17 view .LVU1266
 4539 0076 A4F8F430 		strh	r3, [r4, #244]	@ movhi
 287:GrannyChordApp.cpp ****   mode_idx++;
 4540              		.loc 2 287 3 is_stmt 1 view .LVU1267
 4541              	.LVL329:
 288:GrannyChordApp.cpp ****   if (mode_idx>3) mode_idx =0;
 4542              		.loc 2 288 3 view .LVU1268
 288:GrannyChordApp.cpp ****   if (mode_idx>3) mode_idx =0;
 4543              		.loc 2 288 28 is_stmt 0 view .LVU1269
 4544 007a A8BF     		it	ge
 4545 007c 1946     		movge	r1, r3
 4546              	.LVL330:
 289:GrannyChordApp.cpp ****   curr_synth_mode_ = static_cast<SynthMode>(mode_idx);
 4547              		.loc 2 289 3 is_stmt 1 view .LVU1270
 289:GrannyChordApp.cpp ****   curr_synth_mode_ = static_cast<SynthMode>(mode_idx);
 4548              		.loc 2 289 20 is_stmt 0 view .LVU1271
 4549 007e C4F8EC10 		str	r1, [r4, #236]
 290:GrannyChordApp.cpp ****   DebugPrintMode(curr_synth_mode_);
 4550              		.loc 2 290 3 is_stmt 1 view .LVU1272
 290:GrannyChordApp.cpp ****   DebugPrintMode(curr_synth_mode_);
 4551              		.loc 2 290 17 is_stmt 0 view .LVU1273
 4552 0082 FFF7FEFF 		bl	_ZN14GrannyChordApp14DebugPrintModeE9SynthMode
 4553              	.LVL331:
 291:GrannyChordApp.cpp ****   SetLedSynthMode();
 4554              		.loc 2 291 3 is_stmt 1 view .LVU1274
 291:GrannyChordApp.cpp ****   SetLedSynthMode();
 4555              		.loc 2 291 18 is_stmt 0 view .LVU1275
 4556 0086 2046     		mov	r0, r4
 292:GrannyChordApp.cpp **** }
 4557              		.loc 2 292 1 view .LVU1276
 4558 0088 BDEC028B 		vldm	sp!, {d8}
 4559              		.cfi_remember_state
 4560              		.cfi_restore 80
 4561              		.cfi_restore 81
 4562              		.cfi_def_cfa_offset 16
 4563 008c BDE87040 		pop	{r4, r5, r6, lr}
 4564              		.cfi_restore 14
 4565              		.cfi_restore 6
ARM GAS  /var/folders/2p/02m_5p7958535cp2tpgps0400000gn/T//ccHnEWZO.s 			page 133


 4566              		.cfi_restore 5
 4567              		.cfi_restore 4
 4568              		.cfi_def_cfa_offset 0
 4569              	.LVL332:
 291:GrannyChordApp.cpp ****   SetLedSynthMode();
 4570              		.loc 2 291 18 view .LVU1277
 4571 0090 FFF7FEBF 		b	_ZN14GrannyChordApp15SetLedSynthModeEv
 4572              	.LVL333:
 4573              	.L229:
 4574              		.cfi_restore_state
 4575              	.LBB768:
 4576              	.LBB763:
 659:GrannyChordApp.cpp ****   if (knob_val<=0.01f) return 0.0f;
 4577              		.loc 2 659 31 view .LVU1278
 4578 0094 9FED050A 		vldr.32	s0, .L233+12
 4579              	.LVL334:
 659:GrannyChordApp.cpp ****   if (knob_val<=0.01f) return 0.0f;
 4580              		.loc 2 659 31 view .LVU1279
 4581 0098 D0E7     		b	.L224
 4582              	.LVL335:
 4583              	.L230:
 659:GrannyChordApp.cpp ****   if (knob_val<=0.01f) return 0.0f;
 4584              		.loc 2 659 31 view .LVU1280
 4585              	.LBE763:
 4586              	.LBE768:
 4587              	.LBB769:
 4588              	.LBB767:
 4589 009a 9FED040A 		vldr.32	s0, .L233+12
 4590              	.LVL336:
 659:GrannyChordApp.cpp ****   if (knob_val<=0.01f) return 0.0f;
 4591              		.loc 2 659 31 view .LVU1281
 4592 009e E4E7     		b	.L226
 4593              	.L234:
 4594              		.align	2
 4595              	.L233:
 4596 00a0 00000000 		.word	.LC25
 4597 00a4 0AD7233C 		.word	1008981770
 4598 00a8 A4707D3F 		.word	1065185444
 4599 00ac 00000000 		.word	0
 4600              	.LBE767:
 4601              	.LBE769:
 4602              		.cfi_endproc
 4603              	.LFE4928:
 4605              		.section	.text._ZN14GrannyChordApp13HandleButton1Ev,"ax",%progbits
 4606              		.align	1
 4607              		.global	_ZN14GrannyChordApp13HandleButton1Ev
 4608              		.syntax unified
 4609              		.thumb
 4610              		.thumb_func
 4612              	_ZN14GrannyChordApp13HandleButton1Ev:
 4613              	.LVL337:
 4614              	.LFB4924:
 248:GrannyChordApp.cpp **** void GrannyChordApp::HandleButton1(){
 4615              		.loc 2 248 37 is_stmt 1 view -0
 4616              		.cfi_startproc
 4617              		@ args = 0, pretend = 0, frame = 0
 4618              		@ frame_needed = 0, uses_anonymous_args = 0
ARM GAS  /var/folders/2p/02m_5p7958535cp2tpgps0400000gn/T//ccHnEWZO.s 			page 134


 4619              		@ link register save eliminated.
 249:GrannyChordApp.cpp ****   NextSynthMode();
 4620              		.loc 2 249 3 view .LVU1283
 249:GrannyChordApp.cpp ****   NextSynthMode();
 4621              		.loc 2 249 16 is_stmt 0 view .LVU1284
 4622 0000 FFF7FEBF 		b	_ZN14GrannyChordApp13NextSynthModeEv
 4623              	.LVL338:
 249:GrannyChordApp.cpp ****   NextSynthMode();
 4624              		.loc 2 249 16 view .LVU1285
 4625              		.cfi_endproc
 4626              	.LFE4924:
 4628              		.section	.rodata._ZN14GrannyChordApp13PrevSynthModeEv.str1.1,"aMS",%progbits,1
 4629              	.LC26:
 4630 0000 676F696E 		.ascii	"going to prev synth mode\000"
 4630      6720746F 
 4630      20707265 
 4630      76207379 
 4630      6E746820 
 4631              		.section	.text._ZN14GrannyChordApp13PrevSynthModeEv,"ax",%progbits
 4632              		.align	1
 4633              		.global	_ZN14GrannyChordApp13PrevSynthModeEv
 4634              		.syntax unified
 4635              		.thumb
 4636              		.thumb_func
 4638              	_ZN14GrannyChordApp13PrevSynthModeEv:
 4639              	.LVL339:
 4640              	.LFB4929:
 295:GrannyChordApp.cpp **** void GrannyChordApp::PrevSynthMode(){
 4641              		.loc 2 295 37 is_stmt 1 view -0
 4642              		.cfi_startproc
 4643              		@ args = 0, pretend = 0, frame = 0
 4644              		@ frame_needed = 0, uses_anonymous_args = 0
 296:GrannyChordApp.cpp ****   DebugPrint(pod_, "going to prev synth mode");
 4645              		.loc 2 296 3 view .LVU1287
 296:GrannyChordApp.cpp ****   DebugPrint(pod_, "going to prev synth mode");
 4646              		.loc 2 296 3 view .LVU1288
 4647              	.LBB770:
 4648              	.LBI770:
 126:../libDaisy/src/daisy_seed.h ****     {
 4649              		.loc 4 126 17 view .LVU1289
 4650              	.LBE770:
 295:GrannyChordApp.cpp **** void GrannyChordApp::PrevSynthMode(){
 4651              		.loc 2 295 37 is_stmt 0 view .LVU1290
 4652 0000 70B5     		push	{r4, r5, r6, lr}
 4653              		.cfi_def_cfa_offset 16
 4654              		.cfi_offset 4, -16
 4655              		.cfi_offset 5, -12
 4656              		.cfi_offset 6, -8
 4657              		.cfi_offset 14, -4
 4658 0002 0446     		mov	r4, r0
 4659              	.LBB773:
 4660              	.LBB771:
 4661              		.loc 4 128 23 view .LVU1291
 4662 0004 2648     		ldr	r0, .L246
 4663              	.LVL340:
 4664              		.loc 4 128 23 view .LVU1292
 4665              	.LBE771:
ARM GAS  /var/folders/2p/02m_5p7958535cp2tpgps0400000gn/T//ccHnEWZO.s 			page 135


 4666              	.LBE773:
 295:GrannyChordApp.cpp **** void GrannyChordApp::PrevSynthMode(){
 4667              		.loc 2 295 37 view .LVU1293
 4668 0006 2DED028B 		vpush.64	{d8}
 4669              		.cfi_def_cfa_offset 24
 4670              		.cfi_offset 80, -24
 4671              		.cfi_offset 81, -20
 4672              	.LBB774:
 4673              	.LBB772:
 4674              		.loc 4 128 23 view .LVU1294
 4675 000a FFF7FEFF 		bl	_ZN5daisy6LoggerILNS_17LoggerDestinationE1EE9PrintLineEPKcz
 4676              	.LVL341:
 4677              		.loc 4 128 23 view .LVU1295
 4678              	.LBE772:
 4679              	.LBE774:
 297:GrannyChordApp.cpp ****   int mode_idx = static_cast<int>(curr_synth_mode_);
 4680              		.loc 2 297 3 is_stmt 1 view .LVU1296
 298:GrannyChordApp.cpp ****   prev_k1_pos[mode_idx] = MapKnobDeadzone(pod_.knob1.Process());
 4681              		.loc 2 298 42 is_stmt 0 view .LVU1297
 4682 000e E069     		ldr	r0, [r4, #28]
 4683              	.LBB775:
 4684              	.LBB776:
 659:GrannyChordApp.cpp ****   if (knob_val<=0.01f) return 0.0f;
 4685              		.loc 2 659 3 view .LVU1298
 4686 0010 9FED248A 		vldr.32	s16, .L246+4
 4687              	.LBE776:
 4688              	.LBE775:
 298:GrannyChordApp.cpp ****   prev_k1_pos[mode_idx] = MapKnobDeadzone(pod_.knob1.Process());
 4689              		.loc 2 298 42 view .LVU1299
 4690 0014 6830     		adds	r0, r0, #104
 297:GrannyChordApp.cpp ****   int mode_idx = static_cast<int>(curr_synth_mode_);
 4691              		.loc 2 297 7 view .LVU1300
 4692 0016 D4F8EC50 		ldr	r5, [r4, #236]
 4693              	.LVL342:
 298:GrannyChordApp.cpp ****   prev_k1_pos[mode_idx] = MapKnobDeadzone(pod_.knob1.Process());
 4694              		.loc 2 298 3 is_stmt 1 view .LVU1301
 298:GrannyChordApp.cpp ****   prev_k1_pos[mode_idx] = MapKnobDeadzone(pod_.knob1.Process());
 4695              		.loc 2 298 42 is_stmt 0 view .LVU1302
 4696 001a FFF7FEFF 		bl	_ZN5daisy13AnalogControl7ProcessEv
 4697              	.LVL343:
 4698              	.LBB779:
 4699              	.LBI775:
 658:GrannyChordApp.cpp **** inline float GrannyChordApp::MapKnobDeadzone(float knob_val ){
 4700              		.loc 2 658 14 is_stmt 1 view .LVU1303
 4701              	.LBB777:
 659:GrannyChordApp.cpp ****   if (knob_val<=0.01f) return 0.0f;
 4702              		.loc 2 659 3 view .LVU1304
 4703 001e B4EEC80A 		vcmpe.f32	s0, s16
 4704 0022 F1EE10FA 		vmrs	APSR_nzcv, FPSCR
 4705 0026 35D9     		bls	.L242
 660:GrannyChordApp.cpp ****   if (knob_val>=0.99f) return 1.0f;
 4706              		.loc 2 660 3 view .LVU1305
 660:GrannyChordApp.cpp ****   if (knob_val>=0.99f) return 1.0f;
 4707              		.loc 2 660 31 is_stmt 0 view .LVU1306
 4708 0028 DFED1F7A 		vldr.32	s15, .L246+8
 4709 002c B4EE670A 		vcmp.f32	s0, s15
 4710 0030 F7EE007A 		vmov.f32	s15, #1.0e+0
ARM GAS  /var/folders/2p/02m_5p7958535cp2tpgps0400000gn/T//ccHnEWZO.s 			page 136


 4711 0034 F1EE10FA 		vmrs	APSR_nzcv, FPSCR
 4712 0038 27FE800A 		vselge.f32	s0, s15, s0
 4713              	.LVL344:
 4714              	.L237:
 660:GrannyChordApp.cpp ****   if (knob_val>=0.99f) return 1.0f;
 4715              		.loc 2 660 31 view .LVU1307
 4716 003c 04EB8506 		add	r6, r4, r5, lsl #2
 4717              	.LBE777:
 4718              	.LBE779:
 298:GrannyChordApp.cpp ****   prev_k1_pos[mode_idx] = MapKnobDeadzone(pod_.knob1.Process());
 4719              		.loc 2 298 25 view .LVU1308
 4720 0040 86ED990A 		vstr.32	s0, [r6, #612]
 299:GrannyChordApp.cpp ****   prev_k2_pos[mode_idx] = MapKnobDeadzone(pod_.knob2.Process());
 4721              		.loc 2 299 3 is_stmt 1 view .LVU1309
 299:GrannyChordApp.cpp ****   prev_k2_pos[mode_idx] = MapKnobDeadzone(pod_.knob2.Process());
 4722              		.loc 2 299 42 is_stmt 0 view .LVU1310
 4723 0044 E069     		ldr	r0, [r4, #28]
 4724 0046 8830     		adds	r0, r0, #136
 4725 0048 FFF7FEFF 		bl	_ZN5daisy13AnalogControl7ProcessEv
 4726              	.LVL345:
 4727              	.LBB780:
 4728              	.LBI780:
 658:GrannyChordApp.cpp **** inline float GrannyChordApp::MapKnobDeadzone(float knob_val ){
 4729              		.loc 2 658 14 is_stmt 1 view .LVU1311
 4730              	.LBB781:
 659:GrannyChordApp.cpp ****   if (knob_val<=0.01f) return 0.0f;
 4731              		.loc 2 659 3 view .LVU1312
 4732 004c B4EEC80A 		vcmpe.f32	s0, s16
 4733 0050 F1EE10FA 		vmrs	APSR_nzcv, FPSCR
 4734 0054 21D9     		bls	.L243
 660:GrannyChordApp.cpp ****   if (knob_val>=0.99f) return 1.0f;
 4735              		.loc 2 660 3 view .LVU1313
 660:GrannyChordApp.cpp ****   if (knob_val>=0.99f) return 1.0f;
 4736              		.loc 2 660 31 is_stmt 0 view .LVU1314
 4737 0056 DFED147A 		vldr.32	s15, .L246+8
 4738 005a B4EE670A 		vcmp.f32	s0, s15
 4739 005e F7EE007A 		vmov.f32	s15, #1.0e+0
 4740 0062 F1EE10FA 		vmrs	APSR_nzcv, FPSCR
 4741 0066 27FE800A 		vselge.f32	s0, s15, s0
 4742              	.LVL346:
 4743              	.L239:
 660:GrannyChordApp.cpp ****   if (knob_val>=0.99f) return 1.0f;
 4744              		.loc 2 660 31 view .LVU1315
 4745              	.LBE781:
 4746              	.LBE780:
 303:GrannyChordApp.cpp ****   if (mode_idx<0) mode_idx=3;
 4747              		.loc 2 303 27 view .LVU1316
 4748 006a 691E     		subs	r1, r5, #1
 300:GrannyChordApp.cpp ****   knob1_latched = false;
 4749              		.loc 2 300 17 view .LVU1317
 4750 006c 4FF00003 		mov	r3, #0
 299:GrannyChordApp.cpp ****   prev_k2_pos[mode_idx] = MapKnobDeadzone(pod_.knob2.Process());
 4751              		.loc 2 299 25 view .LVU1318
 4752 0070 86ED9D0A 		vstr.32	s0, [r6, #628]
 300:GrannyChordApp.cpp ****   knob1_latched = false;
 4753              		.loc 2 300 3 is_stmt 1 view .LVU1319
 301:GrannyChordApp.cpp ****   knob2_latched = false;  
ARM GAS  /var/folders/2p/02m_5p7958535cp2tpgps0400000gn/T//ccHnEWZO.s 			page 137


 4754              		.loc 2 301 3 view .LVU1320
 305:GrannyChordApp.cpp ****   DebugPrintMode(curr_synth_mode_);
 4755              		.loc 2 305 17 is_stmt 0 view .LVU1321
 4756 0074 2046     		mov	r0, r4
 303:GrannyChordApp.cpp ****   if (mode_idx<0) mode_idx=3;
 4757              		.loc 2 303 27 view .LVU1322
 4758 0076 48BF     		it	mi
 4759 0078 0321     		movmi	r1, #3
 300:GrannyChordApp.cpp ****   knob1_latched = false;
 4760              		.loc 2 300 17 view .LVU1323
 4761 007a A4F8F430 		strh	r3, [r4, #244]	@ movhi
 302:GrannyChordApp.cpp ****   mode_idx --;
 4762              		.loc 2 302 3 is_stmt 1 view .LVU1324
 4763              	.LVL347:
 303:GrannyChordApp.cpp ****   if (mode_idx<0) mode_idx=3;
 4764              		.loc 2 303 3 view .LVU1325
 304:GrannyChordApp.cpp ****   curr_synth_mode_ = static_cast<SynthMode>(mode_idx);
 4765              		.loc 2 304 3 view .LVU1326
 304:GrannyChordApp.cpp ****   curr_synth_mode_ = static_cast<SynthMode>(mode_idx);
 4766              		.loc 2 304 20 is_stmt 0 view .LVU1327
 4767 007e C4F8EC10 		str	r1, [r4, #236]
 305:GrannyChordApp.cpp ****   DebugPrintMode(curr_synth_mode_);
 4768              		.loc 2 305 3 is_stmt 1 view .LVU1328
 305:GrannyChordApp.cpp ****   DebugPrintMode(curr_synth_mode_);
 4769              		.loc 2 305 17 is_stmt 0 view .LVU1329
 4770 0082 FFF7FEFF 		bl	_ZN14GrannyChordApp14DebugPrintModeE9SynthMode
 4771              	.LVL348:
 306:GrannyChordApp.cpp ****   SetLedSynthMode();
 4772              		.loc 2 306 3 is_stmt 1 view .LVU1330
 306:GrannyChordApp.cpp ****   SetLedSynthMode();
 4773              		.loc 2 306 18 is_stmt 0 view .LVU1331
 4774 0086 2046     		mov	r0, r4
 307:GrannyChordApp.cpp **** }
 4775              		.loc 2 307 1 view .LVU1332
 4776 0088 BDEC028B 		vldm	sp!, {d8}
 4777              		.cfi_remember_state
 4778              		.cfi_restore 80
 4779              		.cfi_restore 81
 4780              		.cfi_def_cfa_offset 16
 4781 008c BDE87040 		pop	{r4, r5, r6, lr}
 4782              		.cfi_restore 14
 4783              		.cfi_restore 6
 4784              		.cfi_restore 5
 4785              		.cfi_restore 4
 4786              		.cfi_def_cfa_offset 0
 4787              	.LVL349:
 306:GrannyChordApp.cpp ****   SetLedSynthMode();
 4788              		.loc 2 306 18 view .LVU1333
 4789 0090 FFF7FEBF 		b	_ZN14GrannyChordApp15SetLedSynthModeEv
 4790              	.LVL350:
 4791              	.L242:
 4792              		.cfi_restore_state
 4793              	.LBB783:
 4794              	.LBB778:
 659:GrannyChordApp.cpp ****   if (knob_val<=0.01f) return 0.0f;
 4795              		.loc 2 659 31 view .LVU1334
 4796 0094 9FED050A 		vldr.32	s0, .L246+12
ARM GAS  /var/folders/2p/02m_5p7958535cp2tpgps0400000gn/T//ccHnEWZO.s 			page 138


 4797              	.LVL351:
 659:GrannyChordApp.cpp ****   if (knob_val<=0.01f) return 0.0f;
 4798              		.loc 2 659 31 view .LVU1335
 4799 0098 D0E7     		b	.L237
 4800              	.LVL352:
 4801              	.L243:
 659:GrannyChordApp.cpp ****   if (knob_val<=0.01f) return 0.0f;
 4802              		.loc 2 659 31 view .LVU1336
 4803              	.LBE778:
 4804              	.LBE783:
 4805              	.LBB784:
 4806              	.LBB782:
 4807 009a 9FED040A 		vldr.32	s0, .L246+12
 4808              	.LVL353:
 659:GrannyChordApp.cpp ****   if (knob_val<=0.01f) return 0.0f;
 4809              		.loc 2 659 31 view .LVU1337
 4810 009e E4E7     		b	.L239
 4811              	.L247:
 4812              		.align	2
 4813              	.L246:
 4814 00a0 00000000 		.word	.LC26
 4815 00a4 0AD7233C 		.word	1008981770
 4816 00a8 A4707D3F 		.word	1065185444
 4817 00ac 00000000 		.word	0
 4818              	.LBE782:
 4819              	.LBE784:
 4820              		.cfi_endproc
 4821              	.LFE4929:
 4823              		.section	.text._ZN14GrannyChordApp13HandleButton2Ev,"ax",%progbits
 4824              		.align	1
 4825              		.global	_ZN14GrannyChordApp13HandleButton2Ev
 4826              		.syntax unified
 4827              		.thumb
 4828              		.thumb_func
 4830              	_ZN14GrannyChordApp13HandleButton2Ev:
 4831              	.LVL354:
 4832              	.LFB4925:
 253:GrannyChordApp.cpp **** void GrannyChordApp::HandleButton2(){
 4833              		.loc 2 253 37 is_stmt 1 view -0
 4834              		.cfi_startproc
 4835              		@ args = 0, pretend = 0, frame = 0
 4836              		@ frame_needed = 0, uses_anonymous_args = 0
 4837              		@ link register save eliminated.
 254:GrannyChordApp.cpp ****     PrevSynthMode();
 4838              		.loc 2 254 5 view .LVU1339
 254:GrannyChordApp.cpp ****     PrevSynthMode();
 4839              		.loc 2 254 18 is_stmt 0 view .LVU1340
 4840 0000 FFF7FEBF 		b	_ZN14GrannyChordApp13PrevSynthModeEv
 4841              	.LVL355:
 254:GrannyChordApp.cpp ****     PrevSynthMode();
 4842              		.loc 2 254 18 view .LVU1341
 4843              		.cfi_endproc
 4844              	.LFE4925:
 4846              		.section	.text._ZN14GrannyChordApp13ButtonHandlerEv,"ax",%progbits
 4847              		.align	1
 4848              		.global	_ZN14GrannyChordApp13ButtonHandlerEv
 4849              		.syntax unified
ARM GAS  /var/folders/2p/02m_5p7958535cp2tpgps0400000gn/T//ccHnEWZO.s 			page 139


 4850              		.thumb
 4851              		.thumb_func
 4853              	_ZN14GrannyChordApp13ButtonHandlerEv:
 4854              	.LVL356:
 4855              	.LFB4923:
 210:GrannyChordApp.cpp **** void GrannyChordApp::ButtonHandler(){
 4856              		.loc 2 210 37 is_stmt 1 view -0
 4857              		.cfi_startproc
 4858              		@ args = 0, pretend = 0, frame = 0
 4859              		@ frame_needed = 0, uses_anonymous_args = 0
 211:GrannyChordApp.cpp ****   if (pod_.button1.FallingEdge()){
 4860              		.loc 2 211 3 view .LVU1343
 211:GrannyChordApp.cpp ****   if (pod_.button1.FallingEdge()){
 4861              		.loc 2 211 7 is_stmt 0 view .LVU1344
 4862 0000 C369     		ldr	r3, [r0, #28]
 4863              	.LVL357:
 4864              	.LBB793:
 4865              	.LBI793:
  73:../libDaisy/src/hid/switch.h ****     {
 4866              		.loc 7 73 17 is_stmt 1 view .LVU1345
 4867              	.LBB794:
 4868              		.loc 7 75 9 view .LVU1346
 4869              		.loc 7 75 25 is_stmt 0 view .LVU1347
 4870 0002 93F8B420 		ldrb	r2, [r3, #180]	@ zero_extendqisi2
 4871              	.LBE794:
 4872              	.LBE793:
 210:GrannyChordApp.cpp **** void GrannyChordApp::ButtonHandler(){
 4873              		.loc 2 210 37 view .LVU1348
 4874 0006 10B5     		push	{r4, lr}
 4875              		.cfi_def_cfa_offset 8
 4876              		.cfi_offset 4, -8
 4877              		.cfi_offset 14, -4
 210:GrannyChordApp.cpp **** void GrannyChordApp::ButtonHandler(){
 4878              		.loc 2 210 37 view .LVU1349
 4879 0008 0446     		mov	r4, r0
 4880              	.LBB796:
 4881              	.LBB795:
 4882              		.loc 7 75 25 view .LVU1350
 4883 000a 2AB1     		cbz	r2, .L250
 4884              	.LVL358:
 4885              		.loc 7 75 25 view .LVU1351
 4886              	.LBE795:
 4887              	.LBE796:
 211:GrannyChordApp.cpp ****   if (pod_.button1.FallingEdge()){
 4888              		.loc 2 211 3 view .LVU1352
 4889 000c 93F8BA30 		ldrb	r3, [r3, #186]	@ zero_extendqisi2
 4890 0010 802B     		cmp	r3, #128
 4891 0012 01D1     		bne	.L250
 212:GrannyChordApp.cpp ****     HandleButton1();
 4892              		.loc 2 212 5 is_stmt 1 view .LVU1353
 4893              	.LVL359:
 4894              	.LBB797:
 4895              	.LBI797:
 248:GrannyChordApp.cpp **** void GrannyChordApp::HandleButton1(){
 4896              		.loc 2 248 6 view .LVU1354
 4897              	.LBB798:
 249:GrannyChordApp.cpp ****   NextSynthMode();
ARM GAS  /var/folders/2p/02m_5p7958535cp2tpgps0400000gn/T//ccHnEWZO.s 			page 140


 4898              		.loc 2 249 3 view .LVU1355
 249:GrannyChordApp.cpp ****   NextSynthMode();
 4899              		.loc 2 249 16 is_stmt 0 view .LVU1356
 4900 0014 FFF7FEFF 		bl	_ZN14GrannyChordApp13NextSynthModeEv
 4901              	.LVL360:
 4902              	.L250:
 249:GrannyChordApp.cpp ****   NextSynthMode();
 4903              		.loc 2 249 16 view .LVU1357
 4904              	.LBE798:
 4905              	.LBE797:
 215:GrannyChordApp.cpp ****   if (pod_.button2.FallingEdge()){
 4906              		.loc 2 215 3 is_stmt 1 view .LVU1358
 215:GrannyChordApp.cpp ****   if (pod_.button2.FallingEdge()){
 4907              		.loc 2 215 7 is_stmt 0 view .LVU1359
 4908 0018 E369     		ldr	r3, [r4, #28]
 4909              	.LVL361:
 4910              	.LBB799:
 4911              	.LBI799:
  73:../libDaisy/src/hid/switch.h ****     {
 4912              		.loc 7 73 17 is_stmt 1 view .LVU1360
 4913              	.LBB800:
 4914              		.loc 7 75 9 view .LVU1361
 4915              		.loc 7 75 25 is_stmt 0 view .LVU1362
 4916 001a 93F8C420 		ldrb	r2, [r3, #196]	@ zero_extendqisi2
 4917 001e 42B1     		cbz	r2, .L249
 4918              	.LVL362:
 4919              		.loc 7 75 25 view .LVU1363
 4920              	.LBE800:
 4921              	.LBE799:
 215:GrannyChordApp.cpp ****   if (pod_.button2.FallingEdge()){
 4922              		.loc 2 215 3 view .LVU1364
 4923 0020 93F8CA30 		ldrb	r3, [r3, #202]	@ zero_extendqisi2
 4924 0024 802B     		cmp	r3, #128
 4925 0026 04D1     		bne	.L249
 216:GrannyChordApp.cpp ****     HandleButton2();
 4926              		.loc 2 216 5 is_stmt 1 view .LVU1365
 4927              	.LVL363:
 4928              	.LBB801:
 4929              	.LBI801:
 253:GrannyChordApp.cpp **** void GrannyChordApp::HandleButton2(){
 4930              		.loc 2 253 6 view .LVU1366
 4931              	.LBB802:
 254:GrannyChordApp.cpp ****     PrevSynthMode();
 4932              		.loc 2 254 5 view .LVU1367
 254:GrannyChordApp.cpp ****     PrevSynthMode();
 4933              		.loc 2 254 18 is_stmt 0 view .LVU1368
 4934 0028 2046     		mov	r0, r4
 4935              	.LBE802:
 4936              	.LBE801:
 245:GrannyChordApp.cpp **** }
 4937              		.loc 2 245 1 view .LVU1369
 4938 002a BDE81040 		pop	{r4, lr}
 4939              		.cfi_remember_state
 4940              		.cfi_restore 14
 4941              		.cfi_restore 4
 4942              		.cfi_def_cfa_offset 0
 4943              	.LVL364:
ARM GAS  /var/folders/2p/02m_5p7958535cp2tpgps0400000gn/T//ccHnEWZO.s 			page 141


 4944              	.LBB804:
 4945              	.LBB803:
 254:GrannyChordApp.cpp ****     PrevSynthMode();
 4946              		.loc 2 254 18 view .LVU1370
 4947 002e FFF7FEBF 		b	_ZN14GrannyChordApp13PrevSynthModeEv
 4948              	.LVL365:
 4949              	.L249:
 4950              		.cfi_restore_state
 254:GrannyChordApp.cpp ****     PrevSynthMode();
 4951              		.loc 2 254 18 view .LVU1371
 4952              	.LBE803:
 4953              	.LBE804:
 245:GrannyChordApp.cpp **** }
 4954              		.loc 2 245 1 view .LVU1372
 4955 0032 10BD     		pop	{r4, pc}
 245:GrannyChordApp.cpp **** }
 4956              		.loc 2 245 1 view .LVU1373
 4957              		.cfi_endproc
 4958              	.LFE4923:
 4960              		.section	.rodata._ZN14GrannyChordApp8UpdateUIEv.str1.1,"aMS",%progbits,1
 4961              	.LC27:
 4962 0000 73776974 		.ascii	"switching states\000"
 4962      6368696E 
 4962      67207374 
 4962      61746573 
 4962      00
 4963              		.section	.text._ZN14GrannyChordApp8UpdateUIEv,"ax",%progbits
 4964              		.align	1
 4965              		.global	_ZN14GrannyChordApp8UpdateUIEv
 4966              		.syntax unified
 4967              		.thumb
 4968              		.thumb_func
 4970              	_ZN14GrannyChordApp8UpdateUIEv:
 4971              	.LVL366:
 4972              	.LFB4918:
  81:GrannyChordApp.cpp **** void GrannyChordApp::UpdateUI(){
 4973              		.loc 2 81 32 is_stmt 1 view -0
 4974              		.cfi_startproc
 4975              		@ args = 0, pretend = 0, frame = 0
 4976              		@ frame_needed = 0, uses_anonymous_args = 0
  82:GrannyChordApp.cpp ****   pod_.ProcessDigitalControls();
 4977              		.loc 2 82 3 view .LVU1375
  81:GrannyChordApp.cpp **** void GrannyChordApp::UpdateUI(){
 4978              		.loc 2 81 32 is_stmt 0 view .LVU1376
 4979 0000 38B5     		push	{r3, r4, r5, lr}
 4980              		.cfi_def_cfa_offset 16
 4981              		.cfi_offset 3, -16
 4982              		.cfi_offset 4, -12
 4983              		.cfi_offset 5, -8
 4984              		.cfi_offset 14, -4
  81:GrannyChordApp.cpp **** void GrannyChordApp::UpdateUI(){
 4985              		.loc 2 81 32 view .LVU1377
 4986 0002 0446     		mov	r4, r0
  82:GrannyChordApp.cpp ****   pod_.ProcessDigitalControls();
 4987              		.loc 2 82 30 view .LVU1378
 4988 0004 C069     		ldr	r0, [r0, #28]
 4989              	.LVL367:
ARM GAS  /var/folders/2p/02m_5p7958535cp2tpgps0400000gn/T//ccHnEWZO.s 			page 142


  82:GrannyChordApp.cpp ****   pod_.ProcessDigitalControls();
 4990              		.loc 2 82 30 view .LVU1379
 4991 0006 FFF7FEFF 		bl	_ZN5daisy8DaisyPod22ProcessDigitalControlsEv
 4992              	.LVL368:
  84:GrannyChordApp.cpp ****   if (pod_.encoder.TimeHeldMs() > 1000.0f) HandleEncoderLongPress();
 4993              		.loc 2 84 3 is_stmt 1 view .LVU1380
  84:GrannyChordApp.cpp ****   if (pod_.encoder.TimeHeldMs() > 1000.0f) HandleEncoderLongPress();
 4994              		.loc 2 84 7 is_stmt 0 view .LVU1381
 4995 000a E569     		ldr	r5, [r4, #28]
 4996              	.LVL369:
 4997              	.LBB823:
 4998              	.LBI823:
  43:../libDaisy/src/hid/encoder.h **** 
  44:../libDaisy/src/hid/encoder.h ****     /** Returns true while the encoder is held down.*/
  45:../libDaisy/src/hid/encoder.h ****     inline bool Pressed() const { return sw_.Pressed(); }
  46:../libDaisy/src/hid/encoder.h **** 
  47:../libDaisy/src/hid/encoder.h ****     /** Returns the time in milliseconds that the encoder has been held down. */
  48:../libDaisy/src/hid/encoder.h ****     inline float TimeHeldMs() const { return sw_.TimeHeldMs(); }
 4999              		.loc 6 48 18 is_stmt 1 view .LVU1382
 5000              	.LBE823:
 5001              		.loc 6 48 39 view .LVU1383
 5002              	.LBB830:
 5003              	.LBB824:
 5004              	.LBI824:
  76:../libDaisy/src/hid/switch.h ****     }
  77:../libDaisy/src/hid/switch.h **** 
  78:../libDaisy/src/hid/switch.h ****     /** \return true if the button is held down (or if the toggle is on) */
  79:../libDaisy/src/hid/switch.h ****     inline bool Pressed() const { return state_ == 0xff; }
  80:../libDaisy/src/hid/switch.h **** 
  81:../libDaisy/src/hid/switch.h ****     /** \return true if the button is held down, without debouncing */
  82:../libDaisy/src/hid/switch.h ****     inline bool RawState()
  83:../libDaisy/src/hid/switch.h ****     {
  84:../libDaisy/src/hid/switch.h ****         return flip_ ? !dsy_gpio_read(&hw_gpio_) : dsy_gpio_read(&hw_gpio_);
  85:../libDaisy/src/hid/switch.h ****     }
  86:../libDaisy/src/hid/switch.h **** 
  87:../libDaisy/src/hid/switch.h ****     /** \return the time in milliseconds that the button has been held (or toggle has been on) */
  88:../libDaisy/src/hid/switch.h ****     inline float TimeHeldMs() const
 5005              		.loc 7 88 18 view .LVU1384
 5006              	.LBB825:
  89:../libDaisy/src/hid/switch.h ****     {
  90:../libDaisy/src/hid/switch.h ****         return Pressed() ? System::GetNow() - rising_edge_time_ : 0;
 5007              		.loc 7 90 9 view .LVU1385
 5008              	.LBB826:
 5009              	.LBI826:
  79:../libDaisy/src/hid/switch.h **** 
 5010              		.loc 7 79 17 view .LVU1386
 5011              	.LBB827:
  79:../libDaisy/src/hid/switch.h **** 
 5012              		.loc 7 79 35 view .LVU1387
  79:../libDaisy/src/hid/switch.h **** 
 5013              		.loc 7 79 35 is_stmt 0 view .LVU1388
 5014              	.LBE827:
 5015              	.LBE826:
 5016              		.loc 7 90 26 view .LVU1389
 5017 000c 95F85230 		ldrb	r3, [r5, #82]	@ zero_extendqisi2
 5018 0010 FF2B     		cmp	r3, #255
 5019 0012 3AD1     		bne	.L259
ARM GAS  /var/folders/2p/02m_5p7958535cp2tpgps0400000gn/T//ccHnEWZO.s 			page 143


 5020              	.LVL370:
 5021              	.LBB828:
 5022              	.LBI828:
  88:../libDaisy/src/hid/switch.h ****     {
 5023              		.loc 7 88 18 is_stmt 1 view .LVU1390
 5024              	.LBB829:
 5025              		.loc 7 90 42 is_stmt 0 view .LVU1391
 5026 0014 FFF7FEFF 		bl	_ZN5daisy6System6GetNowEv
 5027              	.LVL371:
 5028              		.loc 7 90 45 view .LVU1392
 5029 0018 07EE900A 		vmov	s15, r0	@ int
 5030              		.loc 7 90 26 view .LVU1393
 5031 001c 95ED157A 		vldr.32	s14, [r5, #84]
 5032              		.loc 7 90 45 view .LVU1394
 5033 0020 F8EE677A 		vcvt.f32.u32	s15, s15
 5034              		.loc 7 90 26 view .LVU1395
 5035 0024 77EEC77A 		vsub.f32	s15, s15, s14
 5036              	.LBE829:
 5037              	.LBE828:
 5038              	.LBE825:
 5039              	.LBE824:
 5040              	.LBE830:
  84:GrannyChordApp.cpp ****   if (pod_.encoder.TimeHeldMs() > 1000.0f) HandleEncoderLongPress();
 5041              		.loc 2 84 3 view .LVU1396
 5042 0028 9FED1F7A 		vldr.32	s14, .L275
 5043 002c F4EEC77A 		vcmpe.f32	s15, s14
 5044 0030 F1EE10FA 		vmrs	APSR_nzcv, FPSCR
 5045 0034 29DD     		ble	.L259
  84:GrannyChordApp.cpp ****   if (pod_.encoder.TimeHeldMs() > 1000.0f) HandleEncoderLongPress();
 5046              		.loc 2 84 44 is_stmt 1 discriminator 1 view .LVU1397
  84:GrannyChordApp.cpp ****   if (pod_.encoder.TimeHeldMs() > 1000.0f) HandleEncoderLongPress();
 5047              		.loc 2 84 66 is_stmt 0 discriminator 1 view .LVU1398
 5048 0036 2046     		mov	r0, r4
 5049 0038 FFF7FEFF 		bl	_ZN14GrannyChordApp22HandleEncoderLongPressEv
 5050              	.LVL372:
 5051              	.L261:
  87:GrannyChordApp.cpp ****   if (curr_state_==AppState::Synthesis){
 5052              		.loc 2 87 3 is_stmt 1 view .LVU1399
 5053 003c D4F8E430 		ldr	r3, [r4, #228]
 5054 0040 022B     		cmp	r3, #2
 5055 0042 02D1     		bne	.L262
  92:GrannyChordApp.cpp ****       ButtonHandler();
 5056              		.loc 2 92 7 view .LVU1400
  92:GrannyChordApp.cpp ****       ButtonHandler();
 5057              		.loc 2 92 20 is_stmt 0 view .LVU1401
 5058 0044 2046     		mov	r0, r4
 5059 0046 FFF7FEFF 		bl	_ZN14GrannyChordApp13ButtonHandlerEv
 5060              	.LVL373:
 5061              	.L262:
  96:GrannyChordApp.cpp ****   int32_t encoder_inc = pod_.encoder.Increment();
 5062              		.loc 2 96 3 is_stmt 1 view .LVU1402
  96:GrannyChordApp.cpp ****   int32_t encoder_inc = pod_.encoder.Increment();
 5063              		.loc 2 96 25 is_stmt 0 view .LVU1403
 5064 004a E369     		ldr	r3, [r4, #28]
 5065              	.LVL374:
 5066              	.LBB831:
 5067              	.LBI831:
ARM GAS  /var/folders/2p/02m_5p7958535cp2tpgps0400000gn/T//ccHnEWZO.s 			page 144


  36:../libDaisy/src/hid/encoder.h **** 
 5068              		.loc 6 36 20 is_stmt 1 view .LVU1404
 5069              	.LBB832:
  36:../libDaisy/src/hid/encoder.h **** 
 5070              		.loc 6 36 40 view .LVU1405
  36:../libDaisy/src/hid/encoder.h **** 
 5071              		.loc 6 36 56 is_stmt 0 view .LVU1406
 5072 004c 93F84420 		ldrb	r2, [r3, #68]	@ zero_extendqisi2
 5073 0050 22B1     		cbz	r2, .L263
 5074 0052 596E     		ldr	r1, [r3, #100]
 5075              	.LVL375:
  36:../libDaisy/src/hid/encoder.h **** 
 5076              		.loc 6 36 56 view .LVU1407
 5077              	.LBE832:
 5078              	.LBE831:
  97:GrannyChordApp.cpp ****   if (encoder_inc!=0){
 5079              		.loc 2 97 3 is_stmt 1 view .LVU1408
 5080 0054 11B1     		cbz	r1, .L263
  98:GrannyChordApp.cpp ****     HandleEncoderIncrement(encoder_inc);
 5081              		.loc 2 98 5 view .LVU1409
  98:GrannyChordApp.cpp ****     HandleEncoderIncrement(encoder_inc);
 5082              		.loc 2 98 27 is_stmt 0 view .LVU1410
 5083 0056 2046     		mov	r0, r4
 5084 0058 FFF7FEFF 		bl	_ZN14GrannyChordApp22HandleEncoderIncrementEi
 5085              	.LVL376:
 5086              	.L263:
 100:GrannyChordApp.cpp ****   if (curr_state_ != next_state_){
 5087              		.loc 2 100 3 is_stmt 1 view .LVU1411
 5088 005c D4E93913 		ldrd	r1, r3, [r4, #228]
 5089 0060 9942     		cmp	r1, r3
 5090 0062 1FD0     		beq	.L258
 102:GrannyChordApp.cpp ****     DebugPrintState(curr_state_);
 5091              		.loc 2 102 5 view .LVU1412
 102:GrannyChordApp.cpp ****     DebugPrintState(curr_state_);
 5092              		.loc 2 102 20 is_stmt 0 view .LVU1413
 5093 0064 2046     		mov	r0, r4
 5094 0066 FFF7FEFF 		bl	_ZN14GrannyChordApp15DebugPrintStateE8AppState
 5095              	.LVL377:
 103:GrannyChordApp.cpp ****     DebugPrint(pod_, "switching states");
 5096              		.loc 2 103 5 is_stmt 1 view .LVU1414
 103:GrannyChordApp.cpp ****     DebugPrint(pod_, "switching states");
 5097              		.loc 2 103 5 view .LVU1415
 5098              	.LBB833:
 5099              	.LBI833:
 126:../libDaisy/src/daisy_seed.h ****     {
 5100              		.loc 4 126 17 view .LVU1416
 5101              	.LBB834:
 5102              		.loc 4 128 23 is_stmt 0 view .LVU1417
 5103 006a 1048     		ldr	r0, .L275+4
 5104 006c FFF7FEFF 		bl	_ZN5daisy6LoggerILNS_17LoggerDestinationE1EE9PrintLineEPKcz
 5105              	.LVL378:
 5106              		.loc 4 128 23 view .LVU1418
 5107              	.LBE834:
 5108              	.LBE833:
 104:GrannyChordApp.cpp ****     DebugPrintState(next_state_);
 5109              		.loc 2 104 5 is_stmt 1 view .LVU1419
 104:GrannyChordApp.cpp ****     DebugPrintState(next_state_);
ARM GAS  /var/folders/2p/02m_5p7958535cp2tpgps0400000gn/T//ccHnEWZO.s 			page 145


 5110              		.loc 2 104 20 is_stmt 0 view .LVU1420
 5111 0070 D4F8E810 		ldr	r1, [r4, #232]
 5112 0074 2046     		mov	r0, r4
 5113 0076 FFF7FEFF 		bl	_ZN14GrannyChordApp15DebugPrintStateE8AppState
 5114              	.LVL379:
 106:GrannyChordApp.cpp ****     SetLedAppState();
 5115              		.loc 2 106 5 is_stmt 1 view .LVU1421
 106:GrannyChordApp.cpp ****     SetLedAppState();
 5116              		.loc 2 106 19 is_stmt 0 view .LVU1422
 5117 007a 2046     		mov	r0, r4
 5118 007c FFF7FEFF 		bl	_ZN14GrannyChordApp14SetLedAppStateEv
 5119              	.LVL380:
 107:GrannyChordApp.cpp ****     HandleStateChange();
 5120              		.loc 2 107 5 is_stmt 1 view .LVU1423
 107:GrannyChordApp.cpp ****     HandleStateChange();
 5121              		.loc 2 107 22 is_stmt 0 view .LVU1424
 5122 0080 2046     		mov	r0, r4
 110:GrannyChordApp.cpp **** }
 5123              		.loc 2 110 1 view .LVU1425
 5124 0082 BDE83840 		pop	{r3, r4, r5, lr}
 5125              		.cfi_remember_state
 5126              		.cfi_restore 14
 5127              		.cfi_restore 5
 5128              		.cfi_restore 4
 5129              		.cfi_restore 3
 5130              		.cfi_def_cfa_offset 0
 5131              	.LVL381:
 107:GrannyChordApp.cpp ****     HandleStateChange();
 5132              		.loc 2 107 22 view .LVU1426
 5133 0086 FFF7FEBF 		b	_ZN14GrannyChordApp17HandleStateChangeEv
 5134              	.LVL382:
 5135              	.L259:
 5136              		.cfi_restore_state
  85:GrannyChordApp.cpp ****   else if (pod_.encoder.FallingEdge()) HandleEncoderPressed();
 5137              		.loc 2 85 8 is_stmt 1 view .LVU1427
  85:GrannyChordApp.cpp ****   else if (pod_.encoder.FallingEdge()) HandleEncoderPressed();
 5138              		.loc 2 85 12 is_stmt 0 view .LVU1428
 5139 008a E369     		ldr	r3, [r4, #28]
 5140              	.LVL383:
 5141              	.LBB835:
 5142              	.LBI835:
  42:../libDaisy/src/hid/encoder.h **** 
 5143              		.loc 6 42 17 is_stmt 1 view .LVU1429
 5144              	.LBE835:
  42:../libDaisy/src/hid/encoder.h **** 
 5145              		.loc 6 42 39 view .LVU1430
 5146              	.LBB838:
 5147              	.LBB836:
 5148              	.LBI836:
  73:../libDaisy/src/hid/switch.h ****     {
 5149              		.loc 7 73 17 view .LVU1431
 5150              	.LBB837:
  75:../libDaisy/src/hid/switch.h ****     }
 5151              		.loc 7 75 9 view .LVU1432
  75:../libDaisy/src/hid/switch.h ****     }
 5152              		.loc 7 75 25 is_stmt 0 view .LVU1433
 5153 008c 93F84C20 		ldrb	r2, [r3, #76]	@ zero_extendqisi2
ARM GAS  /var/folders/2p/02m_5p7958535cp2tpgps0400000gn/T//ccHnEWZO.s 			page 146


 5154 0090 002A     		cmp	r2, #0
 5155 0092 D3D0     		beq	.L261
 5156              	.LVL384:
  75:../libDaisy/src/hid/switch.h ****     }
 5157              		.loc 7 75 25 view .LVU1434
 5158              	.LBE837:
 5159              	.LBE836:
 5160              	.LBE838:
  85:GrannyChordApp.cpp ****   else if (pod_.encoder.FallingEdge()) HandleEncoderPressed();
 5161              		.loc 2 85 8 view .LVU1435
 5162 0094 93F85230 		ldrb	r3, [r3, #82]	@ zero_extendqisi2
 5163 0098 802B     		cmp	r3, #128
 5164 009a CFD1     		bne	.L261
  85:GrannyChordApp.cpp ****   else if (pod_.encoder.FallingEdge()) HandleEncoderPressed();
 5165              		.loc 2 85 40 is_stmt 1 discriminator 1 view .LVU1436
  85:GrannyChordApp.cpp ****   else if (pod_.encoder.FallingEdge()) HandleEncoderPressed();
 5166              		.loc 2 85 60 is_stmt 0 discriminator 1 view .LVU1437
 5167 009c 2046     		mov	r0, r4
 5168 009e FFF7FEFF 		bl	_ZN14GrannyChordApp20HandleEncoderPressedEv
 5169              	.LVL385:
 5170 00a2 CBE7     		b	.L261
 5171              	.L258:
 110:GrannyChordApp.cpp **** }
 5172              		.loc 2 110 1 view .LVU1438
 5173 00a4 38BD     		pop	{r3, r4, r5, pc}
 5174              	.LVL386:
 5175              	.L276:
 110:GrannyChordApp.cpp **** }
 5176              		.loc 2 110 1 view .LVU1439
 5177 00a6 00BF     		.align	2
 5178              	.L275:
 5179 00a8 00007A44 		.word	1148846080
 5180 00ac 00000000 		.word	.LC27
 5181              		.cfi_endproc
 5182              	.LFE4918:
 5184              		.section	.text._ZN5daisy9WavWriterILj16384EE8SaveFileEv,"axG",%progbits,_ZN5daisy9WavWriterILj1638
 5185              		.align	1
 5186              		.weak	_ZN5daisy9WavWriterILj16384EE8SaveFileEv
 5187              		.syntax unified
 5188              		.thumb
 5189              		.thumb_func
 5191              	_ZN5daisy9WavWriterILj16384EE8SaveFileEv:
 5192              	.LVL387:
 5193              	.LFB5283:
 142:../libDaisy/src/util/WavWriter.h ****     {
 5194              		.loc 9 142 10 is_stmt 1 view -0
 5195              		.cfi_startproc
 5196              		@ args = 0, pretend = 0, frame = 8
 5197              		@ frame_needed = 0, uses_anonymous_args = 0
 142:../libDaisy/src/util/WavWriter.h ****     {
 5198              		.loc 9 142 10 is_stmt 0 view .LVU1441
 5199 0000 37B5     		push	{r0, r1, r2, r4, r5, lr}
 5200              		.cfi_def_cfa_offset 24
 5201              		.cfi_offset 4, -12
 5202              		.cfi_offset 5, -8
 5203              		.cfi_offset 14, -4
 145:../libDaisy/src/util/WavWriter.h ****         // We _should_ flush whatever's left in the transfer buff
ARM GAS  /var/folders/2p/02m_5p7958535cp2tpgps0400000gn/T//ccHnEWZO.s 			page 147


 5204              		.loc 9 145 25 view .LVU1442
 5205 0002 00F50043 		add	r3, r0, #32768
 144:../libDaisy/src/util/WavWriter.h ****         recording_      = false;
 5206              		.loc 9 144 22 view .LVU1443
 5207 0006 0021     		movs	r1, #0
 149:../libDaisy/src/util/WavWriter.h ****         f_write(&fp_, &wavheader_, sizeof(wavheader_), &bw);
 5208              		.loc 9 149 16 view .LVU1444
 5209 0008 00F50045 		add	r5, r0, #32768
 142:../libDaisy/src/util/WavWriter.h ****     {
 5210              		.loc 9 142 10 view .LVU1445
 5211 000c 0446     		mov	r4, r0
 145:../libDaisy/src/util/WavWriter.h ****         // We _should_ flush whatever's left in the transfer buff
 5212              		.loc 9 145 25 view .LVU1446
 5213 000e 83F84410 		strb	r1, [r3, #68]
 5214              	.LVL388:
 5215              	.LBB841:
 5216              	.LBI841:
 182:../libDaisy/src/util/WavWriter.h ****     {
 5217              		.loc 9 182 21 is_stmt 1 view .LVU1447
 5218              	.LBE841:
 149:../libDaisy/src/util/WavWriter.h ****         f_write(&fp_, &wavheader_, sizeof(wavheader_), &bw);
 5219              		.loc 9 149 16 is_stmt 0 view .LVU1448
 5220 0012 4835     		adds	r5, r5, #72
 144:../libDaisy/src/util/WavWriter.h ****         recording_      = false;
 5221              		.loc 9 144 22 view .LVU1449
 5222 0014 0191     		str	r1, [sp, #4]
 5223              	.LBB843:
 5224              	.LBB842:
 185:../libDaisy/src/util/WavWriter.h ****         return 36 + wavheader_.SubCHunk2Size;
 5225              		.loc 9 185 42 view .LVU1450
 5226 0016 D0E90E32 		ldrd	r3, r2, [r0, #56]
 5227 001a 5343     		muls	r3, r2, r3
 5228 001c C26A     		ldr	r2, [r0, #44]
 5229 001e 5343     		muls	r3, r2, r3
 185:../libDaisy/src/util/WavWriter.h ****         return 36 + wavheader_.SubCHunk2Size;
 5230              		.loc 9 185 63 view .LVU1451
 5231 0020 DB08     		lsrs	r3, r3, #3
 185:../libDaisy/src/util/WavWriter.h ****         return 36 + wavheader_.SubCHunk2Size;
 5232              		.loc 9 185 13 view .LVU1452
 5233 0022 8362     		str	r3, [r0, #40]
 5234              	.LVL389:
 186:../libDaisy/src/util/WavWriter.h ****     }
 5235              		.loc 9 186 32 view .LVU1453
 5236 0024 2433     		adds	r3, r3, #36
 5237              	.LBE842:
 5238              	.LBE843:
 148:../libDaisy/src/util/WavWriter.h ****         f_lseek(&fp_, 0);
 5239              		.loc 9 148 29 view .LVU1454
 5240 0026 4360     		str	r3, [r0, #4]
 149:../libDaisy/src/util/WavWriter.h ****         f_write(&fp_, &wavheader_, sizeof(wavheader_), &bw);
 5241              		.loc 9 149 16 view .LVU1455
 5242 0028 2846     		mov	r0, r5
 5243              	.LVL390:
 149:../libDaisy/src/util/WavWriter.h ****         f_write(&fp_, &wavheader_, sizeof(wavheader_), &bw);
 5244              		.loc 9 149 16 view .LVU1456
 5245 002a FFF7FEFF 		bl	f_lseek
 5246              	.LVL391:
ARM GAS  /var/folders/2p/02m_5p7958535cp2tpgps0400000gn/T//ccHnEWZO.s 			page 148


 150:../libDaisy/src/util/WavWriter.h ****         f_close(&fp_);
 5247              		.loc 9 150 16 view .LVU1457
 5248 002e 01AB     		add	r3, sp, #4
 5249 0030 2C22     		movs	r2, #44
 5250 0032 2146     		mov	r1, r4
 5251 0034 2846     		mov	r0, r5
 5252 0036 FFF7FEFF 		bl	f_write
 5253              	.LVL392:
 151:../libDaisy/src/util/WavWriter.h ****     }
 5254              		.loc 9 151 16 view .LVU1458
 5255 003a 2846     		mov	r0, r5
 5256 003c FFF7FEFF 		bl	f_close
 5257              	.LVL393:
 152:../libDaisy/src/util/WavWriter.h **** 
 5258              		.loc 9 152 5 view .LVU1459
 5259 0040 03B0     		add	sp, sp, #12
 5260              		.cfi_def_cfa_offset 12
 5261              		@ sp needed
 5262 0042 30BD     		pop	{r4, r5, pc}
 152:../libDaisy/src/util/WavWriter.h **** 
 5263              		.loc 9 152 5 view .LVU1460
 5264              		.cfi_endproc
 5265              	.LFE5283:
 5267              		.section	.rodata._ZN14GrannyChordApp3RunEv.str1.1,"aMS",%progbits,1
 5268              	.LC28:
 5269 0000 61707020 		.ascii	"app is running\000"
 5269      69732072 
 5269      756E6E69 
 5269      6E6700
 5270              		.section	.text._ZN14GrannyChordApp3RunEv,"ax",%progbits
 5271              		.align	1
 5272              		.global	_ZN14GrannyChordApp3RunEv
 5273              		.syntax unified
 5274              		.thumb
 5275              		.thumb_func
 5277              	_ZN14GrannyChordApp3RunEv:
 5278              	.LVL394:
 5279              	.LFB4917:
  54:GrannyChordApp.cpp **** void GrannyChordApp::Run(){
 5280              		.loc 2 54 27 is_stmt 1 view -0
 5281              		.cfi_startproc
 5282              		@ Volatile: function does not return.
 5283              		@ args = 0, pretend = 0, frame = 8
 5284              		@ frame_needed = 0, uses_anonymous_args = 0
  55:GrannyChordApp.cpp ****   pod_.seed.PrintLine("app is running");
 5285              		.loc 2 55 3 view .LVU1462
 5286              	.LBB854:
 5287              	.LBI854:
 126:../libDaisy/src/daisy_seed.h ****     {
 5288              		.loc 4 126 17 view .LVU1463
 5289              	.LBE854:
  54:GrannyChordApp.cpp **** void GrannyChordApp::Run(){
 5290              		.loc 2 54 27 is_stmt 0 view .LVU1464
 5291 0000 0446     		mov	r4, r0
 5292 0002 07B5     		push	{r0, r1, r2, lr}
 5293              		.cfi_def_cfa_offset 16
 5294              		.cfi_offset 14, -4
ARM GAS  /var/folders/2p/02m_5p7958535cp2tpgps0400000gn/T//ccHnEWZO.s 			page 149


 5295              	.LBB856:
 5296              	.LBB855:
 5297              		.loc 4 128 23 view .LVU1465
 5298 0004 2948     		ldr	r0, .L295
 5299              	.LVL395:
 5300              		.loc 4 128 23 view .LVU1466
 5301 0006 FFF7FEFF 		bl	_ZN5daisy6LoggerILNS_17LoggerDestinationE1EE9PrintLineEPKcz
 5302              	.LVL396:
 5303              	.L286:
 5304              		.loc 4 128 23 view .LVU1467
 5305              	.LBE855:
 5306              	.LBE856:
  57:GrannyChordApp.cpp ****   while(true){
 5307              		.loc 2 57 3 is_stmt 1 view .LVU1468
  59:GrannyChordApp.cpp ****     loop_count++;
 5308              		.loc 2 59 5 view .LVU1469
 5309 000a 04F50045 		add	r5, r4, #32768
  59:GrannyChordApp.cpp ****     loop_count++;
 5310              		.loc 2 59 15 is_stmt 0 view .LVU1470
 5311 000e 42F21076 		movw	r6, #10000
 5312 0012 D5F80835 		ldr	r3, [r5, #1288]
 5313 0016 0133     		adds	r3, r3, #1
 5314 0018 B3FBF6F2 		udiv	r2, r3, r6
 5315 001c 06FB1236 		mls	r6, r6, r2, r3
 5316 0020 C5F80835 		str	r3, [r5, #1288]
  60:GrannyChordApp.cpp ****     if (loop_count%10000==0){
 5317              		.loc 2 60 5 is_stmt 1 view .LVU1471
 5318 0024 26B9     		cbnz	r6, .L279
  61:GrannyChordApp.cpp ****       PrintCPULoad();
 5319              		.loc 2 61 7 view .LVU1472
  61:GrannyChordApp.cpp ****       PrintCPULoad();
 5320              		.loc 2 61 19 is_stmt 0 view .LVU1473
 5321 0026 2046     		mov	r0, r4
 5322 0028 FFF7FEFF 		bl	_ZN14GrannyChordApp12PrintCPULoadEv
 5323              	.LVL397:
  62:GrannyChordApp.cpp ****       loop_count=0;
 5324              		.loc 2 62 7 is_stmt 1 view .LVU1474
  62:GrannyChordApp.cpp ****       loop_count=0;
 5325              		.loc 2 62 17 is_stmt 0 view .LVU1475
 5326 002c C5F80865 		str	r6, [r5, #1288]
 5327              	.L279:
  67:GrannyChordApp.cpp ****     if (recording_out_) {
 5328              		.loc 2 67 5 is_stmt 1 view .LVU1476
 5329 0030 95F80035 		ldrb	r3, [r5, #1280]	@ zero_extendqisi2
 5330 0034 83B3     		cbz	r3, .L281
 5331              	.LBB857:
 5332              	.LBB858:
 128:../libDaisy/src/util/WavWriter.h ****         {
 5333              		.loc 9 128 12 is_stmt 0 view .LVU1477
 5334 0036 D5F8C422 		ldr	r2, [r5, #708]
 5335              	.LBE858:
 5336              	.LBE857:
  68:GrannyChordApp.cpp ****       sd_writer_.Write();
 5337              		.loc 2 68 23 view .LVU1478
 5338 003a 04F52176 		add	r6, r4, #644
  68:GrannyChordApp.cpp ****       sd_writer_.Write();
 5339              		.loc 2 68 7 is_stmt 1 view .LVU1479
ARM GAS  /var/folders/2p/02m_5p7958535cp2tpgps0400000gn/T//ccHnEWZO.s 			page 150


 5340              	.LVL398:
 5341              	.LBB862:
 5342              	.LBI857:
 126:../libDaisy/src/util/WavWriter.h ****     {
 5343              		.loc 9 126 10 view .LVU1480
 5344              	.LBB861:
 128:../libDaisy/src/util/WavWriter.h ****         {
 5345              		.loc 9 128 41 is_stmt 0 view .LVU1481
 5346 003e B2B1     		cbz	r2, .L282
 5347              	.LVL399:
 5348              	.LBB859:
 5349              	.LBI859:
 169:../libDaisy/src/util/WavWriter.h **** 
 5350              		.loc 9 169 17 is_stmt 1 view .LVU1482
 169:../libDaisy/src/util/WavWriter.h **** 
 5351              		.loc 9 169 17 is_stmt 0 view .LVU1483
 5352              	.LBE859:
 128:../libDaisy/src/util/WavWriter.h ****         {
 5353              		.loc 9 128 41 view .LVU1484
 5354 0040 95F8C832 		ldrb	r3, [r5, #712]	@ zero_extendqisi2
 5355 0044 9BB1     		cbz	r3, .L282
 5356              	.LBB860:
 131:../libDaisy/src/util/WavWriter.h ****             //offset          = bstate_ == BufferState::FLUSH0 ? 0 : transfer_size;
 5357              		.loc 9 131 26 view .LVU1485
 5358 0046 0023     		movs	r3, #0
 133:../libDaisy/src/util/WavWriter.h ****             bstate_ = BufferState::IDLE;
 5359              		.loc 9 133 54 view .LVU1486
 5360 0048 012A     		cmp	r2, #1
 135:../libDaisy/src/util/WavWriter.h ****         }
 5361              		.loc 9 135 20 view .LVU1487
 5362 004a 06F50040 		add	r0, r6, #32768
 5363 004e 4FF48042 		mov	r2, #16384
 133:../libDaisy/src/util/WavWriter.h ****             bstate_ = BufferState::IDLE;
 5364              		.loc 9 133 54 view .LVU1488
 5365 0052 0CBF     		ite	eq
 5366 0054 1946     		moveq	r1, r3
 5367 0056 4FF48051 		movne	r1, #4096
 5368              	.LVL400:
 131:../libDaisy/src/util/WavWriter.h ****             //offset          = bstate_ == BufferState::FLUSH0 ? 0 : transfer_size;
 5369              		.loc 9 131 26 view .LVU1489
 5370 005a 0193     		str	r3, [sp, #4]
 135:../libDaisy/src/util/WavWriter.h ****         }
 5371              		.loc 9 135 20 view .LVU1490
 5372 005c 4830     		adds	r0, r0, #72
 135:../libDaisy/src/util/WavWriter.h ****         }
 5373              		.loc 9 135 41 view .LVU1491
 5374 005e 1031     		adds	r1, r1, #16
 5375              	.LVL401:
 134:../libDaisy/src/util/WavWriter.h ****             f_write(&fp_, &transfer_buff[offset], transfer_size, &bw);
 5376              		.loc 9 134 21 view .LVU1492
 5377 0060 C5F8C432 		str	r3, [r5, #708]
 135:../libDaisy/src/util/WavWriter.h ****         }
 5378              		.loc 9 135 20 view .LVU1493
 5379 0064 01AB     		add	r3, sp, #4
 5380 0066 06EB8101 		add	r1, r6, r1, lsl #2
 5381              	.LVL402:
 135:../libDaisy/src/util/WavWriter.h ****         }
ARM GAS  /var/folders/2p/02m_5p7958535cp2tpgps0400000gn/T//ccHnEWZO.s 			page 151


 5382              		.loc 9 135 20 view .LVU1494
 5383 006a FFF7FEFF 		bl	f_write
 5384              	.LVL403:
 5385              	.L282:
 135:../libDaisy/src/util/WavWriter.h ****         }
 5386              		.loc 9 135 20 view .LVU1495
 5387              	.LBE860:
 5388              	.LBE861:
 5389              	.LBE862:
  69:GrannyChordApp.cpp ****       if (sd_writer_.GetLengthSeconds()>120){
 5390              		.loc 2 69 7 is_stmt 1 view .LVU1496
 5391              	.LBB863:
 5392              	.LBI863:
 175:../libDaisy/src/util/WavWriter.h ****     {
 5393              		.loc 9 175 18 view .LVU1497
 5394              	.LBB864:
 177:../libDaisy/src/util/WavWriter.h ****     }
 5395              		.loc 9 177 16 is_stmt 0 view .LVU1498
 5396 006e D4EDAC7A 		vldr.32	s15, [r4, #688]	@ int
 177:../libDaisy/src/util/WavWriter.h ****     }
 5397              		.loc 9 177 48 view .LVU1499
 5398 0072 D4EDAE6A 		vldr.32	s13, [r4, #696]
 177:../libDaisy/src/util/WavWriter.h ****     }
 5399              		.loc 9 177 16 view .LVU1500
 5400 0076 F8EE677A 		vcvt.f32.u32	s15, s15
 177:../libDaisy/src/util/WavWriter.h ****     }
 5401              		.loc 9 177 48 view .LVU1501
 5402 007a 87EEA67A 		vdiv.f32	s14, s15, s13
 5403              	.LBE864:
 5404              	.LBE863:
  69:GrannyChordApp.cpp ****       if (sd_writer_.GetLengthSeconds()>120){
 5405              		.loc 2 69 7 view .LVU1502
 5406 007e DFED0C7A 		vldr.32	s15, .L295+4
 5407 0082 B4EEE77A 		vcmpe.f32	s14, s15
 5408 0086 F1EE10FA 		vmrs	APSR_nzcv, FPSCR
 5409 008a 05DD     		ble	.L281
  70:GrannyChordApp.cpp ****         sd_writer_.SaveFile();
 5410              		.loc 2 70 9 is_stmt 1 view .LVU1503
  70:GrannyChordApp.cpp ****         sd_writer_.SaveFile();
 5411              		.loc 2 70 28 is_stmt 0 view .LVU1504
 5412 008c 3046     		mov	r0, r6
 5413 008e FFF7FEFF 		bl	_ZN5daisy9WavWriterILj16384EE8SaveFileEv
 5414              	.LVL404:
  71:GrannyChordApp.cpp ****         recording_out_ = false;
 5415              		.loc 2 71 9 is_stmt 1 view .LVU1505
  71:GrannyChordApp.cpp ****         recording_out_ = false;
 5416              		.loc 2 71 24 is_stmt 0 view .LVU1506
 5417 0092 0023     		movs	r3, #0
 5418 0094 85F80035 		strb	r3, [r5, #1280]
 5419              	.L281:
  74:GrannyChordApp.cpp ****     UpdateUI();
 5420              		.loc 2 74 5 is_stmt 1 view .LVU1507
  74:GrannyChordApp.cpp ****     UpdateUI();
 5421              		.loc 2 74 13 is_stmt 0 view .LVU1508
 5422 0098 2046     		mov	r0, r4
 5423 009a FFF7FEFF 		bl	_ZN14GrannyChordApp8UpdateUIEv
 5424              	.LVL405:
ARM GAS  /var/folders/2p/02m_5p7958535cp2tpgps0400000gn/T//ccHnEWZO.s 			page 152


  75:GrannyChordApp.cpp ****     UpdateSynthParams();
 5425              		.loc 2 75 5 is_stmt 1 view .LVU1509
  75:GrannyChordApp.cpp ****     UpdateSynthParams();
 5426              		.loc 2 75 22 is_stmt 0 view .LVU1510
 5427 009e 2046     		mov	r0, r4
 5428 00a0 FFF7FEFF 		bl	_ZN14GrannyChordApp17UpdateSynthParamsEv
 5429              	.LVL406:
  76:GrannyChordApp.cpp ****     System::Delay(1);
 5430              		.loc 2 76 5 is_stmt 1 view .LVU1511
  76:GrannyChordApp.cpp ****     System::Delay(1);
 5431              		.loc 2 76 18 is_stmt 0 view .LVU1512
 5432 00a4 0120     		movs	r0, #1
 5433 00a6 FFF7FEFF 		bl	_ZN5daisy6System5DelayEm
 5434              	.LVL407:
  57:GrannyChordApp.cpp ****   while(true){
 5435              		.loc 2 57 3 is_stmt 1 view .LVU1513
  59:GrannyChordApp.cpp ****     loop_count++;
 5436              		.loc 2 59 15 is_stmt 0 view .LVU1514
 5437 00aa AEE7     		b	.L286
 5438              	.L296:
 5439              		.align	2
 5440              	.L295:
 5441 00ac 00000000 		.word	.LC28
 5442 00b0 0000F042 		.word	1123024896
 5443              		.cfi_endproc
 5444              	.LFE4917:
 5446              		.section	.text._ZN14GrannyChordApp15FinishRecordingEv,"ax",%progbits
 5447              		.align	1
 5448              		.global	_ZN14GrannyChordApp15FinishRecordingEv
 5449              		.syntax unified
 5450              		.thumb
 5451              		.thumb_func
 5453              	_ZN14GrannyChordApp15FinishRecordingEv:
 5454              	.LVL408:
 5455              	.LFB4945:
 593:GrannyChordApp.cpp **** void GrannyChordApp::FinishRecording(){
 5456              		.loc 2 593 39 is_stmt 1 view -0
 5457              		.cfi_startproc
 5458              		@ args = 0, pretend = 0, frame = 0
 5459              		@ frame_needed = 0, uses_anonymous_args = 0
 594:GrannyChordApp.cpp ****   sd_writer_.SaveFile();
 5460              		.loc 2 594 3 view .LVU1516
 593:GrannyChordApp.cpp **** void GrannyChordApp::FinishRecording(){
 5461              		.loc 2 593 39 is_stmt 0 view .LVU1517
 5462 0000 10B5     		push	{r4, lr}
 5463              		.cfi_def_cfa_offset 8
 5464              		.cfi_offset 4, -8
 5465              		.cfi_offset 14, -4
 593:GrannyChordApp.cpp **** void GrannyChordApp::FinishRecording(){
 5466              		.loc 2 593 39 view .LVU1518
 5467 0002 0446     		mov	r4, r0
 594:GrannyChordApp.cpp ****   sd_writer_.SaveFile();
 5468              		.loc 2 594 22 view .LVU1519
 5469 0004 00F52170 		add	r0, r0, #644
 5470              	.LVL409:
 594:GrannyChordApp.cpp ****   sd_writer_.SaveFile();
 5471              		.loc 2 594 22 view .LVU1520
ARM GAS  /var/folders/2p/02m_5p7958535cp2tpgps0400000gn/T//ccHnEWZO.s 			page 153


 5472 0008 FFF7FEFF 		bl	_ZN5daisy9WavWriterILj16384EE8SaveFileEv
 5473              	.LVL410:
 595:GrannyChordApp.cpp ****   recording_out_=false;
 5474              		.loc 2 595 3 is_stmt 1 view .LVU1521
 595:GrannyChordApp.cpp ****   recording_out_=false;
 5475              		.loc 2 595 17 is_stmt 0 view .LVU1522
 5476 000c 0023     		movs	r3, #0
 5477 000e 04F50044 		add	r4, r4, #32768
 5478              	.LVL411:
 595:GrannyChordApp.cpp ****   recording_out_=false;
 5479              		.loc 2 595 17 view .LVU1523
 5480 0012 84F80035 		strb	r3, [r4, #1280]
 596:GrannyChordApp.cpp **** }
 5481              		.loc 2 596 1 view .LVU1524
 5482 0016 10BD     		pop	{r4, pc}
 596:GrannyChordApp.cpp **** }
 5483              		.loc 2 596 1 view .LVU1525
 5484              		.cfi_endproc
 5485              	.LFE4945:
 5487              		.global	_ZN14GrannyChordApp9instance_E
 5488              		.section	.bss._ZN14GrannyChordApp9instance_E,"aw",%nobits
 5489              		.align	2
 5490              		.set	.LANCHOR0,. + 0
 5493              	_ZN14GrannyChordApp9instance_E:
 5494 0000 00000000 		.space	4
 5495              		.text
 5496              	.Letext0:
 5497              		.file 17 "/Library/DaisyToolchain/0.2.0/arm/arm-none-eabi/include/machine/_default_types.h"
 5498              		.file 18 "/Library/DaisyToolchain/0.2.0/arm/arm-none-eabi/include/sys/_stdint.h"
 5499              		.file 19 "/Library/DaisyToolchain/0.2.0/arm/arm-none-eabi/include/stdint.h"
 5500              		.file 20 "/Library/DaisyToolchain/0.2.0/arm/lib/gcc/arm-none-eabi/10.3.1/include/stddef.h"
 5501              		.file 21 "/Library/DaisyToolchain/0.2.0/arm/arm-none-eabi/include/c++/10.3.1/cstdlib"
 5502              		.file 22 "/Library/DaisyToolchain/0.2.0/arm/arm-none-eabi/include/c++/10.3.1/cstdint"
 5503              		.file 23 "/Library/DaisyToolchain/0.2.0/arm/arm-none-eabi/include/c++/10.3.1/arm-none-eabi/thumb/v
 5504              		.file 24 "/Library/DaisyToolchain/0.2.0/arm/arm-none-eabi/include/c++/10.3.1/type_traits"
 5505              		.file 25 "/Library/DaisyToolchain/0.2.0/arm/arm-none-eabi/include/c++/10.3.1/debug/debug.h"
 5506              		.file 26 "/Library/DaisyToolchain/0.2.0/arm/arm-none-eabi/include/c++/10.3.1/bits/algorithmfwd.h"
 5507              		.file 27 "/Library/DaisyToolchain/0.2.0/arm/arm-none-eabi/include/c++/10.3.1/bits/stl_pair.h"
 5508              		.file 28 "/Library/DaisyToolchain/0.2.0/arm/arm-none-eabi/include/c++/10.3.1/bits/exception_ptr.h"
 5509              		.file 29 "/Library/DaisyToolchain/0.2.0/arm/arm-none-eabi/include/c++/10.3.1/initializer_list"
 5510              		.file 30 "/Library/DaisyToolchain/0.2.0/arm/arm-none-eabi/include/c++/10.3.1/cstdarg"
 5511              		.file 31 "/Library/DaisyToolchain/0.2.0/arm/arm-none-eabi/include/c++/10.3.1/cstdio"
 5512              		.file 32 "/Library/DaisyToolchain/0.2.0/arm/arm-none-eabi/include/c++/10.3.1/cstring"
 5513              		.file 33 "/Library/DaisyToolchain/0.2.0/arm/arm-none-eabi/include/c++/10.3.1/cwchar"
 5514              		.file 34 "/Library/DaisyToolchain/0.2.0/arm/arm-none-eabi/include/c++/10.3.1/clocale"
 5515              		.file 35 "/Library/DaisyToolchain/0.2.0/arm/arm-none-eabi/include/c++/10.3.1/bits/basic_string.h"
 5516              		.file 36 "/Library/DaisyToolchain/0.2.0/arm/arm-none-eabi/include/c++/10.3.1/bits/stl_iterator.h"
 5517              		.file 37 "/Library/DaisyToolchain/0.2.0/arm/arm-none-eabi/include/c++/10.3.1/bits/predefined_ops.h
 5518              		.file 38 "/Library/DaisyToolchain/0.2.0/arm/arm-none-eabi/include/sys/_types.h"
 5519              		.file 39 "/Library/DaisyToolchain/0.2.0/arm/arm-none-eabi/include/sys/reent.h"
 5520              		.file 40 "/Library/DaisyToolchain/0.2.0/arm/arm-none-eabi/include/sys/lock.h"
 5521              		.file 41 "/Library/DaisyToolchain/0.2.0/arm/arm-none-eabi/include/math.h"
 5522              		.file 42 "/Library/DaisyToolchain/0.2.0/arm/arm-none-eabi/include/stdlib.h"
 5523              		.file 43 "/Library/DaisyToolchain/0.2.0/arm/arm-none-eabi/include/c++/10.3.1/math.h"
 5524              		.file 44 "/Library/DaisyToolchain/0.2.0/arm/arm-none-eabi/include/c++/10.3.1/stdlib.h"
 5525              		.file 45 "../libDaisy/src/per/tim.h"
 5526              		.file 46 "../libDaisy/src/sys/system.h"
ARM GAS  /var/folders/2p/02m_5p7958535cp2tpgps0400000gn/T//ccHnEWZO.s 			page 154


 5527              		.file 47 "../libDaisy/src/per/qspi.h"
 5528              		.file 48 "../libDaisy/src/per/dac.h"
 5529              		.file 49 "../libDaisy/src/per/sai.h"
 5530              		.file 50 "../libDaisy/src/hid/audio.h"
 5531              		.file 51 "../libDaisy/src/per/adc.h"
 5532              		.file 52 "../libDaisy/src/per/uart.h"
 5533              		.file 53 "../libDaisy/src/hid/MidiEvent.h"
 5534              		.file 54 "../libDaisy/src/hid/midi_parser.h"
 5535              		.file 55 "../libDaisy/src/hid/usb.h"
 5536              		.file 56 "../libDaisy/src/hid/midi.h"
 5537              		.file 57 "../libDaisy/src/util/FIFO.h"
 5538              		.file 58 "../libDaisy/src/hid/ctrl.h"
 5539              		.file 59 "../libDaisy/src/hid/logger_impl.h"
 5540              		.file 60 "../libDaisy/src/per/sdmmc.h"
 5541              		.file 61 "../libDaisy/src/util/wav_format.h"
 5542              		.file 62 "../libDaisy/src/hid/led.h"
 5543              		.file 63 "../libDaisy/src/hid/rgb_led.h"
 5544              		.file 64 "../libDaisy/src/dev/max11300.h"
 5545              		.file 65 "../libDaisy/src/sys/fatfs.h"
 5546              		.file 66 "../libDaisy/src/hid/logger.h"
 5547              		.file 67 "../libDaisy/src/daisy_pod.h"
 5548              		.file 68 "../libDaisy/src/per/gpio.h"
 5549              		.file 69 "../libDaisy/src/dev/sdram.h"
 5550              		.file 70 "/Library/DaisyToolchain/0.2.0/arm/lib/gcc/arm-none-eabi/10.3.1/include/stdarg.h"
 5551              		.file 71 "/Library/DaisyToolchain/0.2.0/arm/arm-none-eabi/include/stdio.h"
 5552              		.file 72 "../libDaisy/Middlewares/Third_Party/FatFs/src/integer.h"
 5553              		.file 73 "../libDaisy/Middlewares/Third_Party/FatFs/src/ff.h"
 5554              		.file 74 "/Library/DaisyToolchain/0.2.0/arm/arm-none-eabi/include/string.h"
 5555              		.file 75 "../DaisySP/Source/Control/adenv.h"
 5556              		.file 76 "../DaisySP/Source/Dynamics/limiter.h"
 5557              		.file 77 "../DaisySP/Source/../DaisySP-LGPL/Source/Dynamics/compressor.h"
 5558              		.file 78 "/Library/DaisyToolchain/0.2.0/arm/arm-none-eabi/include/wchar.h"
 5559              		.file 79 "/Library/DaisyToolchain/0.2.0/arm/arm-none-eabi/include/time.h"
 5560              		.file 80 "/Library/DaisyToolchain/0.2.0/arm/arm-none-eabi/include/locale.h"
 5561              		.file 81 "../DaisySP/Source/Effects/../../../src/sample.h"
 5562              		.file 82 "../libDaisy/src/dev/sr_595.h"
 5563              		.file 83 "GrainPhasor.h"
 5564              		.file 84 "Grain.h"
 5565              		.file 85 "GranularSynth.h"
 5566              		.file 86 "StereoRotator.h"
 5567              		.file 87 "AppState.h"
 5568              		.file 88 "GrannyChordApp.h"
 5569              		.file 89 "<built-in>"
ARM GAS  /var/folders/2p/02m_5p7958535cp2tpgps0400000gn/T//ccHnEWZO.s 			page 155


DEFINED SYMBOLS
                            *ABS*:0000000000000000 GrannyChordApp.cpp
/var/folders/2p/02m_5p7958535cp2tpgps0400000gn/T//ccHnEWZO.s:19     .text._ZN7daisysp7OnePole12SetFrequencyEf:0000000000000000 $t
/var/folders/2p/02m_5p7958535cp2tpgps0400000gn/T//ccHnEWZO.s:25     .text._ZN7daisysp7OnePole12SetFrequencyEf:0000000000000000 _ZN7daisysp7OnePole12SetFrequencyEf
/var/folders/2p/02m_5p7958535cp2tpgps0400000gn/T//ccHnEWZO.s:76     .text._ZN7daisysp7OnePole12SetFrequencyEf:0000000000000038 $d
/var/folders/2p/02m_5p7958535cp2tpgps0400000gn/T//ccHnEWZO.s:82     .text._ZN7daisysp7OnePole7ProcessEf:0000000000000000 $t
/var/folders/2p/02m_5p7958535cp2tpgps0400000gn/T//ccHnEWZO.s:88     .text._ZN7daisysp7OnePole7ProcessEf:0000000000000000 _ZN7daisysp7OnePole7ProcessEf
/var/folders/2p/02m_5p7958535cp2tpgps0400000gn/T//ccHnEWZO.s:137    .text._ZN7daisysp7OnePole7ProcessEf:0000000000000038 $d
/var/folders/2p/02m_5p7958535cp2tpgps0400000gn/T//ccHnEWZO.s:153    .text._ZN14GrannyChordApp12PrintCPULoadEv:0000000000000000 $t
/var/folders/2p/02m_5p7958535cp2tpgps0400000gn/T//ccHnEWZO.s:159    .text._ZN14GrannyChordApp12PrintCPULoadEv:0000000000000000 _ZN14GrannyChordApp12PrintCPULoadEv
/var/folders/2p/02m_5p7958535cp2tpgps0400000gn/T//ccHnEWZO.s:499    .text._ZN14GrannyChordApp12PrintCPULoadEv:00000000000000f8 $d
/var/folders/2p/02m_5p7958535cp2tpgps0400000gn/T//ccHnEWZO.s:514    .text._ZN14GrannyChordApp20HandleEncoderPressedEv:0000000000000000 $t
/var/folders/2p/02m_5p7958535cp2tpgps0400000gn/T//ccHnEWZO.s:520    .text._ZN14GrannyChordApp20HandleEncoderPressedEv:0000000000000000 _ZN14GrannyChordApp20HandleEncoderPressedEv
/var/folders/2p/02m_5p7958535cp2tpgps0400000gn/T//ccHnEWZO.s:567    .text._ZN14GrannyChordApp22HandleEncoderLongPressEv:0000000000000000 $t
/var/folders/2p/02m_5p7958535cp2tpgps0400000gn/T//ccHnEWZO.s:573    .text._ZN14GrannyChordApp22HandleEncoderLongPressEv:0000000000000000 _ZN14GrannyChordApp22HandleEncoderLongPressEv
/var/folders/2p/02m_5p7958535cp2tpgps0400000gn/T//ccHnEWZO.s:666    .text._ZN14GrannyChordApp22HandleButton2LongPressEv:0000000000000000 $t
/var/folders/2p/02m_5p7958535cp2tpgps0400000gn/T//ccHnEWZO.s:672    .text._ZN14GrannyChordApp22HandleButton2LongPressEv:0000000000000000 _ZN14GrannyChordApp22HandleButton2LongPressEv
/var/folders/2p/02m_5p7958535cp2tpgps0400000gn/T//ccHnEWZO.s:689    .text._ZN14GrannyChordApp19HandleFileSelectionEl:0000000000000000 $t
/var/folders/2p/02m_5p7958535cp2tpgps0400000gn/T//ccHnEWZO.s:695    .text._ZN14GrannyChordApp19HandleFileSelectionEl:0000000000000000 _ZN14GrannyChordApp19HandleFileSelectionEl
/var/folders/2p/02m_5p7958535cp2tpgps0400000gn/T//ccHnEWZO.s:810    .text._ZN14GrannyChordApp19HandleFileSelectionEl:0000000000000040 $d
/var/folders/2p/02m_5p7958535cp2tpgps0400000gn/T//ccHnEWZO.s:817    .text._ZN14GrannyChordApp22HandleEncoderIncrementEi:0000000000000000 $t
/var/folders/2p/02m_5p7958535cp2tpgps0400000gn/T//ccHnEWZO.s:823    .text._ZN14GrannyChordApp22HandleEncoderIncrementEi:0000000000000000 _ZN14GrannyChordApp22HandleEncoderIncrementEi
/var/folders/2p/02m_5p7958535cp2tpgps0400000gn/T//ccHnEWZO.s:862    .text._ZN14GrannyChordApp11InitFileMgrEv:0000000000000000 $t
/var/folders/2p/02m_5p7958535cp2tpgps0400000gn/T//ccHnEWZO.s:868    .text._ZN14GrannyChordApp11InitFileMgrEv:0000000000000000 _ZN14GrannyChordApp11InitFileMgrEv
/var/folders/2p/02m_5p7958535cp2tpgps0400000gn/T//ccHnEWZO.s:936    .text._ZN14GrannyChordApp12InitPlaybackEv:0000000000000000 $t
/var/folders/2p/02m_5p7958535cp2tpgps0400000gn/T//ccHnEWZO.s:942    .text._ZN14GrannyChordApp12InitPlaybackEv:0000000000000000 _ZN14GrannyChordApp12InitPlaybackEv
/var/folders/2p/02m_5p7958535cp2tpgps0400000gn/T//ccHnEWZO.s:1031   .text._ZN14GrannyChordApp12InitPlaybackEv:0000000000000048 $d
/var/folders/2p/02m_5p7958535cp2tpgps0400000gn/T//ccHnEWZO.s:2531   .text._ZN14GrannyChordApp13AudioCallbackEPKPKfPPfj:0000000000000000 _ZN14GrannyChordApp13AudioCallbackEPKPKfPPfj
/var/folders/2p/02m_5p7958535cp2tpgps0400000gn/T//ccHnEWZO.s:1038   .text._ZN14GrannyChordApp12InitRecordInEv:0000000000000000 $t
/var/folders/2p/02m_5p7958535cp2tpgps0400000gn/T//ccHnEWZO.s:1044   .text._ZN14GrannyChordApp12InitRecordInEv:0000000000000000 _ZN14GrannyChordApp12InitRecordInEv
/var/folders/2p/02m_5p7958535cp2tpgps0400000gn/T//ccHnEWZO.s:1088   .text._ZN14GrannyChordApp13InitWavWriterEv:0000000000000000 $t
/var/folders/2p/02m_5p7958535cp2tpgps0400000gn/T//ccHnEWZO.s:1094   .text._ZN14GrannyChordApp13InitWavWriterEv:0000000000000000 _ZN14GrannyChordApp13InitWavWriterEv
/var/folders/2p/02m_5p7958535cp2tpgps0400000gn/T//ccHnEWZO.s:1279   .text._ZN14GrannyChordApp13InitWavWriterEv:000000000000009c $d
/var/folders/2p/02m_5p7958535cp2tpgps0400000gn/T//ccHnEWZO.s:1286   .text._ZN14GrannyChordApp6InitFXEv:0000000000000000 $t
/var/folders/2p/02m_5p7958535cp2tpgps0400000gn/T//ccHnEWZO.s:1292   .text._ZN14GrannyChordApp6InitFXEv:0000000000000000 _ZN14GrannyChordApp6InitFXEv
/var/folders/2p/02m_5p7958535cp2tpgps0400000gn/T//ccHnEWZO.s:1441   .text._ZN14GrannyChordApp6InitFXEv:0000000000000070 $d
/var/folders/2p/02m_5p7958535cp2tpgps0400000gn/T//ccHnEWZO.s:1449   .text._ZN14GrannyChordApp17InitPrevParamValsEv:0000000000000000 $t
/var/folders/2p/02m_5p7958535cp2tpgps0400000gn/T//ccHnEWZO.s:1455   .text._ZN14GrannyChordApp17InitPrevParamValsEv:0000000000000000 _ZN14GrannyChordApp17InitPrevParamValsEv
/var/folders/2p/02m_5p7958535cp2tpgps0400000gn/T//ccHnEWZO.s:1517   .text._ZN14GrannyChordApp17InitPrevParamValsEv:0000000000000034 $d
/var/folders/2p/02m_5p7958535cp2tpgps0400000gn/T//ccHnEWZO.s:1526   .text._ZN14GrannyChordApp9InitSynthEv:0000000000000000 $t
/var/folders/2p/02m_5p7958535cp2tpgps0400000gn/T//ccHnEWZO.s:1532   .text._ZN14GrannyChordApp9InitSynthEv:0000000000000000 _ZN14GrannyChordApp9InitSynthEv
/var/folders/2p/02m_5p7958535cp2tpgps0400000gn/T//ccHnEWZO.s:1621   .text._ZN14GrannyChordApp9InitSynthEv:0000000000000044 $d
/var/folders/2p/02m_5p7958535cp2tpgps0400000gn/T//ccHnEWZO.s:1633   .text._ZN14GrannyChordApp17HandleStateChangeEv:0000000000000000 $t
/var/folders/2p/02m_5p7958535cp2tpgps0400000gn/T//ccHnEWZO.s:1639   .text._ZN14GrannyChordApp17HandleStateChangeEv:0000000000000000 _ZN14GrannyChordApp17HandleStateChangeEv
/var/folders/2p/02m_5p7958535cp2tpgps0400000gn/T//ccHnEWZO.s:1660   .text._ZN14GrannyChordApp17HandleStateChangeEv:0000000000000010 $d
/var/folders/2p/02m_5p7958535cp2tpgps0400000gn/T//ccHnEWZO.s:1666   .text._ZN14GrannyChordApp17HandleStateChangeEv:0000000000000016 $t
/var/folders/2p/02m_5p7958535cp2tpgps0400000gn/T//ccHnEWZO.s:1755   .text._ZN14GrannyChordApp17HandleStateChangeEv:000000000000004c $d
/var/folders/2p/02m_5p7958535cp2tpgps0400000gn/T//ccHnEWZO.s:1761   .text._ZN14GrannyChordApp18ProcessWAVPlaybackEPPfj:0000000000000000 $t
/var/folders/2p/02m_5p7958535cp2tpgps0400000gn/T//ccHnEWZO.s:1767   .text._ZN14GrannyChordApp18ProcessWAVPlaybackEPPfj:0000000000000000 _ZN14GrannyChordApp18ProcessWAVPlaybackEPPfj
/var/folders/2p/02m_5p7958535cp2tpgps0400000gn/T//ccHnEWZO.s:1929   .text._ZN14GrannyChordApp18ProcessWAVPlaybackEPPfj:000000000000007c $d
/var/folders/2p/02m_5p7958535cp2tpgps0400000gn/T//ccHnEWZO.s:1934   .text._ZN14GrannyChordApp15ProcessRecordInEPKPKfPPfj:0000000000000000 $t
/var/folders/2p/02m_5p7958535cp2tpgps0400000gn/T//ccHnEWZO.s:1940   .text._ZN14GrannyChordApp15ProcessRecordInEPKPKfPPfj:0000000000000000 _ZN14GrannyChordApp15ProcessRecordInEPKPKfPPfj
/var/folders/2p/02m_5p7958535cp2tpgps0400000gn/T//ccHnEWZO.s:2035   .text._ZN14GrannyChordApp15ProcessRecordInEPKPKfPPfj:0000000000000070 $d
/var/folders/2p/02m_5p7958535cp2tpgps0400000gn/T//ccHnEWZO.s:2040   .text._ZN14GrannyChordApp9ProcessFXE6Sample:0000000000000000 $t
/var/folders/2p/02m_5p7958535cp2tpgps0400000gn/T//ccHnEWZO.s:2046   .text._ZN14GrannyChordApp9ProcessFXE6Sample:0000000000000000 _ZN14GrannyChordApp9ProcessFXE6Sample
/var/folders/2p/02m_5p7958535cp2tpgps0400000gn/T//ccHnEWZO.s:2132   .text._ZN14GrannyChordApp16ProcessSynthesisEPPfj:0000000000000000 $t
/var/folders/2p/02m_5p7958535cp2tpgps0400000gn/T//ccHnEWZO.s:2138   .text._ZN14GrannyChordApp16ProcessSynthesisEPPfj:0000000000000000 _ZN14GrannyChordApp16ProcessSynthesisEPPfj
ARM GAS  /var/folders/2p/02m_5p7958535cp2tpgps0400000gn/T//ccHnEWZO.s 			page 156


/var/folders/2p/02m_5p7958535cp2tpgps0400000gn/T//ccHnEWZO.s:2365   .text._ZN14GrannyChordApp12ProcessAudioEPKPKfPPfj:0000000000000000 $t
/var/folders/2p/02m_5p7958535cp2tpgps0400000gn/T//ccHnEWZO.s:2371   .text._ZN14GrannyChordApp12ProcessAudioEPKPKfPPfj:0000000000000000 _ZN14GrannyChordApp12ProcessAudioEPKPKfPPfj
/var/folders/2p/02m_5p7958535cp2tpgps0400000gn/T//ccHnEWZO.s:2519   .text._ZN14GrannyChordApp12ProcessAudioEPKPKfPPfj:0000000000000054 $d
/var/folders/2p/02m_5p7958535cp2tpgps0400000gn/T//ccHnEWZO.s:2525   .text._ZN14GrannyChordApp13AudioCallbackEPKPKfPPfj:0000000000000000 $t
/var/folders/2p/02m_5p7958535cp2tpgps0400000gn/T//ccHnEWZO.s:2559   .text._ZN14GrannyChordApp13AudioCallbackEPKPKfPPfj:0000000000000010 $d
/var/folders/2p/02m_5p7958535cp2tpgps0400000gn/T//ccHnEWZO.s:2567   .text._ZN14GrannyChordApp13RecordOutToSDEv:0000000000000000 $t
/var/folders/2p/02m_5p7958535cp2tpgps0400000gn/T//ccHnEWZO.s:2573   .text._ZN14GrannyChordApp13RecordOutToSDEv:0000000000000000 _ZN14GrannyChordApp13RecordOutToSDEv
/var/folders/2p/02m_5p7958535cp2tpgps0400000gn/T//ccHnEWZO.s:2686   .text._ZN14GrannyChordApp13RecordOutToSDEv:0000000000000060 $d
/var/folders/2p/02m_5p7958535cp2tpgps0400000gn/T//ccHnEWZO.s:2691   .text._ZN14GrannyChordApp17UpdateKnob1ParamsEf9SynthMode:0000000000000000 $t
/var/folders/2p/02m_5p7958535cp2tpgps0400000gn/T//ccHnEWZO.s:2697   .text._ZN14GrannyChordApp17UpdateKnob1ParamsEf9SynthMode:0000000000000000 _ZN14GrannyChordApp17UpdateKnob1ParamsEf9SynthMode
/var/folders/2p/02m_5p7958535cp2tpgps0400000gn/T//ccHnEWZO.s:2710   .text._ZN14GrannyChordApp17UpdateKnob1ParamsEf9SynthMode:0000000000000008 $d
/var/folders/2p/02m_5p7958535cp2tpgps0400000gn/T//ccHnEWZO.s:2714   .text._ZN14GrannyChordApp17UpdateKnob1ParamsEf9SynthMode:000000000000000c $t
/var/folders/2p/02m_5p7958535cp2tpgps0400000gn/T//ccHnEWZO.s:2856   .text._ZN14GrannyChordApp17UpdateKnob1ParamsEf9SynthMode:0000000000000048 $d
/var/folders/2p/02m_5p7958535cp2tpgps0400000gn/T//ccHnEWZO.s:2862   .text._ZN14GrannyChordApp17UpdateKnob2ParamsEf9SynthMode:0000000000000000 $t
/var/folders/2p/02m_5p7958535cp2tpgps0400000gn/T//ccHnEWZO.s:2868   .text._ZN14GrannyChordApp17UpdateKnob2ParamsEf9SynthMode:0000000000000000 _ZN14GrannyChordApp17UpdateKnob2ParamsEf9SynthMode
/var/folders/2p/02m_5p7958535cp2tpgps0400000gn/T//ccHnEWZO.s:2886   .text._ZN14GrannyChordApp17UpdateKnob2ParamsEf9SynthMode:000000000000000a $d
/var/folders/2p/02m_5p7958535cp2tpgps0400000gn/T//ccHnEWZO.s:2890   .text._ZN14GrannyChordApp17UpdateKnob2ParamsEf9SynthMode:000000000000000e $t
/var/folders/2p/02m_5p7958535cp2tpgps0400000gn/T//ccHnEWZO.s:3048   .text._ZN14GrannyChordApp17UpdateKnob2ParamsEf9SynthMode:000000000000005c $d
/var/folders/2p/02m_5p7958535cp2tpgps0400000gn/T//ccHnEWZO.s:3060   .text._ZN14GrannyChordApp17UpdateSynthParamsEv:0000000000000000 $t
/var/folders/2p/02m_5p7958535cp2tpgps0400000gn/T//ccHnEWZO.s:3066   .text._ZN14GrannyChordApp17UpdateSynthParamsEv:0000000000000000 _ZN14GrannyChordApp17UpdateSynthParamsEv
/var/folders/2p/02m_5p7958535cp2tpgps0400000gn/T//ccHnEWZO.s:3419   .text._ZN14GrannyChordApp17UpdateSynthParamsEv:0000000000000154 $d
/var/folders/2p/02m_5p7958535cp2tpgps0400000gn/T//ccHnEWZO.s:3440   .text._ZN14GrannyChordApp15DebugPrintStateE8AppState:0000000000000000 $t
/var/folders/2p/02m_5p7958535cp2tpgps0400000gn/T//ccHnEWZO.s:3446   .text._ZN14GrannyChordApp15DebugPrintStateE8AppState:0000000000000000 _ZN14GrannyChordApp15DebugPrintStateE8AppState
/var/folders/2p/02m_5p7958535cp2tpgps0400000gn/T//ccHnEWZO.s:3459   .text._ZN14GrannyChordApp15DebugPrintStateE8AppState:0000000000000008 $d
/var/folders/2p/02m_5p7958535cp2tpgps0400000gn/T//ccHnEWZO.s:3463   .text._ZN14GrannyChordApp15DebugPrintStateE8AppState:000000000000000c $t
/var/folders/2p/02m_5p7958535cp2tpgps0400000gn/T//ccHnEWZO.s:3555   .text._ZN14GrannyChordApp15DebugPrintStateE8AppState:0000000000000024 $d
/var/folders/2p/02m_5p7958535cp2tpgps0400000gn/T//ccHnEWZO.s:3575   .text._ZN14GrannyChordApp14DebugPrintModeE9SynthMode:0000000000000000 $t
/var/folders/2p/02m_5p7958535cp2tpgps0400000gn/T//ccHnEWZO.s:3581   .text._ZN14GrannyChordApp14DebugPrintModeE9SynthMode:0000000000000000 _ZN14GrannyChordApp14DebugPrintModeE9SynthMode
/var/folders/2p/02m_5p7958535cp2tpgps0400000gn/T//ccHnEWZO.s:3594   .text._ZN14GrannyChordApp14DebugPrintModeE9SynthMode:0000000000000008 $d
/var/folders/2p/02m_5p7958535cp2tpgps0400000gn/T//ccHnEWZO.s:3598   .text._ZN14GrannyChordApp14DebugPrintModeE9SynthMode:000000000000000c $t
/var/folders/2p/02m_5p7958535cp2tpgps0400000gn/T//ccHnEWZO.s:3679   .text._ZN14GrannyChordApp14DebugPrintModeE9SynthMode:0000000000000020 $d
/var/folders/2p/02m_5p7958535cp2tpgps0400000gn/T//ccHnEWZO.s:3687   .text._ZN14GrannyChordApp11InitColoursEv:0000000000000000 $t
/var/folders/2p/02m_5p7958535cp2tpgps0400000gn/T//ccHnEWZO.s:3693   .text._ZN14GrannyChordApp11InitColoursEv:0000000000000000 _ZN14GrannyChordApp11InitColoursEv
/var/folders/2p/02m_5p7958535cp2tpgps0400000gn/T//ccHnEWZO.s:3797   .text._ZN14GrannyChordApp11InitColoursEv:0000000000000098 $d
/var/folders/2p/02m_5p7958535cp2tpgps0400000gn/T//ccHnEWZO.s:3803   .text._ZN14GrannyChordApp14SetLedAppStateEv:0000000000000000 $t
/var/folders/2p/02m_5p7958535cp2tpgps0400000gn/T//ccHnEWZO.s:3809   .text._ZN14GrannyChordApp14SetLedAppStateEv:0000000000000000 _ZN14GrannyChordApp14SetLedAppStateEv
/var/folders/2p/02m_5p7958535cp2tpgps0400000gn/T//ccHnEWZO.s:3835   .text._ZN14GrannyChordApp14SetLedAppStateEv:0000000000000012 $d
/var/folders/2p/02m_5p7958535cp2tpgps0400000gn/T//ccHnEWZO.s:3841   .text._ZN14GrannyChordApp14SetLedAppStateEv:0000000000000018 $t
/var/folders/2p/02m_5p7958535cp2tpgps0400000gn/T//ccHnEWZO.s:3969   .text._ZN14GrannyChordApp14SetLedAppStateEv:00000000000000b0 $d
/var/folders/2p/02m_5p7958535cp2tpgps0400000gn/T//ccHnEWZO.s:3977   .text._ZN14GrannyChordApp4InitEPsS0_:0000000000000000 $t
/var/folders/2p/02m_5p7958535cp2tpgps0400000gn/T//ccHnEWZO.s:3983   .text._ZN14GrannyChordApp4InitEPsS0_:0000000000000000 _ZN14GrannyChordApp4InitEPsS0_
/var/folders/2p/02m_5p7958535cp2tpgps0400000gn/T//ccHnEWZO.s:4267   .text._ZN14GrannyChordApp4InitEPsS0_:00000000000000f8 $d
/var/folders/2p/02m_5p7958535cp2tpgps0400000gn/T//ccHnEWZO.s:4275   .text._ZN14GrannyChordApp15SetLedSynthModeEv:0000000000000000 $t
/var/folders/2p/02m_5p7958535cp2tpgps0400000gn/T//ccHnEWZO.s:4281   .text._ZN14GrannyChordApp15SetLedSynthModeEv:0000000000000000 _ZN14GrannyChordApp15SetLedSynthModeEv
/var/folders/2p/02m_5p7958535cp2tpgps0400000gn/T//ccHnEWZO.s:4317   .text._ZN14GrannyChordApp15SetLedSynthModeEv:000000000000001a $d
/var/folders/2p/02m_5p7958535cp2tpgps0400000gn/T//ccHnEWZO.s:4321   .text._ZN14GrannyChordApp15SetLedSynthModeEv:000000000000001e $t
/var/folders/2p/02m_5p7958535cp2tpgps0400000gn/T//ccHnEWZO.s:4411   .text._ZN14GrannyChordApp13NextSynthModeEv:0000000000000000 $t
/var/folders/2p/02m_5p7958535cp2tpgps0400000gn/T//ccHnEWZO.s:4417   .text._ZN14GrannyChordApp13NextSynthModeEv:0000000000000000 _ZN14GrannyChordApp13NextSynthModeEv
/var/folders/2p/02m_5p7958535cp2tpgps0400000gn/T//ccHnEWZO.s:4596   .text._ZN14GrannyChordApp13NextSynthModeEv:00000000000000a0 $d
/var/folders/2p/02m_5p7958535cp2tpgps0400000gn/T//ccHnEWZO.s:4606   .text._ZN14GrannyChordApp13HandleButton1Ev:0000000000000000 $t
/var/folders/2p/02m_5p7958535cp2tpgps0400000gn/T//ccHnEWZO.s:4612   .text._ZN14GrannyChordApp13HandleButton1Ev:0000000000000000 _ZN14GrannyChordApp13HandleButton1Ev
/var/folders/2p/02m_5p7958535cp2tpgps0400000gn/T//ccHnEWZO.s:4632   .text._ZN14GrannyChordApp13PrevSynthModeEv:0000000000000000 $t
/var/folders/2p/02m_5p7958535cp2tpgps0400000gn/T//ccHnEWZO.s:4638   .text._ZN14GrannyChordApp13PrevSynthModeEv:0000000000000000 _ZN14GrannyChordApp13PrevSynthModeEv
/var/folders/2p/02m_5p7958535cp2tpgps0400000gn/T//ccHnEWZO.s:4814   .text._ZN14GrannyChordApp13PrevSynthModeEv:00000000000000a0 $d
/var/folders/2p/02m_5p7958535cp2tpgps0400000gn/T//ccHnEWZO.s:4824   .text._ZN14GrannyChordApp13HandleButton2Ev:0000000000000000 $t
/var/folders/2p/02m_5p7958535cp2tpgps0400000gn/T//ccHnEWZO.s:4830   .text._ZN14GrannyChordApp13HandleButton2Ev:0000000000000000 _ZN14GrannyChordApp13HandleButton2Ev
/var/folders/2p/02m_5p7958535cp2tpgps0400000gn/T//ccHnEWZO.s:4847   .text._ZN14GrannyChordApp13ButtonHandlerEv:0000000000000000 $t
ARM GAS  /var/folders/2p/02m_5p7958535cp2tpgps0400000gn/T//ccHnEWZO.s 			page 157


/var/folders/2p/02m_5p7958535cp2tpgps0400000gn/T//ccHnEWZO.s:4853   .text._ZN14GrannyChordApp13ButtonHandlerEv:0000000000000000 _ZN14GrannyChordApp13ButtonHandlerEv
/var/folders/2p/02m_5p7958535cp2tpgps0400000gn/T//ccHnEWZO.s:4964   .text._ZN14GrannyChordApp8UpdateUIEv:0000000000000000 $t
/var/folders/2p/02m_5p7958535cp2tpgps0400000gn/T//ccHnEWZO.s:4970   .text._ZN14GrannyChordApp8UpdateUIEv:0000000000000000 _ZN14GrannyChordApp8UpdateUIEv
/var/folders/2p/02m_5p7958535cp2tpgps0400000gn/T//ccHnEWZO.s:5179   .text._ZN14GrannyChordApp8UpdateUIEv:00000000000000a8 $d
/var/folders/2p/02m_5p7958535cp2tpgps0400000gn/T//ccHnEWZO.s:5185   .text._ZN5daisy9WavWriterILj16384EE8SaveFileEv:0000000000000000 $t
/var/folders/2p/02m_5p7958535cp2tpgps0400000gn/T//ccHnEWZO.s:5191   .text._ZN5daisy9WavWriterILj16384EE8SaveFileEv:0000000000000000 _ZN5daisy9WavWriterILj16384EE8SaveFileEv
/var/folders/2p/02m_5p7958535cp2tpgps0400000gn/T//ccHnEWZO.s:5271   .text._ZN14GrannyChordApp3RunEv:0000000000000000 $t
/var/folders/2p/02m_5p7958535cp2tpgps0400000gn/T//ccHnEWZO.s:5277   .text._ZN14GrannyChordApp3RunEv:0000000000000000 _ZN14GrannyChordApp3RunEv
/var/folders/2p/02m_5p7958535cp2tpgps0400000gn/T//ccHnEWZO.s:5441   .text._ZN14GrannyChordApp3RunEv:00000000000000ac $d
/var/folders/2p/02m_5p7958535cp2tpgps0400000gn/T//ccHnEWZO.s:5447   .text._ZN14GrannyChordApp15FinishRecordingEv:0000000000000000 $t
/var/folders/2p/02m_5p7958535cp2tpgps0400000gn/T//ccHnEWZO.s:5453   .text._ZN14GrannyChordApp15FinishRecordingEv:0000000000000000 _ZN14GrannyChordApp15FinishRecordingEv
/var/folders/2p/02m_5p7958535cp2tpgps0400000gn/T//ccHnEWZO.s:5493   .bss._ZN14GrannyChordApp9instance_E:0000000000000000 _ZN14GrannyChordApp9instance_E
/var/folders/2p/02m_5p7958535cp2tpgps0400000gn/T//ccHnEWZO.s:5489   .bss._ZN14GrannyChordApp9instance_E:0000000000000000 $d

UNDEFINED SYMBOLS
tanf
_ZN5daisy6LoggerILNS_17LoggerDestinationE1EE9PrintLineEPKcz
_ZN13GranularSynth15GetActiveGrainsEv
_ZN5daisy7Encoder8DebounceEv
strcpy
_ZN16AudioFileManager10SetBuffersEPsS0_
_ZN16AudioFileManager4InitEv
_ZN16AudioFileManager12ScanWavFilesEv
_ZN16AudioFileManager8LoadFileEt
_ZN5daisy8DaisyPod10StartAudioEPFvPKPKfPPfjE
memset
_ZN7daisysp7Limiter4InitEv
_ZN7daisysp10Compressor4InitEf
_ZN7daisysp8ReverbSc4InitEf
_ZN7daisysp10MoogLadder4InitEf
_ZN13GranularSynth4InitEPsS0_j
_ZN5daisy8DaisyPod9StopAudioEv
_ZN7daisysp10MoogLadder7ProcessEf
_ZN7daisysp8ReverbSc10ProcessMixERKfS2_PfS3_
_ZN5daisy6System7GetTickEv
_ZN13GranularSynth13ProcessGrainsEv
_ZN7daisysp7Limiter12ProcessBlockEPfjf
sprintf
f_open
f_write
_ZN13GranularSynth12SetGrainSizeEf
_ZN13GranularSynth13SetPitchRatioEf
_ZN13GranularSynth11SetSpawnPosEf
_ZN13GranularSynth21SetTargetActiveGrainsEf
_ZN5daisy13AnalogControl7ProcessEv
_ZN5daisy6System5DelayEm
_ZN5daisy5Color4InitENS0_11PresetColorE
_ZN5daisy5Color4InitEfff
_ZN5daisy6RgbLed8SetColorENS_5ColorE
_ZN5daisy6RgbLed3SetEfff
_ZN5daisy8DaisyPod10UpdateLedsEv
_ZN5daisy8DaisyPod17SetAudioBlockSizeEj
_ZN5daisy8DaisyPod18SetAudioSampleRateENS_9SaiHandle6Config10SampleRateE
_ZN5daisy6RgbLed6SetRedEf
_ZN5daisy8DaisyPod15AudioSampleRateEv
_ZN5daisy8DaisyPod14AudioBlockSizeEv
_ZN5daisy6System11GetTickFreqEv
ARM GAS  /var/folders/2p/02m_5p7958535cp2tpgps0400000gn/T//ccHnEWZO.s 			page 158


time
_ZN5daisy8DaisyPod8StartAdcEv
rng_state
_ZN5daisy8DaisyPod22ProcessDigitalControlsEv
_ZN5daisy6System6GetNowEv
f_lseek
f_close
