ARM GAS  /var/folders/2p/02m_5p7958535cp2tpgps0400000gn/T//ccf9gERz.s 			page 1


   1              		.cpu cortex-m7
   2              		.arch armv7e-m
   3              		.fpu fpv5-d16
   4              		.eabi_attribute 28, 1
   5              		.eabi_attribute 20, 1
   6              		.eabi_attribute 21, 1
   7              		.eabi_attribute 23, 3
   8              		.eabi_attribute 24, 1
   9              		.eabi_attribute 25, 1
  10              		.eabi_attribute 26, 1
  11              		.eabi_attribute 30, 6
  12              		.eabi_attribute 34, 1
  13              		.eabi_attribute 18, 4
  14              		.file	"main.cpp"
  15              		.text
  16              	.Ltext0:
  17              		.cfi_sections	.debug_frame
  18              		.section	.rodata._ZStL19piecewise_construct,"a"
  19              		.align	2
  22              	_ZStL19piecewise_construct:
  23 0000 00       		.space	1
  24              		.section	.text._ZL20__gthread_key_deletei,"ax",%progbits
  25              		.align	1
  26              		.syntax unified
  27              		.thumb
  28              		.thumb_func
  30              	_ZL20__gthread_key_deletei:
  31              	.LFB1228:
  32              		.file 1 "/Library/DaisyToolchain/0.2.0/arm/arm-none-eabi/include/c++/10.3.1/arm-none-eabi/thumb/v7
   1:/Library/DaisyToolchain/0.2.0/arm/arm-none-eabi/include/c++/10.3.1/arm-none-eabi/thumb/v7e-m+dp/hard/bits/gthr-default.h **** /* Threads compatibility routines for libgcc2 and libobjc.  */
   2:/Library/DaisyToolchain/0.2.0/arm/arm-none-eabi/include/c++/10.3.1/arm-none-eabi/thumb/v7e-m+dp/hard/bits/gthr-default.h **** /* Compile this one with gcc.  */
   3:/Library/DaisyToolchain/0.2.0/arm/arm-none-eabi/include/c++/10.3.1/arm-none-eabi/thumb/v7e-m+dp/hard/bits/gthr-default.h **** /* Copyright (C) 1997-2020 Free Software Foundation, Inc.
   4:/Library/DaisyToolchain/0.2.0/arm/arm-none-eabi/include/c++/10.3.1/arm-none-eabi/thumb/v7e-m+dp/hard/bits/gthr-default.h **** 
   5:/Library/DaisyToolchain/0.2.0/arm/arm-none-eabi/include/c++/10.3.1/arm-none-eabi/thumb/v7e-m+dp/hard/bits/gthr-default.h **** This file is part of GCC.
   6:/Library/DaisyToolchain/0.2.0/arm/arm-none-eabi/include/c++/10.3.1/arm-none-eabi/thumb/v7e-m+dp/hard/bits/gthr-default.h **** 
   7:/Library/DaisyToolchain/0.2.0/arm/arm-none-eabi/include/c++/10.3.1/arm-none-eabi/thumb/v7e-m+dp/hard/bits/gthr-default.h **** GCC is free software; you can redistribute it and/or modify it under
   8:/Library/DaisyToolchain/0.2.0/arm/arm-none-eabi/include/c++/10.3.1/arm-none-eabi/thumb/v7e-m+dp/hard/bits/gthr-default.h **** the terms of the GNU General Public License as published by the Free
   9:/Library/DaisyToolchain/0.2.0/arm/arm-none-eabi/include/c++/10.3.1/arm-none-eabi/thumb/v7e-m+dp/hard/bits/gthr-default.h **** Software Foundation; either version 3, or (at your option) any later
  10:/Library/DaisyToolchain/0.2.0/arm/arm-none-eabi/include/c++/10.3.1/arm-none-eabi/thumb/v7e-m+dp/hard/bits/gthr-default.h **** version.
  11:/Library/DaisyToolchain/0.2.0/arm/arm-none-eabi/include/c++/10.3.1/arm-none-eabi/thumb/v7e-m+dp/hard/bits/gthr-default.h **** 
  12:/Library/DaisyToolchain/0.2.0/arm/arm-none-eabi/include/c++/10.3.1/arm-none-eabi/thumb/v7e-m+dp/hard/bits/gthr-default.h **** GCC is distributed in the hope that it will be useful, but WITHOUT ANY
  13:/Library/DaisyToolchain/0.2.0/arm/arm-none-eabi/include/c++/10.3.1/arm-none-eabi/thumb/v7e-m+dp/hard/bits/gthr-default.h **** WARRANTY; without even the implied warranty of MERCHANTABILITY or
  14:/Library/DaisyToolchain/0.2.0/arm/arm-none-eabi/include/c++/10.3.1/arm-none-eabi/thumb/v7e-m+dp/hard/bits/gthr-default.h **** FITNESS FOR A PARTICULAR PURPOSE.  See the GNU General Public License
  15:/Library/DaisyToolchain/0.2.0/arm/arm-none-eabi/include/c++/10.3.1/arm-none-eabi/thumb/v7e-m+dp/hard/bits/gthr-default.h **** for more details.
  16:/Library/DaisyToolchain/0.2.0/arm/arm-none-eabi/include/c++/10.3.1/arm-none-eabi/thumb/v7e-m+dp/hard/bits/gthr-default.h **** 
  17:/Library/DaisyToolchain/0.2.0/arm/arm-none-eabi/include/c++/10.3.1/arm-none-eabi/thumb/v7e-m+dp/hard/bits/gthr-default.h **** Under Section 7 of GPL version 3, you are granted additional
  18:/Library/DaisyToolchain/0.2.0/arm/arm-none-eabi/include/c++/10.3.1/arm-none-eabi/thumb/v7e-m+dp/hard/bits/gthr-default.h **** permissions described in the GCC Runtime Library Exception, version
  19:/Library/DaisyToolchain/0.2.0/arm/arm-none-eabi/include/c++/10.3.1/arm-none-eabi/thumb/v7e-m+dp/hard/bits/gthr-default.h **** 3.1, as published by the Free Software Foundation.
  20:/Library/DaisyToolchain/0.2.0/arm/arm-none-eabi/include/c++/10.3.1/arm-none-eabi/thumb/v7e-m+dp/hard/bits/gthr-default.h **** 
  21:/Library/DaisyToolchain/0.2.0/arm/arm-none-eabi/include/c++/10.3.1/arm-none-eabi/thumb/v7e-m+dp/hard/bits/gthr-default.h **** You should have received a copy of the GNU General Public License and
  22:/Library/DaisyToolchain/0.2.0/arm/arm-none-eabi/include/c++/10.3.1/arm-none-eabi/thumb/v7e-m+dp/hard/bits/gthr-default.h **** a copy of the GCC Runtime Library Exception along with this program;
  23:/Library/DaisyToolchain/0.2.0/arm/arm-none-eabi/include/c++/10.3.1/arm-none-eabi/thumb/v7e-m+dp/hard/bits/gthr-default.h **** see the files COPYING3 and COPYING.RUNTIME respectively.  If not, see
  24:/Library/DaisyToolchain/0.2.0/arm/arm-none-eabi/include/c++/10.3.1/arm-none-eabi/thumb/v7e-m+dp/hard/bits/gthr-default.h **** <http://www.gnu.org/licenses/>.  */
  25:/Library/DaisyToolchain/0.2.0/arm/arm-none-eabi/include/c++/10.3.1/arm-none-eabi/thumb/v7e-m+dp/hard/bits/gthr-default.h **** 
  26:/Library/DaisyToolchain/0.2.0/arm/arm-none-eabi/include/c++/10.3.1/arm-none-eabi/thumb/v7e-m+dp/hard/bits/gthr-default.h **** #ifndef _GLIBCXX_GCC_GTHR_SINGLE_H
  27:/Library/DaisyToolchain/0.2.0/arm/arm-none-eabi/include/c++/10.3.1/arm-none-eabi/thumb/v7e-m+dp/hard/bits/gthr-default.h **** #define _GLIBCXX_GCC_GTHR_SINGLE_H
  28:/Library/DaisyToolchain/0.2.0/arm/arm-none-eabi/include/c++/10.3.1/arm-none-eabi/thumb/v7e-m+dp/hard/bits/gthr-default.h **** 
ARM GAS  /var/folders/2p/02m_5p7958535cp2tpgps0400000gn/T//ccf9gERz.s 			page 2


  29:/Library/DaisyToolchain/0.2.0/arm/arm-none-eabi/include/c++/10.3.1/arm-none-eabi/thumb/v7e-m+dp/hard/bits/gthr-default.h **** /* Just provide compatibility for mutex handling.  */
  30:/Library/DaisyToolchain/0.2.0/arm/arm-none-eabi/include/c++/10.3.1/arm-none-eabi/thumb/v7e-m+dp/hard/bits/gthr-default.h **** 
  31:/Library/DaisyToolchain/0.2.0/arm/arm-none-eabi/include/c++/10.3.1/arm-none-eabi/thumb/v7e-m+dp/hard/bits/gthr-default.h **** typedef int __gthread_key_t;
  32:/Library/DaisyToolchain/0.2.0/arm/arm-none-eabi/include/c++/10.3.1/arm-none-eabi/thumb/v7e-m+dp/hard/bits/gthr-default.h **** typedef int __gthread_once_t;
  33:/Library/DaisyToolchain/0.2.0/arm/arm-none-eabi/include/c++/10.3.1/arm-none-eabi/thumb/v7e-m+dp/hard/bits/gthr-default.h **** typedef int __gthread_mutex_t;
  34:/Library/DaisyToolchain/0.2.0/arm/arm-none-eabi/include/c++/10.3.1/arm-none-eabi/thumb/v7e-m+dp/hard/bits/gthr-default.h **** typedef int __gthread_recursive_mutex_t;
  35:/Library/DaisyToolchain/0.2.0/arm/arm-none-eabi/include/c++/10.3.1/arm-none-eabi/thumb/v7e-m+dp/hard/bits/gthr-default.h **** 
  36:/Library/DaisyToolchain/0.2.0/arm/arm-none-eabi/include/c++/10.3.1/arm-none-eabi/thumb/v7e-m+dp/hard/bits/gthr-default.h **** #define __GTHREAD_ONCE_INIT 0
  37:/Library/DaisyToolchain/0.2.0/arm/arm-none-eabi/include/c++/10.3.1/arm-none-eabi/thumb/v7e-m+dp/hard/bits/gthr-default.h **** #define __GTHREAD_MUTEX_INIT 0
  38:/Library/DaisyToolchain/0.2.0/arm/arm-none-eabi/include/c++/10.3.1/arm-none-eabi/thumb/v7e-m+dp/hard/bits/gthr-default.h **** #define __GTHREAD_MUTEX_INIT_FUNCTION(mx) do {} while (0)
  39:/Library/DaisyToolchain/0.2.0/arm/arm-none-eabi/include/c++/10.3.1/arm-none-eabi/thumb/v7e-m+dp/hard/bits/gthr-default.h **** #define __GTHREAD_RECURSIVE_MUTEX_INIT 0
  40:/Library/DaisyToolchain/0.2.0/arm/arm-none-eabi/include/c++/10.3.1/arm-none-eabi/thumb/v7e-m+dp/hard/bits/gthr-default.h **** 
  41:/Library/DaisyToolchain/0.2.0/arm/arm-none-eabi/include/c++/10.3.1/arm-none-eabi/thumb/v7e-m+dp/hard/bits/gthr-default.h **** #define _GLIBCXX_UNUSED __attribute__((__unused__))
  42:/Library/DaisyToolchain/0.2.0/arm/arm-none-eabi/include/c++/10.3.1/arm-none-eabi/thumb/v7e-m+dp/hard/bits/gthr-default.h **** 
  43:/Library/DaisyToolchain/0.2.0/arm/arm-none-eabi/include/c++/10.3.1/arm-none-eabi/thumb/v7e-m+dp/hard/bits/gthr-default.h **** #ifdef _LIBOBJC
  44:/Library/DaisyToolchain/0.2.0/arm/arm-none-eabi/include/c++/10.3.1/arm-none-eabi/thumb/v7e-m+dp/hard/bits/gthr-default.h **** 
  45:/Library/DaisyToolchain/0.2.0/arm/arm-none-eabi/include/c++/10.3.1/arm-none-eabi/thumb/v7e-m+dp/hard/bits/gthr-default.h **** /* Thread local storage for a single thread */
  46:/Library/DaisyToolchain/0.2.0/arm/arm-none-eabi/include/c++/10.3.1/arm-none-eabi/thumb/v7e-m+dp/hard/bits/gthr-default.h **** static void *thread_local_storage = NULL;
  47:/Library/DaisyToolchain/0.2.0/arm/arm-none-eabi/include/c++/10.3.1/arm-none-eabi/thumb/v7e-m+dp/hard/bits/gthr-default.h **** 
  48:/Library/DaisyToolchain/0.2.0/arm/arm-none-eabi/include/c++/10.3.1/arm-none-eabi/thumb/v7e-m+dp/hard/bits/gthr-default.h **** /* Backend initialization functions */
  49:/Library/DaisyToolchain/0.2.0/arm/arm-none-eabi/include/c++/10.3.1/arm-none-eabi/thumb/v7e-m+dp/hard/bits/gthr-default.h **** 
  50:/Library/DaisyToolchain/0.2.0/arm/arm-none-eabi/include/c++/10.3.1/arm-none-eabi/thumb/v7e-m+dp/hard/bits/gthr-default.h **** /* Initialize the threads subsystem.  */
  51:/Library/DaisyToolchain/0.2.0/arm/arm-none-eabi/include/c++/10.3.1/arm-none-eabi/thumb/v7e-m+dp/hard/bits/gthr-default.h **** static inline int
  52:/Library/DaisyToolchain/0.2.0/arm/arm-none-eabi/include/c++/10.3.1/arm-none-eabi/thumb/v7e-m+dp/hard/bits/gthr-default.h **** __gthread_objc_init_thread_system (void)
  53:/Library/DaisyToolchain/0.2.0/arm/arm-none-eabi/include/c++/10.3.1/arm-none-eabi/thumb/v7e-m+dp/hard/bits/gthr-default.h **** {
  54:/Library/DaisyToolchain/0.2.0/arm/arm-none-eabi/include/c++/10.3.1/arm-none-eabi/thumb/v7e-m+dp/hard/bits/gthr-default.h ****   /* No thread support available */
  55:/Library/DaisyToolchain/0.2.0/arm/arm-none-eabi/include/c++/10.3.1/arm-none-eabi/thumb/v7e-m+dp/hard/bits/gthr-default.h ****   return -1;
  56:/Library/DaisyToolchain/0.2.0/arm/arm-none-eabi/include/c++/10.3.1/arm-none-eabi/thumb/v7e-m+dp/hard/bits/gthr-default.h **** }
  57:/Library/DaisyToolchain/0.2.0/arm/arm-none-eabi/include/c++/10.3.1/arm-none-eabi/thumb/v7e-m+dp/hard/bits/gthr-default.h **** 
  58:/Library/DaisyToolchain/0.2.0/arm/arm-none-eabi/include/c++/10.3.1/arm-none-eabi/thumb/v7e-m+dp/hard/bits/gthr-default.h **** /* Close the threads subsystem.  */
  59:/Library/DaisyToolchain/0.2.0/arm/arm-none-eabi/include/c++/10.3.1/arm-none-eabi/thumb/v7e-m+dp/hard/bits/gthr-default.h **** static inline int
  60:/Library/DaisyToolchain/0.2.0/arm/arm-none-eabi/include/c++/10.3.1/arm-none-eabi/thumb/v7e-m+dp/hard/bits/gthr-default.h **** __gthread_objc_close_thread_system (void)
  61:/Library/DaisyToolchain/0.2.0/arm/arm-none-eabi/include/c++/10.3.1/arm-none-eabi/thumb/v7e-m+dp/hard/bits/gthr-default.h **** {
  62:/Library/DaisyToolchain/0.2.0/arm/arm-none-eabi/include/c++/10.3.1/arm-none-eabi/thumb/v7e-m+dp/hard/bits/gthr-default.h ****   /* No thread support available */
  63:/Library/DaisyToolchain/0.2.0/arm/arm-none-eabi/include/c++/10.3.1/arm-none-eabi/thumb/v7e-m+dp/hard/bits/gthr-default.h ****   return -1;
  64:/Library/DaisyToolchain/0.2.0/arm/arm-none-eabi/include/c++/10.3.1/arm-none-eabi/thumb/v7e-m+dp/hard/bits/gthr-default.h **** }
  65:/Library/DaisyToolchain/0.2.0/arm/arm-none-eabi/include/c++/10.3.1/arm-none-eabi/thumb/v7e-m+dp/hard/bits/gthr-default.h **** 
  66:/Library/DaisyToolchain/0.2.0/arm/arm-none-eabi/include/c++/10.3.1/arm-none-eabi/thumb/v7e-m+dp/hard/bits/gthr-default.h **** /* Backend thread functions */
  67:/Library/DaisyToolchain/0.2.0/arm/arm-none-eabi/include/c++/10.3.1/arm-none-eabi/thumb/v7e-m+dp/hard/bits/gthr-default.h **** 
  68:/Library/DaisyToolchain/0.2.0/arm/arm-none-eabi/include/c++/10.3.1/arm-none-eabi/thumb/v7e-m+dp/hard/bits/gthr-default.h **** /* Create a new thread of execution.  */
  69:/Library/DaisyToolchain/0.2.0/arm/arm-none-eabi/include/c++/10.3.1/arm-none-eabi/thumb/v7e-m+dp/hard/bits/gthr-default.h **** static inline objc_thread_t
  70:/Library/DaisyToolchain/0.2.0/arm/arm-none-eabi/include/c++/10.3.1/arm-none-eabi/thumb/v7e-m+dp/hard/bits/gthr-default.h **** __gthread_objc_thread_detach (void (* func)(void *), void * arg _GLIBCXX_UNUSED)
  71:/Library/DaisyToolchain/0.2.0/arm/arm-none-eabi/include/c++/10.3.1/arm-none-eabi/thumb/v7e-m+dp/hard/bits/gthr-default.h **** {
  72:/Library/DaisyToolchain/0.2.0/arm/arm-none-eabi/include/c++/10.3.1/arm-none-eabi/thumb/v7e-m+dp/hard/bits/gthr-default.h ****   /* No thread support available */
  73:/Library/DaisyToolchain/0.2.0/arm/arm-none-eabi/include/c++/10.3.1/arm-none-eabi/thumb/v7e-m+dp/hard/bits/gthr-default.h ****   return NULL;
  74:/Library/DaisyToolchain/0.2.0/arm/arm-none-eabi/include/c++/10.3.1/arm-none-eabi/thumb/v7e-m+dp/hard/bits/gthr-default.h **** }
  75:/Library/DaisyToolchain/0.2.0/arm/arm-none-eabi/include/c++/10.3.1/arm-none-eabi/thumb/v7e-m+dp/hard/bits/gthr-default.h **** 
  76:/Library/DaisyToolchain/0.2.0/arm/arm-none-eabi/include/c++/10.3.1/arm-none-eabi/thumb/v7e-m+dp/hard/bits/gthr-default.h **** /* Set the current thread's priority.  */
  77:/Library/DaisyToolchain/0.2.0/arm/arm-none-eabi/include/c++/10.3.1/arm-none-eabi/thumb/v7e-m+dp/hard/bits/gthr-default.h **** static inline int
  78:/Library/DaisyToolchain/0.2.0/arm/arm-none-eabi/include/c++/10.3.1/arm-none-eabi/thumb/v7e-m+dp/hard/bits/gthr-default.h **** __gthread_objc_thread_set_priority (int priority _GLIBCXX_UNUSED)
  79:/Library/DaisyToolchain/0.2.0/arm/arm-none-eabi/include/c++/10.3.1/arm-none-eabi/thumb/v7e-m+dp/hard/bits/gthr-default.h **** {
  80:/Library/DaisyToolchain/0.2.0/arm/arm-none-eabi/include/c++/10.3.1/arm-none-eabi/thumb/v7e-m+dp/hard/bits/gthr-default.h ****   /* No thread support available */
  81:/Library/DaisyToolchain/0.2.0/arm/arm-none-eabi/include/c++/10.3.1/arm-none-eabi/thumb/v7e-m+dp/hard/bits/gthr-default.h ****   return -1;
  82:/Library/DaisyToolchain/0.2.0/arm/arm-none-eabi/include/c++/10.3.1/arm-none-eabi/thumb/v7e-m+dp/hard/bits/gthr-default.h **** }
  83:/Library/DaisyToolchain/0.2.0/arm/arm-none-eabi/include/c++/10.3.1/arm-none-eabi/thumb/v7e-m+dp/hard/bits/gthr-default.h **** 
  84:/Library/DaisyToolchain/0.2.0/arm/arm-none-eabi/include/c++/10.3.1/arm-none-eabi/thumb/v7e-m+dp/hard/bits/gthr-default.h **** /* Return the current thread's priority.  */
  85:/Library/DaisyToolchain/0.2.0/arm/arm-none-eabi/include/c++/10.3.1/arm-none-eabi/thumb/v7e-m+dp/hard/bits/gthr-default.h **** static inline int
ARM GAS  /var/folders/2p/02m_5p7958535cp2tpgps0400000gn/T//ccf9gERz.s 			page 3


  86:/Library/DaisyToolchain/0.2.0/arm/arm-none-eabi/include/c++/10.3.1/arm-none-eabi/thumb/v7e-m+dp/hard/bits/gthr-default.h **** __gthread_objc_thread_get_priority (void)
  87:/Library/DaisyToolchain/0.2.0/arm/arm-none-eabi/include/c++/10.3.1/arm-none-eabi/thumb/v7e-m+dp/hard/bits/gthr-default.h **** {
  88:/Library/DaisyToolchain/0.2.0/arm/arm-none-eabi/include/c++/10.3.1/arm-none-eabi/thumb/v7e-m+dp/hard/bits/gthr-default.h ****   return OBJC_THREAD_INTERACTIVE_PRIORITY;
  89:/Library/DaisyToolchain/0.2.0/arm/arm-none-eabi/include/c++/10.3.1/arm-none-eabi/thumb/v7e-m+dp/hard/bits/gthr-default.h **** }
  90:/Library/DaisyToolchain/0.2.0/arm/arm-none-eabi/include/c++/10.3.1/arm-none-eabi/thumb/v7e-m+dp/hard/bits/gthr-default.h **** 
  91:/Library/DaisyToolchain/0.2.0/arm/arm-none-eabi/include/c++/10.3.1/arm-none-eabi/thumb/v7e-m+dp/hard/bits/gthr-default.h **** /* Yield our process time to another thread.  */
  92:/Library/DaisyToolchain/0.2.0/arm/arm-none-eabi/include/c++/10.3.1/arm-none-eabi/thumb/v7e-m+dp/hard/bits/gthr-default.h **** static inline void
  93:/Library/DaisyToolchain/0.2.0/arm/arm-none-eabi/include/c++/10.3.1/arm-none-eabi/thumb/v7e-m+dp/hard/bits/gthr-default.h **** __gthread_objc_thread_yield (void)
  94:/Library/DaisyToolchain/0.2.0/arm/arm-none-eabi/include/c++/10.3.1/arm-none-eabi/thumb/v7e-m+dp/hard/bits/gthr-default.h **** {
  95:/Library/DaisyToolchain/0.2.0/arm/arm-none-eabi/include/c++/10.3.1/arm-none-eabi/thumb/v7e-m+dp/hard/bits/gthr-default.h ****   return;
  96:/Library/DaisyToolchain/0.2.0/arm/arm-none-eabi/include/c++/10.3.1/arm-none-eabi/thumb/v7e-m+dp/hard/bits/gthr-default.h **** }
  97:/Library/DaisyToolchain/0.2.0/arm/arm-none-eabi/include/c++/10.3.1/arm-none-eabi/thumb/v7e-m+dp/hard/bits/gthr-default.h **** 
  98:/Library/DaisyToolchain/0.2.0/arm/arm-none-eabi/include/c++/10.3.1/arm-none-eabi/thumb/v7e-m+dp/hard/bits/gthr-default.h **** /* Terminate the current thread.  */
  99:/Library/DaisyToolchain/0.2.0/arm/arm-none-eabi/include/c++/10.3.1/arm-none-eabi/thumb/v7e-m+dp/hard/bits/gthr-default.h **** static inline int
 100:/Library/DaisyToolchain/0.2.0/arm/arm-none-eabi/include/c++/10.3.1/arm-none-eabi/thumb/v7e-m+dp/hard/bits/gthr-default.h **** __gthread_objc_thread_exit (void)
 101:/Library/DaisyToolchain/0.2.0/arm/arm-none-eabi/include/c++/10.3.1/arm-none-eabi/thumb/v7e-m+dp/hard/bits/gthr-default.h **** {
 102:/Library/DaisyToolchain/0.2.0/arm/arm-none-eabi/include/c++/10.3.1/arm-none-eabi/thumb/v7e-m+dp/hard/bits/gthr-default.h ****   /* No thread support available */
 103:/Library/DaisyToolchain/0.2.0/arm/arm-none-eabi/include/c++/10.3.1/arm-none-eabi/thumb/v7e-m+dp/hard/bits/gthr-default.h ****   /* Should we really exit the program */
 104:/Library/DaisyToolchain/0.2.0/arm/arm-none-eabi/include/c++/10.3.1/arm-none-eabi/thumb/v7e-m+dp/hard/bits/gthr-default.h ****   /* exit (&__objc_thread_exit_status); */
 105:/Library/DaisyToolchain/0.2.0/arm/arm-none-eabi/include/c++/10.3.1/arm-none-eabi/thumb/v7e-m+dp/hard/bits/gthr-default.h ****   return -1;
 106:/Library/DaisyToolchain/0.2.0/arm/arm-none-eabi/include/c++/10.3.1/arm-none-eabi/thumb/v7e-m+dp/hard/bits/gthr-default.h **** }
 107:/Library/DaisyToolchain/0.2.0/arm/arm-none-eabi/include/c++/10.3.1/arm-none-eabi/thumb/v7e-m+dp/hard/bits/gthr-default.h **** 
 108:/Library/DaisyToolchain/0.2.0/arm/arm-none-eabi/include/c++/10.3.1/arm-none-eabi/thumb/v7e-m+dp/hard/bits/gthr-default.h **** /* Returns an integer value which uniquely describes a thread.  */
 109:/Library/DaisyToolchain/0.2.0/arm/arm-none-eabi/include/c++/10.3.1/arm-none-eabi/thumb/v7e-m+dp/hard/bits/gthr-default.h **** static inline objc_thread_t
 110:/Library/DaisyToolchain/0.2.0/arm/arm-none-eabi/include/c++/10.3.1/arm-none-eabi/thumb/v7e-m+dp/hard/bits/gthr-default.h **** __gthread_objc_thread_id (void)
 111:/Library/DaisyToolchain/0.2.0/arm/arm-none-eabi/include/c++/10.3.1/arm-none-eabi/thumb/v7e-m+dp/hard/bits/gthr-default.h **** {
 112:/Library/DaisyToolchain/0.2.0/arm/arm-none-eabi/include/c++/10.3.1/arm-none-eabi/thumb/v7e-m+dp/hard/bits/gthr-default.h ****   /* No thread support, use 1.  */
 113:/Library/DaisyToolchain/0.2.0/arm/arm-none-eabi/include/c++/10.3.1/arm-none-eabi/thumb/v7e-m+dp/hard/bits/gthr-default.h ****   return (objc_thread_t) 1;
 114:/Library/DaisyToolchain/0.2.0/arm/arm-none-eabi/include/c++/10.3.1/arm-none-eabi/thumb/v7e-m+dp/hard/bits/gthr-default.h **** }
 115:/Library/DaisyToolchain/0.2.0/arm/arm-none-eabi/include/c++/10.3.1/arm-none-eabi/thumb/v7e-m+dp/hard/bits/gthr-default.h **** 
 116:/Library/DaisyToolchain/0.2.0/arm/arm-none-eabi/include/c++/10.3.1/arm-none-eabi/thumb/v7e-m+dp/hard/bits/gthr-default.h **** /* Sets the thread's local storage pointer.  */
 117:/Library/DaisyToolchain/0.2.0/arm/arm-none-eabi/include/c++/10.3.1/arm-none-eabi/thumb/v7e-m+dp/hard/bits/gthr-default.h **** static inline int
 118:/Library/DaisyToolchain/0.2.0/arm/arm-none-eabi/include/c++/10.3.1/arm-none-eabi/thumb/v7e-m+dp/hard/bits/gthr-default.h **** __gthread_objc_thread_set_data (void *value)
 119:/Library/DaisyToolchain/0.2.0/arm/arm-none-eabi/include/c++/10.3.1/arm-none-eabi/thumb/v7e-m+dp/hard/bits/gthr-default.h **** {
 120:/Library/DaisyToolchain/0.2.0/arm/arm-none-eabi/include/c++/10.3.1/arm-none-eabi/thumb/v7e-m+dp/hard/bits/gthr-default.h ****   thread_local_storage = value;
 121:/Library/DaisyToolchain/0.2.0/arm/arm-none-eabi/include/c++/10.3.1/arm-none-eabi/thumb/v7e-m+dp/hard/bits/gthr-default.h ****   return 0;
 122:/Library/DaisyToolchain/0.2.0/arm/arm-none-eabi/include/c++/10.3.1/arm-none-eabi/thumb/v7e-m+dp/hard/bits/gthr-default.h **** }
 123:/Library/DaisyToolchain/0.2.0/arm/arm-none-eabi/include/c++/10.3.1/arm-none-eabi/thumb/v7e-m+dp/hard/bits/gthr-default.h **** 
 124:/Library/DaisyToolchain/0.2.0/arm/arm-none-eabi/include/c++/10.3.1/arm-none-eabi/thumb/v7e-m+dp/hard/bits/gthr-default.h **** /* Returns the thread's local storage pointer.  */
 125:/Library/DaisyToolchain/0.2.0/arm/arm-none-eabi/include/c++/10.3.1/arm-none-eabi/thumb/v7e-m+dp/hard/bits/gthr-default.h **** static inline void *
 126:/Library/DaisyToolchain/0.2.0/arm/arm-none-eabi/include/c++/10.3.1/arm-none-eabi/thumb/v7e-m+dp/hard/bits/gthr-default.h **** __gthread_objc_thread_get_data (void)
 127:/Library/DaisyToolchain/0.2.0/arm/arm-none-eabi/include/c++/10.3.1/arm-none-eabi/thumb/v7e-m+dp/hard/bits/gthr-default.h **** {
 128:/Library/DaisyToolchain/0.2.0/arm/arm-none-eabi/include/c++/10.3.1/arm-none-eabi/thumb/v7e-m+dp/hard/bits/gthr-default.h ****   return thread_local_storage;
 129:/Library/DaisyToolchain/0.2.0/arm/arm-none-eabi/include/c++/10.3.1/arm-none-eabi/thumb/v7e-m+dp/hard/bits/gthr-default.h **** }
 130:/Library/DaisyToolchain/0.2.0/arm/arm-none-eabi/include/c++/10.3.1/arm-none-eabi/thumb/v7e-m+dp/hard/bits/gthr-default.h **** 
 131:/Library/DaisyToolchain/0.2.0/arm/arm-none-eabi/include/c++/10.3.1/arm-none-eabi/thumb/v7e-m+dp/hard/bits/gthr-default.h **** /* Backend mutex functions */
 132:/Library/DaisyToolchain/0.2.0/arm/arm-none-eabi/include/c++/10.3.1/arm-none-eabi/thumb/v7e-m+dp/hard/bits/gthr-default.h **** 
 133:/Library/DaisyToolchain/0.2.0/arm/arm-none-eabi/include/c++/10.3.1/arm-none-eabi/thumb/v7e-m+dp/hard/bits/gthr-default.h **** /* Allocate a mutex.  */
 134:/Library/DaisyToolchain/0.2.0/arm/arm-none-eabi/include/c++/10.3.1/arm-none-eabi/thumb/v7e-m+dp/hard/bits/gthr-default.h **** static inline int
 135:/Library/DaisyToolchain/0.2.0/arm/arm-none-eabi/include/c++/10.3.1/arm-none-eabi/thumb/v7e-m+dp/hard/bits/gthr-default.h **** __gthread_objc_mutex_allocate (objc_mutex_t mutex _GLIBCXX_UNUSED)
 136:/Library/DaisyToolchain/0.2.0/arm/arm-none-eabi/include/c++/10.3.1/arm-none-eabi/thumb/v7e-m+dp/hard/bits/gthr-default.h **** {
 137:/Library/DaisyToolchain/0.2.0/arm/arm-none-eabi/include/c++/10.3.1/arm-none-eabi/thumb/v7e-m+dp/hard/bits/gthr-default.h ****   return 0;
 138:/Library/DaisyToolchain/0.2.0/arm/arm-none-eabi/include/c++/10.3.1/arm-none-eabi/thumb/v7e-m+dp/hard/bits/gthr-default.h **** }
 139:/Library/DaisyToolchain/0.2.0/arm/arm-none-eabi/include/c++/10.3.1/arm-none-eabi/thumb/v7e-m+dp/hard/bits/gthr-default.h **** 
 140:/Library/DaisyToolchain/0.2.0/arm/arm-none-eabi/include/c++/10.3.1/arm-none-eabi/thumb/v7e-m+dp/hard/bits/gthr-default.h **** /* Deallocate a mutex.  */
 141:/Library/DaisyToolchain/0.2.0/arm/arm-none-eabi/include/c++/10.3.1/arm-none-eabi/thumb/v7e-m+dp/hard/bits/gthr-default.h **** static inline int
 142:/Library/DaisyToolchain/0.2.0/arm/arm-none-eabi/include/c++/10.3.1/arm-none-eabi/thumb/v7e-m+dp/hard/bits/gthr-default.h **** __gthread_objc_mutex_deallocate (objc_mutex_t mutex _GLIBCXX_UNUSED)
ARM GAS  /var/folders/2p/02m_5p7958535cp2tpgps0400000gn/T//ccf9gERz.s 			page 4


 143:/Library/DaisyToolchain/0.2.0/arm/arm-none-eabi/include/c++/10.3.1/arm-none-eabi/thumb/v7e-m+dp/hard/bits/gthr-default.h **** {
 144:/Library/DaisyToolchain/0.2.0/arm/arm-none-eabi/include/c++/10.3.1/arm-none-eabi/thumb/v7e-m+dp/hard/bits/gthr-default.h ****   return 0;
 145:/Library/DaisyToolchain/0.2.0/arm/arm-none-eabi/include/c++/10.3.1/arm-none-eabi/thumb/v7e-m+dp/hard/bits/gthr-default.h **** }
 146:/Library/DaisyToolchain/0.2.0/arm/arm-none-eabi/include/c++/10.3.1/arm-none-eabi/thumb/v7e-m+dp/hard/bits/gthr-default.h **** 
 147:/Library/DaisyToolchain/0.2.0/arm/arm-none-eabi/include/c++/10.3.1/arm-none-eabi/thumb/v7e-m+dp/hard/bits/gthr-default.h **** /* Grab a lock on a mutex.  */
 148:/Library/DaisyToolchain/0.2.0/arm/arm-none-eabi/include/c++/10.3.1/arm-none-eabi/thumb/v7e-m+dp/hard/bits/gthr-default.h **** static inline int
 149:/Library/DaisyToolchain/0.2.0/arm/arm-none-eabi/include/c++/10.3.1/arm-none-eabi/thumb/v7e-m+dp/hard/bits/gthr-default.h **** __gthread_objc_mutex_lock (objc_mutex_t mutex _GLIBCXX_UNUSED)
 150:/Library/DaisyToolchain/0.2.0/arm/arm-none-eabi/include/c++/10.3.1/arm-none-eabi/thumb/v7e-m+dp/hard/bits/gthr-default.h **** {
 151:/Library/DaisyToolchain/0.2.0/arm/arm-none-eabi/include/c++/10.3.1/arm-none-eabi/thumb/v7e-m+dp/hard/bits/gthr-default.h ****   /* There can only be one thread, so we always get the lock */
 152:/Library/DaisyToolchain/0.2.0/arm/arm-none-eabi/include/c++/10.3.1/arm-none-eabi/thumb/v7e-m+dp/hard/bits/gthr-default.h ****   return 0;
 153:/Library/DaisyToolchain/0.2.0/arm/arm-none-eabi/include/c++/10.3.1/arm-none-eabi/thumb/v7e-m+dp/hard/bits/gthr-default.h **** }
 154:/Library/DaisyToolchain/0.2.0/arm/arm-none-eabi/include/c++/10.3.1/arm-none-eabi/thumb/v7e-m+dp/hard/bits/gthr-default.h **** 
 155:/Library/DaisyToolchain/0.2.0/arm/arm-none-eabi/include/c++/10.3.1/arm-none-eabi/thumb/v7e-m+dp/hard/bits/gthr-default.h **** /* Try to grab a lock on a mutex.  */
 156:/Library/DaisyToolchain/0.2.0/arm/arm-none-eabi/include/c++/10.3.1/arm-none-eabi/thumb/v7e-m+dp/hard/bits/gthr-default.h **** static inline int
 157:/Library/DaisyToolchain/0.2.0/arm/arm-none-eabi/include/c++/10.3.1/arm-none-eabi/thumb/v7e-m+dp/hard/bits/gthr-default.h **** __gthread_objc_mutex_trylock (objc_mutex_t mutex _GLIBCXX_UNUSED)
 158:/Library/DaisyToolchain/0.2.0/arm/arm-none-eabi/include/c++/10.3.1/arm-none-eabi/thumb/v7e-m+dp/hard/bits/gthr-default.h **** {
 159:/Library/DaisyToolchain/0.2.0/arm/arm-none-eabi/include/c++/10.3.1/arm-none-eabi/thumb/v7e-m+dp/hard/bits/gthr-default.h ****   /* There can only be one thread, so we always get the lock */
 160:/Library/DaisyToolchain/0.2.0/arm/arm-none-eabi/include/c++/10.3.1/arm-none-eabi/thumb/v7e-m+dp/hard/bits/gthr-default.h ****   return 0;
 161:/Library/DaisyToolchain/0.2.0/arm/arm-none-eabi/include/c++/10.3.1/arm-none-eabi/thumb/v7e-m+dp/hard/bits/gthr-default.h **** }
 162:/Library/DaisyToolchain/0.2.0/arm/arm-none-eabi/include/c++/10.3.1/arm-none-eabi/thumb/v7e-m+dp/hard/bits/gthr-default.h **** 
 163:/Library/DaisyToolchain/0.2.0/arm/arm-none-eabi/include/c++/10.3.1/arm-none-eabi/thumb/v7e-m+dp/hard/bits/gthr-default.h **** /* Unlock the mutex */
 164:/Library/DaisyToolchain/0.2.0/arm/arm-none-eabi/include/c++/10.3.1/arm-none-eabi/thumb/v7e-m+dp/hard/bits/gthr-default.h **** static inline int
 165:/Library/DaisyToolchain/0.2.0/arm/arm-none-eabi/include/c++/10.3.1/arm-none-eabi/thumb/v7e-m+dp/hard/bits/gthr-default.h **** __gthread_objc_mutex_unlock (objc_mutex_t mutex _GLIBCXX_UNUSED)
 166:/Library/DaisyToolchain/0.2.0/arm/arm-none-eabi/include/c++/10.3.1/arm-none-eabi/thumb/v7e-m+dp/hard/bits/gthr-default.h **** {
 167:/Library/DaisyToolchain/0.2.0/arm/arm-none-eabi/include/c++/10.3.1/arm-none-eabi/thumb/v7e-m+dp/hard/bits/gthr-default.h ****   return 0;
 168:/Library/DaisyToolchain/0.2.0/arm/arm-none-eabi/include/c++/10.3.1/arm-none-eabi/thumb/v7e-m+dp/hard/bits/gthr-default.h **** }
 169:/Library/DaisyToolchain/0.2.0/arm/arm-none-eabi/include/c++/10.3.1/arm-none-eabi/thumb/v7e-m+dp/hard/bits/gthr-default.h **** 
 170:/Library/DaisyToolchain/0.2.0/arm/arm-none-eabi/include/c++/10.3.1/arm-none-eabi/thumb/v7e-m+dp/hard/bits/gthr-default.h **** /* Backend condition mutex functions */
 171:/Library/DaisyToolchain/0.2.0/arm/arm-none-eabi/include/c++/10.3.1/arm-none-eabi/thumb/v7e-m+dp/hard/bits/gthr-default.h **** 
 172:/Library/DaisyToolchain/0.2.0/arm/arm-none-eabi/include/c++/10.3.1/arm-none-eabi/thumb/v7e-m+dp/hard/bits/gthr-default.h **** /* Allocate a condition.  */
 173:/Library/DaisyToolchain/0.2.0/arm/arm-none-eabi/include/c++/10.3.1/arm-none-eabi/thumb/v7e-m+dp/hard/bits/gthr-default.h **** static inline int
 174:/Library/DaisyToolchain/0.2.0/arm/arm-none-eabi/include/c++/10.3.1/arm-none-eabi/thumb/v7e-m+dp/hard/bits/gthr-default.h **** __gthread_objc_condition_allocate (objc_condition_t condition _GLIBCXX_UNUSED)
 175:/Library/DaisyToolchain/0.2.0/arm/arm-none-eabi/include/c++/10.3.1/arm-none-eabi/thumb/v7e-m+dp/hard/bits/gthr-default.h **** {
 176:/Library/DaisyToolchain/0.2.0/arm/arm-none-eabi/include/c++/10.3.1/arm-none-eabi/thumb/v7e-m+dp/hard/bits/gthr-default.h ****   return 0;
 177:/Library/DaisyToolchain/0.2.0/arm/arm-none-eabi/include/c++/10.3.1/arm-none-eabi/thumb/v7e-m+dp/hard/bits/gthr-default.h **** }
 178:/Library/DaisyToolchain/0.2.0/arm/arm-none-eabi/include/c++/10.3.1/arm-none-eabi/thumb/v7e-m+dp/hard/bits/gthr-default.h **** 
 179:/Library/DaisyToolchain/0.2.0/arm/arm-none-eabi/include/c++/10.3.1/arm-none-eabi/thumb/v7e-m+dp/hard/bits/gthr-default.h **** /* Deallocate a condition.  */
 180:/Library/DaisyToolchain/0.2.0/arm/arm-none-eabi/include/c++/10.3.1/arm-none-eabi/thumb/v7e-m+dp/hard/bits/gthr-default.h **** static inline int
 181:/Library/DaisyToolchain/0.2.0/arm/arm-none-eabi/include/c++/10.3.1/arm-none-eabi/thumb/v7e-m+dp/hard/bits/gthr-default.h **** __gthread_objc_condition_deallocate (objc_condition_t condition _GLIBCXX_UNUSED)
 182:/Library/DaisyToolchain/0.2.0/arm/arm-none-eabi/include/c++/10.3.1/arm-none-eabi/thumb/v7e-m+dp/hard/bits/gthr-default.h **** {
 183:/Library/DaisyToolchain/0.2.0/arm/arm-none-eabi/include/c++/10.3.1/arm-none-eabi/thumb/v7e-m+dp/hard/bits/gthr-default.h ****   return 0;
 184:/Library/DaisyToolchain/0.2.0/arm/arm-none-eabi/include/c++/10.3.1/arm-none-eabi/thumb/v7e-m+dp/hard/bits/gthr-default.h **** }
 185:/Library/DaisyToolchain/0.2.0/arm/arm-none-eabi/include/c++/10.3.1/arm-none-eabi/thumb/v7e-m+dp/hard/bits/gthr-default.h **** 
 186:/Library/DaisyToolchain/0.2.0/arm/arm-none-eabi/include/c++/10.3.1/arm-none-eabi/thumb/v7e-m+dp/hard/bits/gthr-default.h **** /* Wait on the condition */
 187:/Library/DaisyToolchain/0.2.0/arm/arm-none-eabi/include/c++/10.3.1/arm-none-eabi/thumb/v7e-m+dp/hard/bits/gthr-default.h **** static inline int
 188:/Library/DaisyToolchain/0.2.0/arm/arm-none-eabi/include/c++/10.3.1/arm-none-eabi/thumb/v7e-m+dp/hard/bits/gthr-default.h **** __gthread_objc_condition_wait (objc_condition_t condition _GLIBCXX_UNUSED,
 189:/Library/DaisyToolchain/0.2.0/arm/arm-none-eabi/include/c++/10.3.1/arm-none-eabi/thumb/v7e-m+dp/hard/bits/gthr-default.h **** 			       objc_mutex_t mutex _GLIBCXX_UNUSED)
 190:/Library/DaisyToolchain/0.2.0/arm/arm-none-eabi/include/c++/10.3.1/arm-none-eabi/thumb/v7e-m+dp/hard/bits/gthr-default.h **** {
 191:/Library/DaisyToolchain/0.2.0/arm/arm-none-eabi/include/c++/10.3.1/arm-none-eabi/thumb/v7e-m+dp/hard/bits/gthr-default.h ****   return 0;
 192:/Library/DaisyToolchain/0.2.0/arm/arm-none-eabi/include/c++/10.3.1/arm-none-eabi/thumb/v7e-m+dp/hard/bits/gthr-default.h **** }
 193:/Library/DaisyToolchain/0.2.0/arm/arm-none-eabi/include/c++/10.3.1/arm-none-eabi/thumb/v7e-m+dp/hard/bits/gthr-default.h **** 
 194:/Library/DaisyToolchain/0.2.0/arm/arm-none-eabi/include/c++/10.3.1/arm-none-eabi/thumb/v7e-m+dp/hard/bits/gthr-default.h **** /* Wake up all threads waiting on this condition.  */
 195:/Library/DaisyToolchain/0.2.0/arm/arm-none-eabi/include/c++/10.3.1/arm-none-eabi/thumb/v7e-m+dp/hard/bits/gthr-default.h **** static inline int
 196:/Library/DaisyToolchain/0.2.0/arm/arm-none-eabi/include/c++/10.3.1/arm-none-eabi/thumb/v7e-m+dp/hard/bits/gthr-default.h **** __gthread_objc_condition_broadcast (objc_condition_t condition _GLIBCXX_UNUSED)
 197:/Library/DaisyToolchain/0.2.0/arm/arm-none-eabi/include/c++/10.3.1/arm-none-eabi/thumb/v7e-m+dp/hard/bits/gthr-default.h **** {
 198:/Library/DaisyToolchain/0.2.0/arm/arm-none-eabi/include/c++/10.3.1/arm-none-eabi/thumb/v7e-m+dp/hard/bits/gthr-default.h ****   return 0;
 199:/Library/DaisyToolchain/0.2.0/arm/arm-none-eabi/include/c++/10.3.1/arm-none-eabi/thumb/v7e-m+dp/hard/bits/gthr-default.h **** }
ARM GAS  /var/folders/2p/02m_5p7958535cp2tpgps0400000gn/T//ccf9gERz.s 			page 5


 200:/Library/DaisyToolchain/0.2.0/arm/arm-none-eabi/include/c++/10.3.1/arm-none-eabi/thumb/v7e-m+dp/hard/bits/gthr-default.h **** 
 201:/Library/DaisyToolchain/0.2.0/arm/arm-none-eabi/include/c++/10.3.1/arm-none-eabi/thumb/v7e-m+dp/hard/bits/gthr-default.h **** /* Wake up one thread waiting on this condition.  */
 202:/Library/DaisyToolchain/0.2.0/arm/arm-none-eabi/include/c++/10.3.1/arm-none-eabi/thumb/v7e-m+dp/hard/bits/gthr-default.h **** static inline int
 203:/Library/DaisyToolchain/0.2.0/arm/arm-none-eabi/include/c++/10.3.1/arm-none-eabi/thumb/v7e-m+dp/hard/bits/gthr-default.h **** __gthread_objc_condition_signal (objc_condition_t condition _GLIBCXX_UNUSED)
 204:/Library/DaisyToolchain/0.2.0/arm/arm-none-eabi/include/c++/10.3.1/arm-none-eabi/thumb/v7e-m+dp/hard/bits/gthr-default.h **** {
 205:/Library/DaisyToolchain/0.2.0/arm/arm-none-eabi/include/c++/10.3.1/arm-none-eabi/thumb/v7e-m+dp/hard/bits/gthr-default.h ****   return 0;
 206:/Library/DaisyToolchain/0.2.0/arm/arm-none-eabi/include/c++/10.3.1/arm-none-eabi/thumb/v7e-m+dp/hard/bits/gthr-default.h **** }
 207:/Library/DaisyToolchain/0.2.0/arm/arm-none-eabi/include/c++/10.3.1/arm-none-eabi/thumb/v7e-m+dp/hard/bits/gthr-default.h **** 
 208:/Library/DaisyToolchain/0.2.0/arm/arm-none-eabi/include/c++/10.3.1/arm-none-eabi/thumb/v7e-m+dp/hard/bits/gthr-default.h **** #else /* _LIBOBJC */
 209:/Library/DaisyToolchain/0.2.0/arm/arm-none-eabi/include/c++/10.3.1/arm-none-eabi/thumb/v7e-m+dp/hard/bits/gthr-default.h **** 
 210:/Library/DaisyToolchain/0.2.0/arm/arm-none-eabi/include/c++/10.3.1/arm-none-eabi/thumb/v7e-m+dp/hard/bits/gthr-default.h **** static inline int
 211:/Library/DaisyToolchain/0.2.0/arm/arm-none-eabi/include/c++/10.3.1/arm-none-eabi/thumb/v7e-m+dp/hard/bits/gthr-default.h **** __gthread_active_p (void)
 212:/Library/DaisyToolchain/0.2.0/arm/arm-none-eabi/include/c++/10.3.1/arm-none-eabi/thumb/v7e-m+dp/hard/bits/gthr-default.h **** {
 213:/Library/DaisyToolchain/0.2.0/arm/arm-none-eabi/include/c++/10.3.1/arm-none-eabi/thumb/v7e-m+dp/hard/bits/gthr-default.h ****   return 0;
 214:/Library/DaisyToolchain/0.2.0/arm/arm-none-eabi/include/c++/10.3.1/arm-none-eabi/thumb/v7e-m+dp/hard/bits/gthr-default.h **** }
 215:/Library/DaisyToolchain/0.2.0/arm/arm-none-eabi/include/c++/10.3.1/arm-none-eabi/thumb/v7e-m+dp/hard/bits/gthr-default.h **** 
 216:/Library/DaisyToolchain/0.2.0/arm/arm-none-eabi/include/c++/10.3.1/arm-none-eabi/thumb/v7e-m+dp/hard/bits/gthr-default.h **** static inline int
 217:/Library/DaisyToolchain/0.2.0/arm/arm-none-eabi/include/c++/10.3.1/arm-none-eabi/thumb/v7e-m+dp/hard/bits/gthr-default.h **** __gthread_once (__gthread_once_t *__once _GLIBCXX_UNUSED, void (*__func) (void) _GLIBCXX_UNUSED)
 218:/Library/DaisyToolchain/0.2.0/arm/arm-none-eabi/include/c++/10.3.1/arm-none-eabi/thumb/v7e-m+dp/hard/bits/gthr-default.h **** {
 219:/Library/DaisyToolchain/0.2.0/arm/arm-none-eabi/include/c++/10.3.1/arm-none-eabi/thumb/v7e-m+dp/hard/bits/gthr-default.h ****   return 0;
 220:/Library/DaisyToolchain/0.2.0/arm/arm-none-eabi/include/c++/10.3.1/arm-none-eabi/thumb/v7e-m+dp/hard/bits/gthr-default.h **** }
 221:/Library/DaisyToolchain/0.2.0/arm/arm-none-eabi/include/c++/10.3.1/arm-none-eabi/thumb/v7e-m+dp/hard/bits/gthr-default.h **** 
 222:/Library/DaisyToolchain/0.2.0/arm/arm-none-eabi/include/c++/10.3.1/arm-none-eabi/thumb/v7e-m+dp/hard/bits/gthr-default.h **** static inline int _GLIBCXX_UNUSED
 223:/Library/DaisyToolchain/0.2.0/arm/arm-none-eabi/include/c++/10.3.1/arm-none-eabi/thumb/v7e-m+dp/hard/bits/gthr-default.h **** __gthread_key_create (__gthread_key_t *__key _GLIBCXX_UNUSED, void (*__func) (void *) _GLIBCXX_UNUS
 224:/Library/DaisyToolchain/0.2.0/arm/arm-none-eabi/include/c++/10.3.1/arm-none-eabi/thumb/v7e-m+dp/hard/bits/gthr-default.h **** {
 225:/Library/DaisyToolchain/0.2.0/arm/arm-none-eabi/include/c++/10.3.1/arm-none-eabi/thumb/v7e-m+dp/hard/bits/gthr-default.h ****   return 0;
 226:/Library/DaisyToolchain/0.2.0/arm/arm-none-eabi/include/c++/10.3.1/arm-none-eabi/thumb/v7e-m+dp/hard/bits/gthr-default.h **** }
 227:/Library/DaisyToolchain/0.2.0/arm/arm-none-eabi/include/c++/10.3.1/arm-none-eabi/thumb/v7e-m+dp/hard/bits/gthr-default.h **** 
 228:/Library/DaisyToolchain/0.2.0/arm/arm-none-eabi/include/c++/10.3.1/arm-none-eabi/thumb/v7e-m+dp/hard/bits/gthr-default.h **** static int _GLIBCXX_UNUSED
 229:/Library/DaisyToolchain/0.2.0/arm/arm-none-eabi/include/c++/10.3.1/arm-none-eabi/thumb/v7e-m+dp/hard/bits/gthr-default.h **** __gthread_key_delete (__gthread_key_t __key _GLIBCXX_UNUSED)
 230:/Library/DaisyToolchain/0.2.0/arm/arm-none-eabi/include/c++/10.3.1/arm-none-eabi/thumb/v7e-m+dp/hard/bits/gthr-default.h **** {
  33              		.loc 1 230 1
  34              		.cfi_startproc
  35              		@ args = 0, pretend = 0, frame = 8
  36              		@ frame_needed = 1, uses_anonymous_args = 0
  37              		@ link register save eliminated.
  38 0000 80B4     		push	{r7}
  39              		.cfi_def_cfa_offset 4
  40              		.cfi_offset 7, -4
  41 0002 83B0     		sub	sp, sp, #12
  42              		.cfi_def_cfa_offset 16
  43 0004 00AF     		add	r7, sp, #0
  44              		.cfi_def_cfa_register 7
  45 0006 7860     		str	r0, [r7, #4]
 231:/Library/DaisyToolchain/0.2.0/arm/arm-none-eabi/include/c++/10.3.1/arm-none-eabi/thumb/v7e-m+dp/hard/bits/gthr-default.h ****   return 0;
  46              		.loc 1 231 10
  47 0008 0023     		movs	r3, #0
 232:/Library/DaisyToolchain/0.2.0/arm/arm-none-eabi/include/c++/10.3.1/arm-none-eabi/thumb/v7e-m+dp/hard/bits/gthr-default.h **** }
  48              		.loc 1 232 1
  49 000a 1846     		mov	r0, r3
  50 000c 0C37     		adds	r7, r7, #12
  51              		.cfi_def_cfa_offset 4
  52 000e BD46     		mov	sp, r7
  53              		.cfi_def_cfa_register 13
  54              		@ sp needed
  55 0010 5DF8047B 		ldr	r7, [sp], #4
  56              		.cfi_restore 7
ARM GAS  /var/folders/2p/02m_5p7958535cp2tpgps0400000gn/T//ccf9gERz.s 			page 6


  57              		.cfi_def_cfa_offset 0
  58 0014 7047     		bx	lr
  59              		.cfi_endproc
  60              	.LFE1228:
  62              		.section	.rodata._ZN7daisyspL9kRandFracE,"a"
  63              		.align	2
  66              	_ZN7daisyspL9kRandFracE:
  67 0000 00000030 		.word	805306368
  68              		.section	.rodata._ZN7daisyspL11kOneTwelfthE,"a"
  69              		.align	2
  72              	_ZN7daisyspL11kOneTwelfthE:
  73 0000 ABAAAA3D 		.word	1034594987
  74              		.section	.text._ZN7daisysp7LimiterC2Ev,"axG",%progbits,_ZN7daisysp7LimiterC5Ev,comdat
  75              		.align	1
  76              		.weak	_ZN7daisysp7LimiterC2Ev
  77              		.syntax unified
  78              		.thumb
  79              		.thumb_func
  81              	_ZN7daisysp7LimiterC2Ev:
  82              	.LFB2922:
  83              		.file 2 "../DaisySP/Source/Dynamics/limiter.h"
   1:../DaisySP/Source/Dynamics/limiter.h **** /*
   2:../DaisySP/Source/Dynamics/limiter.h **** Copyright (c) 2020 Electrosmith, Corp, Emilie Gillet
   3:../DaisySP/Source/Dynamics/limiter.h **** 
   4:../DaisySP/Source/Dynamics/limiter.h **** Use of this source code is governed by an MIT-style
   5:../DaisySP/Source/Dynamics/limiter.h **** license that can be found in the LICENSE file or at
   6:../DaisySP/Source/Dynamics/limiter.h **** https://opensource.org/licenses/MIT.
   7:../DaisySP/Source/Dynamics/limiter.h **** */
   8:../DaisySP/Source/Dynamics/limiter.h **** 
   9:../DaisySP/Source/Dynamics/limiter.h **** #pragma once
  10:../DaisySP/Source/Dynamics/limiter.h **** #ifndef LIMITER_H
  11:../DaisySP/Source/Dynamics/limiter.h **** #define LIMITER_H
  12:../DaisySP/Source/Dynamics/limiter.h **** #include <stdlib.h>
  13:../DaisySP/Source/Dynamics/limiter.h **** namespace daisysp
  14:../DaisySP/Source/Dynamics/limiter.h **** {
  15:../DaisySP/Source/Dynamics/limiter.h **** /** Simple Peak Limiter
  16:../DaisySP/Source/Dynamics/limiter.h **** 
  17:../DaisySP/Source/Dynamics/limiter.h **** This was extracted from pichenettes/stmlib.
  18:../DaisySP/Source/Dynamics/limiter.h **** 
  19:../DaisySP/Source/Dynamics/limiter.h **** Credit to pichenettes/Mutable Instruments
  20:../DaisySP/Source/Dynamics/limiter.h **** */
  21:../DaisySP/Source/Dynamics/limiter.h **** class Limiter
  22:../DaisySP/Source/Dynamics/limiter.h **** {
  23:../DaisySP/Source/Dynamics/limiter.h ****   public:
  24:../DaisySP/Source/Dynamics/limiter.h ****     Limiter() {}
  84              		.loc 2 24 5
  85              		.cfi_startproc
  86              		@ args = 0, pretend = 0, frame = 8
  87              		@ frame_needed = 1, uses_anonymous_args = 0
  88              		@ link register save eliminated.
  89 0000 80B4     		push	{r7}
  90              		.cfi_def_cfa_offset 4
  91              		.cfi_offset 7, -4
  92 0002 83B0     		sub	sp, sp, #12
  93              		.cfi_def_cfa_offset 16
  94 0004 00AF     		add	r7, sp, #0
  95              		.cfi_def_cfa_register 7
ARM GAS  /var/folders/2p/02m_5p7958535cp2tpgps0400000gn/T//ccf9gERz.s 			page 7


  96 0006 7860     		str	r0, [r7, #4]
  97              		.loc 2 24 16
  98 0008 7B68     		ldr	r3, [r7, #4]
  99 000a 1846     		mov	r0, r3
 100 000c 0C37     		adds	r7, r7, #12
 101              		.cfi_def_cfa_offset 4
 102 000e BD46     		mov	sp, r7
 103              		.cfi_def_cfa_register 13
 104              		@ sp needed
 105 0010 5DF8047B 		ldr	r7, [sp], #4
 106              		.cfi_restore 7
 107              		.cfi_def_cfa_offset 0
 108 0014 7047     		bx	lr
 109              		.cfi_endproc
 110              	.LFE2922:
 112              		.weak	_ZN7daisysp7LimiterC1Ev
 113              		.thumb_set _ZN7daisysp7LimiterC1Ev,_ZN7daisysp7LimiterC2Ev
 114              		.section	.text._ZN7daisysp7LimiterD2Ev,"axG",%progbits,_ZN7daisysp7LimiterD5Ev,comdat
 115              		.align	1
 116              		.weak	_ZN7daisysp7LimiterD2Ev
 117              		.syntax unified
 118              		.thumb
 119              		.thumb_func
 121              	_ZN7daisysp7LimiterD2Ev:
 122              	.LFB2925:
  25:../DaisySP/Source/Dynamics/limiter.h ****     ~Limiter() {}
 123              		.loc 2 25 5
 124              		.cfi_startproc
 125              		@ args = 0, pretend = 0, frame = 8
 126              		@ frame_needed = 1, uses_anonymous_args = 0
 127              		@ link register save eliminated.
 128 0000 80B4     		push	{r7}
 129              		.cfi_def_cfa_offset 4
 130              		.cfi_offset 7, -4
 131 0002 83B0     		sub	sp, sp, #12
 132              		.cfi_def_cfa_offset 16
 133 0004 00AF     		add	r7, sp, #0
 134              		.cfi_def_cfa_register 7
 135 0006 7860     		str	r0, [r7, #4]
 136              		.loc 2 25 17
 137 0008 7B68     		ldr	r3, [r7, #4]
 138 000a 1846     		mov	r0, r3
 139 000c 0C37     		adds	r7, r7, #12
 140              		.cfi_def_cfa_offset 4
 141 000e BD46     		mov	sp, r7
 142              		.cfi_def_cfa_register 13
 143              		@ sp needed
 144 0010 5DF8047B 		ldr	r7, [sp], #4
 145              		.cfi_restore 7
 146              		.cfi_def_cfa_offset 0
 147 0014 7047     		bx	lr
 148              		.cfi_endproc
 149              	.LFE2925:
 151              		.weak	_ZN7daisysp7LimiterD1Ev
 152              		.thumb_set _ZN7daisysp7LimiterD1Ev,_ZN7daisysp7LimiterD2Ev
 153              		.section	.text._ZN7daisysp12ChorusEngineC2Ev,"axG",%progbits,_ZN7daisysp12ChorusEngineC5Ev,comdat
 154              		.align	1
ARM GAS  /var/folders/2p/02m_5p7958535cp2tpgps0400000gn/T//ccf9gERz.s 			page 8


 155              		.weak	_ZN7daisysp12ChorusEngineC2Ev
 156              		.syntax unified
 157              		.thumb
 158              		.thumb_func
 160              	_ZN7daisysp12ChorusEngineC2Ev:
 161              	.LFB2949:
 162              		.file 3 "../DaisySP/Source/Effects/chorus.h"
   1:../DaisySP/Source/Effects/chorus.h **** /*
   2:../DaisySP/Source/Effects/chorus.h **** Copyright (c) 2020 Electrosmith, Corp
   3:../DaisySP/Source/Effects/chorus.h **** 
   4:../DaisySP/Source/Effects/chorus.h **** Use of this source code is governed by an MIT-style
   5:../DaisySP/Source/Effects/chorus.h **** license that can be found in the LICENSE file or at
   6:../DaisySP/Source/Effects/chorus.h **** https://opensource.org/licenses/MIT.
   7:../DaisySP/Source/Effects/chorus.h **** */
   8:../DaisySP/Source/Effects/chorus.h **** 
   9:../DaisySP/Source/Effects/chorus.h **** #pragma once
  10:../DaisySP/Source/Effects/chorus.h **** #ifndef DSY_CHORUS_H
  11:../DaisySP/Source/Effects/chorus.h **** #define DSY_CHORUS_H
  12:../DaisySP/Source/Effects/chorus.h **** #ifdef __cplusplus
  13:../DaisySP/Source/Effects/chorus.h **** 
  14:../DaisySP/Source/Effects/chorus.h **** #include <stdint.h>
  15:../DaisySP/Source/Effects/chorus.h **** #include "Utility/delayline.h"
  16:../DaisySP/Source/Effects/chorus.h **** #include "../../../src/sample.h"
  17:../DaisySP/Source/Effects/chorus.h **** 
  18:../DaisySP/Source/Effects/chorus.h **** /** @file chorus.h */
  19:../DaisySP/Source/Effects/chorus.h **** 
  20:../DaisySP/Source/Effects/chorus.h **** namespace daisysp
  21:../DaisySP/Source/Effects/chorus.h **** {
  22:../DaisySP/Source/Effects/chorus.h **** /**  
  23:../DaisySP/Source/Effects/chorus.h ****     @brief Single Chorus engine. Used in Chorus.
  24:../DaisySP/Source/Effects/chorus.h ****     @author Ben Sergentanis
  25:../DaisySP/Source/Effects/chorus.h **** */
  26:../DaisySP/Source/Effects/chorus.h **** class ChorusEngine
  27:../DaisySP/Source/Effects/chorus.h **** {
  28:../DaisySP/Source/Effects/chorus.h ****   public:
  29:../DaisySP/Source/Effects/chorus.h ****     ChorusEngine() {}
 163              		.loc 3 29 5
 164              		.cfi_startproc
 165              		@ args = 0, pretend = 0, frame = 8
 166              		@ frame_needed = 1, uses_anonymous_args = 0
 167 0000 80B5     		push	{r7, lr}
 168              		.cfi_def_cfa_offset 8
 169              		.cfi_offset 7, -8
 170              		.cfi_offset 14, -4
 171 0002 82B0     		sub	sp, sp, #8
 172              		.cfi_def_cfa_offset 16
 173 0004 00AF     		add	r7, sp, #0
 174              		.cfi_def_cfa_register 7
 175 0006 7860     		str	r0, [r7, #4]
 176              	.LBB2:
 177              		.loc 3 29 20
 178 0008 7B68     		ldr	r3, [r7, #4]
 179 000a 1833     		adds	r3, r3, #24
 180 000c 1846     		mov	r0, r3
 181 000e FFF7FEFF 		bl	_ZN7daisysp9DelayLineIfLj2400EEC1Ev
 182              	.LBE2:
 183              		.loc 3 29 21
ARM GAS  /var/folders/2p/02m_5p7958535cp2tpgps0400000gn/T//ccf9gERz.s 			page 9


 184 0012 7B68     		ldr	r3, [r7, #4]
 185 0014 1846     		mov	r0, r3
 186 0016 0837     		adds	r7, r7, #8
 187              		.cfi_def_cfa_offset 8
 188 0018 BD46     		mov	sp, r7
 189              		.cfi_def_cfa_register 13
 190              		@ sp needed
 191 001a 80BD     		pop	{r7, pc}
 192              		.cfi_endproc
 193              	.LFE2949:
 195              		.weak	_ZN7daisysp12ChorusEngineC1Ev
 196              		.thumb_set _ZN7daisysp12ChorusEngineC1Ev,_ZN7daisysp12ChorusEngineC2Ev
 197              		.section	.text._ZN7daisysp12ChorusEngineD2Ev,"axG",%progbits,_ZN7daisysp12ChorusEngineD5Ev,comdat
 198              		.align	1
 199              		.weak	_ZN7daisysp12ChorusEngineD2Ev
 200              		.syntax unified
 201              		.thumb
 202              		.thumb_func
 204              	_ZN7daisysp12ChorusEngineD2Ev:
 205              	.LFB2952:
  30:../DaisySP/Source/Effects/chorus.h ****     ~ChorusEngine() {}
 206              		.loc 3 30 5
 207              		.cfi_startproc
 208              		@ args = 0, pretend = 0, frame = 8
 209              		@ frame_needed = 1, uses_anonymous_args = 0
 210 0000 80B5     		push	{r7, lr}
 211              		.cfi_def_cfa_offset 8
 212              		.cfi_offset 7, -8
 213              		.cfi_offset 14, -4
 214 0002 82B0     		sub	sp, sp, #8
 215              		.cfi_def_cfa_offset 16
 216 0004 00AF     		add	r7, sp, #0
 217              		.cfi_def_cfa_register 7
 218 0006 7860     		str	r0, [r7, #4]
 219              	.LBB3:
 220              		.loc 3 30 21
 221 0008 7B68     		ldr	r3, [r7, #4]
 222 000a 1833     		adds	r3, r3, #24
 223 000c 1846     		mov	r0, r3
 224 000e FFF7FEFF 		bl	_ZN7daisysp9DelayLineIfLj2400EED1Ev
 225              	.LBE3:
 226              		.loc 3 30 22
 227 0012 7B68     		ldr	r3, [r7, #4]
 228 0014 1846     		mov	r0, r3
 229 0016 0837     		adds	r7, r7, #8
 230              		.cfi_def_cfa_offset 8
 231 0018 BD46     		mov	sp, r7
 232              		.cfi_def_cfa_register 13
 233              		@ sp needed
 234 001a 80BD     		pop	{r7, pc}
 235              		.cfi_endproc
 236              	.LFE2952:
 238              		.weak	_ZN7daisysp12ChorusEngineD1Ev
 239              		.thumb_set _ZN7daisysp12ChorusEngineD1Ev,_ZN7daisysp12ChorusEngineD2Ev
 240              		.section	.text._ZN7daisysp6ChorusC2Ev,"axG",%progbits,_ZN7daisysp6ChorusC5Ev,comdat
 241              		.align	1
 242              		.weak	_ZN7daisysp6ChorusC2Ev
ARM GAS  /var/folders/2p/02m_5p7958535cp2tpgps0400000gn/T//ccf9gERz.s 			page 10


 243              		.syntax unified
 244              		.thumb
 245              		.thumb_func
 247              	_ZN7daisysp6ChorusC2Ev:
 248              	.LFB2955:
  31:../DaisySP/Source/Effects/chorus.h **** 
  32:../DaisySP/Source/Effects/chorus.h ****     /** Initialize the module
  33:../DaisySP/Source/Effects/chorus.h ****         \param sample_rate Audio engine sample rate.
  34:../DaisySP/Source/Effects/chorus.h ****     */
  35:../DaisySP/Source/Effects/chorus.h ****     void Init(float sample_rate);
  36:../DaisySP/Source/Effects/chorus.h **** 
  37:../DaisySP/Source/Effects/chorus.h ****     /** Get the next sample
  38:../DaisySP/Source/Effects/chorus.h ****         \param in Sample to process
  39:../DaisySP/Source/Effects/chorus.h ****     */
  40:../DaisySP/Source/Effects/chorus.h ****     float Process(float in);
  41:../DaisySP/Source/Effects/chorus.h **** 
  42:../DaisySP/Source/Effects/chorus.h ****     /** How much to modulate the delay by.
  43:../DaisySP/Source/Effects/chorus.h ****         \param depth Works 0-1.
  44:../DaisySP/Source/Effects/chorus.h ****     */
  45:../DaisySP/Source/Effects/chorus.h ****     void SetLfoDepth(float depth);
  46:../DaisySP/Source/Effects/chorus.h **** 
  47:../DaisySP/Source/Effects/chorus.h ****     /** Set lfo frequency.
  48:../DaisySP/Source/Effects/chorus.h ****         \param freq Frequency in Hz
  49:../DaisySP/Source/Effects/chorus.h ****     */
  50:../DaisySP/Source/Effects/chorus.h ****     void SetLfoFreq(float freq);
  51:../DaisySP/Source/Effects/chorus.h **** 
  52:../DaisySP/Source/Effects/chorus.h ****     /** Set the internal delay rate. 
  53:../DaisySP/Source/Effects/chorus.h ****         \param delay Tuned for 0-1. Maps to .1 to 50 ms.
  54:../DaisySP/Source/Effects/chorus.h ****     */
  55:../DaisySP/Source/Effects/chorus.h ****     void SetDelay(float delay);
  56:../DaisySP/Source/Effects/chorus.h **** 
  57:../DaisySP/Source/Effects/chorus.h ****     /** Set the delay time in ms.
  58:../DaisySP/Source/Effects/chorus.h ****         \param ms Delay time in ms, 0 to 50 ms.
  59:../DaisySP/Source/Effects/chorus.h ****     */
  60:../DaisySP/Source/Effects/chorus.h ****     void SetDelayMs(float ms);
  61:../DaisySP/Source/Effects/chorus.h **** 
  62:../DaisySP/Source/Effects/chorus.h ****     /** Set the feedback amount.
  63:../DaisySP/Source/Effects/chorus.h ****         \param feedback Amount from 0-1.
  64:../DaisySP/Source/Effects/chorus.h ****     */
  65:../DaisySP/Source/Effects/chorus.h ****     void SetFeedback(float feedback);
  66:../DaisySP/Source/Effects/chorus.h **** 
  67:../DaisySP/Source/Effects/chorus.h ****   private:
  68:../DaisySP/Source/Effects/chorus.h ****     float                    sample_rate_;
  69:../DaisySP/Source/Effects/chorus.h ****     static constexpr int32_t kDelayLength
  70:../DaisySP/Source/Effects/chorus.h ****         = 2400; // 50 ms at 48kHz = .05 * 48000
  71:../DaisySP/Source/Effects/chorus.h **** 
  72:../DaisySP/Source/Effects/chorus.h ****     //triangle lfos
  73:../DaisySP/Source/Effects/chorus.h ****     float lfo_phase_;
  74:../DaisySP/Source/Effects/chorus.h ****     float lfo_freq_;
  75:../DaisySP/Source/Effects/chorus.h ****     float lfo_amp_;
  76:../DaisySP/Source/Effects/chorus.h **** 
  77:../DaisySP/Source/Effects/chorus.h ****     float feedback_;
  78:../DaisySP/Source/Effects/chorus.h **** 
  79:../DaisySP/Source/Effects/chorus.h ****     float delay_;
  80:../DaisySP/Source/Effects/chorus.h **** 
  81:../DaisySP/Source/Effects/chorus.h ****     DelayLine<float, kDelayLength> del_;
  82:../DaisySP/Source/Effects/chorus.h **** 
ARM GAS  /var/folders/2p/02m_5p7958535cp2tpgps0400000gn/T//ccf9gERz.s 			page 11


  83:../DaisySP/Source/Effects/chorus.h ****     float ProcessLfo();
  84:../DaisySP/Source/Effects/chorus.h **** };
  85:../DaisySP/Source/Effects/chorus.h **** 
  86:../DaisySP/Source/Effects/chorus.h **** //wraps up all of the chorus engines
  87:../DaisySP/Source/Effects/chorus.h **** /**  
  88:../DaisySP/Source/Effects/chorus.h ****     @brief Chorus Effect.
  89:../DaisySP/Source/Effects/chorus.h ****     @author Ben Sergentanis
  90:../DaisySP/Source/Effects/chorus.h ****     @date Jan 2021
  91:../DaisySP/Source/Effects/chorus.h ****     Based on https://www.izotope.com/en/learn/understanding-chorus-flangers-and-phasers-in-audio-pr
  92:../DaisySP/Source/Effects/chorus.h ****     and https://www.researchgate.net/publication/236629475_Implementing_Professional_Audio_Effects_
  93:../DaisySP/Source/Effects/chorus.h **** */
  94:../DaisySP/Source/Effects/chorus.h **** class Chorus
  95:../DaisySP/Source/Effects/chorus.h **** {
  96:../DaisySP/Source/Effects/chorus.h ****   public:
  97:../DaisySP/Source/Effects/chorus.h ****     Chorus() {}
 249              		.loc 3 97 5
 250              		.cfi_startproc
 251              		@ args = 0, pretend = 0, frame = 8
 252              		@ frame_needed = 1, uses_anonymous_args = 0
 253 0000 B0B5     		push	{r4, r5, r7, lr}
 254              		.cfi_def_cfa_offset 16
 255              		.cfi_offset 4, -16
 256              		.cfi_offset 5, -12
 257              		.cfi_offset 7, -8
 258              		.cfi_offset 14, -4
 259 0002 82B0     		sub	sp, sp, #8
 260              		.cfi_def_cfa_offset 24
 261 0004 00AF     		add	r7, sp, #0
 262              		.cfi_def_cfa_register 7
 263 0006 7860     		str	r0, [r7, #4]
 264              	.LBB4:
 265              		.loc 3 97 14
 266 0008 7B68     		ldr	r3, [r7, #4]
 267 000a 0124     		movs	r4, #1
 268 000c 1D46     		mov	r5, r3
 269              	.L13:
 270              		.loc 3 97 14 is_stmt 0 discriminator 4
 271 000e 002C     		cmp	r4, #0
 272 0010 08DB     		blt	.L12
 273              		.loc 3 97 14 discriminator 3
 274 0012 2846     		mov	r0, r5
 275 0014 FFF7FEFF 		bl	_ZN7daisysp12ChorusEngineC1Ev
 276 0018 42F2A453 		movw	r3, #9636
 277 001c 2B44     		add	r3, r3, r5
 278 001e 1D46     		mov	r5, r3
 279 0020 013C     		subs	r4, r4, #1
 280 0022 F4E7     		b	.L13
 281              	.L12:
 282              	.LBE4:
 283              		.loc 3 97 15 is_stmt 1 discriminator 2
 284 0024 7B68     		ldr	r3, [r7, #4]
 285 0026 1846     		mov	r0, r3
 286 0028 0837     		adds	r7, r7, #8
 287              		.cfi_def_cfa_offset 16
 288 002a BD46     		mov	sp, r7
 289              		.cfi_def_cfa_register 13
 290              		@ sp needed
ARM GAS  /var/folders/2p/02m_5p7958535cp2tpgps0400000gn/T//ccf9gERz.s 			page 12


 291 002c B0BD     		pop	{r4, r5, r7, pc}
 292              		.cfi_endproc
 293              	.LFE2955:
 295              		.weak	_ZN7daisysp6ChorusC1Ev
 296              		.thumb_set _ZN7daisysp6ChorusC1Ev,_ZN7daisysp6ChorusC2Ev
 297              		.section	.text._ZN7daisysp6ChorusD2Ev,"axG",%progbits,_ZN7daisysp6ChorusD5Ev,comdat
 298              		.align	1
 299              		.weak	_ZN7daisysp6ChorusD2Ev
 300              		.syntax unified
 301              		.thumb
 302              		.thumb_func
 304              	_ZN7daisysp6ChorusD2Ev:
 305              	.LFB2958:
  98:../DaisySP/Source/Effects/chorus.h ****     ~Chorus() {}
 306              		.loc 3 98 5
 307              		.cfi_startproc
 308              		@ args = 0, pretend = 0, frame = 8
 309              		@ frame_needed = 1, uses_anonymous_args = 0
 310 0000 90B5     		push	{r4, r7, lr}
 311              		.cfi_def_cfa_offset 12
 312              		.cfi_offset 4, -12
 313              		.cfi_offset 7, -8
 314              		.cfi_offset 14, -4
 315 0002 83B0     		sub	sp, sp, #12
 316              		.cfi_def_cfa_offset 24
 317 0004 00AF     		add	r7, sp, #0
 318              		.cfi_def_cfa_register 7
 319 0006 7860     		str	r0, [r7, #4]
 320              	.LBB5:
 321              		.loc 3 98 15
 322 0008 7B68     		ldr	r3, [r7, #4]
 323 000a 002B     		cmp	r3, #0
 324 000c 0DD0     		beq	.L16
 325              		.loc 3 98 15 is_stmt 0 discriminator 1
 326 000e 7B68     		ldr	r3, [r7, #4]
 327 0010 44F64834 		movw	r4, #19272
 328 0014 1C44     		add	r4, r4, r3
 329              	.L17:
 330              		.loc 3 98 15 discriminator 6
 331 0016 7B68     		ldr	r3, [r7, #4]
 332 0018 9C42     		cmp	r4, r3
 333 001a 06D0     		beq	.L16
 334              		.loc 3 98 15 discriminator 5
 335 001c 054B     		ldr	r3, .L19
 336 001e 2344     		add	r3, r3, r4
 337 0020 1C46     		mov	r4, r3
 338 0022 2046     		mov	r0, r4
 339 0024 FFF7FEFF 		bl	_ZN7daisysp12ChorusEngineD1Ev
 340 0028 F5E7     		b	.L17
 341              	.L16:
 342              	.LBE5:
 343              		.loc 3 98 16 is_stmt 1 discriminator 7
 344 002a 7B68     		ldr	r3, [r7, #4]
 345 002c 1846     		mov	r0, r3
 346 002e 0C37     		adds	r7, r7, #12
 347              		.cfi_def_cfa_offset 12
 348 0030 BD46     		mov	sp, r7
ARM GAS  /var/folders/2p/02m_5p7958535cp2tpgps0400000gn/T//ccf9gERz.s 			page 13


 349              		.cfi_def_cfa_register 13
 350              		@ sp needed
 351 0032 90BD     		pop	{r4, r7, pc}
 352              	.L20:
 353              		.align	2
 354              	.L19:
 355 0034 5CDAFFFF 		.word	-9636
 356              		.cfi_endproc
 357              	.LFE2958:
 359              		.weak	_ZN7daisysp6ChorusD1Ev
 360              		.thumb_set _ZN7daisysp6ChorusD1Ev,_ZN7daisysp6ChorusD2Ev
 361              		.section	.text._ZN7daisysp7OnePoleC2Ev,"axG",%progbits,_ZN7daisysp7OnePoleC5Ev,comdat
 362              		.align	1
 363              		.weak	_ZN7daisysp7OnePoleC2Ev
 364              		.syntax unified
 365              		.thumb
 366              		.thumb_func
 368              	_ZN7daisysp7OnePoleC2Ev:
 369              	.LFB3271:
 370              		.file 4 "../DaisySP/Source/Filters/onepole.h"
   1:../DaisySP/Source/Filters/onepole.h **** /*
   2:../DaisySP/Source/Filters/onepole.h **** Copyright (c) 2020 Electrosmith, Corp, Emilie Gillet
   3:../DaisySP/Source/Filters/onepole.h **** 
   4:../DaisySP/Source/Filters/onepole.h **** Use of this source code is governed by an MIT-style
   5:../DaisySP/Source/Filters/onepole.h **** license that can be found in the LICENSE file or at
   6:../DaisySP/Source/Filters/onepole.h **** https://opensource.org/licenses/MIT.
   7:../DaisySP/Source/Filters/onepole.h **** */
   8:../DaisySP/Source/Filters/onepole.h **** 
   9:../DaisySP/Source/Filters/onepole.h **** #ifndef DSY_ONEPOLE_H
  10:../DaisySP/Source/Filters/onepole.h **** #define DSY_ONEPOLE_H
  11:../DaisySP/Source/Filters/onepole.h **** 
  12:../DaisySP/Source/Filters/onepole.h **** #include "Utility/dsp.h"
  13:../DaisySP/Source/Filters/onepole.h **** #include <cmath>
  14:../DaisySP/Source/Filters/onepole.h **** #include <algorithm>
  15:../DaisySP/Source/Filters/onepole.h **** 
  16:../DaisySP/Source/Filters/onepole.h **** namespace daisysp
  17:../DaisySP/Source/Filters/onepole.h **** {
  18:../DaisySP/Source/Filters/onepole.h **** /**         
  19:../DaisySP/Source/Filters/onepole.h ****     @brief One Pole Lowpass / Highpass Filter
  20:../DaisySP/Source/Filters/onepole.h ****     @author beserge
  21:../DaisySP/Source/Filters/onepole.h ****     @date Dec 2023 
  22:../DaisySP/Source/Filters/onepole.h ****     Ported from pichenettes/stmlib/dsp/filter.h \n 
  23:../DaisySP/Source/Filters/onepole.h ****     \n to an independent module. \n
  24:../DaisySP/Source/Filters/onepole.h ****     Original code written by Emilie Gillet. \n
  25:../DaisySP/Source/Filters/onepole.h **** */
  26:../DaisySP/Source/Filters/onepole.h **** class OnePole
  27:../DaisySP/Source/Filters/onepole.h **** {
  28:../DaisySP/Source/Filters/onepole.h ****   public:
  29:../DaisySP/Source/Filters/onepole.h ****     OnePole() {}
 371              		.loc 4 29 5
 372              		.cfi_startproc
 373              		@ args = 0, pretend = 0, frame = 8
 374              		@ frame_needed = 1, uses_anonymous_args = 0
 375              		@ link register save eliminated.
 376 0000 80B4     		push	{r7}
 377              		.cfi_def_cfa_offset 4
 378              		.cfi_offset 7, -4
ARM GAS  /var/folders/2p/02m_5p7958535cp2tpgps0400000gn/T//ccf9gERz.s 			page 14


 379 0002 83B0     		sub	sp, sp, #12
 380              		.cfi_def_cfa_offset 16
 381 0004 00AF     		add	r7, sp, #0
 382              		.cfi_def_cfa_register 7
 383 0006 7860     		str	r0, [r7, #4]
 384              		.loc 4 29 16
 385 0008 7B68     		ldr	r3, [r7, #4]
 386 000a 1846     		mov	r0, r3
 387 000c 0C37     		adds	r7, r7, #12
 388              		.cfi_def_cfa_offset 4
 389 000e BD46     		mov	sp, r7
 390              		.cfi_def_cfa_register 13
 391              		@ sp needed
 392 0010 5DF8047B 		ldr	r7, [sp], #4
 393              		.cfi_restore 7
 394              		.cfi_def_cfa_offset 0
 395 0014 7047     		bx	lr
 396              		.cfi_endproc
 397              	.LFE3271:
 399              		.weak	_ZN7daisysp7OnePoleC1Ev
 400              		.thumb_set _ZN7daisysp7OnePoleC1Ev,_ZN7daisysp7OnePoleC2Ev
 401              		.section	.text._ZN7daisysp7OnePoleD2Ev,"axG",%progbits,_ZN7daisysp7OnePoleD5Ev,comdat
 402              		.align	1
 403              		.weak	_ZN7daisysp7OnePoleD2Ev
 404              		.syntax unified
 405              		.thumb
 406              		.thumb_func
 408              	_ZN7daisysp7OnePoleD2Ev:
 409              	.LFB3274:
  30:../DaisySP/Source/Filters/onepole.h ****     ~OnePole() {}
 410              		.loc 4 30 5
 411              		.cfi_startproc
 412              		@ args = 0, pretend = 0, frame = 8
 413              		@ frame_needed = 1, uses_anonymous_args = 0
 414              		@ link register save eliminated.
 415 0000 80B4     		push	{r7}
 416              		.cfi_def_cfa_offset 4
 417              		.cfi_offset 7, -4
 418 0002 83B0     		sub	sp, sp, #12
 419              		.cfi_def_cfa_offset 16
 420 0004 00AF     		add	r7, sp, #0
 421              		.cfi_def_cfa_register 7
 422 0006 7860     		str	r0, [r7, #4]
 423              		.loc 4 30 17
 424 0008 7B68     		ldr	r3, [r7, #4]
 425 000a 1846     		mov	r0, r3
 426 000c 0C37     		adds	r7, r7, #12
 427              		.cfi_def_cfa_offset 4
 428 000e BD46     		mov	sp, r7
 429              		.cfi_def_cfa_register 13
 430              		@ sp needed
 431 0010 5DF8047B 		ldr	r7, [sp], #4
 432              		.cfi_restore 7
 433              		.cfi_def_cfa_offset 0
 434 0014 7047     		bx	lr
 435              		.cfi_endproc
 436              	.LFE3274:
ARM GAS  /var/folders/2p/02m_5p7958535cp2tpgps0400000gn/T//ccf9gERz.s 			page 15


 438              		.weak	_ZN7daisysp7OnePoleD1Ev
 439              		.thumb_set _ZN7daisysp7OnePoleD1Ev,_ZN7daisysp7OnePoleD2Ev
 440              		.section	.text._ZN7daisysp21SmoothRandomGeneratorC2Ev,"axG",%progbits,_ZN7daisysp21SmoothRandomGen
 441              		.align	1
 442              		.weak	_ZN7daisysp21SmoothRandomGeneratorC2Ev
 443              		.syntax unified
 444              		.thumb
 445              		.thumb_func
 447              	_ZN7daisysp21SmoothRandomGeneratorC2Ev:
 448              	.LFB3500:
 449              		.file 5 "../DaisySP/Source/Utility/smooth_random.h"
   1:../DaisySP/Source/Utility/smooth_random.h **** /*
   2:../DaisySP/Source/Utility/smooth_random.h **** Copyright (c) 2020 Electrosmith, Corp, Emilie Gillet
   3:../DaisySP/Source/Utility/smooth_random.h **** 
   4:../DaisySP/Source/Utility/smooth_random.h **** Use of this source code is governed by an MIT-style
   5:../DaisySP/Source/Utility/smooth_random.h **** license that can be found in the LICENSE file or at
   6:../DaisySP/Source/Utility/smooth_random.h **** https://opensource.org/licenses/MIT.
   7:../DaisySP/Source/Utility/smooth_random.h **** */
   8:../DaisySP/Source/Utility/smooth_random.h **** 
   9:../DaisySP/Source/Utility/smooth_random.h **** #pragma once
  10:../DaisySP/Source/Utility/smooth_random.h **** #ifndef DSY_SMOOTHRANDOM_H
  11:../DaisySP/Source/Utility/smooth_random.h **** #define DSY_SMOOTHRANDOM_H
  12:../DaisySP/Source/Utility/smooth_random.h **** 
  13:../DaisySP/Source/Utility/smooth_random.h **** #include "dsp.h"
  14:../DaisySP/Source/Utility/smooth_random.h **** #include <stdint.h>
  15:../DaisySP/Source/Utility/smooth_random.h **** #include <stdlib.h>
  16:../DaisySP/Source/Utility/smooth_random.h **** #ifdef __cplusplus
  17:../DaisySP/Source/Utility/smooth_random.h **** 
  18:../DaisySP/Source/Utility/smooth_random.h **** /** @file smooth_random.h */
  19:../DaisySP/Source/Utility/smooth_random.h **** 
  20:../DaisySP/Source/Utility/smooth_random.h **** namespace daisysp
  21:../DaisySP/Source/Utility/smooth_random.h **** {
  22:../DaisySP/Source/Utility/smooth_random.h **** /**  
  23:../DaisySP/Source/Utility/smooth_random.h ****     @brief Smooth random generator for internal modulation. \n
  24:../DaisySP/Source/Utility/smooth_random.h ****     @author Ported by Ben Sergentanis 
  25:../DaisySP/Source/Utility/smooth_random.h ****     @date Jan 2021 
  26:../DaisySP/Source/Utility/smooth_random.h ****     Ported from pichenettes/eurorack/plaits/dsp/noise/smooth_random_generator.h \n
  27:../DaisySP/Source/Utility/smooth_random.h ****     to an independent module. \n
  28:../DaisySP/Source/Utility/smooth_random.h ****     Original code written by Emilie Gillet in 2016. \n
  29:../DaisySP/Source/Utility/smooth_random.h **** */
  30:../DaisySP/Source/Utility/smooth_random.h **** class SmoothRandomGenerator
  31:../DaisySP/Source/Utility/smooth_random.h **** {
  32:../DaisySP/Source/Utility/smooth_random.h ****   public:
  33:../DaisySP/Source/Utility/smooth_random.h ****     SmoothRandomGenerator() {}
 450              		.loc 5 33 5
 451              		.cfi_startproc
 452              		@ args = 0, pretend = 0, frame = 8
 453              		@ frame_needed = 1, uses_anonymous_args = 0
 454              		@ link register save eliminated.
 455 0000 80B4     		push	{r7}
 456              		.cfi_def_cfa_offset 4
 457              		.cfi_offset 7, -4
 458 0002 83B0     		sub	sp, sp, #12
 459              		.cfi_def_cfa_offset 16
 460 0004 00AF     		add	r7, sp, #0
 461              		.cfi_def_cfa_register 7
 462 0006 7860     		str	r0, [r7, #4]
ARM GAS  /var/folders/2p/02m_5p7958535cp2tpgps0400000gn/T//ccf9gERz.s 			page 16


 463              		.loc 5 33 30
 464 0008 7B68     		ldr	r3, [r7, #4]
 465 000a 1846     		mov	r0, r3
 466 000c 0C37     		adds	r7, r7, #12
 467              		.cfi_def_cfa_offset 4
 468 000e BD46     		mov	sp, r7
 469              		.cfi_def_cfa_register 13
 470              		@ sp needed
 471 0010 5DF8047B 		ldr	r7, [sp], #4
 472              		.cfi_restore 7
 473              		.cfi_def_cfa_offset 0
 474 0014 7047     		bx	lr
 475              		.cfi_endproc
 476              	.LFE3500:
 478              		.weak	_ZN7daisysp21SmoothRandomGeneratorC1Ev
 479              		.thumb_set _ZN7daisysp21SmoothRandomGeneratorC1Ev,_ZN7daisysp21SmoothRandomGeneratorC2Ev
 480              		.section	.text._ZN7daisysp21SmoothRandomGeneratorD2Ev,"axG",%progbits,_ZN7daisysp21SmoothRandomGen
 481              		.align	1
 482              		.weak	_ZN7daisysp21SmoothRandomGeneratorD2Ev
 483              		.syntax unified
 484              		.thumb
 485              		.thumb_func
 487              	_ZN7daisysp21SmoothRandomGeneratorD2Ev:
 488              	.LFB3503:
  34:../DaisySP/Source/Utility/smooth_random.h ****     ~SmoothRandomGenerator() {}
 489              		.loc 5 34 5
 490              		.cfi_startproc
 491              		@ args = 0, pretend = 0, frame = 8
 492              		@ frame_needed = 1, uses_anonymous_args = 0
 493              		@ link register save eliminated.
 494 0000 80B4     		push	{r7}
 495              		.cfi_def_cfa_offset 4
 496              		.cfi_offset 7, -4
 497 0002 83B0     		sub	sp, sp, #12
 498              		.cfi_def_cfa_offset 16
 499 0004 00AF     		add	r7, sp, #0
 500              		.cfi_def_cfa_register 7
 501 0006 7860     		str	r0, [r7, #4]
 502              		.loc 5 34 31
 503 0008 7B68     		ldr	r3, [r7, #4]
 504 000a 1846     		mov	r0, r3
 505 000c 0C37     		adds	r7, r7, #12
 506              		.cfi_def_cfa_offset 4
 507 000e BD46     		mov	sp, r7
 508              		.cfi_def_cfa_register 13
 509              		@ sp needed
 510 0010 5DF8047B 		ldr	r7, [sp], #4
 511              		.cfi_restore 7
 512              		.cfi_def_cfa_offset 0
 513 0014 7047     		bx	lr
 514              		.cfi_endproc
 515              	.LFE3503:
 517              		.weak	_ZN7daisysp21SmoothRandomGeneratorD1Ev
 518              		.thumb_set _ZN7daisysp21SmoothRandomGeneratorD1Ev,_ZN7daisysp21SmoothRandomGeneratorD2Ev
 519              		.section	.text._ZN7daisysp10CompressorC2Ev,"axG",%progbits,_ZN7daisysp10CompressorC5Ev,comdat
 520              		.align	1
 521              		.weak	_ZN7daisysp10CompressorC2Ev
ARM GAS  /var/folders/2p/02m_5p7958535cp2tpgps0400000gn/T//ccf9gERz.s 			page 17


 522              		.syntax unified
 523              		.thumb
 524              		.thumb_func
 526              	_ZN7daisysp10CompressorC2Ev:
 527              	.LFB3522:
 528              		.file 6 "../DaisySP/Source/../DaisySP-LGPL/Source/Dynamics/compressor.h"
   1:../DaisySP/Source/../DaisySP-LGPL/Source/Dynamics/compressor.h **** /*
   2:../DaisySP/Source/../DaisySP-LGPL/Source/Dynamics/compressor.h **** Copyright (c) 2023 Electrosmith, Corp, GRAME, Centre National de Creation Musicale.
   3:../DaisySP/Source/../DaisySP-LGPL/Source/Dynamics/compressor.h **** 
   4:../DaisySP/Source/../DaisySP-LGPL/Source/Dynamics/compressor.h **** Use of this source code is governed by the LGPL V2.1
   5:../DaisySP/Source/../DaisySP-LGPL/Source/Dynamics/compressor.h **** license that can be found in the LICENSE file or at
   6:../DaisySP/Source/../DaisySP-LGPL/Source/Dynamics/compressor.h **** https://opensource.org/license/lgpl-2-1/
   7:../DaisySP/Source/../DaisySP-LGPL/Source/Dynamics/compressor.h **** */
   8:../DaisySP/Source/../DaisySP-LGPL/Source/Dynamics/compressor.h **** 
   9:../DaisySP/Source/../DaisySP-LGPL/Source/Dynamics/compressor.h **** #pragma once
  10:../DaisySP/Source/../DaisySP-LGPL/Source/Dynamics/compressor.h **** #ifndef DSY_COMPRESSOR_H
  11:../DaisySP/Source/../DaisySP-LGPL/Source/Dynamics/compressor.h **** #define DSY_COMPRESSOR_H
  12:../DaisySP/Source/../DaisySP-LGPL/Source/Dynamics/compressor.h **** 
  13:../DaisySP/Source/../DaisySP-LGPL/Source/Dynamics/compressor.h **** #include "Utility/dsp.h"
  14:../DaisySP/Source/../DaisySP-LGPL/Source/Dynamics/compressor.h **** 
  15:../DaisySP/Source/../DaisySP-LGPL/Source/Dynamics/compressor.h **** namespace daisysp
  16:../DaisySP/Source/../DaisySP-LGPL/Source/Dynamics/compressor.h **** {
  17:../DaisySP/Source/../DaisySP-LGPL/Source/Dynamics/compressor.h **** /** dynamics compressor
  18:../DaisySP/Source/../DaisySP-LGPL/Source/Dynamics/compressor.h **** 
  19:../DaisySP/Source/../DaisySP-LGPL/Source/Dynamics/compressor.h **** influenced by compressor in soundpipe (from faust).
  20:../DaisySP/Source/../DaisySP-LGPL/Source/Dynamics/compressor.h **** 
  21:../DaisySP/Source/../DaisySP-LGPL/Source/Dynamics/compressor.h **** Modifications made to do:
  22:../DaisySP/Source/../DaisySP-LGPL/Source/Dynamics/compressor.h **** - Less calculations during each process loop (coefficients recalculated on parameter change).
  23:../DaisySP/Source/../DaisySP-LGPL/Source/Dynamics/compressor.h **** - C++-ified
  24:../DaisySP/Source/../DaisySP-LGPL/Source/Dynamics/compressor.h **** - added sidechain support
  25:../DaisySP/Source/../DaisySP-LGPL/Source/Dynamics/compressor.h **** - pulled gain apart for monitoring and multichannel support
  26:../DaisySP/Source/../DaisySP-LGPL/Source/Dynamics/compressor.h **** - improved readability
  27:../DaisySP/Source/../DaisySP-LGPL/Source/Dynamics/compressor.h **** - improved makeup-gain calculations
  28:../DaisySP/Source/../DaisySP-LGPL/Source/Dynamics/compressor.h **** - changing controls now costs a lot less
  29:../DaisySP/Source/../DaisySP-LGPL/Source/Dynamics/compressor.h **** - a lot less expensive
  30:../DaisySP/Source/../DaisySP-LGPL/Source/Dynamics/compressor.h **** 
  31:../DaisySP/Source/../DaisySP-LGPL/Source/Dynamics/compressor.h **** by: shensley, improved upon by AvAars
  32:../DaisySP/Source/../DaisySP-LGPL/Source/Dynamics/compressor.h **** \todo Add soft/hard knee settings
  33:../DaisySP/Source/../DaisySP-LGPL/Source/Dynamics/compressor.h **** */
  34:../DaisySP/Source/../DaisySP-LGPL/Source/Dynamics/compressor.h **** class Compressor
  35:../DaisySP/Source/../DaisySP-LGPL/Source/Dynamics/compressor.h **** {
  36:../DaisySP/Source/../DaisySP-LGPL/Source/Dynamics/compressor.h ****   public:
  37:../DaisySP/Source/../DaisySP-LGPL/Source/Dynamics/compressor.h ****     Compressor() {}
 529              		.loc 6 37 5
 530              		.cfi_startproc
 531              		@ args = 0, pretend = 0, frame = 8
 532              		@ frame_needed = 1, uses_anonymous_args = 0
 533              		@ link register save eliminated.
 534 0000 80B4     		push	{r7}
 535              		.cfi_def_cfa_offset 4
 536              		.cfi_offset 7, -4
 537 0002 83B0     		sub	sp, sp, #12
 538              		.cfi_def_cfa_offset 16
 539 0004 00AF     		add	r7, sp, #0
 540              		.cfi_def_cfa_register 7
 541 0006 7860     		str	r0, [r7, #4]
 542              		.loc 6 37 19
ARM GAS  /var/folders/2p/02m_5p7958535cp2tpgps0400000gn/T//ccf9gERz.s 			page 18


 543 0008 7B68     		ldr	r3, [r7, #4]
 544 000a 1846     		mov	r0, r3
 545 000c 0C37     		adds	r7, r7, #12
 546              		.cfi_def_cfa_offset 4
 547 000e BD46     		mov	sp, r7
 548              		.cfi_def_cfa_register 13
 549              		@ sp needed
 550 0010 5DF8047B 		ldr	r7, [sp], #4
 551              		.cfi_restore 7
 552              		.cfi_def_cfa_offset 0
 553 0014 7047     		bx	lr
 554              		.cfi_endproc
 555              	.LFE3522:
 557              		.weak	_ZN7daisysp10CompressorC1Ev
 558              		.thumb_set _ZN7daisysp10CompressorC1Ev,_ZN7daisysp10CompressorC2Ev
 559              		.section	.text._ZN7daisysp10CompressorD2Ev,"axG",%progbits,_ZN7daisysp10CompressorD5Ev,comdat
 560              		.align	1
 561              		.weak	_ZN7daisysp10CompressorD2Ev
 562              		.syntax unified
 563              		.thumb
 564              		.thumb_func
 566              	_ZN7daisysp10CompressorD2Ev:
 567              	.LFB3525:
  38:../DaisySP/Source/../DaisySP-LGPL/Source/Dynamics/compressor.h ****     ~Compressor() {}
 568              		.loc 6 38 5
 569              		.cfi_startproc
 570              		@ args = 0, pretend = 0, frame = 8
 571              		@ frame_needed = 1, uses_anonymous_args = 0
 572              		@ link register save eliminated.
 573 0000 80B4     		push	{r7}
 574              		.cfi_def_cfa_offset 4
 575              		.cfi_offset 7, -4
 576 0002 83B0     		sub	sp, sp, #12
 577              		.cfi_def_cfa_offset 16
 578 0004 00AF     		add	r7, sp, #0
 579              		.cfi_def_cfa_register 7
 580 0006 7860     		str	r0, [r7, #4]
 581              		.loc 6 38 20
 582 0008 7B68     		ldr	r3, [r7, #4]
 583 000a 1846     		mov	r0, r3
 584 000c 0C37     		adds	r7, r7, #12
 585              		.cfi_def_cfa_offset 4
 586 000e BD46     		mov	sp, r7
 587              		.cfi_def_cfa_register 13
 588              		@ sp needed
 589 0010 5DF8047B 		ldr	r7, [sp], #4
 590              		.cfi_restore 7
 591              		.cfi_def_cfa_offset 0
 592 0014 7047     		bx	lr
 593              		.cfi_endproc
 594              	.LFE3525:
 596              		.weak	_ZN7daisysp10CompressorD1Ev
 597              		.thumb_set _ZN7daisysp10CompressorD1Ev,_ZN7daisysp10CompressorD2Ev
 598              		.section	.text._ZN7daisysp8ReverbScC2Ev,"axG",%progbits,_ZN7daisysp8ReverbScC5Ev,comdat
 599              		.align	1
 600              		.weak	_ZN7daisysp8ReverbScC2Ev
 601              		.syntax unified
ARM GAS  /var/folders/2p/02m_5p7958535cp2tpgps0400000gn/T//ccf9gERz.s 			page 19


 602              		.thumb
 603              		.thumb_func
 605              	_ZN7daisysp8ReverbScC2Ev:
 606              	.LFB3562:
 607              		.file 7 "../DaisySP/Source/../DaisySP-LGPL/Source/Effects/reverbsc.h"
   1:../DaisySP/Source/../DaisySP-LGPL/Source/Effects/reverbsc.h **** /*
   2:../DaisySP/Source/../DaisySP-LGPL/Source/Effects/reverbsc.h **** Copyright (c) 2023 Electrosmith, Corp, Sean Costello, Istvan Varga, Paul Batchelor
   3:../DaisySP/Source/../DaisySP-LGPL/Source/Effects/reverbsc.h **** 
   4:../DaisySP/Source/../DaisySP-LGPL/Source/Effects/reverbsc.h **** Use of this source code is governed by the LGPL V2.1
   5:../DaisySP/Source/../DaisySP-LGPL/Source/Effects/reverbsc.h **** license that can be found in the LICENSE file or at
   6:../DaisySP/Source/../DaisySP-LGPL/Source/Effects/reverbsc.h **** https://opensource.org/license/lgpl-2-1/
   7:../DaisySP/Source/../DaisySP-LGPL/Source/Effects/reverbsc.h **** */
   8:../DaisySP/Source/../DaisySP-LGPL/Source/Effects/reverbsc.h **** 
   9:../DaisySP/Source/../DaisySP-LGPL/Source/Effects/reverbsc.h **** #pragma once
  10:../DaisySP/Source/../DaisySP-LGPL/Source/Effects/reverbsc.h **** #ifndef DSYSP_REVERBSC_H
  11:../DaisySP/Source/../DaisySP-LGPL/Source/Effects/reverbsc.h **** #define DSYSP_REVERBSC_H
  12:../DaisySP/Source/../DaisySP-LGPL/Source/Effects/reverbsc.h **** 
  13:../DaisySP/Source/../DaisySP-LGPL/Source/Effects/reverbsc.h **** #define DSY_REVERBSC_MAX_SIZE 98936
  14:../DaisySP/Source/../DaisySP-LGPL/Source/Effects/reverbsc.h **** // #define DSY_REVERBSC_MAX_SIZE 49468
  15:../DaisySP/Source/../DaisySP-LGPL/Source/Effects/reverbsc.h **** 
  16:../DaisySP/Source/../DaisySP-LGPL/Source/Effects/reverbsc.h **** namespace daisysp
  17:../DaisySP/Source/../DaisySP-LGPL/Source/Effects/reverbsc.h **** {
  18:../DaisySP/Source/../DaisySP-LGPL/Source/Effects/reverbsc.h **** /**Delay line for internal reverb use
  19:../DaisySP/Source/../DaisySP-LGPL/Source/Effects/reverbsc.h **** */
  20:../DaisySP/Source/../DaisySP-LGPL/Source/Effects/reverbsc.h **** typedef struct
  21:../DaisySP/Source/../DaisySP-LGPL/Source/Effects/reverbsc.h **** {
  22:../DaisySP/Source/../DaisySP-LGPL/Source/Effects/reverbsc.h ****     int    write_pos;         /**< write position */
  23:../DaisySP/Source/../DaisySP-LGPL/Source/Effects/reverbsc.h ****     int    buffer_size;       /**< buffer size */
  24:../DaisySP/Source/../DaisySP-LGPL/Source/Effects/reverbsc.h ****     int    read_pos;          /**< read position */
  25:../DaisySP/Source/../DaisySP-LGPL/Source/Effects/reverbsc.h ****     int    read_pos_frac;     /**< fractional component of read pos */
  26:../DaisySP/Source/../DaisySP-LGPL/Source/Effects/reverbsc.h ****     int    read_pos_frac_inc; /**< increment for fractional */
  27:../DaisySP/Source/../DaisySP-LGPL/Source/Effects/reverbsc.h ****     int    dummy;             /**<  dummy var */
  28:../DaisySP/Source/../DaisySP-LGPL/Source/Effects/reverbsc.h ****     int    seed_val;          /**< randseed */
  29:../DaisySP/Source/../DaisySP-LGPL/Source/Effects/reverbsc.h ****     int    rand_line_cnt;     /**< number of random lines */
  30:../DaisySP/Source/../DaisySP-LGPL/Source/Effects/reverbsc.h ****     float  filter_state;      /**< state of filter */
  31:../DaisySP/Source/../DaisySP-LGPL/Source/Effects/reverbsc.h ****     float *buf;               /**< buffer ptr */
  32:../DaisySP/Source/../DaisySP-LGPL/Source/Effects/reverbsc.h **** } ReverbScDl;
  33:../DaisySP/Source/../DaisySP-LGPL/Source/Effects/reverbsc.h **** 
  34:../DaisySP/Source/../DaisySP-LGPL/Source/Effects/reverbsc.h **** /** Stereo Reverb */
  35:../DaisySP/Source/../DaisySP-LGPL/Source/Effects/reverbsc.h **** class ReverbSc
  36:../DaisySP/Source/../DaisySP-LGPL/Source/Effects/reverbsc.h **** {
  37:../DaisySP/Source/../DaisySP-LGPL/Source/Effects/reverbsc.h ****   public:
  38:../DaisySP/Source/../DaisySP-LGPL/Source/Effects/reverbsc.h ****     ReverbSc() {}
 608              		.loc 7 38 5
 609              		.cfi_startproc
 610              		@ args = 0, pretend = 0, frame = 8
 611              		@ frame_needed = 1, uses_anonymous_args = 0
 612              		@ link register save eliminated.
 613 0000 80B4     		push	{r7}
 614              		.cfi_def_cfa_offset 4
 615              		.cfi_offset 7, -4
 616 0002 83B0     		sub	sp, sp, #12
 617              		.cfi_def_cfa_offset 16
 618 0004 00AF     		add	r7, sp, #0
 619              		.cfi_def_cfa_register 7
 620 0006 7860     		str	r0, [r7, #4]
 621              		.loc 7 38 17
ARM GAS  /var/folders/2p/02m_5p7958535cp2tpgps0400000gn/T//ccf9gERz.s 			page 20


 622 0008 7B68     		ldr	r3, [r7, #4]
 623 000a 1846     		mov	r0, r3
 624 000c 0C37     		adds	r7, r7, #12
 625              		.cfi_def_cfa_offset 4
 626 000e BD46     		mov	sp, r7
 627              		.cfi_def_cfa_register 13
 628              		@ sp needed
 629 0010 5DF8047B 		ldr	r7, [sp], #4
 630              		.cfi_restore 7
 631              		.cfi_def_cfa_offset 0
 632 0014 7047     		bx	lr
 633              		.cfi_endproc
 634              	.LFE3562:
 636              		.weak	_ZN7daisysp8ReverbScC1Ev
 637              		.thumb_set _ZN7daisysp8ReverbScC1Ev,_ZN7daisysp8ReverbScC2Ev
 638              		.section	.text._ZN7daisysp8ReverbScD2Ev,"axG",%progbits,_ZN7daisysp8ReverbScD5Ev,comdat
 639              		.align	1
 640              		.weak	_ZN7daisysp8ReverbScD2Ev
 641              		.syntax unified
 642              		.thumb
 643              		.thumb_func
 645              	_ZN7daisysp8ReverbScD2Ev:
 646              	.LFB3565:
  39:../DaisySP/Source/../DaisySP-LGPL/Source/Effects/reverbsc.h ****     ~ReverbSc() {}
 647              		.loc 7 39 5
 648              		.cfi_startproc
 649              		@ args = 0, pretend = 0, frame = 8
 650              		@ frame_needed = 1, uses_anonymous_args = 0
 651              		@ link register save eliminated.
 652 0000 80B4     		push	{r7}
 653              		.cfi_def_cfa_offset 4
 654              		.cfi_offset 7, -4
 655 0002 83B0     		sub	sp, sp, #12
 656              		.cfi_def_cfa_offset 16
 657 0004 00AF     		add	r7, sp, #0
 658              		.cfi_def_cfa_register 7
 659 0006 7860     		str	r0, [r7, #4]
 660              		.loc 7 39 18
 661 0008 7B68     		ldr	r3, [r7, #4]
 662 000a 1846     		mov	r0, r3
 663 000c 0C37     		adds	r7, r7, #12
 664              		.cfi_def_cfa_offset 4
 665 000e BD46     		mov	sp, r7
 666              		.cfi_def_cfa_register 13
 667              		@ sp needed
 668 0010 5DF8047B 		ldr	r7, [sp], #4
 669              		.cfi_restore 7
 670              		.cfi_def_cfa_offset 0
 671 0014 7047     		bx	lr
 672              		.cfi_endproc
 673              	.LFE3565:
 675              		.weak	_ZN7daisysp8ReverbScD1Ev
 676              		.thumb_set _ZN7daisysp8ReverbScD1Ev,_ZN7daisysp8ReverbScD2Ev
 677              		.section	.text._ZN7daisysp10MoogLadderC2Ev,"axG",%progbits,_ZN7daisysp10MoogLadderC5Ev,comdat
 678              		.align	1
 679              		.weak	_ZN7daisysp10MoogLadderC2Ev
 680              		.syntax unified
ARM GAS  /var/folders/2p/02m_5p7958535cp2tpgps0400000gn/T//ccf9gERz.s 			page 21


 681              		.thumb
 682              		.thumb_func
 684              	_ZN7daisysp10MoogLadderC2Ev:
 685              	.LFB3610:
 686              		.file 8 "../DaisySP/Source/../DaisySP-LGPL/Source/Filters/moogladder.h"
   1:../DaisySP/Source/../DaisySP-LGPL/Source/Filters/moogladder.h **** /*
   2:../DaisySP/Source/../DaisySP-LGPL/Source/Filters/moogladder.h **** Copyright (c) 2023 Electrosmith, Corp, Victor Lazzarini, John ffitch (fast tanh), Bob Moog
   3:../DaisySP/Source/../DaisySP-LGPL/Source/Filters/moogladder.h **** 
   4:../DaisySP/Source/../DaisySP-LGPL/Source/Filters/moogladder.h **** Use of this source code is governed by the LGPL V2.1
   5:../DaisySP/Source/../DaisySP-LGPL/Source/Filters/moogladder.h **** license that can be found in the LICENSE file or at
   6:../DaisySP/Source/../DaisySP-LGPL/Source/Filters/moogladder.h **** https://opensource.org/license/lgpl-2-1/
   7:../DaisySP/Source/../DaisySP-LGPL/Source/Filters/moogladder.h **** */
   8:../DaisySP/Source/../DaisySP-LGPL/Source/Filters/moogladder.h **** 
   9:../DaisySP/Source/../DaisySP-LGPL/Source/Filters/moogladder.h **** #pragma once
  10:../DaisySP/Source/../DaisySP-LGPL/Source/Filters/moogladder.h **** #ifndef DSY_MOOGLADDER_H
  11:../DaisySP/Source/../DaisySP-LGPL/Source/Filters/moogladder.h **** #define DSY_MOOGLADDER_H
  12:../DaisySP/Source/../DaisySP-LGPL/Source/Filters/moogladder.h **** 
  13:../DaisySP/Source/../DaisySP-LGPL/Source/Filters/moogladder.h **** #include <stdint.h>
  14:../DaisySP/Source/../DaisySP-LGPL/Source/Filters/moogladder.h **** #ifdef __cplusplus
  15:../DaisySP/Source/../DaisySP-LGPL/Source/Filters/moogladder.h **** 
  16:../DaisySP/Source/../DaisySP-LGPL/Source/Filters/moogladder.h **** namespace daisysp
  17:../DaisySP/Source/../DaisySP-LGPL/Source/Filters/moogladder.h **** {
  18:../DaisySP/Source/../DaisySP-LGPL/Source/Filters/moogladder.h **** /** Moog ladder filter module*/
  19:../DaisySP/Source/../DaisySP-LGPL/Source/Filters/moogladder.h **** class MoogLadder
  20:../DaisySP/Source/../DaisySP-LGPL/Source/Filters/moogladder.h **** {
  21:../DaisySP/Source/../DaisySP-LGPL/Source/Filters/moogladder.h ****   public:
  22:../DaisySP/Source/../DaisySP-LGPL/Source/Filters/moogladder.h ****     MoogLadder() {}
 687              		.loc 8 22 5
 688              		.cfi_startproc
 689              		@ args = 0, pretend = 0, frame = 8
 690              		@ frame_needed = 1, uses_anonymous_args = 0
 691              		@ link register save eliminated.
 692 0000 80B4     		push	{r7}
 693              		.cfi_def_cfa_offset 4
 694              		.cfi_offset 7, -4
 695 0002 83B0     		sub	sp, sp, #12
 696              		.cfi_def_cfa_offset 16
 697 0004 00AF     		add	r7, sp, #0
 698              		.cfi_def_cfa_register 7
 699 0006 7860     		str	r0, [r7, #4]
 700              		.loc 8 22 19
 701 0008 7B68     		ldr	r3, [r7, #4]
 702 000a 1846     		mov	r0, r3
 703 000c 0C37     		adds	r7, r7, #12
 704              		.cfi_def_cfa_offset 4
 705 000e BD46     		mov	sp, r7
 706              		.cfi_def_cfa_register 13
 707              		@ sp needed
 708 0010 5DF8047B 		ldr	r7, [sp], #4
 709              		.cfi_restore 7
 710              		.cfi_def_cfa_offset 0
 711 0014 7047     		bx	lr
 712              		.cfi_endproc
 713              	.LFE3610:
 715              		.weak	_ZN7daisysp10MoogLadderC1Ev
 716              		.thumb_set _ZN7daisysp10MoogLadderC1Ev,_ZN7daisysp10MoogLadderC2Ev
 717              		.section	.text._ZN7daisysp10MoogLadderD2Ev,"axG",%progbits,_ZN7daisysp10MoogLadderD5Ev,comdat
ARM GAS  /var/folders/2p/02m_5p7958535cp2tpgps0400000gn/T//ccf9gERz.s 			page 22


 718              		.align	1
 719              		.weak	_ZN7daisysp10MoogLadderD2Ev
 720              		.syntax unified
 721              		.thumb
 722              		.thumb_func
 724              	_ZN7daisysp10MoogLadderD2Ev:
 725              	.LFB3613:
  23:../DaisySP/Source/../DaisySP-LGPL/Source/Filters/moogladder.h ****     ~MoogLadder() {}
 726              		.loc 8 23 5
 727              		.cfi_startproc
 728              		@ args = 0, pretend = 0, frame = 8
 729              		@ frame_needed = 1, uses_anonymous_args = 0
 730              		@ link register save eliminated.
 731 0000 80B4     		push	{r7}
 732              		.cfi_def_cfa_offset 4
 733              		.cfi_offset 7, -4
 734 0002 83B0     		sub	sp, sp, #12
 735              		.cfi_def_cfa_offset 16
 736 0004 00AF     		add	r7, sp, #0
 737              		.cfi_def_cfa_register 7
 738 0006 7860     		str	r0, [r7, #4]
 739              		.loc 8 23 20
 740 0008 7B68     		ldr	r3, [r7, #4]
 741 000a 1846     		mov	r0, r3
 742 000c 0C37     		adds	r7, r7, #12
 743              		.cfi_def_cfa_offset 4
 744 000e BD46     		mov	sp, r7
 745              		.cfi_def_cfa_register 13
 746              		@ sp needed
 747 0010 5DF8047B 		ldr	r7, [sp], #4
 748              		.cfi_restore 7
 749              		.cfi_def_cfa_offset 0
 750 0014 7047     		bx	lr
 751              		.cfi_endproc
 752              	.LFE3613:
 754              		.weak	_ZN7daisysp10MoogLadderD1Ev
 755              		.thumb_set _ZN7daisysp10MoogLadderD1Ev,_ZN7daisysp10MoogLadderD2Ev
 756              		.section	.text._ZN5daisy6SystemC2Ev,"axG",%progbits,_ZN5daisy6SystemC5Ev,comdat
 757              		.align	1
 758              		.weak	_ZN5daisy6SystemC2Ev
 759              		.syntax unified
 760              		.thumb
 761              		.thumb_func
 763              	_ZN5daisy6SystemC2Ev:
 764              	.LFB3706:
 765              		.file 9 "../libDaisy/src/sys/system.h"
   1:../libDaisy/src/sys/system.h **** #ifndef DSY_SYSTEM_H
   2:../libDaisy/src/sys/system.h **** #define DSY_SYSTEM_H
   3:../libDaisy/src/sys/system.h **** 
   4:../libDaisy/src/sys/system.h **** #ifndef UNIT_TEST // for unit tests, a dummy implementation is provided below
   5:../libDaisy/src/sys/system.h **** 
   6:../libDaisy/src/sys/system.h **** #include <cstdint>
   7:../libDaisy/src/sys/system.h **** #include "per/tim.h"
   8:../libDaisy/src/sys/system.h **** 
   9:../libDaisy/src/sys/system.h **** namespace daisy
  10:../libDaisy/src/sys/system.h **** {
  11:../libDaisy/src/sys/system.h **** /** A handle for interacting with the Core System.
ARM GAS  /var/folders/2p/02m_5p7958535cp2tpgps0400000gn/T//ccf9gERz.s 			page 23


  12:../libDaisy/src/sys/system.h ****  ** This includes the Clock tree, MPU, global DMA initialization,
  13:../libDaisy/src/sys/system.h ****  ** cache handling, and any other necessary global initiailzation
  14:../libDaisy/src/sys/system.h ****  **
  15:../libDaisy/src/sys/system.h ****  ** @author shensley
  16:../libDaisy/src/sys/system.h ****  ** @ingroup system
  17:../libDaisy/src/sys/system.h ****  */
  18:../libDaisy/src/sys/system.h **** class System
  19:../libDaisy/src/sys/system.h **** {
  20:../libDaisy/src/sys/system.h ****   public:
  21:../libDaisy/src/sys/system.h ****     /** Contains settings for initializing the System */
  22:../libDaisy/src/sys/system.h ****     struct Config
  23:../libDaisy/src/sys/system.h ****     {
  24:../libDaisy/src/sys/system.h ****         /** Specifies the system clock frequency that feeds APB/AHB clocks, etc. */
  25:../libDaisy/src/sys/system.h ****         enum class SysClkFreq
  26:../libDaisy/src/sys/system.h ****         {
  27:../libDaisy/src/sys/system.h ****             FREQ_400MHZ,
  28:../libDaisy/src/sys/system.h ****             FREQ_480MHZ,
  29:../libDaisy/src/sys/system.h ****         };
  30:../libDaisy/src/sys/system.h **** 
  31:../libDaisy/src/sys/system.h ****         /** Method to call on the struct to set to defaults
  32:../libDaisy/src/sys/system.h ****          ** CPU Freq set to 400MHz
  33:../libDaisy/src/sys/system.h ****          ** Cache Enabled
  34:../libDaisy/src/sys/system.h ****          ** */
  35:../libDaisy/src/sys/system.h ****         void Defaults()
  36:../libDaisy/src/sys/system.h ****         {
  37:../libDaisy/src/sys/system.h ****             cpu_freq    = SysClkFreq::FREQ_400MHZ;
  38:../libDaisy/src/sys/system.h ****             use_dcache  = true;
  39:../libDaisy/src/sys/system.h ****             use_icache  = true;
  40:../libDaisy/src/sys/system.h ****             skip_clocks = false;
  41:../libDaisy/src/sys/system.h ****         }
  42:../libDaisy/src/sys/system.h **** 
  43:../libDaisy/src/sys/system.h ****         /** Method to call on the struct to set to boost mode:
  44:../libDaisy/src/sys/system.h ****          ** CPU Freq set to 480MHz
  45:../libDaisy/src/sys/system.h ****          ** Cache Enabled
  46:../libDaisy/src/sys/system.h ****          ** */
  47:../libDaisy/src/sys/system.h ****         void Boost()
  48:../libDaisy/src/sys/system.h ****         {
  49:../libDaisy/src/sys/system.h ****             cpu_freq    = SysClkFreq::FREQ_480MHZ;
  50:../libDaisy/src/sys/system.h ****             use_dcache  = true;
  51:../libDaisy/src/sys/system.h ****             use_icache  = true;
  52:../libDaisy/src/sys/system.h ****             skip_clocks = false;
  53:../libDaisy/src/sys/system.h ****         }
  54:../libDaisy/src/sys/system.h **** 
  55:../libDaisy/src/sys/system.h ****         SysClkFreq cpu_freq;
  56:../libDaisy/src/sys/system.h ****         bool       use_dcache;
  57:../libDaisy/src/sys/system.h ****         bool       use_icache;
  58:../libDaisy/src/sys/system.h ****         bool       skip_clocks;
  59:../libDaisy/src/sys/system.h ****     };
  60:../libDaisy/src/sys/system.h **** 
  61:../libDaisy/src/sys/system.h ****     /** Describes the different regions of memory available to the Daisy */
  62:../libDaisy/src/sys/system.h ****     enum MemoryRegion
  63:../libDaisy/src/sys/system.h ****     {
  64:../libDaisy/src/sys/system.h ****         INTERNAL_FLASH = 0,
  65:../libDaisy/src/sys/system.h ****         ITCMRAM,
  66:../libDaisy/src/sys/system.h ****         DTCMRAM,
  67:../libDaisy/src/sys/system.h ****         SRAM_D1,
  68:../libDaisy/src/sys/system.h ****         SRAM_D2,
ARM GAS  /var/folders/2p/02m_5p7958535cp2tpgps0400000gn/T//ccf9gERz.s 			page 24


  69:../libDaisy/src/sys/system.h ****         SRAM_D3,
  70:../libDaisy/src/sys/system.h ****         SDRAM,
  71:../libDaisy/src/sys/system.h ****         QSPI,
  72:../libDaisy/src/sys/system.h ****         INVALID_ADDRESS,
  73:../libDaisy/src/sys/system.h ****     };
  74:../libDaisy/src/sys/system.h **** 
  75:../libDaisy/src/sys/system.h ****     /** Bootloader struct for controlling bootloading parameters */
  76:../libDaisy/src/sys/system.h ****     struct BootInfo
  77:../libDaisy/src/sys/system.h ****     {
  78:../libDaisy/src/sys/system.h ****         enum class Type : uint32_t
  79:../libDaisy/src/sys/system.h ****         {
  80:../libDaisy/src/sys/system.h ****             INVALID      = 0x00000000,
  81:../libDaisy/src/sys/system.h ****             JUMP         = 0xDEADBEEF,
  82:../libDaisy/src/sys/system.h ****             SKIP_TIMEOUT = 0x5AFEB007,
  83:../libDaisy/src/sys/system.h ****             INF_TIMEOUT  = 0xB0074EFA,
  84:../libDaisy/src/sys/system.h ****         } status;
  85:../libDaisy/src/sys/system.h ****         uint32_t data;
  86:../libDaisy/src/sys/system.h ****         enum class Version : uint32_t
  87:../libDaisy/src/sys/system.h ****         {
  88:../libDaisy/src/sys/system.h ****             LT_v6_0 = 0, // Less than v6.0
  89:../libDaisy/src/sys/system.h ****             NONE,        // No bootloader present
  90:../libDaisy/src/sys/system.h ****             v6_0,        // v6.0
  91:../libDaisy/src/sys/system.h ****             v6_1,        // v6.1 or greater
  92:../libDaisy/src/sys/system.h ****             LAST
  93:../libDaisy/src/sys/system.h ****         } version;
  94:../libDaisy/src/sys/system.h ****     };
  95:../libDaisy/src/sys/system.h **** 
  96:../libDaisy/src/sys/system.h ****     System() {}
 766              		.loc 9 96 5
 767              		.cfi_startproc
 768              		@ args = 0, pretend = 0, frame = 8
 769              		@ frame_needed = 1, uses_anonymous_args = 0
 770              		@ link register save eliminated.
 771 0000 80B4     		push	{r7}
 772              		.cfi_def_cfa_offset 4
 773              		.cfi_offset 7, -4
 774 0002 83B0     		sub	sp, sp, #12
 775              		.cfi_def_cfa_offset 16
 776 0004 00AF     		add	r7, sp, #0
 777              		.cfi_def_cfa_register 7
 778 0006 7860     		str	r0, [r7, #4]
 779              		.loc 9 96 15
 780 0008 7B68     		ldr	r3, [r7, #4]
 781 000a 1846     		mov	r0, r3
 782 000c 0C37     		adds	r7, r7, #12
 783              		.cfi_def_cfa_offset 4
 784 000e BD46     		mov	sp, r7
 785              		.cfi_def_cfa_register 13
 786              		@ sp needed
 787 0010 5DF8047B 		ldr	r7, [sp], #4
 788              		.cfi_restore 7
 789              		.cfi_def_cfa_offset 0
 790 0014 7047     		bx	lr
 791              		.cfi_endproc
 792              	.LFE3706:
 794              		.weak	_ZN5daisy6SystemC1Ev
 795              		.thumb_set _ZN5daisy6SystemC1Ev,_ZN5daisy6SystemC2Ev
ARM GAS  /var/folders/2p/02m_5p7958535cp2tpgps0400000gn/T//ccf9gERz.s 			page 25


 796              		.section	.text._ZN5daisy6SystemD2Ev,"axG",%progbits,_ZN5daisy6SystemD5Ev,comdat
 797              		.align	1
 798              		.weak	_ZN5daisy6SystemD2Ev
 799              		.syntax unified
 800              		.thumb
 801              		.thumb_func
 803              	_ZN5daisy6SystemD2Ev:
 804              	.LFB3709:
  97:../libDaisy/src/sys/system.h ****     ~System() {}
 805              		.loc 9 97 5
 806              		.cfi_startproc
 807              		@ args = 0, pretend = 0, frame = 8
 808              		@ frame_needed = 1, uses_anonymous_args = 0
 809              		@ link register save eliminated.
 810 0000 80B4     		push	{r7}
 811              		.cfi_def_cfa_offset 4
 812              		.cfi_offset 7, -4
 813 0002 83B0     		sub	sp, sp, #12
 814              		.cfi_def_cfa_offset 16
 815 0004 00AF     		add	r7, sp, #0
 816              		.cfi_def_cfa_register 7
 817 0006 7860     		str	r0, [r7, #4]
 818              		.loc 9 97 16
 819 0008 7B68     		ldr	r3, [r7, #4]
 820 000a 1846     		mov	r0, r3
 821 000c 0C37     		adds	r7, r7, #12
 822              		.cfi_def_cfa_offset 4
 823 000e BD46     		mov	sp, r7
 824              		.cfi_def_cfa_register 13
 825              		@ sp needed
 826 0010 5DF8047B 		ldr	r7, [sp], #4
 827              		.cfi_restore 7
 828              		.cfi_def_cfa_offset 0
 829 0014 7047     		bx	lr
 830              		.cfi_endproc
 831              	.LFE3709:
 833              		.weak	_ZN5daisy6SystemD1Ev
 834              		.thumb_set _ZN5daisy6SystemD1Ev,_ZN5daisy6SystemD2Ev
 835              		.section	.text._ZN5daisy10QSPIHandleC2Ev,"axG",%progbits,_ZN5daisy10QSPIHandleC5Ev,comdat
 836              		.align	1
 837              		.weak	_ZN5daisy10QSPIHandleC2Ev
 838              		.syntax unified
 839              		.thumb
 840              		.thumb_func
 842              	_ZN5daisy10QSPIHandleC2Ev:
 843              	.LFB3713:
 844              		.file 10 "../libDaisy/src/per/qspi.h"
   1:../libDaisy/src/per/qspi.h **** #ifndef DSY_QSPI
   2:../libDaisy/src/per/qspi.h **** #define DSY_QSPI /**< Macro */
   3:../libDaisy/src/per/qspi.h **** 
   4:../libDaisy/src/per/qspi.h **** #ifndef UNIT_TEST // for unit tests, a dummy implementation
   5:../libDaisy/src/per/qspi.h **** 
   6:../libDaisy/src/per/qspi.h **** #include <cstdint>
   7:../libDaisy/src/per/qspi.h **** #include "daisy_core.h" // Added for dsy_gpio_pin typedef
   8:../libDaisy/src/per/qspi.h **** 
   9:../libDaisy/src/per/qspi.h **** #define DSY_QSPI_TEXT       \
  10:../libDaisy/src/per/qspi.h ****     __attribute__((section( \
ARM GAS  /var/folders/2p/02m_5p7958535cp2tpgps0400000gn/T//ccf9gERz.s 			page 26


  11:../libDaisy/src/per/qspi.h ****         ".qspiflash_text"))) /**< used for reading memory in memory_mapped mode. */
  12:../libDaisy/src/per/qspi.h **** #define DSY_QSPI_DATA       \
  13:../libDaisy/src/per/qspi.h ****     __attribute__((section( \
  14:../libDaisy/src/per/qspi.h ****         ".qspiflash_data"))) /**< used for reading memory in memory_mapped mode. */
  15:../libDaisy/src/per/qspi.h **** #define DSY_QSPI_BSS        \
  16:../libDaisy/src/per/qspi.h ****     __attribute__((section( \
  17:../libDaisy/src/per/qspi.h ****         ".qspiflash_bss"))) /**< used for reading memory in memory_mapped mode. */
  18:../libDaisy/src/per/qspi.h **** 
  19:../libDaisy/src/per/qspi.h **** namespace daisy
  20:../libDaisy/src/per/qspi.h **** {
  21:../libDaisy/src/per/qspi.h **** /** @addtogroup serial
  22:../libDaisy/src/per/qspi.h **** @{
  23:../libDaisy/src/per/qspi.h **** */
  24:../libDaisy/src/per/qspi.h **** 
  25:../libDaisy/src/per/qspi.h **** /** 
  26:../libDaisy/src/per/qspi.h ****  Driver for QSPI peripheral to interface with external flash memory. \n 
  27:../libDaisy/src/per/qspi.h ****     Currently supported QSPI Devices: \n 
  28:../libDaisy/src/per/qspi.h ****     * IS25LP080D
  29:../libDaisy/src/per/qspi.h **** */
  30:../libDaisy/src/per/qspi.h **** class QSPIHandle
  31:../libDaisy/src/per/qspi.h **** {
  32:../libDaisy/src/per/qspi.h ****   public:
  33:../libDaisy/src/per/qspi.h ****     enum Result
  34:../libDaisy/src/per/qspi.h ****     {
  35:../libDaisy/src/per/qspi.h ****         OK = 0,
  36:../libDaisy/src/per/qspi.h ****         ERR
  37:../libDaisy/src/per/qspi.h ****     };
  38:../libDaisy/src/per/qspi.h **** 
  39:../libDaisy/src/per/qspi.h ****     /** Indicates the current status of the module. 
  40:../libDaisy/src/per/qspi.h ****          *  Warnings are indicated by a leading W.
  41:../libDaisy/src/per/qspi.h ****          *  Errors are indicated by a leading E and cause an immediate exit.
  42:../libDaisy/src/per/qspi.h ****          * 
  43:../libDaisy/src/per/qspi.h ****          *  \param GOOD - No errors have been reported.
  44:../libDaisy/src/per/qspi.h ****          *  \param E_HAL_ERROR - HAL code did not return HAL_OK.
  45:../libDaisy/src/per/qspi.h ****          *  \param E_SWITCHING_MODES - An error was encountered while switching QSPI peripheral mod
  46:../libDaisy/src/per/qspi.h ****          *  \param E_INVALID_MODE - QSPI should not be written to while the program is executing fr
  47:../libDaisy/src/per/qspi.h ****          */
  48:../libDaisy/src/per/qspi.h ****     enum Status
  49:../libDaisy/src/per/qspi.h ****     {
  50:../libDaisy/src/per/qspi.h ****         GOOD = 0,
  51:../libDaisy/src/per/qspi.h ****         E_HAL_ERROR,
  52:../libDaisy/src/per/qspi.h ****         E_SWITCHING_MODES,
  53:../libDaisy/src/per/qspi.h ****         E_INVALID_MODE,
  54:../libDaisy/src/per/qspi.h ****     };
  55:../libDaisy/src/per/qspi.h **** 
  56:../libDaisy/src/per/qspi.h ****     /** Configuration structure for interfacing with QSPI Driver */
  57:../libDaisy/src/per/qspi.h ****     struct Config
  58:../libDaisy/src/per/qspi.h ****     {
  59:../libDaisy/src/per/qspi.h ****         /** Flash Devices supported. (Both of these are more-or-less the same, just different sizes
  60:../libDaisy/src/per/qspi.h ****         enum Device
  61:../libDaisy/src/per/qspi.h ****         {
  62:../libDaisy/src/per/qspi.h ****             IS25LP080D,  /**< & */
  63:../libDaisy/src/per/qspi.h ****             IS25LP064A,  /**< & */
  64:../libDaisy/src/per/qspi.h ****             DEVICE_LAST, /**< & */
  65:../libDaisy/src/per/qspi.h ****         };
  66:../libDaisy/src/per/qspi.h **** 
  67:../libDaisy/src/per/qspi.h ****         /** 
ARM GAS  /var/folders/2p/02m_5p7958535cp2tpgps0400000gn/T//ccf9gERz.s 			page 27


  68:../libDaisy/src/per/qspi.h ****         Modes of operation.
  69:../libDaisy/src/per/qspi.h ****         Memory Mapped mode: QSPI configured so that the QSPI can be
  70:../libDaisy/src/per/qspi.h ****         read from starting address 0x90000000. Writing is not
  71:../libDaisy/src/per/qspi.h ****         possible in this mode. \n 
  72:../libDaisy/src/per/qspi.h ****         Indirect Polling mode: Device driver enabled. 
  73:../libDaisy/src/per/qspi.h ****         */
  74:../libDaisy/src/per/qspi.h ****         enum Mode
  75:../libDaisy/src/per/qspi.h ****         {
  76:../libDaisy/src/per/qspi.h ****             MEMORY_MAPPED,    /**< & */
  77:../libDaisy/src/per/qspi.h ****             INDIRECT_POLLING, /**< & */
  78:../libDaisy/src/per/qspi.h ****             MODE_LAST,
  79:../libDaisy/src/per/qspi.h ****         };
  80:../libDaisy/src/per/qspi.h **** 
  81:../libDaisy/src/per/qspi.h ****         //SCK,  CE# (active low)
  82:../libDaisy/src/per/qspi.h ****         struct
  83:../libDaisy/src/per/qspi.h ****         {
  84:../libDaisy/src/per/qspi.h ****             dsy_gpio_pin io0; /**< & */
  85:../libDaisy/src/per/qspi.h ****             dsy_gpio_pin io1; /**< & */
  86:../libDaisy/src/per/qspi.h ****             dsy_gpio_pin io2; /**< & */
  87:../libDaisy/src/per/qspi.h ****             dsy_gpio_pin io3; /**< & */
  88:../libDaisy/src/per/qspi.h ****             dsy_gpio_pin clk; /**< & */
  89:../libDaisy/src/per/qspi.h ****             dsy_gpio_pin ncs; /**< & */
  90:../libDaisy/src/per/qspi.h ****         } pin_config;
  91:../libDaisy/src/per/qspi.h **** 
  92:../libDaisy/src/per/qspi.h ****         Device device;
  93:../libDaisy/src/per/qspi.h ****         Mode   mode;
  94:../libDaisy/src/per/qspi.h ****     };
  95:../libDaisy/src/per/qspi.h **** 
  96:../libDaisy/src/per/qspi.h ****     /** 
  97:../libDaisy/src/per/qspi.h ****         Initializes QSPI peripheral, and Resets, and prepares memory for access.
  98:../libDaisy/src/per/qspi.h ****         \param config should be populated with the mode, device and pin_config before calling this 
  99:../libDaisy/src/per/qspi.h ****         \return Result::OK or Result::ERR
 100:../libDaisy/src/per/qspi.h ****         */
 101:../libDaisy/src/per/qspi.h ****     Result Init(const Config& config);
 102:../libDaisy/src/per/qspi.h **** 
 103:../libDaisy/src/per/qspi.h ****     /** Returns the current config. */
 104:../libDaisy/src/per/qspi.h ****     const Config& GetConfig() const;
 105:../libDaisy/src/per/qspi.h **** 
 106:../libDaisy/src/per/qspi.h ****     // Couldn't this just be called before anything else in init? That
 107:../libDaisy/src/per/qspi.h ****     // would make manually calling it unnecessary.
 108:../libDaisy/src/per/qspi.h ****     /** 
 109:../libDaisy/src/per/qspi.h ****         Deinitializes the peripheral
 110:../libDaisy/src/per/qspi.h ****         This should be called before reinitializing QSPI in a different mode.
 111:../libDaisy/src/per/qspi.h ****         \return Result::OK or Result::ERR
 112:../libDaisy/src/per/qspi.h ****         */
 113:../libDaisy/src/per/qspi.h ****     Result DeInit();
 114:../libDaisy/src/per/qspi.h **** 
 115:../libDaisy/src/per/qspi.h ****     /** 
 116:../libDaisy/src/per/qspi.h ****         Writes a single page to to the specified address on the QSPI chip.
 117:../libDaisy/src/per/qspi.h ****         For IS25LP*, page size is 256 bytes.
 118:../libDaisy/src/per/qspi.h ****         \param address Address to write to
 119:../libDaisy/src/per/qspi.h ****         \param size Buffer size
 120:../libDaisy/src/per/qspi.h ****         \param buffer Buffer to write
 121:../libDaisy/src/per/qspi.h ****         \return Result::OK or Result::ERR
 122:../libDaisy/src/per/qspi.h ****         */
 123:../libDaisy/src/per/qspi.h ****     Result WritePage(uint32_t address, uint32_t size, uint8_t* buffer);
 124:../libDaisy/src/per/qspi.h **** 
ARM GAS  /var/folders/2p/02m_5p7958535cp2tpgps0400000gn/T//ccf9gERz.s 			page 28


 125:../libDaisy/src/per/qspi.h ****     /** 
 126:../libDaisy/src/per/qspi.h ****         Writes data in buffer to to the QSPI. Starting at address to address+size 
 127:../libDaisy/src/per/qspi.h ****         \param address Address to write to
 128:../libDaisy/src/per/qspi.h ****         \param size Buffer size
 129:../libDaisy/src/per/qspi.h ****         \param buffer Buffer to write
 130:../libDaisy/src/per/qspi.h ****         \return Result::OK or Result::ERR
 131:../libDaisy/src/per/qspi.h ****         */
 132:../libDaisy/src/per/qspi.h ****     Result Write(uint32_t address, uint32_t size, uint8_t* buffer);
 133:../libDaisy/src/per/qspi.h **** 
 134:../libDaisy/src/per/qspi.h ****     /** 
 135:../libDaisy/src/per/qspi.h ****         Erases the area specified on the chip.
 136:../libDaisy/src/per/qspi.h ****         Erasures will happen by 4K, 32K or 64K increments.
 137:../libDaisy/src/per/qspi.h ****         Smallest erase possible is 4kB at a time. (on IS25LP*)
 138:../libDaisy/src/per/qspi.h ****         \param start_addr Address to begin erasing from
 139:../libDaisy/src/per/qspi.h ****         \param end_addr  Address to stop erasing at
 140:../libDaisy/src/per/qspi.h ****         \return Result::OK or Result::ERR
 141:../libDaisy/src/per/qspi.h ****         */
 142:../libDaisy/src/per/qspi.h ****     Result Erase(uint32_t start_addr, uint32_t end_addr);
 143:../libDaisy/src/per/qspi.h **** 
 144:../libDaisy/src/per/qspi.h ****     /**  
 145:../libDaisy/src/per/qspi.h ****          Erases a single sector of the chip.  
 146:../libDaisy/src/per/qspi.h ****         TODO: Document the size of this function. 
 147:../libDaisy/src/per/qspi.h ****         \param address Address of sector to erase
 148:../libDaisy/src/per/qspi.h ****         \return Result::OK or Result::ERR
 149:../libDaisy/src/per/qspi.h ****         */
 150:../libDaisy/src/per/qspi.h ****     Result EraseSector(uint32_t address);
 151:../libDaisy/src/per/qspi.h **** 
 152:../libDaisy/src/per/qspi.h ****     /** Returns the current class status. Useful for debugging.
 153:../libDaisy/src/per/qspi.h ****      *  \returns Status
 154:../libDaisy/src/per/qspi.h ****      */
 155:../libDaisy/src/per/qspi.h ****     Status GetStatus();
 156:../libDaisy/src/per/qspi.h **** 
 157:../libDaisy/src/per/qspi.h ****     /** Returns a pointer to the actual memory used 
 158:../libDaisy/src/per/qspi.h ****      *  The memory at this address is read-only
 159:../libDaisy/src/per/qspi.h ****      *  to write to it use the Write function.
 160:../libDaisy/src/per/qspi.h ****      * 
 161:../libDaisy/src/per/qspi.h ****      *  \param offset returns the pointer starting this 
 162:../libDaisy/src/per/qspi.h ****      *                many bytes into the memory
 163:../libDaisy/src/per/qspi.h ****     */
 164:../libDaisy/src/per/qspi.h ****     void* GetData(uint32_t offset = 0);
 165:../libDaisy/src/per/qspi.h **** 
 166:../libDaisy/src/per/qspi.h ****     QSPIHandle() : pimpl_(nullptr) {}
 845              		.loc 10 166 5
 846              		.cfi_startproc
 847              		@ args = 0, pretend = 0, frame = 8
 848              		@ frame_needed = 1, uses_anonymous_args = 0
 849              		@ link register save eliminated.
 850 0000 80B4     		push	{r7}
 851              		.cfi_def_cfa_offset 4
 852              		.cfi_offset 7, -4
 853 0002 83B0     		sub	sp, sp, #12
 854              		.cfi_def_cfa_offset 16
 855 0004 00AF     		add	r7, sp, #0
 856              		.cfi_def_cfa_register 7
 857 0006 7860     		str	r0, [r7, #4]
 858              	.LBB6:
 859              		.loc 10 166 34
ARM GAS  /var/folders/2p/02m_5p7958535cp2tpgps0400000gn/T//ccf9gERz.s 			page 29


 860 0008 7B68     		ldr	r3, [r7, #4]
 861 000a 0022     		movs	r2, #0
 862 000c 1A60     		str	r2, [r3]
 863              	.LBE6:
 864              		.loc 10 166 37
 865 000e 7B68     		ldr	r3, [r7, #4]
 866 0010 1846     		mov	r0, r3
 867 0012 0C37     		adds	r7, r7, #12
 868              		.cfi_def_cfa_offset 4
 869 0014 BD46     		mov	sp, r7
 870              		.cfi_def_cfa_register 13
 871              		@ sp needed
 872 0016 5DF8047B 		ldr	r7, [sp], #4
 873              		.cfi_restore 7
 874              		.cfi_def_cfa_offset 0
 875 001a 7047     		bx	lr
 876              		.cfi_endproc
 877              	.LFE3713:
 879              		.weak	_ZN5daisy10QSPIHandleC1Ev
 880              		.thumb_set _ZN5daisy10QSPIHandleC1Ev,_ZN5daisy10QSPIHandleC2Ev
 881              		.section	.text._ZN5daisy9DacHandleC2Ev,"axG",%progbits,_ZN5daisy9DacHandleC5Ev,comdat
 882              		.align	1
 883              		.weak	_ZN5daisy9DacHandleC2Ev
 884              		.syntax unified
 885              		.thumb
 886              		.thumb_func
 888              	_ZN5daisy9DacHandleC2Ev:
 889              	.LFB3716:
 890              		.file 11 "../libDaisy/src/per/dac.h"
   1:../libDaisy/src/per/dac.h **** #pragma once
   2:../libDaisy/src/per/dac.h **** #ifndef DSY_DAC_H
   3:../libDaisy/src/per/dac.h **** #define DSY_DAC_H
   4:../libDaisy/src/per/dac.h **** 
   5:../libDaisy/src/per/dac.h **** #include "daisy_core.h"
   6:../libDaisy/src/per/dac.h **** 
   7:../libDaisy/src/per/dac.h **** namespace daisy
   8:../libDaisy/src/per/dac.h **** {
   9:../libDaisy/src/per/dac.h **** /** @brief DAC handle for Built-in DAC Peripheral 
  10:../libDaisy/src/per/dac.h ****  *  @ingroup per_analog
  11:../libDaisy/src/per/dac.h ****  ** 
  12:../libDaisy/src/per/dac.h ****  ** For now only Normal Mode is supported,
  13:../libDaisy/src/per/dac.h ****  ** Sample and hold mode provides reduced power consumption, but requires a bit more setup.
  14:../libDaisy/src/per/dac.h ****  **
  15:../libDaisy/src/per/dac.h ****  ** For now connecting the DAC through other internal peripherals is also not supported.
  16:../libDaisy/src/per/dac.h ****  **
  17:../libDaisy/src/per/dac.h ****  ** Since the DAC channels have dedicated pins we don't need to pass in a pin config like with
  18:../libDaisy/src/per/dac.h ****  ** other modules. However, it is still important to not try to use the DAC pins for anything else.
  19:../libDaisy/src/per/dac.h ****  ** DAC Channel 1 is on PA4, and DAC Channel 2 is on PA5
  20:../libDaisy/src/per/dac.h ****  ***/
  21:../libDaisy/src/per/dac.h **** class DacHandle
  22:../libDaisy/src/per/dac.h **** {
  23:../libDaisy/src/per/dac.h ****   public:
  24:../libDaisy/src/per/dac.h ****     /** Return Values for the DacHandle class */
  25:../libDaisy/src/per/dac.h ****     enum class Result
  26:../libDaisy/src/per/dac.h ****     {
  27:../libDaisy/src/per/dac.h ****         OK,
  28:../libDaisy/src/per/dac.h ****         ERR,
ARM GAS  /var/folders/2p/02m_5p7958535cp2tpgps0400000gn/T//ccf9gERz.s 			page 30


  29:../libDaisy/src/per/dac.h ****     };
  30:../libDaisy/src/per/dac.h **** 
  31:../libDaisy/src/per/dac.h ****     /** Selects which channel(s) will be configured for use. */
  32:../libDaisy/src/per/dac.h ****     enum class Channel
  33:../libDaisy/src/per/dac.h ****     {
  34:../libDaisy/src/per/dac.h ****         ONE,
  35:../libDaisy/src/per/dac.h ****         TWO,
  36:../libDaisy/src/per/dac.h ****         BOTH,
  37:../libDaisy/src/per/dac.h ****     };
  38:../libDaisy/src/per/dac.h **** 
  39:../libDaisy/src/per/dac.h ****     /** Sets the Mode for the DAC channels.
  40:../libDaisy/src/per/dac.h ****      **
  41:../libDaisy/src/per/dac.h ****      ** Polling mode uses the blocking mode to transmit a single value at a time.
  42:../libDaisy/src/per/dac.h ****      **
  43:../libDaisy/src/per/dac.h ****      ** DMA mode uses a buffer, and periodically transmits it triggering a 
  44:../libDaisy/src/per/dac.h ****      ** callback to fill the buffer when it is ready for more samples.
  45:../libDaisy/src/per/dac.h ****      ***/
  46:../libDaisy/src/per/dac.h ****     enum class Mode
  47:../libDaisy/src/per/dac.h ****     {
  48:../libDaisy/src/per/dac.h ****         POLLING,
  49:../libDaisy/src/per/dac.h ****         DMA,
  50:../libDaisy/src/per/dac.h ****     };
  51:../libDaisy/src/per/dac.h **** 
  52:../libDaisy/src/per/dac.h ****     /** Sets the number of bits per sample transmitted out of the DAC.
  53:../libDaisy/src/per/dac.h ****      ** The output range will be: 0V - VDDA
  54:../libDaisy/src/per/dac.h ****      ** The resolution will be roughly: bitdepth / (VDDA - 0V) 
  55:../libDaisy/src/per/dac.h ****      ***/
  56:../libDaisy/src/per/dac.h ****     enum class BitDepth
  57:../libDaisy/src/per/dac.h ****     {
  58:../libDaisy/src/per/dac.h ****         BITS_8,
  59:../libDaisy/src/per/dac.h ****         BITS_12
  60:../libDaisy/src/per/dac.h ****     };
  61:../libDaisy/src/per/dac.h **** 
  62:../libDaisy/src/per/dac.h ****     /** Sets whether the DAC output is buffered for higher drive ability. */
  63:../libDaisy/src/per/dac.h ****     enum class BufferState
  64:../libDaisy/src/per/dac.h ****     {
  65:../libDaisy/src/per/dac.h ****         ENABLED,
  66:../libDaisy/src/per/dac.h ****         DISABLED,
  67:../libDaisy/src/per/dac.h ****     };
  68:../libDaisy/src/per/dac.h **** 
  69:../libDaisy/src/per/dac.h ****     /** Configuration structure for initializing the DAC structure. */
  70:../libDaisy/src/per/dac.h ****     struct Config
  71:../libDaisy/src/per/dac.h ****     {
  72:../libDaisy/src/per/dac.h ****         /** Target Samplerate in Hz used to configure the internal 
  73:../libDaisy/src/per/dac.h ****          ** timebase for DMA mode. Does nothing in POLLING mode.
  74:../libDaisy/src/per/dac.h ****          ** If the value is 0 at Init time this will default to 48000Hz 
  75:../libDaisy/src/per/dac.h ****          ** otherwise the driver will attempt meet the target.*/
  76:../libDaisy/src/per/dac.h ****         uint32_t target_samplerate;
  77:../libDaisy/src/per/dac.h **** 
  78:../libDaisy/src/per/dac.h ****         Channel     chn;
  79:../libDaisy/src/per/dac.h ****         Mode        mode;
  80:../libDaisy/src/per/dac.h ****         BitDepth    bitdepth;
  81:../libDaisy/src/per/dac.h ****         BufferState buff_state;
  82:../libDaisy/src/per/dac.h ****     };
  83:../libDaisy/src/per/dac.h **** 
  84:../libDaisy/src/per/dac.h ****     DacHandle() : pimpl_(nullptr) {}
 891              		.loc 11 84 5
ARM GAS  /var/folders/2p/02m_5p7958535cp2tpgps0400000gn/T//ccf9gERz.s 			page 31


 892              		.cfi_startproc
 893              		@ args = 0, pretend = 0, frame = 8
 894              		@ frame_needed = 1, uses_anonymous_args = 0
 895              		@ link register save eliminated.
 896 0000 80B4     		push	{r7}
 897              		.cfi_def_cfa_offset 4
 898              		.cfi_offset 7, -4
 899 0002 83B0     		sub	sp, sp, #12
 900              		.cfi_def_cfa_offset 16
 901 0004 00AF     		add	r7, sp, #0
 902              		.cfi_def_cfa_register 7
 903 0006 7860     		str	r0, [r7, #4]
 904              	.LBB7:
 905              		.loc 11 84 33
 906 0008 7B68     		ldr	r3, [r7, #4]
 907 000a 0022     		movs	r2, #0
 908 000c 1A60     		str	r2, [r3]
 909              	.LBE7:
 910              		.loc 11 84 36
 911 000e 7B68     		ldr	r3, [r7, #4]
 912 0010 1846     		mov	r0, r3
 913 0012 0C37     		adds	r7, r7, #12
 914              		.cfi_def_cfa_offset 4
 915 0014 BD46     		mov	sp, r7
 916              		.cfi_def_cfa_register 13
 917              		@ sp needed
 918 0016 5DF8047B 		ldr	r7, [sp], #4
 919              		.cfi_restore 7
 920              		.cfi_def_cfa_offset 0
 921 001a 7047     		bx	lr
 922              		.cfi_endproc
 923              	.LFE3716:
 925              		.weak	_ZN5daisy9DacHandleC1Ev
 926              		.thumb_set _ZN5daisy9DacHandleC1Ev,_ZN5daisy9DacHandleC2Ev
 927              		.section	.text._ZN5daisy9SaiHandleC2Ev,"axG",%progbits,_ZN5daisy9SaiHandleC5Ev,comdat
 928              		.align	1
 929              		.weak	_ZN5daisy9SaiHandleC2Ev
 930              		.syntax unified
 931              		.thumb
 932              		.thumb_func
 934              	_ZN5daisy9SaiHandleC2Ev:
 935              	.LFB3780:
 936              		.file 12 "../libDaisy/src/per/sai.h"
   1:../libDaisy/src/per/sai.h **** #pragma once
   2:../libDaisy/src/per/sai.h **** #ifndef DSY_SAI_H
   3:../libDaisy/src/per/sai.h **** #define DSY_SAI_H
   4:../libDaisy/src/per/sai.h **** 
   5:../libDaisy/src/per/sai.h **** #include "daisy_core.h"
   6:../libDaisy/src/per/sai.h **** 
   7:../libDaisy/src/per/sai.h **** namespace daisy
   8:../libDaisy/src/per/sai.h **** {
   9:../libDaisy/src/per/sai.h **** /** 
  10:../libDaisy/src/per/sai.h ****  * Support for I2S Audio Protocol with different bit-depth, samplerate options
  11:../libDaisy/src/per/sai.h ****  * Allows for master or slave, as well as freedom of selecting direction, 
  12:../libDaisy/src/per/sai.h ****  * and other behavior for each peripheral, and block.
  13:../libDaisy/src/per/sai.h ****  * 
  14:../libDaisy/src/per/sai.h ****  * DMA Transfer commands must use buffers located within non-cached memory or use cache maintenance
ARM GAS  /var/folders/2p/02m_5p7958535cp2tpgps0400000gn/T//ccf9gERz.s 			page 32


  15:../libDaisy/src/per/sai.h ****  * To declare an unitialized global element in the DMA memory section:
  16:../libDaisy/src/per/sai.h ****  *    int32_t DSY_DMA_BUFFER_SECTOR my_buffer[96];
  17:../libDaisy/src/per/sai.h ****  *
  18:../libDaisy/src/per/sai.h ****  * Callback functions will be called once per half of the buffer. In the above example, 
  19:../libDaisy/src/per/sai.h ****  * the callback function would be called once for every 48 samples.
  20:../libDaisy/src/per/sai.h ****  * 
  21:../libDaisy/src/per/sai.h ****  * Use SAI Handle like this:
  22:../libDaisy/src/per/sai.h ****  * 
  23:../libDaisy/src/per/sai.h ****  *  SaiHandle::Config sai_config;
  24:../libDaisy/src/per/sai.h ****  *  sai_config.periph          = SaiHandle::Config::Peripheral::SAI_1;
  25:../libDaisy/src/per/sai.h ****  *  sai_config.sr              = SaiHandle::Config::SampleRate::SAI_48KHZ;
  26:../libDaisy/src/per/sai.h ****  *  sai_config.bit_depth       = SaiHandle::Config::BitDepth::SAI_24BIT;
  27:../libDaisy/src/per/sai.h ****  *  sai_config.a_sync          = SaiHandle::Config::Sync::MASTER;
  28:../libDaisy/src/per/sai.h ****  *  sai_config.b_sync          = SaiHandle::Config::Sync::SLAVE;
  29:../libDaisy/src/per/sai.h ****  *  sai_config.a_dir           = SaiHandle::Config::Direction::RECEIVE;
  30:../libDaisy/src/per/sai.h ****  *  sai_config.b_dir           = SaiHandle::Config::Direction::TRANSMIT;
  31:../libDaisy/src/per/sai.h ****  *  sai_config.pin_config.fs   = {DSY_GPIOE, 4};
  32:../libDaisy/src/per/sai.h ****  *  sai_config.pin_config.mclk = {DSY_GPIOE, 2};
  33:../libDaisy/src/per/sai.h ****  *  sai_config.pin_config.sck  = {DSY_GPIOE, 5};
  34:../libDaisy/src/per/sai.h ****  *  sai_config.pin_config.sa   = {DSY_GPIOE, 6};
  35:../libDaisy/src/per/sai.h ****  *  sai_config.pin_config.sb   = {DSY_GPIOE, 3};
  36:../libDaisy/src/per/sai.h ****  *  // Then Initialize
  37:../libDaisy/src/per/sai.h ****  *  SaiHandle sai;
  38:../libDaisy/src/per/sai.h ****  *  sai.Init(sai_config);
  39:../libDaisy/src/per/sai.h ****  *  // Now you can use it:
  40:../libDaisy/src/per/sai.h ****  *  sai.StartDma(. . .);
  41:../libDaisy/src/per/sai.h ****  */
  42:../libDaisy/src/per/sai.h **** class SaiHandle
  43:../libDaisy/src/per/sai.h **** {
  44:../libDaisy/src/per/sai.h ****   public:
  45:../libDaisy/src/per/sai.h ****     /** Contains settings for initialising an SAI Interface */
  46:../libDaisy/src/per/sai.h ****     struct Config
  47:../libDaisy/src/per/sai.h ****     {
  48:../libDaisy/src/per/sai.h ****         /** Specifies the internal peripheral to use (mapped to different hardware pins) */
  49:../libDaisy/src/per/sai.h ****         enum class Peripheral
  50:../libDaisy/src/per/sai.h ****         {
  51:../libDaisy/src/per/sai.h ****             SAI_1,
  52:../libDaisy/src/per/sai.h ****             SAI_2,
  53:../libDaisy/src/per/sai.h ****         };
  54:../libDaisy/src/per/sai.h **** 
  55:../libDaisy/src/per/sai.h ****         /** Rate at which samples will be streaming to/from the device. */
  56:../libDaisy/src/per/sai.h ****         enum class SampleRate
  57:../libDaisy/src/per/sai.h ****         {
  58:../libDaisy/src/per/sai.h ****             SAI_8KHZ,
  59:../libDaisy/src/per/sai.h ****             SAI_16KHZ,
  60:../libDaisy/src/per/sai.h ****             SAI_32KHZ,
  61:../libDaisy/src/per/sai.h ****             SAI_48KHZ,
  62:../libDaisy/src/per/sai.h ****             SAI_96KHZ,
  63:../libDaisy/src/per/sai.h ****         };
  64:../libDaisy/src/per/sai.h **** 
  65:../libDaisy/src/per/sai.h ****         /** Bit Depth that the hardware expects to be transferred to/from the device. */
  66:../libDaisy/src/per/sai.h ****         enum class BitDepth
  67:../libDaisy/src/per/sai.h ****         {
  68:../libDaisy/src/per/sai.h ****             SAI_16BIT,
  69:../libDaisy/src/per/sai.h ****             SAI_24BIT,
  70:../libDaisy/src/per/sai.h ****             SAI_32BIT,
  71:../libDaisy/src/per/sai.h ****         };
ARM GAS  /var/folders/2p/02m_5p7958535cp2tpgps0400000gn/T//ccf9gERz.s 			page 33


  72:../libDaisy/src/per/sai.h **** 
  73:../libDaisy/src/per/sai.h ****         /** Specifies whether a particular block is the master or the slave 
  74:../libDaisy/src/per/sai.h ****          ** If both are set to slave, no MCLK signal will be used, and it is
  75:../libDaisy/src/per/sai.h ****          ** expected that the codec will have its own xtal.
  76:../libDaisy/src/per/sai.h ****          */
  77:../libDaisy/src/per/sai.h ****         enum class Sync
  78:../libDaisy/src/per/sai.h ****         {
  79:../libDaisy/src/per/sai.h ****             MASTER,
  80:../libDaisy/src/per/sai.h ****             SLAVE,
  81:../libDaisy/src/per/sai.h ****         };
  82:../libDaisy/src/per/sai.h **** 
  83:../libDaisy/src/per/sai.h ****         /** Specifies the direction for each peripheral block. */
  84:../libDaisy/src/per/sai.h ****         enum class Direction
  85:../libDaisy/src/per/sai.h ****         {
  86:../libDaisy/src/per/sai.h ****             TRANSMIT,
  87:../libDaisy/src/per/sai.h ****             RECEIVE,
  88:../libDaisy/src/per/sai.h ****         };
  89:../libDaisy/src/per/sai.h **** 
  90:../libDaisy/src/per/sai.h ****         Peripheral periph;
  91:../libDaisy/src/per/sai.h ****         struct
  92:../libDaisy/src/per/sai.h ****         {
  93:../libDaisy/src/per/sai.h ****             dsy_gpio_pin mclk, fs, sck, sa, sb;
  94:../libDaisy/src/per/sai.h ****         } pin_config;
  95:../libDaisy/src/per/sai.h ****         SampleRate sr;
  96:../libDaisy/src/per/sai.h ****         BitDepth   bit_depth;
  97:../libDaisy/src/per/sai.h ****         Sync       a_sync, b_sync;
  98:../libDaisy/src/per/sai.h ****         Direction  a_dir, b_dir;
  99:../libDaisy/src/per/sai.h ****     };
 100:../libDaisy/src/per/sai.h **** 
 101:../libDaisy/src/per/sai.h ****     /** Return values for SAI functions */
 102:../libDaisy/src/per/sai.h ****     enum class Result
 103:../libDaisy/src/per/sai.h ****     {
 104:../libDaisy/src/per/sai.h ****         OK,
 105:../libDaisy/src/per/sai.h ****         ERR,
 106:../libDaisy/src/per/sai.h ****     };
 107:../libDaisy/src/per/sai.h **** 
 108:../libDaisy/src/per/sai.h ****     SaiHandle() : pimpl_(nullptr) {}
 937              		.loc 12 108 5
 938              		.cfi_startproc
 939              		@ args = 0, pretend = 0, frame = 8
 940              		@ frame_needed = 1, uses_anonymous_args = 0
 941              		@ link register save eliminated.
 942 0000 80B4     		push	{r7}
 943              		.cfi_def_cfa_offset 4
 944              		.cfi_offset 7, -4
 945 0002 83B0     		sub	sp, sp, #12
 946              		.cfi_def_cfa_offset 16
 947 0004 00AF     		add	r7, sp, #0
 948              		.cfi_def_cfa_register 7
 949 0006 7860     		str	r0, [r7, #4]
 950              	.LBB8:
 951              		.loc 12 108 33
 952 0008 7B68     		ldr	r3, [r7, #4]
 953 000a 0022     		movs	r2, #0
 954 000c 1A60     		str	r2, [r3]
 955              	.LBE8:
 956              		.loc 12 108 36
ARM GAS  /var/folders/2p/02m_5p7958535cp2tpgps0400000gn/T//ccf9gERz.s 			page 34


 957 000e 7B68     		ldr	r3, [r7, #4]
 958 0010 1846     		mov	r0, r3
 959 0012 0C37     		adds	r7, r7, #12
 960              		.cfi_def_cfa_offset 4
 961 0014 BD46     		mov	sp, r7
 962              		.cfi_def_cfa_register 13
 963              		@ sp needed
 964 0016 5DF8047B 		ldr	r7, [sp], #4
 965              		.cfi_restore 7
 966              		.cfi_def_cfa_offset 0
 967 001a 7047     		bx	lr
 968              		.cfi_endproc
 969              	.LFE3780:
 971              		.weak	_ZN5daisy9SaiHandleC1Ev
 972              		.thumb_set _ZN5daisy9SaiHandleC1Ev,_ZN5daisy9SaiHandleC2Ev
 973              		.section	.text._ZN5daisy11AudioHandleC2Ev,"axG",%progbits,_ZN5daisy11AudioHandleC5Ev,comdat
 974              		.align	1
 975              		.weak	_ZN5daisy11AudioHandleC2Ev
 976              		.syntax unified
 977              		.thumb
 978              		.thumb_func
 980              	_ZN5daisy11AudioHandleC2Ev:
 981              	.LFB3787:
 982              		.file 13 "../libDaisy/src/hid/audio.h"
   1:../libDaisy/src/hid/audio.h **** #ifndef DSY_AUDIO_H
   2:../libDaisy/src/hid/audio.h **** #define DSY_AUDIO_H /**< & */
   3:../libDaisy/src/hid/audio.h **** 
   4:../libDaisy/src/hid/audio.h **** #include "per/sai.h"
   5:../libDaisy/src/hid/audio.h **** 
   6:../libDaisy/src/hid/audio.h **** namespace daisy
   7:../libDaisy/src/hid/audio.h **** {
   8:../libDaisy/src/hid/audio.h **** /** @brief Audio Engine Handle
   9:../libDaisy/src/hid/audio.h ****  *  @ingroup audio 
  10:../libDaisy/src/hid/audio.h ****  *  @details This class allows for higher level access to an audio engine.
  11:../libDaisy/src/hid/audio.h ****  *           If you're using a SOM like the DaisySeed or DaisyPatchSM (or any 
  12:../libDaisy/src/hid/audio.h ****  *            board that includes one of those objects) then the intialization
  13:../libDaisy/src/hid/audio.h ****  *            is already taken  care of.
  14:../libDaisy/src/hid/audio.h ****  *           If you're setting up your own custom hardware, or need to make changes
  15:../libDaisy/src/hid/audio.h ****  *           you will have to take the following steps:
  16:../libDaisy/src/hid/audio.h ****  *             1. Create and Initialize an SaiHandle or two depending on your requirements
  17:../libDaisy/src/hid/audio.h ****  *             2. Initialize the Audio Handle with the desired settings and the Initialized SaiHand
  18:../libDaisy/src/hid/audio.h ****  *             3. If the connected codec requires special configuration or initialization, do so
  19:../libDaisy/src/hid/audio.h ****  *             4. Write a callback method using either the AudioCallback or the InterleavingAudioCa
  20:../libDaisy/src/hid/audio.h ****  *             5. Start the Audio using one of the StartAudio function
  21:../libDaisy/src/hid/audio.h ****  */
  22:../libDaisy/src/hid/audio.h **** class AudioHandle
  23:../libDaisy/src/hid/audio.h **** {
  24:../libDaisy/src/hid/audio.h ****   public:
  25:../libDaisy/src/hid/audio.h ****     /** Manually configurable details about the Audio Engine */
  26:../libDaisy/src/hid/audio.h ****     /** TODO: Figure out how to get samplerate in here. */
  27:../libDaisy/src/hid/audio.h ****     struct Config
  28:../libDaisy/src/hid/audio.h ****     {
  29:../libDaisy/src/hid/audio.h ****         /** number of samples to process per callback */
  30:../libDaisy/src/hid/audio.h ****         size_t blocksize;
  31:../libDaisy/src/hid/audio.h **** 
  32:../libDaisy/src/hid/audio.h ****         /**< Sample rate of audio */
  33:../libDaisy/src/hid/audio.h ****         SaiHandle::Config::SampleRate samplerate;
ARM GAS  /var/folders/2p/02m_5p7958535cp2tpgps0400000gn/T//ccf9gERz.s 			page 35


  34:../libDaisy/src/hid/audio.h **** 
  35:../libDaisy/src/hid/audio.h ****         /** factor for adjustment before and after callback for hardware that may have extra headro
  36:../libDaisy/src/hid/audio.h ****         float postgain;
  37:../libDaisy/src/hid/audio.h **** 
  38:../libDaisy/src/hid/audio.h ****         /** factor for additional one-sided compensation to audio path for hardware that may
  39:../libDaisy/src/hid/audio.h ****          *  have unequal input/output ranges
  40:../libDaisy/src/hid/audio.h ****          */
  41:../libDaisy/src/hid/audio.h ****         float output_compensation;
  42:../libDaisy/src/hid/audio.h **** 
  43:../libDaisy/src/hid/audio.h ****         /** Sets default values for config struct */
  44:../libDaisy/src/hid/audio.h ****         Config()
  45:../libDaisy/src/hid/audio.h ****         : blocksize(48),
  46:../libDaisy/src/hid/audio.h ****           samplerate(SaiHandle::Config::SampleRate::SAI_48KHZ),
  47:../libDaisy/src/hid/audio.h ****           postgain(1.f),
  48:../libDaisy/src/hid/audio.h ****           output_compensation(1.f)
  49:../libDaisy/src/hid/audio.h ****         {
  50:../libDaisy/src/hid/audio.h ****         }
  51:../libDaisy/src/hid/audio.h ****     };
  52:../libDaisy/src/hid/audio.h **** 
  53:../libDaisy/src/hid/audio.h ****     enum class Result
  54:../libDaisy/src/hid/audio.h ****     {
  55:../libDaisy/src/hid/audio.h ****         OK,
  56:../libDaisy/src/hid/audio.h ****         ERR,
  57:../libDaisy/src/hid/audio.h ****     };
  58:../libDaisy/src/hid/audio.h **** 
  59:../libDaisy/src/hid/audio.h ****     /** Non-Interleaving input buffer
  60:../libDaisy/src/hid/audio.h ****      * Buffer arranged by float[chn][sample] 
  61:../libDaisy/src/hid/audio.h ****      * const so that the user can't modify the input
  62:../libDaisy/src/hid/audio.h ****      */
  63:../libDaisy/src/hid/audio.h ****     typedef const float* const* InputBuffer;
  64:../libDaisy/src/hid/audio.h **** 
  65:../libDaisy/src/hid/audio.h ****     /** Non-Interleaving output buffer
  66:../libDaisy/src/hid/audio.h ****      * Arranged by float[chn][sample] 
  67:../libDaisy/src/hid/audio.h ****      */
  68:../libDaisy/src/hid/audio.h ****     typedef float** OutputBuffer;
  69:../libDaisy/src/hid/audio.h **** 
  70:../libDaisy/src/hid/audio.h ****     /** Type for a Non-Interleaving audio callback 
  71:../libDaisy/src/hid/audio.h ****      * Non-Interleaving audio callbacks in daisy will be of this type
  72:../libDaisy/src/hid/audio.h ****      */
  73:../libDaisy/src/hid/audio.h ****     typedef void (*AudioCallback)(InputBuffer  in,
  74:../libDaisy/src/hid/audio.h ****                                   OutputBuffer out,
  75:../libDaisy/src/hid/audio.h ****                                   size_t       size);
  76:../libDaisy/src/hid/audio.h **** 
  77:../libDaisy/src/hid/audio.h ****     /** Interleaving Input buffer
  78:../libDaisy/src/hid/audio.h ****      ** audio is prepared as { L0, R0, L1, R1, . . . LN, RN }]
  79:../libDaisy/src/hid/audio.h ****      ** this is const, as the user shouldn't modify it
  80:../libDaisy/src/hid/audio.h ****     */
  81:../libDaisy/src/hid/audio.h ****     typedef const float* InterleavingInputBuffer;
  82:../libDaisy/src/hid/audio.h **** 
  83:../libDaisy/src/hid/audio.h ****     /** Interleaving Output buffer 
  84:../libDaisy/src/hid/audio.h ****      ** audio is prepared as { L0, R0, L1, R1, . . . LN, RN }
  85:../libDaisy/src/hid/audio.h ****     */
  86:../libDaisy/src/hid/audio.h ****     typedef float* InterleavingOutputBuffer;
  87:../libDaisy/src/hid/audio.h **** 
  88:../libDaisy/src/hid/audio.h ****     /** Interleaving Audio Callback 
  89:../libDaisy/src/hid/audio.h ****      * Interleaving audio callbacks in daisy must be of this type
  90:../libDaisy/src/hid/audio.h ****      */
ARM GAS  /var/folders/2p/02m_5p7958535cp2tpgps0400000gn/T//ccf9gERz.s 			page 36


  91:../libDaisy/src/hid/audio.h ****     typedef void (*InterleavingAudioCallback)(InterleavingInputBuffer  in,
  92:../libDaisy/src/hid/audio.h ****                                               InterleavingOutputBuffer out,
  93:../libDaisy/src/hid/audio.h ****                                               size_t                   size);
  94:../libDaisy/src/hid/audio.h **** 
  95:../libDaisy/src/hid/audio.h ****     AudioHandle() : pimpl_(nullptr) {}
 983              		.loc 13 95 5
 984              		.cfi_startproc
 985              		@ args = 0, pretend = 0, frame = 8
 986              		@ frame_needed = 1, uses_anonymous_args = 0
 987              		@ link register save eliminated.
 988 0000 80B4     		push	{r7}
 989              		.cfi_def_cfa_offset 4
 990              		.cfi_offset 7, -4
 991 0002 83B0     		sub	sp, sp, #12
 992              		.cfi_def_cfa_offset 16
 993 0004 00AF     		add	r7, sp, #0
 994              		.cfi_def_cfa_register 7
 995 0006 7860     		str	r0, [r7, #4]
 996              	.LBB9:
 997              		.loc 13 95 35
 998 0008 7B68     		ldr	r3, [r7, #4]
 999 000a 0022     		movs	r2, #0
 1000 000c 1A60     		str	r2, [r3]
 1001              	.LBE9:
 1002              		.loc 13 95 38
 1003 000e 7B68     		ldr	r3, [r7, #4]
 1004 0010 1846     		mov	r0, r3
 1005 0012 0C37     		adds	r7, r7, #12
 1006              		.cfi_def_cfa_offset 4
 1007 0014 BD46     		mov	sp, r7
 1008              		.cfi_def_cfa_register 13
 1009              		@ sp needed
 1010 0016 5DF8047B 		ldr	r7, [sp], #4
 1011              		.cfi_restore 7
 1012              		.cfi_def_cfa_offset 0
 1013 001a 7047     		bx	lr
 1014              		.cfi_endproc
 1015              	.LFE3787:
 1017              		.weak	_ZN5daisy11AudioHandleC1Ev
 1018              		.thumb_set _ZN5daisy11AudioHandleC1Ev,_ZN5daisy11AudioHandleC2Ev
 1019              		.section	.text._ZN5daisy11AudioHandleD2Ev,"axG",%progbits,_ZN5daisy11AudioHandleD5Ev,comdat
 1020              		.align	1
 1021              		.weak	_ZN5daisy11AudioHandleD2Ev
 1022              		.syntax unified
 1023              		.thumb
 1024              		.thumb_func
 1026              	_ZN5daisy11AudioHandleD2Ev:
 1027              	.LFB3790:
  96:../libDaisy/src/hid/audio.h ****     ~AudioHandle() {}
 1028              		.loc 13 96 5
 1029              		.cfi_startproc
 1030              		@ args = 0, pretend = 0, frame = 8
 1031              		@ frame_needed = 1, uses_anonymous_args = 0
 1032              		@ link register save eliminated.
 1033 0000 80B4     		push	{r7}
 1034              		.cfi_def_cfa_offset 4
 1035              		.cfi_offset 7, -4
ARM GAS  /var/folders/2p/02m_5p7958535cp2tpgps0400000gn/T//ccf9gERz.s 			page 37


 1036 0002 83B0     		sub	sp, sp, #12
 1037              		.cfi_def_cfa_offset 16
 1038 0004 00AF     		add	r7, sp, #0
 1039              		.cfi_def_cfa_register 7
 1040 0006 7860     		str	r0, [r7, #4]
 1041              		.loc 13 96 21
 1042 0008 7B68     		ldr	r3, [r7, #4]
 1043 000a 1846     		mov	r0, r3
 1044 000c 0C37     		adds	r7, r7, #12
 1045              		.cfi_def_cfa_offset 4
 1046 000e BD46     		mov	sp, r7
 1047              		.cfi_def_cfa_register 13
 1048              		@ sp needed
 1049 0010 5DF8047B 		ldr	r7, [sp], #4
 1050              		.cfi_restore 7
 1051              		.cfi_def_cfa_offset 0
 1052 0014 7047     		bx	lr
 1053              		.cfi_endproc
 1054              	.LFE3790:
 1056              		.weak	_ZN5daisy11AudioHandleD1Ev
 1057              		.thumb_set _ZN5daisy11AudioHandleD1Ev,_ZN5daisy11AudioHandleD2Ev
 1058              		.section	.text._ZN5daisy9AdcHandleC2Ev,"axG",%progbits,_ZN5daisy9AdcHandleC5Ev,comdat
 1059              		.align	1
 1060              		.weak	_ZN5daisy9AdcHandleC2Ev
 1061              		.syntax unified
 1062              		.thumb
 1063              		.thumb_func
 1065              	_ZN5daisy9AdcHandleC2Ev:
 1066              	.LFB3793:
 1067              		.file 14 "../libDaisy/src/per/adc.h"
   1:../libDaisy/src/per/adc.h **** #pragma once
   2:../libDaisy/src/per/adc.h **** #ifndef DSY_ADC_H
   3:../libDaisy/src/per/adc.h **** #define DSY_ADC_H /**< Macro */
   4:../libDaisy/src/per/adc.h **** #include <stdint.h>
   5:../libDaisy/src/per/adc.h **** #include <stdlib.h>
   6:../libDaisy/src/per/adc.h **** #include "daisy_core.h"
   7:../libDaisy/src/per/adc.h **** #include "per/gpio.h"
   8:../libDaisy/src/per/adc.h **** 
   9:../libDaisy/src/per/adc.h **** #define DSY_ADC_MAX_CHANNELS 16 /**< Maximum number of ADC channels */
  10:../libDaisy/src/per/adc.h **** 
  11:../libDaisy/src/per/adc.h **** namespace daisy
  12:../libDaisy/src/per/adc.h **** {
  13:../libDaisy/src/per/adc.h **** /** @addtogroup per_analog
  14:../libDaisy/src/per/adc.h ****     @{
  15:../libDaisy/src/per/adc.h **** */
  16:../libDaisy/src/per/adc.h **** 
  17:../libDaisy/src/per/adc.h **** /* While there may not be many configuration options here,
  18:../libDaisy/src/per/adc.h **** using a struct like this allows us to add more configuration
  19:../libDaisy/src/per/adc.h **** later without breaking existing functionality.
  20:../libDaisy/src/per/adc.h **** */
  21:../libDaisy/src/per/adc.h **** 
  22:../libDaisy/src/per/adc.h **** /** @brief   Configuration Structure for an ADC Channel 
  23:../libDaisy/src/per/adc.h ****  *  @details This can be used to configure a a single input, 
  24:../libDaisy/src/per/adc.h ****  *           or a multiplexed input, allowing up to 8 inputs on 
  25:../libDaisy/src/per/adc.h ****  *           one channel.
  26:../libDaisy/src/per/adc.h ****  *  @note    Sharing data lines to multiple muxes _is_ possible, but
  27:../libDaisy/src/per/adc.h ****  *           each channel sharing data lines must be set to the maximum
ARM GAS  /var/folders/2p/02m_5p7958535cp2tpgps0400000gn/T//ccf9gERz.s 			page 38


  28:../libDaisy/src/per/adc.h ****  *           number of channels, even if some multiplexers have fewer
  29:../libDaisy/src/per/adc.h ****  *           inputs connected.
  30:../libDaisy/src/per/adc.h **** */
  31:../libDaisy/src/per/adc.h **** struct AdcChannelConfig
  32:../libDaisy/src/per/adc.h **** {
  33:../libDaisy/src/per/adc.h ****     /** Which pin to use for multiplexing */
  34:../libDaisy/src/per/adc.h ****     enum MuxPin
  35:../libDaisy/src/per/adc.h ****     {
  36:../libDaisy/src/per/adc.h ****         MUX_SEL_0,    /**< & */
  37:../libDaisy/src/per/adc.h ****         MUX_SEL_1,    /**< & */
  38:../libDaisy/src/per/adc.h ****         MUX_SEL_2,    /**< & */
  39:../libDaisy/src/per/adc.h ****         MUX_SEL_LAST, /**< & */
  40:../libDaisy/src/per/adc.h ****     };
  41:../libDaisy/src/per/adc.h **** 
  42:../libDaisy/src/per/adc.h ****     /** \brief per channel conversion speed added to fixed time based on bitdepth, etc. */
  43:../libDaisy/src/per/adc.h ****     enum ConversionSpeed
  44:../libDaisy/src/per/adc.h ****     {
  45:../libDaisy/src/per/adc.h ****         SPEED_1CYCLES_5,
  46:../libDaisy/src/per/adc.h ****         SPEED_2CYCLES_5,
  47:../libDaisy/src/per/adc.h ****         SPEED_8CYCLES_5,
  48:../libDaisy/src/per/adc.h ****         SPEED_16CYCLES_5,
  49:../libDaisy/src/per/adc.h ****         SPEED_32CYCLES_5,
  50:../libDaisy/src/per/adc.h ****         SPEED_64CYCLES_5,
  51:../libDaisy/src/per/adc.h ****         SPEED_387CYCLES_5,
  52:../libDaisy/src/per/adc.h ****         SPEED_810CYCLES_5,
  53:../libDaisy/src/per/adc.h ****     };
  54:../libDaisy/src/per/adc.h **** 
  55:../libDaisy/src/per/adc.h ****     /** Initializes a single ADC pin as an ADC. 
  56:../libDaisy/src/per/adc.h ****     \param pin Pin to init.
  57:../libDaisy/src/per/adc.h ****     \param speed conversion speed for this pin defaults to 8.5 cycles
  58:../libDaisy/src/per/adc.h ****      */
  59:../libDaisy/src/per/adc.h ****     void InitSingle(dsy_gpio_pin pin, ConversionSpeed speed = SPEED_8CYCLES_5);
  60:../libDaisy/src/per/adc.h **** 
  61:../libDaisy/src/per/adc.h ****     /** 
  62:../libDaisy/src/per/adc.h ****     Initializes a single ADC pin as a Multiplexed ADC.
  63:../libDaisy/src/per/adc.h ****     Requires a CD405X Multiplexer connected to the pin.
  64:../libDaisy/src/per/adc.h ****     You only need to supply the mux pins that are required,
  65:../libDaisy/src/per/adc.h ****     e.g. a 4052 mux would only require mux_0 and mux_1.
  66:../libDaisy/src/per/adc.h ****     Internal Callbacks handle the pin addressing.
  67:../libDaisy/src/per/adc.h ****     \param adc_pin &
  68:../libDaisy/src/per/adc.h ****     \param mux_channels must be 1-8
  69:../libDaisy/src/per/adc.h ****     \param mux_0 First mux pin
  70:../libDaisy/src/per/adc.h ****     \param mux_1 Second mux pin
  71:../libDaisy/src/per/adc.h ****     \param mux_2 Third mux pin
  72:../libDaisy/src/per/adc.h ****     \param speed conversion speed for this pin defaults to 8.5 cycles
  73:../libDaisy/src/per/adc.h ****     */
  74:../libDaisy/src/per/adc.h ****     void InitMux(dsy_gpio_pin    adc_pin,
  75:../libDaisy/src/per/adc.h ****                  size_t          mux_channels,
  76:../libDaisy/src/per/adc.h ****                  dsy_gpio_pin    mux_0,
  77:../libDaisy/src/per/adc.h ****                  dsy_gpio_pin    mux_1 = {DSY_GPIOX, 0},
  78:../libDaisy/src/per/adc.h ****                  dsy_gpio_pin    mux_2 = {DSY_GPIOX, 0},
  79:../libDaisy/src/per/adc.h ****                  ConversionSpeed speed = SPEED_8CYCLES_5);
  80:../libDaisy/src/per/adc.h **** 
  81:../libDaisy/src/per/adc.h ****     dsy_gpio        pin_;                   /**< & */
  82:../libDaisy/src/per/adc.h ****     dsy_gpio        mux_pin_[MUX_SEL_LAST]; /**< & */
  83:../libDaisy/src/per/adc.h ****     uint8_t         mux_channels_;          /**< & */
  84:../libDaisy/src/per/adc.h ****     ConversionSpeed speed_;
ARM GAS  /var/folders/2p/02m_5p7958535cp2tpgps0400000gn/T//ccf9gERz.s 			page 39


  85:../libDaisy/src/per/adc.h **** };
  86:../libDaisy/src/per/adc.h **** 
  87:../libDaisy/src/per/adc.h **** /**
  88:../libDaisy/src/per/adc.h ****    @brief Handler for analog to digital conversion
  89:../libDaisy/src/per/adc.h **** */
  90:../libDaisy/src/per/adc.h **** class AdcHandle
  91:../libDaisy/src/per/adc.h **** {
  92:../libDaisy/src/per/adc.h ****   public:
  93:../libDaisy/src/per/adc.h ****     /** Supported oversampling amounts */
  94:../libDaisy/src/per/adc.h ****     enum OverSampling
  95:../libDaisy/src/per/adc.h ****     {
  96:../libDaisy/src/per/adc.h ****         OVS_NONE, /**< & */
  97:../libDaisy/src/per/adc.h ****         OVS_4,    /**< & */
  98:../libDaisy/src/per/adc.h ****         OVS_8,    /**< & */
  99:../libDaisy/src/per/adc.h ****         OVS_16,   /**< & */
 100:../libDaisy/src/per/adc.h ****         OVS_32,   /**< & */
 101:../libDaisy/src/per/adc.h ****         OVS_64,   /**< & */
 102:../libDaisy/src/per/adc.h ****         OVS_128,  /**< & */
 103:../libDaisy/src/per/adc.h ****         OVS_256,  /**< & */
 104:../libDaisy/src/per/adc.h ****         OVS_512,  /**< & */
 105:../libDaisy/src/per/adc.h ****         OVS_1024, /**< & */
 106:../libDaisy/src/per/adc.h ****         OVS_LAST, /**< & */
 107:../libDaisy/src/per/adc.h ****     };
 108:../libDaisy/src/per/adc.h **** 
 109:../libDaisy/src/per/adc.h ****     AdcHandle() {}
 1068              		.loc 14 109 5
 1069              		.cfi_startproc
 1070              		@ args = 0, pretend = 0, frame = 8
 1071              		@ frame_needed = 1, uses_anonymous_args = 0
 1072              		@ link register save eliminated.
 1073 0000 80B4     		push	{r7}
 1074              		.cfi_def_cfa_offset 4
 1075              		.cfi_offset 7, -4
 1076 0002 83B0     		sub	sp, sp, #12
 1077              		.cfi_def_cfa_offset 16
 1078 0004 00AF     		add	r7, sp, #0
 1079              		.cfi_def_cfa_register 7
 1080 0006 7860     		str	r0, [r7, #4]
 1081              		.loc 14 109 18
 1082 0008 7B68     		ldr	r3, [r7, #4]
 1083 000a 1846     		mov	r0, r3
 1084 000c 0C37     		adds	r7, r7, #12
 1085              		.cfi_def_cfa_offset 4
 1086 000e BD46     		mov	sp, r7
 1087              		.cfi_def_cfa_register 13
 1088              		@ sp needed
 1089 0010 5DF8047B 		ldr	r7, [sp], #4
 1090              		.cfi_restore 7
 1091              		.cfi_def_cfa_offset 0
 1092 0014 7047     		bx	lr
 1093              		.cfi_endproc
 1094              	.LFE3793:
 1096              		.weak	_ZN5daisy9AdcHandleC1Ev
 1097              		.thumb_set _ZN5daisy9AdcHandleC1Ev,_ZN5daisy9AdcHandleC2Ev
 1098              		.section	.text._ZN5daisy9AdcHandleD2Ev,"axG",%progbits,_ZN5daisy9AdcHandleD5Ev,comdat
 1099              		.align	1
 1100              		.weak	_ZN5daisy9AdcHandleD2Ev
ARM GAS  /var/folders/2p/02m_5p7958535cp2tpgps0400000gn/T//ccf9gERz.s 			page 40


 1101              		.syntax unified
 1102              		.thumb
 1103              		.thumb_func
 1105              	_ZN5daisy9AdcHandleD2Ev:
 1106              	.LFB3796:
 110:../libDaisy/src/per/adc.h ****     ~AdcHandle() {}
 1107              		.loc 14 110 5
 1108              		.cfi_startproc
 1109              		@ args = 0, pretend = 0, frame = 8
 1110              		@ frame_needed = 1, uses_anonymous_args = 0
 1111              		@ link register save eliminated.
 1112 0000 80B4     		push	{r7}
 1113              		.cfi_def_cfa_offset 4
 1114              		.cfi_offset 7, -4
 1115 0002 83B0     		sub	sp, sp, #12
 1116              		.cfi_def_cfa_offset 16
 1117 0004 00AF     		add	r7, sp, #0
 1118              		.cfi_def_cfa_register 7
 1119 0006 7860     		str	r0, [r7, #4]
 1120              		.loc 14 110 19
 1121 0008 7B68     		ldr	r3, [r7, #4]
 1122 000a 1846     		mov	r0, r3
 1123 000c 0C37     		adds	r7, r7, #12
 1124              		.cfi_def_cfa_offset 4
 1125 000e BD46     		mov	sp, r7
 1126              		.cfi_def_cfa_register 13
 1127              		@ sp needed
 1128 0010 5DF8047B 		ldr	r7, [sp], #4
 1129              		.cfi_restore 7
 1130              		.cfi_def_cfa_offset 0
 1131 0014 7047     		bx	lr
 1132              		.cfi_endproc
 1133              	.LFE3796:
 1135              		.weak	_ZN5daisy9AdcHandleD1Ev
 1136              		.thumb_set _ZN5daisy9AdcHandleD1Ev,_ZN5daisy9AdcHandleD2Ev
 1137              		.section	.text._ZN5daisy11UartHandlerC2Ev,"axG",%progbits,_ZN5daisy11UartHandlerC5Ev,comdat
 1138              		.align	1
 1139              		.weak	_ZN5daisy11UartHandlerC2Ev
 1140              		.syntax unified
 1141              		.thumb
 1142              		.thumb_func
 1144              	_ZN5daisy11UartHandlerC2Ev:
 1145              	.LFB3802:
 1146              		.file 15 "../libDaisy/src/per/uart.h"
   1:../libDaisy/src/per/uart.h **** /* 
   2:../libDaisy/src/per/uart.h **** TODO
   3:../libDaisy/src/per/uart.h **** - Overflow handling, etc. for Rx Queue.
   4:../libDaisy/src/per/uart.h **** */
   5:../libDaisy/src/per/uart.h **** 
   6:../libDaisy/src/per/uart.h **** #pragma once
   7:../libDaisy/src/per/uart.h **** #ifndef DSY_UART_H
   8:../libDaisy/src/per/uart.h **** #define DSY_UART_H /**< macro */
   9:../libDaisy/src/per/uart.h **** #include "daisy_core.h"
  10:../libDaisy/src/per/uart.h **** 
  11:../libDaisy/src/per/uart.h **** 
  12:../libDaisy/src/per/uart.h **** namespace daisy
  13:../libDaisy/src/per/uart.h **** {
ARM GAS  /var/folders/2p/02m_5p7958535cp2tpgps0400000gn/T//ccf9gERz.s 			page 41


  14:../libDaisy/src/per/uart.h **** /** @addtogroup serial
  15:../libDaisy/src/per/uart.h ****     @{
  16:../libDaisy/src/per/uart.h ****     */
  17:../libDaisy/src/per/uart.h **** 
  18:../libDaisy/src/per/uart.h **** /** 
  19:../libDaisy/src/per/uart.h ****     Uart Peripheral
  20:../libDaisy/src/per/uart.h ****     @author shensley
  21:../libDaisy/src/per/uart.h ****     @date March 2020
  22:../libDaisy/src/per/uart.h ****     */
  23:../libDaisy/src/per/uart.h **** class UartHandler
  24:../libDaisy/src/per/uart.h **** {
  25:../libDaisy/src/per/uart.h ****   public:
  26:../libDaisy/src/per/uart.h ****     struct Config
  27:../libDaisy/src/per/uart.h ****     {
  28:../libDaisy/src/per/uart.h ****         enum class Peripheral
  29:../libDaisy/src/per/uart.h ****         {
  30:../libDaisy/src/per/uart.h ****             USART_1,
  31:../libDaisy/src/per/uart.h ****             USART_2,
  32:../libDaisy/src/per/uart.h ****             USART_3,
  33:../libDaisy/src/per/uart.h ****             UART_4,
  34:../libDaisy/src/per/uart.h ****             UART_5,
  35:../libDaisy/src/per/uart.h ****             USART_6,
  36:../libDaisy/src/per/uart.h ****             UART_7,
  37:../libDaisy/src/per/uart.h ****             UART_8,
  38:../libDaisy/src/per/uart.h ****             LPUART_1,
  39:../libDaisy/src/per/uart.h ****         };
  40:../libDaisy/src/per/uart.h **** 
  41:../libDaisy/src/per/uart.h ****         enum class StopBits
  42:../libDaisy/src/per/uart.h ****         {
  43:../libDaisy/src/per/uart.h ****             BITS_0_5,
  44:../libDaisy/src/per/uart.h ****             BITS_1,
  45:../libDaisy/src/per/uart.h ****             BITS_1_5,
  46:../libDaisy/src/per/uart.h ****             BITS_2,
  47:../libDaisy/src/per/uart.h ****         };
  48:../libDaisy/src/per/uart.h **** 
  49:../libDaisy/src/per/uart.h ****         enum class Parity
  50:../libDaisy/src/per/uart.h ****         {
  51:../libDaisy/src/per/uart.h ****             NONE,
  52:../libDaisy/src/per/uart.h ****             EVEN,
  53:../libDaisy/src/per/uart.h ****             ODD,
  54:../libDaisy/src/per/uart.h ****         };
  55:../libDaisy/src/per/uart.h **** 
  56:../libDaisy/src/per/uart.h ****         enum class Mode
  57:../libDaisy/src/per/uart.h ****         {
  58:../libDaisy/src/per/uart.h ****             RX,
  59:../libDaisy/src/per/uart.h ****             TX,
  60:../libDaisy/src/per/uart.h ****             TX_RX,
  61:../libDaisy/src/per/uart.h ****         };
  62:../libDaisy/src/per/uart.h **** 
  63:../libDaisy/src/per/uart.h ****         enum class WordLength
  64:../libDaisy/src/per/uart.h ****         {
  65:../libDaisy/src/per/uart.h ****             BITS_7,
  66:../libDaisy/src/per/uart.h ****             BITS_8,
  67:../libDaisy/src/per/uart.h ****             BITS_9,
  68:../libDaisy/src/per/uart.h ****         };
  69:../libDaisy/src/per/uart.h **** 
  70:../libDaisy/src/per/uart.h ****         struct
ARM GAS  /var/folders/2p/02m_5p7958535cp2tpgps0400000gn/T//ccf9gERz.s 			page 42


  71:../libDaisy/src/per/uart.h ****         {
  72:../libDaisy/src/per/uart.h ****             dsy_gpio_pin tx; /**< & */
  73:../libDaisy/src/per/uart.h ****             dsy_gpio_pin rx; /**< & */
  74:../libDaisy/src/per/uart.h ****         } pin_config;        /**< & */
  75:../libDaisy/src/per/uart.h **** 
  76:../libDaisy/src/per/uart.h ****         Config()
  77:../libDaisy/src/per/uart.h ****         {
  78:../libDaisy/src/per/uart.h ****             // user must init periph, pin_config, and mode
  79:../libDaisy/src/per/uart.h ****             stopbits   = StopBits::BITS_1;
  80:../libDaisy/src/per/uart.h ****             parity     = Parity::NONE;
  81:../libDaisy/src/per/uart.h ****             wordlength = WordLength::BITS_8;
  82:../libDaisy/src/per/uart.h ****             baudrate   = 31250;
  83:../libDaisy/src/per/uart.h ****         }
  84:../libDaisy/src/per/uart.h **** 
  85:../libDaisy/src/per/uart.h ****         Peripheral periph;
  86:../libDaisy/src/per/uart.h ****         StopBits   stopbits;
  87:../libDaisy/src/per/uart.h ****         Parity     parity;
  88:../libDaisy/src/per/uart.h ****         Mode       mode;
  89:../libDaisy/src/per/uart.h ****         WordLength wordlength;
  90:../libDaisy/src/per/uart.h ****         uint32_t   baudrate;
  91:../libDaisy/src/per/uart.h ****     };
  92:../libDaisy/src/per/uart.h **** 
  93:../libDaisy/src/per/uart.h **** 
  94:../libDaisy/src/per/uart.h ****     UartHandler() : pimpl_(nullptr) {}
 1147              		.loc 15 94 5
 1148              		.cfi_startproc
 1149              		@ args = 0, pretend = 0, frame = 8
 1150              		@ frame_needed = 1, uses_anonymous_args = 0
 1151              		@ link register save eliminated.
 1152 0000 80B4     		push	{r7}
 1153              		.cfi_def_cfa_offset 4
 1154              		.cfi_offset 7, -4
 1155 0002 83B0     		sub	sp, sp, #12
 1156              		.cfi_def_cfa_offset 16
 1157 0004 00AF     		add	r7, sp, #0
 1158              		.cfi_def_cfa_register 7
 1159 0006 7860     		str	r0, [r7, #4]
 1160              	.LBB10:
 1161              		.loc 15 94 35
 1162 0008 7B68     		ldr	r3, [r7, #4]
 1163 000a 0022     		movs	r2, #0
 1164 000c 1A60     		str	r2, [r3]
 1165              	.LBE10:
 1166              		.loc 15 94 38
 1167 000e 7B68     		ldr	r3, [r7, #4]
 1168 0010 1846     		mov	r0, r3
 1169 0012 0C37     		adds	r7, r7, #12
 1170              		.cfi_def_cfa_offset 4
 1171 0014 BD46     		mov	sp, r7
 1172              		.cfi_def_cfa_register 13
 1173              		@ sp needed
 1174 0016 5DF8047B 		ldr	r7, [sp], #4
 1175              		.cfi_restore 7
 1176              		.cfi_def_cfa_offset 0
 1177 001a 7047     		bx	lr
 1178              		.cfi_endproc
 1179              	.LFE3802:
ARM GAS  /var/folders/2p/02m_5p7958535cp2tpgps0400000gn/T//ccf9gERz.s 			page 43


 1181              		.weak	_ZN5daisy11UartHandlerC1Ev
 1182              		.thumb_set _ZN5daisy11UartHandlerC1Ev,_ZN5daisy11UartHandlerC2Ev
 1183              		.section	.text._ZN5daisy10MidiParserC2Ev,"axG",%progbits,_ZN5daisy10MidiParserC5Ev,comdat
 1184              		.align	1
 1185              		.weak	_ZN5daisy10MidiParserC2Ev
 1186              		.syntax unified
 1187              		.thumb
 1188              		.thumb_func
 1190              	_ZN5daisy10MidiParserC2Ev:
 1191              	.LFB3881:
 1192              		.file 16 "../libDaisy/src/hid/midi_parser.h"
   1:../libDaisy/src/hid/midi_parser.h **** #pragma once
   2:../libDaisy/src/hid/midi_parser.h **** #ifndef DSY_MIDI_PARSER_H
   3:../libDaisy/src/hid/midi_parser.h **** #define DSY_MIDI_PARSER_H
   4:../libDaisy/src/hid/midi_parser.h **** 
   5:../libDaisy/src/hid/midi_parser.h **** #include <stdint.h>
   6:../libDaisy/src/hid/midi_parser.h **** #include <stdlib.h>
   7:../libDaisy/src/hid/midi_parser.h **** #include "hid/MidiEvent.h"
   8:../libDaisy/src/hid/midi_parser.h **** 
   9:../libDaisy/src/hid/midi_parser.h **** namespace daisy
  10:../libDaisy/src/hid/midi_parser.h **** {
  11:../libDaisy/src/hid/midi_parser.h **** /** @brief   Utility class for parsing raw byte streams into MIDI messages
  12:../libDaisy/src/hid/midi_parser.h ****  *  @details Implemented as a state machine designed to parse one byte at a time
  13:../libDaisy/src/hid/midi_parser.h ****  *  @ingroup midi
  14:../libDaisy/src/hid/midi_parser.h ****  */
  15:../libDaisy/src/hid/midi_parser.h **** class MidiParser
  16:../libDaisy/src/hid/midi_parser.h **** {
  17:../libDaisy/src/hid/midi_parser.h ****   public:
  18:../libDaisy/src/hid/midi_parser.h ****     MidiParser(){};
 1193              		.loc 16 18 5
 1194              		.cfi_startproc
 1195              		@ args = 0, pretend = 0, frame = 8
 1196              		@ frame_needed = 1, uses_anonymous_args = 0
 1197              		@ link register save eliminated.
 1198 0000 80B4     		push	{r7}
 1199              		.cfi_def_cfa_offset 4
 1200              		.cfi_offset 7, -4
 1201 0002 83B0     		sub	sp, sp, #12
 1202              		.cfi_def_cfa_offset 16
 1203 0004 00AF     		add	r7, sp, #0
 1204              		.cfi_def_cfa_register 7
 1205 0006 7860     		str	r0, [r7, #4]
 1206              	.LBB11:
 1207              		.loc 16 18 17
 1208 0008 7B68     		ldr	r3, [r7, #4]
 1209 000a 8022     		movs	r2, #128
 1210 000c 83F89520 		strb	r2, [r3, #149]
 1211 0010 7B68     		ldr	r3, [r7, #4]
 1212 0012 7022     		movs	r2, #112
 1213 0014 83F89620 		strb	r2, [r3, #150]
 1214 0018 7B68     		ldr	r3, [r7, #4]
 1215 001a 7F22     		movs	r2, #127
 1216 001c 83F89720 		strb	r2, [r3, #151]
 1217 0020 7B68     		ldr	r3, [r7, #4]
 1218 0022 0F22     		movs	r2, #15
 1219 0024 83F89820 		strb	r2, [r3, #152]
 1220 0028 7B68     		ldr	r3, [r7, #4]
ARM GAS  /var/folders/2p/02m_5p7958535cp2tpgps0400000gn/T//ccf9gERz.s 			page 44


 1221 002a 0722     		movs	r2, #7
 1222 002c 83F89920 		strb	r2, [r3, #153]
 1223              	.LBE11:
 1224              		.loc 16 18 18
 1225 0030 7B68     		ldr	r3, [r7, #4]
 1226 0032 1846     		mov	r0, r3
 1227 0034 0C37     		adds	r7, r7, #12
 1228              		.cfi_def_cfa_offset 4
 1229 0036 BD46     		mov	sp, r7
 1230              		.cfi_def_cfa_register 13
 1231              		@ sp needed
 1232 0038 5DF8047B 		ldr	r7, [sp], #4
 1233              		.cfi_restore 7
 1234              		.cfi_def_cfa_offset 0
 1235 003c 7047     		bx	lr
 1236              		.cfi_endproc
 1237              	.LFE3881:
 1239              		.weak	_ZN5daisy10MidiParserC1Ev
 1240              		.thumb_set _ZN5daisy10MidiParserC1Ev,_ZN5daisy10MidiParserC2Ev
 1241              		.section	.text._ZN5daisy10MidiParserD2Ev,"axG",%progbits,_ZN5daisy10MidiParserD5Ev,comdat
 1242              		.align	1
 1243              		.weak	_ZN5daisy10MidiParserD2Ev
 1244              		.syntax unified
 1245              		.thumb
 1246              		.thumb_func
 1248              	_ZN5daisy10MidiParserD2Ev:
 1249              	.LFB3884:
  19:../libDaisy/src/hid/midi_parser.h ****     ~MidiParser() {}
 1250              		.loc 16 19 5
 1251              		.cfi_startproc
 1252              		@ args = 0, pretend = 0, frame = 8
 1253              		@ frame_needed = 1, uses_anonymous_args = 0
 1254              		@ link register save eliminated.
 1255 0000 80B4     		push	{r7}
 1256              		.cfi_def_cfa_offset 4
 1257              		.cfi_offset 7, -4
 1258 0002 83B0     		sub	sp, sp, #12
 1259              		.cfi_def_cfa_offset 16
 1260 0004 00AF     		add	r7, sp, #0
 1261              		.cfi_def_cfa_register 7
 1262 0006 7860     		str	r0, [r7, #4]
 1263              		.loc 16 19 20
 1264 0008 7B68     		ldr	r3, [r7, #4]
 1265 000a 1846     		mov	r0, r3
 1266 000c 0C37     		adds	r7, r7, #12
 1267              		.cfi_def_cfa_offset 4
 1268 000e BD46     		mov	sp, r7
 1269              		.cfi_def_cfa_register 13
 1270              		@ sp needed
 1271 0010 5DF8047B 		ldr	r7, [sp], #4
 1272              		.cfi_restore 7
 1273              		.cfi_def_cfa_offset 0
 1274 0014 7047     		bx	lr
 1275              		.cfi_endproc
 1276              	.LFE3884:
 1278              		.weak	_ZN5daisy10MidiParserD1Ev
 1279              		.thumb_set _ZN5daisy10MidiParserD1Ev,_ZN5daisy10MidiParserD2Ev
ARM GAS  /var/folders/2p/02m_5p7958535cp2tpgps0400000gn/T//ccf9gERz.s 			page 45


 1280              		.section	.text._ZN5daisy9UsbHandleC2Ev,"axG",%progbits,_ZN5daisy9UsbHandleC5Ev,comdat
 1281              		.align	1
 1282              		.weak	_ZN5daisy9UsbHandleC2Ev
 1283              		.syntax unified
 1284              		.thumb
 1285              		.thumb_func
 1287              	_ZN5daisy9UsbHandleC2Ev:
 1288              	.LFB3888:
 1289              		.file 17 "../libDaisy/src/hid/usb.h"
   1:../libDaisy/src/hid/usb.h **** #pragma once
   2:../libDaisy/src/hid/usb.h **** #ifndef DSY_HID_USB_H
   3:../libDaisy/src/hid/usb.h **** #define DSY_HID_USB_H
   4:../libDaisy/src/hid/usb.h **** #include <stdint.h>
   5:../libDaisy/src/hid/usb.h **** #include <stdlib.h>
   6:../libDaisy/src/hid/usb.h **** 
   7:../libDaisy/src/hid/usb.h **** namespace daisy
   8:../libDaisy/src/hid/usb.h **** /** @addtogroup human_interface
   9:../libDaisy/src/hid/usb.h ****     @{
  10:../libDaisy/src/hid/usb.h **** */
  11:../libDaisy/src/hid/usb.h **** 
  12:../libDaisy/src/hid/usb.h **** {
  13:../libDaisy/src/hid/usb.h **** /** 
  14:../libDaisy/src/hid/usb.h ****     @brief Interface for initializing and using the USB Peripherals on the daisy
  15:../libDaisy/src/hid/usb.h ****     @author Stephen Hensley
  16:../libDaisy/src/hid/usb.h ****     @date December 2019
  17:../libDaisy/src/hid/usb.h **** */
  18:../libDaisy/src/hid/usb.h **** class UsbHandle
  19:../libDaisy/src/hid/usb.h **** {
  20:../libDaisy/src/hid/usb.h ****   public:
  21:../libDaisy/src/hid/usb.h ****     /** Return values for USBHandle Functions */
  22:../libDaisy/src/hid/usb.h ****     enum class Result
  23:../libDaisy/src/hid/usb.h ****     {
  24:../libDaisy/src/hid/usb.h ****         OK,
  25:../libDaisy/src/hid/usb.h ****         ERR,
  26:../libDaisy/src/hid/usb.h ****     };
  27:../libDaisy/src/hid/usb.h **** 
  28:../libDaisy/src/hid/usb.h ****     /** Specified which of the two USB Peripherals to initialize. */
  29:../libDaisy/src/hid/usb.h ****     enum UsbPeriph
  30:../libDaisy/src/hid/usb.h ****     {
  31:../libDaisy/src/hid/usb.h ****         FS_INTERNAL, /**< Internal pin */
  32:../libDaisy/src/hid/usb.h ****         FS_EXTERNAL, /**< FS External D+ pin is Pin 38 (GPIO32). FS External D- pin is Pin 37 (GPIO
  33:../libDaisy/src/hid/usb.h ****         FS_BOTH,     /**< Both */
  34:../libDaisy/src/hid/usb.h ****     };
  35:../libDaisy/src/hid/usb.h **** 
  36:../libDaisy/src/hid/usb.h **** 
  37:../libDaisy/src/hid/usb.h ****     /** Function called upon reception of a buffer */
  38:../libDaisy/src/hid/usb.h ****     typedef void (*ReceiveCallback)(uint8_t* buff, uint32_t* len);
  39:../libDaisy/src/hid/usb.h **** 
  40:../libDaisy/src/hid/usb.h ****     UsbHandle() {}
 1290              		.loc 17 40 5
 1291              		.cfi_startproc
 1292              		@ args = 0, pretend = 0, frame = 8
 1293              		@ frame_needed = 1, uses_anonymous_args = 0
 1294              		@ link register save eliminated.
 1295 0000 80B4     		push	{r7}
 1296              		.cfi_def_cfa_offset 4
 1297              		.cfi_offset 7, -4
ARM GAS  /var/folders/2p/02m_5p7958535cp2tpgps0400000gn/T//ccf9gERz.s 			page 46


 1298 0002 83B0     		sub	sp, sp, #12
 1299              		.cfi_def_cfa_offset 16
 1300 0004 00AF     		add	r7, sp, #0
 1301              		.cfi_def_cfa_register 7
 1302 0006 7860     		str	r0, [r7, #4]
 1303              		.loc 17 40 18
 1304 0008 7B68     		ldr	r3, [r7, #4]
 1305 000a 1846     		mov	r0, r3
 1306 000c 0C37     		adds	r7, r7, #12
 1307              		.cfi_def_cfa_offset 4
 1308 000e BD46     		mov	sp, r7
 1309              		.cfi_def_cfa_register 13
 1310              		@ sp needed
 1311 0010 5DF8047B 		ldr	r7, [sp], #4
 1312              		.cfi_restore 7
 1313              		.cfi_def_cfa_offset 0
 1314 0014 7047     		bx	lr
 1315              		.cfi_endproc
 1316              	.LFE3888:
 1318              		.weak	_ZN5daisy9UsbHandleC1Ev
 1319              		.thumb_set _ZN5daisy9UsbHandleC1Ev,_ZN5daisy9UsbHandleC2Ev
 1320              		.section	.text._ZN5daisy9UsbHandleD2Ev,"axG",%progbits,_ZN5daisy9UsbHandleD5Ev,comdat
 1321              		.align	1
 1322              		.weak	_ZN5daisy9UsbHandleD2Ev
 1323              		.syntax unified
 1324              		.thumb
 1325              		.thumb_func
 1327              	_ZN5daisy9UsbHandleD2Ev:
 1328              	.LFB3891:
  41:../libDaisy/src/hid/usb.h **** 
  42:../libDaisy/src/hid/usb.h ****     ~UsbHandle() {}
 1329              		.loc 17 42 5
 1330              		.cfi_startproc
 1331              		@ args = 0, pretend = 0, frame = 8
 1332              		@ frame_needed = 1, uses_anonymous_args = 0
 1333              		@ link register save eliminated.
 1334 0000 80B4     		push	{r7}
 1335              		.cfi_def_cfa_offset 4
 1336              		.cfi_offset 7, -4
 1337 0002 83B0     		sub	sp, sp, #12
 1338              		.cfi_def_cfa_offset 16
 1339 0004 00AF     		add	r7, sp, #0
 1340              		.cfi_def_cfa_register 7
 1341 0006 7860     		str	r0, [r7, #4]
 1342              		.loc 17 42 19
 1343 0008 7B68     		ldr	r3, [r7, #4]
 1344 000a 1846     		mov	r0, r3
 1345 000c 0C37     		adds	r7, r7, #12
 1346              		.cfi_def_cfa_offset 4
 1347 000e BD46     		mov	sp, r7
 1348              		.cfi_def_cfa_register 13
 1349              		@ sp needed
 1350 0010 5DF8047B 		ldr	r7, [sp], #4
 1351              		.cfi_restore 7
 1352              		.cfi_def_cfa_offset 0
 1353 0014 7047     		bx	lr
 1354              		.cfi_endproc
ARM GAS  /var/folders/2p/02m_5p7958535cp2tpgps0400000gn/T//ccf9gERz.s 			page 47


 1355              	.LFE3891:
 1357              		.weak	_ZN5daisy9UsbHandleD1Ev
 1358              		.thumb_set _ZN5daisy9UsbHandleD1Ev,_ZN5daisy9UsbHandleD2Ev
 1359              		.section	.text._ZN5daisy17MidiUartTransportC2Ev,"axG",%progbits,_ZN5daisy17MidiUartTransportC5Ev,c
 1360              		.align	1
 1361              		.weak	_ZN5daisy17MidiUartTransportC2Ev
 1362              		.syntax unified
 1363              		.thumb
 1364              		.thumb_func
 1366              	_ZN5daisy17MidiUartTransportC2Ev:
 1367              	.LFB3903:
 1368              		.file 18 "../libDaisy/src/hid/midi.h"
   1:../libDaisy/src/hid/midi.h **** #pragma once
   2:../libDaisy/src/hid/midi.h **** #ifndef DSY_MIDI_H
   3:../libDaisy/src/hid/midi.h **** #define DSY_MIDI_H
   4:../libDaisy/src/hid/midi.h **** 
   5:../libDaisy/src/hid/midi.h **** #include <stdint.h>
   6:../libDaisy/src/hid/midi.h **** #include <stdlib.h>
   7:../libDaisy/src/hid/midi.h **** #include <algorithm>
   8:../libDaisy/src/hid/midi.h **** #include "per/uart.h"
   9:../libDaisy/src/hid/midi.h **** #include "util/ringbuffer.h"
  10:../libDaisy/src/hid/midi.h **** #include "util/FIFO.h"
  11:../libDaisy/src/hid/midi.h **** #include "hid/midi_parser.h"
  12:../libDaisy/src/hid/midi.h **** #include "hid/usb_midi.h"
  13:../libDaisy/src/hid/midi.h **** #include "sys/dma.h"
  14:../libDaisy/src/hid/midi.h **** #include "sys/system.h"
  15:../libDaisy/src/hid/midi.h **** 
  16:../libDaisy/src/hid/midi.h **** namespace daisy
  17:../libDaisy/src/hid/midi.h **** {
  18:../libDaisy/src/hid/midi.h **** /** @brief   Transport layer for sending and receiving MIDI data over UART
  19:../libDaisy/src/hid/midi.h ****  *  @details This is the mode of communication used for TRS and DIN MIDI
  20:../libDaisy/src/hid/midi.h ****  *           There is an additional 2kB of RAM data used within this class
  21:../libDaisy/src/hid/midi.h ****  *           for processing bulk data from the UART peripheral
  22:../libDaisy/src/hid/midi.h ****  *  @ingroup midi
  23:../libDaisy/src/hid/midi.h **** */
  24:../libDaisy/src/hid/midi.h **** class MidiUartTransport
  25:../libDaisy/src/hid/midi.h **** {
  26:../libDaisy/src/hid/midi.h ****   public:
  27:../libDaisy/src/hid/midi.h ****     typedef void (*MidiRxParseCallback)(uint8_t* data,
  28:../libDaisy/src/hid/midi.h ****                                         size_t   size,
  29:../libDaisy/src/hid/midi.h ****                                         void*    context);
  30:../libDaisy/src/hid/midi.h **** 
  31:../libDaisy/src/hid/midi.h ****     MidiUartTransport() {}
 1369              		.loc 18 31 5
 1370              		.cfi_startproc
 1371              		@ args = 0, pretend = 0, frame = 8
 1372              		@ frame_needed = 1, uses_anonymous_args = 0
 1373 0000 80B5     		push	{r7, lr}
 1374              		.cfi_def_cfa_offset 8
 1375              		.cfi_offset 7, -8
 1376              		.cfi_offset 14, -4
 1377 0002 82B0     		sub	sp, sp, #8
 1378              		.cfi_def_cfa_offset 16
 1379 0004 00AF     		add	r7, sp, #0
 1380              		.cfi_def_cfa_register 7
 1381 0006 7860     		str	r0, [r7, #4]
 1382              	.LBB12:
ARM GAS  /var/folders/2p/02m_5p7958535cp2tpgps0400000gn/T//ccf9gERz.s 			page 48


 1383              		.loc 18 31 25
 1384 0008 7B68     		ldr	r3, [r7, #4]
 1385 000a 1846     		mov	r0, r3
 1386 000c FFF7FEFF 		bl	_ZN5daisy11UartHandlerC1Ev
 1387              	.LBE12:
 1388              		.loc 18 31 26
 1389 0010 7B68     		ldr	r3, [r7, #4]
 1390 0012 1846     		mov	r0, r3
 1391 0014 0837     		adds	r7, r7, #8
 1392              		.cfi_def_cfa_offset 8
 1393 0016 BD46     		mov	sp, r7
 1394              		.cfi_def_cfa_register 13
 1395              		@ sp needed
 1396 0018 80BD     		pop	{r7, pc}
 1397              		.cfi_endproc
 1398              	.LFE3903:
 1400              		.weak	_ZN5daisy17MidiUartTransportC1Ev
 1401              		.thumb_set _ZN5daisy17MidiUartTransportC1Ev,_ZN5daisy17MidiUartTransportC2Ev
 1402              		.section	.text._ZN5daisy17MidiUartTransportD2Ev,"axG",%progbits,_ZN5daisy17MidiUartTransportD5Ev,c
 1403              		.align	1
 1404              		.weak	_ZN5daisy17MidiUartTransportD2Ev
 1405              		.syntax unified
 1406              		.thumb
 1407              		.thumb_func
 1409              	_ZN5daisy17MidiUartTransportD2Ev:
 1410              	.LFB3906:
  32:../libDaisy/src/hid/midi.h ****     ~MidiUartTransport() {}
 1411              		.loc 18 32 5
 1412              		.cfi_startproc
 1413              		@ args = 0, pretend = 0, frame = 8
 1414              		@ frame_needed = 1, uses_anonymous_args = 0
 1415              		@ link register save eliminated.
 1416 0000 80B4     		push	{r7}
 1417              		.cfi_def_cfa_offset 4
 1418              		.cfi_offset 7, -4
 1419 0002 83B0     		sub	sp, sp, #12
 1420              		.cfi_def_cfa_offset 16
 1421 0004 00AF     		add	r7, sp, #0
 1422              		.cfi_def_cfa_register 7
 1423 0006 7860     		str	r0, [r7, #4]
 1424              		.loc 18 32 27
 1425 0008 7B68     		ldr	r3, [r7, #4]
 1426 000a 1846     		mov	r0, r3
 1427 000c 0C37     		adds	r7, r7, #12
 1428              		.cfi_def_cfa_offset 4
 1429 000e BD46     		mov	sp, r7
 1430              		.cfi_def_cfa_register 13
 1431              		@ sp needed
 1432 0010 5DF8047B 		ldr	r7, [sp], #4
 1433              		.cfi_restore 7
 1434              		.cfi_def_cfa_offset 0
 1435 0014 7047     		bx	lr
 1436              		.cfi_endproc
 1437              	.LFE3906:
 1439              		.weak	_ZN5daisy17MidiUartTransportD1Ev
 1440              		.thumb_set _ZN5daisy17MidiUartTransportD1Ev,_ZN5daisy17MidiUartTransportD2Ev
 1441              		.section	.text._ZN5daisy6SwitchC2Ev,"axG",%progbits,_ZN5daisy6SwitchC5Ev,comdat
ARM GAS  /var/folders/2p/02m_5p7958535cp2tpgps0400000gn/T//ccf9gERz.s 			page 49


 1442              		.align	1
 1443              		.weak	_ZN5daisy6SwitchC2Ev
 1444              		.syntax unified
 1445              		.thumb
 1446              		.thumb_func
 1448              	_ZN5daisy6SwitchC2Ev:
 1449              	.LFB3925:
 1450              		.file 19 "../libDaisy/src/hid/switch.h"
   1:../libDaisy/src/hid/switch.h **** #pragma once
   2:../libDaisy/src/hid/switch.h **** #ifndef DSY_SWITCH_H
   3:../libDaisy/src/hid/switch.h **** #define DSY_SWITCH_H
   4:../libDaisy/src/hid/switch.h **** #include "daisy_core.h"
   5:../libDaisy/src/hid/switch.h **** #include "per/gpio.h"
   6:../libDaisy/src/hid/switch.h **** #include "sys/system.h"
   7:../libDaisy/src/hid/switch.h **** 
   8:../libDaisy/src/hid/switch.h **** namespace daisy
   9:../libDaisy/src/hid/switch.h **** {
  10:../libDaisy/src/hid/switch.h **** /** 
  11:../libDaisy/src/hid/switch.h ****     Generic Class for handling momentary/latching switches \n 
  12:../libDaisy/src/hid/switch.h ****     Inspired/influenced by Mutable Instruments (pichenettes) Switch classes
  13:../libDaisy/src/hid/switch.h ****     @author Stephen Hensley
  14:../libDaisy/src/hid/switch.h ****     @date December 2019
  15:../libDaisy/src/hid/switch.h ****     @ingroup controls
  16:../libDaisy/src/hid/switch.h **** */
  17:../libDaisy/src/hid/switch.h **** class Switch
  18:../libDaisy/src/hid/switch.h **** {
  19:../libDaisy/src/hid/switch.h ****   public:
  20:../libDaisy/src/hid/switch.h ****     /** Specifies the expected behavior of the switch */
  21:../libDaisy/src/hid/switch.h ****     enum Type
  22:../libDaisy/src/hid/switch.h ****     {
  23:../libDaisy/src/hid/switch.h ****         TYPE_TOGGLE,    /**< & */
  24:../libDaisy/src/hid/switch.h ****         TYPE_MOMENTARY, /**< & */
  25:../libDaisy/src/hid/switch.h ****     };
  26:../libDaisy/src/hid/switch.h ****     /** Specifies whether the pressed is HIGH or LOW. */
  27:../libDaisy/src/hid/switch.h ****     enum Polarity
  28:../libDaisy/src/hid/switch.h ****     {
  29:../libDaisy/src/hid/switch.h ****         POLARITY_NORMAL,   /**< & */
  30:../libDaisy/src/hid/switch.h ****         POLARITY_INVERTED, /**< & */
  31:../libDaisy/src/hid/switch.h ****     };
  32:../libDaisy/src/hid/switch.h **** 
  33:../libDaisy/src/hid/switch.h ****     /** Specifies whether to use built-in Pull Up/Down resistors to hold button at a given state wh
  34:../libDaisy/src/hid/switch.h ****     enum Pull
  35:../libDaisy/src/hid/switch.h ****     {
  36:../libDaisy/src/hid/switch.h ****         PULL_UP,   /**< & */
  37:../libDaisy/src/hid/switch.h ****         PULL_DOWN, /**< & */
  38:../libDaisy/src/hid/switch.h ****         PULL_NONE, /**< & */
  39:../libDaisy/src/hid/switch.h ****     };
  40:../libDaisy/src/hid/switch.h **** 
  41:../libDaisy/src/hid/switch.h ****     Switch() {}
 1451              		.loc 19 41 5
 1452              		.cfi_startproc
 1453              		@ args = 0, pretend = 0, frame = 8
 1454              		@ frame_needed = 1, uses_anonymous_args = 0
 1455              		@ link register save eliminated.
 1456 0000 80B4     		push	{r7}
 1457              		.cfi_def_cfa_offset 4
 1458              		.cfi_offset 7, -4
ARM GAS  /var/folders/2p/02m_5p7958535cp2tpgps0400000gn/T//ccf9gERz.s 			page 50


 1459 0002 83B0     		sub	sp, sp, #12
 1460              		.cfi_def_cfa_offset 16
 1461 0004 00AF     		add	r7, sp, #0
 1462              		.cfi_def_cfa_register 7
 1463 0006 7860     		str	r0, [r7, #4]
 1464              		.loc 19 41 15
 1465 0008 7B68     		ldr	r3, [r7, #4]
 1466 000a 1846     		mov	r0, r3
 1467 000c 0C37     		adds	r7, r7, #12
 1468              		.cfi_def_cfa_offset 4
 1469 000e BD46     		mov	sp, r7
 1470              		.cfi_def_cfa_register 13
 1471              		@ sp needed
 1472 0010 5DF8047B 		ldr	r7, [sp], #4
 1473              		.cfi_restore 7
 1474              		.cfi_def_cfa_offset 0
 1475 0014 7047     		bx	lr
 1476              		.cfi_endproc
 1477              	.LFE3925:
 1479              		.weak	_ZN5daisy6SwitchC1Ev
 1480              		.thumb_set _ZN5daisy6SwitchC1Ev,_ZN5daisy6SwitchC2Ev
 1481              		.section	.text._ZN5daisy6SwitchD2Ev,"axG",%progbits,_ZN5daisy6SwitchD5Ev,comdat
 1482              		.align	1
 1483              		.weak	_ZN5daisy6SwitchD2Ev
 1484              		.syntax unified
 1485              		.thumb
 1486              		.thumb_func
 1488              	_ZN5daisy6SwitchD2Ev:
 1489              	.LFB3928:
  42:../libDaisy/src/hid/switch.h ****     ~Switch() {}
 1490              		.loc 19 42 5
 1491              		.cfi_startproc
 1492              		@ args = 0, pretend = 0, frame = 8
 1493              		@ frame_needed = 1, uses_anonymous_args = 0
 1494              		@ link register save eliminated.
 1495 0000 80B4     		push	{r7}
 1496              		.cfi_def_cfa_offset 4
 1497              		.cfi_offset 7, -4
 1498 0002 83B0     		sub	sp, sp, #12
 1499              		.cfi_def_cfa_offset 16
 1500 0004 00AF     		add	r7, sp, #0
 1501              		.cfi_def_cfa_register 7
 1502 0006 7860     		str	r0, [r7, #4]
 1503              		.loc 19 42 16
 1504 0008 7B68     		ldr	r3, [r7, #4]
 1505 000a 1846     		mov	r0, r3
 1506 000c 0C37     		adds	r7, r7, #12
 1507              		.cfi_def_cfa_offset 4
 1508 000e BD46     		mov	sp, r7
 1509              		.cfi_def_cfa_register 13
 1510              		@ sp needed
 1511 0010 5DF8047B 		ldr	r7, [sp], #4
 1512              		.cfi_restore 7
 1513              		.cfi_def_cfa_offset 0
 1514 0014 7047     		bx	lr
 1515              		.cfi_endproc
 1516              	.LFE3928:
ARM GAS  /var/folders/2p/02m_5p7958535cp2tpgps0400000gn/T//ccf9gERz.s 			page 51


 1518              		.weak	_ZN5daisy6SwitchD1Ev
 1519              		.thumb_set _ZN5daisy6SwitchD1Ev,_ZN5daisy6SwitchD2Ev
 1520              		.section	.text._ZN5daisy7EncoderC2Ev,"axG",%progbits,_ZN5daisy7EncoderC5Ev,comdat
 1521              		.align	1
 1522              		.weak	_ZN5daisy7EncoderC2Ev
 1523              		.syntax unified
 1524              		.thumb
 1525              		.thumb_func
 1527              	_ZN5daisy7EncoderC2Ev:
 1528              	.LFB3937:
 1529              		.file 20 "../libDaisy/src/hid/encoder.h"
   1:../libDaisy/src/hid/encoder.h **** #pragma once
   2:../libDaisy/src/hid/encoder.h **** #ifndef DSY_ENCODER_H
   3:../libDaisy/src/hid/encoder.h **** #define DSY_ENCODER_H
   4:../libDaisy/src/hid/encoder.h **** #include "daisy_core.h"
   5:../libDaisy/src/hid/encoder.h **** #include "per/gpio.h"
   6:../libDaisy/src/hid/encoder.h **** #include "hid/switch.h"
   7:../libDaisy/src/hid/encoder.h **** 
   8:../libDaisy/src/hid/encoder.h **** namespace daisy
   9:../libDaisy/src/hid/encoder.h **** {
  10:../libDaisy/src/hid/encoder.h **** /** 
  11:../libDaisy/src/hid/encoder.h ****     @brief Generic Class for handling Quadrature Encoders \n 
  12:../libDaisy/src/hid/encoder.h ****     Inspired/influenced by Mutable Instruments (pichenettes) Encoder classes
  13:../libDaisy/src/hid/encoder.h ****     @author Stephen Hensley
  14:../libDaisy/src/hid/encoder.h ****     @date December 2019
  15:../libDaisy/src/hid/encoder.h ****     @ingroup controls
  16:../libDaisy/src/hid/encoder.h **** */
  17:../libDaisy/src/hid/encoder.h **** class Encoder
  18:../libDaisy/src/hid/encoder.h **** {
  19:../libDaisy/src/hid/encoder.h ****   public:
  20:../libDaisy/src/hid/encoder.h ****     Encoder() {}
 1530              		.loc 20 20 5
 1531              		.cfi_startproc
 1532              		@ args = 0, pretend = 0, frame = 8
 1533              		@ frame_needed = 1, uses_anonymous_args = 0
 1534 0000 80B5     		push	{r7, lr}
 1535              		.cfi_def_cfa_offset 8
 1536              		.cfi_offset 7, -8
 1537              		.cfi_offset 14, -4
 1538 0002 82B0     		sub	sp, sp, #8
 1539              		.cfi_def_cfa_offset 16
 1540 0004 00AF     		add	r7, sp, #0
 1541              		.cfi_def_cfa_register 7
 1542 0006 7860     		str	r0, [r7, #4]
 1543              	.LBB13:
 1544              		.loc 20 20 15
 1545 0008 7B68     		ldr	r3, [r7, #4]
 1546 000a 0833     		adds	r3, r3, #8
 1547 000c 1846     		mov	r0, r3
 1548 000e FFF7FEFF 		bl	_ZN5daisy6SwitchC1Ev
 1549              	.LBE13:
 1550              		.loc 20 20 16
 1551 0012 7B68     		ldr	r3, [r7, #4]
 1552 0014 1846     		mov	r0, r3
 1553 0016 0837     		adds	r7, r7, #8
 1554              		.cfi_def_cfa_offset 8
 1555 0018 BD46     		mov	sp, r7
ARM GAS  /var/folders/2p/02m_5p7958535cp2tpgps0400000gn/T//ccf9gERz.s 			page 52


 1556              		.cfi_def_cfa_register 13
 1557              		@ sp needed
 1558 001a 80BD     		pop	{r7, pc}
 1559              		.cfi_endproc
 1560              	.LFE3937:
 1562              		.weak	_ZN5daisy7EncoderC1Ev
 1563              		.thumb_set _ZN5daisy7EncoderC1Ev,_ZN5daisy7EncoderC2Ev
 1564              		.section	.text._ZN5daisy7EncoderD2Ev,"axG",%progbits,_ZN5daisy7EncoderD5Ev,comdat
 1565              		.align	1
 1566              		.weak	_ZN5daisy7EncoderD2Ev
 1567              		.syntax unified
 1568              		.thumb
 1569              		.thumb_func
 1571              	_ZN5daisy7EncoderD2Ev:
 1572              	.LFB3940:
  21:../libDaisy/src/hid/encoder.h ****     ~Encoder() {}
 1573              		.loc 20 21 5
 1574              		.cfi_startproc
 1575              		@ args = 0, pretend = 0, frame = 8
 1576              		@ frame_needed = 1, uses_anonymous_args = 0
 1577 0000 80B5     		push	{r7, lr}
 1578              		.cfi_def_cfa_offset 8
 1579              		.cfi_offset 7, -8
 1580              		.cfi_offset 14, -4
 1581 0002 82B0     		sub	sp, sp, #8
 1582              		.cfi_def_cfa_offset 16
 1583 0004 00AF     		add	r7, sp, #0
 1584              		.cfi_def_cfa_register 7
 1585 0006 7860     		str	r0, [r7, #4]
 1586              	.LBB14:
 1587              		.loc 20 21 16
 1588 0008 7B68     		ldr	r3, [r7, #4]
 1589 000a 0833     		adds	r3, r3, #8
 1590 000c 1846     		mov	r0, r3
 1591 000e FFF7FEFF 		bl	_ZN5daisy6SwitchD1Ev
 1592              	.LBE14:
 1593              		.loc 20 21 17
 1594 0012 7B68     		ldr	r3, [r7, #4]
 1595 0014 1846     		mov	r0, r3
 1596 0016 0837     		adds	r7, r7, #8
 1597              		.cfi_def_cfa_offset 8
 1598 0018 BD46     		mov	sp, r7
 1599              		.cfi_def_cfa_register 13
 1600              		@ sp needed
 1601 001a 80BD     		pop	{r7, pc}
 1602              		.cfi_endproc
 1603              	.LFE3940:
 1605              		.weak	_ZN5daisy7EncoderD1Ev
 1606              		.thumb_set _ZN5daisy7EncoderD1Ev,_ZN5daisy7EncoderD2Ev
 1607              		.section	.text._ZN5daisy13AnalogControlC2Ev,"axG",%progbits,_ZN5daisy13AnalogControlC5Ev,comdat
 1608              		.align	1
 1609              		.weak	_ZN5daisy13AnalogControlC2Ev
 1610              		.syntax unified
 1611              		.thumb
 1612              		.thumb_func
 1614              	_ZN5daisy13AnalogControlC2Ev:
 1615              	.LFB3957:
ARM GAS  /var/folders/2p/02m_5p7958535cp2tpgps0400000gn/T//ccf9gERz.s 			page 53


 1616              		.file 21 "../libDaisy/src/hid/ctrl.h"
   1:../libDaisy/src/hid/ctrl.h **** #pragma once
   2:../libDaisy/src/hid/ctrl.h **** #ifndef DSY_KNOB_H
   3:../libDaisy/src/hid/ctrl.h **** #define DSY_KNOB_H /**< & */
   4:../libDaisy/src/hid/ctrl.h **** #include <stdint.h>
   5:../libDaisy/src/hid/ctrl.h **** 
   6:../libDaisy/src/hid/ctrl.h **** #ifdef __cplusplus
   7:../libDaisy/src/hid/ctrl.h **** namespace daisy
   8:../libDaisy/src/hid/ctrl.h **** {
   9:../libDaisy/src/hid/ctrl.h **** /**
  10:../libDaisy/src/hid/ctrl.h ****     @brief Hardware Interface for control inputs \n 
  11:../libDaisy/src/hid/ctrl.h ****     Primarily designed for ADC input controls such as \n 
  12:../libDaisy/src/hid/ctrl.h ****     potentiometers, and control voltage. \n 
  13:../libDaisy/src/hid/ctrl.h ****     @author Stephen Hensley
  14:../libDaisy/src/hid/ctrl.h ****     @date November 2019
  15:../libDaisy/src/hid/ctrl.h ****     @ingroup controls
  16:../libDaisy/src/hid/ctrl.h **** */
  17:../libDaisy/src/hid/ctrl.h **** class AnalogControl
  18:../libDaisy/src/hid/ctrl.h **** {
  19:../libDaisy/src/hid/ctrl.h ****   public:
  20:../libDaisy/src/hid/ctrl.h ****     /** Constructor */
  21:../libDaisy/src/hid/ctrl.h ****     AnalogControl() {}
 1617              		.loc 21 21 5
 1618              		.cfi_startproc
 1619              		@ args = 0, pretend = 0, frame = 8
 1620              		@ frame_needed = 1, uses_anonymous_args = 0
 1621              		@ link register save eliminated.
 1622 0000 80B4     		push	{r7}
 1623              		.cfi_def_cfa_offset 4
 1624              		.cfi_offset 7, -4
 1625 0002 83B0     		sub	sp, sp, #12
 1626              		.cfi_def_cfa_offset 16
 1627 0004 00AF     		add	r7, sp, #0
 1628              		.cfi_def_cfa_register 7
 1629 0006 7860     		str	r0, [r7, #4]
 1630              		.loc 21 21 22
 1631 0008 7B68     		ldr	r3, [r7, #4]
 1632 000a 1846     		mov	r0, r3
 1633 000c 0C37     		adds	r7, r7, #12
 1634              		.cfi_def_cfa_offset 4
 1635 000e BD46     		mov	sp, r7
 1636              		.cfi_def_cfa_register 13
 1637              		@ sp needed
 1638 0010 5DF8047B 		ldr	r7, [sp], #4
 1639              		.cfi_restore 7
 1640              		.cfi_def_cfa_offset 0
 1641 0014 7047     		bx	lr
 1642              		.cfi_endproc
 1643              	.LFE3957:
 1645              		.weak	_ZN5daisy13AnalogControlC1Ev
 1646              		.thumb_set _ZN5daisy13AnalogControlC1Ev,_ZN5daisy13AnalogControlC2Ev
 1647              		.section	.text._ZN5daisy13AnalogControlD2Ev,"axG",%progbits,_ZN5daisy13AnalogControlD5Ev,comdat
 1648              		.align	1
 1649              		.weak	_ZN5daisy13AnalogControlD2Ev
 1650              		.syntax unified
 1651              		.thumb
 1652              		.thumb_func
ARM GAS  /var/folders/2p/02m_5p7958535cp2tpgps0400000gn/T//ccf9gERz.s 			page 54


 1654              	_ZN5daisy13AnalogControlD2Ev:
 1655              	.LFB3960:
  22:../libDaisy/src/hid/ctrl.h ****     /** destructor */
  23:../libDaisy/src/hid/ctrl.h ****     ~AnalogControl() {}
 1656              		.loc 21 23 5
 1657              		.cfi_startproc
 1658              		@ args = 0, pretend = 0, frame = 8
 1659              		@ frame_needed = 1, uses_anonymous_args = 0
 1660              		@ link register save eliminated.
 1661 0000 80B4     		push	{r7}
 1662              		.cfi_def_cfa_offset 4
 1663              		.cfi_offset 7, -4
 1664 0002 83B0     		sub	sp, sp, #12
 1665              		.cfi_def_cfa_offset 16
 1666 0004 00AF     		add	r7, sp, #0
 1667              		.cfi_def_cfa_register 7
 1668 0006 7860     		str	r0, [r7, #4]
 1669              		.loc 21 23 23
 1670 0008 7B68     		ldr	r3, [r7, #4]
 1671 000a 1846     		mov	r0, r3
 1672 000c 0C37     		adds	r7, r7, #12
 1673              		.cfi_def_cfa_offset 4
 1674 000e BD46     		mov	sp, r7
 1675              		.cfi_def_cfa_register 13
 1676              		@ sp needed
 1677 0010 5DF8047B 		ldr	r7, [sp], #4
 1678              		.cfi_restore 7
 1679              		.cfi_def_cfa_offset 0
 1680 0014 7047     		bx	lr
 1681              		.cfi_endproc
 1682              	.LFE3960:
 1684              		.weak	_ZN5daisy13AnalogControlD1Ev
 1685              		.thumb_set _ZN5daisy13AnalogControlD1Ev,_ZN5daisy13AnalogControlD2Ev
 1686              		.section	.text._ZN5daisy12SdmmcHandlerC2Ev,"axG",%progbits,_ZN5daisy12SdmmcHandlerC5Ev,comdat
 1687              		.align	1
 1688              		.weak	_ZN5daisy12SdmmcHandlerC2Ev
 1689              		.syntax unified
 1690              		.thumb
 1691              		.thumb_func
 1693              	_ZN5daisy12SdmmcHandlerC2Ev:
 1694              	.LFB4007:
 1695              		.file 22 "../libDaisy/src/per/sdmmc.h"
   1:../libDaisy/src/per/sdmmc.h **** /*
   2:../libDaisy/src/per/sdmmc.h **** TODO: 
   3:../libDaisy/src/per/sdmmc.h **** - Implement configuration (currently all settings are fixed).
   4:../libDaisy/src/per/sdmmc.h **** */
   5:../libDaisy/src/per/sdmmc.h **** #pragma once
   6:../libDaisy/src/per/sdmmc.h **** #ifndef DSY_SDMMC_H
   7:../libDaisy/src/per/sdmmc.h **** #define DSY_SDMMC_H /**< macro */
   8:../libDaisy/src/per/sdmmc.h **** 
   9:../libDaisy/src/per/sdmmc.h **** #include <stdint.h>
  10:../libDaisy/src/per/sdmmc.h **** 
  11:../libDaisy/src/per/sdmmc.h **** 
  12:../libDaisy/src/per/sdmmc.h **** namespace daisy
  13:../libDaisy/src/per/sdmmc.h **** {
  14:../libDaisy/src/per/sdmmc.h **** /** @ingroup peripheral
  15:../libDaisy/src/per/sdmmc.h ****     @{
ARM GAS  /var/folders/2p/02m_5p7958535cp2tpgps0400000gn/T//ccf9gERz.s 			page 55


  16:../libDaisy/src/per/sdmmc.h ****     */
  17:../libDaisy/src/per/sdmmc.h **** 
  18:../libDaisy/src/per/sdmmc.h **** /** Configuration for interfacing with SD cards.
  19:../libDaisy/src/per/sdmmc.h ****  *  Currently only supports operation using FatFS filesystem
  20:../libDaisy/src/per/sdmmc.h ****  * 
  21:../libDaisy/src/per/sdmmc.h ****  *  Only SDMMC1 is supported at this time.
  22:../libDaisy/src/per/sdmmc.h ****  *
  23:../libDaisy/src/per/sdmmc.h ****  *  Pins are fixed to the following:
  24:../libDaisy/src/per/sdmmc.h ****  *  PC12 - SDMMC1 CK
  25:../libDaisy/src/per/sdmmc.h ****  *  PD2  - SDMMC1 CMD
  26:../libDaisy/src/per/sdmmc.h ****  *  PC8  - SDMMC1 D0
  27:../libDaisy/src/per/sdmmc.h ****  *  PC9  - SDMMC1 D1 (optional)
  28:../libDaisy/src/per/sdmmc.h ****  *  PC10 - SDMMC1 D2 (optional)
  29:../libDaisy/src/per/sdmmc.h ****  *  PC11 - SDMMC1 D3 (optional)
  30:../libDaisy/src/per/sdmmc.h **** */
  31:../libDaisy/src/per/sdmmc.h **** class SdmmcHandler
  32:../libDaisy/src/per/sdmmc.h **** {
  33:../libDaisy/src/per/sdmmc.h ****   public:
  34:../libDaisy/src/per/sdmmc.h ****     /** Return values for the SdmmcHandler class */
  35:../libDaisy/src/per/sdmmc.h ****     enum class Result
  36:../libDaisy/src/per/sdmmc.h ****     {
  37:../libDaisy/src/per/sdmmc.h ****         OK,
  38:../libDaisy/src/per/sdmmc.h ****         ERROR,
  39:../libDaisy/src/per/sdmmc.h ****     };
  40:../libDaisy/src/per/sdmmc.h **** 
  41:../libDaisy/src/per/sdmmc.h ****     /** Sets whether 4-bit mode or 1-bit mode is used for the SDMMC */
  42:../libDaisy/src/per/sdmmc.h ****     enum class BusWidth
  43:../libDaisy/src/per/sdmmc.h ****     {
  44:../libDaisy/src/per/sdmmc.h ****         BITS_1, /**< Only 1 bit of data per clock is transferred */
  45:../libDaisy/src/per/sdmmc.h ****         BITS_4, /**< 4-bits of parallel data for each clock pulse */
  46:../libDaisy/src/per/sdmmc.h ****     };
  47:../libDaisy/src/per/sdmmc.h **** 
  48:../libDaisy/src/per/sdmmc.h ****     /** 
  49:../libDaisy/src/per/sdmmc.h ****     Sets the desired clock speed of the SD card bus. \n 
  50:../libDaisy/src/per/sdmmc.h ****     Initialization is always done at or below 400kHz, and then the user speed is set.
  51:../libDaisy/src/per/sdmmc.h ****     */
  52:../libDaisy/src/per/sdmmc.h ****     enum class Speed
  53:../libDaisy/src/per/sdmmc.h ****     {
  54:../libDaisy/src/per/sdmmc.h ****         SLOW, /**< 400kHz, initialization  performed at this rate, before moving to user value */
  55:../libDaisy/src/per/sdmmc.h ****         MEDIUM_SLOW, /**< 12.5MHz - half of standard rate */
  56:../libDaisy/src/per/sdmmc.h ****         STANDARD,    /**< 25MHz - DS (Default Speed for SDMMC) */
  57:../libDaisy/src/per/sdmmc.h ****         FAST,        /**< 50MHz - HS (High Speed signaling) */
  58:../libDaisy/src/per/sdmmc.h ****         VERY_FAST, /**< 100MHz - SDR50 Overclocked rate for maximum transfer rates */
  59:../libDaisy/src/per/sdmmc.h ****     };
  60:../libDaisy/src/per/sdmmc.h **** 
  61:../libDaisy/src/per/sdmmc.h ****     struct Config
  62:../libDaisy/src/per/sdmmc.h ****     {
  63:../libDaisy/src/per/sdmmc.h ****         Speed    speed;
  64:../libDaisy/src/per/sdmmc.h ****         BusWidth width;
  65:../libDaisy/src/per/sdmmc.h ****         bool
  66:../libDaisy/src/per/sdmmc.h ****             clock_powersave; /**< When true, the clock will stop between transfers to save power. *
  67:../libDaisy/src/per/sdmmc.h **** 
  68:../libDaisy/src/per/sdmmc.h ****         /** Configures settings to their default settings */
  69:../libDaisy/src/per/sdmmc.h ****         void Defaults()
  70:../libDaisy/src/per/sdmmc.h ****         {
  71:../libDaisy/src/per/sdmmc.h ****             speed           = Speed::FAST;
  72:../libDaisy/src/per/sdmmc.h ****             width           = BusWidth::BITS_4;
ARM GAS  /var/folders/2p/02m_5p7958535cp2tpgps0400000gn/T//ccf9gERz.s 			page 56


  73:../libDaisy/src/per/sdmmc.h ****             clock_powersave = false;
  74:../libDaisy/src/per/sdmmc.h ****         }
  75:../libDaisy/src/per/sdmmc.h ****     };
  76:../libDaisy/src/per/sdmmc.h **** 
  77:../libDaisy/src/per/sdmmc.h ****     SdmmcHandler() {}
 1696              		.loc 22 77 5
 1697              		.cfi_startproc
 1698              		@ args = 0, pretend = 0, frame = 8
 1699              		@ frame_needed = 1, uses_anonymous_args = 0
 1700              		@ link register save eliminated.
 1701 0000 80B4     		push	{r7}
 1702              		.cfi_def_cfa_offset 4
 1703              		.cfi_offset 7, -4
 1704 0002 83B0     		sub	sp, sp, #12
 1705              		.cfi_def_cfa_offset 16
 1706 0004 00AF     		add	r7, sp, #0
 1707              		.cfi_def_cfa_register 7
 1708 0006 7860     		str	r0, [r7, #4]
 1709              		.loc 22 77 21
 1710 0008 7B68     		ldr	r3, [r7, #4]
 1711 000a 1846     		mov	r0, r3
 1712 000c 0C37     		adds	r7, r7, #12
 1713              		.cfi_def_cfa_offset 4
 1714 000e BD46     		mov	sp, r7
 1715              		.cfi_def_cfa_register 13
 1716              		@ sp needed
 1717 0010 5DF8047B 		ldr	r7, [sp], #4
 1718              		.cfi_restore 7
 1719              		.cfi_def_cfa_offset 0
 1720 0014 7047     		bx	lr
 1721              		.cfi_endproc
 1722              	.LFE4007:
 1724              		.weak	_ZN5daisy12SdmmcHandlerC1Ev
 1725              		.thumb_set _ZN5daisy12SdmmcHandlerC1Ev,_ZN5daisy12SdmmcHandlerC2Ev
 1726              		.section	.text._ZN5daisy12SdmmcHandlerD2Ev,"axG",%progbits,_ZN5daisy12SdmmcHandlerD5Ev,comdat
 1727              		.align	1
 1728              		.weak	_ZN5daisy12SdmmcHandlerD2Ev
 1729              		.syntax unified
 1730              		.thumb
 1731              		.thumb_func
 1733              	_ZN5daisy12SdmmcHandlerD2Ev:
 1734              	.LFB4010:
  78:../libDaisy/src/per/sdmmc.h ****     ~SdmmcHandler() {}
 1735              		.loc 22 78 5
 1736              		.cfi_startproc
 1737              		@ args = 0, pretend = 0, frame = 8
 1738              		@ frame_needed = 1, uses_anonymous_args = 0
 1739              		@ link register save eliminated.
 1740 0000 80B4     		push	{r7}
 1741              		.cfi_def_cfa_offset 4
 1742              		.cfi_offset 7, -4
 1743 0002 83B0     		sub	sp, sp, #12
 1744              		.cfi_def_cfa_offset 16
 1745 0004 00AF     		add	r7, sp, #0
 1746              		.cfi_def_cfa_register 7
 1747 0006 7860     		str	r0, [r7, #4]
 1748              		.loc 22 78 22
ARM GAS  /var/folders/2p/02m_5p7958535cp2tpgps0400000gn/T//ccf9gERz.s 			page 57


 1749 0008 7B68     		ldr	r3, [r7, #4]
 1750 000a 1846     		mov	r0, r3
 1751 000c 0C37     		adds	r7, r7, #12
 1752              		.cfi_def_cfa_offset 4
 1753 000e BD46     		mov	sp, r7
 1754              		.cfi_def_cfa_register 13
 1755              		@ sp needed
 1756 0010 5DF8047B 		ldr	r7, [sp], #4
 1757              		.cfi_restore 7
 1758              		.cfi_def_cfa_offset 0
 1759 0014 7047     		bx	lr
 1760              		.cfi_endproc
 1761              	.LFE4010:
 1763              		.weak	_ZN5daisy12SdmmcHandlerD1Ev
 1764              		.thumb_set _ZN5daisy12SdmmcHandlerD1Ev,_ZN5daisy12SdmmcHandlerD2Ev
 1765              		.section	.rodata._ZN5daisyL15kWavFileChunkIdE,"a"
 1766              		.align	2
 1769              	_ZN5daisyL15kWavFileChunkIdE:
 1770 0000 52494646 		.word	1179011410
 1771              		.section	.rodata._ZN5daisyL14kWavFileWaveIdE,"a"
 1772              		.align	2
 1775              	_ZN5daisyL14kWavFileWaveIdE:
 1776 0000 57415645 		.word	1163280727
 1777              		.section	.rodata._ZN5daisyL19kWavFileSubChunk1IdE,"a"
 1778              		.align	2
 1781              	_ZN5daisyL19kWavFileSubChunk1IdE:
 1782 0000 666D7420 		.word	544501094
 1783              		.section	.rodata._ZN5daisyL19kWavFileSubChunk2IdE,"a"
 1784              		.align	2
 1787              	_ZN5daisyL19kWavFileSubChunk2IdE:
 1788 0000 64617461 		.word	1635017060
 1789              		.section	.text._ZN5daisy3LedC2Ev,"axG",%progbits,_ZN5daisy3LedC5Ev,comdat
 1790              		.align	1
 1791              		.weak	_ZN5daisy3LedC2Ev
 1792              		.syntax unified
 1793              		.thumb
 1794              		.thumb_func
 1796              	_ZN5daisy3LedC2Ev:
 1797              	.LFB4129:
 1798              		.file 23 "../libDaisy/src/hid/led.h"
   1:../libDaisy/src/hid/led.h **** 
   2:../libDaisy/src/hid/led.h **** #pragma once
   3:../libDaisy/src/hid/led.h **** #ifndef DSY_LED_H
   4:../libDaisy/src/hid/led.h **** #define DSY_LED_H
   5:../libDaisy/src/hid/led.h **** #include "daisy_core.h"
   6:../libDaisy/src/hid/led.h **** #include "per/gpio.h"
   7:../libDaisy/src/hid/led.h **** 
   8:../libDaisy/src/hid/led.h **** /* TODO - Get this set up to work with the dev_leddriver stuff as well
   9:../libDaisy/src/hid/led.h **** - Setup Hardware PWM for pins that have it
  10:../libDaisy/src/hid/led.h **** */
  11:../libDaisy/src/hid/led.h **** 
  12:../libDaisy/src/hid/led.h **** namespace daisy
  13:../libDaisy/src/hid/led.h **** {
  14:../libDaisy/src/hid/led.h **** /**
  15:../libDaisy/src/hid/led.h ****     @brief LED Class providing simple Software PWM ability, etc \n 
  16:../libDaisy/src/hid/led.h ****     Eventually this will work with hardware PWM, and external LED Driver devices as well.
  17:../libDaisy/src/hid/led.h ****     @author shensley
ARM GAS  /var/folders/2p/02m_5p7958535cp2tpgps0400000gn/T//ccf9gERz.s 			page 58


  18:../libDaisy/src/hid/led.h ****     @date March 2020
  19:../libDaisy/src/hid/led.h ****     @ingroup feedback
  20:../libDaisy/src/hid/led.h **** */
  21:../libDaisy/src/hid/led.h **** class Led
  22:../libDaisy/src/hid/led.h **** {
  23:../libDaisy/src/hid/led.h ****   public:
  24:../libDaisy/src/hid/led.h ****     Led() {}
 1799              		.loc 23 24 5
 1800              		.cfi_startproc
 1801              		@ args = 0, pretend = 0, frame = 8
 1802              		@ frame_needed = 1, uses_anonymous_args = 0
 1803              		@ link register save eliminated.
 1804 0000 80B4     		push	{r7}
 1805              		.cfi_def_cfa_offset 4
 1806              		.cfi_offset 7, -4
 1807 0002 83B0     		sub	sp, sp, #12
 1808              		.cfi_def_cfa_offset 16
 1809 0004 00AF     		add	r7, sp, #0
 1810              		.cfi_def_cfa_register 7
 1811 0006 7860     		str	r0, [r7, #4]
 1812              		.loc 23 24 12
 1813 0008 7B68     		ldr	r3, [r7, #4]
 1814 000a 1846     		mov	r0, r3
 1815 000c 0C37     		adds	r7, r7, #12
 1816              		.cfi_def_cfa_offset 4
 1817 000e BD46     		mov	sp, r7
 1818              		.cfi_def_cfa_register 13
 1819              		@ sp needed
 1820 0010 5DF8047B 		ldr	r7, [sp], #4
 1821              		.cfi_restore 7
 1822              		.cfi_def_cfa_offset 0
 1823 0014 7047     		bx	lr
 1824              		.cfi_endproc
 1825              	.LFE4129:
 1827              		.weak	_ZN5daisy3LedC1Ev
 1828              		.thumb_set _ZN5daisy3LedC1Ev,_ZN5daisy3LedC2Ev
 1829              		.section	.text._ZN5daisy3LedD2Ev,"axG",%progbits,_ZN5daisy3LedD5Ev,comdat
 1830              		.align	1
 1831              		.weak	_ZN5daisy3LedD2Ev
 1832              		.syntax unified
 1833              		.thumb
 1834              		.thumb_func
 1836              	_ZN5daisy3LedD2Ev:
 1837              	.LFB4132:
  25:../libDaisy/src/hid/led.h ****     ~Led() {}
 1838              		.loc 23 25 5
 1839              		.cfi_startproc
 1840              		@ args = 0, pretend = 0, frame = 8
 1841              		@ frame_needed = 1, uses_anonymous_args = 0
 1842              		@ link register save eliminated.
 1843 0000 80B4     		push	{r7}
 1844              		.cfi_def_cfa_offset 4
 1845              		.cfi_offset 7, -4
 1846 0002 83B0     		sub	sp, sp, #12
 1847              		.cfi_def_cfa_offset 16
 1848 0004 00AF     		add	r7, sp, #0
 1849              		.cfi_def_cfa_register 7
ARM GAS  /var/folders/2p/02m_5p7958535cp2tpgps0400000gn/T//ccf9gERz.s 			page 59


 1850 0006 7860     		str	r0, [r7, #4]
 1851              		.loc 23 25 13
 1852 0008 7B68     		ldr	r3, [r7, #4]
 1853 000a 1846     		mov	r0, r3
 1854 000c 0C37     		adds	r7, r7, #12
 1855              		.cfi_def_cfa_offset 4
 1856 000e BD46     		mov	sp, r7
 1857              		.cfi_def_cfa_register 13
 1858              		@ sp needed
 1859 0010 5DF8047B 		ldr	r7, [sp], #4
 1860              		.cfi_restore 7
 1861              		.cfi_def_cfa_offset 0
 1862 0014 7047     		bx	lr
 1863              		.cfi_endproc
 1864              	.LFE4132:
 1866              		.weak	_ZN5daisy3LedD1Ev
 1867              		.thumb_set _ZN5daisy3LedD1Ev,_ZN5daisy3LedD2Ev
 1868              		.section	.text._ZN5daisy5ColorC2Ev,"axG",%progbits,_ZN5daisy5ColorC5Ev,comdat
 1869              		.align	1
 1870              		.weak	_ZN5daisy5ColorC2Ev
 1871              		.syntax unified
 1872              		.thumb
 1873              		.thumb_func
 1875              	_ZN5daisy5ColorC2Ev:
 1876              	.LFB4136:
 1877              		.file 24 "../libDaisy/src/util/color.h"
   1:../libDaisy/src/util/color.h **** /* 
   2:../libDaisy/src/util/color.h **** TODO:
   3:../libDaisy/src/util/color.h **** - Add Blend(), Scale(), etc.
   4:../libDaisy/src/util/color.h **** - I'd also like to change the way the Color names are accessed.
   5:../libDaisy/src/util/color.h **** */
   6:../libDaisy/src/util/color.h **** /**        I'd like for it to be easy and not `Color::PresetColor::Foo`
   7:../libDaisy/src/util/color.h **** */
   8:../libDaisy/src/util/color.h **** /** - There's no way to change a color once its been created (without unintuitively reiniting it).
   9:../libDaisy/src/util/color.h **** */
  10:../libDaisy/src/util/color.h **** #pragma once
  11:../libDaisy/src/util/color.h **** #ifndef DSY_COLOR_H
  12:../libDaisy/src/util/color.h **** #define DSY_COLOR_H
  13:../libDaisy/src/util/color.h **** #include <stdint.h>
  14:../libDaisy/src/util/color.h **** 
  15:../libDaisy/src/util/color.h **** 
  16:../libDaisy/src/util/color.h **** namespace daisy
  17:../libDaisy/src/util/color.h **** {
  18:../libDaisy/src/util/color.h **** /** @addtogroup utility
  19:../libDaisy/src/util/color.h ****     @{
  20:../libDaisy/src/util/color.h **** */
  21:../libDaisy/src/util/color.h **** 
  22:../libDaisy/src/util/color.h **** /** Class for handling simple colors */
  23:../libDaisy/src/util/color.h **** class Color
  24:../libDaisy/src/util/color.h **** {
  25:../libDaisy/src/util/color.h ****   public:
  26:../libDaisy/src/util/color.h ****     Color() {}
 1878              		.loc 24 26 5
 1879              		.cfi_startproc
 1880              		@ args = 0, pretend = 0, frame = 8
 1881              		@ frame_needed = 1, uses_anonymous_args = 0
 1882              		@ link register save eliminated.
ARM GAS  /var/folders/2p/02m_5p7958535cp2tpgps0400000gn/T//ccf9gERz.s 			page 60


 1883 0000 80B4     		push	{r7}
 1884              		.cfi_def_cfa_offset 4
 1885              		.cfi_offset 7, -4
 1886 0002 83B0     		sub	sp, sp, #12
 1887              		.cfi_def_cfa_offset 16
 1888 0004 00AF     		add	r7, sp, #0
 1889              		.cfi_def_cfa_register 7
 1890 0006 7860     		str	r0, [r7, #4]
 1891              		.loc 24 26 14
 1892 0008 7B68     		ldr	r3, [r7, #4]
 1893 000a 1846     		mov	r0, r3
 1894 000c 0C37     		adds	r7, r7, #12
 1895              		.cfi_def_cfa_offset 4
 1896 000e BD46     		mov	sp, r7
 1897              		.cfi_def_cfa_register 13
 1898              		@ sp needed
 1899 0010 5DF8047B 		ldr	r7, [sp], #4
 1900              		.cfi_restore 7
 1901              		.cfi_def_cfa_offset 0
 1902 0014 7047     		bx	lr
 1903              		.cfi_endproc
 1904              	.LFE4136:
 1906              		.weak	_ZN5daisy5ColorC1Ev
 1907              		.thumb_set _ZN5daisy5ColorC1Ev,_ZN5daisy5ColorC2Ev
 1908              		.section	.text._ZN5daisy5ColorD2Ev,"axG",%progbits,_ZN5daisy5ColorD5Ev,comdat
 1909              		.align	1
 1910              		.weak	_ZN5daisy5ColorD2Ev
 1911              		.syntax unified
 1912              		.thumb
 1913              		.thumb_func
 1915              	_ZN5daisy5ColorD2Ev:
 1916              	.LFB4139:
  27:../libDaisy/src/util/color.h ****     ~Color() {}
 1917              		.loc 24 27 5
 1918              		.cfi_startproc
 1919              		@ args = 0, pretend = 0, frame = 8
 1920              		@ frame_needed = 1, uses_anonymous_args = 0
 1921              		@ link register save eliminated.
 1922 0000 80B4     		push	{r7}
 1923              		.cfi_def_cfa_offset 4
 1924              		.cfi_offset 7, -4
 1925 0002 83B0     		sub	sp, sp, #12
 1926              		.cfi_def_cfa_offset 16
 1927 0004 00AF     		add	r7, sp, #0
 1928              		.cfi_def_cfa_register 7
 1929 0006 7860     		str	r0, [r7, #4]
 1930              		.loc 24 27 15
 1931 0008 7B68     		ldr	r3, [r7, #4]
 1932 000a 1846     		mov	r0, r3
 1933 000c 0C37     		adds	r7, r7, #12
 1934              		.cfi_def_cfa_offset 4
 1935 000e BD46     		mov	sp, r7
 1936              		.cfi_def_cfa_register 13
 1937              		@ sp needed
 1938 0010 5DF8047B 		ldr	r7, [sp], #4
 1939              		.cfi_restore 7
 1940              		.cfi_def_cfa_offset 0
ARM GAS  /var/folders/2p/02m_5p7958535cp2tpgps0400000gn/T//ccf9gERz.s 			page 61


 1941 0014 7047     		bx	lr
 1942              		.cfi_endproc
 1943              	.LFE4139:
 1945              		.weak	_ZN5daisy5ColorD1Ev
 1946              		.thumb_set _ZN5daisy5ColorD1Ev,_ZN5daisy5ColorD2Ev
 1947              		.section	.text._ZN5daisy6RgbLedC2Ev,"axG",%progbits,_ZN5daisy6RgbLedC5Ev,comdat
 1948              		.align	1
 1949              		.weak	_ZN5daisy6RgbLedC2Ev
 1950              		.syntax unified
 1951              		.thumb
 1952              		.thumb_func
 1954              	_ZN5daisy6RgbLedC2Ev:
 1955              	.LFB4149:
 1956              		.file 25 "../libDaisy/src/hid/rgb_led.h"
   1:../libDaisy/src/hid/rgb_led.h **** #pragma once
   2:../libDaisy/src/hid/rgb_led.h **** #ifndef DSY_RGB_LED_H
   3:../libDaisy/src/hid/rgb_led.h **** #define DSY_RGB_LED_H
   4:../libDaisy/src/hid/rgb_led.h **** #include "hid/led.h"
   5:../libDaisy/src/hid/rgb_led.h **** #include "util/color.h"
   6:../libDaisy/src/hid/rgb_led.h **** 
   7:../libDaisy/src/hid/rgb_led.h **** namespace daisy
   8:../libDaisy/src/hid/rgb_led.h **** {
   9:../libDaisy/src/hid/rgb_led.h **** /** @addtogroup feedback
  10:../libDaisy/src/hid/rgb_led.h ****     @{
  11:../libDaisy/src/hid/rgb_led.h **** */
  12:../libDaisy/src/hid/rgb_led.h **** 
  13:../libDaisy/src/hid/rgb_led.h **** /** 3x LEDs configured as an RGB for ease of use. */
  14:../libDaisy/src/hid/rgb_led.h **** class RgbLed
  15:../libDaisy/src/hid/rgb_led.h **** {
  16:../libDaisy/src/hid/rgb_led.h ****   public:
  17:../libDaisy/src/hid/rgb_led.h ****     RgbLed() {}
 1957              		.loc 25 17 5
 1958              		.cfi_startproc
 1959              		@ args = 0, pretend = 0, frame = 8
 1960              		@ frame_needed = 1, uses_anonymous_args = 0
 1961 0000 80B5     		push	{r7, lr}
 1962              		.cfi_def_cfa_offset 8
 1963              		.cfi_offset 7, -8
 1964              		.cfi_offset 14, -4
 1965 0002 82B0     		sub	sp, sp, #8
 1966              		.cfi_def_cfa_offset 16
 1967 0004 00AF     		add	r7, sp, #0
 1968              		.cfi_def_cfa_register 7
 1969 0006 7860     		str	r0, [r7, #4]
 1970              	.LBB15:
 1971              		.loc 25 17 14
 1972 0008 7B68     		ldr	r3, [r7, #4]
 1973 000a 1846     		mov	r0, r3
 1974 000c FFF7FEFF 		bl	_ZN5daisy3LedC1Ev
 1975 0010 7B68     		ldr	r3, [r7, #4]
 1976 0012 1C33     		adds	r3, r3, #28
 1977 0014 1846     		mov	r0, r3
 1978 0016 FFF7FEFF 		bl	_ZN5daisy3LedC1Ev
 1979 001a 7B68     		ldr	r3, [r7, #4]
 1980 001c 3833     		adds	r3, r3, #56
 1981 001e 1846     		mov	r0, r3
 1982 0020 FFF7FEFF 		bl	_ZN5daisy3LedC1Ev
ARM GAS  /var/folders/2p/02m_5p7958535cp2tpgps0400000gn/T//ccf9gERz.s 			page 62


 1983              	.LBE15:
 1984              		.loc 25 17 15
 1985 0024 7B68     		ldr	r3, [r7, #4]
 1986 0026 1846     		mov	r0, r3
 1987 0028 0837     		adds	r7, r7, #8
 1988              		.cfi_def_cfa_offset 8
 1989 002a BD46     		mov	sp, r7
 1990              		.cfi_def_cfa_register 13
 1991              		@ sp needed
 1992 002c 80BD     		pop	{r7, pc}
 1993              		.cfi_endproc
 1994              	.LFE4149:
 1996              		.weak	_ZN5daisy6RgbLedC1Ev
 1997              		.thumb_set _ZN5daisy6RgbLedC1Ev,_ZN5daisy6RgbLedC2Ev
 1998              		.section	.text._ZN5daisy6RgbLedD2Ev,"axG",%progbits,_ZN5daisy6RgbLedD5Ev,comdat
 1999              		.align	1
 2000              		.weak	_ZN5daisy6RgbLedD2Ev
 2001              		.syntax unified
 2002              		.thumb
 2003              		.thumb_func
 2005              	_ZN5daisy6RgbLedD2Ev:
 2006              	.LFB4152:
  18:../libDaisy/src/hid/rgb_led.h ****     ~RgbLed() {}
 2007              		.loc 25 18 5
 2008              		.cfi_startproc
 2009              		@ args = 0, pretend = 0, frame = 8
 2010              		@ frame_needed = 1, uses_anonymous_args = 0
 2011 0000 80B5     		push	{r7, lr}
 2012              		.cfi_def_cfa_offset 8
 2013              		.cfi_offset 7, -8
 2014              		.cfi_offset 14, -4
 2015 0002 82B0     		sub	sp, sp, #8
 2016              		.cfi_def_cfa_offset 16
 2017 0004 00AF     		add	r7, sp, #0
 2018              		.cfi_def_cfa_register 7
 2019 0006 7860     		str	r0, [r7, #4]
 2020              	.LBB16:
 2021              		.loc 25 18 15
 2022 0008 7B68     		ldr	r3, [r7, #4]
 2023 000a 3833     		adds	r3, r3, #56
 2024 000c 1846     		mov	r0, r3
 2025 000e FFF7FEFF 		bl	_ZN5daisy3LedD1Ev
 2026 0012 7B68     		ldr	r3, [r7, #4]
 2027 0014 1C33     		adds	r3, r3, #28
 2028 0016 1846     		mov	r0, r3
 2029 0018 FFF7FEFF 		bl	_ZN5daisy3LedD1Ev
 2030 001c 7B68     		ldr	r3, [r7, #4]
 2031 001e 1846     		mov	r0, r3
 2032 0020 FFF7FEFF 		bl	_ZN5daisy3LedD1Ev
 2033              	.LBE16:
 2034              		.loc 25 18 16
 2035 0024 7B68     		ldr	r3, [r7, #4]
 2036 0026 1846     		mov	r0, r3
 2037 0028 0837     		adds	r7, r7, #8
 2038              		.cfi_def_cfa_offset 8
 2039 002a BD46     		mov	sp, r7
 2040              		.cfi_def_cfa_register 13
ARM GAS  /var/folders/2p/02m_5p7958535cp2tpgps0400000gn/T//ccf9gERz.s 			page 63


 2041              		@ sp needed
 2042 002c 80BD     		pop	{r7, pc}
 2043              		.cfi_endproc
 2044              	.LFE4152:
 2046              		.weak	_ZN5daisy6RgbLedD1Ev
 2047              		.thumb_set _ZN5daisy6RgbLedD1Ev,_ZN5daisy6RgbLedD2Ev
 2048              		.section	.rodata._ZL19kMaxSr595DaisyChain,"a"
 2049              		.align	2
 2052              	_ZL19kMaxSr595DaisyChain:
 2053 0000 10000000 		.word	16
 2054              		.section	.text._ZN5daisy12CpuLoadMeterC2Ev,"axG",%progbits,_ZN5daisy12CpuLoadMeterC5Ev,comdat
 2055              		.align	1
 2056              		.weak	_ZN5daisy12CpuLoadMeterC2Ev
 2057              		.syntax unified
 2058              		.thumb
 2059              		.thumb_func
 2061              	_ZN5daisy12CpuLoadMeterC2Ev:
 2062              	.LFB4780:
 2063              		.file 26 "../libDaisy/src/util/CpuLoadMeter.h"
   1:../libDaisy/src/util/CpuLoadMeter.h **** #pragma once
   2:../libDaisy/src/util/CpuLoadMeter.h **** 
   3:../libDaisy/src/util/CpuLoadMeter.h **** #include "sys/system.h"
   4:../libDaisy/src/util/CpuLoadMeter.h **** #include <cmath>
   5:../libDaisy/src/util/CpuLoadMeter.h **** 
   6:../libDaisy/src/util/CpuLoadMeter.h **** namespace daisy
   7:../libDaisy/src/util/CpuLoadMeter.h **** {
   8:../libDaisy/src/util/CpuLoadMeter.h **** /** @brief CPU load metering
   9:../libDaisy/src/util/CpuLoadMeter.h ****  *  @author jelliesen
  10:../libDaisy/src/util/CpuLoadMeter.h ****  *  @addtogroup utility
  11:../libDaisy/src/util/CpuLoadMeter.h ****  * 
  12:../libDaisy/src/util/CpuLoadMeter.h ****  *  To measure the CPU load of your audio processing, create a CpuLoadMeter
  13:../libDaisy/src/util/CpuLoadMeter.h ****  *  and initialize it with your block size and sample rate.
  14:../libDaisy/src/util/CpuLoadMeter.h ****  *  Then at the beginning of the audio callback, call `OnBlockStart()`, 
  15:../libDaisy/src/util/CpuLoadMeter.h ****  *  and at the end of the audio callback, call `OnBlockEnd()`.
  16:../libDaisy/src/util/CpuLoadMeter.h ****  *  You can then read out the minimum, maximum and average CPU load.
  17:../libDaisy/src/util/CpuLoadMeter.h ****  */
  18:../libDaisy/src/util/CpuLoadMeter.h **** class CpuLoadMeter
  19:../libDaisy/src/util/CpuLoadMeter.h **** {
  20:../libDaisy/src/util/CpuLoadMeter.h ****   public:
  21:../libDaisy/src/util/CpuLoadMeter.h ****     CpuLoadMeter(){};
 2064              		.loc 26 21 5
 2065              		.cfi_startproc
 2066              		@ args = 0, pretend = 0, frame = 8
 2067              		@ frame_needed = 1, uses_anonymous_args = 0
 2068              		@ link register save eliminated.
 2069 0000 80B4     		push	{r7}
 2070              		.cfi_def_cfa_offset 4
 2071              		.cfi_offset 7, -4
 2072 0002 83B0     		sub	sp, sp, #12
 2073              		.cfi_def_cfa_offset 16
 2074 0004 00AF     		add	r7, sp, #0
 2075              		.cfi_def_cfa_register 7
 2076 0006 7860     		str	r0, [r7, #4]
 2077              		.loc 26 21 20
 2078 0008 7B68     		ldr	r3, [r7, #4]
 2079 000a 1846     		mov	r0, r3
 2080 000c 0C37     		adds	r7, r7, #12
ARM GAS  /var/folders/2p/02m_5p7958535cp2tpgps0400000gn/T//ccf9gERz.s 			page 64


 2081              		.cfi_def_cfa_offset 4
 2082 000e BD46     		mov	sp, r7
 2083              		.cfi_def_cfa_register 13
 2084              		@ sp needed
 2085 0010 5DF8047B 		ldr	r7, [sp], #4
 2086              		.cfi_restore 7
 2087              		.cfi_def_cfa_offset 0
 2088 0014 7047     		bx	lr
 2089              		.cfi_endproc
 2090              	.LFE4780:
 2092              		.weak	_ZN5daisy12CpuLoadMeterC1Ev
 2093              		.thumb_set _ZN5daisy12CpuLoadMeterC1Ev,_ZN5daisy12CpuLoadMeterC2Ev
 2094              		.section	.text._ZN5daisy14FatFSInterfaceC2Ev,"axG",%progbits,_ZN5daisy14FatFSInterfaceC5Ev,comdat
 2095              		.align	1
 2096              		.weak	_ZN5daisy14FatFSInterfaceC2Ev
 2097              		.syntax unified
 2098              		.thumb
 2099              		.thumb_func
 2101              	_ZN5daisy14FatFSInterfaceC2Ev:
 2102              	.LFB4807:
 2103              		.file 27 "../libDaisy/src/sys/fatfs.h"
   1:../libDaisy/src/sys/fatfs.h **** #ifndef __fatfs_H
   2:../libDaisy/src/sys/fatfs.h **** #define __fatfs_H /**< & */
   3:../libDaisy/src/sys/fatfs.h **** 
   4:../libDaisy/src/sys/fatfs.h **** #include "ff.h"
   5:../libDaisy/src/sys/fatfs.h **** 
   6:../libDaisy/src/sys/fatfs.h **** namespace daisy
   7:../libDaisy/src/sys/fatfs.h **** {
   8:../libDaisy/src/sys/fatfs.h **** /** @brief Daisy FatFS Driver Interface
   9:../libDaisy/src/sys/fatfs.h ****  *  @details Specifies the desired media (SD Card, USB, etc.) to be mountable with FatFS
  10:../libDaisy/src/sys/fatfs.h ****  *           within a given application. Once initialization is called, the standard
  11:../libDaisy/src/sys/fatfs.h ****  *           FatFS API will be usable with the media mounted in the order 
  12:../libDaisy/src/sys/fatfs.h ****  *           they are listed in the Media config struct. 
  13:../libDaisy/src/sys/fatfs.h ****  *           For example, when only using an SD Card, it will mount at "0:/",
  14:../libDaisy/src/sys/fatfs.h ****  *           when only using USB, it will mount at "0:/". However, when mounting 
  15:../libDaisy/src/sys/fatfs.h ****  *           with SD card and USB, the SD card will mount at "0:/", and the USB 
  16:../libDaisy/src/sys/fatfs.h ****  *           will mount at "1:/".
  17:../libDaisy/src/sys/fatfs.h ****  *           The relevant hardware peripheral (SDMMC, or MSD) needs to be initialized
  18:../libDaisy/src/sys/fatfs.h ****  *           separately by the application before using FatFS.
  19:../libDaisy/src/sys/fatfs.h ****  *          
  20:../libDaisy/src/sys/fatfs.h ****  *           This object has some memory limitations due to the media connected to it.
  21:../libDaisy/src/sys/fatfs.h ****  *           The SDMMC1 peripheral can only communicate with the AXI SRAM, and the DTCMRAM 
  22:../libDaisy/src/sys/fatfs.h ****  *           cannot communicate with the DMA. So the FatFSInterface object should always be
  23:../libDaisy/src/sys/fatfs.h ****  *           located in the AXI SRAM. This is the default location for all data/bss memory
  24:../libDaisy/src/sys/fatfs.h ****  *           using the standard build. However, applciations using the electrosmith bootloader
  25:../libDaisy/src/sys/fatfs.h ****  *           will need special consideration when using this object AND an SD Card. 
  26:../libDaisy/src/sys/fatfs.h ****  */
  27:../libDaisy/src/sys/fatfs.h **** class FatFSInterface
  28:../libDaisy/src/sys/fatfs.h **** {
  29:../libDaisy/src/sys/fatfs.h ****   public:
  30:../libDaisy/src/sys/fatfs.h ****     /** Return values specifying specific errors for linking Daisy to FatFS */
  31:../libDaisy/src/sys/fatfs.h ****     enum Result
  32:../libDaisy/src/sys/fatfs.h ****     {
  33:../libDaisy/src/sys/fatfs.h ****         OK,
  34:../libDaisy/src/sys/fatfs.h ****         ERR_TOO_MANY_VOLUMES,
  35:../libDaisy/src/sys/fatfs.h ****         ERR_NO_MEDIA_SELECTED,
  36:../libDaisy/src/sys/fatfs.h ****         ERR_GENERIC,
ARM GAS  /var/folders/2p/02m_5p7958535cp2tpgps0400000gn/T//ccf9gERz.s 			page 65


  37:../libDaisy/src/sys/fatfs.h ****     };
  38:../libDaisy/src/sys/fatfs.h **** 
  39:../libDaisy/src/sys/fatfs.h ****     /** Config structure for configuring Daisy to FatFS */
  40:../libDaisy/src/sys/fatfs.h ****     struct Config
  41:../libDaisy/src/sys/fatfs.h ****     {
  42:../libDaisy/src/sys/fatfs.h ****         /** Selected Media that will be linked to FatFS 
  43:../libDaisy/src/sys/fatfs.h ****          *  These values can be OR'd together when multiple
  44:../libDaisy/src/sys/fatfs.h ****          *  volumes are desired 
  45:../libDaisy/src/sys/fatfs.h ****          *  i.e. config.media = Media::SD | Media::USBH;
  46:../libDaisy/src/sys/fatfs.h ****          * 
  47:../libDaisy/src/sys/fatfs.h ****          *  When mounting multiple volumes, ffconf.h must have 
  48:../libDaisy/src/sys/fatfs.h ****          *  _VOLUMES set to an appropriate value.
  49:../libDaisy/src/sys/fatfs.h ****          * 
  50:../libDaisy/src/sys/fatfs.h ****          *  FatFS will register multiple volumes in the order of the enum,
  51:../libDaisy/src/sys/fatfs.h ****          *   the first registered class will mount at "0:/",
  52:../libDaisy/src/sys/fatfs.h ****          *   the second registered class will mount at "1:/", and so on
  53:../libDaisy/src/sys/fatfs.h ****          */
  54:../libDaisy/src/sys/fatfs.h ****         enum Media : uint8_t
  55:../libDaisy/src/sys/fatfs.h ****         {
  56:../libDaisy/src/sys/fatfs.h ****             MEDIA_SD  = 0x01,
  57:../libDaisy/src/sys/fatfs.h ****             MEDIA_USB = 0x02,
  58:../libDaisy/src/sys/fatfs.h ****             // MEDIA_QSPI = 0x04,
  59:../libDaisy/src/sys/fatfs.h ****         };
  60:../libDaisy/src/sys/fatfs.h **** 
  61:../libDaisy/src/sys/fatfs.h ****         uint8_t media;
  62:../libDaisy/src/sys/fatfs.h ****     };
  63:../libDaisy/src/sys/fatfs.h **** 
  64:../libDaisy/src/sys/fatfs.h ****     FatFSInterface() {}
 2104              		.loc 27 64 5
 2105              		.cfi_startproc
 2106              		@ args = 0, pretend = 0, frame = 8
 2107              		@ frame_needed = 1, uses_anonymous_args = 0
 2108              		@ link register save eliminated.
 2109 0000 80B4     		push	{r7}
 2110              		.cfi_def_cfa_offset 4
 2111              		.cfi_offset 7, -4
 2112 0002 83B0     		sub	sp, sp, #12
 2113              		.cfi_def_cfa_offset 16
 2114 0004 00AF     		add	r7, sp, #0
 2115              		.cfi_def_cfa_register 7
 2116 0006 7860     		str	r0, [r7, #4]
 2117              		.loc 27 64 23
 2118 0008 7B68     		ldr	r3, [r7, #4]
 2119 000a 1846     		mov	r0, r3
 2120 000c 0C37     		adds	r7, r7, #12
 2121              		.cfi_def_cfa_offset 4
 2122 000e BD46     		mov	sp, r7
 2123              		.cfi_def_cfa_register 13
 2124              		@ sp needed
 2125 0010 5DF8047B 		ldr	r7, [sp], #4
 2126              		.cfi_restore 7
 2127              		.cfi_def_cfa_offset 0
 2128 0014 7047     		bx	lr
 2129              		.cfi_endproc
 2130              	.LFE4807:
 2132              		.weak	_ZN5daisy14FatFSInterfaceC1Ev
 2133              		.thumb_set _ZN5daisy14FatFSInterfaceC1Ev,_ZN5daisy14FatFSInterfaceC2Ev
ARM GAS  /var/folders/2p/02m_5p7958535cp2tpgps0400000gn/T//ccf9gERz.s 			page 66


 2134              		.section	.text._ZN5daisy9DaisySeedC2Ev,"axG",%progbits,_ZN5daisy9DaisySeedC5Ev,comdat
 2135              		.align	1
 2136              		.weak	_ZN5daisy9DaisySeedC2Ev
 2137              		.syntax unified
 2138              		.thumb
 2139              		.thumb_func
 2141              	_ZN5daisy9DaisySeedC2Ev:
 2142              	.LFB4835:
 2143              		.file 28 "../libDaisy/src/daisy_seed.h"
   1:../libDaisy/src/daisy_seed.h **** #pragma once
   2:../libDaisy/src/daisy_seed.h **** #ifndef DSY_SEED_H
   3:../libDaisy/src/daisy_seed.h **** #define DSY_SEED_H
   4:../libDaisy/src/daisy_seed.h **** 
   5:../libDaisy/src/daisy_seed.h **** #include "daisy.h"
   6:../libDaisy/src/daisy_seed.h **** 
   7:../libDaisy/src/daisy_seed.h **** //Uncomment this out if you're still using the rev2 hardware
   8:../libDaisy/src/daisy_seed.h **** //#define SEED_REV2
   9:../libDaisy/src/daisy_seed.h **** 
  10:../libDaisy/src/daisy_seed.h **** namespace daisy
  11:../libDaisy/src/daisy_seed.h **** {
  12:../libDaisy/src/daisy_seed.h **** /**
  13:../libDaisy/src/daisy_seed.h ****    @brief This is the higher-level interface for the Daisy board. \n 
  14:../libDaisy/src/daisy_seed.h ****     All basic peripheral configuration/initialization is setup here. \n
  15:../libDaisy/src/daisy_seed.h **** 
  16:../libDaisy/src/daisy_seed.h ****    @ingroup boards
  17:../libDaisy/src/daisy_seed.h **** */
  18:../libDaisy/src/daisy_seed.h **** class DaisySeed
  19:../libDaisy/src/daisy_seed.h **** {
  20:../libDaisy/src/daisy_seed.h ****   public:
  21:../libDaisy/src/daisy_seed.h ****     DaisySeed() {}
 2144              		.loc 28 21 5
 2145              		.cfi_startproc
 2146              		@ args = 0, pretend = 0, frame = 8
 2147              		@ frame_needed = 1, uses_anonymous_args = 0
 2148 0000 80B5     		push	{r7, lr}
 2149              		.cfi_def_cfa_offset 8
 2150              		.cfi_offset 7, -8
 2151              		.cfi_offset 14, -4
 2152 0002 82B0     		sub	sp, sp, #8
 2153              		.cfi_def_cfa_offset 16
 2154 0004 00AF     		add	r7, sp, #0
 2155              		.cfi_def_cfa_register 7
 2156 0006 7860     		str	r0, [r7, #4]
 2157              	.LBB17:
 2158              		.loc 28 21 17
 2159 0008 7B68     		ldr	r3, [r7, #4]
 2160 000a 1846     		mov	r0, r3
 2161 000c FFF7FEFF 		bl	_ZN5daisy10QSPIHandleC1Ev
 2162 0010 7B68     		ldr	r3, [r7, #4]
 2163 0012 1433     		adds	r3, r3, #20
 2164 0014 1846     		mov	r0, r3
 2165 0016 FFF7FEFF 		bl	_ZN5daisy11AudioHandleC1Ev
 2166 001a 7B68     		ldr	r3, [r7, #4]
 2167 001c 1833     		adds	r3, r3, #24
 2168 001e 1846     		mov	r0, r3
 2169 0020 FFF7FEFF 		bl	_ZN5daisy9AdcHandleC1Ev
 2170 0024 7B68     		ldr	r3, [r7, #4]
ARM GAS  /var/folders/2p/02m_5p7958535cp2tpgps0400000gn/T//ccf9gERz.s 			page 67


 2171 0026 2033     		adds	r3, r3, #32
 2172 0028 1846     		mov	r0, r3
 2173 002a FFF7FEFF 		bl	_ZN5daisy9DacHandleC1Ev
 2174 002e 7B68     		ldr	r3, [r7, #4]
 2175 0030 2433     		adds	r3, r3, #36
 2176 0032 1846     		mov	r0, r3
 2177 0034 FFF7FEFF 		bl	_ZN5daisy9UsbHandleC1Ev
 2178 0038 7B68     		ldr	r3, [r7, #4]
 2179 003a 3033     		adds	r3, r3, #48
 2180 003c 1846     		mov	r0, r3
 2181 003e FFF7FEFF 		bl	_ZN5daisy6SystemC1Ev
 2182 0042 7B68     		ldr	r3, [r7, #4]
 2183 0044 3C33     		adds	r3, r3, #60
 2184 0046 1846     		mov	r0, r3
 2185 0048 FFF7FEFF 		bl	_ZN5daisy9SaiHandleC1Ev
 2186              	.LBE17:
 2187              		.loc 28 21 18
 2188 004c 7B68     		ldr	r3, [r7, #4]
 2189 004e 1846     		mov	r0, r3
 2190 0050 0837     		adds	r7, r7, #8
 2191              		.cfi_def_cfa_offset 8
 2192 0052 BD46     		mov	sp, r7
 2193              		.cfi_def_cfa_register 13
 2194              		@ sp needed
 2195 0054 80BD     		pop	{r7, pc}
 2196              		.cfi_endproc
 2197              	.LFE4835:
 2199              		.weak	_ZN5daisy9DaisySeedC1Ev
 2200              		.thumb_set _ZN5daisy9DaisySeedC1Ev,_ZN5daisy9DaisySeedC2Ev
 2201              		.section	.text._ZN5daisy9DaisySeedD2Ev,"axG",%progbits,_ZN5daisy9DaisySeedD5Ev,comdat
 2202              		.align	1
 2203              		.weak	_ZN5daisy9DaisySeedD2Ev
 2204              		.syntax unified
 2205              		.thumb
 2206              		.thumb_func
 2208              	_ZN5daisy9DaisySeedD2Ev:
 2209              	.LFB4838:
  22:../libDaisy/src/daisy_seed.h ****     ~DaisySeed() {}
 2210              		.loc 28 22 5
 2211              		.cfi_startproc
 2212              		@ args = 0, pretend = 0, frame = 8
 2213              		@ frame_needed = 1, uses_anonymous_args = 0
 2214 0000 80B5     		push	{r7, lr}
 2215              		.cfi_def_cfa_offset 8
 2216              		.cfi_offset 7, -8
 2217              		.cfi_offset 14, -4
 2218 0002 82B0     		sub	sp, sp, #8
 2219              		.cfi_def_cfa_offset 16
 2220 0004 00AF     		add	r7, sp, #0
 2221              		.cfi_def_cfa_register 7
 2222 0006 7860     		str	r0, [r7, #4]
 2223              	.LBB18:
 2224              		.loc 28 22 18
 2225 0008 7B68     		ldr	r3, [r7, #4]
 2226 000a 3033     		adds	r3, r3, #48
 2227 000c 1846     		mov	r0, r3
 2228 000e FFF7FEFF 		bl	_ZN5daisy6SystemD1Ev
ARM GAS  /var/folders/2p/02m_5p7958535cp2tpgps0400000gn/T//ccf9gERz.s 			page 68


 2229 0012 7B68     		ldr	r3, [r7, #4]
 2230 0014 2433     		adds	r3, r3, #36
 2231 0016 1846     		mov	r0, r3
 2232 0018 FFF7FEFF 		bl	_ZN5daisy9UsbHandleD1Ev
 2233 001c 7B68     		ldr	r3, [r7, #4]
 2234 001e 1833     		adds	r3, r3, #24
 2235 0020 1846     		mov	r0, r3
 2236 0022 FFF7FEFF 		bl	_ZN5daisy9AdcHandleD1Ev
 2237 0026 7B68     		ldr	r3, [r7, #4]
 2238 0028 1433     		adds	r3, r3, #20
 2239 002a 1846     		mov	r0, r3
 2240 002c FFF7FEFF 		bl	_ZN5daisy11AudioHandleD1Ev
 2241              	.LBE18:
 2242              		.loc 28 22 19
 2243 0030 7B68     		ldr	r3, [r7, #4]
 2244 0032 1846     		mov	r0, r3
 2245 0034 0837     		adds	r7, r7, #8
 2246              		.cfi_def_cfa_offset 8
 2247 0036 BD46     		mov	sp, r7
 2248              		.cfi_def_cfa_register 13
 2249              		@ sp needed
 2250 0038 80BD     		pop	{r7, pc}
 2251              		.cfi_endproc
 2252              	.LFE4838:
 2254              		.weak	_ZN5daisy9DaisySeedD1Ev
 2255              		.thumb_set _ZN5daisy9DaisySeedD1Ev,_ZN5daisy9DaisySeedD2Ev
 2256              		.section	.text._ZN5daisy9DaisySeed8StartLogEb,"axG",%progbits,_ZN5daisy9DaisySeed8StartLogEb,comda
 2257              		.align	1
 2258              		.weak	_ZN5daisy9DaisySeed8StartLogEb
 2259              		.syntax unified
 2260              		.thumb
 2261              		.thumb_func
 2263              	_ZN5daisy9DaisySeed8StartLogEb:
 2264              	.LFB4842:
  23:../libDaisy/src/daisy_seed.h **** 
  24:../libDaisy/src/daisy_seed.h ****     /** This function used to provide a pre-initialization configuraiton 
  25:../libDaisy/src/daisy_seed.h ****      *  it has since been deprecated, and does nothing.
  26:../libDaisy/src/daisy_seed.h ****      */
  27:../libDaisy/src/daisy_seed.h ****     void Configure();
  28:../libDaisy/src/daisy_seed.h **** 
  29:../libDaisy/src/daisy_seed.h ****     /** 
  30:../libDaisy/src/daisy_seed.h ****     Initializes the Daisy Seed and the following peripherals:
  31:../libDaisy/src/daisy_seed.h ****     SDRAM, QSPI, 24-bit 48kHz Audio via AK4556, Internal USB,
  32:../libDaisy/src/daisy_seed.h ****     as well as the built-in LED and Testpoint.
  33:../libDaisy/src/daisy_seed.h **** 
  34:../libDaisy/src/daisy_seed.h ****     ADCs, DACs, and other special peripherals (such as I2C, SPI, etc.)
  35:../libDaisy/src/daisy_seed.h ****     can be initialized using their specific initializers within libdaisy
  36:../libDaisy/src/daisy_seed.h ****     for a specific application.
  37:../libDaisy/src/daisy_seed.h ****     */
  38:../libDaisy/src/daisy_seed.h ****     void Init(bool boost = false);
  39:../libDaisy/src/daisy_seed.h **** 
  40:../libDaisy/src/daisy_seed.h ****     /** 
  41:../libDaisy/src/daisy_seed.h ****     Deinitializes all peripherals automatically handled by `Init`.
  42:../libDaisy/src/daisy_seed.h ****     */
  43:../libDaisy/src/daisy_seed.h ****     void DeInit();
  44:../libDaisy/src/daisy_seed.h **** 
  45:../libDaisy/src/daisy_seed.h ****     /** 
ARM GAS  /var/folders/2p/02m_5p7958535cp2tpgps0400000gn/T//ccf9gERz.s 			page 69


  46:../libDaisy/src/daisy_seed.h ****     Wait some ms before going on.
  47:../libDaisy/src/daisy_seed.h ****     \param del Delay time in ms.
  48:../libDaisy/src/daisy_seed.h ****     */
  49:../libDaisy/src/daisy_seed.h ****     void DelayMs(size_t del);
  50:../libDaisy/src/daisy_seed.h **** 
  51:../libDaisy/src/daisy_seed.h ****     /** 
  52:../libDaisy/src/daisy_seed.h ****     Returns the gpio_pin corresponding to the index 0-31.
  53:../libDaisy/src/daisy_seed.h ****     For the given GPIO on the Daisy Seed (labeled 1-32 in docs).
  54:../libDaisy/src/daisy_seed.h ****     */
  55:../libDaisy/src/daisy_seed.h ****     static dsy_gpio_pin GetPin(uint8_t pin_idx);
  56:../libDaisy/src/daisy_seed.h **** 
  57:../libDaisy/src/daisy_seed.h ****     /** Begins the audio for the seeds builtin audio.
  58:../libDaisy/src/daisy_seed.h ****     the specified callback will get called whenever
  59:../libDaisy/src/daisy_seed.h ****     new data is ready to be prepared.
  60:../libDaisy/src/daisy_seed.h ****     */
  61:../libDaisy/src/daisy_seed.h ****     void StartAudio(AudioHandle::InterleavingAudioCallback cb);
  62:../libDaisy/src/daisy_seed.h **** 
  63:../libDaisy/src/daisy_seed.h ****     /** Begins the audio for the seeds builtin audio.
  64:../libDaisy/src/daisy_seed.h ****     the specified callback will get called whenever
  65:../libDaisy/src/daisy_seed.h ****     new data is ready to be prepared.
  66:../libDaisy/src/daisy_seed.h ****     This will use the newer non-interleaved callback.
  67:../libDaisy/src/daisy_seed.h ****     */
  68:../libDaisy/src/daisy_seed.h ****     void StartAudio(AudioHandle::AudioCallback cb);
  69:../libDaisy/src/daisy_seed.h **** 
  70:../libDaisy/src/daisy_seed.h ****     /** Changes to a new interleaved callback
  71:../libDaisy/src/daisy_seed.h ****      */
  72:../libDaisy/src/daisy_seed.h ****     void ChangeAudioCallback(AudioHandle::InterleavingAudioCallback cb);
  73:../libDaisy/src/daisy_seed.h **** 
  74:../libDaisy/src/daisy_seed.h ****     /** Changes to a new multichannel callback
  75:../libDaisy/src/daisy_seed.h ****      */
  76:../libDaisy/src/daisy_seed.h ****     void ChangeAudioCallback(AudioHandle::AudioCallback cb);
  77:../libDaisy/src/daisy_seed.h **** 
  78:../libDaisy/src/daisy_seed.h ****     /** Stops the audio if it is running. */
  79:../libDaisy/src/daisy_seed.h ****     void StopAudio();
  80:../libDaisy/src/daisy_seed.h **** 
  81:../libDaisy/src/daisy_seed.h ****     /** Updates the Audio Sample Rate, and reinitializes.
  82:../libDaisy/src/daisy_seed.h ****      ** Audio must be stopped for this to work.
  83:../libDaisy/src/daisy_seed.h ****      */
  84:../libDaisy/src/daisy_seed.h ****     void SetAudioSampleRate(SaiHandle::Config::SampleRate samplerate);
  85:../libDaisy/src/daisy_seed.h **** 
  86:../libDaisy/src/daisy_seed.h ****     /** Returns the audio sample rate in Hz as a floating point number.
  87:../libDaisy/src/daisy_seed.h ****      */
  88:../libDaisy/src/daisy_seed.h ****     float AudioSampleRate();
  89:../libDaisy/src/daisy_seed.h **** 
  90:../libDaisy/src/daisy_seed.h ****     /** Sets the number of samples processed per channel by the audio callback.
  91:../libDaisy/src/daisy_seed.h ****      */
  92:../libDaisy/src/daisy_seed.h ****     void SetAudioBlockSize(size_t blocksize);
  93:../libDaisy/src/daisy_seed.h **** 
  94:../libDaisy/src/daisy_seed.h ****     /** Returns the number of samples per channel in a block of audio. */
  95:../libDaisy/src/daisy_seed.h ****     size_t AudioBlockSize();
  96:../libDaisy/src/daisy_seed.h **** 
  97:../libDaisy/src/daisy_seed.h ****     /** Returns the rate in Hz that the Audio callback is called */
  98:../libDaisy/src/daisy_seed.h ****     float AudioCallbackRate() const;
  99:../libDaisy/src/daisy_seed.h **** 
 100:../libDaisy/src/daisy_seed.h ****     /** Returns the SAI Handle for the Daisy Seed 
 101:../libDaisy/src/daisy_seed.h ****      *  This can be useful when adding a secondary codec,
 102:../libDaisy/src/daisy_seed.h ****      *  the result of this function can be passed to the audio reinit 
ARM GAS  /var/folders/2p/02m_5p7958535cp2tpgps0400000gn/T//ccf9gERz.s 			page 70


 103:../libDaisy/src/daisy_seed.h ****      *  with an SAI2 configuration
 104:../libDaisy/src/daisy_seed.h ****      */
 105:../libDaisy/src/daisy_seed.h ****     const SaiHandle& AudioSaiHandle() const;
 106:../libDaisy/src/daisy_seed.h **** 
 107:../libDaisy/src/daisy_seed.h ****     /** Sets the state of the built in LED
 108:../libDaisy/src/daisy_seed.h ****      */
 109:../libDaisy/src/daisy_seed.h ****     void SetLed(bool state);
 110:../libDaisy/src/daisy_seed.h **** 
 111:../libDaisy/src/daisy_seed.h ****     /** Sets the state of the test point near pin 10
 112:../libDaisy/src/daisy_seed.h ****      */
 113:../libDaisy/src/daisy_seed.h ****     void SetTestPoint(bool state);
 114:../libDaisy/src/daisy_seed.h **** 
 115:../libDaisy/src/daisy_seed.h ****     /** Print formatted debug log message
 116:../libDaisy/src/daisy_seed.h ****      */
 117:../libDaisy/src/daisy_seed.h ****     template <typename... VA>
 118:../libDaisy/src/daisy_seed.h ****     static void Print(const char* format, VA... va)
 119:../libDaisy/src/daisy_seed.h ****     {
 120:../libDaisy/src/daisy_seed.h ****         Log::Print(format, va...);
 121:../libDaisy/src/daisy_seed.h ****     }
 122:../libDaisy/src/daisy_seed.h **** 
 123:../libDaisy/src/daisy_seed.h ****     /** Print formatted debug log message with automatic line termination
 124:../libDaisy/src/daisy_seed.h ****     */
 125:../libDaisy/src/daisy_seed.h ****     template <typename... VA>
 126:../libDaisy/src/daisy_seed.h ****     static void PrintLine(const char* format, VA... va)
 127:../libDaisy/src/daisy_seed.h ****     {
 128:../libDaisy/src/daisy_seed.h ****         Log::PrintLine(format, va...);
 129:../libDaisy/src/daisy_seed.h ****     }
 130:../libDaisy/src/daisy_seed.h **** 
 131:../libDaisy/src/daisy_seed.h ****     /** Start the logging session. Optionally wait for terminal connection before proceeding.
 132:../libDaisy/src/daisy_seed.h ****     */
 133:../libDaisy/src/daisy_seed.h ****     static void StartLog(bool wait_for_pc = false)
 2265              		.loc 28 133 17
 2266              		.cfi_startproc
 2267              		@ args = 0, pretend = 0, frame = 8
 2268              		@ frame_needed = 1, uses_anonymous_args = 0
 2269 0000 80B5     		push	{r7, lr}
 2270              		.cfi_def_cfa_offset 8
 2271              		.cfi_offset 7, -8
 2272              		.cfi_offset 14, -4
 2273 0002 82B0     		sub	sp, sp, #8
 2274              		.cfi_def_cfa_offset 16
 2275 0004 00AF     		add	r7, sp, #0
 2276              		.cfi_def_cfa_register 7
 2277 0006 0346     		mov	r3, r0
 2278 0008 FB71     		strb	r3, [r7, #7]
 134:../libDaisy/src/daisy_seed.h ****     {
 135:../libDaisy/src/daisy_seed.h ****         Log::StartLog(wait_for_pc);
 2279              		.loc 28 135 22
 2280 000a FB79     		ldrb	r3, [r7, #7]	@ zero_extendqisi2
 2281 000c 1846     		mov	r0, r3
 2282 000e FFF7FEFF 		bl	_ZN5daisy6LoggerILNS_17LoggerDestinationE1EE8StartLogEb
 136:../libDaisy/src/daisy_seed.h ****     }
 2283              		.loc 28 136 5
 2284 0012 00BF     		nop
 2285 0014 0837     		adds	r7, r7, #8
 2286              		.cfi_def_cfa_offset 8
 2287 0016 BD46     		mov	sp, r7
ARM GAS  /var/folders/2p/02m_5p7958535cp2tpgps0400000gn/T//ccf9gERz.s 			page 71


 2288              		.cfi_def_cfa_register 13
 2289              		@ sp needed
 2290 0018 80BD     		pop	{r7, pc}
 2291              		.cfi_endproc
 2292              	.LFE4842:
 2294              		.section	.rodata._ZN5daisy4seedL2D0E,"a"
 2295              		.align	2
 2298              	_ZN5daisy4seedL2D0E:
 2299 0000 01       		.byte	1
 2300 0001 0C       		.byte	12
 2301              		.section	.rodata._ZN5daisy4seedL2D1E,"a"
 2302              		.align	2
 2305              	_ZN5daisy4seedL2D1E:
 2306 0000 02       		.byte	2
 2307 0001 0B       		.byte	11
 2308              		.section	.rodata._ZN5daisy4seedL2D2E,"a"
 2309              		.align	2
 2312              	_ZN5daisy4seedL2D2E:
 2313 0000 02       		.byte	2
 2314 0001 0A       		.byte	10
 2315              		.section	.rodata._ZN5daisy4seedL2D3E,"a"
 2316              		.align	2
 2319              	_ZN5daisy4seedL2D3E:
 2320 0000 02       		.byte	2
 2321 0001 09       		.byte	9
 2322              		.section	.rodata._ZN5daisy4seedL2D4E,"a"
 2323              		.align	2
 2326              	_ZN5daisy4seedL2D4E:
 2327 0000 02       		.byte	2
 2328 0001 08       		.byte	8
 2329              		.section	.rodata._ZN5daisy4seedL2D5E,"a"
 2330              		.align	2
 2333              	_ZN5daisy4seedL2D5E:
 2334 0000 03       		.byte	3
 2335 0001 02       		.byte	2
 2336              		.section	.rodata._ZN5daisy4seedL2D6E,"a"
 2337              		.align	2
 2340              	_ZN5daisy4seedL2D6E:
 2341 0000 02       		.byte	2
 2342 0001 0C       		.byte	12
 2343              		.section	.rodata._ZN5daisy4seedL2D7E,"a"
 2344              		.align	2
 2347              	_ZN5daisy4seedL2D7E:
 2348 0000 06       		.byte	6
 2349 0001 0A       		.byte	10
 2350              		.section	.rodata._ZN5daisy4seedL2D8E,"a"
 2351              		.align	2
 2354              	_ZN5daisy4seedL2D8E:
 2355 0000 06       		.byte	6
 2356 0001 0B       		.byte	11
 2357              		.section	.rodata._ZN5daisy4seedL2D9E,"a"
 2358              		.align	2
 2361              	_ZN5daisy4seedL2D9E:
 2362 0000 01       		.byte	1
 2363 0001 04       		.byte	4
 2364              		.section	.rodata._ZN5daisy4seedL3D10E,"a"
 2365              		.align	2
ARM GAS  /var/folders/2p/02m_5p7958535cp2tpgps0400000gn/T//ccf9gERz.s 			page 72


 2368              	_ZN5daisy4seedL3D10E:
 2369 0000 01       		.byte	1
 2370 0001 05       		.byte	5
 2371              		.section	.rodata._ZN5daisy4seedL3D11E,"a"
 2372              		.align	2
 2375              	_ZN5daisy4seedL3D11E:
 2376 0000 01       		.byte	1
 2377 0001 08       		.byte	8
 2378              		.section	.rodata._ZN5daisy4seedL3D12E,"a"
 2379              		.align	2
 2382              	_ZN5daisy4seedL3D12E:
 2383 0000 01       		.byte	1
 2384 0001 09       		.byte	9
 2385              		.section	.rodata._ZN5daisy4seedL3D13E,"a"
 2386              		.align	2
 2389              	_ZN5daisy4seedL3D13E:
 2390 0000 01       		.byte	1
 2391 0001 06       		.byte	6
 2392              		.section	.rodata._ZN5daisy4seedL3D14E,"a"
 2393              		.align	2
 2396              	_ZN5daisy4seedL3D14E:
 2397 0000 01       		.byte	1
 2398 0001 07       		.byte	7
 2399              		.section	.rodata._ZN5daisy4seedL3D15E,"a"
 2400              		.align	2
 2403              	_ZN5daisy4seedL3D15E:
 2404 0000 02       		.byte	2
 2405 0001 00       		.byte	0
 2406              		.section	.rodata._ZN5daisy4seedL3D16E,"a"
 2407              		.align	2
 2410              	_ZN5daisy4seedL3D16E:
 2411 0000 00       		.byte	0
 2412 0001 03       		.byte	3
 2413              		.section	.rodata._ZN5daisy4seedL3D17E,"a"
 2414              		.align	2
 2417              	_ZN5daisy4seedL3D17E:
 2418 0000 01       		.byte	1
 2419 0001 01       		.byte	1
 2420              		.section	.rodata._ZN5daisy4seedL3D18E,"a"
 2421              		.align	2
 2424              	_ZN5daisy4seedL3D18E:
 2425 0000 00       		.byte	0
 2426 0001 07       		.byte	7
 2427              		.section	.rodata._ZN5daisy4seedL3D19E,"a"
 2428              		.align	2
 2431              	_ZN5daisy4seedL3D19E:
 2432 0000 00       		.byte	0
 2433 0001 06       		.byte	6
 2434              		.section	.rodata._ZN5daisy4seedL3D20E,"a"
 2435              		.align	2
 2438              	_ZN5daisy4seedL3D20E:
 2439 0000 02       		.byte	2
 2440 0001 01       		.byte	1
 2441              		.section	.rodata._ZN5daisy4seedL3D21E,"a"
 2442              		.align	2
 2445              	_ZN5daisy4seedL3D21E:
 2446 0000 02       		.byte	2
ARM GAS  /var/folders/2p/02m_5p7958535cp2tpgps0400000gn/T//ccf9gERz.s 			page 73


 2447 0001 04       		.byte	4
 2448              		.section	.rodata._ZN5daisy4seedL3D22E,"a"
 2449              		.align	2
 2452              	_ZN5daisy4seedL3D22E:
 2453 0000 00       		.byte	0
 2454 0001 05       		.byte	5
 2455              		.section	.rodata._ZN5daisy4seedL3D23E,"a"
 2456              		.align	2
 2459              	_ZN5daisy4seedL3D23E:
 2460 0000 00       		.byte	0
 2461 0001 04       		.byte	4
 2462              		.section	.rodata._ZN5daisy4seedL3D24E,"a"
 2463              		.align	2
 2466              	_ZN5daisy4seedL3D24E:
 2467 0000 00       		.byte	0
 2468 0001 01       		.byte	1
 2469              		.section	.rodata._ZN5daisy4seedL3D25E,"a"
 2470              		.align	2
 2473              	_ZN5daisy4seedL3D25E:
 2474 0000 0000     		.space	2
 2475              		.section	.rodata._ZN5daisy4seedL3D26E,"a"
 2476              		.align	2
 2479              	_ZN5daisy4seedL3D26E:
 2480 0000 03       		.byte	3
 2481 0001 0B       		.byte	11
 2482              		.section	.rodata._ZN5daisy4seedL3D27E,"a"
 2483              		.align	2
 2486              	_ZN5daisy4seedL3D27E:
 2487 0000 06       		.byte	6
 2488 0001 09       		.byte	9
 2489              		.section	.rodata._ZN5daisy4seedL3D28E,"a"
 2490              		.align	2
 2493              	_ZN5daisy4seedL3D28E:
 2494 0000 00       		.byte	0
 2495 0001 02       		.byte	2
 2496              		.section	.rodata._ZN5daisy4seedL3D29E,"a"
 2497              		.align	2
 2500              	_ZN5daisy4seedL3D29E:
 2501 0000 01       		.byte	1
 2502 0001 0E       		.byte	14
 2503              		.section	.rodata._ZN5daisy4seedL3D30E,"a"
 2504              		.align	2
 2507              	_ZN5daisy4seedL3D30E:
 2508 0000 01       		.byte	1
 2509 0001 0F       		.byte	15
 2510              		.section	.rodata._ZN5daisy4seedL2A0E,"a"
 2511              		.align	2
 2514              	_ZN5daisy4seedL2A0E:
 2515 0000 02       		.byte	2
 2516 0001 00       		.byte	0
 2517              		.section	.rodata._ZN5daisy4seedL2A1E,"a"
 2518              		.align	2
 2521              	_ZN5daisy4seedL2A1E:
 2522 0000 00       		.byte	0
 2523 0001 03       		.byte	3
 2524              		.section	.rodata._ZN5daisy4seedL2A2E,"a"
 2525              		.align	2
ARM GAS  /var/folders/2p/02m_5p7958535cp2tpgps0400000gn/T//ccf9gERz.s 			page 74


 2528              	_ZN5daisy4seedL2A2E:
 2529 0000 01       		.byte	1
 2530 0001 01       		.byte	1
 2531              		.section	.rodata._ZN5daisy4seedL2A3E,"a"
 2532              		.align	2
 2535              	_ZN5daisy4seedL2A3E:
 2536 0000 00       		.byte	0
 2537 0001 07       		.byte	7
 2538              		.section	.rodata._ZN5daisy4seedL2A4E,"a"
 2539              		.align	2
 2542              	_ZN5daisy4seedL2A4E:
 2543 0000 00       		.byte	0
 2544 0001 06       		.byte	6
 2545              		.section	.rodata._ZN5daisy4seedL2A5E,"a"
 2546              		.align	2
 2549              	_ZN5daisy4seedL2A5E:
 2550 0000 02       		.byte	2
 2551 0001 01       		.byte	1
 2552              		.section	.rodata._ZN5daisy4seedL2A6E,"a"
 2553              		.align	2
 2556              	_ZN5daisy4seedL2A6E:
 2557 0000 02       		.byte	2
 2558 0001 04       		.byte	4
 2559              		.section	.rodata._ZN5daisy4seedL2A7E,"a"
 2560              		.align	2
 2563              	_ZN5daisy4seedL2A7E:
 2564 0000 00       		.byte	0
 2565 0001 05       		.byte	5
 2566              		.section	.rodata._ZN5daisy4seedL2A8E,"a"
 2567              		.align	2
 2570              	_ZN5daisy4seedL2A8E:
 2571 0000 00       		.byte	0
 2572 0001 04       		.byte	4
 2573              		.section	.rodata._ZN5daisy4seedL2A9E,"a"
 2574              		.align	2
 2577              	_ZN5daisy4seedL2A9E:
 2578 0000 00       		.byte	0
 2579 0001 01       		.byte	1
 2580              		.section	.rodata._ZN5daisy4seedL3A10E,"a"
 2581              		.align	2
 2584              	_ZN5daisy4seedL3A10E:
 2585 0000 0000     		.space	2
 2586              		.section	.rodata._ZN5daisy4seedL3A11E,"a"
 2587              		.align	2
 2590              	_ZN5daisy4seedL3A11E:
 2591 0000 00       		.byte	0
 2592 0001 02       		.byte	2
 2593              		.section	.rodata._ZN5daisy4seedL3D31E,"a"
 2594              		.align	2
 2597              	_ZN5daisy4seedL3D31E:
 2598 0000 02       		.byte	2
 2599 0001 02       		.byte	2
 2600              		.section	.rodata._ZN5daisy4seedL3D32E,"a"
 2601              		.align	2
 2604              	_ZN5daisy4seedL3D32E:
 2605 0000 02       		.byte	2
 2606 0001 03       		.byte	3
ARM GAS  /var/folders/2p/02m_5p7958535cp2tpgps0400000gn/T//ccf9gERz.s 			page 75


 2607              		.section	.rodata._ZN5daisy4seedL3A12E,"a"
 2608              		.align	2
 2611              	_ZN5daisy4seedL3A12E:
 2612 0000 02       		.byte	2
 2613 0001 02       		.byte	2
 2614              		.section	.rodata._ZN5daisy4seedL3A13E,"a"
 2615              		.align	2
 2618              	_ZN5daisy4seedL3A13E:
 2619 0000 02       		.byte	2
 2620 0001 03       		.byte	3
 2621              		.section	.text._ZN5daisy8DaisyPodC2Ev,"axG",%progbits,_ZN5daisy8DaisyPodC5Ev,comdat
 2622              		.align	1
 2623              		.weak	_ZN5daisy8DaisyPodC2Ev
 2624              		.syntax unified
 2625              		.thumb
 2626              		.thumb_func
 2628              	_ZN5daisy8DaisyPodC2Ev:
 2629              	.LFB4844:
 2630              		.file 29 "../libDaisy/src/daisy_pod.h"
   1:../libDaisy/src/daisy_pod.h **** #pragma once
   2:../libDaisy/src/daisy_pod.h **** #ifndef DSY_POD_BSP_H
   3:../libDaisy/src/daisy_pod.h **** #define DSY_POD_BSP_H
   4:../libDaisy/src/daisy_pod.h **** 
   5:../libDaisy/src/daisy_pod.h **** #include "daisy_seed.h"
   6:../libDaisy/src/daisy_pod.h **** 
   7:../libDaisy/src/daisy_pod.h **** namespace daisy
   8:../libDaisy/src/daisy_pod.h **** {
   9:../libDaisy/src/daisy_pod.h **** /**
  10:../libDaisy/src/daisy_pod.h ****     @brief Class that handles initializing all of the hardware specific to the Daisy Patch Board. \
  11:../libDaisy/src/daisy_pod.h ****     Helper funtions are also in place to provide easy access to built-in controls and peripherals.
  12:../libDaisy/src/daisy_pod.h ****     @author Stephen Hensley
  13:../libDaisy/src/daisy_pod.h ****     @date November 2019
  14:../libDaisy/src/daisy_pod.h ****     @ingroup boards
  15:../libDaisy/src/daisy_pod.h **** */
  16:../libDaisy/src/daisy_pod.h **** class DaisyPod
  17:../libDaisy/src/daisy_pod.h **** {
  18:../libDaisy/src/daisy_pod.h ****   public:
  19:../libDaisy/src/daisy_pod.h ****     /** Switches */
  20:../libDaisy/src/daisy_pod.h ****     enum Sw
  21:../libDaisy/src/daisy_pod.h ****     {
  22:../libDaisy/src/daisy_pod.h ****         BUTTON_1,    /** & */
  23:../libDaisy/src/daisy_pod.h ****         BUTTON_2,    /** & */
  24:../libDaisy/src/daisy_pod.h ****         BUTTON_LAST, /** &  */
  25:../libDaisy/src/daisy_pod.h ****     };
  26:../libDaisy/src/daisy_pod.h **** 
  27:../libDaisy/src/daisy_pod.h ****     /** Knobs */
  28:../libDaisy/src/daisy_pod.h ****     enum Knob
  29:../libDaisy/src/daisy_pod.h ****     {
  30:../libDaisy/src/daisy_pod.h ****         KNOB_1,    /** &  */
  31:../libDaisy/src/daisy_pod.h ****         KNOB_2,    /** & */
  32:../libDaisy/src/daisy_pod.h ****         KNOB_LAST, /** & */
  33:../libDaisy/src/daisy_pod.h ****     };
  34:../libDaisy/src/daisy_pod.h **** 
  35:../libDaisy/src/daisy_pod.h ****     DaisyPod() {}
 2631              		.loc 29 35 5
 2632              		.cfi_startproc
 2633              		@ args = 0, pretend = 0, frame = 8
ARM GAS  /var/folders/2p/02m_5p7958535cp2tpgps0400000gn/T//ccf9gERz.s 			page 76


 2634              		@ frame_needed = 1, uses_anonymous_args = 0
 2635 0000 80B5     		push	{r7, lr}
 2636              		.cfi_def_cfa_offset 8
 2637              		.cfi_offset 7, -8
 2638              		.cfi_offset 14, -4
 2639 0002 82B0     		sub	sp, sp, #8
 2640              		.cfi_def_cfa_offset 16
 2641 0004 00AF     		add	r7, sp, #0
 2642              		.cfi_def_cfa_register 7
 2643 0006 7860     		str	r0, [r7, #4]
 2644              	.LBB19:
 2645              		.loc 29 35 16
 2646 0008 7B68     		ldr	r3, [r7, #4]
 2647 000a 1846     		mov	r0, r3
 2648 000c FFF7FEFF 		bl	_ZN5daisy9DaisySeedC1Ev
 2649 0010 7B68     		ldr	r3, [r7, #4]
 2650 0012 4033     		adds	r3, r3, #64
 2651 0014 1846     		mov	r0, r3
 2652 0016 FFF7FEFF 		bl	_ZN5daisy7EncoderC1Ev
 2653 001a 7B68     		ldr	r3, [r7, #4]
 2654 001c 6833     		adds	r3, r3, #104
 2655 001e 1846     		mov	r0, r3
 2656 0020 FFF7FEFF 		bl	_ZN5daisy13AnalogControlC1Ev
 2657 0024 7B68     		ldr	r3, [r7, #4]
 2658 0026 8833     		adds	r3, r3, #136
 2659 0028 1846     		mov	r0, r3
 2660 002a FFF7FEFF 		bl	_ZN5daisy13AnalogControlC1Ev
 2661 002e 7B68     		ldr	r3, [r7, #4]
 2662 0030 B033     		adds	r3, r3, #176
 2663 0032 1846     		mov	r0, r3
 2664 0034 FFF7FEFF 		bl	_ZN5daisy6SwitchC1Ev
 2665 0038 7B68     		ldr	r3, [r7, #4]
 2666 003a C033     		adds	r3, r3, #192
 2667 003c 1846     		mov	r0, r3
 2668 003e FFF7FEFF 		bl	_ZN5daisy6SwitchC1Ev
 2669 0042 7B68     		ldr	r3, [r7, #4]
 2670 0044 D833     		adds	r3, r3, #216
 2671 0046 1846     		mov	r0, r3
 2672 0048 FFF7FEFF 		bl	_ZN5daisy6RgbLedC1Ev
 2673 004c 7B68     		ldr	r3, [r7, #4]
 2674 004e 03F59673 		add	r3, r3, #300
 2675 0052 1846     		mov	r0, r3
 2676 0054 FFF7FEFF 		bl	_ZN5daisy6RgbLedC1Ev
 2677 0058 7B68     		ldr	r3, [r7, #4]
 2678 005a 03F5C073 		add	r3, r3, #384
 2679 005e 1846     		mov	r0, r3
 2680 0060 FFF7FEFF 		bl	_ZN5daisy11MidiHandlerINS_17MidiUartTransportEEC1Ev
 2681              	.LBE19:
 2682              		.loc 29 35 17
 2683 0064 7B68     		ldr	r3, [r7, #4]
 2684 0066 1846     		mov	r0, r3
 2685 0068 0837     		adds	r7, r7, #8
 2686              		.cfi_def_cfa_offset 8
 2687 006a BD46     		mov	sp, r7
 2688              		.cfi_def_cfa_register 13
 2689              		@ sp needed
 2690 006c 80BD     		pop	{r7, pc}
ARM GAS  /var/folders/2p/02m_5p7958535cp2tpgps0400000gn/T//ccf9gERz.s 			page 77


 2691              		.cfi_endproc
 2692              	.LFE4844:
 2694              		.weak	_ZN5daisy8DaisyPodC1Ev
 2695              		.thumb_set _ZN5daisy8DaisyPodC1Ev,_ZN5daisy8DaisyPodC2Ev
 2696              		.section	.text._ZN5daisy8DaisyPodD2Ev,"axG",%progbits,_ZN5daisy8DaisyPodD5Ev,comdat
 2697              		.align	1
 2698              		.weak	_ZN5daisy8DaisyPodD2Ev
 2699              		.syntax unified
 2700              		.thumb
 2701              		.thumb_func
 2703              	_ZN5daisy8DaisyPodD2Ev:
 2704              	.LFB4847:
  36:../libDaisy/src/daisy_pod.h ****     ~DaisyPod() {}
 2705              		.loc 29 36 5
 2706              		.cfi_startproc
 2707              		@ args = 0, pretend = 0, frame = 8
 2708              		@ frame_needed = 1, uses_anonymous_args = 0
 2709 0000 80B5     		push	{r7, lr}
 2710              		.cfi_def_cfa_offset 8
 2711              		.cfi_offset 7, -8
 2712              		.cfi_offset 14, -4
 2713 0002 82B0     		sub	sp, sp, #8
 2714              		.cfi_def_cfa_offset 16
 2715 0004 00AF     		add	r7, sp, #0
 2716              		.cfi_def_cfa_register 7
 2717 0006 7860     		str	r0, [r7, #4]
 2718              	.LBB20:
 2719              		.loc 29 36 17
 2720 0008 7B68     		ldr	r3, [r7, #4]
 2721 000a 03F5C073 		add	r3, r3, #384
 2722 000e 1846     		mov	r0, r3
 2723 0010 FFF7FEFF 		bl	_ZN5daisy11MidiHandlerINS_17MidiUartTransportEED1Ev
 2724 0014 7B68     		ldr	r3, [r7, #4]
 2725 0016 03F59673 		add	r3, r3, #300
 2726 001a 1846     		mov	r0, r3
 2727 001c FFF7FEFF 		bl	_ZN5daisy6RgbLedD1Ev
 2728 0020 7B68     		ldr	r3, [r7, #4]
 2729 0022 D833     		adds	r3, r3, #216
 2730 0024 1846     		mov	r0, r3
 2731 0026 FFF7FEFF 		bl	_ZN5daisy6RgbLedD1Ev
 2732 002a 7B68     		ldr	r3, [r7, #4]
 2733 002c C033     		adds	r3, r3, #192
 2734 002e 1846     		mov	r0, r3
 2735 0030 FFF7FEFF 		bl	_ZN5daisy6SwitchD1Ev
 2736 0034 7B68     		ldr	r3, [r7, #4]
 2737 0036 B033     		adds	r3, r3, #176
 2738 0038 1846     		mov	r0, r3
 2739 003a FFF7FEFF 		bl	_ZN5daisy6SwitchD1Ev
 2740 003e 7B68     		ldr	r3, [r7, #4]
 2741 0040 8833     		adds	r3, r3, #136
 2742 0042 1846     		mov	r0, r3
 2743 0044 FFF7FEFF 		bl	_ZN5daisy13AnalogControlD1Ev
 2744 0048 7B68     		ldr	r3, [r7, #4]
 2745 004a 6833     		adds	r3, r3, #104
 2746 004c 1846     		mov	r0, r3
 2747 004e FFF7FEFF 		bl	_ZN5daisy13AnalogControlD1Ev
 2748 0052 7B68     		ldr	r3, [r7, #4]
ARM GAS  /var/folders/2p/02m_5p7958535cp2tpgps0400000gn/T//ccf9gERz.s 			page 78


 2749 0054 4033     		adds	r3, r3, #64
 2750 0056 1846     		mov	r0, r3
 2751 0058 FFF7FEFF 		bl	_ZN5daisy7EncoderD1Ev
 2752 005c 7B68     		ldr	r3, [r7, #4]
 2753 005e 1846     		mov	r0, r3
 2754 0060 FFF7FEFF 		bl	_ZN5daisy9DaisySeedD1Ev
 2755              	.LBE20:
 2756              		.loc 29 36 18
 2757 0064 7B68     		ldr	r3, [r7, #4]
 2758 0066 1846     		mov	r0, r3
 2759 0068 0837     		adds	r7, r7, #8
 2760              		.cfi_def_cfa_offset 8
 2761 006a BD46     		mov	sp, r7
 2762              		.cfi_def_cfa_register 13
 2763              		@ sp needed
 2764 006c 80BD     		pop	{r7, pc}
 2765              		.cfi_endproc
 2766              	.LFE4847:
 2768              		.weak	_ZN5daisy8DaisyPodD1Ev
 2769              		.thumb_set _ZN5daisy8DaisyPodD1Ev,_ZN5daisy8DaisyPodD2Ev
 2770              		.section	.rodata._ZL11SAMPLE_RATE,"a"
 2771              		.align	2
 2774              	_ZL11SAMPLE_RATE:
 2775 0000 80BB0000 		.word	48000
 2776              		.section	.rodata._ZL17SAMPLE_RATE_FLOAT,"a"
 2777              		.align	2
 2780              	_ZL17SAMPLE_RATE_FLOAT:
 2781 0000 00803B47 		.word	1195081728
 2782              		.section	.rodata._ZL9BIT_DEPTH,"a"
 2783              		.align	2
 2786              	_ZL9BIT_DEPTH:
 2787 0000 10000000 		.word	16
 2788              		.section	.rodata._ZL10DELAY_TIME,"a"
 2789              		.align	2
 2792              	_ZL10DELAY_TIME:
 2793 0000 00770100 		.word	96000
 2794              		.section	.rodata._ZL15MAX_REC_OUT_LEN,"a"
 2795              		.align	2
 2798              	_ZL15MAX_REC_OUT_LEN:
 2799 0000 78000000 		.word	120
 2800              		.section	.rodata._ZL17CHNL_BUF_SIZE_ABS,"a"
 2801              		.align	2
 2804              	_ZL17CHNL_BUF_SIZE_ABS:
 2805 0000 00000001 		.word	16777216
 2806              		.section	.rodata._ZL19CHNL_BUF_SIZE_SAMPS,"a"
 2807              		.align	2
 2810              	_ZL19CHNL_BUF_SIZE_SAMPS:
 2811 0000 00008000 		.word	8388608
 2812              		.section	.rodata._ZL12BUF_CHUNK_SZ,"a"
 2813              		.align	2
 2816              	_ZL12BUF_CHUNK_SZ:
 2817 0000 00400000 		.word	16384
 2818              		.section	.rodata._ZL9MAX_FILES,"a"
 2819              		.align	1
 2822              	_ZL9MAX_FILES:
 2823 0000 2000     		.short	32
 2824              		.section	.rodata._ZL13MAX_FNAME_LEN,"a"
ARM GAS  /var/folders/2p/02m_5p7958535cp2tpgps0400000gn/T//ccf9gERz.s 			page 79


 2825              		.align	1
 2828              	_ZL13MAX_FNAME_LEN:
 2829 0000 8000     		.short	128
 2830              		.section	.rodata._ZL10MIN_GRAINS,"a"
 2831              		.align	2
 2834              	_ZL10MIN_GRAINS:
 2835 0000 01000000 		.word	1
 2836              		.section	.rodata._ZL10MAX_GRAINS,"a"
 2837              		.align	2
 2840              	_ZL10MAX_GRAINS:
 2841 0000 0A000000 		.word	10
 2842              		.section	.rodata._ZL25GRAIN_INCREASE_SMOOTHNESS,"a"
 2843              		.align	2
 2846              	_ZL25GRAIN_INCREASE_SMOOTHNESS:
 2847 0000 A4707D3F 		.word	1065185444
 2848              		.section	.rodata._ZL15NUM_SYNTH_MODES,"a"
 2849              		.align	2
 2852              	_ZL15NUM_SYNTH_MODES:
 2853 0000 08000000 		.word	8
 2854              		.section	.rodata._ZL22PARAM_CHANGE_THRESHOLD,"a"
 2855              		.align	2
 2858              	_ZL22PARAM_CHANGE_THRESHOLD:
 2859 0000 0AD7233C 		.word	1008981770
 2860              		.section	.rodata._ZL17MIN_GRAIN_SIZE_MS,"a"
 2861              		.align	2
 2864              	_ZL17MIN_GRAIN_SIZE_MS:
 2865 0000 0000C842 		.word	1120403456
 2866              		.section	.rodata._ZL17MAX_GRAIN_SIZE_MS,"a"
 2867              		.align	2
 2870              	_ZL17MAX_GRAIN_SIZE_MS:
 2871 0000 00803B45 		.word	1161527296
 2872              		.section	.rodata._ZL22MIN_GRAIN_SIZE_SAMPLES,"a"
 2873              		.align	2
 2876              	_ZL22MIN_GRAIN_SIZE_SAMPLES:
 2877 0000 C0120000 		.word	4800
 2878              		.section	.rodata._ZL22MAX_GRAIN_SIZE_SAMPLES,"a"
 2879              		.align	2
 2882              	_ZL22MAX_GRAIN_SIZE_SAMPLES:
 2883 0000 80320200 		.word	144000
 2884              		.section	.rodata._ZL9MIN_PITCH,"a"
 2885              		.align	2
 2888              	_ZL9MIN_PITCH:
 2889 0000 0000003F 		.word	1056964608
 2890              		.section	.rodata._ZL9MAX_PITCH,"a"
 2891              		.align	2
 2894              	_ZL9MAX_PITCH:
 2895 0000 00004040 		.word	1077936128
 2896              		.section	.rodata._ZL14DEBOUNCE_DELAY,"a"
 2897              		.align	2
 2900              	_ZL14DEBOUNCE_DELAY:
 2901 0000 32000000 		.word	50
 2902              		.section	.rodata._ZL15LONG_PRESS_TIME,"a"
 2903              		.align	2
 2906              	_ZL15LONG_PRESS_TIME:
 2907 0000 E8030000 		.word	1000
 2908              		.section	.rodata._ZL18HIPASS_LOWER_BOUND,"a"
 2909              		.align	2
ARM GAS  /var/folders/2p/02m_5p7958535cp2tpgps0400000gn/T//ccf9gERz.s 			page 80


 2912              	_ZL18HIPASS_LOWER_BOUND:
 2913 0000 17B7D139 		.word	970045207
 2914              		.section	.rodata._ZL18HIPASS_UPPER_BOUND,"a"
 2915              		.align	2
 2918              	_ZL18HIPASS_UPPER_BOUND:
 2919 0000 0AD7233C 		.word	1008981770
 2920              		.section	.rodata._ZL18LOPASS_LOWER_BOUND,"a"
 2921              		.align	2
 2924              	_ZL18LOPASS_LOWER_BOUND:
 2925 0000 0000A041 		.word	1101004800
 2926              		.section	.rodata._ZL18LOPASS_UPPER_BOUND,"a"
 2927              		.align	2
 2930              	_ZL18LOPASS_UPPER_BOUND:
 2931 0000 00A08C46 		.word	1183621120
 2932              		.section	.rodata._ZL10HICUT_FREQ,"a"
 2933              		.align	2
 2936              	_ZL10HICUT_FREQ:
 2937 0000 0000B03E 		.word	1051721728
 2938              		.section	.rodata._ZL6halfpi,"a"
 2939              		.align	2
 2942              	_ZL6halfpi:
 2943 0000 DB0FC93F 		.word	1070141403
 2944              		.section	.text._ZN16AudioFileManagerC2ERN5daisy12SdmmcHandlerERNS0_14FatFSInterfaceERNS0_8DaisyPod
 2945              		.align	1
 2946              		.weak	_ZN16AudioFileManagerC2ERN5daisy12SdmmcHandlerERNS0_14FatFSInterfaceERNS0_8DaisyPodEP3FIL
 2947              		.syntax unified
 2948              		.thumb
 2949              		.thumb_func
 2951              	_ZN16AudioFileManagerC2ERN5daisy12SdmmcHandlerERNS0_14FatFSInterfaceERNS0_8DaisyPodEP3FIL:
 2952              	.LFB4859:
 2953              		.file 30 "AudioFileManager.h"
   1:AudioFileManager.h **** #pragma once
   2:AudioFileManager.h **** #include <stdio.h>
   3:AudioFileManager.h **** #include <stdint.h>
   4:AudioFileManager.h **** #include <vector>
   5:AudioFileManager.h **** #include "daisy_pod.h"
   6:AudioFileManager.h **** #include "constants_utils.h"
   7:AudioFileManager.h **** #include "debug_print.h"
   8:AudioFileManager.h **** 
   9:AudioFileManager.h **** using namespace daisy; 
  10:AudioFileManager.h **** 
  11:AudioFileManager.h **** class AudioFileManager {
  12:AudioFileManager.h ****   public:
  13:AudioFileManager.h ****     AudioFileManager(SdmmcHandler &sd, FatFSInterface &fsi, DaisyPod &pod, FIL *file)
 2954              		.loc 30 13 5
 2955              		.cfi_startproc
 2956              		@ args = 4, pretend = 0, frame = 16
 2957              		@ frame_needed = 1, uses_anonymous_args = 0
 2958              		@ link register save eliminated.
 2959 0000 80B4     		push	{r7}
 2960              		.cfi_def_cfa_offset 4
 2961              		.cfi_offset 7, -4
 2962 0002 85B0     		sub	sp, sp, #20
 2963              		.cfi_def_cfa_offset 24
 2964 0004 00AF     		add	r7, sp, #0
 2965              		.cfi_def_cfa_register 7
 2966 0006 F860     		str	r0, [r7, #12]
ARM GAS  /var/folders/2p/02m_5p7958535cp2tpgps0400000gn/T//ccf9gERz.s 			page 81


 2967 0008 B960     		str	r1, [r7, #8]
 2968 000a 7A60     		str	r2, [r7, #4]
 2969 000c 3B60     		str	r3, [r7]
 2970              	.LBB21:
  14:AudioFileManager.h ****       : sd_(sd), fsi_(fsi), pod_(pod), curr_file_(file), 
  15:AudioFileManager.h ****         left_buf_(nullptr), right_buf_(nullptr) {};
 2971              		.loc 30 15 47
 2972 000e FB68     		ldr	r3, [r7, #12]
 2973 0010 BA68     		ldr	r2, [r7, #8]
 2974 0012 5A60     		str	r2, [r3, #4]
 2975 0014 FB68     		ldr	r3, [r7, #12]
 2976 0016 7A68     		ldr	r2, [r7, #4]
 2977 0018 9A60     		str	r2, [r3, #8]
 2978 001a FB68     		ldr	r3, [r7, #12]
 2979 001c 3A68     		ldr	r2, [r7]
 2980 001e DA60     		str	r2, [r3, #12]
 2981 0020 FB68     		ldr	r3, [r7, #12]
 2982 0022 BA69     		ldr	r2, [r7, #24]
 2983 0024 1A61     		str	r2, [r3, #16]
 2984 0026 FB68     		ldr	r3, [r7, #12]
 2985 0028 0022     		movs	r2, #0
 2986 002a 5A61     		str	r2, [r3, #20]
 2987 002c FB68     		ldr	r3, [r7, #12]
 2988 002e 0022     		movs	r2, #0
 2989 0030 9A61     		str	r2, [r3, #24]
 2990 0032 FB68     		ldr	r3, [r7, #12]
 2991 0034 03F58053 		add	r3, r3, #4096
 2992 0038 0022     		movs	r2, #0
 2993 003a DA83     		strh	r2, [r3, #30]	@ movhi
 2994              	.LBE21:
 2995              		.loc 30 15 50
 2996 003c FB68     		ldr	r3, [r7, #12]
 2997 003e 1846     		mov	r0, r3
 2998 0040 1437     		adds	r7, r7, #20
 2999              		.cfi_def_cfa_offset 4
 3000 0042 BD46     		mov	sp, r7
 3001              		.cfi_def_cfa_register 13
 3002              		@ sp needed
 3003 0044 5DF8047B 		ldr	r7, [sp], #4
 3004              		.cfi_restore 7
 3005              		.cfi_def_cfa_offset 0
 3006 0048 7047     		bx	lr
 3007              		.cfi_endproc
 3008              	.LFE4859:
 3010              		.weak	_ZN16AudioFileManagerC1ERN5daisy12SdmmcHandlerERNS0_14FatFSInterfaceERNS0_8DaisyPodEP3FIL
 3011              		.thumb_set _ZN16AudioFileManagerC1ERN5daisy12SdmmcHandlerERNS0_14FatFSInterfaceERNS0_8DaisyPodEP3F
 3012              		.section	.text._ZN11GrainPhasorC2Ev,"axG",%progbits,_ZN11GrainPhasorC5Ev,comdat
 3013              		.align	1
 3014              		.weak	_ZN11GrainPhasorC2Ev
 3015              		.syntax unified
 3016              		.thumb
 3017              		.thumb_func
 3019              	_ZN11GrainPhasorC2Ev:
 3020              	.LFB4869:
 3021              		.file 31 "GrainPhasor.h"
   1:GrainPhasor.h **** #include "constants_utils.h"
   2:GrainPhasor.h **** class GrainPhasor {
ARM GAS  /var/folders/2p/02m_5p7958535cp2tpgps0400000gn/T//ccf9gERz.s 			page 82


   3:GrainPhasor.h ****   public:
   4:GrainPhasor.h **** 
   5:GrainPhasor.h ****     GrainPhasor(): 
 3022              		.loc 31 5 5
 3023              		.cfi_startproc
 3024              		@ args = 0, pretend = 0, frame = 8
 3025              		@ frame_needed = 1, uses_anonymous_args = 0
 3026              		@ link register save eliminated.
 3027 0000 80B4     		push	{r7}
 3028              		.cfi_def_cfa_offset 4
 3029              		.cfi_offset 7, -4
 3030 0002 83B0     		sub	sp, sp, #12
 3031              		.cfi_def_cfa_offset 16
 3032 0004 00AF     		add	r7, sp, #0
 3033              		.cfi_def_cfa_register 7
 3034 0006 7860     		str	r0, [r7, #4]
 3035              	.LBB22:
   6:GrainPhasor.h ****       phase_(0.0f), increment_(0.0f), grain_finished_(false) {};
 3036              		.loc 31 6 60
 3037 0008 7B68     		ldr	r3, [r7, #4]
 3038 000a 4FF00002 		mov	r2, #0
 3039 000e 1A60     		str	r2, [r3]	@ float
 3040 0010 7B68     		ldr	r3, [r7, #4]
 3041 0012 4FF00002 		mov	r2, #0
 3042 0016 5A60     		str	r2, [r3, #4]	@ float
 3043 0018 7B68     		ldr	r3, [r7, #4]
 3044 001a 0022     		movs	r2, #0
 3045 001c 1A72     		strb	r2, [r3, #8]
 3046              	.LBE22:
 3047              		.loc 31 6 63
 3048 001e 7B68     		ldr	r3, [r7, #4]
 3049 0020 1846     		mov	r0, r3
 3050 0022 0C37     		adds	r7, r7, #12
 3051              		.cfi_def_cfa_offset 4
 3052 0024 BD46     		mov	sp, r7
 3053              		.cfi_def_cfa_register 13
 3054              		@ sp needed
 3055 0026 5DF8047B 		ldr	r7, [sp], #4
 3056              		.cfi_restore 7
 3057              		.cfi_def_cfa_offset 0
 3058 002a 7047     		bx	lr
 3059              		.cfi_endproc
 3060              	.LFE4869:
 3062              		.weak	_ZN11GrainPhasorC1Ev
 3063              		.thumb_set _ZN11GrainPhasorC1Ev,_ZN11GrainPhasorC2Ev
 3064              		.section	.text._ZN11GrainPhasorD2Ev,"axG",%progbits,_ZN11GrainPhasorD5Ev,comdat
 3065              		.align	1
 3066              		.weak	_ZN11GrainPhasorD2Ev
 3067              		.syntax unified
 3068              		.thumb
 3069              		.thumb_func
 3071              	_ZN11GrainPhasorD2Ev:
 3072              	.LFB4872:
   7:GrainPhasor.h **** 
   8:GrainPhasor.h ****     ~GrainPhasor() {};
 3073              		.loc 31 8 5
 3074              		.cfi_startproc
ARM GAS  /var/folders/2p/02m_5p7958535cp2tpgps0400000gn/T//ccf9gERz.s 			page 83


 3075              		@ args = 0, pretend = 0, frame = 8
 3076              		@ frame_needed = 1, uses_anonymous_args = 0
 3077              		@ link register save eliminated.
 3078 0000 80B4     		push	{r7}
 3079              		.cfi_def_cfa_offset 4
 3080              		.cfi_offset 7, -4
 3081 0002 83B0     		sub	sp, sp, #12
 3082              		.cfi_def_cfa_offset 16
 3083 0004 00AF     		add	r7, sp, #0
 3084              		.cfi_def_cfa_register 7
 3085 0006 7860     		str	r0, [r7, #4]
 3086              		.loc 31 8 21
 3087 0008 7B68     		ldr	r3, [r7, #4]
 3088 000a 1846     		mov	r0, r3
 3089 000c 0C37     		adds	r7, r7, #12
 3090              		.cfi_def_cfa_offset 4
 3091 000e BD46     		mov	sp, r7
 3092              		.cfi_def_cfa_register 13
 3093              		@ sp needed
 3094 0010 5DF8047B 		ldr	r7, [sp], #4
 3095              		.cfi_restore 7
 3096              		.cfi_def_cfa_offset 0
 3097 0014 7047     		bx	lr
 3098              		.cfi_endproc
 3099              	.LFE4872:
 3101              		.weak	_ZN11GrainPhasorD1Ev
 3102              		.thumb_set _ZN11GrainPhasorD1Ev,_ZN11GrainPhasorD2Ev
 3103              		.section	.text._ZN5GrainC2Ev,"axG",%progbits,_ZN5GrainC5Ev,comdat
 3104              		.align	1
 3105              		.weak	_ZN5GrainC2Ev
 3106              		.syntax unified
 3107              		.thumb
 3108              		.thumb_func
 3110              	_ZN5GrainC2Ev:
 3111              	.LFB4879:
 3112              		.file 32 "Grain.h"
   1:Grain.h       **** #pragma once
   2:Grain.h       **** 
   3:Grain.h       **** #include "daisy_pod.h"
   4:Grain.h       **** #include "daisysp.h"
   5:Grain.h       **** #include "sample.h"
   6:Grain.h       **** #include "GrainPhasor.h"
   7:Grain.h       **** 
   8:Grain.h       **** using namespace daisy;
   9:Grain.h       **** using namespace daisysp;
  10:Grain.h       **** 
  11:Grain.h       **** class Grain {
  12:Grain.h       ****   public:
  13:Grain.h       ****     Grain():
 3113              		.loc 32 13 5
 3114              		.cfi_startproc
 3115              		@ args = 0, pretend = 0, frame = 8
 3116              		@ frame_needed = 1, uses_anonymous_args = 0
 3117 0000 80B5     		push	{r7, lr}
 3118              		.cfi_def_cfa_offset 8
 3119              		.cfi_offset 7, -8
 3120              		.cfi_offset 14, -4
ARM GAS  /var/folders/2p/02m_5p7958535cp2tpgps0400000gn/T//ccf9gERz.s 			page 84


 3121 0002 82B0     		sub	sp, sp, #8
 3122              		.cfi_def_cfa_offset 16
 3123 0004 00AF     		add	r7, sp, #0
 3124              		.cfi_def_cfa_register 7
 3125 0006 7860     		str	r0, [r7, #4]
 3126              	.LBB23:
  14:Grain.h       ****       is_active_(false){}
 3127              		.loc 32 14 23
 3128 0008 7B68     		ldr	r3, [r7, #4]
 3129 000a 0022     		movs	r2, #0
 3130 000c 1A70     		strb	r2, [r3]
 3131 000e 7B68     		ldr	r3, [r7, #4]
 3132 0010 0433     		adds	r3, r3, #4
 3133 0012 1846     		mov	r0, r3
 3134 0014 FFF7FEFF 		bl	_ZN11GrainPhasorC1Ev
 3135 0018 7B68     		ldr	r3, [r7, #4]
 3136 001a 4FF00002 		mov	r2, #0
 3137 001e 1A61     		str	r2, [r3, #16]	@ float
 3138 0020 7B68     		ldr	r3, [r7, #4]
 3139 0022 4FF00002 		mov	r2, #0
 3140 0026 5A61     		str	r2, [r3, #20]	@ float
 3141 0028 7B68     		ldr	r3, [r7, #4]
 3142 002a 4FF00002 		mov	r2, #0
 3143 002e 9A61     		str	r2, [r3, #24]	@ float
 3144 0030 7B68     		ldr	r3, [r7, #4]
 3145 0032 0022     		movs	r2, #0
 3146 0034 DA61     		str	r2, [r3, #28]
 3147              	.LBE23:
 3148              		.loc 32 14 25
 3149 0036 7B68     		ldr	r3, [r7, #4]
 3150 0038 1846     		mov	r0, r3
 3151 003a 0837     		adds	r7, r7, #8
 3152              		.cfi_def_cfa_offset 8
 3153 003c BD46     		mov	sp, r7
 3154              		.cfi_def_cfa_register 13
 3155              		@ sp needed
 3156 003e 80BD     		pop	{r7, pc}
 3157              		.cfi_endproc
 3158              	.LFE4879:
 3160              		.weak	_ZN5GrainC1Ev
 3161              		.thumb_set _ZN5GrainC1Ev,_ZN5GrainC2Ev
 3162              		.section	.text._ZN5GrainD2Ev,"axG",%progbits,_ZN5GrainD5Ev,comdat
 3163              		.align	1
 3164              		.weak	_ZN5GrainD2Ev
 3165              		.syntax unified
 3166              		.thumb
 3167              		.thumb_func
 3169              	_ZN5GrainD2Ev:
 3170              	.LFB4883:
  11:Grain.h       ****   public:
 3171              		.loc 32 11 7
 3172              		.cfi_startproc
 3173              		@ args = 0, pretend = 0, frame = 8
 3174              		@ frame_needed = 1, uses_anonymous_args = 0
 3175 0000 80B5     		push	{r7, lr}
 3176              		.cfi_def_cfa_offset 8
 3177              		.cfi_offset 7, -8
ARM GAS  /var/folders/2p/02m_5p7958535cp2tpgps0400000gn/T//ccf9gERz.s 			page 85


 3178              		.cfi_offset 14, -4
 3179 0002 82B0     		sub	sp, sp, #8
 3180              		.cfi_def_cfa_offset 16
 3181 0004 00AF     		add	r7, sp, #0
 3182              		.cfi_def_cfa_register 7
 3183 0006 7860     		str	r0, [r7, #4]
 3184              	.LBB24:
  11:Grain.h       ****   public:
 3185              		.loc 32 11 7
 3186 0008 7B68     		ldr	r3, [r7, #4]
 3187 000a 0433     		adds	r3, r3, #4
 3188 000c 1846     		mov	r0, r3
 3189 000e FFF7FEFF 		bl	_ZN11GrainPhasorD1Ev
 3190              	.LBE24:
 3191 0012 7B68     		ldr	r3, [r7, #4]
 3192 0014 1846     		mov	r0, r3
 3193 0016 0837     		adds	r7, r7, #8
 3194              		.cfi_def_cfa_offset 8
 3195 0018 BD46     		mov	sp, r7
 3196              		.cfi_def_cfa_register 13
 3197              		@ sp needed
 3198 001a 80BD     		pop	{r7, pc}
 3199              		.cfi_endproc
 3200              	.LFE4883:
 3202              		.weak	_ZN5GrainD1Ev
 3203              		.thumb_set _ZN5GrainD1Ev,_ZN5GrainD2Ev
 3204              		.section	.text._ZN13GranularSynthC2ERN5daisy8DaisyPodEPN7daisysp21SmoothRandomGeneratorE,"axG",%pr
 3205              		.align	1
 3206              		.weak	_ZN13GranularSynthC2ERN5daisy8DaisyPodEPN7daisysp21SmoothRandomGeneratorE
 3207              		.syntax unified
 3208              		.thumb
 3209              		.thumb_func
 3211              	_ZN13GranularSynthC2ERN5daisy8DaisyPodEPN7daisysp21SmoothRandomGeneratorE:
 3212              	.LFB4885:
 3213              		.file 33 "GranularSynth.h"
   1:GranularSynth.h **** #pragma once
   2:GranularSynth.h **** 
   3:GranularSynth.h **** #include "Grain.h"
   4:GranularSynth.h **** #include "daisy_pod.h"
   5:GranularSynth.h **** #include "debug_print.h"
   6:GranularSynth.h **** #include <vector>
   7:GranularSynth.h **** 
   8:GranularSynth.h **** class GranularSynth{
   9:GranularSynth.h ****   public:
  10:GranularSynth.h ****     // GranularSynth(DaisyPod& pod) 
  11:GranularSynth.h ****     GranularSynth(DaisyPod& pod, SmoothRandomGenerator* rng) 
 3214              		.loc 33 11 5
 3215              		.cfi_startproc
 3216              		@ args = 0, pretend = 0, frame = 16
 3217              		@ frame_needed = 1, uses_anonymous_args = 0
 3218 0000 B0B5     		push	{r4, r5, r7, lr}
 3219              		.cfi_def_cfa_offset 16
 3220              		.cfi_offset 4, -16
 3221              		.cfi_offset 5, -12
 3222              		.cfi_offset 7, -8
 3223              		.cfi_offset 14, -4
 3224 0002 84B0     		sub	sp, sp, #16
ARM GAS  /var/folders/2p/02m_5p7958535cp2tpgps0400000gn/T//ccf9gERz.s 			page 86


 3225              		.cfi_def_cfa_offset 32
 3226 0004 00AF     		add	r7, sp, #0
 3227              		.cfi_def_cfa_register 7
 3228 0006 F860     		str	r0, [r7, #12]
 3229 0008 B960     		str	r1, [r7, #8]
 3230 000a 7A60     		str	r2, [r7, #4]
 3231              	.LBB25:
  12:GranularSynth.h ****       : pod_(pod), left_buf_(nullptr), right_buf_(nullptr), audio_len_(0),
  13:GranularSynth.h ****         grains_(), rng_(rng){}
 3232              		.loc 33 13 28
 3233 000c FB68     		ldr	r3, [r7, #12]
 3234 000e BA68     		ldr	r2, [r7, #8]
 3235 0010 1A60     		str	r2, [r3]
 3236 0012 FB68     		ldr	r3, [r7, #12]
 3237 0014 0022     		movs	r2, #0
 3238 0016 5A60     		str	r2, [r3, #4]
 3239 0018 FB68     		ldr	r3, [r7, #12]
 3240 001a 0022     		movs	r2, #0
 3241 001c 9A60     		str	r2, [r3, #8]
 3242 001e FB68     		ldr	r3, [r7, #12]
 3243 0020 0022     		movs	r2, #0
 3244 0022 DA60     		str	r2, [r3, #12]
 3245 0024 FB68     		ldr	r3, [r7, #12]
 3246 0026 1033     		adds	r3, r3, #16
 3247 0028 0924     		movs	r4, #9
 3248 002a 1D46     		mov	r5, r3
 3249              	.L126:
 3250              		.loc 33 13 28 is_stmt 0 discriminator 4
 3251 002c 002C     		cmp	r4, #0
 3252 002e 05DB     		blt	.L125
 3253              		.loc 33 13 28 discriminator 3
 3254 0030 2846     		mov	r0, r5
 3255 0032 FFF7FEFF 		bl	_ZN5GrainC1Ev
 3256 0036 3435     		adds	r5, r5, #52
 3257 0038 013C     		subs	r4, r4, #1
 3258 003a F7E7     		b	.L126
 3259              	.L125:
 3260              		.loc 33 13 28 discriminator 2
 3261 003c FB68     		ldr	r3, [r7, #12]
 3262 003e 0022     		movs	r2, #0
 3263 0040 C3F82022 		str	r2, [r3, #544]
 3264 0044 FB68     		ldr	r3, [r7, #12]
 3265 0046 7A68     		ldr	r2, [r7, #4]
 3266 0048 C3F82422 		str	r2, [r3, #548]
 3267              	.LBE25:
 3268              		.loc 33 13 30 is_stmt 1 discriminator 2
 3269 004c FB68     		ldr	r3, [r7, #12]
 3270 004e 1846     		mov	r0, r3
 3271 0050 1037     		adds	r7, r7, #16
 3272              		.cfi_def_cfa_offset 16
 3273 0052 BD46     		mov	sp, r7
 3274              		.cfi_def_cfa_register 13
 3275              		@ sp needed
 3276 0054 B0BD     		pop	{r4, r5, r7, pc}
 3277              		.cfi_endproc
 3278              	.LFE4885:
 3280              		.weak	_ZN13GranularSynthC1ERN5daisy8DaisyPodEPN7daisysp21SmoothRandomGeneratorE
ARM GAS  /var/folders/2p/02m_5p7958535cp2tpgps0400000gn/T//ccf9gERz.s 			page 87


 3281              		.thumb_set _ZN13GranularSynthC1ERN5daisy8DaisyPodEPN7daisysp21SmoothRandomGeneratorE,_ZN13Granular
 3282              		.section	.text._ZN13StereoRotatorC2Ev,"axG",%progbits,_ZN13StereoRotatorC5Ev,comdat
 3283              		.align	1
 3284              		.weak	_ZN13StereoRotatorC2Ev
 3285              		.syntax unified
 3286              		.thumb
 3287              		.thumb_func
 3289              	_ZN13StereoRotatorC2Ev:
 3290              	.LFB4893:
 3291              		.file 34 "StereoRotator.h"
   1:StereoRotator.h **** #include <cmath>
   2:StereoRotator.h **** 
   3:StereoRotator.h **** class StereoRotator{
   4:StereoRotator.h ****   public:
   5:StereoRotator.h ****     StereoRotator(){}
 3292              		.loc 34 5 5
 3293              		.cfi_startproc
 3294              		@ args = 0, pretend = 0, frame = 8
 3295              		@ frame_needed = 1, uses_anonymous_args = 0
 3296              		@ link register save eliminated.
 3297 0000 80B4     		push	{r7}
 3298              		.cfi_def_cfa_offset 4
 3299              		.cfi_offset 7, -4
 3300 0002 83B0     		sub	sp, sp, #12
 3301              		.cfi_def_cfa_offset 16
 3302 0004 00AF     		add	r7, sp, #0
 3303              		.cfi_def_cfa_register 7
 3304 0006 7860     		str	r0, [r7, #4]
 3305              	.LBB26:
 3306              		.loc 34 5 20
 3307 0008 7B68     		ldr	r3, [r7, #4]
 3308 000a 4FF00002 		mov	r2, #0
 3309 000e 1A60     		str	r2, [r3]	@ float
 3310 0010 7B68     		ldr	r3, [r7, #4]
 3311 0012 064A     		ldr	r2, .L130
 3312 0014 5A60     		str	r2, [r3, #4]	@ float
 3313 0016 7B68     		ldr	r3, [r7, #4]
 3314 0018 4FF00002 		mov	r2, #0
 3315 001c 9A60     		str	r2, [r3, #8]	@ float
 3316              	.LBE26:
 3317              		.loc 34 5 21
 3318 001e 7B68     		ldr	r3, [r7, #4]
 3319 0020 1846     		mov	r0, r3
 3320 0022 0C37     		adds	r7, r7, #12
 3321              		.cfi_def_cfa_offset 4
 3322 0024 BD46     		mov	sp, r7
 3323              		.cfi_def_cfa_register 13
 3324              		@ sp needed
 3325 0026 5DF8047B 		ldr	r7, [sp], #4
 3326              		.cfi_restore 7
 3327              		.cfi_def_cfa_offset 0
 3328 002a 7047     		bx	lr
 3329              	.L131:
 3330              		.align	2
 3331              	.L130:
 3332 002c CDCCCC3D 		.word	1036831949
 3333              		.cfi_endproc
ARM GAS  /var/folders/2p/02m_5p7958535cp2tpgps0400000gn/T//ccf9gERz.s 			page 88


 3334              	.LFE4893:
 3336              		.weak	_ZN13StereoRotatorC1Ev
 3337              		.thumb_set _ZN13StereoRotatorC1Ev,_ZN13StereoRotatorC2Ev
 3338              		.section	.text._ZN13GranularSynthD2Ev,"axG",%progbits,_ZN13GranularSynthD5Ev,comdat
 3339              		.align	1
 3340              		.weak	_ZN13GranularSynthD2Ev
 3341              		.syntax unified
 3342              		.thumb
 3343              		.thumb_func
 3345              	_ZN13GranularSynthD2Ev:
 3346              	.LFB4901:
   8:GranularSynth.h ****   public:
 3347              		.loc 33 8 7
 3348              		.cfi_startproc
 3349              		@ args = 0, pretend = 0, frame = 8
 3350              		@ frame_needed = 1, uses_anonymous_args = 0
 3351 0000 90B5     		push	{r4, r7, lr}
 3352              		.cfi_def_cfa_offset 12
 3353              		.cfi_offset 4, -12
 3354              		.cfi_offset 7, -8
 3355              		.cfi_offset 14, -4
 3356 0002 83B0     		sub	sp, sp, #12
 3357              		.cfi_def_cfa_offset 24
 3358 0004 00AF     		add	r7, sp, #0
 3359              		.cfi_def_cfa_register 7
 3360 0006 7860     		str	r0, [r7, #4]
 3361              	.LBB27:
   8:GranularSynth.h ****   public:
 3362              		.loc 33 8 7
 3363 0008 7B68     		ldr	r3, [r7, #4]
 3364 000a 1033     		adds	r3, r3, #16
 3365 000c 002B     		cmp	r3, #0
 3366 000e 0CD0     		beq	.L133
   8:GranularSynth.h ****   public:
 3367              		.loc 33 8 7 is_stmt 0 discriminator 1
 3368 0010 7B68     		ldr	r3, [r7, #4]
 3369 0012 1033     		adds	r3, r3, #16
 3370 0014 03F50274 		add	r4, r3, #520
 3371              	.L134:
   8:GranularSynth.h ****   public:
 3372              		.loc 33 8 7 discriminator 6
 3373 0018 7B68     		ldr	r3, [r7, #4]
 3374 001a 1033     		adds	r3, r3, #16
 3375 001c 9C42     		cmp	r4, r3
 3376 001e 04D0     		beq	.L133
   8:GranularSynth.h ****   public:
 3377              		.loc 33 8 7 discriminator 5
 3378 0020 343C     		subs	r4, r4, #52
 3379 0022 2046     		mov	r0, r4
 3380 0024 FFF7FEFF 		bl	_ZN5GrainD1Ev
 3381 0028 F6E7     		b	.L134
 3382              	.L133:
 3383              	.LBE27:
   8:GranularSynth.h ****   public:
 3384              		.loc 33 8 7 discriminator 7
 3385 002a 7B68     		ldr	r3, [r7, #4]
 3386 002c 1846     		mov	r0, r3
ARM GAS  /var/folders/2p/02m_5p7958535cp2tpgps0400000gn/T//ccf9gERz.s 			page 89


 3387 002e 0C37     		adds	r7, r7, #12
 3388              		.cfi_def_cfa_offset 12
 3389 0030 BD46     		mov	sp, r7
 3390              		.cfi_def_cfa_register 13
 3391              		@ sp needed
 3392 0032 90BD     		pop	{r4, r7, pc}
 3393              		.cfi_endproc
 3394              	.LFE4901:
 3396              		.weak	_ZN13GranularSynthD1Ev
 3397              		.thumb_set _ZN13GranularSynthD1Ev,_ZN13GranularSynthD2Ev
 3398              		.section	.text._ZN14GrannyChordApp7ColoursC2Ev,"axG",%progbits,_ZN14GrannyChordApp7ColoursC5Ev,com
 3399              		.align	1
 3400              		.weak	_ZN14GrannyChordApp7ColoursC2Ev
 3401              		.syntax unified
 3402              		.thumb
 3403              		.thumb_func
 3405              	_ZN14GrannyChordApp7ColoursC2Ev:
 3406              	.LFB4904:
 3407              		.file 35 "GrannyChordApp.h"
   1:GrannyChordApp.h **** #pragma once 
   2:GrannyChordApp.h **** #include "daisy_pod.h"
   3:GrannyChordApp.h **** #include "daisysp.h"
   4:GrannyChordApp.h **** #include "GranularSynth.h"
   5:GrannyChordApp.h **** #include "AudioFileManager.h"
   6:GrannyChordApp.h **** #include "constants_utils.h"
   7:GrannyChordApp.h **** #include "debug_print.h"
   8:GrannyChordApp.h **** #include "DaisySP-LGPL-FX/reverb.h"
   9:GrannyChordApp.h **** #include "DaisySP-LGPL-FX/compressor.h"
  10:GrannyChordApp.h **** #include "DaisySP-LGPL-FX/moogladder.h"
  11:GrannyChordApp.h **** #include "StereoRotator.h"
  12:GrannyChordApp.h **** #include "AppState.h"
  13:GrannyChordApp.h **** 
  14:GrannyChordApp.h **** using namespace daisy;
  15:GrannyChordApp.h **** using namespace daisysp;
  16:GrannyChordApp.h **** 
  17:GrannyChordApp.h **** class GrannyChordApp {
  18:GrannyChordApp.h ****   public:
  19:GrannyChordApp.h ****   GrannyChordApp(DaisyPod& pod, GranularSynth& synth, AudioFileManager& filemgr,\
  20:GrannyChordApp.h ****                 ReverbSc &reverb, Chorus& chorus)
  21:GrannyChordApp.h ****         : pod_(pod), synth_(synth), 
  22:GrannyChordApp.h ****           filemgr_(filemgr), reverb_(reverb), chorus_(chorus){
  23:GrannyChordApp.h ****             instance_ = this;
  24:GrannyChordApp.h ****           };
  25:GrannyChordApp.h **** 
  26:GrannyChordApp.h ****     void Init(int16_t *left, int16_t *right);
  27:GrannyChordApp.h ****     void Run();
  28:GrannyChordApp.h **** 
  29:GrannyChordApp.h ****     CpuLoadMeter loadmeter;
  30:GrannyChordApp.h **** 
  31:GrannyChordApp.h ****     static void AudioCallback(AudioHandle::InputBuffer in, AudioHandle::OutputBuffer out, size_t si
  32:GrannyChordApp.h ****     void ProcessAudio(AudioHandle::InputBuffer in, AudioHandle::OutputBuffer out, size_t size);
  33:GrannyChordApp.h ****     static GrannyChordApp* instance_;
  34:GrannyChordApp.h **** 
  35:GrannyChordApp.h ****   private:
  36:GrannyChordApp.h ****     DaisyPod &pod_;
  37:GrannyChordApp.h ****     GranularSynth synth_;
  38:GrannyChordApp.h ****     AudioFileManager &filemgr_;
ARM GAS  /var/folders/2p/02m_5p7958535cp2tpgps0400000gn/T//ccf9gERz.s 			page 90


  39:GrannyChordApp.h ****     FIL *file_;
  40:GrannyChordApp.h **** 
  41:GrannyChordApp.h ****     /* UI and state objects */
  42:GrannyChordApp.h ****     AppState curr_state_;
  43:GrannyChordApp.h ****     AppState next_state_;
  44:GrannyChordApp.h ****     SynthMode curr_synth_mode_;
  45:GrannyChordApp.h ****     SynthMode prev_synth_mode_;
  46:GrannyChordApp.h ****     bool knob1_latched;
  47:GrannyChordApp.h ****     bool knob2_latched;
  48:GrannyChordApp.h **** 
  49:GrannyChordApp.h **** 
  50:GrannyChordApp.h ****     /* audio FX and filters */
  51:GrannyChordApp.h ****     Compressor comp_;
  52:GrannyChordApp.h ****     Limiter limiter_;
  53:GrannyChordApp.h ****     ReverbSc& reverb_;
  54:GrannyChordApp.h ****     Chorus& chorus_;
  55:GrannyChordApp.h ****     MoogLadder lowpass_moog_;
  56:GrannyChordApp.h ****     OnePole hipass_;
  57:GrannyChordApp.h ****     StereoRotator rotator_;
  58:GrannyChordApp.h ****     /* filter to reduce high end noise */
  59:GrannyChordApp.h ****     OnePole hicut_;
  60:GrannyChordApp.h **** 
  61:GrannyChordApp.h ****     /* audio data channel buffers */
  62:GrannyChordApp.h ****     int16_t *left_buf_;
  63:GrannyChordApp.h ****     int16_t *right_buf_;
  64:GrannyChordApp.h **** 
  65:GrannyChordApp.h ****     int file_idx_ = 0;
  66:GrannyChordApp.h ****     size_t wav_playhead_ = 0;
  67:GrannyChordApp.h ****     uint32_t audio_len_ = 0;
  68:GrannyChordApp.h ****     char fname_[MAX_FNAME_LEN];
  69:GrannyChordApp.h **** 
  70:GrannyChordApp.h ****     /* previous values for parameters controlled by knob 1*/
  71:GrannyChordApp.h ****     float prev_param_k1[NUM_SYNTH_MODES] = {0};
  72:GrannyChordApp.h ****     float prev_param_k2[NUM_SYNTH_MODES] = {0};
  73:GrannyChordApp.h **** 
  74:GrannyChordApp.h ****     /* stored previous knob values for passthru mode */
  75:GrannyChordApp.h ****     // float stored_k1[NUM_SYNTH_MODES] = {0.5f};
  76:GrannyChordApp.h ****     // float stored_k2[NUM_SYNTH_MODES] = {0.5f};
  77:GrannyChordApp.h ****     // bool pass_thru_k1 = false;
  78:GrannyChordApp.h ****     // bool pass_thru_k2 = false;
  79:GrannyChordApp.h **** 
  80:GrannyChordApp.h ****     /* objects/variables for recording in and out */
  81:GrannyChordApp.h ****     WavWriter<16384> sd_writer_;
  82:GrannyChordApp.h ****     bool recorded_in_ = false;
  83:GrannyChordApp.h ****     size_t record_in_pos_ = 0;
  84:GrannyChordApp.h ****     bool recording_out_ = false;
  85:GrannyChordApp.h ****     size_t recording_count_ = 0;
  86:GrannyChordApp.h ****     size_t loop_count=0;
  87:GrannyChordApp.h ****     float temp_interleaved_buf_[2];
  88:GrannyChordApp.h **** 
  89:GrannyChordApp.h ****     /* hardware input handler variables */
  90:GrannyChordApp.h ****     size_t last_action_time_ = 0;
  91:GrannyChordApp.h ****     /* these bools track whether the button has just been long pressed
  92:GrannyChordApp.h ****       vs whether it's already known to be pressed down */
  93:GrannyChordApp.h ****     bool btn1_long_press_fired_ = false;
  94:GrannyChordApp.h ****     bool btn2_long_press_fired_ = false;
  95:GrannyChordApp.h ****     bool both_btns_long_press_fired_ = false;
ARM GAS  /var/folders/2p/02m_5p7958535cp2tpgps0400000gn/T//ccf9gERz.s 			page 91


  96:GrannyChordApp.h **** 
  97:GrannyChordApp.h ****     struct Colours{
 3408              		.loc 35 97 12 is_stmt 1
 3409              		.cfi_startproc
 3410              		@ args = 0, pretend = 0, frame = 8
 3411              		@ frame_needed = 1, uses_anonymous_args = 0
 3412 0000 80B5     		push	{r7, lr}
 3413              		.cfi_def_cfa_offset 8
 3414              		.cfi_offset 7, -8
 3415              		.cfi_offset 14, -4
 3416 0002 82B0     		sub	sp, sp, #8
 3417              		.cfi_def_cfa_offset 16
 3418 0004 00AF     		add	r7, sp, #0
 3419              		.cfi_def_cfa_register 7
 3420 0006 7860     		str	r0, [r7, #4]
 3421              	.LBB28:
 3422              		.loc 35 97 12
 3423 0008 7B68     		ldr	r3, [r7, #4]
 3424 000a 1846     		mov	r0, r3
 3425 000c FFF7FEFF 		bl	_ZN5daisy5ColorC1Ev
 3426 0010 7B68     		ldr	r3, [r7, #4]
 3427 0012 0C33     		adds	r3, r3, #12
 3428 0014 1846     		mov	r0, r3
 3429 0016 FFF7FEFF 		bl	_ZN5daisy5ColorC1Ev
 3430 001a 7B68     		ldr	r3, [r7, #4]
 3431 001c 1833     		adds	r3, r3, #24
 3432 001e 1846     		mov	r0, r3
 3433 0020 FFF7FEFF 		bl	_ZN5daisy5ColorC1Ev
 3434 0024 7B68     		ldr	r3, [r7, #4]
 3435 0026 2433     		adds	r3, r3, #36
 3436 0028 1846     		mov	r0, r3
 3437 002a FFF7FEFF 		bl	_ZN5daisy5ColorC1Ev
 3438 002e 7B68     		ldr	r3, [r7, #4]
 3439 0030 3033     		adds	r3, r3, #48
 3440 0032 1846     		mov	r0, r3
 3441 0034 FFF7FEFF 		bl	_ZN5daisy5ColorC1Ev
 3442 0038 7B68     		ldr	r3, [r7, #4]
 3443 003a 3C33     		adds	r3, r3, #60
 3444 003c 1846     		mov	r0, r3
 3445 003e FFF7FEFF 		bl	_ZN5daisy5ColorC1Ev
 3446 0042 7B68     		ldr	r3, [r7, #4]
 3447 0044 4833     		adds	r3, r3, #72
 3448 0046 1846     		mov	r0, r3
 3449 0048 FFF7FEFF 		bl	_ZN5daisy5ColorC1Ev
 3450 004c 7B68     		ldr	r3, [r7, #4]
 3451 004e 5433     		adds	r3, r3, #84
 3452 0050 1846     		mov	r0, r3
 3453 0052 FFF7FEFF 		bl	_ZN5daisy5ColorC1Ev
 3454              	.LBE28:
 3455 0056 7B68     		ldr	r3, [r7, #4]
 3456 0058 1846     		mov	r0, r3
 3457 005a 0837     		adds	r7, r7, #8
 3458              		.cfi_def_cfa_offset 8
 3459 005c BD46     		mov	sp, r7
 3460              		.cfi_def_cfa_register 13
 3461              		@ sp needed
 3462 005e 80BD     		pop	{r7, pc}
ARM GAS  /var/folders/2p/02m_5p7958535cp2tpgps0400000gn/T//ccf9gERz.s 			page 92


 3463              		.cfi_endproc
 3464              	.LFE4904:
 3466              		.weak	_ZN14GrannyChordApp7ColoursC1Ev
 3467              		.thumb_set _ZN14GrannyChordApp7ColoursC1Ev,_ZN14GrannyChordApp7ColoursC2Ev
 3468              		.section	.text._ZN14GrannyChordApp7ColoursD2Ev,"axG",%progbits,_ZN14GrannyChordApp7ColoursD5Ev,com
 3469              		.align	1
 3470              		.weak	_ZN14GrannyChordApp7ColoursD2Ev
 3471              		.syntax unified
 3472              		.thumb
 3473              		.thumb_func
 3475              	_ZN14GrannyChordApp7ColoursD2Ev:
 3476              	.LFB4907:
 3477              		.loc 35 97 12
 3478              		.cfi_startproc
 3479              		@ args = 0, pretend = 0, frame = 8
 3480              		@ frame_needed = 1, uses_anonymous_args = 0
 3481 0000 80B5     		push	{r7, lr}
 3482              		.cfi_def_cfa_offset 8
 3483              		.cfi_offset 7, -8
 3484              		.cfi_offset 14, -4
 3485 0002 82B0     		sub	sp, sp, #8
 3486              		.cfi_def_cfa_offset 16
 3487 0004 00AF     		add	r7, sp, #0
 3488              		.cfi_def_cfa_register 7
 3489 0006 7860     		str	r0, [r7, #4]
 3490              	.LBB29:
 3491              		.loc 35 97 12
 3492 0008 7B68     		ldr	r3, [r7, #4]
 3493 000a 5433     		adds	r3, r3, #84
 3494 000c 1846     		mov	r0, r3
 3495 000e FFF7FEFF 		bl	_ZN5daisy5ColorD1Ev
 3496 0012 7B68     		ldr	r3, [r7, #4]
 3497 0014 4833     		adds	r3, r3, #72
 3498 0016 1846     		mov	r0, r3
 3499 0018 FFF7FEFF 		bl	_ZN5daisy5ColorD1Ev
 3500 001c 7B68     		ldr	r3, [r7, #4]
 3501 001e 3C33     		adds	r3, r3, #60
 3502 0020 1846     		mov	r0, r3
 3503 0022 FFF7FEFF 		bl	_ZN5daisy5ColorD1Ev
 3504 0026 7B68     		ldr	r3, [r7, #4]
 3505 0028 3033     		adds	r3, r3, #48
 3506 002a 1846     		mov	r0, r3
 3507 002c FFF7FEFF 		bl	_ZN5daisy5ColorD1Ev
 3508 0030 7B68     		ldr	r3, [r7, #4]
 3509 0032 2433     		adds	r3, r3, #36
 3510 0034 1846     		mov	r0, r3
 3511 0036 FFF7FEFF 		bl	_ZN5daisy5ColorD1Ev
 3512 003a 7B68     		ldr	r3, [r7, #4]
 3513 003c 1833     		adds	r3, r3, #24
 3514 003e 1846     		mov	r0, r3
 3515 0040 FFF7FEFF 		bl	_ZN5daisy5ColorD1Ev
 3516 0044 7B68     		ldr	r3, [r7, #4]
 3517 0046 0C33     		adds	r3, r3, #12
 3518 0048 1846     		mov	r0, r3
 3519 004a FFF7FEFF 		bl	_ZN5daisy5ColorD1Ev
 3520 004e 7B68     		ldr	r3, [r7, #4]
 3521 0050 1846     		mov	r0, r3
ARM GAS  /var/folders/2p/02m_5p7958535cp2tpgps0400000gn/T//ccf9gERz.s 			page 93


 3522 0052 FFF7FEFF 		bl	_ZN5daisy5ColorD1Ev
 3523              	.LBE29:
 3524 0056 7B68     		ldr	r3, [r7, #4]
 3525 0058 1846     		mov	r0, r3
 3526 005a 0837     		adds	r7, r7, #8
 3527              		.cfi_def_cfa_offset 8
 3528 005c BD46     		mov	sp, r7
 3529              		.cfi_def_cfa_register 13
 3530              		@ sp needed
 3531 005e 80BD     		pop	{r7, pc}
 3532              		.cfi_endproc
 3533              	.LFE4907:
 3535              		.weak	_ZN14GrannyChordApp7ColoursD1Ev
 3536              		.thumb_set _ZN14GrannyChordApp7ColoursD1Ev,_ZN14GrannyChordApp7ColoursD2Ev
 3537              		.section	.text._ZN14GrannyChordAppC2ERN5daisy8DaisyPodER13GranularSynthR16AudioFileManagerRN7daisy
 3538              		.align	1
 3539              		.weak	_ZN14GrannyChordAppC2ERN5daisy8DaisyPodER13GranularSynthR16AudioFileManagerRN7daisysp8Reverb
 3540              		.syntax unified
 3541              		.thumb
 3542              		.thumb_func
 3544              	_ZN14GrannyChordAppC2ERN5daisy8DaisyPodER13GranularSynthR16AudioFileManagerRN7daisysp8ReverbScERNS7
 3545              	.LFB4909:
  19:GrannyChordApp.h ****                 ReverbSc &reverb, Chorus& chorus)
 3546              		.loc 35 19 3
 3547              		.cfi_startproc
 3548              		@ args = 8, pretend = 0, frame = 16
 3549              		@ frame_needed = 1, uses_anonymous_args = 0
 3550 0000 80B5     		push	{r7, lr}
 3551              		.cfi_def_cfa_offset 8
 3552              		.cfi_offset 7, -8
 3553              		.cfi_offset 14, -4
 3554 0002 84B0     		sub	sp, sp, #16
 3555              		.cfi_def_cfa_offset 24
 3556 0004 00AF     		add	r7, sp, #0
 3557              		.cfi_def_cfa_register 7
 3558 0006 F860     		str	r0, [r7, #12]
 3559 0008 B960     		str	r1, [r7, #8]
 3560 000a 7A60     		str	r2, [r7, #4]
 3561 000c 3B60     		str	r3, [r7]
 3562              	.LBB30:
  22:GrannyChordApp.h ****             instance_ = this;
 3563              		.loc 35 22 61
 3564 000e FB68     		ldr	r3, [r7, #12]
 3565 0010 1846     		mov	r0, r3
 3566 0012 FFF7FEFF 		bl	_ZN5daisy12CpuLoadMeterC1Ev
 3567 0016 FB68     		ldr	r3, [r7, #12]
 3568 0018 BA68     		ldr	r2, [r7, #8]
 3569 001a DA61     		str	r2, [r3, #28]
 3570 001c FB68     		ldr	r3, [r7, #12]
 3571 001e 7A68     		ldr	r2, [r7, #4]
 3572 0020 2033     		adds	r3, r3, #32
 3573 0022 1146     		mov	r1, r2
 3574 0024 4FF41372 		mov	r2, #588
 3575 0028 1846     		mov	r0, r3
 3576 002a FFF7FEFF 		bl	memcpy
 3577 002e FB68     		ldr	r3, [r7, #12]
 3578 0030 3A68     		ldr	r2, [r7]
ARM GAS  /var/folders/2p/02m_5p7958535cp2tpgps0400000gn/T//ccf9gERz.s 			page 94


 3579 0032 C3F86C22 		str	r2, [r3, #620]
 3580 0036 FB68     		ldr	r3, [r7, #12]
 3581 0038 03F52273 		add	r3, r3, #648
 3582 003c 1846     		mov	r0, r3
 3583 003e FFF7FEFF 		bl	_ZN7daisysp10CompressorC1Ev
 3584 0042 FB68     		ldr	r3, [r7, #12]
 3585 0044 03F53273 		add	r3, r3, #712
 3586 0048 1846     		mov	r0, r3
 3587 004a FFF7FEFF 		bl	_ZN7daisysp7LimiterC1Ev
 3588 004e FB68     		ldr	r3, [r7, #12]
 3589 0050 BA69     		ldr	r2, [r7, #24]
 3590 0052 C3F8CC22 		str	r2, [r3, #716]
 3591 0056 FB68     		ldr	r3, [r7, #12]
 3592 0058 FA69     		ldr	r2, [r7, #28]
 3593 005a C3F8D022 		str	r2, [r3, #720]
 3594 005e FB68     		ldr	r3, [r7, #12]
 3595 0060 03F53573 		add	r3, r3, #724
 3596 0064 1846     		mov	r0, r3
 3597 0066 FFF7FEFF 		bl	_ZN7daisysp10MoogLadderC1Ev
 3598 006a FB68     		ldr	r3, [r7, #12]
 3599 006c 03F54673 		add	r3, r3, #792
 3600 0070 1846     		mov	r0, r3
 3601 0072 FFF7FEFF 		bl	_ZN7daisysp7OnePoleC1Ev
 3602 0076 FB68     		ldr	r3, [r7, #12]
 3603 0078 03F54A73 		add	r3, r3, #808
 3604 007c 1846     		mov	r0, r3
 3605 007e FFF7FEFF 		bl	_ZN13StereoRotatorC1Ev
 3606 0082 FB68     		ldr	r3, [r7, #12]
 3607 0084 03F54D73 		add	r3, r3, #820
 3608 0088 1846     		mov	r0, r3
 3609 008a FFF7FEFF 		bl	_ZN7daisysp7OnePoleC1Ev
 3610 008e FB68     		ldr	r3, [r7, #12]
 3611 0090 0022     		movs	r2, #0
 3612 0092 C3F84C23 		str	r2, [r3, #844]
 3613 0096 FB68     		ldr	r3, [r7, #12]
 3614 0098 0022     		movs	r2, #0
 3615 009a C3F85023 		str	r2, [r3, #848]
 3616 009e FB68     		ldr	r3, [r7, #12]
 3617 00a0 0022     		movs	r2, #0
 3618 00a2 C3F85423 		str	r2, [r3, #852]
 3619 00a6 FB68     		ldr	r3, [r7, #12]
 3620 00a8 03F57673 		add	r3, r3, #984
 3621 00ac 2022     		movs	r2, #32
 3622 00ae 0021     		movs	r1, #0
 3623 00b0 1846     		mov	r0, r3
 3624 00b2 FFF7FEFF 		bl	memset
 3625 00b6 FB68     		ldr	r3, [r7, #12]
 3626 00b8 03F57E73 		add	r3, r3, #1016
 3627 00bc 2022     		movs	r2, #32
 3628 00be 0021     		movs	r1, #0
 3629 00c0 1846     		mov	r0, r3
 3630 00c2 FFF7FEFF 		bl	memset
 3631 00c6 FB68     		ldr	r3, [r7, #12]
 3632 00c8 03F58363 		add	r3, r3, #1048
 3633 00cc 1846     		mov	r0, r3
 3634 00ce FFF7FEFF 		bl	_ZN5daisy9WavWriterILj16384EEC1Ev
 3635 00d2 FB68     		ldr	r3, [r7, #12]
ARM GAS  /var/folders/2p/02m_5p7958535cp2tpgps0400000gn/T//ccf9gERz.s 			page 95


 3636 00d4 03F50043 		add	r3, r3, #32768
 3637 00d8 0022     		movs	r2, #0
 3638 00da 83F88C26 		strb	r2, [r3, #1676]
 3639 00de FB68     		ldr	r3, [r7, #12]
 3640 00e0 03F50043 		add	r3, r3, #32768
 3641 00e4 1A46     		mov	r2, r3
 3642 00e6 0023     		movs	r3, #0
 3643 00e8 C2F89036 		str	r3, [r2, #1680]
 3644 00ec FB68     		ldr	r3, [r7, #12]
 3645 00ee 03F50043 		add	r3, r3, #32768
 3646 00f2 0022     		movs	r2, #0
 3647 00f4 83F89426 		strb	r2, [r3, #1684]
 3648 00f8 FB68     		ldr	r3, [r7, #12]
 3649 00fa 03F50043 		add	r3, r3, #32768
 3650 00fe 1A46     		mov	r2, r3
 3651 0100 0023     		movs	r3, #0
 3652 0102 C2F89836 		str	r3, [r2, #1688]
 3653 0106 FB68     		ldr	r3, [r7, #12]
 3654 0108 03F50043 		add	r3, r3, #32768
 3655 010c 1A46     		mov	r2, r3
 3656 010e 0023     		movs	r3, #0
 3657 0110 C2F89C36 		str	r3, [r2, #1692]
 3658 0114 FB68     		ldr	r3, [r7, #12]
 3659 0116 03F50043 		add	r3, r3, #32768
 3660 011a 1A46     		mov	r2, r3
 3661 011c 0023     		movs	r3, #0
 3662 011e C2F8A836 		str	r3, [r2, #1704]
 3663 0122 FB68     		ldr	r3, [r7, #12]
 3664 0124 03F50043 		add	r3, r3, #32768
 3665 0128 0022     		movs	r2, #0
 3666 012a 83F8AC26 		strb	r2, [r3, #1708]
 3667 012e FB68     		ldr	r3, [r7, #12]
 3668 0130 03F50043 		add	r3, r3, #32768
 3669 0134 0022     		movs	r2, #0
 3670 0136 83F8AD26 		strb	r2, [r3, #1709]
 3671 013a FB68     		ldr	r3, [r7, #12]
 3672 013c 03F50043 		add	r3, r3, #32768
 3673 0140 0022     		movs	r2, #0
 3674 0142 83F8AE26 		strb	r2, [r3, #1710]
 3675 0146 FA68     		ldr	r2, [r7, #12]
 3676 0148 48F2B063 		movw	r3, #34480
 3677 014c 1344     		add	r3, r3, r2
 3678 014e 1846     		mov	r0, r3
 3679 0150 FFF7FEFF 		bl	_ZN14GrannyChordApp7ColoursC1Ev
 3680 0154 FB68     		ldr	r3, [r7, #12]
 3681 0156 03F50043 		add	r3, r3, #32768
 3682 015a 0022     		movs	r2, #0
 3683 015c 83F81027 		strb	r2, [r3, #1808]
 3684 0160 FB68     		ldr	r3, [r7, #12]
 3685 0162 03F50043 		add	r3, r3, #32768
 3686 0166 1A46     		mov	r2, r3
 3687 0168 0023     		movs	r3, #0
 3688 016a C2F81437 		str	r3, [r2, #1812]
  23:GrannyChordApp.h ****           };
 3689              		.loc 35 23 23
 3690 016e 044A     		ldr	r2, .L142
 3691 0170 FB68     		ldr	r3, [r7, #12]
ARM GAS  /var/folders/2p/02m_5p7958535cp2tpgps0400000gn/T//ccf9gERz.s 			page 96


 3692 0172 1360     		str	r3, [r2]
 3693              	.LBE30:
  24:GrannyChordApp.h **** 
 3694              		.loc 35 24 11
 3695 0174 FB68     		ldr	r3, [r7, #12]
 3696 0176 1846     		mov	r0, r3
 3697 0178 1037     		adds	r7, r7, #16
 3698              		.cfi_def_cfa_offset 8
 3699 017a BD46     		mov	sp, r7
 3700              		.cfi_def_cfa_register 13
 3701              		@ sp needed
 3702 017c 80BD     		pop	{r7, pc}
 3703              	.L143:
 3704 017e 00BF     		.align	2
 3705              	.L142:
 3706 0180 00000000 		.word	_ZN14GrannyChordApp9instance_E
 3707              		.cfi_endproc
 3708              	.LFE4909:
 3710              		.weak	_ZN14GrannyChordAppC1ERN5daisy8DaisyPodER13GranularSynthR16AudioFileManagerRN7daisysp8Reverb
 3711              		.thumb_set _ZN14GrannyChordAppC1ERN5daisy8DaisyPodER13GranularSynthR16AudioFileManagerRN7daisysp8R
 3712              		.global	left_buf
 3713              		.section	.sdram_bss,"aw"
 3714              		.align	4
 3717              	left_buf:
 3718 0000 00000000 		.space	16777216
 3718      00000000 
 3718      00000000 
 3718      00000000 
 3718      00000000 
 3719              		.global	right_buf
 3720              		.align	4
 3723              	right_buf:
 3724 1000000 00000000 		.space	16777216
 3724      00000000 
 3724      00000000 
 3724      00000000 
 3724      00000000 
 3725              		.global	sd
 3726              		.section	.bss.sd,"aw",%nobits
 3727              		.align	2
 3730              	sd:
 3731 0000 00       		.space	1
 3732              		.global	fsi
 3733              		.section	.bss.fsi,"aw",%nobits
 3734              		.align	2
 3737              	fsi:
 3738 0000 00000000 		.space	1152
 3738      00000000 
 3738      00000000 
 3738      00000000 
 3738      00000000 
 3739              		.global	pod
 3740              		.section	.bss.pod,"aw",%nobits
 3741              		.align	2
 3744              	pod:
 3745 0000 00000000 		.space	37600
 3745      00000000 
ARM GAS  /var/folders/2p/02m_5p7958535cp2tpgps0400000gn/T//ccf9gERz.s 			page 97


 3745      00000000 
 3745      00000000 
 3745      00000000 
 3746              		.global	file
 3747              		.section	.bss.file,"aw",%nobits
 3748              		.align	2
 3751              	file:
 3752 0000 00000000 		.space	556
 3752      00000000 
 3752      00000000 
 3752      00000000 
 3752      00000000 
 3753              		.global	reverb
 3754              		.section	.sdram_bss
 3755              		.align	2
 3758              	reverb:
 3759 2000000 00000000 		.space	396104
 3759      00000000 
 3759      00000000 
 3759      00000000 
 3759      00000000 
 3760              		.global	rng
 3761              		.align	2
 3764              	rng:
 3765 2060b48 00000000 		.space	28
 3765      00000000 
 3765      00000000 
 3765      00000000 
 3765      00000000 
 3766              		.global	chorus
 3767              		.align	2
 3770              	chorus:
 3771 2060b64 00000000 		.space	19296
 3771      00000000 
 3771      00000000 
 3771      00000000 
 3771      00000000 
 3772              		.global	filemgr
 3773              		.section	.bss.filemgr,"aw",%nobits
 3774              		.align	2
 3777              	filemgr:
 3778 0000 00000000 		.space	4148
 3778      00000000 
 3778      00000000 
 3778      00000000 
 3778      00000000 
 3779              		.section	.bss._ZL5synth,"aw",%nobits
 3780              		.align	2
 3783              	_ZL5synth:
 3784 0000 00000000 		.space	588
 3784      00000000 
 3784      00000000 
 3784      00000000 
 3784      00000000 
 3785              		.global	app
 3786              		.section	.bss.app,"aw",%nobits
 3787              		.align	2
ARM GAS  /var/folders/2p/02m_5p7958535cp2tpgps0400000gn/T//ccf9gERz.s 			page 98


 3790              	app:
 3791 0000 00000000 		.space	34584
 3791      00000000 
 3791      00000000 
 3791      00000000 
 3791      00000000 
 3792              		.global	rng_state
 3793              		.section	.bss.rng_state,"aw",%nobits
 3794              		.align	2
 3797              	rng_state:
 3798 0000 00000000 		.space	4
 3799              		.section	.rodata
 3800              		.align	2
 3801              	.LC0:
 3802 0000 73746172 		.ascii	"started log\000"
 3802      74656420 
 3802      6C6F6700 
 3803              		.section	.text.main,"ax",%progbits
 3804              		.align	1
 3805              		.global	main
 3806              		.syntax unified
 3807              		.thumb
 3808              		.thumb_func
 3810              	main:
 3811              	.LFB4911:
 3812              		.file 36 "main.cpp"
   1:main.cpp      **** #ifdef DEBUG_MODE // TODO: remove
   2:main.cpp      **** #pragma message("Debug mode is ON")
   3:main.cpp      **** #else
   4:main.cpp      **** #pragma message("Debug mode is OFF")
   5:main.cpp      **** #endif
   6:main.cpp      **** 
   7:main.cpp      **** #include <stdio.h>
   8:main.cpp      **** #include "daisysp.h"
   9:main.cpp      **** #include "daisy_pod.h"
  10:main.cpp      **** #include "AudioFileManager.h"
  11:main.cpp      **** #include "GranularSynth.h"
  12:main.cpp      **** #include "GrannyChordApp.h"
  13:main.cpp      **** #include "constants_utils.h"
  14:main.cpp      **** #include "debug_print.h"
  15:main.cpp      **** 
  16:main.cpp      **** using namespace daisy;
  17:main.cpp      **** using namespace daisysp;
  18:main.cpp      **** using namespace std;
  19:main.cpp      **** 
  20:main.cpp      **** /* SDRAM buffers for storing WAV files or recorded input audio */
  21:main.cpp      **** DSY_SDRAM_BSS alignas(16) int16_t left_buf[CHNL_BUF_SIZE_SAMPS];
  22:main.cpp      **** DSY_SDRAM_BSS alignas(16) int16_t right_buf[CHNL_BUF_SIZE_SAMPS];
  23:main.cpp      **** 
  24:main.cpp      **** /* SDRAM buffer for temporarily storing recorded output audio
  25:main.cpp      ****     before it's written to SD card */
  26:main.cpp      **** // DSY_SDRAM_BSS alignas(16) int16_t record_out_buf[RECORD_OUT_BUF_SIZE_SAMPS];
  27:main.cpp      **** 
  28:main.cpp      **** /* hardware interfaces */
  29:main.cpp      **** SdmmcHandler sd;
  30:main.cpp      **** FatFSInterface fsi;
  31:main.cpp      **** DaisyPod pod;
ARM GAS  /var/folders/2p/02m_5p7958535cp2tpgps0400000gn/T//ccf9gERz.s 			page 99


  32:main.cpp      **** FIL file;
  33:main.cpp      **** 
  34:main.cpp      **** // ReverbSc reverb;
  35:main.cpp      **** DSY_SDRAM_BSS ReverbSc reverb;
  36:main.cpp      **** DSY_SDRAM_BSS SmoothRandomGenerator rng;
  37:main.cpp      **** DSY_SDRAM_BSS Chorus chorus;
  38:main.cpp      **** /* software classes to run app */
  39:main.cpp      **** AudioFileManager filemgr(sd, fsi, pod, &file);
  40:main.cpp      **** static GranularSynth synth(pod, &rng);
  41:main.cpp      **** // static GranularSynth synth(pod, &rng);
  42:main.cpp      **** GrannyChordApp app(pod, synth, filemgr, reverb, chorus);
  43:main.cpp      **** 
  44:main.cpp      **** /* we set rng state here so we can use RNG fns across classes */
  45:main.cpp      **** uint32_t rng_state;
  46:main.cpp      **** 
  47:main.cpp      **** int main (void){
 3813              		.loc 36 47 16
 3814              		.cfi_startproc
 3815              		@ args = 0, pretend = 0, frame = 0
 3816              		@ frame_needed = 1, uses_anonymous_args = 0
 3817 0000 80B5     		push	{r7, lr}
 3818              		.cfi_def_cfa_offset 8
 3819              		.cfi_offset 7, -8
 3820              		.cfi_offset 14, -4
 3821 0002 00AF     		add	r7, sp, #0
 3822              		.cfi_def_cfa_register 7
  48:main.cpp      ****   pod.Init();
 3823              		.loc 36 48 11
 3824 0004 0021     		movs	r1, #0
 3825 0006 0A48     		ldr	r0, .L146
 3826 0008 FFF7FEFF 		bl	_ZN5daisy8DaisyPod4InitEb
  49:main.cpp      ****   pod.seed.StartLog(true);
 3827              		.loc 36 49 20
 3828 000c 0120     		movs	r0, #1
 3829 000e FFF7FEFF 		bl	_ZN5daisy9DaisySeed8StartLogEb
  50:main.cpp      ****   DebugPrint(pod,"started log");
 3830              		.loc 36 50 3
 3831 0012 0848     		ldr	r0, .L146+4
 3832 0014 FFF7FEFF 		bl	_ZN5daisy9DaisySeed9PrintLineIJEEEvPKcDpT_
  51:main.cpp      ****   // rng.Init(SAMPLE_RATE_FLOAT);
  52:main.cpp      ****   // rng.SetFreq(1.f);
  53:main.cpp      ****   // float x;
  54:main.cpp      ****   // float y;
  55:main.cpp      **** 
  56:main.cpp      ****   // while (1){
  57:main.cpp      ****   //   pod.ProcessDigitalControls();
  58:main.cpp      ****   //   if (pod.button1.FallingEdge()){
  59:main.cpp      ****   //     x = rng.Process();
  60:main.cpp      ****   //     pod.seed.PrintLine("smooth rng %.9f", x);
  61:main.cpp      ****   //   }
  62:main.cpp      ****   // }
  63:main.cpp      **** 
  64:main.cpp      **** 
  65:main.cpp      ****   app.Init(left_buf, right_buf);
 3833              		.loc 36 65 11
 3834 0018 074A     		ldr	r2, .L146+8
 3835 001a 0849     		ldr	r1, .L146+12
ARM GAS  /var/folders/2p/02m_5p7958535cp2tpgps0400000gn/T//ccf9gERz.s 			page 100


 3836 001c 0848     		ldr	r0, .L146+16
 3837 001e FFF7FEFF 		bl	_ZN14GrannyChordApp4InitEPsS0_
  66:main.cpp      ****   app.Run();
 3838              		.loc 36 66 10
 3839 0022 0748     		ldr	r0, .L146+16
 3840 0024 FFF7FEFF 		bl	_ZN14GrannyChordApp3RunEv
  67:main.cpp      **** }
 3841              		.loc 36 67 1
 3842 0028 0023     		movs	r3, #0
 3843 002a 1846     		mov	r0, r3
 3844 002c 80BD     		pop	{r7, pc}
 3845              	.L147:
 3846 002e 00BF     		.align	2
 3847              	.L146:
 3848 0030 00000000 		.word	pod
 3849 0034 00000000 		.word	.LC0
 3850 0038 00000000 		.word	right_buf
 3851 003c 00000000 		.word	left_buf
 3852 0040 00000000 		.word	app
 3853              		.cfi_endproc
 3854              	.LFE4911:
 3856              		.section	.text._ZN7daisysp9DelayLineIfLj2400EEC2Ev,"axG",%progbits,_ZN7daisysp9DelayLineIfLj2400EE
 3857              		.align	1
 3858              		.weak	_ZN7daisysp9DelayLineIfLj2400EEC2Ev
 3859              		.syntax unified
 3860              		.thumb
 3861              		.thumb_func
 3863              	_ZN7daisysp9DelayLineIfLj2400EEC2Ev:
 3864              	.LFB5170:
 3865              		.file 37 "../DaisySP/Source/Utility/delayline.h"
   1:../DaisySP/Source/Utility/delayline.h **** /*
   2:../DaisySP/Source/Utility/delayline.h **** Copyright (c) 2020 Electrosmith, Corp
   3:../DaisySP/Source/Utility/delayline.h **** 
   4:../DaisySP/Source/Utility/delayline.h **** Use of this source code is governed by an MIT-style
   5:../DaisySP/Source/Utility/delayline.h **** license that can be found in the LICENSE file or at
   6:../DaisySP/Source/Utility/delayline.h **** https://opensource.org/licenses/MIT.
   7:../DaisySP/Source/Utility/delayline.h **** */
   8:../DaisySP/Source/Utility/delayline.h **** 
   9:../DaisySP/Source/Utility/delayline.h **** #pragma once
  10:../DaisySP/Source/Utility/delayline.h **** #ifndef DSY_DELAY_H
  11:../DaisySP/Source/Utility/delayline.h **** #define DSY_DELAY_H
  12:../DaisySP/Source/Utility/delayline.h **** #include <stdlib.h>
  13:../DaisySP/Source/Utility/delayline.h **** #include <stdint.h>
  14:../DaisySP/Source/Utility/delayline.h **** namespace daisysp
  15:../DaisySP/Source/Utility/delayline.h **** {
  16:../DaisySP/Source/Utility/delayline.h **** /** Simple Delay line.
  17:../DaisySP/Source/Utility/delayline.h **** November 2019
  18:../DaisySP/Source/Utility/delayline.h **** 
  19:../DaisySP/Source/Utility/delayline.h **** Converted to Template December 2019
  20:../DaisySP/Source/Utility/delayline.h **** 
  21:../DaisySP/Source/Utility/delayline.h **** declaration example: (1 second of floats)
  22:../DaisySP/Source/Utility/delayline.h **** 
  23:../DaisySP/Source/Utility/delayline.h **** DelayLine<float, SAMPLE_RATE> del;
  24:../DaisySP/Source/Utility/delayline.h **** 
  25:../DaisySP/Source/Utility/delayline.h **** By: shensley
  26:../DaisySP/Source/Utility/delayline.h **** */
  27:../DaisySP/Source/Utility/delayline.h **** template <typename T, size_t max_size>
ARM GAS  /var/folders/2p/02m_5p7958535cp2tpgps0400000gn/T//ccf9gERz.s 			page 101


  28:../DaisySP/Source/Utility/delayline.h **** class DelayLine
  29:../DaisySP/Source/Utility/delayline.h **** {
  30:../DaisySP/Source/Utility/delayline.h ****   public:
  31:../DaisySP/Source/Utility/delayline.h ****     DelayLine() {}
 3866              		.loc 37 31 5
 3867              		.cfi_startproc
 3868              		@ args = 0, pretend = 0, frame = 8
 3869              		@ frame_needed = 1, uses_anonymous_args = 0
 3870              		@ link register save eliminated.
 3871 0000 80B4     		push	{r7}
 3872              		.cfi_def_cfa_offset 4
 3873              		.cfi_offset 7, -4
 3874 0002 83B0     		sub	sp, sp, #12
 3875              		.cfi_def_cfa_offset 16
 3876 0004 00AF     		add	r7, sp, #0
 3877              		.cfi_def_cfa_register 7
 3878 0006 7860     		str	r0, [r7, #4]
 3879              		.loc 37 31 18
 3880 0008 7B68     		ldr	r3, [r7, #4]
 3881 000a 1846     		mov	r0, r3
 3882 000c 0C37     		adds	r7, r7, #12
 3883              		.cfi_def_cfa_offset 4
 3884 000e BD46     		mov	sp, r7
 3885              		.cfi_def_cfa_register 13
 3886              		@ sp needed
 3887 0010 5DF8047B 		ldr	r7, [sp], #4
 3888              		.cfi_restore 7
 3889              		.cfi_def_cfa_offset 0
 3890 0014 7047     		bx	lr
 3891              		.cfi_endproc
 3892              	.LFE5170:
 3894              		.weak	_ZN7daisysp9DelayLineIfLj2400EEC1Ev
 3895              		.thumb_set _ZN7daisysp9DelayLineIfLj2400EEC1Ev,_ZN7daisysp9DelayLineIfLj2400EEC2Ev
 3896              		.section	.text._ZN7daisysp9DelayLineIfLj2400EED2Ev,"axG",%progbits,_ZN7daisysp9DelayLineIfLj2400EE
 3897              		.align	1
 3898              		.weak	_ZN7daisysp9DelayLineIfLj2400EED2Ev
 3899              		.syntax unified
 3900              		.thumb
 3901              		.thumb_func
 3903              	_ZN7daisysp9DelayLineIfLj2400EED2Ev:
 3904              	.LFB5173:
  32:../DaisySP/Source/Utility/delayline.h ****     ~DelayLine() {}
 3905              		.loc 37 32 5
 3906              		.cfi_startproc
 3907              		@ args = 0, pretend = 0, frame = 8
 3908              		@ frame_needed = 1, uses_anonymous_args = 0
 3909              		@ link register save eliminated.
 3910 0000 80B4     		push	{r7}
 3911              		.cfi_def_cfa_offset 4
 3912              		.cfi_offset 7, -4
 3913 0002 83B0     		sub	sp, sp, #12
 3914              		.cfi_def_cfa_offset 16
 3915 0004 00AF     		add	r7, sp, #0
 3916              		.cfi_def_cfa_register 7
 3917 0006 7860     		str	r0, [r7, #4]
 3918              		.loc 37 32 19
 3919 0008 7B68     		ldr	r3, [r7, #4]
ARM GAS  /var/folders/2p/02m_5p7958535cp2tpgps0400000gn/T//ccf9gERz.s 			page 102


 3920 000a 1846     		mov	r0, r3
 3921 000c 0C37     		adds	r7, r7, #12
 3922              		.cfi_def_cfa_offset 4
 3923 000e BD46     		mov	sp, r7
 3924              		.cfi_def_cfa_register 13
 3925              		@ sp needed
 3926 0010 5DF8047B 		ldr	r7, [sp], #4
 3927              		.cfi_restore 7
 3928              		.cfi_def_cfa_offset 0
 3929 0014 7047     		bx	lr
 3930              		.cfi_endproc
 3931              	.LFE5173:
 3933              		.weak	_ZN7daisysp9DelayLineIfLj2400EED1Ev
 3934              		.thumb_set _ZN7daisysp9DelayLineIfLj2400EED1Ev,_ZN7daisysp9DelayLineIfLj2400EED2Ev
 3935              		.section	.text._ZN5daisy11MidiHandlerINS_17MidiUartTransportEE6ConfigC2Ev,"axG",%progbits,_ZN5dais
 3936              		.align	1
 3937              		.weak	_ZN5daisy11MidiHandlerINS_17MidiUartTransportEE6ConfigC2Ev
 3938              		.syntax unified
 3939              		.thumb
 3940              		.thumb_func
 3942              	_ZN5daisy11MidiHandlerINS_17MidiUartTransportEE6ConfigC2Ev:
 3943              	.LFB5222:
  33:../libDaisy/src/hid/midi.h **** 
  34:../libDaisy/src/hid/midi.h ****     /** @brief Configuration structure for UART MIDI */
  35:../libDaisy/src/hid/midi.h ****     struct Config
  36:../libDaisy/src/hid/midi.h ****     {
  37:../libDaisy/src/hid/midi.h ****         UartHandler::Config::Peripheral periph;
  38:../libDaisy/src/hid/midi.h ****         dsy_gpio_pin                    rx;
  39:../libDaisy/src/hid/midi.h ****         dsy_gpio_pin                    tx;
  40:../libDaisy/src/hid/midi.h **** 
  41:../libDaisy/src/hid/midi.h ****         /** Pointer to buffer for DMA UART rx byte transfer in background.
  42:../libDaisy/src/hid/midi.h ****          *
  43:../libDaisy/src/hid/midi.h ****          *  @details By default this uses a shared buffer in DMA_BUFFER_MEM_SECTION,
  44:../libDaisy/src/hid/midi.h ****          *           which can only be utilized for a single UART peripheral. To
  45:../libDaisy/src/hid/midi.h ****          *           use MIDI with multiple UART peripherals, you must provide your own
  46:../libDaisy/src/hid/midi.h ****          *           buffer, allocated to a DMA-capable memory section.
  47:../libDaisy/src/hid/midi.h ****          */
  48:../libDaisy/src/hid/midi.h ****         uint8_t* rx_buffer;
  49:../libDaisy/src/hid/midi.h **** 
  50:../libDaisy/src/hid/midi.h ****         /** Size in bytes of rx_buffer.
  51:../libDaisy/src/hid/midi.h ****          *
  52:../libDaisy/src/hid/midi.h ****          *  @details This size determines the maximum Rx bytes readable by the UART in the backgrou
  53:../libDaisy/src/hid/midi.h ****          *           By default it's set to the size of the default shared rx_buffer (256 bytes).
  54:../libDaisy/src/hid/midi.h ****          *           While much smaller sizes can be used, data can get missed if the buffer is too
  55:../libDaisy/src/hid/midi.h ****          */
  56:../libDaisy/src/hid/midi.h ****         size_t rx_buffer_size;
  57:../libDaisy/src/hid/midi.h **** 
  58:../libDaisy/src/hid/midi.h ****         Config();
  59:../libDaisy/src/hid/midi.h ****     };
  60:../libDaisy/src/hid/midi.h **** 
  61:../libDaisy/src/hid/midi.h ****     /** @brief Initialization of UART using config struct */
  62:../libDaisy/src/hid/midi.h ****     inline void Init(Config config)
  63:../libDaisy/src/hid/midi.h ****     {
  64:../libDaisy/src/hid/midi.h ****         UartHandler::Config uart_config;
  65:../libDaisy/src/hid/midi.h **** 
  66:../libDaisy/src/hid/midi.h ****         //defaults
  67:../libDaisy/src/hid/midi.h ****         uart_config.baudrate   = 31250;
ARM GAS  /var/folders/2p/02m_5p7958535cp2tpgps0400000gn/T//ccf9gERz.s 			page 103


  68:../libDaisy/src/hid/midi.h ****         uart_config.stopbits   = UartHandler::Config::StopBits::BITS_1;
  69:../libDaisy/src/hid/midi.h ****         uart_config.parity     = UartHandler::Config::Parity::NONE;
  70:../libDaisy/src/hid/midi.h ****         uart_config.mode       = UartHandler::Config::Mode::TX_RX;
  71:../libDaisy/src/hid/midi.h ****         uart_config.wordlength = UartHandler::Config::WordLength::BITS_8;
  72:../libDaisy/src/hid/midi.h **** 
  73:../libDaisy/src/hid/midi.h ****         //user settings
  74:../libDaisy/src/hid/midi.h ****         uart_config.periph        = config.periph;
  75:../libDaisy/src/hid/midi.h ****         uart_config.pin_config.rx = config.rx;
  76:../libDaisy/src/hid/midi.h ****         uart_config.pin_config.tx = config.tx;
  77:../libDaisy/src/hid/midi.h **** 
  78:../libDaisy/src/hid/midi.h ****         rx_buffer      = config.rx_buffer;
  79:../libDaisy/src/hid/midi.h ****         rx_buffer_size = config.rx_buffer_size;
  80:../libDaisy/src/hid/midi.h **** 
  81:../libDaisy/src/hid/midi.h ****         /** zero the buffer to ensure emptiness regardless of source memory */
  82:../libDaisy/src/hid/midi.h ****         std::fill(rx_buffer, rx_buffer + rx_buffer_size, 0);
  83:../libDaisy/src/hid/midi.h **** 
  84:../libDaisy/src/hid/midi.h ****         uart_.Init(uart_config);
  85:../libDaisy/src/hid/midi.h ****     }
  86:../libDaisy/src/hid/midi.h **** 
  87:../libDaisy/src/hid/midi.h ****     /** @brief Start the UART peripheral in listening mode.
  88:../libDaisy/src/hid/midi.h ****      *  This will fill an internal data structure in the background */
  89:../libDaisy/src/hid/midi.h ****     inline void StartRx(MidiRxParseCallback parse_callback, void* context)
  90:../libDaisy/src/hid/midi.h ****     {
  91:../libDaisy/src/hid/midi.h ****         parse_context_  = context;
  92:../libDaisy/src/hid/midi.h ****         parse_callback_ = parse_callback;
  93:../libDaisy/src/hid/midi.h ****         dsy_dma_clear_cache_for_buffer((uint8_t*)this,
  94:../libDaisy/src/hid/midi.h ****                                        sizeof(MidiUartTransport));
  95:../libDaisy/src/hid/midi.h ****         uart_.DmaListenStart(
  96:../libDaisy/src/hid/midi.h ****             rx_buffer, rx_buffer_size, MidiUartTransport::rxCallback, this);
  97:../libDaisy/src/hid/midi.h ****     }
  98:../libDaisy/src/hid/midi.h **** 
  99:../libDaisy/src/hid/midi.h ****     /** @brief returns whether the UART peripheral is actively listening in the background or not *
 100:../libDaisy/src/hid/midi.h ****     inline bool RxActive() { return uart_.IsListening(); }
 101:../libDaisy/src/hid/midi.h **** 
 102:../libDaisy/src/hid/midi.h ****     /** @brief This is a no-op for UART transport - Rx is via DMA callback with circular buffer */
 103:../libDaisy/src/hid/midi.h ****     inline void FlushRx() {}
 104:../libDaisy/src/hid/midi.h **** 
 105:../libDaisy/src/hid/midi.h ****     /** @brief sends the buffer of bytes out of the UART peripheral */
 106:../libDaisy/src/hid/midi.h ****     inline void Tx(uint8_t* buff, size_t size) { uart_.PollTx(buff, size); }
 107:../libDaisy/src/hid/midi.h **** 
 108:../libDaisy/src/hid/midi.h ****   private:
 109:../libDaisy/src/hid/midi.h ****     UartHandler         uart_;
 110:../libDaisy/src/hid/midi.h ****     uint8_t*            rx_buffer;
 111:../libDaisy/src/hid/midi.h ****     size_t              rx_buffer_size;
 112:../libDaisy/src/hid/midi.h ****     void*               parse_context_;
 113:../libDaisy/src/hid/midi.h ****     MidiRxParseCallback parse_callback_;
 114:../libDaisy/src/hid/midi.h **** 
 115:../libDaisy/src/hid/midi.h ****     /** Static callback for Uart MIDI that occurs when
 116:../libDaisy/src/hid/midi.h ****          *  new data is available from the peripheral.
 117:../libDaisy/src/hid/midi.h ****          *  The new data is transferred from the peripheral to the
 118:../libDaisy/src/hid/midi.h ****          *  MIDI instance's byte FIFO that feeds the MIDI parser.
 119:../libDaisy/src/hid/midi.h ****          *
 120:../libDaisy/src/hid/midi.h ****          *  TODO: Handle UartHandler errors better/at all.
 121:../libDaisy/src/hid/midi.h ****          *  (If there is a UART error, there's not really any recovery
 122:../libDaisy/src/hid/midi.h ****          *  option at the moment)
 123:../libDaisy/src/hid/midi.h ****          */
 124:../libDaisy/src/hid/midi.h ****     static void rxCallback(uint8_t*            data,
ARM GAS  /var/folders/2p/02m_5p7958535cp2tpgps0400000gn/T//ccf9gERz.s 			page 104


 125:../libDaisy/src/hid/midi.h ****                            size_t              size,
 126:../libDaisy/src/hid/midi.h ****                            void*               context,
 127:../libDaisy/src/hid/midi.h ****                            UartHandler::Result res)
 128:../libDaisy/src/hid/midi.h ****     {
 129:../libDaisy/src/hid/midi.h ****         /** Read context as transport type */
 130:../libDaisy/src/hid/midi.h ****         MidiUartTransport* transport
 131:../libDaisy/src/hid/midi.h ****             = reinterpret_cast<MidiUartTransport*>(context);
 132:../libDaisy/src/hid/midi.h ****         if(res == UartHandler::Result::OK)
 133:../libDaisy/src/hid/midi.h ****         {
 134:../libDaisy/src/hid/midi.h ****             if(transport->parse_callback_)
 135:../libDaisy/src/hid/midi.h ****             {
 136:../libDaisy/src/hid/midi.h ****                 transport->parse_callback_(
 137:../libDaisy/src/hid/midi.h ****                     data, size, transport->parse_context_);
 138:../libDaisy/src/hid/midi.h ****             }
 139:../libDaisy/src/hid/midi.h ****         }
 140:../libDaisy/src/hid/midi.h ****     }
 141:../libDaisy/src/hid/midi.h **** };
 142:../libDaisy/src/hid/midi.h **** 
 143:../libDaisy/src/hid/midi.h **** /**
 144:../libDaisy/src/hid/midi.h ****     @brief Simple MIDI Handler \n
 145:../libDaisy/src/hid/midi.h ****     Parses bytes from an input into valid MidiEvents. \n
 146:../libDaisy/src/hid/midi.h ****     The MidiEvents fill a FIFO queue that the user can pop messages from.
 147:../libDaisy/src/hid/midi.h ****     @author shensley
 148:../libDaisy/src/hid/midi.h ****     @date March 2020
 149:../libDaisy/src/hid/midi.h ****     @ingroup midi
 150:../libDaisy/src/hid/midi.h **** */
 151:../libDaisy/src/hid/midi.h **** template <typename Transport>
 152:../libDaisy/src/hid/midi.h **** class MidiHandler
 153:../libDaisy/src/hid/midi.h **** {
 154:../libDaisy/src/hid/midi.h ****   public:
 155:../libDaisy/src/hid/midi.h ****     MidiHandler() {}
 156:../libDaisy/src/hid/midi.h ****     ~MidiHandler() {}
 157:../libDaisy/src/hid/midi.h **** 
 158:../libDaisy/src/hid/midi.h ****     struct Config
 3944              		.loc 18 158 12
 3945              		.cfi_startproc
 3946              		@ args = 0, pretend = 0, frame = 8
 3947              		@ frame_needed = 1, uses_anonymous_args = 0
 3948 0000 80B5     		push	{r7, lr}
 3949              		.cfi_def_cfa_offset 8
 3950              		.cfi_offset 7, -8
 3951              		.cfi_offset 14, -4
 3952 0002 82B0     		sub	sp, sp, #8
 3953              		.cfi_def_cfa_offset 16
 3954 0004 00AF     		add	r7, sp, #0
 3955              		.cfi_def_cfa_register 7
 3956 0006 7860     		str	r0, [r7, #4]
 3957              	.LBB31:
 3958              		.loc 18 158 12
 3959 0008 7B68     		ldr	r3, [r7, #4]
 3960 000a 1846     		mov	r0, r3
 3961 000c FFF7FEFF 		bl	_ZN5daisy17MidiUartTransport6ConfigC1Ev
 3962              	.LBE31:
 3963 0010 7B68     		ldr	r3, [r7, #4]
 3964 0012 1846     		mov	r0, r3
 3965 0014 0837     		adds	r7, r7, #8
 3966              		.cfi_def_cfa_offset 8
ARM GAS  /var/folders/2p/02m_5p7958535cp2tpgps0400000gn/T//ccf9gERz.s 			page 105


 3967 0016 BD46     		mov	sp, r7
 3968              		.cfi_def_cfa_register 13
 3969              		@ sp needed
 3970 0018 80BD     		pop	{r7, pc}
 3971              		.cfi_endproc
 3972              	.LFE5222:
 3974              		.weak	_ZN5daisy11MidiHandlerINS_17MidiUartTransportEE6ConfigC1Ev
 3975              		.thumb_set _ZN5daisy11MidiHandlerINS_17MidiUartTransportEE6ConfigC1Ev,_ZN5daisy11MidiHandlerINS_17
 3976              		.section	.text._ZN5daisy4FIFOINS_9MidiEventELj256EED2Ev,"axG",%progbits,_ZN5daisy4FIFOINS_9MidiEve
 3977              		.align	1
 3978              		.weak	_ZN5daisy4FIFOINS_9MidiEventELj256EED2Ev
 3979              		.syntax unified
 3980              		.thumb
 3981              		.thumb_func
 3983              	_ZN5daisy4FIFOINS_9MidiEventELj256EED2Ev:
 3984              	.LFB5225:
 3985              		.file 38 "../libDaisy/src/util/FIFO.h"
   1:../libDaisy/src/util/FIFO.h **** #pragma once
   2:../libDaisy/src/util/FIFO.h **** 
   3:../libDaisy/src/util/FIFO.h **** #include <stdint.h>
   4:../libDaisy/src/util/FIFO.h **** #include <stddef.h>
   5:../libDaisy/src/util/FIFO.h **** #include <initializer_list>
   6:../libDaisy/src/util/FIFO.h **** 
   7:../libDaisy/src/util/FIFO.h **** namespace daisy
   8:../libDaisy/src/util/FIFO.h **** {
   9:../libDaisy/src/util/FIFO.h **** /** Capacity-independent base class for FIFO. Use FIFO instead. */
  10:../libDaisy/src/util/FIFO.h **** template <typename T>
  11:../libDaisy/src/util/FIFO.h **** class FIFOBase
  12:../libDaisy/src/util/FIFO.h **** {
  13:../libDaisy/src/util/FIFO.h ****   protected:
  14:../libDaisy/src/util/FIFO.h ****     FIFOBase(T* buffer, size_t bufferSize)
  15:../libDaisy/src/util/FIFO.h ****     : buffer_(buffer), bufferSize_(bufferSize), bufferIn_(0), bufferOut_(0)
  16:../libDaisy/src/util/FIFO.h ****     {
  17:../libDaisy/src/util/FIFO.h ****     }
  18:../libDaisy/src/util/FIFO.h **** 
  19:../libDaisy/src/util/FIFO.h ****     FIFOBase(T* buffer, size_t bufferSize, std::initializer_list<T> valuesToAdd)
  20:../libDaisy/src/util/FIFO.h ****     : buffer_(buffer), bufferSize_(bufferSize), bufferIn_(0), bufferOut_(0)
  21:../libDaisy/src/util/FIFO.h ****     {
  22:../libDaisy/src/util/FIFO.h ****         PushBack(valuesToAdd);
  23:../libDaisy/src/util/FIFO.h ****     }
  24:../libDaisy/src/util/FIFO.h **** 
  25:../libDaisy/src/util/FIFO.h ****   public:
  26:../libDaisy/src/util/FIFO.h ****     /** Copies all elements from another FIFO */
  27:../libDaisy/src/util/FIFO.h ****     FIFOBase<T>& operator=(const FIFOBase<T>& other)
  28:../libDaisy/src/util/FIFO.h ****     {
  29:../libDaisy/src/util/FIFO.h ****         bufferIn_ = bufferOut_ = 0;
  30:../libDaisy/src/util/FIFO.h ****         if(!other.IsEmpty())
  31:../libDaisy/src/util/FIFO.h ****         {
  32:../libDaisy/src/util/FIFO.h ****             int readPtr = other.bufferOut_;
  33:../libDaisy/src/util/FIFO.h ****             while((readPtr != other.bufferIn_) && (bufferIn_ < bufferSize_))
  34:../libDaisy/src/util/FIFO.h ****             {
  35:../libDaisy/src/util/FIFO.h ****                 buffer_[bufferIn_++] = other.buffer_[readPtr++];
  36:../libDaisy/src/util/FIFO.h ****                 if(readPtr >= other.bufferSize_)
  37:../libDaisy/src/util/FIFO.h ****                     readPtr -= other.bufferSize_;
  38:../libDaisy/src/util/FIFO.h ****             }
  39:../libDaisy/src/util/FIFO.h ****         }
  40:../libDaisy/src/util/FIFO.h ****         return *this;
ARM GAS  /var/folders/2p/02m_5p7958535cp2tpgps0400000gn/T//ccf9gERz.s 			page 106


  41:../libDaisy/src/util/FIFO.h ****     }
  42:../libDaisy/src/util/FIFO.h ****     ~FIFOBase() {}
  43:../libDaisy/src/util/FIFO.h **** 
  44:../libDaisy/src/util/FIFO.h ****     /** Removes all elements from the FIFO */
  45:../libDaisy/src/util/FIFO.h ****     void Clear() { bufferIn_ = bufferOut_ = 0; }
  46:../libDaisy/src/util/FIFO.h **** 
  47:../libDaisy/src/util/FIFO.h ****     /** Adds an element to the back of the buffer, returning true on
  48:../libDaisy/src/util/FIFO.h ****         success */
  49:../libDaisy/src/util/FIFO.h ****     bool PushBack(const T& elementToAdd)
  50:../libDaisy/src/util/FIFO.h ****     {
  51:../libDaisy/src/util/FIFO.h ****         if(!IsFull())
  52:../libDaisy/src/util/FIFO.h ****         {
  53:../libDaisy/src/util/FIFO.h ****             buffer_[bufferIn_++] = elementToAdd;
  54:../libDaisy/src/util/FIFO.h ****             if(bufferIn_ >= bufferSize_)
  55:../libDaisy/src/util/FIFO.h ****                 bufferIn_ -= bufferSize_;
  56:../libDaisy/src/util/FIFO.h ****             return true;
  57:../libDaisy/src/util/FIFO.h ****         }
  58:../libDaisy/src/util/FIFO.h ****         return false;
  59:../libDaisy/src/util/FIFO.h ****     }
  60:../libDaisy/src/util/FIFO.h **** 
  61:../libDaisy/src/util/FIFO.h ****     /** Adds multiple elements and returns the number of elements that were added */
  62:../libDaisy/src/util/FIFO.h ****     int PushBack(std::initializer_list<T> valuesToAdd)
  63:../libDaisy/src/util/FIFO.h ****     {
  64:../libDaisy/src/util/FIFO.h ****         int numAdded = 0;
  65:../libDaisy/src/util/FIFO.h ****         for(const auto& v : valuesToAdd)
  66:../libDaisy/src/util/FIFO.h ****         {
  67:../libDaisy/src/util/FIFO.h ****             if(IsFull())
  68:../libDaisy/src/util/FIFO.h ****                 return numAdded;
  69:../libDaisy/src/util/FIFO.h **** 
  70:../libDaisy/src/util/FIFO.h ****             PushBack(v);
  71:../libDaisy/src/util/FIFO.h ****             numAdded++;
  72:../libDaisy/src/util/FIFO.h ****         }
  73:../libDaisy/src/util/FIFO.h ****         return numAdded;
  74:../libDaisy/src/util/FIFO.h ****     }
  75:../libDaisy/src/util/FIFO.h **** 
  76:../libDaisy/src/util/FIFO.h ****     /** returns a reference to the last element */
  77:../libDaisy/src/util/FIFO.h ****     T& Back()
  78:../libDaisy/src/util/FIFO.h ****     {
  79:../libDaisy/src/util/FIFO.h ****         if(IsEmpty())
  80:../libDaisy/src/util/FIFO.h ****             // invalid, but better not pass a temporary T() object as a reference...
  81:../libDaisy/src/util/FIFO.h ****             return buffer_[0];
  82:../libDaisy/src/util/FIFO.h ****         int idx = bufferIn_ - 1;
  83:../libDaisy/src/util/FIFO.h ****         if(idx < 0)
  84:../libDaisy/src/util/FIFO.h ****             idx += bufferSize_;
  85:../libDaisy/src/util/FIFO.h ****         return buffer_[idx];
  86:../libDaisy/src/util/FIFO.h ****     }
  87:../libDaisy/src/util/FIFO.h **** 
  88:../libDaisy/src/util/FIFO.h ****     /** returns a reference to the last element */
  89:../libDaisy/src/util/FIFO.h ****     const T& Back() const
  90:../libDaisy/src/util/FIFO.h ****     {
  91:../libDaisy/src/util/FIFO.h ****         if(IsEmpty())
  92:../libDaisy/src/util/FIFO.h ****             // invalid, but better not pass a temporary T() object as a reference...
  93:../libDaisy/src/util/FIFO.h ****             return buffer_[0];
  94:../libDaisy/src/util/FIFO.h ****         int idx = bufferIn_ - 1;
  95:../libDaisy/src/util/FIFO.h ****         if(idx < 0)
  96:../libDaisy/src/util/FIFO.h ****             idx += bufferSize_;
  97:../libDaisy/src/util/FIFO.h ****         return buffer_[idx];
ARM GAS  /var/folders/2p/02m_5p7958535cp2tpgps0400000gn/T//ccf9gERz.s 			page 107


  98:../libDaisy/src/util/FIFO.h ****     }
  99:../libDaisy/src/util/FIFO.h **** 
 100:../libDaisy/src/util/FIFO.h ****     /** removes and returns an element from the front of the buffer */
 101:../libDaisy/src/util/FIFO.h ****     T PopFront()
 102:../libDaisy/src/util/FIFO.h ****     {
 103:../libDaisy/src/util/FIFO.h ****         if(IsEmpty())
 104:../libDaisy/src/util/FIFO.h ****             return T();
 105:../libDaisy/src/util/FIFO.h ****         else
 106:../libDaisy/src/util/FIFO.h ****         {
 107:../libDaisy/src/util/FIFO.h ****             const auto result = buffer_[bufferOut_];
 108:../libDaisy/src/util/FIFO.h ****             bufferOut_++;
 109:../libDaisy/src/util/FIFO.h ****             if(bufferOut_ >= bufferSize_)
 110:../libDaisy/src/util/FIFO.h ****                 bufferOut_ -= bufferSize_;
 111:../libDaisy/src/util/FIFO.h ****             return result;
 112:../libDaisy/src/util/FIFO.h ****         }
 113:../libDaisy/src/util/FIFO.h ****     }
 114:../libDaisy/src/util/FIFO.h **** 
 115:../libDaisy/src/util/FIFO.h ****     /** returns a copy of the first element */
 116:../libDaisy/src/util/FIFO.h ****     T& Front()
 117:../libDaisy/src/util/FIFO.h ****     {
 118:../libDaisy/src/util/FIFO.h ****         if(IsEmpty())
 119:../libDaisy/src/util/FIFO.h ****             // invalid, but better not pass a temporary T() object as a reference...
 120:../libDaisy/src/util/FIFO.h ****             return buffer_[0];
 121:../libDaisy/src/util/FIFO.h ****         return buffer_[bufferOut_];
 122:../libDaisy/src/util/FIFO.h ****     }
 123:../libDaisy/src/util/FIFO.h **** 
 124:../libDaisy/src/util/FIFO.h ****     /** returns a reference to the first element */
 125:../libDaisy/src/util/FIFO.h ****     const T& Front() const
 126:../libDaisy/src/util/FIFO.h ****     {
 127:../libDaisy/src/util/FIFO.h ****         if(IsEmpty())
 128:../libDaisy/src/util/FIFO.h ****             // invalid, but better not pass a temporary T() object as a reference...
 129:../libDaisy/src/util/FIFO.h ****             return buffer_[0];
 130:../libDaisy/src/util/FIFO.h ****         return buffer_[bufferOut_];
 131:../libDaisy/src/util/FIFO.h ****     }
 132:../libDaisy/src/util/FIFO.h **** 
 133:../libDaisy/src/util/FIFO.h ****     /** Returns true if the buffer contains an element equal to the provided value */
 134:../libDaisy/src/util/FIFO.h ****     bool Contains(const T& element)
 135:../libDaisy/src/util/FIFO.h ****     {
 136:../libDaisy/src/util/FIFO.h ****         auto idx = bufferOut_;
 137:../libDaisy/src/util/FIFO.h ****         while(idx != bufferIn_)
 138:../libDaisy/src/util/FIFO.h ****         {
 139:../libDaisy/src/util/FIFO.h ****             if(buffer_[idx] == element)
 140:../libDaisy/src/util/FIFO.h ****                 return true;
 141:../libDaisy/src/util/FIFO.h ****             idx++;
 142:../libDaisy/src/util/FIFO.h ****             if(idx >= bufferSize_)
 143:../libDaisy/src/util/FIFO.h ****                 idx -= bufferSize_;
 144:../libDaisy/src/util/FIFO.h ****         }
 145:../libDaisy/src/util/FIFO.h ****         return false;
 146:../libDaisy/src/util/FIFO.h ****     }
 147:../libDaisy/src/util/FIFO.h **** 
 148:../libDaisy/src/util/FIFO.h ****     /** Returns the number of elements in the buffer that are equal to the provided value */
 149:../libDaisy/src/util/FIFO.h ****     size_t CountEqualTo(const T& element)
 150:../libDaisy/src/util/FIFO.h ****     {
 151:../libDaisy/src/util/FIFO.h ****         size_t result = 0;
 152:../libDaisy/src/util/FIFO.h ****         size_t idx    = bufferOut_;
 153:../libDaisy/src/util/FIFO.h ****         while(idx != bufferIn_)
 154:../libDaisy/src/util/FIFO.h ****         {
ARM GAS  /var/folders/2p/02m_5p7958535cp2tpgps0400000gn/T//ccf9gERz.s 			page 108


 155:../libDaisy/src/util/FIFO.h ****             if(buffer_[idx] == element)
 156:../libDaisy/src/util/FIFO.h ****                 result++;
 157:../libDaisy/src/util/FIFO.h ****             idx++;
 158:../libDaisy/src/util/FIFO.h ****             if(idx >= bufferSize_)
 159:../libDaisy/src/util/FIFO.h ****                 idx -= bufferSize_;
 160:../libDaisy/src/util/FIFO.h ****         }
 161:../libDaisy/src/util/FIFO.h ****         return result;
 162:../libDaisy/src/util/FIFO.h ****     }
 163:../libDaisy/src/util/FIFO.h **** 
 164:../libDaisy/src/util/FIFO.h ****     /** returns true, if the buffer is empty */
 165:../libDaisy/src/util/FIFO.h ****     bool IsEmpty() const { return bufferIn_ == bufferOut_; }
 166:../libDaisy/src/util/FIFO.h **** 
 167:../libDaisy/src/util/FIFO.h ****     /** returns true, if the buffer is Full */
 168:../libDaisy/src/util/FIFO.h ****     bool IsFull() const { return GetNumElements() == bufferSize_ - 1; }
 169:../libDaisy/src/util/FIFO.h **** 
 170:../libDaisy/src/util/FIFO.h ****     /** returns the number of elements in the buffer */
 171:../libDaisy/src/util/FIFO.h ****     size_t GetNumElements() const
 172:../libDaisy/src/util/FIFO.h ****     {
 173:../libDaisy/src/util/FIFO.h ****         int32_t numElements = bufferIn_ - bufferOut_;
 174:../libDaisy/src/util/FIFO.h ****         if(numElements < 0)
 175:../libDaisy/src/util/FIFO.h ****             numElements += bufferSize_;
 176:../libDaisy/src/util/FIFO.h ****         return size_t(numElements);
 177:../libDaisy/src/util/FIFO.h ****     }
 178:../libDaisy/src/util/FIFO.h **** 
 179:../libDaisy/src/util/FIFO.h ****     /** inserts an element "idx" positions behind the first element and returns true if successful 
 180:../libDaisy/src/util/FIFO.h ****     bool Insert(size_t idx, const T& element)
 181:../libDaisy/src/util/FIFO.h ****     {
 182:../libDaisy/src/util/FIFO.h ****         if(idx > GetNumElements())
 183:../libDaisy/src/util/FIFO.h ****             return false;
 184:../libDaisy/src/util/FIFO.h ****         if(IsFull())
 185:../libDaisy/src/util/FIFO.h ****             return false;
 186:../libDaisy/src/util/FIFO.h ****         if(idx == GetNumElements())
 187:../libDaisy/src/util/FIFO.h ****         {
 188:../libDaisy/src/util/FIFO.h ****             PushBack(element);
 189:../libDaisy/src/util/FIFO.h ****             return true;
 190:../libDaisy/src/util/FIFO.h ****         }
 191:../libDaisy/src/util/FIFO.h ****         // copy last element
 192:../libDaisy/src/util/FIFO.h ****         PushBack(Back());
 193:../libDaisy/src/util/FIFO.h ****         // move remaining elements: n => n+1
 194:../libDaisy/src/util/FIFO.h ****         for(int i = GetNumElements() - 2; i > int(idx); i--)
 195:../libDaisy/src/util/FIFO.h ****             (*this)[i] = (*this)[i - 1];
 196:../libDaisy/src/util/FIFO.h ****         // insert element
 197:../libDaisy/src/util/FIFO.h ****         (*this)[idx] = element;
 198:../libDaisy/src/util/FIFO.h ****         return true;
 199:../libDaisy/src/util/FIFO.h ****     }
 200:../libDaisy/src/util/FIFO.h **** 
 201:../libDaisy/src/util/FIFO.h ****     /** removes the element "idx" positions behind the first element 
 202:../libDaisy/src/util/FIFO.h ****      *  and returns true if successful */
 203:../libDaisy/src/util/FIFO.h ****     bool Remove(size_t idx)
 204:../libDaisy/src/util/FIFO.h ****     {
 205:../libDaisy/src/util/FIFO.h ****         if(idx >= GetNumElements())
 206:../libDaisy/src/util/FIFO.h ****             return false;
 207:../libDaisy/src/util/FIFO.h **** 
 208:../libDaisy/src/util/FIFO.h ****         size_t index = bufferOut_ + idx;
 209:../libDaisy/src/util/FIFO.h ****         if(index >= bufferSize_)
 210:../libDaisy/src/util/FIFO.h ****             index -= bufferSize_;
 211:../libDaisy/src/util/FIFO.h ****         size_t nextIndex = index + 1;
ARM GAS  /var/folders/2p/02m_5p7958535cp2tpgps0400000gn/T//ccf9gERz.s 			page 109


 212:../libDaisy/src/util/FIFO.h ****         if(nextIndex >= bufferSize_)
 213:../libDaisy/src/util/FIFO.h ****             nextIndex -= bufferSize_;
 214:../libDaisy/src/util/FIFO.h **** 
 215:../libDaisy/src/util/FIFO.h ****         while(nextIndex != bufferIn_)
 216:../libDaisy/src/util/FIFO.h ****         {
 217:../libDaisy/src/util/FIFO.h ****             buffer_[index] = buffer_[nextIndex];
 218:../libDaisy/src/util/FIFO.h ****             index++;
 219:../libDaisy/src/util/FIFO.h ****             nextIndex++;
 220:../libDaisy/src/util/FIFO.h ****             if(index >= bufferSize_)
 221:../libDaisy/src/util/FIFO.h ****                 index -= bufferSize_;
 222:../libDaisy/src/util/FIFO.h ****             if(nextIndex >= bufferSize_)
 223:../libDaisy/src/util/FIFO.h ****                 nextIndex -= bufferSize_;
 224:../libDaisy/src/util/FIFO.h ****         }
 225:../libDaisy/src/util/FIFO.h **** 
 226:../libDaisy/src/util/FIFO.h ****         int32_t nextBufferIn = int32_t(bufferIn_) - 1;
 227:../libDaisy/src/util/FIFO.h ****         if(nextBufferIn < 0)
 228:../libDaisy/src/util/FIFO.h ****             nextBufferIn += bufferSize_;
 229:../libDaisy/src/util/FIFO.h ****         bufferIn_ = size_t(nextBufferIn);
 230:../libDaisy/src/util/FIFO.h **** 
 231:../libDaisy/src/util/FIFO.h ****         return true;
 232:../libDaisy/src/util/FIFO.h ****     }
 233:../libDaisy/src/util/FIFO.h **** 
 234:../libDaisy/src/util/FIFO.h ****     /** removes all elements from the buffer for which
 235:../libDaisy/src/util/FIFO.h ****         (buffer(index) == element) returns true and returns the number of
 236:../libDaisy/src/util/FIFO.h ****         elements that were removed. */
 237:../libDaisy/src/util/FIFO.h ****     size_t RemoveAllEqualTo(const T& element)
 238:../libDaisy/src/util/FIFO.h ****     {
 239:../libDaisy/src/util/FIFO.h ****         size_t numRemoved = 0;
 240:../libDaisy/src/util/FIFO.h ****         int    idx        = GetNumElements() - 1;
 241:../libDaisy/src/util/FIFO.h ****         while(idx >= 0)
 242:../libDaisy/src/util/FIFO.h ****         {
 243:../libDaisy/src/util/FIFO.h ****             if((*this)[idx] == element)
 244:../libDaisy/src/util/FIFO.h ****             {
 245:../libDaisy/src/util/FIFO.h ****                 numRemoved++;
 246:../libDaisy/src/util/FIFO.h ****                 Remove(idx);
 247:../libDaisy/src/util/FIFO.h ****                 // was that the last element?
 248:../libDaisy/src/util/FIFO.h ****                 if(idx == int(GetNumElements()) - 1)
 249:../libDaisy/src/util/FIFO.h ****                     idx--;
 250:../libDaisy/src/util/FIFO.h ****             }
 251:../libDaisy/src/util/FIFO.h ****             else
 252:../libDaisy/src/util/FIFO.h ****                 idx--;
 253:../libDaisy/src/util/FIFO.h ****         }
 254:../libDaisy/src/util/FIFO.h ****         return numRemoved;
 255:../libDaisy/src/util/FIFO.h ****     }
 256:../libDaisy/src/util/FIFO.h **** 
 257:../libDaisy/src/util/FIFO.h ****     /** returns the element "idx" positions behind the first element */
 258:../libDaisy/src/util/FIFO.h ****     T& operator[](size_t idx)
 259:../libDaisy/src/util/FIFO.h ****     {
 260:../libDaisy/src/util/FIFO.h ****         if(idx >= GetNumElements())
 261:../libDaisy/src/util/FIFO.h ****             // invalid, but better not pass a temporary T() object as a reference...
 262:../libDaisy/src/util/FIFO.h ****             return buffer_[0];
 263:../libDaisy/src/util/FIFO.h **** 
 264:../libDaisy/src/util/FIFO.h ****         size_t index = bufferOut_ + idx;
 265:../libDaisy/src/util/FIFO.h ****         if(index >= bufferSize_)
 266:../libDaisy/src/util/FIFO.h ****             index -= bufferSize_;
 267:../libDaisy/src/util/FIFO.h ****         return buffer_[index];
 268:../libDaisy/src/util/FIFO.h ****     }
ARM GAS  /var/folders/2p/02m_5p7958535cp2tpgps0400000gn/T//ccf9gERz.s 			page 110


 269:../libDaisy/src/util/FIFO.h **** 
 270:../libDaisy/src/util/FIFO.h ****     /** returns the element "idx" positions behind the first element */
 271:../libDaisy/src/util/FIFO.h ****     const T& operator[](size_t idx) const
 272:../libDaisy/src/util/FIFO.h ****     {
 273:../libDaisy/src/util/FIFO.h ****         if(idx >= GetNumElements())
 274:../libDaisy/src/util/FIFO.h ****             // invalid, but better not pass a temporary T() object as a reference...
 275:../libDaisy/src/util/FIFO.h ****             return buffer_[0];
 276:../libDaisy/src/util/FIFO.h **** 
 277:../libDaisy/src/util/FIFO.h ****         size_t index = bufferOut_ + idx;
 278:../libDaisy/src/util/FIFO.h ****         if(index >= bufferSize_)
 279:../libDaisy/src/util/FIFO.h ****             index -= bufferSize_;
 280:../libDaisy/src/util/FIFO.h ****         return buffer_[index];
 281:../libDaisy/src/util/FIFO.h ****     }
 282:../libDaisy/src/util/FIFO.h **** 
 283:../libDaisy/src/util/FIFO.h ****     /** returns the total capacity */
 284:../libDaisy/src/util/FIFO.h ****     size_t GetCapacity() const { return bufferSize_ - 1; }
 285:../libDaisy/src/util/FIFO.h **** 
 286:../libDaisy/src/util/FIFO.h ****   private:
 287:../libDaisy/src/util/FIFO.h ****     FIFOBase(const FIFOBase<T>&) {} // non copyable
 288:../libDaisy/src/util/FIFO.h **** 
 289:../libDaisy/src/util/FIFO.h ****   private:
 290:../libDaisy/src/util/FIFO.h ****     T*           buffer_;
 291:../libDaisy/src/util/FIFO.h ****     const size_t bufferSize_;
 292:../libDaisy/src/util/FIFO.h ****     size_t       bufferIn_;
 293:../libDaisy/src/util/FIFO.h ****     size_t       bufferOut_;
 294:../libDaisy/src/util/FIFO.h **** };
 295:../libDaisy/src/util/FIFO.h **** 
 296:../libDaisy/src/util/FIFO.h **** /** A simple FIFO ring buffer with a fixed size. */
 297:../libDaisy/src/util/FIFO.h **** template <typename T, size_t capacity>
 298:../libDaisy/src/util/FIFO.h **** class FIFO : public FIFOBase<T>
 3986              		.loc 38 298 7
 3987              		.cfi_startproc
 3988              		@ args = 0, pretend = 0, frame = 8
 3989              		@ frame_needed = 1, uses_anonymous_args = 0
 3990 0000 80B5     		push	{r7, lr}
 3991              		.cfi_def_cfa_offset 8
 3992              		.cfi_offset 7, -8
 3993              		.cfi_offset 14, -4
 3994 0002 82B0     		sub	sp, sp, #8
 3995              		.cfi_def_cfa_offset 16
 3996 0004 00AF     		add	r7, sp, #0
 3997              		.cfi_def_cfa_register 7
 3998 0006 7860     		str	r0, [r7, #4]
 3999              	.LBB32:
 4000              		.loc 38 298 7
 4001 0008 7B68     		ldr	r3, [r7, #4]
 4002 000a 1846     		mov	r0, r3
 4003 000c FFF7FEFF 		bl	_ZN5daisy8FIFOBaseINS_9MidiEventEED2Ev
 4004              	.LBE32:
 4005 0010 7B68     		ldr	r3, [r7, #4]
 4006 0012 1846     		mov	r0, r3
 4007 0014 0837     		adds	r7, r7, #8
 4008              		.cfi_def_cfa_offset 8
 4009 0016 BD46     		mov	sp, r7
 4010              		.cfi_def_cfa_register 13
 4011              		@ sp needed
 4012 0018 80BD     		pop	{r7, pc}
ARM GAS  /var/folders/2p/02m_5p7958535cp2tpgps0400000gn/T//ccf9gERz.s 			page 111


 4013              		.cfi_endproc
 4014              	.LFE5225:
 4016              		.weak	_ZN5daisy4FIFOINS_9MidiEventELj256EED1Ev
 4017              		.thumb_set _ZN5daisy4FIFOINS_9MidiEventELj256EED1Ev,_ZN5daisy4FIFOINS_9MidiEventELj256EED2Ev
 4018              		.section	.text._ZN5daisy11MidiHandlerINS_17MidiUartTransportEEC2Ev,"axG",%progbits,_ZN5daisy11Midi
 4019              		.align	1
 4020              		.weak	_ZN5daisy11MidiHandlerINS_17MidiUartTransportEEC2Ev
 4021              		.syntax unified
 4022              		.thumb
 4023              		.thumb_func
 4025              	_ZN5daisy11MidiHandlerINS_17MidiUartTransportEEC2Ev:
 4026              	.LFB5227:
 155:../libDaisy/src/hid/midi.h ****     ~MidiHandler() {}
 4027              		.loc 18 155 5
 4028              		.cfi_startproc
 4029              		@ args = 0, pretend = 0, frame = 8
 4030              		@ frame_needed = 1, uses_anonymous_args = 0
 4031 0000 80B5     		push	{r7, lr}
 4032              		.cfi_def_cfa_offset 8
 4033              		.cfi_offset 7, -8
 4034              		.cfi_offset 14, -4
 4035 0002 82B0     		sub	sp, sp, #8
 4036              		.cfi_def_cfa_offset 16
 4037 0004 00AF     		add	r7, sp, #0
 4038              		.cfi_def_cfa_register 7
 4039 0006 7860     		str	r0, [r7, #4]
 4040              	.LBB33:
 155:../libDaisy/src/hid/midi.h ****     ~MidiHandler() {}
 4041              		.loc 18 155 19
 4042 0008 7B68     		ldr	r3, [r7, #4]
 4043 000a 1846     		mov	r0, r3
 4044 000c FFF7FEFF 		bl	_ZN5daisy11MidiHandlerINS_17MidiUartTransportEE6ConfigC1Ev
 4045 0010 7B68     		ldr	r3, [r7, #4]
 4046 0012 1033     		adds	r3, r3, #16
 4047 0014 1846     		mov	r0, r3
 4048 0016 FFF7FEFF 		bl	_ZN5daisy17MidiUartTransportC1Ev
 4049 001a 7B68     		ldr	r3, [r7, #4]
 4050 001c 2433     		adds	r3, r3, #36
 4051 001e 1846     		mov	r0, r3
 4052 0020 FFF7FEFF 		bl	_ZN5daisy10MidiParserC1Ev
 4053 0024 7B68     		ldr	r3, [r7, #4]
 4054 0026 C033     		adds	r3, r3, #192
 4055 0028 1846     		mov	r0, r3
 4056 002a FFF7FEFF 		bl	_ZN5daisy4FIFOINS_9MidiEventELj256EEC1Ev
 4057              	.LBE33:
 155:../libDaisy/src/hid/midi.h ****     ~MidiHandler() {}
 4058              		.loc 18 155 20
 4059 002e 7B68     		ldr	r3, [r7, #4]
 4060 0030 1846     		mov	r0, r3
 4061 0032 0837     		adds	r7, r7, #8
 4062              		.cfi_def_cfa_offset 8
 4063 0034 BD46     		mov	sp, r7
 4064              		.cfi_def_cfa_register 13
 4065              		@ sp needed
 4066 0036 80BD     		pop	{r7, pc}
 4067              		.cfi_endproc
 4068              	.LFE5227:
ARM GAS  /var/folders/2p/02m_5p7958535cp2tpgps0400000gn/T//ccf9gERz.s 			page 112


 4070              		.weak	_ZN5daisy11MidiHandlerINS_17MidiUartTransportEEC1Ev
 4071              		.thumb_set _ZN5daisy11MidiHandlerINS_17MidiUartTransportEEC1Ev,_ZN5daisy11MidiHandlerINS_17MidiUar
 4072              		.section	.text._ZN5daisy11MidiHandlerINS_17MidiUartTransportEED2Ev,"axG",%progbits,_ZN5daisy11Midi
 4073              		.align	1
 4074              		.weak	_ZN5daisy11MidiHandlerINS_17MidiUartTransportEED2Ev
 4075              		.syntax unified
 4076              		.thumb
 4077              		.thumb_func
 4079              	_ZN5daisy11MidiHandlerINS_17MidiUartTransportEED2Ev:
 4080              	.LFB5230:
 156:../libDaisy/src/hid/midi.h **** 
 4081              		.loc 18 156 5
 4082              		.cfi_startproc
 4083              		@ args = 0, pretend = 0, frame = 8
 4084              		@ frame_needed = 1, uses_anonymous_args = 0
 4085 0000 80B5     		push	{r7, lr}
 4086              		.cfi_def_cfa_offset 8
 4087              		.cfi_offset 7, -8
 4088              		.cfi_offset 14, -4
 4089 0002 82B0     		sub	sp, sp, #8
 4090              		.cfi_def_cfa_offset 16
 4091 0004 00AF     		add	r7, sp, #0
 4092              		.cfi_def_cfa_register 7
 4093 0006 7860     		str	r0, [r7, #4]
 4094              	.LBB34:
 156:../libDaisy/src/hid/midi.h **** 
 4095              		.loc 18 156 21
 4096 0008 7B68     		ldr	r3, [r7, #4]
 4097 000a C033     		adds	r3, r3, #192
 4098 000c 1846     		mov	r0, r3
 4099 000e FFF7FEFF 		bl	_ZN5daisy4FIFOINS_9MidiEventELj256EED1Ev
 4100 0012 7B68     		ldr	r3, [r7, #4]
 4101 0014 2433     		adds	r3, r3, #36
 4102 0016 1846     		mov	r0, r3
 4103 0018 FFF7FEFF 		bl	_ZN5daisy10MidiParserD1Ev
 4104 001c 7B68     		ldr	r3, [r7, #4]
 4105 001e 1033     		adds	r3, r3, #16
 4106 0020 1846     		mov	r0, r3
 4107 0022 FFF7FEFF 		bl	_ZN5daisy17MidiUartTransportD1Ev
 4108              	.LBE34:
 4109 0026 7B68     		ldr	r3, [r7, #4]
 4110 0028 1846     		mov	r0, r3
 4111 002a 0837     		adds	r7, r7, #8
 4112              		.cfi_def_cfa_offset 8
 4113 002c BD46     		mov	sp, r7
 4114              		.cfi_def_cfa_register 13
 4115              		@ sp needed
 4116 002e 80BD     		pop	{r7, pc}
 4117              		.cfi_endproc
 4118              	.LFE5230:
 4120              		.weak	_ZN5daisy11MidiHandlerINS_17MidiUartTransportEED1Ev
 4121              		.thumb_set _ZN5daisy11MidiHandlerINS_17MidiUartTransportEED1Ev,_ZN5daisy11MidiHandlerINS_17MidiUar
 4122              		.section	.text._ZN5daisy9WavWriterILj16384EEC2Ev,"axG",%progbits,_ZN5daisy9WavWriterILj16384EEC5Ev
 4123              		.align	1
 4124              		.weak	_ZN5daisy9WavWriterILj16384EEC2Ev
 4125              		.syntax unified
 4126              		.thumb
ARM GAS  /var/folders/2p/02m_5p7958535cp2tpgps0400000gn/T//ccf9gERz.s 			page 113


 4127              		.thumb_func
 4129              	_ZN5daisy9WavWriterILj16384EEC2Ev:
 4130              	.LFB5233:
 4131              		.file 39 "../libDaisy/src/util/WavWriter.h"
   1:../libDaisy/src/util/WavWriter.h **** #pragma once
   2:../libDaisy/src/util/WavWriter.h **** #pragma once
   3:../libDaisy/src/util/WavWriter.h **** #include "fatfs.h"
   4:../libDaisy/src/util/WavWriter.h **** 
   5:../libDaisy/src/util/WavWriter.h **** namespace daisy
   6:../libDaisy/src/util/WavWriter.h **** {
   7:../libDaisy/src/util/WavWriter.h **** /** Audio Recording Module
   8:../libDaisy/src/util/WavWriter.h ****  ** 
   9:../libDaisy/src/util/WavWriter.h ****  ** Record audio into a working buffer that is gradually written to a WAV file on an SD Card. 
  10:../libDaisy/src/util/WavWriter.h ****  **
  11:../libDaisy/src/util/WavWriter.h ****  ** Recordings are made with floating point input, and will be converted to the 
  12:../libDaisy/src/util/WavWriter.h ****  ** specified bits per sample internally 
  13:../libDaisy/src/util/WavWriter.h ****  **
  14:../libDaisy/src/util/WavWriter.h ****  ** For now only 16-bit and 32-bit (signed int) formats are supported
  15:../libDaisy/src/util/WavWriter.h ****  ** f32 and s24 formats will be added next
  16:../libDaisy/src/util/WavWriter.h ****  **
  17:../libDaisy/src/util/WavWriter.h ****  ** The transfer size determines the amount of internal memory used, and can have an
  18:../libDaisy/src/util/WavWriter.h ****  ** effect on the performance of the streaming behavior of the WavWriter.
  19:../libDaisy/src/util/WavWriter.h ****  ** Memory use can be calculated as: (2 * transfer_size) bytes
  20:../libDaisy/src/util/WavWriter.h ****  ** Performance optimal with sizes: 16384, 32768
  21:../libDaisy/src/util/WavWriter.h ****  ** 
  22:../libDaisy/src/util/WavWriter.h ****  ** To use:
  23:../libDaisy/src/util/WavWriter.h ****  ** 1. Create a WavWriter<size> object (e.g. WavWriter<32768> writer)
  24:../libDaisy/src/util/WavWriter.h ****  ** 2. Configure the settings as desired by creating a WavWriter<32768>::Config struct and setting 
  25:../libDaisy/src/util/WavWriter.h ****  ** 3. Initialize the object with the configuration struct.
  26:../libDaisy/src/util/WavWriter.h ****  ** 4. Open a new file for writing with: writer.OpenFile("FileName.wav")
  27:../libDaisy/src/util/WavWriter.h ****  ** 5. Write to it within your audio callback using: writer.Sample(value)
  28:../libDaisy/src/util/WavWriter.h ****  ** 6. Fill the Wav File on the SD Card with data from your main loop by running: writer.Write()
  29:../libDaisy/src/util/WavWriter.h ****  ** 7. When finished with the recording finalize, and close the file with: writer.SaveFile();
  30:../libDaisy/src/util/WavWriter.h ****  ** 
  31:../libDaisy/src/util/WavWriter.h ****  ** */
  32:../libDaisy/src/util/WavWriter.h **** template <size_t transfer_size>
  33:../libDaisy/src/util/WavWriter.h **** class WavWriter
  34:../libDaisy/src/util/WavWriter.h **** {
  35:../libDaisy/src/util/WavWriter.h ****   public:
  36:../libDaisy/src/util/WavWriter.h ****     WavWriter() {}
 4132              		.loc 39 36 5
 4133              		.cfi_startproc
 4134              		@ args = 0, pretend = 0, frame = 8
 4135              		@ frame_needed = 1, uses_anonymous_args = 0
 4136              		@ link register save eliminated.
 4137 0000 80B4     		push	{r7}
 4138              		.cfi_def_cfa_offset 4
 4139              		.cfi_offset 7, -4
 4140 0002 83B0     		sub	sp, sp, #12
 4141              		.cfi_def_cfa_offset 16
 4142 0004 00AF     		add	r7, sp, #0
 4143              		.cfi_def_cfa_register 7
 4144 0006 7860     		str	r0, [r7, #4]
 4145              		.loc 39 36 18
 4146 0008 7B68     		ldr	r3, [r7, #4]
 4147 000a 1846     		mov	r0, r3
 4148 000c 0C37     		adds	r7, r7, #12
ARM GAS  /var/folders/2p/02m_5p7958535cp2tpgps0400000gn/T//ccf9gERz.s 			page 114


 4149              		.cfi_def_cfa_offset 4
 4150 000e BD46     		mov	sp, r7
 4151              		.cfi_def_cfa_register 13
 4152              		@ sp needed
 4153 0010 5DF8047B 		ldr	r7, [sp], #4
 4154              		.cfi_restore 7
 4155              		.cfi_def_cfa_offset 0
 4156 0014 7047     		bx	lr
 4157              		.cfi_endproc
 4158              	.LFE5233:
 4160              		.weak	_ZN5daisy9WavWriterILj16384EEC1Ev
 4161              		.thumb_set _ZN5daisy9WavWriterILj16384EEC1Ev,_ZN5daisy9WavWriterILj16384EEC2Ev
 4162              		.section	.text._ZN5daisy9WavWriterILj16384EED2Ev,"axG",%progbits,_ZN5daisy9WavWriterILj16384EED5Ev
 4163              		.align	1
 4164              		.weak	_ZN5daisy9WavWriterILj16384EED2Ev
 4165              		.syntax unified
 4166              		.thumb
 4167              		.thumb_func
 4169              	_ZN5daisy9WavWriterILj16384EED2Ev:
 4170              	.LFB5236:
  37:../libDaisy/src/util/WavWriter.h ****     ~WavWriter() {}
 4171              		.loc 39 37 5
 4172              		.cfi_startproc
 4173              		@ args = 0, pretend = 0, frame = 8
 4174              		@ frame_needed = 1, uses_anonymous_args = 0
 4175              		@ link register save eliminated.
 4176 0000 80B4     		push	{r7}
 4177              		.cfi_def_cfa_offset 4
 4178              		.cfi_offset 7, -4
 4179 0002 83B0     		sub	sp, sp, #12
 4180              		.cfi_def_cfa_offset 16
 4181 0004 00AF     		add	r7, sp, #0
 4182              		.cfi_def_cfa_register 7
 4183 0006 7860     		str	r0, [r7, #4]
 4184              		.loc 39 37 19
 4185 0008 7B68     		ldr	r3, [r7, #4]
 4186 000a 1846     		mov	r0, r3
 4187 000c 0C37     		adds	r7, r7, #12
 4188              		.cfi_def_cfa_offset 4
 4189 000e BD46     		mov	sp, r7
 4190              		.cfi_def_cfa_register 13
 4191              		@ sp needed
 4192 0010 5DF8047B 		ldr	r7, [sp], #4
 4193              		.cfi_restore 7
 4194              		.cfi_def_cfa_offset 0
 4195 0014 7047     		bx	lr
 4196              		.cfi_endproc
 4197              	.LFE5236:
 4199              		.weak	_ZN5daisy9WavWriterILj16384EED1Ev
 4200              		.thumb_set _ZN5daisy9WavWriterILj16384EED1Ev,_ZN5daisy9WavWriterILj16384EED2Ev
 4201              		.section	.text._ZN5daisy9DaisySeed9PrintLineIJEEEvPKcDpT_,"axG",%progbits,_ZN5daisy9DaisySeed9Prin
 4202              		.align	1
 4203              		.weak	_ZN5daisy9DaisySeed9PrintLineIJEEEvPKcDpT_
 4204              		.syntax unified
 4205              		.thumb
 4206              		.thumb_func
 4208              	_ZN5daisy9DaisySeed9PrintLineIJEEEvPKcDpT_:
ARM GAS  /var/folders/2p/02m_5p7958535cp2tpgps0400000gn/T//ccf9gERz.s 			page 115


 4209              	.LFB5238:
 126:../libDaisy/src/daisy_seed.h ****     {
 4210              		.loc 28 126 17
 4211              		.cfi_startproc
 4212              		@ args = 0, pretend = 0, frame = 8
 4213              		@ frame_needed = 1, uses_anonymous_args = 0
 4214 0000 80B5     		push	{r7, lr}
 4215              		.cfi_def_cfa_offset 8
 4216              		.cfi_offset 7, -8
 4217              		.cfi_offset 14, -4
 4218 0002 82B0     		sub	sp, sp, #8
 4219              		.cfi_def_cfa_offset 16
 4220 0004 00AF     		add	r7, sp, #0
 4221              		.cfi_def_cfa_register 7
 4222 0006 7860     		str	r0, [r7, #4]
 128:../libDaisy/src/daisy_seed.h ****     }
 4223              		.loc 28 128 23
 4224 0008 7868     		ldr	r0, [r7, #4]
 4225 000a FFF7FEFF 		bl	_ZN5daisy6LoggerILNS_17LoggerDestinationE1EE9PrintLineEPKcz
 129:../libDaisy/src/daisy_seed.h **** 
 4226              		.loc 28 129 5
 4227 000e 00BF     		nop
 4228 0010 0837     		adds	r7, r7, #8
 4229              		.cfi_def_cfa_offset 8
 4230 0012 BD46     		mov	sp, r7
 4231              		.cfi_def_cfa_register 13
 4232              		@ sp needed
 4233 0014 80BD     		pop	{r7, pc}
 4234              		.cfi_endproc
 4235              	.LFE5238:
 4237              		.section	.text._ZN5daisy4FIFOINS_9MidiEventELj256EEC2Ev,"axG",%progbits,_ZN5daisy4FIFOINS_9MidiEve
 4238              		.align	1
 4239              		.weak	_ZN5daisy4FIFOINS_9MidiEventELj256EEC2Ev
 4240              		.syntax unified
 4241              		.thumb
 4242              		.thumb_func
 4244              	_ZN5daisy4FIFOINS_9MidiEventELj256EEC2Ev:
 4245              	.LFB5358:
 299:../libDaisy/src/util/FIFO.h **** {
 300:../libDaisy/src/util/FIFO.h ****   public:
 301:../libDaisy/src/util/FIFO.h ****     /** Creates an empty FIFO */
 302:../libDaisy/src/util/FIFO.h ****     FIFO() : FIFOBase<T>(buffer_, capacity + 1) {}
 4246              		.loc 38 302 5
 4247              		.cfi_startproc
 4248              		@ args = 0, pretend = 0, frame = 8
 4249              		@ frame_needed = 1, uses_anonymous_args = 0
 4250 0000 80B5     		push	{r7, lr}
 4251              		.cfi_def_cfa_offset 8
 4252              		.cfi_offset 7, -8
 4253              		.cfi_offset 14, -4
 4254 0002 82B0     		sub	sp, sp, #8
 4255              		.cfi_def_cfa_offset 16
 4256 0004 00AF     		add	r7, sp, #0
 4257              		.cfi_def_cfa_register 7
 4258 0006 7860     		str	r0, [r7, #4]
 4259              	.LBB35:
 4260              		.loc 38 302 47
ARM GAS  /var/folders/2p/02m_5p7958535cp2tpgps0400000gn/T//ccf9gERz.s 			page 116


 4261 0008 7868     		ldr	r0, [r7, #4]
 4262              		.loc 38 302 26
 4263 000a 7B68     		ldr	r3, [r7, #4]
 4264 000c 1033     		adds	r3, r3, #16
 4265              		.loc 38 302 47
 4266 000e 40F20112 		movw	r2, #257
 4267 0012 1946     		mov	r1, r3
 4268 0014 FFF7FEFF 		bl	_ZN5daisy8FIFOBaseINS_9MidiEventEEC2EPS1_j
 4269              	.LBE35:
 4270              		.loc 38 302 50
 4271 0018 7B68     		ldr	r3, [r7, #4]
 4272 001a 1846     		mov	r0, r3
 4273 001c 0837     		adds	r7, r7, #8
 4274              		.cfi_def_cfa_offset 8
 4275 001e BD46     		mov	sp, r7
 4276              		.cfi_def_cfa_register 13
 4277              		@ sp needed
 4278 0020 80BD     		pop	{r7, pc}
 4279              		.cfi_endproc
 4280              	.LFE5358:
 4282              		.weak	_ZN5daisy4FIFOINS_9MidiEventELj256EEC1Ev
 4283              		.thumb_set _ZN5daisy4FIFOINS_9MidiEventELj256EEC1Ev,_ZN5daisy4FIFOINS_9MidiEventELj256EEC2Ev
 4284              		.section	.text._ZN5daisy8FIFOBaseINS_9MidiEventEED2Ev,"axG",%progbits,_ZN5daisy8FIFOBaseINS_9MidiE
 4285              		.align	1
 4286              		.weak	_ZN5daisy8FIFOBaseINS_9MidiEventEED2Ev
 4287              		.syntax unified
 4288              		.thumb
 4289              		.thumb_func
 4291              	_ZN5daisy8FIFOBaseINS_9MidiEventEED2Ev:
 4292              	.LFB5361:
  42:../libDaisy/src/util/FIFO.h **** 
 4293              		.loc 38 42 5
 4294              		.cfi_startproc
 4295              		@ args = 0, pretend = 0, frame = 8
 4296              		@ frame_needed = 1, uses_anonymous_args = 0
 4297              		@ link register save eliminated.
 4298 0000 80B4     		push	{r7}
 4299              		.cfi_def_cfa_offset 4
 4300              		.cfi_offset 7, -4
 4301 0002 83B0     		sub	sp, sp, #12
 4302              		.cfi_def_cfa_offset 16
 4303 0004 00AF     		add	r7, sp, #0
 4304              		.cfi_def_cfa_register 7
 4305 0006 7860     		str	r0, [r7, #4]
  42:../libDaisy/src/util/FIFO.h **** 
 4306              		.loc 38 42 18
 4307 0008 7B68     		ldr	r3, [r7, #4]
 4308 000a 1846     		mov	r0, r3
 4309 000c 0C37     		adds	r7, r7, #12
 4310              		.cfi_def_cfa_offset 4
 4311 000e BD46     		mov	sp, r7
 4312              		.cfi_def_cfa_register 13
 4313              		@ sp needed
 4314 0010 5DF8047B 		ldr	r7, [sp], #4
 4315              		.cfi_restore 7
 4316              		.cfi_def_cfa_offset 0
 4317 0014 7047     		bx	lr
ARM GAS  /var/folders/2p/02m_5p7958535cp2tpgps0400000gn/T//ccf9gERz.s 			page 117


 4318              		.cfi_endproc
 4319              	.LFE5361:
 4321              		.weak	_ZN5daisy8FIFOBaseINS_9MidiEventEED1Ev
 4322              		.thumb_set _ZN5daisy8FIFOBaseINS_9MidiEventEED1Ev,_ZN5daisy8FIFOBaseINS_9MidiEventEED2Ev
 4323              		.section	.text._ZN5daisy8FIFOBaseINS_9MidiEventEEC2EPS1_j,"axG",%progbits,_ZN5daisy8FIFOBaseINS_9M
 4324              		.align	1
 4325              		.weak	_ZN5daisy8FIFOBaseINS_9MidiEventEEC2EPS1_j
 4326              		.syntax unified
 4327              		.thumb
 4328              		.thumb_func
 4330              	_ZN5daisy8FIFOBaseINS_9MidiEventEEC2EPS1_j:
 4331              	.LFB5406:
  14:../libDaisy/src/util/FIFO.h ****     : buffer_(buffer), bufferSize_(bufferSize), bufferIn_(0), bufferOut_(0)
 4332              		.loc 38 14 5
 4333              		.cfi_startproc
 4334              		@ args = 0, pretend = 0, frame = 16
 4335              		@ frame_needed = 1, uses_anonymous_args = 0
 4336              		@ link register save eliminated.
 4337 0000 80B4     		push	{r7}
 4338              		.cfi_def_cfa_offset 4
 4339              		.cfi_offset 7, -4
 4340 0002 85B0     		sub	sp, sp, #20
 4341              		.cfi_def_cfa_offset 24
 4342 0004 00AF     		add	r7, sp, #0
 4343              		.cfi_def_cfa_register 7
 4344 0006 F860     		str	r0, [r7, #12]
 4345 0008 B960     		str	r1, [r7, #8]
 4346 000a 7A60     		str	r2, [r7, #4]
 4347              	.LBB36:
  15:../libDaisy/src/util/FIFO.h ****     {
 4348              		.loc 38 15 75
 4349 000c FB68     		ldr	r3, [r7, #12]
 4350 000e BA68     		ldr	r2, [r7, #8]
 4351 0010 1A60     		str	r2, [r3]
 4352 0012 FB68     		ldr	r3, [r7, #12]
 4353 0014 7A68     		ldr	r2, [r7, #4]
 4354 0016 5A60     		str	r2, [r3, #4]
 4355 0018 FB68     		ldr	r3, [r7, #12]
 4356 001a 0022     		movs	r2, #0
 4357 001c 9A60     		str	r2, [r3, #8]
 4358 001e FB68     		ldr	r3, [r7, #12]
 4359 0020 0022     		movs	r2, #0
 4360 0022 DA60     		str	r2, [r3, #12]
 4361              	.LBE36:
  17:../libDaisy/src/util/FIFO.h **** 
 4362              		.loc 38 17 5
 4363 0024 FB68     		ldr	r3, [r7, #12]
 4364 0026 1846     		mov	r0, r3
 4365 0028 1437     		adds	r7, r7, #20
 4366              		.cfi_def_cfa_offset 4
 4367 002a BD46     		mov	sp, r7
 4368              		.cfi_def_cfa_register 13
 4369              		@ sp needed
 4370 002c 5DF8047B 		ldr	r7, [sp], #4
 4371              		.cfi_restore 7
 4372              		.cfi_def_cfa_offset 0
 4373 0030 7047     		bx	lr
ARM GAS  /var/folders/2p/02m_5p7958535cp2tpgps0400000gn/T//ccf9gERz.s 			page 118


 4374              		.cfi_endproc
 4375              	.LFE5406:
 4377              		.weak	_ZN5daisy8FIFOBaseINS_9MidiEventEEC1EPS1_j
 4378              		.thumb_set _ZN5daisy8FIFOBaseINS_9MidiEventEEC1EPS1_j,_ZN5daisy8FIFOBaseINS_9MidiEventEEC2EPS1_j
 4379              		.section	.text._ZN14GrannyChordAppD2Ev,"axG",%progbits,_ZN14GrannyChordAppD5Ev,comdat
 4380              		.align	1
 4381              		.weak	_ZN14GrannyChordAppD2Ev
 4382              		.syntax unified
 4383              		.thumb
 4384              		.thumb_func
 4386              	_ZN14GrannyChordAppD2Ev:
 4387              	.LFB5506:
  17:GrannyChordApp.h ****   public:
 4388              		.loc 35 17 7
 4389              		.cfi_startproc
 4390              		@ args = 0, pretend = 0, frame = 8
 4391              		@ frame_needed = 1, uses_anonymous_args = 0
 4392 0000 80B5     		push	{r7, lr}
 4393              		.cfi_def_cfa_offset 8
 4394              		.cfi_offset 7, -8
 4395              		.cfi_offset 14, -4
 4396 0002 82B0     		sub	sp, sp, #8
 4397              		.cfi_def_cfa_offset 16
 4398 0004 00AF     		add	r7, sp, #0
 4399              		.cfi_def_cfa_register 7
 4400 0006 7860     		str	r0, [r7, #4]
 4401              	.LBB37:
  17:GrannyChordApp.h ****   public:
 4402              		.loc 35 17 7
 4403 0008 7A68     		ldr	r2, [r7, #4]
 4404 000a 48F2B063 		movw	r3, #34480
 4405 000e 1344     		add	r3, r3, r2
 4406 0010 1846     		mov	r0, r3
 4407 0012 FFF7FEFF 		bl	_ZN14GrannyChordApp7ColoursD1Ev
 4408 0016 7B68     		ldr	r3, [r7, #4]
 4409 0018 03F58363 		add	r3, r3, #1048
 4410 001c 1846     		mov	r0, r3
 4411 001e FFF7FEFF 		bl	_ZN5daisy9WavWriterILj16384EED1Ev
 4412 0022 7B68     		ldr	r3, [r7, #4]
 4413 0024 03F54D73 		add	r3, r3, #820
 4414 0028 1846     		mov	r0, r3
 4415 002a FFF7FEFF 		bl	_ZN7daisysp7OnePoleD1Ev
 4416 002e 7B68     		ldr	r3, [r7, #4]
 4417 0030 03F54673 		add	r3, r3, #792
 4418 0034 1846     		mov	r0, r3
 4419 0036 FFF7FEFF 		bl	_ZN7daisysp7OnePoleD1Ev
 4420 003a 7B68     		ldr	r3, [r7, #4]
 4421 003c 03F53573 		add	r3, r3, #724
 4422 0040 1846     		mov	r0, r3
 4423 0042 FFF7FEFF 		bl	_ZN7daisysp10MoogLadderD1Ev
 4424 0046 7B68     		ldr	r3, [r7, #4]
 4425 0048 03F53273 		add	r3, r3, #712
 4426 004c 1846     		mov	r0, r3
 4427 004e FFF7FEFF 		bl	_ZN7daisysp7LimiterD1Ev
 4428 0052 7B68     		ldr	r3, [r7, #4]
 4429 0054 03F52273 		add	r3, r3, #648
 4430 0058 1846     		mov	r0, r3
ARM GAS  /var/folders/2p/02m_5p7958535cp2tpgps0400000gn/T//ccf9gERz.s 			page 119


 4431 005a FFF7FEFF 		bl	_ZN7daisysp10CompressorD1Ev
 4432 005e 7B68     		ldr	r3, [r7, #4]
 4433 0060 2033     		adds	r3, r3, #32
 4434 0062 1846     		mov	r0, r3
 4435 0064 FFF7FEFF 		bl	_ZN13GranularSynthD1Ev
 4436              	.LBE37:
 4437 0068 7B68     		ldr	r3, [r7, #4]
 4438 006a 1846     		mov	r0, r3
 4439 006c 0837     		adds	r7, r7, #8
 4440              		.cfi_def_cfa_offset 8
 4441 006e BD46     		mov	sp, r7
 4442              		.cfi_def_cfa_register 13
 4443              		@ sp needed
 4444 0070 80BD     		pop	{r7, pc}
 4445              		.cfi_endproc
 4446              	.LFE5506:
 4448              		.weak	_ZN14GrannyChordAppD1Ev
 4449              		.thumb_set _ZN14GrannyChordAppD1Ev,_ZN14GrannyChordAppD2Ev
 4450              		.section	.text._Z41__static_initialization_and_destruction_0ii,"ax",%progbits
 4451              		.align	1
 4452              		.syntax unified
 4453              		.thumb
 4454              		.thumb_func
 4456              	_Z41__static_initialization_and_destruction_0ii:
 4457              	.LFB5504:
 4458              		.loc 36 67 1
 4459              		.cfi_startproc
 4460              		@ args = 0, pretend = 0, frame = 8
 4461              		@ frame_needed = 1, uses_anonymous_args = 0
 4462 0000 80B5     		push	{r7, lr}
 4463              		.cfi_def_cfa_offset 8
 4464              		.cfi_offset 7, -8
 4465              		.cfi_offset 14, -4
 4466 0002 84B0     		sub	sp, sp, #16
 4467              		.cfi_def_cfa_offset 24
 4468 0004 02AF     		add	r7, sp, #8
 4469              		.cfi_def_cfa 7, 16
 4470 0006 7860     		str	r0, [r7, #4]
 4471 0008 3960     		str	r1, [r7]
 4472              		.loc 36 67 1
 4473 000a 7B68     		ldr	r3, [r7, #4]
 4474 000c 012B     		cmp	r3, #1
 4475 000e 50D1     		bne	.L175
 4476              		.loc 36 67 1 is_stmt 0 discriminator 1
 4477 0010 3B68     		ldr	r3, [r7]
 4478 0012 4FF6FF72 		movw	r2, #65535
 4479 0016 9342     		cmp	r3, r2
 4480 0018 4BD1     		bne	.L175
  29:main.cpp      **** FatFSInterface fsi;
 4481              		.loc 36 29 14 is_stmt 1
 4482 001a 2848     		ldr	r0, .L176
 4483 001c FFF7FEFF 		bl	_ZN5daisy12SdmmcHandlerC1Ev
 4484 0020 274A     		ldr	r2, .L176+4
 4485 0022 2849     		ldr	r1, .L176+8
 4486 0024 2548     		ldr	r0, .L176
 4487 0026 FFF7FEFF 		bl	__aeabi_atexit
  30:main.cpp      **** DaisyPod pod;
ARM GAS  /var/folders/2p/02m_5p7958535cp2tpgps0400000gn/T//ccf9gERz.s 			page 120


 4488              		.loc 36 30 16
 4489 002a 2748     		ldr	r0, .L176+12
 4490 002c FFF7FEFF 		bl	_ZN5daisy14FatFSInterfaceC1Ev
  31:main.cpp      **** FIL file;
 4491              		.loc 36 31 10
 4492 0030 2648     		ldr	r0, .L176+16
 4493 0032 FFF7FEFF 		bl	_ZN5daisy8DaisyPodC1Ev
 4494 0036 224A     		ldr	r2, .L176+4
 4495 0038 2549     		ldr	r1, .L176+20
 4496 003a 2448     		ldr	r0, .L176+16
 4497 003c FFF7FEFF 		bl	__aeabi_atexit
  35:main.cpp      **** DSY_SDRAM_BSS SmoothRandomGenerator rng;
 4498              		.loc 36 35 24
 4499 0040 2448     		ldr	r0, .L176+24
 4500 0042 FFF7FEFF 		bl	_ZN7daisysp8ReverbScC1Ev
 4501 0046 1E4A     		ldr	r2, .L176+4
 4502 0048 2349     		ldr	r1, .L176+28
 4503 004a 2248     		ldr	r0, .L176+24
 4504 004c FFF7FEFF 		bl	__aeabi_atexit
  36:main.cpp      **** DSY_SDRAM_BSS Chorus chorus;
 4505              		.loc 36 36 37
 4506 0050 2248     		ldr	r0, .L176+32
 4507 0052 FFF7FEFF 		bl	_ZN7daisysp21SmoothRandomGeneratorC1Ev
 4508 0056 1A4A     		ldr	r2, .L176+4
 4509 0058 2149     		ldr	r1, .L176+36
 4510 005a 2048     		ldr	r0, .L176+32
 4511 005c FFF7FEFF 		bl	__aeabi_atexit
  37:main.cpp      **** /* software classes to run app */
 4512              		.loc 36 37 22
 4513 0060 2048     		ldr	r0, .L176+40
 4514 0062 FFF7FEFF 		bl	_ZN7daisysp6ChorusC1Ev
 4515 0066 164A     		ldr	r2, .L176+4
 4516 0068 1F49     		ldr	r1, .L176+44
 4517 006a 1E48     		ldr	r0, .L176+40
 4518 006c FFF7FEFF 		bl	__aeabi_atexit
  39:main.cpp      **** static GranularSynth synth(pod, &rng);
 4519              		.loc 36 39 45
 4520 0070 1E4B     		ldr	r3, .L176+48
 4521 0072 0093     		str	r3, [sp]
 4522 0074 154B     		ldr	r3, .L176+16
 4523 0076 144A     		ldr	r2, .L176+12
 4524 0078 1049     		ldr	r1, .L176
 4525 007a 1D48     		ldr	r0, .L176+52
 4526 007c FFF7FEFF 		bl	_ZN16AudioFileManagerC1ERN5daisy12SdmmcHandlerERNS0_14FatFSInterfaceERNS0_8DaisyPodEP3FIL
  40:main.cpp      **** // static GranularSynth synth(pod, &rng);
 4527              		.loc 36 40 37
 4528 0080 164A     		ldr	r2, .L176+32
 4529 0082 1249     		ldr	r1, .L176+16
 4530 0084 1B48     		ldr	r0, .L176+56
 4531 0086 FFF7FEFF 		bl	_ZN13GranularSynthC1ERN5daisy8DaisyPodEPN7daisysp21SmoothRandomGeneratorE
  40:main.cpp      **** // static GranularSynth synth(pod, &rng);
 4532              		.loc 36 40 22
 4533 008a 0D4A     		ldr	r2, .L176+4
 4534 008c 1A49     		ldr	r1, .L176+60
 4535 008e 1948     		ldr	r0, .L176+56
 4536 0090 FFF7FEFF 		bl	__aeabi_atexit
  42:main.cpp      **** 
ARM GAS  /var/folders/2p/02m_5p7958535cp2tpgps0400000gn/T//ccf9gERz.s 			page 121


 4537              		.loc 36 42 55
 4538 0094 134B     		ldr	r3, .L176+40
 4539 0096 0193     		str	r3, [sp, #4]
 4540 0098 0E4B     		ldr	r3, .L176+24
 4541 009a 0093     		str	r3, [sp]
 4542 009c 144B     		ldr	r3, .L176+52
 4543 009e 154A     		ldr	r2, .L176+56
 4544 00a0 0A49     		ldr	r1, .L176+16
 4545 00a2 1648     		ldr	r0, .L176+64
 4546 00a4 FFF7FEFF 		bl	_ZN14GrannyChordAppC1ERN5daisy8DaisyPodER13GranularSynthR16AudioFileManagerRN7daisysp8ReverbScE
  42:main.cpp      **** 
 4547              		.loc 36 42 16
 4548 00a8 054A     		ldr	r2, .L176+4
 4549 00aa 1549     		ldr	r1, .L176+68
 4550 00ac 1348     		ldr	r0, .L176+64
 4551 00ae FFF7FEFF 		bl	__aeabi_atexit
 4552              	.L175:
 4553              		.loc 36 67 1
 4554 00b2 00BF     		nop
 4555 00b4 0837     		adds	r7, r7, #8
 4556              		.cfi_def_cfa_offset 8
 4557 00b6 BD46     		mov	sp, r7
 4558              		.cfi_def_cfa_register 13
 4559              		@ sp needed
 4560 00b8 80BD     		pop	{r7, pc}
 4561              	.L177:
 4562 00ba 00BF     		.align	2
 4563              	.L176:
 4564 00bc 00000000 		.word	sd
 4565 00c0 00000000 		.word	__dso_handle
 4566 00c4 00000000 		.word	_ZN5daisy12SdmmcHandlerD1Ev
 4567 00c8 00000000 		.word	fsi
 4568 00cc 00000000 		.word	pod
 4569 00d0 00000000 		.word	_ZN5daisy8DaisyPodD1Ev
 4570 00d4 00000000 		.word	reverb
 4571 00d8 00000000 		.word	_ZN7daisysp8ReverbScD1Ev
 4572 00dc 00000000 		.word	rng
 4573 00e0 00000000 		.word	_ZN7daisysp21SmoothRandomGeneratorD1Ev
 4574 00e4 00000000 		.word	chorus
 4575 00e8 00000000 		.word	_ZN7daisysp6ChorusD1Ev
 4576 00ec 00000000 		.word	file
 4577 00f0 00000000 		.word	filemgr
 4578 00f4 00000000 		.word	_ZL5synth
 4579 00f8 00000000 		.word	_ZN13GranularSynthD1Ev
 4580 00fc 00000000 		.word	app
 4581 0100 00000000 		.word	_ZN14GrannyChordAppD1Ev
 4582              		.cfi_endproc
 4583              	.LFE5504:
 4585              		.section	.text._GLOBAL__sub_I_left_buf,"ax",%progbits
 4586              		.align	1
 4587              		.syntax unified
 4588              		.thumb
 4589              		.thumb_func
 4591              	_GLOBAL__sub_I_left_buf:
 4592              	.LFB5508:
 4593              		.loc 36 67 1
 4594              		.cfi_startproc
ARM GAS  /var/folders/2p/02m_5p7958535cp2tpgps0400000gn/T//ccf9gERz.s 			page 122


 4595              		@ args = 0, pretend = 0, frame = 0
 4596              		@ frame_needed = 1, uses_anonymous_args = 0
 4597 0000 80B5     		push	{r7, lr}
 4598              		.cfi_def_cfa_offset 8
 4599              		.cfi_offset 7, -8
 4600              		.cfi_offset 14, -4
 4601 0002 00AF     		add	r7, sp, #0
 4602              		.cfi_def_cfa_register 7
 4603              		.loc 36 67 1
 4604 0004 4FF6FF71 		movw	r1, #65535
 4605 0008 0120     		movs	r0, #1
 4606 000a FFF7FEFF 		bl	_Z41__static_initialization_and_destruction_0ii
 4607 000e 80BD     		pop	{r7, pc}
 4608              		.cfi_endproc
 4609              	.LFE5508:
 4611              		.section	.init_array,"aw",%init_array
 4612              		.align	2
 4613 0000 00000000 		.word	_GLOBAL__sub_I_left_buf(target1)
 4614              		.text
 4615              	.Letext0:
 4616              		.file 40 "/Library/DaisyToolchain/0.2.0/arm/arm-none-eabi/include/machine/_default_types.h"
 4617              		.file 41 "/Library/DaisyToolchain/0.2.0/arm/arm-none-eabi/include/sys/_stdint.h"
 4618              		.file 42 "/Library/DaisyToolchain/0.2.0/arm/arm-none-eabi/include/stdint.h"
 4619              		.file 43 "/Library/DaisyToolchain/0.2.0/arm/lib/gcc/arm-none-eabi/10.3.1/include/stddef.h"
 4620              		.file 44 "/Library/DaisyToolchain/0.2.0/arm/arm-none-eabi/include/c++/10.3.1/bits/cpp_type_traits.
 4621              		.file 45 "/Library/DaisyToolchain/0.2.0/arm/arm-none-eabi/include/c++/10.3.1/cmath"
 4622              		.file 46 "/Library/DaisyToolchain/0.2.0/arm/arm-none-eabi/include/c++/10.3.1/bits/std_abs.h"
 4623              		.file 47 "/Library/DaisyToolchain/0.2.0/arm/arm-none-eabi/include/c++/10.3.1/cstdint"
 4624              		.file 48 "/Library/DaisyToolchain/0.2.0/arm/arm-none-eabi/include/c++/10.3.1/cstdlib"
 4625              		.file 49 "/Library/DaisyToolchain/0.2.0/arm/arm-none-eabi/include/c++/10.3.1/arm-none-eabi/thumb/v
 4626              		.file 50 "/Library/DaisyToolchain/0.2.0/arm/arm-none-eabi/include/c++/10.3.1/type_traits"
 4627              		.file 51 "/Library/DaisyToolchain/0.2.0/arm/arm-none-eabi/include/c++/10.3.1/bits/stl_pair.h"
 4628              		.file 52 "/Library/DaisyToolchain/0.2.0/arm/arm-none-eabi/include/c++/10.3.1/debug/debug.h"
 4629              		.file 53 "/Library/DaisyToolchain/0.2.0/arm/arm-none-eabi/include/c++/10.3.1/cwchar"
 4630              		.file 54 "/Library/DaisyToolchain/0.2.0/arm/arm-none-eabi/include/c++/10.3.1/bits/exception_ptr.h"
 4631              		.file 55 "/Library/DaisyToolchain/0.2.0/arm/arm-none-eabi/include/c++/10.3.1/clocale"
 4632              		.file 56 "/Library/DaisyToolchain/0.2.0/arm/arm-none-eabi/include/c++/10.3.1/cstdio"
 4633              		.file 57 "/Library/DaisyToolchain/0.2.0/arm/arm-none-eabi/include/c++/10.3.1/bits/basic_string.h"
 4634              		.file 58 "/Library/DaisyToolchain/0.2.0/arm/arm-none-eabi/include/c++/10.3.1/bits/stl_iterator.h"
 4635              		.file 59 "/Library/DaisyToolchain/0.2.0/arm/arm-none-eabi/include/c++/10.3.1/bits/algorithmfwd.h"
 4636              		.file 60 "/Library/DaisyToolchain/0.2.0/arm/arm-none-eabi/include/c++/10.3.1/cstring"
 4637              		.file 61 "/Library/DaisyToolchain/0.2.0/arm/arm-none-eabi/include/c++/10.3.1/initializer_list"
 4638              		.file 62 "/Library/DaisyToolchain/0.2.0/arm/arm-none-eabi/include/c++/10.3.1/cstdarg"
 4639              		.file 63 "/Library/DaisyToolchain/0.2.0/arm/arm-none-eabi/include/c++/10.3.1/bits/predefined_ops.h
 4640              		.file 64 "/Library/DaisyToolchain/0.2.0/arm/arm-none-eabi/include/sys/_types.h"
 4641              		.file 65 "/Library/DaisyToolchain/0.2.0/arm/arm-none-eabi/include/sys/reent.h"
 4642              		.file 66 "/Library/DaisyToolchain/0.2.0/arm/arm-none-eabi/include/sys/lock.h"
 4643              		.file 67 "/Library/DaisyToolchain/0.2.0/arm/arm-none-eabi/include/math.h"
 4644              		.file 68 "/Library/DaisyToolchain/0.2.0/arm/arm-none-eabi/include/stdlib.h"
 4645              		.file 69 "/Library/DaisyToolchain/0.2.0/arm/arm-none-eabi/include/c++/10.3.1/math.h"
 4646              		.file 70 "/Library/DaisyToolchain/0.2.0/arm/lib/gcc/arm-none-eabi/10.3.1/include/stdarg.h"
 4647              		.file 71 "/Library/DaisyToolchain/0.2.0/arm/arm-none-eabi/include/stdio.h"
 4648              		.file 72 "../DaisySP/Source/Control/adenv.h"
 4649              		.file 73 "../DaisySP/Source/Utility/dsp.h"
 4650              		.file 74 "/Library/DaisyToolchain/0.2.0/arm/arm-none-eabi/include/wchar.h"
 4651              		.file 75 "/Library/DaisyToolchain/0.2.0/arm/arm-none-eabi/include/time.h"
 4652              		.file 76 "/Library/DaisyToolchain/0.2.0/arm/arm-none-eabi/include/locale.h"
ARM GAS  /var/folders/2p/02m_5p7958535cp2tpgps0400000gn/T//ccf9gERz.s 			page 123


 4653              		.file 77 "/Library/DaisyToolchain/0.2.0/arm/arm-none-eabi/include/c++/10.3.1/stdlib.h"
 4654              		.file 78 "../DaisySP/Source/Effects/../../../src/sample.h"
 4655              		.file 79 "/Library/DaisyToolchain/0.2.0/arm/arm-none-eabi/include/string.h"
 4656              		.file 80 "../libDaisy/src/daisy_core.h"
 4657              		.file 81 "../libDaisy/src/per/tim.h"
 4658              		.file 82 "../libDaisy/src/hid/MidiEvent.h"
 4659              		.file 83 "../libDaisy/src/hid/logger_impl.h"
 4660              		.file 84 "../libDaisy/src/util/wav_format.h"
 4661              		.file 85 "../libDaisy/src/dev/max11300.h"
 4662              		.file 86 "../libDaisy/src/hid/logger.h"
 4663              		.file 87 "../libDaisy/src/per/gpio.h"
 4664              		.file 88 "../libDaisy/src/dev/sdram.h"
 4665              		.file 89 "../libDaisy/Middlewares/Third_Party/FatFs/src/integer.h"
 4666              		.file 90 "../libDaisy/Middlewares/Third_Party/FatFs/src/ff.h"
 4667              		.file 91 "constants_utils.h"
 4668              		.file 92 "../libDaisy/src/dev/sr_595.h"
 4669              		.file 93 "AppState.h"
 4670              		.file 94 "<built-in>"
ARM GAS  /var/folders/2p/02m_5p7958535cp2tpgps0400000gn/T//ccf9gERz.s 			page 124


DEFINED SYMBOLS
                            *ABS*:0000000000000000 main.cpp
/var/folders/2p/02m_5p7958535cp2tpgps0400000gn/T//ccf9gERz.s:19     .rodata._ZStL19piecewise_construct:0000000000000000 $d
/var/folders/2p/02m_5p7958535cp2tpgps0400000gn/T//ccf9gERz.s:22     .rodata._ZStL19piecewise_construct:0000000000000000 _ZStL19piecewise_construct
/var/folders/2p/02m_5p7958535cp2tpgps0400000gn/T//ccf9gERz.s:25     .text._ZL20__gthread_key_deletei:0000000000000000 $t
/var/folders/2p/02m_5p7958535cp2tpgps0400000gn/T//ccf9gERz.s:30     .text._ZL20__gthread_key_deletei:0000000000000000 _ZL20__gthread_key_deletei
/var/folders/2p/02m_5p7958535cp2tpgps0400000gn/T//ccf9gERz.s:63     .rodata._ZN7daisyspL9kRandFracE:0000000000000000 $d
/var/folders/2p/02m_5p7958535cp2tpgps0400000gn/T//ccf9gERz.s:66     .rodata._ZN7daisyspL9kRandFracE:0000000000000000 _ZN7daisyspL9kRandFracE
/var/folders/2p/02m_5p7958535cp2tpgps0400000gn/T//ccf9gERz.s:69     .rodata._ZN7daisyspL11kOneTwelfthE:0000000000000000 $d
/var/folders/2p/02m_5p7958535cp2tpgps0400000gn/T//ccf9gERz.s:72     .rodata._ZN7daisyspL11kOneTwelfthE:0000000000000000 _ZN7daisyspL11kOneTwelfthE
/var/folders/2p/02m_5p7958535cp2tpgps0400000gn/T//ccf9gERz.s:75     .text._ZN7daisysp7LimiterC2Ev:0000000000000000 $t
/var/folders/2p/02m_5p7958535cp2tpgps0400000gn/T//ccf9gERz.s:81     .text._ZN7daisysp7LimiterC2Ev:0000000000000000 _ZN7daisysp7LimiterC2Ev
/var/folders/2p/02m_5p7958535cp2tpgps0400000gn/T//ccf9gERz.s:81     .text._ZN7daisysp7LimiterC2Ev:0000000000000000 _ZN7daisysp7LimiterC1Ev
/var/folders/2p/02m_5p7958535cp2tpgps0400000gn/T//ccf9gERz.s:115    .text._ZN7daisysp7LimiterD2Ev:0000000000000000 $t
/var/folders/2p/02m_5p7958535cp2tpgps0400000gn/T//ccf9gERz.s:121    .text._ZN7daisysp7LimiterD2Ev:0000000000000000 _ZN7daisysp7LimiterD2Ev
/var/folders/2p/02m_5p7958535cp2tpgps0400000gn/T//ccf9gERz.s:121    .text._ZN7daisysp7LimiterD2Ev:0000000000000000 _ZN7daisysp7LimiterD1Ev
/var/folders/2p/02m_5p7958535cp2tpgps0400000gn/T//ccf9gERz.s:154    .text._ZN7daisysp12ChorusEngineC2Ev:0000000000000000 $t
/var/folders/2p/02m_5p7958535cp2tpgps0400000gn/T//ccf9gERz.s:160    .text._ZN7daisysp12ChorusEngineC2Ev:0000000000000000 _ZN7daisysp12ChorusEngineC2Ev
/var/folders/2p/02m_5p7958535cp2tpgps0400000gn/T//ccf9gERz.s:3863   .text._ZN7daisysp9DelayLineIfLj2400EEC2Ev:0000000000000000 _ZN7daisysp9DelayLineIfLj2400EEC1Ev
/var/folders/2p/02m_5p7958535cp2tpgps0400000gn/T//ccf9gERz.s:160    .text._ZN7daisysp12ChorusEngineC2Ev:0000000000000000 _ZN7daisysp12ChorusEngineC1Ev
/var/folders/2p/02m_5p7958535cp2tpgps0400000gn/T//ccf9gERz.s:198    .text._ZN7daisysp12ChorusEngineD2Ev:0000000000000000 $t
/var/folders/2p/02m_5p7958535cp2tpgps0400000gn/T//ccf9gERz.s:204    .text._ZN7daisysp12ChorusEngineD2Ev:0000000000000000 _ZN7daisysp12ChorusEngineD2Ev
/var/folders/2p/02m_5p7958535cp2tpgps0400000gn/T//ccf9gERz.s:3903   .text._ZN7daisysp9DelayLineIfLj2400EED2Ev:0000000000000000 _ZN7daisysp9DelayLineIfLj2400EED1Ev
/var/folders/2p/02m_5p7958535cp2tpgps0400000gn/T//ccf9gERz.s:204    .text._ZN7daisysp12ChorusEngineD2Ev:0000000000000000 _ZN7daisysp12ChorusEngineD1Ev
/var/folders/2p/02m_5p7958535cp2tpgps0400000gn/T//ccf9gERz.s:241    .text._ZN7daisysp6ChorusC2Ev:0000000000000000 $t
/var/folders/2p/02m_5p7958535cp2tpgps0400000gn/T//ccf9gERz.s:247    .text._ZN7daisysp6ChorusC2Ev:0000000000000000 _ZN7daisysp6ChorusC2Ev
/var/folders/2p/02m_5p7958535cp2tpgps0400000gn/T//ccf9gERz.s:247    .text._ZN7daisysp6ChorusC2Ev:0000000000000000 _ZN7daisysp6ChorusC1Ev
/var/folders/2p/02m_5p7958535cp2tpgps0400000gn/T//ccf9gERz.s:298    .text._ZN7daisysp6ChorusD2Ev:0000000000000000 $t
/var/folders/2p/02m_5p7958535cp2tpgps0400000gn/T//ccf9gERz.s:304    .text._ZN7daisysp6ChorusD2Ev:0000000000000000 _ZN7daisysp6ChorusD2Ev
/var/folders/2p/02m_5p7958535cp2tpgps0400000gn/T//ccf9gERz.s:355    .text._ZN7daisysp6ChorusD2Ev:0000000000000034 $d
/var/folders/2p/02m_5p7958535cp2tpgps0400000gn/T//ccf9gERz.s:304    .text._ZN7daisysp6ChorusD2Ev:0000000000000000 _ZN7daisysp6ChorusD1Ev
/var/folders/2p/02m_5p7958535cp2tpgps0400000gn/T//ccf9gERz.s:362    .text._ZN7daisysp7OnePoleC2Ev:0000000000000000 $t
/var/folders/2p/02m_5p7958535cp2tpgps0400000gn/T//ccf9gERz.s:368    .text._ZN7daisysp7OnePoleC2Ev:0000000000000000 _ZN7daisysp7OnePoleC2Ev
/var/folders/2p/02m_5p7958535cp2tpgps0400000gn/T//ccf9gERz.s:368    .text._ZN7daisysp7OnePoleC2Ev:0000000000000000 _ZN7daisysp7OnePoleC1Ev
/var/folders/2p/02m_5p7958535cp2tpgps0400000gn/T//ccf9gERz.s:402    .text._ZN7daisysp7OnePoleD2Ev:0000000000000000 $t
/var/folders/2p/02m_5p7958535cp2tpgps0400000gn/T//ccf9gERz.s:408    .text._ZN7daisysp7OnePoleD2Ev:0000000000000000 _ZN7daisysp7OnePoleD2Ev
/var/folders/2p/02m_5p7958535cp2tpgps0400000gn/T//ccf9gERz.s:408    .text._ZN7daisysp7OnePoleD2Ev:0000000000000000 _ZN7daisysp7OnePoleD1Ev
/var/folders/2p/02m_5p7958535cp2tpgps0400000gn/T//ccf9gERz.s:441    .text._ZN7daisysp21SmoothRandomGeneratorC2Ev:0000000000000000 $t
/var/folders/2p/02m_5p7958535cp2tpgps0400000gn/T//ccf9gERz.s:447    .text._ZN7daisysp21SmoothRandomGeneratorC2Ev:0000000000000000 _ZN7daisysp21SmoothRandomGeneratorC2Ev
/var/folders/2p/02m_5p7958535cp2tpgps0400000gn/T//ccf9gERz.s:447    .text._ZN7daisysp21SmoothRandomGeneratorC2Ev:0000000000000000 _ZN7daisysp21SmoothRandomGeneratorC1Ev
/var/folders/2p/02m_5p7958535cp2tpgps0400000gn/T//ccf9gERz.s:481    .text._ZN7daisysp21SmoothRandomGeneratorD2Ev:0000000000000000 $t
/var/folders/2p/02m_5p7958535cp2tpgps0400000gn/T//ccf9gERz.s:487    .text._ZN7daisysp21SmoothRandomGeneratorD2Ev:0000000000000000 _ZN7daisysp21SmoothRandomGeneratorD2Ev
/var/folders/2p/02m_5p7958535cp2tpgps0400000gn/T//ccf9gERz.s:487    .text._ZN7daisysp21SmoothRandomGeneratorD2Ev:0000000000000000 _ZN7daisysp21SmoothRandomGeneratorD1Ev
/var/folders/2p/02m_5p7958535cp2tpgps0400000gn/T//ccf9gERz.s:520    .text._ZN7daisysp10CompressorC2Ev:0000000000000000 $t
/var/folders/2p/02m_5p7958535cp2tpgps0400000gn/T//ccf9gERz.s:526    .text._ZN7daisysp10CompressorC2Ev:0000000000000000 _ZN7daisysp10CompressorC2Ev
/var/folders/2p/02m_5p7958535cp2tpgps0400000gn/T//ccf9gERz.s:526    .text._ZN7daisysp10CompressorC2Ev:0000000000000000 _ZN7daisysp10CompressorC1Ev
/var/folders/2p/02m_5p7958535cp2tpgps0400000gn/T//ccf9gERz.s:560    .text._ZN7daisysp10CompressorD2Ev:0000000000000000 $t
/var/folders/2p/02m_5p7958535cp2tpgps0400000gn/T//ccf9gERz.s:566    .text._ZN7daisysp10CompressorD2Ev:0000000000000000 _ZN7daisysp10CompressorD2Ev
/var/folders/2p/02m_5p7958535cp2tpgps0400000gn/T//ccf9gERz.s:566    .text._ZN7daisysp10CompressorD2Ev:0000000000000000 _ZN7daisysp10CompressorD1Ev
/var/folders/2p/02m_5p7958535cp2tpgps0400000gn/T//ccf9gERz.s:599    .text._ZN7daisysp8ReverbScC2Ev:0000000000000000 $t
/var/folders/2p/02m_5p7958535cp2tpgps0400000gn/T//ccf9gERz.s:605    .text._ZN7daisysp8ReverbScC2Ev:0000000000000000 _ZN7daisysp8ReverbScC2Ev
/var/folders/2p/02m_5p7958535cp2tpgps0400000gn/T//ccf9gERz.s:605    .text._ZN7daisysp8ReverbScC2Ev:0000000000000000 _ZN7daisysp8ReverbScC1Ev
/var/folders/2p/02m_5p7958535cp2tpgps0400000gn/T//ccf9gERz.s:639    .text._ZN7daisysp8ReverbScD2Ev:0000000000000000 $t
/var/folders/2p/02m_5p7958535cp2tpgps0400000gn/T//ccf9gERz.s:645    .text._ZN7daisysp8ReverbScD2Ev:0000000000000000 _ZN7daisysp8ReverbScD2Ev
/var/folders/2p/02m_5p7958535cp2tpgps0400000gn/T//ccf9gERz.s:645    .text._ZN7daisysp8ReverbScD2Ev:0000000000000000 _ZN7daisysp8ReverbScD1Ev
/var/folders/2p/02m_5p7958535cp2tpgps0400000gn/T//ccf9gERz.s:678    .text._ZN7daisysp10MoogLadderC2Ev:0000000000000000 $t
/var/folders/2p/02m_5p7958535cp2tpgps0400000gn/T//ccf9gERz.s:684    .text._ZN7daisysp10MoogLadderC2Ev:0000000000000000 _ZN7daisysp10MoogLadderC2Ev
ARM GAS  /var/folders/2p/02m_5p7958535cp2tpgps0400000gn/T//ccf9gERz.s 			page 125


/var/folders/2p/02m_5p7958535cp2tpgps0400000gn/T//ccf9gERz.s:684    .text._ZN7daisysp10MoogLadderC2Ev:0000000000000000 _ZN7daisysp10MoogLadderC1Ev
/var/folders/2p/02m_5p7958535cp2tpgps0400000gn/T//ccf9gERz.s:718    .text._ZN7daisysp10MoogLadderD2Ev:0000000000000000 $t
/var/folders/2p/02m_5p7958535cp2tpgps0400000gn/T//ccf9gERz.s:724    .text._ZN7daisysp10MoogLadderD2Ev:0000000000000000 _ZN7daisysp10MoogLadderD2Ev
/var/folders/2p/02m_5p7958535cp2tpgps0400000gn/T//ccf9gERz.s:724    .text._ZN7daisysp10MoogLadderD2Ev:0000000000000000 _ZN7daisysp10MoogLadderD1Ev
/var/folders/2p/02m_5p7958535cp2tpgps0400000gn/T//ccf9gERz.s:757    .text._ZN5daisy6SystemC2Ev:0000000000000000 $t
/var/folders/2p/02m_5p7958535cp2tpgps0400000gn/T//ccf9gERz.s:763    .text._ZN5daisy6SystemC2Ev:0000000000000000 _ZN5daisy6SystemC2Ev
/var/folders/2p/02m_5p7958535cp2tpgps0400000gn/T//ccf9gERz.s:763    .text._ZN5daisy6SystemC2Ev:0000000000000000 _ZN5daisy6SystemC1Ev
/var/folders/2p/02m_5p7958535cp2tpgps0400000gn/T//ccf9gERz.s:797    .text._ZN5daisy6SystemD2Ev:0000000000000000 $t
/var/folders/2p/02m_5p7958535cp2tpgps0400000gn/T//ccf9gERz.s:803    .text._ZN5daisy6SystemD2Ev:0000000000000000 _ZN5daisy6SystemD2Ev
/var/folders/2p/02m_5p7958535cp2tpgps0400000gn/T//ccf9gERz.s:803    .text._ZN5daisy6SystemD2Ev:0000000000000000 _ZN5daisy6SystemD1Ev
/var/folders/2p/02m_5p7958535cp2tpgps0400000gn/T//ccf9gERz.s:836    .text._ZN5daisy10QSPIHandleC2Ev:0000000000000000 $t
/var/folders/2p/02m_5p7958535cp2tpgps0400000gn/T//ccf9gERz.s:842    .text._ZN5daisy10QSPIHandleC2Ev:0000000000000000 _ZN5daisy10QSPIHandleC2Ev
/var/folders/2p/02m_5p7958535cp2tpgps0400000gn/T//ccf9gERz.s:842    .text._ZN5daisy10QSPIHandleC2Ev:0000000000000000 _ZN5daisy10QSPIHandleC1Ev
/var/folders/2p/02m_5p7958535cp2tpgps0400000gn/T//ccf9gERz.s:882    .text._ZN5daisy9DacHandleC2Ev:0000000000000000 $t
/var/folders/2p/02m_5p7958535cp2tpgps0400000gn/T//ccf9gERz.s:888    .text._ZN5daisy9DacHandleC2Ev:0000000000000000 _ZN5daisy9DacHandleC2Ev
/var/folders/2p/02m_5p7958535cp2tpgps0400000gn/T//ccf9gERz.s:888    .text._ZN5daisy9DacHandleC2Ev:0000000000000000 _ZN5daisy9DacHandleC1Ev
/var/folders/2p/02m_5p7958535cp2tpgps0400000gn/T//ccf9gERz.s:928    .text._ZN5daisy9SaiHandleC2Ev:0000000000000000 $t
/var/folders/2p/02m_5p7958535cp2tpgps0400000gn/T//ccf9gERz.s:934    .text._ZN5daisy9SaiHandleC2Ev:0000000000000000 _ZN5daisy9SaiHandleC2Ev
/var/folders/2p/02m_5p7958535cp2tpgps0400000gn/T//ccf9gERz.s:934    .text._ZN5daisy9SaiHandleC2Ev:0000000000000000 _ZN5daisy9SaiHandleC1Ev
/var/folders/2p/02m_5p7958535cp2tpgps0400000gn/T//ccf9gERz.s:974    .text._ZN5daisy11AudioHandleC2Ev:0000000000000000 $t
/var/folders/2p/02m_5p7958535cp2tpgps0400000gn/T//ccf9gERz.s:980    .text._ZN5daisy11AudioHandleC2Ev:0000000000000000 _ZN5daisy11AudioHandleC2Ev
/var/folders/2p/02m_5p7958535cp2tpgps0400000gn/T//ccf9gERz.s:980    .text._ZN5daisy11AudioHandleC2Ev:0000000000000000 _ZN5daisy11AudioHandleC1Ev
/var/folders/2p/02m_5p7958535cp2tpgps0400000gn/T//ccf9gERz.s:1020   .text._ZN5daisy11AudioHandleD2Ev:0000000000000000 $t
/var/folders/2p/02m_5p7958535cp2tpgps0400000gn/T//ccf9gERz.s:1026   .text._ZN5daisy11AudioHandleD2Ev:0000000000000000 _ZN5daisy11AudioHandleD2Ev
/var/folders/2p/02m_5p7958535cp2tpgps0400000gn/T//ccf9gERz.s:1026   .text._ZN5daisy11AudioHandleD2Ev:0000000000000000 _ZN5daisy11AudioHandleD1Ev
/var/folders/2p/02m_5p7958535cp2tpgps0400000gn/T//ccf9gERz.s:1059   .text._ZN5daisy9AdcHandleC2Ev:0000000000000000 $t
/var/folders/2p/02m_5p7958535cp2tpgps0400000gn/T//ccf9gERz.s:1065   .text._ZN5daisy9AdcHandleC2Ev:0000000000000000 _ZN5daisy9AdcHandleC2Ev
/var/folders/2p/02m_5p7958535cp2tpgps0400000gn/T//ccf9gERz.s:1065   .text._ZN5daisy9AdcHandleC2Ev:0000000000000000 _ZN5daisy9AdcHandleC1Ev
/var/folders/2p/02m_5p7958535cp2tpgps0400000gn/T//ccf9gERz.s:1099   .text._ZN5daisy9AdcHandleD2Ev:0000000000000000 $t
/var/folders/2p/02m_5p7958535cp2tpgps0400000gn/T//ccf9gERz.s:1105   .text._ZN5daisy9AdcHandleD2Ev:0000000000000000 _ZN5daisy9AdcHandleD2Ev
/var/folders/2p/02m_5p7958535cp2tpgps0400000gn/T//ccf9gERz.s:1105   .text._ZN5daisy9AdcHandleD2Ev:0000000000000000 _ZN5daisy9AdcHandleD1Ev
/var/folders/2p/02m_5p7958535cp2tpgps0400000gn/T//ccf9gERz.s:1138   .text._ZN5daisy11UartHandlerC2Ev:0000000000000000 $t
/var/folders/2p/02m_5p7958535cp2tpgps0400000gn/T//ccf9gERz.s:1144   .text._ZN5daisy11UartHandlerC2Ev:0000000000000000 _ZN5daisy11UartHandlerC2Ev
/var/folders/2p/02m_5p7958535cp2tpgps0400000gn/T//ccf9gERz.s:1144   .text._ZN5daisy11UartHandlerC2Ev:0000000000000000 _ZN5daisy11UartHandlerC1Ev
/var/folders/2p/02m_5p7958535cp2tpgps0400000gn/T//ccf9gERz.s:1184   .text._ZN5daisy10MidiParserC2Ev:0000000000000000 $t
/var/folders/2p/02m_5p7958535cp2tpgps0400000gn/T//ccf9gERz.s:1190   .text._ZN5daisy10MidiParserC2Ev:0000000000000000 _ZN5daisy10MidiParserC2Ev
/var/folders/2p/02m_5p7958535cp2tpgps0400000gn/T//ccf9gERz.s:1190   .text._ZN5daisy10MidiParserC2Ev:0000000000000000 _ZN5daisy10MidiParserC1Ev
/var/folders/2p/02m_5p7958535cp2tpgps0400000gn/T//ccf9gERz.s:1242   .text._ZN5daisy10MidiParserD2Ev:0000000000000000 $t
/var/folders/2p/02m_5p7958535cp2tpgps0400000gn/T//ccf9gERz.s:1248   .text._ZN5daisy10MidiParserD2Ev:0000000000000000 _ZN5daisy10MidiParserD2Ev
/var/folders/2p/02m_5p7958535cp2tpgps0400000gn/T//ccf9gERz.s:1248   .text._ZN5daisy10MidiParserD2Ev:0000000000000000 _ZN5daisy10MidiParserD1Ev
/var/folders/2p/02m_5p7958535cp2tpgps0400000gn/T//ccf9gERz.s:1281   .text._ZN5daisy9UsbHandleC2Ev:0000000000000000 $t
/var/folders/2p/02m_5p7958535cp2tpgps0400000gn/T//ccf9gERz.s:1287   .text._ZN5daisy9UsbHandleC2Ev:0000000000000000 _ZN5daisy9UsbHandleC2Ev
/var/folders/2p/02m_5p7958535cp2tpgps0400000gn/T//ccf9gERz.s:1287   .text._ZN5daisy9UsbHandleC2Ev:0000000000000000 _ZN5daisy9UsbHandleC1Ev
/var/folders/2p/02m_5p7958535cp2tpgps0400000gn/T//ccf9gERz.s:1321   .text._ZN5daisy9UsbHandleD2Ev:0000000000000000 $t
/var/folders/2p/02m_5p7958535cp2tpgps0400000gn/T//ccf9gERz.s:1327   .text._ZN5daisy9UsbHandleD2Ev:0000000000000000 _ZN5daisy9UsbHandleD2Ev
/var/folders/2p/02m_5p7958535cp2tpgps0400000gn/T//ccf9gERz.s:1327   .text._ZN5daisy9UsbHandleD2Ev:0000000000000000 _ZN5daisy9UsbHandleD1Ev
/var/folders/2p/02m_5p7958535cp2tpgps0400000gn/T//ccf9gERz.s:1360   .text._ZN5daisy17MidiUartTransportC2Ev:0000000000000000 $t
/var/folders/2p/02m_5p7958535cp2tpgps0400000gn/T//ccf9gERz.s:1366   .text._ZN5daisy17MidiUartTransportC2Ev:0000000000000000 _ZN5daisy17MidiUartTransportC2Ev
/var/folders/2p/02m_5p7958535cp2tpgps0400000gn/T//ccf9gERz.s:1366   .text._ZN5daisy17MidiUartTransportC2Ev:0000000000000000 _ZN5daisy17MidiUartTransportC1Ev
/var/folders/2p/02m_5p7958535cp2tpgps0400000gn/T//ccf9gERz.s:1403   .text._ZN5daisy17MidiUartTransportD2Ev:0000000000000000 $t
/var/folders/2p/02m_5p7958535cp2tpgps0400000gn/T//ccf9gERz.s:1409   .text._ZN5daisy17MidiUartTransportD2Ev:0000000000000000 _ZN5daisy17MidiUartTransportD2Ev
/var/folders/2p/02m_5p7958535cp2tpgps0400000gn/T//ccf9gERz.s:1409   .text._ZN5daisy17MidiUartTransportD2Ev:0000000000000000 _ZN5daisy17MidiUartTransportD1Ev
/var/folders/2p/02m_5p7958535cp2tpgps0400000gn/T//ccf9gERz.s:1442   .text._ZN5daisy6SwitchC2Ev:0000000000000000 $t
/var/folders/2p/02m_5p7958535cp2tpgps0400000gn/T//ccf9gERz.s:1448   .text._ZN5daisy6SwitchC2Ev:0000000000000000 _ZN5daisy6SwitchC2Ev
/var/folders/2p/02m_5p7958535cp2tpgps0400000gn/T//ccf9gERz.s:1448   .text._ZN5daisy6SwitchC2Ev:0000000000000000 _ZN5daisy6SwitchC1Ev
/var/folders/2p/02m_5p7958535cp2tpgps0400000gn/T//ccf9gERz.s:1482   .text._ZN5daisy6SwitchD2Ev:0000000000000000 $t
/var/folders/2p/02m_5p7958535cp2tpgps0400000gn/T//ccf9gERz.s:1488   .text._ZN5daisy6SwitchD2Ev:0000000000000000 _ZN5daisy6SwitchD2Ev
ARM GAS  /var/folders/2p/02m_5p7958535cp2tpgps0400000gn/T//ccf9gERz.s 			page 126


/var/folders/2p/02m_5p7958535cp2tpgps0400000gn/T//ccf9gERz.s:1488   .text._ZN5daisy6SwitchD2Ev:0000000000000000 _ZN5daisy6SwitchD1Ev
/var/folders/2p/02m_5p7958535cp2tpgps0400000gn/T//ccf9gERz.s:1521   .text._ZN5daisy7EncoderC2Ev:0000000000000000 $t
/var/folders/2p/02m_5p7958535cp2tpgps0400000gn/T//ccf9gERz.s:1527   .text._ZN5daisy7EncoderC2Ev:0000000000000000 _ZN5daisy7EncoderC2Ev
/var/folders/2p/02m_5p7958535cp2tpgps0400000gn/T//ccf9gERz.s:1527   .text._ZN5daisy7EncoderC2Ev:0000000000000000 _ZN5daisy7EncoderC1Ev
/var/folders/2p/02m_5p7958535cp2tpgps0400000gn/T//ccf9gERz.s:1565   .text._ZN5daisy7EncoderD2Ev:0000000000000000 $t
/var/folders/2p/02m_5p7958535cp2tpgps0400000gn/T//ccf9gERz.s:1571   .text._ZN5daisy7EncoderD2Ev:0000000000000000 _ZN5daisy7EncoderD2Ev
/var/folders/2p/02m_5p7958535cp2tpgps0400000gn/T//ccf9gERz.s:1571   .text._ZN5daisy7EncoderD2Ev:0000000000000000 _ZN5daisy7EncoderD1Ev
/var/folders/2p/02m_5p7958535cp2tpgps0400000gn/T//ccf9gERz.s:1608   .text._ZN5daisy13AnalogControlC2Ev:0000000000000000 $t
/var/folders/2p/02m_5p7958535cp2tpgps0400000gn/T//ccf9gERz.s:1614   .text._ZN5daisy13AnalogControlC2Ev:0000000000000000 _ZN5daisy13AnalogControlC2Ev
/var/folders/2p/02m_5p7958535cp2tpgps0400000gn/T//ccf9gERz.s:1614   .text._ZN5daisy13AnalogControlC2Ev:0000000000000000 _ZN5daisy13AnalogControlC1Ev
/var/folders/2p/02m_5p7958535cp2tpgps0400000gn/T//ccf9gERz.s:1648   .text._ZN5daisy13AnalogControlD2Ev:0000000000000000 $t
/var/folders/2p/02m_5p7958535cp2tpgps0400000gn/T//ccf9gERz.s:1654   .text._ZN5daisy13AnalogControlD2Ev:0000000000000000 _ZN5daisy13AnalogControlD2Ev
/var/folders/2p/02m_5p7958535cp2tpgps0400000gn/T//ccf9gERz.s:1654   .text._ZN5daisy13AnalogControlD2Ev:0000000000000000 _ZN5daisy13AnalogControlD1Ev
/var/folders/2p/02m_5p7958535cp2tpgps0400000gn/T//ccf9gERz.s:1687   .text._ZN5daisy12SdmmcHandlerC2Ev:0000000000000000 $t
/var/folders/2p/02m_5p7958535cp2tpgps0400000gn/T//ccf9gERz.s:1693   .text._ZN5daisy12SdmmcHandlerC2Ev:0000000000000000 _ZN5daisy12SdmmcHandlerC2Ev
/var/folders/2p/02m_5p7958535cp2tpgps0400000gn/T//ccf9gERz.s:1693   .text._ZN5daisy12SdmmcHandlerC2Ev:0000000000000000 _ZN5daisy12SdmmcHandlerC1Ev
/var/folders/2p/02m_5p7958535cp2tpgps0400000gn/T//ccf9gERz.s:1727   .text._ZN5daisy12SdmmcHandlerD2Ev:0000000000000000 $t
/var/folders/2p/02m_5p7958535cp2tpgps0400000gn/T//ccf9gERz.s:1733   .text._ZN5daisy12SdmmcHandlerD2Ev:0000000000000000 _ZN5daisy12SdmmcHandlerD2Ev
/var/folders/2p/02m_5p7958535cp2tpgps0400000gn/T//ccf9gERz.s:1733   .text._ZN5daisy12SdmmcHandlerD2Ev:0000000000000000 _ZN5daisy12SdmmcHandlerD1Ev
/var/folders/2p/02m_5p7958535cp2tpgps0400000gn/T//ccf9gERz.s:1766   .rodata._ZN5daisyL15kWavFileChunkIdE:0000000000000000 $d
/var/folders/2p/02m_5p7958535cp2tpgps0400000gn/T//ccf9gERz.s:1769   .rodata._ZN5daisyL15kWavFileChunkIdE:0000000000000000 _ZN5daisyL15kWavFileChunkIdE
/var/folders/2p/02m_5p7958535cp2tpgps0400000gn/T//ccf9gERz.s:1772   .rodata._ZN5daisyL14kWavFileWaveIdE:0000000000000000 $d
/var/folders/2p/02m_5p7958535cp2tpgps0400000gn/T//ccf9gERz.s:1775   .rodata._ZN5daisyL14kWavFileWaveIdE:0000000000000000 _ZN5daisyL14kWavFileWaveIdE
/var/folders/2p/02m_5p7958535cp2tpgps0400000gn/T//ccf9gERz.s:1778   .rodata._ZN5daisyL19kWavFileSubChunk1IdE:0000000000000000 $d
/var/folders/2p/02m_5p7958535cp2tpgps0400000gn/T//ccf9gERz.s:1781   .rodata._ZN5daisyL19kWavFileSubChunk1IdE:0000000000000000 _ZN5daisyL19kWavFileSubChunk1IdE
/var/folders/2p/02m_5p7958535cp2tpgps0400000gn/T//ccf9gERz.s:1784   .rodata._ZN5daisyL19kWavFileSubChunk2IdE:0000000000000000 $d
/var/folders/2p/02m_5p7958535cp2tpgps0400000gn/T//ccf9gERz.s:1787   .rodata._ZN5daisyL19kWavFileSubChunk2IdE:0000000000000000 _ZN5daisyL19kWavFileSubChunk2IdE
/var/folders/2p/02m_5p7958535cp2tpgps0400000gn/T//ccf9gERz.s:1790   .text._ZN5daisy3LedC2Ev:0000000000000000 $t
/var/folders/2p/02m_5p7958535cp2tpgps0400000gn/T//ccf9gERz.s:1796   .text._ZN5daisy3LedC2Ev:0000000000000000 _ZN5daisy3LedC2Ev
/var/folders/2p/02m_5p7958535cp2tpgps0400000gn/T//ccf9gERz.s:1796   .text._ZN5daisy3LedC2Ev:0000000000000000 _ZN5daisy3LedC1Ev
/var/folders/2p/02m_5p7958535cp2tpgps0400000gn/T//ccf9gERz.s:1830   .text._ZN5daisy3LedD2Ev:0000000000000000 $t
/var/folders/2p/02m_5p7958535cp2tpgps0400000gn/T//ccf9gERz.s:1836   .text._ZN5daisy3LedD2Ev:0000000000000000 _ZN5daisy3LedD2Ev
/var/folders/2p/02m_5p7958535cp2tpgps0400000gn/T//ccf9gERz.s:1836   .text._ZN5daisy3LedD2Ev:0000000000000000 _ZN5daisy3LedD1Ev
/var/folders/2p/02m_5p7958535cp2tpgps0400000gn/T//ccf9gERz.s:1869   .text._ZN5daisy5ColorC2Ev:0000000000000000 $t
/var/folders/2p/02m_5p7958535cp2tpgps0400000gn/T//ccf9gERz.s:1875   .text._ZN5daisy5ColorC2Ev:0000000000000000 _ZN5daisy5ColorC2Ev
/var/folders/2p/02m_5p7958535cp2tpgps0400000gn/T//ccf9gERz.s:1875   .text._ZN5daisy5ColorC2Ev:0000000000000000 _ZN5daisy5ColorC1Ev
/var/folders/2p/02m_5p7958535cp2tpgps0400000gn/T//ccf9gERz.s:1909   .text._ZN5daisy5ColorD2Ev:0000000000000000 $t
/var/folders/2p/02m_5p7958535cp2tpgps0400000gn/T//ccf9gERz.s:1915   .text._ZN5daisy5ColorD2Ev:0000000000000000 _ZN5daisy5ColorD2Ev
/var/folders/2p/02m_5p7958535cp2tpgps0400000gn/T//ccf9gERz.s:1915   .text._ZN5daisy5ColorD2Ev:0000000000000000 _ZN5daisy5ColorD1Ev
/var/folders/2p/02m_5p7958535cp2tpgps0400000gn/T//ccf9gERz.s:1948   .text._ZN5daisy6RgbLedC2Ev:0000000000000000 $t
/var/folders/2p/02m_5p7958535cp2tpgps0400000gn/T//ccf9gERz.s:1954   .text._ZN5daisy6RgbLedC2Ev:0000000000000000 _ZN5daisy6RgbLedC2Ev
/var/folders/2p/02m_5p7958535cp2tpgps0400000gn/T//ccf9gERz.s:1954   .text._ZN5daisy6RgbLedC2Ev:0000000000000000 _ZN5daisy6RgbLedC1Ev
/var/folders/2p/02m_5p7958535cp2tpgps0400000gn/T//ccf9gERz.s:1999   .text._ZN5daisy6RgbLedD2Ev:0000000000000000 $t
/var/folders/2p/02m_5p7958535cp2tpgps0400000gn/T//ccf9gERz.s:2005   .text._ZN5daisy6RgbLedD2Ev:0000000000000000 _ZN5daisy6RgbLedD2Ev
/var/folders/2p/02m_5p7958535cp2tpgps0400000gn/T//ccf9gERz.s:2005   .text._ZN5daisy6RgbLedD2Ev:0000000000000000 _ZN5daisy6RgbLedD1Ev
/var/folders/2p/02m_5p7958535cp2tpgps0400000gn/T//ccf9gERz.s:2049   .rodata._ZL19kMaxSr595DaisyChain:0000000000000000 $d
/var/folders/2p/02m_5p7958535cp2tpgps0400000gn/T//ccf9gERz.s:2052   .rodata._ZL19kMaxSr595DaisyChain:0000000000000000 _ZL19kMaxSr595DaisyChain
/var/folders/2p/02m_5p7958535cp2tpgps0400000gn/T//ccf9gERz.s:2055   .text._ZN5daisy12CpuLoadMeterC2Ev:0000000000000000 $t
/var/folders/2p/02m_5p7958535cp2tpgps0400000gn/T//ccf9gERz.s:2061   .text._ZN5daisy12CpuLoadMeterC2Ev:0000000000000000 _ZN5daisy12CpuLoadMeterC2Ev
/var/folders/2p/02m_5p7958535cp2tpgps0400000gn/T//ccf9gERz.s:2061   .text._ZN5daisy12CpuLoadMeterC2Ev:0000000000000000 _ZN5daisy12CpuLoadMeterC1Ev
/var/folders/2p/02m_5p7958535cp2tpgps0400000gn/T//ccf9gERz.s:2095   .text._ZN5daisy14FatFSInterfaceC2Ev:0000000000000000 $t
/var/folders/2p/02m_5p7958535cp2tpgps0400000gn/T//ccf9gERz.s:2101   .text._ZN5daisy14FatFSInterfaceC2Ev:0000000000000000 _ZN5daisy14FatFSInterfaceC2Ev
/var/folders/2p/02m_5p7958535cp2tpgps0400000gn/T//ccf9gERz.s:2101   .text._ZN5daisy14FatFSInterfaceC2Ev:0000000000000000 _ZN5daisy14FatFSInterfaceC1Ev
/var/folders/2p/02m_5p7958535cp2tpgps0400000gn/T//ccf9gERz.s:2135   .text._ZN5daisy9DaisySeedC2Ev:0000000000000000 $t
/var/folders/2p/02m_5p7958535cp2tpgps0400000gn/T//ccf9gERz.s:2141   .text._ZN5daisy9DaisySeedC2Ev:0000000000000000 _ZN5daisy9DaisySeedC2Ev
/var/folders/2p/02m_5p7958535cp2tpgps0400000gn/T//ccf9gERz.s:2141   .text._ZN5daisy9DaisySeedC2Ev:0000000000000000 _ZN5daisy9DaisySeedC1Ev
/var/folders/2p/02m_5p7958535cp2tpgps0400000gn/T//ccf9gERz.s:2202   .text._ZN5daisy9DaisySeedD2Ev:0000000000000000 $t
ARM GAS  /var/folders/2p/02m_5p7958535cp2tpgps0400000gn/T//ccf9gERz.s 			page 127


/var/folders/2p/02m_5p7958535cp2tpgps0400000gn/T//ccf9gERz.s:2208   .text._ZN5daisy9DaisySeedD2Ev:0000000000000000 _ZN5daisy9DaisySeedD2Ev
/var/folders/2p/02m_5p7958535cp2tpgps0400000gn/T//ccf9gERz.s:2208   .text._ZN5daisy9DaisySeedD2Ev:0000000000000000 _ZN5daisy9DaisySeedD1Ev
/var/folders/2p/02m_5p7958535cp2tpgps0400000gn/T//ccf9gERz.s:2257   .text._ZN5daisy9DaisySeed8StartLogEb:0000000000000000 $t
/var/folders/2p/02m_5p7958535cp2tpgps0400000gn/T//ccf9gERz.s:2263   .text._ZN5daisy9DaisySeed8StartLogEb:0000000000000000 _ZN5daisy9DaisySeed8StartLogEb
/var/folders/2p/02m_5p7958535cp2tpgps0400000gn/T//ccf9gERz.s:2295   .rodata._ZN5daisy4seedL2D0E:0000000000000000 $d
/var/folders/2p/02m_5p7958535cp2tpgps0400000gn/T//ccf9gERz.s:2298   .rodata._ZN5daisy4seedL2D0E:0000000000000000 _ZN5daisy4seedL2D0E
/var/folders/2p/02m_5p7958535cp2tpgps0400000gn/T//ccf9gERz.s:2302   .rodata._ZN5daisy4seedL2D1E:0000000000000000 $d
/var/folders/2p/02m_5p7958535cp2tpgps0400000gn/T//ccf9gERz.s:2305   .rodata._ZN5daisy4seedL2D1E:0000000000000000 _ZN5daisy4seedL2D1E
/var/folders/2p/02m_5p7958535cp2tpgps0400000gn/T//ccf9gERz.s:2309   .rodata._ZN5daisy4seedL2D2E:0000000000000000 $d
/var/folders/2p/02m_5p7958535cp2tpgps0400000gn/T//ccf9gERz.s:2312   .rodata._ZN5daisy4seedL2D2E:0000000000000000 _ZN5daisy4seedL2D2E
/var/folders/2p/02m_5p7958535cp2tpgps0400000gn/T//ccf9gERz.s:2316   .rodata._ZN5daisy4seedL2D3E:0000000000000000 $d
/var/folders/2p/02m_5p7958535cp2tpgps0400000gn/T//ccf9gERz.s:2319   .rodata._ZN5daisy4seedL2D3E:0000000000000000 _ZN5daisy4seedL2D3E
/var/folders/2p/02m_5p7958535cp2tpgps0400000gn/T//ccf9gERz.s:2323   .rodata._ZN5daisy4seedL2D4E:0000000000000000 $d
/var/folders/2p/02m_5p7958535cp2tpgps0400000gn/T//ccf9gERz.s:2326   .rodata._ZN5daisy4seedL2D4E:0000000000000000 _ZN5daisy4seedL2D4E
/var/folders/2p/02m_5p7958535cp2tpgps0400000gn/T//ccf9gERz.s:2330   .rodata._ZN5daisy4seedL2D5E:0000000000000000 $d
/var/folders/2p/02m_5p7958535cp2tpgps0400000gn/T//ccf9gERz.s:2333   .rodata._ZN5daisy4seedL2D5E:0000000000000000 _ZN5daisy4seedL2D5E
/var/folders/2p/02m_5p7958535cp2tpgps0400000gn/T//ccf9gERz.s:2337   .rodata._ZN5daisy4seedL2D6E:0000000000000000 $d
/var/folders/2p/02m_5p7958535cp2tpgps0400000gn/T//ccf9gERz.s:2340   .rodata._ZN5daisy4seedL2D6E:0000000000000000 _ZN5daisy4seedL2D6E
/var/folders/2p/02m_5p7958535cp2tpgps0400000gn/T//ccf9gERz.s:2344   .rodata._ZN5daisy4seedL2D7E:0000000000000000 $d
/var/folders/2p/02m_5p7958535cp2tpgps0400000gn/T//ccf9gERz.s:2347   .rodata._ZN5daisy4seedL2D7E:0000000000000000 _ZN5daisy4seedL2D7E
/var/folders/2p/02m_5p7958535cp2tpgps0400000gn/T//ccf9gERz.s:2351   .rodata._ZN5daisy4seedL2D8E:0000000000000000 $d
/var/folders/2p/02m_5p7958535cp2tpgps0400000gn/T//ccf9gERz.s:2354   .rodata._ZN5daisy4seedL2D8E:0000000000000000 _ZN5daisy4seedL2D8E
/var/folders/2p/02m_5p7958535cp2tpgps0400000gn/T//ccf9gERz.s:2358   .rodata._ZN5daisy4seedL2D9E:0000000000000000 $d
/var/folders/2p/02m_5p7958535cp2tpgps0400000gn/T//ccf9gERz.s:2361   .rodata._ZN5daisy4seedL2D9E:0000000000000000 _ZN5daisy4seedL2D9E
/var/folders/2p/02m_5p7958535cp2tpgps0400000gn/T//ccf9gERz.s:2365   .rodata._ZN5daisy4seedL3D10E:0000000000000000 $d
/var/folders/2p/02m_5p7958535cp2tpgps0400000gn/T//ccf9gERz.s:2368   .rodata._ZN5daisy4seedL3D10E:0000000000000000 _ZN5daisy4seedL3D10E
/var/folders/2p/02m_5p7958535cp2tpgps0400000gn/T//ccf9gERz.s:2372   .rodata._ZN5daisy4seedL3D11E:0000000000000000 $d
/var/folders/2p/02m_5p7958535cp2tpgps0400000gn/T//ccf9gERz.s:2375   .rodata._ZN5daisy4seedL3D11E:0000000000000000 _ZN5daisy4seedL3D11E
/var/folders/2p/02m_5p7958535cp2tpgps0400000gn/T//ccf9gERz.s:2379   .rodata._ZN5daisy4seedL3D12E:0000000000000000 $d
/var/folders/2p/02m_5p7958535cp2tpgps0400000gn/T//ccf9gERz.s:2382   .rodata._ZN5daisy4seedL3D12E:0000000000000000 _ZN5daisy4seedL3D12E
/var/folders/2p/02m_5p7958535cp2tpgps0400000gn/T//ccf9gERz.s:2386   .rodata._ZN5daisy4seedL3D13E:0000000000000000 $d
/var/folders/2p/02m_5p7958535cp2tpgps0400000gn/T//ccf9gERz.s:2389   .rodata._ZN5daisy4seedL3D13E:0000000000000000 _ZN5daisy4seedL3D13E
/var/folders/2p/02m_5p7958535cp2tpgps0400000gn/T//ccf9gERz.s:2393   .rodata._ZN5daisy4seedL3D14E:0000000000000000 $d
/var/folders/2p/02m_5p7958535cp2tpgps0400000gn/T//ccf9gERz.s:2396   .rodata._ZN5daisy4seedL3D14E:0000000000000000 _ZN5daisy4seedL3D14E
/var/folders/2p/02m_5p7958535cp2tpgps0400000gn/T//ccf9gERz.s:2400   .rodata._ZN5daisy4seedL3D15E:0000000000000000 $d
/var/folders/2p/02m_5p7958535cp2tpgps0400000gn/T//ccf9gERz.s:2403   .rodata._ZN5daisy4seedL3D15E:0000000000000000 _ZN5daisy4seedL3D15E
/var/folders/2p/02m_5p7958535cp2tpgps0400000gn/T//ccf9gERz.s:2407   .rodata._ZN5daisy4seedL3D16E:0000000000000000 $d
/var/folders/2p/02m_5p7958535cp2tpgps0400000gn/T//ccf9gERz.s:2410   .rodata._ZN5daisy4seedL3D16E:0000000000000000 _ZN5daisy4seedL3D16E
/var/folders/2p/02m_5p7958535cp2tpgps0400000gn/T//ccf9gERz.s:2414   .rodata._ZN5daisy4seedL3D17E:0000000000000000 $d
/var/folders/2p/02m_5p7958535cp2tpgps0400000gn/T//ccf9gERz.s:2417   .rodata._ZN5daisy4seedL3D17E:0000000000000000 _ZN5daisy4seedL3D17E
/var/folders/2p/02m_5p7958535cp2tpgps0400000gn/T//ccf9gERz.s:2421   .rodata._ZN5daisy4seedL3D18E:0000000000000000 $d
/var/folders/2p/02m_5p7958535cp2tpgps0400000gn/T//ccf9gERz.s:2424   .rodata._ZN5daisy4seedL3D18E:0000000000000000 _ZN5daisy4seedL3D18E
/var/folders/2p/02m_5p7958535cp2tpgps0400000gn/T//ccf9gERz.s:2428   .rodata._ZN5daisy4seedL3D19E:0000000000000000 $d
/var/folders/2p/02m_5p7958535cp2tpgps0400000gn/T//ccf9gERz.s:2431   .rodata._ZN5daisy4seedL3D19E:0000000000000000 _ZN5daisy4seedL3D19E
/var/folders/2p/02m_5p7958535cp2tpgps0400000gn/T//ccf9gERz.s:2435   .rodata._ZN5daisy4seedL3D20E:0000000000000000 $d
/var/folders/2p/02m_5p7958535cp2tpgps0400000gn/T//ccf9gERz.s:2438   .rodata._ZN5daisy4seedL3D20E:0000000000000000 _ZN5daisy4seedL3D20E
/var/folders/2p/02m_5p7958535cp2tpgps0400000gn/T//ccf9gERz.s:2442   .rodata._ZN5daisy4seedL3D21E:0000000000000000 $d
/var/folders/2p/02m_5p7958535cp2tpgps0400000gn/T//ccf9gERz.s:2445   .rodata._ZN5daisy4seedL3D21E:0000000000000000 _ZN5daisy4seedL3D21E
/var/folders/2p/02m_5p7958535cp2tpgps0400000gn/T//ccf9gERz.s:2449   .rodata._ZN5daisy4seedL3D22E:0000000000000000 $d
/var/folders/2p/02m_5p7958535cp2tpgps0400000gn/T//ccf9gERz.s:2452   .rodata._ZN5daisy4seedL3D22E:0000000000000000 _ZN5daisy4seedL3D22E
/var/folders/2p/02m_5p7958535cp2tpgps0400000gn/T//ccf9gERz.s:2456   .rodata._ZN5daisy4seedL3D23E:0000000000000000 $d
/var/folders/2p/02m_5p7958535cp2tpgps0400000gn/T//ccf9gERz.s:2459   .rodata._ZN5daisy4seedL3D23E:0000000000000000 _ZN5daisy4seedL3D23E
/var/folders/2p/02m_5p7958535cp2tpgps0400000gn/T//ccf9gERz.s:2463   .rodata._ZN5daisy4seedL3D24E:0000000000000000 $d
/var/folders/2p/02m_5p7958535cp2tpgps0400000gn/T//ccf9gERz.s:2466   .rodata._ZN5daisy4seedL3D24E:0000000000000000 _ZN5daisy4seedL3D24E
/var/folders/2p/02m_5p7958535cp2tpgps0400000gn/T//ccf9gERz.s:2470   .rodata._ZN5daisy4seedL3D25E:0000000000000000 $d
/var/folders/2p/02m_5p7958535cp2tpgps0400000gn/T//ccf9gERz.s:2473   .rodata._ZN5daisy4seedL3D25E:0000000000000000 _ZN5daisy4seedL3D25E
/var/folders/2p/02m_5p7958535cp2tpgps0400000gn/T//ccf9gERz.s:2476   .rodata._ZN5daisy4seedL3D26E:0000000000000000 $d
ARM GAS  /var/folders/2p/02m_5p7958535cp2tpgps0400000gn/T//ccf9gERz.s 			page 128


/var/folders/2p/02m_5p7958535cp2tpgps0400000gn/T//ccf9gERz.s:2479   .rodata._ZN5daisy4seedL3D26E:0000000000000000 _ZN5daisy4seedL3D26E
/var/folders/2p/02m_5p7958535cp2tpgps0400000gn/T//ccf9gERz.s:2483   .rodata._ZN5daisy4seedL3D27E:0000000000000000 $d
/var/folders/2p/02m_5p7958535cp2tpgps0400000gn/T//ccf9gERz.s:2486   .rodata._ZN5daisy4seedL3D27E:0000000000000000 _ZN5daisy4seedL3D27E
/var/folders/2p/02m_5p7958535cp2tpgps0400000gn/T//ccf9gERz.s:2490   .rodata._ZN5daisy4seedL3D28E:0000000000000000 $d
/var/folders/2p/02m_5p7958535cp2tpgps0400000gn/T//ccf9gERz.s:2493   .rodata._ZN5daisy4seedL3D28E:0000000000000000 _ZN5daisy4seedL3D28E
/var/folders/2p/02m_5p7958535cp2tpgps0400000gn/T//ccf9gERz.s:2497   .rodata._ZN5daisy4seedL3D29E:0000000000000000 $d
/var/folders/2p/02m_5p7958535cp2tpgps0400000gn/T//ccf9gERz.s:2500   .rodata._ZN5daisy4seedL3D29E:0000000000000000 _ZN5daisy4seedL3D29E
/var/folders/2p/02m_5p7958535cp2tpgps0400000gn/T//ccf9gERz.s:2504   .rodata._ZN5daisy4seedL3D30E:0000000000000000 $d
/var/folders/2p/02m_5p7958535cp2tpgps0400000gn/T//ccf9gERz.s:2507   .rodata._ZN5daisy4seedL3D30E:0000000000000000 _ZN5daisy4seedL3D30E
/var/folders/2p/02m_5p7958535cp2tpgps0400000gn/T//ccf9gERz.s:2511   .rodata._ZN5daisy4seedL2A0E:0000000000000000 $d
/var/folders/2p/02m_5p7958535cp2tpgps0400000gn/T//ccf9gERz.s:2514   .rodata._ZN5daisy4seedL2A0E:0000000000000000 _ZN5daisy4seedL2A0E
/var/folders/2p/02m_5p7958535cp2tpgps0400000gn/T//ccf9gERz.s:2518   .rodata._ZN5daisy4seedL2A1E:0000000000000000 $d
/var/folders/2p/02m_5p7958535cp2tpgps0400000gn/T//ccf9gERz.s:2521   .rodata._ZN5daisy4seedL2A1E:0000000000000000 _ZN5daisy4seedL2A1E
/var/folders/2p/02m_5p7958535cp2tpgps0400000gn/T//ccf9gERz.s:2525   .rodata._ZN5daisy4seedL2A2E:0000000000000000 $d
/var/folders/2p/02m_5p7958535cp2tpgps0400000gn/T//ccf9gERz.s:2528   .rodata._ZN5daisy4seedL2A2E:0000000000000000 _ZN5daisy4seedL2A2E
/var/folders/2p/02m_5p7958535cp2tpgps0400000gn/T//ccf9gERz.s:2532   .rodata._ZN5daisy4seedL2A3E:0000000000000000 $d
/var/folders/2p/02m_5p7958535cp2tpgps0400000gn/T//ccf9gERz.s:2535   .rodata._ZN5daisy4seedL2A3E:0000000000000000 _ZN5daisy4seedL2A3E
/var/folders/2p/02m_5p7958535cp2tpgps0400000gn/T//ccf9gERz.s:2539   .rodata._ZN5daisy4seedL2A4E:0000000000000000 $d
/var/folders/2p/02m_5p7958535cp2tpgps0400000gn/T//ccf9gERz.s:2542   .rodata._ZN5daisy4seedL2A4E:0000000000000000 _ZN5daisy4seedL2A4E
/var/folders/2p/02m_5p7958535cp2tpgps0400000gn/T//ccf9gERz.s:2546   .rodata._ZN5daisy4seedL2A5E:0000000000000000 $d
/var/folders/2p/02m_5p7958535cp2tpgps0400000gn/T//ccf9gERz.s:2549   .rodata._ZN5daisy4seedL2A5E:0000000000000000 _ZN5daisy4seedL2A5E
/var/folders/2p/02m_5p7958535cp2tpgps0400000gn/T//ccf9gERz.s:2553   .rodata._ZN5daisy4seedL2A6E:0000000000000000 $d
/var/folders/2p/02m_5p7958535cp2tpgps0400000gn/T//ccf9gERz.s:2556   .rodata._ZN5daisy4seedL2A6E:0000000000000000 _ZN5daisy4seedL2A6E
/var/folders/2p/02m_5p7958535cp2tpgps0400000gn/T//ccf9gERz.s:2560   .rodata._ZN5daisy4seedL2A7E:0000000000000000 $d
/var/folders/2p/02m_5p7958535cp2tpgps0400000gn/T//ccf9gERz.s:2563   .rodata._ZN5daisy4seedL2A7E:0000000000000000 _ZN5daisy4seedL2A7E
/var/folders/2p/02m_5p7958535cp2tpgps0400000gn/T//ccf9gERz.s:2567   .rodata._ZN5daisy4seedL2A8E:0000000000000000 $d
/var/folders/2p/02m_5p7958535cp2tpgps0400000gn/T//ccf9gERz.s:2570   .rodata._ZN5daisy4seedL2A8E:0000000000000000 _ZN5daisy4seedL2A8E
/var/folders/2p/02m_5p7958535cp2tpgps0400000gn/T//ccf9gERz.s:2574   .rodata._ZN5daisy4seedL2A9E:0000000000000000 $d
/var/folders/2p/02m_5p7958535cp2tpgps0400000gn/T//ccf9gERz.s:2577   .rodata._ZN5daisy4seedL2A9E:0000000000000000 _ZN5daisy4seedL2A9E
/var/folders/2p/02m_5p7958535cp2tpgps0400000gn/T//ccf9gERz.s:2581   .rodata._ZN5daisy4seedL3A10E:0000000000000000 $d
/var/folders/2p/02m_5p7958535cp2tpgps0400000gn/T//ccf9gERz.s:2584   .rodata._ZN5daisy4seedL3A10E:0000000000000000 _ZN5daisy4seedL3A10E
/var/folders/2p/02m_5p7958535cp2tpgps0400000gn/T//ccf9gERz.s:2587   .rodata._ZN5daisy4seedL3A11E:0000000000000000 $d
/var/folders/2p/02m_5p7958535cp2tpgps0400000gn/T//ccf9gERz.s:2590   .rodata._ZN5daisy4seedL3A11E:0000000000000000 _ZN5daisy4seedL3A11E
/var/folders/2p/02m_5p7958535cp2tpgps0400000gn/T//ccf9gERz.s:2594   .rodata._ZN5daisy4seedL3D31E:0000000000000000 $d
/var/folders/2p/02m_5p7958535cp2tpgps0400000gn/T//ccf9gERz.s:2597   .rodata._ZN5daisy4seedL3D31E:0000000000000000 _ZN5daisy4seedL3D31E
/var/folders/2p/02m_5p7958535cp2tpgps0400000gn/T//ccf9gERz.s:2601   .rodata._ZN5daisy4seedL3D32E:0000000000000000 $d
/var/folders/2p/02m_5p7958535cp2tpgps0400000gn/T//ccf9gERz.s:2604   .rodata._ZN5daisy4seedL3D32E:0000000000000000 _ZN5daisy4seedL3D32E
/var/folders/2p/02m_5p7958535cp2tpgps0400000gn/T//ccf9gERz.s:2608   .rodata._ZN5daisy4seedL3A12E:0000000000000000 $d
/var/folders/2p/02m_5p7958535cp2tpgps0400000gn/T//ccf9gERz.s:2611   .rodata._ZN5daisy4seedL3A12E:0000000000000000 _ZN5daisy4seedL3A12E
/var/folders/2p/02m_5p7958535cp2tpgps0400000gn/T//ccf9gERz.s:2615   .rodata._ZN5daisy4seedL3A13E:0000000000000000 $d
/var/folders/2p/02m_5p7958535cp2tpgps0400000gn/T//ccf9gERz.s:2618   .rodata._ZN5daisy4seedL3A13E:0000000000000000 _ZN5daisy4seedL3A13E
/var/folders/2p/02m_5p7958535cp2tpgps0400000gn/T//ccf9gERz.s:2622   .text._ZN5daisy8DaisyPodC2Ev:0000000000000000 $t
/var/folders/2p/02m_5p7958535cp2tpgps0400000gn/T//ccf9gERz.s:2628   .text._ZN5daisy8DaisyPodC2Ev:0000000000000000 _ZN5daisy8DaisyPodC2Ev
/var/folders/2p/02m_5p7958535cp2tpgps0400000gn/T//ccf9gERz.s:4025   .text._ZN5daisy11MidiHandlerINS_17MidiUartTransportEEC2Ev:0000000000000000 _ZN5daisy11MidiHandlerINS_17MidiUartTransportEEC1Ev
/var/folders/2p/02m_5p7958535cp2tpgps0400000gn/T//ccf9gERz.s:2628   .text._ZN5daisy8DaisyPodC2Ev:0000000000000000 _ZN5daisy8DaisyPodC1Ev
/var/folders/2p/02m_5p7958535cp2tpgps0400000gn/T//ccf9gERz.s:2697   .text._ZN5daisy8DaisyPodD2Ev:0000000000000000 $t
/var/folders/2p/02m_5p7958535cp2tpgps0400000gn/T//ccf9gERz.s:2703   .text._ZN5daisy8DaisyPodD2Ev:0000000000000000 _ZN5daisy8DaisyPodD2Ev
/var/folders/2p/02m_5p7958535cp2tpgps0400000gn/T//ccf9gERz.s:4079   .text._ZN5daisy11MidiHandlerINS_17MidiUartTransportEED2Ev:0000000000000000 _ZN5daisy11MidiHandlerINS_17MidiUartTransportEED1Ev
/var/folders/2p/02m_5p7958535cp2tpgps0400000gn/T//ccf9gERz.s:2703   .text._ZN5daisy8DaisyPodD2Ev:0000000000000000 _ZN5daisy8DaisyPodD1Ev
/var/folders/2p/02m_5p7958535cp2tpgps0400000gn/T//ccf9gERz.s:2771   .rodata._ZL11SAMPLE_RATE:0000000000000000 $d
/var/folders/2p/02m_5p7958535cp2tpgps0400000gn/T//ccf9gERz.s:2774   .rodata._ZL11SAMPLE_RATE:0000000000000000 _ZL11SAMPLE_RATE
/var/folders/2p/02m_5p7958535cp2tpgps0400000gn/T//ccf9gERz.s:2777   .rodata._ZL17SAMPLE_RATE_FLOAT:0000000000000000 $d
/var/folders/2p/02m_5p7958535cp2tpgps0400000gn/T//ccf9gERz.s:2780   .rodata._ZL17SAMPLE_RATE_FLOAT:0000000000000000 _ZL17SAMPLE_RATE_FLOAT
/var/folders/2p/02m_5p7958535cp2tpgps0400000gn/T//ccf9gERz.s:2783   .rodata._ZL9BIT_DEPTH:0000000000000000 $d
/var/folders/2p/02m_5p7958535cp2tpgps0400000gn/T//ccf9gERz.s:2786   .rodata._ZL9BIT_DEPTH:0000000000000000 _ZL9BIT_DEPTH
/var/folders/2p/02m_5p7958535cp2tpgps0400000gn/T//ccf9gERz.s:2789   .rodata._ZL10DELAY_TIME:0000000000000000 $d
/var/folders/2p/02m_5p7958535cp2tpgps0400000gn/T//ccf9gERz.s:2792   .rodata._ZL10DELAY_TIME:0000000000000000 _ZL10DELAY_TIME
ARM GAS  /var/folders/2p/02m_5p7958535cp2tpgps0400000gn/T//ccf9gERz.s 			page 129


/var/folders/2p/02m_5p7958535cp2tpgps0400000gn/T//ccf9gERz.s:2795   .rodata._ZL15MAX_REC_OUT_LEN:0000000000000000 $d
/var/folders/2p/02m_5p7958535cp2tpgps0400000gn/T//ccf9gERz.s:2798   .rodata._ZL15MAX_REC_OUT_LEN:0000000000000000 _ZL15MAX_REC_OUT_LEN
/var/folders/2p/02m_5p7958535cp2tpgps0400000gn/T//ccf9gERz.s:2801   .rodata._ZL17CHNL_BUF_SIZE_ABS:0000000000000000 $d
/var/folders/2p/02m_5p7958535cp2tpgps0400000gn/T//ccf9gERz.s:2804   .rodata._ZL17CHNL_BUF_SIZE_ABS:0000000000000000 _ZL17CHNL_BUF_SIZE_ABS
/var/folders/2p/02m_5p7958535cp2tpgps0400000gn/T//ccf9gERz.s:2807   .rodata._ZL19CHNL_BUF_SIZE_SAMPS:0000000000000000 $d
/var/folders/2p/02m_5p7958535cp2tpgps0400000gn/T//ccf9gERz.s:2810   .rodata._ZL19CHNL_BUF_SIZE_SAMPS:0000000000000000 _ZL19CHNL_BUF_SIZE_SAMPS
/var/folders/2p/02m_5p7958535cp2tpgps0400000gn/T//ccf9gERz.s:2813   .rodata._ZL12BUF_CHUNK_SZ:0000000000000000 $d
/var/folders/2p/02m_5p7958535cp2tpgps0400000gn/T//ccf9gERz.s:2816   .rodata._ZL12BUF_CHUNK_SZ:0000000000000000 _ZL12BUF_CHUNK_SZ
/var/folders/2p/02m_5p7958535cp2tpgps0400000gn/T//ccf9gERz.s:2819   .rodata._ZL9MAX_FILES:0000000000000000 $d
/var/folders/2p/02m_5p7958535cp2tpgps0400000gn/T//ccf9gERz.s:2822   .rodata._ZL9MAX_FILES:0000000000000000 _ZL9MAX_FILES
/var/folders/2p/02m_5p7958535cp2tpgps0400000gn/T//ccf9gERz.s:2825   .rodata._ZL13MAX_FNAME_LEN:0000000000000000 $d
/var/folders/2p/02m_5p7958535cp2tpgps0400000gn/T//ccf9gERz.s:2828   .rodata._ZL13MAX_FNAME_LEN:0000000000000000 _ZL13MAX_FNAME_LEN
/var/folders/2p/02m_5p7958535cp2tpgps0400000gn/T//ccf9gERz.s:2831   .rodata._ZL10MIN_GRAINS:0000000000000000 $d
/var/folders/2p/02m_5p7958535cp2tpgps0400000gn/T//ccf9gERz.s:2834   .rodata._ZL10MIN_GRAINS:0000000000000000 _ZL10MIN_GRAINS
/var/folders/2p/02m_5p7958535cp2tpgps0400000gn/T//ccf9gERz.s:2837   .rodata._ZL10MAX_GRAINS:0000000000000000 $d
/var/folders/2p/02m_5p7958535cp2tpgps0400000gn/T//ccf9gERz.s:2840   .rodata._ZL10MAX_GRAINS:0000000000000000 _ZL10MAX_GRAINS
/var/folders/2p/02m_5p7958535cp2tpgps0400000gn/T//ccf9gERz.s:2843   .rodata._ZL25GRAIN_INCREASE_SMOOTHNESS:0000000000000000 $d
/var/folders/2p/02m_5p7958535cp2tpgps0400000gn/T//ccf9gERz.s:2846   .rodata._ZL25GRAIN_INCREASE_SMOOTHNESS:0000000000000000 _ZL25GRAIN_INCREASE_SMOOTHNESS
/var/folders/2p/02m_5p7958535cp2tpgps0400000gn/T//ccf9gERz.s:2849   .rodata._ZL15NUM_SYNTH_MODES:0000000000000000 $d
/var/folders/2p/02m_5p7958535cp2tpgps0400000gn/T//ccf9gERz.s:2852   .rodata._ZL15NUM_SYNTH_MODES:0000000000000000 _ZL15NUM_SYNTH_MODES
/var/folders/2p/02m_5p7958535cp2tpgps0400000gn/T//ccf9gERz.s:2855   .rodata._ZL22PARAM_CHANGE_THRESHOLD:0000000000000000 $d
/var/folders/2p/02m_5p7958535cp2tpgps0400000gn/T//ccf9gERz.s:2858   .rodata._ZL22PARAM_CHANGE_THRESHOLD:0000000000000000 _ZL22PARAM_CHANGE_THRESHOLD
/var/folders/2p/02m_5p7958535cp2tpgps0400000gn/T//ccf9gERz.s:2861   .rodata._ZL17MIN_GRAIN_SIZE_MS:0000000000000000 $d
/var/folders/2p/02m_5p7958535cp2tpgps0400000gn/T//ccf9gERz.s:2864   .rodata._ZL17MIN_GRAIN_SIZE_MS:0000000000000000 _ZL17MIN_GRAIN_SIZE_MS
/var/folders/2p/02m_5p7958535cp2tpgps0400000gn/T//ccf9gERz.s:2867   .rodata._ZL17MAX_GRAIN_SIZE_MS:0000000000000000 $d
/var/folders/2p/02m_5p7958535cp2tpgps0400000gn/T//ccf9gERz.s:2870   .rodata._ZL17MAX_GRAIN_SIZE_MS:0000000000000000 _ZL17MAX_GRAIN_SIZE_MS
/var/folders/2p/02m_5p7958535cp2tpgps0400000gn/T//ccf9gERz.s:2873   .rodata._ZL22MIN_GRAIN_SIZE_SAMPLES:0000000000000000 $d
/var/folders/2p/02m_5p7958535cp2tpgps0400000gn/T//ccf9gERz.s:2876   .rodata._ZL22MIN_GRAIN_SIZE_SAMPLES:0000000000000000 _ZL22MIN_GRAIN_SIZE_SAMPLES
/var/folders/2p/02m_5p7958535cp2tpgps0400000gn/T//ccf9gERz.s:2879   .rodata._ZL22MAX_GRAIN_SIZE_SAMPLES:0000000000000000 $d
/var/folders/2p/02m_5p7958535cp2tpgps0400000gn/T//ccf9gERz.s:2882   .rodata._ZL22MAX_GRAIN_SIZE_SAMPLES:0000000000000000 _ZL22MAX_GRAIN_SIZE_SAMPLES
/var/folders/2p/02m_5p7958535cp2tpgps0400000gn/T//ccf9gERz.s:2885   .rodata._ZL9MIN_PITCH:0000000000000000 $d
/var/folders/2p/02m_5p7958535cp2tpgps0400000gn/T//ccf9gERz.s:2888   .rodata._ZL9MIN_PITCH:0000000000000000 _ZL9MIN_PITCH
/var/folders/2p/02m_5p7958535cp2tpgps0400000gn/T//ccf9gERz.s:2891   .rodata._ZL9MAX_PITCH:0000000000000000 $d
/var/folders/2p/02m_5p7958535cp2tpgps0400000gn/T//ccf9gERz.s:2894   .rodata._ZL9MAX_PITCH:0000000000000000 _ZL9MAX_PITCH
/var/folders/2p/02m_5p7958535cp2tpgps0400000gn/T//ccf9gERz.s:2897   .rodata._ZL14DEBOUNCE_DELAY:0000000000000000 $d
/var/folders/2p/02m_5p7958535cp2tpgps0400000gn/T//ccf9gERz.s:2900   .rodata._ZL14DEBOUNCE_DELAY:0000000000000000 _ZL14DEBOUNCE_DELAY
/var/folders/2p/02m_5p7958535cp2tpgps0400000gn/T//ccf9gERz.s:2903   .rodata._ZL15LONG_PRESS_TIME:0000000000000000 $d
/var/folders/2p/02m_5p7958535cp2tpgps0400000gn/T//ccf9gERz.s:2906   .rodata._ZL15LONG_PRESS_TIME:0000000000000000 _ZL15LONG_PRESS_TIME
/var/folders/2p/02m_5p7958535cp2tpgps0400000gn/T//ccf9gERz.s:2909   .rodata._ZL18HIPASS_LOWER_BOUND:0000000000000000 $d
/var/folders/2p/02m_5p7958535cp2tpgps0400000gn/T//ccf9gERz.s:2912   .rodata._ZL18HIPASS_LOWER_BOUND:0000000000000000 _ZL18HIPASS_LOWER_BOUND
/var/folders/2p/02m_5p7958535cp2tpgps0400000gn/T//ccf9gERz.s:2915   .rodata._ZL18HIPASS_UPPER_BOUND:0000000000000000 $d
/var/folders/2p/02m_5p7958535cp2tpgps0400000gn/T//ccf9gERz.s:2918   .rodata._ZL18HIPASS_UPPER_BOUND:0000000000000000 _ZL18HIPASS_UPPER_BOUND
/var/folders/2p/02m_5p7958535cp2tpgps0400000gn/T//ccf9gERz.s:2921   .rodata._ZL18LOPASS_LOWER_BOUND:0000000000000000 $d
/var/folders/2p/02m_5p7958535cp2tpgps0400000gn/T//ccf9gERz.s:2924   .rodata._ZL18LOPASS_LOWER_BOUND:0000000000000000 _ZL18LOPASS_LOWER_BOUND
/var/folders/2p/02m_5p7958535cp2tpgps0400000gn/T//ccf9gERz.s:2927   .rodata._ZL18LOPASS_UPPER_BOUND:0000000000000000 $d
/var/folders/2p/02m_5p7958535cp2tpgps0400000gn/T//ccf9gERz.s:2930   .rodata._ZL18LOPASS_UPPER_BOUND:0000000000000000 _ZL18LOPASS_UPPER_BOUND
/var/folders/2p/02m_5p7958535cp2tpgps0400000gn/T//ccf9gERz.s:2933   .rodata._ZL10HICUT_FREQ:0000000000000000 $d
/var/folders/2p/02m_5p7958535cp2tpgps0400000gn/T//ccf9gERz.s:2936   .rodata._ZL10HICUT_FREQ:0000000000000000 _ZL10HICUT_FREQ
/var/folders/2p/02m_5p7958535cp2tpgps0400000gn/T//ccf9gERz.s:2939   .rodata._ZL6halfpi:0000000000000000 $d
/var/folders/2p/02m_5p7958535cp2tpgps0400000gn/T//ccf9gERz.s:2942   .rodata._ZL6halfpi:0000000000000000 _ZL6halfpi
/var/folders/2p/02m_5p7958535cp2tpgps0400000gn/T//ccf9gERz.s:2945   .text._ZN16AudioFileManagerC2ERN5daisy12SdmmcHandlerERNS0_14FatFSInterfaceERNS0_8DaisyPodEP3FIL:0000000000000000 $t
/var/folders/2p/02m_5p7958535cp2tpgps0400000gn/T//ccf9gERz.s:2951   .text._ZN16AudioFileManagerC2ERN5daisy12SdmmcHandlerERNS0_14FatFSInterfaceERNS0_8DaisyPodEP3FIL:0000000000000000 _ZN16AudioFileManagerC2ERN5daisy12SdmmcHandlerERNS0_14FatFSInterfaceERNS0_8DaisyPodEP3FIL
/var/folders/2p/02m_5p7958535cp2tpgps0400000gn/T//ccf9gERz.s:2951   .text._ZN16AudioFileManagerC2ERN5daisy12SdmmcHandlerERNS0_14FatFSInterfaceERNS0_8DaisyPodEP3FIL:0000000000000000 _ZN16AudioFileManagerC1ERN5daisy12SdmmcHandlerERNS0_14FatFSInterfaceERNS0_8DaisyPodEP3FIL
/var/folders/2p/02m_5p7958535cp2tpgps0400000gn/T//ccf9gERz.s:3013   .text._ZN11GrainPhasorC2Ev:0000000000000000 $t
/var/folders/2p/02m_5p7958535cp2tpgps0400000gn/T//ccf9gERz.s:3019   .text._ZN11GrainPhasorC2Ev:0000000000000000 _ZN11GrainPhasorC2Ev
/var/folders/2p/02m_5p7958535cp2tpgps0400000gn/T//ccf9gERz.s:3019   .text._ZN11GrainPhasorC2Ev:0000000000000000 _ZN11GrainPhasorC1Ev
/var/folders/2p/02m_5p7958535cp2tpgps0400000gn/T//ccf9gERz.s:3065   .text._ZN11GrainPhasorD2Ev:0000000000000000 $t
ARM GAS  /var/folders/2p/02m_5p7958535cp2tpgps0400000gn/T//ccf9gERz.s 			page 130


/var/folders/2p/02m_5p7958535cp2tpgps0400000gn/T//ccf9gERz.s:3071   .text._ZN11GrainPhasorD2Ev:0000000000000000 _ZN11GrainPhasorD2Ev
/var/folders/2p/02m_5p7958535cp2tpgps0400000gn/T//ccf9gERz.s:3071   .text._ZN11GrainPhasorD2Ev:0000000000000000 _ZN11GrainPhasorD1Ev
/var/folders/2p/02m_5p7958535cp2tpgps0400000gn/T//ccf9gERz.s:3104   .text._ZN5GrainC2Ev:0000000000000000 $t
/var/folders/2p/02m_5p7958535cp2tpgps0400000gn/T//ccf9gERz.s:3110   .text._ZN5GrainC2Ev:0000000000000000 _ZN5GrainC2Ev
/var/folders/2p/02m_5p7958535cp2tpgps0400000gn/T//ccf9gERz.s:3110   .text._ZN5GrainC2Ev:0000000000000000 _ZN5GrainC1Ev
/var/folders/2p/02m_5p7958535cp2tpgps0400000gn/T//ccf9gERz.s:3163   .text._ZN5GrainD2Ev:0000000000000000 $t
/var/folders/2p/02m_5p7958535cp2tpgps0400000gn/T//ccf9gERz.s:3169   .text._ZN5GrainD2Ev:0000000000000000 _ZN5GrainD2Ev
/var/folders/2p/02m_5p7958535cp2tpgps0400000gn/T//ccf9gERz.s:3169   .text._ZN5GrainD2Ev:0000000000000000 _ZN5GrainD1Ev
/var/folders/2p/02m_5p7958535cp2tpgps0400000gn/T//ccf9gERz.s:3205   .text._ZN13GranularSynthC2ERN5daisy8DaisyPodEPN7daisysp21SmoothRandomGeneratorE:0000000000000000 $t
/var/folders/2p/02m_5p7958535cp2tpgps0400000gn/T//ccf9gERz.s:3211   .text._ZN13GranularSynthC2ERN5daisy8DaisyPodEPN7daisysp21SmoothRandomGeneratorE:0000000000000000 _ZN13GranularSynthC2ERN5daisy8DaisyPodEPN7daisysp21SmoothRandomGeneratorE
/var/folders/2p/02m_5p7958535cp2tpgps0400000gn/T//ccf9gERz.s:3211   .text._ZN13GranularSynthC2ERN5daisy8DaisyPodEPN7daisysp21SmoothRandomGeneratorE:0000000000000000 _ZN13GranularSynthC1ERN5daisy8DaisyPodEPN7daisysp21SmoothRandomGeneratorE
/var/folders/2p/02m_5p7958535cp2tpgps0400000gn/T//ccf9gERz.s:3283   .text._ZN13StereoRotatorC2Ev:0000000000000000 $t
/var/folders/2p/02m_5p7958535cp2tpgps0400000gn/T//ccf9gERz.s:3289   .text._ZN13StereoRotatorC2Ev:0000000000000000 _ZN13StereoRotatorC2Ev
/var/folders/2p/02m_5p7958535cp2tpgps0400000gn/T//ccf9gERz.s:3332   .text._ZN13StereoRotatorC2Ev:000000000000002c $d
/var/folders/2p/02m_5p7958535cp2tpgps0400000gn/T//ccf9gERz.s:3289   .text._ZN13StereoRotatorC2Ev:0000000000000000 _ZN13StereoRotatorC1Ev
/var/folders/2p/02m_5p7958535cp2tpgps0400000gn/T//ccf9gERz.s:3339   .text._ZN13GranularSynthD2Ev:0000000000000000 $t
/var/folders/2p/02m_5p7958535cp2tpgps0400000gn/T//ccf9gERz.s:3345   .text._ZN13GranularSynthD2Ev:0000000000000000 _ZN13GranularSynthD2Ev
/var/folders/2p/02m_5p7958535cp2tpgps0400000gn/T//ccf9gERz.s:3345   .text._ZN13GranularSynthD2Ev:0000000000000000 _ZN13GranularSynthD1Ev
/var/folders/2p/02m_5p7958535cp2tpgps0400000gn/T//ccf9gERz.s:3399   .text._ZN14GrannyChordApp7ColoursC2Ev:0000000000000000 $t
/var/folders/2p/02m_5p7958535cp2tpgps0400000gn/T//ccf9gERz.s:3405   .text._ZN14GrannyChordApp7ColoursC2Ev:0000000000000000 _ZN14GrannyChordApp7ColoursC2Ev
/var/folders/2p/02m_5p7958535cp2tpgps0400000gn/T//ccf9gERz.s:3405   .text._ZN14GrannyChordApp7ColoursC2Ev:0000000000000000 _ZN14GrannyChordApp7ColoursC1Ev
/var/folders/2p/02m_5p7958535cp2tpgps0400000gn/T//ccf9gERz.s:3469   .text._ZN14GrannyChordApp7ColoursD2Ev:0000000000000000 $t
/var/folders/2p/02m_5p7958535cp2tpgps0400000gn/T//ccf9gERz.s:3475   .text._ZN14GrannyChordApp7ColoursD2Ev:0000000000000000 _ZN14GrannyChordApp7ColoursD2Ev
/var/folders/2p/02m_5p7958535cp2tpgps0400000gn/T//ccf9gERz.s:3475   .text._ZN14GrannyChordApp7ColoursD2Ev:0000000000000000 _ZN14GrannyChordApp7ColoursD1Ev
/var/folders/2p/02m_5p7958535cp2tpgps0400000gn/T//ccf9gERz.s:3538   .text._ZN14GrannyChordAppC2ERN5daisy8DaisyPodER13GranularSynthR16AudioFileManagerRN7daisysp8ReverbScERNS7_6ChorusE:0000000000000000 $t
/var/folders/2p/02m_5p7958535cp2tpgps0400000gn/T//ccf9gERz.s:3544   .text._ZN14GrannyChordAppC2ERN5daisy8DaisyPodER13GranularSynthR16AudioFileManagerRN7daisysp8ReverbScERNS7_6ChorusE:0000000000000000 _ZN14GrannyChordAppC2ERN5daisy8DaisyPodER13GranularSynthR16AudioFileManagerRN7daisysp8ReverbScERNS7_6ChorusE
/var/folders/2p/02m_5p7958535cp2tpgps0400000gn/T//ccf9gERz.s:4129   .text._ZN5daisy9WavWriterILj16384EEC2Ev:0000000000000000 _ZN5daisy9WavWriterILj16384EEC1Ev
/var/folders/2p/02m_5p7958535cp2tpgps0400000gn/T//ccf9gERz.s:3706   .text._ZN14GrannyChordAppC2ERN5daisy8DaisyPodER13GranularSynthR16AudioFileManagerRN7daisysp8ReverbScERNS7_6ChorusE:0000000000000180 $d
/var/folders/2p/02m_5p7958535cp2tpgps0400000gn/T//ccf9gERz.s:3544   .text._ZN14GrannyChordAppC2ERN5daisy8DaisyPodER13GranularSynthR16AudioFileManagerRN7daisysp8ReverbScERNS7_6ChorusE:0000000000000000 _ZN14GrannyChordAppC1ERN5daisy8DaisyPodER13GranularSynthR16AudioFileManagerRN7daisysp8ReverbScERNS7_6ChorusE
/var/folders/2p/02m_5p7958535cp2tpgps0400000gn/T//ccf9gERz.s:3717   .sdram_bss:0000000000000000 left_buf
/var/folders/2p/02m_5p7958535cp2tpgps0400000gn/T//ccf9gERz.s:3714   .sdram_bss:0000000000000000 $d
/var/folders/2p/02m_5p7958535cp2tpgps0400000gn/T//ccf9gERz.s:3723   .sdram_bss:0000000001000000 right_buf
/var/folders/2p/02m_5p7958535cp2tpgps0400000gn/T//ccf9gERz.s:3730   .bss.sd:0000000000000000 sd
/var/folders/2p/02m_5p7958535cp2tpgps0400000gn/T//ccf9gERz.s:3727   .bss.sd:0000000000000000 $d
/var/folders/2p/02m_5p7958535cp2tpgps0400000gn/T//ccf9gERz.s:3737   .bss.fsi:0000000000000000 fsi
/var/folders/2p/02m_5p7958535cp2tpgps0400000gn/T//ccf9gERz.s:3734   .bss.fsi:0000000000000000 $d
/var/folders/2p/02m_5p7958535cp2tpgps0400000gn/T//ccf9gERz.s:3744   .bss.pod:0000000000000000 pod
/var/folders/2p/02m_5p7958535cp2tpgps0400000gn/T//ccf9gERz.s:3741   .bss.pod:0000000000000000 $d
/var/folders/2p/02m_5p7958535cp2tpgps0400000gn/T//ccf9gERz.s:3751   .bss.file:0000000000000000 file
/var/folders/2p/02m_5p7958535cp2tpgps0400000gn/T//ccf9gERz.s:3748   .bss.file:0000000000000000 $d
/var/folders/2p/02m_5p7958535cp2tpgps0400000gn/T//ccf9gERz.s:3758   .sdram_bss:0000000002000000 reverb
/var/folders/2p/02m_5p7958535cp2tpgps0400000gn/T//ccf9gERz.s:3764   .sdram_bss:0000000002060b48 rng
/var/folders/2p/02m_5p7958535cp2tpgps0400000gn/T//ccf9gERz.s:3770   .sdram_bss:0000000002060b64 chorus
/var/folders/2p/02m_5p7958535cp2tpgps0400000gn/T//ccf9gERz.s:3777   .bss.filemgr:0000000000000000 filemgr
/var/folders/2p/02m_5p7958535cp2tpgps0400000gn/T//ccf9gERz.s:3774   .bss.filemgr:0000000000000000 $d
/var/folders/2p/02m_5p7958535cp2tpgps0400000gn/T//ccf9gERz.s:3780   .bss._ZL5synth:0000000000000000 $d
/var/folders/2p/02m_5p7958535cp2tpgps0400000gn/T//ccf9gERz.s:3783   .bss._ZL5synth:0000000000000000 _ZL5synth
/var/folders/2p/02m_5p7958535cp2tpgps0400000gn/T//ccf9gERz.s:3790   .bss.app:0000000000000000 app
/var/folders/2p/02m_5p7958535cp2tpgps0400000gn/T//ccf9gERz.s:3787   .bss.app:0000000000000000 $d
/var/folders/2p/02m_5p7958535cp2tpgps0400000gn/T//ccf9gERz.s:3797   .bss.rng_state:0000000000000000 rng_state
/var/folders/2p/02m_5p7958535cp2tpgps0400000gn/T//ccf9gERz.s:3794   .bss.rng_state:0000000000000000 $d
/var/folders/2p/02m_5p7958535cp2tpgps0400000gn/T//ccf9gERz.s:3800   .rodata:0000000000000000 $d
/var/folders/2p/02m_5p7958535cp2tpgps0400000gn/T//ccf9gERz.s:3804   .text.main:0000000000000000 $t
/var/folders/2p/02m_5p7958535cp2tpgps0400000gn/T//ccf9gERz.s:3810   .text.main:0000000000000000 main
/var/folders/2p/02m_5p7958535cp2tpgps0400000gn/T//ccf9gERz.s:4208   .text._ZN5daisy9DaisySeed9PrintLineIJEEEvPKcDpT_:0000000000000000 _ZN5daisy9DaisySeed9PrintLineIJEEEvPKcDpT_
/var/folders/2p/02m_5p7958535cp2tpgps0400000gn/T//ccf9gERz.s:3848   .text.main:0000000000000030 $d
/var/folders/2p/02m_5p7958535cp2tpgps0400000gn/T//ccf9gERz.s:3857   .text._ZN7daisysp9DelayLineIfLj2400EEC2Ev:0000000000000000 $t
ARM GAS  /var/folders/2p/02m_5p7958535cp2tpgps0400000gn/T//ccf9gERz.s 			page 131


/var/folders/2p/02m_5p7958535cp2tpgps0400000gn/T//ccf9gERz.s:3863   .text._ZN7daisysp9DelayLineIfLj2400EEC2Ev:0000000000000000 _ZN7daisysp9DelayLineIfLj2400EEC2Ev
/var/folders/2p/02m_5p7958535cp2tpgps0400000gn/T//ccf9gERz.s:3897   .text._ZN7daisysp9DelayLineIfLj2400EED2Ev:0000000000000000 $t
/var/folders/2p/02m_5p7958535cp2tpgps0400000gn/T//ccf9gERz.s:3903   .text._ZN7daisysp9DelayLineIfLj2400EED2Ev:0000000000000000 _ZN7daisysp9DelayLineIfLj2400EED2Ev
/var/folders/2p/02m_5p7958535cp2tpgps0400000gn/T//ccf9gERz.s:3936   .text._ZN5daisy11MidiHandlerINS_17MidiUartTransportEE6ConfigC2Ev:0000000000000000 $t
/var/folders/2p/02m_5p7958535cp2tpgps0400000gn/T//ccf9gERz.s:3942   .text._ZN5daisy11MidiHandlerINS_17MidiUartTransportEE6ConfigC2Ev:0000000000000000 _ZN5daisy11MidiHandlerINS_17MidiUartTransportEE6ConfigC2Ev
/var/folders/2p/02m_5p7958535cp2tpgps0400000gn/T//ccf9gERz.s:3942   .text._ZN5daisy11MidiHandlerINS_17MidiUartTransportEE6ConfigC2Ev:0000000000000000 _ZN5daisy11MidiHandlerINS_17MidiUartTransportEE6ConfigC1Ev
/var/folders/2p/02m_5p7958535cp2tpgps0400000gn/T//ccf9gERz.s:3977   .text._ZN5daisy4FIFOINS_9MidiEventELj256EED2Ev:0000000000000000 $t
/var/folders/2p/02m_5p7958535cp2tpgps0400000gn/T//ccf9gERz.s:3983   .text._ZN5daisy4FIFOINS_9MidiEventELj256EED2Ev:0000000000000000 _ZN5daisy4FIFOINS_9MidiEventELj256EED2Ev
/var/folders/2p/02m_5p7958535cp2tpgps0400000gn/T//ccf9gERz.s:4291   .text._ZN5daisy8FIFOBaseINS_9MidiEventEED2Ev:0000000000000000 _ZN5daisy8FIFOBaseINS_9MidiEventEED2Ev
/var/folders/2p/02m_5p7958535cp2tpgps0400000gn/T//ccf9gERz.s:3983   .text._ZN5daisy4FIFOINS_9MidiEventELj256EED2Ev:0000000000000000 _ZN5daisy4FIFOINS_9MidiEventELj256EED1Ev
/var/folders/2p/02m_5p7958535cp2tpgps0400000gn/T//ccf9gERz.s:4019   .text._ZN5daisy11MidiHandlerINS_17MidiUartTransportEEC2Ev:0000000000000000 $t
/var/folders/2p/02m_5p7958535cp2tpgps0400000gn/T//ccf9gERz.s:4025   .text._ZN5daisy11MidiHandlerINS_17MidiUartTransportEEC2Ev:0000000000000000 _ZN5daisy11MidiHandlerINS_17MidiUartTransportEEC2Ev
/var/folders/2p/02m_5p7958535cp2tpgps0400000gn/T//ccf9gERz.s:4244   .text._ZN5daisy4FIFOINS_9MidiEventELj256EEC2Ev:0000000000000000 _ZN5daisy4FIFOINS_9MidiEventELj256EEC1Ev
/var/folders/2p/02m_5p7958535cp2tpgps0400000gn/T//ccf9gERz.s:4073   .text._ZN5daisy11MidiHandlerINS_17MidiUartTransportEED2Ev:0000000000000000 $t
/var/folders/2p/02m_5p7958535cp2tpgps0400000gn/T//ccf9gERz.s:4079   .text._ZN5daisy11MidiHandlerINS_17MidiUartTransportEED2Ev:0000000000000000 _ZN5daisy11MidiHandlerINS_17MidiUartTransportEED2Ev
/var/folders/2p/02m_5p7958535cp2tpgps0400000gn/T//ccf9gERz.s:4123   .text._ZN5daisy9WavWriterILj16384EEC2Ev:0000000000000000 $t
/var/folders/2p/02m_5p7958535cp2tpgps0400000gn/T//ccf9gERz.s:4129   .text._ZN5daisy9WavWriterILj16384EEC2Ev:0000000000000000 _ZN5daisy9WavWriterILj16384EEC2Ev
/var/folders/2p/02m_5p7958535cp2tpgps0400000gn/T//ccf9gERz.s:4163   .text._ZN5daisy9WavWriterILj16384EED2Ev:0000000000000000 $t
/var/folders/2p/02m_5p7958535cp2tpgps0400000gn/T//ccf9gERz.s:4169   .text._ZN5daisy9WavWriterILj16384EED2Ev:0000000000000000 _ZN5daisy9WavWriterILj16384EED2Ev
/var/folders/2p/02m_5p7958535cp2tpgps0400000gn/T//ccf9gERz.s:4169   .text._ZN5daisy9WavWriterILj16384EED2Ev:0000000000000000 _ZN5daisy9WavWriterILj16384EED1Ev
/var/folders/2p/02m_5p7958535cp2tpgps0400000gn/T//ccf9gERz.s:4202   .text._ZN5daisy9DaisySeed9PrintLineIJEEEvPKcDpT_:0000000000000000 $t
/var/folders/2p/02m_5p7958535cp2tpgps0400000gn/T//ccf9gERz.s:4238   .text._ZN5daisy4FIFOINS_9MidiEventELj256EEC2Ev:0000000000000000 $t
/var/folders/2p/02m_5p7958535cp2tpgps0400000gn/T//ccf9gERz.s:4244   .text._ZN5daisy4FIFOINS_9MidiEventELj256EEC2Ev:0000000000000000 _ZN5daisy4FIFOINS_9MidiEventELj256EEC2Ev
/var/folders/2p/02m_5p7958535cp2tpgps0400000gn/T//ccf9gERz.s:4330   .text._ZN5daisy8FIFOBaseINS_9MidiEventEEC2EPS1_j:0000000000000000 _ZN5daisy8FIFOBaseINS_9MidiEventEEC2EPS1_j
/var/folders/2p/02m_5p7958535cp2tpgps0400000gn/T//ccf9gERz.s:4285   .text._ZN5daisy8FIFOBaseINS_9MidiEventEED2Ev:0000000000000000 $t
/var/folders/2p/02m_5p7958535cp2tpgps0400000gn/T//ccf9gERz.s:4291   .text._ZN5daisy8FIFOBaseINS_9MidiEventEED2Ev:0000000000000000 _ZN5daisy8FIFOBaseINS_9MidiEventEED1Ev
/var/folders/2p/02m_5p7958535cp2tpgps0400000gn/T//ccf9gERz.s:4324   .text._ZN5daisy8FIFOBaseINS_9MidiEventEEC2EPS1_j:0000000000000000 $t
/var/folders/2p/02m_5p7958535cp2tpgps0400000gn/T//ccf9gERz.s:4330   .text._ZN5daisy8FIFOBaseINS_9MidiEventEEC2EPS1_j:0000000000000000 _ZN5daisy8FIFOBaseINS_9MidiEventEEC1EPS1_j
/var/folders/2p/02m_5p7958535cp2tpgps0400000gn/T//ccf9gERz.s:4380   .text._ZN14GrannyChordAppD2Ev:0000000000000000 $t
/var/folders/2p/02m_5p7958535cp2tpgps0400000gn/T//ccf9gERz.s:4386   .text._ZN14GrannyChordAppD2Ev:0000000000000000 _ZN14GrannyChordAppD2Ev
/var/folders/2p/02m_5p7958535cp2tpgps0400000gn/T//ccf9gERz.s:4386   .text._ZN14GrannyChordAppD2Ev:0000000000000000 _ZN14GrannyChordAppD1Ev
/var/folders/2p/02m_5p7958535cp2tpgps0400000gn/T//ccf9gERz.s:4451   .text._Z41__static_initialization_and_destruction_0ii:0000000000000000 $t
/var/folders/2p/02m_5p7958535cp2tpgps0400000gn/T//ccf9gERz.s:4456   .text._Z41__static_initialization_and_destruction_0ii:0000000000000000 _Z41__static_initialization_and_destruction_0ii
/var/folders/2p/02m_5p7958535cp2tpgps0400000gn/T//ccf9gERz.s:4564   .text._Z41__static_initialization_and_destruction_0ii:00000000000000bc $d
/var/folders/2p/02m_5p7958535cp2tpgps0400000gn/T//ccf9gERz.s:4586   .text._GLOBAL__sub_I_left_buf:0000000000000000 $t
/var/folders/2p/02m_5p7958535cp2tpgps0400000gn/T//ccf9gERz.s:4591   .text._GLOBAL__sub_I_left_buf:0000000000000000 _GLOBAL__sub_I_left_buf
/var/folders/2p/02m_5p7958535cp2tpgps0400000gn/T//ccf9gERz.s:4612   .init_array:0000000000000000 $d
                           .group:0000000000000000 _ZN7daisysp7LimiterC5Ev
                           .group:0000000000000000 _ZN7daisysp7LimiterD5Ev
                           .group:0000000000000000 _ZN7daisysp12ChorusEngineC5Ev
                           .group:0000000000000000 _ZN7daisysp12ChorusEngineD5Ev
                           .group:0000000000000000 _ZN7daisysp6ChorusC5Ev
                           .group:0000000000000000 _ZN7daisysp6ChorusD5Ev
                           .group:0000000000000000 _ZN7daisysp7OnePoleC5Ev
                           .group:0000000000000000 _ZN7daisysp7OnePoleD5Ev
                           .group:0000000000000000 _ZN7daisysp21SmoothRandomGeneratorC5Ev
                           .group:0000000000000000 _ZN7daisysp21SmoothRandomGeneratorD5Ev
                           .group:0000000000000000 _ZN7daisysp10CompressorC5Ev
                           .group:0000000000000000 _ZN7daisysp10CompressorD5Ev
                           .group:0000000000000000 _ZN7daisysp8ReverbScC5Ev
                           .group:0000000000000000 _ZN7daisysp8ReverbScD5Ev
                           .group:0000000000000000 _ZN7daisysp10MoogLadderC5Ev
                           .group:0000000000000000 _ZN7daisysp10MoogLadderD5Ev
                           .group:0000000000000000 _ZN5daisy6SystemC5Ev
                           .group:0000000000000000 _ZN5daisy6SystemD5Ev
                           .group:0000000000000000 _ZN5daisy10QSPIHandleC5Ev
                           .group:0000000000000000 _ZN5daisy9DacHandleC5Ev
ARM GAS  /var/folders/2p/02m_5p7958535cp2tpgps0400000gn/T//ccf9gERz.s 			page 132


                           .group:0000000000000000 _ZN5daisy9SaiHandleC5Ev
                           .group:0000000000000000 _ZN5daisy11AudioHandleC5Ev
                           .group:0000000000000000 _ZN5daisy11AudioHandleD5Ev
                           .group:0000000000000000 _ZN5daisy9AdcHandleC5Ev
                           .group:0000000000000000 _ZN5daisy9AdcHandleD5Ev
                           .group:0000000000000000 _ZN5daisy11UartHandlerC5Ev
                           .group:0000000000000000 _ZN5daisy10MidiParserC5Ev
                           .group:0000000000000000 _ZN5daisy10MidiParserD5Ev
                           .group:0000000000000000 _ZN5daisy9UsbHandleC5Ev
                           .group:0000000000000000 _ZN5daisy9UsbHandleD5Ev
                           .group:0000000000000000 _ZN5daisy17MidiUartTransportC5Ev
                           .group:0000000000000000 _ZN5daisy17MidiUartTransportD5Ev
                           .group:0000000000000000 _ZN5daisy6SwitchC5Ev
                           .group:0000000000000000 _ZN5daisy6SwitchD5Ev
                           .group:0000000000000000 _ZN5daisy7EncoderC5Ev
                           .group:0000000000000000 _ZN5daisy7EncoderD5Ev
                           .group:0000000000000000 _ZN5daisy13AnalogControlC5Ev
                           .group:0000000000000000 _ZN5daisy13AnalogControlD5Ev
                           .group:0000000000000000 _ZN5daisy12SdmmcHandlerC5Ev
                           .group:0000000000000000 _ZN5daisy12SdmmcHandlerD5Ev
                           .group:0000000000000000 _ZN5daisy3LedC5Ev
                           .group:0000000000000000 _ZN5daisy3LedD5Ev
                           .group:0000000000000000 _ZN5daisy5ColorC5Ev
                           .group:0000000000000000 _ZN5daisy5ColorD5Ev
                           .group:0000000000000000 _ZN5daisy6RgbLedC5Ev
                           .group:0000000000000000 _ZN5daisy6RgbLedD5Ev
                           .group:0000000000000000 _ZN5daisy12CpuLoadMeterC5Ev
                           .group:0000000000000000 _ZN5daisy14FatFSInterfaceC5Ev
                           .group:0000000000000000 _ZN5daisy9DaisySeedC5Ev
                           .group:0000000000000000 _ZN5daisy9DaisySeedD5Ev
                           .group:0000000000000000 _ZN5daisy8DaisyPodC5Ev
                           .group:0000000000000000 _ZN5daisy8DaisyPodD5Ev
                           .group:0000000000000000 _ZN16AudioFileManagerC5ERN5daisy12SdmmcHandlerERNS0_14FatFSInterfaceERNS0_8DaisyPodEP3FIL
                           .group:0000000000000000 _ZN11GrainPhasorC5Ev
                           .group:0000000000000000 _ZN11GrainPhasorD5Ev
                           .group:0000000000000000 _ZN5GrainC5Ev
                           .group:0000000000000000 _ZN5GrainD5Ev
                           .group:0000000000000000 _ZN13GranularSynthC5ERN5daisy8DaisyPodEPN7daisysp21SmoothRandomGeneratorE
                           .group:0000000000000000 _ZN13StereoRotatorC5Ev
                           .group:0000000000000000 _ZN13GranularSynthD5Ev
                           .group:0000000000000000 _ZN14GrannyChordApp7ColoursC5Ev
                           .group:0000000000000000 _ZN14GrannyChordApp7ColoursD5Ev
                           .group:0000000000000000 _ZN14GrannyChordAppC5ERN5daisy8DaisyPodER13GranularSynthR16AudioFileManagerRN7daisysp8ReverbScERNS7_6ChorusE
                           .group:0000000000000000 _ZN7daisysp9DelayLineIfLj2400EEC5Ev
                           .group:0000000000000000 _ZN7daisysp9DelayLineIfLj2400EED5Ev
                           .group:0000000000000000 _ZN5daisy11MidiHandlerINS_17MidiUartTransportEE6ConfigC5Ev
                           .group:0000000000000000 _ZN5daisy4FIFOINS_9MidiEventELj256EED5Ev
                           .group:0000000000000000 _ZN5daisy11MidiHandlerINS_17MidiUartTransportEEC5Ev
                           .group:0000000000000000 _ZN5daisy11MidiHandlerINS_17MidiUartTransportEED5Ev
                           .group:0000000000000000 _ZN5daisy9WavWriterILj16384EEC5Ev
                           .group:0000000000000000 _ZN5daisy9WavWriterILj16384EED5Ev
                           .group:0000000000000000 _ZN5daisy4FIFOINS_9MidiEventELj256EEC5Ev
                           .group:0000000000000000 _ZN5daisy8FIFOBaseINS_9MidiEventEED5Ev
                           .group:0000000000000000 _ZN5daisy8FIFOBaseINS_9MidiEventEEC5EPS1_j
                           .group:0000000000000000 _ZN14GrannyChordAppD5Ev

UNDEFINED SYMBOLS
ARM GAS  /var/folders/2p/02m_5p7958535cp2tpgps0400000gn/T//ccf9gERz.s 			page 133


_ZN5daisy6LoggerILNS_17LoggerDestinationE1EE8StartLogEb
memcpy
memset
_ZN14GrannyChordApp9instance_E
_ZN5daisy8DaisyPod4InitEb
_ZN14GrannyChordApp4InitEPsS0_
_ZN14GrannyChordApp3RunEv
_ZN5daisy17MidiUartTransport6ConfigC1Ev
_ZN5daisy6LoggerILNS_17LoggerDestinationE1EE9PrintLineEPKcz
__aeabi_atexit
__dso_handle
