ARM GAS  /var/folders/2p/02m_5p7958535cp2tpgps0400000gn/T//cc82ymlO.s 			page 1


   1              		.cpu cortex-m7
   2              		.arch armv7e-m
   3              		.fpu fpv5-d16
   4              		.eabi_attribute 28, 1
   5              		.eabi_attribute 20, 1
   6              		.eabi_attribute 21, 1
   7              		.eabi_attribute 23, 3
   8              		.eabi_attribute 24, 1
   9              		.eabi_attribute 25, 1
  10              		.eabi_attribute 26, 1
  11              		.eabi_attribute 30, 2
  12              		.eabi_attribute 34, 1
  13              		.eabi_attribute 18, 4
  14              		.file	"main.cpp"
  15              		.text
  16              	.Ltext0:
  17              		.cfi_sections	.debug_frame
  18              		.section	.text._ZN5daisy12SdmmcHandlerD2Ev,"axG",%progbits,_ZN5daisy12SdmmcHandlerD5Ev,comdat
  19              		.align	1
  20              		.p2align 2,,3
  21              		.weak	_ZN5daisy12SdmmcHandlerD2Ev
  22              		.syntax unified
  23              		.thumb
  24              		.thumb_func
  26              	_ZN5daisy12SdmmcHandlerD2Ev:
  27              	.LVL0:
  28              	.LFB3849:
  29              		.file 1 "../libDaisy/src/per/sdmmc.h"
   1:../libDaisy/src/per/sdmmc.h **** /*
   2:../libDaisy/src/per/sdmmc.h **** TODO: 
   3:../libDaisy/src/per/sdmmc.h **** - Implement configuration (currently all settings are fixed).
   4:../libDaisy/src/per/sdmmc.h **** */
   5:../libDaisy/src/per/sdmmc.h **** #pragma once
   6:../libDaisy/src/per/sdmmc.h **** #ifndef DSY_SDMMC_H
   7:../libDaisy/src/per/sdmmc.h **** #define DSY_SDMMC_H /**< macro */
   8:../libDaisy/src/per/sdmmc.h **** 
   9:../libDaisy/src/per/sdmmc.h **** #include <stdint.h>
  10:../libDaisy/src/per/sdmmc.h **** 
  11:../libDaisy/src/per/sdmmc.h **** 
  12:../libDaisy/src/per/sdmmc.h **** namespace daisy
  13:../libDaisy/src/per/sdmmc.h **** {
  14:../libDaisy/src/per/sdmmc.h **** /** @ingroup peripheral
  15:../libDaisy/src/per/sdmmc.h ****     @{
  16:../libDaisy/src/per/sdmmc.h ****     */
  17:../libDaisy/src/per/sdmmc.h **** 
  18:../libDaisy/src/per/sdmmc.h **** /** Configuration for interfacing with SD cards.
  19:../libDaisy/src/per/sdmmc.h ****  *  Currently only supports operation using FatFS filesystem
  20:../libDaisy/src/per/sdmmc.h ****  * 
  21:../libDaisy/src/per/sdmmc.h ****  *  Only SDMMC1 is supported at this time.
  22:../libDaisy/src/per/sdmmc.h ****  *
  23:../libDaisy/src/per/sdmmc.h ****  *  Pins are fixed to the following:
  24:../libDaisy/src/per/sdmmc.h ****  *  PC12 - SDMMC1 CK
  25:../libDaisy/src/per/sdmmc.h ****  *  PD2  - SDMMC1 CMD
  26:../libDaisy/src/per/sdmmc.h ****  *  PC8  - SDMMC1 D0
  27:../libDaisy/src/per/sdmmc.h ****  *  PC9  - SDMMC1 D1 (optional)
  28:../libDaisy/src/per/sdmmc.h ****  *  PC10 - SDMMC1 D2 (optional)
  29:../libDaisy/src/per/sdmmc.h ****  *  PC11 - SDMMC1 D3 (optional)
ARM GAS  /var/folders/2p/02m_5p7958535cp2tpgps0400000gn/T//cc82ymlO.s 			page 2


  30:../libDaisy/src/per/sdmmc.h **** */
  31:../libDaisy/src/per/sdmmc.h **** class SdmmcHandler
  32:../libDaisy/src/per/sdmmc.h **** {
  33:../libDaisy/src/per/sdmmc.h ****   public:
  34:../libDaisy/src/per/sdmmc.h ****     /** Return values for the SdmmcHandler class */
  35:../libDaisy/src/per/sdmmc.h ****     enum class Result
  36:../libDaisy/src/per/sdmmc.h ****     {
  37:../libDaisy/src/per/sdmmc.h ****         OK,
  38:../libDaisy/src/per/sdmmc.h ****         ERROR,
  39:../libDaisy/src/per/sdmmc.h ****     };
  40:../libDaisy/src/per/sdmmc.h **** 
  41:../libDaisy/src/per/sdmmc.h ****     /** Sets whether 4-bit mode or 1-bit mode is used for the SDMMC */
  42:../libDaisy/src/per/sdmmc.h ****     enum class BusWidth
  43:../libDaisy/src/per/sdmmc.h ****     {
  44:../libDaisy/src/per/sdmmc.h ****         BITS_1, /**< Only 1 bit of data per clock is transferred */
  45:../libDaisy/src/per/sdmmc.h ****         BITS_4, /**< 4-bits of parallel data for each clock pulse */
  46:../libDaisy/src/per/sdmmc.h ****     };
  47:../libDaisy/src/per/sdmmc.h **** 
  48:../libDaisy/src/per/sdmmc.h ****     /** 
  49:../libDaisy/src/per/sdmmc.h ****     Sets the desired clock speed of the SD card bus. \n 
  50:../libDaisy/src/per/sdmmc.h ****     Initialization is always done at or below 400kHz, and then the user speed is set.
  51:../libDaisy/src/per/sdmmc.h ****     */
  52:../libDaisy/src/per/sdmmc.h ****     enum class Speed
  53:../libDaisy/src/per/sdmmc.h ****     {
  54:../libDaisy/src/per/sdmmc.h ****         SLOW, /**< 400kHz, initialization  performed at this rate, before moving to user value */
  55:../libDaisy/src/per/sdmmc.h ****         MEDIUM_SLOW, /**< 12.5MHz - half of standard rate */
  56:../libDaisy/src/per/sdmmc.h ****         STANDARD,    /**< 25MHz - DS (Default Speed for SDMMC) */
  57:../libDaisy/src/per/sdmmc.h ****         FAST,        /**< 50MHz - HS (High Speed signaling) */
  58:../libDaisy/src/per/sdmmc.h ****         VERY_FAST, /**< 100MHz - SDR50 Overclocked rate for maximum transfer rates */
  59:../libDaisy/src/per/sdmmc.h ****     };
  60:../libDaisy/src/per/sdmmc.h **** 
  61:../libDaisy/src/per/sdmmc.h ****     struct Config
  62:../libDaisy/src/per/sdmmc.h ****     {
  63:../libDaisy/src/per/sdmmc.h ****         Speed    speed;
  64:../libDaisy/src/per/sdmmc.h ****         BusWidth width;
  65:../libDaisy/src/per/sdmmc.h ****         bool
  66:../libDaisy/src/per/sdmmc.h ****             clock_powersave; /**< When true, the clock will stop between transfers to save power. *
  67:../libDaisy/src/per/sdmmc.h **** 
  68:../libDaisy/src/per/sdmmc.h ****         /** Configures settings to their default settings */
  69:../libDaisy/src/per/sdmmc.h ****         void Defaults()
  70:../libDaisy/src/per/sdmmc.h ****         {
  71:../libDaisy/src/per/sdmmc.h ****             speed           = Speed::FAST;
  72:../libDaisy/src/per/sdmmc.h ****             width           = BusWidth::BITS_4;
  73:../libDaisy/src/per/sdmmc.h ****             clock_powersave = false;
  74:../libDaisy/src/per/sdmmc.h ****         }
  75:../libDaisy/src/per/sdmmc.h ****     };
  76:../libDaisy/src/per/sdmmc.h **** 
  77:../libDaisy/src/per/sdmmc.h ****     SdmmcHandler() {}
  78:../libDaisy/src/per/sdmmc.h ****     ~SdmmcHandler() {}
  30              		.loc 1 78 5 view -0
  31              		.cfi_startproc
  32              		@ args = 0, pretend = 0, frame = 0
  33              		@ frame_needed = 0, uses_anonymous_args = 0
  34              		@ link register save eliminated.
  35              		.loc 1 78 22 is_stmt 0 view .LVU1
  36 0000 7047     		bx	lr
  37              		.cfi_endproc
ARM GAS  /var/folders/2p/02m_5p7958535cp2tpgps0400000gn/T//cc82ymlO.s 			page 3


  38              	.LFE3849:
  40              		.weak	_ZN5daisy12SdmmcHandlerD1Ev
  41              		.thumb_set _ZN5daisy12SdmmcHandlerD1Ev,_ZN5daisy12SdmmcHandlerD2Ev
  42 0002 00BF     		.section	.text._ZN5daisy8DaisyPodD2Ev,"axG",%progbits,_ZN5daisy8DaisyPodD5Ev,comdat
  43              		.align	1
  44              		.p2align 2,,3
  45              		.weak	_ZN5daisy8DaisyPodD2Ev
  46              		.syntax unified
  47              		.thumb
  48              		.thumb_func
  50              	_ZN5daisy8DaisyPodD2Ev:
  51              	.LVL1:
  52              	.LFB4686:
  53              		.file 2 "../libDaisy/src/daisy_pod.h"
   1:../libDaisy/src/daisy_pod.h **** #pragma once
   2:../libDaisy/src/daisy_pod.h **** #ifndef DSY_POD_BSP_H
   3:../libDaisy/src/daisy_pod.h **** #define DSY_POD_BSP_H
   4:../libDaisy/src/daisy_pod.h **** 
   5:../libDaisy/src/daisy_pod.h **** #include "daisy_seed.h"
   6:../libDaisy/src/daisy_pod.h **** 
   7:../libDaisy/src/daisy_pod.h **** namespace daisy
   8:../libDaisy/src/daisy_pod.h **** {
   9:../libDaisy/src/daisy_pod.h **** /**
  10:../libDaisy/src/daisy_pod.h ****     @brief Class that handles initializing all of the hardware specific to the Daisy Patch Board. \
  11:../libDaisy/src/daisy_pod.h ****     Helper funtions are also in place to provide easy access to built-in controls and peripherals.
  12:../libDaisy/src/daisy_pod.h ****     @author Stephen Hensley
  13:../libDaisy/src/daisy_pod.h ****     @date November 2019
  14:../libDaisy/src/daisy_pod.h ****     @ingroup boards
  15:../libDaisy/src/daisy_pod.h **** */
  16:../libDaisy/src/daisy_pod.h **** class DaisyPod
  17:../libDaisy/src/daisy_pod.h **** {
  18:../libDaisy/src/daisy_pod.h ****   public:
  19:../libDaisy/src/daisy_pod.h ****     /** Switches */
  20:../libDaisy/src/daisy_pod.h ****     enum Sw
  21:../libDaisy/src/daisy_pod.h ****     {
  22:../libDaisy/src/daisy_pod.h ****         BUTTON_1,    /** & */
  23:../libDaisy/src/daisy_pod.h ****         BUTTON_2,    /** & */
  24:../libDaisy/src/daisy_pod.h ****         BUTTON_LAST, /** &  */
  25:../libDaisy/src/daisy_pod.h ****     };
  26:../libDaisy/src/daisy_pod.h **** 
  27:../libDaisy/src/daisy_pod.h ****     /** Knobs */
  28:../libDaisy/src/daisy_pod.h ****     enum Knob
  29:../libDaisy/src/daisy_pod.h ****     {
  30:../libDaisy/src/daisy_pod.h ****         KNOB_1,    /** &  */
  31:../libDaisy/src/daisy_pod.h ****         KNOB_2,    /** & */
  32:../libDaisy/src/daisy_pod.h ****         KNOB_LAST, /** & */
  33:../libDaisy/src/daisy_pod.h ****     };
  34:../libDaisy/src/daisy_pod.h **** 
  35:../libDaisy/src/daisy_pod.h ****     DaisyPod() {}
  36:../libDaisy/src/daisy_pod.h ****     ~DaisyPod() {}
  54              		.loc 2 36 5 is_stmt 1 view -0
  55              		.cfi_startproc
  56              		@ args = 0, pretend = 0, frame = 0
  57              		@ frame_needed = 0, uses_anonymous_args = 0
  58              		@ link register save eliminated.
  59              	.LBB381:
  60              	.LBI381:
ARM GAS  /var/folders/2p/02m_5p7958535cp2tpgps0400000gn/T//cc82ymlO.s 			page 4


  61              		.file 3 "../libDaisy/src/hid/midi.h"
   1:../libDaisy/src/hid/midi.h **** #pragma once
   2:../libDaisy/src/hid/midi.h **** #ifndef DSY_MIDI_H
   3:../libDaisy/src/hid/midi.h **** #define DSY_MIDI_H
   4:../libDaisy/src/hid/midi.h **** 
   5:../libDaisy/src/hid/midi.h **** #include <stdint.h>
   6:../libDaisy/src/hid/midi.h **** #include <stdlib.h>
   7:../libDaisy/src/hid/midi.h **** #include <algorithm>
   8:../libDaisy/src/hid/midi.h **** #include "per/uart.h"
   9:../libDaisy/src/hid/midi.h **** #include "util/ringbuffer.h"
  10:../libDaisy/src/hid/midi.h **** #include "util/FIFO.h"
  11:../libDaisy/src/hid/midi.h **** #include "hid/midi_parser.h"
  12:../libDaisy/src/hid/midi.h **** #include "hid/usb_midi.h"
  13:../libDaisy/src/hid/midi.h **** #include "sys/dma.h"
  14:../libDaisy/src/hid/midi.h **** #include "sys/system.h"
  15:../libDaisy/src/hid/midi.h **** 
  16:../libDaisy/src/hid/midi.h **** namespace daisy
  17:../libDaisy/src/hid/midi.h **** {
  18:../libDaisy/src/hid/midi.h **** /** @brief   Transport layer for sending and receiving MIDI data over UART
  19:../libDaisy/src/hid/midi.h ****  *  @details This is the mode of communication used for TRS and DIN MIDI
  20:../libDaisy/src/hid/midi.h ****  *           There is an additional 2kB of RAM data used within this class
  21:../libDaisy/src/hid/midi.h ****  *           for processing bulk data from the UART peripheral
  22:../libDaisy/src/hid/midi.h ****  *  @ingroup midi
  23:../libDaisy/src/hid/midi.h **** */
  24:../libDaisy/src/hid/midi.h **** class MidiUartTransport
  25:../libDaisy/src/hid/midi.h **** {
  26:../libDaisy/src/hid/midi.h ****   public:
  27:../libDaisy/src/hid/midi.h ****     typedef void (*MidiRxParseCallback)(uint8_t* data,
  28:../libDaisy/src/hid/midi.h ****                                         size_t   size,
  29:../libDaisy/src/hid/midi.h ****                                         void*    context);
  30:../libDaisy/src/hid/midi.h **** 
  31:../libDaisy/src/hid/midi.h ****     MidiUartTransport() {}
  32:../libDaisy/src/hid/midi.h ****     ~MidiUartTransport() {}
  33:../libDaisy/src/hid/midi.h **** 
  34:../libDaisy/src/hid/midi.h ****     /** @brief Configuration structure for UART MIDI */
  35:../libDaisy/src/hid/midi.h ****     struct Config
  36:../libDaisy/src/hid/midi.h ****     {
  37:../libDaisy/src/hid/midi.h ****         UartHandler::Config::Peripheral periph;
  38:../libDaisy/src/hid/midi.h ****         dsy_gpio_pin                    rx;
  39:../libDaisy/src/hid/midi.h ****         dsy_gpio_pin                    tx;
  40:../libDaisy/src/hid/midi.h **** 
  41:../libDaisy/src/hid/midi.h ****         /** Pointer to buffer for DMA UART rx byte transfer in background.
  42:../libDaisy/src/hid/midi.h ****          *
  43:../libDaisy/src/hid/midi.h ****          *  @details By default this uses a shared buffer in DMA_BUFFER_MEM_SECTION,
  44:../libDaisy/src/hid/midi.h ****          *           which can only be utilized for a single UART peripheral. To
  45:../libDaisy/src/hid/midi.h ****          *           use MIDI with multiple UART peripherals, you must provide your own
  46:../libDaisy/src/hid/midi.h ****          *           buffer, allocated to a DMA-capable memory section.
  47:../libDaisy/src/hid/midi.h ****          */
  48:../libDaisy/src/hid/midi.h ****         uint8_t* rx_buffer;
  49:../libDaisy/src/hid/midi.h **** 
  50:../libDaisy/src/hid/midi.h ****         /** Size in bytes of rx_buffer.
  51:../libDaisy/src/hid/midi.h ****          *
  52:../libDaisy/src/hid/midi.h ****          *  @details This size determines the maximum Rx bytes readable by the UART in the backgrou
  53:../libDaisy/src/hid/midi.h ****          *           By default it's set to the size of the default shared rx_buffer (256 bytes).
  54:../libDaisy/src/hid/midi.h ****          *           While much smaller sizes can be used, data can get missed if the buffer is too
  55:../libDaisy/src/hid/midi.h ****          */
  56:../libDaisy/src/hid/midi.h ****         size_t rx_buffer_size;
ARM GAS  /var/folders/2p/02m_5p7958535cp2tpgps0400000gn/T//cc82ymlO.s 			page 5


  57:../libDaisy/src/hid/midi.h **** 
  58:../libDaisy/src/hid/midi.h ****         Config();
  59:../libDaisy/src/hid/midi.h ****     };
  60:../libDaisy/src/hid/midi.h **** 
  61:../libDaisy/src/hid/midi.h ****     /** @brief Initialization of UART using config struct */
  62:../libDaisy/src/hid/midi.h ****     inline void Init(Config config)
  63:../libDaisy/src/hid/midi.h ****     {
  64:../libDaisy/src/hid/midi.h ****         UartHandler::Config uart_config;
  65:../libDaisy/src/hid/midi.h **** 
  66:../libDaisy/src/hid/midi.h ****         //defaults
  67:../libDaisy/src/hid/midi.h ****         uart_config.baudrate   = 31250;
  68:../libDaisy/src/hid/midi.h ****         uart_config.stopbits   = UartHandler::Config::StopBits::BITS_1;
  69:../libDaisy/src/hid/midi.h ****         uart_config.parity     = UartHandler::Config::Parity::NONE;
  70:../libDaisy/src/hid/midi.h ****         uart_config.mode       = UartHandler::Config::Mode::TX_RX;
  71:../libDaisy/src/hid/midi.h ****         uart_config.wordlength = UartHandler::Config::WordLength::BITS_8;
  72:../libDaisy/src/hid/midi.h **** 
  73:../libDaisy/src/hid/midi.h ****         //user settings
  74:../libDaisy/src/hid/midi.h ****         uart_config.periph        = config.periph;
  75:../libDaisy/src/hid/midi.h ****         uart_config.pin_config.rx = config.rx;
  76:../libDaisy/src/hid/midi.h ****         uart_config.pin_config.tx = config.tx;
  77:../libDaisy/src/hid/midi.h **** 
  78:../libDaisy/src/hid/midi.h ****         rx_buffer      = config.rx_buffer;
  79:../libDaisy/src/hid/midi.h ****         rx_buffer_size = config.rx_buffer_size;
  80:../libDaisy/src/hid/midi.h **** 
  81:../libDaisy/src/hid/midi.h ****         /** zero the buffer to ensure emptiness regardless of source memory */
  82:../libDaisy/src/hid/midi.h ****         std::fill(rx_buffer, rx_buffer + rx_buffer_size, 0);
  83:../libDaisy/src/hid/midi.h **** 
  84:../libDaisy/src/hid/midi.h ****         uart_.Init(uart_config);
  85:../libDaisy/src/hid/midi.h ****     }
  86:../libDaisy/src/hid/midi.h **** 
  87:../libDaisy/src/hid/midi.h ****     /** @brief Start the UART peripheral in listening mode.
  88:../libDaisy/src/hid/midi.h ****      *  This will fill an internal data structure in the background */
  89:../libDaisy/src/hid/midi.h ****     inline void StartRx(MidiRxParseCallback parse_callback, void* context)
  90:../libDaisy/src/hid/midi.h ****     {
  91:../libDaisy/src/hid/midi.h ****         parse_context_  = context;
  92:../libDaisy/src/hid/midi.h ****         parse_callback_ = parse_callback;
  93:../libDaisy/src/hid/midi.h ****         dsy_dma_clear_cache_for_buffer((uint8_t*)this,
  94:../libDaisy/src/hid/midi.h ****                                        sizeof(MidiUartTransport));
  95:../libDaisy/src/hid/midi.h ****         uart_.DmaListenStart(
  96:../libDaisy/src/hid/midi.h ****             rx_buffer, rx_buffer_size, MidiUartTransport::rxCallback, this);
  97:../libDaisy/src/hid/midi.h ****     }
  98:../libDaisy/src/hid/midi.h **** 
  99:../libDaisy/src/hid/midi.h ****     /** @brief returns whether the UART peripheral is actively listening in the background or not *
 100:../libDaisy/src/hid/midi.h ****     inline bool RxActive() { return uart_.IsListening(); }
 101:../libDaisy/src/hid/midi.h **** 
 102:../libDaisy/src/hid/midi.h ****     /** @brief This is a no-op for UART transport - Rx is via DMA callback with circular buffer */
 103:../libDaisy/src/hid/midi.h ****     inline void FlushRx() {}
 104:../libDaisy/src/hid/midi.h **** 
 105:../libDaisy/src/hid/midi.h ****     /** @brief sends the buffer of bytes out of the UART peripheral */
 106:../libDaisy/src/hid/midi.h ****     inline void Tx(uint8_t* buff, size_t size) { uart_.PollTx(buff, size); }
 107:../libDaisy/src/hid/midi.h **** 
 108:../libDaisy/src/hid/midi.h ****   private:
 109:../libDaisy/src/hid/midi.h ****     UartHandler         uart_;
 110:../libDaisy/src/hid/midi.h ****     uint8_t*            rx_buffer;
 111:../libDaisy/src/hid/midi.h ****     size_t              rx_buffer_size;
 112:../libDaisy/src/hid/midi.h ****     void*               parse_context_;
 113:../libDaisy/src/hid/midi.h ****     MidiRxParseCallback parse_callback_;
ARM GAS  /var/folders/2p/02m_5p7958535cp2tpgps0400000gn/T//cc82ymlO.s 			page 6


 114:../libDaisy/src/hid/midi.h **** 
 115:../libDaisy/src/hid/midi.h ****     /** Static callback for Uart MIDI that occurs when
 116:../libDaisy/src/hid/midi.h ****          *  new data is available from the peripheral.
 117:../libDaisy/src/hid/midi.h ****          *  The new data is transferred from the peripheral to the
 118:../libDaisy/src/hid/midi.h ****          *  MIDI instance's byte FIFO that feeds the MIDI parser.
 119:../libDaisy/src/hid/midi.h ****          *
 120:../libDaisy/src/hid/midi.h ****          *  TODO: Handle UartHandler errors better/at all.
 121:../libDaisy/src/hid/midi.h ****          *  (If there is a UART error, there's not really any recovery
 122:../libDaisy/src/hid/midi.h ****          *  option at the moment)
 123:../libDaisy/src/hid/midi.h ****          */
 124:../libDaisy/src/hid/midi.h ****     static void rxCallback(uint8_t*            data,
 125:../libDaisy/src/hid/midi.h ****                            size_t              size,
 126:../libDaisy/src/hid/midi.h ****                            void*               context,
 127:../libDaisy/src/hid/midi.h ****                            UartHandler::Result res)
 128:../libDaisy/src/hid/midi.h ****     {
 129:../libDaisy/src/hid/midi.h ****         /** Read context as transport type */
 130:../libDaisy/src/hid/midi.h ****         MidiUartTransport* transport
 131:../libDaisy/src/hid/midi.h ****             = reinterpret_cast<MidiUartTransport*>(context);
 132:../libDaisy/src/hid/midi.h ****         if(res == UartHandler::Result::OK)
 133:../libDaisy/src/hid/midi.h ****         {
 134:../libDaisy/src/hid/midi.h ****             if(transport->parse_callback_)
 135:../libDaisy/src/hid/midi.h ****             {
 136:../libDaisy/src/hid/midi.h ****                 transport->parse_callback_(
 137:../libDaisy/src/hid/midi.h ****                     data, size, transport->parse_context_);
 138:../libDaisy/src/hid/midi.h ****             }
 139:../libDaisy/src/hid/midi.h ****         }
 140:../libDaisy/src/hid/midi.h ****     }
 141:../libDaisy/src/hid/midi.h **** };
 142:../libDaisy/src/hid/midi.h **** 
 143:../libDaisy/src/hid/midi.h **** /**
 144:../libDaisy/src/hid/midi.h ****     @brief Simple MIDI Handler \n
 145:../libDaisy/src/hid/midi.h ****     Parses bytes from an input into valid MidiEvents. \n
 146:../libDaisy/src/hid/midi.h ****     The MidiEvents fill a FIFO queue that the user can pop messages from.
 147:../libDaisy/src/hid/midi.h ****     @author shensley
 148:../libDaisy/src/hid/midi.h ****     @date March 2020
 149:../libDaisy/src/hid/midi.h ****     @ingroup midi
 150:../libDaisy/src/hid/midi.h **** */
 151:../libDaisy/src/hid/midi.h **** template <typename Transport>
 152:../libDaisy/src/hid/midi.h **** class MidiHandler
 153:../libDaisy/src/hid/midi.h **** {
 154:../libDaisy/src/hid/midi.h ****   public:
 155:../libDaisy/src/hid/midi.h ****     MidiHandler() {}
 156:../libDaisy/src/hid/midi.h ****     ~MidiHandler() {}
  62              		.loc 3 156 5 view .LVU3
  63              	.LBB382:
  64              	.LBI382:
  65              		.file 4 "../libDaisy/src/util/FIFO.h"
   1:../libDaisy/src/util/FIFO.h **** #pragma once
   2:../libDaisy/src/util/FIFO.h **** 
   3:../libDaisy/src/util/FIFO.h **** #include <stdint.h>
   4:../libDaisy/src/util/FIFO.h **** #include <stddef.h>
   5:../libDaisy/src/util/FIFO.h **** #include <initializer_list>
   6:../libDaisy/src/util/FIFO.h **** 
   7:../libDaisy/src/util/FIFO.h **** namespace daisy
   8:../libDaisy/src/util/FIFO.h **** {
   9:../libDaisy/src/util/FIFO.h **** /** Capacity-independent base class for FIFO. Use FIFO instead. */
  10:../libDaisy/src/util/FIFO.h **** template <typename T>
ARM GAS  /var/folders/2p/02m_5p7958535cp2tpgps0400000gn/T//cc82ymlO.s 			page 7


  11:../libDaisy/src/util/FIFO.h **** class FIFOBase
  12:../libDaisy/src/util/FIFO.h **** {
  13:../libDaisy/src/util/FIFO.h ****   protected:
  14:../libDaisy/src/util/FIFO.h ****     FIFOBase(T* buffer, size_t bufferSize)
  15:../libDaisy/src/util/FIFO.h ****     : buffer_(buffer), bufferSize_(bufferSize), bufferIn_(0), bufferOut_(0)
  16:../libDaisy/src/util/FIFO.h ****     {
  17:../libDaisy/src/util/FIFO.h ****     }
  18:../libDaisy/src/util/FIFO.h **** 
  19:../libDaisy/src/util/FIFO.h ****     FIFOBase(T* buffer, size_t bufferSize, std::initializer_list<T> valuesToAdd)
  20:../libDaisy/src/util/FIFO.h ****     : buffer_(buffer), bufferSize_(bufferSize), bufferIn_(0), bufferOut_(0)
  21:../libDaisy/src/util/FIFO.h ****     {
  22:../libDaisy/src/util/FIFO.h ****         PushBack(valuesToAdd);
  23:../libDaisy/src/util/FIFO.h ****     }
  24:../libDaisy/src/util/FIFO.h **** 
  25:../libDaisy/src/util/FIFO.h ****   public:
  26:../libDaisy/src/util/FIFO.h ****     /** Copies all elements from another FIFO */
  27:../libDaisy/src/util/FIFO.h ****     FIFOBase<T>& operator=(const FIFOBase<T>& other)
  28:../libDaisy/src/util/FIFO.h ****     {
  29:../libDaisy/src/util/FIFO.h ****         bufferIn_ = bufferOut_ = 0;
  30:../libDaisy/src/util/FIFO.h ****         if(!other.IsEmpty())
  31:../libDaisy/src/util/FIFO.h ****         {
  32:../libDaisy/src/util/FIFO.h ****             int readPtr = other.bufferOut_;
  33:../libDaisy/src/util/FIFO.h ****             while((readPtr != other.bufferIn_) && (bufferIn_ < bufferSize_))
  34:../libDaisy/src/util/FIFO.h ****             {
  35:../libDaisy/src/util/FIFO.h ****                 buffer_[bufferIn_++] = other.buffer_[readPtr++];
  36:../libDaisy/src/util/FIFO.h ****                 if(readPtr >= other.bufferSize_)
  37:../libDaisy/src/util/FIFO.h ****                     readPtr -= other.bufferSize_;
  38:../libDaisy/src/util/FIFO.h ****             }
  39:../libDaisy/src/util/FIFO.h ****         }
  40:../libDaisy/src/util/FIFO.h ****         return *this;
  41:../libDaisy/src/util/FIFO.h ****     }
  42:../libDaisy/src/util/FIFO.h ****     ~FIFOBase() {}
  43:../libDaisy/src/util/FIFO.h **** 
  44:../libDaisy/src/util/FIFO.h ****     /** Removes all elements from the FIFO */
  45:../libDaisy/src/util/FIFO.h ****     void Clear() { bufferIn_ = bufferOut_ = 0; }
  46:../libDaisy/src/util/FIFO.h **** 
  47:../libDaisy/src/util/FIFO.h ****     /** Adds an element to the back of the buffer, returning true on
  48:../libDaisy/src/util/FIFO.h ****         success */
  49:../libDaisy/src/util/FIFO.h ****     bool PushBack(const T& elementToAdd)
  50:../libDaisy/src/util/FIFO.h ****     {
  51:../libDaisy/src/util/FIFO.h ****         if(!IsFull())
  52:../libDaisy/src/util/FIFO.h ****         {
  53:../libDaisy/src/util/FIFO.h ****             buffer_[bufferIn_++] = elementToAdd;
  54:../libDaisy/src/util/FIFO.h ****             if(bufferIn_ >= bufferSize_)
  55:../libDaisy/src/util/FIFO.h ****                 bufferIn_ -= bufferSize_;
  56:../libDaisy/src/util/FIFO.h ****             return true;
  57:../libDaisy/src/util/FIFO.h ****         }
  58:../libDaisy/src/util/FIFO.h ****         return false;
  59:../libDaisy/src/util/FIFO.h ****     }
  60:../libDaisy/src/util/FIFO.h **** 
  61:../libDaisy/src/util/FIFO.h ****     /** Adds multiple elements and returns the number of elements that were added */
  62:../libDaisy/src/util/FIFO.h ****     int PushBack(std::initializer_list<T> valuesToAdd)
  63:../libDaisy/src/util/FIFO.h ****     {
  64:../libDaisy/src/util/FIFO.h ****         int numAdded = 0;
  65:../libDaisy/src/util/FIFO.h ****         for(const auto& v : valuesToAdd)
  66:../libDaisy/src/util/FIFO.h ****         {
  67:../libDaisy/src/util/FIFO.h ****             if(IsFull())
ARM GAS  /var/folders/2p/02m_5p7958535cp2tpgps0400000gn/T//cc82ymlO.s 			page 8


  68:../libDaisy/src/util/FIFO.h ****                 return numAdded;
  69:../libDaisy/src/util/FIFO.h **** 
  70:../libDaisy/src/util/FIFO.h ****             PushBack(v);
  71:../libDaisy/src/util/FIFO.h ****             numAdded++;
  72:../libDaisy/src/util/FIFO.h ****         }
  73:../libDaisy/src/util/FIFO.h ****         return numAdded;
  74:../libDaisy/src/util/FIFO.h ****     }
  75:../libDaisy/src/util/FIFO.h **** 
  76:../libDaisy/src/util/FIFO.h ****     /** returns a reference to the last element */
  77:../libDaisy/src/util/FIFO.h ****     T& Back()
  78:../libDaisy/src/util/FIFO.h ****     {
  79:../libDaisy/src/util/FIFO.h ****         if(IsEmpty())
  80:../libDaisy/src/util/FIFO.h ****             // invalid, but better not pass a temporary T() object as a reference...
  81:../libDaisy/src/util/FIFO.h ****             return buffer_[0];
  82:../libDaisy/src/util/FIFO.h ****         int idx = bufferIn_ - 1;
  83:../libDaisy/src/util/FIFO.h ****         if(idx < 0)
  84:../libDaisy/src/util/FIFO.h ****             idx += bufferSize_;
  85:../libDaisy/src/util/FIFO.h ****         return buffer_[idx];
  86:../libDaisy/src/util/FIFO.h ****     }
  87:../libDaisy/src/util/FIFO.h **** 
  88:../libDaisy/src/util/FIFO.h ****     /** returns a reference to the last element */
  89:../libDaisy/src/util/FIFO.h ****     const T& Back() const
  90:../libDaisy/src/util/FIFO.h ****     {
  91:../libDaisy/src/util/FIFO.h ****         if(IsEmpty())
  92:../libDaisy/src/util/FIFO.h ****             // invalid, but better not pass a temporary T() object as a reference...
  93:../libDaisy/src/util/FIFO.h ****             return buffer_[0];
  94:../libDaisy/src/util/FIFO.h ****         int idx = bufferIn_ - 1;
  95:../libDaisy/src/util/FIFO.h ****         if(idx < 0)
  96:../libDaisy/src/util/FIFO.h ****             idx += bufferSize_;
  97:../libDaisy/src/util/FIFO.h ****         return buffer_[idx];
  98:../libDaisy/src/util/FIFO.h ****     }
  99:../libDaisy/src/util/FIFO.h **** 
 100:../libDaisy/src/util/FIFO.h ****     /** removes and returns an element from the front of the buffer */
 101:../libDaisy/src/util/FIFO.h ****     T PopFront()
 102:../libDaisy/src/util/FIFO.h ****     {
 103:../libDaisy/src/util/FIFO.h ****         if(IsEmpty())
 104:../libDaisy/src/util/FIFO.h ****             return T();
 105:../libDaisy/src/util/FIFO.h ****         else
 106:../libDaisy/src/util/FIFO.h ****         {
 107:../libDaisy/src/util/FIFO.h ****             const auto result = buffer_[bufferOut_];
 108:../libDaisy/src/util/FIFO.h ****             bufferOut_++;
 109:../libDaisy/src/util/FIFO.h ****             if(bufferOut_ >= bufferSize_)
 110:../libDaisy/src/util/FIFO.h ****                 bufferOut_ -= bufferSize_;
 111:../libDaisy/src/util/FIFO.h ****             return result;
 112:../libDaisy/src/util/FIFO.h ****         }
 113:../libDaisy/src/util/FIFO.h ****     }
 114:../libDaisy/src/util/FIFO.h **** 
 115:../libDaisy/src/util/FIFO.h ****     /** returns a copy of the first element */
 116:../libDaisy/src/util/FIFO.h ****     T& Front()
 117:../libDaisy/src/util/FIFO.h ****     {
 118:../libDaisy/src/util/FIFO.h ****         if(IsEmpty())
 119:../libDaisy/src/util/FIFO.h ****             // invalid, but better not pass a temporary T() object as a reference...
 120:../libDaisy/src/util/FIFO.h ****             return buffer_[0];
 121:../libDaisy/src/util/FIFO.h ****         return buffer_[bufferOut_];
 122:../libDaisy/src/util/FIFO.h ****     }
 123:../libDaisy/src/util/FIFO.h **** 
 124:../libDaisy/src/util/FIFO.h ****     /** returns a reference to the first element */
ARM GAS  /var/folders/2p/02m_5p7958535cp2tpgps0400000gn/T//cc82ymlO.s 			page 9


 125:../libDaisy/src/util/FIFO.h ****     const T& Front() const
 126:../libDaisy/src/util/FIFO.h ****     {
 127:../libDaisy/src/util/FIFO.h ****         if(IsEmpty())
 128:../libDaisy/src/util/FIFO.h ****             // invalid, but better not pass a temporary T() object as a reference...
 129:../libDaisy/src/util/FIFO.h ****             return buffer_[0];
 130:../libDaisy/src/util/FIFO.h ****         return buffer_[bufferOut_];
 131:../libDaisy/src/util/FIFO.h ****     }
 132:../libDaisy/src/util/FIFO.h **** 
 133:../libDaisy/src/util/FIFO.h ****     /** Returns true if the buffer contains an element equal to the provided value */
 134:../libDaisy/src/util/FIFO.h ****     bool Contains(const T& element)
 135:../libDaisy/src/util/FIFO.h ****     {
 136:../libDaisy/src/util/FIFO.h ****         auto idx = bufferOut_;
 137:../libDaisy/src/util/FIFO.h ****         while(idx != bufferIn_)
 138:../libDaisy/src/util/FIFO.h ****         {
 139:../libDaisy/src/util/FIFO.h ****             if(buffer_[idx] == element)
 140:../libDaisy/src/util/FIFO.h ****                 return true;
 141:../libDaisy/src/util/FIFO.h ****             idx++;
 142:../libDaisy/src/util/FIFO.h ****             if(idx >= bufferSize_)
 143:../libDaisy/src/util/FIFO.h ****                 idx -= bufferSize_;
 144:../libDaisy/src/util/FIFO.h ****         }
 145:../libDaisy/src/util/FIFO.h ****         return false;
 146:../libDaisy/src/util/FIFO.h ****     }
 147:../libDaisy/src/util/FIFO.h **** 
 148:../libDaisy/src/util/FIFO.h ****     /** Returns the number of elements in the buffer that are equal to the provided value */
 149:../libDaisy/src/util/FIFO.h ****     size_t CountEqualTo(const T& element)
 150:../libDaisy/src/util/FIFO.h ****     {
 151:../libDaisy/src/util/FIFO.h ****         size_t result = 0;
 152:../libDaisy/src/util/FIFO.h ****         size_t idx    = bufferOut_;
 153:../libDaisy/src/util/FIFO.h ****         while(idx != bufferIn_)
 154:../libDaisy/src/util/FIFO.h ****         {
 155:../libDaisy/src/util/FIFO.h ****             if(buffer_[idx] == element)
 156:../libDaisy/src/util/FIFO.h ****                 result++;
 157:../libDaisy/src/util/FIFO.h ****             idx++;
 158:../libDaisy/src/util/FIFO.h ****             if(idx >= bufferSize_)
 159:../libDaisy/src/util/FIFO.h ****                 idx -= bufferSize_;
 160:../libDaisy/src/util/FIFO.h ****         }
 161:../libDaisy/src/util/FIFO.h ****         return result;
 162:../libDaisy/src/util/FIFO.h ****     }
 163:../libDaisy/src/util/FIFO.h **** 
 164:../libDaisy/src/util/FIFO.h ****     /** returns true, if the buffer is empty */
 165:../libDaisy/src/util/FIFO.h ****     bool IsEmpty() const { return bufferIn_ == bufferOut_; }
 166:../libDaisy/src/util/FIFO.h **** 
 167:../libDaisy/src/util/FIFO.h ****     /** returns true, if the buffer is Full */
 168:../libDaisy/src/util/FIFO.h ****     bool IsFull() const { return GetNumElements() == bufferSize_ - 1; }
 169:../libDaisy/src/util/FIFO.h **** 
 170:../libDaisy/src/util/FIFO.h ****     /** returns the number of elements in the buffer */
 171:../libDaisy/src/util/FIFO.h ****     size_t GetNumElements() const
 172:../libDaisy/src/util/FIFO.h ****     {
 173:../libDaisy/src/util/FIFO.h ****         int32_t numElements = bufferIn_ - bufferOut_;
 174:../libDaisy/src/util/FIFO.h ****         if(numElements < 0)
 175:../libDaisy/src/util/FIFO.h ****             numElements += bufferSize_;
 176:../libDaisy/src/util/FIFO.h ****         return size_t(numElements);
 177:../libDaisy/src/util/FIFO.h ****     }
 178:../libDaisy/src/util/FIFO.h **** 
 179:../libDaisy/src/util/FIFO.h ****     /** inserts an element "idx" positions behind the first element and returns true if successful 
 180:../libDaisy/src/util/FIFO.h ****     bool Insert(size_t idx, const T& element)
 181:../libDaisy/src/util/FIFO.h ****     {
ARM GAS  /var/folders/2p/02m_5p7958535cp2tpgps0400000gn/T//cc82ymlO.s 			page 10


 182:../libDaisy/src/util/FIFO.h ****         if(idx > GetNumElements())
 183:../libDaisy/src/util/FIFO.h ****             return false;
 184:../libDaisy/src/util/FIFO.h ****         if(IsFull())
 185:../libDaisy/src/util/FIFO.h ****             return false;
 186:../libDaisy/src/util/FIFO.h ****         if(idx == GetNumElements())
 187:../libDaisy/src/util/FIFO.h ****         {
 188:../libDaisy/src/util/FIFO.h ****             PushBack(element);
 189:../libDaisy/src/util/FIFO.h ****             return true;
 190:../libDaisy/src/util/FIFO.h ****         }
 191:../libDaisy/src/util/FIFO.h ****         // copy last element
 192:../libDaisy/src/util/FIFO.h ****         PushBack(Back());
 193:../libDaisy/src/util/FIFO.h ****         // move remaining elements: n => n+1
 194:../libDaisy/src/util/FIFO.h ****         for(int i = GetNumElements() - 2; i > int(idx); i--)
 195:../libDaisy/src/util/FIFO.h ****             (*this)[i] = (*this)[i - 1];
 196:../libDaisy/src/util/FIFO.h ****         // insert element
 197:../libDaisy/src/util/FIFO.h ****         (*this)[idx] = element;
 198:../libDaisy/src/util/FIFO.h ****         return true;
 199:../libDaisy/src/util/FIFO.h ****     }
 200:../libDaisy/src/util/FIFO.h **** 
 201:../libDaisy/src/util/FIFO.h ****     /** removes the element "idx" positions behind the first element 
 202:../libDaisy/src/util/FIFO.h ****      *  and returns true if successful */
 203:../libDaisy/src/util/FIFO.h ****     bool Remove(size_t idx)
 204:../libDaisy/src/util/FIFO.h ****     {
 205:../libDaisy/src/util/FIFO.h ****         if(idx >= GetNumElements())
 206:../libDaisy/src/util/FIFO.h ****             return false;
 207:../libDaisy/src/util/FIFO.h **** 
 208:../libDaisy/src/util/FIFO.h ****         size_t index = bufferOut_ + idx;
 209:../libDaisy/src/util/FIFO.h ****         if(index >= bufferSize_)
 210:../libDaisy/src/util/FIFO.h ****             index -= bufferSize_;
 211:../libDaisy/src/util/FIFO.h ****         size_t nextIndex = index + 1;
 212:../libDaisy/src/util/FIFO.h ****         if(nextIndex >= bufferSize_)
 213:../libDaisy/src/util/FIFO.h ****             nextIndex -= bufferSize_;
 214:../libDaisy/src/util/FIFO.h **** 
 215:../libDaisy/src/util/FIFO.h ****         while(nextIndex != bufferIn_)
 216:../libDaisy/src/util/FIFO.h ****         {
 217:../libDaisy/src/util/FIFO.h ****             buffer_[index] = buffer_[nextIndex];
 218:../libDaisy/src/util/FIFO.h ****             index++;
 219:../libDaisy/src/util/FIFO.h ****             nextIndex++;
 220:../libDaisy/src/util/FIFO.h ****             if(index >= bufferSize_)
 221:../libDaisy/src/util/FIFO.h ****                 index -= bufferSize_;
 222:../libDaisy/src/util/FIFO.h ****             if(nextIndex >= bufferSize_)
 223:../libDaisy/src/util/FIFO.h ****                 nextIndex -= bufferSize_;
 224:../libDaisy/src/util/FIFO.h ****         }
 225:../libDaisy/src/util/FIFO.h **** 
 226:../libDaisy/src/util/FIFO.h ****         int32_t nextBufferIn = int32_t(bufferIn_) - 1;
 227:../libDaisy/src/util/FIFO.h ****         if(nextBufferIn < 0)
 228:../libDaisy/src/util/FIFO.h ****             nextBufferIn += bufferSize_;
 229:../libDaisy/src/util/FIFO.h ****         bufferIn_ = size_t(nextBufferIn);
 230:../libDaisy/src/util/FIFO.h **** 
 231:../libDaisy/src/util/FIFO.h ****         return true;
 232:../libDaisy/src/util/FIFO.h ****     }
 233:../libDaisy/src/util/FIFO.h **** 
 234:../libDaisy/src/util/FIFO.h ****     /** removes all elements from the buffer for which
 235:../libDaisy/src/util/FIFO.h ****         (buffer(index) == element) returns true and returns the number of
 236:../libDaisy/src/util/FIFO.h ****         elements that were removed. */
 237:../libDaisy/src/util/FIFO.h ****     size_t RemoveAllEqualTo(const T& element)
 238:../libDaisy/src/util/FIFO.h ****     {
ARM GAS  /var/folders/2p/02m_5p7958535cp2tpgps0400000gn/T//cc82ymlO.s 			page 11


 239:../libDaisy/src/util/FIFO.h ****         size_t numRemoved = 0;
 240:../libDaisy/src/util/FIFO.h ****         int    idx        = GetNumElements() - 1;
 241:../libDaisy/src/util/FIFO.h ****         while(idx >= 0)
 242:../libDaisy/src/util/FIFO.h ****         {
 243:../libDaisy/src/util/FIFO.h ****             if((*this)[idx] == element)
 244:../libDaisy/src/util/FIFO.h ****             {
 245:../libDaisy/src/util/FIFO.h ****                 numRemoved++;
 246:../libDaisy/src/util/FIFO.h ****                 Remove(idx);
 247:../libDaisy/src/util/FIFO.h ****                 // was that the last element?
 248:../libDaisy/src/util/FIFO.h ****                 if(idx == int(GetNumElements()) - 1)
 249:../libDaisy/src/util/FIFO.h ****                     idx--;
 250:../libDaisy/src/util/FIFO.h ****             }
 251:../libDaisy/src/util/FIFO.h ****             else
 252:../libDaisy/src/util/FIFO.h ****                 idx--;
 253:../libDaisy/src/util/FIFO.h ****         }
 254:../libDaisy/src/util/FIFO.h ****         return numRemoved;
 255:../libDaisy/src/util/FIFO.h ****     }
 256:../libDaisy/src/util/FIFO.h **** 
 257:../libDaisy/src/util/FIFO.h ****     /** returns the element "idx" positions behind the first element */
 258:../libDaisy/src/util/FIFO.h ****     T& operator[](size_t idx)
 259:../libDaisy/src/util/FIFO.h ****     {
 260:../libDaisy/src/util/FIFO.h ****         if(idx >= GetNumElements())
 261:../libDaisy/src/util/FIFO.h ****             // invalid, but better not pass a temporary T() object as a reference...
 262:../libDaisy/src/util/FIFO.h ****             return buffer_[0];
 263:../libDaisy/src/util/FIFO.h **** 
 264:../libDaisy/src/util/FIFO.h ****         size_t index = bufferOut_ + idx;
 265:../libDaisy/src/util/FIFO.h ****         if(index >= bufferSize_)
 266:../libDaisy/src/util/FIFO.h ****             index -= bufferSize_;
 267:../libDaisy/src/util/FIFO.h ****         return buffer_[index];
 268:../libDaisy/src/util/FIFO.h ****     }
 269:../libDaisy/src/util/FIFO.h **** 
 270:../libDaisy/src/util/FIFO.h ****     /** returns the element "idx" positions behind the first element */
 271:../libDaisy/src/util/FIFO.h ****     const T& operator[](size_t idx) const
 272:../libDaisy/src/util/FIFO.h ****     {
 273:../libDaisy/src/util/FIFO.h ****         if(idx >= GetNumElements())
 274:../libDaisy/src/util/FIFO.h ****             // invalid, but better not pass a temporary T() object as a reference...
 275:../libDaisy/src/util/FIFO.h ****             return buffer_[0];
 276:../libDaisy/src/util/FIFO.h **** 
 277:../libDaisy/src/util/FIFO.h ****         size_t index = bufferOut_ + idx;
 278:../libDaisy/src/util/FIFO.h ****         if(index >= bufferSize_)
 279:../libDaisy/src/util/FIFO.h ****             index -= bufferSize_;
 280:../libDaisy/src/util/FIFO.h ****         return buffer_[index];
 281:../libDaisy/src/util/FIFO.h ****     }
 282:../libDaisy/src/util/FIFO.h **** 
 283:../libDaisy/src/util/FIFO.h ****     /** returns the total capacity */
 284:../libDaisy/src/util/FIFO.h ****     size_t GetCapacity() const { return bufferSize_ - 1; }
 285:../libDaisy/src/util/FIFO.h **** 
 286:../libDaisy/src/util/FIFO.h ****   private:
 287:../libDaisy/src/util/FIFO.h ****     FIFOBase(const FIFOBase<T>&) {} // non copyable
 288:../libDaisy/src/util/FIFO.h **** 
 289:../libDaisy/src/util/FIFO.h ****   private:
 290:../libDaisy/src/util/FIFO.h ****     T*           buffer_;
 291:../libDaisy/src/util/FIFO.h ****     const size_t bufferSize_;
 292:../libDaisy/src/util/FIFO.h ****     size_t       bufferIn_;
 293:../libDaisy/src/util/FIFO.h ****     size_t       bufferOut_;
 294:../libDaisy/src/util/FIFO.h **** };
 295:../libDaisy/src/util/FIFO.h **** 
ARM GAS  /var/folders/2p/02m_5p7958535cp2tpgps0400000gn/T//cc82ymlO.s 			page 12


 296:../libDaisy/src/util/FIFO.h **** /** A simple FIFO ring buffer with a fixed size. */
 297:../libDaisy/src/util/FIFO.h **** template <typename T, size_t capacity>
 298:../libDaisy/src/util/FIFO.h **** class FIFO : public FIFOBase<T>
  66              		.loc 4 298 7 view .LVU4
  67              	.LBB383:
  68              	.LBI383:
  42:../libDaisy/src/util/FIFO.h **** 
  69              		.loc 4 42 5 view .LVU5
  42:../libDaisy/src/util/FIFO.h **** 
  70              		.loc 4 42 5 is_stmt 0 view .LVU6
  71              	.LBE383:
  72              	.LBE382:
  73              	.LBB384:
  74              	.LBI384:
  75              		.file 5 "../libDaisy/src/hid/midi_parser.h"
   1:../libDaisy/src/hid/midi_parser.h **** #pragma once
   2:../libDaisy/src/hid/midi_parser.h **** #ifndef DSY_MIDI_PARSER_H
   3:../libDaisy/src/hid/midi_parser.h **** #define DSY_MIDI_PARSER_H
   4:../libDaisy/src/hid/midi_parser.h **** 
   5:../libDaisy/src/hid/midi_parser.h **** #include <stdint.h>
   6:../libDaisy/src/hid/midi_parser.h **** #include <stdlib.h>
   7:../libDaisy/src/hid/midi_parser.h **** #include "hid/MidiEvent.h"
   8:../libDaisy/src/hid/midi_parser.h **** 
   9:../libDaisy/src/hid/midi_parser.h **** namespace daisy
  10:../libDaisy/src/hid/midi_parser.h **** {
  11:../libDaisy/src/hid/midi_parser.h **** /** @brief   Utility class for parsing raw byte streams into MIDI messages
  12:../libDaisy/src/hid/midi_parser.h ****  *  @details Implemented as a state machine designed to parse one byte at a time
  13:../libDaisy/src/hid/midi_parser.h ****  *  @ingroup midi
  14:../libDaisy/src/hid/midi_parser.h ****  */
  15:../libDaisy/src/hid/midi_parser.h **** class MidiParser
  16:../libDaisy/src/hid/midi_parser.h **** {
  17:../libDaisy/src/hid/midi_parser.h ****   public:
  18:../libDaisy/src/hid/midi_parser.h ****     MidiParser(){};
  19:../libDaisy/src/hid/midi_parser.h ****     ~MidiParser() {}
  76              		.loc 5 19 5 is_stmt 1 view .LVU7
  77              		.loc 5 19 5 is_stmt 0 view .LVU8
  78              	.LBE384:
  79              	.LBB385:
  80              	.LBI385:
  32:../libDaisy/src/hid/midi.h **** 
  81              		.loc 3 32 5 is_stmt 1 view .LVU9
  32:../libDaisy/src/hid/midi.h **** 
  82              		.loc 3 32 5 is_stmt 0 view .LVU10
  83              	.LBE385:
  84              	.LBE381:
  85              	.LBB386:
  86              	.LBI386:
  87              		.file 6 "../libDaisy/src/hid/rgb_led.h"
   1:../libDaisy/src/hid/rgb_led.h **** #pragma once
   2:../libDaisy/src/hid/rgb_led.h **** #ifndef DSY_RGB_LED_H
   3:../libDaisy/src/hid/rgb_led.h **** #define DSY_RGB_LED_H
   4:../libDaisy/src/hid/rgb_led.h **** #include "hid/led.h"
   5:../libDaisy/src/hid/rgb_led.h **** #include "util/color.h"
   6:../libDaisy/src/hid/rgb_led.h **** 
   7:../libDaisy/src/hid/rgb_led.h **** namespace daisy
   8:../libDaisy/src/hid/rgb_led.h **** {
   9:../libDaisy/src/hid/rgb_led.h **** /** @addtogroup feedback
ARM GAS  /var/folders/2p/02m_5p7958535cp2tpgps0400000gn/T//cc82ymlO.s 			page 13


  10:../libDaisy/src/hid/rgb_led.h ****     @{
  11:../libDaisy/src/hid/rgb_led.h **** */
  12:../libDaisy/src/hid/rgb_led.h **** 
  13:../libDaisy/src/hid/rgb_led.h **** /** 3x LEDs configured as an RGB for ease of use. */
  14:../libDaisy/src/hid/rgb_led.h **** class RgbLed
  15:../libDaisy/src/hid/rgb_led.h **** {
  16:../libDaisy/src/hid/rgb_led.h ****   public:
  17:../libDaisy/src/hid/rgb_led.h ****     RgbLed() {}
  18:../libDaisy/src/hid/rgb_led.h ****     ~RgbLed() {}
  88              		.loc 6 18 5 is_stmt 1 view .LVU11
  89              	.LBB387:
  90              	.LBI387:
  91              		.file 7 "../libDaisy/src/hid/led.h"
   1:../libDaisy/src/hid/led.h **** 
   2:../libDaisy/src/hid/led.h **** #pragma once
   3:../libDaisy/src/hid/led.h **** #ifndef DSY_LED_H
   4:../libDaisy/src/hid/led.h **** #define DSY_LED_H
   5:../libDaisy/src/hid/led.h **** #include "daisy_core.h"
   6:../libDaisy/src/hid/led.h **** #include "per/gpio.h"
   7:../libDaisy/src/hid/led.h **** 
   8:../libDaisy/src/hid/led.h **** /* TODO - Get this set up to work with the dev_leddriver stuff as well
   9:../libDaisy/src/hid/led.h **** - Setup Hardware PWM for pins that have it
  10:../libDaisy/src/hid/led.h **** */
  11:../libDaisy/src/hid/led.h **** 
  12:../libDaisy/src/hid/led.h **** namespace daisy
  13:../libDaisy/src/hid/led.h **** {
  14:../libDaisy/src/hid/led.h **** /**
  15:../libDaisy/src/hid/led.h ****     @brief LED Class providing simple Software PWM ability, etc \n 
  16:../libDaisy/src/hid/led.h ****     Eventually this will work with hardware PWM, and external LED Driver devices as well.
  17:../libDaisy/src/hid/led.h ****     @author shensley
  18:../libDaisy/src/hid/led.h ****     @date March 2020
  19:../libDaisy/src/hid/led.h ****     @ingroup feedback
  20:../libDaisy/src/hid/led.h **** */
  21:../libDaisy/src/hid/led.h **** class Led
  22:../libDaisy/src/hid/led.h **** {
  23:../libDaisy/src/hid/led.h ****   public:
  24:../libDaisy/src/hid/led.h ****     Led() {}
  25:../libDaisy/src/hid/led.h ****     ~Led() {}
  92              		.loc 7 25 5 view .LVU12
  93              		.loc 7 25 5 is_stmt 0 view .LVU13
  94              	.LBE387:
  95              	.LBB388:
  96              	.LBI388:
  97              		.loc 7 25 5 is_stmt 1 view .LVU14
  98              		.loc 7 25 5 is_stmt 0 view .LVU15
  99              	.LBE388:
 100              	.LBB389:
 101              	.LBI389:
 102              		.loc 7 25 5 is_stmt 1 view .LVU16
 103              		.loc 7 25 5 is_stmt 0 view .LVU17
 104              	.LBE389:
 105              	.LBE386:
 106              	.LBB390:
 107              	.LBI390:
 108              		.loc 6 18 5 is_stmt 1 view .LVU18
 109              	.LBB391:
 110              	.LBI391:
ARM GAS  /var/folders/2p/02m_5p7958535cp2tpgps0400000gn/T//cc82ymlO.s 			page 14


 111              		.loc 7 25 5 view .LVU19
 112              		.loc 7 25 5 is_stmt 0 view .LVU20
 113              	.LBE391:
 114              	.LBB392:
 115              	.LBI392:
 116              		.loc 7 25 5 is_stmt 1 view .LVU21
 117              		.loc 7 25 5 is_stmt 0 view .LVU22
 118              	.LBE392:
 119              	.LBB393:
 120              	.LBI393:
 121              		.loc 7 25 5 is_stmt 1 view .LVU23
 122              		.loc 7 25 5 is_stmt 0 view .LVU24
 123              	.LBE393:
 124              	.LBE390:
 125              	.LBB394:
 126              	.LBI394:
 127              		.file 8 "../libDaisy/src/hid/switch.h"
   1:../libDaisy/src/hid/switch.h **** #pragma once
   2:../libDaisy/src/hid/switch.h **** #ifndef DSY_SWITCH_H
   3:../libDaisy/src/hid/switch.h **** #define DSY_SWITCH_H
   4:../libDaisy/src/hid/switch.h **** #include "daisy_core.h"
   5:../libDaisy/src/hid/switch.h **** #include "per/gpio.h"
   6:../libDaisy/src/hid/switch.h **** #include "sys/system.h"
   7:../libDaisy/src/hid/switch.h **** 
   8:../libDaisy/src/hid/switch.h **** namespace daisy
   9:../libDaisy/src/hid/switch.h **** {
  10:../libDaisy/src/hid/switch.h **** /** 
  11:../libDaisy/src/hid/switch.h ****     Generic Class for handling momentary/latching switches \n 
  12:../libDaisy/src/hid/switch.h ****     Inspired/influenced by Mutable Instruments (pichenettes) Switch classes
  13:../libDaisy/src/hid/switch.h ****     @author Stephen Hensley
  14:../libDaisy/src/hid/switch.h ****     @date December 2019
  15:../libDaisy/src/hid/switch.h ****     @ingroup controls
  16:../libDaisy/src/hid/switch.h **** */
  17:../libDaisy/src/hid/switch.h **** class Switch
  18:../libDaisy/src/hid/switch.h **** {
  19:../libDaisy/src/hid/switch.h ****   public:
  20:../libDaisy/src/hid/switch.h ****     /** Specifies the expected behavior of the switch */
  21:../libDaisy/src/hid/switch.h ****     enum Type
  22:../libDaisy/src/hid/switch.h ****     {
  23:../libDaisy/src/hid/switch.h ****         TYPE_TOGGLE,    /**< & */
  24:../libDaisy/src/hid/switch.h ****         TYPE_MOMENTARY, /**< & */
  25:../libDaisy/src/hid/switch.h ****     };
  26:../libDaisy/src/hid/switch.h ****     /** Specifies whether the pressed is HIGH or LOW. */
  27:../libDaisy/src/hid/switch.h ****     enum Polarity
  28:../libDaisy/src/hid/switch.h ****     {
  29:../libDaisy/src/hid/switch.h ****         POLARITY_NORMAL,   /**< & */
  30:../libDaisy/src/hid/switch.h ****         POLARITY_INVERTED, /**< & */
  31:../libDaisy/src/hid/switch.h ****     };
  32:../libDaisy/src/hid/switch.h **** 
  33:../libDaisy/src/hid/switch.h ****     /** Specifies whether to use built-in Pull Up/Down resistors to hold button at a given state wh
  34:../libDaisy/src/hid/switch.h ****     enum Pull
  35:../libDaisy/src/hid/switch.h ****     {
  36:../libDaisy/src/hid/switch.h ****         PULL_UP,   /**< & */
  37:../libDaisy/src/hid/switch.h ****         PULL_DOWN, /**< & */
  38:../libDaisy/src/hid/switch.h ****         PULL_NONE, /**< & */
  39:../libDaisy/src/hid/switch.h ****     };
  40:../libDaisy/src/hid/switch.h **** 
ARM GAS  /var/folders/2p/02m_5p7958535cp2tpgps0400000gn/T//cc82ymlO.s 			page 15


  41:../libDaisy/src/hid/switch.h ****     Switch() {}
  42:../libDaisy/src/hid/switch.h ****     ~Switch() {}
 128              		.loc 8 42 5 is_stmt 1 view .LVU25
 129              		.loc 8 42 5 is_stmt 0 view .LVU26
 130              	.LBE394:
 131              	.LBB395:
 132              	.LBI395:
 133              		.loc 8 42 5 is_stmt 1 view .LVU27
 134              		.loc 8 42 5 is_stmt 0 view .LVU28
 135              	.LBE395:
 136              	.LBB396:
 137              	.LBI396:
 138              		.file 9 "../libDaisy/src/hid/ctrl.h"
   1:../libDaisy/src/hid/ctrl.h **** #pragma once
   2:../libDaisy/src/hid/ctrl.h **** #ifndef DSY_KNOB_H
   3:../libDaisy/src/hid/ctrl.h **** #define DSY_KNOB_H /**< & */
   4:../libDaisy/src/hid/ctrl.h **** #include <stdint.h>
   5:../libDaisy/src/hid/ctrl.h **** 
   6:../libDaisy/src/hid/ctrl.h **** #ifdef __cplusplus
   7:../libDaisy/src/hid/ctrl.h **** namespace daisy
   8:../libDaisy/src/hid/ctrl.h **** {
   9:../libDaisy/src/hid/ctrl.h **** /**
  10:../libDaisy/src/hid/ctrl.h ****     @brief Hardware Interface for control inputs \n 
  11:../libDaisy/src/hid/ctrl.h ****     Primarily designed for ADC input controls such as \n 
  12:../libDaisy/src/hid/ctrl.h ****     potentiometers, and control voltage. \n 
  13:../libDaisy/src/hid/ctrl.h ****     @author Stephen Hensley
  14:../libDaisy/src/hid/ctrl.h ****     @date November 2019
  15:../libDaisy/src/hid/ctrl.h ****     @ingroup controls
  16:../libDaisy/src/hid/ctrl.h **** */
  17:../libDaisy/src/hid/ctrl.h **** class AnalogControl
  18:../libDaisy/src/hid/ctrl.h **** {
  19:../libDaisy/src/hid/ctrl.h ****   public:
  20:../libDaisy/src/hid/ctrl.h ****     /** Constructor */
  21:../libDaisy/src/hid/ctrl.h ****     AnalogControl() {}
  22:../libDaisy/src/hid/ctrl.h ****     /** destructor */
  23:../libDaisy/src/hid/ctrl.h ****     ~AnalogControl() {}
 139              		.loc 9 23 5 is_stmt 1 view .LVU29
 140              		.loc 9 23 5 is_stmt 0 view .LVU30
 141              	.LBE396:
 142              	.LBB397:
 143              	.LBI397:
 144              		.loc 9 23 5 is_stmt 1 view .LVU31
 145              		.loc 9 23 5 is_stmt 0 view .LVU32
 146              	.LBE397:
 147              	.LBB398:
 148              	.LBI398:
 149              		.file 10 "../libDaisy/src/hid/encoder.h"
   1:../libDaisy/src/hid/encoder.h **** #pragma once
   2:../libDaisy/src/hid/encoder.h **** #ifndef DSY_ENCODER_H
   3:../libDaisy/src/hid/encoder.h **** #define DSY_ENCODER_H
   4:../libDaisy/src/hid/encoder.h **** #include "daisy_core.h"
   5:../libDaisy/src/hid/encoder.h **** #include "per/gpio.h"
   6:../libDaisy/src/hid/encoder.h **** #include "hid/switch.h"
   7:../libDaisy/src/hid/encoder.h **** 
   8:../libDaisy/src/hid/encoder.h **** namespace daisy
   9:../libDaisy/src/hid/encoder.h **** {
  10:../libDaisy/src/hid/encoder.h **** /** 
ARM GAS  /var/folders/2p/02m_5p7958535cp2tpgps0400000gn/T//cc82ymlO.s 			page 16


  11:../libDaisy/src/hid/encoder.h ****     @brief Generic Class for handling Quadrature Encoders \n 
  12:../libDaisy/src/hid/encoder.h ****     Inspired/influenced by Mutable Instruments (pichenettes) Encoder classes
  13:../libDaisy/src/hid/encoder.h ****     @author Stephen Hensley
  14:../libDaisy/src/hid/encoder.h ****     @date December 2019
  15:../libDaisy/src/hid/encoder.h ****     @ingroup controls
  16:../libDaisy/src/hid/encoder.h **** */
  17:../libDaisy/src/hid/encoder.h **** class Encoder
  18:../libDaisy/src/hid/encoder.h **** {
  19:../libDaisy/src/hid/encoder.h ****   public:
  20:../libDaisy/src/hid/encoder.h ****     Encoder() {}
  21:../libDaisy/src/hid/encoder.h ****     ~Encoder() {}
 150              		.loc 10 21 5 is_stmt 1 view .LVU33
 151              	.LBB399:
 152              	.LBI399:
 153              		.loc 8 42 5 view .LVU34
 154              		.loc 8 42 5 is_stmt 0 view .LVU35
 155              	.LBE399:
 156              	.LBE398:
 157              	.LBB400:
 158              	.LBI400:
 159              		.file 11 "../libDaisy/src/daisy_seed.h"
   1:../libDaisy/src/daisy_seed.h **** #pragma once
   2:../libDaisy/src/daisy_seed.h **** #ifndef DSY_SEED_H
   3:../libDaisy/src/daisy_seed.h **** #define DSY_SEED_H
   4:../libDaisy/src/daisy_seed.h **** 
   5:../libDaisy/src/daisy_seed.h **** #include "daisy.h"
   6:../libDaisy/src/daisy_seed.h **** 
   7:../libDaisy/src/daisy_seed.h **** //Uncomment this out if you're still using the rev2 hardware
   8:../libDaisy/src/daisy_seed.h **** //#define SEED_REV2
   9:../libDaisy/src/daisy_seed.h **** 
  10:../libDaisy/src/daisy_seed.h **** namespace daisy
  11:../libDaisy/src/daisy_seed.h **** {
  12:../libDaisy/src/daisy_seed.h **** /**
  13:../libDaisy/src/daisy_seed.h ****    @brief This is the higher-level interface for the Daisy board. \n 
  14:../libDaisy/src/daisy_seed.h ****     All basic peripheral configuration/initialization is setup here. \n
  15:../libDaisy/src/daisy_seed.h **** 
  16:../libDaisy/src/daisy_seed.h ****    @ingroup boards
  17:../libDaisy/src/daisy_seed.h **** */
  18:../libDaisy/src/daisy_seed.h **** class DaisySeed
  19:../libDaisy/src/daisy_seed.h **** {
  20:../libDaisy/src/daisy_seed.h ****   public:
  21:../libDaisy/src/daisy_seed.h ****     DaisySeed() {}
  22:../libDaisy/src/daisy_seed.h ****     ~DaisySeed() {}
 160              		.loc 11 22 5 is_stmt 1 view .LVU36
 161              	.LBB401:
 162              	.LBI401:
 163              		.file 12 "../libDaisy/src/sys/system.h"
   1:../libDaisy/src/sys/system.h **** #ifndef DSY_SYSTEM_H
   2:../libDaisy/src/sys/system.h **** #define DSY_SYSTEM_H
   3:../libDaisy/src/sys/system.h **** 
   4:../libDaisy/src/sys/system.h **** #ifndef UNIT_TEST // for unit tests, a dummy implementation is provided below
   5:../libDaisy/src/sys/system.h **** 
   6:../libDaisy/src/sys/system.h **** #include <cstdint>
   7:../libDaisy/src/sys/system.h **** #include "per/tim.h"
   8:../libDaisy/src/sys/system.h **** 
   9:../libDaisy/src/sys/system.h **** namespace daisy
  10:../libDaisy/src/sys/system.h **** {
ARM GAS  /var/folders/2p/02m_5p7958535cp2tpgps0400000gn/T//cc82ymlO.s 			page 17


  11:../libDaisy/src/sys/system.h **** /** A handle for interacting with the Core System.
  12:../libDaisy/src/sys/system.h ****  ** This includes the Clock tree, MPU, global DMA initialization,
  13:../libDaisy/src/sys/system.h ****  ** cache handling, and any other necessary global initiailzation
  14:../libDaisy/src/sys/system.h ****  **
  15:../libDaisy/src/sys/system.h ****  ** @author shensley
  16:../libDaisy/src/sys/system.h ****  ** @ingroup system
  17:../libDaisy/src/sys/system.h ****  */
  18:../libDaisy/src/sys/system.h **** class System
  19:../libDaisy/src/sys/system.h **** {
  20:../libDaisy/src/sys/system.h ****   public:
  21:../libDaisy/src/sys/system.h ****     /** Contains settings for initializing the System */
  22:../libDaisy/src/sys/system.h ****     struct Config
  23:../libDaisy/src/sys/system.h ****     {
  24:../libDaisy/src/sys/system.h ****         /** Specifies the system clock frequency that feeds APB/AHB clocks, etc. */
  25:../libDaisy/src/sys/system.h ****         enum class SysClkFreq
  26:../libDaisy/src/sys/system.h ****         {
  27:../libDaisy/src/sys/system.h ****             FREQ_400MHZ,
  28:../libDaisy/src/sys/system.h ****             FREQ_480MHZ,
  29:../libDaisy/src/sys/system.h ****         };
  30:../libDaisy/src/sys/system.h **** 
  31:../libDaisy/src/sys/system.h ****         /** Method to call on the struct to set to defaults
  32:../libDaisy/src/sys/system.h ****          ** CPU Freq set to 400MHz
  33:../libDaisy/src/sys/system.h ****          ** Cache Enabled
  34:../libDaisy/src/sys/system.h ****          ** */
  35:../libDaisy/src/sys/system.h ****         void Defaults()
  36:../libDaisy/src/sys/system.h ****         {
  37:../libDaisy/src/sys/system.h ****             cpu_freq    = SysClkFreq::FREQ_400MHZ;
  38:../libDaisy/src/sys/system.h ****             use_dcache  = true;
  39:../libDaisy/src/sys/system.h ****             use_icache  = true;
  40:../libDaisy/src/sys/system.h ****             skip_clocks = false;
  41:../libDaisy/src/sys/system.h ****         }
  42:../libDaisy/src/sys/system.h **** 
  43:../libDaisy/src/sys/system.h ****         /** Method to call on the struct to set to boost mode:
  44:../libDaisy/src/sys/system.h ****          ** CPU Freq set to 480MHz
  45:../libDaisy/src/sys/system.h ****          ** Cache Enabled
  46:../libDaisy/src/sys/system.h ****          ** */
  47:../libDaisy/src/sys/system.h ****         void Boost()
  48:../libDaisy/src/sys/system.h ****         {
  49:../libDaisy/src/sys/system.h ****             cpu_freq    = SysClkFreq::FREQ_480MHZ;
  50:../libDaisy/src/sys/system.h ****             use_dcache  = true;
  51:../libDaisy/src/sys/system.h ****             use_icache  = true;
  52:../libDaisy/src/sys/system.h ****             skip_clocks = false;
  53:../libDaisy/src/sys/system.h ****         }
  54:../libDaisy/src/sys/system.h **** 
  55:../libDaisy/src/sys/system.h ****         SysClkFreq cpu_freq;
  56:../libDaisy/src/sys/system.h ****         bool       use_dcache;
  57:../libDaisy/src/sys/system.h ****         bool       use_icache;
  58:../libDaisy/src/sys/system.h ****         bool       skip_clocks;
  59:../libDaisy/src/sys/system.h ****     };
  60:../libDaisy/src/sys/system.h **** 
  61:../libDaisy/src/sys/system.h ****     /** Describes the different regions of memory available to the Daisy */
  62:../libDaisy/src/sys/system.h ****     enum MemoryRegion
  63:../libDaisy/src/sys/system.h ****     {
  64:../libDaisy/src/sys/system.h ****         INTERNAL_FLASH = 0,
  65:../libDaisy/src/sys/system.h ****         ITCMRAM,
  66:../libDaisy/src/sys/system.h ****         DTCMRAM,
  67:../libDaisy/src/sys/system.h ****         SRAM_D1,
ARM GAS  /var/folders/2p/02m_5p7958535cp2tpgps0400000gn/T//cc82ymlO.s 			page 18


  68:../libDaisy/src/sys/system.h ****         SRAM_D2,
  69:../libDaisy/src/sys/system.h ****         SRAM_D3,
  70:../libDaisy/src/sys/system.h ****         SDRAM,
  71:../libDaisy/src/sys/system.h ****         QSPI,
  72:../libDaisy/src/sys/system.h ****         INVALID_ADDRESS,
  73:../libDaisy/src/sys/system.h ****     };
  74:../libDaisy/src/sys/system.h **** 
  75:../libDaisy/src/sys/system.h ****     /** Bootloader struct for controlling bootloading parameters */
  76:../libDaisy/src/sys/system.h ****     struct BootInfo
  77:../libDaisy/src/sys/system.h ****     {
  78:../libDaisy/src/sys/system.h ****         enum class Type : uint32_t
  79:../libDaisy/src/sys/system.h ****         {
  80:../libDaisy/src/sys/system.h ****             INVALID      = 0x00000000,
  81:../libDaisy/src/sys/system.h ****             JUMP         = 0xDEADBEEF,
  82:../libDaisy/src/sys/system.h ****             SKIP_TIMEOUT = 0x5AFEB007,
  83:../libDaisy/src/sys/system.h ****             INF_TIMEOUT  = 0xB0074EFA,
  84:../libDaisy/src/sys/system.h ****         } status;
  85:../libDaisy/src/sys/system.h ****         uint32_t data;
  86:../libDaisy/src/sys/system.h ****         enum class Version : uint32_t
  87:../libDaisy/src/sys/system.h ****         {
  88:../libDaisy/src/sys/system.h ****             LT_v6_0 = 0, // Less than v6.0
  89:../libDaisy/src/sys/system.h ****             NONE,        // No bootloader present
  90:../libDaisy/src/sys/system.h ****             v6_0,        // v6.0
  91:../libDaisy/src/sys/system.h ****             v6_1,        // v6.1 or greater
  92:../libDaisy/src/sys/system.h ****             LAST
  93:../libDaisy/src/sys/system.h ****         } version;
  94:../libDaisy/src/sys/system.h ****     };
  95:../libDaisy/src/sys/system.h **** 
  96:../libDaisy/src/sys/system.h ****     System() {}
  97:../libDaisy/src/sys/system.h ****     ~System() {}
 164              		.loc 12 97 5 view .LVU37
 165              		.loc 12 97 5 is_stmt 0 view .LVU38
 166              	.LBE401:
 167              	.LBB402:
 168              	.LBI402:
 169              		.file 13 "../libDaisy/src/hid/usb.h"
   1:../libDaisy/src/hid/usb.h **** #pragma once
   2:../libDaisy/src/hid/usb.h **** #ifndef DSY_HID_USB_H
   3:../libDaisy/src/hid/usb.h **** #define DSY_HID_USB_H
   4:../libDaisy/src/hid/usb.h **** #include <stdint.h>
   5:../libDaisy/src/hid/usb.h **** #include <stdlib.h>
   6:../libDaisy/src/hid/usb.h **** 
   7:../libDaisy/src/hid/usb.h **** namespace daisy
   8:../libDaisy/src/hid/usb.h **** /** @addtogroup human_interface
   9:../libDaisy/src/hid/usb.h ****     @{
  10:../libDaisy/src/hid/usb.h **** */
  11:../libDaisy/src/hid/usb.h **** 
  12:../libDaisy/src/hid/usb.h **** {
  13:../libDaisy/src/hid/usb.h **** /** 
  14:../libDaisy/src/hid/usb.h ****     @brief Interface for initializing and using the USB Peripherals on the daisy
  15:../libDaisy/src/hid/usb.h ****     @author Stephen Hensley
  16:../libDaisy/src/hid/usb.h ****     @date December 2019
  17:../libDaisy/src/hid/usb.h **** */
  18:../libDaisy/src/hid/usb.h **** class UsbHandle
  19:../libDaisy/src/hid/usb.h **** {
  20:../libDaisy/src/hid/usb.h ****   public:
  21:../libDaisy/src/hid/usb.h ****     /** Return values for USBHandle Functions */
ARM GAS  /var/folders/2p/02m_5p7958535cp2tpgps0400000gn/T//cc82ymlO.s 			page 19


  22:../libDaisy/src/hid/usb.h ****     enum class Result
  23:../libDaisy/src/hid/usb.h ****     {
  24:../libDaisy/src/hid/usb.h ****         OK,
  25:../libDaisy/src/hid/usb.h ****         ERR,
  26:../libDaisy/src/hid/usb.h ****     };
  27:../libDaisy/src/hid/usb.h **** 
  28:../libDaisy/src/hid/usb.h ****     /** Specified which of the two USB Peripherals to initialize. */
  29:../libDaisy/src/hid/usb.h ****     enum UsbPeriph
  30:../libDaisy/src/hid/usb.h ****     {
  31:../libDaisy/src/hid/usb.h ****         FS_INTERNAL, /**< Internal pin */
  32:../libDaisy/src/hid/usb.h ****         FS_EXTERNAL, /**< FS External D+ pin is Pin 38 (GPIO32). FS External D- pin is Pin 37 (GPIO
  33:../libDaisy/src/hid/usb.h ****         FS_BOTH,     /**< Both */
  34:../libDaisy/src/hid/usb.h ****     };
  35:../libDaisy/src/hid/usb.h **** 
  36:../libDaisy/src/hid/usb.h **** 
  37:../libDaisy/src/hid/usb.h ****     /** Function called upon reception of a buffer */
  38:../libDaisy/src/hid/usb.h ****     typedef void (*ReceiveCallback)(uint8_t* buff, uint32_t* len);
  39:../libDaisy/src/hid/usb.h **** 
  40:../libDaisy/src/hid/usb.h ****     UsbHandle() {}
  41:../libDaisy/src/hid/usb.h **** 
  42:../libDaisy/src/hid/usb.h ****     ~UsbHandle() {}
 170              		.loc 13 42 5 is_stmt 1 view .LVU39
 171              		.loc 13 42 5 is_stmt 0 view .LVU40
 172              	.LBE402:
 173              	.LBB403:
 174              	.LBI403:
 175              		.file 14 "../libDaisy/src/per/adc.h"
   1:../libDaisy/src/per/adc.h **** #pragma once
   2:../libDaisy/src/per/adc.h **** #ifndef DSY_ADC_H
   3:../libDaisy/src/per/adc.h **** #define DSY_ADC_H /**< Macro */
   4:../libDaisy/src/per/adc.h **** #include <stdint.h>
   5:../libDaisy/src/per/adc.h **** #include <stdlib.h>
   6:../libDaisy/src/per/adc.h **** #include "daisy_core.h"
   7:../libDaisy/src/per/adc.h **** #include "per/gpio.h"
   8:../libDaisy/src/per/adc.h **** 
   9:../libDaisy/src/per/adc.h **** #define DSY_ADC_MAX_CHANNELS 16 /**< Maximum number of ADC channels */
  10:../libDaisy/src/per/adc.h **** 
  11:../libDaisy/src/per/adc.h **** namespace daisy
  12:../libDaisy/src/per/adc.h **** {
  13:../libDaisy/src/per/adc.h **** /** @addtogroup per_analog
  14:../libDaisy/src/per/adc.h ****     @{
  15:../libDaisy/src/per/adc.h **** */
  16:../libDaisy/src/per/adc.h **** 
  17:../libDaisy/src/per/adc.h **** /* While there may not be many configuration options here,
  18:../libDaisy/src/per/adc.h **** using a struct like this allows us to add more configuration
  19:../libDaisy/src/per/adc.h **** later without breaking existing functionality.
  20:../libDaisy/src/per/adc.h **** */
  21:../libDaisy/src/per/adc.h **** 
  22:../libDaisy/src/per/adc.h **** /** @brief   Configuration Structure for an ADC Channel 
  23:../libDaisy/src/per/adc.h ****  *  @details This can be used to configure a a single input, 
  24:../libDaisy/src/per/adc.h ****  *           or a multiplexed input, allowing up to 8 inputs on 
  25:../libDaisy/src/per/adc.h ****  *           one channel.
  26:../libDaisy/src/per/adc.h ****  *  @note    Sharing data lines to multiple muxes _is_ possible, but
  27:../libDaisy/src/per/adc.h ****  *           each channel sharing data lines must be set to the maximum
  28:../libDaisy/src/per/adc.h ****  *           number of channels, even if some multiplexers have fewer
  29:../libDaisy/src/per/adc.h ****  *           inputs connected.
  30:../libDaisy/src/per/adc.h **** */
ARM GAS  /var/folders/2p/02m_5p7958535cp2tpgps0400000gn/T//cc82ymlO.s 			page 20


  31:../libDaisy/src/per/adc.h **** struct AdcChannelConfig
  32:../libDaisy/src/per/adc.h **** {
  33:../libDaisy/src/per/adc.h ****     /** Which pin to use for multiplexing */
  34:../libDaisy/src/per/adc.h ****     enum MuxPin
  35:../libDaisy/src/per/adc.h ****     {
  36:../libDaisy/src/per/adc.h ****         MUX_SEL_0,    /**< & */
  37:../libDaisy/src/per/adc.h ****         MUX_SEL_1,    /**< & */
  38:../libDaisy/src/per/adc.h ****         MUX_SEL_2,    /**< & */
  39:../libDaisy/src/per/adc.h ****         MUX_SEL_LAST, /**< & */
  40:../libDaisy/src/per/adc.h ****     };
  41:../libDaisy/src/per/adc.h **** 
  42:../libDaisy/src/per/adc.h ****     /** \brief per channel conversion speed added to fixed time based on bitdepth, etc. */
  43:../libDaisy/src/per/adc.h ****     enum ConversionSpeed
  44:../libDaisy/src/per/adc.h ****     {
  45:../libDaisy/src/per/adc.h ****         SPEED_1CYCLES_5,
  46:../libDaisy/src/per/adc.h ****         SPEED_2CYCLES_5,
  47:../libDaisy/src/per/adc.h ****         SPEED_8CYCLES_5,
  48:../libDaisy/src/per/adc.h ****         SPEED_16CYCLES_5,
  49:../libDaisy/src/per/adc.h ****         SPEED_32CYCLES_5,
  50:../libDaisy/src/per/adc.h ****         SPEED_64CYCLES_5,
  51:../libDaisy/src/per/adc.h ****         SPEED_387CYCLES_5,
  52:../libDaisy/src/per/adc.h ****         SPEED_810CYCLES_5,
  53:../libDaisy/src/per/adc.h ****     };
  54:../libDaisy/src/per/adc.h **** 
  55:../libDaisy/src/per/adc.h ****     /** Initializes a single ADC pin as an ADC. 
  56:../libDaisy/src/per/adc.h ****     \param pin Pin to init.
  57:../libDaisy/src/per/adc.h ****     \param speed conversion speed for this pin defaults to 8.5 cycles
  58:../libDaisy/src/per/adc.h ****      */
  59:../libDaisy/src/per/adc.h ****     void InitSingle(dsy_gpio_pin pin, ConversionSpeed speed = SPEED_8CYCLES_5);
  60:../libDaisy/src/per/adc.h **** 
  61:../libDaisy/src/per/adc.h ****     /** 
  62:../libDaisy/src/per/adc.h ****     Initializes a single ADC pin as a Multiplexed ADC.
  63:../libDaisy/src/per/adc.h ****     Requires a CD405X Multiplexer connected to the pin.
  64:../libDaisy/src/per/adc.h ****     You only need to supply the mux pins that are required,
  65:../libDaisy/src/per/adc.h ****     e.g. a 4052 mux would only require mux_0 and mux_1.
  66:../libDaisy/src/per/adc.h ****     Internal Callbacks handle the pin addressing.
  67:../libDaisy/src/per/adc.h ****     \param adc_pin &
  68:../libDaisy/src/per/adc.h ****     \param mux_channels must be 1-8
  69:../libDaisy/src/per/adc.h ****     \param mux_0 First mux pin
  70:../libDaisy/src/per/adc.h ****     \param mux_1 Second mux pin
  71:../libDaisy/src/per/adc.h ****     \param mux_2 Third mux pin
  72:../libDaisy/src/per/adc.h ****     \param speed conversion speed for this pin defaults to 8.5 cycles
  73:../libDaisy/src/per/adc.h ****     */
  74:../libDaisy/src/per/adc.h ****     void InitMux(dsy_gpio_pin    adc_pin,
  75:../libDaisy/src/per/adc.h ****                  size_t          mux_channels,
  76:../libDaisy/src/per/adc.h ****                  dsy_gpio_pin    mux_0,
  77:../libDaisy/src/per/adc.h ****                  dsy_gpio_pin    mux_1 = {DSY_GPIOX, 0},
  78:../libDaisy/src/per/adc.h ****                  dsy_gpio_pin    mux_2 = {DSY_GPIOX, 0},
  79:../libDaisy/src/per/adc.h ****                  ConversionSpeed speed = SPEED_8CYCLES_5);
  80:../libDaisy/src/per/adc.h **** 
  81:../libDaisy/src/per/adc.h ****     dsy_gpio        pin_;                   /**< & */
  82:../libDaisy/src/per/adc.h ****     dsy_gpio        mux_pin_[MUX_SEL_LAST]; /**< & */
  83:../libDaisy/src/per/adc.h ****     uint8_t         mux_channels_;          /**< & */
  84:../libDaisy/src/per/adc.h ****     ConversionSpeed speed_;
  85:../libDaisy/src/per/adc.h **** };
  86:../libDaisy/src/per/adc.h **** 
  87:../libDaisy/src/per/adc.h **** /**
ARM GAS  /var/folders/2p/02m_5p7958535cp2tpgps0400000gn/T//cc82ymlO.s 			page 21


  88:../libDaisy/src/per/adc.h ****    @brief Handler for analog to digital conversion
  89:../libDaisy/src/per/adc.h **** */
  90:../libDaisy/src/per/adc.h **** class AdcHandle
  91:../libDaisy/src/per/adc.h **** {
  92:../libDaisy/src/per/adc.h ****   public:
  93:../libDaisy/src/per/adc.h ****     /** Supported oversampling amounts */
  94:../libDaisy/src/per/adc.h ****     enum OverSampling
  95:../libDaisy/src/per/adc.h ****     {
  96:../libDaisy/src/per/adc.h ****         OVS_NONE, /**< & */
  97:../libDaisy/src/per/adc.h ****         OVS_4,    /**< & */
  98:../libDaisy/src/per/adc.h ****         OVS_8,    /**< & */
  99:../libDaisy/src/per/adc.h ****         OVS_16,   /**< & */
 100:../libDaisy/src/per/adc.h ****         OVS_32,   /**< & */
 101:../libDaisy/src/per/adc.h ****         OVS_64,   /**< & */
 102:../libDaisy/src/per/adc.h ****         OVS_128,  /**< & */
 103:../libDaisy/src/per/adc.h ****         OVS_256,  /**< & */
 104:../libDaisy/src/per/adc.h ****         OVS_512,  /**< & */
 105:../libDaisy/src/per/adc.h ****         OVS_1024, /**< & */
 106:../libDaisy/src/per/adc.h ****         OVS_LAST, /**< & */
 107:../libDaisy/src/per/adc.h ****     };
 108:../libDaisy/src/per/adc.h **** 
 109:../libDaisy/src/per/adc.h ****     AdcHandle() {}
 110:../libDaisy/src/per/adc.h ****     ~AdcHandle() {}
 176              		.loc 14 110 5 is_stmt 1 view .LVU41
 177              		.loc 14 110 5 is_stmt 0 view .LVU42
 178              	.LBE403:
 179              	.LBB404:
 180              	.LBI404:
 181              		.file 15 "../libDaisy/src/hid/audio.h"
   1:../libDaisy/src/hid/audio.h **** #ifndef DSY_AUDIO_H
   2:../libDaisy/src/hid/audio.h **** #define DSY_AUDIO_H /**< & */
   3:../libDaisy/src/hid/audio.h **** 
   4:../libDaisy/src/hid/audio.h **** #include "per/sai.h"
   5:../libDaisy/src/hid/audio.h **** 
   6:../libDaisy/src/hid/audio.h **** namespace daisy
   7:../libDaisy/src/hid/audio.h **** {
   8:../libDaisy/src/hid/audio.h **** /** @brief Audio Engine Handle
   9:../libDaisy/src/hid/audio.h ****  *  @ingroup audio 
  10:../libDaisy/src/hid/audio.h ****  *  @details This class allows for higher level access to an audio engine.
  11:../libDaisy/src/hid/audio.h ****  *           If you're using a SOM like the DaisySeed or DaisyPatchSM (or any 
  12:../libDaisy/src/hid/audio.h ****  *            board that includes one of those objects) then the intialization
  13:../libDaisy/src/hid/audio.h ****  *            is already taken  care of.
  14:../libDaisy/src/hid/audio.h ****  *           If you're setting up your own custom hardware, or need to make changes
  15:../libDaisy/src/hid/audio.h ****  *           you will have to take the following steps:
  16:../libDaisy/src/hid/audio.h ****  *             1. Create and Initialize an SaiHandle or two depending on your requirements
  17:../libDaisy/src/hid/audio.h ****  *             2. Initialize the Audio Handle with the desired settings and the Initialized SaiHand
  18:../libDaisy/src/hid/audio.h ****  *             3. If the connected codec requires special configuration or initialization, do so
  19:../libDaisy/src/hid/audio.h ****  *             4. Write a callback method using either the AudioCallback or the InterleavingAudioCa
  20:../libDaisy/src/hid/audio.h ****  *             5. Start the Audio using one of the StartAudio function
  21:../libDaisy/src/hid/audio.h ****  */
  22:../libDaisy/src/hid/audio.h **** class AudioHandle
  23:../libDaisy/src/hid/audio.h **** {
  24:../libDaisy/src/hid/audio.h ****   public:
  25:../libDaisy/src/hid/audio.h ****     /** Manually configurable details about the Audio Engine */
  26:../libDaisy/src/hid/audio.h ****     /** TODO: Figure out how to get samplerate in here. */
  27:../libDaisy/src/hid/audio.h ****     struct Config
  28:../libDaisy/src/hid/audio.h ****     {
ARM GAS  /var/folders/2p/02m_5p7958535cp2tpgps0400000gn/T//cc82ymlO.s 			page 22


  29:../libDaisy/src/hid/audio.h ****         /** number of samples to process per callback */
  30:../libDaisy/src/hid/audio.h ****         size_t blocksize;
  31:../libDaisy/src/hid/audio.h **** 
  32:../libDaisy/src/hid/audio.h ****         /**< Sample rate of audio */
  33:../libDaisy/src/hid/audio.h ****         SaiHandle::Config::SampleRate samplerate;
  34:../libDaisy/src/hid/audio.h **** 
  35:../libDaisy/src/hid/audio.h ****         /** factor for adjustment before and after callback for hardware that may have extra headro
  36:../libDaisy/src/hid/audio.h ****         float postgain;
  37:../libDaisy/src/hid/audio.h **** 
  38:../libDaisy/src/hid/audio.h ****         /** factor for additional one-sided compensation to audio path for hardware that may
  39:../libDaisy/src/hid/audio.h ****          *  have unequal input/output ranges
  40:../libDaisy/src/hid/audio.h ****          */
  41:../libDaisy/src/hid/audio.h ****         float output_compensation;
  42:../libDaisy/src/hid/audio.h **** 
  43:../libDaisy/src/hid/audio.h ****         /** Sets default values for config struct */
  44:../libDaisy/src/hid/audio.h ****         Config()
  45:../libDaisy/src/hid/audio.h ****         : blocksize(48),
  46:../libDaisy/src/hid/audio.h ****           samplerate(SaiHandle::Config::SampleRate::SAI_48KHZ),
  47:../libDaisy/src/hid/audio.h ****           postgain(1.f),
  48:../libDaisy/src/hid/audio.h ****           output_compensation(1.f)
  49:../libDaisy/src/hid/audio.h ****         {
  50:../libDaisy/src/hid/audio.h ****         }
  51:../libDaisy/src/hid/audio.h ****     };
  52:../libDaisy/src/hid/audio.h **** 
  53:../libDaisy/src/hid/audio.h ****     enum class Result
  54:../libDaisy/src/hid/audio.h ****     {
  55:../libDaisy/src/hid/audio.h ****         OK,
  56:../libDaisy/src/hid/audio.h ****         ERR,
  57:../libDaisy/src/hid/audio.h ****     };
  58:../libDaisy/src/hid/audio.h **** 
  59:../libDaisy/src/hid/audio.h ****     /** Non-Interleaving input buffer
  60:../libDaisy/src/hid/audio.h ****      * Buffer arranged by float[chn][sample] 
  61:../libDaisy/src/hid/audio.h ****      * const so that the user can't modify the input
  62:../libDaisy/src/hid/audio.h ****      */
  63:../libDaisy/src/hid/audio.h ****     typedef const float* const* InputBuffer;
  64:../libDaisy/src/hid/audio.h **** 
  65:../libDaisy/src/hid/audio.h ****     /** Non-Interleaving output buffer
  66:../libDaisy/src/hid/audio.h ****      * Arranged by float[chn][sample] 
  67:../libDaisy/src/hid/audio.h ****      */
  68:../libDaisy/src/hid/audio.h ****     typedef float** OutputBuffer;
  69:../libDaisy/src/hid/audio.h **** 
  70:../libDaisy/src/hid/audio.h ****     /** Type for a Non-Interleaving audio callback 
  71:../libDaisy/src/hid/audio.h ****      * Non-Interleaving audio callbacks in daisy will be of this type
  72:../libDaisy/src/hid/audio.h ****      */
  73:../libDaisy/src/hid/audio.h ****     typedef void (*AudioCallback)(InputBuffer  in,
  74:../libDaisy/src/hid/audio.h ****                                   OutputBuffer out,
  75:../libDaisy/src/hid/audio.h ****                                   size_t       size);
  76:../libDaisy/src/hid/audio.h **** 
  77:../libDaisy/src/hid/audio.h ****     /** Interleaving Input buffer
  78:../libDaisy/src/hid/audio.h ****      ** audio is prepared as { L0, R0, L1, R1, . . . LN, RN }]
  79:../libDaisy/src/hid/audio.h ****      ** this is const, as the user shouldn't modify it
  80:../libDaisy/src/hid/audio.h ****     */
  81:../libDaisy/src/hid/audio.h ****     typedef const float* InterleavingInputBuffer;
  82:../libDaisy/src/hid/audio.h **** 
  83:../libDaisy/src/hid/audio.h ****     /** Interleaving Output buffer 
  84:../libDaisy/src/hid/audio.h ****      ** audio is prepared as { L0, R0, L1, R1, . . . LN, RN }
  85:../libDaisy/src/hid/audio.h ****     */
ARM GAS  /var/folders/2p/02m_5p7958535cp2tpgps0400000gn/T//cc82ymlO.s 			page 23


  86:../libDaisy/src/hid/audio.h ****     typedef float* InterleavingOutputBuffer;
  87:../libDaisy/src/hid/audio.h **** 
  88:../libDaisy/src/hid/audio.h ****     /** Interleaving Audio Callback 
  89:../libDaisy/src/hid/audio.h ****      * Interleaving audio callbacks in daisy must be of this type
  90:../libDaisy/src/hid/audio.h ****      */
  91:../libDaisy/src/hid/audio.h ****     typedef void (*InterleavingAudioCallback)(InterleavingInputBuffer  in,
  92:../libDaisy/src/hid/audio.h ****                                               InterleavingOutputBuffer out,
  93:../libDaisy/src/hid/audio.h ****                                               size_t                   size);
  94:../libDaisy/src/hid/audio.h **** 
  95:../libDaisy/src/hid/audio.h ****     AudioHandle() : pimpl_(nullptr) {}
  96:../libDaisy/src/hid/audio.h ****     ~AudioHandle() {}
 182              		.loc 15 96 5 is_stmt 1 view .LVU43
 183              		.loc 15 96 5 is_stmt 0 view .LVU44
 184              	.LBE404:
 185              	.LBE400:
 186              		.loc 2 36 18 view .LVU45
 187 0000 7047     		bx	lr
 188              		.cfi_endproc
 189              	.LFE4686:
 191              		.weak	_ZN5daisy8DaisyPodD1Ev
 192              		.thumb_set _ZN5daisy8DaisyPodD1Ev,_ZN5daisy8DaisyPodD2Ev
 193 0002 00BF     		.section	.rodata._Z11InitObjectsv.str1.4,"aMS",%progbits,1
 194              		.align	2
 195              	.LC0:
 196 0000 2F00     		.ascii	"/\000"
 197              		.section	.text._Z11InitObjectsv,"ax",%progbits
 198              		.align	1
 199              		.p2align 2,,3
 200              		.global	_Z11InitObjectsv
 201              		.syntax unified
 202              		.thumb
 203              		.thumb_func
 205              	_Z11InitObjectsv:
 206              	.LFB4948:
 207              		.file 16 "main.cpp"
   1:main.cpp      **** #ifdef DEBUG_MODE // TODO: remove
   2:main.cpp      **** #pragma message("Debug mode is ON")
   3:main.cpp      **** #else
   4:main.cpp      **** #pragma message("Debug mode is OFF")
   5:main.cpp      **** #endif
   6:main.cpp      **** 
   7:main.cpp      **** #include <stdio.h>
   8:main.cpp      **** #include "daisysp.h"
   9:main.cpp      **** #include "daisy_pod.h"
  10:main.cpp      **** #include "AudioFileManager.h"
  11:main.cpp      **** #include "GranularSynth.h"
  12:main.cpp      **** #include "GrannyChordApp.h"
  13:main.cpp      **** #include "constants_utils.h"
  14:main.cpp      **** #include "debug_print.h"
  15:main.cpp      **** #include "zita-rev1/source/reverb.h"
  16:main.cpp      **** 
  17:main.cpp      **** //NOTE: FOUND SAMPLE RATE CONVERTER - SEE IF IT WORKS WELL
  18:main.cpp      **** // it's at stmlib/sample_rate_converter.h 
  19:main.cpp      **** // in daisyexamples - will have to copy stmlib
  20:main.cpp      **** CpuLoadMeter cpumeter;
  21:main.cpp      **** 
  22:main.cpp      **** using namespace daisy;
ARM GAS  /var/folders/2p/02m_5p7958535cp2tpgps0400000gn/T//cc82ymlO.s 			page 24


  23:main.cpp      **** using namespace daisysp;
  24:main.cpp      **** using namespace std;
  25:main.cpp      **** 
  26:main.cpp      **** /* SDRAM buffers for storing WAV files or recorded input audio */
  27:main.cpp      **** DSY_SDRAM_BSS alignas(16) int16_t left_buf[CHNL_BUF_SIZE_SAMPS];
  28:main.cpp      **** DSY_SDRAM_BSS alignas(16) int16_t right_buf[CHNL_BUF_SIZE_SAMPS];
  29:main.cpp      **** 
  30:main.cpp      **** /* hardware interfaces */
  31:main.cpp      **** DATA_ DaisyPod pod;
  32:main.cpp      **** DATA_ SdmmcHandler sd;
  33:main.cpp      **** DATA_ FatFSInterface fsi;
  34:main.cpp      **** DATA_ FIL file;
  35:main.cpp      **** /* software classes to run app */
  36:main.cpp      **** // AudioFileManager filemgr(sd, fsi, pod, &file);
  37:main.cpp      **** DATA_ static AudioFileManager filemgr;
  38:main.cpp      **** 
  39:main.cpp      **** // DSY_SDRAM_BSS AudioFileManager filemgr(sd, fsi, pod, &file);
  40:main.cpp      **** // static DTCMRAM_BSS GranularSynth synth(pod);
  41:main.cpp      **** DATA_ static GranularSynth synth;
  42:main.cpp      **** 
  43:main.cpp      **** // static DTCMRAM_BSS GrannyChordApp app(pod, synth, filemgr);
  44:main.cpp      **** DATA_ static GrannyChordApp app;
  45:main.cpp      **** 
  46:main.cpp      **** /* we set rng state here so we can use RNG fns across classes */
  47:main.cpp      **** uint32_t rng_state;
  48:main.cpp      **** 
  49:main.cpp      **** bool InitObjects(){
 208              		.loc 16 49 19 is_stmt 1 view -0
 209              		.cfi_startproc
 210              		@ args = 0, pretend = 0, frame = 16
 211              		@ frame_needed = 0, uses_anonymous_args = 0
  50:main.cpp      ****   SdmmcHandler::Config sd_cfg;
 212              		.loc 16 50 3 view .LVU47
  51:main.cpp      ****   sd_cfg.Defaults();
 213              		.loc 16 51 3 view .LVU48
  49:main.cpp      ****   SdmmcHandler::Config sd_cfg;
 214              		.loc 16 49 19 is_stmt 0 view .LVU49
 215 0000 70B5     		push	{r4, r5, r6, lr}
 216              		.cfi_def_cfa_offset 16
 217              		.cfi_offset 4, -16
 218              		.cfi_offset 5, -12
 219              		.cfi_offset 6, -8
 220              		.cfi_offset 14, -4
 221              	.LBB414:
 222              	.LBB415:
  71:../libDaisy/src/per/sdmmc.h ****             width           = BusWidth::BITS_4;
 223              		.loc 1 71 29 view .LVU50
 224 0002 9FED1D7B 		vldr.64	d7, .L9	@ int
 225              	.LBE415:
 226              	.LBE414:
  49:main.cpp      ****   SdmmcHandler::Config sd_cfg;
 227              		.loc 16 49 19 view .LVU51
 228 0006 86B0     		sub	sp, sp, #24
 229              		.cfi_def_cfa_offset 40
 230              	.LVL2:
 231              	.LBB418:
 232              	.LBI414:
ARM GAS  /var/folders/2p/02m_5p7958535cp2tpgps0400000gn/T//cc82ymlO.s 			page 25


  69:../libDaisy/src/per/sdmmc.h ****         {
 233              		.loc 1 69 14 is_stmt 1 view .LVU52
 234              	.LBB416:
  71:../libDaisy/src/per/sdmmc.h ****             width           = BusWidth::BITS_4;
 235              		.loc 1 71 13 view .LVU53
  72:../libDaisy/src/per/sdmmc.h ****             clock_powersave = false;
 236              		.loc 1 72 13 view .LVU54
  73:../libDaisy/src/per/sdmmc.h ****         }
 237              		.loc 1 73 29 is_stmt 0 view .LVU55
 238 0008 0023     		movs	r3, #0
 239              	.LBE416:
 240              	.LBE418:
  52:main.cpp      ****   if (sd.Init(sd_cfg) != SdmmcHandler::Result::OK) {
 241              		.loc 16 52 14 view .LVU56
 242 000a 1D48     		ldr	r0, .L9+8
 243 000c 02A9     		add	r1, sp, #8
 244              	.LVL3:
 245              	.LBB419:
 246              	.LBB417:
  73:../libDaisy/src/per/sdmmc.h ****         }
 247              		.loc 1 73 29 view .LVU57
 248 000e 8DF81030 		strb	r3, [sp, #16]
  71:../libDaisy/src/per/sdmmc.h ****             width           = BusWidth::BITS_4;
 249              		.loc 1 71 29 view .LVU58
 250 0012 8DED027B 		vstr.64	d7, [sp, #8]	@ int
  73:../libDaisy/src/per/sdmmc.h ****         }
 251              		.loc 1 73 13 is_stmt 1 view .LVU59
 252              	.LVL4:
  73:../libDaisy/src/per/sdmmc.h ****         }
 253              		.loc 1 73 13 is_stmt 0 view .LVU60
 254              	.LBE417:
 255              	.LBE419:
 256              		.loc 16 52 3 is_stmt 1 view .LVU61
 257              		.loc 16 52 14 is_stmt 0 view .LVU62
 258 0016 FFF7FEFF 		bl	_ZN5daisy12SdmmcHandler4InitERKNS0_6ConfigE
 259              	.LVL5:
 260              		.loc 16 52 3 view .LVU63
 261 001a 10B1     		cbz	r0, .L5
 262              	.L7:
  53:main.cpp      ****     return false;
 263              		.loc 16 53 12 view .LVU64
 264 001c 0020     		movs	r0, #0
  54:main.cpp      ****   }
  55:main.cpp      ****   fsi.Init(FatFSInterface::Config::MEDIA_SD);
  56:main.cpp      ****   if (f_mount(&fsi.GetSDFileSystem(),"/",1) != FR_OK){
  57:main.cpp      ****     return false;
  58:main.cpp      ****   }
  59:main.cpp      ****   filemgr.Init(sd, fsi, pod, nullptr);
  60:main.cpp      ****   synth.Init(pod, left_buf, right_buf, 0);
  61:main.cpp      ****   app.Init(pod,synth, filemgr, left_buf, right_buf);
  62:main.cpp      ****   return true;
  63:main.cpp      **** }
 265              		.loc 16 63 1 view .LVU65
 266 001e 06B0     		add	sp, sp, #24
 267              		.cfi_remember_state
 268              		.cfi_def_cfa_offset 16
 269              		@ sp needed
ARM GAS  /var/folders/2p/02m_5p7958535cp2tpgps0400000gn/T//cc82ymlO.s 			page 26


 270 0020 70BD     		pop	{r4, r5, r6, pc}
 271              	.L5:
 272              		.cfi_restore_state
  55:main.cpp      ****   if (f_mount(&fsi.GetSDFileSystem(),"/",1) != FR_OK){
 273              		.loc 16 55 3 is_stmt 1 view .LVU66
  55:main.cpp      ****   if (f_mount(&fsi.GetSDFileSystem(),"/",1) != FR_OK){
 274              		.loc 16 55 11 is_stmt 0 view .LVU67
 275 0022 0121     		movs	r1, #1
 276 0024 1748     		ldr	r0, .L9+12
 277 0026 FFF7FEFF 		bl	_ZN5daisy14FatFSInterface4InitEh
 278              	.LVL6:
  56:main.cpp      ****     return false;
 279              		.loc 16 56 3 is_stmt 1 view .LVU68
 280              	.LBB420:
 281              	.LBI420:
 282              		.file 17 "../libDaisy/src/sys/fatfs.h"
   1:../libDaisy/src/sys/fatfs.h **** #ifndef __fatfs_H
   2:../libDaisy/src/sys/fatfs.h **** #define __fatfs_H /**< & */
   3:../libDaisy/src/sys/fatfs.h **** 
   4:../libDaisy/src/sys/fatfs.h **** #include "ff.h"
   5:../libDaisy/src/sys/fatfs.h **** 
   6:../libDaisy/src/sys/fatfs.h **** namespace daisy
   7:../libDaisy/src/sys/fatfs.h **** {
   8:../libDaisy/src/sys/fatfs.h **** /** @brief Daisy FatFS Driver Interface
   9:../libDaisy/src/sys/fatfs.h ****  *  @details Specifies the desired media (SD Card, USB, etc.) to be mountable with FatFS
  10:../libDaisy/src/sys/fatfs.h ****  *           within a given application. Once initialization is called, the standard
  11:../libDaisy/src/sys/fatfs.h ****  *           FatFS API will be usable with the media mounted in the order 
  12:../libDaisy/src/sys/fatfs.h ****  *           they are listed in the Media config struct. 
  13:../libDaisy/src/sys/fatfs.h ****  *           For example, when only using an SD Card, it will mount at "0:/",
  14:../libDaisy/src/sys/fatfs.h ****  *           when only using USB, it will mount at "0:/". However, when mounting 
  15:../libDaisy/src/sys/fatfs.h ****  *           with SD card and USB, the SD card will mount at "0:/", and the USB 
  16:../libDaisy/src/sys/fatfs.h ****  *           will mount at "1:/".
  17:../libDaisy/src/sys/fatfs.h ****  *           The relevant hardware peripheral (SDMMC, or MSD) needs to be initialized
  18:../libDaisy/src/sys/fatfs.h ****  *           separately by the application before using FatFS.
  19:../libDaisy/src/sys/fatfs.h ****  *          
  20:../libDaisy/src/sys/fatfs.h ****  *           This object has some memory limitations due to the media connected to it.
  21:../libDaisy/src/sys/fatfs.h ****  *           The SDMMC1 peripheral can only communicate with the AXI SRAM, and the DTCMRAM 
  22:../libDaisy/src/sys/fatfs.h ****  *           cannot communicate with the DMA. So the FatFSInterface object should always be
  23:../libDaisy/src/sys/fatfs.h ****  *           located in the AXI SRAM. This is the default location for all data/bss memory
  24:../libDaisy/src/sys/fatfs.h ****  *           using the standard build. However, applciations using the electrosmith bootloader
  25:../libDaisy/src/sys/fatfs.h ****  *           will need special consideration when using this object AND an SD Card. 
  26:../libDaisy/src/sys/fatfs.h ****  */
  27:../libDaisy/src/sys/fatfs.h **** class FatFSInterface
  28:../libDaisy/src/sys/fatfs.h **** {
  29:../libDaisy/src/sys/fatfs.h ****   public:
  30:../libDaisy/src/sys/fatfs.h ****     /** Return values specifying specific errors for linking Daisy to FatFS */
  31:../libDaisy/src/sys/fatfs.h ****     enum Result
  32:../libDaisy/src/sys/fatfs.h ****     {
  33:../libDaisy/src/sys/fatfs.h ****         OK,
  34:../libDaisy/src/sys/fatfs.h ****         ERR_TOO_MANY_VOLUMES,
  35:../libDaisy/src/sys/fatfs.h ****         ERR_NO_MEDIA_SELECTED,
  36:../libDaisy/src/sys/fatfs.h ****         ERR_GENERIC,
  37:../libDaisy/src/sys/fatfs.h ****     };
  38:../libDaisy/src/sys/fatfs.h **** 
  39:../libDaisy/src/sys/fatfs.h ****     /** Config structure for configuring Daisy to FatFS */
  40:../libDaisy/src/sys/fatfs.h ****     struct Config
  41:../libDaisy/src/sys/fatfs.h ****     {
ARM GAS  /var/folders/2p/02m_5p7958535cp2tpgps0400000gn/T//cc82ymlO.s 			page 27


  42:../libDaisy/src/sys/fatfs.h ****         /** Selected Media that will be linked to FatFS 
  43:../libDaisy/src/sys/fatfs.h ****          *  These values can be OR'd together when multiple
  44:../libDaisy/src/sys/fatfs.h ****          *  volumes are desired 
  45:../libDaisy/src/sys/fatfs.h ****          *  i.e. config.media = Media::SD | Media::USBH;
  46:../libDaisy/src/sys/fatfs.h ****          * 
  47:../libDaisy/src/sys/fatfs.h ****          *  When mounting multiple volumes, ffconf.h must have 
  48:../libDaisy/src/sys/fatfs.h ****          *  _VOLUMES set to an appropriate value.
  49:../libDaisy/src/sys/fatfs.h ****          * 
  50:../libDaisy/src/sys/fatfs.h ****          *  FatFS will register multiple volumes in the order of the enum,
  51:../libDaisy/src/sys/fatfs.h ****          *   the first registered class will mount at "0:/",
  52:../libDaisy/src/sys/fatfs.h ****          *   the second registered class will mount at "1:/", and so on
  53:../libDaisy/src/sys/fatfs.h ****          */
  54:../libDaisy/src/sys/fatfs.h ****         enum Media : uint8_t
  55:../libDaisy/src/sys/fatfs.h ****         {
  56:../libDaisy/src/sys/fatfs.h ****             MEDIA_SD  = 0x01,
  57:../libDaisy/src/sys/fatfs.h ****             MEDIA_USB = 0x02,
  58:../libDaisy/src/sys/fatfs.h ****             // MEDIA_QSPI = 0x04,
  59:../libDaisy/src/sys/fatfs.h ****         };
  60:../libDaisy/src/sys/fatfs.h **** 
  61:../libDaisy/src/sys/fatfs.h ****         uint8_t media;
  62:../libDaisy/src/sys/fatfs.h ****     };
  63:../libDaisy/src/sys/fatfs.h **** 
  64:../libDaisy/src/sys/fatfs.h ****     FatFSInterface() {}
  65:../libDaisy/src/sys/fatfs.h **** 
  66:../libDaisy/src/sys/fatfs.h ****     /** Link the desired hardware specified via Config::Media */
  67:../libDaisy/src/sys/fatfs.h ****     Result Init(const Config& cfg);
  68:../libDaisy/src/sys/fatfs.h **** 
  69:../libDaisy/src/sys/fatfs.h ****     /** Link the desired hardware specified via Config::Media 
  70:../libDaisy/src/sys/fatfs.h ****      * 
  71:../libDaisy/src/sys/fatfs.h ****      *  Alternate, explicit initialization provided for simplified syntax.
  72:../libDaisy/src/sys/fatfs.h ****      */
  73:../libDaisy/src/sys/fatfs.h ****     Result Init(const uint8_t media);
  74:../libDaisy/src/sys/fatfs.h **** 
  75:../libDaisy/src/sys/fatfs.h ****     /** Unlinks FatFS from the configured media */
  76:../libDaisy/src/sys/fatfs.h ****     Result DeInit();
  77:../libDaisy/src/sys/fatfs.h **** 
  78:../libDaisy/src/sys/fatfs.h ****     bool Initialized() const { return initialized_; }
  79:../libDaisy/src/sys/fatfs.h **** 
  80:../libDaisy/src/sys/fatfs.h ****     /** Return the current configuration */
  81:../libDaisy/src/sys/fatfs.h ****     const Config& GetConfig() const { return cfg_; }
  82:../libDaisy/src/sys/fatfs.h **** 
  83:../libDaisy/src/sys/fatfs.h ****     /** Return a mutable reference to the Configuration */
  84:../libDaisy/src/sys/fatfs.h ****     Config& GetMutableConfig() { return cfg_; }
  85:../libDaisy/src/sys/fatfs.h **** 
  86:../libDaisy/src/sys/fatfs.h ****     /** Returns the path to an SD Card volume to use with f_mount */
  87:../libDaisy/src/sys/fatfs.h ****     const char* GetSDPath() const { return path_[0]; }
  88:../libDaisy/src/sys/fatfs.h **** 
  89:../libDaisy/src/sys/fatfs.h ****     /** Returns the path to a USB Device volume to use with f_mount */
  90:../libDaisy/src/sys/fatfs.h ****     const char* GetUSBPath() const { return path_[1]; }
  91:../libDaisy/src/sys/fatfs.h **** 
  92:../libDaisy/src/sys/fatfs.h ****     /** Returns reference to filesystem object for the SD volume. */
  93:../libDaisy/src/sys/fatfs.h ****     FATFS& GetSDFileSystem() { return fs_[0]; }
 283              		.loc 17 93 12 view .LVU69
 284              	.LBE420:
 285              		.loc 17 93 32 view .LVU70
  56:main.cpp      ****     return false;
 286              		.loc 16 56 14 is_stmt 0 view .LVU71
ARM GAS  /var/folders/2p/02m_5p7958535cp2tpgps0400000gn/T//cc82ymlO.s 			page 28


 287 002a 0122     		movs	r2, #1
 288 002c 1649     		ldr	r1, .L9+16
 289 002e 1748     		ldr	r0, .L9+20
 290 0030 FFF7FEFF 		bl	f_mount
 291              	.LVL7:
  56:main.cpp      ****     return false;
 292              		.loc 16 56 3 view .LVU72
 293 0034 0446     		mov	r4, r0
 294 0036 0028     		cmp	r0, #0
 295 0038 F0D1     		bne	.L7
 296              	.LBB421:
 297              	.LBI421:
  49:main.cpp      ****   SdmmcHandler::Config sd_cfg;
 298              		.loc 16 49 6 is_stmt 1 view .LVU73
 299              	.LBB422:
  59:main.cpp      ****   synth.Init(pod, left_buf, right_buf, 0);
 300              		.loc 16 59 3 view .LVU74
  59:main.cpp      ****   synth.Init(pod, left_buf, right_buf, 0);
 301              		.loc 16 59 15 is_stmt 0 view .LVU75
 302 003a 124A     		ldr	r2, .L9+12
  60:main.cpp      ****   app.Init(pod,synth, filemgr, left_buf, right_buf);
 303              		.loc 16 60 13 view .LVU76
 304 003c 144E     		ldr	r6, .L9+24
 305 003e 154D     		ldr	r5, .L9+28
  59:main.cpp      ****   synth.Init(pod, left_buf, right_buf, 0);
 306              		.loc 16 59 15 view .LVU77
 307 0040 111F     		subs	r1, r2, #4
 308 0042 0090     		str	r0, [sp]
 309 0044 02F59060 		add	r0, r2, #1152
 310 0048 134B     		ldr	r3, .L9+32
 311 004a FFF7FEFF 		bl	_ZN16AudioFileManager4InitERN5daisy12SdmmcHandlerERNS0_14FatFSInterfaceERNS0_8DaisyPodEP3FIL
 312              	.LVL8:
  60:main.cpp      ****   app.Init(pod,synth, filemgr, left_buf, right_buf);
 313              		.loc 16 60 3 is_stmt 1 view .LVU78
  60:main.cpp      ****   app.Init(pod,synth, filemgr, left_buf, right_buf);
 314              		.loc 16 60 13 is_stmt 0 view .LVU79
 315 004e 3346     		mov	r3, r6
 316 0050 2A46     		mov	r2, r5
 317 0052 1149     		ldr	r1, .L9+32
 318 0054 1148     		ldr	r0, .L9+36
 319 0056 0094     		str	r4, [sp]
 320 0058 FFF7FEFF 		bl	_ZN13GranularSynth4InitERN5daisy8DaisyPodEPKsS4_j
 321              	.LVL9:
  61:main.cpp      ****   return true;
 322              		.loc 16 61 3 is_stmt 1 view .LVU80
  61:main.cpp      ****   return true;
 323              		.loc 16 61 11 is_stmt 0 view .LVU81
 324 005c 104B     		ldr	r3, .L9+40
 325 005e 0E49     		ldr	r1, .L9+32
 326 0060 03F11400 		add	r0, r3, #20
 327 0064 03F11002 		add	r2, r3, #16
 328 0068 0196     		str	r6, [sp, #4]
 329 006a 0095     		str	r5, [sp]
 330 006c FFF7FEFF 		bl	_ZN14GrannyChordApp4InitERN5daisy8DaisyPodER13GranularSynthR16AudioFileManagerPsS7_
 331              	.LVL10:
  62:main.cpp      **** }
 332              		.loc 16 62 3 is_stmt 1 view .LVU82
ARM GAS  /var/folders/2p/02m_5p7958535cp2tpgps0400000gn/T//cc82ymlO.s 			page 29


  61:main.cpp      ****   return true;
 333              		.loc 16 61 11 is_stmt 0 view .LVU83
 334 0070 0120     		movs	r0, #1
 335              	.LBE422:
 336              	.LBE421:
 337              		.loc 16 63 1 view .LVU84
 338 0072 06B0     		add	sp, sp, #24
 339              		.cfi_def_cfa_offset 16
 340              		@ sp needed
 341 0074 70BD     		pop	{r4, r5, r6, pc}
 342              	.L10:
 343 0076 00BF     		.align	3
 344              	.L9:
 345 0078 03000000 		.word	3
 346 007c 01000000 		.word	1
 347 0080 00000000 		.word	.LANCHOR0
 348 0084 04000000 		.word	.LANCHOR0+4
 349 0088 00000000 		.word	.LC0
 350 008c 08000000 		.word	.LANCHOR0+8
 351 0090 00000000 		.word	right_buf
 352 0094 00000000 		.word	left_buf
 353 0098 00000000 		.word	pod
 354 009c 94040000 		.word	.LANCHOR0+1172
 355 00a0 84040000 		.word	.LANCHOR0+1156
 356              		.cfi_endproc
 357              	.LFE4948:
 359              		.section	.rodata.main.str1.4,"aMS",%progbits,1
 360              		.align	2
 361              	.LC1:
 362 0000 73746172 		.ascii	"started log\000"
 362      74656420 
 362      6C6F6700 
 363              		.section	.text.startup.main,"ax",%progbits
 364              		.align	1
 365              		.p2align 2,,3
 366              		.global	main
 367              		.syntax unified
 368              		.thumb
 369              		.thumb_func
 371              	main:
 372              	.LFB4949:
  64:main.cpp      **** 
  65:main.cpp      **** 
  66:main.cpp      **** int main (void){
 373              		.loc 16 66 16 is_stmt 1 view -0
 374              		.cfi_startproc
 375              		@ args = 0, pretend = 0, frame = 0
 376              		@ frame_needed = 0, uses_anonymous_args = 0
  67:main.cpp      ****   pod.Init();
 377              		.loc 16 67 3 view .LVU86
  66:main.cpp      ****   pod.Init();
 378              		.loc 16 66 16 is_stmt 0 view .LVU87
 379 0000 08B5     		push	{r3, lr}
 380              		.cfi_def_cfa_offset 8
 381              		.cfi_offset 3, -8
 382              		.cfi_offset 14, -4
 383              		.loc 16 67 11 view .LVU88
ARM GAS  /var/folders/2p/02m_5p7958535cp2tpgps0400000gn/T//cc82ymlO.s 			page 30


 384 0002 0021     		movs	r1, #0
 385 0004 2C48     		ldr	r0, .L16
  66:main.cpp      ****   pod.Init();
 386              		.loc 16 66 16 view .LVU89
 387 0006 2DED028B 		vpush.64	{d8}
 388              		.cfi_def_cfa_offset 16
 389              		.cfi_offset 80, -16
 390              		.cfi_offset 81, -12
 391              		.loc 16 67 11 view .LVU90
 392 000a FFF7FEFF 		bl	_ZN5daisy8DaisyPod4InitEb
 393              	.LVL11:
  68:main.cpp      ****   #ifdef DEBUG_MODE
  69:main.cpp      ****   pod.seed.StartLog(true);
 394              		.loc 16 69 3 is_stmt 1 view .LVU91
 395              	.LBB431:
 396              	.LBI431:
  23:../libDaisy/src/daisy_seed.h **** 
  24:../libDaisy/src/daisy_seed.h ****     /** This function used to provide a pre-initialization configuraiton 
  25:../libDaisy/src/daisy_seed.h ****      *  it has since been deprecated, and does nothing.
  26:../libDaisy/src/daisy_seed.h ****      */
  27:../libDaisy/src/daisy_seed.h ****     void Configure();
  28:../libDaisy/src/daisy_seed.h **** 
  29:../libDaisy/src/daisy_seed.h ****     /** 
  30:../libDaisy/src/daisy_seed.h ****     Initializes the Daisy Seed and the following peripherals:
  31:../libDaisy/src/daisy_seed.h ****     SDRAM, QSPI, 24-bit 48kHz Audio via AK4556, Internal USB,
  32:../libDaisy/src/daisy_seed.h ****     as well as the built-in LED and Testpoint.
  33:../libDaisy/src/daisy_seed.h **** 
  34:../libDaisy/src/daisy_seed.h ****     ADCs, DACs, and other special peripherals (such as I2C, SPI, etc.)
  35:../libDaisy/src/daisy_seed.h ****     can be initialized using their specific initializers within libdaisy
  36:../libDaisy/src/daisy_seed.h ****     for a specific application.
  37:../libDaisy/src/daisy_seed.h ****     */
  38:../libDaisy/src/daisy_seed.h ****     void Init(bool boost = false);
  39:../libDaisy/src/daisy_seed.h **** 
  40:../libDaisy/src/daisy_seed.h ****     /** 
  41:../libDaisy/src/daisy_seed.h ****     Deinitializes all peripherals automatically handled by `Init`.
  42:../libDaisy/src/daisy_seed.h ****     */
  43:../libDaisy/src/daisy_seed.h ****     void DeInit();
  44:../libDaisy/src/daisy_seed.h **** 
  45:../libDaisy/src/daisy_seed.h ****     /** 
  46:../libDaisy/src/daisy_seed.h ****     Wait some ms before going on.
  47:../libDaisy/src/daisy_seed.h ****     \param del Delay time in ms.
  48:../libDaisy/src/daisy_seed.h ****     */
  49:../libDaisy/src/daisy_seed.h ****     void DelayMs(size_t del);
  50:../libDaisy/src/daisy_seed.h **** 
  51:../libDaisy/src/daisy_seed.h ****     /** 
  52:../libDaisy/src/daisy_seed.h ****     Returns the gpio_pin corresponding to the index 0-31.
  53:../libDaisy/src/daisy_seed.h ****     For the given GPIO on the Daisy Seed (labeled 1-32 in docs).
  54:../libDaisy/src/daisy_seed.h ****     */
  55:../libDaisy/src/daisy_seed.h ****     static dsy_gpio_pin GetPin(uint8_t pin_idx);
  56:../libDaisy/src/daisy_seed.h **** 
  57:../libDaisy/src/daisy_seed.h ****     /** Begins the audio for the seeds builtin audio.
  58:../libDaisy/src/daisy_seed.h ****     the specified callback will get called whenever
  59:../libDaisy/src/daisy_seed.h ****     new data is ready to be prepared.
  60:../libDaisy/src/daisy_seed.h ****     */
  61:../libDaisy/src/daisy_seed.h ****     void StartAudio(AudioHandle::InterleavingAudioCallback cb);
  62:../libDaisy/src/daisy_seed.h **** 
  63:../libDaisy/src/daisy_seed.h ****     /** Begins the audio for the seeds builtin audio.
ARM GAS  /var/folders/2p/02m_5p7958535cp2tpgps0400000gn/T//cc82ymlO.s 			page 31


  64:../libDaisy/src/daisy_seed.h ****     the specified callback will get called whenever
  65:../libDaisy/src/daisy_seed.h ****     new data is ready to be prepared.
  66:../libDaisy/src/daisy_seed.h ****     This will use the newer non-interleaved callback.
  67:../libDaisy/src/daisy_seed.h ****     */
  68:../libDaisy/src/daisy_seed.h ****     void StartAudio(AudioHandle::AudioCallback cb);
  69:../libDaisy/src/daisy_seed.h **** 
  70:../libDaisy/src/daisy_seed.h ****     /** Changes to a new interleaved callback
  71:../libDaisy/src/daisy_seed.h ****      */
  72:../libDaisy/src/daisy_seed.h ****     void ChangeAudioCallback(AudioHandle::InterleavingAudioCallback cb);
  73:../libDaisy/src/daisy_seed.h **** 
  74:../libDaisy/src/daisy_seed.h ****     /** Changes to a new multichannel callback
  75:../libDaisy/src/daisy_seed.h ****      */
  76:../libDaisy/src/daisy_seed.h ****     void ChangeAudioCallback(AudioHandle::AudioCallback cb);
  77:../libDaisy/src/daisy_seed.h **** 
  78:../libDaisy/src/daisy_seed.h ****     /** Stops the audio if it is running. */
  79:../libDaisy/src/daisy_seed.h ****     void StopAudio();
  80:../libDaisy/src/daisy_seed.h **** 
  81:../libDaisy/src/daisy_seed.h ****     /** Updates the Audio Sample Rate, and reinitializes.
  82:../libDaisy/src/daisy_seed.h ****      ** Audio must be stopped for this to work.
  83:../libDaisy/src/daisy_seed.h ****      */
  84:../libDaisy/src/daisy_seed.h ****     void SetAudioSampleRate(SaiHandle::Config::SampleRate samplerate);
  85:../libDaisy/src/daisy_seed.h **** 
  86:../libDaisy/src/daisy_seed.h ****     /** Returns the audio sample rate in Hz as a floating point number.
  87:../libDaisy/src/daisy_seed.h ****      */
  88:../libDaisy/src/daisy_seed.h ****     float AudioSampleRate();
  89:../libDaisy/src/daisy_seed.h **** 
  90:../libDaisy/src/daisy_seed.h ****     /** Sets the number of samples processed per channel by the audio callback.
  91:../libDaisy/src/daisy_seed.h ****      */
  92:../libDaisy/src/daisy_seed.h ****     void SetAudioBlockSize(size_t blocksize);
  93:../libDaisy/src/daisy_seed.h **** 
  94:../libDaisy/src/daisy_seed.h ****     /** Returns the number of samples per channel in a block of audio. */
  95:../libDaisy/src/daisy_seed.h ****     size_t AudioBlockSize();
  96:../libDaisy/src/daisy_seed.h **** 
  97:../libDaisy/src/daisy_seed.h ****     /** Returns the rate in Hz that the Audio callback is called */
  98:../libDaisy/src/daisy_seed.h ****     float AudioCallbackRate() const;
  99:../libDaisy/src/daisy_seed.h **** 
 100:../libDaisy/src/daisy_seed.h ****     /** Returns the SAI Handle for the Daisy Seed 
 101:../libDaisy/src/daisy_seed.h ****      *  This can be useful when adding a secondary codec,
 102:../libDaisy/src/daisy_seed.h ****      *  the result of this function can be passed to the audio reinit 
 103:../libDaisy/src/daisy_seed.h ****      *  with an SAI2 configuration
 104:../libDaisy/src/daisy_seed.h ****      */
 105:../libDaisy/src/daisy_seed.h ****     const SaiHandle& AudioSaiHandle() const;
 106:../libDaisy/src/daisy_seed.h **** 
 107:../libDaisy/src/daisy_seed.h ****     /** Sets the state of the built in LED
 108:../libDaisy/src/daisy_seed.h ****      */
 109:../libDaisy/src/daisy_seed.h ****     void SetLed(bool state);
 110:../libDaisy/src/daisy_seed.h **** 
 111:../libDaisy/src/daisy_seed.h ****     /** Sets the state of the test point near pin 10
 112:../libDaisy/src/daisy_seed.h ****      */
 113:../libDaisy/src/daisy_seed.h ****     void SetTestPoint(bool state);
 114:../libDaisy/src/daisy_seed.h **** 
 115:../libDaisy/src/daisy_seed.h ****     /** Print formatted debug log message
 116:../libDaisy/src/daisy_seed.h ****      */
 117:../libDaisy/src/daisy_seed.h ****     template <typename... VA>
 118:../libDaisy/src/daisy_seed.h ****     static void Print(const char* format, VA... va)
 119:../libDaisy/src/daisy_seed.h ****     {
 120:../libDaisy/src/daisy_seed.h ****         Log::Print(format, va...);
ARM GAS  /var/folders/2p/02m_5p7958535cp2tpgps0400000gn/T//cc82ymlO.s 			page 32


 121:../libDaisy/src/daisy_seed.h ****     }
 122:../libDaisy/src/daisy_seed.h **** 
 123:../libDaisy/src/daisy_seed.h ****     /** Print formatted debug log message with automatic line termination
 124:../libDaisy/src/daisy_seed.h ****     */
 125:../libDaisy/src/daisy_seed.h ****     template <typename... VA>
 126:../libDaisy/src/daisy_seed.h ****     static void PrintLine(const char* format, VA... va)
 127:../libDaisy/src/daisy_seed.h ****     {
 128:../libDaisy/src/daisy_seed.h ****         Log::PrintLine(format, va...);
 129:../libDaisy/src/daisy_seed.h ****     }
 130:../libDaisy/src/daisy_seed.h **** 
 131:../libDaisy/src/daisy_seed.h ****     /** Start the logging session. Optionally wait for terminal connection before proceeding.
 132:../libDaisy/src/daisy_seed.h ****     */
 133:../libDaisy/src/daisy_seed.h ****     static void StartLog(bool wait_for_pc = false)
 397              		.loc 11 133 17 view .LVU92
 398              	.LBB432:
 134:../libDaisy/src/daisy_seed.h ****     {
 135:../libDaisy/src/daisy_seed.h ****         Log::StartLog(wait_for_pc);
 399              		.loc 11 135 9 view .LVU93
 400              		.loc 11 135 22 is_stmt 0 view .LVU94
 401 000e 0120     		movs	r0, #1
 402 0010 FFF7FEFF 		bl	_ZN5daisy6LoggerILNS_17LoggerDestinationE1EE8StartLogEb
 403              	.LVL12:
 404              		.loc 11 135 22 view .LVU95
 405              	.LBE432:
 406              	.LBE431:
  70:main.cpp      ****   DebugPrint(pod,"started log");
 407              		.loc 16 70 3 is_stmt 1 view .LVU96
 408              		.loc 16 70 3 view .LVU97
 409              	.LBB433:
 410              	.LBI433:
 126:../libDaisy/src/daisy_seed.h ****     {
 411              		.loc 11 126 17 view .LVU98
 412              	.LBB434:
 128:../libDaisy/src/daisy_seed.h ****     }
 413              		.loc 11 128 23 is_stmt 0 view .LVU99
 414 0014 2948     		ldr	r0, .L16+4
 415 0016 FFF7FEFF 		bl	_ZN5daisy6LoggerILNS_17LoggerDestinationE1EE9PrintLineEPKcz
 416              	.LVL13:
 128:../libDaisy/src/daisy_seed.h ****     }
 417              		.loc 11 128 23 view .LVU100
 418              	.LBE434:
 419              	.LBE433:
  71:main.cpp      ****   #endif
  72:main.cpp      ****   if (!InitObjects()){
 420              		.loc 16 72 3 is_stmt 1 view .LVU101
 421              		.loc 16 72 19 is_stmt 0 view .LVU102
 422 001a FFF7FEFF 		bl	_Z11InitObjectsv
 423              	.LVL14:
  73:main.cpp      ****     pod.led1.SetRed(1);
 424              		.loc 16 73 20 view .LVU103
 425 001e B7EE000A 		vmov.f32	s0, #1.0e+0
  72:main.cpp      ****     pod.led1.SetRed(1);
 426              		.loc 16 72 3 view .LVU104
 427 0022 0028     		cmp	r0, #0
 428 0024 3ED0     		beq	.L15
  74:main.cpp      ****     pod.led2.SetRed(1);
  75:main.cpp      ****     // DebugPrint("")
ARM GAS  /var/folders/2p/02m_5p7958535cp2tpgps0400000gn/T//cc82ymlO.s 			page 33


  76:main.cpp      ****     return 1;
  77:main.cpp      ****   }
  78:main.cpp      ****   pod.led1.SetBlue(1);
 429              		.loc 16 78 3 is_stmt 1 view .LVU105
 430              		.loc 16 78 19 is_stmt 0 view .LVU106
 431 0026 2648     		ldr	r0, .L16+8
 432 0028 FFF7FEFF 		bl	_ZN5daisy6RgbLed7SetBlueEf
 433              	.LVL15:
  79:main.cpp      ****   pod.UpdateLeds();
 434              		.loc 16 79 3 is_stmt 1 view .LVU107
 435              		.loc 16 79 17 is_stmt 0 view .LVU108
 436 002c 2248     		ldr	r0, .L16
 437 002e FFF7FEFF 		bl	_ZN5daisy8DaisyPod10UpdateLedsEv
 438              	.LVL16:
  80:main.cpp      ****   cpumeter.Init(pod.AudioSampleRate(), pod.AudioBlockSize());
 439              		.loc 16 80 3 is_stmt 1 view .LVU109
 440              		.loc 16 80 16 is_stmt 0 view .LVU110
 441 0032 2148     		ldr	r0, .L16
 442 0034 FFF7FEFF 		bl	_ZN5daisy8DaisyPod15AudioSampleRateEv
 443              	.LVL17:
 444              		.loc 16 80 58 view .LVU111
 445 0038 1F48     		ldr	r0, .L16
 446              		.loc 16 80 16 view .LVU112
 447 003a B0EE408A 		vmov.f32	s16, s0
 448              		.loc 16 80 58 view .LVU113
 449 003e FFF7FEFF 		bl	_ZN5daisy8DaisyPod14AudioBlockSizeEv
 450              	.LVL18:
 451              	.LBB435:
 452              	.LBI435:
 453              		.file 18 "../libDaisy/src/util/CpuLoadMeter.h"
   1:../libDaisy/src/util/CpuLoadMeter.h **** #pragma once
   2:../libDaisy/src/util/CpuLoadMeter.h **** 
   3:../libDaisy/src/util/CpuLoadMeter.h **** #include "sys/system.h"
   4:../libDaisy/src/util/CpuLoadMeter.h **** #include <cmath>
   5:../libDaisy/src/util/CpuLoadMeter.h **** 
   6:../libDaisy/src/util/CpuLoadMeter.h **** namespace daisy
   7:../libDaisy/src/util/CpuLoadMeter.h **** {
   8:../libDaisy/src/util/CpuLoadMeter.h **** /** @brief CPU load metering
   9:../libDaisy/src/util/CpuLoadMeter.h ****  *  @author jelliesen
  10:../libDaisy/src/util/CpuLoadMeter.h ****  *  @addtogroup utility
  11:../libDaisy/src/util/CpuLoadMeter.h ****  * 
  12:../libDaisy/src/util/CpuLoadMeter.h ****  *  To measure the CPU load of your audio processing, create a CpuLoadMeter
  13:../libDaisy/src/util/CpuLoadMeter.h ****  *  and initialize it with your block size and sample rate.
  14:../libDaisy/src/util/CpuLoadMeter.h ****  *  Then at the beginning of the audio callback, call `OnBlockStart()`, 
  15:../libDaisy/src/util/CpuLoadMeter.h ****  *  and at the end of the audio callback, call `OnBlockEnd()`.
  16:../libDaisy/src/util/CpuLoadMeter.h ****  *  You can then read out the minimum, maximum and average CPU load.
  17:../libDaisy/src/util/CpuLoadMeter.h ****  */
  18:../libDaisy/src/util/CpuLoadMeter.h **** class CpuLoadMeter
  19:../libDaisy/src/util/CpuLoadMeter.h **** {
  20:../libDaisy/src/util/CpuLoadMeter.h ****   public:
  21:../libDaisy/src/util/CpuLoadMeter.h ****     CpuLoadMeter(){};
  22:../libDaisy/src/util/CpuLoadMeter.h **** 
  23:../libDaisy/src/util/CpuLoadMeter.h ****     /** Initializes the CpuLoadMeter for a particular sample rate and block size.
  24:../libDaisy/src/util/CpuLoadMeter.h ****      *  @param sampleRateInHz           The sample rate in Hz
  25:../libDaisy/src/util/CpuLoadMeter.h ****      *  @param blockSizeInSamples       The block size in samples
  26:../libDaisy/src/util/CpuLoadMeter.h ****      *  @param smoothingFilterCutoffHz  The cutoff frequency of the smoothing filter that's used to
  27:../libDaisy/src/util/CpuLoadMeter.h ****      *                                  create the average CPU load reading.
ARM GAS  /var/folders/2p/02m_5p7958535cp2tpgps0400000gn/T//cc82ymlO.s 			page 34


  28:../libDaisy/src/util/CpuLoadMeter.h ****      */
  29:../libDaisy/src/util/CpuLoadMeter.h ****     void Init(float sampleRateInHz,
 454              		.loc 18 29 10 is_stmt 1 view .LVU114
 455              	.LBB436:
  30:../libDaisy/src/util/CpuLoadMeter.h ****               int   blockSizeInSamples,
  31:../libDaisy/src/util/CpuLoadMeter.h ****               float smoothingFilterCutoffHz = 1.0f)
  32:../libDaisy/src/util/CpuLoadMeter.h ****     {
  33:../libDaisy/src/util/CpuLoadMeter.h ****         const auto secPerBlock = float(blockSizeInSamples) / sampleRateInHz;
 456              		.loc 18 33 9 view .LVU115
 457              		.loc 18 33 34 is_stmt 0 view .LVU116
 458 0042 07EE900A 		vmov	s15, r0	@ int
 459 0046 F8EEE78A 		vcvt.f32.s32	s17, s15
  34:../libDaisy/src/util/CpuLoadMeter.h ****         const auto ticksPerS   = float(System::GetTickFreq());
 460              		.loc 18 34 59 view .LVU117
 461 004a FFF7FEFF 		bl	_ZN5daisy6System11GetTickFreqEv
 462              	.LVL19:
  35:../libDaisy/src/util/CpuLoadMeter.h ****         ticksPerBlockInv_      = 1.0f / (ticksPerS * secPerBlock);
  36:../libDaisy/src/util/CpuLoadMeter.h **** 
  37:../libDaisy/src/util/CpuLoadMeter.h ****         // update filter coefficient for smoothing filter (1pole lowpass)
  38:../libDaisy/src/util/CpuLoadMeter.h ****         const auto blockRateInHz = sampleRateInHz / float(blockSizeInSamples);
  39:../libDaisy/src/util/CpuLoadMeter.h ****         const auto cutoffNormalized
 463              		.loc 18 39 20 view .LVU118
 464 004e 9FED1D5A 		vldr.32	s10, .L16+12
  34:../libDaisy/src/util/CpuLoadMeter.h ****         const auto ticksPerS   = float(System::GetTickFreq());
 465              		.loc 18 34 61 view .LVU119
 466 0052 07EE900A 		vmov	s15, r0	@ int
  35:../libDaisy/src/util/CpuLoadMeter.h ****         ticksPerBlockInv_      = 1.0f / (ticksPerS * secPerBlock);
 467              		.loc 18 35 39 view .LVU120
 468 0056 B7EE007A 		vmov.f32	s14, #1.0e+0
  35:../libDaisy/src/util/CpuLoadMeter.h ****         ticksPerBlockInv_      = 1.0f / (ticksPerS * secPerBlock);
 469              		.loc 18 35 32 view .LVU121
 470 005a 1B49     		ldr	r1, .L16+16
  38:../libDaisy/src/util/CpuLoadMeter.h ****         const auto cutoffNormalized
 471              		.loc 18 38 20 view .LVU122
 472 005c C8EE285A 		vdiv.f32	s11, s16, s17
 473              	.LBB437:
 474              	.LBB438:
  40:../libDaisy/src/util/CpuLoadMeter.h ****             = smoothingFilterCutoffHz * 2.0f * 3.141592653f / blockRateInHz;
  41:../libDaisy/src/util/CpuLoadMeter.h ****         // according to
  42:../libDaisy/src/util/CpuLoadMeter.h ****         // https://en.wikipedia.org/wiki/Low-pass_filter#Simple_infinite_impulse_response_filter
  43:../libDaisy/src/util/CpuLoadMeter.h ****         smoothingConstant_ = cutoffNormalized / (cutoffNormalized + 1.0f);
  44:../libDaisy/src/util/CpuLoadMeter.h **** 
  45:../libDaisy/src/util/CpuLoadMeter.h ****         Reset();
  46:../libDaisy/src/util/CpuLoadMeter.h ****     }
  47:../libDaisy/src/util/CpuLoadMeter.h **** 
  48:../libDaisy/src/util/CpuLoadMeter.h ****     /** Call this at the beginning of your audio callback */
  49:../libDaisy/src/util/CpuLoadMeter.h ****     void OnBlockStart() { currentBlockStartTicks_ = System::GetTick(); }
  50:../libDaisy/src/util/CpuLoadMeter.h **** 
  51:../libDaisy/src/util/CpuLoadMeter.h ****     /** Call this at the end of your audio callback */
  52:../libDaisy/src/util/CpuLoadMeter.h ****     void OnBlockEnd()
  53:../libDaisy/src/util/CpuLoadMeter.h ****     {
  54:../libDaisy/src/util/CpuLoadMeter.h ****         const auto end         = System::GetTick();
  55:../libDaisy/src/util/CpuLoadMeter.h ****         const auto ticksPassed = end - currentBlockStartTicks_;
  56:../libDaisy/src/util/CpuLoadMeter.h ****         const auto currentBlockLoad
  57:../libDaisy/src/util/CpuLoadMeter.h ****             = float(ticksPassed) * ticksPerBlockInv_; // usPassed / usPerBlock
  58:../libDaisy/src/util/CpuLoadMeter.h **** 
  59:../libDaisy/src/util/CpuLoadMeter.h ****         if(firstCycle_)
ARM GAS  /var/folders/2p/02m_5p7958535cp2tpgps0400000gn/T//cc82ymlO.s 			page 35


  60:../libDaisy/src/util/CpuLoadMeter.h ****         {
  61:../libDaisy/src/util/CpuLoadMeter.h ****             max_ = min_ = avg_ = currentBlockLoad;
  62:../libDaisy/src/util/CpuLoadMeter.h ****             firstCycle_        = false;
  63:../libDaisy/src/util/CpuLoadMeter.h ****         }
  64:../libDaisy/src/util/CpuLoadMeter.h ****         else
  65:../libDaisy/src/util/CpuLoadMeter.h ****         {
  66:../libDaisy/src/util/CpuLoadMeter.h ****             if(currentBlockLoad > max_)
  67:../libDaisy/src/util/CpuLoadMeter.h ****                 max_ = currentBlockLoad;
  68:../libDaisy/src/util/CpuLoadMeter.h ****             if(currentBlockLoad < min_)
  69:../libDaisy/src/util/CpuLoadMeter.h ****                 min_ = currentBlockLoad;
  70:../libDaisy/src/util/CpuLoadMeter.h **** 
  71:../libDaisy/src/util/CpuLoadMeter.h ****             avg_ = smoothingConstant_ * currentBlockLoad
  72:../libDaisy/src/util/CpuLoadMeter.h ****                    + (1.0f - smoothingConstant_) * avg_;
  73:../libDaisy/src/util/CpuLoadMeter.h ****         }
  74:../libDaisy/src/util/CpuLoadMeter.h ****     }
  75:../libDaisy/src/util/CpuLoadMeter.h **** 
  76:../libDaisy/src/util/CpuLoadMeter.h ****     /** Returns the smoothed average CPU load in the range 0..1 */
  77:../libDaisy/src/util/CpuLoadMeter.h ****     float GetAvgCpuLoad() const { return avg_; }
  78:../libDaisy/src/util/CpuLoadMeter.h ****     /** Returns the minimun CPU load observed since the last call to Reset(). */
  79:../libDaisy/src/util/CpuLoadMeter.h ****     float GetMinCpuLoad() const { return min_; }
  80:../libDaisy/src/util/CpuLoadMeter.h ****     /** Returns the maximum CPU load observed since the last call to Reset(). */
  81:../libDaisy/src/util/CpuLoadMeter.h ****     float GetMaxCpuLoad() const { return max_; }
  82:../libDaisy/src/util/CpuLoadMeter.h **** 
  83:../libDaisy/src/util/CpuLoadMeter.h ****     /** Resets the minimun, maximum and average load readings. */
  84:../libDaisy/src/util/CpuLoadMeter.h ****     void Reset()
  85:../libDaisy/src/util/CpuLoadMeter.h ****     {
  86:../libDaisy/src/util/CpuLoadMeter.h ****         firstCycle_ = true;
  87:../libDaisy/src/util/CpuLoadMeter.h ****         avg_ = max_ = min_ = NAN;
 475              		.loc 18 87 28 view .LVU123
 476 0060 1A4B     		ldr	r3, .L16+20
  86:../libDaisy/src/util/CpuLoadMeter.h ****         avg_ = max_ = min_ = NAN;
 477              		.loc 18 86 21 view .LVU124
 478 0062 0122     		movs	r2, #1
 479              	.LBE438:
 480              	.LBE437:
 481              	.LBE436:
 482              	.LBE435:
  81:main.cpp      ****   app.PassCPUMeter(cpumeter);
 483              		.loc 16 81 19 view .LVU125
 484 0064 1A48     		ldr	r0, .L16+24
 485              	.LBB446:
 486              	.LBB445:
 487              	.LBB442:
 488              	.LBB439:
 489              		.loc 18 87 28 view .LVU126
 490 0066 CB60     		str	r3, [r1, #12]	@ float
  86:../libDaisy/src/util/CpuLoadMeter.h ****         avg_ = max_ = min_ = NAN;
 491              		.loc 18 86 21 view .LVU127
 492 0068 0A70     		strb	r2, [r1]
 493              		.loc 18 87 21 view .LVU128
 494 006a 0B61     		str	r3, [r1, #16]	@ float
 495              	.LBE439:
 496              	.LBE442:
  33:../libDaisy/src/util/CpuLoadMeter.h ****         const auto ticksPerS   = float(System::GetTickFreq());
 497              		.loc 18 33 20 view .LVU129
 498 006c 88EE886A 		vdiv.f32	s12, s17, s16
 499              	.LVL20:
ARM GAS  /var/folders/2p/02m_5p7958535cp2tpgps0400000gn/T//cc82ymlO.s 			page 36


  34:../libDaisy/src/util/CpuLoadMeter.h ****         ticksPerBlockInv_      = 1.0f / (ticksPerS * secPerBlock);
 500              		.loc 18 34 9 is_stmt 1 view .LVU130
  35:../libDaisy/src/util/CpuLoadMeter.h **** 
 501              		.loc 18 35 9 view .LVU131
 502              	.LBB443:
 503              	.LBB440:
 504              		.loc 18 87 14 is_stmt 0 view .LVU132
 505 0070 4B61     		str	r3, [r1, #20]	@ float
 506              	.LBE440:
 507              	.LBE443:
  34:../libDaisy/src/util/CpuLoadMeter.h ****         ticksPerBlockInv_      = 1.0f / (ticksPerS * secPerBlock);
 508              		.loc 18 34 61 view .LVU133
 509 0072 F8EE677A 		vcvt.f32.u32	s15, s15
  39:../libDaisy/src/util/CpuLoadMeter.h ****             = smoothingFilterCutoffHz * 2.0f * 3.141592653f / blockRateInHz;
 510              		.loc 18 39 20 view .LVU134
 511 0076 C5EE256A 		vdiv.f32	s13, s10, s11
  35:../libDaisy/src/util/CpuLoadMeter.h **** 
 512              		.loc 18 35 52 view .LVU135
 513 007a 67EE867A 		vmul.f32	s15, s15, s12
  35:../libDaisy/src/util/CpuLoadMeter.h **** 
 514              		.loc 18 35 39 view .LVU136
 515 007e 87EE276A 		vdiv.f32	s12, s14, s15
 516              	.LVL21:
  43:../libDaisy/src/util/CpuLoadMeter.h **** 
 517              		.loc 18 43 67 view .LVU137
 518 0082 36EE877A 		vadd.f32	s14, s13, s14
  43:../libDaisy/src/util/CpuLoadMeter.h **** 
 519              		.loc 18 43 47 view .LVU138
 520 0086 C6EE877A 		vdiv.f32	s15, s13, s14
  35:../libDaisy/src/util/CpuLoadMeter.h **** 
 521              		.loc 18 35 32 view .LVU139
 522 008a 81ED016A 		vstr.32	s12, [r1, #4]
  38:../libDaisy/src/util/CpuLoadMeter.h ****         const auto cutoffNormalized
 523              		.loc 18 38 9 is_stmt 1 view .LVU140
 524              	.LVL22:
  39:../libDaisy/src/util/CpuLoadMeter.h ****             = smoothingFilterCutoffHz * 2.0f * 3.141592653f / blockRateInHz;
 525              		.loc 18 39 9 view .LVU141
  43:../libDaisy/src/util/CpuLoadMeter.h **** 
 526              		.loc 18 43 9 view .LVU142
  43:../libDaisy/src/util/CpuLoadMeter.h **** 
 527              		.loc 18 43 28 is_stmt 0 view .LVU143
 528 008e C1ED067A 		vstr.32	s15, [r1, #24]
  45:../libDaisy/src/util/CpuLoadMeter.h ****     }
 529              		.loc 18 45 9 is_stmt 1 view .LVU144
 530              	.LVL23:
 531              	.LBB444:
 532              	.LBI437:
  84:../libDaisy/src/util/CpuLoadMeter.h ****     {
 533              		.loc 18 84 10 view .LVU145
 534              	.LBB441:
  86:../libDaisy/src/util/CpuLoadMeter.h ****         avg_ = max_ = min_ = NAN;
 535              		.loc 18 86 9 view .LVU146
 536              		.loc 18 87 9 view .LVU147
 537              		.loc 18 87 9 is_stmt 0 view .LVU148
 538              	.LBE441:
 539              	.LBE444:
 540              	.LBE445:
ARM GAS  /var/folders/2p/02m_5p7958535cp2tpgps0400000gn/T//cc82ymlO.s 			page 37


 541              	.LBE446:
 542              		.loc 16 81 3 is_stmt 1 view .LVU149
 543              		.loc 16 81 19 is_stmt 0 view .LVU150
 544 0092 FFF7FEFF 		bl	_ZN14GrannyChordApp12PassCPUMeterERN5daisy12CpuLoadMeterE
 545              	.LVL24:
  82:main.cpp      **** 
  83:main.cpp      ****   /* call onblockstart at start of audiocb, onblockend at end
  84:main.cpp      ****   then print:
  85:main.cpp      ****    // get the current load (smoothed value and peak values)
  86:main.cpp      ****         const float avgLoad = cpuLoadMeter.GetAvgCpuLoad();
  87:main.cpp      ****         const float maxLoad = cpuLoadMeter.GetMaxCpuLoad();
  88:main.cpp      ****         const float minLoad = cpuLoadMeter.GetMinCpuLoad();
  89:main.cpp      ****         // print it to the serial connection (as percentages)
  90:main.cpp      ****         hw.PrintLine("Processing Load %:");
  91:main.cpp      ****         hw.PrintLine("Max: " FLT_FMT3, FLT_VAR3(maxLoad * 100.0f));
  92:main.cpp      ****         hw.PrintLine("Avg: " FLT_FMT3, FLT_VAR3(avgLoad * 100.0f));
  93:main.cpp      ****         hw.PrintLine("Min: " FLT_FMT3, FLT_VAR3(minLoad * 100.0f));
  94:main.cpp      ****         // don't spam the serial connection too much
  95:main.cpp      ****         System::Delay(500);
  96:main.cpp      ****   */
  97:main.cpp      **** 
  98:main.cpp      **** 
  99:main.cpp      ****   // DebugPrint(pod, "app init done.");
 100:main.cpp      ****   // filemgr.LoadFile(6);
 101:main.cpp      ****   // DebugPrint(pod, "finished loading file.");
 102:main.cpp      **** 
 103:main.cpp      ****   // pod.StartAdc();
 104:main.cpp      ****   // pod.StartAudio(AudioCallback);
 105:main.cpp      **** 
 106:main.cpp      ****   app.Run();
 546              		.loc 16 106 3 is_stmt 1 view .LVU151
 547              		.loc 16 106 10 is_stmt 0 view .LVU152
 548 0096 0E48     		ldr	r0, .L16+24
 549 0098 FFF7FEFF 		bl	_ZN14GrannyChordApp3RunEv
 550              	.LVL25:
 107:main.cpp      ****   // while(true){
 108:main.cpp      **** 
 109:main.cpp      ****   // }
 110:main.cpp      **** 
 111:main.cpp      **** }
 551              		.loc 16 111 1 view .LVU153
 552 009c 0020     		movs	r0, #0
 553              	.L11:
 554 009e BDEC028B 		vldm	sp!, {d8}
 555              		.cfi_remember_state
 556              		.cfi_restore 80
 557              		.cfi_restore 81
 558              		.cfi_def_cfa_offset 8
 559 00a2 08BD     		pop	{r3, pc}
 560              	.L15:
 561              		.cfi_restore_state
  73:main.cpp      ****     pod.led2.SetRed(1);
 562              		.loc 16 73 5 is_stmt 1 view .LVU154
  73:main.cpp      ****     pod.led2.SetRed(1);
 563              		.loc 16 73 20 is_stmt 0 view .LVU155
 564 00a4 0648     		ldr	r0, .L16+8
 565 00a6 FFF7FEFF 		bl	_ZN5daisy6RgbLed6SetRedEf
ARM GAS  /var/folders/2p/02m_5p7958535cp2tpgps0400000gn/T//cc82ymlO.s 			page 38


 566              	.LVL26:
  74:main.cpp      ****     // DebugPrint("")
 567              		.loc 16 74 5 is_stmt 1 view .LVU156
  74:main.cpp      ****     // DebugPrint("")
 568              		.loc 16 74 20 is_stmt 0 view .LVU157
 569 00aa 0A48     		ldr	r0, .L16+28
 570 00ac B7EE000A 		vmov.f32	s0, #1.0e+0
 571 00b0 FFF7FEFF 		bl	_ZN5daisy6RgbLed6SetRedEf
 572              	.LVL27:
  76:main.cpp      ****   }
 573              		.loc 16 76 5 is_stmt 1 view .LVU158
  76:main.cpp      ****   }
 574              		.loc 16 76 12 is_stmt 0 view .LVU159
 575 00b4 0120     		movs	r0, #1
 576 00b6 F2E7     		b	.L11
 577              	.L17:
 578              		.align	2
 579              	.L16:
 580 00b8 00000000 		.word	pod
 581 00bc 00000000 		.word	.LC1
 582 00c0 D8000000 		.word	pod+216
 583 00c4 DB0FC940 		.word	1086918619
 584 00c8 00000000 		.word	.LANCHOR1
 585 00cc 0000C07F 		.word	2143289344
 586 00d0 98040000 		.word	.LANCHOR0+1176
 587 00d4 2C010000 		.word	pod+300
 588              		.cfi_endproc
 589              	.LFE4949:
 591              		.section	.text.startup._GLOBAL__sub_I_cpumeter,"ax",%progbits
 592              		.align	1
 593              		.p2align 2,,3
 594              		.syntax unified
 595              		.thumb
 596              		.thumb_func
 598              	_GLOBAL__sub_I_cpumeter:
 599              	.LFB5534:
 600              		.loc 16 111 1 is_stmt 1 view -0
 601              		.cfi_startproc
 602              		@ args = 0, pretend = 0, frame = 0
 603              		@ frame_needed = 0, uses_anonymous_args = 0
 604              	.LBB527:
 605              	.LBI527:
 606              		.loc 16 111 1 view .LVU161
 607              	.LVL28:
 608              	.LBB528:
 609              	.LBB529:
 610              	.LBI529:
  21:../libDaisy/src/util/CpuLoadMeter.h **** 
 611              		.loc 18 21 5 view .LVU162
  21:../libDaisy/src/util/CpuLoadMeter.h **** 
 612              		.loc 18 21 5 is_stmt 0 view .LVU163
 613              	.LBE529:
 614              	.LBB530:
 615              	.LBI530:
  35:../libDaisy/src/daisy_pod.h ****     ~DaisyPod() {}
 616              		.loc 2 35 5 is_stmt 1 view .LVU164
 617              	.LBB531:
ARM GAS  /var/folders/2p/02m_5p7958535cp2tpgps0400000gn/T//cc82ymlO.s 			page 39


 618              	.LBB532:
 619              	.LBI532:
  21:../libDaisy/src/daisy_seed.h ****     ~DaisySeed() {}
 620              		.loc 11 21 5 view .LVU165
 621              	.LBB533:
 622              	.LBB534:
 623              	.LBI534:
 624              		.file 19 "../libDaisy/src/per/qspi.h"
   1:../libDaisy/src/per/qspi.h **** #ifndef DSY_QSPI
   2:../libDaisy/src/per/qspi.h **** #define DSY_QSPI /**< Macro */
   3:../libDaisy/src/per/qspi.h **** 
   4:../libDaisy/src/per/qspi.h **** #ifndef UNIT_TEST // for unit tests, a dummy implementation
   5:../libDaisy/src/per/qspi.h **** 
   6:../libDaisy/src/per/qspi.h **** #include <cstdint>
   7:../libDaisy/src/per/qspi.h **** #include "daisy_core.h" // Added for dsy_gpio_pin typedef
   8:../libDaisy/src/per/qspi.h **** 
   9:../libDaisy/src/per/qspi.h **** #define DSY_QSPI_TEXT       \
  10:../libDaisy/src/per/qspi.h ****     __attribute__((section( \
  11:../libDaisy/src/per/qspi.h ****         ".qspiflash_text"))) /**< used for reading memory in memory_mapped mode. */
  12:../libDaisy/src/per/qspi.h **** #define DSY_QSPI_DATA       \
  13:../libDaisy/src/per/qspi.h ****     __attribute__((section( \
  14:../libDaisy/src/per/qspi.h ****         ".qspiflash_data"))) /**< used for reading memory in memory_mapped mode. */
  15:../libDaisy/src/per/qspi.h **** #define DSY_QSPI_BSS        \
  16:../libDaisy/src/per/qspi.h ****     __attribute__((section( \
  17:../libDaisy/src/per/qspi.h ****         ".qspiflash_bss"))) /**< used for reading memory in memory_mapped mode. */
  18:../libDaisy/src/per/qspi.h **** 
  19:../libDaisy/src/per/qspi.h **** namespace daisy
  20:../libDaisy/src/per/qspi.h **** {
  21:../libDaisy/src/per/qspi.h **** /** @addtogroup serial
  22:../libDaisy/src/per/qspi.h **** @{
  23:../libDaisy/src/per/qspi.h **** */
  24:../libDaisy/src/per/qspi.h **** 
  25:../libDaisy/src/per/qspi.h **** /** 
  26:../libDaisy/src/per/qspi.h ****  Driver for QSPI peripheral to interface with external flash memory. \n 
  27:../libDaisy/src/per/qspi.h ****     Currently supported QSPI Devices: \n 
  28:../libDaisy/src/per/qspi.h ****     * IS25LP080D
  29:../libDaisy/src/per/qspi.h **** */
  30:../libDaisy/src/per/qspi.h **** class QSPIHandle
  31:../libDaisy/src/per/qspi.h **** {
  32:../libDaisy/src/per/qspi.h ****   public:
  33:../libDaisy/src/per/qspi.h ****     enum Result
  34:../libDaisy/src/per/qspi.h ****     {
  35:../libDaisy/src/per/qspi.h ****         OK = 0,
  36:../libDaisy/src/per/qspi.h ****         ERR
  37:../libDaisy/src/per/qspi.h ****     };
  38:../libDaisy/src/per/qspi.h **** 
  39:../libDaisy/src/per/qspi.h ****     /** Indicates the current status of the module. 
  40:../libDaisy/src/per/qspi.h ****          *  Warnings are indicated by a leading W.
  41:../libDaisy/src/per/qspi.h ****          *  Errors are indicated by a leading E and cause an immediate exit.
  42:../libDaisy/src/per/qspi.h ****          * 
  43:../libDaisy/src/per/qspi.h ****          *  \param GOOD - No errors have been reported.
  44:../libDaisy/src/per/qspi.h ****          *  \param E_HAL_ERROR - HAL code did not return HAL_OK.
  45:../libDaisy/src/per/qspi.h ****          *  \param E_SWITCHING_MODES - An error was encountered while switching QSPI peripheral mod
  46:../libDaisy/src/per/qspi.h ****          *  \param E_INVALID_MODE - QSPI should not be written to while the program is executing fr
  47:../libDaisy/src/per/qspi.h ****          */
  48:../libDaisy/src/per/qspi.h ****     enum Status
  49:../libDaisy/src/per/qspi.h ****     {
ARM GAS  /var/folders/2p/02m_5p7958535cp2tpgps0400000gn/T//cc82ymlO.s 			page 40


  50:../libDaisy/src/per/qspi.h ****         GOOD = 0,
  51:../libDaisy/src/per/qspi.h ****         E_HAL_ERROR,
  52:../libDaisy/src/per/qspi.h ****         E_SWITCHING_MODES,
  53:../libDaisy/src/per/qspi.h ****         E_INVALID_MODE,
  54:../libDaisy/src/per/qspi.h ****     };
  55:../libDaisy/src/per/qspi.h **** 
  56:../libDaisy/src/per/qspi.h ****     /** Configuration structure for interfacing with QSPI Driver */
  57:../libDaisy/src/per/qspi.h ****     struct Config
  58:../libDaisy/src/per/qspi.h ****     {
  59:../libDaisy/src/per/qspi.h ****         /** Flash Devices supported. (Both of these are more-or-less the same, just different sizes
  60:../libDaisy/src/per/qspi.h ****         enum Device
  61:../libDaisy/src/per/qspi.h ****         {
  62:../libDaisy/src/per/qspi.h ****             IS25LP080D,  /**< & */
  63:../libDaisy/src/per/qspi.h ****             IS25LP064A,  /**< & */
  64:../libDaisy/src/per/qspi.h ****             DEVICE_LAST, /**< & */
  65:../libDaisy/src/per/qspi.h ****         };
  66:../libDaisy/src/per/qspi.h **** 
  67:../libDaisy/src/per/qspi.h ****         /** 
  68:../libDaisy/src/per/qspi.h ****         Modes of operation.
  69:../libDaisy/src/per/qspi.h ****         Memory Mapped mode: QSPI configured so that the QSPI can be
  70:../libDaisy/src/per/qspi.h ****         read from starting address 0x90000000. Writing is not
  71:../libDaisy/src/per/qspi.h ****         possible in this mode. \n 
  72:../libDaisy/src/per/qspi.h ****         Indirect Polling mode: Device driver enabled. 
  73:../libDaisy/src/per/qspi.h ****         */
  74:../libDaisy/src/per/qspi.h ****         enum Mode
  75:../libDaisy/src/per/qspi.h ****         {
  76:../libDaisy/src/per/qspi.h ****             MEMORY_MAPPED,    /**< & */
  77:../libDaisy/src/per/qspi.h ****             INDIRECT_POLLING, /**< & */
  78:../libDaisy/src/per/qspi.h ****             MODE_LAST,
  79:../libDaisy/src/per/qspi.h ****         };
  80:../libDaisy/src/per/qspi.h **** 
  81:../libDaisy/src/per/qspi.h ****         //SCK,  CE# (active low)
  82:../libDaisy/src/per/qspi.h ****         struct
  83:../libDaisy/src/per/qspi.h ****         {
  84:../libDaisy/src/per/qspi.h ****             dsy_gpio_pin io0; /**< & */
  85:../libDaisy/src/per/qspi.h ****             dsy_gpio_pin io1; /**< & */
  86:../libDaisy/src/per/qspi.h ****             dsy_gpio_pin io2; /**< & */
  87:../libDaisy/src/per/qspi.h ****             dsy_gpio_pin io3; /**< & */
  88:../libDaisy/src/per/qspi.h ****             dsy_gpio_pin clk; /**< & */
  89:../libDaisy/src/per/qspi.h ****             dsy_gpio_pin ncs; /**< & */
  90:../libDaisy/src/per/qspi.h ****         } pin_config;
  91:../libDaisy/src/per/qspi.h **** 
  92:../libDaisy/src/per/qspi.h ****         Device device;
  93:../libDaisy/src/per/qspi.h ****         Mode   mode;
  94:../libDaisy/src/per/qspi.h ****     };
  95:../libDaisy/src/per/qspi.h **** 
  96:../libDaisy/src/per/qspi.h ****     /** 
  97:../libDaisy/src/per/qspi.h ****         Initializes QSPI peripheral, and Resets, and prepares memory for access.
  98:../libDaisy/src/per/qspi.h ****         \param config should be populated with the mode, device and pin_config before calling this 
  99:../libDaisy/src/per/qspi.h ****         \return Result::OK or Result::ERR
 100:../libDaisy/src/per/qspi.h ****         */
 101:../libDaisy/src/per/qspi.h ****     Result Init(const Config& config);
 102:../libDaisy/src/per/qspi.h **** 
 103:../libDaisy/src/per/qspi.h ****     /** Returns the current config. */
 104:../libDaisy/src/per/qspi.h ****     const Config& GetConfig() const;
 105:../libDaisy/src/per/qspi.h **** 
 106:../libDaisy/src/per/qspi.h ****     // Couldn't this just be called before anything else in init? That
ARM GAS  /var/folders/2p/02m_5p7958535cp2tpgps0400000gn/T//cc82ymlO.s 			page 41


 107:../libDaisy/src/per/qspi.h ****     // would make manually calling it unnecessary.
 108:../libDaisy/src/per/qspi.h ****     /** 
 109:../libDaisy/src/per/qspi.h ****         Deinitializes the peripheral
 110:../libDaisy/src/per/qspi.h ****         This should be called before reinitializing QSPI in a different mode.
 111:../libDaisy/src/per/qspi.h ****         \return Result::OK or Result::ERR
 112:../libDaisy/src/per/qspi.h ****         */
 113:../libDaisy/src/per/qspi.h ****     Result DeInit();
 114:../libDaisy/src/per/qspi.h **** 
 115:../libDaisy/src/per/qspi.h ****     /** 
 116:../libDaisy/src/per/qspi.h ****         Writes a single page to to the specified address on the QSPI chip.
 117:../libDaisy/src/per/qspi.h ****         For IS25LP*, page size is 256 bytes.
 118:../libDaisy/src/per/qspi.h ****         \param address Address to write to
 119:../libDaisy/src/per/qspi.h ****         \param size Buffer size
 120:../libDaisy/src/per/qspi.h ****         \param buffer Buffer to write
 121:../libDaisy/src/per/qspi.h ****         \return Result::OK or Result::ERR
 122:../libDaisy/src/per/qspi.h ****         */
 123:../libDaisy/src/per/qspi.h ****     Result WritePage(uint32_t address, uint32_t size, uint8_t* buffer);
 124:../libDaisy/src/per/qspi.h **** 
 125:../libDaisy/src/per/qspi.h ****     /** 
 126:../libDaisy/src/per/qspi.h ****         Writes data in buffer to to the QSPI. Starting at address to address+size 
 127:../libDaisy/src/per/qspi.h ****         \param address Address to write to
 128:../libDaisy/src/per/qspi.h ****         \param size Buffer size
 129:../libDaisy/src/per/qspi.h ****         \param buffer Buffer to write
 130:../libDaisy/src/per/qspi.h ****         \return Result::OK or Result::ERR
 131:../libDaisy/src/per/qspi.h ****         */
 132:../libDaisy/src/per/qspi.h ****     Result Write(uint32_t address, uint32_t size, uint8_t* buffer);
 133:../libDaisy/src/per/qspi.h **** 
 134:../libDaisy/src/per/qspi.h ****     /** 
 135:../libDaisy/src/per/qspi.h ****         Erases the area specified on the chip.
 136:../libDaisy/src/per/qspi.h ****         Erasures will happen by 4K, 32K or 64K increments.
 137:../libDaisy/src/per/qspi.h ****         Smallest erase possible is 4kB at a time. (on IS25LP*)
 138:../libDaisy/src/per/qspi.h ****         \param start_addr Address to begin erasing from
 139:../libDaisy/src/per/qspi.h ****         \param end_addr  Address to stop erasing at
 140:../libDaisy/src/per/qspi.h ****         \return Result::OK or Result::ERR
 141:../libDaisy/src/per/qspi.h ****         */
 142:../libDaisy/src/per/qspi.h ****     Result Erase(uint32_t start_addr, uint32_t end_addr);
 143:../libDaisy/src/per/qspi.h **** 
 144:../libDaisy/src/per/qspi.h ****     /**  
 145:../libDaisy/src/per/qspi.h ****          Erases a single sector of the chip.  
 146:../libDaisy/src/per/qspi.h ****         TODO: Document the size of this function. 
 147:../libDaisy/src/per/qspi.h ****         \param address Address of sector to erase
 148:../libDaisy/src/per/qspi.h ****         \return Result::OK or Result::ERR
 149:../libDaisy/src/per/qspi.h ****         */
 150:../libDaisy/src/per/qspi.h ****     Result EraseSector(uint32_t address);
 151:../libDaisy/src/per/qspi.h **** 
 152:../libDaisy/src/per/qspi.h ****     /** Returns the current class status. Useful for debugging.
 153:../libDaisy/src/per/qspi.h ****      *  \returns Status
 154:../libDaisy/src/per/qspi.h ****      */
 155:../libDaisy/src/per/qspi.h ****     Status GetStatus();
 156:../libDaisy/src/per/qspi.h **** 
 157:../libDaisy/src/per/qspi.h ****     /** Returns a pointer to the actual memory used 
 158:../libDaisy/src/per/qspi.h ****      *  The memory at this address is read-only
 159:../libDaisy/src/per/qspi.h ****      *  to write to it use the Write function.
 160:../libDaisy/src/per/qspi.h ****      * 
 161:../libDaisy/src/per/qspi.h ****      *  \param offset returns the pointer starting this 
 162:../libDaisy/src/per/qspi.h ****      *                many bytes into the memory
 163:../libDaisy/src/per/qspi.h ****     */
ARM GAS  /var/folders/2p/02m_5p7958535cp2tpgps0400000gn/T//cc82ymlO.s 			page 42


 164:../libDaisy/src/per/qspi.h ****     void* GetData(uint32_t offset = 0);
 165:../libDaisy/src/per/qspi.h **** 
 166:../libDaisy/src/per/qspi.h ****     QSPIHandle() : pimpl_(nullptr) {}
 625              		.loc 19 166 5 view .LVU166
 626              	.LBE534:
 627              	.LBE533:
 628              	.LBE532:
 629              	.LBE531:
 630              	.LBE530:
 631              	.LBE528:
 632              	.LBE527:
 633              		.loc 16 111 1 is_stmt 0 view .LVU167
 634 0000 38B5     		push	{r3, r4, r5, lr}
 635              		.cfi_def_cfa_offset 16
 636              		.cfi_offset 3, -16
 637              		.cfi_offset 4, -12
 638              		.cfi_offset 5, -8
 639              		.cfi_offset 14, -4
 640              	.LBB646:
 641              	.LBB645:
 642              	.LBB627:
 643              	.LBB624:
 644              	.LBB555:
 645              	.LBB553:
 646              	.LBB539:
 647              	.LBB535:
 648              	.LBB536:
 649              		.loc 19 166 34 view .LVU168
 650 0002 1A4C     		ldr	r4, .L20
 651 0004 0025     		movs	r5, #0
 652              	.LBE536:
 653              	.LBE535:
 654              	.LBE539:
 655              	.LBE553:
 656              	.LBE555:
 657              	.LBB556:
 658              	.LBB557:
 659              	.LBB558:
 660              	.LBB559:
 157:../libDaisy/src/hid/midi.h **** 
 158:../libDaisy/src/hid/midi.h ****     struct Config
 661              		.loc 3 158 12 view .LVU169
 662 0006 04F5C070 		add	r0, r4, #384
 663              	.LBE559:
 664              	.LBE558:
 665              	.LBE557:
 666              	.LBE556:
 667              	.LBB603:
 668              	.LBB554:
 669              	.LBB540:
 670              	.LBB538:
 671              	.LBB537:
 672              		.loc 19 166 34 view .LVU170
 673 000a 2560     		str	r5, [r4]
 674              	.LVL29:
 675              		.loc 19 166 34 view .LVU171
 676              	.LBE537:
ARM GAS  /var/folders/2p/02m_5p7958535cp2tpgps0400000gn/T//cc82ymlO.s 			page 43


 677              	.LBE538:
 678              	.LBE540:
 679              	.LBB541:
 680              	.LBI541:
  95:../libDaisy/src/hid/audio.h ****     ~AudioHandle() {}
 681              		.loc 15 95 5 is_stmt 1 view .LVU172
 682              	.LBB542:
 683              	.LBB543:
  95:../libDaisy/src/hid/audio.h ****     ~AudioHandle() {}
 684              		.loc 15 95 35 is_stmt 0 view .LVU173
 685 000c 6561     		str	r5, [r4, #20]
 686              	.LVL30:
  95:../libDaisy/src/hid/audio.h ****     ~AudioHandle() {}
 687              		.loc 15 95 35 view .LVU174
 688              	.LBE543:
 689              	.LBE542:
 690              	.LBE541:
 691              	.LBB544:
 692              	.LBI544:
 109:../libDaisy/src/per/adc.h ****     ~AdcHandle() {}
 693              		.loc 14 109 5 is_stmt 1 view .LVU175
 109:../libDaisy/src/per/adc.h ****     ~AdcHandle() {}
 694              		.loc 14 109 5 is_stmt 0 view .LVU176
 695              	.LBE544:
 696              	.LBB545:
 697              	.LBI545:
 698              		.file 20 "../libDaisy/src/per/dac.h"
   1:../libDaisy/src/per/dac.h **** #pragma once
   2:../libDaisy/src/per/dac.h **** #ifndef DSY_DAC_H
   3:../libDaisy/src/per/dac.h **** #define DSY_DAC_H
   4:../libDaisy/src/per/dac.h **** 
   5:../libDaisy/src/per/dac.h **** #include "daisy_core.h"
   6:../libDaisy/src/per/dac.h **** 
   7:../libDaisy/src/per/dac.h **** namespace daisy
   8:../libDaisy/src/per/dac.h **** {
   9:../libDaisy/src/per/dac.h **** /** @brief DAC handle for Built-in DAC Peripheral 
  10:../libDaisy/src/per/dac.h ****  *  @ingroup per_analog
  11:../libDaisy/src/per/dac.h ****  ** 
  12:../libDaisy/src/per/dac.h ****  ** For now only Normal Mode is supported,
  13:../libDaisy/src/per/dac.h ****  ** Sample and hold mode provides reduced power consumption, but requires a bit more setup.
  14:../libDaisy/src/per/dac.h ****  **
  15:../libDaisy/src/per/dac.h ****  ** For now connecting the DAC through other internal peripherals is also not supported.
  16:../libDaisy/src/per/dac.h ****  **
  17:../libDaisy/src/per/dac.h ****  ** Since the DAC channels have dedicated pins we don't need to pass in a pin config like with
  18:../libDaisy/src/per/dac.h ****  ** other modules. However, it is still important to not try to use the DAC pins for anything else.
  19:../libDaisy/src/per/dac.h ****  ** DAC Channel 1 is on PA4, and DAC Channel 2 is on PA5
  20:../libDaisy/src/per/dac.h ****  ***/
  21:../libDaisy/src/per/dac.h **** class DacHandle
  22:../libDaisy/src/per/dac.h **** {
  23:../libDaisy/src/per/dac.h ****   public:
  24:../libDaisy/src/per/dac.h ****     /** Return Values for the DacHandle class */
  25:../libDaisy/src/per/dac.h ****     enum class Result
  26:../libDaisy/src/per/dac.h ****     {
  27:../libDaisy/src/per/dac.h ****         OK,
  28:../libDaisy/src/per/dac.h ****         ERR,
  29:../libDaisy/src/per/dac.h ****     };
  30:../libDaisy/src/per/dac.h **** 
ARM GAS  /var/folders/2p/02m_5p7958535cp2tpgps0400000gn/T//cc82ymlO.s 			page 44


  31:../libDaisy/src/per/dac.h ****     /** Selects which channel(s) will be configured for use. */
  32:../libDaisy/src/per/dac.h ****     enum class Channel
  33:../libDaisy/src/per/dac.h ****     {
  34:../libDaisy/src/per/dac.h ****         ONE,
  35:../libDaisy/src/per/dac.h ****         TWO,
  36:../libDaisy/src/per/dac.h ****         BOTH,
  37:../libDaisy/src/per/dac.h ****     };
  38:../libDaisy/src/per/dac.h **** 
  39:../libDaisy/src/per/dac.h ****     /** Sets the Mode for the DAC channels.
  40:../libDaisy/src/per/dac.h ****      **
  41:../libDaisy/src/per/dac.h ****      ** Polling mode uses the blocking mode to transmit a single value at a time.
  42:../libDaisy/src/per/dac.h ****      **
  43:../libDaisy/src/per/dac.h ****      ** DMA mode uses a buffer, and periodically transmits it triggering a 
  44:../libDaisy/src/per/dac.h ****      ** callback to fill the buffer when it is ready for more samples.
  45:../libDaisy/src/per/dac.h ****      ***/
  46:../libDaisy/src/per/dac.h ****     enum class Mode
  47:../libDaisy/src/per/dac.h ****     {
  48:../libDaisy/src/per/dac.h ****         POLLING,
  49:../libDaisy/src/per/dac.h ****         DMA,
  50:../libDaisy/src/per/dac.h ****     };
  51:../libDaisy/src/per/dac.h **** 
  52:../libDaisy/src/per/dac.h ****     /** Sets the number of bits per sample transmitted out of the DAC.
  53:../libDaisy/src/per/dac.h ****      ** The output range will be: 0V - VDDA
  54:../libDaisy/src/per/dac.h ****      ** The resolution will be roughly: bitdepth / (VDDA - 0V) 
  55:../libDaisy/src/per/dac.h ****      ***/
  56:../libDaisy/src/per/dac.h ****     enum class BitDepth
  57:../libDaisy/src/per/dac.h ****     {
  58:../libDaisy/src/per/dac.h ****         BITS_8,
  59:../libDaisy/src/per/dac.h ****         BITS_12
  60:../libDaisy/src/per/dac.h ****     };
  61:../libDaisy/src/per/dac.h **** 
  62:../libDaisy/src/per/dac.h ****     /** Sets whether the DAC output is buffered for higher drive ability. */
  63:../libDaisy/src/per/dac.h ****     enum class BufferState
  64:../libDaisy/src/per/dac.h ****     {
  65:../libDaisy/src/per/dac.h ****         ENABLED,
  66:../libDaisy/src/per/dac.h ****         DISABLED,
  67:../libDaisy/src/per/dac.h ****     };
  68:../libDaisy/src/per/dac.h **** 
  69:../libDaisy/src/per/dac.h ****     /** Configuration structure for initializing the DAC structure. */
  70:../libDaisy/src/per/dac.h ****     struct Config
  71:../libDaisy/src/per/dac.h ****     {
  72:../libDaisy/src/per/dac.h ****         /** Target Samplerate in Hz used to configure the internal 
  73:../libDaisy/src/per/dac.h ****          ** timebase for DMA mode. Does nothing in POLLING mode.
  74:../libDaisy/src/per/dac.h ****          ** If the value is 0 at Init time this will default to 48000Hz 
  75:../libDaisy/src/per/dac.h ****          ** otherwise the driver will attempt meet the target.*/
  76:../libDaisy/src/per/dac.h ****         uint32_t target_samplerate;
  77:../libDaisy/src/per/dac.h **** 
  78:../libDaisy/src/per/dac.h ****         Channel     chn;
  79:../libDaisy/src/per/dac.h ****         Mode        mode;
  80:../libDaisy/src/per/dac.h ****         BitDepth    bitdepth;
  81:../libDaisy/src/per/dac.h ****         BufferState buff_state;
  82:../libDaisy/src/per/dac.h ****     };
  83:../libDaisy/src/per/dac.h **** 
  84:../libDaisy/src/per/dac.h ****     DacHandle() : pimpl_(nullptr) {}
 699              		.loc 20 84 5 is_stmt 1 view .LVU177
 700              	.LBB546:
 701              	.LBB547:
ARM GAS  /var/folders/2p/02m_5p7958535cp2tpgps0400000gn/T//cc82ymlO.s 			page 45


 702              		.loc 20 84 33 is_stmt 0 view .LVU178
 703 000e 2562     		str	r5, [r4, #32]
 704              	.LVL31:
 705              		.loc 20 84 33 view .LVU179
 706              	.LBE547:
 707              	.LBE546:
 708              	.LBE545:
 709              	.LBB548:
 710              	.LBI548:
  40:../libDaisy/src/hid/usb.h **** 
 711              		.loc 13 40 5 is_stmt 1 view .LVU180
  40:../libDaisy/src/hid/usb.h **** 
 712              		.loc 13 40 5 is_stmt 0 view .LVU181
 713              	.LBE548:
 714              	.LBB549:
 715              	.LBI549:
  96:../libDaisy/src/sys/system.h ****     ~System() {}
 716              		.loc 12 96 5 is_stmt 1 view .LVU182
  96:../libDaisy/src/sys/system.h ****     ~System() {}
 717              		.loc 12 96 5 is_stmt 0 view .LVU183
 718              	.LBE549:
 719              	.LBB550:
 720              	.LBI550:
 721              		.file 21 "../libDaisy/src/per/sai.h"
   1:../libDaisy/src/per/sai.h **** #pragma once
   2:../libDaisy/src/per/sai.h **** #ifndef DSY_SAI_H
   3:../libDaisy/src/per/sai.h **** #define DSY_SAI_H
   4:../libDaisy/src/per/sai.h **** 
   5:../libDaisy/src/per/sai.h **** #include "daisy_core.h"
   6:../libDaisy/src/per/sai.h **** 
   7:../libDaisy/src/per/sai.h **** namespace daisy
   8:../libDaisy/src/per/sai.h **** {
   9:../libDaisy/src/per/sai.h **** /** 
  10:../libDaisy/src/per/sai.h ****  * Support for I2S Audio Protocol with different bit-depth, samplerate options
  11:../libDaisy/src/per/sai.h ****  * Allows for master or slave, as well as freedom of selecting direction, 
  12:../libDaisy/src/per/sai.h ****  * and other behavior for each peripheral, and block.
  13:../libDaisy/src/per/sai.h ****  * 
  14:../libDaisy/src/per/sai.h ****  * DMA Transfer commands must use buffers located within non-cached memory or use cache maintenance
  15:../libDaisy/src/per/sai.h ****  * To declare an unitialized global element in the DMA memory section:
  16:../libDaisy/src/per/sai.h ****  *    int32_t DSY_DMA_BUFFER_SECTOR my_buffer[96];
  17:../libDaisy/src/per/sai.h ****  *
  18:../libDaisy/src/per/sai.h ****  * Callback functions will be called once per half of the buffer. In the above example, 
  19:../libDaisy/src/per/sai.h ****  * the callback function would be called once for every 48 samples.
  20:../libDaisy/src/per/sai.h ****  * 
  21:../libDaisy/src/per/sai.h ****  * Use SAI Handle like this:
  22:../libDaisy/src/per/sai.h ****  * 
  23:../libDaisy/src/per/sai.h ****  *  SaiHandle::Config sai_config;
  24:../libDaisy/src/per/sai.h ****  *  sai_config.periph          = SaiHandle::Config::Peripheral::SAI_1;
  25:../libDaisy/src/per/sai.h ****  *  sai_config.sr              = SaiHandle::Config::SampleRate::SAI_48KHZ;
  26:../libDaisy/src/per/sai.h ****  *  sai_config.bit_depth       = SaiHandle::Config::BitDepth::SAI_24BIT;
  27:../libDaisy/src/per/sai.h ****  *  sai_config.a_sync          = SaiHandle::Config::Sync::MASTER;
  28:../libDaisy/src/per/sai.h ****  *  sai_config.b_sync          = SaiHandle::Config::Sync::SLAVE;
  29:../libDaisy/src/per/sai.h ****  *  sai_config.a_dir           = SaiHandle::Config::Direction::RECEIVE;
  30:../libDaisy/src/per/sai.h ****  *  sai_config.b_dir           = SaiHandle::Config::Direction::TRANSMIT;
  31:../libDaisy/src/per/sai.h ****  *  sai_config.pin_config.fs   = {DSY_GPIOE, 4};
  32:../libDaisy/src/per/sai.h ****  *  sai_config.pin_config.mclk = {DSY_GPIOE, 2};
  33:../libDaisy/src/per/sai.h ****  *  sai_config.pin_config.sck  = {DSY_GPIOE, 5};
ARM GAS  /var/folders/2p/02m_5p7958535cp2tpgps0400000gn/T//cc82ymlO.s 			page 46


  34:../libDaisy/src/per/sai.h ****  *  sai_config.pin_config.sa   = {DSY_GPIOE, 6};
  35:../libDaisy/src/per/sai.h ****  *  sai_config.pin_config.sb   = {DSY_GPIOE, 3};
  36:../libDaisy/src/per/sai.h ****  *  // Then Initialize
  37:../libDaisy/src/per/sai.h ****  *  SaiHandle sai;
  38:../libDaisy/src/per/sai.h ****  *  sai.Init(sai_config);
  39:../libDaisy/src/per/sai.h ****  *  // Now you can use it:
  40:../libDaisy/src/per/sai.h ****  *  sai.StartDma(. . .);
  41:../libDaisy/src/per/sai.h ****  */
  42:../libDaisy/src/per/sai.h **** class SaiHandle
  43:../libDaisy/src/per/sai.h **** {
  44:../libDaisy/src/per/sai.h ****   public:
  45:../libDaisy/src/per/sai.h ****     /** Contains settings for initialising an SAI Interface */
  46:../libDaisy/src/per/sai.h ****     struct Config
  47:../libDaisy/src/per/sai.h ****     {
  48:../libDaisy/src/per/sai.h ****         /** Specifies the internal peripheral to use (mapped to different hardware pins) */
  49:../libDaisy/src/per/sai.h ****         enum class Peripheral
  50:../libDaisy/src/per/sai.h ****         {
  51:../libDaisy/src/per/sai.h ****             SAI_1,
  52:../libDaisy/src/per/sai.h ****             SAI_2,
  53:../libDaisy/src/per/sai.h ****         };
  54:../libDaisy/src/per/sai.h **** 
  55:../libDaisy/src/per/sai.h ****         /** Rate at which samples will be streaming to/from the device. */
  56:../libDaisy/src/per/sai.h ****         enum class SampleRate
  57:../libDaisy/src/per/sai.h ****         {
  58:../libDaisy/src/per/sai.h ****             SAI_8KHZ,
  59:../libDaisy/src/per/sai.h ****             SAI_16KHZ,
  60:../libDaisy/src/per/sai.h ****             SAI_32KHZ,
  61:../libDaisy/src/per/sai.h ****             SAI_48KHZ,
  62:../libDaisy/src/per/sai.h ****             SAI_96KHZ,
  63:../libDaisy/src/per/sai.h ****         };
  64:../libDaisy/src/per/sai.h **** 
  65:../libDaisy/src/per/sai.h ****         /** Bit Depth that the hardware expects to be transferred to/from the device. */
  66:../libDaisy/src/per/sai.h ****         enum class BitDepth
  67:../libDaisy/src/per/sai.h ****         {
  68:../libDaisy/src/per/sai.h ****             SAI_16BIT,
  69:../libDaisy/src/per/sai.h ****             SAI_24BIT,
  70:../libDaisy/src/per/sai.h ****             SAI_32BIT,
  71:../libDaisy/src/per/sai.h ****         };
  72:../libDaisy/src/per/sai.h **** 
  73:../libDaisy/src/per/sai.h ****         /** Specifies whether a particular block is the master or the slave 
  74:../libDaisy/src/per/sai.h ****          ** If both are set to slave, no MCLK signal will be used, and it is
  75:../libDaisy/src/per/sai.h ****          ** expected that the codec will have its own xtal.
  76:../libDaisy/src/per/sai.h ****          */
  77:../libDaisy/src/per/sai.h ****         enum class Sync
  78:../libDaisy/src/per/sai.h ****         {
  79:../libDaisy/src/per/sai.h ****             MASTER,
  80:../libDaisy/src/per/sai.h ****             SLAVE,
  81:../libDaisy/src/per/sai.h ****         };
  82:../libDaisy/src/per/sai.h **** 
  83:../libDaisy/src/per/sai.h ****         /** Specifies the direction for each peripheral block. */
  84:../libDaisy/src/per/sai.h ****         enum class Direction
  85:../libDaisy/src/per/sai.h ****         {
  86:../libDaisy/src/per/sai.h ****             TRANSMIT,
  87:../libDaisy/src/per/sai.h ****             RECEIVE,
  88:../libDaisy/src/per/sai.h ****         };
  89:../libDaisy/src/per/sai.h **** 
  90:../libDaisy/src/per/sai.h ****         Peripheral periph;
ARM GAS  /var/folders/2p/02m_5p7958535cp2tpgps0400000gn/T//cc82ymlO.s 			page 47


  91:../libDaisy/src/per/sai.h ****         struct
  92:../libDaisy/src/per/sai.h ****         {
  93:../libDaisy/src/per/sai.h ****             dsy_gpio_pin mclk, fs, sck, sa, sb;
  94:../libDaisy/src/per/sai.h ****         } pin_config;
  95:../libDaisy/src/per/sai.h ****         SampleRate sr;
  96:../libDaisy/src/per/sai.h ****         BitDepth   bit_depth;
  97:../libDaisy/src/per/sai.h ****         Sync       a_sync, b_sync;
  98:../libDaisy/src/per/sai.h ****         Direction  a_dir, b_dir;
  99:../libDaisy/src/per/sai.h ****     };
 100:../libDaisy/src/per/sai.h **** 
 101:../libDaisy/src/per/sai.h ****     /** Return values for SAI functions */
 102:../libDaisy/src/per/sai.h ****     enum class Result
 103:../libDaisy/src/per/sai.h ****     {
 104:../libDaisy/src/per/sai.h ****         OK,
 105:../libDaisy/src/per/sai.h ****         ERR,
 106:../libDaisy/src/per/sai.h ****     };
 107:../libDaisy/src/per/sai.h **** 
 108:../libDaisy/src/per/sai.h ****     SaiHandle() : pimpl_(nullptr) {}
 722              		.loc 21 108 5 is_stmt 1 view .LVU184
 723              	.LBB551:
 724              	.LBB552:
 725              		.loc 21 108 33 is_stmt 0 view .LVU185
 726 0010 E563     		str	r5, [r4, #60]
 727              	.LVL32:
 728              		.loc 21 108 33 view .LVU186
 729              	.LBE552:
 730              	.LBE551:
 731              	.LBE550:
 732              	.LBE554:
 733              	.LBE603:
 734              	.LBB604:
 735              	.LBI604:
  20:../libDaisy/src/hid/encoder.h ****     ~Encoder() {}
 736              		.loc 10 20 5 is_stmt 1 view .LVU187
 737              	.LBB605:
 738              	.LBB606:
 739              	.LBI606:
  41:../libDaisy/src/hid/switch.h ****     ~Switch() {}
 740              		.loc 8 41 5 view .LVU188
  41:../libDaisy/src/hid/switch.h ****     ~Switch() {}
 741              		.loc 8 41 5 is_stmt 0 view .LVU189
 742              	.LBE606:
 743              	.LBE605:
 744              	.LBE604:
 745              	.LBB607:
 746              	.LBI607:
  21:../libDaisy/src/hid/ctrl.h ****     /** destructor */
 747              		.loc 9 21 5 is_stmt 1 view .LVU190
  21:../libDaisy/src/hid/ctrl.h ****     /** destructor */
 748              		.loc 9 21 5 is_stmt 0 view .LVU191
 749              	.LBE607:
 750              	.LBB608:
 751              	.LBI608:
  21:../libDaisy/src/hid/ctrl.h ****     /** destructor */
 752              		.loc 9 21 5 is_stmt 1 view .LVU192
  21:../libDaisy/src/hid/ctrl.h ****     /** destructor */
 753              		.loc 9 21 5 is_stmt 0 view .LVU193
ARM GAS  /var/folders/2p/02m_5p7958535cp2tpgps0400000gn/T//cc82ymlO.s 			page 48


 754              	.LBE608:
 755              	.LBB609:
 756              	.LBI609:
  41:../libDaisy/src/hid/switch.h ****     ~Switch() {}
 757              		.loc 8 41 5 is_stmt 1 view .LVU194
  41:../libDaisy/src/hid/switch.h ****     ~Switch() {}
 758              		.loc 8 41 5 is_stmt 0 view .LVU195
 759              	.LBE609:
 760              	.LBB610:
 761              	.LBI610:
  41:../libDaisy/src/hid/switch.h ****     ~Switch() {}
 762              		.loc 8 41 5 is_stmt 1 view .LVU196
  41:../libDaisy/src/hid/switch.h ****     ~Switch() {}
 763              		.loc 8 41 5 is_stmt 0 view .LVU197
 764              	.LBE610:
 765              	.LBB611:
 766              	.LBI611:
  17:../libDaisy/src/hid/rgb_led.h ****     ~RgbLed() {}
 767              		.loc 6 17 5 is_stmt 1 view .LVU198
 768              	.LBB612:
 769              	.LBB613:
 770              	.LBI613:
  24:../libDaisy/src/hid/led.h ****     ~Led() {}
 771              		.loc 7 24 5 view .LVU199
  24:../libDaisy/src/hid/led.h ****     ~Led() {}
 772              		.loc 7 24 5 is_stmt 0 view .LVU200
 773              	.LBE613:
 774              	.LBB614:
 775              	.LBI614:
  24:../libDaisy/src/hid/led.h ****     ~Led() {}
 776              		.loc 7 24 5 is_stmt 1 view .LVU201
  24:../libDaisy/src/hid/led.h ****     ~Led() {}
 777              		.loc 7 24 5 is_stmt 0 view .LVU202
 778              	.LBE614:
 779              	.LBB615:
 780              	.LBI615:
  24:../libDaisy/src/hid/led.h ****     ~Led() {}
 781              		.loc 7 24 5 is_stmt 1 view .LVU203
  24:../libDaisy/src/hid/led.h ****     ~Led() {}
 782              		.loc 7 24 5 is_stmt 0 view .LVU204
 783              	.LBE615:
 784              	.LBE612:
 785              	.LBE611:
 786              	.LBB616:
 787              	.LBI616:
  17:../libDaisy/src/hid/rgb_led.h ****     ~RgbLed() {}
 788              		.loc 6 17 5 is_stmt 1 view .LVU205
 789              	.LBB617:
 790              	.LBB618:
 791              	.LBI618:
  24:../libDaisy/src/hid/led.h ****     ~Led() {}
 792              		.loc 7 24 5 view .LVU206
  24:../libDaisy/src/hid/led.h ****     ~Led() {}
 793              		.loc 7 24 5 is_stmt 0 view .LVU207
 794              	.LBE618:
 795              	.LBB619:
 796              	.LBI619:
ARM GAS  /var/folders/2p/02m_5p7958535cp2tpgps0400000gn/T//cc82ymlO.s 			page 49


  24:../libDaisy/src/hid/led.h ****     ~Led() {}
 797              		.loc 7 24 5 is_stmt 1 view .LVU208
  24:../libDaisy/src/hid/led.h ****     ~Led() {}
 798              		.loc 7 24 5 is_stmt 0 view .LVU209
 799              	.LBE619:
 800              	.LBB620:
 801              	.LBI620:
  24:../libDaisy/src/hid/led.h ****     ~Led() {}
 802              		.loc 7 24 5 is_stmt 1 view .LVU210
  24:../libDaisy/src/hid/led.h ****     ~Led() {}
 803              		.loc 7 24 5 is_stmt 0 view .LVU211
 804              	.LBE620:
 805              	.LBE617:
 806              	.LBE616:
 807              	.LBB621:
 808              	.LBI556:
 155:../libDaisy/src/hid/midi.h ****     ~MidiHandler() {}
 809              		.loc 3 155 5 is_stmt 1 view .LVU212
 810              	.LBB600:
 811              	.LBB561:
 812              	.LBI558:
 813              		.loc 3 158 12 view .LVU213
 814              	.LBB560:
 815 0012 FFF7FEFF 		bl	_ZN5daisy17MidiUartTransport6ConfigC1Ev
 816              	.LVL33:
 817              		.loc 3 158 12 is_stmt 0 view .LVU214
 818              	.LBE560:
 819              	.LBE561:
 820              	.LBB562:
 821              	.LBI562:
  31:../libDaisy/src/hid/midi.h ****     ~MidiUartTransport() {}
 822              		.loc 3 31 5 is_stmt 1 view .LVU215
 823              	.LBB563:
 824              	.LBB564:
 825              	.LBI564:
 826              		.file 22 "../libDaisy/src/per/uart.h"
   1:../libDaisy/src/per/uart.h **** /* 
   2:../libDaisy/src/per/uart.h **** TODO
   3:../libDaisy/src/per/uart.h **** - Overflow handling, etc. for Rx Queue.
   4:../libDaisy/src/per/uart.h **** */
   5:../libDaisy/src/per/uart.h **** 
   6:../libDaisy/src/per/uart.h **** #pragma once
   7:../libDaisy/src/per/uart.h **** #ifndef DSY_UART_H
   8:../libDaisy/src/per/uart.h **** #define DSY_UART_H /**< macro */
   9:../libDaisy/src/per/uart.h **** #include "daisy_core.h"
  10:../libDaisy/src/per/uart.h **** 
  11:../libDaisy/src/per/uart.h **** 
  12:../libDaisy/src/per/uart.h **** namespace daisy
  13:../libDaisy/src/per/uart.h **** {
  14:../libDaisy/src/per/uart.h **** /** @addtogroup serial
  15:../libDaisy/src/per/uart.h ****     @{
  16:../libDaisy/src/per/uart.h ****     */
  17:../libDaisy/src/per/uart.h **** 
  18:../libDaisy/src/per/uart.h **** /** 
  19:../libDaisy/src/per/uart.h ****     Uart Peripheral
  20:../libDaisy/src/per/uart.h ****     @author shensley
  21:../libDaisy/src/per/uart.h ****     @date March 2020
ARM GAS  /var/folders/2p/02m_5p7958535cp2tpgps0400000gn/T//cc82ymlO.s 			page 50


  22:../libDaisy/src/per/uart.h ****     */
  23:../libDaisy/src/per/uart.h **** class UartHandler
  24:../libDaisy/src/per/uart.h **** {
  25:../libDaisy/src/per/uart.h ****   public:
  26:../libDaisy/src/per/uart.h ****     struct Config
  27:../libDaisy/src/per/uart.h ****     {
  28:../libDaisy/src/per/uart.h ****         enum class Peripheral
  29:../libDaisy/src/per/uart.h ****         {
  30:../libDaisy/src/per/uart.h ****             USART_1,
  31:../libDaisy/src/per/uart.h ****             USART_2,
  32:../libDaisy/src/per/uart.h ****             USART_3,
  33:../libDaisy/src/per/uart.h ****             UART_4,
  34:../libDaisy/src/per/uart.h ****             UART_5,
  35:../libDaisy/src/per/uart.h ****             USART_6,
  36:../libDaisy/src/per/uart.h ****             UART_7,
  37:../libDaisy/src/per/uart.h ****             UART_8,
  38:../libDaisy/src/per/uart.h ****             LPUART_1,
  39:../libDaisy/src/per/uart.h ****         };
  40:../libDaisy/src/per/uart.h **** 
  41:../libDaisy/src/per/uart.h ****         enum class StopBits
  42:../libDaisy/src/per/uart.h ****         {
  43:../libDaisy/src/per/uart.h ****             BITS_0_5,
  44:../libDaisy/src/per/uart.h ****             BITS_1,
  45:../libDaisy/src/per/uart.h ****             BITS_1_5,
  46:../libDaisy/src/per/uart.h ****             BITS_2,
  47:../libDaisy/src/per/uart.h ****         };
  48:../libDaisy/src/per/uart.h **** 
  49:../libDaisy/src/per/uart.h ****         enum class Parity
  50:../libDaisy/src/per/uart.h ****         {
  51:../libDaisy/src/per/uart.h ****             NONE,
  52:../libDaisy/src/per/uart.h ****             EVEN,
  53:../libDaisy/src/per/uart.h ****             ODD,
  54:../libDaisy/src/per/uart.h ****         };
  55:../libDaisy/src/per/uart.h **** 
  56:../libDaisy/src/per/uart.h ****         enum class Mode
  57:../libDaisy/src/per/uart.h ****         {
  58:../libDaisy/src/per/uart.h ****             RX,
  59:../libDaisy/src/per/uart.h ****             TX,
  60:../libDaisy/src/per/uart.h ****             TX_RX,
  61:../libDaisy/src/per/uart.h ****         };
  62:../libDaisy/src/per/uart.h **** 
  63:../libDaisy/src/per/uart.h ****         enum class WordLength
  64:../libDaisy/src/per/uart.h ****         {
  65:../libDaisy/src/per/uart.h ****             BITS_7,
  66:../libDaisy/src/per/uart.h ****             BITS_8,
  67:../libDaisy/src/per/uart.h ****             BITS_9,
  68:../libDaisy/src/per/uart.h ****         };
  69:../libDaisy/src/per/uart.h **** 
  70:../libDaisy/src/per/uart.h ****         struct
  71:../libDaisy/src/per/uart.h ****         {
  72:../libDaisy/src/per/uart.h ****             dsy_gpio_pin tx; /**< & */
  73:../libDaisy/src/per/uart.h ****             dsy_gpio_pin rx; /**< & */
  74:../libDaisy/src/per/uart.h ****         } pin_config;        /**< & */
  75:../libDaisy/src/per/uart.h **** 
  76:../libDaisy/src/per/uart.h ****         Config()
  77:../libDaisy/src/per/uart.h ****         {
  78:../libDaisy/src/per/uart.h ****             // user must init periph, pin_config, and mode
ARM GAS  /var/folders/2p/02m_5p7958535cp2tpgps0400000gn/T//cc82ymlO.s 			page 51


  79:../libDaisy/src/per/uart.h ****             stopbits   = StopBits::BITS_1;
  80:../libDaisy/src/per/uart.h ****             parity     = Parity::NONE;
  81:../libDaisy/src/per/uart.h ****             wordlength = WordLength::BITS_8;
  82:../libDaisy/src/per/uart.h ****             baudrate   = 31250;
  83:../libDaisy/src/per/uart.h ****         }
  84:../libDaisy/src/per/uart.h **** 
  85:../libDaisy/src/per/uart.h ****         Peripheral periph;
  86:../libDaisy/src/per/uart.h ****         StopBits   stopbits;
  87:../libDaisy/src/per/uart.h ****         Parity     parity;
  88:../libDaisy/src/per/uart.h ****         Mode       mode;
  89:../libDaisy/src/per/uart.h ****         WordLength wordlength;
  90:../libDaisy/src/per/uart.h ****         uint32_t   baudrate;
  91:../libDaisy/src/per/uart.h ****     };
  92:../libDaisy/src/per/uart.h **** 
  93:../libDaisy/src/per/uart.h **** 
  94:../libDaisy/src/per/uart.h ****     UartHandler() : pimpl_(nullptr) {}
 827              		.loc 22 94 5 view .LVU216
 828              	.LBE564:
 829              	.LBE563:
 830              	.LBE562:
 831              	.LBB569:
 832              	.LBB570:
 833              	.LBB571:
  18:../libDaisy/src/hid/midi_parser.h ****     ~MidiParser() {}
 834              		.loc 5 18 17 is_stmt 0 view .LVU217
 835 0016 1649     		ldr	r1, .L20+4
 836 0018 0723     		movs	r3, #7
 837              	.LBE571:
 838              	.LBE570:
 839              	.LBE569:
 840              	.LBE600:
 841              	.LBE621:
 842              	.LBE624:
 843              	.LBE627:
  31:main.cpp      **** DATA_ SdmmcHandler sd;
 844              		.loc 16 31 16 view .LVU218
 845 001a 2046     		mov	r0, r4
 846              	.LBB628:
 847              	.LBB625:
 848              	.LBB622:
 849              	.LBB601:
 850              	.LBB576:
 851              	.LBB574:
 852              	.LBB572:
  18:../libDaisy/src/hid/midi_parser.h ****     ~MidiParser() {}
 853              		.loc 5 18 17 view .LVU219
 854 001c C4F83912 		str	r1, [r4, #569]	@ unaligned
 855              	.LBE572:
 856              	.LBE574:
 857              	.LBE576:
 858              	.LBB577:
 859              	.LBB578:
 860              	.LBB579:
 861              	.LBB580:
 862              	.LBB581:
  15:../libDaisy/src/util/FIFO.h ****     {
 863              		.loc 4 15 75 view .LVU220
ARM GAS  /var/folders/2p/02m_5p7958535cp2tpgps0400000gn/T//cc82ymlO.s 			page 52


 864 0020 04F51471 		add	r1, r4, #592
 865              	.LBE581:
 866              	.LBE580:
 867              	.LBE579:
 868              	.LBE578:
 869              	.LBE577:
 870              	.LBB594:
 871              	.LBB575:
 872              	.LBB573:
  18:../libDaisy/src/hid/midi_parser.h ****     ~MidiParser() {}
 873              		.loc 5 18 17 view .LVU221
 874 0024 84F83D32 		strb	r3, [r4, #573]
 875              	.LBE573:
 876              	.LBE575:
 877              	.LBE594:
 878              	.LBB595:
 879              	.LBB591:
 880              	.LBB588:
 881              	.LBB585:
 882              	.LBB582:
  15:../libDaisy/src/util/FIFO.h ****     {
 883              		.loc 4 15 75 view .LVU222
 884 0028 40F20113 		movw	r3, #257
 885              	.LBE582:
 886              	.LBE585:
 887              	.LBE588:
 888              	.LBE591:
 889              	.LBE595:
 890              	.LBB596:
 891              	.LBB568:
 892              	.LBB567:
 893              	.LBB565:
 894              	.LBB566:
 895              		.loc 22 94 35 view .LVU223
 896 002c C4F89051 		str	r5, [r4, #400]
 897              	.LVL34:
 898              		.loc 22 94 35 view .LVU224
 899              	.LBE566:
 900              	.LBE565:
 901              	.LBE567:
 902              	.LBE568:
 903              	.LBE596:
 904              	.LBB597:
 905              	.LBI569:
  18:../libDaisy/src/hid/midi_parser.h ****     ~MidiParser() {}
 906              		.loc 5 18 5 is_stmt 1 view .LVU225
  18:../libDaisy/src/hid/midi_parser.h ****     ~MidiParser() {}
 907              		.loc 5 18 5 is_stmt 0 view .LVU226
 908              	.LBE597:
 909              	.LBB598:
 910              	.LBI577:
 299:../libDaisy/src/util/FIFO.h **** {
 300:../libDaisy/src/util/FIFO.h ****   public:
 301:../libDaisy/src/util/FIFO.h ****     /** Creates an empty FIFO */
 302:../libDaisy/src/util/FIFO.h ****     FIFO() : FIFOBase<T>(buffer_, capacity + 1) {}
 911              		.loc 4 302 5 is_stmt 1 view .LVU227
 912              	.LBB592:
ARM GAS  /var/folders/2p/02m_5p7958535cp2tpgps0400000gn/T//cc82ymlO.s 			page 53


 913              	.LBB589:
 914              	.LBI579:
  14:../libDaisy/src/util/FIFO.h ****     : buffer_(buffer), bufferSize_(bufferSize), bufferIn_(0), bufferOut_(0)
 915              		.loc 4 14 5 view .LVU228
 916              	.LBB586:
 917              	.LBB583:
  15:../libDaisy/src/util/FIFO.h ****     {
 918              		.loc 4 15 75 is_stmt 0 view .LVU229
 919 0030 C4F84852 		str	r5, [r4, #584]
 920 0034 C4F84C52 		str	r5, [r4, #588]
 921              	.LVL35:
  15:../libDaisy/src/util/FIFO.h ****     {
 922              		.loc 4 15 75 view .LVU230
 923              	.LBE583:
 924              	.LBE586:
 925              	.LBE589:
 926              	.LBE592:
 927              	.LBE598:
 928              	.LBE601:
 929              	.LBE622:
 930              	.LBE625:
 931              	.LBE628:
  31:main.cpp      **** DATA_ SdmmcHandler sd;
 932              		.loc 16 31 16 view .LVU231
 933 0038 0E4A     		ldr	r2, .L20+8
 934              	.LBB629:
 935              	.LBB626:
 936              	.LBB623:
 937              	.LBB602:
 938              	.LBB599:
 939              	.LBB593:
 940              	.LBB590:
 941              	.LBB587:
 942              	.LBB584:
  15:../libDaisy/src/util/FIFO.h ****     {
 943              		.loc 4 15 75 view .LVU232
 944 003a C4E99013 		strd	r1, r3, [r4, #576]
 945              	.LBE584:
 946              	.LBE587:
 947              	.LBE590:
 948              	.LBE593:
 949              	.LBE599:
 950              	.LBE602:
 951              	.LBE623:
 952              	.LBE626:
 953              	.LBE629:
  32:main.cpp      **** DATA_ FatFSInterface fsi;
 954              		.loc 16 32 20 view .LVU233
 955 003e 0E4C     		ldr	r4, .L20+12
  31:main.cpp      **** DATA_ SdmmcHandler sd;
 956              		.loc 16 31 16 view .LVU234
 957 0040 0E49     		ldr	r1, .L20+16
 958 0042 FFF7FEFF 		bl	__aeabi_atexit
 959              	.LVL36:
 960              	.LBB630:
 961              	.LBI630:
  77:../libDaisy/src/per/sdmmc.h ****     ~SdmmcHandler() {}
ARM GAS  /var/folders/2p/02m_5p7958535cp2tpgps0400000gn/T//cc82ymlO.s 			page 54


 962              		.loc 1 77 5 is_stmt 1 view .LVU235
  77:../libDaisy/src/per/sdmmc.h ****     ~SdmmcHandler() {}
 963              		.loc 1 77 5 is_stmt 0 view .LVU236
 964              	.LBE630:
  32:main.cpp      **** DATA_ FatFSInterface fsi;
 965              		.loc 16 32 20 view .LVU237
 966 0046 0B4A     		ldr	r2, .L20+8
 967 0048 0D49     		ldr	r1, .L20+20
 968 004a 2046     		mov	r0, r4
 969 004c FFF7FEFF 		bl	__aeabi_atexit
 970              	.LVL37:
 971              	.LBB631:
 972              	.LBI631:
  64:../libDaisy/src/sys/fatfs.h **** 
 973              		.loc 17 64 5 is_stmt 1 view .LVU238
  64:../libDaisy/src/sys/fatfs.h **** 
 974              		.loc 17 64 5 is_stmt 0 view .LVU239
 975              	.LBE631:
 976              	.LBB632:
 977              	.LBI632:
 978              		.file 23 "AudioFileManager.h"
   1:AudioFileManager.h **** #pragma once
   2:AudioFileManager.h **** #include <stdio.h>
   3:AudioFileManager.h **** #include <stdint.h>
   4:AudioFileManager.h **** #include "daisy_pod.h"
   5:AudioFileManager.h **** #include "constants_utils.h"
   6:AudioFileManager.h **** #include "debug_print.h"
   7:AudioFileManager.h **** #include "wavheader.h"
   8:AudioFileManager.h **** 
   9:AudioFileManager.h **** using namespace daisy; 
  10:AudioFileManager.h **** 
  11:AudioFileManager.h **** class AudioFileManager {
  12:AudioFileManager.h ****   public:
  13:AudioFileManager.h ****     // AudioFileManager(SdmmcHandler &sd, FatFSInterface &fsi, DaisyPod &pod, FIL *file)
  14:AudioFileManager.h ****     //   : sd_(sd), fsi_(fsi), pod_(pod), curr_file_(file){};
  15:AudioFileManager.h ****     AudioFileManager(): pod_(nullptr) {};
 979              		.loc 23 15 5 is_stmt 1 view .LVU240
 980              	.LBE632:
 981              	.LBB635:
 982              	.LBB636:
 983              	.LBB637:
 984              		.file 24 "GrannyChordApp.h"
   1:GrannyChordApp.h **** #pragma once 
   2:GrannyChordApp.h **** #include "daisy_pod.h"
   3:GrannyChordApp.h **** #include "AppState.h"
   4:GrannyChordApp.h **** #include "daisysp.h"
   5:GrannyChordApp.h **** #include "constants_utils.h"
   6:GrannyChordApp.h **** #include "GranularSynth.h"
   7:GrannyChordApp.h **** #include "AudioFileManager.h"
   8:GrannyChordApp.h **** #include "debug_print.h"
   9:GrannyChordApp.h **** #include "DaisySP-LGPL-FX/compressor.h"
  10:GrannyChordApp.h **** #include "zita-rev1/source/reverb.h"
  11:GrannyChordApp.h **** #include "DaisySP-LGPL-FX/moogladder.h"
  12:GrannyChordApp.h **** 
  13:GrannyChordApp.h **** 
  14:GrannyChordApp.h **** using namespace daisy;
  15:GrannyChordApp.h **** using namespace daisysp;
ARM GAS  /var/folders/2p/02m_5p7958535cp2tpgps0400000gn/T//cc82ymlO.s 			page 55


  16:GrannyChordApp.h **** 
  17:GrannyChordApp.h **** class GrannyChordApp {
  18:GrannyChordApp.h ****   public:
  19:GrannyChordApp.h ****   GrannyChordApp(): pod_(nullptr) { instance_ = this; }
 985              		.loc 24 19 47 is_stmt 0 view .LVU241
 986 0050 0C4B     		ldr	r3, .L20+24
 987 0052 04F59362 		add	r2, r4, #1176
 988              	.LBE637:
 989              	.LBE636:
 990              	.LBE635:
 991              	.LBB640:
 992              	.LBB633:
 993              	.LBB634:
 994              		.loc 23 15 37 view .LVU242
 995 0056 C4F88C54 		str	r5, [r4, #1164]
 996              	.LVL38:
 997              		.loc 23 15 37 view .LVU243
 998              	.LBE634:
 999              	.LBE633:
 1000              	.LBE640:
 1001              	.LBB641:
 1002              	.LBI641:
 1003              		.file 25 "GranularSynth.h"
   1:GranularSynth.h **** #pragma once
   2:GranularSynth.h **** 
   3:GranularSynth.h **** #include "Grain.h"
   4:GranularSynth.h **** #include "daisy_pod.h"
   5:GranularSynth.h **** // #include "stddef.h"
   6:GranularSynth.h **** #include "debug_print.h"
   7:GranularSynth.h **** #include <bitset>
   8:GranularSynth.h **** 
   9:GranularSynth.h **** class GranularSynth{
  10:GranularSynth.h ****   public:
  11:GranularSynth.h ****     GranularSynth(): pod_(nullptr) {}
 1004              		.loc 25 11 5 is_stmt 1 view .LVU244
 1005              	.LBB642:
 1006              	.LBB643:
 1007              		.loc 25 11 34 is_stmt 0 view .LVU245
 1008 005a C4F89454 		str	r5, [r4, #1172]
 1009              	.LVL39:
 1010              		.loc 25 11 34 view .LVU246
 1011              	.LBE643:
 1012              	.LBE642:
 1013              	.LBE641:
 1014              	.LBB644:
 1015              	.LBI635:
 1016              		.loc 24 19 3 is_stmt 1 view .LVU247
 1017              	.LBB639:
 1018              	.LBB638:
 1019              		.loc 24 19 33 is_stmt 0 view .LVU248
 1020 005e C4F89C54 		str	r5, [r4, #1180]
 1021 0062 A4F8AC54 		strh	r5, [r4, #1196]	@ movhi
 1022              		.loc 24 19 37 is_stmt 1 view .LVU249
 1023              		.loc 24 19 47 is_stmt 0 view .LVU250
 1024 0066 1A60     		str	r2, [r3]
 1025              	.LVL40:
 1026              		.loc 24 19 47 view .LVU251
ARM GAS  /var/folders/2p/02m_5p7958535cp2tpgps0400000gn/T//cc82ymlO.s 			page 56


 1027              	.LBE638:
 1028              	.LBE639:
 1029              	.LBE644:
 1030              	.LBE645:
 1031              	.LBE646:
 1032              		.loc 16 111 1 view .LVU252
 1033 0068 38BD     		pop	{r3, r4, r5, pc}
 1034              	.L21:
 1035 006a 00BF     		.align	2
 1036              	.L20:
 1037 006c 00000000 		.word	pod
 1038 0070 80707F0F 		.word	260010112
 1039 0074 00000000 		.word	__dso_handle
 1040 0078 00000000 		.word	.LANCHOR0
 1041 007c 00000000 		.word	_ZN5daisy8DaisyPodD1Ev
 1042 0080 00000000 		.word	_ZN5daisy12SdmmcHandlerD1Ev
 1043 0084 00000000 		.word	_ZN14GrannyChordApp9instance_E
 1044              		.cfi_endproc
 1045              	.LFE5534:
 1047              		.section	.init_array,"aw",%init_array
 1048              		.align	2
 1049 0000 00000000 		.word	_GLOBAL__sub_I_cpumeter(target1)
 1050              		.global	rng_state
 1051              		.global	file
 1052              		.global	fsi
 1053              		.global	sd
 1054              		.global	pod
 1055              		.global	right_buf
 1056              		.global	left_buf
 1057              		.global	cpumeter
 1058              		.section	.bss.cpumeter,"aw",%nobits
 1059              		.align	2
 1060              		.set	.LANCHOR1,. + 0
 1063              	cpumeter:
 1064 0000 00000000 		.space	28
 1064      00000000 
 1064      00000000 
 1064      00000000 
 1064      00000000 
 1065              		.section	.bss.rng_state,"aw",%nobits
 1066              		.align	2
 1069              	rng_state:
 1070 0000 00000000 		.space	4
 1071              		.section	.data,"aw"
 1072              		.align	2
 1073              		.set	.LANCHOR0,. + 0
 1076              	sd:
 1077 0000 00       		.space	1
 1078 0001 000000   		.space	3
 1081              	fsi:
 1082 0004 00000000 		.space	1152
 1082      00000000 
 1082      00000000 
 1082      00000000 
 1082      00000000 
 1085              	_ZL7filemgr:
 1086 0484 00000000 		.space	16
ARM GAS  /var/folders/2p/02m_5p7958535cp2tpgps0400000gn/T//cc82ymlO.s 			page 57


 1086      00000000 
 1086      00000000 
 1086      00000000 
 1089              	_ZL5synth:
 1090 0494 00000000 		.space	4
 1093              	_ZL3app:
 1094 0498 00000000 		.space	24
 1094      00000000 
 1094      00000000 
 1094      00000000 
 1094      00000000 
 1097              	file:
 1098 04b0 00000000 		.space	556
 1098      00000000 
 1098      00000000 
 1098      00000000 
 1098      00000000 
 1101              	pod:
 1102 06dc 00000000 		.space	37600
 1102      00000000 
 1102      00000000 
 1102      00000000 
 1102      00000000 
 1103              		.section	.sdram_bss,"aw"
 1104              		.align	4
 1107              	right_buf:
 1108 0000 00000000 		.space	16777216
 1108      00000000 
 1108      00000000 
 1108      00000000 
 1108      00000000 
 1111              	left_buf:
 1112 1000000 00000000 		.space	16777216
 1112      00000000 
 1112      00000000 
 1112      00000000 
 1112      00000000 
 1113              		.text
 1114              	.Letext0:
 1115              		.file 26 "/Library/DaisyToolchain/0.2.0/arm/arm-none-eabi/include/machine/_default_types.h"
 1116              		.file 27 "/Library/DaisyToolchain/0.2.0/arm/arm-none-eabi/include/sys/_stdint.h"
 1117              		.file 28 "/Library/DaisyToolchain/0.2.0/arm/arm-none-eabi/include/stdint.h"
 1118              		.file 29 "/Library/DaisyToolchain/0.2.0/arm/lib/gcc/arm-none-eabi/10.3.1/include/stddef.h"
 1119              		.file 30 "/Library/DaisyToolchain/0.2.0/arm/arm-none-eabi/include/c++/10.3.1/cmath"
 1120              		.file 31 "/Library/DaisyToolchain/0.2.0/arm/arm-none-eabi/include/c++/10.3.1/bits/std_abs.h"
 1121              		.file 32 "/Library/DaisyToolchain/0.2.0/arm/arm-none-eabi/include/c++/10.3.1/cstdint"
 1122              		.file 33 "/Library/DaisyToolchain/0.2.0/arm/arm-none-eabi/include/c++/10.3.1/cstdlib"
 1123              		.file 34 "/Library/DaisyToolchain/0.2.0/arm/arm-none-eabi/include/c++/10.3.1/arm-none-eabi/thumb/v
 1124              		.file 35 "/Library/DaisyToolchain/0.2.0/arm/arm-none-eabi/include/c++/10.3.1/type_traits"
 1125              		.file 36 "/Library/DaisyToolchain/0.2.0/arm/arm-none-eabi/include/c++/10.3.1/debug/debug.h"
 1126              		.file 37 "/Library/DaisyToolchain/0.2.0/arm/arm-none-eabi/include/c++/10.3.1/cwchar"
 1127              		.file 38 "/Library/DaisyToolchain/0.2.0/arm/arm-none-eabi/include/c++/10.3.1/bits/stl_pair.h"
 1128              		.file 39 "/Library/DaisyToolchain/0.2.0/arm/arm-none-eabi/include/c++/10.3.1/bits/exception_ptr.h"
 1129              		.file 40 "/Library/DaisyToolchain/0.2.0/arm/arm-none-eabi/include/c++/10.3.1/clocale"
 1130              		.file 41 "/Library/DaisyToolchain/0.2.0/arm/arm-none-eabi/include/c++/10.3.1/cstdio"
 1131              		.file 42 "/Library/DaisyToolchain/0.2.0/arm/arm-none-eabi/include/c++/10.3.1/bits/basic_string.h"
 1132              		.file 43 "/Library/DaisyToolchain/0.2.0/arm/arm-none-eabi/include/c++/10.3.1/bits/stl_iterator.h"
ARM GAS  /var/folders/2p/02m_5p7958535cp2tpgps0400000gn/T//cc82ymlO.s 			page 58


 1133              		.file 44 "/Library/DaisyToolchain/0.2.0/arm/arm-none-eabi/include/c++/10.3.1/bits/algorithmfwd.h"
 1134              		.file 45 "/Library/DaisyToolchain/0.2.0/arm/arm-none-eabi/include/c++/10.3.1/cstring"
 1135              		.file 46 "/Library/DaisyToolchain/0.2.0/arm/arm-none-eabi/include/c++/10.3.1/initializer_list"
 1136              		.file 47 "/Library/DaisyToolchain/0.2.0/arm/arm-none-eabi/include/c++/10.3.1/cstdarg"
 1137              		.file 48 "/Library/DaisyToolchain/0.2.0/arm/arm-none-eabi/include/c++/10.3.1/bits/predefined_ops.h
 1138              		.file 49 "/Library/DaisyToolchain/0.2.0/arm/arm-none-eabi/include/sys/_types.h"
 1139              		.file 50 "/Library/DaisyToolchain/0.2.0/arm/arm-none-eabi/include/sys/reent.h"
 1140              		.file 51 "/Library/DaisyToolchain/0.2.0/arm/arm-none-eabi/include/sys/lock.h"
 1141              		.file 52 "/Library/DaisyToolchain/0.2.0/arm/arm-none-eabi/include/math.h"
 1142              		.file 53 "/Library/DaisyToolchain/0.2.0/arm/arm-none-eabi/include/stdlib.h"
 1143              		.file 54 "/Library/DaisyToolchain/0.2.0/arm/arm-none-eabi/include/c++/10.3.1/math.h"
 1144              		.file 55 "/Library/DaisyToolchain/0.2.0/arm/lib/gcc/arm-none-eabi/10.3.1/include/stdarg.h"
 1145              		.file 56 "/Library/DaisyToolchain/0.2.0/arm/arm-none-eabi/include/stdio.h"
 1146              		.file 57 "../DaisySP/Source/Control/adenv.h"
 1147              		.file 58 "../DaisySP/Source/Utility/dsp.h"
 1148              		.file 59 "../DaisySP/Source/Filters/onepole.h"
 1149              		.file 60 "DaisySP-LGPL-FX/compressor.h"
 1150              		.file 61 "DaisySP-LGPL-FX/moogladder.h"
 1151              		.file 62 "/Library/DaisyToolchain/0.2.0/arm/arm-none-eabi/include/wchar.h"
 1152              		.file 63 "/Library/DaisyToolchain/0.2.0/arm/arm-none-eabi/include/time.h"
 1153              		.file 64 "/Library/DaisyToolchain/0.2.0/arm/arm-none-eabi/include/locale.h"
 1154              		.file 65 "/Library/DaisyToolchain/0.2.0/arm/arm-none-eabi/include/c++/10.3.1/stdlib.h"
 1155              		.file 66 "/Library/DaisyToolchain/0.2.0/arm/arm-none-eabi/include/string.h"
 1156              		.file 67 "../libDaisy/src/daisy_core.h"
 1157              		.file 68 "../libDaisy/src/per/tim.h"
 1158              		.file 69 "../libDaisy/src/hid/MidiEvent.h"
 1159              		.file 70 "../libDaisy/src/hid/logger_impl.h"
 1160              		.file 71 "../libDaisy/src/util/wav_format.h"
 1161              		.file 72 "../libDaisy/src/util/color.h"
 1162              		.file 73 "../libDaisy/src/dev/max11300.h"
 1163              		.file 74 "../libDaisy/src/hid/logger.h"
 1164              		.file 75 "../libDaisy/src/per/gpio.h"
 1165              		.file 76 "../libDaisy/src/dev/sdram.h"
 1166              		.file 77 "../libDaisy/Middlewares/Third_Party/FatFs/src/integer.h"
 1167              		.file 78 "../libDaisy/Middlewares/Third_Party/FatFs/src/ff.h"
 1168              		.file 79 "constants_utils.h"
 1169              		.file 80 "wavheader.h"
 1170              		.file 81 "GrainPhasor.h"
 1171              		.file 82 "Grain.h"
 1172              		.file 83 "AppState.h"
 1173              		.file 84 "zita-rev1/source/pareq.h"
 1174              		.file 85 "zita-rev1/source/reverb.h"
 1175              		.file 86 "../libDaisy/src/dev/sr_595.h"
 1176              		.file 87 "<built-in>"
ARM GAS  /var/folders/2p/02m_5p7958535cp2tpgps0400000gn/T//cc82ymlO.s 			page 59

