ARM GAS  /var/folders/2p/02m_5p7958535cp2tpgps0400000gn/T//ccejspVB.s 			page 1


   1              		.cpu cortex-m7
   2              		.arch armv7e-m
   3              		.fpu fpv5-d16
   4              		.eabi_attribute 28, 1
   5              		.eabi_attribute 20, 1
   6              		.eabi_attribute 21, 1
   7              		.eabi_attribute 23, 3
   8              		.eabi_attribute 24, 1
   9              		.eabi_attribute 25, 1
  10              		.eabi_attribute 26, 1
  11              		.eabi_attribute 30, 4
  12              		.eabi_attribute 34, 1
  13              		.eabi_attribute 18, 4
  14              		.file	"pareq.cpp"
  15              		.text
  16              	.Ltext0:
  17              		.cfi_sections	.debug_frame
  18              		.section	.text._ZN5PareqD2Ev,"ax",%progbits
  19              		.align	1
  20              		.global	_ZN5PareqD2Ev
  21              		.syntax unified
  22              		.thumb
  23              		.thumb_func
  25              	_ZN5PareqD2Ev:
  26              	.LVL0:
  27              	.LFB550:
  28              		.file 1 "zita-rev1/source/pareq.cpp"
   1:zita-rev1/source/pareq.cpp **** // ----------------------------------------------------------------------------
   2:zita-rev1/source/pareq.cpp **** //
   3:zita-rev1/source/pareq.cpp **** //  Copyright (C) 2009-2017 Fons Adriaensen <fons@linuxaudio.org>
   4:zita-rev1/source/pareq.cpp **** //    
   5:zita-rev1/source/pareq.cpp **** //  This program is free software; you can redistribute it and/or modify
   6:zita-rev1/source/pareq.cpp **** //  it under the terms of the GNU General Public License as published by
   7:zita-rev1/source/pareq.cpp **** //  the Free Software Foundation; either version 3 of the License, or
   8:zita-rev1/source/pareq.cpp **** //  (at your option) any later version.
   9:zita-rev1/source/pareq.cpp **** //
  10:zita-rev1/source/pareq.cpp **** //  This program is distributed in the hope that it will be useful,
  11:zita-rev1/source/pareq.cpp **** //  but WITHOUT ANY WARRANTY; without even the implied warranty of
  12:zita-rev1/source/pareq.cpp **** //  MERCHANTABILITY or FITNESS FOR A PARTICULAR PURPOSE.  See the
  13:zita-rev1/source/pareq.cpp **** //  GNU General Public License for more details.
  14:zita-rev1/source/pareq.cpp **** //
  15:zita-rev1/source/pareq.cpp **** //  You should have received a copy of the GNU General Public License
  16:zita-rev1/source/pareq.cpp **** //  along with this program.  If not, see <http://www.gnu.org/licenses/>.
  17:zita-rev1/source/pareq.cpp **** //
  18:zita-rev1/source/pareq.cpp **** // ----------------------------------------------------------------------------
  19:zita-rev1/source/pareq.cpp **** 
  20:zita-rev1/source/pareq.cpp **** 
  21:zita-rev1/source/pareq.cpp **** #include <math.h>
  22:zita-rev1/source/pareq.cpp **** #include <string.h>
  23:zita-rev1/source/pareq.cpp **** #include "pareq.h"
  24:zita-rev1/source/pareq.cpp **** 
  25:zita-rev1/source/pareq.cpp **** 
  26:zita-rev1/source/pareq.cpp **** Pareq::Pareq (void) :
  27:zita-rev1/source/pareq.cpp ****     _touch0 (0),
  28:zita-rev1/source/pareq.cpp ****     _touch1 (0),
  29:zita-rev1/source/pareq.cpp ****     _state (BYPASS),
  30:zita-rev1/source/pareq.cpp ****     _g0 (1),
ARM GAS  /var/folders/2p/02m_5p7958535cp2tpgps0400000gn/T//ccejspVB.s 			page 2


  31:zita-rev1/source/pareq.cpp ****     _g1 (1),
  32:zita-rev1/source/pareq.cpp ****     _f0 (1e3f),
  33:zita-rev1/source/pareq.cpp ****     _f1 (1e3f)
  34:zita-rev1/source/pareq.cpp **** {
  35:zita-rev1/source/pareq.cpp ****     setfsamp (0.0f);
  36:zita-rev1/source/pareq.cpp **** }
  37:zita-rev1/source/pareq.cpp **** 
  38:zita-rev1/source/pareq.cpp **** 
  39:zita-rev1/source/pareq.cpp **** Pareq::~Pareq (void)
  29              		.loc 1 39 1 view -0
  30              		.cfi_startproc
  31              		@ args = 0, pretend = 0, frame = 0
  32              		@ frame_needed = 0, uses_anonymous_args = 0
  33              		@ link register save eliminated.
  40:zita-rev1/source/pareq.cpp **** {
  41:zita-rev1/source/pareq.cpp **** }
  34              		.loc 1 41 1 is_stmt 0 view .LVU1
  35 0000 7047     		bx	lr
  36              		.cfi_endproc
  37              	.LFE550:
  39              		.global	_ZN5PareqD1Ev
  40              		.thumb_set _ZN5PareqD1Ev,_ZN5PareqD2Ev
  41              		.section	.text._ZN5Pareq5resetEv,"ax",%progbits
  42              		.align	1
  43              		.global	_ZN5Pareq5resetEv
  44              		.syntax unified
  45              		.thumb
  46              		.thumb_func
  48              	_ZN5Pareq5resetEv:
  49              	.LVL1:
  50              	.LFB553:
  42:zita-rev1/source/pareq.cpp **** 
  43:zita-rev1/source/pareq.cpp **** 
  44:zita-rev1/source/pareq.cpp **** void Pareq::setfsamp (float fsamp)
  45:zita-rev1/source/pareq.cpp **** {
  46:zita-rev1/source/pareq.cpp ****     _fsamp = fsamp;
  47:zita-rev1/source/pareq.cpp ****     reset ();
  48:zita-rev1/source/pareq.cpp **** }
  49:zita-rev1/source/pareq.cpp **** 
  50:zita-rev1/source/pareq.cpp **** 
  51:zita-rev1/source/pareq.cpp **** void Pareq::reset (void)
  52:zita-rev1/source/pareq.cpp **** {
  51              		.loc 1 52 1 is_stmt 1 view -0
  52              		.cfi_startproc
  53              		@ args = 0, pretend = 0, frame = 0
  54              		@ frame_needed = 0, uses_anonymous_args = 0
  53:zita-rev1/source/pareq.cpp ****     memset (_z1, 0, sizeof (float) * MAXCH); 
  55              		.loc 1 53 5 view .LVU3
  52:zita-rev1/source/pareq.cpp ****     memset (_z1, 0, sizeof (float) * MAXCH); 
  56              		.loc 1 52 1 is_stmt 0 view .LVU4
  57 0000 10B5     		push	{r4, lr}
  58              		.cfi_def_cfa_offset 8
  59              		.cfi_offset 4, -8
  60              		.cfi_offset 14, -4
  52:zita-rev1/source/pareq.cpp ****     memset (_z1, 0, sizeof (float) * MAXCH); 
  61              		.loc 1 52 1 view .LVU5
  62 0002 0446     		mov	r4, r0
ARM GAS  /var/folders/2p/02m_5p7958535cp2tpgps0400000gn/T//ccejspVB.s 			page 3


  63              		.loc 1 53 12 view .LVU6
  64 0004 1022     		movs	r2, #16
  65 0006 0021     		movs	r1, #0
  66 0008 3830     		adds	r0, r0, #56
  67              	.LVL2:
  68              		.loc 1 53 12 view .LVU7
  69 000a FFF7FEFF 		bl	memset
  70              	.LVL3:
  54:zita-rev1/source/pareq.cpp ****     memset (_z2, 0, sizeof (float) * MAXCH); 
  71              		.loc 1 54 5 is_stmt 1 view .LVU8
  72              		.loc 1 54 12 is_stmt 0 view .LVU9
  73 000e 04F14800 		add	r0, r4, #72
  74 0012 1022     		movs	r2, #16
  75 0014 0021     		movs	r1, #0
  55:zita-rev1/source/pareq.cpp **** }
  76              		.loc 1 55 1 view .LVU10
  77 0016 BDE81040 		pop	{r4, lr}
  78              		.cfi_restore 14
  79              		.cfi_restore 4
  80              		.cfi_def_cfa_offset 0
  81              	.LVL4:
  54:zita-rev1/source/pareq.cpp ****     memset (_z2, 0, sizeof (float) * MAXCH); 
  82              		.loc 1 54 12 view .LVU11
  83 001a FFF7FEBF 		b	memset
  84              	.LVL5:
  54:zita-rev1/source/pareq.cpp ****     memset (_z2, 0, sizeof (float) * MAXCH); 
  85              		.loc 1 54 12 view .LVU12
  86              		.cfi_endproc
  87              	.LFE553:
  89              		.section	.text._ZN5Pareq8setfsampEf,"ax",%progbits
  90              		.align	1
  91              		.global	_ZN5Pareq8setfsampEf
  92              		.syntax unified
  93              		.thumb
  94              		.thumb_func
  96              	_ZN5Pareq8setfsampEf:
  97              	.LVL6:
  98              	.LFB552:
  45:zita-rev1/source/pareq.cpp ****     _fsamp = fsamp;
  99              		.loc 1 45 1 is_stmt 1 view -0
 100              		.cfi_startproc
 101              		@ args = 0, pretend = 0, frame = 0
 102              		@ frame_needed = 0, uses_anonymous_args = 0
 103              		@ link register save eliminated.
  46:zita-rev1/source/pareq.cpp ****     reset ();
 104              		.loc 1 46 5 view .LVU14
  46:zita-rev1/source/pareq.cpp ****     reset ();
 105              		.loc 1 46 12 is_stmt 0 view .LVU15
 106 0000 80ED030A 		vstr.32	s0, [r0, #12]
  47:zita-rev1/source/pareq.cpp **** }
 107              		.loc 1 47 5 is_stmt 1 view .LVU16
  47:zita-rev1/source/pareq.cpp **** }
 108              		.loc 1 47 11 is_stmt 0 view .LVU17
 109 0004 FFF7FEBF 		b	_ZN5Pareq5resetEv
 110              	.LVL7:
  47:zita-rev1/source/pareq.cpp **** }
 111              		.loc 1 47 11 view .LVU18
ARM GAS  /var/folders/2p/02m_5p7958535cp2tpgps0400000gn/T//ccejspVB.s 			page 4


 112              		.cfi_endproc
 113              	.LFE552:
 115              		.section	.text._ZN5PareqC2Ev,"ax",%progbits
 116              		.align	1
 117              		.global	_ZN5PareqC2Ev
 118              		.syntax unified
 119              		.thumb
 120              		.thumb_func
 122              	_ZN5PareqC2Ev:
 123              	.LVL8:
 124              	.LFB547:
  26:zita-rev1/source/pareq.cpp ****     _touch0 (0),
 125              		.loc 1 26 1 is_stmt 1 view -0
 126              		.cfi_startproc
 127              		@ args = 0, pretend = 0, frame = 0
 128              		@ frame_needed = 0, uses_anonymous_args = 0
 129              	.LBB7:
  33:zita-rev1/source/pareq.cpp **** {
 130              		.loc 1 33 14 is_stmt 0 view .LVU20
 131 0000 0023     		movs	r3, #0
 132              	.LBE7:
  26:zita-rev1/source/pareq.cpp ****     _touch0 (0),
 133              		.loc 1 26 1 view .LVU21
 134 0002 10B5     		push	{r4, lr}
 135              		.cfi_def_cfa_offset 8
 136              		.cfi_offset 4, -8
 137              		.cfi_offset 14, -4
 138              	.LBB10:
  33:zita-rev1/source/pareq.cpp **** {
 139              		.loc 1 33 14 view .LVU22
 140 0004 0380     		strh	r3, [r0]	@ movhi
 141              	.LBE10:
  26:zita-rev1/source/pareq.cpp ****     _touch0 (0),
 142              		.loc 1 26 1 view .LVU23
 143 0006 0446     		mov	r4, r0
 144              	.LBB11:
  33:zita-rev1/source/pareq.cpp **** {
 145              		.loc 1 33 14 view .LVU24
 146 0008 4380     		strh	r3, [r0, #2]	@ movhi
 147 000a 8360     		str	r3, [r0, #8]
 148 000c 4FF07E53 		mov	r3, #1065353216
 149 0010 0361     		str	r3, [r0, #16]	@ float
 150 0012 4361     		str	r3, [r0, #20]	@ float
 151 0014 044B     		ldr	r3, .L5
 152 0016 8361     		str	r3, [r0, #24]	@ float
 153 0018 C361     		str	r3, [r0, #28]	@ float
  35:zita-rev1/source/pareq.cpp **** }
 154              		.loc 1 35 5 is_stmt 1 view .LVU25
 155              	.LVL9:
 156              	.LBB8:
 157              	.LBI8:
  44:zita-rev1/source/pareq.cpp **** {
 158              		.loc 1 44 6 view .LVU26
 159              	.LBB9:
  46:zita-rev1/source/pareq.cpp ****     reset ();
 160              		.loc 1 46 5 view .LVU27
  46:zita-rev1/source/pareq.cpp ****     reset ();
ARM GAS  /var/folders/2p/02m_5p7958535cp2tpgps0400000gn/T//ccejspVB.s 			page 5


 161              		.loc 1 46 12 is_stmt 0 view .LVU28
 162 001a 0023     		movs	r3, #0
 163 001c C360     		str	r3, [r0, #12]	@ float
  47:zita-rev1/source/pareq.cpp **** }
 164              		.loc 1 47 5 is_stmt 1 view .LVU29
  47:zita-rev1/source/pareq.cpp **** }
 165              		.loc 1 47 11 is_stmt 0 view .LVU30
 166 001e FFF7FEFF 		bl	_ZN5Pareq5resetEv
 167              	.LVL10:
  47:zita-rev1/source/pareq.cpp **** }
 168              		.loc 1 47 11 view .LVU31
 169              	.LBE9:
 170              	.LBE8:
 171              	.LBE11:
  36:zita-rev1/source/pareq.cpp **** 
 172              		.loc 1 36 1 view .LVU32
 173 0022 2046     		mov	r0, r4
 174 0024 10BD     		pop	{r4, pc}
 175              	.LVL11:
 176              	.L6:
  36:zita-rev1/source/pareq.cpp **** 
 177              		.loc 1 36 1 view .LVU33
 178 0026 00BF     		.align	2
 179              	.L5:
 180 0028 00007A44 		.word	1148846080
 181              		.cfi_endproc
 182              	.LFE547:
 184              		.global	_ZN5PareqC1Ev
 185              		.thumb_set _ZN5PareqC1Ev,_ZN5PareqC2Ev
 186              		.section	.text._ZN5Pareq8calcpar1Eiff,"ax",%progbits
 187              		.align	1
 188              		.global	_ZN5Pareq8calcpar1Eiff
 189              		.syntax unified
 190              		.thumb
 191              		.thumb_func
 193              	_ZN5Pareq8calcpar1Eiff:
 194              	.LVL12:
 195              	.LFB555:
  56:zita-rev1/source/pareq.cpp **** 
  57:zita-rev1/source/pareq.cpp **** 
  58:zita-rev1/source/pareq.cpp **** void Pareq::prepare (int nsamp)
  59:zita-rev1/source/pareq.cpp **** {
  60:zita-rev1/source/pareq.cpp ****     bool  upd = false;
  61:zita-rev1/source/pareq.cpp ****     float g, f;
  62:zita-rev1/source/pareq.cpp **** 
  63:zita-rev1/source/pareq.cpp ****     if (_touch1 != _touch0)
  64:zita-rev1/source/pareq.cpp ****     {
  65:zita-rev1/source/pareq.cpp **** 	g = _g0;
  66:zita-rev1/source/pareq.cpp **** 	f = _f0;
  67:zita-rev1/source/pareq.cpp ****         if (g != _g1)
  68:zita-rev1/source/pareq.cpp **** 	{
  69:zita-rev1/source/pareq.cpp **** 	    upd = true;
  70:zita-rev1/source/pareq.cpp ****  	    if      (g > 2 * _g1) _g1 *= 2;
  71:zita-rev1/source/pareq.cpp **** 	    else if (_g1 > 2 * g) _g1 /= 2;
  72:zita-rev1/source/pareq.cpp **** 	    else                  _g1 = g;
  73:zita-rev1/source/pareq.cpp **** 	}
  74:zita-rev1/source/pareq.cpp ****         if (f != _f1)
ARM GAS  /var/folders/2p/02m_5p7958535cp2tpgps0400000gn/T//ccejspVB.s 			page 6


  75:zita-rev1/source/pareq.cpp **** 	{
  76:zita-rev1/source/pareq.cpp **** 	    upd = true;
  77:zita-rev1/source/pareq.cpp ****  	    if      (f > 2 * _f1) _f1 *= 2;
  78:zita-rev1/source/pareq.cpp **** 	    else if (_f1 > 2 * f) _f1 /= 2;
  79:zita-rev1/source/pareq.cpp **** 	    else                  _f1 = f;
  80:zita-rev1/source/pareq.cpp **** 	}
  81:zita-rev1/source/pareq.cpp **** 	if (upd) 
  82:zita-rev1/source/pareq.cpp **** 	{
  83:zita-rev1/source/pareq.cpp **** 	    if ((_state == BYPASS) && (_g1 == 1))
  84:zita-rev1/source/pareq.cpp **** 	    {
  85:zita-rev1/source/pareq.cpp **** 		calcpar1 (0, _g1, _f1);
  86:zita-rev1/source/pareq.cpp **** 	    }
  87:zita-rev1/source/pareq.cpp **** 	    else
  88:zita-rev1/source/pareq.cpp **** 	    {
  89:zita-rev1/source/pareq.cpp **** 		_state = SMOOTH;
  90:zita-rev1/source/pareq.cpp **** 		calcpar1 (nsamp, _g1, _f1);
  91:zita-rev1/source/pareq.cpp **** 	    }
  92:zita-rev1/source/pareq.cpp **** 	}
  93:zita-rev1/source/pareq.cpp **** 	else
  94:zita-rev1/source/pareq.cpp **** 	{
  95:zita-rev1/source/pareq.cpp **** 	    _touch1 = _touch0;
  96:zita-rev1/source/pareq.cpp ****             if (fabs (_g1 - 1) < 0.001f)
  97:zita-rev1/source/pareq.cpp ****             {
  98:zita-rev1/source/pareq.cpp **** 	        _state = BYPASS;
  99:zita-rev1/source/pareq.cpp **** 	        reset ();
 100:zita-rev1/source/pareq.cpp **** 	    }
 101:zita-rev1/source/pareq.cpp ****   	    else    
 102:zita-rev1/source/pareq.cpp **** 	    {
 103:zita-rev1/source/pareq.cpp **** 	        _state = STATIC;
 104:zita-rev1/source/pareq.cpp **** 	    }
 105:zita-rev1/source/pareq.cpp **** 	}
 106:zita-rev1/source/pareq.cpp ****     }
 107:zita-rev1/source/pareq.cpp **** }
 108:zita-rev1/source/pareq.cpp **** 
 109:zita-rev1/source/pareq.cpp **** 
 110:zita-rev1/source/pareq.cpp **** void Pareq::calcpar1 (int nsamp, float g, float f)
 111:zita-rev1/source/pareq.cpp **** {
 196              		.loc 1 111 1 is_stmt 1 view -0
 197              		.cfi_startproc
 198              		@ args = 0, pretend = 0, frame = 0
 199              		@ frame_needed = 0, uses_anonymous_args = 0
 112:zita-rev1/source/pareq.cpp ****     float b, c1, c2, gg;
 200              		.loc 1 112 5 view .LVU35
 113:zita-rev1/source/pareq.cpp **** 
 114:zita-rev1/source/pareq.cpp ****     f *= float (M_PI) / _fsamp;
 201              		.loc 1 114 5 view .LVU36
 115:zita-rev1/source/pareq.cpp ****     b = 2 * f / sqrtf (g);         
 202              		.loc 1 115 5 view .LVU37
 114:zita-rev1/source/pareq.cpp ****     b = 2 * f / sqrtf (g);         
 203              		.loc 1 114 23 is_stmt 0 view .LVU38
 204 0000 90ED037A 		vldr.32	s14, [r0, #12]
 205 0004 DFED2A6A 		vldr.32	s13, .L10
 206 0008 C6EE877A 		vdiv.f32	s15, s13, s14
 111:zita-rev1/source/pareq.cpp ****     float b, c1, c2, gg;
 207              		.loc 1 111 1 view .LVU39
 208 000c 38B5     		push	{r3, r4, r5, lr}
 209              		.cfi_def_cfa_offset 16
ARM GAS  /var/folders/2p/02m_5p7958535cp2tpgps0400000gn/T//ccejspVB.s 			page 7


 210              		.cfi_offset 3, -16
 211              		.cfi_offset 4, -12
 212              		.cfi_offset 5, -8
 213              		.cfi_offset 14, -4
 214 000e 2DED048B 		vpush.64	{d8, d9}
 215              		.cfi_def_cfa_offset 32
 216              		.cfi_offset 80, -32
 217              		.cfi_offset 81, -28
 218              		.cfi_offset 82, -24
 219              		.cfi_offset 83, -20
 111:zita-rev1/source/pareq.cpp ****     float b, c1, c2, gg;
 220              		.loc 1 111 1 view .LVU40
 221 0012 0446     		mov	r4, r0
 222 0014 B0EE408A 		vmov.f32	s16, s0
 223 0018 0D46     		mov	r5, r1
 116:zita-rev1/source/pareq.cpp ****     gg = 0.5f * (g - 1);
 224              		.loc 1 116 20 view .LVU41
 225 001a F7EE009A 		vmov.f32	s19, #1.0e+0
 114:zita-rev1/source/pareq.cpp ****     b = 2 * f / sqrtf (g);         
 226              		.loc 1 114 7 view .LVU42
 227 001e 67EEA00A 		vmul.f32	s1, s15, s1
 228              	.LVL13:
 115:zita-rev1/source/pareq.cpp ****     gg = 0.5f * (g - 1);
 229              		.loc 1 115 11 view .LVU43
 230 0022 70EEA08A 		vadd.f32	s17, s1, s1
 115:zita-rev1/source/pareq.cpp ****     gg = 0.5f * (g - 1);
 231              		.loc 1 115 23 view .LVU44
 232 0026 FFF7FEFF 		bl	sqrtf
 233              	.LVL14:
 234              		.loc 1 116 20 view .LVU45
 235 002a 38EE698A 		vsub.f32	s16, s16, s19
 236              	.LVL15:
 115:zita-rev1/source/pareq.cpp ****     gg = 0.5f * (g - 1);
 237              		.loc 1 115 7 view .LVU46
 238 002e 88EE809A 		vdiv.f32	s18, s17, s0
 239              	.LVL16:
 240              		.loc 1 116 5 is_stmt 1 view .LVU47
 241              		.loc 1 116 8 is_stmt 0 view .LVU48
 242 0032 B6EE000A 		vmov.f32	s0, #5.0e-1
 243 0036 28EE008A 		vmul.f32	s16, s16, s0
 244              	.LVL17:
 117:zita-rev1/source/pareq.cpp ****     c1 = -cosf (2 * f);
 245              		.loc 1 117 5 is_stmt 1 view .LVU49
 246              		.loc 1 117 16 is_stmt 0 view .LVU50
 247 003a B0EE680A 		vmov.f32	s0, s17
 248 003e FFF7FEFF 		bl	cosf
 249              	.LVL18:
 250              		.loc 1 117 8 view .LVU51
 251 0042 B1EE400A 		vneg.f32	s0, s0
 252              	.LVL19:
 118:zita-rev1/source/pareq.cpp ****     c2 = (1 - b) / (1 + b);
 253              		.loc 1 118 5 is_stmt 1 view .LVU52
 254              		.loc 1 118 13 is_stmt 0 view .LVU53
 255 0046 79EEC97A 		vsub.f32	s15, s19, s18
 256              		.loc 1 118 23 view .LVU54
 257 004a 39EE299A 		vadd.f32	s18, s18, s19
 258              	.LVL20:
ARM GAS  /var/folders/2p/02m_5p7958535cp2tpgps0400000gn/T//ccejspVB.s 			page 8


 259              		.loc 1 118 8 view .LVU55
 260 004e 87EE897A 		vdiv.f32	s14, s15, s18
 261              	.LVL21:
 119:zita-rev1/source/pareq.cpp ****     if (nsamp)
 262              		.loc 1 119 5 is_stmt 1 view .LVU56
 263 0052 35B3     		cbz	r5, .L8
 120:zita-rev1/source/pareq.cpp ****     {
 121:zita-rev1/source/pareq.cpp **** 	_dc1 = (c1 - _c1) / nsamp + 1e-30f;
 264              		.loc 1 121 2 view .LVU57
 265              		.loc 1 121 13 is_stmt 0 view .LVU58
 266 0054 D4ED086A 		vldr.32	s13, [r4, #32]
 267              		.loc 1 121 20 view .LVU59
 268 0058 07EE905A 		vmov	s15, r5	@ int
 269              		.loc 1 121 13 view .LVU60
 270 005c 30EE660A 		vsub.f32	s0, s0, s13
 271              	.LVL22:
 272              		.loc 1 121 28 view .LVU61
 273 0060 DFED146A 		vldr.32	s13, .L10+4
 274              		.loc 1 121 20 view .LVU62
 275 0064 F8EEE77A 		vcvt.f32.s32	s15, s15
 276 0068 80EE276A 		vdiv.f32	s12, s0, s15
 277              		.loc 1 121 28 view .LVU63
 278 006c 36EE266A 		vadd.f32	s12, s12, s13
 279              		.loc 1 121 7 view .LVU64
 280 0070 84ED096A 		vstr.32	s12, [r4, #36]
 122:zita-rev1/source/pareq.cpp **** 	_dc2 = (c2 - _c2) / nsamp + 1e-30f;
 281              		.loc 1 122 2 is_stmt 1 view .LVU65
 282              		.loc 1 122 13 is_stmt 0 view .LVU66
 283 0074 94ED0A6A 		vldr.32	s12, [r4, #40]
 284 0078 37EE467A 		vsub.f32	s14, s14, s12
 285              	.LVL23:
 286              		.loc 1 122 20 view .LVU67
 287 007c 87EE276A 		vdiv.f32	s12, s14, s15
 288              		.loc 1 122 28 view .LVU68
 289 0080 36EE267A 		vadd.f32	s14, s12, s13
 290              		.loc 1 122 7 view .LVU69
 291 0084 84ED0B7A 		vstr.32	s14, [r4, #44]
 123:zita-rev1/source/pareq.cpp **** 	_dgg = (gg - _gg) / nsamp + 1e-30f;
 292              		.loc 1 123 2 is_stmt 1 view .LVU70
 293              		.loc 1 123 13 is_stmt 0 view .LVU71
 294 0088 94ED0C7A 		vldr.32	s14, [r4, #48]
 295 008c 38EE478A 		vsub.f32	s16, s16, s14
 296              	.LVL24:
 297              		.loc 1 123 20 view .LVU72
 298 0090 88EE277A 		vdiv.f32	s14, s16, s15
 299              		.loc 1 123 28 view .LVU73
 300 0094 77EE267A 		vadd.f32	s15, s14, s13
 301              		.loc 1 123 7 view .LVU74
 302 0098 C4ED0D7A 		vstr.32	s15, [r4, #52]
 303              	.L7:
 124:zita-rev1/source/pareq.cpp ****     }
 125:zita-rev1/source/pareq.cpp ****     else
 126:zita-rev1/source/pareq.cpp ****     {
 127:zita-rev1/source/pareq.cpp **** 	_c1 = c1;
 128:zita-rev1/source/pareq.cpp **** 	_c2 = c2;
 129:zita-rev1/source/pareq.cpp **** 	_gg = gg;
 130:zita-rev1/source/pareq.cpp ****     }
ARM GAS  /var/folders/2p/02m_5p7958535cp2tpgps0400000gn/T//ccejspVB.s 			page 9


 131:zita-rev1/source/pareq.cpp **** }
 304              		.loc 1 131 1 view .LVU75
 305 009c BDEC048B 		vldm	sp!, {d8-d9}
 306              		.cfi_remember_state
 307              		.cfi_restore 82
 308              		.cfi_restore 83
 309              		.cfi_restore 80
 310              		.cfi_restore 81
 311              		.cfi_def_cfa_offset 16
 312 00a0 38BD     		pop	{r3, r4, r5, pc}
 313              	.LVL25:
 314              	.L8:
 315              		.cfi_restore_state
 127:zita-rev1/source/pareq.cpp **** 	_c2 = c2;
 316              		.loc 1 127 2 is_stmt 1 view .LVU76
 127:zita-rev1/source/pareq.cpp **** 	_c2 = c2;
 317              		.loc 1 127 6 is_stmt 0 view .LVU77
 318 00a2 84ED080A 		vstr.32	s0, [r4, #32]
 128:zita-rev1/source/pareq.cpp **** 	_gg = gg;
 319              		.loc 1 128 2 is_stmt 1 view .LVU78
 128:zita-rev1/source/pareq.cpp **** 	_gg = gg;
 320              		.loc 1 128 6 is_stmt 0 view .LVU79
 321 00a6 84ED0A7A 		vstr.32	s14, [r4, #40]
 129:zita-rev1/source/pareq.cpp ****     }
 322              		.loc 1 129 2 is_stmt 1 view .LVU80
 129:zita-rev1/source/pareq.cpp ****     }
 323              		.loc 1 129 6 is_stmt 0 view .LVU81
 324 00aa 84ED0C8A 		vstr.32	s16, [r4, #48]
 325              		.loc 1 131 1 view .LVU82
 326 00ae F5E7     		b	.L7
 327              	.L11:
 328              		.align	2
 329              	.L10:
 330 00b0 DB0F4940 		.word	1078530011
 331 00b4 6042A20D 		.word	228737632
 332              		.cfi_endproc
 333              	.LFE555:
 335              		.section	.text._ZN5Pareq7prepareEi,"ax",%progbits
 336              		.align	1
 337              		.global	_ZN5Pareq7prepareEi
 338              		.syntax unified
 339              		.thumb
 340              		.thumb_func
 342              	_ZN5Pareq7prepareEi:
 343              	.LVL26:
 344              	.LFB554:
  59:zita-rev1/source/pareq.cpp ****     bool  upd = false;
 345              		.loc 1 59 1 is_stmt 1 view -0
 346              		.cfi_startproc
 347              		@ args = 0, pretend = 0, frame = 0
 348              		@ frame_needed = 0, uses_anonymous_args = 0
 349              		@ link register save eliminated.
  60:zita-rev1/source/pareq.cpp ****     float g, f;
 350              		.loc 1 60 5 view .LVU84
  61:zita-rev1/source/pareq.cpp **** 
 351              		.loc 1 61 5 view .LVU85
  63:zita-rev1/source/pareq.cpp ****     {
ARM GAS  /var/folders/2p/02m_5p7958535cp2tpgps0400000gn/T//ccejspVB.s 			page 10


 352              		.loc 1 63 5 view .LVU86
  63:zita-rev1/source/pareq.cpp ****     {
 353              		.loc 1 63 9 is_stmt 0 view .LVU87
 354 0000 4288     		ldrh	r2, [r0, #2]
  63:zita-rev1/source/pareq.cpp ****     {
 355              		.loc 1 63 20 view .LVU88
 356 0002 0388     		ldrh	r3, [r0]
  63:zita-rev1/source/pareq.cpp ****     {
 357              		.loc 1 63 9 view .LVU89
 358 0004 12B2     		sxth	r2, r2
  63:zita-rev1/source/pareq.cpp ****     {
 359              		.loc 1 63 20 view .LVU90
 360 0006 1BB2     		sxth	r3, r3
  63:zita-rev1/source/pareq.cpp ****     {
 361              		.loc 1 63 5 view .LVU91
 362 0008 9A42     		cmp	r2, r3
 363 000a 73D0     		beq	.L12
  65:zita-rev1/source/pareq.cpp **** 	f = _f0;
 364              		.loc 1 65 2 is_stmt 1 view .LVU92
  65:zita-rev1/source/pareq.cpp **** 	f = _f0;
 365              		.loc 1 65 4 is_stmt 0 view .LVU93
 366 000c 90ED047A 		vldr.32	s14, [r0, #16]
 367              	.LVL27:
  66:zita-rev1/source/pareq.cpp ****         if (g != _g1)
 368              		.loc 1 66 2 is_stmt 1 view .LVU94
  67:zita-rev1/source/pareq.cpp **** 	{
 369              		.loc 1 67 18 is_stmt 0 view .LVU95
 370 0010 D0ED057A 		vldr.32	s15, [r0, #20]
  66:zita-rev1/source/pareq.cpp ****         if (g != _g1)
 371              		.loc 1 66 4 view .LVU96
 372 0014 D0ED066A 		vldr.32	s13, [r0, #24]
 373              	.LVL28:
  67:zita-rev1/source/pareq.cpp **** 	{
 374              		.loc 1 67 9 is_stmt 1 view .LVU97
 375 0018 F4EE477A 		vcmp.f32	s15, s14
 376 001c F1EE10FA 		vmrs	APSR_nzcv, FPSCR
 377 0020 3BD0     		beq	.L29
  69:zita-rev1/source/pareq.cpp ****  	    if      (g > 2 * _g1) _g1 *= 2;
 378              		.loc 1 69 6 view .LVU98
 379              	.LVL29:
  70:zita-rev1/source/pareq.cpp **** 	    else if (_g1 > 2 * g) _g1 /= 2;
 380              		.loc 1 70 7 view .LVU99
  70:zita-rev1/source/pareq.cpp **** 	    else if (_g1 > 2 * g) _g1 /= 2;
 381              		.loc 1 70 22 is_stmt 0 view .LVU100
 382 0022 37EEA76A 		vadd.f32	s12, s15, s15
  70:zita-rev1/source/pareq.cpp **** 	    else if (_g1 > 2 * g) _g1 /= 2;
 383              		.loc 1 70 7 view .LVU101
 384 0026 B4EEC76A 		vcmpe.f32	s12, s14
 385 002a F1EE10FA 		vmrs	APSR_nzcv, FPSCR
 386 002e 23D5     		bpl	.L35
  70:zita-rev1/source/pareq.cpp **** 	    else if (_g1 > 2 * g) _g1 /= 2;
 387              		.loc 1 70 29 is_stmt 1 discriminator 1 view .LVU102
  70:zita-rev1/source/pareq.cpp **** 	    else if (_g1 > 2 * g) _g1 /= 2;
 388              		.loc 1 70 33 is_stmt 0 discriminator 1 view .LVU103
 389 0030 80ED056A 		vstr.32	s12, [r0, #20]
 390              	.LVL30:
 391              	.L40:
ARM GAS  /var/folders/2p/02m_5p7958535cp2tpgps0400000gn/T//ccejspVB.s 			page 11


  69:zita-rev1/source/pareq.cpp ****  	    if      (g > 2 * _g1) _g1 *= 2;
 392              		.loc 1 69 10 discriminator 1 view .LVU104
 393 0034 0123     		movs	r3, #1
 394              	.LVL31:
 395              	.L14:
  74:zita-rev1/source/pareq.cpp **** 	{
 396              		.loc 1 74 9 is_stmt 1 view .LVU105
  74:zita-rev1/source/pareq.cpp **** 	{
 397              		.loc 1 74 18 is_stmt 0 view .LVU106
 398 0036 90ED077A 		vldr.32	s14, [r0, #28]
  96:zita-rev1/source/pareq.cpp ****             {
 399              		.loc 1 96 23 view .LVU107
 400 003a D0ED057A 		vldr.32	s15, [r0, #20]
  74:zita-rev1/source/pareq.cpp **** 	{
 401              		.loc 1 74 9 view .LVU108
 402 003e B4EE667A 		vcmp.f32	s14, s13
 403 0042 F1EE10FA 		vmrs	APSR_nzcv, FPSCR
 404 0046 3AD0     		beq	.L19
  76:zita-rev1/source/pareq.cpp ****  	    if      (f > 2 * _f1) _f1 *= 2;
 405              		.loc 1 76 6 is_stmt 1 view .LVU109
 406              	.LVL32:
  77:zita-rev1/source/pareq.cpp **** 	    else if (_f1 > 2 * f) _f1 /= 2;
 407              		.loc 1 77 7 view .LVU110
  77:zita-rev1/source/pareq.cpp **** 	    else if (_f1 > 2 * f) _f1 /= 2;
 408              		.loc 1 77 22 is_stmt 0 view .LVU111
 409 0048 37EE076A 		vadd.f32	s12, s14, s14
  77:zita-rev1/source/pareq.cpp **** 	    else if (_f1 > 2 * f) _f1 /= 2;
 410              		.loc 1 77 7 view .LVU112
 411 004c B4EEE66A 		vcmpe.f32	s12, s13
 412 0050 F1EE10FA 		vmrs	APSR_nzcv, FPSCR
 413 0054 23D5     		bpl	.L37
  77:zita-rev1/source/pareq.cpp **** 	    else if (_f1 > 2 * f) _f1 /= 2;
 414              		.loc 1 77 29 is_stmt 1 discriminator 1 view .LVU113
  77:zita-rev1/source/pareq.cpp **** 	    else if (_f1 > 2 * f) _f1 /= 2;
 415              		.loc 1 77 33 is_stmt 0 discriminator 1 view .LVU114
 416 0056 80ED076A 		vstr.32	s12, [r0, #28]
  81:zita-rev1/source/pareq.cpp **** 	{
 417              		.loc 1 81 2 is_stmt 1 discriminator 1 view .LVU115
 418              	.LVL33:
 419              	.L22:
  83:zita-rev1/source/pareq.cpp **** 	    {
 420              		.loc 1 83 6 view .LVU116
 421 005a 8368     		ldr	r3, [r0, #8]
  85:zita-rev1/source/pareq.cpp **** 	    }
 422              		.loc 1 85 12 is_stmt 0 view .LVU117
 423 005c D0ED070A 		vldr.32	s1, [r0, #28]
  83:zita-rev1/source/pareq.cpp **** 	    {
 424              		.loc 1 83 6 view .LVU118
 425 0060 002B     		cmp	r3, #0
 426 0062 40D1     		bne	.L26
  83:zita-rev1/source/pareq.cpp **** 	    {
 427              		.loc 1 83 29 discriminator 1 view .LVU119
 428 0064 B7EE000A 		vmov.f32	s0, #1.0e+0
 429 0068 F4EE407A 		vcmp.f32	s15, s0
 430 006c F1EE10FA 		vmrs	APSR_nzcv, FPSCR
 431 0070 39D1     		bne	.L26
  85:zita-rev1/source/pareq.cpp **** 	    }
ARM GAS  /var/folders/2p/02m_5p7958535cp2tpgps0400000gn/T//ccejspVB.s 			page 12


 432              		.loc 1 85 3 is_stmt 1 view .LVU120
  85:zita-rev1/source/pareq.cpp **** 	    }
 433              		.loc 1 85 12 is_stmt 0 view .LVU121
 434 0072 1946     		mov	r1, r3
 435              	.LVL34:
 436              	.L41:
  90:zita-rev1/source/pareq.cpp **** 	    }
 437              		.loc 1 90 12 view .LVU122
 438 0074 FFF7FEBF 		b	_ZN5Pareq8calcpar1Eiff
 439              	.LVL35:
 440              	.L35:
  71:zita-rev1/source/pareq.cpp **** 	    else                  _g1 = g;
 441              		.loc 1 71 11 is_stmt 1 view .LVU123
  71:zita-rev1/source/pareq.cpp **** 	    else                  _g1 = g;
 442              		.loc 1 71 23 is_stmt 0 view .LVU124
 443 0078 37EE076A 		vadd.f32	s12, s14, s14
  71:zita-rev1/source/pareq.cpp **** 	    else                  _g1 = g;
 444              		.loc 1 71 11 view .LVU125
 445 007c F4EEC67A 		vcmpe.f32	s15, s12
 446 0080 F1EE10FA 		vmrs	APSR_nzcv, FPSCR
 447 0084 06DD     		ble	.L36
  71:zita-rev1/source/pareq.cpp **** 	    else                  _g1 = g;
 448              		.loc 1 71 28 is_stmt 1 discriminator 1 view .LVU126
  71:zita-rev1/source/pareq.cpp **** 	    else                  _g1 = g;
 449              		.loc 1 71 32 is_stmt 0 discriminator 1 view .LVU127
 450 0086 B6EE007A 		vmov.f32	s14, #5.0e-1
 451              	.LVL36:
  71:zita-rev1/source/pareq.cpp **** 	    else                  _g1 = g;
 452              		.loc 1 71 32 discriminator 1 view .LVU128
 453 008a 67EE877A 		vmul.f32	s15, s15, s14
 454 008e C0ED057A 		vstr.32	s15, [r0, #20]
 455 0092 CFE7     		b	.L40
 456              	.LVL37:
 457              	.L36:
  72:zita-rev1/source/pareq.cpp **** 	}
 458              		.loc 1 72 28 is_stmt 1 view .LVU129
  72:zita-rev1/source/pareq.cpp **** 	}
 459              		.loc 1 72 32 is_stmt 0 view .LVU130
 460 0094 80ED057A 		vstr.32	s14, [r0, #20]
 461 0098 CCE7     		b	.L40
 462              	.LVL38:
 463              	.L29:
  60:zita-rev1/source/pareq.cpp ****     float g, f;
 464              		.loc 1 60 11 view .LVU131
 465 009a 0023     		movs	r3, #0
 466 009c CBE7     		b	.L14
 467              	.LVL39:
 468              	.L37:
  78:zita-rev1/source/pareq.cpp **** 	    else                  _f1 = f;
 469              		.loc 1 78 11 is_stmt 1 view .LVU132
  78:zita-rev1/source/pareq.cpp **** 	    else                  _f1 = f;
 470              		.loc 1 78 23 is_stmt 0 view .LVU133
 471 009e 36EEA66A 		vadd.f32	s12, s13, s13
  78:zita-rev1/source/pareq.cpp **** 	    else                  _f1 = f;
 472              		.loc 1 78 11 view .LVU134
 473 00a2 B4EEC67A 		vcmpe.f32	s14, s12
 474 00a6 F1EE10FA 		vmrs	APSR_nzcv, FPSCR
ARM GAS  /var/folders/2p/02m_5p7958535cp2tpgps0400000gn/T//ccejspVB.s 			page 13


  78:zita-rev1/source/pareq.cpp **** 	    else                  _f1 = f;
 475              		.loc 1 78 28 is_stmt 1 view .LVU135
  78:zita-rev1/source/pareq.cpp **** 	    else                  _f1 = f;
 476              		.loc 1 78 32 is_stmt 0 view .LVU136
 477 00aa C9BF     		itett	gt
 478 00ac F6EE006A 		vmovgt.f32	s13, #5.0e-1
 479              	.LVL40:
  79:zita-rev1/source/pareq.cpp **** 	}
 480              		.loc 1 79 32 view .LVU137
 481 00b0 C0ED076A 		vstrle.32	s13, [r0, #28]
  78:zita-rev1/source/pareq.cpp **** 	    else                  _f1 = f;
 482              		.loc 1 78 32 view .LVU138
 483 00b4 27EE267A 		vmulgt.f32	s14, s14, s13
 484 00b8 80ED077A 		vstrgt.32	s14, [r0, #28]
  81:zita-rev1/source/pareq.cpp **** 	{
 485              		.loc 1 81 2 is_stmt 1 view .LVU139
  79:zita-rev1/source/pareq.cpp **** 	}
 486              		.loc 1 79 28 view .LVU140
  81:zita-rev1/source/pareq.cpp **** 	{
 487              		.loc 1 81 2 view .LVU141
 488 00bc CDE7     		b	.L22
 489              	.LVL41:
 490              	.L19:
  81:zita-rev1/source/pareq.cpp **** 	{
 491              		.loc 1 81 2 view .LVU142
 492 00be 002B     		cmp	r3, #0
 493 00c0 CBD1     		bne	.L22
 494              	.LVL42:
  95:zita-rev1/source/pareq.cpp ****             if (fabs (_g1 - 1) < 0.001f)
 495              		.loc 1 95 6 view .LVU143
  96:zita-rev1/source/pareq.cpp ****             {
 496              		.loc 1 96 22 is_stmt 0 view .LVU144
 497 00c2 B7EE000A 		vmov.f32	s0, #1.0e+0
  96:zita-rev1/source/pareq.cpp ****             {
 498              		.loc 1 96 13 view .LVU145
 499 00c6 9FED0C7A 		vldr.32	s14, .L42
  95:zita-rev1/source/pareq.cpp ****             if (fabs (_g1 - 1) < 0.001f)
 500              		.loc 1 95 16 view .LVU146
 501 00ca 0288     		ldrh	r2, [r0]
  96:zita-rev1/source/pareq.cpp ****             {
 502              		.loc 1 96 22 view .LVU147
 503 00cc 77EEC07A 		vsub.f32	s15, s15, s0
  95:zita-rev1/source/pareq.cpp ****             if (fabs (_g1 - 1) < 0.001f)
 504              		.loc 1 95 14 view .LVU148
 505 00d0 4280     		strh	r2, [r0, #2]	@ movhi
  96:zita-rev1/source/pareq.cpp ****             {
 506              		.loc 1 96 13 is_stmt 1 view .LVU149
 507              	.LBB12:
 508              	.LBI12:
 509              		.file 2 "/Library/DaisyToolchain/0.2.0/arm/arm-none-eabi/include/c++/10.3.1/cmath"
   1:/Library/DaisyToolchain/0.2.0/arm/arm-none-eabi/include/c++/10.3.1/cmath **** // -*- C++ -*- C forwarding header.
   2:/Library/DaisyToolchain/0.2.0/arm/arm-none-eabi/include/c++/10.3.1/cmath **** 
   3:/Library/DaisyToolchain/0.2.0/arm/arm-none-eabi/include/c++/10.3.1/cmath **** // Copyright (C) 1997-2020 Free Software Foundation, Inc.
   4:/Library/DaisyToolchain/0.2.0/arm/arm-none-eabi/include/c++/10.3.1/cmath **** //
   5:/Library/DaisyToolchain/0.2.0/arm/arm-none-eabi/include/c++/10.3.1/cmath **** // This file is part of the GNU ISO C++ Library.  This library is free
   6:/Library/DaisyToolchain/0.2.0/arm/arm-none-eabi/include/c++/10.3.1/cmath **** // software; you can redistribute it and/or modify it under the
   7:/Library/DaisyToolchain/0.2.0/arm/arm-none-eabi/include/c++/10.3.1/cmath **** // terms of the GNU General Public License as published by the
ARM GAS  /var/folders/2p/02m_5p7958535cp2tpgps0400000gn/T//ccejspVB.s 			page 14


   8:/Library/DaisyToolchain/0.2.0/arm/arm-none-eabi/include/c++/10.3.1/cmath **** // Free Software Foundation; either version 3, or (at your option)
   9:/Library/DaisyToolchain/0.2.0/arm/arm-none-eabi/include/c++/10.3.1/cmath **** // any later version.
  10:/Library/DaisyToolchain/0.2.0/arm/arm-none-eabi/include/c++/10.3.1/cmath **** 
  11:/Library/DaisyToolchain/0.2.0/arm/arm-none-eabi/include/c++/10.3.1/cmath **** // This library is distributed in the hope that it will be useful,
  12:/Library/DaisyToolchain/0.2.0/arm/arm-none-eabi/include/c++/10.3.1/cmath **** // but WITHOUT ANY WARRANTY; without even the implied warranty of
  13:/Library/DaisyToolchain/0.2.0/arm/arm-none-eabi/include/c++/10.3.1/cmath **** // MERCHANTABILITY or FITNESS FOR A PARTICULAR PURPOSE.  See the
  14:/Library/DaisyToolchain/0.2.0/arm/arm-none-eabi/include/c++/10.3.1/cmath **** // GNU General Public License for more details.
  15:/Library/DaisyToolchain/0.2.0/arm/arm-none-eabi/include/c++/10.3.1/cmath **** 
  16:/Library/DaisyToolchain/0.2.0/arm/arm-none-eabi/include/c++/10.3.1/cmath **** // Under Section 7 of GPL version 3, you are granted additional
  17:/Library/DaisyToolchain/0.2.0/arm/arm-none-eabi/include/c++/10.3.1/cmath **** // permissions described in the GCC Runtime Library Exception, version
  18:/Library/DaisyToolchain/0.2.0/arm/arm-none-eabi/include/c++/10.3.1/cmath **** // 3.1, as published by the Free Software Foundation.
  19:/Library/DaisyToolchain/0.2.0/arm/arm-none-eabi/include/c++/10.3.1/cmath **** 
  20:/Library/DaisyToolchain/0.2.0/arm/arm-none-eabi/include/c++/10.3.1/cmath **** // You should have received a copy of the GNU General Public License and
  21:/Library/DaisyToolchain/0.2.0/arm/arm-none-eabi/include/c++/10.3.1/cmath **** // a copy of the GCC Runtime Library Exception along with this program;
  22:/Library/DaisyToolchain/0.2.0/arm/arm-none-eabi/include/c++/10.3.1/cmath **** // see the files COPYING3 and COPYING.RUNTIME respectively.  If not, see
  23:/Library/DaisyToolchain/0.2.0/arm/arm-none-eabi/include/c++/10.3.1/cmath **** // <http://www.gnu.org/licenses/>.
  24:/Library/DaisyToolchain/0.2.0/arm/arm-none-eabi/include/c++/10.3.1/cmath **** 
  25:/Library/DaisyToolchain/0.2.0/arm/arm-none-eabi/include/c++/10.3.1/cmath **** /** @file include/cmath
  26:/Library/DaisyToolchain/0.2.0/arm/arm-none-eabi/include/c++/10.3.1/cmath ****  *  This is a Standard C++ Library file.  You should @c \#include this file
  27:/Library/DaisyToolchain/0.2.0/arm/arm-none-eabi/include/c++/10.3.1/cmath ****  *  in your programs, rather than any of the @a *.h implementation files.
  28:/Library/DaisyToolchain/0.2.0/arm/arm-none-eabi/include/c++/10.3.1/cmath ****  *
  29:/Library/DaisyToolchain/0.2.0/arm/arm-none-eabi/include/c++/10.3.1/cmath ****  *  This is the C++ version of the Standard C Library header @c math.h,
  30:/Library/DaisyToolchain/0.2.0/arm/arm-none-eabi/include/c++/10.3.1/cmath ****  *  and its contents are (mostly) the same as that header, but are all
  31:/Library/DaisyToolchain/0.2.0/arm/arm-none-eabi/include/c++/10.3.1/cmath ****  *  contained in the namespace @c std (except for names which are defined
  32:/Library/DaisyToolchain/0.2.0/arm/arm-none-eabi/include/c++/10.3.1/cmath ****  *  as macros in C).
  33:/Library/DaisyToolchain/0.2.0/arm/arm-none-eabi/include/c++/10.3.1/cmath ****  */
  34:/Library/DaisyToolchain/0.2.0/arm/arm-none-eabi/include/c++/10.3.1/cmath **** 
  35:/Library/DaisyToolchain/0.2.0/arm/arm-none-eabi/include/c++/10.3.1/cmath **** //
  36:/Library/DaisyToolchain/0.2.0/arm/arm-none-eabi/include/c++/10.3.1/cmath **** // ISO C++ 14882: 26.5  C library
  37:/Library/DaisyToolchain/0.2.0/arm/arm-none-eabi/include/c++/10.3.1/cmath **** //
  38:/Library/DaisyToolchain/0.2.0/arm/arm-none-eabi/include/c++/10.3.1/cmath **** 
  39:/Library/DaisyToolchain/0.2.0/arm/arm-none-eabi/include/c++/10.3.1/cmath **** #pragma GCC system_header
  40:/Library/DaisyToolchain/0.2.0/arm/arm-none-eabi/include/c++/10.3.1/cmath **** 
  41:/Library/DaisyToolchain/0.2.0/arm/arm-none-eabi/include/c++/10.3.1/cmath **** #include <bits/c++config.h>
  42:/Library/DaisyToolchain/0.2.0/arm/arm-none-eabi/include/c++/10.3.1/cmath **** #include <bits/cpp_type_traits.h>
  43:/Library/DaisyToolchain/0.2.0/arm/arm-none-eabi/include/c++/10.3.1/cmath **** #include <ext/type_traits.h>
  44:/Library/DaisyToolchain/0.2.0/arm/arm-none-eabi/include/c++/10.3.1/cmath **** #define _GLIBCXX_INCLUDE_NEXT_C_HEADERS
  45:/Library/DaisyToolchain/0.2.0/arm/arm-none-eabi/include/c++/10.3.1/cmath **** #include_next <math.h>
  46:/Library/DaisyToolchain/0.2.0/arm/arm-none-eabi/include/c++/10.3.1/cmath **** #undef _GLIBCXX_INCLUDE_NEXT_C_HEADERS
  47:/Library/DaisyToolchain/0.2.0/arm/arm-none-eabi/include/c++/10.3.1/cmath **** #include <bits/std_abs.h>
  48:/Library/DaisyToolchain/0.2.0/arm/arm-none-eabi/include/c++/10.3.1/cmath **** 
  49:/Library/DaisyToolchain/0.2.0/arm/arm-none-eabi/include/c++/10.3.1/cmath **** #ifndef _GLIBCXX_CMATH
  50:/Library/DaisyToolchain/0.2.0/arm/arm-none-eabi/include/c++/10.3.1/cmath **** #define _GLIBCXX_CMATH 1
  51:/Library/DaisyToolchain/0.2.0/arm/arm-none-eabi/include/c++/10.3.1/cmath **** 
  52:/Library/DaisyToolchain/0.2.0/arm/arm-none-eabi/include/c++/10.3.1/cmath **** // Get rid of those macros defined in <math.h> in lieu of real functions.
  53:/Library/DaisyToolchain/0.2.0/arm/arm-none-eabi/include/c++/10.3.1/cmath **** #undef div
  54:/Library/DaisyToolchain/0.2.0/arm/arm-none-eabi/include/c++/10.3.1/cmath **** #undef acos
  55:/Library/DaisyToolchain/0.2.0/arm/arm-none-eabi/include/c++/10.3.1/cmath **** #undef asin
  56:/Library/DaisyToolchain/0.2.0/arm/arm-none-eabi/include/c++/10.3.1/cmath **** #undef atan
  57:/Library/DaisyToolchain/0.2.0/arm/arm-none-eabi/include/c++/10.3.1/cmath **** #undef atan2
  58:/Library/DaisyToolchain/0.2.0/arm/arm-none-eabi/include/c++/10.3.1/cmath **** #undef ceil
  59:/Library/DaisyToolchain/0.2.0/arm/arm-none-eabi/include/c++/10.3.1/cmath **** #undef cos
  60:/Library/DaisyToolchain/0.2.0/arm/arm-none-eabi/include/c++/10.3.1/cmath **** #undef cosh
  61:/Library/DaisyToolchain/0.2.0/arm/arm-none-eabi/include/c++/10.3.1/cmath **** #undef exp
  62:/Library/DaisyToolchain/0.2.0/arm/arm-none-eabi/include/c++/10.3.1/cmath **** #undef fabs
  63:/Library/DaisyToolchain/0.2.0/arm/arm-none-eabi/include/c++/10.3.1/cmath **** #undef floor
  64:/Library/DaisyToolchain/0.2.0/arm/arm-none-eabi/include/c++/10.3.1/cmath **** #undef fmod
ARM GAS  /var/folders/2p/02m_5p7958535cp2tpgps0400000gn/T//ccejspVB.s 			page 15


  65:/Library/DaisyToolchain/0.2.0/arm/arm-none-eabi/include/c++/10.3.1/cmath **** #undef frexp
  66:/Library/DaisyToolchain/0.2.0/arm/arm-none-eabi/include/c++/10.3.1/cmath **** #undef ldexp
  67:/Library/DaisyToolchain/0.2.0/arm/arm-none-eabi/include/c++/10.3.1/cmath **** #undef log
  68:/Library/DaisyToolchain/0.2.0/arm/arm-none-eabi/include/c++/10.3.1/cmath **** #undef log10
  69:/Library/DaisyToolchain/0.2.0/arm/arm-none-eabi/include/c++/10.3.1/cmath **** #undef modf
  70:/Library/DaisyToolchain/0.2.0/arm/arm-none-eabi/include/c++/10.3.1/cmath **** #undef pow
  71:/Library/DaisyToolchain/0.2.0/arm/arm-none-eabi/include/c++/10.3.1/cmath **** #undef sin
  72:/Library/DaisyToolchain/0.2.0/arm/arm-none-eabi/include/c++/10.3.1/cmath **** #undef sinh
  73:/Library/DaisyToolchain/0.2.0/arm/arm-none-eabi/include/c++/10.3.1/cmath **** #undef sqrt
  74:/Library/DaisyToolchain/0.2.0/arm/arm-none-eabi/include/c++/10.3.1/cmath **** #undef tan
  75:/Library/DaisyToolchain/0.2.0/arm/arm-none-eabi/include/c++/10.3.1/cmath **** #undef tanh
  76:/Library/DaisyToolchain/0.2.0/arm/arm-none-eabi/include/c++/10.3.1/cmath **** 
  77:/Library/DaisyToolchain/0.2.0/arm/arm-none-eabi/include/c++/10.3.1/cmath **** extern "C++"
  78:/Library/DaisyToolchain/0.2.0/arm/arm-none-eabi/include/c++/10.3.1/cmath **** {
  79:/Library/DaisyToolchain/0.2.0/arm/arm-none-eabi/include/c++/10.3.1/cmath **** namespace std _GLIBCXX_VISIBILITY(default)
  80:/Library/DaisyToolchain/0.2.0/arm/arm-none-eabi/include/c++/10.3.1/cmath **** {
  81:/Library/DaisyToolchain/0.2.0/arm/arm-none-eabi/include/c++/10.3.1/cmath **** _GLIBCXX_BEGIN_NAMESPACE_VERSION
  82:/Library/DaisyToolchain/0.2.0/arm/arm-none-eabi/include/c++/10.3.1/cmath **** 
  83:/Library/DaisyToolchain/0.2.0/arm/arm-none-eabi/include/c++/10.3.1/cmath ****   using ::acos;
  84:/Library/DaisyToolchain/0.2.0/arm/arm-none-eabi/include/c++/10.3.1/cmath **** 
  85:/Library/DaisyToolchain/0.2.0/arm/arm-none-eabi/include/c++/10.3.1/cmath **** #ifndef __CORRECT_ISO_CPP_MATH_H_PROTO
  86:/Library/DaisyToolchain/0.2.0/arm/arm-none-eabi/include/c++/10.3.1/cmath ****   inline _GLIBCXX_CONSTEXPR float
  87:/Library/DaisyToolchain/0.2.0/arm/arm-none-eabi/include/c++/10.3.1/cmath ****   acos(float __x)
  88:/Library/DaisyToolchain/0.2.0/arm/arm-none-eabi/include/c++/10.3.1/cmath ****   { return __builtin_acosf(__x); }
  89:/Library/DaisyToolchain/0.2.0/arm/arm-none-eabi/include/c++/10.3.1/cmath **** 
  90:/Library/DaisyToolchain/0.2.0/arm/arm-none-eabi/include/c++/10.3.1/cmath ****   inline _GLIBCXX_CONSTEXPR long double
  91:/Library/DaisyToolchain/0.2.0/arm/arm-none-eabi/include/c++/10.3.1/cmath ****   acos(long double __x)
  92:/Library/DaisyToolchain/0.2.0/arm/arm-none-eabi/include/c++/10.3.1/cmath ****   { return __builtin_acosl(__x); }
  93:/Library/DaisyToolchain/0.2.0/arm/arm-none-eabi/include/c++/10.3.1/cmath **** #endif
  94:/Library/DaisyToolchain/0.2.0/arm/arm-none-eabi/include/c++/10.3.1/cmath **** 
  95:/Library/DaisyToolchain/0.2.0/arm/arm-none-eabi/include/c++/10.3.1/cmath ****   template<typename _Tp>
  96:/Library/DaisyToolchain/0.2.0/arm/arm-none-eabi/include/c++/10.3.1/cmath ****     inline _GLIBCXX_CONSTEXPR
  97:/Library/DaisyToolchain/0.2.0/arm/arm-none-eabi/include/c++/10.3.1/cmath ****     typename __gnu_cxx::__enable_if<__is_integer<_Tp>::__value, 
  98:/Library/DaisyToolchain/0.2.0/arm/arm-none-eabi/include/c++/10.3.1/cmath ****                                     double>::__type
  99:/Library/DaisyToolchain/0.2.0/arm/arm-none-eabi/include/c++/10.3.1/cmath ****     acos(_Tp __x)
 100:/Library/DaisyToolchain/0.2.0/arm/arm-none-eabi/include/c++/10.3.1/cmath ****     { return __builtin_acos(__x); }
 101:/Library/DaisyToolchain/0.2.0/arm/arm-none-eabi/include/c++/10.3.1/cmath **** 
 102:/Library/DaisyToolchain/0.2.0/arm/arm-none-eabi/include/c++/10.3.1/cmath ****   using ::asin;
 103:/Library/DaisyToolchain/0.2.0/arm/arm-none-eabi/include/c++/10.3.1/cmath **** 
 104:/Library/DaisyToolchain/0.2.0/arm/arm-none-eabi/include/c++/10.3.1/cmath **** #ifndef __CORRECT_ISO_CPP_MATH_H_PROTO
 105:/Library/DaisyToolchain/0.2.0/arm/arm-none-eabi/include/c++/10.3.1/cmath ****   inline _GLIBCXX_CONSTEXPR float
 106:/Library/DaisyToolchain/0.2.0/arm/arm-none-eabi/include/c++/10.3.1/cmath ****   asin(float __x)
 107:/Library/DaisyToolchain/0.2.0/arm/arm-none-eabi/include/c++/10.3.1/cmath ****   { return __builtin_asinf(__x); }
 108:/Library/DaisyToolchain/0.2.0/arm/arm-none-eabi/include/c++/10.3.1/cmath **** 
 109:/Library/DaisyToolchain/0.2.0/arm/arm-none-eabi/include/c++/10.3.1/cmath ****   inline _GLIBCXX_CONSTEXPR long double
 110:/Library/DaisyToolchain/0.2.0/arm/arm-none-eabi/include/c++/10.3.1/cmath ****   asin(long double __x)
 111:/Library/DaisyToolchain/0.2.0/arm/arm-none-eabi/include/c++/10.3.1/cmath ****   { return __builtin_asinl(__x); }
 112:/Library/DaisyToolchain/0.2.0/arm/arm-none-eabi/include/c++/10.3.1/cmath **** #endif
 113:/Library/DaisyToolchain/0.2.0/arm/arm-none-eabi/include/c++/10.3.1/cmath **** 
 114:/Library/DaisyToolchain/0.2.0/arm/arm-none-eabi/include/c++/10.3.1/cmath ****   template<typename _Tp>
 115:/Library/DaisyToolchain/0.2.0/arm/arm-none-eabi/include/c++/10.3.1/cmath ****     inline _GLIBCXX_CONSTEXPR
 116:/Library/DaisyToolchain/0.2.0/arm/arm-none-eabi/include/c++/10.3.1/cmath ****     typename __gnu_cxx::__enable_if<__is_integer<_Tp>::__value,
 117:/Library/DaisyToolchain/0.2.0/arm/arm-none-eabi/include/c++/10.3.1/cmath ****                                     double>::__type
 118:/Library/DaisyToolchain/0.2.0/arm/arm-none-eabi/include/c++/10.3.1/cmath ****     asin(_Tp __x)
 119:/Library/DaisyToolchain/0.2.0/arm/arm-none-eabi/include/c++/10.3.1/cmath ****     { return __builtin_asin(__x); }
 120:/Library/DaisyToolchain/0.2.0/arm/arm-none-eabi/include/c++/10.3.1/cmath **** 
 121:/Library/DaisyToolchain/0.2.0/arm/arm-none-eabi/include/c++/10.3.1/cmath ****   using ::atan;
ARM GAS  /var/folders/2p/02m_5p7958535cp2tpgps0400000gn/T//ccejspVB.s 			page 16


 122:/Library/DaisyToolchain/0.2.0/arm/arm-none-eabi/include/c++/10.3.1/cmath **** 
 123:/Library/DaisyToolchain/0.2.0/arm/arm-none-eabi/include/c++/10.3.1/cmath **** #ifndef __CORRECT_ISO_CPP_MATH_H_PROTO
 124:/Library/DaisyToolchain/0.2.0/arm/arm-none-eabi/include/c++/10.3.1/cmath ****   inline _GLIBCXX_CONSTEXPR float
 125:/Library/DaisyToolchain/0.2.0/arm/arm-none-eabi/include/c++/10.3.1/cmath ****   atan(float __x)
 126:/Library/DaisyToolchain/0.2.0/arm/arm-none-eabi/include/c++/10.3.1/cmath ****   { return __builtin_atanf(__x); }
 127:/Library/DaisyToolchain/0.2.0/arm/arm-none-eabi/include/c++/10.3.1/cmath **** 
 128:/Library/DaisyToolchain/0.2.0/arm/arm-none-eabi/include/c++/10.3.1/cmath ****   inline _GLIBCXX_CONSTEXPR long double
 129:/Library/DaisyToolchain/0.2.0/arm/arm-none-eabi/include/c++/10.3.1/cmath ****   atan(long double __x)
 130:/Library/DaisyToolchain/0.2.0/arm/arm-none-eabi/include/c++/10.3.1/cmath ****   { return __builtin_atanl(__x); }
 131:/Library/DaisyToolchain/0.2.0/arm/arm-none-eabi/include/c++/10.3.1/cmath **** #endif
 132:/Library/DaisyToolchain/0.2.0/arm/arm-none-eabi/include/c++/10.3.1/cmath **** 
 133:/Library/DaisyToolchain/0.2.0/arm/arm-none-eabi/include/c++/10.3.1/cmath ****   template<typename _Tp>
 134:/Library/DaisyToolchain/0.2.0/arm/arm-none-eabi/include/c++/10.3.1/cmath ****     inline _GLIBCXX_CONSTEXPR
 135:/Library/DaisyToolchain/0.2.0/arm/arm-none-eabi/include/c++/10.3.1/cmath ****     typename __gnu_cxx::__enable_if<__is_integer<_Tp>::__value,
 136:/Library/DaisyToolchain/0.2.0/arm/arm-none-eabi/include/c++/10.3.1/cmath ****                                     double>::__type
 137:/Library/DaisyToolchain/0.2.0/arm/arm-none-eabi/include/c++/10.3.1/cmath ****     atan(_Tp __x)
 138:/Library/DaisyToolchain/0.2.0/arm/arm-none-eabi/include/c++/10.3.1/cmath ****     { return __builtin_atan(__x); }
 139:/Library/DaisyToolchain/0.2.0/arm/arm-none-eabi/include/c++/10.3.1/cmath **** 
 140:/Library/DaisyToolchain/0.2.0/arm/arm-none-eabi/include/c++/10.3.1/cmath ****   using ::atan2;
 141:/Library/DaisyToolchain/0.2.0/arm/arm-none-eabi/include/c++/10.3.1/cmath **** 
 142:/Library/DaisyToolchain/0.2.0/arm/arm-none-eabi/include/c++/10.3.1/cmath **** #ifndef __CORRECT_ISO_CPP_MATH_H_PROTO
 143:/Library/DaisyToolchain/0.2.0/arm/arm-none-eabi/include/c++/10.3.1/cmath ****   inline _GLIBCXX_CONSTEXPR float
 144:/Library/DaisyToolchain/0.2.0/arm/arm-none-eabi/include/c++/10.3.1/cmath ****   atan2(float __y, float __x)
 145:/Library/DaisyToolchain/0.2.0/arm/arm-none-eabi/include/c++/10.3.1/cmath ****   { return __builtin_atan2f(__y, __x); }
 146:/Library/DaisyToolchain/0.2.0/arm/arm-none-eabi/include/c++/10.3.1/cmath **** 
 147:/Library/DaisyToolchain/0.2.0/arm/arm-none-eabi/include/c++/10.3.1/cmath ****   inline _GLIBCXX_CONSTEXPR long double
 148:/Library/DaisyToolchain/0.2.0/arm/arm-none-eabi/include/c++/10.3.1/cmath ****   atan2(long double __y, long double __x)
 149:/Library/DaisyToolchain/0.2.0/arm/arm-none-eabi/include/c++/10.3.1/cmath ****   { return __builtin_atan2l(__y, __x); }
 150:/Library/DaisyToolchain/0.2.0/arm/arm-none-eabi/include/c++/10.3.1/cmath **** #endif
 151:/Library/DaisyToolchain/0.2.0/arm/arm-none-eabi/include/c++/10.3.1/cmath **** 
 152:/Library/DaisyToolchain/0.2.0/arm/arm-none-eabi/include/c++/10.3.1/cmath ****   template<typename _Tp, typename _Up>
 153:/Library/DaisyToolchain/0.2.0/arm/arm-none-eabi/include/c++/10.3.1/cmath ****     inline _GLIBCXX_CONSTEXPR
 154:/Library/DaisyToolchain/0.2.0/arm/arm-none-eabi/include/c++/10.3.1/cmath ****     typename __gnu_cxx::__promote_2<_Tp, _Up>::__type
 155:/Library/DaisyToolchain/0.2.0/arm/arm-none-eabi/include/c++/10.3.1/cmath ****     atan2(_Tp __y, _Up __x)
 156:/Library/DaisyToolchain/0.2.0/arm/arm-none-eabi/include/c++/10.3.1/cmath ****     {
 157:/Library/DaisyToolchain/0.2.0/arm/arm-none-eabi/include/c++/10.3.1/cmath ****       typedef typename __gnu_cxx::__promote_2<_Tp, _Up>::__type __type;
 158:/Library/DaisyToolchain/0.2.0/arm/arm-none-eabi/include/c++/10.3.1/cmath ****       return atan2(__type(__y), __type(__x));
 159:/Library/DaisyToolchain/0.2.0/arm/arm-none-eabi/include/c++/10.3.1/cmath ****     }
 160:/Library/DaisyToolchain/0.2.0/arm/arm-none-eabi/include/c++/10.3.1/cmath **** 
 161:/Library/DaisyToolchain/0.2.0/arm/arm-none-eabi/include/c++/10.3.1/cmath ****   using ::ceil;
 162:/Library/DaisyToolchain/0.2.0/arm/arm-none-eabi/include/c++/10.3.1/cmath **** 
 163:/Library/DaisyToolchain/0.2.0/arm/arm-none-eabi/include/c++/10.3.1/cmath **** #ifndef __CORRECT_ISO_CPP_MATH_H_PROTO
 164:/Library/DaisyToolchain/0.2.0/arm/arm-none-eabi/include/c++/10.3.1/cmath ****   inline _GLIBCXX_CONSTEXPR float
 165:/Library/DaisyToolchain/0.2.0/arm/arm-none-eabi/include/c++/10.3.1/cmath ****   ceil(float __x)
 166:/Library/DaisyToolchain/0.2.0/arm/arm-none-eabi/include/c++/10.3.1/cmath ****   { return __builtin_ceilf(__x); }
 167:/Library/DaisyToolchain/0.2.0/arm/arm-none-eabi/include/c++/10.3.1/cmath **** 
 168:/Library/DaisyToolchain/0.2.0/arm/arm-none-eabi/include/c++/10.3.1/cmath ****   inline _GLIBCXX_CONSTEXPR long double
 169:/Library/DaisyToolchain/0.2.0/arm/arm-none-eabi/include/c++/10.3.1/cmath ****   ceil(long double __x)
 170:/Library/DaisyToolchain/0.2.0/arm/arm-none-eabi/include/c++/10.3.1/cmath ****   { return __builtin_ceill(__x); }
 171:/Library/DaisyToolchain/0.2.0/arm/arm-none-eabi/include/c++/10.3.1/cmath **** #endif
 172:/Library/DaisyToolchain/0.2.0/arm/arm-none-eabi/include/c++/10.3.1/cmath **** 
 173:/Library/DaisyToolchain/0.2.0/arm/arm-none-eabi/include/c++/10.3.1/cmath ****   template<typename _Tp>
 174:/Library/DaisyToolchain/0.2.0/arm/arm-none-eabi/include/c++/10.3.1/cmath ****     inline _GLIBCXX_CONSTEXPR
 175:/Library/DaisyToolchain/0.2.0/arm/arm-none-eabi/include/c++/10.3.1/cmath ****     typename __gnu_cxx::__enable_if<__is_integer<_Tp>::__value, 
 176:/Library/DaisyToolchain/0.2.0/arm/arm-none-eabi/include/c++/10.3.1/cmath ****                                     double>::__type
 177:/Library/DaisyToolchain/0.2.0/arm/arm-none-eabi/include/c++/10.3.1/cmath ****     ceil(_Tp __x)
 178:/Library/DaisyToolchain/0.2.0/arm/arm-none-eabi/include/c++/10.3.1/cmath ****     { return __builtin_ceil(__x); }
ARM GAS  /var/folders/2p/02m_5p7958535cp2tpgps0400000gn/T//ccejspVB.s 			page 17


 179:/Library/DaisyToolchain/0.2.0/arm/arm-none-eabi/include/c++/10.3.1/cmath **** 
 180:/Library/DaisyToolchain/0.2.0/arm/arm-none-eabi/include/c++/10.3.1/cmath ****   using ::cos;
 181:/Library/DaisyToolchain/0.2.0/arm/arm-none-eabi/include/c++/10.3.1/cmath **** 
 182:/Library/DaisyToolchain/0.2.0/arm/arm-none-eabi/include/c++/10.3.1/cmath **** #ifndef __CORRECT_ISO_CPP_MATH_H_PROTO
 183:/Library/DaisyToolchain/0.2.0/arm/arm-none-eabi/include/c++/10.3.1/cmath ****   inline _GLIBCXX_CONSTEXPR float
 184:/Library/DaisyToolchain/0.2.0/arm/arm-none-eabi/include/c++/10.3.1/cmath ****   cos(float __x)
 185:/Library/DaisyToolchain/0.2.0/arm/arm-none-eabi/include/c++/10.3.1/cmath ****   { return __builtin_cosf(__x); }
 186:/Library/DaisyToolchain/0.2.0/arm/arm-none-eabi/include/c++/10.3.1/cmath **** 
 187:/Library/DaisyToolchain/0.2.0/arm/arm-none-eabi/include/c++/10.3.1/cmath ****   inline _GLIBCXX_CONSTEXPR long double
 188:/Library/DaisyToolchain/0.2.0/arm/arm-none-eabi/include/c++/10.3.1/cmath ****   cos(long double __x)
 189:/Library/DaisyToolchain/0.2.0/arm/arm-none-eabi/include/c++/10.3.1/cmath ****   { return __builtin_cosl(__x); }
 190:/Library/DaisyToolchain/0.2.0/arm/arm-none-eabi/include/c++/10.3.1/cmath **** #endif
 191:/Library/DaisyToolchain/0.2.0/arm/arm-none-eabi/include/c++/10.3.1/cmath **** 
 192:/Library/DaisyToolchain/0.2.0/arm/arm-none-eabi/include/c++/10.3.1/cmath ****   template<typename _Tp>
 193:/Library/DaisyToolchain/0.2.0/arm/arm-none-eabi/include/c++/10.3.1/cmath ****     inline _GLIBCXX_CONSTEXPR
 194:/Library/DaisyToolchain/0.2.0/arm/arm-none-eabi/include/c++/10.3.1/cmath ****     typename __gnu_cxx::__enable_if<__is_integer<_Tp>::__value,
 195:/Library/DaisyToolchain/0.2.0/arm/arm-none-eabi/include/c++/10.3.1/cmath ****                                     double>::__type
 196:/Library/DaisyToolchain/0.2.0/arm/arm-none-eabi/include/c++/10.3.1/cmath ****     cos(_Tp __x)
 197:/Library/DaisyToolchain/0.2.0/arm/arm-none-eabi/include/c++/10.3.1/cmath ****     { return __builtin_cos(__x); }
 198:/Library/DaisyToolchain/0.2.0/arm/arm-none-eabi/include/c++/10.3.1/cmath **** 
 199:/Library/DaisyToolchain/0.2.0/arm/arm-none-eabi/include/c++/10.3.1/cmath ****   using ::cosh;
 200:/Library/DaisyToolchain/0.2.0/arm/arm-none-eabi/include/c++/10.3.1/cmath **** 
 201:/Library/DaisyToolchain/0.2.0/arm/arm-none-eabi/include/c++/10.3.1/cmath **** #ifndef __CORRECT_ISO_CPP_MATH_H_PROTO
 202:/Library/DaisyToolchain/0.2.0/arm/arm-none-eabi/include/c++/10.3.1/cmath ****   inline _GLIBCXX_CONSTEXPR float
 203:/Library/DaisyToolchain/0.2.0/arm/arm-none-eabi/include/c++/10.3.1/cmath ****   cosh(float __x)
 204:/Library/DaisyToolchain/0.2.0/arm/arm-none-eabi/include/c++/10.3.1/cmath ****   { return __builtin_coshf(__x); }
 205:/Library/DaisyToolchain/0.2.0/arm/arm-none-eabi/include/c++/10.3.1/cmath **** 
 206:/Library/DaisyToolchain/0.2.0/arm/arm-none-eabi/include/c++/10.3.1/cmath ****   inline _GLIBCXX_CONSTEXPR long double
 207:/Library/DaisyToolchain/0.2.0/arm/arm-none-eabi/include/c++/10.3.1/cmath ****   cosh(long double __x)
 208:/Library/DaisyToolchain/0.2.0/arm/arm-none-eabi/include/c++/10.3.1/cmath ****   { return __builtin_coshl(__x); }
 209:/Library/DaisyToolchain/0.2.0/arm/arm-none-eabi/include/c++/10.3.1/cmath **** #endif
 210:/Library/DaisyToolchain/0.2.0/arm/arm-none-eabi/include/c++/10.3.1/cmath **** 
 211:/Library/DaisyToolchain/0.2.0/arm/arm-none-eabi/include/c++/10.3.1/cmath ****   template<typename _Tp>
 212:/Library/DaisyToolchain/0.2.0/arm/arm-none-eabi/include/c++/10.3.1/cmath ****     inline _GLIBCXX_CONSTEXPR
 213:/Library/DaisyToolchain/0.2.0/arm/arm-none-eabi/include/c++/10.3.1/cmath ****     typename __gnu_cxx::__enable_if<__is_integer<_Tp>::__value,
 214:/Library/DaisyToolchain/0.2.0/arm/arm-none-eabi/include/c++/10.3.1/cmath ****                                     double>::__type
 215:/Library/DaisyToolchain/0.2.0/arm/arm-none-eabi/include/c++/10.3.1/cmath ****     cosh(_Tp __x)
 216:/Library/DaisyToolchain/0.2.0/arm/arm-none-eabi/include/c++/10.3.1/cmath ****     { return __builtin_cosh(__x); }
 217:/Library/DaisyToolchain/0.2.0/arm/arm-none-eabi/include/c++/10.3.1/cmath **** 
 218:/Library/DaisyToolchain/0.2.0/arm/arm-none-eabi/include/c++/10.3.1/cmath ****   using ::exp;
 219:/Library/DaisyToolchain/0.2.0/arm/arm-none-eabi/include/c++/10.3.1/cmath **** 
 220:/Library/DaisyToolchain/0.2.0/arm/arm-none-eabi/include/c++/10.3.1/cmath **** #ifndef __CORRECT_ISO_CPP_MATH_H_PROTO
 221:/Library/DaisyToolchain/0.2.0/arm/arm-none-eabi/include/c++/10.3.1/cmath ****   inline _GLIBCXX_CONSTEXPR float
 222:/Library/DaisyToolchain/0.2.0/arm/arm-none-eabi/include/c++/10.3.1/cmath ****   exp(float __x)
 223:/Library/DaisyToolchain/0.2.0/arm/arm-none-eabi/include/c++/10.3.1/cmath ****   { return __builtin_expf(__x); }
 224:/Library/DaisyToolchain/0.2.0/arm/arm-none-eabi/include/c++/10.3.1/cmath **** 
 225:/Library/DaisyToolchain/0.2.0/arm/arm-none-eabi/include/c++/10.3.1/cmath ****   inline _GLIBCXX_CONSTEXPR long double
 226:/Library/DaisyToolchain/0.2.0/arm/arm-none-eabi/include/c++/10.3.1/cmath ****   exp(long double __x)
 227:/Library/DaisyToolchain/0.2.0/arm/arm-none-eabi/include/c++/10.3.1/cmath ****   { return __builtin_expl(__x); }
 228:/Library/DaisyToolchain/0.2.0/arm/arm-none-eabi/include/c++/10.3.1/cmath **** #endif
 229:/Library/DaisyToolchain/0.2.0/arm/arm-none-eabi/include/c++/10.3.1/cmath **** 
 230:/Library/DaisyToolchain/0.2.0/arm/arm-none-eabi/include/c++/10.3.1/cmath ****   template<typename _Tp>
 231:/Library/DaisyToolchain/0.2.0/arm/arm-none-eabi/include/c++/10.3.1/cmath ****     inline _GLIBCXX_CONSTEXPR
 232:/Library/DaisyToolchain/0.2.0/arm/arm-none-eabi/include/c++/10.3.1/cmath ****     typename __gnu_cxx::__enable_if<__is_integer<_Tp>::__value,
 233:/Library/DaisyToolchain/0.2.0/arm/arm-none-eabi/include/c++/10.3.1/cmath ****                                     double>::__type
 234:/Library/DaisyToolchain/0.2.0/arm/arm-none-eabi/include/c++/10.3.1/cmath ****     exp(_Tp __x)
 235:/Library/DaisyToolchain/0.2.0/arm/arm-none-eabi/include/c++/10.3.1/cmath ****     { return __builtin_exp(__x); }
ARM GAS  /var/folders/2p/02m_5p7958535cp2tpgps0400000gn/T//ccejspVB.s 			page 18


 236:/Library/DaisyToolchain/0.2.0/arm/arm-none-eabi/include/c++/10.3.1/cmath **** 
 237:/Library/DaisyToolchain/0.2.0/arm/arm-none-eabi/include/c++/10.3.1/cmath ****   using ::fabs;
 238:/Library/DaisyToolchain/0.2.0/arm/arm-none-eabi/include/c++/10.3.1/cmath **** 
 239:/Library/DaisyToolchain/0.2.0/arm/arm-none-eabi/include/c++/10.3.1/cmath **** #ifndef __CORRECT_ISO_CPP_MATH_H_PROTO
 240:/Library/DaisyToolchain/0.2.0/arm/arm-none-eabi/include/c++/10.3.1/cmath ****   inline _GLIBCXX_CONSTEXPR float
 241:/Library/DaisyToolchain/0.2.0/arm/arm-none-eabi/include/c++/10.3.1/cmath ****   fabs(float __x)
 510              		.loc 2 241 3 view .LVU150
 511              	.LBB13:
 242:/Library/DaisyToolchain/0.2.0/arm/arm-none-eabi/include/c++/10.3.1/cmath ****   { return __builtin_fabsf(__x); }
 512              		.loc 2 242 5 view .LVU151
 513              		.loc 2 242 31 is_stmt 0 view .LVU152
 514 00d2 F0EEE77A 		vabs.f32	s15, s15
 515              	.LBE13:
 516              	.LBE12:
  96:zita-rev1/source/pareq.cpp ****             {
 517              		.loc 1 96 13 view .LVU153
 518 00d6 F4EEC77A 		vcmpe.f32	s15, s14
 519 00da F1EE10FA 		vmrs	APSR_nzcv, FPSCR
 520 00de 07D5     		bpl	.L39
  98:zita-rev1/source/pareq.cpp **** 	        reset ();
 521              		.loc 1 98 10 is_stmt 1 view .LVU154
  98:zita-rev1/source/pareq.cpp **** 	        reset ();
 522              		.loc 1 98 17 is_stmt 0 view .LVU155
 523 00e0 8360     		str	r3, [r0, #8]
  99:zita-rev1/source/pareq.cpp **** 	    }
 524              		.loc 1 99 10 is_stmt 1 view .LVU156
  99:zita-rev1/source/pareq.cpp **** 	    }
 525              		.loc 1 99 16 is_stmt 0 view .LVU157
 526 00e2 FFF7FEBF 		b	_ZN5Pareq5resetEv
 527              	.LVL43:
 528              	.L26:
  89:zita-rev1/source/pareq.cpp **** 		calcpar1 (nsamp, _g1, _f1);
 529              		.loc 1 89 3 is_stmt 1 view .LVU158
  89:zita-rev1/source/pareq.cpp **** 		calcpar1 (nsamp, _g1, _f1);
 530              		.loc 1 89 10 is_stmt 0 view .LVU159
 531 00e6 0223     		movs	r3, #2
  90:zita-rev1/source/pareq.cpp **** 	    }
 532              		.loc 1 90 12 view .LVU160
 533 00e8 B0EE670A 		vmov.f32	s0, s15
  89:zita-rev1/source/pareq.cpp **** 		calcpar1 (nsamp, _g1, _f1);
 534              		.loc 1 89 10 view .LVU161
 535 00ec 8360     		str	r3, [r0, #8]
  90:zita-rev1/source/pareq.cpp **** 	    }
 536              		.loc 1 90 3 is_stmt 1 view .LVU162
 537 00ee C1E7     		b	.L41
 538              	.LVL44:
 539              	.L39:
 103:zita-rev1/source/pareq.cpp **** 	    }
 540              		.loc 1 103 10 view .LVU163
 103:zita-rev1/source/pareq.cpp **** 	    }
 541              		.loc 1 103 17 is_stmt 0 view .LVU164
 542 00f0 0123     		movs	r3, #1
 543 00f2 8360     		str	r3, [r0, #8]
 544              	.LVL45:
 545              	.L12:
 107:zita-rev1/source/pareq.cpp **** 
 546              		.loc 1 107 1 view .LVU165
ARM GAS  /var/folders/2p/02m_5p7958535cp2tpgps0400000gn/T//ccejspVB.s 			page 19


 547 00f4 7047     		bx	lr
 548              	.L43:
 549 00f6 00BF     		.align	2
 550              	.L42:
 551 00f8 6F12833A 		.word	981668463
 552              		.cfi_endproc
 553              	.LFE554:
 555              		.section	.text._ZN5Pareq8process1EiiPPf,"ax",%progbits
 556              		.align	1
 557              		.global	_ZN5Pareq8process1EiiPPf
 558              		.syntax unified
 559              		.thumb
 560              		.thumb_func
 562              	_ZN5Pareq8process1EiiPPf:
 563              	.LVL46:
 564              	.LFB556:
 132:zita-rev1/source/pareq.cpp **** 
 133:zita-rev1/source/pareq.cpp **** 
 134:zita-rev1/source/pareq.cpp **** void Pareq::process1 (int nsamp, int nchan, float *data[])
 135:zita-rev1/source/pareq.cpp **** {
 565              		.loc 1 135 1 is_stmt 1 view -0
 566              		.cfi_startproc
 567              		@ args = 0, pretend = 0, frame = 0
 568              		@ frame_needed = 0, uses_anonymous_args = 0
 136:zita-rev1/source/pareq.cpp ****     int   i, j;
 569              		.loc 1 136 5 view .LVU167
 137:zita-rev1/source/pareq.cpp ****     float c1, c2, gg;
 570              		.loc 1 137 5 view .LVU168
 138:zita-rev1/source/pareq.cpp ****     float x, y, z1, z2;
 571              		.loc 1 138 5 view .LVU169
 139:zita-rev1/source/pareq.cpp ****     float *p;
 572              		.loc 1 139 5 view .LVU170
 140:zita-rev1/source/pareq.cpp **** 
 141:zita-rev1/source/pareq.cpp ****     c1 = _c1;
 573              		.loc 1 141 5 view .LVU171
 135:zita-rev1/source/pareq.cpp ****     int   i, j;
 574              		.loc 1 135 1 is_stmt 0 view .LVU172
 575 0000 F0B5     		push	{r4, r5, r6, r7, lr}
 576              		.cfi_def_cfa_offset 20
 577              		.cfi_offset 4, -20
 578              		.cfi_offset 5, -16
 579              		.cfi_offset 6, -12
 580              		.cfi_offset 7, -8
 581              		.cfi_offset 14, -4
 142:zita-rev1/source/pareq.cpp ****     c2 = _c2;
 143:zita-rev1/source/pareq.cpp ****     gg = _gg;
 144:zita-rev1/source/pareq.cpp ****     if (_state == SMOOTH)
 582              		.loc 1 144 5 view .LVU173
 583 0002 8468     		ldr	r4, [r0, #8]
 141:zita-rev1/source/pareq.cpp ****     c2 = _c2;
 584              		.loc 1 141 8 view .LVU174
 585 0004 D0ED087A 		vldr.32	s15, [r0, #32]
 586              	.LVL47:
 142:zita-rev1/source/pareq.cpp ****     c2 = _c2;
 587              		.loc 1 142 5 is_stmt 1 view .LVU175
 588              		.loc 1 144 5 is_stmt 0 view .LVU176
 589 0008 022C     		cmp	r4, #2
ARM GAS  /var/folders/2p/02m_5p7958535cp2tpgps0400000gn/T//ccejspVB.s 			page 20


 142:zita-rev1/source/pareq.cpp ****     c2 = _c2;
 590              		.loc 1 142 8 view .LVU177
 591 000a 90ED0A7A 		vldr.32	s14, [r0, #40]
 592              	.LVL48:
 143:zita-rev1/source/pareq.cpp ****     if (_state == SMOOTH)
 593              		.loc 1 143 5 is_stmt 1 view .LVU178
 143:zita-rev1/source/pareq.cpp ****     if (_state == SMOOTH)
 594              		.loc 1 143 8 is_stmt 0 view .LVU179
 595 000e D0ED0C5A 		vldr.32	s11, [r0, #48]
 596              	.LVL49:
 597              		.loc 1 144 5 is_stmt 1 view .LVU180
 598 0012 00F13804 		add	r4, r0, #56
 599 0016 26D0     		beq	.L45
 600 0018 2046     		mov	r0, r4
 601              	.LVL50:
 145:zita-rev1/source/pareq.cpp ****     {
 146:zita-rev1/source/pareq.cpp **** 	for (i = 0; i < nchan; i++)
 147:zita-rev1/source/pareq.cpp **** 	{
 148:zita-rev1/source/pareq.cpp **** 	    p = data [i];
 149:zita-rev1/source/pareq.cpp ****             z1 = _z1 [i];
 150:zita-rev1/source/pareq.cpp ****             z2 = _z2 [i];
 151:zita-rev1/source/pareq.cpp ****             c1 = _c1;
 152:zita-rev1/source/pareq.cpp ****             c2 = _c2;
 153:zita-rev1/source/pareq.cpp ****             gg = _gg;
 154:zita-rev1/source/pareq.cpp ****             for (j = 0; j < nsamp; j++)
 155:zita-rev1/source/pareq.cpp ****             {
 156:zita-rev1/source/pareq.cpp ****                 c1 += _dc1;
 157:zita-rev1/source/pareq.cpp ****                 c2 += _dc2;
 158:zita-rev1/source/pareq.cpp ****                 gg += _dgg;
 159:zita-rev1/source/pareq.cpp **** 	        x = *p;
 160:zita-rev1/source/pareq.cpp **** 	        y = x - c2 * z2;
 161:zita-rev1/source/pareq.cpp **** 		*p++ = x - gg * (z2 + c2 * y - x);
 162:zita-rev1/source/pareq.cpp **** 	        y -= c1 * z1;
 163:zita-rev1/source/pareq.cpp **** 	        z2 = z1 + c1 * y;
 164:zita-rev1/source/pareq.cpp **** 	        z1 = y + 1e-20f;
 165:zita-rev1/source/pareq.cpp **** 	    }
 166:zita-rev1/source/pareq.cpp ****             _z1 [i] = z1;
 167:zita-rev1/source/pareq.cpp ****             _z2 [i] = z2;
 168:zita-rev1/source/pareq.cpp **** 	}
 169:zita-rev1/source/pareq.cpp ****         _c1 = c1;
 170:zita-rev1/source/pareq.cpp ****         _c2 = c2;
 171:zita-rev1/source/pareq.cpp ****         _gg = gg;
 172:zita-rev1/source/pareq.cpp ****     }
 173:zita-rev1/source/pareq.cpp ****     else
 174:zita-rev1/source/pareq.cpp ****     {
 175:zita-rev1/source/pareq.cpp **** 	for (i = 0; i < nchan; i++)
 602              		.loc 1 175 9 is_stmt 0 view .LVU181
 603 001a 0024     		movs	r4, #0
 604              	.LVL51:
 605              	.L46:
 606              		.loc 1 175 16 is_stmt 1 discriminator 1 view .LVU182
 607 001c 9442     		cmp	r4, r2
 608 001e 66DA     		bge	.L44
 176:zita-rev1/source/pareq.cpp **** 	{
 177:zita-rev1/source/pareq.cpp **** 	    p = data [i];
 609              		.loc 1 177 6 view .LVU183
 610              		.loc 1 177 8 is_stmt 0 view .LVU184
ARM GAS  /var/folders/2p/02m_5p7958535cp2tpgps0400000gn/T//ccejspVB.s 			page 21


 611 0020 53F82460 		ldr	r6, [r3, r4, lsl #2]
 612              	.LVL52:
 178:zita-rev1/source/pareq.cpp ****             z1 = _z1 [i];
 613              		.loc 1 178 13 is_stmt 1 view .LVU185
 179:zita-rev1/source/pareq.cpp ****             z2 = _z2 [i];
 180:zita-rev1/source/pareq.cpp ****             for (j = 0; j < nsamp; j++)
 614              		.loc 1 180 20 is_stmt 0 view .LVU186
 615 0024 0025     		movs	r5, #0
 178:zita-rev1/source/pareq.cpp ****             z1 = _z1 [i];
 616              		.loc 1 178 16 view .LVU187
 617 0026 90ED006A 		vldr.32	s12, [r0]
 618              	.LVL53:
 179:zita-rev1/source/pareq.cpp ****             z2 = _z2 [i];
 619              		.loc 1 179 13 is_stmt 1 view .LVU188
 179:zita-rev1/source/pareq.cpp ****             z2 = _z2 [i];
 620              		.loc 1 179 16 is_stmt 0 view .LVU189
 621 002a D0ED046A 		vldr.32	s13, [r0, #16]
 622              	.LVL54:
 623              		.loc 1 180 13 is_stmt 1 view .LVU190
 624              	.L53:
 625              		.loc 1 180 27 discriminator 3 view .LVU191
 626 002e 8D42     		cmp	r5, r1
 627 0030 5EDA     		bge	.L52
 181:zita-rev1/source/pareq.cpp ****             {
 182:zita-rev1/source/pareq.cpp **** 	        x = *p;
 628              		.loc 1 182 10 discriminator 2 view .LVU192
 629              		.loc 1 182 12 is_stmt 0 discriminator 2 view .LVU193
 630 0032 D6ED004A 		vldr.32	s9, [r6]
 631              	.LVL55:
 183:zita-rev1/source/pareq.cpp **** 	        y = x - c2 * z2;
 632              		.loc 1 183 10 is_stmt 1 discriminator 2 view .LVU194
 180:zita-rev1/source/pareq.cpp ****             {
 633              		.loc 1 180 13 is_stmt 0 discriminator 2 view .LVU195
 634 0036 0135     		adds	r5, r5, #1
 635              	.LVL56:
 636              		.loc 1 183 12 discriminator 2 view .LVU196
 637 0038 B0EE645A 		vmov.f32	s10, s9
 638 003c A6EEC75A 		vfms.f32	s10, s13, s14
 639              	.LVL57:
 184:zita-rev1/source/pareq.cpp **** 		*p++ = x - gg * (z2 + c2 * y - x);
 640              		.loc 1 184 3 is_stmt 1 discriminator 2 view .LVU197
 641              		.loc 1 184 23 is_stmt 0 discriminator 2 view .LVU198
 642 0040 E7EE056A 		vfma.f32	s13, s14, s10
 643              	.LVL58:
 185:zita-rev1/source/pareq.cpp **** 	        y -= c1 * z1;
 644              		.loc 1 185 12 discriminator 2 view .LVU199
 645 0044 A6EE675A 		vfms.f32	s10, s12, s15
 646              	.LVL59:
 184:zita-rev1/source/pareq.cpp **** 		*p++ = x - gg * (z2 + c2 * y - x);
 647              		.loc 1 184 32 discriminator 2 view .LVU200
 648 0048 76EEE46A 		vsub.f32	s13, s13, s9
 184:zita-rev1/source/pareq.cpp **** 		*p++ = x - gg * (z2 + c2 * y - x);
 649              		.loc 1 184 12 discriminator 2 view .LVU201
 650 004c E6EEE54A 		vfms.f32	s9, s13, s11
 651              	.LVL60:
 186:zita-rev1/source/pareq.cpp **** 	        z2 = z1 + c1 * y;
 652              		.loc 1 186 13 discriminator 2 view .LVU202
ARM GAS  /var/folders/2p/02m_5p7958535cp2tpgps0400000gn/T//ccejspVB.s 			page 22


 653 0050 F0EE466A 		vmov.f32	s13, s12
 187:zita-rev1/source/pareq.cpp **** 	        z1 = y + 1e-20f;
 654              		.loc 1 187 13 discriminator 2 view .LVU203
 655 0054 9FED296A 		vldr.32	s12, .L56
 656              	.LVL61:
 657              		.loc 1 187 13 discriminator 2 view .LVU204
 658 0058 35EE066A 		vadd.f32	s12, s10, s12
 186:zita-rev1/source/pareq.cpp **** 	        z2 = z1 + c1 * y;
 659              		.loc 1 186 13 discriminator 2 view .LVU205
 660 005c E7EE856A 		vfma.f32	s13, s15, s10
 661              	.LVL62:
 184:zita-rev1/source/pareq.cpp **** 	        y -= c1 * z1;
 662              		.loc 1 184 8 discriminator 2 view .LVU206
 663 0060 E6EC014A 		vstmia.32	r6!, {s9}
 664              	.LVL63:
 185:zita-rev1/source/pareq.cpp **** 	        z2 = z1 + c1 * y;
 665              		.loc 1 185 10 is_stmt 1 discriminator 2 view .LVU207
 186:zita-rev1/source/pareq.cpp **** 	        z1 = y + 1e-20f;
 666              		.loc 1 186 10 discriminator 2 view .LVU208
 667              		.loc 1 187 10 discriminator 2 view .LVU209
 180:zita-rev1/source/pareq.cpp ****             {
 668              		.loc 1 180 13 discriminator 2 view .LVU210
 180:zita-rev1/source/pareq.cpp ****             {
 669              		.loc 1 180 13 is_stmt 0 discriminator 2 view .LVU211
 670 0064 E3E7     		b	.L53
 671              	.LVL64:
 672              	.L45:
 146:zita-rev1/source/pareq.cpp **** 	{
 673              		.loc 1 146 9 view .LVU212
 674 0066 0025     		movs	r5, #0
 675              	.L50:
 676              	.LVL65:
 146:zita-rev1/source/pareq.cpp **** 	{
 677              		.loc 1 146 16 is_stmt 1 discriminator 1 view .LVU213
 678 0068 9542     		cmp	r5, r2
 679 006a 3ADA     		bge	.L47
 148:zita-rev1/source/pareq.cpp ****             z1 = _z1 [i];
 680              		.loc 1 148 6 view .LVU214
 148:zita-rev1/source/pareq.cpp ****             z1 = _z1 [i];
 681              		.loc 1 148 8 is_stmt 0 view .LVU215
 682 006c 53F82570 		ldr	r7, [r3, r5, lsl #2]
 683              	.LVL66:
 149:zita-rev1/source/pareq.cpp ****             z2 = _z2 [i];
 684              		.loc 1 149 13 is_stmt 1 view .LVU216
 154:zita-rev1/source/pareq.cpp ****             {
 685              		.loc 1 154 20 is_stmt 0 view .LVU217
 686 0070 0026     		movs	r6, #0
 149:zita-rev1/source/pareq.cpp ****             z2 = _z2 [i];
 687              		.loc 1 149 16 view .LVU218
 688 0072 94ED006A 		vldr.32	s12, [r4]
 689              	.LVL67:
 150:zita-rev1/source/pareq.cpp ****             c1 = _c1;
 690              		.loc 1 150 13 is_stmt 1 view .LVU219
 150:zita-rev1/source/pareq.cpp ****             c1 = _c1;
 691              		.loc 1 150 16 is_stmt 0 view .LVU220
 692 0076 D4ED046A 		vldr.32	s13, [r4, #16]
 693              	.LVL68:
ARM GAS  /var/folders/2p/02m_5p7958535cp2tpgps0400000gn/T//ccejspVB.s 			page 23


 151:zita-rev1/source/pareq.cpp ****             c2 = _c2;
 694              		.loc 1 151 13 is_stmt 1 view .LVU221
 151:zita-rev1/source/pareq.cpp ****             c2 = _c2;
 695              		.loc 1 151 16 is_stmt 0 view .LVU222
 696 007a D0ED087A 		vldr.32	s15, [r0, #32]
 697              	.LVL69:
 152:zita-rev1/source/pareq.cpp ****             gg = _gg;
 698              		.loc 1 152 13 is_stmt 1 view .LVU223
 152:zita-rev1/source/pareq.cpp ****             gg = _gg;
 699              		.loc 1 152 16 is_stmt 0 view .LVU224
 700 007e 90ED0A7A 		vldr.32	s14, [r0, #40]
 701              	.LVL70:
 153:zita-rev1/source/pareq.cpp ****             for (j = 0; j < nsamp; j++)
 702              		.loc 1 153 13 is_stmt 1 view .LVU225
 153:zita-rev1/source/pareq.cpp ****             for (j = 0; j < nsamp; j++)
 703              		.loc 1 153 16 is_stmt 0 view .LVU226
 704 0082 D0ED0C5A 		vldr.32	s11, [r0, #48]
 705              	.LVL71:
 154:zita-rev1/source/pareq.cpp ****             {
 706              		.loc 1 154 13 is_stmt 1 view .LVU227
 707              	.L49:
 154:zita-rev1/source/pareq.cpp ****             {
 708              		.loc 1 154 27 discriminator 3 view .LVU228
 709 0086 8E42     		cmp	r6, r1
 710 0088 25DA     		bge	.L48
 156:zita-rev1/source/pareq.cpp ****                 c2 += _dc2;
 711              		.loc 1 156 17 discriminator 2 view .LVU229
 156:zita-rev1/source/pareq.cpp ****                 c2 += _dc2;
 712              		.loc 1 156 20 is_stmt 0 discriminator 2 view .LVU230
 713 008a 90ED095A 		vldr.32	s10, [r0, #36]
 154:zita-rev1/source/pareq.cpp ****             {
 714              		.loc 1 154 13 discriminator 2 view .LVU231
 715 008e 0136     		adds	r6, r6, #1
 716              	.LVL72:
 159:zita-rev1/source/pareq.cpp **** 	        y = x - c2 * z2;
 717              		.loc 1 159 12 discriminator 2 view .LVU232
 718 0090 D7ED004A 		vldr.32	s9, [r7]
 156:zita-rev1/source/pareq.cpp ****                 c2 += _dc2;
 719              		.loc 1 156 20 discriminator 2 view .LVU233
 720 0094 77EE857A 		vadd.f32	s15, s15, s10
 721              	.LVL73:
 157:zita-rev1/source/pareq.cpp ****                 gg += _dgg;
 722              		.loc 1 157 17 is_stmt 1 discriminator 2 view .LVU234
 157:zita-rev1/source/pareq.cpp ****                 gg += _dgg;
 723              		.loc 1 157 20 is_stmt 0 discriminator 2 view .LVU235
 724 0098 90ED0B5A 		vldr.32	s10, [r0, #44]
 725 009c 37EE057A 		vadd.f32	s14, s14, s10
 726              	.LVL74:
 158:zita-rev1/source/pareq.cpp **** 	        x = *p;
 727              		.loc 1 158 17 is_stmt 1 discriminator 2 view .LVU236
 158:zita-rev1/source/pareq.cpp **** 	        x = *p;
 728              		.loc 1 158 20 is_stmt 0 discriminator 2 view .LVU237
 729 00a0 90ED0D5A 		vldr.32	s10, [r0, #52]
 730 00a4 75EE855A 		vadd.f32	s11, s11, s10
 731              	.LVL75:
 159:zita-rev1/source/pareq.cpp **** 	        y = x - c2 * z2;
 732              		.loc 1 159 10 is_stmt 1 discriminator 2 view .LVU238
ARM GAS  /var/folders/2p/02m_5p7958535cp2tpgps0400000gn/T//ccejspVB.s 			page 24


 160:zita-rev1/source/pareq.cpp **** 		*p++ = x - gg * (z2 + c2 * y - x);
 733              		.loc 1 160 10 discriminator 2 view .LVU239
 160:zita-rev1/source/pareq.cpp **** 		*p++ = x - gg * (z2 + c2 * y - x);
 734              		.loc 1 160 12 is_stmt 0 discriminator 2 view .LVU240
 735 00a8 B0EE645A 		vmov.f32	s10, s9
 736 00ac A6EEC75A 		vfms.f32	s10, s13, s14
 737              	.LVL76:
 161:zita-rev1/source/pareq.cpp **** 	        y -= c1 * z1;
 738              		.loc 1 161 3 is_stmt 1 discriminator 2 view .LVU241
 161:zita-rev1/source/pareq.cpp **** 	        y -= c1 * z1;
 739              		.loc 1 161 23 is_stmt 0 discriminator 2 view .LVU242
 740 00b0 E7EE056A 		vfma.f32	s13, s14, s10
 741              	.LVL77:
 162:zita-rev1/source/pareq.cpp **** 	        z2 = z1 + c1 * y;
 742              		.loc 1 162 12 discriminator 2 view .LVU243
 743 00b4 A6EE675A 		vfms.f32	s10, s12, s15
 744              	.LVL78:
 161:zita-rev1/source/pareq.cpp **** 	        y -= c1 * z1;
 745              		.loc 1 161 32 discriminator 2 view .LVU244
 746 00b8 76EEE46A 		vsub.f32	s13, s13, s9
 161:zita-rev1/source/pareq.cpp **** 	        y -= c1 * z1;
 747              		.loc 1 161 12 discriminator 2 view .LVU245
 748 00bc E6EEE54A 		vfms.f32	s9, s13, s11
 749              	.LVL79:
 163:zita-rev1/source/pareq.cpp **** 	        z1 = y + 1e-20f;
 750              		.loc 1 163 13 discriminator 2 view .LVU246
 751 00c0 F0EE466A 		vmov.f32	s13, s12
 164:zita-rev1/source/pareq.cpp **** 	    }
 752              		.loc 1 164 13 discriminator 2 view .LVU247
 753 00c4 9FED0D6A 		vldr.32	s12, .L56
 754              	.LVL80:
 164:zita-rev1/source/pareq.cpp **** 	    }
 755              		.loc 1 164 13 discriminator 2 view .LVU248
 756 00c8 35EE066A 		vadd.f32	s12, s10, s12
 163:zita-rev1/source/pareq.cpp **** 	        z1 = y + 1e-20f;
 757              		.loc 1 163 13 discriminator 2 view .LVU249
 758 00cc E7EE856A 		vfma.f32	s13, s15, s10
 759              	.LVL81:
 161:zita-rev1/source/pareq.cpp **** 	        y -= c1 * z1;
 760              		.loc 1 161 8 discriminator 2 view .LVU250
 761 00d0 E7EC014A 		vstmia.32	r7!, {s9}
 762              	.LVL82:
 162:zita-rev1/source/pareq.cpp **** 	        z2 = z1 + c1 * y;
 763              		.loc 1 162 10 is_stmt 1 discriminator 2 view .LVU251
 163:zita-rev1/source/pareq.cpp **** 	        z1 = y + 1e-20f;
 764              		.loc 1 163 10 discriminator 2 view .LVU252
 164:zita-rev1/source/pareq.cpp **** 	    }
 765              		.loc 1 164 10 discriminator 2 view .LVU253
 154:zita-rev1/source/pareq.cpp ****             {
 766              		.loc 1 154 13 discriminator 2 view .LVU254
 154:zita-rev1/source/pareq.cpp ****             {
 767              		.loc 1 154 13 is_stmt 0 discriminator 2 view .LVU255
 768 00d4 D7E7     		b	.L49
 769              	.LVL83:
 770              	.L48:
 166:zita-rev1/source/pareq.cpp ****             _z2 [i] = z2;
 771              		.loc 1 166 13 is_stmt 1 discriminator 2 view .LVU256
ARM GAS  /var/folders/2p/02m_5p7958535cp2tpgps0400000gn/T//ccejspVB.s 			page 25


 166:zita-rev1/source/pareq.cpp ****             _z2 [i] = z2;
 772              		.loc 1 166 21 is_stmt 0 discriminator 2 view .LVU257
 773 00d6 A4EC016A 		vstmia.32	r4!, {s12}
 167:zita-rev1/source/pareq.cpp **** 	}
 774              		.loc 1 167 13 is_stmt 1 discriminator 2 view .LVU258
 146:zita-rev1/source/pareq.cpp **** 	{
 775              		.loc 1 146 2 is_stmt 0 discriminator 2 view .LVU259
 776 00da 0135     		adds	r5, r5, #1
 777              	.LVL84:
 167:zita-rev1/source/pareq.cpp **** 	}
 778              		.loc 1 167 21 discriminator 2 view .LVU260
 779 00dc C4ED036A 		vstr.32	s13, [r4, #12]
 146:zita-rev1/source/pareq.cpp **** 	{
 780              		.loc 1 146 2 is_stmt 1 discriminator 2 view .LVU261
 781              	.LVL85:
 146:zita-rev1/source/pareq.cpp **** 	{
 782              		.loc 1 146 2 is_stmt 0 discriminator 2 view .LVU262
 783 00e0 C2E7     		b	.L50
 784              	.LVL86:
 785              	.L47:
 169:zita-rev1/source/pareq.cpp ****         _c2 = c2;
 786              		.loc 1 169 9 is_stmt 1 view .LVU263
 169:zita-rev1/source/pareq.cpp ****         _c2 = c2;
 787              		.loc 1 169 13 is_stmt 0 view .LVU264
 788 00e2 C0ED087A 		vstr.32	s15, [r0, #32]
 170:zita-rev1/source/pareq.cpp ****         _gg = gg;
 789              		.loc 1 170 9 is_stmt 1 view .LVU265
 170:zita-rev1/source/pareq.cpp ****         _gg = gg;
 790              		.loc 1 170 13 is_stmt 0 view .LVU266
 791 00e6 80ED0A7A 		vstr.32	s14, [r0, #40]
 171:zita-rev1/source/pareq.cpp ****     }
 792              		.loc 1 171 9 is_stmt 1 view .LVU267
 171:zita-rev1/source/pareq.cpp ****     }
 793              		.loc 1 171 13 is_stmt 0 view .LVU268
 794 00ea C0ED0C5A 		vstr.32	s11, [r0, #48]
 795              	.LVL87:
 796              	.L44:
 188:zita-rev1/source/pareq.cpp **** 	    }
 189:zita-rev1/source/pareq.cpp ****             _z1 [i] = z1;
 190:zita-rev1/source/pareq.cpp ****             _z2 [i] = z2;
 191:zita-rev1/source/pareq.cpp **** 	}
 192:zita-rev1/source/pareq.cpp ****     }
 193:zita-rev1/source/pareq.cpp **** }
 797              		.loc 1 193 1 view .LVU269
 798 00ee F0BD     		pop	{r4, r5, r6, r7, pc}
 799              	.LVL88:
 800              	.L52:
 189:zita-rev1/source/pareq.cpp ****             _z2 [i] = z2;
 801              		.loc 1 189 13 is_stmt 1 discriminator 2 view .LVU270
 189:zita-rev1/source/pareq.cpp ****             _z2 [i] = z2;
 802              		.loc 1 189 21 is_stmt 0 discriminator 2 view .LVU271
 803 00f0 A0EC016A 		vstmia.32	r0!, {s12}
 190:zita-rev1/source/pareq.cpp **** 	}
 804              		.loc 1 190 13 is_stmt 1 discriminator 2 view .LVU272
 175:zita-rev1/source/pareq.cpp **** 	{
 805              		.loc 1 175 2 is_stmt 0 discriminator 2 view .LVU273
 806 00f4 0134     		adds	r4, r4, #1
ARM GAS  /var/folders/2p/02m_5p7958535cp2tpgps0400000gn/T//ccejspVB.s 			page 26


 807              	.LVL89:
 190:zita-rev1/source/pareq.cpp **** 	}
 808              		.loc 1 190 21 discriminator 2 view .LVU274
 809 00f6 C0ED036A 		vstr.32	s13, [r0, #12]
 175:zita-rev1/source/pareq.cpp **** 	{
 810              		.loc 1 175 2 is_stmt 1 discriminator 2 view .LVU275
 811              	.LVL90:
 175:zita-rev1/source/pareq.cpp **** 	{
 812              		.loc 1 175 2 is_stmt 0 discriminator 2 view .LVU276
 813 00fa 8FE7     		b	.L46
 814              	.L57:
 815              		.align	2
 816              	.L56:
 817 00fc 08E53C1E 		.word	507307272
 818              		.cfi_endproc
 819              	.LFE556:
 821              		.text
 822              	.Letext0:
 823              		.file 3 "/Library/DaisyToolchain/0.2.0/arm/arm-none-eabi/include/machine/_default_types.h"
 824              		.file 4 "/Library/DaisyToolchain/0.2.0/arm/arm-none-eabi/include/sys/_stdint.h"
 825              		.file 5 "/Library/DaisyToolchain/0.2.0/arm/arm-none-eabi/include/c++/10.3.1/bits/std_abs.h"
 826              		.file 6 "/Library/DaisyToolchain/0.2.0/arm/arm-none-eabi/include/c++/10.3.1/arm-none-eabi/thumb/v7
 827              		.file 7 "/Library/DaisyToolchain/0.2.0/arm/arm-none-eabi/include/math.h"
 828              		.file 8 "/Library/DaisyToolchain/0.2.0/arm/arm-none-eabi/include/c++/10.3.1/math.h"
 829              		.file 9 "zita-rev1/source/pareq.h"
 830              		.file 10 "<built-in>"
ARM GAS  /var/folders/2p/02m_5p7958535cp2tpgps0400000gn/T//ccejspVB.s 			page 27


DEFINED SYMBOLS
                            *ABS*:0000000000000000 pareq.cpp
/var/folders/2p/02m_5p7958535cp2tpgps0400000gn/T//ccejspVB.s:19     .text._ZN5PareqD2Ev:0000000000000000 $t
/var/folders/2p/02m_5p7958535cp2tpgps0400000gn/T//ccejspVB.s:25     .text._ZN5PareqD2Ev:0000000000000000 _ZN5PareqD2Ev
/var/folders/2p/02m_5p7958535cp2tpgps0400000gn/T//ccejspVB.s:25     .text._ZN5PareqD2Ev:0000000000000000 _ZN5PareqD1Ev
/var/folders/2p/02m_5p7958535cp2tpgps0400000gn/T//ccejspVB.s:42     .text._ZN5Pareq5resetEv:0000000000000000 $t
/var/folders/2p/02m_5p7958535cp2tpgps0400000gn/T//ccejspVB.s:48     .text._ZN5Pareq5resetEv:0000000000000000 _ZN5Pareq5resetEv
/var/folders/2p/02m_5p7958535cp2tpgps0400000gn/T//ccejspVB.s:90     .text._ZN5Pareq8setfsampEf:0000000000000000 $t
/var/folders/2p/02m_5p7958535cp2tpgps0400000gn/T//ccejspVB.s:96     .text._ZN5Pareq8setfsampEf:0000000000000000 _ZN5Pareq8setfsampEf
/var/folders/2p/02m_5p7958535cp2tpgps0400000gn/T//ccejspVB.s:116    .text._ZN5PareqC2Ev:0000000000000000 $t
/var/folders/2p/02m_5p7958535cp2tpgps0400000gn/T//ccejspVB.s:122    .text._ZN5PareqC2Ev:0000000000000000 _ZN5PareqC2Ev
/var/folders/2p/02m_5p7958535cp2tpgps0400000gn/T//ccejspVB.s:180    .text._ZN5PareqC2Ev:0000000000000028 $d
/var/folders/2p/02m_5p7958535cp2tpgps0400000gn/T//ccejspVB.s:122    .text._ZN5PareqC2Ev:0000000000000000 _ZN5PareqC1Ev
/var/folders/2p/02m_5p7958535cp2tpgps0400000gn/T//ccejspVB.s:187    .text._ZN5Pareq8calcpar1Eiff:0000000000000000 $t
/var/folders/2p/02m_5p7958535cp2tpgps0400000gn/T//ccejspVB.s:193    .text._ZN5Pareq8calcpar1Eiff:0000000000000000 _ZN5Pareq8calcpar1Eiff
/var/folders/2p/02m_5p7958535cp2tpgps0400000gn/T//ccejspVB.s:330    .text._ZN5Pareq8calcpar1Eiff:00000000000000b0 $d
/var/folders/2p/02m_5p7958535cp2tpgps0400000gn/T//ccejspVB.s:336    .text._ZN5Pareq7prepareEi:0000000000000000 $t
/var/folders/2p/02m_5p7958535cp2tpgps0400000gn/T//ccejspVB.s:342    .text._ZN5Pareq7prepareEi:0000000000000000 _ZN5Pareq7prepareEi
/var/folders/2p/02m_5p7958535cp2tpgps0400000gn/T//ccejspVB.s:551    .text._ZN5Pareq7prepareEi:00000000000000f8 $d
/var/folders/2p/02m_5p7958535cp2tpgps0400000gn/T//ccejspVB.s:556    .text._ZN5Pareq8process1EiiPPf:0000000000000000 $t
/var/folders/2p/02m_5p7958535cp2tpgps0400000gn/T//ccejspVB.s:562    .text._ZN5Pareq8process1EiiPPf:0000000000000000 _ZN5Pareq8process1EiiPPf
/var/folders/2p/02m_5p7958535cp2tpgps0400000gn/T//ccejspVB.s:817    .text._ZN5Pareq8process1EiiPPf:00000000000000fc $d

UNDEFINED SYMBOLS
memset
sqrtf
cosf
