ARM GAS  /var/folders/2p/02m_5p7958535cp2tpgps0400000gn/T//cc0Z3V5w.s 			page 1


   1              		.cpu cortex-m7
   2              		.arch armv7e-m
   3              		.fpu fpv5-d16
   4              		.eabi_attribute 28, 1
   5              		.eabi_attribute 20, 1
   6              		.eabi_attribute 21, 1
   7              		.eabi_attribute 23, 3
   8              		.eabi_attribute 24, 1
   9              		.eabi_attribute 25, 1
  10              		.eabi_attribute 26, 1
  11              		.eabi_attribute 30, 2
  12              		.eabi_attribute 34, 1
  13              		.eabi_attribute 18, 4
  14              		.file	"reverb.cpp"
  15              		.text
  16              	.Ltext0:
  17              		.cfi_sections	.debug_frame
  18              		.section	.text._ZN5Diff1C2Ev,"ax",%progbits
  19              		.align	1
  20              		.p2align 2,,3
  21              		.global	_ZN5Diff1C2Ev
  22              		.syntax unified
  23              		.thumb
  24              		.thumb_func
  26              	_ZN5Diff1C2Ev:
  27              	.LVL0:
  28              	.LFB569:
  29              		.file 1 "zita-rev1/source/reverb.cpp"
   1:zita-rev1/source/reverb.cpp **** // ----------------------------------------------------------------------------
   2:zita-rev1/source/reverb.cpp **** //
   3:zita-rev1/source/reverb.cpp **** //  Copyright (C) 2003-2017 Fons Adriaensen <fons@linuxaudio.org>
   4:zita-rev1/source/reverb.cpp **** //    
   5:zita-rev1/source/reverb.cpp **** //  This program is free software; you can redistribute it and/or modify
   6:zita-rev1/source/reverb.cpp **** //  it under the terms of the GNU General Public License as published by
   7:zita-rev1/source/reverb.cpp **** //  the Free Software Foundation; either version 3 of the License, or
   8:zita-rev1/source/reverb.cpp **** //  (at your option) any later version.
   9:zita-rev1/source/reverb.cpp **** //
  10:zita-rev1/source/reverb.cpp **** //  This program is distributed in the hope that it will be useful,
  11:zita-rev1/source/reverb.cpp **** //  but WITHOUT ANY WARRANTY; without even the implied warranty of
  12:zita-rev1/source/reverb.cpp **** //  MERCHANTABILITY or FITNESS FOR A PARTICULAR PURPOSE.  See the
  13:zita-rev1/source/reverb.cpp **** //  GNU General Public License for more details.
  14:zita-rev1/source/reverb.cpp **** //
  15:zita-rev1/source/reverb.cpp **** //  You should have received a copy of the GNU General Public License
  16:zita-rev1/source/reverb.cpp **** //  along with this program.  If not, see <http://www.gnu.org/licenses/>.
  17:zita-rev1/source/reverb.cpp **** //
  18:zita-rev1/source/reverb.cpp **** // ----------------------------------------------------------------------------
  19:zita-rev1/source/reverb.cpp **** 
  20:zita-rev1/source/reverb.cpp **** 
  21:zita-rev1/source/reverb.cpp **** #include <stdio.h>
  22:zita-rev1/source/reverb.cpp **** #include <string.h>
  23:zita-rev1/source/reverb.cpp **** #include <math.h>
  24:zita-rev1/source/reverb.cpp **** #include "reverb.h"
  25:zita-rev1/source/reverb.cpp **** 
  26:zita-rev1/source/reverb.cpp **** 
  27:zita-rev1/source/reverb.cpp **** // -----------------------------------------------------------------------
  28:zita-rev1/source/reverb.cpp **** 
  29:zita-rev1/source/reverb.cpp **** 
ARM GAS  /var/folders/2p/02m_5p7958535cp2tpgps0400000gn/T//cc0Z3V5w.s 			page 2


  30:zita-rev1/source/reverb.cpp **** Diff1::Diff1 (void) :
  30              		.loc 1 30 1 view -0
  31              		.cfi_startproc
  32              		@ args = 0, pretend = 0, frame = 0
  33              		@ frame_needed = 0, uses_anonymous_args = 0
  34              		@ link register save eliminated.
  35              	.LBB134:
  31:zita-rev1/source/reverb.cpp ****     _size (0),
  32:zita-rev1/source/reverb.cpp ****     _line (0)
  36              		.loc 1 32 13 is_stmt 0 view .LVU1
  37 0000 0022     		movs	r2, #0
  38 0002 C0E90222 		strd	r2, r2, [r0, #8]
  39              	.LBE134:
  33:zita-rev1/source/reverb.cpp **** {
  34:zita-rev1/source/reverb.cpp **** }    
  40              		.loc 1 34 1 view .LVU2
  41 0006 7047     		bx	lr
  42              		.cfi_endproc
  43              	.LFE569:
  45              		.global	_ZN5Diff1C1Ev
  46              		.thumb_set _ZN5Diff1C1Ev,_ZN5Diff1C2Ev
  47              		.section	.text._ZN5Diff1D2Ev,"ax",%progbits
  48              		.align	1
  49              		.p2align 2,,3
  50              		.global	_ZN5Diff1D2Ev
  51              		.syntax unified
  52              		.thumb
  53              		.thumb_func
  55              	_ZN5Diff1D2Ev:
  56              	.LVL1:
  57              	.LFB572:
  35:zita-rev1/source/reverb.cpp **** 
  36:zita-rev1/source/reverb.cpp **** 
  37:zita-rev1/source/reverb.cpp **** Diff1::~Diff1 (void)
  58              		.loc 1 37 1 is_stmt 1 view -0
  59              		.cfi_startproc
  60              		@ args = 0, pretend = 0, frame = 0
  61              		@ frame_needed = 0, uses_anonymous_args = 0
  38:zita-rev1/source/reverb.cpp **** {
  39:zita-rev1/source/reverb.cpp ****     fini ();
  62              		.loc 1 39 5 view .LVU4
  37:zita-rev1/source/reverb.cpp **** {
  63              		.loc 1 37 1 is_stmt 0 view .LVU5
  64 0000 10B5     		push	{r4, lr}
  65              		.cfi_def_cfa_offset 8
  66              		.cfi_offset 4, -8
  67              		.cfi_offset 14, -4
  37:zita-rev1/source/reverb.cpp **** {
  68              		.loc 1 37 1 view .LVU6
  69 0002 0446     		mov	r4, r0
  70              	.LVL2:
  71              	.LBB135:
  72              	.LBI135:
  40:zita-rev1/source/reverb.cpp **** }
  41:zita-rev1/source/reverb.cpp **** 
  42:zita-rev1/source/reverb.cpp **** 
  43:zita-rev1/source/reverb.cpp **** void Diff1::init (int size, float c)
ARM GAS  /var/folders/2p/02m_5p7958535cp2tpgps0400000gn/T//cc0Z3V5w.s 			page 3


  44:zita-rev1/source/reverb.cpp **** {
  45:zita-rev1/source/reverb.cpp ****     _size = size;
  46:zita-rev1/source/reverb.cpp ****     _line = new float [size];
  47:zita-rev1/source/reverb.cpp ****     memset (_line, 0, size * sizeof (float));
  48:zita-rev1/source/reverb.cpp ****     _i = 0;
  49:zita-rev1/source/reverb.cpp ****     _c = c;
  50:zita-rev1/source/reverb.cpp **** }
  51:zita-rev1/source/reverb.cpp **** 
  52:zita-rev1/source/reverb.cpp **** 
  53:zita-rev1/source/reverb.cpp **** void Diff1::fini (void)
  73              		.loc 1 53 6 is_stmt 1 view .LVU7
  74              	.LBB136:
  54:zita-rev1/source/reverb.cpp **** {
  55:zita-rev1/source/reverb.cpp ****     delete[] _line;
  75              		.loc 1 55 5 view .LVU8
  76              		.loc 1 55 14 is_stmt 0 view .LVU9
  77 0004 C068     		ldr	r0, [r0, #12]
  78              	.LVL3:
  79              		.loc 1 55 5 view .LVU10
  80 0006 08B1     		cbz	r0, .L4
  81              		.loc 1 55 14 view .LVU11
  82 0008 FFF7FEFF 		bl	_ZdaPv
  83              	.LVL4:
  84              	.L4:
  56:zita-rev1/source/reverb.cpp ****     _size = 0;
  85              		.loc 1 56 5 is_stmt 1 view .LVU12
  57:zita-rev1/source/reverb.cpp ****     _line = 0;
  86              		.loc 1 57 5 view .LVU13
  87              		.loc 1 57 5 is_stmt 0 view .LVU14
  88              	.LBE136:
  89              	.LBE135:
  40:zita-rev1/source/reverb.cpp **** 
  90              		.loc 1 40 1 view .LVU15
  91 000c 2046     		mov	r0, r4
  92 000e 10BD     		pop	{r4, pc}
  40:zita-rev1/source/reverb.cpp **** 
  93              		.loc 1 40 1 view .LVU16
  94              		.cfi_endproc
  95              	.LFE572:
  97              		.global	_ZN5Diff1D1Ev
  98              		.thumb_set _ZN5Diff1D1Ev,_ZN5Diff1D2Ev
  99              		.section	.text._ZN5Diff14initEif,"ax",%progbits
 100              		.align	1
 101              		.p2align 2,,3
 102              		.global	_ZN5Diff14initEif
 103              		.syntax unified
 104              		.thumb
 105              		.thumb_func
 107              	_ZN5Diff14initEif:
 108              	.LVL5:
 109              	.LFB574:
  44:zita-rev1/source/reverb.cpp ****     _size = size;
 110              		.loc 1 44 1 is_stmt 1 view -0
 111              		.cfi_startproc
 112              		@ args = 0, pretend = 0, frame = 8
 113              		@ frame_needed = 0, uses_anonymous_args = 0
  45:zita-rev1/source/reverb.cpp ****     _line = new float [size];
ARM GAS  /var/folders/2p/02m_5p7958535cp2tpgps0400000gn/T//cc0Z3V5w.s 			page 4


 114              		.loc 1 45 5 view .LVU18
  46:zita-rev1/source/reverb.cpp ****     memset (_line, 0, size * sizeof (float));
 115              		.loc 1 46 28 is_stmt 0 view .LVU19
 116 0000 6FF06043 		mvn	r3, #-536870912
 117 0004 9942     		cmp	r1, r3
  44:zita-rev1/source/reverb.cpp ****     _size = size;
 118              		.loc 1 44 1 view .LVU20
 119 0006 10B5     		push	{r4, lr}
 120              		.cfi_def_cfa_offset 8
 121              		.cfi_offset 4, -8
 122              		.cfi_offset 14, -4
 123 0008 0446     		mov	r4, r0
 124 000a 2DED028B 		vpush.64	{d8}
 125              		.cfi_def_cfa_offset 16
 126              		.cfi_offset 80, -16
 127              		.cfi_offset 81, -12
 128 000e B0EE408A 		vmov.f32	s16, s0
 129 0012 82B0     		sub	sp, sp, #8
 130              		.cfi_def_cfa_offset 24
  45:zita-rev1/source/reverb.cpp ****     _line = new float [size];
 131              		.loc 1 45 11 view .LVU21
 132 0014 8160     		str	r1, [r0, #8]
  46:zita-rev1/source/reverb.cpp ****     memset (_line, 0, size * sizeof (float));
 133              		.loc 1 46 5 is_stmt 1 view .LVU22
  46:zita-rev1/source/reverb.cpp ****     memset (_line, 0, size * sizeof (float));
 134              		.loc 1 46 28 is_stmt 0 view .LVU23
 135 0016 12D3     		bcc	.L10
 136 0018 8A00     		lsls	r2, r1, #2
 137 001a 4FF0FF30 		mov	r0, #-1
 138              	.LVL6:
 139              	.L11:
  46:zita-rev1/source/reverb.cpp ****     memset (_line, 0, size * sizeof (float));
 140              		.loc 1 46 28 view .LVU24
 141 001e 0192     		str	r2, [sp, #4]
  46:zita-rev1/source/reverb.cpp ****     memset (_line, 0, size * sizeof (float));
 142              		.loc 1 46 28 discriminator 4 view .LVU25
 143 0020 FFF7FEFF 		bl	_Znaj
 144              	.LVL7:
  47:zita-rev1/source/reverb.cpp ****     _i = 0;
 145              		.loc 1 47 12 discriminator 4 view .LVU26
 146 0024 019A     		ldr	r2, [sp, #4]
 147 0026 0021     		movs	r1, #0
  46:zita-rev1/source/reverb.cpp ****     memset (_line, 0, size * sizeof (float));
 148              		.loc 1 46 11 discriminator 4 view .LVU27
 149 0028 E060     		str	r0, [r4, #12]
  47:zita-rev1/source/reverb.cpp ****     _i = 0;
 150              		.loc 1 47 5 is_stmt 1 discriminator 4 view .LVU28
  47:zita-rev1/source/reverb.cpp ****     _i = 0;
 151              		.loc 1 47 12 is_stmt 0 discriminator 4 view .LVU29
 152 002a FFF7FEFF 		bl	memset
 153              	.LVL8:
  48:zita-rev1/source/reverb.cpp ****     _c = c;
 154              		.loc 1 48 5 is_stmt 1 discriminator 4 view .LVU30
  48:zita-rev1/source/reverb.cpp ****     _c = c;
 155              		.loc 1 48 8 is_stmt 0 discriminator 4 view .LVU31
 156 002e 0023     		movs	r3, #0
  49:zita-rev1/source/reverb.cpp **** }
ARM GAS  /var/folders/2p/02m_5p7958535cp2tpgps0400000gn/T//cc0Z3V5w.s 			page 5


 157              		.loc 1 49 8 discriminator 4 view .LVU32
 158 0030 84ED018A 		vstr.32	s16, [r4, #4]
  48:zita-rev1/source/reverb.cpp ****     _c = c;
 159              		.loc 1 48 8 discriminator 4 view .LVU33
 160 0034 2360     		str	r3, [r4]
  49:zita-rev1/source/reverb.cpp **** }
 161              		.loc 1 49 5 is_stmt 1 discriminator 4 view .LVU34
  50:zita-rev1/source/reverb.cpp **** 
 162              		.loc 1 50 1 is_stmt 0 discriminator 4 view .LVU35
 163 0036 02B0     		add	sp, sp, #8
 164              		.cfi_remember_state
 165              		.cfi_def_cfa_offset 16
 166              		@ sp needed
 167 0038 BDEC028B 		vldm	sp!, {d8}
 168              		.cfi_restore 80
 169              		.cfi_restore 81
 170              		.cfi_def_cfa_offset 8
 171              	.LVL9:
  50:zita-rev1/source/reverb.cpp **** 
 172              		.loc 1 50 1 discriminator 4 view .LVU36
 173 003c 10BD     		pop	{r4, pc}
 174              	.LVL10:
 175              	.L10:
 176              		.cfi_restore_state
  46:zita-rev1/source/reverb.cpp ****     memset (_line, 0, size * sizeof (float));
 177              		.loc 1 46 28 discriminator 1 view .LVU37
 178 003e 8800     		lsls	r0, r1, #2
 179              	.LVL11:
  46:zita-rev1/source/reverb.cpp ****     memset (_line, 0, size * sizeof (float));
 180              		.loc 1 46 28 discriminator 1 view .LVU38
 181 0040 0246     		mov	r2, r0
 182 0042 ECE7     		b	.L11
 183              		.cfi_endproc
 184              	.LFE574:
 186              		.section	.text._ZN5Diff14finiEv,"ax",%progbits
 187              		.align	1
 188              		.p2align 2,,3
 189              		.global	_ZN5Diff14finiEv
 190              		.syntax unified
 191              		.thumb
 192              		.thumb_func
 194              	_ZN5Diff14finiEv:
 195              	.LVL12:
 196              	.LFB575:
  54:zita-rev1/source/reverb.cpp ****     delete[] _line;
 197              		.loc 1 54 1 is_stmt 1 view -0
 198              		.cfi_startproc
 199              		@ args = 0, pretend = 0, frame = 0
 200              		@ frame_needed = 0, uses_anonymous_args = 0
  55:zita-rev1/source/reverb.cpp ****     _size = 0;
 201              		.loc 1 55 5 view .LVU40
  54:zita-rev1/source/reverb.cpp ****     delete[] _line;
 202              		.loc 1 54 1 is_stmt 0 view .LVU41
 203 0000 10B5     		push	{r4, lr}
 204              		.cfi_def_cfa_offset 8
 205              		.cfi_offset 4, -8
 206              		.cfi_offset 14, -4
ARM GAS  /var/folders/2p/02m_5p7958535cp2tpgps0400000gn/T//cc0Z3V5w.s 			page 6


  54:zita-rev1/source/reverb.cpp ****     delete[] _line;
 207              		.loc 1 54 1 view .LVU42
 208 0002 0446     		mov	r4, r0
  55:zita-rev1/source/reverb.cpp ****     _size = 0;
 209              		.loc 1 55 14 view .LVU43
 210 0004 C068     		ldr	r0, [r0, #12]
 211              	.LVL13:
  55:zita-rev1/source/reverb.cpp ****     _size = 0;
 212              		.loc 1 55 5 view .LVU44
 213 0006 08B1     		cbz	r0, .L14
  55:zita-rev1/source/reverb.cpp ****     _size = 0;
 214              		.loc 1 55 14 discriminator 1 view .LVU45
 215 0008 FFF7FEFF 		bl	_ZdaPv
 216              	.LVL14:
 217              	.L14:
  56:zita-rev1/source/reverb.cpp ****     _line = 0;
 218              		.loc 1 56 5 is_stmt 1 view .LVU46
  56:zita-rev1/source/reverb.cpp ****     _line = 0;
 219              		.loc 1 56 11 is_stmt 0 view .LVU47
 220 000c 0023     		movs	r3, #0
 221              		.loc 1 57 11 view .LVU48
 222 000e C4E90233 		strd	r3, r3, [r4, #8]
  58:zita-rev1/source/reverb.cpp **** }
 223              		.loc 1 58 1 view .LVU49
 224 0012 10BD     		pop	{r4, pc}
 225              		.loc 1 58 1 view .LVU50
 226              		.cfi_endproc
 227              	.LFE575:
 229              		.section	.text._ZN5DelayC2Ev,"ax",%progbits
 230              		.align	1
 231              		.p2align 2,,3
 232              		.global	_ZN5DelayC2Ev
 233              		.syntax unified
 234              		.thumb
 235              		.thumb_func
 237              	_ZN5DelayC2Ev:
 238              	.LVL15:
 239              	.LFB577:
  59:zita-rev1/source/reverb.cpp **** 
  60:zita-rev1/source/reverb.cpp **** 
  61:zita-rev1/source/reverb.cpp **** // -----------------------------------------------------------------------
  62:zita-rev1/source/reverb.cpp **** 
  63:zita-rev1/source/reverb.cpp **** 
  64:zita-rev1/source/reverb.cpp **** Delay::Delay (void) :
 240              		.loc 1 64 1 is_stmt 1 view -0
 241              		.cfi_startproc
 242              		@ args = 0, pretend = 0, frame = 0
 243              		@ frame_needed = 0, uses_anonymous_args = 0
 244              		@ link register save eliminated.
 245              	.LBB137:
  65:zita-rev1/source/reverb.cpp ****     _size (0),
  66:zita-rev1/source/reverb.cpp ****     _line (0)
 246              		.loc 1 66 13 is_stmt 0 view .LVU52
 247 0000 0022     		movs	r2, #0
 248 0002 C0E90122 		strd	r2, r2, [r0, #4]
 249              	.LBE137:
  67:zita-rev1/source/reverb.cpp **** {
ARM GAS  /var/folders/2p/02m_5p7958535cp2tpgps0400000gn/T//cc0Z3V5w.s 			page 7


  68:zita-rev1/source/reverb.cpp **** }
 250              		.loc 1 68 1 view .LVU53
 251 0006 7047     		bx	lr
 252              		.cfi_endproc
 253              	.LFE577:
 255              		.global	_ZN5DelayC1Ev
 256              		.thumb_set _ZN5DelayC1Ev,_ZN5DelayC2Ev
 257              		.section	.text._ZN5DelayD2Ev,"ax",%progbits
 258              		.align	1
 259              		.p2align 2,,3
 260              		.global	_ZN5DelayD2Ev
 261              		.syntax unified
 262              		.thumb
 263              		.thumb_func
 265              	_ZN5DelayD2Ev:
 266              	.LVL16:
 267              	.LFB580:
  69:zita-rev1/source/reverb.cpp **** 
  70:zita-rev1/source/reverb.cpp **** 
  71:zita-rev1/source/reverb.cpp **** Delay::~Delay (void)
 268              		.loc 1 71 1 is_stmt 1 view -0
 269              		.cfi_startproc
 270              		@ args = 0, pretend = 0, frame = 0
 271              		@ frame_needed = 0, uses_anonymous_args = 0
  72:zita-rev1/source/reverb.cpp **** {
  73:zita-rev1/source/reverb.cpp ****     fini ();
 272              		.loc 1 73 5 view .LVU55
  71:zita-rev1/source/reverb.cpp **** {
 273              		.loc 1 71 1 is_stmt 0 view .LVU56
 274 0000 10B5     		push	{r4, lr}
 275              		.cfi_def_cfa_offset 8
 276              		.cfi_offset 4, -8
 277              		.cfi_offset 14, -4
  71:zita-rev1/source/reverb.cpp **** {
 278              		.loc 1 71 1 view .LVU57
 279 0002 0446     		mov	r4, r0
 280              	.LVL17:
 281              	.LBB138:
 282              	.LBI138:
  74:zita-rev1/source/reverb.cpp **** }
  75:zita-rev1/source/reverb.cpp **** 
  76:zita-rev1/source/reverb.cpp **** 
  77:zita-rev1/source/reverb.cpp **** void Delay::init (int size)
  78:zita-rev1/source/reverb.cpp **** {
  79:zita-rev1/source/reverb.cpp ****     _size = size;
  80:zita-rev1/source/reverb.cpp ****     _line = new float [size];
  81:zita-rev1/source/reverb.cpp ****     memset (_line, 0, size * sizeof (float));
  82:zita-rev1/source/reverb.cpp ****     _i = 0;
  83:zita-rev1/source/reverb.cpp **** }
  84:zita-rev1/source/reverb.cpp **** 
  85:zita-rev1/source/reverb.cpp **** 
  86:zita-rev1/source/reverb.cpp **** void Delay::fini (void)
 283              		.loc 1 86 6 is_stmt 1 view .LVU58
 284              	.LBB139:
  87:zita-rev1/source/reverb.cpp **** {
  88:zita-rev1/source/reverb.cpp ****     delete[] _line;
 285              		.loc 1 88 5 view .LVU59
ARM GAS  /var/folders/2p/02m_5p7958535cp2tpgps0400000gn/T//cc0Z3V5w.s 			page 8


 286              		.loc 1 88 14 is_stmt 0 view .LVU60
 287 0004 8068     		ldr	r0, [r0, #8]
 288              	.LVL18:
 289              		.loc 1 88 5 view .LVU61
 290 0006 08B1     		cbz	r0, .L21
 291              		.loc 1 88 14 view .LVU62
 292 0008 FFF7FEFF 		bl	_ZdaPv
 293              	.LVL19:
 294              	.L21:
  89:zita-rev1/source/reverb.cpp ****     _size = 0;
 295              		.loc 1 89 5 is_stmt 1 view .LVU63
  90:zita-rev1/source/reverb.cpp ****     _line = 0;
 296              		.loc 1 90 5 view .LVU64
 297              		.loc 1 90 5 is_stmt 0 view .LVU65
 298              	.LBE139:
 299              	.LBE138:
  74:zita-rev1/source/reverb.cpp **** 
 300              		.loc 1 74 1 view .LVU66
 301 000c 2046     		mov	r0, r4
 302 000e 10BD     		pop	{r4, pc}
  74:zita-rev1/source/reverb.cpp **** 
 303              		.loc 1 74 1 view .LVU67
 304              		.cfi_endproc
 305              	.LFE580:
 307              		.global	_ZN5DelayD1Ev
 308              		.thumb_set _ZN5DelayD1Ev,_ZN5DelayD2Ev
 309              		.section	.text._ZN5Delay4initEi,"ax",%progbits
 310              		.align	1
 311              		.p2align 2,,3
 312              		.global	_ZN5Delay4initEi
 313              		.syntax unified
 314              		.thumb
 315              		.thumb_func
 317              	_ZN5Delay4initEi:
 318              	.LVL20:
 319              	.LFB582:
  78:zita-rev1/source/reverb.cpp ****     _size = size;
 320              		.loc 1 78 1 is_stmt 1 view -0
 321              		.cfi_startproc
 322              		@ args = 0, pretend = 0, frame = 8
 323              		@ frame_needed = 0, uses_anonymous_args = 0
  79:zita-rev1/source/reverb.cpp ****     _line = new float [size];
 324              		.loc 1 79 5 view .LVU69
  80:zita-rev1/source/reverb.cpp ****     memset (_line, 0, size * sizeof (float));
 325              		.loc 1 80 28 is_stmt 0 view .LVU70
 326 0000 6FF06043 		mvn	r3, #-536870912
 327 0004 9942     		cmp	r1, r3
  78:zita-rev1/source/reverb.cpp ****     _size = size;
 328              		.loc 1 78 1 view .LVU71
 329 0006 10B5     		push	{r4, lr}
 330              		.cfi_def_cfa_offset 8
 331              		.cfi_offset 4, -8
 332              		.cfi_offset 14, -4
 333 0008 0446     		mov	r4, r0
 334 000a 82B0     		sub	sp, sp, #8
 335              		.cfi_def_cfa_offset 16
  79:zita-rev1/source/reverb.cpp ****     _line = new float [size];
ARM GAS  /var/folders/2p/02m_5p7958535cp2tpgps0400000gn/T//cc0Z3V5w.s 			page 9


 336              		.loc 1 79 11 view .LVU72
 337 000c 4160     		str	r1, [r0, #4]
  80:zita-rev1/source/reverb.cpp ****     memset (_line, 0, size * sizeof (float));
 338              		.loc 1 80 5 is_stmt 1 view .LVU73
  80:zita-rev1/source/reverb.cpp ****     memset (_line, 0, size * sizeof (float));
 339              		.loc 1 80 28 is_stmt 0 view .LVU74
 340 000e 0ED3     		bcc	.L27
 341 0010 8A00     		lsls	r2, r1, #2
 342 0012 4FF0FF30 		mov	r0, #-1
 343              	.LVL21:
 344              	.L28:
  80:zita-rev1/source/reverb.cpp ****     memset (_line, 0, size * sizeof (float));
 345              		.loc 1 80 28 view .LVU75
 346 0016 0192     		str	r2, [sp, #4]
  80:zita-rev1/source/reverb.cpp ****     memset (_line, 0, size * sizeof (float));
 347              		.loc 1 80 28 discriminator 4 view .LVU76
 348 0018 FFF7FEFF 		bl	_Znaj
 349              	.LVL22:
  81:zita-rev1/source/reverb.cpp ****     _i = 0;
 350              		.loc 1 81 12 discriminator 4 view .LVU77
 351 001c 019A     		ldr	r2, [sp, #4]
 352 001e 0021     		movs	r1, #0
  80:zita-rev1/source/reverb.cpp ****     memset (_line, 0, size * sizeof (float));
 353              		.loc 1 80 11 discriminator 4 view .LVU78
 354 0020 A060     		str	r0, [r4, #8]
  81:zita-rev1/source/reverb.cpp ****     _i = 0;
 355              		.loc 1 81 5 is_stmt 1 discriminator 4 view .LVU79
  81:zita-rev1/source/reverb.cpp ****     _i = 0;
 356              		.loc 1 81 12 is_stmt 0 discriminator 4 view .LVU80
 357 0022 FFF7FEFF 		bl	memset
 358              	.LVL23:
  82:zita-rev1/source/reverb.cpp **** }
 359              		.loc 1 82 5 is_stmt 1 discriminator 4 view .LVU81
  82:zita-rev1/source/reverb.cpp **** }
 360              		.loc 1 82 8 is_stmt 0 discriminator 4 view .LVU82
 361 0026 0023     		movs	r3, #0
 362 0028 2360     		str	r3, [r4]
  83:zita-rev1/source/reverb.cpp **** 
 363              		.loc 1 83 1 discriminator 4 view .LVU83
 364 002a 02B0     		add	sp, sp, #8
 365              		.cfi_remember_state
 366              		.cfi_def_cfa_offset 8
 367              		@ sp needed
 368 002c 10BD     		pop	{r4, pc}
 369              	.LVL24:
 370              	.L27:
 371              		.cfi_restore_state
  80:zita-rev1/source/reverb.cpp ****     memset (_line, 0, size * sizeof (float));
 372              		.loc 1 80 28 discriminator 1 view .LVU84
 373 002e 8800     		lsls	r0, r1, #2
 374              	.LVL25:
  80:zita-rev1/source/reverb.cpp ****     memset (_line, 0, size * sizeof (float));
 375              		.loc 1 80 28 discriminator 1 view .LVU85
 376 0030 0246     		mov	r2, r0
 377 0032 F0E7     		b	.L28
 378              		.cfi_endproc
 379              	.LFE582:
ARM GAS  /var/folders/2p/02m_5p7958535cp2tpgps0400000gn/T//cc0Z3V5w.s 			page 10


 381              		.section	.text._ZN5Delay4finiEv,"ax",%progbits
 382              		.align	1
 383              		.p2align 2,,3
 384              		.global	_ZN5Delay4finiEv
 385              		.syntax unified
 386              		.thumb
 387              		.thumb_func
 389              	_ZN5Delay4finiEv:
 390              	.LVL26:
 391              	.LFB583:
  87:zita-rev1/source/reverb.cpp ****     delete[] _line;
 392              		.loc 1 87 1 is_stmt 1 view -0
 393              		.cfi_startproc
 394              		@ args = 0, pretend = 0, frame = 0
 395              		@ frame_needed = 0, uses_anonymous_args = 0
  88:zita-rev1/source/reverb.cpp ****     _size = 0;
 396              		.loc 1 88 5 view .LVU87
  87:zita-rev1/source/reverb.cpp ****     delete[] _line;
 397              		.loc 1 87 1 is_stmt 0 view .LVU88
 398 0000 10B5     		push	{r4, lr}
 399              		.cfi_def_cfa_offset 8
 400              		.cfi_offset 4, -8
 401              		.cfi_offset 14, -4
  87:zita-rev1/source/reverb.cpp ****     delete[] _line;
 402              		.loc 1 87 1 view .LVU89
 403 0002 0446     		mov	r4, r0
  88:zita-rev1/source/reverb.cpp ****     _size = 0;
 404              		.loc 1 88 14 view .LVU90
 405 0004 8068     		ldr	r0, [r0, #8]
 406              	.LVL27:
  88:zita-rev1/source/reverb.cpp ****     _size = 0;
 407              		.loc 1 88 5 view .LVU91
 408 0006 08B1     		cbz	r0, .L31
  88:zita-rev1/source/reverb.cpp ****     _size = 0;
 409              		.loc 1 88 14 discriminator 1 view .LVU92
 410 0008 FFF7FEFF 		bl	_ZdaPv
 411              	.LVL28:
 412              	.L31:
  89:zita-rev1/source/reverb.cpp ****     _line = 0;
 413              		.loc 1 89 5 is_stmt 1 view .LVU93
  89:zita-rev1/source/reverb.cpp ****     _line = 0;
 414              		.loc 1 89 11 is_stmt 0 view .LVU94
 415 000c 0023     		movs	r3, #0
 416              		.loc 1 90 11 view .LVU95
 417 000e C4E90133 		strd	r3, r3, [r4, #4]
  91:zita-rev1/source/reverb.cpp **** }
 418              		.loc 1 91 1 view .LVU96
 419 0012 10BD     		pop	{r4, pc}
 420              		.loc 1 91 1 view .LVU97
 421              		.cfi_endproc
 422              	.LFE583:
 424              		.section	.text._ZN6VdelayC2Ev,"ax",%progbits
 425              		.align	1
 426              		.p2align 2,,3
 427              		.global	_ZN6VdelayC2Ev
 428              		.syntax unified
 429              		.thumb
ARM GAS  /var/folders/2p/02m_5p7958535cp2tpgps0400000gn/T//cc0Z3V5w.s 			page 11


 430              		.thumb_func
 432              	_ZN6VdelayC2Ev:
 433              	.LVL29:
 434              	.LFB585:
  92:zita-rev1/source/reverb.cpp **** 
  93:zita-rev1/source/reverb.cpp **** 
  94:zita-rev1/source/reverb.cpp **** // -----------------------------------------------------------------------
  95:zita-rev1/source/reverb.cpp **** 
  96:zita-rev1/source/reverb.cpp **** 
  97:zita-rev1/source/reverb.cpp **** Vdelay::Vdelay (void) :
 435              		.loc 1 97 1 is_stmt 1 view -0
 436              		.cfi_startproc
 437              		@ args = 0, pretend = 0, frame = 0
 438              		@ frame_needed = 0, uses_anonymous_args = 0
 439              		@ link register save eliminated.
 440              	.LBB140:
  98:zita-rev1/source/reverb.cpp ****     _size (0),
  99:zita-rev1/source/reverb.cpp ****     _line (0)
 441              		.loc 1 99 13 is_stmt 0 view .LVU99
 442 0000 0022     		movs	r2, #0
 443 0002 C0E90222 		strd	r2, r2, [r0, #8]
 444              	.LBE140:
 100:zita-rev1/source/reverb.cpp **** {
 101:zita-rev1/source/reverb.cpp **** }
 445              		.loc 1 101 1 view .LVU100
 446 0006 7047     		bx	lr
 447              		.cfi_endproc
 448              	.LFE585:
 450              		.global	_ZN6VdelayC1Ev
 451              		.thumb_set _ZN6VdelayC1Ev,_ZN6VdelayC2Ev
 452              		.section	.text._ZN6VdelayD2Ev,"ax",%progbits
 453              		.align	1
 454              		.p2align 2,,3
 455              		.global	_ZN6VdelayD2Ev
 456              		.syntax unified
 457              		.thumb
 458              		.thumb_func
 460              	_ZN6VdelayD2Ev:
 461              	.LVL30:
 462              	.LFB588:
 102:zita-rev1/source/reverb.cpp **** 
 103:zita-rev1/source/reverb.cpp **** 
 104:zita-rev1/source/reverb.cpp **** Vdelay::~Vdelay (void)
 463              		.loc 1 104 1 is_stmt 1 view -0
 464              		.cfi_startproc
 465              		@ args = 0, pretend = 0, frame = 0
 466              		@ frame_needed = 0, uses_anonymous_args = 0
 105:zita-rev1/source/reverb.cpp **** {
 106:zita-rev1/source/reverb.cpp ****     fini ();
 467              		.loc 1 106 5 view .LVU102
 104:zita-rev1/source/reverb.cpp **** {
 468              		.loc 1 104 1 is_stmt 0 view .LVU103
 469 0000 10B5     		push	{r4, lr}
 470              		.cfi_def_cfa_offset 8
 471              		.cfi_offset 4, -8
 472              		.cfi_offset 14, -4
 104:zita-rev1/source/reverb.cpp **** {
ARM GAS  /var/folders/2p/02m_5p7958535cp2tpgps0400000gn/T//cc0Z3V5w.s 			page 12


 473              		.loc 1 104 1 view .LVU104
 474 0002 0446     		mov	r4, r0
 475              	.LVL31:
 476              	.LBB141:
 477              	.LBI141:
 107:zita-rev1/source/reverb.cpp **** }
 108:zita-rev1/source/reverb.cpp **** 
 109:zita-rev1/source/reverb.cpp **** 
 110:zita-rev1/source/reverb.cpp **** void Vdelay::init (int size)
 111:zita-rev1/source/reverb.cpp **** {
 112:zita-rev1/source/reverb.cpp ****     _size = size;
 113:zita-rev1/source/reverb.cpp ****     _line = new float [size];
 114:zita-rev1/source/reverb.cpp ****     memset (_line, 0, size * sizeof (float));
 115:zita-rev1/source/reverb.cpp ****     _ir = 0;
 116:zita-rev1/source/reverb.cpp ****     _iw = 0;
 117:zita-rev1/source/reverb.cpp **** }
 118:zita-rev1/source/reverb.cpp **** 
 119:zita-rev1/source/reverb.cpp **** 
 120:zita-rev1/source/reverb.cpp **** void Vdelay::fini (void)
 478              		.loc 1 120 6 is_stmt 1 view .LVU105
 479              	.LBB142:
 121:zita-rev1/source/reverb.cpp **** {
 122:zita-rev1/source/reverb.cpp ****     delete[] _line;
 480              		.loc 1 122 5 view .LVU106
 481              		.loc 1 122 14 is_stmt 0 view .LVU107
 482 0004 C068     		ldr	r0, [r0, #12]
 483              	.LVL32:
 484              		.loc 1 122 5 view .LVU108
 485 0006 08B1     		cbz	r0, .L38
 486              		.loc 1 122 14 view .LVU109
 487 0008 FFF7FEFF 		bl	_ZdaPv
 488              	.LVL33:
 489              	.L38:
 123:zita-rev1/source/reverb.cpp ****     _size = 0;
 490              		.loc 1 123 5 is_stmt 1 view .LVU110
 124:zita-rev1/source/reverb.cpp ****     _line = 0;
 491              		.loc 1 124 5 view .LVU111
 492              		.loc 1 124 5 is_stmt 0 view .LVU112
 493              	.LBE142:
 494              	.LBE141:
 107:zita-rev1/source/reverb.cpp **** 
 495              		.loc 1 107 1 view .LVU113
 496 000c 2046     		mov	r0, r4
 497 000e 10BD     		pop	{r4, pc}
 107:zita-rev1/source/reverb.cpp **** 
 498              		.loc 1 107 1 view .LVU114
 499              		.cfi_endproc
 500              	.LFE588:
 502              		.global	_ZN6VdelayD1Ev
 503              		.thumb_set _ZN6VdelayD1Ev,_ZN6VdelayD2Ev
 504              		.section	.text._ZN6Vdelay4initEi,"ax",%progbits
 505              		.align	1
 506              		.p2align 2,,3
 507              		.global	_ZN6Vdelay4initEi
 508              		.syntax unified
 509              		.thumb
 510              		.thumb_func
ARM GAS  /var/folders/2p/02m_5p7958535cp2tpgps0400000gn/T//cc0Z3V5w.s 			page 13


 512              	_ZN6Vdelay4initEi:
 513              	.LVL34:
 514              	.LFB590:
 111:zita-rev1/source/reverb.cpp ****     _size = size;
 515              		.loc 1 111 1 is_stmt 1 view -0
 516              		.cfi_startproc
 517              		@ args = 0, pretend = 0, frame = 8
 518              		@ frame_needed = 0, uses_anonymous_args = 0
 112:zita-rev1/source/reverb.cpp ****     _line = new float [size];
 519              		.loc 1 112 5 view .LVU116
 113:zita-rev1/source/reverb.cpp ****     memset (_line, 0, size * sizeof (float));
 520              		.loc 1 113 28 is_stmt 0 view .LVU117
 521 0000 6FF06043 		mvn	r3, #-536870912
 522 0004 9942     		cmp	r1, r3
 111:zita-rev1/source/reverb.cpp ****     _size = size;
 523              		.loc 1 111 1 view .LVU118
 524 0006 10B5     		push	{r4, lr}
 525              		.cfi_def_cfa_offset 8
 526              		.cfi_offset 4, -8
 527              		.cfi_offset 14, -4
 528 0008 0446     		mov	r4, r0
 529 000a 82B0     		sub	sp, sp, #8
 530              		.cfi_def_cfa_offset 16
 112:zita-rev1/source/reverb.cpp ****     _line = new float [size];
 531              		.loc 1 112 11 view .LVU119
 532 000c 8160     		str	r1, [r0, #8]
 113:zita-rev1/source/reverb.cpp ****     memset (_line, 0, size * sizeof (float));
 533              		.loc 1 113 5 is_stmt 1 view .LVU120
 113:zita-rev1/source/reverb.cpp ****     memset (_line, 0, size * sizeof (float));
 534              		.loc 1 113 28 is_stmt 0 view .LVU121
 535 000e 0FD3     		bcc	.L44
 536 0010 8A00     		lsls	r2, r1, #2
 537 0012 4FF0FF30 		mov	r0, #-1
 538              	.LVL35:
 539              	.L45:
 113:zita-rev1/source/reverb.cpp ****     memset (_line, 0, size * sizeof (float));
 540              		.loc 1 113 28 view .LVU122
 541 0016 0192     		str	r2, [sp, #4]
 113:zita-rev1/source/reverb.cpp ****     memset (_line, 0, size * sizeof (float));
 542              		.loc 1 113 28 discriminator 4 view .LVU123
 543 0018 FFF7FEFF 		bl	_Znaj
 544              	.LVL36:
 114:zita-rev1/source/reverb.cpp ****     _ir = 0;
 545              		.loc 1 114 12 discriminator 4 view .LVU124
 546 001c 019A     		ldr	r2, [sp, #4]
 547 001e 0021     		movs	r1, #0
 113:zita-rev1/source/reverb.cpp ****     memset (_line, 0, size * sizeof (float));
 548              		.loc 1 113 11 discriminator 4 view .LVU125
 549 0020 E060     		str	r0, [r4, #12]
 114:zita-rev1/source/reverb.cpp ****     _ir = 0;
 550              		.loc 1 114 5 is_stmt 1 discriminator 4 view .LVU126
 114:zita-rev1/source/reverb.cpp ****     _ir = 0;
 551              		.loc 1 114 12 is_stmt 0 discriminator 4 view .LVU127
 552 0022 FFF7FEFF 		bl	memset
 553              	.LVL37:
 115:zita-rev1/source/reverb.cpp ****     _iw = 0;
 554              		.loc 1 115 5 is_stmt 1 discriminator 4 view .LVU128
ARM GAS  /var/folders/2p/02m_5p7958535cp2tpgps0400000gn/T//cc0Z3V5w.s 			page 14


 115:zita-rev1/source/reverb.cpp ****     _iw = 0;
 555              		.loc 1 115 9 is_stmt 0 discriminator 4 view .LVU129
 556 0026 0023     		movs	r3, #0
 116:zita-rev1/source/reverb.cpp **** }
 557              		.loc 1 116 9 discriminator 4 view .LVU130
 558 0028 C4E90033 		strd	r3, r3, [r4]
 117:zita-rev1/source/reverb.cpp **** 
 559              		.loc 1 117 1 discriminator 4 view .LVU131
 560 002c 02B0     		add	sp, sp, #8
 561              		.cfi_remember_state
 562              		.cfi_def_cfa_offset 8
 563              		@ sp needed
 564 002e 10BD     		pop	{r4, pc}
 565              	.LVL38:
 566              	.L44:
 567              		.cfi_restore_state
 113:zita-rev1/source/reverb.cpp ****     memset (_line, 0, size * sizeof (float));
 568              		.loc 1 113 28 discriminator 1 view .LVU132
 569 0030 8800     		lsls	r0, r1, #2
 570              	.LVL39:
 113:zita-rev1/source/reverb.cpp ****     memset (_line, 0, size * sizeof (float));
 571              		.loc 1 113 28 discriminator 1 view .LVU133
 572 0032 0246     		mov	r2, r0
 573 0034 EFE7     		b	.L45
 574              		.cfi_endproc
 575              	.LFE590:
 577 0036 00BF     		.section	.text._ZN6Vdelay4finiEv,"ax",%progbits
 578              		.align	1
 579              		.p2align 2,,3
 580              		.global	_ZN6Vdelay4finiEv
 581              		.syntax unified
 582              		.thumb
 583              		.thumb_func
 585              	_ZN6Vdelay4finiEv:
 586              	.LVL40:
 587              	.LFB591:
 121:zita-rev1/source/reverb.cpp ****     delete[] _line;
 588              		.loc 1 121 1 is_stmt 1 view -0
 589              		.cfi_startproc
 590              		@ args = 0, pretend = 0, frame = 0
 591              		@ frame_needed = 0, uses_anonymous_args = 0
 122:zita-rev1/source/reverb.cpp ****     _size = 0;
 592              		.loc 1 122 5 view .LVU135
 121:zita-rev1/source/reverb.cpp ****     delete[] _line;
 593              		.loc 1 121 1 is_stmt 0 view .LVU136
 594 0000 10B5     		push	{r4, lr}
 595              		.cfi_def_cfa_offset 8
 596              		.cfi_offset 4, -8
 597              		.cfi_offset 14, -4
 121:zita-rev1/source/reverb.cpp ****     delete[] _line;
 598              		.loc 1 121 1 view .LVU137
 599 0002 0446     		mov	r4, r0
 122:zita-rev1/source/reverb.cpp ****     _size = 0;
 600              		.loc 1 122 14 view .LVU138
 601 0004 C068     		ldr	r0, [r0, #12]
 602              	.LVL41:
 122:zita-rev1/source/reverb.cpp ****     _size = 0;
ARM GAS  /var/folders/2p/02m_5p7958535cp2tpgps0400000gn/T//cc0Z3V5w.s 			page 15


 603              		.loc 1 122 5 view .LVU139
 604 0006 08B1     		cbz	r0, .L48
 122:zita-rev1/source/reverb.cpp ****     _size = 0;
 605              		.loc 1 122 14 discriminator 1 view .LVU140
 606 0008 FFF7FEFF 		bl	_ZdaPv
 607              	.LVL42:
 608              	.L48:
 123:zita-rev1/source/reverb.cpp ****     _line = 0;
 609              		.loc 1 123 5 is_stmt 1 view .LVU141
 123:zita-rev1/source/reverb.cpp ****     _line = 0;
 610              		.loc 1 123 11 is_stmt 0 view .LVU142
 611 000c 0023     		movs	r3, #0
 612              		.loc 1 124 11 view .LVU143
 613 000e C4E90233 		strd	r3, r3, [r4, #8]
 125:zita-rev1/source/reverb.cpp **** }
 614              		.loc 1 125 1 view .LVU144
 615 0012 10BD     		pop	{r4, pc}
 616              		.loc 1 125 1 view .LVU145
 617              		.cfi_endproc
 618              	.LFE591:
 620              		.section	.text._ZN6Vdelay9set_delayEi,"ax",%progbits
 621              		.align	1
 622              		.p2align 2,,3
 623              		.global	_ZN6Vdelay9set_delayEi
 624              		.syntax unified
 625              		.thumb
 626              		.thumb_func
 628              	_ZN6Vdelay9set_delayEi:
 629              	.LVL43:
 630              	.LFB592:
 126:zita-rev1/source/reverb.cpp **** 
 127:zita-rev1/source/reverb.cpp **** 
 128:zita-rev1/source/reverb.cpp **** void Vdelay::set_delay (int del)
 129:zita-rev1/source/reverb.cpp **** {
 631              		.loc 1 129 1 is_stmt 1 view -0
 632              		.cfi_startproc
 633              		@ args = 0, pretend = 0, frame = 0
 634              		@ frame_needed = 0, uses_anonymous_args = 0
 635              		@ link register save eliminated.
 130:zita-rev1/source/reverb.cpp ****     _ir = _iw - del;
 636              		.loc 1 130 5 view .LVU147
 637              		.loc 1 130 15 is_stmt 0 view .LVU148
 638 0000 4368     		ldr	r3, [r0, #4]
 639 0002 591A     		subs	r1, r3, r1
 640              	.LVL44:
 131:zita-rev1/source/reverb.cpp ****     if (_ir < 0) _ir += _size;
 641              		.loc 1 131 5 view .LVU149
 642 0004 0029     		cmp	r1, #0
 130:zita-rev1/source/reverb.cpp ****     _ir = _iw - del;
 643              		.loc 1 130 9 view .LVU150
 644 0006 0160     		str	r1, [r0]
 645              		.loc 1 131 5 is_stmt 1 view .LVU151
 646 0008 02DA     		bge	.L53
 647              		.loc 1 131 18 discriminator 1 view .LVU152
 648              		.loc 1 131 22 is_stmt 0 discriminator 1 view .LVU153
 649 000a 8368     		ldr	r3, [r0, #8]
 650 000c 1944     		add	r1, r1, r3
ARM GAS  /var/folders/2p/02m_5p7958535cp2tpgps0400000gn/T//cc0Z3V5w.s 			page 16


 651 000e 0160     		str	r1, [r0]
 652              	.L53:
 132:zita-rev1/source/reverb.cpp **** }
 653              		.loc 1 132 1 view .LVU154
 654 0010 7047     		bx	lr
 655              		.cfi_endproc
 656              	.LFE592:
 658 0012 00BF     		.section	.text._ZN5Filt110set_paramsEffffff,"ax",%progbits
 659              		.align	1
 660              		.p2align 2,,3
 661              		.global	_ZN5Filt110set_paramsEffffff
 662              		.syntax unified
 663              		.thumb
 664              		.thumb_func
 666              	_ZN5Filt110set_paramsEffffff:
 667              	.LVL45:
 668              	.LFB593:
 133:zita-rev1/source/reverb.cpp **** 
 134:zita-rev1/source/reverb.cpp **** 
 135:zita-rev1/source/reverb.cpp **** // -----------------------------------------------------------------------
 136:zita-rev1/source/reverb.cpp **** 
 137:zita-rev1/source/reverb.cpp **** 
 138:zita-rev1/source/reverb.cpp **** void Filt1::set_params (float del, float tmf, float tlo, float wlo, float thi, float chi)
 139:zita-rev1/source/reverb.cpp **** {
 669              		.loc 1 139 1 is_stmt 1 view -0
 670              		.cfi_startproc
 671              		@ args = 0, pretend = 0, frame = 0
 672              		@ frame_needed = 0, uses_anonymous_args = 0
 140:zita-rev1/source/reverb.cpp ****     float g, t;
 673              		.loc 1 140 5 view .LVU156
 141:zita-rev1/source/reverb.cpp **** 
 142:zita-rev1/source/reverb.cpp ****     _gmf = powf (0.001f, del / tmf);
 674              		.loc 1 142 5 view .LVU157
 139:zita-rev1/source/reverb.cpp ****     float g, t;
 675              		.loc 1 139 1 is_stmt 0 view .LVU158
 676 0000 10B5     		push	{r4, lr}
 677              		.cfi_def_cfa_offset 8
 678              		.cfi_offset 4, -8
 679              		.cfi_offset 14, -4
 680 0002 2DED068B 		vpush.64	{d8, d9, d10}
 681              		.cfi_def_cfa_offset 32
 682              		.cfi_offset 80, -32
 683              		.cfi_offset 81, -28
 684              		.cfi_offset 82, -24
 685              		.cfi_offset 83, -20
 686              		.cfi_offset 84, -16
 687              		.cfi_offset 85, -12
 139:zita-rev1/source/reverb.cpp ****     float g, t;
 688              		.loc 1 139 1 view .LVU159
 689 0006 F0EE408A 		vmov.f32	s17, s0
 690              		.loc 1 142 17 view .LVU160
 691 000a 9FED2D0A 		vldr.32	s0, .L62
 692              	.LVL46:
 139:zita-rev1/source/reverb.cpp ****     float g, t;
 693              		.loc 1 139 1 view .LVU161
 694 000e 0446     		mov	r4, r0
 695 0010 B0EE418A 		vmov.f32	s16, s2
ARM GAS  /var/folders/2p/02m_5p7958535cp2tpgps0400000gn/T//cc0Z3V5w.s 			page 17


 696 0014 F0EE619A 		vmov.f32	s19, s3
 697              		.loc 1 142 17 view .LVU162
 698 0018 C8EEA00A 		vdiv.f32	s1, s17, s1
 699              	.LVL47:
 139:zita-rev1/source/reverb.cpp ****     float g, t;
 700              		.loc 1 139 1 view .LVU163
 701 001c B0EE42AA 		vmov.f32	s20, s4
 702 0020 B0EE629A 		vmov.f32	s18, s5
 703              		.loc 1 142 17 view .LVU164
 704 0024 FFF7FEFF 		bl	powf
 705              	.LVL48:
 706              		.loc 1 142 17 view .LVU165
 707 0028 F0EE407A 		vmov.f32	s15, s0
 143:zita-rev1/source/reverb.cpp ****     _glo = powf (0.001f, del / tlo) / _gmf - 1.0f;
 708              		.loc 1 143 17 view .LVU166
 709 002c 9FED240A 		vldr.32	s0, .L62
 710 0030 C8EE880A 		vdiv.f32	s1, s17, s16
 142:zita-rev1/source/reverb.cpp ****     _glo = powf (0.001f, del / tlo) / _gmf - 1.0f;
 711              		.loc 1 142 10 view .LVU167
 712 0034 C4ED007A 		vstr.32	s15, [r4]
 713              		.loc 1 143 5 is_stmt 1 view .LVU168
 714              		.loc 1 143 17 is_stmt 0 view .LVU169
 715 0038 FFF7FEFF 		bl	powf
 716              	.LVL49:
 717              		.loc 1 143 37 view .LVU170
 718 003c 94ED007A 		vldr.32	s14, [r4]
 144:zita-rev1/source/reverb.cpp ****     _wlo = wlo;    
 719              		.loc 1 144 10 view .LVU171
 720 0040 C4ED029A 		vstr.32	s19, [r4, #8]
 143:zita-rev1/source/reverb.cpp ****     _glo = powf (0.001f, del / tlo) / _gmf - 1.0f;
 721              		.loc 1 143 17 view .LVU172
 722 0044 F0EE406A 		vmov.f32	s13, s0
 145:zita-rev1/source/reverb.cpp ****     g = powf (0.001f, del / thi) / _gmf;
 723              		.loc 1 145 14 view .LVU173
 724 0048 9FED1D0A 		vldr.32	s0, .L62
 143:zita-rev1/source/reverb.cpp ****     _wlo = wlo;    
 725              		.loc 1 143 44 view .LVU174
 726 004c B7EE008A 		vmov.f32	s16, #1.0e+0
 727              	.LVL50:
 728              		.loc 1 145 14 view .LVU175
 729 0050 C8EE8A0A 		vdiv.f32	s1, s17, s20
 143:zita-rev1/source/reverb.cpp ****     _wlo = wlo;    
 730              		.loc 1 143 37 view .LVU176
 731 0054 C6EE877A 		vdiv.f32	s15, s13, s14
 143:zita-rev1/source/reverb.cpp ****     _wlo = wlo;    
 732              		.loc 1 143 44 view .LVU177
 733 0058 77EEC87A 		vsub.f32	s15, s15, s16
 143:zita-rev1/source/reverb.cpp ****     _wlo = wlo;    
 734              		.loc 1 143 10 view .LVU178
 735 005c C4ED017A 		vstr.32	s15, [r4, #4]
 144:zita-rev1/source/reverb.cpp ****     _wlo = wlo;    
 736              		.loc 1 144 5 is_stmt 1 view .LVU179
 737              		.loc 1 145 5 view .LVU180
 738              		.loc 1 145 14 is_stmt 0 view .LVU181
 739 0060 FFF7FEFF 		bl	powf
 740              	.LVL51:
 741              		.loc 1 145 7 view .LVU182
ARM GAS  /var/folders/2p/02m_5p7958535cp2tpgps0400000gn/T//cc0Z3V5w.s 			page 18


 742 0064 D4ED007A 		vldr.32	s15, [r4]
 146:zita-rev1/source/reverb.cpp ****     t = (1 - g * g) / (2 * g * g * chi);
 743              		.loc 1 146 12 view .LVU183
 744 0068 B0EE486A 		vmov.f32	s12, s16
 145:zita-rev1/source/reverb.cpp ****     g = powf (0.001f, del / thi) / _gmf;
 745              		.loc 1 145 7 view .LVU184
 746 006c 80EE277A 		vdiv.f32	s14, s0, s15
 747              	.LVL52:
 748              		.loc 1 146 5 is_stmt 1 view .LVU185
 147:zita-rev1/source/reverb.cpp ****     _whi = (sqrtf (1 + 4 * t) - 1) / (2 * t); 
 749              		.loc 1 147 19 is_stmt 0 view .LVU186
 750 0070 F1EE006A 		vmov.f32	s13, #4.0e+0
 146:zita-rev1/source/reverb.cpp ****     t = (1 - g * g) / (2 * g * g * chi);
 751              		.loc 1 146 26 view .LVU187
 752 0074 77EE077A 		vadd.f32	s15, s14, s14
 146:zita-rev1/source/reverb.cpp ****     t = (1 - g * g) / (2 * g * g * chi);
 753              		.loc 1 146 12 view .LVU188
 754 0078 A7EE476A 		vfms.f32	s12, s14, s14
 146:zita-rev1/source/reverb.cpp ****     t = (1 - g * g) / (2 * g * g * chi);
 755              		.loc 1 146 30 view .LVU189
 756 007c 67EE877A 		vmul.f32	s15, s15, s14
 146:zita-rev1/source/reverb.cpp ****     t = (1 - g * g) / (2 * g * g * chi);
 757              		.loc 1 146 34 view .LVU190
 758 0080 67EE892A 		vmul.f32	s5, s15, s18
 146:zita-rev1/source/reverb.cpp ****     t = (1 - g * g) / (2 * g * g * chi);
 759              		.loc 1 146 7 view .LVU191
 760 0084 C6EE228A 		vdiv.f32	s17, s12, s5
 761              	.LVL53:
 762              		.loc 1 147 5 is_stmt 1 view .LVU192
 763              		.loc 1 147 19 is_stmt 0 view .LVU193
 764 0088 A8EEA68A 		vfma.f32	s16, s17, s13
 765 008c B5EE408A 		vcmp.f32	s16, #0
 766 0090 F1EE10FA 		vmrs	APSR_nzcv, FPSCR
 767 0094 0ED4     		bmi	.L60
 768 0096 B1EEC80A 		vsqrt.f32	s0, s16
 769              	.LVL54:
 770              	.L58:
 771              		.loc 1 147 31 view .LVU194
 772 009a F7EE007A 		vmov.f32	s15, #1.0e+0
 773              		.loc 1 147 41 view .LVU195
 774 009e 78EEA88A 		vadd.f32	s17, s17, s17
 775              	.LVL55:
 776              		.loc 1 147 31 view .LVU196
 777 00a2 30EE670A 		vsub.f32	s0, s0, s15
 778              		.loc 1 147 36 view .LVU197
 779 00a6 C0EE287A 		vdiv.f32	s15, s0, s17
 148:zita-rev1/source/reverb.cpp **** } 
 780              		.loc 1 148 1 view .LVU198
 781 00aa BDEC068B 		vldm	sp!, {d8-d10}
 782              		.cfi_remember_state
 783              		.cfi_restore 84
 784              		.cfi_restore 85
 785              		.cfi_restore 82
 786              		.cfi_restore 83
 787              		.cfi_restore 80
 788              		.cfi_restore 81
 789              		.cfi_def_cfa_offset 8
ARM GAS  /var/folders/2p/02m_5p7958535cp2tpgps0400000gn/T//cc0Z3V5w.s 			page 19


 790              	.LVL56:
 147:zita-rev1/source/reverb.cpp ****     _whi = (sqrtf (1 + 4 * t) - 1) / (2 * t); 
 791              		.loc 1 147 10 view .LVU199
 792 00ae C4ED037A 		vstr.32	s15, [r4, #12]
 793              		.loc 1 148 1 view .LVU200
 794 00b2 10BD     		pop	{r4, pc}
 795              	.LVL57:
 796              	.L60:
 797              		.cfi_restore_state
 147:zita-rev1/source/reverb.cpp ****     _whi = (sqrtf (1 + 4 * t) - 1) / (2 * t); 
 798              		.loc 1 147 19 view .LVU201
 799 00b4 B0EE480A 		vmov.f32	s0, s16
 800 00b8 FFF7FEFF 		bl	sqrtf
 801              	.LVL58:
 147:zita-rev1/source/reverb.cpp ****     _whi = (sqrtf (1 + 4 * t) - 1) / (2 * t); 
 802              		.loc 1 147 19 view .LVU202
 803 00bc EDE7     		b	.L58
 804              	.L63:
 805 00be 00BF     		.align	2
 806              	.L62:
 807 00c0 6F12833A 		.word	981668463
 808              		.cfi_endproc
 809              	.LFE593:
 811              		.section	.text._ZN6ReverbC2Ev,"ax",%progbits
 812              		.align	1
 813              		.p2align 2,,3
 814              		.global	_ZN6ReverbC2Ev
 815              		.syntax unified
 816              		.thumb
 817              		.thumb_func
 819              	_ZN6ReverbC2Ev:
 820              	.LVL59:
 821              	.LFB595:
 149:zita-rev1/source/reverb.cpp **** 
 150:zita-rev1/source/reverb.cpp ****  
 151:zita-rev1/source/reverb.cpp **** // -----------------------------------------------------------------------
 152:zita-rev1/source/reverb.cpp **** 
 153:zita-rev1/source/reverb.cpp **** 
 154:zita-rev1/source/reverb.cpp **** float Reverb::_tdiff1 [8] = 
 155:zita-rev1/source/reverb.cpp **** {
 156:zita-rev1/source/reverb.cpp ****     20346e-6f,
 157:zita-rev1/source/reverb.cpp ****     24421e-6f,
 158:zita-rev1/source/reverb.cpp ****     31604e-6f,
 159:zita-rev1/source/reverb.cpp ****     27333e-6f,
 160:zita-rev1/source/reverb.cpp ****     22904e-6f,
 161:zita-rev1/source/reverb.cpp ****     29291e-6f,
 162:zita-rev1/source/reverb.cpp ****     13458e-6f,
 163:zita-rev1/source/reverb.cpp ****     19123e-6f
 164:zita-rev1/source/reverb.cpp **** };
 165:zita-rev1/source/reverb.cpp **** 
 166:zita-rev1/source/reverb.cpp **** 
 167:zita-rev1/source/reverb.cpp **** float Reverb::_tdelay [8] = 
 168:zita-rev1/source/reverb.cpp **** {
 169:zita-rev1/source/reverb.cpp ****    153129e-6f,
 170:zita-rev1/source/reverb.cpp ****    210389e-6f,
 171:zita-rev1/source/reverb.cpp ****    127837e-6f,
 172:zita-rev1/source/reverb.cpp ****    256891e-6f,
ARM GAS  /var/folders/2p/02m_5p7958535cp2tpgps0400000gn/T//cc0Z3V5w.s 			page 20


 173:zita-rev1/source/reverb.cpp ****    174713e-6f,
 174:zita-rev1/source/reverb.cpp ****    192303e-6f,
 175:zita-rev1/source/reverb.cpp ****    125000e-6f,
 176:zita-rev1/source/reverb.cpp ****    219991e-6f
 177:zita-rev1/source/reverb.cpp **** };
 178:zita-rev1/source/reverb.cpp **** 
 179:zita-rev1/source/reverb.cpp **** 
 180:zita-rev1/source/reverb.cpp **** Reverb::Reverb (void)
 822              		.loc 1 180 1 is_stmt 1 view -0
 823              		.cfi_startproc
 824              		@ args = 0, pretend = 0, frame = 0
 825              		@ frame_needed = 0, uses_anonymous_args = 0
 826              		.loc 1 180 1 is_stmt 0 view .LVU204
 827 0000 10B5     		push	{r4, lr}
 828              		.cfi_def_cfa_offset 8
 829              		.cfi_offset 4, -8
 830              		.cfi_offset 14, -4
 831              	.LBB143:
 832              	.LBB144:
 833              	.LBB145:
  99:zita-rev1/source/reverb.cpp **** {
 834              		.loc 1 99 13 view .LVU205
 835 0002 0023     		movs	r3, #0
 836              	.LBE145:
 837              	.LBE144:
 838              	.LBB147:
 839              	.LBB148:
 840              		.file 2 "zita-rev1/source/reverb.h"
   1:zita-rev1/source/reverb.h **** // ----------------------------------------------------------------------------
   2:zita-rev1/source/reverb.h **** //
   3:zita-rev1/source/reverb.h **** //  Copyright (C) 2003-2017 Fons Adriaensen <fons@linuxaudio.org>
   4:zita-rev1/source/reverb.h **** //    
   5:zita-rev1/source/reverb.h **** //  This program is free software; you can redistribute it and/or modify
   6:zita-rev1/source/reverb.h **** //  it under the terms of the GNU General Public License as published by
   7:zita-rev1/source/reverb.h **** //  the Free Software Foundation; either version 3 of the License, or
   8:zita-rev1/source/reverb.h **** //  (at your option) any later version.
   9:zita-rev1/source/reverb.h **** //
  10:zita-rev1/source/reverb.h **** //  This program is distributed in the hope that it will be useful,
  11:zita-rev1/source/reverb.h **** //  but WITHOUT ANY WARRANTY; without even the implied warranty of
  12:zita-rev1/source/reverb.h **** //  MERCHANTABILITY or FITNESS FOR A PARTICULAR PURPOSE.  See the
  13:zita-rev1/source/reverb.h **** //  GNU General Public License for more details.
  14:zita-rev1/source/reverb.h **** //
  15:zita-rev1/source/reverb.h **** //  You should have received a copy of the GNU General Public License
  16:zita-rev1/source/reverb.h **** //  along with this program.  If not, see <http://www.gnu.org/licenses/>.
  17:zita-rev1/source/reverb.h **** //
  18:zita-rev1/source/reverb.h **** // ----------------------------------------------------------------------------
  19:zita-rev1/source/reverb.h **** 
  20:zita-rev1/source/reverb.h **** 
  21:zita-rev1/source/reverb.h **** #ifndef __REVERB_H
  22:zita-rev1/source/reverb.h **** #define __REVERB_H
  23:zita-rev1/source/reverb.h **** 
  24:zita-rev1/source/reverb.h **** #include "pareq.h"
  25:zita-rev1/source/reverb.h **** 
  26:zita-rev1/source/reverb.h **** 
  27:zita-rev1/source/reverb.h **** // -----------------------------------------------------------------------
  28:zita-rev1/source/reverb.h **** 
  29:zita-rev1/source/reverb.h **** 
ARM GAS  /var/folders/2p/02m_5p7958535cp2tpgps0400000gn/T//cc0Z3V5w.s 			page 21


  30:zita-rev1/source/reverb.h **** class Diff1
  31:zita-rev1/source/reverb.h **** {
  32:zita-rev1/source/reverb.h **** private:
  33:zita-rev1/source/reverb.h **** 
  34:zita-rev1/source/reverb.h ****     friend class Reverb;
  35:zita-rev1/source/reverb.h ****     
  36:zita-rev1/source/reverb.h ****     Diff1 (void);
  37:zita-rev1/source/reverb.h ****     ~Diff1 (void);
  38:zita-rev1/source/reverb.h **** 
  39:zita-rev1/source/reverb.h ****     void  init (int size, float c);
  40:zita-rev1/source/reverb.h ****     void  fini (void);
  41:zita-rev1/source/reverb.h **** 
  42:zita-rev1/source/reverb.h ****     float process (float x)
  43:zita-rev1/source/reverb.h ****     {
  44:zita-rev1/source/reverb.h **** 	float z = _line [_i];
  45:zita-rev1/source/reverb.h **** 	x -= _c * z;
  46:zita-rev1/source/reverb.h ****         _line [_i] = x;
  47:zita-rev1/source/reverb.h ****         if (++_i == _size) _i = 0;
  48:zita-rev1/source/reverb.h **** 	return z + _c * x;
  49:zita-rev1/source/reverb.h ****     } 
  50:zita-rev1/source/reverb.h **** 
  51:zita-rev1/source/reverb.h ****     int     _i;
  52:zita-rev1/source/reverb.h ****     float   _c;
  53:zita-rev1/source/reverb.h ****     int     _size;
  54:zita-rev1/source/reverb.h ****     float  *_line;
  55:zita-rev1/source/reverb.h **** };
  56:zita-rev1/source/reverb.h **** 
  57:zita-rev1/source/reverb.h **** 
  58:zita-rev1/source/reverb.h **** // -----------------------------------------------------------------------
  59:zita-rev1/source/reverb.h **** 
  60:zita-rev1/source/reverb.h **** 
  61:zita-rev1/source/reverb.h **** class Filt1
  62:zita-rev1/source/reverb.h **** {
  63:zita-rev1/source/reverb.h **** private:
  64:zita-rev1/source/reverb.h **** 
  65:zita-rev1/source/reverb.h ****     friend class Reverb;
  66:zita-rev1/source/reverb.h ****     
  67:zita-rev1/source/reverb.h ****     Filt1 (void) : _slo (0), _shi (0) {}
 841              		.loc 2 67 37 view .LVU206
 842 0004 0022     		movs	r2, #0
 843              	.LBE148:
 844              	.LBE147:
 845              	.LBE143:
 846              		.loc 1 180 1 view .LVU207
 847 0006 0446     		mov	r4, r0
 848              	.LVL60:
 849              	.LBB199:
 850              	.LBB153:
 851              	.LBI144:
  97:zita-rev1/source/reverb.cpp ****     _size (0),
 852              		.loc 1 97 1 is_stmt 1 view .LVU208
 853              	.LBE153:
 854              	.LBB154:
 855              	.LBB149:
 856              		.loc 2 67 37 is_stmt 0 view .LVU209
 857 0008 C0F8B820 		str	r2, [r0, #184]	@ float
 858 000c C0F8BC20 		str	r2, [r0, #188]	@ float
ARM GAS  /var/folders/2p/02m_5p7958535cp2tpgps0400000gn/T//cc0Z3V5w.s 			page 22


 859 0010 C0F8D020 		str	r2, [r0, #208]	@ float
 860 0014 C0F8D420 		str	r2, [r0, #212]	@ float
 861 0018 C0F8E820 		str	r2, [r0, #232]	@ float
 862 001c C0F8EC20 		str	r2, [r0, #236]	@ float
 863 0020 C0F80021 		str	r2, [r0, #256]	@ float
 864 0024 C0F80421 		str	r2, [r0, #260]	@ float
 865 0028 C0F81821 		str	r2, [r0, #280]	@ float
 866 002c C0F81C21 		str	r2, [r0, #284]	@ float
 867 0030 C0F83021 		str	r2, [r0, #304]	@ float
 868              	.LBE149:
 869              	.LBE154:
 870              	.LBB155:
 871              	.LBB146:
  99:zita-rev1/source/reverb.cpp **** {
 872              		.loc 1 99 13 view .LVU210
 873 0034 C0E90433 		strd	r3, r3, [r0, #16]
 874              	.LVL61:
  99:zita-rev1/source/reverb.cpp **** {
 875              		.loc 1 99 13 view .LVU211
 876              	.LBE146:
 877              	.LBE155:
 878              	.LBB156:
 879              	.LBI156:
  97:zita-rev1/source/reverb.cpp ****     _size (0),
 880              		.loc 1 97 1 is_stmt 1 view .LVU212
 881              	.LBB157:
  99:zita-rev1/source/reverb.cpp **** {
 882              		.loc 1 99 13 is_stmt 0 view .LVU213
 883 0038 C0E90833 		strd	r3, r3, [r0, #32]
 884              	.LVL62:
  99:zita-rev1/source/reverb.cpp **** {
 885              		.loc 1 99 13 view .LVU214
 886              	.LBE157:
 887              	.LBE156:
 888              		.loc 1 180 21 is_stmt 1 view .LVU215
 889              	.LBB158:
 890              	.LBI158:
  30:zita-rev1/source/reverb.cpp ****     _size (0),
 891              		.loc 1 30 1 view .LVU216
 892              	.LBB159:
  32:zita-rev1/source/reverb.cpp **** {
 893              		.loc 1 32 13 is_stmt 0 view .LVU217
 894 003c C0E90C33 		strd	r3, r3, [r0, #48]
 895              	.LVL63:
  32:zita-rev1/source/reverb.cpp **** {
 896              		.loc 1 32 13 view .LVU218
 897              	.LBE159:
 898              	.LBE158:
 899              		.loc 1 180 21 is_stmt 1 view .LVU219
 900              		.loc 1 180 21 view .LVU220
 901              	.LBB167:
  30:zita-rev1/source/reverb.cpp ****     _size (0),
 902              		.loc 1 30 1 view .LVU221
 903              	.LBB160:
  32:zita-rev1/source/reverb.cpp **** {
 904              		.loc 1 32 13 is_stmt 0 view .LVU222
 905 0040 C0E91033 		strd	r3, r3, [r0, #64]
ARM GAS  /var/folders/2p/02m_5p7958535cp2tpgps0400000gn/T//cc0Z3V5w.s 			page 23


 906              	.LVL64:
  32:zita-rev1/source/reverb.cpp **** {
 907              		.loc 1 32 13 view .LVU223
 908              	.LBE160:
 909              	.LBE167:
 910              		.loc 1 180 21 is_stmt 1 view .LVU224
 911              		.loc 1 180 21 view .LVU225
 912              	.LBB168:
  30:zita-rev1/source/reverb.cpp ****     _size (0),
 913              		.loc 1 30 1 view .LVU226
 914              	.LBB161:
  32:zita-rev1/source/reverb.cpp **** {
 915              		.loc 1 32 13 is_stmt 0 view .LVU227
 916 0044 C0E91433 		strd	r3, r3, [r0, #80]
 917              	.LVL65:
  32:zita-rev1/source/reverb.cpp **** {
 918              		.loc 1 32 13 view .LVU228
 919              	.LBE161:
 920              	.LBE168:
 921              		.loc 1 180 21 is_stmt 1 view .LVU229
 922              		.loc 1 180 21 view .LVU230
 923              	.LBB169:
  30:zita-rev1/source/reverb.cpp ****     _size (0),
 924              		.loc 1 30 1 view .LVU231
 925              	.LBB162:
  32:zita-rev1/source/reverb.cpp **** {
 926              		.loc 1 32 13 is_stmt 0 view .LVU232
 927 0048 C0E91833 		strd	r3, r3, [r0, #96]
 928              	.LVL66:
  32:zita-rev1/source/reverb.cpp **** {
 929              		.loc 1 32 13 view .LVU233
 930              	.LBE162:
 931              	.LBE169:
 932              		.loc 1 180 21 is_stmt 1 view .LVU234
 933              		.loc 1 180 21 view .LVU235
 934              	.LBB170:
  30:zita-rev1/source/reverb.cpp ****     _size (0),
 935              		.loc 1 30 1 view .LVU236
 936              	.LBB163:
  32:zita-rev1/source/reverb.cpp **** {
 937              		.loc 1 32 13 is_stmt 0 view .LVU237
 938 004c C0E91C33 		strd	r3, r3, [r0, #112]
 939              	.LVL67:
  32:zita-rev1/source/reverb.cpp **** {
 940              		.loc 1 32 13 view .LVU238
 941              	.LBE163:
 942              	.LBE170:
 943              		.loc 1 180 21 is_stmt 1 view .LVU239
 944              		.loc 1 180 21 view .LVU240
 945              	.LBB171:
  30:zita-rev1/source/reverb.cpp ****     _size (0),
 946              		.loc 1 30 1 view .LVU241
 947              	.LBB164:
  32:zita-rev1/source/reverb.cpp **** {
 948              		.loc 1 32 13 is_stmt 0 view .LVU242
 949 0050 C0E92033 		strd	r3, r3, [r0, #128]
 950              	.LVL68:
ARM GAS  /var/folders/2p/02m_5p7958535cp2tpgps0400000gn/T//cc0Z3V5w.s 			page 24


  32:zita-rev1/source/reverb.cpp **** {
 951              		.loc 1 32 13 view .LVU243
 952              	.LBE164:
 953              	.LBE171:
 954              		.loc 1 180 21 is_stmt 1 view .LVU244
 955              		.loc 1 180 21 view .LVU245
 956              	.LBB172:
  30:zita-rev1/source/reverb.cpp ****     _size (0),
 957              		.loc 1 30 1 view .LVU246
 958              	.LBB165:
  32:zita-rev1/source/reverb.cpp **** {
 959              		.loc 1 32 13 is_stmt 0 view .LVU247
 960 0054 C0E92433 		strd	r3, r3, [r0, #144]
 961              	.LVL69:
  32:zita-rev1/source/reverb.cpp **** {
 962              		.loc 1 32 13 view .LVU248
 963              	.LBE165:
 964              	.LBE172:
 965              		.loc 1 180 21 is_stmt 1 view .LVU249
 966              		.loc 1 180 21 view .LVU250
 967              	.LBB173:
  30:zita-rev1/source/reverb.cpp ****     _size (0),
 968              		.loc 1 30 1 view .LVU251
 969              	.LBB166:
  32:zita-rev1/source/reverb.cpp **** {
 970              		.loc 1 32 13 is_stmt 0 view .LVU252
 971 0058 C0E92833 		strd	r3, r3, [r0, #160]
 972              	.LVL70:
  32:zita-rev1/source/reverb.cpp **** {
 973              		.loc 1 32 13 view .LVU253
 974              	.LBE166:
 975              	.LBE173:
 976              		.loc 1 180 21 is_stmt 1 view .LVU254
 977              		.loc 1 180 21 view .LVU255
 978              		.loc 1 180 21 view .LVU256
 979              	.LBB174:
 980              	.LBI147:
 981              		.loc 2 67 5 view .LVU257
 982              		.loc 2 67 5 is_stmt 0 view .LVU258
 983              	.LBE174:
 984              		.loc 1 180 21 is_stmt 1 view .LVU259
 985              		.loc 1 180 21 view .LVU260
 986              	.LBB175:
 987              		.loc 2 67 5 view .LVU261
 988              		.loc 2 67 5 is_stmt 0 view .LVU262
 989              	.LBE175:
 990              		.loc 1 180 21 is_stmt 1 view .LVU263
 991              		.loc 1 180 21 view .LVU264
 992              	.LBB176:
 993              		.loc 2 67 5 view .LVU265
 994              		.loc 2 67 5 is_stmt 0 view .LVU266
 995              	.LBE176:
 996              		.loc 1 180 21 is_stmt 1 view .LVU267
 997              		.loc 1 180 21 view .LVU268
 998              	.LBB177:
 999              		.loc 2 67 5 view .LVU269
 1000              		.loc 2 67 5 is_stmt 0 view .LVU270
ARM GAS  /var/folders/2p/02m_5p7958535cp2tpgps0400000gn/T//cc0Z3V5w.s 			page 25


 1001              	.LBE177:
 1002              		.loc 1 180 21 is_stmt 1 view .LVU271
 1003              		.loc 1 180 21 view .LVU272
 1004              	.LBB178:
 1005              		.loc 2 67 5 view .LVU273
 1006              		.loc 2 67 5 is_stmt 0 view .LVU274
 1007              	.LBE178:
 1008              		.loc 1 180 21 is_stmt 1 view .LVU275
 1009              		.loc 1 180 21 view .LVU276
 1010              	.LBB179:
 1011              		.loc 2 67 5 view .LVU277
 1012              	.LBB150:
 1013              		.loc 2 67 37 is_stmt 0 view .LVU278
 1014 005c C0F83421 		str	r2, [r0, #308]	@ float
 1015              	.LVL71:
 1016              		.loc 2 67 37 view .LVU279
 1017              	.LBE150:
 1018              	.LBE179:
 1019              		.loc 1 180 21 is_stmt 1 view .LVU280
 1020              		.loc 1 180 21 view .LVU281
 1021              	.LBB180:
 1022              		.loc 2 67 5 view .LVU282
 1023              	.LBE180:
 1024              		.loc 1 180 21 is_stmt 0 view .LVU283
 1025 0060 00F50370 		add	r0, r0, #524
 1026              	.LVL72:
 1027              	.LBB181:
 1028              	.LBB151:
 1029              		.loc 2 67 37 view .LVU284
 1030 0064 C4F84821 		str	r2, [r4, #328]	@ float
 1031 0068 C4F84C21 		str	r2, [r4, #332]	@ float
 1032              	.LVL73:
 1033              		.loc 2 67 37 view .LVU285
 1034              	.LBE151:
 1035              	.LBE181:
 1036              		.loc 1 180 21 is_stmt 1 view .LVU286
 1037              		.loc 1 180 21 view .LVU287
 1038              	.LBB182:
 1039              		.loc 2 67 5 view .LVU288
 1040              	.LBB152:
 1041              		.loc 2 67 37 is_stmt 0 view .LVU289
 1042 006c C4F86021 		str	r2, [r4, #352]	@ float
 1043 0070 C4F86421 		str	r2, [r4, #356]	@ float
 1044              	.LVL74:
 1045              		.loc 2 67 37 view .LVU290
 1046              	.LBE152:
 1047              	.LBE182:
 1048              		.loc 1 180 21 is_stmt 1 view .LVU291
 1049              		.loc 1 180 21 view .LVU292
 1050              		.loc 1 180 21 view .LVU293
 1051              	.LBB183:
 1052              	.LBI183:
  64:zita-rev1/source/reverb.cpp ****     _size (0),
 1053              		.loc 1 64 1 view .LVU294
 1054              	.LBB184:
  66:zita-rev1/source/reverb.cpp **** {
 1055              		.loc 1 66 13 is_stmt 0 view .LVU295
ARM GAS  /var/folders/2p/02m_5p7958535cp2tpgps0400000gn/T//cc0Z3V5w.s 			page 26


 1056 0074 C4E95B33 		strd	r3, r3, [r4, #364]
 1057              	.LVL75:
  66:zita-rev1/source/reverb.cpp **** {
 1058              		.loc 1 66 13 view .LVU296
 1059              	.LBE184:
 1060              	.LBE183:
 1061              		.loc 1 180 21 is_stmt 1 view .LVU297
 1062              		.loc 1 180 21 view .LVU298
 1063              	.LBB192:
  64:zita-rev1/source/reverb.cpp ****     _size (0),
 1064              		.loc 1 64 1 view .LVU299
 1065              	.LBB185:
  66:zita-rev1/source/reverb.cpp **** {
 1066              		.loc 1 66 13 is_stmt 0 view .LVU300
 1067 0078 C4E95E33 		strd	r3, r3, [r4, #376]
 1068              	.LVL76:
  66:zita-rev1/source/reverb.cpp **** {
 1069              		.loc 1 66 13 view .LVU301
 1070              	.LBE185:
 1071              	.LBE192:
 1072              		.loc 1 180 21 is_stmt 1 view .LVU302
 1073              		.loc 1 180 21 view .LVU303
 1074              	.LBB193:
  64:zita-rev1/source/reverb.cpp ****     _size (0),
 1075              		.loc 1 64 1 view .LVU304
 1076              	.LBB186:
  66:zita-rev1/source/reverb.cpp **** {
 1077              		.loc 1 66 13 is_stmt 0 view .LVU305
 1078 007c C4E96133 		strd	r3, r3, [r4, #388]
 1079              	.LVL77:
  66:zita-rev1/source/reverb.cpp **** {
 1080              		.loc 1 66 13 view .LVU306
 1081              	.LBE186:
 1082              	.LBE193:
 1083              		.loc 1 180 21 is_stmt 1 view .LVU307
 1084              		.loc 1 180 21 view .LVU308
 1085              	.LBB194:
  64:zita-rev1/source/reverb.cpp ****     _size (0),
 1086              		.loc 1 64 1 view .LVU309
 1087              	.LBB187:
  66:zita-rev1/source/reverb.cpp **** {
 1088              		.loc 1 66 13 is_stmt 0 view .LVU310
 1089 0080 C4E96433 		strd	r3, r3, [r4, #400]
 1090              	.LVL78:
  66:zita-rev1/source/reverb.cpp **** {
 1091              		.loc 1 66 13 view .LVU311
 1092              	.LBE187:
 1093              	.LBE194:
 1094              		.loc 1 180 21 is_stmt 1 view .LVU312
 1095              		.loc 1 180 21 view .LVU313
 1096              	.LBB195:
  64:zita-rev1/source/reverb.cpp ****     _size (0),
 1097              		.loc 1 64 1 view .LVU314
 1098              	.LBB188:
  66:zita-rev1/source/reverb.cpp **** {
 1099              		.loc 1 66 13 is_stmt 0 view .LVU315
 1100 0084 C4E96733 		strd	r3, r3, [r4, #412]
ARM GAS  /var/folders/2p/02m_5p7958535cp2tpgps0400000gn/T//cc0Z3V5w.s 			page 27


 1101              	.LVL79:
  66:zita-rev1/source/reverb.cpp **** {
 1102              		.loc 1 66 13 view .LVU316
 1103              	.LBE188:
 1104              	.LBE195:
 1105              		.loc 1 180 21 is_stmt 1 view .LVU317
 1106              		.loc 1 180 21 view .LVU318
 1107              	.LBB196:
  64:zita-rev1/source/reverb.cpp ****     _size (0),
 1108              		.loc 1 64 1 view .LVU319
 1109              	.LBB189:
  66:zita-rev1/source/reverb.cpp **** {
 1110              		.loc 1 66 13 is_stmt 0 view .LVU320
 1111 0088 C4E96A33 		strd	r3, r3, [r4, #424]
 1112              	.LVL80:
  66:zita-rev1/source/reverb.cpp **** {
 1113              		.loc 1 66 13 view .LVU321
 1114              	.LBE189:
 1115              	.LBE196:
 1116              		.loc 1 180 21 is_stmt 1 view .LVU322
 1117              		.loc 1 180 21 view .LVU323
 1118              	.LBB197:
  64:zita-rev1/source/reverb.cpp ****     _size (0),
 1119              		.loc 1 64 1 view .LVU324
 1120              	.LBB190:
  66:zita-rev1/source/reverb.cpp **** {
 1121              		.loc 1 66 13 is_stmt 0 view .LVU325
 1122 008c C4E96D33 		strd	r3, r3, [r4, #436]
 1123              	.LVL81:
  66:zita-rev1/source/reverb.cpp **** {
 1124              		.loc 1 66 13 view .LVU326
 1125              	.LBE190:
 1126              	.LBE197:
 1127              		.loc 1 180 21 is_stmt 1 view .LVU327
 1128              		.loc 1 180 21 view .LVU328
 1129              	.LBB198:
  64:zita-rev1/source/reverb.cpp ****     _size (0),
 1130              		.loc 1 64 1 view .LVU329
 1131              	.LBB191:
  66:zita-rev1/source/reverb.cpp **** {
 1132              		.loc 1 66 13 is_stmt 0 view .LVU330
 1133 0090 C4E97033 		strd	r3, r3, [r4, #448]
 1134              	.LVL82:
  66:zita-rev1/source/reverb.cpp **** {
 1135              		.loc 1 66 13 view .LVU331
 1136              	.LBE191:
 1137              	.LBE198:
 1138              		.loc 1 180 21 is_stmt 1 view .LVU332
 1139              		.loc 1 180 21 view .LVU333
 1140 0094 FFF7FEFF 		bl	_ZN5PareqC1Ev
 1141              	.LVL83:
 1142 0098 04F51970 		add	r0, r4, #612
 1143 009c FFF7FEFF 		bl	_ZN5PareqC1Ev
 1144              	.LVL84:
 1145              	.LBE199:
 181:zita-rev1/source/reverb.cpp **** {
 182:zita-rev1/source/reverb.cpp **** }
ARM GAS  /var/folders/2p/02m_5p7958535cp2tpgps0400000gn/T//cc0Z3V5w.s 			page 28


 1146              		.loc 1 182 1 is_stmt 0 view .LVU334
 1147 00a0 2046     		mov	r0, r4
 1148 00a2 10BD     		pop	{r4, pc}
 1149              		.loc 1 182 1 view .LVU335
 1150              		.cfi_endproc
 1151              	.LFE595:
 1153              		.global	_ZN6ReverbC1Ev
 1154              		.thumb_set _ZN6ReverbC1Ev,_ZN6ReverbC2Ev
 1155              		.section	.text._ZN6ReverbD2Ev,"ax",%progbits
 1156              		.align	1
 1157              		.p2align 2,,3
 1158              		.global	_ZN6ReverbD2Ev
 1159              		.syntax unified
 1160              		.thumb
 1161              		.thumb_func
 1163              	_ZN6ReverbD2Ev:
 1164              	.LVL85:
 1165              	.LFB598:
 183:zita-rev1/source/reverb.cpp **** 
 184:zita-rev1/source/reverb.cpp **** 
 185:zita-rev1/source/reverb.cpp **** Reverb::~Reverb (void)
 1166              		.loc 1 185 1 is_stmt 1 view -0
 1167              		.cfi_startproc
 1168              		@ args = 0, pretend = 0, frame = 0
 1169              		@ frame_needed = 0, uses_anonymous_args = 0
 1170              	.LBB224:
 186:zita-rev1/source/reverb.cpp **** {
 187:zita-rev1/source/reverb.cpp ****     fini ();
 1171              		.loc 1 187 5 view .LVU337
 1172              	.LBE224:
 185:zita-rev1/source/reverb.cpp **** {
 1173              		.loc 1 185 1 is_stmt 0 view .LVU338
 1174 0000 70B5     		push	{r4, r5, r6, lr}
 1175              		.cfi_def_cfa_offset 16
 1176              		.cfi_offset 4, -16
 1177              		.cfi_offset 5, -12
 1178              		.cfi_offset 6, -8
 1179              		.cfi_offset 14, -4
 185:zita-rev1/source/reverb.cpp **** {
 1180              		.loc 1 185 1 view .LVU339
 1181 0002 0546     		mov	r5, r0
 1182              	.LVL86:
 1183              	.LBB262:
 1184              	.LBB225:
 1185              	.LBI225:
 188:zita-rev1/source/reverb.cpp **** }
 189:zita-rev1/source/reverb.cpp **** 
 190:zita-rev1/source/reverb.cpp **** /*
 191:zita-rev1/source/reverb.cpp ****  R_DELAY, &r_delay   0.04);
 192:zita-rev1/source/reverb.cpp ****  R_XOVER, &r_xover  200.0);
 193:zita-rev1/source/reverb.cpp ****  R_RTLOW, &r_rtlow    3.0);
 194:zita-rev1/source/reverb.cpp ****  R_RTMID, &r_rtmid    2.0);
 195:zita-rev1/source/reverb.cpp ****  R_FDAMP, &r_fdamp  6.0e3);
 196:zita-rev1/source/reverb.cpp **** 
 197:zita-rev1/source/reverb.cpp ****  R_OPMIX, &r_opmix    0.5);
 198:zita-rev1/source/reverb.cpp ****  R_RGXYZ, &r_rgxyz    0.0);
 199:zita-rev1/source/reverb.cpp **** 
ARM GAS  /var/folders/2p/02m_5p7958535cp2tpgps0400000gn/T//cc0Z3V5w.s 			page 29


 200:zita-rev1/source/reverb.cpp **** 
 201:zita-rev1/source/reverb.cpp ****  R_EQ1FR, &r_parfr  160.0);
 202:zita-rev1/source/reverb.cpp ****  R_EQ1GN, &r_pargn    0.0);
 203:zita-rev1/source/reverb.cpp **** 
 204:zita-rev1/source/reverb.cpp ****  R_EQ2FR, &r_parfr  2.5e3);
 205:zita-rev1/source/reverb.cpp ****  R_EQ2GN, &r_pargn    0.0);
 206:zita-rev1/source/reverb.cpp ****  */
 207:zita-rev1/source/reverb.cpp **** 
 208:zita-rev1/source/reverb.cpp **** 
 209:zita-rev1/source/reverb.cpp **** void Reverb::init (float fsamp, bool ambis)
 210:zita-rev1/source/reverb.cpp **** {
 211:zita-rev1/source/reverb.cpp ****     int i, k1, k2;
 212:zita-rev1/source/reverb.cpp **** 
 213:zita-rev1/source/reverb.cpp ****     _fsamp = fsamp;
 214:zita-rev1/source/reverb.cpp ****     _ambis = ambis;
 215:zita-rev1/source/reverb.cpp ****     _cntA1 = 1;
 216:zita-rev1/source/reverb.cpp ****     _cntA2 = 0;
 217:zita-rev1/source/reverb.cpp ****     _cntB1 = 1;
 218:zita-rev1/source/reverb.cpp ****     _cntB2 = 0;
 219:zita-rev1/source/reverb.cpp ****     _cntC1 = 1;
 220:zita-rev1/source/reverb.cpp ****     _cntC2 = 0;
 221:zita-rev1/source/reverb.cpp **** 
 222:zita-rev1/source/reverb.cpp ****     _ipdel = 0.04f;
 223:zita-rev1/source/reverb.cpp ****     _xover = 200.0f;
 224:zita-rev1/source/reverb.cpp ****     _rtlow = 3.0f;
 225:zita-rev1/source/reverb.cpp ****     _rtmid = 2.0f;
 226:zita-rev1/source/reverb.cpp ****     _fdamp = 3e3f;
 227:zita-rev1/source/reverb.cpp ****     _opmix = 0.5f;
 228:zita-rev1/source/reverb.cpp ****     _rgxyz = 0.0f;
 229:zita-rev1/source/reverb.cpp **** 
 230:zita-rev1/source/reverb.cpp ****     _g0 = _d0 = 0;
 231:zita-rev1/source/reverb.cpp ****     _g1 = _d1 = 0;
 232:zita-rev1/source/reverb.cpp **** 
 233:zita-rev1/source/reverb.cpp ****     _vdelay0.init ((int)(0.1f * _fsamp));
 234:zita-rev1/source/reverb.cpp ****     _vdelay1.init ((int)(0.1f * _fsamp));
 235:zita-rev1/source/reverb.cpp ****     for (i = 0; i < 8; i++)
 236:zita-rev1/source/reverb.cpp ****     {
 237:zita-rev1/source/reverb.cpp **** 	k1 = (int)(floorf (_tdiff1 [i] * _fsamp + 0.5f));
 238:zita-rev1/source/reverb.cpp **** 	k2 = (int)(floorf (_tdelay [i] * _fsamp + 0.5f));
 239:zita-rev1/source/reverb.cpp ****         _diff1 [i].init (k1, (i & 1) ? -0.6f : 0.6f);
 240:zita-rev1/source/reverb.cpp ****         _delay [i].init (k2 - k1);
 241:zita-rev1/source/reverb.cpp ****     }
 242:zita-rev1/source/reverb.cpp **** 
 243:zita-rev1/source/reverb.cpp ****     _pareq1.setfsamp (fsamp);
 244:zita-rev1/source/reverb.cpp ****     _pareq2.setfsamp (fsamp);
 245:zita-rev1/source/reverb.cpp **** }
 246:zita-rev1/source/reverb.cpp **** 
 247:zita-rev1/source/reverb.cpp **** 
 248:zita-rev1/source/reverb.cpp **** void Reverb::fini (void)
 1186              		.loc 1 248 6 is_stmt 1 view .LVU340
 1187              	.LBE225:
 1188              	.LBE262:
 249:zita-rev1/source/reverb.cpp **** {
 250:zita-rev1/source/reverb.cpp ****     for (int i = 0; i < 8; i++) _delay [i].fini ();
 1189              		.loc 1 250 5 view .LVU341
 1190              	.LBB263:
 1191              	.LBB237:
ARM GAS  /var/folders/2p/02m_5p7958535cp2tpgps0400000gn/T//cc0Z3V5w.s 			page 30


 1192              	.LBB226:
 1193              		.loc 1 250 23 view .LVU342
 1194 0004 00F16006 		add	r6, r0, #96
 1195              	.LBE226:
 1196              	.LBE237:
 1197              	.LBE263:
 185:zita-rev1/source/reverb.cpp **** {
 1198              		.loc 1 185 1 is_stmt 0 view .LVU343
 1199 0008 0446     		mov	r4, r0
 1200              	.LVL87:
 1201              	.L70:
 1202              	.LBB264:
 1203              	.LBB238:
 1204              	.LBB235:
 1205              		.loc 1 250 33 is_stmt 1 view .LVU344
 1206              	.LBB227:
 1207              	.LBI227:
  86:zita-rev1/source/reverb.cpp **** {
 1208              		.loc 1 86 6 view .LVU345
 1209              	.LBB228:
  88:zita-rev1/source/reverb.cpp ****     _size = 0;
 1210              		.loc 1 88 5 view .LVU346
  89:zita-rev1/source/reverb.cpp ****     _line = 0;
 1211              		.loc 1 89 5 view .LVU347
  88:zita-rev1/source/reverb.cpp ****     _size = 0;
 1212              		.loc 1 88 14 is_stmt 0 view .LVU348
 1213 000a D4F87001 		ldr	r0, [r4, #368]
  88:zita-rev1/source/reverb.cpp ****     _size = 0;
 1214              		.loc 1 88 5 view .LVU349
 1215 000e B0B3     		cbz	r0, .L67
 1216              	.LBE228:
 1217              	.LBE227:
 1218              		.loc 1 250 23 view .LVU350
 1219 0010 0C34     		adds	r4, r4, #12
 1220              	.LBB232:
 1221              	.LBB229:
  88:zita-rev1/source/reverb.cpp ****     _size = 0;
 1222              		.loc 1 88 14 view .LVU351
 1223 0012 FFF7FEFF 		bl	_ZdaPv
 1224              	.LVL88:
  89:zita-rev1/source/reverb.cpp ****     _line = 0;
 1225              		.loc 1 89 5 is_stmt 1 view .LVU352
  89:zita-rev1/source/reverb.cpp ****     _line = 0;
 1226              		.loc 1 89 11 is_stmt 0 view .LVU353
 1227 0016 0023     		movs	r3, #0
 1228              	.LBE229:
 1229              	.LBE232:
 1230              		.loc 1 250 23 view .LVU354
 1231 0018 A642     		cmp	r6, r4
 1232              	.LBB233:
 1233              	.LBB230:
  90:zita-rev1/source/reverb.cpp **** }
 1234              		.loc 1 90 11 view .LVU355
 1235 001a C4E95833 		strd	r3, r3, [r4, #352]
  90:zita-rev1/source/reverb.cpp **** }
 1236              		.loc 1 90 11 view .LVU356
 1237              	.LBE230:
ARM GAS  /var/folders/2p/02m_5p7958535cp2tpgps0400000gn/T//cc0Z3V5w.s 			page 31


 1238              	.LBE233:
 1239              		.loc 1 250 5 is_stmt 1 view .LVU357
 1240              		.loc 1 250 23 view .LVU358
 1241 001e F4D1     		bne	.L70
 1242              	.L68:
 1243              	.LVL89:
 1244              		.loc 1 250 23 is_stmt 0 view .LVU359
 1245              	.LBE235:
 1246              	.LBE238:
 185:zita-rev1/source/reverb.cpp **** {
 1247              		.loc 1 185 22 view .LVU360
 1248 0020 05F51970 		add	r0, r5, #612
 1249 0024 05F5DE74 		add	r4, r5, #444
 1250 0028 FFF7FEFF 		bl	_ZN5PareqD1Ev
 1251              	.LVL90:
 1252 002c 05F50370 		add	r0, r5, #524
 1253 0030 05F5AE76 		add	r6, r5, #348
 1254 0034 FFF7FEFF 		bl	_ZN5PareqD1Ev
 1255              	.LVL91:
 1256              	.L74:
 1257              	.LBB239:
 1258              	.LBI239:
  71:zita-rev1/source/reverb.cpp **** {
 1259              		.loc 1 71 1 is_stmt 1 discriminator 5 view .LVU361
 1260              	.LBE239:
 1261              	.LBE264:
  73:zita-rev1/source/reverb.cpp **** }
 1262              		.loc 1 73 5 discriminator 5 view .LVU362
 1263              	.LBB265:
 1264              	.LBB244:
 1265              	.LBB240:
 1266              	.LBI240:
  86:zita-rev1/source/reverb.cpp **** {
 1267              		.loc 1 86 6 discriminator 5 view .LVU363
 1268              	.LBB241:
  88:zita-rev1/source/reverb.cpp ****     _size = 0;
 1269              		.loc 1 88 5 discriminator 5 view .LVU364
  89:zita-rev1/source/reverb.cpp ****     _line = 0;
 1270              		.loc 1 89 5 discriminator 5 view .LVU365
  90:zita-rev1/source/reverb.cpp **** }
 1271              		.loc 1 90 5 discriminator 5 view .LVU366
  88:zita-rev1/source/reverb.cpp ****     _size = 0;
 1272              		.loc 1 88 14 is_stmt 0 discriminator 5 view .LVU367
 1273 0038 A068     		ldr	r0, [r4, #8]
 1274              	.LBE241:
 1275              	.LBE240:
 1276              	.LBE244:
 185:zita-rev1/source/reverb.cpp **** {
 1277              		.loc 1 185 22 discriminator 5 view .LVU368
 1278 003a 0C3C     		subs	r4, r4, #12
 1279              	.LBB245:
 1280              	.LBB243:
 1281              	.LBB242:
  88:zita-rev1/source/reverb.cpp ****     _size = 0;
 1282              		.loc 1 88 5 discriminator 5 view .LVU369
 1283 003c E0B1     		cbz	r0, .L71
  88:zita-rev1/source/reverb.cpp ****     _size = 0;
ARM GAS  /var/folders/2p/02m_5p7958535cp2tpgps0400000gn/T//cc0Z3V5w.s 			page 32


 1284              		.loc 1 88 14 view .LVU370
 1285 003e FFF7FEFF 		bl	_ZdaPv
 1286              	.LVL92:
  89:zita-rev1/source/reverb.cpp ****     _line = 0;
 1287              		.loc 1 89 5 is_stmt 1 view .LVU371
  90:zita-rev1/source/reverb.cpp **** }
 1288              		.loc 1 90 5 view .LVU372
 1289              	.LBE242:
 1290              	.LBE243:
 1291              	.LBE245:
 185:zita-rev1/source/reverb.cpp **** {
 1292              		.loc 1 185 22 is_stmt 0 view .LVU373
 1293 0042 B442     		cmp	r4, r6
 1294 0044 F8D1     		bne	.L74
 1295              	.L72:
 185:zita-rev1/source/reverb.cpp **** {
 1296              		.loc 1 185 22 discriminator 7 view .LVU374
 1297 0046 05F1A804 		add	r4, r5, #168
 1298 004a 05F12806 		add	r6, r5, #40
 1299              	.L78:
 1300              	.LBB246:
 1301              	.LBB247:
 1302              	.LBB248:
  56:zita-rev1/source/reverb.cpp ****     _line = 0;
 1303              		.loc 1 56 5 is_stmt 1 discriminator 19 view .LVU375
  57:zita-rev1/source/reverb.cpp **** }
 1304              		.loc 1 57 5 discriminator 19 view .LVU376
  55:zita-rev1/source/reverb.cpp ****     _size = 0;
 1305              		.loc 1 55 14 is_stmt 0 discriminator 19 view .LVU377
 1306 004e 54F8040C 		ldr	r0, [r4, #-4]
 1307              	.LBE248:
 1308              	.LBE247:
 1309              	.LBE246:
 185:zita-rev1/source/reverb.cpp **** {
 1310              		.loc 1 185 22 discriminator 19 view .LVU378
 1311 0052 103C     		subs	r4, r4, #16
 1312              	.LVL93:
 1313              	.LBB251:
 1314              	.LBI246:
  37:zita-rev1/source/reverb.cpp **** {
 1315              		.loc 1 37 1 is_stmt 1 discriminator 19 view .LVU379
 1316              	.LBE251:
 1317              	.LBE265:
  39:zita-rev1/source/reverb.cpp **** }
 1318              		.loc 1 39 5 discriminator 19 view .LVU380
 1319              	.LBB266:
 1320              	.LBB252:
 1321              	.LBB250:
 1322              	.LBI247:
  53:zita-rev1/source/reverb.cpp **** {
 1323              		.loc 1 53 6 discriminator 19 view .LVU381
 1324              	.LBB249:
  55:zita-rev1/source/reverb.cpp ****     _size = 0;
 1325              		.loc 1 55 5 discriminator 19 view .LVU382
 1326 0054 68B1     		cbz	r0, .L75
  55:zita-rev1/source/reverb.cpp ****     _size = 0;
 1327              		.loc 1 55 14 is_stmt 0 view .LVU383
ARM GAS  /var/folders/2p/02m_5p7958535cp2tpgps0400000gn/T//cc0Z3V5w.s 			page 33


 1328 0056 FFF7FEFF 		bl	_ZdaPv
 1329              	.LVL94:
  56:zita-rev1/source/reverb.cpp ****     _line = 0;
 1330              		.loc 1 56 5 is_stmt 1 view .LVU384
  57:zita-rev1/source/reverb.cpp **** }
 1331              		.loc 1 57 5 view .LVU385
  57:zita-rev1/source/reverb.cpp **** }
 1332              		.loc 1 57 5 is_stmt 0 view .LVU386
 1333              	.LBE249:
 1334              	.LBE250:
 1335              	.LBE252:
 185:zita-rev1/source/reverb.cpp **** {
 1336              		.loc 1 185 22 view .LVU387
 1337 005a A642     		cmp	r6, r4
 1338 005c F7D1     		bne	.L78
 1339              	.L76:
 1340              	.LVL95:
 1341              	.LBB253:
 1342              	.LBI253:
 104:zita-rev1/source/reverb.cpp **** {
 1343              		.loc 1 104 1 is_stmt 1 discriminator 21 view .LVU388
 1344              	.LBE253:
 1345              	.LBE266:
 106:zita-rev1/source/reverb.cpp **** }
 1346              		.loc 1 106 5 discriminator 21 view .LVU389
 1347              	.LBB267:
 1348              	.LBB256:
 1349              	.LBB254:
 1350              	.LBI254:
 120:zita-rev1/source/reverb.cpp **** {
 1351              		.loc 1 120 6 discriminator 21 view .LVU390
 1352              	.LBB255:
 122:zita-rev1/source/reverb.cpp ****     _size = 0;
 1353              		.loc 1 122 5 discriminator 21 view .LVU391
 122:zita-rev1/source/reverb.cpp ****     _size = 0;
 1354              		.loc 1 122 14 is_stmt 0 discriminator 21 view .LVU392
 1355 005e 686A     		ldr	r0, [r5, #36]
 122:zita-rev1/source/reverb.cpp ****     _size = 0;
 1356              		.loc 1 122 5 discriminator 21 view .LVU393
 1357 0060 08B1     		cbz	r0, .L79
 122:zita-rev1/source/reverb.cpp ****     _size = 0;
 1358              		.loc 1 122 14 view .LVU394
 1359 0062 FFF7FEFF 		bl	_ZdaPv
 1360              	.LVL96:
 1361              	.L79:
 123:zita-rev1/source/reverb.cpp ****     _line = 0;
 1362              		.loc 1 123 5 is_stmt 1 view .LVU395
 124:zita-rev1/source/reverb.cpp **** }
 1363              		.loc 1 124 5 view .LVU396
 124:zita-rev1/source/reverb.cpp **** }
 1364              		.loc 1 124 5 is_stmt 0 view .LVU397
 1365              	.LBE255:
 1366              	.LBE254:
 1367              	.LBE256:
 1368              	.LBB257:
 1369              	.LBI257:
 104:zita-rev1/source/reverb.cpp **** {
ARM GAS  /var/folders/2p/02m_5p7958535cp2tpgps0400000gn/T//cc0Z3V5w.s 			page 34


 1370              		.loc 1 104 1 is_stmt 1 view .LVU398
 1371              	.LBE257:
 1372              	.LBE267:
 106:zita-rev1/source/reverb.cpp **** }
 1373              		.loc 1 106 5 view .LVU399
 1374              	.LBB268:
 1375              	.LBB260:
 1376              	.LBB258:
 1377              	.LBI258:
 120:zita-rev1/source/reverb.cpp **** {
 1378              		.loc 1 120 6 view .LVU400
 1379              	.LBB259:
 122:zita-rev1/source/reverb.cpp ****     _size = 0;
 1380              		.loc 1 122 5 view .LVU401
 122:zita-rev1/source/reverb.cpp ****     _size = 0;
 1381              		.loc 1 122 14 is_stmt 0 view .LVU402
 1382 0066 6869     		ldr	r0, [r5, #20]
 122:zita-rev1/source/reverb.cpp ****     _size = 0;
 1383              		.loc 1 122 5 view .LVU403
 1384 0068 08B1     		cbz	r0, .L80
 122:zita-rev1/source/reverb.cpp ****     _size = 0;
 1385              		.loc 1 122 14 view .LVU404
 1386 006a FFF7FEFF 		bl	_ZdaPv
 1387              	.LVL97:
 1388              	.L80:
 123:zita-rev1/source/reverb.cpp ****     _line = 0;
 1389              		.loc 1 123 5 is_stmt 1 view .LVU405
 124:zita-rev1/source/reverb.cpp **** }
 1390              		.loc 1 124 5 view .LVU406
 124:zita-rev1/source/reverb.cpp **** }
 1391              		.loc 1 124 5 is_stmt 0 view .LVU407
 1392              	.LBE259:
 1393              	.LBE258:
 1394              	.LBE260:
 1395              	.LBE268:
 188:zita-rev1/source/reverb.cpp **** 
 1396              		.loc 1 188 1 view .LVU408
 1397 006e 2846     		mov	r0, r5
 1398 0070 70BD     		pop	{r4, r5, r6, pc}
 1399              	.LVL98:
 1400              	.L75:
 1401              	.LBB269:
 185:zita-rev1/source/reverb.cpp **** {
 1402              		.loc 1 185 22 view .LVU409
 1403 0072 A642     		cmp	r6, r4
 1404 0074 EBD1     		bne	.L78
 1405 0076 F2E7     		b	.L76
 1406              	.LVL99:
 1407              	.L71:
 185:zita-rev1/source/reverb.cpp **** {
 1408              		.loc 1 185 22 view .LVU410
 1409 0078 B442     		cmp	r4, r6
 1410 007a DDD1     		bne	.L74
 1411 007c E3E7     		b	.L72
 1412              	.LVL100:
 1413              	.L67:
 1414              	.LBB261:
ARM GAS  /var/folders/2p/02m_5p7958535cp2tpgps0400000gn/T//cc0Z3V5w.s 			page 35


 1415              	.LBB236:
 1416              	.LBB234:
 1417              	.LBB231:
  89:zita-rev1/source/reverb.cpp ****     _line = 0;
 1418              		.loc 1 89 11 view .LVU411
 1419 007e C4F86C01 		str	r0, [r4, #364]
  90:zita-rev1/source/reverb.cpp **** }
 1420              		.loc 1 90 5 is_stmt 1 view .LVU412
  90:zita-rev1/source/reverb.cpp **** }
 1421              		.loc 1 90 5 is_stmt 0 view .LVU413
 1422              	.LBE231:
 1423              	.LBE234:
 1424              		.loc 1 250 5 is_stmt 1 view .LVU414
 1425              		.loc 1 250 23 view .LVU415
 1426 0082 0C34     		adds	r4, r4, #12
 1427 0084 B442     		cmp	r4, r6
 1428 0086 C0D1     		bne	.L70
 1429 0088 CAE7     		b	.L68
 1430              	.LBE236:
 1431              	.LBE261:
 1432              	.LBE269:
 1433              		.cfi_endproc
 1434              	.LFE598:
 1436              		.global	_ZN6ReverbD1Ev
 1437              		.thumb_set _ZN6ReverbD1Ev,_ZN6ReverbD2Ev
 1438 008a 00BF     		.section	.text._ZN6Reverb4initEfb,"ax",%progbits
 1439              		.align	1
 1440              		.p2align 2,,3
 1441              		.global	_ZN6Reverb4initEfb
 1442              		.syntax unified
 1443              		.thumb
 1444              		.thumb_func
 1446              	_ZN6Reverb4initEfb:
 1447              	.LVL101:
 1448              	.LFB600:
 210:zita-rev1/source/reverb.cpp ****     int i, k1, k2;
 1449              		.loc 1 210 1 view -0
 1450              		.cfi_startproc
 1451              		@ args = 0, pretend = 0, frame = 8
 1452              		@ frame_needed = 0, uses_anonymous_args = 0
 211:zita-rev1/source/reverb.cpp **** 
 1453              		.loc 1 211 5 view .LVU417
 213:zita-rev1/source/reverb.cpp ****     _ambis = ambis;
 1454              		.loc 1 213 5 view .LVU418
 233:zita-rev1/source/reverb.cpp ****     _vdelay1.init ((int)(0.1f * _fsamp));
 1455              		.loc 1 233 31 is_stmt 0 view .LVU419
 1456 0000 DFED827A 		vldr.32	s15, .L102
 216:zita-rev1/source/reverb.cpp ****     _cntB1 = 1;
 1457              		.loc 1 216 12 view .LVU420
 1458 0004 0022     		movs	r2, #0
 224:zita-rev1/source/reverb.cpp ****     _rtmid = 2.0f;
 1459              		.loc 1 224 12 view .LVU421
 1460 0006 824B     		ldr	r3, .L102+4
 233:zita-rev1/source/reverb.cpp ****     _vdelay1.init ((int)(0.1f * _fsamp));
 1461              		.loc 1 233 31 view .LVU422
 1462 0008 60EE277A 		vmul.f32	s15, s0, s15
 210:zita-rev1/source/reverb.cpp ****     int i, k1, k2;
ARM GAS  /var/folders/2p/02m_5p7958535cp2tpgps0400000gn/T//cc0Z3V5w.s 			page 36


 1463              		.loc 1 210 1 view .LVU423
 1464 000c 2DE9F04F 		push	{r4, r5, r6, r7, r8, r9, r10, fp, lr}
 1465              		.cfi_def_cfa_offset 36
 1466              		.cfi_offset 4, -36
 1467              		.cfi_offset 5, -32
 1468              		.cfi_offset 6, -28
 1469              		.cfi_offset 7, -24
 1470              		.cfi_offset 8, -20
 1471              		.cfi_offset 9, -16
 1472              		.cfi_offset 10, -12
 1473              		.cfi_offset 11, -8
 1474              		.cfi_offset 14, -4
 1475 0010 8346     		mov	fp, r0
 233:zita-rev1/source/reverb.cpp ****     _vdelay1.init ((int)(0.1f * _fsamp));
 1476              		.loc 1 233 19 view .LVU424
 1477 0012 FDEEE77A 		vcvt.s32.f32	s15, s15
 215:zita-rev1/source/reverb.cpp ****     _cntA2 = 0;
 1478              		.loc 1 215 12 view .LVU425
 1479 0016 0124     		movs	r4, #1
 210:zita-rev1/source/reverb.cpp ****     int i, k1, k2;
 1480              		.loc 1 210 1 view .LVU426
 1481 0018 2DED048B 		vpush.64	{d8, d9}
 1482              		.cfi_def_cfa_offset 52
 1483              		.cfi_offset 80, -52
 1484              		.cfi_offset 81, -48
 1485              		.cfi_offset 82, -44
 1486              		.cfi_offset 83, -40
 224:zita-rev1/source/reverb.cpp ****     _rtmid = 2.0f;
 1487              		.loc 1 224 12 view .LVU427
 1488 001c C0F8E831 		str	r3, [r0, #488]	@ float
 225:zita-rev1/source/reverb.cpp ****     _fdamp = 3e3f;
 1489              		.loc 1 225 12 view .LVU428
 1490 0020 4FF08040 		mov	r0, #1073741824
 1491              	.LVL102:
 214:zita-rev1/source/reverb.cpp ****     _cntA1 = 1;
 1492              		.loc 1 214 12 view .LVU429
 1493 0024 8BF80410 		strb	r1, [fp, #4]
 227:zita-rev1/source/reverb.cpp ****     _rgxyz = 0.0f;
 1494              		.loc 1 227 12 view .LVU430
 1495 0028 4FF07C53 		mov	r3, #1056964608
 226:zita-rev1/source/reverb.cpp ****     _opmix = 0.5f;
 1496              		.loc 1 226 12 view .LVU431
 1497 002c 7949     		ldr	r1, .L102+8
 1498              	.LVL103:
 210:zita-rev1/source/reverb.cpp ****     int i, k1, k2;
 1499              		.loc 1 210 1 view .LVU432
 1500 002e F0EE408A 		vmov.f32	s17, s0
 220:zita-rev1/source/reverb.cpp **** 
 1501              		.loc 1 220 12 view .LVU433
 1502 0032 CBF8DC21 		str	r2, [fp, #476]
 210:zita-rev1/source/reverb.cpp ****     int i, k1, k2;
 1503              		.loc 1 210 1 view .LVU434
 1504 0036 83B0     		sub	sp, sp, #12
 1505              		.cfi_def_cfa_offset 64
 226:zita-rev1/source/reverb.cpp ****     _opmix = 0.5f;
 1506              		.loc 1 226 12 view .LVU435
 1507 0038 CBF8F011 		str	r1, [fp, #496]	@ float
ARM GAS  /var/folders/2p/02m_5p7958535cp2tpgps0400000gn/T//cc0Z3V5w.s 			page 37


 1508              	.LBB278:
 1509              	.LBB279:
 113:zita-rev1/source/reverb.cpp ****     memset (_line, 0, size * sizeof (float));
 1510              		.loc 1 113 28 view .LVU436
 1511 003c 6FF06041 		mvn	r1, #-536870912
 1512              	.LBE279:
 1513              	.LBE278:
 215:zita-rev1/source/reverb.cpp ****     _cntA2 = 0;
 1514              		.loc 1 215 12 view .LVU437
 1515 0040 CBF8C841 		str	r4, [fp, #456]
 225:zita-rev1/source/reverb.cpp ****     _fdamp = 3e3f;
 1516              		.loc 1 225 12 view .LVU438
 1517 0044 CBF8EC01 		str	r0, [fp, #492]	@ float
 217:zita-rev1/source/reverb.cpp ****     _cntB2 = 0;
 1518              		.loc 1 217 12 view .LVU439
 1519 0048 CBF8CC41 		str	r4, [fp, #460]
 223:zita-rev1/source/reverb.cpp ****     _rtlow = 3.0f;
 1520              		.loc 1 223 12 view .LVU440
 1521 004c 7248     		ldr	r0, .L102+12
 227:zita-rev1/source/reverb.cpp ****     _rgxyz = 0.0f;
 1522              		.loc 1 227 12 view .LVU441
 1523 004e CBF8F431 		str	r3, [fp, #500]	@ float
 228:zita-rev1/source/reverb.cpp **** 
 1524              		.loc 1 228 12 view .LVU442
 1525 0052 0023     		movs	r3, #0
 219:zita-rev1/source/reverb.cpp ****     _cntC2 = 0;
 1526              		.loc 1 219 12 view .LVU443
 1527 0054 CBF8D041 		str	r4, [fp, #464]
 222:zita-rev1/source/reverb.cpp ****     _xover = 200.0f;
 1528              		.loc 1 222 12 view .LVU444
 1529 0058 704C     		ldr	r4, .L102+16
 213:zita-rev1/source/reverb.cpp ****     _ambis = ambis;
 1530              		.loc 1 213 12 view .LVU445
 1531 005a 8BED000A 		vstr.32	s0, [fp]
 214:zita-rev1/source/reverb.cpp ****     _cntA1 = 1;
 1532              		.loc 1 214 5 is_stmt 1 view .LVU446
 215:zita-rev1/source/reverb.cpp ****     _cntA2 = 0;
 1533              		.loc 1 215 5 view .LVU447
 216:zita-rev1/source/reverb.cpp ****     _cntB1 = 1;
 1534              		.loc 1 216 5 view .LVU448
 222:zita-rev1/source/reverb.cpp ****     _xover = 200.0f;
 1535              		.loc 1 222 12 is_stmt 0 view .LVU449
 1536 005e CBF8E041 		str	r4, [fp, #480]	@ float
 228:zita-rev1/source/reverb.cpp **** 
 1537              		.loc 1 228 12 view .LVU450
 1538 0062 CBF8F831 		str	r3, [fp, #504]	@ float
 223:zita-rev1/source/reverb.cpp ****     _rtlow = 3.0f;
 1539              		.loc 1 223 12 view .LVU451
 1540 0066 CBF8E401 		str	r0, [fp, #484]	@ float
 230:zita-rev1/source/reverb.cpp ****     _g1 = _d1 = 0;
 1541              		.loc 1 230 15 view .LVU452
 1542 006a CBF80032 		str	r3, [fp, #512]	@ float
 230:zita-rev1/source/reverb.cpp ****     _g1 = _d1 = 0;
 1543              		.loc 1 230 9 view .LVU453
 1544 006e CBF8FC31 		str	r3, [fp, #508]	@ float
 231:zita-rev1/source/reverb.cpp **** 
 1545              		.loc 1 231 15 view .LVU454
ARM GAS  /var/folders/2p/02m_5p7958535cp2tpgps0400000gn/T//cc0Z3V5w.s 			page 38


 1546 0072 CBF80832 		str	r3, [fp, #520]	@ float
 231:zita-rev1/source/reverb.cpp **** 
 1547              		.loc 1 231 9 view .LVU455
 1548 0076 CBF80432 		str	r3, [fp, #516]	@ float
 1549              	.LBB286:
 1550              	.LBB280:
 112:zita-rev1/source/reverb.cpp ****     _line = new float [size];
 1551              		.loc 1 112 11 view .LVU456
 1552 007a CBED047A 		vstr.32	s15, [fp, #16]	@ int
 1553              	.LBE280:
 1554              	.LBE286:
 218:zita-rev1/source/reverb.cpp ****     _cntC1 = 1;
 1555              		.loc 1 218 12 view .LVU457
 1556 007e CBE97522 		strd	r2, r2, [fp, #468]
 219:zita-rev1/source/reverb.cpp ****     _cntC2 = 0;
 1557              		.loc 1 219 5 is_stmt 1 view .LVU458
 220:zita-rev1/source/reverb.cpp **** 
 1558              		.loc 1 220 5 view .LVU459
 222:zita-rev1/source/reverb.cpp ****     _xover = 200.0f;
 1559              		.loc 1 222 5 view .LVU460
 223:zita-rev1/source/reverb.cpp ****     _rtlow = 3.0f;
 1560              		.loc 1 223 5 view .LVU461
 224:zita-rev1/source/reverb.cpp ****     _rtmid = 2.0f;
 1561              		.loc 1 224 5 view .LVU462
 225:zita-rev1/source/reverb.cpp ****     _fdamp = 3e3f;
 1562              		.loc 1 225 5 view .LVU463
 226:zita-rev1/source/reverb.cpp ****     _opmix = 0.5f;
 1563              		.loc 1 226 5 view .LVU464
 227:zita-rev1/source/reverb.cpp ****     _rgxyz = 0.0f;
 1564              		.loc 1 227 5 view .LVU465
 228:zita-rev1/source/reverb.cpp **** 
 1565              		.loc 1 228 5 view .LVU466
 230:zita-rev1/source/reverb.cpp ****     _g1 = _d1 = 0;
 1566              		.loc 1 230 5 view .LVU467
 231:zita-rev1/source/reverb.cpp **** 
 1567              		.loc 1 231 5 view .LVU468
 233:zita-rev1/source/reverb.cpp ****     _vdelay1.init ((int)(0.1f * _fsamp));
 1568              		.loc 1 233 5 view .LVU469
 1569              	.LVL104:
 1570              	.LBB287:
 1571              	.LBI278:
 110:zita-rev1/source/reverb.cpp **** {
 1572              		.loc 1 110 6 view .LVU470
 1573              	.LBB281:
 112:zita-rev1/source/reverb.cpp ****     _line = new float [size];
 1574              		.loc 1 112 5 view .LVU471
 113:zita-rev1/source/reverb.cpp ****     memset (_line, 0, size * sizeof (float));
 1575              		.loc 1 113 5 view .LVU472
 1576              	.LBE281:
 1577              	.LBE287:
 233:zita-rev1/source/reverb.cpp ****     _vdelay1.init ((int)(0.1f * _fsamp));
 1578              		.loc 1 233 19 is_stmt 0 view .LVU473
 1579 0082 17EE902A 		vmov	r2, s15	@ int
 1580              	.LBB288:
 1581              	.LBB282:
 113:zita-rev1/source/reverb.cpp ****     memset (_line, 0, size * sizeof (float));
 1582              		.loc 1 113 28 view .LVU474
ARM GAS  /var/folders/2p/02m_5p7958535cp2tpgps0400000gn/T//cc0Z3V5w.s 			page 39


 1583 0086 8A42     		cmp	r2, r1
 1584 0088 C0F0BC80 		bcc	.L89
 1585 008c 9200     		lsls	r2, r2, #2
 1586 008e 4FF0FF30 		mov	r0, #-1
 1587              	.L90:
 1588 0092 0192     		str	r2, [sp, #4]
 1589 0094 FFF7FEFF 		bl	_Znaj
 1590              	.LVL105:
 114:zita-rev1/source/reverb.cpp ****     _ir = 0;
 1591              		.loc 1 114 12 view .LVU475
 1592 0098 019A     		ldr	r2, [sp, #4]
 1593 009a 0021     		movs	r1, #0
 113:zita-rev1/source/reverb.cpp ****     memset (_line, 0, size * sizeof (float));
 1594              		.loc 1 113 11 view .LVU476
 1595 009c CBF81400 		str	r0, [fp, #20]
 114:zita-rev1/source/reverb.cpp ****     _ir = 0;
 1596              		.loc 1 114 5 is_stmt 1 view .LVU477
 114:zita-rev1/source/reverb.cpp ****     _ir = 0;
 1597              		.loc 1 114 12 is_stmt 0 view .LVU478
 1598 00a0 FFF7FEFF 		bl	memset
 1599              	.LVL106:
 115:zita-rev1/source/reverb.cpp ****     _iw = 0;
 1600              		.loc 1 115 5 is_stmt 1 view .LVU479
 1601              	.LBE282:
 1602              	.LBE288:
 234:zita-rev1/source/reverb.cpp ****     for (i = 0; i < 8; i++)
 1603              		.loc 1 234 31 is_stmt 0 view .LVU480
 1604 00a4 DBED007A 		vldr.32	s15, [fp]
 1605 00a8 9FED587A 		vldr.32	s14, .L102
 1606              	.LVL107:
 1607              	.LBB289:
 1608              	.LBB290:
 113:zita-rev1/source/reverb.cpp ****     memset (_line, 0, size * sizeof (float));
 1609              		.loc 1 113 28 view .LVU481
 1610 00ac 6FF06041 		mvn	r1, #-536870912
 1611              	.LBE290:
 1612              	.LBE289:
 1613              	.LBB294:
 1614              	.LBB283:
 115:zita-rev1/source/reverb.cpp ****     _iw = 0;
 1615              		.loc 1 115 9 view .LVU482
 1616 00b0 0023     		movs	r3, #0
 1617              	.LBE283:
 1618              	.LBE294:
 234:zita-rev1/source/reverb.cpp ****     for (i = 0; i < 8; i++)
 1619              		.loc 1 234 31 view .LVU483
 1620 00b2 67EE877A 		vmul.f32	s15, s15, s14
 1621              	.LBB295:
 1622              	.LBB284:
 116:zita-rev1/source/reverb.cpp **** }
 1623              		.loc 1 116 9 view .LVU484
 1624 00b6 CBE90233 		strd	r3, r3, [fp, #8]
 1625              	.LVL108:
 116:zita-rev1/source/reverb.cpp **** }
 1626              		.loc 1 116 9 view .LVU485
 1627              	.LBE284:
 1628              	.LBE295:
ARM GAS  /var/folders/2p/02m_5p7958535cp2tpgps0400000gn/T//cc0Z3V5w.s 			page 40


 234:zita-rev1/source/reverb.cpp ****     for (i = 0; i < 8; i++)
 1629              		.loc 1 234 5 is_stmt 1 view .LVU486
 234:zita-rev1/source/reverb.cpp ****     for (i = 0; i < 8; i++)
 1630              		.loc 1 234 19 is_stmt 0 view .LVU487
 1631 00ba FDEEE77A 		vcvt.s32.f32	s15, s15
 1632 00be 17EE902A 		vmov	r2, s15	@ int
 1633              	.LVL109:
 1634              	.LBB296:
 1635              	.LBI289:
 110:zita-rev1/source/reverb.cpp **** {
 1636              		.loc 1 110 6 is_stmt 1 view .LVU488
 1637              	.LBB291:
 112:zita-rev1/source/reverb.cpp ****     _line = new float [size];
 1638              		.loc 1 112 5 view .LVU489
 112:zita-rev1/source/reverb.cpp ****     _line = new float [size];
 1639              		.loc 1 112 11 is_stmt 0 view .LVU490
 1640 00c2 CBED087A 		vstr.32	s15, [fp, #32]	@ int
 113:zita-rev1/source/reverb.cpp ****     memset (_line, 0, size * sizeof (float));
 1641              		.loc 1 113 5 is_stmt 1 view .LVU491
 113:zita-rev1/source/reverb.cpp ****     memset (_line, 0, size * sizeof (float));
 1642              		.loc 1 113 28 is_stmt 0 view .LVU492
 1643 00c6 8A42     		cmp	r2, r1
 1644 00c8 C0F09980 		bcc	.L91
 1645 00cc 9200     		lsls	r2, r2, #2
 1646              	.LVL110:
 113:zita-rev1/source/reverb.cpp ****     memset (_line, 0, size * sizeof (float));
 1647              		.loc 1 113 28 view .LVU493
 1648 00ce 4FF0FF30 		mov	r0, #-1
 1649              	.L92:
 1650 00d2 0192     		str	r2, [sp, #4]
 1651 00d4 FFF7FEFF 		bl	_Znaj
 1652              	.LVL111:
 114:zita-rev1/source/reverb.cpp ****     _ir = 0;
 1653              		.loc 1 114 12 view .LVU494
 1654 00d8 019A     		ldr	r2, [sp, #4]
 1655 00da 0021     		movs	r1, #0
 113:zita-rev1/source/reverb.cpp ****     memset (_line, 0, size * sizeof (float));
 1656              		.loc 1 113 11 view .LVU495
 1657 00dc CBF82400 		str	r0, [fp, #36]
 114:zita-rev1/source/reverb.cpp ****     _ir = 0;
 1658              		.loc 1 114 5 is_stmt 1 view .LVU496
 115:zita-rev1/source/reverb.cpp ****     _iw = 0;
 1659              		.loc 1 115 9 is_stmt 0 view .LVU497
 1660 00e0 0026     		movs	r6, #0
 114:zita-rev1/source/reverb.cpp ****     _ir = 0;
 1661              		.loc 1 114 12 view .LVU498
 1662 00e2 FFF7FEFF 		bl	memset
 1663              	.LVL112:
 115:zita-rev1/source/reverb.cpp ****     _iw = 0;
 1664              		.loc 1 115 5 is_stmt 1 view .LVU499
 1665              	.LBE291:
 1666              	.LBE296:
 237:zita-rev1/source/reverb.cpp **** 	k2 = (int)(floorf (_tdelay [i] * _fsamp + 0.5f));
 1667              		.loc 1 237 20 is_stmt 0 view .LVU500
 1668 00e6 F6EE007A 		vmov.f32	s15, #5.0e-1
 237:zita-rev1/source/reverb.cpp **** 	k2 = (int)(floorf (_tdelay [i] * _fsamp + 0.5f));
 1669              		.loc 1 237 31 view .LVU501
ARM GAS  /var/folders/2p/02m_5p7958535cp2tpgps0400000gn/T//cc0Z3V5w.s 			page 41


 1670 00ea DFF83CA1 		ldr	r10, .L102+28
 1671 00ee 5F46     		mov	r7, fp
 237:zita-rev1/source/reverb.cpp **** 	k2 = (int)(floorf (_tdelay [i] * _fsamp + 0.5f));
 1672              		.loc 1 237 35 view .LVU502
 1673 00f0 DBED006A 		vldr.32	s13, [fp]
 238:zita-rev1/source/reverb.cpp ****         _diff1 [i].init (k1, (i & 1) ? -0.6f : 0.6f);
 1674              		.loc 1 238 5 view .LVU503
 1675 00f4 D846     		mov	r8, fp
 237:zita-rev1/source/reverb.cpp **** 	k2 = (int)(floorf (_tdelay [i] * _fsamp + 0.5f));
 1676              		.loc 1 237 20 view .LVU504
 1677 00f6 B0EE677A 		vmov.f32	s14, s15
 1678 00fa DAED005A 		vldr.32	s11, [r10]
 238:zita-rev1/source/reverb.cpp ****         _diff1 [i].init (k1, (i & 1) ? -0.6f : 0.6f);
 1679              		.loc 1 238 31 view .LVU505
 1680 00fe DFF82C91 		ldr	r9, .L102+32
 239:zita-rev1/source/reverb.cpp ****         _delay [i].init (k2 - k1);
 1681              		.loc 1 239 25 view .LVU506
 1682 0102 9FED478A 		vldr.32	s16, .L102+20
 237:zita-rev1/source/reverb.cpp **** 	k2 = (int)(floorf (_tdelay [i] * _fsamp + 0.5f));
 1683              		.loc 1 237 20 view .LVU507
 1684 0106 A5EEA67A 		vfma.f32	s14, s11, s13
 238:zita-rev1/source/reverb.cpp ****         _diff1 [i].init (k1, (i & 1) ? -0.6f : 0.6f);
 1685              		.loc 1 238 20 view .LVU508
 1686 010a 99ED006A 		vldr.32	s12, [r9]
 1687 010e E6EE867A 		vfma.f32	s15, s13, s12
 1688              	.LBB297:
 1689              	.LBB292:
 116:zita-rev1/source/reverb.cpp **** }
 1690              		.loc 1 116 9 view .LVU509
 1691 0112 CBE90666 		strd	r6, r6, [fp, #24]
 1692              	.LVL113:
 116:zita-rev1/source/reverb.cpp **** }
 1693              		.loc 1 116 9 view .LVU510
 1694              	.LBE292:
 1695              	.LBE297:
 235:zita-rev1/source/reverb.cpp ****     {
 1696              		.loc 1 235 19 is_stmt 1 view .LVU511
 237:zita-rev1/source/reverb.cpp **** 	k2 = (int)(floorf (_tdelay [i] * _fsamp + 0.5f));
 1697              		.loc 1 237 2 view .LVU512
 237:zita-rev1/source/reverb.cpp **** 	k2 = (int)(floorf (_tdelay [i] * _fsamp + 0.5f));
 1698              		.loc 1 237 20 is_stmt 0 view .LVU513
 1699 0116 BBFE477A 		vrintm.f32	s14, s14
 237:zita-rev1/source/reverb.cpp **** 	k2 = (int)(floorf (_tdelay [i] * _fsamp + 0.5f));
 1700              		.loc 1 237 5 view .LVU514
 1701 011a BDEEC77A 		vcvt.s32.f32	s14, s14
 238:zita-rev1/source/reverb.cpp ****         _diff1 [i].init (k1, (i & 1) ? -0.6f : 0.6f);
 1702              		.loc 1 238 20 view .LVU515
 1703 011e FBFE677A 		vrintm.f32	s15, s15
 238:zita-rev1/source/reverb.cpp ****         _diff1 [i].init (k1, (i & 1) ? -0.6f : 0.6f);
 1704              		.loc 1 238 5 view .LVU516
 1705 0122 BDEEE79A 		vcvt.s32.f32	s18, s15
 237:zita-rev1/source/reverb.cpp **** 	k2 = (int)(floorf (_tdelay [i] * _fsamp + 0.5f));
 1706              		.loc 1 237 5 view .LVU517
 1707 0126 17EE105A 		vmov	r5, s14	@ int
 1708              	.LVL114:
 238:zita-rev1/source/reverb.cpp ****         _diff1 [i].init (k1, (i & 1) ? -0.6f : 0.6f);
 1709              		.loc 1 238 2 is_stmt 1 view .LVU518
ARM GAS  /var/folders/2p/02m_5p7958535cp2tpgps0400000gn/T//cc0Z3V5w.s 			page 42


 239:zita-rev1/source/reverb.cpp ****         _delay [i].init (k2 - k1);
 1710              		.loc 1 239 9 view .LVU519
 1711 012a 19E0     		b	.L93
 1712              	.LVL115:
 1713              	.L99:
 237:zita-rev1/source/reverb.cpp **** 	k2 = (int)(floorf (_tdelay [i] * _fsamp + 0.5f));
 1714              		.loc 1 237 20 is_stmt 0 view .LVU520
 1715 012c B0EE677A 		vmov.f32	s14, s15
 237:zita-rev1/source/reverb.cpp **** 	k2 = (int)(floorf (_tdelay [i] * _fsamp + 0.5f));
 1716              		.loc 1 237 35 view .LVU521
 1717 0130 DBED006A 		vldr.32	s13, [fp]
 237:zita-rev1/source/reverb.cpp **** 	k2 = (int)(floorf (_tdelay [i] * _fsamp + 0.5f));
 1718              		.loc 1 237 20 view .LVU522
 1719 0134 91ED005A 		vldr.32	s10, [r1]
 239:zita-rev1/source/reverb.cpp ****         _delay [i].init (k2 - k1);
 1720              		.loc 1 239 25 view .LVU523
 1721 0138 16F0010F 		tst	r6, #1
 238:zita-rev1/source/reverb.cpp ****         _diff1 [i].init (k1, (i & 1) ? -0.6f : 0.6f);
 1722              		.loc 1 238 20 view .LVU524
 1723 013c D2ED005A 		vldr.32	s11, [r2]
 237:zita-rev1/source/reverb.cpp **** 	k2 = (int)(floorf (_tdelay [i] * _fsamp + 0.5f));
 1724              		.loc 1 237 20 view .LVU525
 1725 0140 A5EE267A 		vfma.f32	s14, s10, s13
 239:zita-rev1/source/reverb.cpp ****         _delay [i].init (k2 - k1);
 1726              		.loc 1 239 25 view .LVU526
 1727 0144 06FE088A 		vseleq.f32	s16, s12, s16
 238:zita-rev1/source/reverb.cpp ****         _diff1 [i].init (k1, (i & 1) ? -0.6f : 0.6f);
 1728              		.loc 1 238 20 view .LVU527
 1729 0148 E6EEA57A 		vfma.f32	s15, s13, s11
 237:zita-rev1/source/reverb.cpp **** 	k2 = (int)(floorf (_tdelay [i] * _fsamp + 0.5f));
 1730              		.loc 1 237 20 view .LVU528
 1731 014c BBFE477A 		vrintm.f32	s14, s14
 237:zita-rev1/source/reverb.cpp **** 	k2 = (int)(floorf (_tdelay [i] * _fsamp + 0.5f));
 1732              		.loc 1 237 5 view .LVU529
 1733 0150 BDEEC77A 		vcvt.s32.f32	s14, s14
 238:zita-rev1/source/reverb.cpp ****         _diff1 [i].init (k1, (i & 1) ? -0.6f : 0.6f);
 1734              		.loc 1 238 20 view .LVU530
 1735 0154 FBFE677A 		vrintm.f32	s15, s15
 238:zita-rev1/source/reverb.cpp ****         _diff1 [i].init (k1, (i & 1) ? -0.6f : 0.6f);
 1736              		.loc 1 238 5 view .LVU531
 1737 0158 BDEEE79A 		vcvt.s32.f32	s18, s15
 1738              	.LVL116:
 237:zita-rev1/source/reverb.cpp **** 	k2 = (int)(floorf (_tdelay [i] * _fsamp + 0.5f));
 1739              		.loc 1 237 5 view .LVU532
 1740 015c 17EE105A 		vmov	r5, s14	@ int
 1741              	.LVL117:
 238:zita-rev1/source/reverb.cpp ****         _diff1 [i].init (k1, (i & 1) ? -0.6f : 0.6f);
 1742              		.loc 1 238 2 is_stmt 1 view .LVU533
 239:zita-rev1/source/reverb.cpp ****         _delay [i].init (k2 - k1);
 1743              		.loc 1 239 9 view .LVU534
 1744              	.L93:
 1745              	.LBB298:
 1746              	.LBI298:
  43:zita-rev1/source/reverb.cpp **** {
 1747              		.loc 1 43 6 discriminator 4 view .LVU535
 1748              	.LBB299:
  45:zita-rev1/source/reverb.cpp ****     _line = new float [size];
ARM GAS  /var/folders/2p/02m_5p7958535cp2tpgps0400000gn/T//cc0Z3V5w.s 			page 43


 1749              		.loc 1 45 5 discriminator 4 view .LVU536
  46:zita-rev1/source/reverb.cpp ****     memset (_line, 0, size * sizeof (float));
 1750              		.loc 1 46 28 is_stmt 0 discriminator 4 view .LVU537
 1751 0160 6FF06043 		mvn	r3, #-536870912
 1752 0164 A800     		lsls	r0, r5, #2
  45:zita-rev1/source/reverb.cpp ****     _line = new float [size];
 1753              		.loc 1 45 11 discriminator 4 view .LVU538
 1754 0166 3D63     		str	r5, [r7, #48]
  46:zita-rev1/source/reverb.cpp ****     memset (_line, 0, size * sizeof (float));
 1755              		.loc 1 46 5 is_stmt 1 discriminator 4 view .LVU539
 1756              	.LBE299:
 1757              	.LBE298:
 235:zita-rev1/source/reverb.cpp ****     {
 1758              		.loc 1 235 5 is_stmt 0 discriminator 4 view .LVU540
 1759 0168 0136     		adds	r6, r6, #1
 1760              	.LBB303:
 1761              	.LBB300:
  46:zita-rev1/source/reverb.cpp ****     memset (_line, 0, size * sizeof (float));
 1762              		.loc 1 46 28 discriminator 4 view .LVU541
 1763 016a 9D42     		cmp	r5, r3
 1764 016c 0446     		mov	r4, r0
 1765 016e 08F10C08 		add	r8, r8, #12
 1766 0172 07F11007 		add	r7, r7, #16
 1767 0176 34BF     		ite	cc
 1768 0178 0446     		movcc	r4, r0
 1769 017a 4FF0FF30 		movcs	r0, #-1
 1770 017e FFF7FEFF 		bl	_Znaj
 1771              	.LVL118:
  47:zita-rev1/source/reverb.cpp ****     _i = 0;
 1772              		.loc 1 47 12 discriminator 4 view .LVU542
 1773 0182 0021     		movs	r1, #0
 1774 0184 2246     		mov	r2, r4
  46:zita-rev1/source/reverb.cpp ****     memset (_line, 0, size * sizeof (float));
 1775              		.loc 1 46 11 discriminator 4 view .LVU543
 1776 0186 7862     		str	r0, [r7, #36]
  47:zita-rev1/source/reverb.cpp ****     _i = 0;
 1777              		.loc 1 47 5 is_stmt 1 discriminator 4 view .LVU544
  47:zita-rev1/source/reverb.cpp ****     _i = 0;
 1778              		.loc 1 47 12 is_stmt 0 discriminator 4 view .LVU545
 1779 0188 FFF7FEFF 		bl	memset
 1780              	.LVL119:
  48:zita-rev1/source/reverb.cpp ****     _c = c;
 1781              		.loc 1 48 5 is_stmt 1 discriminator 4 view .LVU546
 1782              	.LBE300:
 1783              	.LBE303:
 240:zita-rev1/source/reverb.cpp ****     }
 1784              		.loc 1 240 25 is_stmt 0 discriminator 4 view .LVU547
 1785 018c 19EE103A 		vmov	r3, s18	@ int
 1786              	.LBB304:
 1787              	.LBB305:
  80:zita-rev1/source/reverb.cpp ****     memset (_line, 0, size * sizeof (float));
 1788              		.loc 1 80 28 discriminator 4 view .LVU548
 1789 0190 6FF06042 		mvn	r2, #-536870912
 1790              	.LBE305:
 1791              	.LBE304:
 1792              	.LBB309:
 1793              	.LBB301:
ARM GAS  /var/folders/2p/02m_5p7958535cp2tpgps0400000gn/T//cc0Z3V5w.s 			page 44


  48:zita-rev1/source/reverb.cpp ****     _c = c;
 1794              		.loc 1 48 8 discriminator 4 view .LVU549
 1795 0194 0021     		movs	r1, #0
 1796              	.LBE301:
 1797              	.LBE309:
 240:zita-rev1/source/reverb.cpp ****     }
 1798              		.loc 1 240 25 discriminator 4 view .LVU550
 1799 0196 5D1B     		subs	r5, r3, r5
 1800              	.LVL120:
 1801              	.LBB310:
 1802              	.LBB302:
  49:zita-rev1/source/reverb.cpp **** }
 1803              		.loc 1 49 8 discriminator 4 view .LVU551
 1804 0198 87ED078A 		vstr.32	s16, [r7, #28]
  48:zita-rev1/source/reverb.cpp ****     _c = c;
 1805              		.loc 1 48 8 discriminator 4 view .LVU552
 1806 019c B961     		str	r1, [r7, #24]
  49:zita-rev1/source/reverb.cpp **** }
 1807              		.loc 1 49 5 is_stmt 1 discriminator 4 view .LVU553
 1808              	.LVL121:
  49:zita-rev1/source/reverb.cpp **** }
 1809              		.loc 1 49 5 is_stmt 0 discriminator 4 view .LVU554
 1810              	.LBE302:
 1811              	.LBE310:
 240:zita-rev1/source/reverb.cpp ****     }
 1812              		.loc 1 240 9 is_stmt 1 discriminator 4 view .LVU555
 1813              	.LBB311:
 1814              	.LBI304:
  77:zita-rev1/source/reverb.cpp **** {
 1815              		.loc 1 77 6 discriminator 4 view .LVU556
 1816              	.LBB306:
  79:zita-rev1/source/reverb.cpp ****     _line = new float [size];
 1817              		.loc 1 79 5 discriminator 4 view .LVU557
  80:zita-rev1/source/reverb.cpp ****     memset (_line, 0, size * sizeof (float));
 1818              		.loc 1 80 28 is_stmt 0 discriminator 4 view .LVU558
 1819 019e A800     		lsls	r0, r5, #2
 1820 01a0 9542     		cmp	r5, r2
  79:zita-rev1/source/reverb.cpp ****     _line = new float [size];
 1821              		.loc 1 79 11 discriminator 4 view .LVU559
 1822 01a2 C8F86051 		str	r5, [r8, #352]
  80:zita-rev1/source/reverb.cpp ****     memset (_line, 0, size * sizeof (float));
 1823              		.loc 1 80 5 is_stmt 1 discriminator 4 view .LVU560
 1824 01a6 0446     		mov	r4, r0
  80:zita-rev1/source/reverb.cpp ****     memset (_line, 0, size * sizeof (float));
 1825              		.loc 1 80 28 is_stmt 0 discriminator 4 view .LVU561
 1826 01a8 28BF     		it	cs
 1827 01aa 4FF0FF30 		movcs	r0, #-1
 1828 01ae FFF7FEFF 		bl	_Znaj
 1829              	.LVL122:
  81:zita-rev1/source/reverb.cpp ****     _i = 0;
 1830              		.loc 1 81 12 discriminator 4 view .LVU562
 1831 01b2 0021     		movs	r1, #0
  80:zita-rev1/source/reverb.cpp ****     memset (_line, 0, size * sizeof (float));
 1832              		.loc 1 80 11 discriminator 4 view .LVU563
 1833 01b4 C8F86401 		str	r0, [r8, #356]
  81:zita-rev1/source/reverb.cpp ****     _i = 0;
 1834              		.loc 1 81 5 is_stmt 1 discriminator 4 view .LVU564
ARM GAS  /var/folders/2p/02m_5p7958535cp2tpgps0400000gn/T//cc0Z3V5w.s 			page 45


  81:zita-rev1/source/reverb.cpp ****     _i = 0;
 1835              		.loc 1 81 12 is_stmt 0 discriminator 4 view .LVU565
 1836 01b8 2246     		mov	r2, r4
 1837 01ba FFF7FEFF 		bl	memset
 1838              	.LVL123:
  81:zita-rev1/source/reverb.cpp ****     _i = 0;
 1839              		.loc 1 81 12 discriminator 4 view .LVU566
 1840              	.LBE306:
 1841              	.LBE311:
 237:zita-rev1/source/reverb.cpp **** 	k2 = (int)(floorf (_tdelay [i] * _fsamp + 0.5f));
 1842              		.loc 1 237 2 is_stmt 1 discriminator 4 view .LVU567
 1843              	.LBB312:
 1844              	.LBB307:
  82:zita-rev1/source/reverb.cpp **** }
 1845              		.loc 1 82 5 discriminator 4 view .LVU568
  82:zita-rev1/source/reverb.cpp **** }
 1846              		.loc 1 82 8 is_stmt 0 discriminator 4 view .LVU569
 1847 01be 0023     		movs	r3, #0
 1848              	.LBE307:
 1849              	.LBE312:
 235:zita-rev1/source/reverb.cpp ****     {
 1850              		.loc 1 235 19 discriminator 4 view .LVU570
 1851 01c0 082E     		cmp	r6, #8
 237:zita-rev1/source/reverb.cpp **** 	k2 = (int)(floorf (_tdelay [i] * _fsamp + 0.5f));
 1852              		.loc 1 237 20 discriminator 4 view .LVU571
 1853 01c2 F6EE007A 		vmov.f32	s15, #5.0e-1
 237:zita-rev1/source/reverb.cpp **** 	k2 = (int)(floorf (_tdelay [i] * _fsamp + 0.5f));
 1854              		.loc 1 237 31 discriminator 4 view .LVU572
 1855 01c6 0AEB8601 		add	r1, r10, r6, lsl #2
 239:zita-rev1/source/reverb.cpp ****         _delay [i].init (k2 - k1);
 1856              		.loc 1 239 25 discriminator 4 view .LVU573
 1857 01ca 9FED168A 		vldr.32	s16, .L102+24
 238:zita-rev1/source/reverb.cpp ****         _diff1 [i].init (k1, (i & 1) ? -0.6f : 0.6f);
 1858              		.loc 1 238 31 discriminator 4 view .LVU574
 1859 01ce 09EB8602 		add	r2, r9, r6, lsl #2
 239:zita-rev1/source/reverb.cpp ****         _delay [i].init (k2 - k1);
 1860              		.loc 1 239 25 discriminator 4 view .LVU575
 1861 01d2 9FED136A 		vldr.32	s12, .L102+20
 1862              	.LBB313:
 1863              	.LBB308:
  82:zita-rev1/source/reverb.cpp **** }
 1864              		.loc 1 82 8 discriminator 4 view .LVU576
 1865 01d6 C8F85C31 		str	r3, [r8, #348]
 1866              	.LVL124:
  82:zita-rev1/source/reverb.cpp **** }
 1867              		.loc 1 82 8 discriminator 4 view .LVU577
 1868              	.LBE308:
 1869              	.LBE313:
 235:zita-rev1/source/reverb.cpp ****     {
 1870              		.loc 1 235 5 is_stmt 1 discriminator 4 view .LVU578
 235:zita-rev1/source/reverb.cpp ****     {
 1871              		.loc 1 235 19 discriminator 4 view .LVU579
 1872 01da A7D1     		bne	.L99
 243:zita-rev1/source/reverb.cpp ****     _pareq2.setfsamp (fsamp);
 1873              		.loc 1 243 5 view .LVU580
 243:zita-rev1/source/reverb.cpp ****     _pareq2.setfsamp (fsamp);
 1874              		.loc 1 243 22 is_stmt 0 view .LVU581
ARM GAS  /var/folders/2p/02m_5p7958535cp2tpgps0400000gn/T//cc0Z3V5w.s 			page 46


 1875 01dc B0EE680A 		vmov.f32	s0, s17
 1876 01e0 0BF50370 		add	r0, fp, #524
 1877 01e4 FFF7FEFF 		bl	_ZN5Pareq8setfsampEf
 1878              	.LVL125:
 244:zita-rev1/source/reverb.cpp **** }
 1879              		.loc 1 244 5 is_stmt 1 view .LVU582
 244:zita-rev1/source/reverb.cpp **** }
 1880              		.loc 1 244 22 is_stmt 0 view .LVU583
 1881 01e8 B0EE680A 		vmov.f32	s0, s17
 1882 01ec 0BF51970 		add	r0, fp, #612
 245:zita-rev1/source/reverb.cpp **** 
 1883              		.loc 1 245 1 view .LVU584
 1884 01f0 03B0     		add	sp, sp, #12
 1885              		.cfi_remember_state
 1886              		.cfi_def_cfa_offset 52
 1887              		@ sp needed
 1888 01f2 BDEC048B 		vldm	sp!, {d8-d9}
 1889              		.cfi_restore 82
 1890              		.cfi_restore 83
 1891              		.cfi_restore 80
 1892              		.cfi_restore 81
 1893              		.cfi_def_cfa_offset 36
 1894              	.LVL126:
 245:zita-rev1/source/reverb.cpp **** 
 1895              		.loc 1 245 1 view .LVU585
 1896 01f6 BDE8F04F 		pop	{r4, r5, r6, r7, r8, r9, r10, fp, lr}
 1897              		.cfi_restore 14
 1898              		.cfi_restore 11
 1899              		.cfi_restore 10
 1900              		.cfi_restore 9
 1901              		.cfi_restore 8
 1902              		.cfi_restore 7
 1903              		.cfi_restore 6
 1904              		.cfi_restore 5
 1905              		.cfi_restore 4
 1906              		.cfi_def_cfa_offset 0
 1907              	.LVL127:
 244:zita-rev1/source/reverb.cpp **** }
 1908              		.loc 1 244 22 view .LVU586
 1909 01fa FFF7FEBF 		b	_ZN5Pareq8setfsampEf
 1910              	.LVL128:
 1911              	.L91:
 1912              		.cfi_restore_state
 1913              	.LBB314:
 1914              	.LBB293:
 113:zita-rev1/source/reverb.cpp ****     memset (_line, 0, size * sizeof (float));
 1915              		.loc 1 113 28 view .LVU587
 1916 01fe 9000     		lsls	r0, r2, #2
 1917 0200 0246     		mov	r2, r0
 1918              	.LVL129:
 113:zita-rev1/source/reverb.cpp ****     memset (_line, 0, size * sizeof (float));
 1919              		.loc 1 113 28 view .LVU588
 1920 0202 66E7     		b	.L92
 1921              	.LVL130:
 1922              	.L89:
 113:zita-rev1/source/reverb.cpp ****     memset (_line, 0, size * sizeof (float));
 1923              		.loc 1 113 28 view .LVU589
ARM GAS  /var/folders/2p/02m_5p7958535cp2tpgps0400000gn/T//cc0Z3V5w.s 			page 47


 1924              	.LBE293:
 1925              	.LBE314:
 1926              	.LBB315:
 1927              	.LBB285:
 1928 0204 9000     		lsls	r0, r2, #2
 1929 0206 0246     		mov	r2, r0
 1930              	.LVL131:
 113:zita-rev1/source/reverb.cpp ****     memset (_line, 0, size * sizeof (float));
 1931              		.loc 1 113 28 view .LVU590
 1932 0208 43E7     		b	.L90
 1933              	.L103:
 1934 020a 00BF     		.align	2
 1935              	.L102:
 1936 020c CDCCCC3D 		.word	1036831949
 1937 0210 00004040 		.word	1077936128
 1938 0214 00803B45 		.word	1161527296
 1939 0218 00004843 		.word	1128792064
 1940 021c 0AD7233D 		.word	1025758986
 1941 0220 9A99193F 		.word	1058642330
 1942 0224 9A9919BF 		.word	-1088841318
 1943 0228 00000000 		.word	.LANCHOR0
 1944 022c 00000000 		.word	.LANCHOR1
 1945              	.LBE285:
 1946              	.LBE315:
 1947              		.cfi_endproc
 1948              	.LFE600:
 1950              		.section	.text._ZN6Reverb4finiEv,"ax",%progbits
 1951              		.align	1
 1952              		.p2align 2,,3
 1953              		.global	_ZN6Reverb4finiEv
 1954              		.syntax unified
 1955              		.thumb
 1956              		.thumb_func
 1958              	_ZN6Reverb4finiEv:
 1959              	.LVL132:
 1960              	.LFB601:
 249:zita-rev1/source/reverb.cpp ****     for (int i = 0; i < 8; i++) _delay [i].fini ();
 1961              		.loc 1 249 1 is_stmt 1 view -0
 1962              		.cfi_startproc
 1963              		@ args = 0, pretend = 0, frame = 0
 1964              		@ frame_needed = 0, uses_anonymous_args = 0
 1965              		.loc 1 250 5 view .LVU592
 1966              	.LBB316:
 1967              		.loc 1 250 23 view .LVU593
 1968              	.LBE316:
 249:zita-rev1/source/reverb.cpp ****     for (int i = 0; i < 8; i++) _delay [i].fini ();
 1969              		.loc 1 249 1 is_stmt 0 view .LVU594
 1970 0000 38B5     		push	{r3, r4, r5, lr}
 1971              		.cfi_def_cfa_offset 16
 1972              		.cfi_offset 3, -16
 1973              		.cfi_offset 4, -12
 1974              		.cfi_offset 5, -8
 1975              		.cfi_offset 14, -4
 249:zita-rev1/source/reverb.cpp ****     for (int i = 0; i < 8; i++) _delay [i].fini ();
 1976              		.loc 1 249 1 view .LVU595
 1977 0002 0446     		mov	r4, r0
 1978 0004 00F16005 		add	r5, r0, #96
ARM GAS  /var/folders/2p/02m_5p7958535cp2tpgps0400000gn/T//cc0Z3V5w.s 			page 48


 1979              	.LVL133:
 1980              	.L108:
 1981              	.LBB325:
 1982              		.loc 1 250 33 is_stmt 1 discriminator 2 view .LVU596
 1983              	.LBB317:
 1984              	.LBI317:
  86:zita-rev1/source/reverb.cpp **** {
 1985              		.loc 1 86 6 discriminator 2 view .LVU597
 1986              	.LBB318:
  88:zita-rev1/source/reverb.cpp ****     _size = 0;
 1987              		.loc 1 88 5 discriminator 2 view .LVU598
  89:zita-rev1/source/reverb.cpp ****     _line = 0;
 1988              		.loc 1 89 5 discriminator 2 view .LVU599
  88:zita-rev1/source/reverb.cpp ****     _size = 0;
 1989              		.loc 1 88 14 is_stmt 0 discriminator 2 view .LVU600
 1990 0008 D4F87001 		ldr	r0, [r4, #368]
  88:zita-rev1/source/reverb.cpp ****     _size = 0;
 1991              		.loc 1 88 5 discriminator 2 view .LVU601
 1992 000c 40B1     		cbz	r0, .L105
 1993              	.LBE318:
 1994              	.LBE317:
 1995              		.loc 1 250 23 view .LVU602
 1996 000e 0C34     		adds	r4, r4, #12
 1997              	.LBB322:
 1998              	.LBB319:
  88:zita-rev1/source/reverb.cpp ****     _size = 0;
 1999              		.loc 1 88 14 view .LVU603
 2000 0010 FFF7FEFF 		bl	_ZdaPv
 2001              	.LVL134:
  89:zita-rev1/source/reverb.cpp ****     _line = 0;
 2002              		.loc 1 89 5 is_stmt 1 view .LVU604
  89:zita-rev1/source/reverb.cpp ****     _line = 0;
 2003              		.loc 1 89 11 is_stmt 0 view .LVU605
 2004 0014 0023     		movs	r3, #0
 2005              	.LBE319:
 2006              	.LBE322:
 2007              		.loc 1 250 23 view .LVU606
 2008 0016 A542     		cmp	r5, r4
 2009              	.LBB323:
 2010              	.LBB320:
  90:zita-rev1/source/reverb.cpp **** }
 2011              		.loc 1 90 11 view .LVU607
 2012 0018 C4E95833 		strd	r3, r3, [r4, #352]
  90:zita-rev1/source/reverb.cpp **** }
 2013              		.loc 1 90 11 view .LVU608
 2014              	.LBE320:
 2015              	.LBE323:
 2016              		.loc 1 250 5 is_stmt 1 view .LVU609
 2017              		.loc 1 250 23 view .LVU610
 2018 001c F4D1     		bne	.L108
 2019              	.LBE325:
 251:zita-rev1/source/reverb.cpp **** }
 2020              		.loc 1 251 1 is_stmt 0 view .LVU611
 2021 001e 38BD     		pop	{r3, r4, r5, pc}
 2022              	.LVL135:
 2023              	.L105:
 2024              	.LBB326:
ARM GAS  /var/folders/2p/02m_5p7958535cp2tpgps0400000gn/T//cc0Z3V5w.s 			page 49


 2025              	.LBB324:
 2026              	.LBB321:
  89:zita-rev1/source/reverb.cpp ****     _line = 0;
 2027              		.loc 1 89 11 view .LVU612
 2028 0020 C4F86C01 		str	r0, [r4, #364]
  90:zita-rev1/source/reverb.cpp **** }
 2029              		.loc 1 90 5 is_stmt 1 view .LVU613
  90:zita-rev1/source/reverb.cpp **** }
 2030              		.loc 1 90 5 is_stmt 0 view .LVU614
 2031              	.LBE321:
 2032              	.LBE324:
 250:zita-rev1/source/reverb.cpp **** }
 2033              		.loc 1 250 5 is_stmt 1 view .LVU615
 250:zita-rev1/source/reverb.cpp **** }
 2034              		.loc 1 250 23 view .LVU616
 2035 0024 0C34     		adds	r4, r4, #12
 2036 0026 AC42     		cmp	r4, r5
 2037 0028 EED1     		bne	.L108
 2038              	.LBE326:
 2039              		.loc 1 251 1 is_stmt 0 view .LVU617
 2040 002a 38BD     		pop	{r3, r4, r5, pc}
 2041              		.cfi_endproc
 2042              	.LFE601:
 2044              		.section	.text._ZN6Reverb7prepareEi,"ax",%progbits
 2045              		.align	1
 2046              		.p2align 2,,3
 2047              		.global	_ZN6Reverb7prepareEi
 2048              		.syntax unified
 2049              		.thumb
 2050              		.thumb_func
 2052              	_ZN6Reverb7prepareEi:
 2053              	.LVL136:
 2054              	.LFB602:
 252:zita-rev1/source/reverb.cpp **** 
 253:zita-rev1/source/reverb.cpp **** 
 254:zita-rev1/source/reverb.cpp **** void Reverb::prepare (int nfram)
 255:zita-rev1/source/reverb.cpp **** {
 2055              		.loc 1 255 1 is_stmt 1 view -0
 2056              		.cfi_startproc
 2057              		@ args = 0, pretend = 0, frame = 0
 2058              		@ frame_needed = 0, uses_anonymous_args = 0
 256:zita-rev1/source/reverb.cpp ****     int    a, b, c, i, k;
 2059              		.loc 1 256 5 view .LVU619
 257:zita-rev1/source/reverb.cpp ****     float  t0, t1, wlo, chi;
 2060              		.loc 1 257 5 view .LVU620
 258:zita-rev1/source/reverb.cpp **** 
 259:zita-rev1/source/reverb.cpp ****     a = _cntA1;
 2061              		.loc 1 259 5 view .LVU621
 260:zita-rev1/source/reverb.cpp ****     b = _cntB1;
 261:zita-rev1/source/reverb.cpp ****     c = _cntC1;
 262:zita-rev1/source/reverb.cpp ****     _d0 = _d1 = 0;
 2062              		.loc 1 262 15 is_stmt 0 view .LVU622
 2063 0000 0023     		movs	r3, #0
 255:zita-rev1/source/reverb.cpp ****     int    a, b, c, i, k;
 2064              		.loc 1 255 1 view .LVU623
 2065 0002 2DE9F047 		push	{r4, r5, r6, r7, r8, r9, r10, lr}
 2066              		.cfi_def_cfa_offset 32
ARM GAS  /var/folders/2p/02m_5p7958535cp2tpgps0400000gn/T//cc0Z3V5w.s 			page 50


 2067              		.cfi_offset 4, -32
 2068              		.cfi_offset 5, -28
 2069              		.cfi_offset 6, -24
 2070              		.cfi_offset 7, -20
 2071              		.cfi_offset 8, -16
 2072              		.cfi_offset 9, -12
 2073              		.cfi_offset 10, -8
 2074              		.cfi_offset 14, -4
 2075 0006 8846     		mov	r8, r1
 259:zita-rev1/source/reverb.cpp ****     b = _cntB1;
 2076              		.loc 1 259 7 view .LVU624
 2077 0008 D0F8C811 		ldr	r1, [r0, #456]
 2078              	.LVL137:
 260:zita-rev1/source/reverb.cpp ****     b = _cntB1;
 2079              		.loc 1 260 5 is_stmt 1 view .LVU625
 255:zita-rev1/source/reverb.cpp ****     int    a, b, c, i, k;
 2080              		.loc 1 255 1 is_stmt 0 view .LVU626
 2081 000c 0546     		mov	r5, r0
 260:zita-rev1/source/reverb.cpp ****     b = _cntB1;
 2082              		.loc 1 260 7 view .LVU627
 2083 000e D0F8CCA1 		ldr	r10, [r0, #460]
 2084              	.LVL138:
 261:zita-rev1/source/reverb.cpp ****     _d0 = _d1 = 0;
 2085              		.loc 1 261 5 is_stmt 1 view .LVU628
 261:zita-rev1/source/reverb.cpp ****     _d0 = _d1 = 0;
 2086              		.loc 1 261 7 is_stmt 0 view .LVU629
 2087 0012 D0F8D091 		ldr	r9, [r0, #464]
 2088              	.LVL139:
 2089              		.loc 1 262 5 is_stmt 1 view .LVU630
 255:zita-rev1/source/reverb.cpp ****     int    a, b, c, i, k;
 2090              		.loc 1 255 1 is_stmt 0 view .LVU631
 2091 0016 2DED068B 		vpush.64	{d8, d9, d10}
 2092              		.cfi_def_cfa_offset 56
 2093              		.cfi_offset 80, -56
 2094              		.cfi_offset 81, -52
 2095              		.cfi_offset 82, -48
 2096              		.cfi_offset 83, -44
 2097              		.cfi_offset 84, -40
 2098              		.cfi_offset 85, -36
 2099              		.loc 1 262 15 view .LVU632
 2100 001a C0F80832 		str	r3, [r0, #520]	@ float
 2101              		.loc 1 262 9 view .LVU633
 2102 001e C0F80032 		str	r3, [r0, #512]	@ float
 263:zita-rev1/source/reverb.cpp **** 
 264:zita-rev1/source/reverb.cpp ****     if (a != _cntA2)
 2103              		.loc 1 264 5 is_stmt 1 view .LVU634
 2104 0022 D0F8D431 		ldr	r3, [r0, #468]
 2105 0026 8B42     		cmp	r3, r1
 2106 0028 1FD0     		beq	.L111
 265:zita-rev1/source/reverb.cpp ****     {
 266:zita-rev1/source/reverb.cpp ****         k = (int)(floorf ((_ipdel - 0.020f) * _fsamp + 0.5f));
 2107              		.loc 1 266 9 view .LVU635
 2108              		.loc 1 266 35 is_stmt 0 view .LVU636
 2109 002a 90ED787A 		vldr.32	s14, [r0, #480]
 2110              		.loc 1 266 26 view .LVU637
 2111 002e F6EE007A 		vmov.f32	s15, #5.0e-1
 2112              		.loc 1 266 35 view .LVU638
ARM GAS  /var/folders/2p/02m_5p7958535cp2tpgps0400000gn/T//cc0Z3V5w.s 			page 51


 2113 0032 9FED956A 		vldr.32	s12, .L141
 2114              		.loc 1 266 26 view .LVU639
 2115 0036 D0ED006A 		vldr.32	s13, [r0]
 2116              		.loc 1 266 35 view .LVU640
 2117 003a 37EE467A 		vsub.f32	s14, s14, s12
 2118              	.LBB333:
 2119              	.LBB334:
 130:zita-rev1/source/reverb.cpp ****     if (_ir < 0) _ir += _size;
 2120              		.loc 1 130 15 view .LVU641
 2121 003e C268     		ldr	r2, [r0, #12]
 2122              	.LBE334:
 2123              	.LBE333:
 2124              		.loc 1 266 26 view .LVU642
 2125 0040 E7EE267A 		vfma.f32	s15, s14, s13
 2126 0044 FBFE677A 		vrintm.f32	s15, s15
 2127              		.loc 1 266 11 view .LVU643
 2128 0048 FDEEE77A 		vcvt.s32.f32	s15, s15
 2129 004c 17EE903A 		vmov	r3, s15	@ int
 2130              	.LVL140:
 267:zita-rev1/source/reverb.cpp ****         _vdelay0.set_delay (k);
 2131              		.loc 1 267 9 is_stmt 1 view .LVU644
 2132              	.LBB337:
 2133              	.LBI333:
 128:zita-rev1/source/reverb.cpp **** {
 2134              		.loc 1 128 6 view .LVU645
 2135              	.LBB335:
 130:zita-rev1/source/reverb.cpp ****     if (_ir < 0) _ir += _size;
 2136              		.loc 1 130 5 view .LVU646
 130:zita-rev1/source/reverb.cpp ****     if (_ir < 0) _ir += _size;
 2137              		.loc 1 130 15 is_stmt 0 view .LVU647
 2138 0050 D21A     		subs	r2, r2, r3
 131:zita-rev1/source/reverb.cpp **** }
 2139              		.loc 1 131 5 view .LVU648
 2140 0052 002A     		cmp	r2, #0
 130:zita-rev1/source/reverb.cpp ****     if (_ir < 0) _ir += _size;
 2141              		.loc 1 130 9 view .LVU649
 2142 0054 8260     		str	r2, [r0, #8]
 131:zita-rev1/source/reverb.cpp **** }
 2143              		.loc 1 131 5 is_stmt 1 view .LVU650
 2144 0056 C0F2F480 		blt	.L138
 2145              	.LVL141:
 131:zita-rev1/source/reverb.cpp **** }
 2146              		.loc 1 131 5 is_stmt 0 view .LVU651
 2147              	.LBE335:
 2148              	.LBE337:
 268:zita-rev1/source/reverb.cpp ****         _vdelay1.set_delay (k);
 2149              		.loc 1 268 9 is_stmt 1 view .LVU652
 2150              	.LBB338:
 2151              	.LBI338:
 128:zita-rev1/source/reverb.cpp **** {
 2152              		.loc 1 128 6 view .LVU653
 2153              	.LBB339:
 130:zita-rev1/source/reverb.cpp ****     if (_ir < 0) _ir += _size;
 2154              		.loc 1 130 5 view .LVU654
 130:zita-rev1/source/reverb.cpp ****     if (_ir < 0) _ir += _size;
 2155              		.loc 1 130 15 is_stmt 0 view .LVU655
 2156 005a EA69     		ldr	r2, [r5, #28]
ARM GAS  /var/folders/2p/02m_5p7958535cp2tpgps0400000gn/T//cc0Z3V5w.s 			page 52


 2157 005c D31A     		subs	r3, r2, r3
 2158              	.LVL142:
 131:zita-rev1/source/reverb.cpp **** }
 2159              		.loc 1 131 5 view .LVU656
 2160 005e 002B     		cmp	r3, #0
 130:zita-rev1/source/reverb.cpp ****     if (_ir < 0) _ir += _size;
 2161              		.loc 1 130 9 view .LVU657
 2162 0060 AB61     		str	r3, [r5, #24]
 131:zita-rev1/source/reverb.cpp **** }
 2163              		.loc 1 131 5 is_stmt 1 view .LVU658
 2164 0062 C0F2EA80 		blt	.L139
 2165              	.LVL143:
 2166              	.L113:
 131:zita-rev1/source/reverb.cpp **** }
 2167              		.loc 1 131 5 is_stmt 0 view .LVU659
 2168              	.LBE339:
 2169              	.LBE338:
 269:zita-rev1/source/reverb.cpp ****         _cntA2 = a;
 2170              		.loc 1 269 9 is_stmt 1 view .LVU660
 2171              		.loc 1 269 16 is_stmt 0 view .LVU661
 2172 0066 C5F8D411 		str	r1, [r5, #468]
 2173              	.LVL144:
 2174              	.L111:
 270:zita-rev1/source/reverb.cpp ****     }
 271:zita-rev1/source/reverb.cpp **** 
 272:zita-rev1/source/reverb.cpp ****     if (b != _cntB2)
 2175              		.loc 1 272 5 is_stmt 1 view .LVU662
 2176 006a D5F8D831 		ldr	r3, [r5, #472]
 2177 006e 5345     		cmp	r3, r10
 2178 0070 7CD0     		beq	.L114
 273:zita-rev1/source/reverb.cpp ****     {
 274:zita-rev1/source/reverb.cpp ****          wlo = 6.2832f * _xover / _fsamp;
 2179              		.loc 1 274 10 view .LVU663
 2180              		.loc 1 274 35 is_stmt 0 view .LVU664
 2181 0072 D5ED006A 		vldr.32	s13, [r5]
 275:zita-rev1/source/reverb.cpp **** 	 if (_fdamp > 0.49f * _fsamp) chi = 2;
 2182              		.loc 1 275 22 view .LVU665
 2183 0076 DFED857A 		vldr.32	s15, .L141+4
 2184              		.loc 1 275 7 view .LVU666
 2185 007a 95ED7C0A 		vldr.32	s0, [r5, #496]
 2186              		.loc 1 275 22 view .LVU667
 2187 007e 66EEA77A 		vmul.f32	s15, s13, s15
 274:zita-rev1/source/reverb.cpp **** 	 if (_fdamp > 0.49f * _fsamp) chi = 2;
 2188              		.loc 1 274 24 view .LVU668
 2189 0082 95ED797A 		vldr.32	s14, [r5, #484]
 2190 0086 9FED826A 		vldr.32	s12, .L141+8
 2191              		.loc 1 275 3 view .LVU669
 2192 008a B4EEE70A 		vcmpe.f32	s0, s15
 274:zita-rev1/source/reverb.cpp **** 	 if (_fdamp > 0.49f * _fsamp) chi = 2;
 2193              		.loc 1 274 24 view .LVU670
 2194 008e 27EE067A 		vmul.f32	s14, s14, s12
 2195              		.loc 1 275 3 view .LVU671
 2196 0092 F1EE10FA 		vmrs	APSR_nzcv, FPSCR
 274:zita-rev1/source/reverb.cpp **** 	 if (_fdamp > 0.49f * _fsamp) chi = 2;
 2197              		.loc 1 274 14 view .LVU672
 2198 0096 C7EE269A 		vdiv.f32	s19, s14, s13
 2199              	.LVL145:
ARM GAS  /var/folders/2p/02m_5p7958535cp2tpgps0400000gn/T//cc0Z3V5w.s 			page 53


 2200              		.loc 1 275 3 is_stmt 1 view .LVU673
 2201 009a 00F3CB80 		bgt	.L130
 276:zita-rev1/source/reverb.cpp **** 	 else chi = 1 - cosf (6.2832f * _fdamp / _fsamp);
 2202              		.loc 1 276 8 view .LVU674
 2203              		.loc 1 276 32 is_stmt 0 view .LVU675
 2204 009e 20EE060A 		vmul.f32	s0, s0, s12
 2205              		.loc 1 276 12 view .LVU676
 2206 00a2 B7EE009A 		vmov.f32	s18, #1.0e+0
 2207              		.loc 1 276 23 view .LVU677
 2208 00a6 80EE260A 		vdiv.f32	s0, s0, s13
 2209 00aa FFF7FEFF 		bl	cosf
 2210              	.LVL146:
 2211              		.loc 1 276 12 view .LVU678
 2212 00ae 39EE409A 		vsub.f32	s18, s18, s0
 2213              	.LVL147:
 2214              	.L115:
 277:zita-rev1/source/reverb.cpp ****          for (i = 0; i < 8; i++)
 2215              		.loc 1 277 10 is_stmt 1 view .LVU679
 2216              		.loc 1 277 24 view .LVU680
 2217 00b2 784E     		ldr	r6, .L141+12
 2218 00b4 2C46     		mov	r4, r5
 2219 00b6 05F1C007 		add	r7, r5, #192
 2220              	.LVL148:
 2221              	.L120:
 278:zita-rev1/source/reverb.cpp **** 	 {
 279:zita-rev1/source/reverb.cpp ****              _filt1 [i].set_params (_tdelay [i], _rtmid, _rtlow, wlo, 0.5f * _rtmid, chi);
 2222              		.loc 1 279 14 discriminator 2 view .LVU681
 2223              		.loc 1 279 36 is_stmt 0 discriminator 2 view .LVU682
 2224 00ba B6EC01AA 		vldmia.32	r6!, {s20}
 2225              	.LBB342:
 2226              	.LBB343:
 143:zita-rev1/source/reverb.cpp ****     _wlo = wlo;    
 2227              		.loc 1 143 44 discriminator 2 view .LVU683
 2228 00be F7EE008A 		vmov.f32	s17, #1.0e+0
 2229              	.LBE343:
 2230              	.LBE342:
 2231              		.loc 1 279 36 discriminator 2 view .LVU684
 2232 00c2 95ED7B8A 		vldr.32	s16, [r5, #492]
 2233              	.LBB351:
 2234              	.LBB344:
 142:zita-rev1/source/reverb.cpp ****     _glo = powf (0.001f, del / tlo) / _gmf - 1.0f;
 2235              		.loc 1 142 17 discriminator 2 view .LVU685
 2236 00c6 9FED740A 		vldr.32	s0, .L141+16
 2237 00ca CAEE080A 		vdiv.f32	s1, s20, s16
 2238              	.LBE344:
 2239              	.LBE351:
 2240              		.loc 1 279 36 discriminator 2 view .LVU686
 2241 00ce D5ED7AAA 		vldr.32	s21, [r5, #488]
 2242              	.LVL149:
 2243              	.LBB352:
 2244              	.LBI342:
 138:zita-rev1/source/reverb.cpp **** {
 2245              		.loc 1 138 6 is_stmt 1 discriminator 2 view .LVU687
 2246              	.LBB345:
 140:zita-rev1/source/reverb.cpp **** 
 2247              		.loc 1 140 5 discriminator 2 view .LVU688
 142:zita-rev1/source/reverb.cpp ****     _glo = powf (0.001f, del / tlo) / _gmf - 1.0f;
ARM GAS  /var/folders/2p/02m_5p7958535cp2tpgps0400000gn/T//cc0Z3V5w.s 			page 54


 2248              		.loc 1 142 5 discriminator 2 view .LVU689
 142:zita-rev1/source/reverb.cpp ****     _glo = powf (0.001f, del / tlo) / _gmf - 1.0f;
 2249              		.loc 1 142 17 is_stmt 0 discriminator 2 view .LVU690
 2250 00d2 FFF7FEFF 		bl	powf
 2251              	.LVL150:
 2252 00d6 F0EE407A 		vmov.f32	s15, s0
 143:zita-rev1/source/reverb.cpp ****     _wlo = wlo;    
 2253              		.loc 1 143 17 discriminator 2 view .LVU691
 2254 00da 9FED6F0A 		vldr.32	s0, .L141+16
 2255 00de CAEE2A0A 		vdiv.f32	s1, s20, s21
 142:zita-rev1/source/reverb.cpp ****     _glo = powf (0.001f, del / tlo) / _gmf - 1.0f;
 2256              		.loc 1 142 10 discriminator 2 view .LVU692
 2257 00e2 C4ED2A7A 		vstr.32	s15, [r4, #168]
 143:zita-rev1/source/reverb.cpp ****     _wlo = wlo;    
 2258              		.loc 1 143 5 is_stmt 1 discriminator 2 view .LVU693
 143:zita-rev1/source/reverb.cpp ****     _wlo = wlo;    
 2259              		.loc 1 143 17 is_stmt 0 discriminator 2 view .LVU694
 2260 00e6 FFF7FEFF 		bl	powf
 2261              	.LVL151:
 143:zita-rev1/source/reverb.cpp ****     _wlo = wlo;    
 2262              		.loc 1 143 37 discriminator 2 view .LVU695
 2263 00ea 94ED2A7A 		vldr.32	s14, [r4, #168]
 144:zita-rev1/source/reverb.cpp ****     g = powf (0.001f, del / thi) / _gmf;
 2264              		.loc 1 144 10 discriminator 2 view .LVU696
 2265 00ee C4ED2C9A 		vstr.32	s19, [r4, #176]
 143:zita-rev1/source/reverb.cpp ****     _wlo = wlo;    
 2266              		.loc 1 143 17 discriminator 2 view .LVU697
 2267 00f2 F0EE406A 		vmov.f32	s13, s0
 145:zita-rev1/source/reverb.cpp ****     t = (1 - g * g) / (2 * g * g * chi);
 2268              		.loc 1 145 14 discriminator 2 view .LVU698
 2269 00f6 9FED680A 		vldr.32	s0, .L141+16
 2270              	.LBE345:
 2271              	.LBE352:
 2272              		.loc 1 279 36 discriminator 2 view .LVU699
 2273 00fa F6EE000A 		vmov.f32	s1, #5.0e-1
 2274              	.LBB353:
 2275              	.LBB346:
 143:zita-rev1/source/reverb.cpp ****     _wlo = wlo;    
 2276              		.loc 1 143 37 discriminator 2 view .LVU700
 2277 00fe C6EE877A 		vdiv.f32	s15, s13, s14
 2278              	.LBE346:
 2279              	.LBE353:
 2280              		.loc 1 279 36 discriminator 2 view .LVU701
 2281 0102 68EE200A 		vmul.f32	s1, s16, s1
 2282              	.LVL152:
 2283              	.LBB354:
 2284              	.LBB347:
 145:zita-rev1/source/reverb.cpp ****     t = (1 - g * g) / (2 * g * g * chi);
 2285              		.loc 1 145 14 discriminator 2 view .LVU702
 2286 0106 CAEE200A 		vdiv.f32	s1, s20, s1
 2287              	.LVL153:
 143:zita-rev1/source/reverb.cpp ****     _wlo = wlo;    
 2288              		.loc 1 143 44 discriminator 2 view .LVU703
 2289 010a 77EEE87A 		vsub.f32	s15, s15, s17
 143:zita-rev1/source/reverb.cpp ****     _wlo = wlo;    
 2290              		.loc 1 143 10 discriminator 2 view .LVU704
 2291 010e C4ED2B7A 		vstr.32	s15, [r4, #172]
ARM GAS  /var/folders/2p/02m_5p7958535cp2tpgps0400000gn/T//cc0Z3V5w.s 			page 55


 144:zita-rev1/source/reverb.cpp ****     g = powf (0.001f, del / thi) / _gmf;
 2292              		.loc 1 144 5 is_stmt 1 discriminator 2 view .LVU705
 145:zita-rev1/source/reverb.cpp ****     t = (1 - g * g) / (2 * g * g * chi);
 2293              		.loc 1 145 5 discriminator 2 view .LVU706
 145:zita-rev1/source/reverb.cpp ****     t = (1 - g * g) / (2 * g * g * chi);
 2294              		.loc 1 145 14 is_stmt 0 discriminator 2 view .LVU707
 2295 0112 FFF7FEFF 		bl	powf
 2296              	.LVL154:
 145:zita-rev1/source/reverb.cpp ****     t = (1 - g * g) / (2 * g * g * chi);
 2297              		.loc 1 145 7 discriminator 2 view .LVU708
 2298 0116 D4ED2A7A 		vldr.32	s15, [r4, #168]
 146:zita-rev1/source/reverb.cpp ****     _whi = (sqrtf (1 + 4 * t) - 1) / (2 * t); 
 2299              		.loc 1 146 12 discriminator 2 view .LVU709
 2300 011a B0EE686A 		vmov.f32	s12, s17
 145:zita-rev1/source/reverb.cpp ****     t = (1 - g * g) / (2 * g * g * chi);
 2301              		.loc 1 145 7 discriminator 2 view .LVU710
 2302 011e 80EE277A 		vdiv.f32	s14, s0, s15
 2303              	.LVL155:
 146:zita-rev1/source/reverb.cpp ****     _whi = (sqrtf (1 + 4 * t) - 1) / (2 * t); 
 2304              		.loc 1 146 5 is_stmt 1 discriminator 2 view .LVU711
 147:zita-rev1/source/reverb.cpp **** } 
 2305              		.loc 1 147 19 is_stmt 0 discriminator 2 view .LVU712
 2306 0122 F1EE006A 		vmov.f32	s13, #4.0e+0
 2307 0126 B0EE680A 		vmov.f32	s0, s17
 146:zita-rev1/source/reverb.cpp ****     _whi = (sqrtf (1 + 4 * t) - 1) / (2 * t); 
 2308              		.loc 1 146 26 discriminator 2 view .LVU713
 2309 012a 77EE077A 		vadd.f32	s15, s14, s14
 146:zita-rev1/source/reverb.cpp ****     _whi = (sqrtf (1 + 4 * t) - 1) / (2 * t); 
 2310              		.loc 1 146 12 discriminator 2 view .LVU714
 2311 012e A7EE476A 		vfms.f32	s12, s14, s14
 146:zita-rev1/source/reverb.cpp ****     _whi = (sqrtf (1 + 4 * t) - 1) / (2 * t); 
 2312              		.loc 1 146 30 discriminator 2 view .LVU715
 2313 0132 67EE877A 		vmul.f32	s15, s15, s14
 146:zita-rev1/source/reverb.cpp ****     _whi = (sqrtf (1 + 4 * t) - 1) / (2 * t); 
 2314              		.loc 1 146 34 discriminator 2 view .LVU716
 2315 0136 67EE897A 		vmul.f32	s15, s15, s18
 146:zita-rev1/source/reverb.cpp ****     _whi = (sqrtf (1 + 4 * t) - 1) / (2 * t); 
 2316              		.loc 1 146 7 discriminator 2 view .LVU717
 2317 013a 86EE278A 		vdiv.f32	s16, s12, s15
 2318              	.LVL156:
 147:zita-rev1/source/reverb.cpp **** } 
 2319              		.loc 1 147 5 is_stmt 1 discriminator 2 view .LVU718
 147:zita-rev1/source/reverb.cpp **** } 
 2320              		.loc 1 147 19 is_stmt 0 discriminator 2 view .LVU719
 2321 013e A8EE260A 		vfma.f32	s0, s16, s13
 2322 0142 B5EE400A 		vcmp.f32	s0, #0
 2323 0146 F1EE10FA 		vmrs	APSR_nzcv, FPSCR
 2324 014a 00F18480 		bmi	.L134
 147:zita-rev1/source/reverb.cpp **** } 
 2325              		.loc 1 147 19 view .LVU720
 2326 014e F1EEC07A 		vsqrt.f32	s15, s0
 2327              	.LBE347:
 2328              	.LBE354:
 277:zita-rev1/source/reverb.cpp **** 	 {
 2329              		.loc 1 277 24 view .LVU721
 2330 0152 1834     		adds	r4, r4, #24
 2331 0154 A742     		cmp	r7, r4
ARM GAS  /var/folders/2p/02m_5p7958535cp2tpgps0400000gn/T//cc0Z3V5w.s 			page 56


 2332              	.LBB355:
 2333              	.LBB348:
 147:zita-rev1/source/reverb.cpp **** } 
 2334              		.loc 1 147 41 view .LVU722
 2335 0156 38EE088A 		vadd.f32	s16, s16, s16
 2336              	.LVL157:
 147:zita-rev1/source/reverb.cpp **** } 
 2337              		.loc 1 147 31 view .LVU723
 2338 015a 77EEE87A 		vsub.f32	s15, s15, s17
 147:zita-rev1/source/reverb.cpp **** } 
 2339              		.loc 1 147 36 view .LVU724
 2340 015e 87EE887A 		vdiv.f32	s14, s15, s16
 2341              	.LVL158:
 147:zita-rev1/source/reverb.cpp **** } 
 2342              		.loc 1 147 10 view .LVU725
 2343 0162 84ED277A 		vstr.32	s14, [r4, #156]
 2344              	.LVL159:
 147:zita-rev1/source/reverb.cpp **** } 
 2345              		.loc 1 147 10 view .LVU726
 2346              	.LBE348:
 2347              	.LBE355:
 277:zita-rev1/source/reverb.cpp **** 	 {
 2348              		.loc 1 277 10 is_stmt 1 view .LVU727
 277:zita-rev1/source/reverb.cpp **** 	 {
 2349              		.loc 1 277 24 view .LVU728
 2350 0166 A8D1     		bne	.L120
 2351              	.L118:
 280:zita-rev1/source/reverb.cpp **** 	 }
 281:zita-rev1/source/reverb.cpp ****          _cntB2 = b;
 2352              		.loc 1 281 10 view .LVU729
 2353              		.loc 1 281 17 is_stmt 0 view .LVU730
 2354 0168 C5F8D8A1 		str	r10, [r5, #472]
 2355              	.LVL160:
 2356              	.L114:
 282:zita-rev1/source/reverb.cpp ****     }
 283:zita-rev1/source/reverb.cpp **** 
 284:zita-rev1/source/reverb.cpp ****     if (c != _cntC2)
 2357              		.loc 1 284 5 is_stmt 1 view .LVU731
 2358 016c D5F8DC31 		ldr	r3, [r5, #476]
 2359 0170 4B45     		cmp	r3, r9
 2360 0172 37D0     		beq	.L121
 285:zita-rev1/source/reverb.cpp ****     {
 286:zita-rev1/source/reverb.cpp **** 	if (_ambis)
 2361              		.loc 1 286 2 view .LVU732
 2362 0174 2B79     		ldrb	r3, [r5, #4]	@ zero_extendqisi2
 2363 0176 002B     		cmp	r3, #0
 2364 0178 42D1     		bne	.L140
 287:zita-rev1/source/reverb.cpp **** 	{
 288:zita-rev1/source/reverb.cpp **** 	    t0 = 1.0f / sqrtf (_rtmid);
 289:zita-rev1/source/reverb.cpp **** 	    t1 = t0 * powf (10.0f, 0.05f * _rgxyz);
 290:zita-rev1/source/reverb.cpp **** 	}
 291:zita-rev1/source/reverb.cpp **** 	else
 292:zita-rev1/source/reverb.cpp **** 	{
 293:zita-rev1/source/reverb.cpp **** 	    t0 = (1 - _opmix) * (1 + _opmix);
 2365              		.loc 1 293 6 view .LVU733
 294:zita-rev1/source/reverb.cpp **** 	    t1 = 0.7f * _opmix * (2 - _opmix) / sqrtf (_rtmid);
 2366              		.loc 1 294 48 is_stmt 0 view .LVU734
ARM GAS  /var/folders/2p/02m_5p7958535cp2tpgps0400000gn/T//cc0Z3V5w.s 			page 57


 2367 017a 95ED7B0A 		vldr.32	s0, [r5, #492]
 293:zita-rev1/source/reverb.cpp **** 	    t1 = 0.7f * _opmix * (2 - _opmix) / sqrtf (_rtmid);
 2368              		.loc 1 293 14 view .LVU735
 2369 017e F7EE007A 		vmov.f32	s15, #1.0e+0
 2370              		.loc 1 294 30 view .LVU736
 2371 0182 F0EE006A 		vmov.f32	s13, #2.0e+0
 293:zita-rev1/source/reverb.cpp **** 	    t1 = 0.7f * _opmix * (2 - _opmix) / sqrtf (_rtmid);
 2372              		.loc 1 293 16 view .LVU737
 2373 0186 95ED7D7A 		vldr.32	s14, [r5, #500]
 2374 018a B5EE400A 		vcmp.f32	s0, #0
 2375              		.loc 1 294 16 view .LVU738
 2376 018e DFED438A 		vldr.32	s17, .L141+20
 293:zita-rev1/source/reverb.cpp **** 	    t1 = 0.7f * _opmix * (2 - _opmix) / sqrtf (_rtmid);
 2377              		.loc 1 293 14 view .LVU739
 2378 0192 37EEC78A 		vsub.f32	s16, s15, s14
 2379              		.loc 1 294 16 view .LVU740
 2380 0196 67EE288A 		vmul.f32	s17, s14, s17
 293:zita-rev1/source/reverb.cpp **** 	    t1 = 0.7f * _opmix * (2 - _opmix) / sqrtf (_rtmid);
 2381              		.loc 1 293 29 view .LVU741
 2382 019a 77EE277A 		vadd.f32	s15, s14, s15
 2383 019e F1EE10FA 		vmrs	APSR_nzcv, FPSCR
 2384              		.loc 1 294 30 view .LVU742
 2385 01a2 36EEC77A 		vsub.f32	s14, s13, s14
 293:zita-rev1/source/reverb.cpp **** 	    t1 = 0.7f * _opmix * (2 - _opmix) / sqrtf (_rtmid);
 2386              		.loc 1 293 9 view .LVU743
 2387 01a6 28EE278A 		vmul.f32	s16, s16, s15
 2388              	.LVL161:
 2389              		.loc 1 294 6 is_stmt 1 view .LVU744
 2390              		.loc 1 294 25 is_stmt 0 view .LVU745
 2391 01aa 68EE878A 		vmul.f32	s17, s17, s14
 2392 01ae 61D4     		bmi	.L136
 2393              		.loc 1 294 48 view .LVU746
 2394 01b0 F1EEC07A 		vsqrt.f32	s15, s0
 2395              	.L129:
 2396              		.loc 1 294 9 view .LVU747
 2397 01b4 88EEA70A 		vdiv.f32	s0, s17, s15
 2398              	.LVL162:
 2399              	.L126:
 295:zita-rev1/source/reverb.cpp **** 	}
 296:zita-rev1/source/reverb.cpp ****         _d0 = (t0 - _g0) / nfram;
 2400              		.loc 1 296 9 is_stmt 1 view .LVU748
 297:zita-rev1/source/reverb.cpp ****         _d1 = (t1 - _g1) / nfram;
 2401              		.loc 1 297 19 is_stmt 0 view .LVU749
 2402 01b8 D5ED817A 		vldr.32	s15, [r5, #516]
 296:zita-rev1/source/reverb.cpp ****         _d1 = (t1 - _g1) / nfram;
 2403              		.loc 1 296 19 view .LVU750
 2404 01bc 95ED7F7A 		vldr.32	s14, [r5, #508]
 298:zita-rev1/source/reverb.cpp ****         _cntC2 = c;
 2405              		.loc 1 298 16 view .LVU751
 2406 01c0 C5F8DC91 		str	r9, [r5, #476]
 297:zita-rev1/source/reverb.cpp ****         _d1 = (t1 - _g1) / nfram;
 2407              		.loc 1 297 19 view .LVU752
 2408 01c4 30EE670A 		vsub.f32	s0, s0, s15
 2409              	.LVL163:
 296:zita-rev1/source/reverb.cpp ****         _d1 = (t1 - _g1) / nfram;
 2410              		.loc 1 296 26 view .LVU753
 2411 01c8 07EE908A 		vmov	s15, r8	@ int
ARM GAS  /var/folders/2p/02m_5p7958535cp2tpgps0400000gn/T//cc0Z3V5w.s 			page 58


 296:zita-rev1/source/reverb.cpp ****         _d1 = (t1 - _g1) / nfram;
 2412              		.loc 1 296 19 view .LVU754
 2413 01cc 38EE478A 		vsub.f32	s16, s16, s14
 2414              	.LVL164:
 296:zita-rev1/source/reverb.cpp ****         _d1 = (t1 - _g1) / nfram;
 2415              		.loc 1 296 26 view .LVU755
 2416 01d0 F8EEE77A 		vcvt.f32.s32	s15, s15
 2417 01d4 C8EE276A 		vdiv.f32	s13, s16, s15
 297:zita-rev1/source/reverb.cpp ****         _d1 = (t1 - _g1) / nfram;
 2418              		.loc 1 297 26 view .LVU756
 2419 01d8 80EE277A 		vdiv.f32	s14, s0, s15
 296:zita-rev1/source/reverb.cpp ****         _d1 = (t1 - _g1) / nfram;
 2420              		.loc 1 296 13 view .LVU757
 2421 01dc C5ED806A 		vstr.32	s13, [r5, #512]
 297:zita-rev1/source/reverb.cpp ****         _d1 = (t1 - _g1) / nfram;
 2422              		.loc 1 297 9 is_stmt 1 view .LVU758
 297:zita-rev1/source/reverb.cpp ****         _d1 = (t1 - _g1) / nfram;
 2423              		.loc 1 297 13 is_stmt 0 view .LVU759
 2424 01e0 85ED827A 		vstr.32	s14, [r5, #520]
 2425              		.loc 1 298 9 is_stmt 1 view .LVU760
 2426              	.L121:
 299:zita-rev1/source/reverb.cpp ****     }
 300:zita-rev1/source/reverb.cpp **** 
 301:zita-rev1/source/reverb.cpp ****     _pareq1.prepare (nfram);
 2427              		.loc 1 301 5 view .LVU761
 2428              		.loc 1 301 21 is_stmt 0 view .LVU762
 2429 01e4 05F50370 		add	r0, r5, #524
 2430 01e8 4146     		mov	r1, r8
 2431 01ea FFF7FEFF 		bl	_ZN5Pareq7prepareEi
 2432              	.LVL165:
 302:zita-rev1/source/reverb.cpp ****     _pareq2.prepare (nfram);
 2433              		.loc 1 302 5 is_stmt 1 view .LVU763
 2434              		.loc 1 302 21 is_stmt 0 view .LVU764
 2435 01ee 4146     		mov	r1, r8
 2436 01f0 05F51970 		add	r0, r5, #612
 303:zita-rev1/source/reverb.cpp **** }
 2437              		.loc 1 303 1 view .LVU765
 2438 01f4 BDEC068B 		vldm	sp!, {d8-d10}
 2439              		.cfi_remember_state
 2440              		.cfi_restore 84
 2441              		.cfi_restore 85
 2442              		.cfi_restore 82
 2443              		.cfi_restore 83
 2444              		.cfi_restore 80
 2445              		.cfi_restore 81
 2446              		.cfi_def_cfa_offset 32
 2447 01f8 BDE8F047 		pop	{r4, r5, r6, r7, r8, r9, r10, lr}
 2448              		.cfi_restore 14
 2449              		.cfi_restore 10
 2450              		.cfi_restore 9
 2451              		.cfi_restore 8
 2452              		.cfi_restore 7
 2453              		.cfi_restore 6
 2454              		.cfi_restore 5
 2455              		.cfi_restore 4
 2456              		.cfi_def_cfa_offset 0
 2457              	.LVL166:
ARM GAS  /var/folders/2p/02m_5p7958535cp2tpgps0400000gn/T//cc0Z3V5w.s 			page 59


 302:zita-rev1/source/reverb.cpp ****     _pareq2.prepare (nfram);
 2458              		.loc 1 302 21 view .LVU766
 2459 01fc FFF7FEBF 		b	_ZN5Pareq7prepareEi
 2460              	.LVL167:
 2461              	.L140:
 2462              		.cfi_restore_state
 288:zita-rev1/source/reverb.cpp **** 	    t1 = t0 * powf (10.0f, 0.05f * _rgxyz);
 2463              		.loc 1 288 6 is_stmt 1 view .LVU767
 288:zita-rev1/source/reverb.cpp **** 	    t1 = t0 * powf (10.0f, 0.05f * _rgxyz);
 2464              		.loc 1 288 24 is_stmt 0 view .LVU768
 2465 0200 95ED7B0A 		vldr.32	s0, [r5, #492]
 2466 0204 B5EE400A 		vcmp.f32	s0, #0
 2467 0208 F1EE10FA 		vmrs	APSR_nzcv, FPSCR
 2468 020c 37D4     		bmi	.L135
 2469 020e F1EEC07A 		vsqrt.f32	s15, s0
 2470              	.L125:
 289:zita-rev1/source/reverb.cpp **** 	}
 2471              		.loc 1 289 21 view .LVU769
 2472 0212 D5ED7E0A 		vldr.32	s1, [r5, #504]
 2473 0216 9FED227A 		vldr.32	s14, .L141+24
 288:zita-rev1/source/reverb.cpp **** 	    t1 = t0 * powf (10.0f, 0.05f * _rgxyz);
 2474              		.loc 1 288 9 view .LVU770
 2475 021a F7EE006A 		vmov.f32	s13, #1.0e+0
 289:zita-rev1/source/reverb.cpp **** 	}
 2476              		.loc 1 289 21 view .LVU771
 2477 021e B2EE040A 		vmov.f32	s0, #1.0e+1
 2478 0222 60EE870A 		vmul.f32	s1, s1, s14
 288:zita-rev1/source/reverb.cpp **** 	    t1 = t0 * powf (10.0f, 0.05f * _rgxyz);
 2479              		.loc 1 288 9 view .LVU772
 2480 0226 86EEA78A 		vdiv.f32	s16, s13, s15
 2481              	.LVL168:
 289:zita-rev1/source/reverb.cpp **** 	}
 2482              		.loc 1 289 6 is_stmt 1 view .LVU773
 289:zita-rev1/source/reverb.cpp **** 	}
 2483              		.loc 1 289 21 is_stmt 0 view .LVU774
 2484 022a FFF7FEFF 		bl	powf
 2485              	.LVL169:
 289:zita-rev1/source/reverb.cpp **** 	}
 2486              		.loc 1 289 9 view .LVU775
 2487 022e 20EE080A 		vmul.f32	s0, s0, s16
 2488              	.LVL170:
 289:zita-rev1/source/reverb.cpp **** 	}
 2489              		.loc 1 289 9 view .LVU776
 2490 0232 C1E7     		b	.L126
 2491              	.LVL171:
 2492              	.L130:
 275:zita-rev1/source/reverb.cpp **** 	 else chi = 1 - cosf (6.2832f * _fdamp / _fsamp);
 2493              		.loc 1 275 36 view .LVU777
 2494 0234 B0EE009A 		vmov.f32	s18, #2.0e+0
 2495 0238 3BE7     		b	.L115
 2496              	.LVL172:
 2497              	.L139:
 2498              	.LBB356:
 2499              	.LBB340:
 131:zita-rev1/source/reverb.cpp **** }
 2500              		.loc 1 131 18 is_stmt 1 view .LVU778
 131:zita-rev1/source/reverb.cpp **** }
ARM GAS  /var/folders/2p/02m_5p7958535cp2tpgps0400000gn/T//cc0Z3V5w.s 			page 60


 2501              		.loc 1 131 22 is_stmt 0 view .LVU779
 2502 023a 2A6A     		ldr	r2, [r5, #32]
 2503 023c 1344     		add	r3, r3, r2
 2504 023e AB61     		str	r3, [r5, #24]
 2505 0240 11E7     		b	.L113
 2506              	.LVL173:
 2507              	.L138:
 131:zita-rev1/source/reverb.cpp **** }
 2508              		.loc 1 131 22 view .LVU780
 2509              	.LBE340:
 2510              	.LBE356:
 2511              	.LBB357:
 2512              	.LBB336:
 131:zita-rev1/source/reverb.cpp **** }
 2513              		.loc 1 131 18 is_stmt 1 view .LVU781
 131:zita-rev1/source/reverb.cpp **** }
 2514              		.loc 1 131 22 is_stmt 0 view .LVU782
 2515 0242 0069     		ldr	r0, [r0, #16]
 2516              	.LVL174:
 131:zita-rev1/source/reverb.cpp **** }
 2517              		.loc 1 131 22 view .LVU783
 2518 0244 0244     		add	r2, r2, r0
 2519 0246 AA60     		str	r2, [r5, #8]
 2520              	.LVL175:
 131:zita-rev1/source/reverb.cpp **** }
 2521              		.loc 1 131 22 view .LVU784
 2522              	.LBE336:
 2523              	.LBE357:
 268:zita-rev1/source/reverb.cpp ****         _cntA2 = a;
 2524              		.loc 1 268 9 is_stmt 1 view .LVU785
 2525              	.LBB358:
 128:zita-rev1/source/reverb.cpp **** {
 2526              		.loc 1 128 6 view .LVU786
 2527              	.LBB341:
 130:zita-rev1/source/reverb.cpp ****     if (_ir < 0) _ir += _size;
 2528              		.loc 1 130 5 view .LVU787
 130:zita-rev1/source/reverb.cpp ****     if (_ir < 0) _ir += _size;
 2529              		.loc 1 130 15 is_stmt 0 view .LVU788
 2530 0248 EA69     		ldr	r2, [r5, #28]
 2531 024a D31A     		subs	r3, r2, r3
 2532              	.LVL176:
 131:zita-rev1/source/reverb.cpp **** }
 2533              		.loc 1 131 5 view .LVU789
 2534 024c 002B     		cmp	r3, #0
 130:zita-rev1/source/reverb.cpp ****     if (_ir < 0) _ir += _size;
 2535              		.loc 1 130 9 view .LVU790
 2536 024e AB61     		str	r3, [r5, #24]
 131:zita-rev1/source/reverb.cpp **** }
 2537              		.loc 1 131 5 is_stmt 1 view .LVU791
 2538 0250 BFF609AF 		bge	.L113
 2539 0254 F1E7     		b	.L139
 2540              	.LVL177:
 2541              	.L134:
 131:zita-rev1/source/reverb.cpp **** }
 2542              		.loc 1 131 5 is_stmt 0 view .LVU792
 2543              	.LBE341:
 2544              	.LBE358:
ARM GAS  /var/folders/2p/02m_5p7958535cp2tpgps0400000gn/T//cc0Z3V5w.s 			page 61


 2545              	.LBB359:
 2546              	.LBB349:
 147:zita-rev1/source/reverb.cpp **** } 
 2547              		.loc 1 147 19 discriminator 2 view .LVU793
 2548 0256 FFF7FEFF 		bl	sqrtf
 2549              	.LVL178:
 147:zita-rev1/source/reverb.cpp **** } 
 2550              		.loc 1 147 41 discriminator 2 view .LVU794
 2551 025a 38EE088A 		vadd.f32	s16, s16, s16
 2552              	.LVL179:
 147:zita-rev1/source/reverb.cpp **** } 
 2553              		.loc 1 147 31 discriminator 2 view .LVU795
 2554 025e 30EE680A 		vsub.f32	s0, s0, s17
 2555              	.LBE349:
 2556              	.LBE359:
 277:zita-rev1/source/reverb.cpp **** 	 {
 2557              		.loc 1 277 24 discriminator 2 view .LVU796
 2558 0262 1834     		adds	r4, r4, #24
 2559 0264 BC42     		cmp	r4, r7
 2560              	.LBB360:
 2561              	.LBB350:
 147:zita-rev1/source/reverb.cpp **** } 
 2562              		.loc 1 147 36 discriminator 2 view .LVU797
 2563 0266 C0EE087A 		vdiv.f32	s15, s0, s16
 147:zita-rev1/source/reverb.cpp **** } 
 2564              		.loc 1 147 10 discriminator 2 view .LVU798
 2565 026a C4ED277A 		vstr.32	s15, [r4, #156]
 2566              	.LVL180:
 147:zita-rev1/source/reverb.cpp **** } 
 2567              		.loc 1 147 10 discriminator 2 view .LVU799
 2568              	.LBE350:
 2569              	.LBE360:
 277:zita-rev1/source/reverb.cpp **** 	 {
 2570              		.loc 1 277 10 is_stmt 1 discriminator 2 view .LVU800
 277:zita-rev1/source/reverb.cpp **** 	 {
 2571              		.loc 1 277 24 discriminator 2 view .LVU801
 2572 026e 7FF424AF 		bne	.L120
 2573 0272 79E7     		b	.L118
 2574              	.LVL181:
 2575              	.L136:
 294:zita-rev1/source/reverb.cpp **** 	}
 2576              		.loc 1 294 48 is_stmt 0 view .LVU802
 2577 0274 FFF7FEFF 		bl	sqrtf
 2578              	.LVL182:
 2579 0278 F0EE407A 		vmov.f32	s15, s0
 2580 027c 9AE7     		b	.L129
 2581              	.LVL183:
 2582              	.L135:
 288:zita-rev1/source/reverb.cpp **** 	    t1 = t0 * powf (10.0f, 0.05f * _rgxyz);
 2583              		.loc 1 288 24 view .LVU803
 2584 027e FFF7FEFF 		bl	sqrtf
 2585              	.LVL184:
 2586 0282 F0EE407A 		vmov.f32	s15, s0
 2587 0286 C4E7     		b	.L125
 2588              	.L142:
 2589              		.align	2
 2590              	.L141:
ARM GAS  /var/folders/2p/02m_5p7958535cp2tpgps0400000gn/T//cc0Z3V5w.s 			page 62


 2591 0288 0AD7A33C 		.word	1017370378
 2592 028c 48E1FA3E 		.word	1056629064
 2593 0290 F90FC940 		.word	1086918649
 2594 0294 00000000 		.word	.LANCHOR1
 2595 0298 6F12833A 		.word	981668463
 2596 029c 3333333F 		.word	1060320051
 2597 02a0 CDCC4C3D 		.word	1028443341
 2598              		.cfi_endproc
 2599              	.LFE602:
 2601              		.section	.text._ZN6Reverb7processEiPPfS1_,"ax",%progbits
 2602              		.align	1
 2603              		.p2align 2,,3
 2604              		.global	_ZN6Reverb7processEiPPfS1_
 2605              		.syntax unified
 2606              		.thumb
 2607              		.thumb_func
 2609              	_ZN6Reverb7processEiPPfS1_:
 2610              	.LVL185:
 2611              	.LFB603:
 304:zita-rev1/source/reverb.cpp **** 
 305:zita-rev1/source/reverb.cpp **** 
 306:zita-rev1/source/reverb.cpp **** void Reverb::process (int nfram, float *inp [], float *out [])
 307:zita-rev1/source/reverb.cpp **** {	
 2612              		.loc 1 307 1 is_stmt 1 view -0
 2613              		.cfi_startproc
 2614              		@ args = 0, pretend = 0, frame = 280
 2615              		@ frame_needed = 0, uses_anonymous_args = 0
 308:zita-rev1/source/reverb.cpp ****     int   i, n;
 2616              		.loc 1 308 5 view .LVU805
 309:zita-rev1/source/reverb.cpp ****     float *p0, *p1;
 2617              		.loc 1 309 5 view .LVU806
 310:zita-rev1/source/reverb.cpp ****     float *q0, *q1, *q2, *q3;
 2618              		.loc 1 310 5 view .LVU807
 311:zita-rev1/source/reverb.cpp ****     float t, g, x0, x1, x2, x3, x4, x5, x6, x7;
 2619              		.loc 1 311 5 view .LVU808
 312:zita-rev1/source/reverb.cpp **** 
 313:zita-rev1/source/reverb.cpp ****     g = sqrtf (0.125f);
 2620              		.loc 1 313 5 view .LVU809
 314:zita-rev1/source/reverb.cpp **** 
 315:zita-rev1/source/reverb.cpp ****     p0 = inp [0];
 2621              		.loc 1 315 5 view .LVU810
 307:zita-rev1/source/reverb.cpp ****     int   i, n;
 2622              		.loc 1 307 1 is_stmt 0 view .LVU811
 2623 0000 2DE9F04F 		push	{r4, r5, r6, r7, r8, r9, r10, fp, lr}
 2624              		.cfi_def_cfa_offset 36
 2625              		.cfi_offset 4, -36
 2626              		.cfi_offset 5, -32
 2627              		.cfi_offset 6, -28
 2628              		.cfi_offset 7, -24
 2629              		.cfi_offset 8, -20
 2630              		.cfi_offset 9, -16
 2631              		.cfi_offset 10, -12
 2632              		.cfi_offset 11, -8
 2633              		.cfi_offset 14, -4
 2634 0004 0446     		mov	r4, r0
 2635              		.loc 1 315 8 view .LVU812
 2636 0006 1068     		ldr	r0, [r2]
ARM GAS  /var/folders/2p/02m_5p7958535cp2tpgps0400000gn/T//cc0Z3V5w.s 			page 63


 2637              	.LVL186:
 316:zita-rev1/source/reverb.cpp ****     p1 = inp [1];
 2638              		.loc 1 316 8 view .LVU813
 2639 0008 5268     		ldr	r2, [r2, #4]
 2640              	.LVL187:
 317:zita-rev1/source/reverb.cpp ****     q0 = out [0];
 318:zita-rev1/source/reverb.cpp ****     q1 = out [1];
 319:zita-rev1/source/reverb.cpp ****     q2 = out [2];
 320:zita-rev1/source/reverb.cpp ****     q3 = out [3];
 321:zita-rev1/source/reverb.cpp **** 
 322:zita-rev1/source/reverb.cpp ****     for (i = 0; i < nfram; i++)
 2641              		.loc 1 322 19 view .LVU814
 2642 000a 0029     		cmp	r1, #0
 307:zita-rev1/source/reverb.cpp ****     int   i, n;
 2643              		.loc 1 307 1 view .LVU815
 2644 000c 2DED028B 		vpush.64	{d8}
 2645              		.cfi_def_cfa_offset 44
 2646              		.cfi_offset 80, -44
 2647              		.cfi_offset 81, -40
 2648 0010 C7B0     		sub	sp, sp, #284
 2649              		.cfi_def_cfa_offset 328
 316:zita-rev1/source/reverb.cpp ****     p1 = inp [1];
 2650              		.loc 1 316 8 view .LVU816
 2651 0012 4292     		str	r2, [sp, #264]
 317:zita-rev1/source/reverb.cpp ****     q0 = out [0];
 2652              		.loc 1 317 8 view .LVU817
 2653 0014 1A68     		ldr	r2, [r3]
 307:zita-rev1/source/reverb.cpp ****     int   i, n;
 2654              		.loc 1 307 1 view .LVU818
 2655 0016 4593     		str	r3, [sp, #276]
 317:zita-rev1/source/reverb.cpp ****     q0 = out [0];
 2656              		.loc 1 317 8 view .LVU819
 2657 0018 4392     		str	r2, [sp, #268]
 318:zita-rev1/source/reverb.cpp ****     q2 = out [2];
 2658              		.loc 1 318 8 view .LVU820
 2659 001a 5A68     		ldr	r2, [r3, #4]
 315:zita-rev1/source/reverb.cpp ****     p1 = inp [1];
 2660              		.loc 1 315 8 view .LVU821
 2661 001c 4190     		str	r0, [sp, #260]
 2662              	.LVL188:
 316:zita-rev1/source/reverb.cpp ****     q0 = out [0];
 2663              		.loc 1 316 5 is_stmt 1 view .LVU822
 317:zita-rev1/source/reverb.cpp ****     q1 = out [1];
 2664              		.loc 1 317 5 view .LVU823
 318:zita-rev1/source/reverb.cpp ****     q2 = out [2];
 2665              		.loc 1 318 5 view .LVU824
 318:zita-rev1/source/reverb.cpp ****     q2 = out [2];
 2666              		.loc 1 318 8 is_stmt 0 view .LVU825
 2667 001e 4492     		str	r2, [sp, #272]
 2668              	.LVL189:
 319:zita-rev1/source/reverb.cpp ****     q3 = out [3];
 2669              		.loc 1 319 5 is_stmt 1 view .LVU826
 2670              		.loc 1 322 19 is_stmt 0 view .LVU827
 2671 0020 4091     		str	r1, [sp, #256]
 320:zita-rev1/source/reverb.cpp **** 
 2672              		.loc 1 320 8 view .LVU828
 2673 0022 D3E90223 		ldrd	r2, r3, [r3, #8]
ARM GAS  /var/folders/2p/02m_5p7958535cp2tpgps0400000gn/T//cc0Z3V5w.s 			page 64


 2674              	.LVL190:
 2675              		.loc 1 322 5 is_stmt 1 view .LVU829
 2676              		.loc 1 322 19 view .LVU830
 2677 0026 40F37984 		ble	.L206
 2678 002a D4F86861 		ldr	r6, [r4, #360]
 2679 002e 0546     		mov	r5, r0
 2680 0030 CDE90823 		strd	r2, r3, [sp, #32]
 2681              	.LBB361:
 2682              	.LBB362:
  68:zita-rev1/source/reverb.h ****     ~Filt1 (void) {}
  69:zita-rev1/source/reverb.h **** 
  70:zita-rev1/source/reverb.h ****     void  set_params (float del, float tmf, float tlo, float wlo, float thi, float chi);
  71:zita-rev1/source/reverb.h **** 
  72:zita-rev1/source/reverb.h ****     float process (float x)
  73:zita-rev1/source/reverb.h ****     {
  74:zita-rev1/source/reverb.h ****         _slo += _wlo * (x - _slo) + 1e-10f;
  75:zita-rev1/source/reverb.h ****         x += _glo * _slo;
  76:zita-rev1/source/reverb.h ****         _shi += _whi * (x - _shi);
  77:zita-rev1/source/reverb.h **** 	return _gmf * _shi;
  78:zita-rev1/source/reverb.h ****     }
  79:zita-rev1/source/reverb.h ****     float   _gmf;
  80:zita-rev1/source/reverb.h ****     float   _glo;
  81:zita-rev1/source/reverb.h ****     float   _wlo;
  82:zita-rev1/source/reverb.h ****     float   _whi;
  83:zita-rev1/source/reverb.h ****     float   _slo;
  84:zita-rev1/source/reverb.h ****     float   _shi;    
  85:zita-rev1/source/reverb.h **** };
  86:zita-rev1/source/reverb.h **** 
  87:zita-rev1/source/reverb.h **** 
  88:zita-rev1/source/reverb.h **** // -----------------------------------------------------------------------
  89:zita-rev1/source/reverb.h **** 
  90:zita-rev1/source/reverb.h **** 
  91:zita-rev1/source/reverb.h **** class Delay
  92:zita-rev1/source/reverb.h **** {
  93:zita-rev1/source/reverb.h **** private:
  94:zita-rev1/source/reverb.h **** 
  95:zita-rev1/source/reverb.h ****     friend class Reverb;
  96:zita-rev1/source/reverb.h ****     
  97:zita-rev1/source/reverb.h ****     Delay (void);
  98:zita-rev1/source/reverb.h ****     ~Delay (void);
  99:zita-rev1/source/reverb.h **** 
 100:zita-rev1/source/reverb.h ****     void  init (int size);
 101:zita-rev1/source/reverb.h ****     void  fini (void);
 102:zita-rev1/source/reverb.h **** 
 103:zita-rev1/source/reverb.h ****     float read (void)
 104:zita-rev1/source/reverb.h ****     {
 105:zita-rev1/source/reverb.h **** 	return _line [_i];
 106:zita-rev1/source/reverb.h ****     }
 107:zita-rev1/source/reverb.h **** 
 108:zita-rev1/source/reverb.h ****     void write (float x)
 109:zita-rev1/source/reverb.h ****     {
 110:zita-rev1/source/reverb.h **** 	_line [_i++] = x;
 111:zita-rev1/source/reverb.h **** 	if (_i == _size) _i = 0;
 112:zita-rev1/source/reverb.h ****     }
 113:zita-rev1/source/reverb.h **** 
 114:zita-rev1/source/reverb.h ****     int     _i;
 115:zita-rev1/source/reverb.h ****     int     _size;
ARM GAS  /var/folders/2p/02m_5p7958535cp2tpgps0400000gn/T//cc0Z3V5w.s 			page 65


 116:zita-rev1/source/reverb.h ****     float  *_line;
 117:zita-rev1/source/reverb.h **** };
 118:zita-rev1/source/reverb.h **** 
 119:zita-rev1/source/reverb.h **** 
 120:zita-rev1/source/reverb.h **** // -----------------------------------------------------------------------
 121:zita-rev1/source/reverb.h **** 
 122:zita-rev1/source/reverb.h **** 
 123:zita-rev1/source/reverb.h **** class Vdelay
 124:zita-rev1/source/reverb.h **** {
 125:zita-rev1/source/reverb.h **** private:
 126:zita-rev1/source/reverb.h **** 
 127:zita-rev1/source/reverb.h ****     friend class Reverb;
 128:zita-rev1/source/reverb.h ****     
 129:zita-rev1/source/reverb.h ****     Vdelay (void);
 130:zita-rev1/source/reverb.h ****     ~Vdelay (void);
 131:zita-rev1/source/reverb.h **** 
 132:zita-rev1/source/reverb.h ****     void  init (int size);
 133:zita-rev1/source/reverb.h ****     void  fini (void);
 134:zita-rev1/source/reverb.h ****     void  set_delay (int del);
 135:zita-rev1/source/reverb.h **** 
 136:zita-rev1/source/reverb.h ****     float read (void)
 137:zita-rev1/source/reverb.h ****     {
 138:zita-rev1/source/reverb.h **** 	float x = _line [_ir++];
 139:zita-rev1/source/reverb.h **** 	if (_ir == _size) _ir = 0;
 140:zita-rev1/source/reverb.h **** 	return x;
 141:zita-rev1/source/reverb.h ****     }
 142:zita-rev1/source/reverb.h **** 
 143:zita-rev1/source/reverb.h ****     void write (float x)
 144:zita-rev1/source/reverb.h ****     {
 145:zita-rev1/source/reverb.h **** 	_line [_iw++] = x;
 2683              		.loc 2 145 2 is_stmt 0 view .LVU831
 2684 0034 6369     		ldr	r3, [r4, #20]
 2685              	.LVL191:
 2686              		.loc 2 145 2 view .LVU832
 2687 0036 1596     		str	r6, [sp, #84]
 2688 0038 3693     		str	r3, [sp, #216]
 2689 003a E368     		ldr	r3, [r4, #12]
 2690 003c 0C93     		str	r3, [sp, #48]
 146:zita-rev1/source/reverb.h **** 	if (_iw == _size) _iw = 0;
 2691              		.loc 2 146 13 view .LVU833
 2692 003e 2369     		ldr	r3, [r4, #16]
 2693 0040 1393     		str	r3, [sp, #76]
 2694              	.LBE362:
 2695              	.LBE361:
 2696              	.LBB367:
 2697              	.LBB368:
 145:zita-rev1/source/reverb.h **** 	if (_iw == _size) _iw = 0;
 2698              		.loc 2 145 2 view .LVU834
 2699 0042 636A     		ldr	r3, [r4, #36]
 2700 0044 3493     		str	r3, [sp, #208]
 2701 0046 E369     		ldr	r3, [r4, #28]
 2702 0048 0B93     		str	r3, [sp, #44]
 2703              		.loc 2 146 13 view .LVU835
 2704 004a 236A     		ldr	r3, [r4, #32]
 2705 004c 3593     		str	r3, [sp, #212]
 2706 004e A368     		ldr	r3, [r4, #8]
 2707 0050 0A93     		str	r3, [sp, #40]
ARM GAS  /var/folders/2p/02m_5p7958535cp2tpgps0400000gn/T//cc0Z3V5w.s 			page 66


 2708              	.LBE368:
 2709              	.LBE367:
 2710              	.LBB375:
 2711              	.LBB376:
 105:zita-rev1/source/reverb.h ****     }
 2712              		.loc 2 105 9 view .LVU836
 2713 0052 D4F87031 		ldr	r3, [r4, #368]
 2714 0056 3393     		str	r3, [sp, #204]
 2715              	.LBE376:
 2716              	.LBE375:
 2717              	.LBB379:
 2718              	.LBB380:
  44:zita-rev1/source/reverb.h **** 	x -= _c * z;
 2719              		.loc 2 44 12 view .LVU837
 2720 0058 636B     		ldr	r3, [r4, #52]
 2721 005a 3193     		str	r3, [sp, #196]
 2722 005c A36A     		ldr	r3, [r4, #40]
 2723 005e 0F93     		str	r3, [sp, #60]
  47:zita-rev1/source/reverb.h **** 	return z + _c * x;
 2724              		.loc 2 47 21 view .LVU838
 2725 0060 236B     		ldr	r3, [r4, #48]
 2726 0062 3293     		str	r3, [sp, #200]
 2727              	.LBE380:
 2728              	.LBE379:
 2729              	.LBB387:
 2730              	.LBB388:
 105:zita-rev1/source/reverb.h ****     }
 2731              		.loc 2 105 9 view .LVU839
 2732 0064 D4F87C31 		ldr	r3, [r4, #380]
 2733 0068 3093     		str	r3, [sp, #192]
 2734 006a D4F87431 		ldr	r3, [r4, #372]
 2735 006e 0493     		str	r3, [sp, #16]
 2736              	.LBE388:
 2737              	.LBE387:
 2738              	.LBB392:
 2739              	.LBB393:
  44:zita-rev1/source/reverb.h **** 	x -= _c * z;
 2740              		.loc 2 44 12 view .LVU840
 2741 0070 636C     		ldr	r3, [r4, #68]
 2742 0072 2E93     		str	r3, [sp, #184]
 2743 0074 A36B     		ldr	r3, [r4, #56]
 2744 0076 D4F848B0 		ldr	fp, [r4, #72]
 2745 007a 0E93     		str	r3, [sp, #56]
  47:zita-rev1/source/reverb.h **** 	return z + _c * x;
 2746              		.loc 2 47 21 view .LVU841
 2747 007c 236C     		ldr	r3, [r4, #64]
 2748 007e D4F88CA1 		ldr	r10, [r4, #396]
 2749 0082 2F93     		str	r3, [sp, #188]
 2750              	.LBE393:
 2751              	.LBE392:
 2752              	.LBB401:
 2753              	.LBB402:
 105:zita-rev1/source/reverb.h ****     }
 2754              		.loc 2 105 9 view .LVU842
 2755 0084 D4F88831 		ldr	r3, [r4, #392]
 2756 0088 D4F85890 		ldr	r9, [r4, #88]
 2757 008c 2D93     		str	r3, [sp, #180]
ARM GAS  /var/folders/2p/02m_5p7958535cp2tpgps0400000gn/T//cc0Z3V5w.s 			page 67


 2758 008e D4F88031 		ldr	r3, [r4, #384]
 2759 0092 D4F89881 		ldr	r8, [r4, #408]
 2760 0096 0293     		str	r3, [sp, #8]
 2761              	.LBE402:
 2762              	.LBE401:
 2763              	.LBB407:
 2764              	.LBB408:
  44:zita-rev1/source/reverb.h **** 	x -= _c * z;
 2765              		.loc 2 44 12 view .LVU843
 2766 0098 636D     		ldr	r3, [r4, #84]
 2767 009a A06E     		ldr	r0, [r4, #104]
 2768              	.LVL192:
  44:zita-rev1/source/reverb.h **** 	x -= _c * z;
 2769              		.loc 2 44 12 view .LVU844
 2770 009c 2B93     		str	r3, [sp, #172]
  47:zita-rev1/source/reverb.h **** 	return z + _c * x;
 2771              		.loc 2 47 21 view .LVU845
 2772 009e 236D     		ldr	r3, [r4, #80]
 2773 00a0 0595     		str	r5, [sp, #20]
 2774 00a2 2C93     		str	r3, [sp, #176]
 2775              	.LBE408:
 2776              	.LBE407:
 2777              	.LBB416:
 2778              	.LBB417:
 105:zita-rev1/source/reverb.h ****     }
 2779              		.loc 2 105 9 view .LVU846
 2780 00a4 D4F89431 		ldr	r3, [r4, #404]
 2781 00a8 2A93     		str	r3, [sp, #168]
 2782              	.LBE417:
 2783              	.LBE416:
 2784              	.LBB422:
 2785              	.LBB423:
  44:zita-rev1/source/reverb.h **** 	x -= _c * z;
 2786              		.loc 2 44 12 view .LVU847
 2787 00aa 636E     		ldr	r3, [r4, #100]
 2788 00ac 2893     		str	r3, [sp, #160]
  47:zita-rev1/source/reverb.h **** 	return z + _c * x;
 2789              		.loc 2 47 21 view .LVU848
 2790 00ae 236E     		ldr	r3, [r4, #96]
 2791 00b0 2993     		str	r3, [sp, #164]
 2792 00b2 A369     		ldr	r3, [r4, #24]
 2793 00b4 0D93     		str	r3, [sp, #52]
 2794              	.LBE423:
 2795              	.LBE422:
 2796              	.LBB431:
 2797              	.LBB432:
 105:zita-rev1/source/reverb.h ****     }
 2798              		.loc 2 105 9 view .LVU849
 2799 00b6 D4F8A031 		ldr	r3, [r4, #416]
 2800 00ba 2793     		str	r3, [sp, #156]
 2801              	.LBE432:
 2802              	.LBE431:
 2803              	.LBB435:
 2804              	.LBB436:
  44:zita-rev1/source/reverb.h **** 	x -= _c * z;
 2805              		.loc 2 44 12 view .LVU850
 2806 00bc 636F     		ldr	r3, [r4, #116]
ARM GAS  /var/folders/2p/02m_5p7958535cp2tpgps0400000gn/T//cc0Z3V5w.s 			page 68


 2807 00be 2593     		str	r3, [sp, #148]
  47:zita-rev1/source/reverb.h **** 	return z + _c * x;
 2808              		.loc 2 47 21 view .LVU851
 2809 00c0 236F     		ldr	r3, [r4, #112]
 2810 00c2 2693     		str	r3, [sp, #152]
 2811 00c4 439B     		ldr	r3, [sp, #268]
 2812              	.LBE436:
 2813              	.LBE435:
 2814              	.LBB445:
 2815              	.LBB446:
 2816 00c6 D4F8A060 		ldr	r6, [r4, #160]
 2817 00ca 0793     		str	r3, [sp, #28]
 2818              	.LBE446:
 2819              	.LBE445:
 2820              	.LBB456:
 2821              	.LBB457:
 105:zita-rev1/source/reverb.h ****     }
 2822              		.loc 2 105 9 view .LVU852
 2823 00cc D4F8AC31 		ldr	r3, [r4, #428]
 2824              	.LBE457:
 2825              	.LBE456:
 2826              	.LBB463:
 2827              	.LBB447:
  47:zita-rev1/source/reverb.h **** 	return z + _c * x;
 2828              		.loc 2 47 21 view .LVU853
 2829 00d0 1D96     		str	r6, [sp, #116]
 2830              	.LBE447:
 2831              	.LBE463:
 2832              	.LBB464:
 2833              	.LBB458:
 105:zita-rev1/source/reverb.h ****     }
 2834              		.loc 2 105 9 view .LVU854
 2835 00d2 2493     		str	r3, [sp, #144]
 2836              	.LBE458:
 2837              	.LBE464:
 2838              	.LBB465:
 2839              	.LBB466:
  44:zita-rev1/source/reverb.h **** 	x -= _c * z;
 2840              		.loc 2 44 12 view .LVU855
 2841 00d4 D4F88430 		ldr	r3, [r4, #132]
 2842              	.LBE466:
 2843              	.LBE465:
 323:zita-rev1/source/reverb.cpp ****     {
 324:zita-rev1/source/reverb.cpp **** 	_vdelay0.write (p0 [i]);
 325:zita-rev1/source/reverb.cpp **** 	_vdelay1.write (p1 [i]);
 326:zita-rev1/source/reverb.cpp **** 
 327:zita-rev1/source/reverb.cpp ****  	t = 0.3f * _vdelay0.read ();
 328:zita-rev1/source/reverb.cpp **** 	x0 = _diff1 [0].process (_delay [0].read () + t);
 329:zita-rev1/source/reverb.cpp **** 	x1 = _diff1 [1].process (_delay [1].read () + t);
 330:zita-rev1/source/reverb.cpp **** 	x2 = _diff1 [2].process (_delay [2].read () - t);
 331:zita-rev1/source/reverb.cpp **** 	x3 = _diff1 [3].process (_delay [3].read () - t);
 332:zita-rev1/source/reverb.cpp ****  	t = 0.3f * _vdelay1.read ();
 333:zita-rev1/source/reverb.cpp **** 	x4 = _diff1 [4].process (_delay [4].read () + t);
 334:zita-rev1/source/reverb.cpp **** 	x5 = _diff1 [5].process (_delay [5].read () + t);
 335:zita-rev1/source/reverb.cpp **** 	x6 = _diff1 [6].process (_delay [6].read () - t);
 336:zita-rev1/source/reverb.cpp **** 	x7 = _diff1 [7].process (_delay [7].read () - t);
 337:zita-rev1/source/reverb.cpp **** 
ARM GAS  /var/folders/2p/02m_5p7958535cp2tpgps0400000gn/T//cc0Z3V5w.s 			page 69


 338:zita-rev1/source/reverb.cpp ****         t = x0 - x1; x0 += x1;  x1 = t;
 339:zita-rev1/source/reverb.cpp ****         t = x2 - x3; x2 += x3;  x3 = t;
 340:zita-rev1/source/reverb.cpp ****         t = x4 - x5; x4 += x5;  x5 = t;
 341:zita-rev1/source/reverb.cpp ****         t = x6 - x7; x6 += x7;  x7 = t;
 342:zita-rev1/source/reverb.cpp ****         t = x0 - x2; x0 += x2;  x2 = t;
 343:zita-rev1/source/reverb.cpp ****         t = x1 - x3; x1 += x3;  x3 = t;
 344:zita-rev1/source/reverb.cpp ****         t = x4 - x6; x4 += x6;  x6 = t;
 345:zita-rev1/source/reverb.cpp ****         t = x5 - x7; x5 += x7;  x7 = t;
 346:zita-rev1/source/reverb.cpp ****         t = x0 - x4; x0 += x4;  x4 = t;
 347:zita-rev1/source/reverb.cpp ****         t = x1 - x5; x1 += x5;  x5 = t;
 348:zita-rev1/source/reverb.cpp ****         t = x2 - x6; x2 += x6;  x6 = t;
 349:zita-rev1/source/reverb.cpp ****         t = x3 - x7; x3 += x7;  x7 = t;
 350:zita-rev1/source/reverb.cpp **** 
 351:zita-rev1/source/reverb.cpp **** 	if (_ambis)
 2844              		.loc 1 351 6 view .LVU856
 2845 00d8 2679     		ldrb	r6, [r4, #4]	@ zero_extendqisi2
 2846              	.LBB479:
 2847              	.LBB467:
  44:zita-rev1/source/reverb.h **** 	x -= _c * z;
 2848              		.loc 2 44 12 view .LVU857
 2849 00da 2293     		str	r3, [sp, #136]
  47:zita-rev1/source/reverb.h **** 	return z + _c * x;
 2850              		.loc 2 47 21 view .LVU858
 2851 00dc D4F88030 		ldr	r3, [r4, #128]
 2852              	.LBE467:
 2853              	.LBE479:
 2854              		.loc 1 351 6 view .LVU859
 2855 00e0 1B96     		str	r6, [sp, #108]
 2856              	.LBB480:
 2857              	.LBB468:
  47:zita-rev1/source/reverb.h **** 	return z + _c * x;
 2858              		.loc 2 47 21 view .LVU860
 2859 00e2 2393     		str	r3, [sp, #140]
 2860              	.LBE468:
 2861              	.LBE480:
 2862              	.LBB481:
 2863              	.LBB482:
 105:zita-rev1/source/reverb.h ****     }
 2864              		.loc 2 105 9 view .LVU861
 2865 00e4 D4F8B831 		ldr	r3, [r4, #440]
 2866              	.LBE482:
 2867              	.LBE481:
 2868              	.LBB486:
 2869              	.LBB487:
 111:zita-rev1/source/reverb.h ****     }
 2870              		.loc 2 111 12 view .LVU862
 2871 00e8 D4F86C61 		ldr	r6, [r4, #364]
 2872              	.LBE487:
 2873              	.LBE486:
 2874              	.LBB494:
 2875              	.LBB483:
 105:zita-rev1/source/reverb.h ****     }
 2876              		.loc 2 105 9 view .LVU863
 2877 00ec 2193     		str	r3, [sp, #132]
 2878              	.LBE483:
 2879              	.LBE494:
 2880              	.LBB495:
ARM GAS  /var/folders/2p/02m_5p7958535cp2tpgps0400000gn/T//cc0Z3V5w.s 			page 70


 2881              	.LBB496:
  44:zita-rev1/source/reverb.h **** 	x -= _c * z;
 2882              		.loc 2 44 12 view .LVU864
 2883 00ee D4F89430 		ldr	r3, [r4, #148]
 2884              	.LBE496:
 2885              	.LBE495:
 2886              	.LBB511:
 2887              	.LBB488:
 111:zita-rev1/source/reverb.h ****     }
 2888              		.loc 2 111 12 view .LVU865
 2889 00f2 3E96     		str	r6, [sp, #248]
 2890              	.LBE488:
 2891              	.LBE511:
 2892              	.LBB512:
 2893              	.LBB497:
  44:zita-rev1/source/reverb.h **** 	x -= _c * z;
 2894              		.loc 2 44 12 view .LVU866
 2895 00f4 1F93     		str	r3, [sp, #124]
  47:zita-rev1/source/reverb.h **** 	return z + _c * x;
 2896              		.loc 2 47 21 view .LVU867
 2897 00f6 D4F89030 		ldr	r3, [r4, #144]
 2898              	.LBE497:
 2899              	.LBE512:
 2900              	.LBB513:
 2901              	.LBB514:
 111:zita-rev1/source/reverb.h ****     }
 2902              		.loc 2 111 12 view .LVU868
 2903 00fa D4F87861 		ldr	r6, [r4, #376]
 2904              	.LBE514:
 2905              	.LBE513:
 2906              	.LBB524:
 2907              	.LBB498:
  47:zita-rev1/source/reverb.h **** 	return z + _c * x;
 2908              		.loc 2 47 21 view .LVU869
 2909 00fe 2093     		str	r3, [sp, #128]
 2910              	.LBE498:
 2911              	.LBE524:
 2912              	.LBB525:
 2913              	.LBB526:
 105:zita-rev1/source/reverb.h ****     }
 2914              		.loc 2 105 9 view .LVU870
 2915 0100 D4F8C431 		ldr	r3, [r4, #452]
 2916 0104 D4F8A4E1 		ldr	lr, [r4, #420]
 2917 0108 1E93     		str	r3, [sp, #120]
 2918 010a D4F8BC31 		ldr	r3, [r4, #444]
 2919 010e F446     		mov	ip, lr
 2920 0110 A16F     		ldr	r1, [r4, #120]
 2921              	.LVL193:
 105:zita-rev1/source/reverb.h ****     }
 2922              		.loc 2 105 9 view .LVU871
 2923 0112 C646     		mov	lr, r8
 2924 0114 0393     		str	r3, [sp, #12]
 2925 0116 D046     		mov	r8, r10
 2926              	.LBE526:
 2927              	.LBE525:
 2928              	.LBB529:
 2929              	.LBB448:
ARM GAS  /var/folders/2p/02m_5p7958535cp2tpgps0400000gn/T//cc0Z3V5w.s 			page 71


  44:zita-rev1/source/reverb.h **** 	x -= _c * z;
 2930              		.loc 2 44 12 view .LVU872
 2931 0118 D4F8A430 		ldr	r3, [r4, #164]
 2932 011c CA46     		mov	r10, r9
 2933 011e D4F88820 		ldr	r2, [r4, #136]
 2934 0122 D946     		mov	r9, fp
 2935 0124 1C93     		str	r3, [sp, #112]
 2936 0126 D4F8B071 		ldr	r7, [r4, #432]
 2937 012a D4F89830 		ldr	r3, [r4, #152]
 2938              	.LBE448:
 2939              	.LBE529:
 2940              	.LBB530:
 2941              	.LBB515:
 111:zita-rev1/source/reverb.h ****     }
 2942              		.loc 2 111 12 view .LVU873
 2943 012e 3D96     		str	r6, [sp, #244]
 2944              	.LBE515:
 2945              	.LBE530:
 2946              	.LBB531:
 2947              	.LBB532:
 2948 0130 D4F88461 		ldr	r6, [r4, #388]
 2949 0134 DDF854B0 		ldr	fp, [sp, #84]
 2950 0138 3C96     		str	r6, [sp, #240]
 2951              	.LBE532:
 2952              	.LBE531:
 2953              	.LBB542:
 2954              	.LBB543:
 2955 013a D4F89061 		ldr	r6, [r4, #400]
 2956 013e 0190     		str	r0, [sp, #4]
 2957 0140 3B96     		str	r6, [sp, #236]
 2958              	.LBE543:
 2959              	.LBE542:
 2960              	.LBB548:
 2961              	.LBB549:
 2962 0142 D4F89C61 		ldr	r6, [r4, #412]
 2963 0146 1291     		str	r1, [sp, #72]
 2964 0148 3A96     		str	r6, [sp, #232]
 2965              	.LBE549:
 2966              	.LBE548:
 2967              	.LBB555:
 2968              	.LBB556:
 2969 014a D4F8A861 		ldr	r6, [r4, #424]
 2970 014e 3996     		str	r6, [sp, #228]
 2971              	.LBE556:
 2972              	.LBE555:
 2973              	.LBB562:
 2974              	.LBB563:
 2975 0150 D4F8B461 		ldr	r6, [r4, #436]
 2976 0154 3896     		str	r6, [sp, #224]
 2977              	.LBE563:
 2978              	.LBE562:
 2979              	.LBB568:
 2980              	.LBB569:
 2981 0156 D4F8C061 		ldr	r6, [r4, #448]
 2982 015a 3796     		str	r6, [sp, #220]
 2983 015c 449E     		ldr	r6, [sp, #272]
 2984 015e 0696     		str	r6, [sp, #24]
ARM GAS  /var/folders/2p/02m_5p7958535cp2tpgps0400000gn/T//cc0Z3V5w.s 			page 72


 2985 0160 429E     		ldr	r6, [sp, #264]
 2986 0162 1496     		str	r6, [sp, #80]
 2987 0164 409E     		ldr	r6, [sp, #256]
 2988 0166 05EB8605 		add	r5, r5, r6, lsl #2
 2989              	.LVL194:
 111:zita-rev1/source/reverb.h ****     }
 2990              		.loc 2 111 12 view .LVU874
 2991 016a CDE91032 		strd	r3, r2, [sp, #64]
 2992 016e 3F95     		str	r5, [sp, #252]
 2993              	.LVL195:
 2994              	.L170:
 111:zita-rev1/source/reverb.h ****     }
 2995              		.loc 2 111 12 view .LVU875
 2996              	.LBE569:
 2997              	.LBE568:
 324:zita-rev1/source/reverb.cpp **** 	_vdelay1.write (p1 [i]);
 2998              		.loc 1 324 2 is_stmt 1 view .LVU876
 324:zita-rev1/source/reverb.cpp **** 	_vdelay1.write (p1 [i]);
 2999              		.loc 1 324 17 is_stmt 0 view .LVU877
 3000 0170 059B     		ldr	r3, [sp, #20]
 3001              	.LBB577:
 3002              	.LBB363:
 145:zita-rev1/source/reverb.h **** 	if (_iw == _size) _iw = 0;
 3003              		.loc 2 145 16 view .LVU878
 3004 0172 0C9A     		ldr	r2, [sp, #48]
 3005              	.LBE363:
 3006              	.LBE577:
 324:zita-rev1/source/reverb.cpp **** 	_vdelay1.write (p1 [i]);
 3007              		.loc 1 324 17 view .LVU879
 3008 0174 53F8046B 		ldr	r6, [r3], #4	@ float
 3009              	.LBB578:
 3010              	.LBB369:
 145:zita-rev1/source/reverb.h **** 	if (_iw == _size) _iw = 0;
 3011              		.loc 2 145 16 view .LVU880
 3012 0178 3498     		ldr	r0, [sp, #208]
 3013              	.LBE369:
 3014              	.LBE578:
 324:zita-rev1/source/reverb.cpp **** 	_vdelay1.write (p1 [i]);
 3015              		.loc 1 324 17 view .LVU881
 3016 017a 0593     		str	r3, [sp, #20]
 3017              	.LVL196:
 3018              	.LBB579:
 3019              	.LBI361:
 143:zita-rev1/source/reverb.h ****     {
 3020              		.loc 2 143 10 is_stmt 1 view .LVU882
 3021              	.LBB364:
 145:zita-rev1/source/reverb.h **** 	if (_iw == _size) _iw = 0;
 3022              		.loc 2 145 2 view .LVU883
 145:zita-rev1/source/reverb.h **** 	if (_iw == _size) _iw = 0;
 3023              		.loc 2 145 16 is_stmt 0 view .LVU884
 3024 017c 369B     		ldr	r3, [sp, #216]
 3025              	.LBE364:
 3026              	.LBE579:
 327:zita-rev1/source/reverb.cpp **** 	x0 = _diff1 [0].process (_delay [0].read () + t);
 3027              		.loc 1 327 5 view .LVU885
 3028 017e DFEDD15A 		vldr.32	s11, .L209
 3029              	.LBB580:
ARM GAS  /var/folders/2p/02m_5p7958535cp2tpgps0400000gn/T//cc0Z3V5w.s 			page 73


 3030              	.LBB365:
 145:zita-rev1/source/reverb.h **** 	if (_iw == _size) _iw = 0;
 3031              		.loc 2 145 16 view .LVU886
 3032 0182 03EB8205 		add	r5, r3, r2, lsl #2
 3033 0186 2E60     		str	r6, [r5]	@ float
 3034              		.loc 2 146 2 is_stmt 1 view .LVU887
 145:zita-rev1/source/reverb.h **** 	if (_iw == _size) _iw = 0;
 3035              		.loc 2 145 12 is_stmt 0 view .LVU888
 3036 0188 1546     		mov	r5, r2
 3037              		.loc 2 146 2 view .LVU889
 3038 018a 139E     		ldr	r6, [sp, #76]
 3039              	.LVL197:
 145:zita-rev1/source/reverb.h **** 	if (_iw == _size) _iw = 0;
 3040              		.loc 2 145 12 view .LVU890
 3041 018c 0135     		adds	r5, r5, #1
 3042              		.loc 2 146 2 view .LVU891
 3043 018e 2A46     		mov	r2, r5
 3044              	.LVL198:
 3045              		.loc 2 146 2 view .LVU892
 3046 0190 B542     		cmp	r5, r6
 3047 0192 08BF     		it	eq
 3048 0194 0022     		moveq	r2, #0
 3049              	.LBE365:
 3050              	.LBE580:
 325:zita-rev1/source/reverb.cpp **** 
 3051              		.loc 1 325 17 view .LVU893
 3052 0196 149D     		ldr	r5, [sp, #80]
 3053              	.LBB581:
 3054              	.LBB366:
 3055              		.loc 2 146 2 view .LVU894
 3056 0198 0C92     		str	r2, [sp, #48]
 3057              	.LVL199:
 3058              		.loc 2 146 2 view .LVU895
 3059              	.LBE366:
 3060              	.LBE581:
 325:zita-rev1/source/reverb.cpp **** 
 3061              		.loc 1 325 2 is_stmt 1 view .LVU896
 325:zita-rev1/source/reverb.cpp **** 
 3062              		.loc 1 325 17 is_stmt 0 view .LVU897
 3063 019a 55F8046B 		ldr	r6, [r5], #4	@ float
 3064              	.LBB582:
 3065              	.LBB370:
 145:zita-rev1/source/reverb.h **** 	if (_iw == _size) _iw = 0;
 3066              		.loc 2 145 16 view .LVU898
 3067 019e 0B9A     		ldr	r2, [sp, #44]
 3068              	.LBE370:
 3069              	.LBE582:
 325:zita-rev1/source/reverb.cpp **** 
 3070              		.loc 1 325 17 view .LVU899
 3071 01a0 1495     		str	r5, [sp, #80]
 3072              	.LVL200:
 3073              	.LBB583:
 3074              	.LBI367:
 143:zita-rev1/source/reverb.h ****     {
 3075              		.loc 2 143 10 is_stmt 1 view .LVU900
 3076              	.LBB371:
 145:zita-rev1/source/reverb.h **** 	if (_iw == _size) _iw = 0;
ARM GAS  /var/folders/2p/02m_5p7958535cp2tpgps0400000gn/T//cc0Z3V5w.s 			page 74


 3077              		.loc 2 145 2 view .LVU901
 145:zita-rev1/source/reverb.h **** 	if (_iw == _size) _iw = 0;
 3078              		.loc 2 145 16 is_stmt 0 view .LVU902
 3079 01a2 00EB8205 		add	r5, r0, r2, lsl #2
 3080 01a6 2E60     		str	r6, [r5]	@ float
 3081              		.loc 2 146 2 is_stmt 1 view .LVU903
 145:zita-rev1/source/reverb.h **** 	if (_iw == _size) _iw = 0;
 3082              		.loc 2 145 12 is_stmt 0 view .LVU904
 3083 01a8 551C     		adds	r5, r2, #1
 3084              	.LBE371:
 3085              	.LBE583:
 3086              	.LBB584:
 3087              	.LBB585:
 138:zita-rev1/source/reverb.h **** 	if (_ir == _size) _ir = 0;
 3088              		.loc 2 138 24 view .LVU905
 3089 01aa 0A9E     		ldr	r6, [sp, #40]
 3090              	.LVL201:
 138:zita-rev1/source/reverb.h **** 	if (_ir == _size) _ir = 0;
 3091              		.loc 2 138 24 view .LVU906
 3092              	.LBE585:
 3093              	.LBE584:
 3094              	.LBB589:
 3095              	.LBB372:
 3096              		.loc 2 146 2 view .LVU907
 3097 01ac 359A     		ldr	r2, [sp, #212]
 3098              	.LVL202:
 3099              		.loc 2 146 2 view .LVU908
 3100 01ae 2946     		mov	r1, r5
 3101              	.LBE372:
 3102              	.LBE589:
 3103              	.LBB590:
 3104              	.LBB381:
  45:zita-rev1/source/reverb.h ****         _line [_i] = x;
 3105              		.loc 2 45 4 view .LVU909
 3106 01b0 94ED0B7A 		vldr.32	s14, [r4, #44]
 3107              	.LBE381:
 3108              	.LBE590:
 3109              	.LBB591:
 3110              	.LBB373:
 3111              		.loc 2 146 2 view .LVU910
 3112 01b4 9542     		cmp	r5, r2
 3113 01b6 08BF     		it	eq
 3114 01b8 0021     		moveq	r1, #0
 3115              	.LBE373:
 3116              	.LBE591:
 3117              	.LBB592:
 3118              	.LBB586:
 138:zita-rev1/source/reverb.h **** 	if (_ir == _size) _ir = 0;
 3119              		.loc 2 138 24 view .LVU911
 3120 01ba 03EB8605 		add	r5, r3, r6, lsl #2
 3121 01be 95ED005A 		vldr.32	s10, [r5]
 138:zita-rev1/source/reverb.h **** 	if (_ir == _size) _ir = 0;
 3122              		.loc 2 138 22 view .LVU912
 3123 01c2 751C     		adds	r5, r6, #1
 139:zita-rev1/source/reverb.h **** 	return x;
 3124              		.loc 2 139 2 view .LVU913
 3125 01c4 139E     		ldr	r6, [sp, #76]
ARM GAS  /var/folders/2p/02m_5p7958535cp2tpgps0400000gn/T//cc0Z3V5w.s 			page 75


 3126 01c6 2B46     		mov	r3, r5
 3127              	.LBE586:
 3128              	.LBE592:
 327:zita-rev1/source/reverb.cpp **** 	x0 = _diff1 [0].process (_delay [0].read () + t);
 3129              		.loc 1 327 5 view .LVU914
 3130 01c8 65EE254A 		vmul.f32	s9, s10, s11
 3131              	.LBB593:
 3132              	.LBB374:
 3133              		.loc 2 146 2 view .LVU915
 3134 01cc 0B91     		str	r1, [sp, #44]
 3135              	.LVL203:
 3136              		.loc 2 146 2 view .LVU916
 3137              	.LBE374:
 3138              	.LBE593:
 327:zita-rev1/source/reverb.cpp **** 	x0 = _diff1 [0].process (_delay [0].read () + t);
 3139              		.loc 1 327 3 is_stmt 1 view .LVU917
 3140              	.LBB594:
 3141              	.LBI584:
 136:zita-rev1/source/reverb.h ****     {
 3142              		.loc 2 136 11 view .LVU918
 3143              	.LBB587:
 138:zita-rev1/source/reverb.h **** 	if (_ir == _size) _ir = 0;
 3144              		.loc 2 138 2 view .LVU919
 139:zita-rev1/source/reverb.h **** 	return x;
 3145              		.loc 2 139 2 view .LVU920
 3146 01ce B542     		cmp	r5, r6
 3147 01d0 08BF     		it	eq
 3148 01d2 0023     		moveq	r3, #0
 3149              	.LBE587:
 3150              	.LBE594:
 3151              	.LBB595:
 3152              	.LBB382:
  44:zita-rev1/source/reverb.h **** 	x -= _c * z;
 3153              		.loc 2 44 21 is_stmt 0 view .LVU921
 3154 01d4 319E     		ldr	r6, [sp, #196]
  47:zita-rev1/source/reverb.h **** 	return z + _c * x;
 3155              		.loc 2 47 31 view .LVU922
 3156 01d6 3299     		ldr	r1, [sp, #200]
 3157              	.LBE382:
 3158              	.LBE595:
 3159              	.LBB596:
 3160              	.LBB588:
 139:zita-rev1/source/reverb.h **** 	return x;
 3161              		.loc 2 139 2 view .LVU923
 3162 01d8 0A93     		str	r3, [sp, #40]
 140:zita-rev1/source/reverb.h ****     }
 3163              		.loc 2 140 2 is_stmt 1 view .LVU924
 3164              	.LVL204:
 140:zita-rev1/source/reverb.h ****     }
 3165              		.loc 2 140 2 is_stmt 0 view .LVU925
 3166              	.LBE588:
 3167              	.LBE596:
 328:zita-rev1/source/reverb.cpp **** 	x1 = _diff1 [1].process (_delay [1].read () + t);
 3168              		.loc 1 328 2 is_stmt 1 view .LVU926
 3169              	.LBB597:
 3170              	.LBI375:
 103:zita-rev1/source/reverb.h ****     {
ARM GAS  /var/folders/2p/02m_5p7958535cp2tpgps0400000gn/T//cc0Z3V5w.s 			page 76


 3171              		.loc 2 103 11 view .LVU927
 3172              	.LBB377:
 105:zita-rev1/source/reverb.h ****     }
 3173              		.loc 2 105 2 view .LVU928
 105:zita-rev1/source/reverb.h ****     }
 3174              		.loc 2 105 18 is_stmt 0 view .LVU929
 3175 01da 339B     		ldr	r3, [sp, #204]
 3176 01dc 03EB8B03 		add	r3, r3, fp, lsl #2
 3177              	.LBE377:
 3178              	.LBE597:
 328:zita-rev1/source/reverb.cpp **** 	x1 = _diff1 [1].process (_delay [1].read () + t);
 3179              		.loc 1 328 26 view .LVU930
 3180 01e0 D3ED007A 		vldr.32	s15, [r3]
 3181              	.LBB598:
 3182              	.LBB378:
 105:zita-rev1/source/reverb.h ****     }
 3183              		.loc 2 105 18 view .LVU931
 3184 01e4 1A93     		str	r3, [sp, #104]
 3185              	.LVL205:
 105:zita-rev1/source/reverb.h ****     }
 3186              		.loc 2 105 18 view .LVU932
 3187              	.LBE378:
 3188              	.LBE598:
 3189              	.LBB599:
 3190              	.LBI379:
  42:zita-rev1/source/reverb.h ****     {
 3191              		.loc 2 42 11 is_stmt 1 view .LVU933
 3192              	.LBB383:
  44:zita-rev1/source/reverb.h **** 	x -= _c * z;
 3193              		.loc 2 44 2 view .LVU934
  44:zita-rev1/source/reverb.h **** 	x -= _c * z;
 3194              		.loc 2 44 21 is_stmt 0 view .LVU935
 3195 01e6 0F9B     		ldr	r3, [sp, #60]
 3196              	.LBE383:
 3197              	.LBE599:
 328:zita-rev1/source/reverb.cpp **** 	x1 = _diff1 [1].process (_delay [1].read () + t);
 3198              		.loc 1 328 26 view .LVU936
 3199 01e8 74EEA77A 		vadd.f32	s15, s9, s15
 3200              	.LVL206:
 3201              	.LBB600:
 3202              	.LBB384:
  44:zita-rev1/source/reverb.h **** 	x -= _c * z;
 3203              		.loc 2 44 21 view .LVU937
 3204 01ec 06EB8305 		add	r5, r6, r3, lsl #2
  47:zita-rev1/source/reverb.h **** 	return z + _c * x;
 3205              		.loc 2 47 13 view .LVU938
 3206 01f0 0133     		adds	r3, r3, #1
  44:zita-rev1/source/reverb.h **** 	x -= _c * z;
 3207              		.loc 2 44 8 view .LVU939
 3208 01f2 D5ED006A 		vldr.32	s13, [r5]
 3209              	.LVL207:
  45:zita-rev1/source/reverb.h ****         _line [_i] = x;
 3210              		.loc 2 45 2 is_stmt 1 view .LVU940
  47:zita-rev1/source/reverb.h **** 	return z + _c * x;
 3211              		.loc 2 47 31 is_stmt 0 view .LVU941
 3212 01f6 8B42     		cmp	r3, r1
 3213 01f8 08BF     		it	eq
ARM GAS  /var/folders/2p/02m_5p7958535cp2tpgps0400000gn/T//cc0Z3V5w.s 			page 77


 3214 01fa 0023     		moveq	r3, #0
  45:zita-rev1/source/reverb.h ****         _line [_i] = x;
 3215              		.loc 2 45 4 view .LVU942
 3216 01fc E6EEC77A 		vfms.f32	s15, s13, s14
 3217              	.LVL208:
  46:zita-rev1/source/reverb.h ****         if (++_i == _size) _i = 0;
 3218              		.loc 2 46 9 is_stmt 1 view .LVU943
  47:zita-rev1/source/reverb.h **** 	return z + _c * x;
 3219              		.loc 2 47 31 is_stmt 0 view .LVU944
 3220 0200 0F93     		str	r3, [sp, #60]
  46:zita-rev1/source/reverb.h ****         if (++_i == _size) _i = 0;
 3221              		.loc 2 46 20 view .LVU945
 3222 0202 C5ED007A 		vstr.32	s15, [r5]
  47:zita-rev1/source/reverb.h **** 	return z + _c * x;
 3223              		.loc 2 47 9 is_stmt 1 view .LVU946
  48:zita-rev1/source/reverb.h ****     } 
 3224              		.loc 2 48 2 view .LVU947
 3225              	.LBE384:
 3226              	.LBE600:
 3227              	.LBB601:
 3228              	.LBB394:
  45:zita-rev1/source/reverb.h ****         _line [_i] = x;
 3229              		.loc 2 45 4 is_stmt 0 view .LVU948
 3230 0206 94ED0F6A 		vldr.32	s12, [r4, #60]
 3231              	.LBE394:
 3232              	.LBE601:
 3233              	.LBB602:
 3234              	.LBB385:
  48:zita-rev1/source/reverb.h ****     } 
 3235              		.loc 2 48 18 view .LVU949
 3236 020a 94ED0B7A 		vldr.32	s14, [r4, #44]
 3237              	.LBE385:
 3238              	.LBE602:
 3239              	.LBB603:
 3240              	.LBB389:
 105:zita-rev1/source/reverb.h ****     }
 3241              		.loc 2 105 18 view .LVU950
 3242 020e 309B     		ldr	r3, [sp, #192]
 3243 0210 0499     		ldr	r1, [sp, #16]
 3244              	.LBE389:
 3245              	.LBE603:
 3246              	.LBB604:
 3247              	.LBB386:
  48:zita-rev1/source/reverb.h ****     } 
 3248              		.loc 2 48 18 view .LVU951
 3249 0212 E7EE876A 		vfma.f32	s13, s15, s14
 3250              	.LVL209:
  48:zita-rev1/source/reverb.h ****     } 
 3251              		.loc 2 48 18 view .LVU952
 3252              	.LBE386:
 3253              	.LBE604:
 329:zita-rev1/source/reverb.cpp **** 	x2 = _diff1 [2].process (_delay [2].read () - t);
 3254              		.loc 1 329 2 is_stmt 1 view .LVU953
 3255              	.LBB605:
 3256              	.LBI387:
 103:zita-rev1/source/reverb.h ****     {
 3257              		.loc 2 103 11 view .LVU954
ARM GAS  /var/folders/2p/02m_5p7958535cp2tpgps0400000gn/T//cc0Z3V5w.s 			page 78


 3258              	.LBB390:
 105:zita-rev1/source/reverb.h ****     }
 3259              		.loc 2 105 2 view .LVU955
 105:zita-rev1/source/reverb.h ****     }
 3260              		.loc 2 105 18 is_stmt 0 view .LVU956
 3261 0216 03EB8103 		add	r3, r3, r1, lsl #2
 3262              	.LBE390:
 3263              	.LBE605:
 3264              	.LBB606:
 3265              	.LBB395:
  44:zita-rev1/source/reverb.h **** 	x -= _c * z;
 3266              		.loc 2 44 21 view .LVU957
 3267 021a 2E99     		ldr	r1, [sp, #184]
 3268              	.LBE395:
 3269              	.LBE606:
 329:zita-rev1/source/reverb.cpp **** 	x2 = _diff1 [2].process (_delay [2].read () - t);
 3270              		.loc 1 329 26 view .LVU958
 3271 021c D3ED007A 		vldr.32	s15, [r3]
 3272              	.LBB607:
 3273              	.LBB391:
 105:zita-rev1/source/reverb.h ****     }
 3274              		.loc 2 105 18 view .LVU959
 3275 0220 1993     		str	r3, [sp, #100]
 3276              	.LVL210:
 105:zita-rev1/source/reverb.h ****     }
 3277              		.loc 2 105 18 view .LVU960
 3278              	.LBE391:
 3279              	.LBE607:
 3280              	.LBB608:
 3281              	.LBI392:
  42:zita-rev1/source/reverb.h ****     {
 3282              		.loc 2 42 11 is_stmt 1 view .LVU961
 3283              	.LBB396:
  44:zita-rev1/source/reverb.h **** 	x -= _c * z;
 3284              		.loc 2 44 2 view .LVU962
  44:zita-rev1/source/reverb.h **** 	x -= _c * z;
 3285              		.loc 2 44 21 is_stmt 0 view .LVU963
 3286 0222 0E9B     		ldr	r3, [sp, #56]
 3287              	.LBE396:
 3288              	.LBE608:
 329:zita-rev1/source/reverb.cpp **** 	x2 = _diff1 [2].process (_delay [2].read () - t);
 3289              		.loc 1 329 26 view .LVU964
 3290 0224 74EEA77A 		vadd.f32	s15, s9, s15
 3291              	.LVL211:
 3292              	.LBB609:
 3293              	.LBB397:
  44:zita-rev1/source/reverb.h **** 	x -= _c * z;
 3294              		.loc 2 44 21 view .LVU965
 3295 0228 01EB8305 		add	r5, r1, r3, lsl #2
  47:zita-rev1/source/reverb.h **** 	return z + _c * x;
 3296              		.loc 2 47 31 view .LVU966
 3297 022c 2F99     		ldr	r1, [sp, #188]
  47:zita-rev1/source/reverb.h **** 	return z + _c * x;
 3298              		.loc 2 47 13 view .LVU967
 3299 022e 0133     		adds	r3, r3, #1
  44:zita-rev1/source/reverb.h **** 	x -= _c * z;
 3300              		.loc 2 44 8 view .LVU968
ARM GAS  /var/folders/2p/02m_5p7958535cp2tpgps0400000gn/T//cc0Z3V5w.s 			page 79


 3301 0230 95ED007A 		vldr.32	s14, [r5]
 3302              	.LVL212:
  45:zita-rev1/source/reverb.h ****         _line [_i] = x;
 3303              		.loc 2 45 2 is_stmt 1 view .LVU969
  47:zita-rev1/source/reverb.h **** 	return z + _c * x;
 3304              		.loc 2 47 31 is_stmt 0 view .LVU970
 3305 0234 8B42     		cmp	r3, r1
 3306 0236 08BF     		it	eq
 3307 0238 0023     		moveq	r3, #0
 3308              	.LBE397:
 3309              	.LBE609:
 3310              	.LBB610:
 3311              	.LBB403:
 105:zita-rev1/source/reverb.h ****     }
 3312              		.loc 2 105 18 view .LVU971
 3313 023a 0299     		ldr	r1, [sp, #8]
 3314              	.LBE403:
 3315              	.LBE610:
 3316              	.LBB611:
 3317              	.LBB398:
  45:zita-rev1/source/reverb.h ****         _line [_i] = x;
 3318              		.loc 2 45 4 view .LVU972
 3319 023c E7EE467A 		vfms.f32	s15, s14, s12
 3320              	.LVL213:
  46:zita-rev1/source/reverb.h ****         if (++_i == _size) _i = 0;
 3321              		.loc 2 46 9 is_stmt 1 view .LVU973
  47:zita-rev1/source/reverb.h **** 	return z + _c * x;
 3322              		.loc 2 47 31 is_stmt 0 view .LVU974
 3323 0240 0E93     		str	r3, [sp, #56]
 3324              	.LBE398:
 3325              	.LBE611:
 3326              	.LBB612:
 3327              	.LBB404:
 105:zita-rev1/source/reverb.h ****     }
 3328              		.loc 2 105 18 view .LVU975
 3329 0242 2D9B     		ldr	r3, [sp, #180]
 3330 0244 03EB8103 		add	r3, r3, r1, lsl #2
 3331              	.LBE404:
 3332              	.LBE612:
 3333              	.LBB613:
 3334              	.LBB399:
  46:zita-rev1/source/reverb.h ****         if (++_i == _size) _i = 0;
 3335              		.loc 2 46 20 view .LVU976
 3336 0248 C5ED007A 		vstr.32	s15, [r5]
  47:zita-rev1/source/reverb.h **** 	return z + _c * x;
 3337              		.loc 2 47 9 is_stmt 1 view .LVU977
  48:zita-rev1/source/reverb.h ****     } 
 3338              		.loc 2 48 2 view .LVU978
  48:zita-rev1/source/reverb.h ****     } 
 3339              		.loc 2 48 18 is_stmt 0 view .LVU979
 3340 024c 94ED0F5A 		vldr.32	s10, [r4, #60]
 3341              	.LBE399:
 3342              	.LBE613:
 3343              	.LBB614:
 3344              	.LBB405:
 105:zita-rev1/source/reverb.h ****     }
 3345              		.loc 2 105 18 view .LVU980
ARM GAS  /var/folders/2p/02m_5p7958535cp2tpgps0400000gn/T//cc0Z3V5w.s 			page 80


 3346 0250 1893     		str	r3, [sp, #96]
 3347              	.LBE405:
 3348              	.LBE614:
 3349              	.LBB615:
 3350              	.LBB400:
  48:zita-rev1/source/reverb.h ****     } 
 3351              		.loc 2 48 18 view .LVU981
 3352 0252 A7EE857A 		vfma.f32	s14, s15, s10
 3353              	.LVL214:
  48:zita-rev1/source/reverb.h ****     } 
 3354              		.loc 2 48 18 view .LVU982
 3355              	.LBE400:
 3356              	.LBE615:
 330:zita-rev1/source/reverb.cpp **** 	x3 = _diff1 [3].process (_delay [3].read () - t);
 3357              		.loc 1 330 2 is_stmt 1 view .LVU983
 3358              	.LBB616:
 3359              	.LBI401:
 103:zita-rev1/source/reverb.h ****     {
 3360              		.loc 2 103 11 view .LVU984
 3361              	.LBB406:
 105:zita-rev1/source/reverb.h ****     }
 3362              		.loc 2 105 2 view .LVU985
 105:zita-rev1/source/reverb.h ****     }
 3363              		.loc 2 105 2 is_stmt 0 view .LVU986
 3364              	.LBE406:
 3365              	.LBE616:
 3366              	.LBB617:
 3367              	.LBI407:
  42:zita-rev1/source/reverb.h ****     {
 3368              		.loc 2 42 11 is_stmt 1 view .LVU987
 3369              	.LBB409:
  44:zita-rev1/source/reverb.h **** 	x -= _c * z;
 3370              		.loc 2 44 2 view .LVU988
 3371              	.LBE409:
 3372              	.LBE617:
 330:zita-rev1/source/reverb.cpp **** 	x3 = _diff1 [3].process (_delay [3].read () - t);
 3373              		.loc 1 330 26 is_stmt 0 view .LVU989
 3374 0256 93ED005A 		vldr.32	s10, [r3]
 3375              	.LBB618:
 3376              	.LBB410:
  44:zita-rev1/source/reverb.h **** 	x -= _c * z;
 3377              		.loc 2 44 21 view .LVU990
 3378 025a 2B9B     		ldr	r3, [sp, #172]
 3379              	.LVL215:
  44:zita-rev1/source/reverb.h **** 	x -= _c * z;
 3380              		.loc 2 44 21 view .LVU991
 3381              	.LBE410:
 3382              	.LBE618:
 330:zita-rev1/source/reverb.cpp **** 	x3 = _diff1 [3].process (_delay [3].read () - t);
 3383              		.loc 1 330 26 view .LVU992
 3384 025c 35EE645A 		vsub.f32	s10, s10, s9
 3385              	.LVL216:
 3386              	.LBB619:
 3387              	.LBB411:
  45:zita-rev1/source/reverb.h ****         _line [_i] = x;
 3388              		.loc 2 45 4 view .LVU993
 3389 0260 94ED136A 		vldr.32	s12, [r4, #76]
ARM GAS  /var/folders/2p/02m_5p7958535cp2tpgps0400000gn/T//cc0Z3V5w.s 			page 81


  44:zita-rev1/source/reverb.h **** 	x -= _c * z;
 3390              		.loc 2 44 21 view .LVU994
 3391 0264 03EB8905 		add	r5, r3, r9, lsl #2
  47:zita-rev1/source/reverb.h **** 	return z + _c * x;
 3392              		.loc 2 47 31 view .LVU995
 3393 0268 2C9B     		ldr	r3, [sp, #176]
  47:zita-rev1/source/reverb.h **** 	return z + _c * x;
 3394              		.loc 2 47 13 view .LVU996
 3395 026a 09F10109 		add	r9, r9, #1
  44:zita-rev1/source/reverb.h **** 	x -= _c * z;
 3396              		.loc 2 44 8 view .LVU997
 3397 026e D5ED007A 		vldr.32	s15, [r5]
 3398              	.LVL217:
  45:zita-rev1/source/reverb.h ****         _line [_i] = x;
 3399              		.loc 2 45 2 is_stmt 1 view .LVU998
  47:zita-rev1/source/reverb.h **** 	return z + _c * x;
 3400              		.loc 2 47 31 is_stmt 0 view .LVU999
 3401 0272 9945     		cmp	r9, r3
 3402 0274 08BF     		it	eq
 3403 0276 4FF00009 		moveq	r9, #0
 3404              	.LBE411:
 3405              	.LBE619:
 3406              	.LBB620:
 3407              	.LBB418:
 105:zita-rev1/source/reverb.h ****     }
 3408              		.loc 2 105 18 view .LVU1000
 3409 027a 2A9B     		ldr	r3, [sp, #168]
 3410              	.LBE418:
 3411              	.LBE620:
 3412              	.LBB621:
 3413              	.LBB412:
  45:zita-rev1/source/reverb.h ****         _line [_i] = x;
 3414              		.loc 2 45 4 view .LVU1001
 3415 027c A7EEC65A 		vfms.f32	s10, s15, s12
 3416              	.LVL218:
  46:zita-rev1/source/reverb.h ****         if (++_i == _size) _i = 0;
 3417              		.loc 2 46 9 is_stmt 1 view .LVU1002
 3418              	.LBE412:
 3419              	.LBE621:
 3420              	.LBB622:
 3421              	.LBB419:
 105:zita-rev1/source/reverb.h ****     }
 3422              		.loc 2 105 18 is_stmt 0 view .LVU1003
 3423 0280 03EB8803 		add	r3, r3, r8, lsl #2
 3424              	.LBE419:
 3425              	.LBE622:
 338:zita-rev1/source/reverb.cpp ****         t = x2 - x3; x2 += x3;  x3 = t;
 3426              		.loc 1 338 11 view .LVU1004
 3427 0284 76EEC73A 		vsub.f32	s7, s13, s14
 338:zita-rev1/source/reverb.cpp ****         t = x2 - x3; x2 += x3;  x3 = t;
 3428              		.loc 1 338 25 view .LVU1005
 3429 0288 37EE267A 		vadd.f32	s14, s14, s13
 3430              	.LVL219:
 3431              	.LBB623:
 3432              	.LBB420:
 105:zita-rev1/source/reverb.h ****     }
 3433              		.loc 2 105 18 view .LVU1006
ARM GAS  /var/folders/2p/02m_5p7958535cp2tpgps0400000gn/T//cc0Z3V5w.s 			page 82


 3434 028c 1793     		str	r3, [sp, #92]
 3435              	.LBE420:
 3436              	.LBE623:
 3437              	.LBB624:
 3438              	.LBB413:
  46:zita-rev1/source/reverb.h ****         if (++_i == _size) _i = 0;
 3439              		.loc 2 46 20 view .LVU1007
 3440 028e 85ED005A 		vstr.32	s10, [r5]
  47:zita-rev1/source/reverb.h **** 	return z + _c * x;
 3441              		.loc 2 47 9 is_stmt 1 view .LVU1008
  48:zita-rev1/source/reverb.h ****     } 
 3442              		.loc 2 48 2 view .LVU1009
  48:zita-rev1/source/reverb.h ****     } 
 3443              		.loc 2 48 18 is_stmt 0 view .LVU1010
 3444 0292 94ED136A 		vldr.32	s12, [r4, #76]
 3445              	.LBE413:
 3446              	.LBE624:
 3447              	.LBB625:
 3448              	.LBB424:
  45:zita-rev1/source/reverb.h ****         _line [_i] = x;
 3449              		.loc 2 45 4 view .LVU1011
 3450 0296 D4ED176A 		vldr.32	s13, [r4, #92]
 3451              	.LVL220:
  45:zita-rev1/source/reverb.h ****         _line [_i] = x;
 3452              		.loc 2 45 4 view .LVU1012
 3453              	.LBE424:
 3454              	.LBE625:
 3455              	.LBB626:
 3456              	.LBB414:
  48:zita-rev1/source/reverb.h ****     } 
 3457              		.loc 2 48 18 view .LVU1013
 3458 029a E5EE067A 		vfma.f32	s15, s10, s12
 3459              	.LVL221:
  48:zita-rev1/source/reverb.h ****     } 
 3460              		.loc 2 48 18 view .LVU1014
 3461              	.LBE414:
 3462              	.LBE626:
 331:zita-rev1/source/reverb.cpp ****  	t = 0.3f * _vdelay1.read ();
 3463              		.loc 1 331 26 view .LVU1015
 3464 029e 93ED005A 		vldr.32	s10, [r3]
 3465              	.LVL222:
 3466              	.LBB627:
 3467              	.LBB425:
  44:zita-rev1/source/reverb.h **** 	x -= _c * z;
 3468              		.loc 2 44 21 view .LVU1016
 3469 02a2 289B     		ldr	r3, [sp, #160]
 3470              	.LBE425:
 3471              	.LBE627:
 331:zita-rev1/source/reverb.cpp ****  	t = 0.3f * _vdelay1.read ();
 3472              		.loc 1 331 26 view .LVU1017
 3473 02a4 35EE645A 		vsub.f32	s10, s10, s9
 3474              	.LBB628:
 3475              	.LBB426:
  44:zita-rev1/source/reverb.h **** 	x -= _c * z;
 3476              		.loc 2 44 21 view .LVU1018
 3477 02a8 03EB8A05 		add	r5, r3, r10, lsl #2
 3478              	.LVL223:
ARM GAS  /var/folders/2p/02m_5p7958535cp2tpgps0400000gn/T//cc0Z3V5w.s 			page 83


  47:zita-rev1/source/reverb.h **** 	return z + _c * x;
 3479              		.loc 2 47 31 view .LVU1019
 3480 02ac 299B     		ldr	r3, [sp, #164]
  47:zita-rev1/source/reverb.h **** 	return z + _c * x;
 3481              		.loc 2 47 13 view .LVU1020
 3482 02ae 0AF1010A 		add	r10, r10, #1
 3483              	.LBE426:
 3484              	.LBE628:
 3485              	.LBB629:
 3486              	.LBB415:
  48:zita-rev1/source/reverb.h ****     } 
 3487              		.loc 2 48 18 view .LVU1021
 3488 02b2 B0EE674A 		vmov.f32	s8, s15
 3489              	.LVL224:
  48:zita-rev1/source/reverb.h ****     } 
 3490              		.loc 2 48 18 view .LVU1022
 3491              	.LBE415:
 3492              	.LBE629:
 331:zita-rev1/source/reverb.cpp ****  	t = 0.3f * _vdelay1.read ();
 3493              		.loc 1 331 2 is_stmt 1 view .LVU1023
 3494              	.LBB630:
 3495              	.LBI416:
 103:zita-rev1/source/reverb.h ****     {
 3496              		.loc 2 103 11 view .LVU1024
 3497              	.LBB421:
 105:zita-rev1/source/reverb.h ****     }
 3498              		.loc 2 105 2 view .LVU1025
 105:zita-rev1/source/reverb.h ****     }
 3499              		.loc 2 105 2 is_stmt 0 view .LVU1026
 3500              	.LBE421:
 3501              	.LBE630:
 3502              	.LBB631:
 3503              	.LBI422:
  42:zita-rev1/source/reverb.h ****     {
 3504              		.loc 2 42 11 is_stmt 1 view .LVU1027
 3505              	.LBB427:
  44:zita-rev1/source/reverb.h **** 	x -= _c * z;
 3506              		.loc 2 44 2 view .LVU1028
  44:zita-rev1/source/reverb.h **** 	x -= _c * z;
 3507              		.loc 2 44 8 is_stmt 0 view .LVU1029
 3508 02b6 D5ED007A 		vldr.32	s15, [r5]
 3509              	.LVL225:
  45:zita-rev1/source/reverb.h ****         _line [_i] = x;
 3510              		.loc 2 45 2 is_stmt 1 view .LVU1030
  47:zita-rev1/source/reverb.h **** 	return z + _c * x;
 3511              		.loc 2 47 31 is_stmt 0 view .LVU1031
 3512 02ba 9A45     		cmp	r10, r3
 3513 02bc 08BF     		it	eq
 3514 02be 4FF0000A 		moveq	r10, #0
 3515              	.LBE427:
 3516              	.LBE631:
 3517              	.LBB632:
 3518              	.LBB633:
 138:zita-rev1/source/reverb.h **** 	if (_ir == _size) _ir = 0;
 3519              		.loc 2 138 24 view .LVU1032
 3520 02c2 0D9B     		ldr	r3, [sp, #52]
 3521              	.LBE633:
ARM GAS  /var/folders/2p/02m_5p7958535cp2tpgps0400000gn/T//cc0Z3V5w.s 			page 84


 3522              	.LBE632:
 3523              	.LBB640:
 3524              	.LBB428:
  45:zita-rev1/source/reverb.h ****         _line [_i] = x;
 3525              		.loc 2 45 4 view .LVU1033
 3526 02c4 A7EEE65A 		vfms.f32	s10, s15, s13
 3527              	.LVL226:
  46:zita-rev1/source/reverb.h ****         if (++_i == _size) _i = 0;
 3528              		.loc 2 46 9 is_stmt 1 view .LVU1034
  46:zita-rev1/source/reverb.h ****         if (++_i == _size) _i = 0;
 3529              		.loc 2 46 20 is_stmt 0 view .LVU1035
 3530 02c8 85ED005A 		vstr.32	s10, [r5]
  47:zita-rev1/source/reverb.h **** 	return z + _c * x;
 3531              		.loc 2 47 9 is_stmt 1 view .LVU1036
  48:zita-rev1/source/reverb.h ****     } 
 3532              		.loc 2 48 2 view .LVU1037
 3533              	.LBE428:
 3534              	.LBE640:
 3535              	.LBB641:
 3536              	.LBB634:
 138:zita-rev1/source/reverb.h **** 	if (_ir == _size) _ir = 0;
 3537              		.loc 2 138 24 is_stmt 0 view .LVU1038
 3538 02cc 00EB8305 		add	r5, r0, r3, lsl #2
 3539              	.LBE634:
 3540              	.LBE641:
 3541              	.LBB642:
 3542              	.LBB429:
  48:zita-rev1/source/reverb.h ****     } 
 3543              		.loc 2 48 18 view .LVU1039
 3544 02d0 D4ED176A 		vldr.32	s13, [r4, #92]
 3545              	.LBE429:
 3546              	.LBE642:
 3547              	.LBB643:
 3548              	.LBB437:
  45:zita-rev1/source/reverb.h ****         _line [_i] = x;
 3549              		.loc 2 45 4 view .LVU1040
 3550 02d4 94ED1B3A 		vldr.32	s6, [r4, #108]
 3551              	.LBE437:
 3552              	.LBE643:
 3553              	.LBB644:
 3554              	.LBB430:
  48:zita-rev1/source/reverb.h ****     } 
 3555              		.loc 2 48 18 view .LVU1041
 3556 02d8 E5EE267A 		vfma.f32	s15, s10, s13
 3557              	.LVL227:
  48:zita-rev1/source/reverb.h ****     } 
 3558              		.loc 2 48 18 view .LVU1042
 3559              	.LBE430:
 3560              	.LBE644:
 332:zita-rev1/source/reverb.cpp **** 	x4 = _diff1 [4].process (_delay [4].read () + t);
 3561              		.loc 1 332 3 is_stmt 1 view .LVU1043
 3562              	.LBB645:
 3563              	.LBI632:
 136:zita-rev1/source/reverb.h ****     {
 3564              		.loc 2 136 11 view .LVU1044
 3565              	.LBB635:
 138:zita-rev1/source/reverb.h **** 	if (_ir == _size) _ir = 0;
ARM GAS  /var/folders/2p/02m_5p7958535cp2tpgps0400000gn/T//cc0Z3V5w.s 			page 85


 3566              		.loc 2 138 2 view .LVU1045
 3567              	.LBE635:
 3568              	.LBE645:
 339:zita-rev1/source/reverb.cpp ****         t = x4 - x5; x4 += x5;  x5 = t;
 3569              		.loc 1 339 11 is_stmt 0 view .LVU1046
 3570 02dc 34EE676A 		vsub.f32	s12, s8, s15
 339:zita-rev1/source/reverb.cpp ****         t = x4 - x5; x4 += x5;  x5 = t;
 3571              		.loc 1 339 25 view .LVU1047
 3572 02e0 77EE847A 		vadd.f32	s15, s15, s8
 3573              	.LVL228:
 343:zita-rev1/source/reverb.cpp ****         t = x4 - x6; x4 += x6;  x6 = t;
 3574              		.loc 1 343 11 view .LVU1048
 3575 02e4 73EEC62A 		vsub.f32	s5, s7, s12
 343:zita-rev1/source/reverb.cpp ****         t = x4 - x6; x4 += x6;  x6 = t;
 3576              		.loc 1 343 25 view .LVU1049
 3577 02e8 73EE864A 		vadd.f32	s9, s7, s12
 3578              	.LVL229:
 3579              	.LBB646:
 3580              	.LBB636:
 138:zita-rev1/source/reverb.h **** 	if (_ir == _size) _ir = 0;
 3581              		.loc 2 138 24 view .LVU1050
 3582 02ec 95ED006A 		vldr.32	s12, [r5]
 138:zita-rev1/source/reverb.h **** 	if (_ir == _size) _ir = 0;
 3583              		.loc 2 138 22 view .LVU1051
 3584 02f0 5D1C     		adds	r5, r3, #1
 3585              	.LBE636:
 3586              	.LBE646:
 342:zita-rev1/source/reverb.cpp ****         t = x1 - x3; x1 += x3;  x3 = t;
 3587              		.loc 1 342 25 view .LVU1052
 3588 02f2 77EE276A 		vadd.f32	s13, s14, s15
 332:zita-rev1/source/reverb.cpp **** 	x4 = _diff1 [4].process (_delay [4].read () + t);
 3589              		.loc 1 332 5 view .LVU1053
 3590 02f6 66EE255A 		vmul.f32	s11, s12, s11
 3591              	.LBB647:
 3592              	.LBB637:
 139:zita-rev1/source/reverb.h **** 	return x;
 3593              		.loc 2 139 2 view .LVU1054
 3594 02fa 2B46     		mov	r3, r5
 3595              	.LBE637:
 3596              	.LBE647:
 342:zita-rev1/source/reverb.cpp ****         t = x1 - x3; x1 += x3;  x3 = t;
 3597              		.loc 1 342 11 view .LVU1055
 3598 02fc 37EE674A 		vsub.f32	s8, s14, s15
 3599              	.LVL230:
 3600              	.LBB648:
 3601              	.LBB638:
 139:zita-rev1/source/reverb.h **** 	return x;
 3602              		.loc 2 139 2 is_stmt 1 view .LVU1056
 3603 0300 9542     		cmp	r5, r2
 3604 0302 08BF     		it	eq
 3605 0304 0023     		moveq	r3, #0
 3606              	.LBE638:
 3607              	.LBE648:
 3608              	.LBB649:
 3609              	.LBB438:
  44:zita-rev1/source/reverb.h **** 	x -= _c * z;
 3610              		.loc 2 44 21 is_stmt 0 view .LVU1057
ARM GAS  /var/folders/2p/02m_5p7958535cp2tpgps0400000gn/T//cc0Z3V5w.s 			page 86


 3611 0306 019A     		ldr	r2, [sp, #4]
 3612              	.LBE438:
 3613              	.LBE649:
 3614              	.LBB650:
 3615              	.LBB639:
 139:zita-rev1/source/reverb.h **** 	return x;
 3616              		.loc 2 139 2 view .LVU1058
 3617 0308 0D93     		str	r3, [sp, #52]
 140:zita-rev1/source/reverb.h ****     }
 3618              		.loc 2 140 2 is_stmt 1 view .LVU1059
 3619              	.LVL231:
 140:zita-rev1/source/reverb.h ****     }
 3620              		.loc 2 140 2 is_stmt 0 view .LVU1060
 3621              	.LBE639:
 3622              	.LBE650:
 333:zita-rev1/source/reverb.cpp **** 	x5 = _diff1 [5].process (_delay [5].read () + t);
 3623              		.loc 1 333 2 is_stmt 1 view .LVU1061
 3624              	.LBB651:
 3625              	.LBI431:
 103:zita-rev1/source/reverb.h ****     {
 3626              		.loc 2 103 11 view .LVU1062
 3627              	.LBB433:
 105:zita-rev1/source/reverb.h ****     }
 3628              		.loc 2 105 2 view .LVU1063
 105:zita-rev1/source/reverb.h ****     }
 3629              		.loc 2 105 18 is_stmt 0 view .LVU1064
 3630 030a 279B     		ldr	r3, [sp, #156]
 3631 030c 03EB8E03 		add	r3, r3, lr, lsl #2
 3632              	.LBE433:
 3633              	.LBE651:
 333:zita-rev1/source/reverb.cpp **** 	x5 = _diff1 [5].process (_delay [5].read () + t);
 3634              		.loc 1 333 26 view .LVU1065
 3635 0310 93ED006A 		vldr.32	s12, [r3]
 3636              	.LBB652:
 3637              	.LBB434:
 105:zita-rev1/source/reverb.h ****     }
 3638              		.loc 2 105 18 view .LVU1066
 3639 0314 1693     		str	r3, [sp, #88]
 3640              	.LVL232:
 105:zita-rev1/source/reverb.h ****     }
 3641              		.loc 2 105 18 view .LVU1067
 3642              	.LBE434:
 3643              	.LBE652:
 3644              	.LBB653:
 3645              	.LBI435:
  42:zita-rev1/source/reverb.h ****     {
 3646              		.loc 2 42 11 is_stmt 1 view .LVU1068
 3647              	.LBB439:
  44:zita-rev1/source/reverb.h **** 	x -= _c * z;
 3648              		.loc 2 44 2 view .LVU1069
  44:zita-rev1/source/reverb.h **** 	x -= _c * z;
 3649              		.loc 2 44 21 is_stmt 0 view .LVU1070
 3650 0316 259B     		ldr	r3, [sp, #148]
 3651              	.LBE439:
 3652              	.LBE653:
 333:zita-rev1/source/reverb.cpp **** 	x5 = _diff1 [5].process (_delay [5].read () + t);
 3653              		.loc 1 333 26 view .LVU1071
ARM GAS  /var/folders/2p/02m_5p7958535cp2tpgps0400000gn/T//cc0Z3V5w.s 			page 87


 3654 0318 35EE866A 		vadd.f32	s12, s11, s12
 3655              	.LVL233:
 3656              	.LBB654:
 3657              	.LBB440:
  44:zita-rev1/source/reverb.h **** 	x -= _c * z;
 3658              		.loc 2 44 21 view .LVU1072
 3659 031c 03EB8205 		add	r5, r3, r2, lsl #2
  47:zita-rev1/source/reverb.h **** 	return z + _c * x;
 3660              		.loc 2 47 13 view .LVU1073
 3661 0320 1346     		mov	r3, r2
 3662 0322 0133     		adds	r3, r3, #1
  44:zita-rev1/source/reverb.h **** 	x -= _c * z;
 3663              		.loc 2 44 8 view .LVU1074
 3664 0324 D5ED007A 		vldr.32	s15, [r5]
 3665              	.LVL234:
  45:zita-rev1/source/reverb.h ****         _line [_i] = x;
 3666              		.loc 2 45 2 is_stmt 1 view .LVU1075
  47:zita-rev1/source/reverb.h **** 	return z + _c * x;
 3667              		.loc 2 47 13 is_stmt 0 view .LVU1076
 3668 0328 0193     		str	r3, [sp, #4]
  45:zita-rev1/source/reverb.h ****         _line [_i] = x;
 3669              		.loc 2 45 4 view .LVU1077
 3670 032a A7EEC36A 		vfms.f32	s12, s15, s6
 3671              	.LVL235:
  46:zita-rev1/source/reverb.h ****         if (++_i == _size) _i = 0;
 3672              		.loc 2 46 9 is_stmt 1 view .LVU1078
  47:zita-rev1/source/reverb.h **** 	return z + _c * x;
 3673              		.loc 2 47 31 is_stmt 0 view .LVU1079
 3674 032e 269B     		ldr	r3, [sp, #152]
 3675 0330 019A     		ldr	r2, [sp, #4]
 3676 0332 9A42     		cmp	r2, r3
 3677 0334 08BF     		it	eq
 3678 0336 0022     		moveq	r2, #0
 3679              	.LBE440:
 3680              	.LBE654:
 3681              	.LBB655:
 3682              	.LBB469:
  44:zita-rev1/source/reverb.h **** 	x -= _c * z;
 3683              		.loc 2 44 21 view .LVU1080
 3684 0338 229B     		ldr	r3, [sp, #136]
 3685              	.LBE469:
 3686              	.LBE655:
 3687              	.LBB656:
 3688              	.LBB441:
  47:zita-rev1/source/reverb.h **** 	return z + _c * x;
 3689              		.loc 2 47 31 view .LVU1081
 3690 033a 0192     		str	r2, [sp, #4]
 3691              	.LBE441:
 3692              	.LBE656:
 3693              	.LBB657:
 3694              	.LBB470:
  44:zita-rev1/source/reverb.h **** 	x -= _c * z;
 3695              		.loc 2 44 21 view .LVU1082
 3696 033c 129A     		ldr	r2, [sp, #72]
 3697              	.LBE470:
 3698              	.LBE657:
 3699              	.LBB658:
ARM GAS  /var/folders/2p/02m_5p7958535cp2tpgps0400000gn/T//cc0Z3V5w.s 			page 88


 3700              	.LBB442:
  46:zita-rev1/source/reverb.h ****         if (++_i == _size) _i = 0;
 3701              		.loc 2 46 20 view .LVU1083
 3702 033e 85ED006A 		vstr.32	s12, [r5]
  47:zita-rev1/source/reverb.h **** 	return z + _c * x;
 3703              		.loc 2 47 9 is_stmt 1 view .LVU1084
  48:zita-rev1/source/reverb.h ****     } 
 3704              		.loc 2 48 2 view .LVU1085
 3705              	.LBE442:
 3706              	.LBE658:
 3707              	.LBB659:
 3708              	.LBB471:
  44:zita-rev1/source/reverb.h **** 	x -= _c * z;
 3709              		.loc 2 44 21 is_stmt 0 view .LVU1086
 3710 0342 03EB8205 		add	r5, r3, r2, lsl #2
  47:zita-rev1/source/reverb.h **** 	return z + _c * x;
 3711              		.loc 2 47 31 view .LVU1087
 3712 0346 239B     		ldr	r3, [sp, #140]
  47:zita-rev1/source/reverb.h **** 	return z + _c * x;
 3713              		.loc 2 47 13 view .LVU1088
 3714 0348 0132     		adds	r2, r2, #1
 3715              	.LBE471:
 3716              	.LBE659:
 3717              	.LBB660:
 3718              	.LBB443:
  48:zita-rev1/source/reverb.h ****     } 
 3719              		.loc 2 48 18 view .LVU1089
 3720 034a 94ED1B7A 		vldr.32	s14, [r4, #108]
 3721              	.LBE443:
 3722              	.LBE660:
 3723              	.LBB661:
 3724              	.LBB472:
  45:zita-rev1/source/reverb.h ****         _line [_i] = x;
 3725              		.loc 2 45 4 view .LVU1090
 3726 034e 94ED1F5A 		vldr.32	s10, [r4, #124]
  47:zita-rev1/source/reverb.h **** 	return z + _c * x;
 3727              		.loc 2 47 31 view .LVU1091
 3728 0352 9A42     		cmp	r2, r3
 3729 0354 08BF     		it	eq
 3730 0356 0022     		moveq	r2, #0
 3731              	.LBE472:
 3732              	.LBE661:
 3733              	.LBB662:
 3734              	.LBB459:
 105:zita-rev1/source/reverb.h ****     }
 3735              		.loc 2 105 18 view .LVU1092
 3736 0358 249B     		ldr	r3, [sp, #144]
 3737              	.LBE459:
 3738              	.LBE662:
 3739              	.LBB663:
 3740              	.LBB444:
  48:zita-rev1/source/reverb.h ****     } 
 3741              		.loc 2 48 18 view .LVU1093
 3742 035a E6EE077A 		vfma.f32	s15, s12, s14
 3743              	.LVL236:
  48:zita-rev1/source/reverb.h ****     } 
 3744              		.loc 2 48 18 view .LVU1094
ARM GAS  /var/folders/2p/02m_5p7958535cp2tpgps0400000gn/T//cc0Z3V5w.s 			page 89


 3745              	.LBE444:
 3746              	.LBE663:
 334:zita-rev1/source/reverb.cpp **** 	x6 = _diff1 [6].process (_delay [6].read () - t);
 3747              		.loc 1 334 2 is_stmt 1 view .LVU1095
 3748              	.LBB664:
 3749              	.LBI456:
 103:zita-rev1/source/reverb.h ****     {
 3750              		.loc 2 103 11 view .LVU1096
 3751              	.LBB460:
 105:zita-rev1/source/reverb.h ****     }
 3752              		.loc 2 105 2 view .LVU1097
 3753              	.LBE460:
 3754              	.LBE664:
 3755              	.LBB665:
 3756              	.LBB473:
  44:zita-rev1/source/reverb.h **** 	x -= _c * z;
 3757              		.loc 2 44 8 is_stmt 0 view .LVU1098
 3758 035e 95ED007A 		vldr.32	s14, [r5]
 3759              	.LBE473:
 3760              	.LBE665:
 3761              	.LBB666:
 3762              	.LBB461:
 105:zita-rev1/source/reverb.h ****     }
 3763              		.loc 2 105 18 view .LVU1099
 3764 0362 03EB8C03 		add	r3, r3, ip, lsl #2
 3765              	.LBE461:
 3766              	.LBE666:
 3767              	.LBB667:
 3768              	.LBB474:
  47:zita-rev1/source/reverb.h **** 	return z + _c * x;
 3769              		.loc 2 47 31 view .LVU1100
 3770 0366 1292     		str	r2, [sp, #72]
 3771              	.LBE474:
 3772              	.LBE667:
 3773              	.LBB668:
 3774              	.LBB499:
  44:zita-rev1/source/reverb.h **** 	x -= _c * z;
 3775              		.loc 2 44 21 view .LVU1101
 3776 0368 119A     		ldr	r2, [sp, #68]
 3777              	.LBE499:
 3778              	.LBE668:
 334:zita-rev1/source/reverb.cpp **** 	x6 = _diff1 [6].process (_delay [6].read () - t);
 3779              		.loc 1 334 26 view .LVU1102
 3780 036a 93ED006A 		vldr.32	s12, [r3]
 3781              	.LBB669:
 3782              	.LBB462:
 105:zita-rev1/source/reverb.h ****     }
 3783              		.loc 2 105 18 view .LVU1103
 3784 036e 1593     		str	r3, [sp, #84]
 3785              	.LVL237:
 105:zita-rev1/source/reverb.h ****     }
 3786              		.loc 2 105 18 view .LVU1104
 3787              	.LBE462:
 3788              	.LBE669:
 3789              	.LBB670:
 3790              	.LBI465:
  42:zita-rev1/source/reverb.h ****     {
ARM GAS  /var/folders/2p/02m_5p7958535cp2tpgps0400000gn/T//cc0Z3V5w.s 			page 90


 3791              		.loc 2 42 11 is_stmt 1 view .LVU1105
 3792              	.LBB475:
  44:zita-rev1/source/reverb.h **** 	x -= _c * z;
 3793              		.loc 2 44 2 view .LVU1106
  45:zita-rev1/source/reverb.h ****         _line [_i] = x;
 3794              		.loc 2 45 2 view .LVU1107
 3795              	.LBE475:
 3796              	.LBE670:
 334:zita-rev1/source/reverb.cpp **** 	x6 = _diff1 [6].process (_delay [6].read () - t);
 3797              		.loc 1 334 26 is_stmt 0 view .LVU1108
 3798 0370 35EE866A 		vadd.f32	s12, s11, s12
 3799              	.LVL238:
 3800              	.LBB671:
 3801              	.LBB484:
 105:zita-rev1/source/reverb.h ****     }
 3802              		.loc 2 105 18 view .LVU1109
 3803 0374 219B     		ldr	r3, [sp, #132]
 3804 0376 03EB8706 		add	r6, r3, r7, lsl #2
 3805              	.LBE484:
 3806              	.LBE671:
 3807              	.LBB672:
 3808              	.LBB500:
  44:zita-rev1/source/reverb.h **** 	x -= _c * z;
 3809              		.loc 2 44 21 view .LVU1110
 3810 037a 1F9B     		ldr	r3, [sp, #124]
 3811              	.LBE500:
 3812              	.LBE672:
 3813              	.LBB673:
 3814              	.LBB476:
  45:zita-rev1/source/reverb.h ****         _line [_i] = x;
 3815              		.loc 2 45 4 view .LVU1111
 3816 037c A7EE456A 		vfms.f32	s12, s14, s10
 3817              	.LVL239:
  46:zita-rev1/source/reverb.h ****         if (++_i == _size) _i = 0;
 3818              		.loc 2 46 9 is_stmt 1 view .LVU1112
  46:zita-rev1/source/reverb.h ****         if (++_i == _size) _i = 0;
 3819              		.loc 2 46 20 is_stmt 0 view .LVU1113
 3820 0380 85ED006A 		vstr.32	s12, [r5]
  47:zita-rev1/source/reverb.h **** 	return z + _c * x;
 3821              		.loc 2 47 9 is_stmt 1 view .LVU1114
  48:zita-rev1/source/reverb.h ****     } 
 3822              		.loc 2 48 2 view .LVU1115
 3823              	.LBE476:
 3824              	.LBE673:
 3825              	.LBB674:
 3826              	.LBB501:
  44:zita-rev1/source/reverb.h **** 	x -= _c * z;
 3827              		.loc 2 44 21 is_stmt 0 view .LVU1116
 3828 0384 03EB8205 		add	r5, r3, r2, lsl #2
 3829              	.LBE501:
 3830              	.LBE674:
 3831              	.LBB675:
 3832              	.LBB477:
  48:zita-rev1/source/reverb.h ****     } 
 3833              		.loc 2 48 18 view .LVU1117
 3834 0388 94ED1F5A 		vldr.32	s10, [r4, #124]
 3835              	.LBE477:
ARM GAS  /var/folders/2p/02m_5p7958535cp2tpgps0400000gn/T//cc0Z3V5w.s 			page 91


 3836              	.LBE675:
 3837              	.LBB676:
 3838              	.LBB502:
  47:zita-rev1/source/reverb.h **** 	return z + _c * x;
 3839              		.loc 2 47 13 view .LVU1118
 3840 038c 0132     		adds	r2, r2, #1
  45:zita-rev1/source/reverb.h ****         _line [_i] = x;
 3841              		.loc 2 45 4 view .LVU1119
 3842 038e D4ED233A 		vldr.32	s7, [r4, #140]
 3843              	.LBE502:
 3844              	.LBE676:
 3845              	.LBB677:
 3846              	.LBB478:
  48:zita-rev1/source/reverb.h ****     } 
 3847              		.loc 2 48 18 view .LVU1120
 3848 0392 A6EE057A 		vfma.f32	s14, s12, s10
 3849              	.LVL240:
  48:zita-rev1/source/reverb.h ****     } 
 3850              		.loc 2 48 18 view .LVU1121
 3851              	.LBE478:
 3852              	.LBE677:
 335:zita-rev1/source/reverb.cpp **** 	x7 = _diff1 [7].process (_delay [7].read () - t);
 3853              		.loc 1 335 2 is_stmt 1 view .LVU1122
 3854              	.LBB678:
 3855              	.LBI481:
 103:zita-rev1/source/reverb.h ****     {
 3856              		.loc 2 103 11 view .LVU1123
 3857              	.LBB485:
 105:zita-rev1/source/reverb.h ****     }
 3858              		.loc 2 105 2 view .LVU1124
 105:zita-rev1/source/reverb.h ****     }
 3859              		.loc 2 105 2 is_stmt 0 view .LVU1125
 3860              	.LBE485:
 3861              	.LBE678:
 3862              	.LBB679:
 3863              	.LBI495:
  42:zita-rev1/source/reverb.h ****     {
 3864              		.loc 2 42 11 is_stmt 1 view .LVU1126
 3865              	.LBB503:
  44:zita-rev1/source/reverb.h **** 	x -= _c * z;
 3866              		.loc 2 44 2 view .LVU1127
 3867              	.LBE503:
 3868              	.LBE679:
 335:zita-rev1/source/reverb.cpp **** 	x7 = _diff1 [7].process (_delay [7].read () - t);
 3869              		.loc 1 335 26 is_stmt 0 view .LVU1128
 3870 0396 96ED006A 		vldr.32	s12, [r6]
 3871              	.LBB680:
 3872              	.LBB504:
  47:zita-rev1/source/reverb.h **** 	return z + _c * x;
 3873              		.loc 2 47 31 view .LVU1129
 3874 039a 209B     		ldr	r3, [sp, #128]
 3875              	.LBE504:
 3876              	.LBE680:
 335:zita-rev1/source/reverb.cpp **** 	x7 = _diff1 [7].process (_delay [7].read () - t);
 3877              		.loc 1 335 26 view .LVU1130
 3878 039c 36EE656A 		vsub.f32	s12, s12, s11
 3879              	.LVL241:
ARM GAS  /var/folders/2p/02m_5p7958535cp2tpgps0400000gn/T//cc0Z3V5w.s 			page 92


 3880              	.LBB681:
 3881              	.LBB505:
  47:zita-rev1/source/reverb.h **** 	return z + _c * x;
 3882              		.loc 2 47 31 view .LVU1131
 3883 03a0 9A42     		cmp	r2, r3
 3884 03a2 08BF     		it	eq
 3885 03a4 0022     		moveq	r2, #0
 3886              	.LBE505:
 3887              	.LBE681:
 340:zita-rev1/source/reverb.cpp ****         t = x6 - x7; x6 += x7;  x7 = t;
 3888              		.loc 1 340 11 view .LVU1132
 3889 03a6 37EEC75A 		vsub.f32	s10, s15, s14
 340:zita-rev1/source/reverb.cpp ****         t = x6 - x7; x6 += x7;  x7 = t;
 3890              		.loc 1 340 25 view .LVU1133
 3891 03aa 77EE277A 		vadd.f32	s15, s14, s15
 3892              	.LVL242:
 3893              	.LBB682:
 3894              	.LBB506:
  44:zita-rev1/source/reverb.h **** 	x -= _c * z;
 3895              		.loc 2 44 8 view .LVU1134
 3896 03ae 95ED007A 		vldr.32	s14, [r5]
 3897              	.LVL243:
  45:zita-rev1/source/reverb.h ****         _line [_i] = x;
 3898              		.loc 2 45 2 is_stmt 1 view .LVU1135
  47:zita-rev1/source/reverb.h **** 	return z + _c * x;
 3899              		.loc 2 47 31 is_stmt 0 view .LVU1136
 3900 03b2 1192     		str	r2, [sp, #68]
  45:zita-rev1/source/reverb.h ****         _line [_i] = x;
 3901              		.loc 2 45 4 view .LVU1137
 3902 03b4 A7EE636A 		vfms.f32	s12, s14, s7
 3903              	.LVL244:
  46:zita-rev1/source/reverb.h ****         if (++_i == _size) _i = 0;
 3904              		.loc 2 46 9 is_stmt 1 view .LVU1138
 3905              	.LBE506:
 3906              	.LBE682:
 3907              	.LBB683:
 3908              	.LBB527:
 105:zita-rev1/source/reverb.h ****     }
 3909              		.loc 2 105 18 is_stmt 0 view .LVU1139
 3910 03b8 1E9B     		ldr	r3, [sp, #120]
 3911 03ba 039A     		ldr	r2, [sp, #12]
 3912 03bc 03EB8201 		add	r1, r3, r2, lsl #2
 3913              	.LBE527:
 3914              	.LBE683:
 3915              	.LBB684:
 3916              	.LBB449:
  44:zita-rev1/source/reverb.h **** 	x -= _c * z;
 3917              		.loc 2 44 21 view .LVU1140
 3918 03c0 109A     		ldr	r2, [sp, #64]
 3919 03c2 1C9B     		ldr	r3, [sp, #112]
 3920              	.LBE449:
 3921              	.LBE684:
 3922              	.LBB685:
 3923              	.LBB507:
  46:zita-rev1/source/reverb.h ****         if (++_i == _size) _i = 0;
 3924              		.loc 2 46 20 view .LVU1141
 3925 03c4 85ED006A 		vstr.32	s12, [r5]
ARM GAS  /var/folders/2p/02m_5p7958535cp2tpgps0400000gn/T//cc0Z3V5w.s 			page 93


  47:zita-rev1/source/reverb.h **** 	return z + _c * x;
 3926              		.loc 2 47 9 is_stmt 1 view .LVU1142
  48:zita-rev1/source/reverb.h ****     } 
 3927              		.loc 2 48 2 view .LVU1143
 3928              	.LBE507:
 3929              	.LBE685:
 3930              	.LBB686:
 3931              	.LBB450:
  44:zita-rev1/source/reverb.h **** 	x -= _c * z;
 3932              		.loc 2 44 21 is_stmt 0 view .LVU1144
 3933 03c8 03EB8203 		add	r3, r3, r2, lsl #2
 3934              	.LBE450:
 3935              	.LBE686:
 3936              	.LBB687:
 3937              	.LBB508:
  48:zita-rev1/source/reverb.h ****     } 
 3938              		.loc 2 48 18 view .LVU1145
 3939 03cc 94ED232A 		vldr.32	s4, [r4, #140]
 3940              	.LBE508:
 3941              	.LBE687:
 3942              	.LBB688:
 3943              	.LBB451:
  47:zita-rev1/source/reverb.h **** 	return z + _c * x;
 3944              		.loc 2 47 13 view .LVU1146
 3945 03d0 0132     		adds	r2, r2, #1
  45:zita-rev1/source/reverb.h ****         _line [_i] = x;
 3946              		.loc 2 45 4 view .LVU1147
 3947 03d2 94ED273A 		vldr.32	s6, [r4, #156]
 3948              	.LBE451:
 3949              	.LBE688:
 3950              	.LBB689:
 3951              	.LBB509:
  48:zita-rev1/source/reverb.h ****     } 
 3952              		.loc 2 48 18 view .LVU1148
 3953 03d6 A6EE027A 		vfma.f32	s14, s12, s4
 3954              	.LVL245:
  48:zita-rev1/source/reverb.h ****     } 
 3955              		.loc 2 48 18 view .LVU1149
 3956              	.LBE509:
 3957              	.LBE689:
 336:zita-rev1/source/reverb.cpp **** 
 3958              		.loc 1 336 26 view .LVU1150
 3959 03da 91ED006A 		vldr.32	s12, [r1]
 3960              	.LVL246:
 3961              	.LBB690:
 3962              	.LBB452:
  47:zita-rev1/source/reverb.h **** 	return z + _c * x;
 3963              		.loc 2 47 13 view .LVU1151
 3964 03de 1046     		mov	r0, r2
  47:zita-rev1/source/reverb.h **** 	return z + _c * x;
 3965              		.loc 2 47 31 view .LVU1152
 3966 03e0 1D9A     		ldr	r2, [sp, #116]
 3967              	.LBE452:
 3968              	.LBE690:
 336:zita-rev1/source/reverb.cpp **** 
 3969              		.loc 1 336 26 view .LVU1153
 3970 03e2 36EE656A 		vsub.f32	s12, s12, s11
ARM GAS  /var/folders/2p/02m_5p7958535cp2tpgps0400000gn/T//cc0Z3V5w.s 			page 94


 3971              	.LBB691:
 3972              	.LBB453:
  47:zita-rev1/source/reverb.h **** 	return z + _c * x;
 3973              		.loc 2 47 31 view .LVU1154
 3974 03e6 0546     		mov	r5, r0
 3975              	.LVL247:
  47:zita-rev1/source/reverb.h **** 	return z + _c * x;
 3976              		.loc 2 47 31 view .LVU1155
 3977 03e8 9042     		cmp	r0, r2
 3978 03ea 08BF     		it	eq
 3979 03ec 0025     		moveq	r5, #0
 3980              	.LBE453:
 3981              	.LBE691:
 3982              	.LBB692:
 3983              	.LBB510:
  48:zita-rev1/source/reverb.h ****     } 
 3984              		.loc 2 48 18 view .LVU1156
 3985 03ee F0EE473A 		vmov.f32	s7, s14
 3986              	.LVL248:
  48:zita-rev1/source/reverb.h ****     } 
 3987              		.loc 2 48 18 view .LVU1157
 3988              	.LBE510:
 3989              	.LBE692:
 336:zita-rev1/source/reverb.cpp **** 
 3990              		.loc 1 336 2 is_stmt 1 view .LVU1158
 3991              	.LBB693:
 3992              	.LBI525:
 103:zita-rev1/source/reverb.h ****     {
 3993              		.loc 2 103 11 view .LVU1159
 3994              	.LBB528:
 105:zita-rev1/source/reverb.h ****     }
 3995              		.loc 2 105 2 view .LVU1160
 105:zita-rev1/source/reverb.h ****     }
 3996              		.loc 2 105 2 is_stmt 0 view .LVU1161
 3997              	.LBE528:
 3998              	.LBE693:
 3999              	.LBB694:
 4000              	.LBI445:
  42:zita-rev1/source/reverb.h ****     {
 4001              		.loc 2 42 11 is_stmt 1 view .LVU1162
 4002              	.LBB454:
  44:zita-rev1/source/reverb.h **** 	x -= _c * z;
 4003              		.loc 2 44 2 view .LVU1163
  44:zita-rev1/source/reverb.h **** 	x -= _c * z;
 4004              		.loc 2 44 8 is_stmt 0 view .LVU1164
 4005 03f2 93ED007A 		vldr.32	s14, [r3]
 4006              	.LVL249:
  45:zita-rev1/source/reverb.h ****         _line [_i] = x;
 4007              		.loc 2 45 2 is_stmt 1 view .LVU1165
  47:zita-rev1/source/reverb.h **** 	return z + _c * x;
 4008              		.loc 2 47 31 is_stmt 0 view .LVU1166
 4009 03f6 1095     		str	r5, [sp, #64]
  45:zita-rev1/source/reverb.h ****         _line [_i] = x;
 4010              		.loc 2 45 4 view .LVU1167
 4011 03f8 A3EE476A 		vfms.f32	s12, s6, s14
 4012              	.LVL250:
  46:zita-rev1/source/reverb.h ****         if (++_i == _size) _i = 0;
ARM GAS  /var/folders/2p/02m_5p7958535cp2tpgps0400000gn/T//cc0Z3V5w.s 			page 95


 4013              		.loc 2 46 9 is_stmt 1 view .LVU1168
  46:zita-rev1/source/reverb.h ****         if (++_i == _size) _i = 0;
 4014              		.loc 2 46 20 is_stmt 0 view .LVU1169
 4015 03fc 83ED006A 		vstr.32	s12, [r3]
  47:zita-rev1/source/reverb.h **** 	return z + _c * x;
 4016              		.loc 2 47 9 is_stmt 1 view .LVU1170
  48:zita-rev1/source/reverb.h ****     } 
 4017              		.loc 2 48 2 view .LVU1171
  48:zita-rev1/source/reverb.h ****     } 
 4018              		.loc 2 48 18 is_stmt 0 view .LVU1172
 4019 0400 D4ED275A 		vldr.32	s11, [r4, #156]
 4020              	.LVL251:
  48:zita-rev1/source/reverb.h ****     } 
 4021              		.loc 2 48 18 view .LVU1173
 4022              	.LBE454:
 4023              	.LBE694:
 4024              		.loc 1 351 2 view .LVU1174
 4025 0404 1B9B     		ldr	r3, [sp, #108]
 4026              	.LBB695:
 4027              	.LBB455:
  48:zita-rev1/source/reverb.h ****     } 
 4028              		.loc 2 48 18 view .LVU1175
 4029 0406 A6EE257A 		vfma.f32	s14, s12, s11
 4030              	.LVL252:
  48:zita-rev1/source/reverb.h ****     } 
 4031              		.loc 2 48 18 view .LVU1176
 4032              	.LBE455:
 4033              	.LBE695:
 338:zita-rev1/source/reverb.cpp ****         t = x2 - x3; x2 += x3;  x3 = t;
 4034              		.loc 1 338 9 is_stmt 1 view .LVU1177
 338:zita-rev1/source/reverb.cpp ****         t = x2 - x3; x2 += x3;  x3 = t;
 4035              		.loc 1 338 22 view .LVU1178
 338:zita-rev1/source/reverb.cpp ****         t = x2 - x3; x2 += x3;  x3 = t;
 4036              		.loc 1 338 33 view .LVU1179
 339:zita-rev1/source/reverb.cpp ****         t = x4 - x5; x4 += x5;  x5 = t;
 4037              		.loc 1 339 9 view .LVU1180
 339:zita-rev1/source/reverb.cpp ****         t = x4 - x5; x4 += x5;  x5 = t;
 4038              		.loc 1 339 22 view .LVU1181
 339:zita-rev1/source/reverb.cpp ****         t = x4 - x5; x4 += x5;  x5 = t;
 4039              		.loc 1 339 33 view .LVU1182
 340:zita-rev1/source/reverb.cpp ****         t = x6 - x7; x6 += x7;  x7 = t;
 4040              		.loc 1 340 9 view .LVU1183
 340:zita-rev1/source/reverb.cpp ****         t = x6 - x7; x6 += x7;  x7 = t;
 4041              		.loc 1 340 22 view .LVU1184
 340:zita-rev1/source/reverb.cpp ****         t = x6 - x7; x6 += x7;  x7 = t;
 4042              		.loc 1 340 33 view .LVU1185
 341:zita-rev1/source/reverb.cpp ****         t = x0 - x2; x0 += x2;  x2 = t;
 4043              		.loc 1 341 9 view .LVU1186
 341:zita-rev1/source/reverb.cpp ****         t = x0 - x2; x0 += x2;  x2 = t;
 4044              		.loc 1 341 11 is_stmt 0 view .LVU1187
 4045 040a 33EEC73A 		vsub.f32	s6, s7, s14
 4046              	.LVL253:
 341:zita-rev1/source/reverb.cpp ****         t = x0 - x2; x0 += x2;  x2 = t;
 4047              		.loc 1 341 22 is_stmt 1 view .LVU1188
 341:zita-rev1/source/reverb.cpp ****         t = x0 - x2; x0 += x2;  x2 = t;
 4048              		.loc 1 341 25 is_stmt 0 view .LVU1189
 4049 040e 37EE237A 		vadd.f32	s14, s14, s7
ARM GAS  /var/folders/2p/02m_5p7958535cp2tpgps0400000gn/T//cc0Z3V5w.s 			page 96


 4050              	.LVL254:
 341:zita-rev1/source/reverb.cpp ****         t = x0 - x2; x0 += x2;  x2 = t;
 4051              		.loc 1 341 33 is_stmt 1 view .LVU1190
 342:zita-rev1/source/reverb.cpp ****         t = x1 - x3; x1 += x3;  x3 = t;
 4052              		.loc 1 342 9 view .LVU1191
 342:zita-rev1/source/reverb.cpp ****         t = x1 - x3; x1 += x3;  x3 = t;
 4053              		.loc 1 342 22 view .LVU1192
 342:zita-rev1/source/reverb.cpp ****         t = x1 - x3; x1 += x3;  x3 = t;
 4054              		.loc 1 342 33 view .LVU1193
 343:zita-rev1/source/reverb.cpp ****         t = x4 - x6; x4 += x6;  x6 = t;
 4055              		.loc 1 343 9 view .LVU1194
 343:zita-rev1/source/reverb.cpp ****         t = x4 - x6; x4 += x6;  x6 = t;
 4056              		.loc 1 343 22 view .LVU1195
 343:zita-rev1/source/reverb.cpp ****         t = x4 - x6; x4 += x6;  x6 = t;
 4057              		.loc 1 343 33 view .LVU1196
 344:zita-rev1/source/reverb.cpp ****         t = x5 - x7; x5 += x7;  x7 = t;
 4058              		.loc 1 344 9 view .LVU1197
 345:zita-rev1/source/reverb.cpp ****         t = x0 - x4; x0 += x4;  x4 = t;
 4059              		.loc 1 345 11 is_stmt 0 view .LVU1198
 4060 0412 35EE436A 		vsub.f32	s12, s10, s6
 344:zita-rev1/source/reverb.cpp ****         t = x5 - x7; x5 += x7;  x7 = t;
 4061              		.loc 1 344 11 view .LVU1199
 4062 0416 77EEC75A 		vsub.f32	s11, s15, s14
 4063              	.LVL255:
 344:zita-rev1/source/reverb.cpp ****         t = x5 - x7; x5 += x7;  x7 = t;
 4064              		.loc 1 344 22 is_stmt 1 view .LVU1200
 344:zita-rev1/source/reverb.cpp ****         t = x5 - x7; x5 += x7;  x7 = t;
 4065              		.loc 1 344 25 is_stmt 0 view .LVU1201
 4066 041a 37EE877A 		vadd.f32	s14, s15, s14
 4067              	.LVL256:
 344:zita-rev1/source/reverb.cpp ****         t = x5 - x7; x5 += x7;  x7 = t;
 4068              		.loc 1 344 33 is_stmt 1 view .LVU1202
 345:zita-rev1/source/reverb.cpp ****         t = x0 - x4; x0 += x4;  x4 = t;
 4069              		.loc 1 345 9 view .LVU1203
 345:zita-rev1/source/reverb.cpp ****         t = x0 - x4; x0 += x4;  x4 = t;
 4070              		.loc 1 345 22 view .LVU1204
