ARM GAS  /var/folders/2p/02m_5p7958535cp2tpgps0400000gn/T//cck1TK5p.s 			page 1


   1              		.cpu cortex-m7
   2              		.arch armv7e-m
   3              		.fpu fpv5-d16
   4              		.eabi_attribute 28, 1
   5              		.eabi_attribute 20, 1
   6              		.eabi_attribute 21, 1
   7              		.eabi_attribute 23, 3
   8              		.eabi_attribute 24, 1
   9              		.eabi_attribute 25, 1
  10              		.eabi_attribute 26, 1
  11              		.eabi_attribute 30, 6
  12              		.eabi_attribute 34, 1
  13              		.eabi_attribute 18, 4
  14              		.file	"reverb.cpp"
  15              		.text
  16              	.Ltext0:
  17              		.cfi_sections	.debug_frame
  18              		.section	.rodata._ZL13kReverbParams,"a"
  19              		.align	2
  22              	_ZL13kReverbParams:
  23 0000 8207533D 		.word	1028851586
  24 0004 6F12833A 		.word	981668463
  25 0008 66664640 		.word	1078355558
  26 000c 00C0F544 		.word	1156956160
  27 0010 0A1E6C3D 		.word	1030495754
  28 0014 E02D903A 		.word	982527456
  29 0018 00006040 		.word	1080033280
  30 001c 0066E646 		.word	1189504512
  31 0020 3842893D 		.word	1032405560
  32 0024 89D2DE3A 		.word	987681417
  33 0028 7B148E3F 		.word	1066275963
  34 002c 0032B346 		.word	1186148864
  35 0030 EDC3973D 		.word	1033356269
  36 0034 52491D3A 		.word	974997842
  37 0038 A2457E40 		.word	1082017186
  38 003c 00981946 		.word	1176082432
  39 0040 DCB2A63D 		.word	1034334940
  40 0044 6F12833A 		.word	981668463
  41 0048 F2D21540 		.word	1075172082
  42 004c 0046A146 		.word	1184974336
  43 0050 D815B03D 		.word	1034950104
  44 0054 E02D903A 		.word	982527456
  45 0058 E5D0F23F 		.word	1072877797
  46 005c 0032B346 		.word	1186148864
  47 0060 8DDE363D 		.word	1027006093
  48 0064 89D2DE3A 		.word	987681417
  49 0068 9318643F 		.word	1063524499
  50 006c 0066E646 		.word	1189504512
  51 0070 08F3243D 		.word	1025831688
  52 0074 52491D3A 		.word	974997842
  53 0078 DD244E40 		.word	1078863069
  54 007c 00446146 		.word	1180779520
  55              		.section	.rodata._ZL11kOutputGain,"a"
  56              		.align	2
  59              	_ZL11kOutputGain:
  60 0000 3333B33E 		.word	1051931443
  61              		.section	.rodata._ZL8kJpScale,"a"
ARM GAS  /var/folders/2p/02m_5p7958535cp2tpgps0400000gn/T//cck1TK5p.s 			page 2


  62              		.align	2
  65              	_ZL8kJpScale:
  66 0000 0000803E 		.word	1048576000
  67              		.section	.text._ZN7daisysp8ReverbSc4InitEf,"ax",%progbits
  68              		.align	1
  69              		.global	_ZN7daisysp8ReverbSc4InitEf
  70              		.syntax unified
  71              		.thumb
  72              		.thumb_func
  74              	_ZN7daisysp8ReverbSc4InitEf:
  75              	.LFB555:
  76              		.file 1 "DaisySP-LGPL-FX/reverb.cpp"
   1:DaisySP-LGPL-FX/reverb.cpp **** #include <math.h>
   2:DaisySP-LGPL-FX/reverb.cpp **** #include <stdlib.h>
   3:DaisySP-LGPL-FX/reverb.cpp **** #include <stdint.h>
   4:DaisySP-LGPL-FX/reverb.cpp **** #include <string.h>
   5:DaisySP-LGPL-FX/reverb.cpp **** #include "reverb.h"
   6:DaisySP-LGPL-FX/reverb.cpp **** 
   7:DaisySP-LGPL-FX/reverb.cpp **** #define REVSC_OK 0
   8:DaisySP-LGPL-FX/reverb.cpp **** #define REVSC_NOT_OK 1
   9:DaisySP-LGPL-FX/reverb.cpp **** 
  10:DaisySP-LGPL-FX/reverb.cpp **** #define DEFAULT_SRATE 48000.0
  11:DaisySP-LGPL-FX/reverb.cpp **** #define MIN_SRATE 5000.0
  12:DaisySP-LGPL-FX/reverb.cpp **** #define MAX_SRATE 1000000.0
  13:DaisySP-LGPL-FX/reverb.cpp **** #define MAX_PITCHMOD 20.0
  14:DaisySP-LGPL-FX/reverb.cpp **** #define DELAYPOS_SHIFT 28
  15:DaisySP-LGPL-FX/reverb.cpp **** #define DELAYPOS_SCALE 0x10000000
  16:DaisySP-LGPL-FX/reverb.cpp **** #define DELAYPOS_MASK 0x0FFFFFFF
  17:DaisySP-LGPL-FX/reverb.cpp **** 
  18:DaisySP-LGPL-FX/reverb.cpp **** #ifndef M_PI
  19:DaisySP-LGPL-FX/reverb.cpp **** #define M_PI 3.14159265358979323846 /* pi */
  20:DaisySP-LGPL-FX/reverb.cpp **** #endif
  21:DaisySP-LGPL-FX/reverb.cpp **** 
  22:DaisySP-LGPL-FX/reverb.cpp **** using namespace daisysp;
  23:DaisySP-LGPL-FX/reverb.cpp **** 
  24:DaisySP-LGPL-FX/reverb.cpp **** /* kReverbParams[n][0] = delay time (in seconds)                     */
  25:DaisySP-LGPL-FX/reverb.cpp **** /* kReverbParams[n][1] = random variation in delay time (in seconds) */
  26:DaisySP-LGPL-FX/reverb.cpp **** /* kReverbParams[n][2] = random variation frequency (in 1/sec)       */
  27:DaisySP-LGPL-FX/reverb.cpp **** /* kReverbParams[n][3] = random seed (0 - 32767)                     */
  28:DaisySP-LGPL-FX/reverb.cpp **** 
  29:DaisySP-LGPL-FX/reverb.cpp **** static const float kReverbParams[8][4]
  30:DaisySP-LGPL-FX/reverb.cpp ****     = {{(2473.0 / DEFAULT_SRATE), 0.0010, 3.100, 1966.0},
  31:DaisySP-LGPL-FX/reverb.cpp ****        {(2767.0 / DEFAULT_SRATE), 0.0011, 3.500, 29491.0},
  32:DaisySP-LGPL-FX/reverb.cpp ****        {(3217.0 / DEFAULT_SRATE), 0.0017, 1.110, 22937.0},
  33:DaisySP-LGPL-FX/reverb.cpp ****        {(3557.0 / DEFAULT_SRATE), 0.0006, 3.973, 9830.0},
  34:DaisySP-LGPL-FX/reverb.cpp ****        {(3907.0 / DEFAULT_SRATE), 0.0010, 2.341, 20643.0},
  35:DaisySP-LGPL-FX/reverb.cpp ****        {(4127.0 / DEFAULT_SRATE), 0.0011, 1.897, 22937.0},
  36:DaisySP-LGPL-FX/reverb.cpp ****        {(2143.0 / DEFAULT_SRATE), 0.0017, 0.891, 29491.0},
  37:DaisySP-LGPL-FX/reverb.cpp ****        {(1933.0 / DEFAULT_SRATE), 0.0006, 3.221, 14417.0}};
  38:DaisySP-LGPL-FX/reverb.cpp **** 
  39:DaisySP-LGPL-FX/reverb.cpp **** static int DelayLineMaxSamples(float sr, float i_pitch_mod, int n);
  40:DaisySP-LGPL-FX/reverb.cpp **** //static int InitDelayLine(dsy_reverbsc_dl *lp, int n);
  41:DaisySP-LGPL-FX/reverb.cpp **** static int         DelayLineBytesAlloc(float sr, float i_pitch_mod, int n);
  42:DaisySP-LGPL-FX/reverb.cpp **** static const float kOutputGain = 0.35;
  43:DaisySP-LGPL-FX/reverb.cpp **** static const float kJpScale    = 0.25;
  44:DaisySP-LGPL-FX/reverb.cpp **** 
  45:DaisySP-LGPL-FX/reverb.cpp **** int ReverbSc::Init(float sr)
ARM GAS  /var/folders/2p/02m_5p7958535cp2tpgps0400000gn/T//cck1TK5p.s 			page 3


  46:DaisySP-LGPL-FX/reverb.cpp **** {
  77              		.loc 1 46 1
  78              		.cfi_startproc
  79              		@ args = 0, pretend = 0, frame = 16
  80              		@ frame_needed = 1, uses_anonymous_args = 0
  81 0000 80B5     		push	{r7, lr}
  82              		.cfi_def_cfa_offset 8
  83              		.cfi_offset 7, -8
  84              		.cfi_offset 14, -4
  85 0002 84B0     		sub	sp, sp, #16
  86              		.cfi_def_cfa_offset 24
  87 0004 00AF     		add	r7, sp, #0
  88              		.cfi_def_cfa_register 7
  89 0006 7860     		str	r0, [r7, #4]
  90 0008 87ED000A 		vstr.32	s0, [r7]
  47:DaisySP-LGPL-FX/reverb.cpp ****     i_sample_rate_ = sr;
  91              		.loc 1 47 20
  92 000c 7B68     		ldr	r3, [r7, #4]
  93 000e 3A68     		ldr	r2, [r7]	@ float
  94 0010 9A60     		str	r2, [r3, #8]	@ float
  48:DaisySP-LGPL-FX/reverb.cpp ****     sample_rate_   = sr;
  95              		.loc 1 48 20
  96 0012 7B68     		ldr	r3, [r7, #4]
  97 0014 3A68     		ldr	r2, [r7]	@ float
  98 0016 5A61     		str	r2, [r3, #20]	@ float
  49:DaisySP-LGPL-FX/reverb.cpp ****     feedback_      = 0.97;
  99              		.loc 1 49 20
 100 0018 7B68     		ldr	r3, [r7, #4]
 101 001a 2C4A     		ldr	r2, .L6
 102 001c 1A60     		str	r2, [r3]	@ float
  50:DaisySP-LGPL-FX/reverb.cpp ****     lpfreq_        = 10000;
 103              		.loc 1 50 20
 104 001e 7B68     		ldr	r3, [r7, #4]
 105 0020 2B4A     		ldr	r2, .L6+4
 106 0022 5A60     		str	r2, [r3, #4]	@ float
  51:DaisySP-LGPL-FX/reverb.cpp ****     i_pitch_mod_   = 1;
 107              		.loc 1 51 20
 108 0024 7B68     		ldr	r3, [r7, #4]
 109 0026 4FF07E52 		mov	r2, #1065353216
 110 002a DA60     		str	r2, [r3, #12]	@ float
  52:DaisySP-LGPL-FX/reverb.cpp ****     i_skip_init_   = 0;
 111              		.loc 1 52 20
 112 002c 7B68     		ldr	r3, [r7, #4]
 113 002e 4FF00002 		mov	r2, #0
 114 0032 1A61     		str	r2, [r3, #16]	@ float
  53:DaisySP-LGPL-FX/reverb.cpp ****     damp_fact_     = 1.0;
 115              		.loc 1 53 20
 116 0034 7B68     		ldr	r3, [r7, #4]
 117 0036 4FF07E52 		mov	r2, #1065353216
 118 003a 9A61     		str	r2, [r3, #24]	@ float
  54:DaisySP-LGPL-FX/reverb.cpp ****     prv_lpfreq_    = 0.0;
 119              		.loc 1 54 20
 120 003c 7B68     		ldr	r3, [r7, #4]
 121 003e 4FF00002 		mov	r2, #0
 122 0042 DA61     		str	r2, [r3, #28]	@ float
  55:DaisySP-LGPL-FX/reverb.cpp ****     init_done_     = 1;
 123              		.loc 1 55 20
ARM GAS  /var/folders/2p/02m_5p7958535cp2tpgps0400000gn/T//cck1TK5p.s 			page 4


 124 0044 7B68     		ldr	r3, [r7, #4]
 125 0046 0122     		movs	r2, #1
 126 0048 1A62     		str	r2, [r3, #32]
  56:DaisySP-LGPL-FX/reverb.cpp ****     int i, n_bytes = 0;
 127              		.loc 1 56 12
 128 004a 0023     		movs	r3, #0
 129 004c BB60     		str	r3, [r7, #8]
  57:DaisySP-LGPL-FX/reverb.cpp ****     n_bytes = 0;
 130              		.loc 1 57 13
 131 004e 0023     		movs	r3, #0
 132 0050 BB60     		str	r3, [r7, #8]
  58:DaisySP-LGPL-FX/reverb.cpp ****     for(i = 0; i < 8; i++)
 133              		.loc 1 58 11
 134 0052 0023     		movs	r3, #0
 135 0054 FB60     		str	r3, [r7, #12]
 136              	.L5:
 137              		.loc 1 58 18 discriminator 1
 138 0056 FB68     		ldr	r3, [r7, #12]
 139 0058 072B     		cmp	r3, #7
 140 005a 31DC     		bgt	.L2
  59:DaisySP-LGPL-FX/reverb.cpp ****     {
  60:DaisySP-LGPL-FX/reverb.cpp ****         if(n_bytes > DSY_REVERBSC_MAX_SIZE)
 141              		.loc 1 60 9
 142 005c BB68     		ldr	r3, [r7, #8]
 143 005e 1D4A     		ldr	r2, .L6+8
 144 0060 9342     		cmp	r3, r2
 145 0062 01DD     		ble	.L3
  61:DaisySP-LGPL-FX/reverb.cpp ****             return 1;
 146              		.loc 1 61 20
 147 0064 0123     		movs	r3, #1
 148 0066 2CE0     		b	.L4
 149              	.L3:
  62:DaisySP-LGPL-FX/reverb.cpp ****         delay_lines_[i].buf = (aux_) + n_bytes;
 150              		.loc 1 62 32 discriminator 2
 151 0068 7B68     		ldr	r3, [r7, #4]
 152 006a 03F5B272 		add	r2, r3, #356
 153              		.loc 1 62 40 discriminator 2
 154 006e BB68     		ldr	r3, [r7, #8]
 155              		.loc 1 62 38 discriminator 2
 156 0070 9B00     		lsls	r3, r3, #2
 157 0072 D118     		adds	r1, r2, r3
 158              		.loc 1 62 29 discriminator 2
 159 0074 7868     		ldr	r0, [r7, #4]
 160 0076 FA68     		ldr	r2, [r7, #12]
 161 0078 1346     		mov	r3, r2
 162 007a 9B00     		lsls	r3, r3, #2
 163 007c 1344     		add	r3, r3, r2
 164 007e DB00     		lsls	r3, r3, #3
 165 0080 0344     		add	r3, r3, r0
 166 0082 4833     		adds	r3, r3, #72
 167 0084 1960     		str	r1, [r3]
  63:DaisySP-LGPL-FX/reverb.cpp ****         InitDelayLine(&delay_lines_[i], i);
 168              		.loc 1 63 22 discriminator 2
 169 0086 FA68     		ldr	r2, [r7, #12]
 170 0088 1346     		mov	r3, r2
 171 008a 9B00     		lsls	r3, r3, #2
 172 008c 1344     		add	r3, r3, r2
ARM GAS  /var/folders/2p/02m_5p7958535cp2tpgps0400000gn/T//cck1TK5p.s 			page 5


 173 008e DB00     		lsls	r3, r3, #3
 174 0090 2033     		adds	r3, r3, #32
 175 0092 7A68     		ldr	r2, [r7, #4]
 176 0094 1344     		add	r3, r3, r2
 177 0096 0433     		adds	r3, r3, #4
 178 0098 FA68     		ldr	r2, [r7, #12]
 179 009a 1946     		mov	r1, r3
 180 009c 7868     		ldr	r0, [r7, #4]
 181 009e FFF7FEFF 		bl	_ZN7daisysp8ReverbSc13InitDelayLineEPNS_10ReverbScDlEi
  64:DaisySP-LGPL-FX/reverb.cpp ****         n_bytes += DelayLineBytesAlloc(sr, 1, i);
 182              		.loc 1 64 39 discriminator 2
 183 00a2 F868     		ldr	r0, [r7, #12]
 184 00a4 F7EE000A 		vmov.f32	s1, #1.0e+0
 185 00a8 97ED000A 		vldr.32	s0, [r7]
 186 00ac FFF7FEFF 		bl	_ZL19DelayLineBytesAllocffi
 187 00b0 0246     		mov	r2, r0
 188              		.loc 1 64 17 discriminator 2
 189 00b2 BB68     		ldr	r3, [r7, #8]
 190 00b4 1344     		add	r3, r3, r2
 191 00b6 BB60     		str	r3, [r7, #8]
  58:DaisySP-LGPL-FX/reverb.cpp ****     {
 192              		.loc 1 58 5 discriminator 2
 193 00b8 FB68     		ldr	r3, [r7, #12]
 194 00ba 0133     		adds	r3, r3, #1
 195 00bc FB60     		str	r3, [r7, #12]
 196 00be CAE7     		b	.L5
 197              	.L2:
  65:DaisySP-LGPL-FX/reverb.cpp ****     }
  66:DaisySP-LGPL-FX/reverb.cpp ****     return 0;
 198              		.loc 1 66 12
 199 00c0 0023     		movs	r3, #0
 200              	.L4:
  67:DaisySP-LGPL-FX/reverb.cpp **** }
 201              		.loc 1 67 1
 202 00c2 1846     		mov	r0, r3
 203 00c4 1037     		adds	r7, r7, #16
 204              		.cfi_def_cfa_offset 8
 205 00c6 BD46     		mov	sp, r7
 206              		.cfi_def_cfa_register 13
 207              		@ sp needed
 208 00c8 80BD     		pop	{r7, pc}
 209              	.L7:
 210 00ca 00BF     		.align	2
 211              	.L6:
 212 00cc EC51783F 		.word	1064849900
 213 00d0 00401C46 		.word	1176256512
 214 00d4 78820100 		.word	98936
 215              		.cfi_endproc
 216              	.LFE555:
 218              		.section	.text._ZL19DelayLineMaxSamplesffi,"ax",%progbits
 219              		.align	1
 220              		.syntax unified
 221              		.thumb
 222              		.thumb_func
 224              	_ZL19DelayLineMaxSamplesffi:
 225              	.LFB556:
  68:DaisySP-LGPL-FX/reverb.cpp **** 
ARM GAS  /var/folders/2p/02m_5p7958535cp2tpgps0400000gn/T//cck1TK5p.s 			page 6


  69:DaisySP-LGPL-FX/reverb.cpp **** static int DelayLineMaxSamples(float sr, float i_pitch_mod, int n)
  70:DaisySP-LGPL-FX/reverb.cpp **** {
 226              		.loc 1 70 1
 227              		.cfi_startproc
 228              		@ args = 0, pretend = 0, frame = 24
 229              		@ frame_needed = 1, uses_anonymous_args = 0
 230              		@ link register save eliminated.
 231 0000 80B4     		push	{r7}
 232              		.cfi_def_cfa_offset 4
 233              		.cfi_offset 7, -4
 234 0002 87B0     		sub	sp, sp, #28
 235              		.cfi_def_cfa_offset 32
 236 0004 00AF     		add	r7, sp, #0
 237              		.cfi_def_cfa_register 7
 238 0006 87ED030A 		vstr.32	s0, [r7, #12]
 239 000a C7ED020A 		vstr.32	s1, [r7, #8]
 240 000e 7860     		str	r0, [r7, #4]
  71:DaisySP-LGPL-FX/reverb.cpp ****     float max_del;
  72:DaisySP-LGPL-FX/reverb.cpp **** 
  73:DaisySP-LGPL-FX/reverb.cpp ****     max_del = kReverbParams[n][0];
 241              		.loc 1 73 13
 242 0010 1D4A     		ldr	r2, .L10+8
 243 0012 7B68     		ldr	r3, [r7, #4]
 244 0014 1B01     		lsls	r3, r3, #4
 245 0016 1344     		add	r3, r3, r2
 246 0018 1B68     		ldr	r3, [r3]	@ float
 247 001a 7B61     		str	r3, [r7, #20]	@ float
  74:DaisySP-LGPL-FX/reverb.cpp ****     max_del += (kReverbParams[n][1] * (float)i_pitch_mod * 1.125);
 248              		.loc 1 74 13
 249 001c D7ED057A 		vldr.32	s15, [r7, #20]
 250 0020 B7EEE76A 		vcvt.f64.f32	d6, s15
 251              		.loc 1 74 35
 252 0024 184A     		ldr	r2, .L10+8
 253 0026 7B68     		ldr	r3, [r7, #4]
 254 0028 1B01     		lsls	r3, r3, #4
 255 002a 1344     		add	r3, r3, r2
 256 002c 0433     		adds	r3, r3, #4
 257 002e 93ED007A 		vldr.32	s14, [r3]
 258              		.loc 1 74 37
 259 0032 D7ED027A 		vldr.32	s15, [r7, #8]
 260 0036 67EE277A 		vmul.f32	s15, s14, s15
 261 003a B7EEE77A 		vcvt.f64.f32	d7, s15
 262              		.loc 1 74 58
 263 003e B7EE025B 		vmov.f64	d5, #1.125e+0
 264 0042 27EE057B 		vmul.f64	d7, d7, d5
 265              		.loc 1 74 13
 266 0046 36EE077B 		vadd.f64	d7, d6, d7
 267 004a F7EEC77B 		vcvt.f32.f64	s15, d7
 268 004e C7ED057A 		vstr.32	s15, [r7, #20]
  75:DaisySP-LGPL-FX/reverb.cpp ****     return (int)(max_del * sr + 16.5);
 269              		.loc 1 75 26
 270 0052 97ED057A 		vldr.32	s14, [r7, #20]
 271 0056 D7ED037A 		vldr.32	s15, [r7, #12]
 272 005a 67EE277A 		vmul.f32	s15, s14, s15
 273 005e B7EEE77A 		vcvt.f64.f32	d7, s15
 274              		.loc 1 75 31
 275 0062 9FED076B 		vldr.64	d6, .L10
ARM GAS  /var/folders/2p/02m_5p7958535cp2tpgps0400000gn/T//cck1TK5p.s 			page 7


 276 0066 37EE067B 		vadd.f64	d7, d7, d6
 277              		.loc 1 75 37
 278 006a FDEEC77B 		vcvt.s32.f64	s15, d7
 279 006e 17EE903A 		vmov	r3, s15	@ int
  76:DaisySP-LGPL-FX/reverb.cpp **** }
 280              		.loc 1 76 1
 281 0072 1846     		mov	r0, r3
 282 0074 1C37     		adds	r7, r7, #28
 283              		.cfi_def_cfa_offset 4
 284 0076 BD46     		mov	sp, r7
 285              		.cfi_def_cfa_register 13
 286              		@ sp needed
 287 0078 5DF8047B 		ldr	r7, [sp], #4
 288              		.cfi_restore 7
 289              		.cfi_def_cfa_offset 0
 290 007c 7047     		bx	lr
 291              	.L11:
 292 007e 00BF     		.align	3
 293              	.L10:
 294 0080 00000000 		.word	0
 295 0084 00803040 		.word	1076920320
 296 0088 00000000 		.word	_ZL13kReverbParams
 297              		.cfi_endproc
 298              	.LFE556:
 300              		.section	.text._ZL19DelayLineBytesAllocffi,"ax",%progbits
 301              		.align	1
 302              		.syntax unified
 303              		.thumb
 304              		.thumb_func
 306              	_ZL19DelayLineBytesAllocffi:
 307              	.LFB557:
  77:DaisySP-LGPL-FX/reverb.cpp **** 
  78:DaisySP-LGPL-FX/reverb.cpp **** static int DelayLineBytesAlloc(float sr, float i_pitch_mod, int n)
  79:DaisySP-LGPL-FX/reverb.cpp **** {
 308              		.loc 1 79 1
 309              		.cfi_startproc
 310              		@ args = 0, pretend = 0, frame = 24
 311              		@ frame_needed = 1, uses_anonymous_args = 0
 312 0000 80B5     		push	{r7, lr}
 313              		.cfi_def_cfa_offset 8
 314              		.cfi_offset 7, -8
 315              		.cfi_offset 14, -4
 316 0002 86B0     		sub	sp, sp, #24
 317              		.cfi_def_cfa_offset 32
 318 0004 00AF     		add	r7, sp, #0
 319              		.cfi_def_cfa_register 7
 320 0006 87ED030A 		vstr.32	s0, [r7, #12]
 321 000a C7ED020A 		vstr.32	s1, [r7, #8]
 322 000e 7860     		str	r0, [r7, #4]
  80:DaisySP-LGPL-FX/reverb.cpp ****     int n_bytes = 0;
 323              		.loc 1 80 9
 324 0010 0023     		movs	r3, #0
 325 0012 7B61     		str	r3, [r7, #20]
  81:DaisySP-LGPL-FX/reverb.cpp **** 
  82:DaisySP-LGPL-FX/reverb.cpp ****     n_bytes += (DelayLineMaxSamples(sr, i_pitch_mod, n) * (int)sizeof(float));
 326              		.loc 1 82 36
 327 0014 7868     		ldr	r0, [r7, #4]
ARM GAS  /var/folders/2p/02m_5p7958535cp2tpgps0400000gn/T//cck1TK5p.s 			page 8


 328 0016 D7ED020A 		vldr.32	s1, [r7, #8]
 329 001a 97ED030A 		vldr.32	s0, [r7, #12]
 330 001e FFF7FEFF 		bl	_ZL19DelayLineMaxSamplesffi
 331 0022 0346     		mov	r3, r0
 332              		.loc 1 82 57
 333 0024 9B00     		lsls	r3, r3, #2
 334              		.loc 1 82 13
 335 0026 7A69     		ldr	r2, [r7, #20]
 336 0028 1344     		add	r3, r3, r2
 337 002a 7B61     		str	r3, [r7, #20]
  83:DaisySP-LGPL-FX/reverb.cpp ****     return n_bytes;
 338              		.loc 1 83 12
 339 002c 7B69     		ldr	r3, [r7, #20]
  84:DaisySP-LGPL-FX/reverb.cpp **** }
 340              		.loc 1 84 1
 341 002e 1846     		mov	r0, r3
 342 0030 1837     		adds	r7, r7, #24
 343              		.cfi_def_cfa_offset 8
 344 0032 BD46     		mov	sp, r7
 345              		.cfi_def_cfa_register 13
 346              		@ sp needed
 347 0034 80BD     		pop	{r7, pc}
 348              		.cfi_endproc
 349              	.LFE557:
 351              		.section	.text._ZN7daisysp8ReverbSc17NextRandomLinesegEPNS_10ReverbScDlEi,"ax",%progbits
 352              		.align	1
 353              		.global	_ZN7daisysp8ReverbSc17NextRandomLinesegEPNS_10ReverbScDlEi
 354              		.syntax unified
 355              		.thumb
 356              		.thumb_func
 358              	_ZN7daisysp8ReverbSc17NextRandomLinesegEPNS_10ReverbScDlEi:
 359              	.LFB558:
  85:DaisySP-LGPL-FX/reverb.cpp **** 
  86:DaisySP-LGPL-FX/reverb.cpp **** void ReverbSc::NextRandomLineseg(ReverbScDl *lp, int n)
  87:DaisySP-LGPL-FX/reverb.cpp **** {
 360              		.loc 1 87 1
 361              		.cfi_startproc
 362              		@ args = 0, pretend = 0, frame = 32
 363              		@ frame_needed = 1, uses_anonymous_args = 0
 364              		@ link register save eliminated.
 365 0000 80B4     		push	{r7}
 366              		.cfi_def_cfa_offset 4
 367              		.cfi_offset 7, -4
 368 0002 89B0     		sub	sp, sp, #36
 369              		.cfi_def_cfa_offset 40
 370 0004 00AF     		add	r7, sp, #0
 371              		.cfi_def_cfa_register 7
 372 0006 F860     		str	r0, [r7, #12]
 373 0008 B960     		str	r1, [r7, #8]
 374 000a 7A60     		str	r2, [r7, #4]
  88:DaisySP-LGPL-FX/reverb.cpp ****     float prv_del, nxt_del, phs_inc_val;
  89:DaisySP-LGPL-FX/reverb.cpp **** 
  90:DaisySP-LGPL-FX/reverb.cpp ****     /* update random seed */
  91:DaisySP-LGPL-FX/reverb.cpp ****     if(lp->seed_val < 0)
 375              		.loc 1 91 12
 376 000c BB68     		ldr	r3, [r7, #8]
 377 000e 9B69     		ldr	r3, [r3, #24]
ARM GAS  /var/folders/2p/02m_5p7958535cp2tpgps0400000gn/T//cck1TK5p.s 			page 9


 378              		.loc 1 91 5
 379 0010 002B     		cmp	r3, #0
 380 0012 05DA     		bge	.L15
  92:DaisySP-LGPL-FX/reverb.cpp ****         lp->seed_val += 0x10000;
 381              		.loc 1 92 22
 382 0014 BB68     		ldr	r3, [r7, #8]
 383 0016 9B69     		ldr	r3, [r3, #24]
 384 0018 03F58032 		add	r2, r3, #65536
 385 001c BB68     		ldr	r3, [r7, #8]
 386 001e 9A61     		str	r2, [r3, #24]
 387              	.L15:
  93:DaisySP-LGPL-FX/reverb.cpp ****     lp->seed_val = (lp->seed_val * 15625 + 1) & 0xFFFF;
 388              		.loc 1 93 25
 389 0020 BB68     		ldr	r3, [r7, #8]
 390 0022 9B69     		ldr	r3, [r3, #24]
 391              		.loc 1 93 34
 392 0024 43F60952 		movw	r2, #15625
 393 0028 02FB03F3 		mul	r3, r2, r3
 394              		.loc 1 93 42
 395 002c 0133     		adds	r3, r3, #1
 396              		.loc 1 93 47
 397 002e 9AB2     		uxth	r2, r3
 398              		.loc 1 93 18
 399 0030 BB68     		ldr	r3, [r7, #8]
 400 0032 9A61     		str	r2, [r3, #24]
  94:DaisySP-LGPL-FX/reverb.cpp ****     if(lp->seed_val >= 0x8000)
 401              		.loc 1 94 12
 402 0034 BB68     		ldr	r3, [r7, #8]
 403 0036 9B69     		ldr	r3, [r3, #24]
 404              		.loc 1 94 5
 405 0038 B3F5004F 		cmp	r3, #32768
 406 003c 05DB     		blt	.L16
  95:DaisySP-LGPL-FX/reverb.cpp ****         lp->seed_val -= 0x10000;
 407              		.loc 1 95 22
 408 003e BB68     		ldr	r3, [r7, #8]
 409 0040 9B69     		ldr	r3, [r3, #24]
 410 0042 A3F58032 		sub	r2, r3, #65536
 411 0046 BB68     		ldr	r3, [r7, #8]
 412 0048 9A61     		str	r2, [r3, #24]
 413              	.L16:
  96:DaisySP-LGPL-FX/reverb.cpp ****     /* length of next segment in samples */
  97:DaisySP-LGPL-FX/reverb.cpp ****     lp->rand_line_cnt = (int)((sample_rate_ / kReverbParams[n][2]) + 0.5);
 414              		.loc 1 97 32
 415 004a FB68     		ldr	r3, [r7, #12]
 416 004c D3ED056A 		vldr.32	s13, [r3, #20]
 417              		.loc 1 97 65
 418 0050 564A     		ldr	r2, .L22
 419 0052 7B68     		ldr	r3, [r7, #4]
 420 0054 1B01     		lsls	r3, r3, #4
 421 0056 1344     		add	r3, r3, r2
 422 0058 0833     		adds	r3, r3, #8
 423 005a 93ED007A 		vldr.32	s14, [r3]
 424              		.loc 1 97 45
 425 005e C6EE877A 		vdiv.f32	s15, s13, s14
 426 0062 B7EEE77A 		vcvt.f64.f32	d7, s15
 427              		.loc 1 97 68
 428 0066 B6EE006B 		vmov.f64	d6, #5.0e-1
ARM GAS  /var/folders/2p/02m_5p7958535cp2tpgps0400000gn/T//cck1TK5p.s 			page 10


 429 006a 37EE067B 		vadd.f64	d7, d7, d6
 430              		.loc 1 97 25
 431 006e FDEEC77B 		vcvt.s32.f64	s15, d7
 432 0072 17EE902A 		vmov	r2, s15	@ int
 433              		.loc 1 97 23
 434 0076 BB68     		ldr	r3, [r7, #8]
 435 0078 DA61     		str	r2, [r3, #28]
  98:DaisySP-LGPL-FX/reverb.cpp ****     prv_del           = (float)lp->write_pos;
 436              		.loc 1 98 36
 437 007a BB68     		ldr	r3, [r7, #8]
 438 007c 1B68     		ldr	r3, [r3]
 439              		.loc 1 98 23
 440 007e 07EE903A 		vmov	s15, r3	@ int
 441 0082 F8EEE77A 		vcvt.f32.s32	s15, s15
 442 0086 C7ED077A 		vstr.32	s15, [r7, #28]
  99:DaisySP-LGPL-FX/reverb.cpp ****     prv_del -= ((float)lp->read_pos
 443              		.loc 1 99 28
 444 008a BB68     		ldr	r3, [r7, #8]
 445 008c 9B68     		ldr	r3, [r3, #8]
 446              		.loc 1 99 17
 447 008e 07EE903A 		vmov	s15, r3	@ int
 448 0092 B8EEE77A 		vcvt.f32.s32	s14, s15
 100:DaisySP-LGPL-FX/reverb.cpp ****                 + ((float)lp->read_pos_frac / (float)DELAYPOS_SCALE));
 449              		.loc 1 100 31
 450 0096 BB68     		ldr	r3, [r7, #8]
 451 0098 DB68     		ldr	r3, [r3, #12]
 452              		.loc 1 100 20
 453 009a 07EE903A 		vmov	s15, r3	@ int
 454 009e F8EEE76A 		vcvt.f32.s32	s13, s15
 455              		.loc 1 100 45
 456 00a2 9FED436A 		vldr.32	s12, .L22+4
 457 00a6 C6EE867A 		vdiv.f32	s15, s13, s12
 458              		.loc 1 100 17
 459 00aa 77EE277A 		vadd.f32	s15, s14, s15
  99:DaisySP-LGPL-FX/reverb.cpp ****     prv_del -= ((float)lp->read_pos
 460              		.loc 1 99 13
 461 00ae 97ED077A 		vldr.32	s14, [r7, #28]
 462 00b2 77EE677A 		vsub.f32	s15, s14, s15
 463 00b6 C7ED077A 		vstr.32	s15, [r7, #28]
 464              	.L19:
 101:DaisySP-LGPL-FX/reverb.cpp ****     while(prv_del < 0.0)
 465              		.loc 1 101 19
 466 00ba D7ED077A 		vldr.32	s15, [r7, #28]
 467 00be F5EEC07A 		vcmpe.f32	s15, #0
 468 00c2 F1EE10FA 		vmrs	APSR_nzcv, FPSCR
 469 00c6 0CD5     		bpl	.L21
 102:DaisySP-LGPL-FX/reverb.cpp ****         prv_del += lp->buffer_size;
 470              		.loc 1 102 24
 471 00c8 BB68     		ldr	r3, [r7, #8]
 472 00ca 5B68     		ldr	r3, [r3, #4]
 473              		.loc 1 102 17
 474 00cc 07EE903A 		vmov	s15, r3	@ int
 475 00d0 F8EEE77A 		vcvt.f32.s32	s15, s15
 476 00d4 97ED077A 		vldr.32	s14, [r7, #28]
 477 00d8 77EE277A 		vadd.f32	s15, s14, s15
 478 00dc C7ED077A 		vstr.32	s15, [r7, #28]
 101:DaisySP-LGPL-FX/reverb.cpp ****     while(prv_del < 0.0)
ARM GAS  /var/folders/2p/02m_5p7958535cp2tpgps0400000gn/T//cck1TK5p.s 			page 11


 479              		.loc 1 101 5
 480 00e0 EBE7     		b	.L19
 481              	.L21:
 103:DaisySP-LGPL-FX/reverb.cpp ****     prv_del = prv_del / sample_rate_; /* previous delay time in seconds */
 482              		.loc 1 103 25
 483 00e2 FB68     		ldr	r3, [r7, #12]
 484 00e4 93ED057A 		vldr.32	s14, [r3, #20]
 485              		.loc 1 103 13
 486 00e8 D7ED076A 		vldr.32	s13, [r7, #28]
 487 00ec C6EE877A 		vdiv.f32	s15, s13, s14
 488 00f0 C7ED077A 		vstr.32	s15, [r7, #28]
 104:DaisySP-LGPL-FX/reverb.cpp ****     nxt_del = (float)lp->seed_val * kReverbParams[n][1] / 32768.0;
 489              		.loc 1 104 26
 490 00f4 BB68     		ldr	r3, [r7, #8]
 491 00f6 9B69     		ldr	r3, [r3, #24]
 492              		.loc 1 104 15
 493 00f8 07EE903A 		vmov	s15, r3	@ int
 494 00fc B8EEE77A 		vcvt.f32.s32	s14, s15
 495              		.loc 1 104 55
 496 0100 2A4A     		ldr	r2, .L22
 497 0102 7B68     		ldr	r3, [r7, #4]
 498 0104 1B01     		lsls	r3, r3, #4
 499 0106 1344     		add	r3, r3, r2
 500 0108 0433     		adds	r3, r3, #4
 501 010a D3ED007A 		vldr.32	s15, [r3]
 502              		.loc 1 104 35
 503 010e 27EE277A 		vmul.f32	s14, s14, s15
 504              		.loc 1 104 13
 505 0112 DFED286A 		vldr.32	s13, .L22+8
 506 0116 C7EE267A 		vdiv.f32	s15, s14, s13
 507 011a C7ED067A 		vstr.32	s15, [r7, #24]
 105:DaisySP-LGPL-FX/reverb.cpp ****     /* next delay time in seconds */
 106:DaisySP-LGPL-FX/reverb.cpp ****     nxt_del = kReverbParams[n][0] + (nxt_del * (float)i_pitch_mod_);
 508              		.loc 1 106 33
 509 011e 234A     		ldr	r2, .L22
 510 0120 7B68     		ldr	r3, [r7, #4]
 511 0122 1B01     		lsls	r3, r3, #4
 512 0124 1344     		add	r3, r3, r2
 513 0126 93ED007A 		vldr.32	s14, [r3]
 514              		.loc 1 106 55
 515 012a FB68     		ldr	r3, [r7, #12]
 516 012c D3ED036A 		vldr.32	s13, [r3, #12]
 517              		.loc 1 106 46
 518 0130 D7ED067A 		vldr.32	s15, [r7, #24]
 519 0134 66EEA77A 		vmul.f32	s15, s13, s15
 520              		.loc 1 106 13
 521 0138 77EE277A 		vadd.f32	s15, s14, s15
 522 013c C7ED067A 		vstr.32	s15, [r7, #24]
 107:DaisySP-LGPL-FX/reverb.cpp ****     /* calculate phase increment per sample */
 108:DaisySP-LGPL-FX/reverb.cpp ****     phs_inc_val           = (prv_del - nxt_del) / (float)lp->rand_line_cnt;
 523              		.loc 1 108 38
 524 0140 97ED077A 		vldr.32	s14, [r7, #28]
 525 0144 D7ED067A 		vldr.32	s15, [r7, #24]
 526 0148 77EE676A 		vsub.f32	s13, s14, s15
 527              		.loc 1 108 62
 528 014c BB68     		ldr	r3, [r7, #8]
 529 014e DB69     		ldr	r3, [r3, #28]
ARM GAS  /var/folders/2p/02m_5p7958535cp2tpgps0400000gn/T//cck1TK5p.s 			page 12


 530              		.loc 1 108 51
 531 0150 07EE903A 		vmov	s15, r3	@ int
 532 0154 B8EEE77A 		vcvt.f32.s32	s14, s15
 533              		.loc 1 108 27
 534 0158 C6EE877A 		vdiv.f32	s15, s13, s14
 535 015c C7ED057A 		vstr.32	s15, [r7, #20]
 109:DaisySP-LGPL-FX/reverb.cpp ****     phs_inc_val           = phs_inc_val * sample_rate_ + 1.0;
 536              		.loc 1 109 43
 537 0160 FB68     		ldr	r3, [r7, #12]
 538 0162 93ED057A 		vldr.32	s14, [r3, #20]
 539              		.loc 1 109 41
 540 0166 D7ED057A 		vldr.32	s15, [r7, #20]
 541 016a 67EE277A 		vmul.f32	s15, s14, s15
 542              		.loc 1 109 27
 543 016e B7EE007A 		vmov.f32	s14, #1.0e+0
 544 0172 77EE877A 		vadd.f32	s15, s15, s14
 545 0176 C7ED057A 		vstr.32	s15, [r7, #20]
 110:DaisySP-LGPL-FX/reverb.cpp ****     lp->read_pos_frac_inc = (int)(phs_inc_val * DELAYPOS_SCALE + 0.5);
 546              		.loc 1 110 47
 547 017a D7ED057A 		vldr.32	s15, [r7, #20]
 548 017e 9FED0C7A 		vldr.32	s14, .L22+4
 549 0182 67EE877A 		vmul.f32	s15, s15, s14
 550 0186 B7EEE77A 		vcvt.f64.f32	d7, s15
 551              		.loc 1 110 64
 552 018a B6EE006B 		vmov.f64	d6, #5.0e-1
 553 018e 37EE067B 		vadd.f64	d7, d7, d6
 554              		.loc 1 110 29
 555 0192 FDEEC77B 		vcvt.s32.f64	s15, d7
 556 0196 17EE902A 		vmov	r2, s15	@ int
 557              		.loc 1 110 27
 558 019a BB68     		ldr	r3, [r7, #8]
 559 019c 1A61     		str	r2, [r3, #16]
 111:DaisySP-LGPL-FX/reverb.cpp **** }
 560              		.loc 1 111 1
 561 019e 00BF     		nop
 562 01a0 2437     		adds	r7, r7, #36
 563              		.cfi_def_cfa_offset 4
 564 01a2 BD46     		mov	sp, r7
 565              		.cfi_def_cfa_register 13
 566              		@ sp needed
 567 01a4 5DF8047B 		ldr	r7, [sp], #4
 568              		.cfi_restore 7
 569              		.cfi_def_cfa_offset 0
 570 01a8 7047     		bx	lr
 571              	.L23:
 572 01aa 00BF     		.align	2
 573              	.L22:
 574 01ac 00000000 		.word	_ZL13kReverbParams
 575 01b0 0000804D 		.word	1300234240
 576 01b4 00000047 		.word	1191182336
 577              		.cfi_endproc
 578              	.LFE558:
 580              		.section	.text._ZN7daisysp8ReverbSc13InitDelayLineEPNS_10ReverbScDlEi,"ax",%progbits
 581              		.align	1
 582              		.global	_ZN7daisysp8ReverbSc13InitDelayLineEPNS_10ReverbScDlEi
 583              		.syntax unified
 584              		.thumb
ARM GAS  /var/folders/2p/02m_5p7958535cp2tpgps0400000gn/T//cck1TK5p.s 			page 13


 585              		.thumb_func
 587              	_ZN7daisysp8ReverbSc13InitDelayLineEPNS_10ReverbScDlEi:
 588              	.LFB559:
 112:DaisySP-LGPL-FX/reverb.cpp **** 
 113:DaisySP-LGPL-FX/reverb.cpp **** int ReverbSc::InitDelayLine(ReverbScDl *lp, int n)
 114:DaisySP-LGPL-FX/reverb.cpp **** {
 589              		.loc 1 114 1
 590              		.cfi_startproc
 591              		@ args = 0, pretend = 0, frame = 24
 592              		@ frame_needed = 1, uses_anonymous_args = 0
 593 0000 80B5     		push	{r7, lr}
 594              		.cfi_def_cfa_offset 8
 595              		.cfi_offset 7, -8
 596              		.cfi_offset 14, -4
 597 0002 86B0     		sub	sp, sp, #24
 598              		.cfi_def_cfa_offset 32
 599 0004 00AF     		add	r7, sp, #0
 600              		.cfi_def_cfa_register 7
 601 0006 F860     		str	r0, [r7, #12]
 602 0008 B960     		str	r1, [r7, #8]
 603 000a 7A60     		str	r2, [r7, #4]
 115:DaisySP-LGPL-FX/reverb.cpp ****     float read_pos;
 116:DaisySP-LGPL-FX/reverb.cpp ****     /* int     i; */
 117:DaisySP-LGPL-FX/reverb.cpp **** 
 118:DaisySP-LGPL-FX/reverb.cpp ****     /* calculate length of delay line */
 119:DaisySP-LGPL-FX/reverb.cpp ****     lp->buffer_size = DelayLineMaxSamples(sample_rate_, 1, n);
 604              		.loc 1 119 42
 605 000c FB68     		ldr	r3, [r7, #12]
 606 000e D3ED057A 		vldr.32	s15, [r3, #20]
 607 0012 7868     		ldr	r0, [r7, #4]
 608 0014 F7EE000A 		vmov.f32	s1, #1.0e+0
 609 0018 B0EE670A 		vmov.f32	s0, s15
 610 001c FFF7FEFF 		bl	_ZL19DelayLineMaxSamplesffi
 611 0020 0246     		mov	r2, r0
 612              		.loc 1 119 21
 613 0022 BB68     		ldr	r3, [r7, #8]
 614 0024 5A60     		str	r2, [r3, #4]
 120:DaisySP-LGPL-FX/reverb.cpp ****     lp->dummy       = 0;
 615              		.loc 1 120 21
 616 0026 BB68     		ldr	r3, [r7, #8]
 617 0028 0022     		movs	r2, #0
 618 002a 5A61     		str	r2, [r3, #20]
 121:DaisySP-LGPL-FX/reverb.cpp ****     lp->write_pos   = 0;
 619              		.loc 1 121 21
 620 002c BB68     		ldr	r3, [r7, #8]
 621 002e 0022     		movs	r2, #0
 622 0030 1A60     		str	r2, [r3]
 122:DaisySP-LGPL-FX/reverb.cpp ****     /* set random seed */
 123:DaisySP-LGPL-FX/reverb.cpp ****     lp->seed_val = (int)(kReverbParams[n][3] + 0.5);
 623              		.loc 1 123 44
 624 0032 484A     		ldr	r2, .L28
 625 0034 7B68     		ldr	r3, [r7, #4]
 626 0036 1B01     		lsls	r3, r3, #4
 627 0038 1344     		add	r3, r3, r2
 628 003a 0C33     		adds	r3, r3, #12
 629 003c D3ED007A 		vldr.32	s15, [r3]
 630 0040 B7EEE77A 		vcvt.f64.f32	d7, s15
ARM GAS  /var/folders/2p/02m_5p7958535cp2tpgps0400000gn/T//cck1TK5p.s 			page 14


 631              		.loc 1 123 46
 632 0044 B6EE006B 		vmov.f64	d6, #5.0e-1
 633 0048 37EE067B 		vadd.f64	d7, d7, d6
 634              		.loc 1 123 20
 635 004c FDEEC77B 		vcvt.s32.f64	s15, d7
 636 0050 17EE902A 		vmov	r2, s15	@ int
 637              		.loc 1 123 18
 638 0054 BB68     		ldr	r3, [r7, #8]
 639 0056 9A61     		str	r2, [r3, #24]
 124:DaisySP-LGPL-FX/reverb.cpp ****     /* set initial delay time */
 125:DaisySP-LGPL-FX/reverb.cpp ****     read_pos     = (float)lp->seed_val * kReverbParams[n][1] / 32768;
 640              		.loc 1 125 31
 641 0058 BB68     		ldr	r3, [r7, #8]
 642 005a 9B69     		ldr	r3, [r3, #24]
 643              		.loc 1 125 20
 644 005c 07EE903A 		vmov	s15, r3	@ int
 645 0060 B8EEE77A 		vcvt.f32.s32	s14, s15
 646              		.loc 1 125 60
 647 0064 3B4A     		ldr	r2, .L28
 648 0066 7B68     		ldr	r3, [r7, #4]
 649 0068 1B01     		lsls	r3, r3, #4
 650 006a 1344     		add	r3, r3, r2
 651 006c 0433     		adds	r3, r3, #4
 652 006e D3ED007A 		vldr.32	s15, [r3]
 653              		.loc 1 125 40
 654 0072 27EE277A 		vmul.f32	s14, s14, s15
 655              		.loc 1 125 18
 656 0076 DFED386A 		vldr.32	s13, .L28+4
 657 007a C7EE267A 		vdiv.f32	s15, s14, s13
 658 007e C7ED047A 		vstr.32	s15, [r7, #16]
 126:DaisySP-LGPL-FX/reverb.cpp ****     read_pos     = kReverbParams[n][0] + (read_pos * (float)i_pitch_mod_);
 659              		.loc 1 126 38
 660 0082 344A     		ldr	r2, .L28
 661 0084 7B68     		ldr	r3, [r7, #4]
 662 0086 1B01     		lsls	r3, r3, #4
 663 0088 1344     		add	r3, r3, r2
 664 008a 93ED007A 		vldr.32	s14, [r3]
 665              		.loc 1 126 61
 666 008e FB68     		ldr	r3, [r7, #12]
 667 0090 D3ED036A 		vldr.32	s13, [r3, #12]
 668              		.loc 1 126 52
 669 0094 D7ED047A 		vldr.32	s15, [r7, #16]
 670 0098 66EEA77A 		vmul.f32	s15, s13, s15
 671              		.loc 1 126 18
 672 009c 77EE277A 		vadd.f32	s15, s14, s15
 673 00a0 C7ED047A 		vstr.32	s15, [r7, #16]
 127:DaisySP-LGPL-FX/reverb.cpp ****     read_pos     = (float)lp->buffer_size - (read_pos * sample_rate_);
 674              		.loc 1 127 31
 675 00a4 BB68     		ldr	r3, [r7, #8]
 676 00a6 5B68     		ldr	r3, [r3, #4]
 677              		.loc 1 127 20
 678 00a8 07EE903A 		vmov	s15, r3	@ int
 679 00ac B8EEE77A 		vcvt.f32.s32	s14, s15
 680              		.loc 1 127 57
 681 00b0 FB68     		ldr	r3, [r7, #12]
 682 00b2 D3ED056A 		vldr.32	s13, [r3, #20]
 683              		.loc 1 127 55
ARM GAS  /var/folders/2p/02m_5p7958535cp2tpgps0400000gn/T//cck1TK5p.s 			page 15


 684 00b6 D7ED047A 		vldr.32	s15, [r7, #16]
 685 00ba 66EEA77A 		vmul.f32	s15, s13, s15
 686              		.loc 1 127 18
 687 00be 77EE677A 		vsub.f32	s15, s14, s15
 688 00c2 C7ED047A 		vstr.32	s15, [r7, #16]
 128:DaisySP-LGPL-FX/reverb.cpp ****     lp->read_pos = (int)read_pos;
 689              		.loc 1 128 20
 690 00c6 D7ED047A 		vldr.32	s15, [r7, #16]
 691 00ca FDEEE77A 		vcvt.s32.f32	s15, s15
 692 00ce 17EE902A 		vmov	r2, s15	@ int
 693              		.loc 1 128 18
 694 00d2 BB68     		ldr	r3, [r7, #8]
 695 00d4 9A60     		str	r2, [r3, #8]
 129:DaisySP-LGPL-FX/reverb.cpp ****     read_pos     = (read_pos - (float)lp->read_pos) * (float)DELAYPOS_SCALE;
 696              		.loc 1 129 43
 697 00d6 BB68     		ldr	r3, [r7, #8]
 698 00d8 9B68     		ldr	r3, [r3, #8]
 699              		.loc 1 129 32
 700 00da 07EE903A 		vmov	s15, r3	@ int
 701 00de F8EEE77A 		vcvt.f32.s32	s15, s15
 702              		.loc 1 129 30
 703 00e2 97ED047A 		vldr.32	s14, [r7, #16]
 704 00e6 77EE677A 		vsub.f32	s15, s14, s15
 705              		.loc 1 129 18
 706 00ea 9FED1C7A 		vldr.32	s14, .L28+8
 707 00ee 67EE877A 		vmul.f32	s15, s15, s14
 708 00f2 C7ED047A 		vstr.32	s15, [r7, #16]
 130:DaisySP-LGPL-FX/reverb.cpp ****     lp->read_pos_frac = (int)(read_pos + 0.5);
 709              		.loc 1 130 31
 710 00f6 D7ED047A 		vldr.32	s15, [r7, #16]
 711 00fa B7EEE77A 		vcvt.f64.f32	d7, s15
 712              		.loc 1 130 40
 713 00fe B6EE006B 		vmov.f64	d6, #5.0e-1
 714 0102 37EE067B 		vadd.f64	d7, d7, d6
 715              		.loc 1 130 25
 716 0106 FDEEC77B 		vcvt.s32.f64	s15, d7
 717 010a 17EE902A 		vmov	r2, s15	@ int
 718              		.loc 1 130 23
 719 010e BB68     		ldr	r3, [r7, #8]
 720 0110 DA60     		str	r2, [r3, #12]
 131:DaisySP-LGPL-FX/reverb.cpp ****     /* initialise first random line segment */
 132:DaisySP-LGPL-FX/reverb.cpp ****     NextRandomLineseg(lp, n);
 721              		.loc 1 132 22
 722 0112 7A68     		ldr	r2, [r7, #4]
 723 0114 B968     		ldr	r1, [r7, #8]
 724 0116 F868     		ldr	r0, [r7, #12]
 725 0118 FFF7FEFF 		bl	_ZN7daisysp8ReverbSc17NextRandomLinesegEPNS_10ReverbScDlEi
 133:DaisySP-LGPL-FX/reverb.cpp ****     /* clear delay line to zero */
 134:DaisySP-LGPL-FX/reverb.cpp ****     lp->filter_state = 0.0;
 726              		.loc 1 134 22
 727 011c BB68     		ldr	r3, [r7, #8]
 728 011e 4FF00002 		mov	r2, #0
 729 0122 1A62     		str	r2, [r3, #32]	@ float
 730              	.LBB2:
 135:DaisySP-LGPL-FX/reverb.cpp ****     for(int i = 0; i < lp->buffer_size; i++)
 731              		.loc 1 135 13
 732 0124 0023     		movs	r3, #0
ARM GAS  /var/folders/2p/02m_5p7958535cp2tpgps0400000gn/T//cck1TK5p.s 			page 16


 733 0126 7B61     		str	r3, [r7, #20]
 734              	.L26:
 735              		.loc 1 135 28 discriminator 3
 736 0128 BB68     		ldr	r3, [r7, #8]
 737 012a 5B68     		ldr	r3, [r3, #4]
 738              		.loc 1 135 22 discriminator 3
 739 012c 7A69     		ldr	r2, [r7, #20]
 740 012e 9A42     		cmp	r2, r3
 741 0130 0BDA     		bge	.L25
 136:DaisySP-LGPL-FX/reverb.cpp ****     {
 137:DaisySP-LGPL-FX/reverb.cpp ****         lp->buf[i] = 0;
 742              		.loc 1 137 13 discriminator 2
 743 0132 BB68     		ldr	r3, [r7, #8]
 744 0134 5A6A     		ldr	r2, [r3, #36]
 745              		.loc 1 137 17 discriminator 2
 746 0136 7B69     		ldr	r3, [r7, #20]
 747              		.loc 1 137 18 discriminator 2
 748 0138 9B00     		lsls	r3, r3, #2
 749 013a 1344     		add	r3, r3, r2
 750              		.loc 1 137 20 discriminator 2
 751 013c 4FF00002 		mov	r2, #0
 752 0140 1A60     		str	r2, [r3]	@ float
 135:DaisySP-LGPL-FX/reverb.cpp ****     for(int i = 0; i < lp->buffer_size; i++)
 753              		.loc 1 135 5 discriminator 2
 754 0142 7B69     		ldr	r3, [r7, #20]
 755 0144 0133     		adds	r3, r3, #1
 756 0146 7B61     		str	r3, [r7, #20]
 757 0148 EEE7     		b	.L26
 758              	.L25:
 759              	.LBE2:
 138:DaisySP-LGPL-FX/reverb.cpp ****     }
 139:DaisySP-LGPL-FX/reverb.cpp ****     return REVSC_OK;
 760              		.loc 1 139 12
 761 014a 0023     		movs	r3, #0
 140:DaisySP-LGPL-FX/reverb.cpp **** }
 762              		.loc 1 140 1
 763 014c 1846     		mov	r0, r3
 764 014e 1837     		adds	r7, r7, #24
 765              		.cfi_def_cfa_offset 8
 766 0150 BD46     		mov	sp, r7
 767              		.cfi_def_cfa_register 13
 768              		@ sp needed
 769 0152 80BD     		pop	{r7, pc}
 770              	.L29:
 771              		.align	2
 772              	.L28:
 773 0154 00000000 		.word	_ZL13kReverbParams
 774 0158 00000047 		.word	1191182336
 775 015c 0000804D 		.word	1300234240
 776              		.cfi_endproc
 777              	.LFE559:
 779              		.section	.text._ZN7daisysp8ReverbSc7ProcessERKfS2_PfS3_,"ax",%progbits
 780              		.align	1
 781              		.global	_ZN7daisysp8ReverbSc7ProcessERKfS2_PfS3_
 782              		.syntax unified
 783              		.thumb
 784              		.thumb_func
ARM GAS  /var/folders/2p/02m_5p7958535cp2tpgps0400000gn/T//cck1TK5p.s 			page 17


 786              	_ZN7daisysp8ReverbSc7ProcessERKfS2_PfS3_:
 787              	.LFB560:
 141:DaisySP-LGPL-FX/reverb.cpp **** 
 142:DaisySP-LGPL-FX/reverb.cpp **** int ReverbSc::Process(const float &in1,
 143:DaisySP-LGPL-FX/reverb.cpp ****                       const float &in2,
 144:DaisySP-LGPL-FX/reverb.cpp ****                       float *      out1,
 145:DaisySP-LGPL-FX/reverb.cpp ****                       float *      out2)
 146:DaisySP-LGPL-FX/reverb.cpp **** {
 788              		.loc 1 146 1
 789              		.cfi_startproc
 790              		@ args = 4, pretend = 0, frame = 88
 791              		@ frame_needed = 1, uses_anonymous_args = 0
 792 0000 80B5     		push	{r7, lr}
 793              		.cfi_def_cfa_offset 8
 794              		.cfi_offset 7, -8
 795              		.cfi_offset 14, -4
 796 0002 96B0     		sub	sp, sp, #88
 797              		.cfi_def_cfa_offset 96
 798 0004 00AF     		add	r7, sp, #0
 799              		.cfi_def_cfa_register 7
 800 0006 F860     		str	r0, [r7, #12]
 801 0008 B960     		str	r1, [r7, #8]
 802 000a 7A60     		str	r2, [r7, #4]
 803 000c 3B60     		str	r3, [r7]
 147:DaisySP-LGPL-FX/reverb.cpp ****     float       a_in_l, a_in_r, a_out_l, a_out_r;
 148:DaisySP-LGPL-FX/reverb.cpp ****     float       vm1, v0, v1, v2, am1, a0, a1, a2, frac;
 149:DaisySP-LGPL-FX/reverb.cpp ****     ReverbScDl *lp;
 150:DaisySP-LGPL-FX/reverb.cpp ****     int         read_pos;
 151:DaisySP-LGPL-FX/reverb.cpp ****     uint32_t    n;
 152:DaisySP-LGPL-FX/reverb.cpp ****     int         buffer_size; /* Local copy */
 153:DaisySP-LGPL-FX/reverb.cpp ****     float       damp_fact = damp_fact_;
 804              		.loc 1 153 17
 805 000e FB68     		ldr	r3, [r7, #12]
 806 0010 9B69     		ldr	r3, [r3, #24]	@ float
 807 0012 3B63     		str	r3, [r7, #48]	@ float
 154:DaisySP-LGPL-FX/reverb.cpp **** 
 155:DaisySP-LGPL-FX/reverb.cpp ****     //if (init_done_ <= 0) return REVSC_NOT_OK;
 156:DaisySP-LGPL-FX/reverb.cpp ****     if(init_done_ <= 0)
 808              		.loc 1 156 8
 809 0014 FB68     		ldr	r3, [r7, #12]
 810 0016 1B6A     		ldr	r3, [r3, #32]
 811              		.loc 1 156 5
 812 0018 002B     		cmp	r3, #0
 813 001a 01DC     		bgt	.L31
 157:DaisySP-LGPL-FX/reverb.cpp ****         return REVSC_NOT_OK;
 814              		.loc 1 157 16
 815 001c 0123     		movs	r3, #1
 816 001e 52E2     		b	.L32
 817              	.L31:
 158:DaisySP-LGPL-FX/reverb.cpp **** 
 159:DaisySP-LGPL-FX/reverb.cpp ****     /* calculate tone filter coefficient if frequency changed */
 160:DaisySP-LGPL-FX/reverb.cpp ****     if(lpfreq_ != prv_lpfreq_)
 818              		.loc 1 160 8
 819 0020 FB68     		ldr	r3, [r7, #12]
 820 0022 93ED017A 		vldr.32	s14, [r3, #4]
 821              		.loc 1 160 19
 822 0026 FB68     		ldr	r3, [r7, #12]
ARM GAS  /var/folders/2p/02m_5p7958535cp2tpgps0400000gn/T//cck1TK5p.s 			page 18


 823 0028 D3ED077A 		vldr.32	s15, [r3, #28]
 824              		.loc 1 160 5
 825 002c B4EE677A 		vcmp.f32	s14, s15
 826 0030 F1EE10FA 		vmrs	APSR_nzcv, FPSCR
 827 0034 33D0     		beq	.L33
 161:DaisySP-LGPL-FX/reverb.cpp ****     {
 162:DaisySP-LGPL-FX/reverb.cpp ****         prv_lpfreq_ = lpfreq_;
 828              		.loc 1 162 23
 829 0036 FB68     		ldr	r3, [r7, #12]
 830 0038 5A68     		ldr	r2, [r3, #4]	@ float
 831              		.loc 1 162 21
 832 003a FB68     		ldr	r3, [r7, #12]
 833 003c DA61     		str	r2, [r3, #28]	@ float
 163:DaisySP-LGPL-FX/reverb.cpp ****         damp_fact
 164:DaisySP-LGPL-FX/reverb.cpp ****             = 2.0f - cosf(prv_lpfreq_ * (2.0f * (float)M_PI) / sample_rate_);
 834              		.loc 1 164 27
 835 003e FB68     		ldr	r3, [r7, #12]
 836 0040 D3ED077A 		vldr.32	s15, [r3, #28]
 837              		.loc 1 164 39
 838 0044 9FEDAA7A 		vldr.32	s14, .L52+8
 839 0048 27EE877A 		vmul.f32	s14, s15, s14
 840              		.loc 1 164 64
 841 004c FB68     		ldr	r3, [r7, #12]
 842 004e D3ED057A 		vldr.32	s15, [r3, #20]
 843              		.loc 1 164 26
 844 0052 C7EE276A 		vdiv.f32	s13, s14, s15
 845 0056 B0EE660A 		vmov.f32	s0, s13
 846 005a FFF7FEFF 		bl	cosf
 847 005e F0EE407A 		vmov.f32	s15, s0
 848              		.loc 1 164 13
 849 0062 B0EE007A 		vmov.f32	s14, #2.0e+0
 850 0066 77EE677A 		vsub.f32	s15, s14, s15
 851 006a C7ED0C7A 		vstr.32	s15, [r7, #48]
 165:DaisySP-LGPL-FX/reverb.cpp ****         damp_fact = damp_fact_
 166:DaisySP-LGPL-FX/reverb.cpp ****             = damp_fact - sqrtf(damp_fact * damp_fact - 1.0f);
 852              		.loc 1 166 43
 853 006e D7ED0C7A 		vldr.32	s15, [r7, #48]
 854 0072 67EEA77A 		vmul.f32	s15, s15, s15
 855              		.loc 1 166 32
 856 0076 B7EE007A 		vmov.f32	s14, #1.0e+0
 857 007a 77EEC77A 		vsub.f32	s15, s15, s14
 858 007e B0EE670A 		vmov.f32	s0, s15
 859 0082 FFF7FEFF 		bl	sqrtf
 860 0086 B0EE407A 		vmov.f32	s14, s0
 861              		.loc 1 166 25
 862 008a D7ED0C7A 		vldr.32	s15, [r7, #48]
 863 008e 77EEC77A 		vsub.f32	s15, s15, s14
 864              		.loc 1 166 13
 865 0092 FB68     		ldr	r3, [r7, #12]
 866 0094 C3ED067A 		vstr.32	s15, [r3, #24]
 165:DaisySP-LGPL-FX/reverb.cpp ****         damp_fact = damp_fact_
 867              		.loc 1 165 19
 868 0098 FB68     		ldr	r3, [r7, #12]
 869 009a 9B69     		ldr	r3, [r3, #24]	@ float
 870 009c 3B63     		str	r3, [r7, #48]	@ float
 871              	.L33:
 167:DaisySP-LGPL-FX/reverb.cpp ****     }
ARM GAS  /var/folders/2p/02m_5p7958535cp2tpgps0400000gn/T//cck1TK5p.s 			page 19


 168:DaisySP-LGPL-FX/reverb.cpp **** 
 169:DaisySP-LGPL-FX/reverb.cpp ****     /* calculate "resultant junction pressure" and mix to input signals */
 170:DaisySP-LGPL-FX/reverb.cpp **** 
 171:DaisySP-LGPL-FX/reverb.cpp ****     a_in_l = a_out_l = a_out_r = 0.0;
 872              		.loc 1 171 32
 873 009e 4FF00003 		mov	r3, #0
 874 00a2 FB64     		str	r3, [r7, #76]	@ float
 875              		.loc 1 171 22
 876 00a4 FB6C     		ldr	r3, [r7, #76]	@ float
 877 00a6 3B65     		str	r3, [r7, #80]	@ float
 878              		.loc 1 171 12
 879 00a8 3B6D     		ldr	r3, [r7, #80]	@ float
 880 00aa 7B65     		str	r3, [r7, #84]	@ float
 172:DaisySP-LGPL-FX/reverb.cpp ****     for(n = 0; n < 8; n++)
 881              		.loc 1 172 11
 882 00ac 0023     		movs	r3, #0
 883 00ae 7B63     		str	r3, [r7, #52]
 884              	.L35:
 885              		.loc 1 172 18 discriminator 3
 886 00b0 7B6B     		ldr	r3, [r7, #52]
 887 00b2 072B     		cmp	r3, #7
 888 00b4 13D8     		bhi	.L34
 173:DaisySP-LGPL-FX/reverb.cpp ****     {
 174:DaisySP-LGPL-FX/reverb.cpp ****         a_in_l += delay_lines_[n].filter_state;
 889              		.loc 1 174 35 discriminator 2
 890 00b6 F968     		ldr	r1, [r7, #12]
 891 00b8 7A6B     		ldr	r2, [r7, #52]
 892 00ba 1346     		mov	r3, r2
 893 00bc 9B00     		lsls	r3, r3, #2
 894 00be 1344     		add	r3, r3, r2
 895 00c0 DB00     		lsls	r3, r3, #3
 896 00c2 0B44     		add	r3, r3, r1
 897 00c4 4433     		adds	r3, r3, #68
 898 00c6 D3ED007A 		vldr.32	s15, [r3]
 899              		.loc 1 174 16 discriminator 2
 900 00ca 97ED157A 		vldr.32	s14, [r7, #84]
 901 00ce 77EE277A 		vadd.f32	s15, s14, s15
 902 00d2 C7ED157A 		vstr.32	s15, [r7, #84]
 172:DaisySP-LGPL-FX/reverb.cpp ****     for(n = 0; n < 8; n++)
 903              		.loc 1 172 5 discriminator 2
 904 00d6 7B6B     		ldr	r3, [r7, #52]
 905 00d8 0133     		adds	r3, r3, #1
 906 00da 7B63     		str	r3, [r7, #52]
 907 00dc E8E7     		b	.L35
 908              	.L34:
 175:DaisySP-LGPL-FX/reverb.cpp ****     }
 176:DaisySP-LGPL-FX/reverb.cpp ****     a_in_l *= kJpScale;
 909              		.loc 1 176 12
 910 00de D7ED157A 		vldr.32	s15, [r7, #84]
 911 00e2 B5EE007A 		vmov.f32	s14, #2.5e-1
 912 00e6 67EE877A 		vmul.f32	s15, s15, s14
 913 00ea C7ED157A 		vstr.32	s15, [r7, #84]
 177:DaisySP-LGPL-FX/reverb.cpp ****     a_in_r = a_in_l + in2;
 914              		.loc 1 177 23
 915 00ee 7B68     		ldr	r3, [r7, #4]
 916 00f0 D3ED007A 		vldr.32	s15, [r3]
 917              		.loc 1 177 12
ARM GAS  /var/folders/2p/02m_5p7958535cp2tpgps0400000gn/T//cck1TK5p.s 			page 20


 918 00f4 97ED157A 		vldr.32	s14, [r7, #84]
 919 00f8 77EE277A 		vadd.f32	s15, s14, s15
 920 00fc C7ED0B7A 		vstr.32	s15, [r7, #44]
 178:DaisySP-LGPL-FX/reverb.cpp ****     a_in_l = a_in_l + in1;
 921              		.loc 1 178 23
 922 0100 BB68     		ldr	r3, [r7, #8]
 923 0102 D3ED007A 		vldr.32	s15, [r3]
 924              		.loc 1 178 12
 925 0106 97ED157A 		vldr.32	s14, [r7, #84]
 926 010a 77EE277A 		vadd.f32	s15, s14, s15
 927 010e C7ED157A 		vstr.32	s15, [r7, #84]
 179:DaisySP-LGPL-FX/reverb.cpp **** 
 180:DaisySP-LGPL-FX/reverb.cpp ****     /* loop through all delay lines */
 181:DaisySP-LGPL-FX/reverb.cpp **** 
 182:DaisySP-LGPL-FX/reverb.cpp ****     for(n = 0; n < 8; n++)
 928              		.loc 1 182 11
 929 0112 0023     		movs	r3, #0
 930 0114 7B63     		str	r3, [r7, #52]
 931              	.L51:
 932              		.loc 1 182 18 discriminator 1
 933 0116 7B6B     		ldr	r3, [r7, #52]
 934 0118 072B     		cmp	r3, #7
 935 011a 00F2C181 		bhi	.L36
 183:DaisySP-LGPL-FX/reverb.cpp ****     {
 184:DaisySP-LGPL-FX/reverb.cpp ****         lp          = &delay_lines_[n];
 936              		.loc 1 184 21
 937 011e 7A6B     		ldr	r2, [r7, #52]
 938 0120 1346     		mov	r3, r2
 939 0122 9B00     		lsls	r3, r3, #2
 940 0124 1344     		add	r3, r3, r2
 941 0126 DB00     		lsls	r3, r3, #3
 942 0128 2033     		adds	r3, r3, #32
 943 012a FA68     		ldr	r2, [r7, #12]
 944 012c 1344     		add	r3, r3, r2
 945 012e 0433     		adds	r3, r3, #4
 946 0130 BB62     		str	r3, [r7, #40]
 185:DaisySP-LGPL-FX/reverb.cpp ****         buffer_size = lp->buffer_size;
 947              		.loc 1 185 21
 948 0132 BB6A     		ldr	r3, [r7, #40]
 949 0134 5B68     		ldr	r3, [r3, #4]
 950 0136 7B62     		str	r3, [r7, #36]
 186:DaisySP-LGPL-FX/reverb.cpp **** 
 187:DaisySP-LGPL-FX/reverb.cpp ****         /* send input signal and feedback to delay line */
 188:DaisySP-LGPL-FX/reverb.cpp **** 
 189:DaisySP-LGPL-FX/reverb.cpp ****         lp->buf[lp->write_pos]
 190:DaisySP-LGPL-FX/reverb.cpp ****             = (float)((n & 1 ? a_in_r : a_in_l) - lp->filter_state);
 951              		.loc 1 190 26
 952 0138 7B6B     		ldr	r3, [r7, #52]
 953 013a 03F00103 		and	r3, r3, #1
 954              		.loc 1 190 30
 955 013e 002B     		cmp	r3, #0
 956 0140 02D0     		beq	.L37
 957              		.loc 1 190 30 is_stmt 0 discriminator 1
 958 0142 D7ED0B7A 		vldr.32	s15, [r7, #44]
 959 0146 01E0     		b	.L38
 960              	.L37:
 961              		.loc 1 190 30 discriminator 2
ARM GAS  /var/folders/2p/02m_5p7958535cp2tpgps0400000gn/T//cck1TK5p.s 			page 21


 962 0148 D7ED157A 		vldr.32	s15, [r7, #84]
 963              	.L38:
 964              		.loc 1 190 55 is_stmt 1 discriminator 4
 965 014c BB6A     		ldr	r3, [r7, #40]
 966 014e 93ED087A 		vldr.32	s14, [r3, #32]
 189:DaisySP-LGPL-FX/reverb.cpp ****             = (float)((n & 1 ? a_in_r : a_in_l) - lp->filter_state);
 967              		.loc 1 189 13 discriminator 4
 968 0152 BB6A     		ldr	r3, [r7, #40]
 969 0154 5A6A     		ldr	r2, [r3, #36]
 189:DaisySP-LGPL-FX/reverb.cpp ****             = (float)((n & 1 ? a_in_r : a_in_l) - lp->filter_state);
 970              		.loc 1 189 21 discriminator 4
 971 0156 BB6A     		ldr	r3, [r7, #40]
 972 0158 1B68     		ldr	r3, [r3]
 189:DaisySP-LGPL-FX/reverb.cpp ****             = (float)((n & 1 ? a_in_r : a_in_l) - lp->filter_state);
 973              		.loc 1 189 30 discriminator 4
 974 015a 9B00     		lsls	r3, r3, #2
 975 015c 1344     		add	r3, r3, r2
 976              		.loc 1 190 49 discriminator 4
 977 015e 77EEC77A 		vsub.f32	s15, s15, s14
 978              		.loc 1 190 13 discriminator 4
 979 0162 C3ED007A 		vstr.32	s15, [r3]
 191:DaisySP-LGPL-FX/reverb.cpp ****         if(++lp->write_pos >= buffer_size)
 980              		.loc 1 191 18 discriminator 4
 981 0166 BB6A     		ldr	r3, [r7, #40]
 982 0168 1B68     		ldr	r3, [r3]
 983              		.loc 1 191 12 discriminator 4
 984 016a 5A1C     		adds	r2, r3, #1
 985              		.loc 1 191 28 discriminator 4
 986 016c BB6A     		ldr	r3, [r7, #40]
 987 016e 1A60     		str	r2, [r3]
 988              		.loc 1 191 18 discriminator 4
 989 0170 BB6A     		ldr	r3, [r7, #40]
 990 0172 1B68     		ldr	r3, [r3]
 991              		.loc 1 191 28 discriminator 4
 992 0174 7A6A     		ldr	r2, [r7, #36]
 993 0176 9A42     		cmp	r2, r3
 994 0178 D4BF     		ite	le
 995 017a 0123     		movle	r3, #1
 996 017c 0023     		movgt	r3, #0
 997 017e DBB2     		uxtb	r3, r3
 998              		.loc 1 191 9 discriminator 4
 999 0180 002B     		cmp	r3, #0
 1000 0182 05D0     		beq	.L39
 192:DaisySP-LGPL-FX/reverb.cpp ****         {
 193:DaisySP-LGPL-FX/reverb.cpp ****             lp->write_pos -= buffer_size;
 1001              		.loc 1 193 27
 1002 0184 BB6A     		ldr	r3, [r7, #40]
 1003 0186 1A68     		ldr	r2, [r3]
 1004 0188 7B6A     		ldr	r3, [r7, #36]
 1005 018a D21A     		subs	r2, r2, r3
 1006 018c BB6A     		ldr	r3, [r7, #40]
 1007 018e 1A60     		str	r2, [r3]
 1008              	.L39:
 194:DaisySP-LGPL-FX/reverb.cpp ****         }
 195:DaisySP-LGPL-FX/reverb.cpp **** 
 196:DaisySP-LGPL-FX/reverb.cpp ****         /* read from delay line with cubic interpolation */
 197:DaisySP-LGPL-FX/reverb.cpp **** 
ARM GAS  /var/folders/2p/02m_5p7958535cp2tpgps0400000gn/T//cck1TK5p.s 			page 22


 198:DaisySP-LGPL-FX/reverb.cpp ****         if(lp->read_pos_frac >= DELAYPOS_SCALE)
 1009              		.loc 1 198 16
 1010 0190 BB6A     		ldr	r3, [r7, #40]
 1011 0192 DB68     		ldr	r3, [r3, #12]
 1012              		.loc 1 198 9
 1013 0194 B3F1805F 		cmp	r3, #268435456
 1014 0198 0DDB     		blt	.L40
 199:DaisySP-LGPL-FX/reverb.cpp ****         {
 200:DaisySP-LGPL-FX/reverb.cpp ****             lp->read_pos += (lp->read_pos_frac >> DELAYPOS_SHIFT);
 1015              		.loc 1 200 26
 1016 019a BB6A     		ldr	r3, [r7, #40]
 1017 019c 9A68     		ldr	r2, [r3, #8]
 1018              		.loc 1 200 34
 1019 019e BB6A     		ldr	r3, [r7, #40]
 1020 01a0 DB68     		ldr	r3, [r3, #12]
 1021              		.loc 1 200 48
 1022 01a2 1B17     		asrs	r3, r3, #28
 1023              		.loc 1 200 26
 1024 01a4 1A44     		add	r2, r2, r3
 1025 01a6 BB6A     		ldr	r3, [r7, #40]
 1026 01a8 9A60     		str	r2, [r3, #8]
 201:DaisySP-LGPL-FX/reverb.cpp ****             lp->read_pos_frac &= DELAYPOS_MASK;
 1027              		.loc 1 201 31
 1028 01aa BB6A     		ldr	r3, [r7, #40]
 1029 01ac DB68     		ldr	r3, [r3, #12]
 1030 01ae 23F07042 		bic	r2, r3, #-268435456
 1031 01b2 BB6A     		ldr	r3, [r7, #40]
 1032 01b4 DA60     		str	r2, [r3, #12]
 1033              	.L40:
 202:DaisySP-LGPL-FX/reverb.cpp ****         }
 203:DaisySP-LGPL-FX/reverb.cpp ****         if(lp->read_pos >= buffer_size)
 1034              		.loc 1 203 16
 1035 01b6 BB6A     		ldr	r3, [r7, #40]
 1036 01b8 9B68     		ldr	r3, [r3, #8]
 1037              		.loc 1 203 9
 1038 01ba 7A6A     		ldr	r2, [r7, #36]
 1039 01bc 9A42     		cmp	r2, r3
 1040 01be 05DC     		bgt	.L41
 204:DaisySP-LGPL-FX/reverb.cpp ****             lp->read_pos -= buffer_size;
 1041              		.loc 1 204 26
 1042 01c0 BB6A     		ldr	r3, [r7, #40]
 1043 01c2 9A68     		ldr	r2, [r3, #8]
 1044 01c4 7B6A     		ldr	r3, [r7, #36]
 1045 01c6 D21A     		subs	r2, r2, r3
 1046 01c8 BB6A     		ldr	r3, [r7, #40]
 1047 01ca 9A60     		str	r2, [r3, #8]
 1048              	.L41:
 205:DaisySP-LGPL-FX/reverb.cpp ****         read_pos = lp->read_pos;
 1049              		.loc 1 205 18
 1050 01cc BB6A     		ldr	r3, [r7, #40]
 1051 01ce 9B68     		ldr	r3, [r3, #8]
 1052 01d0 BB63     		str	r3, [r7, #56]
 206:DaisySP-LGPL-FX/reverb.cpp ****         frac     = (float)lp->read_pos_frac * (1.0 / (float)DELAYPOS_SCALE);
 1053              		.loc 1 206 31
 1054 01d2 BB6A     		ldr	r3, [r7, #40]
 1055 01d4 DB68     		ldr	r3, [r3, #12]
 1056              		.loc 1 206 20
ARM GAS  /var/folders/2p/02m_5p7958535cp2tpgps0400000gn/T//cck1TK5p.s 			page 23


 1057 01d6 07EE903A 		vmov	s15, r3	@ int
 1058 01da F8EEE77A 		vcvt.f32.s32	s15, s15
 1059              		.loc 1 206 18
 1060 01de 9FED457A 		vldr.32	s14, .L52+12
 1061 01e2 67EE877A 		vmul.f32	s15, s15, s14
 1062 01e6 C7ED087A 		vstr.32	s15, [r7, #32]
 207:DaisySP-LGPL-FX/reverb.cpp **** 
 208:DaisySP-LGPL-FX/reverb.cpp ****         /* calculate interpolation coefficients */
 209:DaisySP-LGPL-FX/reverb.cpp **** 
 210:DaisySP-LGPL-FX/reverb.cpp ****         a2 = frac * frac;
 1063              		.loc 1 210 12
 1064 01ea D7ED087A 		vldr.32	s15, [r7, #32]
 1065 01ee 67EEA77A 		vmul.f32	s15, s15, s15
 1066 01f2 C7ED077A 		vstr.32	s15, [r7, #28]
 211:DaisySP-LGPL-FX/reverb.cpp ****         a2 -= 1.0;
 1067              		.loc 1 211 12
 1068 01f6 D7ED077A 		vldr.32	s15, [r7, #28]
 1069 01fa B7EE007A 		vmov.f32	s14, #1.0e+0
 1070 01fe 77EEC77A 		vsub.f32	s15, s15, s14
 1071 0202 C7ED077A 		vstr.32	s15, [r7, #28]
 212:DaisySP-LGPL-FX/reverb.cpp ****         a2 *= (1.0 / 6.0);
 1072              		.loc 1 212 12
 1073 0206 D7ED077A 		vldr.32	s15, [r7, #28]
 1074 020a B7EEE77A 		vcvt.f64.f32	d7, s15
 1075 020e 9FED366B 		vldr.64	d6, .L52
 1076 0212 27EE067B 		vmul.f64	d7, d7, d6
 1077 0216 F7EEC77B 		vcvt.f32.f64	s15, d7
 1078 021a C7ED077A 		vstr.32	s15, [r7, #28]
 213:DaisySP-LGPL-FX/reverb.cpp ****         a1 = frac;
 1079              		.loc 1 213 12
 1080 021e 3B6A     		ldr	r3, [r7, #32]	@ float
 1081 0220 BB61     		str	r3, [r7, #24]	@ float
 214:DaisySP-LGPL-FX/reverb.cpp ****         a1 += 1.0;
 1082              		.loc 1 214 12
 1083 0222 D7ED067A 		vldr.32	s15, [r7, #24]
 1084 0226 B7EE007A 		vmov.f32	s14, #1.0e+0
 1085 022a 77EE877A 		vadd.f32	s15, s15, s14
 1086 022e C7ED067A 		vstr.32	s15, [r7, #24]
 215:DaisySP-LGPL-FX/reverb.cpp ****         a1 *= 0.5;
 1087              		.loc 1 215 12
 1088 0232 D7ED067A 		vldr.32	s15, [r7, #24]
 1089 0236 B6EE007A 		vmov.f32	s14, #5.0e-1
 1090 023a 67EE877A 		vmul.f32	s15, s15, s14
 1091 023e C7ED067A 		vstr.32	s15, [r7, #24]
 216:DaisySP-LGPL-FX/reverb.cpp ****         am1 = a1 - 1.0;
 1092              		.loc 1 216 13
 1093 0242 D7ED067A 		vldr.32	s15, [r7, #24]
 1094 0246 B7EE007A 		vmov.f32	s14, #1.0e+0
 1095 024a 77EEC77A 		vsub.f32	s15, s15, s14
 1096 024e C7ED057A 		vstr.32	s15, [r7, #20]
 217:DaisySP-LGPL-FX/reverb.cpp ****         a0  = 3.0 * a2;
 1097              		.loc 1 217 13
 1098 0252 D7ED077A 		vldr.32	s15, [r7, #28]
 1099 0256 B0EE087A 		vmov.f32	s14, #3.0e+0
 1100 025a 67EE877A 		vmul.f32	s15, s15, s14
 1101 025e C7ED047A 		vstr.32	s15, [r7, #16]
 218:DaisySP-LGPL-FX/reverb.cpp ****         a1 -= a0;
ARM GAS  /var/folders/2p/02m_5p7958535cp2tpgps0400000gn/T//cck1TK5p.s 			page 24


 1102              		.loc 1 218 12
 1103 0262 97ED067A 		vldr.32	s14, [r7, #24]
 1104 0266 D7ED047A 		vldr.32	s15, [r7, #16]
 1105 026a 77EE677A 		vsub.f32	s15, s14, s15
 1106 026e C7ED067A 		vstr.32	s15, [r7, #24]
 219:DaisySP-LGPL-FX/reverb.cpp ****         am1 -= a2;
 1107              		.loc 1 219 13
 1108 0272 97ED057A 		vldr.32	s14, [r7, #20]
 1109 0276 D7ED077A 		vldr.32	s15, [r7, #28]
 1110 027a 77EE677A 		vsub.f32	s15, s14, s15
 1111 027e C7ED057A 		vstr.32	s15, [r7, #20]
 220:DaisySP-LGPL-FX/reverb.cpp ****         a0 -= frac;
 1112              		.loc 1 220 12
 1113 0282 97ED047A 		vldr.32	s14, [r7, #16]
 1114 0286 D7ED087A 		vldr.32	s15, [r7, #32]
 1115 028a 77EE677A 		vsub.f32	s15, s14, s15
 1116 028e C7ED047A 		vstr.32	s15, [r7, #16]
 221:DaisySP-LGPL-FX/reverb.cpp **** 
 222:DaisySP-LGPL-FX/reverb.cpp ****         /* read four samples for interpolation */
 223:DaisySP-LGPL-FX/reverb.cpp **** 
 224:DaisySP-LGPL-FX/reverb.cpp ****         if(read_pos > 0 && read_pos < (buffer_size - 2))
 1117              		.loc 1 224 9
 1118 0292 BB6B     		ldr	r3, [r7, #56]
 1119 0294 002B     		cmp	r3, #0
 1120 0296 31DD     		ble	.L42
 1121              		.loc 1 224 52 discriminator 1
 1122 0298 7B6A     		ldr	r3, [r7, #36]
 1123 029a 023B     		subs	r3, r3, #2
 1124              		.loc 1 224 25 discriminator 1
 1125 029c BA6B     		ldr	r2, [r7, #56]
 1126 029e 9A42     		cmp	r2, r3
 1127 02a0 2CDA     		bge	.L42
 225:DaisySP-LGPL-FX/reverb.cpp ****         {
 226:DaisySP-LGPL-FX/reverb.cpp ****             vm1 = (float)(lp->buf[read_pos - 1]);
 1128              		.loc 1 226 31
 1129 02a2 BB6A     		ldr	r3, [r7, #40]
 1130 02a4 5A6A     		ldr	r2, [r3, #36]
 1131              		.loc 1 226 47
 1132 02a6 B96B     		ldr	r1, [r7, #56]
 1133 02a8 6FF04043 		mvn	r3, #-1073741824
 1134 02ac 0B44     		add	r3, r3, r1
 1135 02ae 9B00     		lsls	r3, r3, #2
 1136 02b0 1344     		add	r3, r3, r2
 1137              		.loc 1 226 17
 1138 02b2 1B68     		ldr	r3, [r3]	@ float
 1139 02b4 BB64     		str	r3, [r7, #72]	@ float
 227:DaisySP-LGPL-FX/reverb.cpp ****             v0  = (float)(lp->buf[read_pos]);
 1140              		.loc 1 227 31
 1141 02b6 BB6A     		ldr	r3, [r7, #40]
 1142 02b8 5A6A     		ldr	r2, [r3, #36]
 1143              		.loc 1 227 35
 1144 02ba BB6B     		ldr	r3, [r7, #56]
 1145              		.loc 1 227 43
 1146 02bc 9B00     		lsls	r3, r3, #2
 1147 02be 1344     		add	r3, r3, r2
 1148              		.loc 1 227 17
 1149 02c0 1B68     		ldr	r3, [r3]	@ float
ARM GAS  /var/folders/2p/02m_5p7958535cp2tpgps0400000gn/T//cck1TK5p.s 			page 25


 1150 02c2 7B64     		str	r3, [r7, #68]	@ float
 228:DaisySP-LGPL-FX/reverb.cpp ****             v1  = (float)(lp->buf[read_pos + 1]);
 1151              		.loc 1 228 31
 1152 02c4 BB6A     		ldr	r3, [r7, #40]
 1153 02c6 5A6A     		ldr	r2, [r3, #36]
 1154              		.loc 1 228 47
 1155 02c8 BB6B     		ldr	r3, [r7, #56]
 1156 02ca 0133     		adds	r3, r3, #1
 1157 02cc 9B00     		lsls	r3, r3, #2
 1158 02ce 1344     		add	r3, r3, r2
 1159              		.loc 1 228 17
 1160 02d0 1B68     		ldr	r3, [r3]	@ float
 1161 02d2 3B64     		str	r3, [r7, #64]	@ float
 229:DaisySP-LGPL-FX/reverb.cpp ****             v2  = (float)(lp->buf[read_pos + 2]);
 1162              		.loc 1 229 31
 1163 02d4 BB6A     		ldr	r3, [r7, #40]
 1164 02d6 5A6A     		ldr	r2, [r3, #36]
 1165              		.loc 1 229 47
 1166 02d8 BB6B     		ldr	r3, [r7, #56]
 1167 02da 0233     		adds	r3, r3, #2
 1168 02dc 9B00     		lsls	r3, r3, #2
 1169 02de 1344     		add	r3, r3, r2
 1170              		.loc 1 229 17
 1171 02e0 1B68     		ldr	r3, [r3]	@ float
 1172 02e2 FB63     		str	r3, [r7, #60]	@ float
 1173 02e4 62E0     		b	.L43
 1174              	.L53:
 1175 02e6 00BF     		.align	3
 1176              	.L52:
 1177 02e8 55555555 		.word	1431655765
 1178 02ec 5555C53F 		.word	1069897045
 1179 02f0 DB0FC940 		.word	1086918619
 1180 02f4 00008031 		.word	830472192
 1181 02f8 3333B33E 		.word	1051931443
 1182              	.L42:
 230:DaisySP-LGPL-FX/reverb.cpp ****         }
 231:DaisySP-LGPL-FX/reverb.cpp ****         else
 232:DaisySP-LGPL-FX/reverb.cpp ****         {
 233:DaisySP-LGPL-FX/reverb.cpp ****             /* at buffer wrap-around, need to check index */
 234:DaisySP-LGPL-FX/reverb.cpp **** 
 235:DaisySP-LGPL-FX/reverb.cpp ****             if(--read_pos < 0)
 1183              		.loc 1 235 27
 1184 02fc BB6B     		ldr	r3, [r7, #56]
 1185 02fe 013B     		subs	r3, r3, #1
 1186 0300 BB63     		str	r3, [r7, #56]
 1187 0302 BB6B     		ldr	r3, [r7, #56]
 1188 0304 DB0F     		lsrs	r3, r3, #31
 1189 0306 DBB2     		uxtb	r3, r3
 1190              		.loc 1 235 13
 1191 0308 002B     		cmp	r3, #0
 1192 030a 03D0     		beq	.L44
 236:DaisySP-LGPL-FX/reverb.cpp ****                 read_pos += buffer_size;
 1193              		.loc 1 236 26
 1194 030c BA6B     		ldr	r2, [r7, #56]
 1195 030e 7B6A     		ldr	r3, [r7, #36]
 1196 0310 1344     		add	r3, r3, r2
 1197 0312 BB63     		str	r3, [r7, #56]
ARM GAS  /var/folders/2p/02m_5p7958535cp2tpgps0400000gn/T//cck1TK5p.s 			page 26


 1198              	.L44:
 237:DaisySP-LGPL-FX/reverb.cpp ****             vm1 = (float)lp->buf[read_pos];
 1199              		.loc 1 237 30
 1200 0314 BB6A     		ldr	r3, [r7, #40]
 1201 0316 5A6A     		ldr	r2, [r3, #36]
 1202              		.loc 1 237 34
 1203 0318 BB6B     		ldr	r3, [r7, #56]
 1204              		.loc 1 237 42
 1205 031a 9B00     		lsls	r3, r3, #2
 1206 031c 1344     		add	r3, r3, r2
 1207              		.loc 1 237 17
 1208 031e 1B68     		ldr	r3, [r3]	@ float
 1209 0320 BB64     		str	r3, [r7, #72]	@ float
 238:DaisySP-LGPL-FX/reverb.cpp ****             if(++read_pos >= buffer_size)
 1210              		.loc 1 238 27
 1211 0322 BB6B     		ldr	r3, [r7, #56]
 1212 0324 0133     		adds	r3, r3, #1
 1213 0326 BB63     		str	r3, [r7, #56]
 1214 0328 BA6B     		ldr	r2, [r7, #56]
 1215 032a 7B6A     		ldr	r3, [r7, #36]
 1216 032c 9A42     		cmp	r2, r3
 1217 032e ACBF     		ite	ge
 1218 0330 0123     		movge	r3, #1
 1219 0332 0023     		movlt	r3, #0
 1220 0334 DBB2     		uxtb	r3, r3
 1221              		.loc 1 238 13
 1222 0336 002B     		cmp	r3, #0
 1223 0338 03D0     		beq	.L45
 239:DaisySP-LGPL-FX/reverb.cpp ****                 read_pos -= buffer_size;
 1224              		.loc 1 239 26
 1225 033a BA6B     		ldr	r2, [r7, #56]
 1226 033c 7B6A     		ldr	r3, [r7, #36]
 1227 033e D31A     		subs	r3, r2, r3
 1228 0340 BB63     		str	r3, [r7, #56]
 1229              	.L45:
 240:DaisySP-LGPL-FX/reverb.cpp ****             v0 = (float)lp->buf[read_pos];
 1230              		.loc 1 240 29
 1231 0342 BB6A     		ldr	r3, [r7, #40]
 1232 0344 5A6A     		ldr	r2, [r3, #36]
 1233              		.loc 1 240 33
 1234 0346 BB6B     		ldr	r3, [r7, #56]
 1235              		.loc 1 240 41
 1236 0348 9B00     		lsls	r3, r3, #2
 1237 034a 1344     		add	r3, r3, r2
 1238              		.loc 1 240 16
 1239 034c 1B68     		ldr	r3, [r3]	@ float
 1240 034e 7B64     		str	r3, [r7, #68]	@ float
 241:DaisySP-LGPL-FX/reverb.cpp ****             if(++read_pos >= buffer_size)
 1241              		.loc 1 241 27
 1242 0350 BB6B     		ldr	r3, [r7, #56]
 1243 0352 0133     		adds	r3, r3, #1
 1244 0354 BB63     		str	r3, [r7, #56]
 1245 0356 BA6B     		ldr	r2, [r7, #56]
 1246 0358 7B6A     		ldr	r3, [r7, #36]
 1247 035a 9A42     		cmp	r2, r3
 1248 035c ACBF     		ite	ge
 1249 035e 0123     		movge	r3, #1
ARM GAS  /var/folders/2p/02m_5p7958535cp2tpgps0400000gn/T//cck1TK5p.s 			page 27


 1250 0360 0023     		movlt	r3, #0
 1251 0362 DBB2     		uxtb	r3, r3
 1252              		.loc 1 241 13
 1253 0364 002B     		cmp	r3, #0
 1254 0366 03D0     		beq	.L46
 242:DaisySP-LGPL-FX/reverb.cpp ****                 read_pos -= buffer_size;
 1255              		.loc 1 242 26
 1256 0368 BA6B     		ldr	r2, [r7, #56]
 1257 036a 7B6A     		ldr	r3, [r7, #36]
 1258 036c D31A     		subs	r3, r2, r3
 1259 036e BB63     		str	r3, [r7, #56]
 1260              	.L46:
 243:DaisySP-LGPL-FX/reverb.cpp ****             v1 = (float)lp->buf[read_pos];
 1261              		.loc 1 243 29
 1262 0370 BB6A     		ldr	r3, [r7, #40]
 1263 0372 5A6A     		ldr	r2, [r3, #36]
 1264              		.loc 1 243 33
 1265 0374 BB6B     		ldr	r3, [r7, #56]
 1266              		.loc 1 243 41
 1267 0376 9B00     		lsls	r3, r3, #2
 1268 0378 1344     		add	r3, r3, r2
 1269              		.loc 1 243 16
 1270 037a 1B68     		ldr	r3, [r3]	@ float
 1271 037c 3B64     		str	r3, [r7, #64]	@ float
 244:DaisySP-LGPL-FX/reverb.cpp ****             if(++read_pos >= buffer_size)
 1272              		.loc 1 244 27
 1273 037e BB6B     		ldr	r3, [r7, #56]
 1274 0380 0133     		adds	r3, r3, #1
 1275 0382 BB63     		str	r3, [r7, #56]
 1276 0384 BA6B     		ldr	r2, [r7, #56]
 1277 0386 7B6A     		ldr	r3, [r7, #36]
 1278 0388 9A42     		cmp	r2, r3
 1279 038a ACBF     		ite	ge
 1280 038c 0123     		movge	r3, #1
 1281 038e 0023     		movlt	r3, #0
 1282 0390 DBB2     		uxtb	r3, r3
 1283              		.loc 1 244 13
 1284 0392 002B     		cmp	r3, #0
 1285 0394 03D0     		beq	.L47
 245:DaisySP-LGPL-FX/reverb.cpp ****                 read_pos -= buffer_size;
 1286              		.loc 1 245 26
 1287 0396 BA6B     		ldr	r2, [r7, #56]
 1288 0398 7B6A     		ldr	r3, [r7, #36]
 1289 039a D31A     		subs	r3, r2, r3
 1290 039c BB63     		str	r3, [r7, #56]
 1291              	.L47:
 246:DaisySP-LGPL-FX/reverb.cpp ****             v2 = (float)lp->buf[read_pos];
 1292              		.loc 1 246 29
 1293 039e BB6A     		ldr	r3, [r7, #40]
 1294 03a0 5A6A     		ldr	r2, [r3, #36]
 1295              		.loc 1 246 33
 1296 03a2 BB6B     		ldr	r3, [r7, #56]
 1297              		.loc 1 246 41
 1298 03a4 9B00     		lsls	r3, r3, #2
 1299 03a6 1344     		add	r3, r3, r2
 1300              		.loc 1 246 16
 1301 03a8 1B68     		ldr	r3, [r3]	@ float
ARM GAS  /var/folders/2p/02m_5p7958535cp2tpgps0400000gn/T//cck1TK5p.s 			page 28


 1302 03aa FB63     		str	r3, [r7, #60]	@ float
 1303              	.L43:
 247:DaisySP-LGPL-FX/reverb.cpp ****         }
 248:DaisySP-LGPL-FX/reverb.cpp ****         v0 = (am1 * vm1 + a0 * v0 + a1 * v1 + a2 * v2) * frac + v0;
 1304              		.loc 1 248 19
 1305 03ac 97ED057A 		vldr.32	s14, [r7, #20]
 1306 03b0 D7ED127A 		vldr.32	s15, [r7, #72]
 1307 03b4 27EE277A 		vmul.f32	s14, s14, s15
 1308              		.loc 1 248 30
 1309 03b8 D7ED046A 		vldr.32	s13, [r7, #16]
 1310 03bc D7ED117A 		vldr.32	s15, [r7, #68]
 1311 03c0 66EEA77A 		vmul.f32	s15, s13, s15
 1312              		.loc 1 248 25
 1313 03c4 37EE277A 		vadd.f32	s14, s14, s15
 1314              		.loc 1 248 40
 1315 03c8 D7ED066A 		vldr.32	s13, [r7, #24]
 1316 03cc D7ED107A 		vldr.32	s15, [r7, #64]
 1317 03d0 66EEA77A 		vmul.f32	s15, s13, s15
 1318              		.loc 1 248 35
 1319 03d4 37EE277A 		vadd.f32	s14, s14, s15
 1320              		.loc 1 248 50
 1321 03d8 D7ED076A 		vldr.32	s13, [r7, #28]
 1322 03dc D7ED0F7A 		vldr.32	s15, [r7, #60]
 1323 03e0 66EEA77A 		vmul.f32	s15, s13, s15
 1324              		.loc 1 248 45
 1325 03e4 37EE277A 		vadd.f32	s14, s14, s15
 1326              		.loc 1 248 56
 1327 03e8 D7ED087A 		vldr.32	s15, [r7, #32]
 1328 03ec 67EE277A 		vmul.f32	s15, s14, s15
 1329              		.loc 1 248 12
 1330 03f0 97ED117A 		vldr.32	s14, [r7, #68]
 1331 03f4 77EE277A 		vadd.f32	s15, s14, s15
 1332 03f8 C7ED117A 		vstr.32	s15, [r7, #68]
 249:DaisySP-LGPL-FX/reverb.cpp **** 
 250:DaisySP-LGPL-FX/reverb.cpp ****         /* update buffer read position */
 251:DaisySP-LGPL-FX/reverb.cpp **** 
 252:DaisySP-LGPL-FX/reverb.cpp ****         lp->read_pos_frac += lp->read_pos_frac_inc;
 1333              		.loc 1 252 27
 1334 03fc BB6A     		ldr	r3, [r7, #40]
 1335 03fe DA68     		ldr	r2, [r3, #12]
 1336              		.loc 1 252 34
 1337 0400 BB6A     		ldr	r3, [r7, #40]
 1338 0402 1B69     		ldr	r3, [r3, #16]
 1339              		.loc 1 252 27
 1340 0404 1A44     		add	r2, r2, r3
 1341 0406 BB6A     		ldr	r3, [r7, #40]
 1342 0408 DA60     		str	r2, [r3, #12]
 253:DaisySP-LGPL-FX/reverb.cpp **** 
 254:DaisySP-LGPL-FX/reverb.cpp ****         /* apply feedback gain and lowpass filter */
 255:DaisySP-LGPL-FX/reverb.cpp **** 
 256:DaisySP-LGPL-FX/reverb.cpp ****         v0 *= (float)feedback_;
 1343              		.loc 1 256 22
 1344 040a FB68     		ldr	r3, [r7, #12]
 1345 040c D3ED007A 		vldr.32	s15, [r3]
 1346              		.loc 1 256 12
 1347 0410 97ED117A 		vldr.32	s14, [r7, #68]
 1348 0414 67EE277A 		vmul.f32	s15, s14, s15
ARM GAS  /var/folders/2p/02m_5p7958535cp2tpgps0400000gn/T//cck1TK5p.s 			page 29


 1349 0418 C7ED117A 		vstr.32	s15, [r7, #68]
 257:DaisySP-LGPL-FX/reverb.cpp ****         v0               = (lp->filter_state - v0) * damp_fact + v0;
 1350              		.loc 1 257 33
 1351 041c BB6A     		ldr	r3, [r7, #40]
 1352 041e 93ED087A 		vldr.32	s14, [r3, #32]
 1353              		.loc 1 257 46
 1354 0422 D7ED117A 		vldr.32	s15, [r7, #68]
 1355 0426 37EE677A 		vsub.f32	s14, s14, s15
 1356              		.loc 1 257 52
 1357 042a D7ED0C7A 		vldr.32	s15, [r7, #48]
 1358 042e 67EE277A 		vmul.f32	s15, s14, s15
 1359              		.loc 1 257 26
 1360 0432 97ED117A 		vldr.32	s14, [r7, #68]
 1361 0436 77EE277A 		vadd.f32	s15, s14, s15
 1362 043a C7ED117A 		vstr.32	s15, [r7, #68]
 258:DaisySP-LGPL-FX/reverb.cpp ****         lp->filter_state = v0;
 1363              		.loc 1 258 26
 1364 043e BB6A     		ldr	r3, [r7, #40]
 1365 0440 7A6C     		ldr	r2, [r7, #68]	@ float
 1366 0442 1A62     		str	r2, [r3, #32]	@ float
 259:DaisySP-LGPL-FX/reverb.cpp **** 
 260:DaisySP-LGPL-FX/reverb.cpp ****         /* mix to output */
 261:DaisySP-LGPL-FX/reverb.cpp **** 
 262:DaisySP-LGPL-FX/reverb.cpp ****         if(n & 1)
 1367              		.loc 1 262 14
 1368 0444 7B6B     		ldr	r3, [r7, #52]
 1369 0446 03F00103 		and	r3, r3, #1
 1370              		.loc 1 262 9
 1371 044a 002B     		cmp	r3, #0
 1372 044c 08D0     		beq	.L48
 263:DaisySP-LGPL-FX/reverb.cpp ****         {
 264:DaisySP-LGPL-FX/reverb.cpp ****             a_out_r += v0;
 1373              		.loc 1 264 21
 1374 044e 97ED137A 		vldr.32	s14, [r7, #76]
 1375 0452 D7ED117A 		vldr.32	s15, [r7, #68]
 1376 0456 77EE277A 		vadd.f32	s15, s14, s15
 1377 045a C7ED137A 		vstr.32	s15, [r7, #76]
 1378 045e 07E0     		b	.L49
 1379              	.L48:
 265:DaisySP-LGPL-FX/reverb.cpp ****         }
 266:DaisySP-LGPL-FX/reverb.cpp ****         else
 267:DaisySP-LGPL-FX/reverb.cpp ****         {
 268:DaisySP-LGPL-FX/reverb.cpp ****             a_out_l += v0;
 1380              		.loc 1 268 21
 1381 0460 97ED147A 		vldr.32	s14, [r7, #80]
 1382 0464 D7ED117A 		vldr.32	s15, [r7, #68]
 1383 0468 77EE277A 		vadd.f32	s15, s14, s15
 1384 046c C7ED147A 		vstr.32	s15, [r7, #80]
 1385              	.L49:
 269:DaisySP-LGPL-FX/reverb.cpp ****         }
 270:DaisySP-LGPL-FX/reverb.cpp **** 
 271:DaisySP-LGPL-FX/reverb.cpp ****         /* start next random line segment if current one has reached endpoint */
 272:DaisySP-LGPL-FX/reverb.cpp **** 
 273:DaisySP-LGPL-FX/reverb.cpp ****         if(--(lp->rand_line_cnt) <= 0)
 1386              		.loc 1 273 19
 1387 0470 BB6A     		ldr	r3, [r7, #40]
 1388 0472 DB69     		ldr	r3, [r3, #28]
ARM GAS  /var/folders/2p/02m_5p7958535cp2tpgps0400000gn/T//cck1TK5p.s 			page 30


 1389              		.loc 1 273 12
 1390 0474 5A1E     		subs	r2, r3, #1
 1391              		.loc 1 273 34
 1392 0476 BB6A     		ldr	r3, [r7, #40]
 1393 0478 DA61     		str	r2, [r3, #28]
 1394              		.loc 1 273 19
 1395 047a BB6A     		ldr	r3, [r7, #40]
 1396 047c DB69     		ldr	r3, [r3, #28]
 1397              		.loc 1 273 34
 1398 047e 002B     		cmp	r3, #0
 1399 0480 D4BF     		ite	le
 1400 0482 0123     		movle	r3, #1
 1401 0484 0023     		movgt	r3, #0
 1402 0486 DBB2     		uxtb	r3, r3
 1403              		.loc 1 273 9
 1404 0488 002B     		cmp	r3, #0
 1405 048a 05D0     		beq	.L50
 274:DaisySP-LGPL-FX/reverb.cpp ****         {
 275:DaisySP-LGPL-FX/reverb.cpp ****             NextRandomLineseg(lp, n);
 1406              		.loc 1 275 30
 1407 048c 7B6B     		ldr	r3, [r7, #52]
 1408 048e 1A46     		mov	r2, r3
 1409 0490 B96A     		ldr	r1, [r7, #40]
 1410 0492 F868     		ldr	r0, [r7, #12]
 1411 0494 FFF7FEFF 		bl	_ZN7daisysp8ReverbSc17NextRandomLinesegEPNS_10ReverbScDlEi
 1412              	.L50:
 182:DaisySP-LGPL-FX/reverb.cpp ****     {
 1413              		.loc 1 182 5 discriminator 2
 1414 0498 7B6B     		ldr	r3, [r7, #52]
 1415 049a 0133     		adds	r3, r3, #1
 1416 049c 7B63     		str	r3, [r7, #52]
 1417 049e 3AE6     		b	.L51
 1418              	.L36:
 276:DaisySP-LGPL-FX/reverb.cpp ****         }
 277:DaisySP-LGPL-FX/reverb.cpp ****     }
 278:DaisySP-LGPL-FX/reverb.cpp ****     /* someday, use a_out_r for multimono out */
 279:DaisySP-LGPL-FX/reverb.cpp **** 
 280:DaisySP-LGPL-FX/reverb.cpp ****     *out1 = a_out_l * kOutputGain;
 1419              		.loc 1 280 21
 1420 04a0 D7ED147A 		vldr.32	s15, [r7, #80]
 1421 04a4 1FED6C7A 		vldr.32	s14, .L52+16
 1422 04a8 67EE877A 		vmul.f32	s15, s15, s14
 1423              		.loc 1 280 11
 1424 04ac 3B68     		ldr	r3, [r7]
 1425 04ae C3ED007A 		vstr.32	s15, [r3]
 281:DaisySP-LGPL-FX/reverb.cpp ****     *out2 = a_out_r * kOutputGain;
 1426              		.loc 1 281 21
 1427 04b2 D7ED137A 		vldr.32	s15, [r7, #76]
 1428 04b6 1FED707A 		vldr.32	s14, .L52+16
 1429 04ba 67EE877A 		vmul.f32	s15, s15, s14
 1430              		.loc 1 281 11
 1431 04be 3B6E     		ldr	r3, [r7, #96]
 1432 04c0 C3ED007A 		vstr.32	s15, [r3]
 282:DaisySP-LGPL-FX/reverb.cpp ****     return REVSC_OK;
 1433              		.loc 1 282 12
 1434 04c4 0023     		movs	r3, #0
 1435              	.L32:
ARM GAS  /var/folders/2p/02m_5p7958535cp2tpgps0400000gn/T//cck1TK5p.s 			page 31


 283:DaisySP-LGPL-FX/reverb.cpp **** }
 1436              		.loc 1 283 1
 1437 04c6 1846     		mov	r0, r3
 1438 04c8 5837     		adds	r7, r7, #88
 1439              		.cfi_def_cfa_offset 8
 1440 04ca BD46     		mov	sp, r7
 1441              		.cfi_def_cfa_register 13
 1442              		@ sp needed
 1443 04cc 80BD     		pop	{r7, pc}
 1444              		.cfi_endproc
 1445              	.LFE560:
 1447 04ce 00BF     		.section	.text._ZN7daisysp8ReverbSc10ProcessMixERKfS2_PfS3_,"ax",%progbits
 1448              		.align	1
 1449              		.global	_ZN7daisysp8ReverbSc10ProcessMixERKfS2_PfS3_
 1450              		.syntax unified
 1451              		.thumb
 1452              		.thumb_func
 1454              	_ZN7daisysp8ReverbSc10ProcessMixERKfS2_PfS3_:
 1455              	.LFB561:
 284:DaisySP-LGPL-FX/reverb.cpp **** 
 285:DaisySP-LGPL-FX/reverb.cpp **** void ReverbSc::ProcessMix(const float &in1, const float &in2, float *out1, float *out2){
 1456              		.loc 1 285 88
 1457              		.cfi_startproc
 1458              		@ args = 4, pretend = 0, frame = 24
 1459              		@ frame_needed = 1, uses_anonymous_args = 0
 1460 0000 80B5     		push	{r7, lr}
 1461              		.cfi_def_cfa_offset 8
 1462              		.cfi_offset 7, -8
 1463              		.cfi_offset 14, -4
 1464 0002 88B0     		sub	sp, sp, #32
 1465              		.cfi_def_cfa_offset 40
 1466 0004 02AF     		add	r7, sp, #8
 1467              		.cfi_def_cfa 7, 32
 1468 0006 F860     		str	r0, [r7, #12]
 1469 0008 B960     		str	r1, [r7, #8]
 1470 000a 7A60     		str	r2, [r7, #4]
 1471 000c 3B60     		str	r3, [r7]
 286:DaisySP-LGPL-FX/reverb.cpp ****   float wet_out1, wet_out2;
 287:DaisySP-LGPL-FX/reverb.cpp ****   Process(in1, in2, &wet_out1, &wet_out2);
 1472              		.loc 1 287 10
 1473 000e 07F11402 		add	r2, r7, #20
 1474 0012 07F11003 		add	r3, r7, #16
 1475 0016 0093     		str	r3, [sp]
 1476 0018 1346     		mov	r3, r2
 1477 001a 7A68     		ldr	r2, [r7, #4]
 1478 001c B968     		ldr	r1, [r7, #8]
 1479 001e F868     		ldr	r0, [r7, #12]
 1480 0020 FFF7FEFF 		bl	_ZN7daisysp8ReverbSc7ProcessERKfS2_PfS3_
 288:DaisySP-LGPL-FX/reverb.cpp ****   *out1 = wet_mix_*wet_out1 + ((1.0f-wet_mix_)*in1);
 1481              		.loc 1 288 11
 1482 0024 FB68     		ldr	r3, [r7, #12]
 1483 0026 03F5C023 		add	r3, r3, #393216
 1484 002a 03F64433 		addw	r3, r3, #2884
 1485 002e 93ED007A 		vldr.32	s14, [r3]
 1486              		.loc 1 288 19
 1487 0032 D7ED057A 		vldr.32	s15, [r7, #20]
 1488 0036 27EE277A 		vmul.f32	s14, s14, s15
ARM GAS  /var/folders/2p/02m_5p7958535cp2tpgps0400000gn/T//cck1TK5p.s 			page 32


 1489              		.loc 1 288 38
 1490 003a FB68     		ldr	r3, [r7, #12]
 1491 003c 03F5C023 		add	r3, r3, #393216
 1492 0040 03F64433 		addw	r3, r3, #2884
 1493 0044 D3ED007A 		vldr.32	s15, [r3]
 1494              		.loc 1 288 37
 1495 0048 F7EE006A 		vmov.f32	s13, #1.0e+0
 1496 004c 76EEE76A 		vsub.f32	s13, s13, s15
 1497              		.loc 1 288 48
 1498 0050 BB68     		ldr	r3, [r7, #8]
 1499 0052 D3ED007A 		vldr.32	s15, [r3]
 1500              		.loc 1 288 47
 1501 0056 66EEA77A 		vmul.f32	s15, s13, s15
 1502              		.loc 1 288 29
 1503 005a 77EE277A 		vadd.f32	s15, s14, s15
 1504              		.loc 1 288 9
 1505 005e 3B68     		ldr	r3, [r7]
 1506 0060 C3ED007A 		vstr.32	s15, [r3]
 289:DaisySP-LGPL-FX/reverb.cpp ****   *out2 = wet_mix_*wet_out2 + ((1.0f-wet_mix_)*in2);
 1507              		.loc 1 289 11
 1508 0064 FB68     		ldr	r3, [r7, #12]
 1509 0066 03F5C023 		add	r3, r3, #393216
 1510 006a 03F64433 		addw	r3, r3, #2884
 1511 006e 93ED007A 		vldr.32	s14, [r3]
 1512              		.loc 1 289 19
 1513 0072 D7ED047A 		vldr.32	s15, [r7, #16]
 1514 0076 27EE277A 		vmul.f32	s14, s14, s15
 1515              		.loc 1 289 38
 1516 007a FB68     		ldr	r3, [r7, #12]
 1517 007c 03F5C023 		add	r3, r3, #393216
 1518 0080 03F64433 		addw	r3, r3, #2884
 1519 0084 D3ED007A 		vldr.32	s15, [r3]
 1520              		.loc 1 289 37
 1521 0088 F7EE006A 		vmov.f32	s13, #1.0e+0
 1522 008c 76EEE76A 		vsub.f32	s13, s13, s15
 1523              		.loc 1 289 48
 1524 0090 7B68     		ldr	r3, [r7, #4]
 1525 0092 D3ED007A 		vldr.32	s15, [r3]
 1526              		.loc 1 289 47
 1527 0096 66EEA77A 		vmul.f32	s15, s13, s15
 1528              		.loc 1 289 29
 1529 009a 77EE277A 		vadd.f32	s15, s14, s15
 1530              		.loc 1 289 9
 1531 009e 3B6A     		ldr	r3, [r7, #32]
 1532 00a0 C3ED007A 		vstr.32	s15, [r3]
 290:DaisySP-LGPL-FX/reverb.cpp **** }
 1533              		.loc 1 290 1
 1534 00a4 00BF     		nop
 1535 00a6 1837     		adds	r7, r7, #24
 1536              		.cfi_def_cfa_offset 8
 1537 00a8 BD46     		mov	sp, r7
 1538              		.cfi_def_cfa_register 13
 1539              		@ sp needed
 1540 00aa 80BD     		pop	{r7, pc}
 1541              		.cfi_endproc
 1542              	.LFE561:
 1544              		.text
ARM GAS  /var/folders/2p/02m_5p7958535cp2tpgps0400000gn/T//cck1TK5p.s 			page 33


 1545              	.Letext0:
 1546              		.file 2 "/Library/DaisyToolchain/0.2.0/arm/arm-none-eabi/include/machine/_default_types.h"
 1547              		.file 3 "/Library/DaisyToolchain/0.2.0/arm/arm-none-eabi/include/sys/_stdint.h"
 1548              		.file 4 "../libDaisy/Drivers/CMSIS/Device/ST/STM32H7xx/Include/stm32h7xx.h"
 1549              		.file 5 "/Library/DaisyToolchain/0.2.0/arm/lib/gcc/arm-none-eabi/10.3.1/include/stddef.h"
 1550              		.file 6 "/Library/DaisyToolchain/0.2.0/arm/arm-none-eabi/include/c++/10.3.1/bits/cpp_type_traits.h
 1551              		.file 7 "/Library/DaisyToolchain/0.2.0/arm/arm-none-eabi/include/c++/10.3.1/cmath"
 1552              		.file 8 "/Library/DaisyToolchain/0.2.0/arm/arm-none-eabi/include/c++/10.3.1/bits/std_abs.h"
 1553              		.file 9 "/Library/DaisyToolchain/0.2.0/arm/arm-none-eabi/include/c++/10.3.1/cstdlib"
 1554              		.file 10 "/Library/DaisyToolchain/0.2.0/arm/arm-none-eabi/include/c++/10.3.1/arm-none-eabi/thumb/v
 1555              		.file 11 "/Library/DaisyToolchain/0.2.0/arm/arm-none-eabi/include/math.h"
 1556              		.file 12 "/Library/DaisyToolchain/0.2.0/arm/arm-none-eabi/include/stdlib.h"
 1557              		.file 13 "/Library/DaisyToolchain/0.2.0/arm/arm-none-eabi/include/c++/10.3.1/math.h"
 1558              		.file 14 "../libDaisy/Drivers/STM32H7xx_HAL_Driver/Inc/stm32h7xx_hal_comp.h"
 1559              		.file 15 "../libDaisy/Drivers/STM32H7xx_HAL_Driver/Inc/stm32h7xx_hal.h"
 1560              		.file 16 "/Library/DaisyToolchain/0.2.0/arm/arm-none-eabi/include/c++/10.3.1/stdlib.h"
 1561              		.file 17 "DaisySP-LGPL-FX/reverb.h"
 1562              		.file 18 "<built-in>"
ARM GAS  /var/folders/2p/02m_5p7958535cp2tpgps0400000gn/T//cck1TK5p.s 			page 34


DEFINED SYMBOLS
                            *ABS*:0000000000000000 reverb.cpp
/var/folders/2p/02m_5p7958535cp2tpgps0400000gn/T//cck1TK5p.s:19     .rodata._ZL13kReverbParams:0000000000000000 $d
/var/folders/2p/02m_5p7958535cp2tpgps0400000gn/T//cck1TK5p.s:22     .rodata._ZL13kReverbParams:0000000000000000 _ZL13kReverbParams
/var/folders/2p/02m_5p7958535cp2tpgps0400000gn/T//cck1TK5p.s:56     .rodata._ZL11kOutputGain:0000000000000000 $d
/var/folders/2p/02m_5p7958535cp2tpgps0400000gn/T//cck1TK5p.s:59     .rodata._ZL11kOutputGain:0000000000000000 _ZL11kOutputGain
/var/folders/2p/02m_5p7958535cp2tpgps0400000gn/T//cck1TK5p.s:62     .rodata._ZL8kJpScale:0000000000000000 $d
/var/folders/2p/02m_5p7958535cp2tpgps0400000gn/T//cck1TK5p.s:65     .rodata._ZL8kJpScale:0000000000000000 _ZL8kJpScale
/var/folders/2p/02m_5p7958535cp2tpgps0400000gn/T//cck1TK5p.s:68     .text._ZN7daisysp8ReverbSc4InitEf:0000000000000000 $t
/var/folders/2p/02m_5p7958535cp2tpgps0400000gn/T//cck1TK5p.s:74     .text._ZN7daisysp8ReverbSc4InitEf:0000000000000000 _ZN7daisysp8ReverbSc4InitEf
/var/folders/2p/02m_5p7958535cp2tpgps0400000gn/T//cck1TK5p.s:587    .text._ZN7daisysp8ReverbSc13InitDelayLineEPNS_10ReverbScDlEi:0000000000000000 _ZN7daisysp8ReverbSc13InitDelayLineEPNS_10ReverbScDlEi
/var/folders/2p/02m_5p7958535cp2tpgps0400000gn/T//cck1TK5p.s:306    .text._ZL19DelayLineBytesAllocffi:0000000000000000 _ZL19DelayLineBytesAllocffi
/var/folders/2p/02m_5p7958535cp2tpgps0400000gn/T//cck1TK5p.s:212    .text._ZN7daisysp8ReverbSc4InitEf:00000000000000cc $d
/var/folders/2p/02m_5p7958535cp2tpgps0400000gn/T//cck1TK5p.s:219    .text._ZL19DelayLineMaxSamplesffi:0000000000000000 $t
/var/folders/2p/02m_5p7958535cp2tpgps0400000gn/T//cck1TK5p.s:224    .text._ZL19DelayLineMaxSamplesffi:0000000000000000 _ZL19DelayLineMaxSamplesffi
/var/folders/2p/02m_5p7958535cp2tpgps0400000gn/T//cck1TK5p.s:294    .text._ZL19DelayLineMaxSamplesffi:0000000000000080 $d
/var/folders/2p/02m_5p7958535cp2tpgps0400000gn/T//cck1TK5p.s:301    .text._ZL19DelayLineBytesAllocffi:0000000000000000 $t
/var/folders/2p/02m_5p7958535cp2tpgps0400000gn/T//cck1TK5p.s:352    .text._ZN7daisysp8ReverbSc17NextRandomLinesegEPNS_10ReverbScDlEi:0000000000000000 $t
/var/folders/2p/02m_5p7958535cp2tpgps0400000gn/T//cck1TK5p.s:358    .text._ZN7daisysp8ReverbSc17NextRandomLinesegEPNS_10ReverbScDlEi:0000000000000000 _ZN7daisysp8ReverbSc17NextRandomLinesegEPNS_10ReverbScDlEi
/var/folders/2p/02m_5p7958535cp2tpgps0400000gn/T//cck1TK5p.s:574    .text._ZN7daisysp8ReverbSc17NextRandomLinesegEPNS_10ReverbScDlEi:00000000000001ac $d
/var/folders/2p/02m_5p7958535cp2tpgps0400000gn/T//cck1TK5p.s:581    .text._ZN7daisysp8ReverbSc13InitDelayLineEPNS_10ReverbScDlEi:0000000000000000 $t
/var/folders/2p/02m_5p7958535cp2tpgps0400000gn/T//cck1TK5p.s:773    .text._ZN7daisysp8ReverbSc13InitDelayLineEPNS_10ReverbScDlEi:0000000000000154 $d
/var/folders/2p/02m_5p7958535cp2tpgps0400000gn/T//cck1TK5p.s:780    .text._ZN7daisysp8ReverbSc7ProcessERKfS2_PfS3_:0000000000000000 $t
/var/folders/2p/02m_5p7958535cp2tpgps0400000gn/T//cck1TK5p.s:786    .text._ZN7daisysp8ReverbSc7ProcessERKfS2_PfS3_:0000000000000000 _ZN7daisysp8ReverbSc7ProcessERKfS2_PfS3_
/var/folders/2p/02m_5p7958535cp2tpgps0400000gn/T//cck1TK5p.s:1177   .text._ZN7daisysp8ReverbSc7ProcessERKfS2_PfS3_:00000000000002e8 $d
/var/folders/2p/02m_5p7958535cp2tpgps0400000gn/T//cck1TK5p.s:1184   .text._ZN7daisysp8ReverbSc7ProcessERKfS2_PfS3_:00000000000002fc $t
/var/folders/2p/02m_5p7958535cp2tpgps0400000gn/T//cck1TK5p.s:1448   .text._ZN7daisysp8ReverbSc10ProcessMixERKfS2_PfS3_:0000000000000000 $t
/var/folders/2p/02m_5p7958535cp2tpgps0400000gn/T//cck1TK5p.s:1454   .text._ZN7daisysp8ReverbSc10ProcessMixERKfS2_PfS3_:0000000000000000 _ZN7daisysp8ReverbSc10ProcessMixERKfS2_PfS3_

UNDEFINED SYMBOLS
cosf
sqrtf
