ARM GAS  /var/folders/2p/02m_5p7958535cp2tpgps0400000gn/T//ccJ8pZbM.s 			page 1


   1              		.cpu cortex-m7
   2              		.arch armv7e-m
   3              		.fpu fpv5-d16
   4              		.eabi_attribute 28, 1
   5              		.eabi_attribute 20, 1
   6              		.eabi_attribute 21, 1
   7              		.eabi_attribute 23, 3
   8              		.eabi_attribute 24, 1
   9              		.eabi_attribute 25, 1
  10              		.eabi_attribute 26, 1
  11              		.eabi_attribute 30, 4
  12              		.eabi_attribute 34, 1
  13              		.eabi_attribute 18, 4
  14              		.file	"reverbsc.cpp"
  15              		.text
  16              	.Ltext0:
  17              		.cfi_sections	.debug_frame
  18              		.section	.text._ZN7daisysp8ReverbSc17NextRandomLinesegEPNS_10ReverbScDlEi,"ax",%progbits
  19              		.align	1
  20              		.global	_ZN7daisysp8ReverbSc17NextRandomLinesegEPNS_10ReverbScDlEi
  21              		.syntax unified
  22              		.thumb
  23              		.thumb_func
  25              	_ZN7daisysp8ReverbSc17NextRandomLinesegEPNS_10ReverbScDlEi:
  26              	.LVL0:
  27              	.LFB558:
  28              		.file 1 "DaisySP-LGPL-FX/reverbsc.cpp"
   1:DaisySP-LGPL-FX/reverbsc.cpp **** #include <math.h>
   2:DaisySP-LGPL-FX/reverbsc.cpp **** #include <stdlib.h>
   3:DaisySP-LGPL-FX/reverbsc.cpp **** #include <stdint.h>
   4:DaisySP-LGPL-FX/reverbsc.cpp **** #include <string.h>
   5:DaisySP-LGPL-FX/reverbsc.cpp **** #include "reverbsc.h"
   6:DaisySP-LGPL-FX/reverbsc.cpp **** 
   7:DaisySP-LGPL-FX/reverbsc.cpp **** #define REVSC_OK 0
   8:DaisySP-LGPL-FX/reverbsc.cpp **** #define REVSC_NOT_OK 1
   9:DaisySP-LGPL-FX/reverbsc.cpp **** 
  10:DaisySP-LGPL-FX/reverbsc.cpp **** #define DEFAULT_SRATE 48000.0
  11:DaisySP-LGPL-FX/reverbsc.cpp **** #define MIN_SRATE 5000.0
  12:DaisySP-LGPL-FX/reverbsc.cpp **** #define MAX_SRATE 1000000.0
  13:DaisySP-LGPL-FX/reverbsc.cpp **** #define MAX_PITCHMOD 20.0
  14:DaisySP-LGPL-FX/reverbsc.cpp **** #define DELAYPOS_SHIFT 28
  15:DaisySP-LGPL-FX/reverbsc.cpp **** #define DELAYPOS_SCALE 0x10000000
  16:DaisySP-LGPL-FX/reverbsc.cpp **** #define DELAYPOS_MASK 0x0FFFFFFF
  17:DaisySP-LGPL-FX/reverbsc.cpp **** 
  18:DaisySP-LGPL-FX/reverbsc.cpp **** #ifndef M_PI
  19:DaisySP-LGPL-FX/reverbsc.cpp **** #define M_PI 3.14159265358979323846 /* pi */
  20:DaisySP-LGPL-FX/reverbsc.cpp **** #endif
  21:DaisySP-LGPL-FX/reverbsc.cpp **** 
  22:DaisySP-LGPL-FX/reverbsc.cpp **** using namespace daisysp;
  23:DaisySP-LGPL-FX/reverbsc.cpp **** 
  24:DaisySP-LGPL-FX/reverbsc.cpp **** /* kReverbParams[n][0] = delay time (in seconds)                     */
  25:DaisySP-LGPL-FX/reverbsc.cpp **** /* kReverbParams[n][1] = random variation in delay time (in seconds) */
  26:DaisySP-LGPL-FX/reverbsc.cpp **** /* kReverbParams[n][2] = random variation frequency (in 1/sec)       */
  27:DaisySP-LGPL-FX/reverbsc.cpp **** /* kReverbParams[n][3] = random seed (0 - 32767)                     */
  28:DaisySP-LGPL-FX/reverbsc.cpp **** 
  29:DaisySP-LGPL-FX/reverbsc.cpp **** static const float kReverbParams[8][4]
  30:DaisySP-LGPL-FX/reverbsc.cpp ****     = {{(2473.0 / DEFAULT_SRATE), 0.0010, 3.100, 1966.0},
ARM GAS  /var/folders/2p/02m_5p7958535cp2tpgps0400000gn/T//ccJ8pZbM.s 			page 2


  31:DaisySP-LGPL-FX/reverbsc.cpp ****        {(2767.0 / DEFAULT_SRATE), 0.0011, 3.500, 29491.0},
  32:DaisySP-LGPL-FX/reverbsc.cpp ****        {(3217.0 / DEFAULT_SRATE), 0.0017, 1.110, 22937.0},
  33:DaisySP-LGPL-FX/reverbsc.cpp ****        {(3557.0 / DEFAULT_SRATE), 0.0006, 3.973, 9830.0},
  34:DaisySP-LGPL-FX/reverbsc.cpp ****        {(3907.0 / DEFAULT_SRATE), 0.0010, 2.341, 20643.0},
  35:DaisySP-LGPL-FX/reverbsc.cpp ****        {(4127.0 / DEFAULT_SRATE), 0.0011, 1.897, 22937.0},
  36:DaisySP-LGPL-FX/reverbsc.cpp ****        {(2143.0 / DEFAULT_SRATE), 0.0017, 0.891, 29491.0},
  37:DaisySP-LGPL-FX/reverbsc.cpp ****        {(1933.0 / DEFAULT_SRATE), 0.0006, 3.221, 14417.0}};
  38:DaisySP-LGPL-FX/reverbsc.cpp **** 
  39:DaisySP-LGPL-FX/reverbsc.cpp **** static int DelayLineMaxSamples(float sr, float i_pitch_mod, int n);
  40:DaisySP-LGPL-FX/reverbsc.cpp **** //static int InitDelayLine(dsy_reverbsc_dl *lp, int n);
  41:DaisySP-LGPL-FX/reverbsc.cpp **** static int         DelayLineBytesAlloc(float sr, float i_pitch_mod, int n);
  42:DaisySP-LGPL-FX/reverbsc.cpp **** static const float kOutputGain = 0.35;
  43:DaisySP-LGPL-FX/reverbsc.cpp **** static const float kJpScale    = 0.25;
  44:DaisySP-LGPL-FX/reverbsc.cpp **** 
  45:DaisySP-LGPL-FX/reverbsc.cpp **** int ReverbSc::Init(float sr)
  46:DaisySP-LGPL-FX/reverbsc.cpp **** {
  47:DaisySP-LGPL-FX/reverbsc.cpp ****     i_sample_rate_ = sr;
  48:DaisySP-LGPL-FX/reverbsc.cpp ****     sample_rate_   = sr;
  49:DaisySP-LGPL-FX/reverbsc.cpp ****     feedback_      = 0.97;
  50:DaisySP-LGPL-FX/reverbsc.cpp ****     lpfreq_        = 10000;
  51:DaisySP-LGPL-FX/reverbsc.cpp ****     i_pitch_mod_   = 1;
  52:DaisySP-LGPL-FX/reverbsc.cpp ****     i_skip_init_   = 0;
  53:DaisySP-LGPL-FX/reverbsc.cpp ****     damp_fact_     = 1.0;
  54:DaisySP-LGPL-FX/reverbsc.cpp ****     prv_lpfreq_    = 0.0;
  55:DaisySP-LGPL-FX/reverbsc.cpp ****     init_done_     = 1;
  56:DaisySP-LGPL-FX/reverbsc.cpp ****     int i, n_bytes = 0;
  57:DaisySP-LGPL-FX/reverbsc.cpp ****     wet_mix_ = 0.3;
  58:DaisySP-LGPL-FX/reverbsc.cpp ****     n_bytes = 0;
  59:DaisySP-LGPL-FX/reverbsc.cpp ****     for(i = 0; i < 8; i++)
  60:DaisySP-LGPL-FX/reverbsc.cpp ****     {
  61:DaisySP-LGPL-FX/reverbsc.cpp ****         if(n_bytes > DSY_REVERBSC_MAX_SIZE)
  62:DaisySP-LGPL-FX/reverbsc.cpp ****             return 1;
  63:DaisySP-LGPL-FX/reverbsc.cpp ****         delay_lines_[i].buf = (aux_) + n_bytes;
  64:DaisySP-LGPL-FX/reverbsc.cpp ****         InitDelayLine(&delay_lines_[i], i);
  65:DaisySP-LGPL-FX/reverbsc.cpp ****         n_bytes += DelayLineBytesAlloc(sr, 1, i);
  66:DaisySP-LGPL-FX/reverbsc.cpp ****     }
  67:DaisySP-LGPL-FX/reverbsc.cpp ****     return 0;
  68:DaisySP-LGPL-FX/reverbsc.cpp **** }
  69:DaisySP-LGPL-FX/reverbsc.cpp **** 
  70:DaisySP-LGPL-FX/reverbsc.cpp **** static int DelayLineMaxSamples(float sr, float i_pitch_mod, int n)
  71:DaisySP-LGPL-FX/reverbsc.cpp **** {
  72:DaisySP-LGPL-FX/reverbsc.cpp ****     float max_del;
  73:DaisySP-LGPL-FX/reverbsc.cpp **** 
  74:DaisySP-LGPL-FX/reverbsc.cpp ****     max_del = kReverbParams[n][0];
  75:DaisySP-LGPL-FX/reverbsc.cpp ****     max_del += (kReverbParams[n][1] * (float)i_pitch_mod * 1.125);
  76:DaisySP-LGPL-FX/reverbsc.cpp ****     return (int)(max_del * sr + 16.5);
  77:DaisySP-LGPL-FX/reverbsc.cpp **** }
  78:DaisySP-LGPL-FX/reverbsc.cpp **** 
  79:DaisySP-LGPL-FX/reverbsc.cpp **** static int DelayLineBytesAlloc(float sr, float i_pitch_mod, int n)
  80:DaisySP-LGPL-FX/reverbsc.cpp **** {
  81:DaisySP-LGPL-FX/reverbsc.cpp ****     int n_bytes = 0;
  82:DaisySP-LGPL-FX/reverbsc.cpp **** 
  83:DaisySP-LGPL-FX/reverbsc.cpp ****     n_bytes += (DelayLineMaxSamples(sr, i_pitch_mod, n) * (int)sizeof(float));
  84:DaisySP-LGPL-FX/reverbsc.cpp ****     return n_bytes;
  85:DaisySP-LGPL-FX/reverbsc.cpp **** }
  86:DaisySP-LGPL-FX/reverbsc.cpp **** 
  87:DaisySP-LGPL-FX/reverbsc.cpp **** void ReverbSc::NextRandomLineseg(ReverbScDl *lp, int n)
ARM GAS  /var/folders/2p/02m_5p7958535cp2tpgps0400000gn/T//ccJ8pZbM.s 			page 3


  88:DaisySP-LGPL-FX/reverbsc.cpp **** {
  29              		.loc 1 88 1 view -0
  30              		.cfi_startproc
  31              		@ args = 0, pretend = 0, frame = 0
  32              		@ frame_needed = 0, uses_anonymous_args = 0
  89:DaisySP-LGPL-FX/reverbsc.cpp ****     float prv_del, nxt_del, phs_inc_val;
  33              		.loc 1 89 5 view .LVU1
  90:DaisySP-LGPL-FX/reverbsc.cpp **** 
  91:DaisySP-LGPL-FX/reverbsc.cpp ****     /* update random seed */
  92:DaisySP-LGPL-FX/reverbsc.cpp ****     if(lp->seed_val < 0)
  34              		.loc 1 92 5 view .LVU2
  35              		.loc 1 92 12 is_stmt 0 view .LVU3
  36 0000 8B69     		ldr	r3, [r1, #24]
  93:DaisySP-LGPL-FX/reverbsc.cpp ****         lp->seed_val += 0x10000;
  94:DaisySP-LGPL-FX/reverbsc.cpp ****     lp->seed_val = (lp->seed_val * 15625 + 1) & 0xFFFF;
  95:DaisySP-LGPL-FX/reverbsc.cpp ****     if(lp->seed_val >= 0x8000)
  96:DaisySP-LGPL-FX/reverbsc.cpp ****         lp->seed_val -= 0x10000;
  97:DaisySP-LGPL-FX/reverbsc.cpp ****     /* length of next segment in samples */
  98:DaisySP-LGPL-FX/reverbsc.cpp ****     lp->rand_line_cnt = (int)((sample_rate_ / kReverbParams[n][2]) + 0.5);
  37              		.loc 1 98 68 view .LVU4
  38 0002 B6EE005B 		vmov.f64	d5, #5.0e-1
  39              		.loc 1 98 32 view .LVU5
  40 0006 D0ED054A 		vldr.32	s9, [r0, #20]
  92:DaisySP-LGPL-FX/reverbsc.cpp ****         lp->seed_val += 0x10000;
  41              		.loc 1 92 5 view .LVU6
  42 000a 002B     		cmp	r3, #0
  93:DaisySP-LGPL-FX/reverbsc.cpp ****         lp->seed_val += 0x10000;
  43              		.loc 1 93 9 is_stmt 1 view .LVU7
  99:DaisySP-LGPL-FX/reverbsc.cpp ****     prv_del           = (float)lp->write_pos;
 100:DaisySP-LGPL-FX/reverbsc.cpp ****     prv_del -= ((float)lp->read_pos
 101:DaisySP-LGPL-FX/reverbsc.cpp ****                 + ((float)lp->read_pos_frac / (float)DELAYPOS_SCALE));
  44              		.loc 1 101 17 is_stmt 0 view .LVU8
  45 000c 9FED354A 		vldr.32	s8, .L11
  93:DaisySP-LGPL-FX/reverbsc.cpp ****     lp->seed_val = (lp->seed_val * 15625 + 1) & 0xFFFF;
  46              		.loc 1 93 22 view .LVU9
  47 0010 B8BF     		it	lt
  48 0012 03F58033 		addlt	r3, r3, #65536
  88:DaisySP-LGPL-FX/reverbsc.cpp ****     float prv_del, nxt_del, phs_inc_val;
  49              		.loc 1 88 1 view .LVU10
  50 0016 10B5     		push	{r4, lr}
  51              		.cfi_def_cfa_offset 8
  52              		.cfi_offset 4, -8
  53              		.cfi_offset 14, -4
  93:DaisySP-LGPL-FX/reverbsc.cpp ****     lp->seed_val = (lp->seed_val * 15625 + 1) & 0xFFFF;
  54              		.loc 1 93 22 view .LVU11
  55 0018 B8BF     		it	lt
  56 001a 8B61     		strlt	r3, [r1, #24]
  94:DaisySP-LGPL-FX/reverbsc.cpp ****     if(lp->seed_val >= 0x8000)
  57              		.loc 1 94 5 is_stmt 1 view .LVU12
  94:DaisySP-LGPL-FX/reverbsc.cpp ****     if(lp->seed_val >= 0x8000)
  58              		.loc 1 94 34 is_stmt 0 view .LVU13
  59 001c 43F60954 		movw	r4, #15625
  60 0020 8B69     		ldr	r3, [r1, #24]
  61 0022 6343     		muls	r3, r4, r3
  94:DaisySP-LGPL-FX/reverbsc.cpp ****     if(lp->seed_val >= 0x8000)
  62              		.loc 1 94 42 view .LVU14
  63 0024 0133     		adds	r3, r3, #1
ARM GAS  /var/folders/2p/02m_5p7958535cp2tpgps0400000gn/T//ccJ8pZbM.s 			page 4


  94:DaisySP-LGPL-FX/reverbsc.cpp ****     if(lp->seed_val >= 0x8000)
  64              		.loc 1 94 47 view .LVU15
  65 0026 9CB2     		uxth	r4, r3
  95:DaisySP-LGPL-FX/reverbsc.cpp ****         lp->seed_val -= 0x10000;
  66              		.loc 1 95 5 is_stmt 1 view .LVU16
  67 0028 1B04     		lsls	r3, r3, #16
  96:DaisySP-LGPL-FX/reverbsc.cpp ****     /* length of next segment in samples */
  68              		.loc 1 96 9 view .LVU17
  98:DaisySP-LGPL-FX/reverbsc.cpp ****     prv_del           = (float)lp->write_pos;
  69              		.loc 1 98 65 is_stmt 0 view .LVU18
  70 002a 2F4B     		ldr	r3, .L11+4
  96:DaisySP-LGPL-FX/reverbsc.cpp ****     /* length of next segment in samples */
  71              		.loc 1 96 22 view .LVU19
  72 002c 48BF     		it	mi
  73 002e A4F58034 		submi	r4, r4, #65536
  74 0032 8C61     		str	r4, [r1, #24]
  98:DaisySP-LGPL-FX/reverbsc.cpp ****     prv_del           = (float)lp->write_pos;
  75              		.loc 1 98 5 is_stmt 1 view .LVU20
  98:DaisySP-LGPL-FX/reverbsc.cpp ****     prv_del           = (float)lp->write_pos;
  76              		.loc 1 98 65 is_stmt 0 view .LVU21
  77 0034 1401     		lsls	r4, r2, #4
  78 0036 03EB0212 		add	r2, r3, r2, lsl #4
  79              	.LVL1:
  98:DaisySP-LGPL-FX/reverbsc.cpp ****     prv_del           = (float)lp->write_pos;
  80              		.loc 1 98 45 view .LVU22
  81 003a D2ED027A 		vldr.32	s15, [r2, #8]
  82 003e 84EEA76A 		vdiv.f32	s12, s9, s15
  99:DaisySP-LGPL-FX/reverbsc.cpp ****     prv_del -= ((float)lp->read_pos
  83              		.loc 1 99 23 view .LVU23
  84 0042 D1ED007A 		vldr.32	s15, [r1]	@ int
  98:DaisySP-LGPL-FX/reverbsc.cpp ****     prv_del           = (float)lp->write_pos;
  85              		.loc 1 98 45 view .LVU24
  86 0046 B7EEC66A 		vcvt.f64.f32	d6, s12
  98:DaisySP-LGPL-FX/reverbsc.cpp ****     prv_del           = (float)lp->write_pos;
  87              		.loc 1 98 68 view .LVU25
  88 004a 36EE056B 		vadd.f64	d6, d6, d5
  98:DaisySP-LGPL-FX/reverbsc.cpp ****     prv_del           = (float)lp->write_pos;
  89              		.loc 1 98 25 view .LVU26
  90 004e BDEEC66B 		vcvt.s32.f64	s12, d6
  99:DaisySP-LGPL-FX/reverbsc.cpp ****     prv_del -= ((float)lp->read_pos
  91              		.loc 1 99 23 view .LVU27
  92 0052 F8EEE76A 		vcvt.f32.s32	s13, s15
  93              		.loc 1 101 20 view .LVU28
  94 0056 D1ED037A 		vldr.32	s15, [r1, #12]	@ int
  95 005a B8EEE77A 		vcvt.f32.s32	s14, s15
 100:DaisySP-LGPL-FX/reverbsc.cpp ****                 + ((float)lp->read_pos_frac / (float)DELAYPOS_SCALE));
  96              		.loc 1 100 17 view .LVU29
  97 005e D1ED027A 		vldr.32	s15, [r1, #8]	@ int
  98:DaisySP-LGPL-FX/reverbsc.cpp ****     prv_del           = (float)lp->write_pos;
  98              		.loc 1 98 23 view .LVU30
  99 0062 81ED076A 		vstr.32	s12, [r1, #28]	@ int
  99:DaisySP-LGPL-FX/reverbsc.cpp ****     prv_del -= ((float)lp->read_pos
 100              		.loc 1 99 5 is_stmt 1 view .LVU31
 101              	.LVL2:
 100:DaisySP-LGPL-FX/reverbsc.cpp ****                 + ((float)lp->read_pos_frac / (float)DELAYPOS_SCALE));
 102              		.loc 1 100 5 view .LVU32
 100:DaisySP-LGPL-FX/reverbsc.cpp ****                 + ((float)lp->read_pos_frac / (float)DELAYPOS_SCALE));
ARM GAS  /var/folders/2p/02m_5p7958535cp2tpgps0400000gn/T//ccJ8pZbM.s 			page 5


 103              		.loc 1 100 17 is_stmt 0 view .LVU33
 104 0066 F8EEE77A 		vcvt.f32.s32	s15, s15
 105              		.loc 1 101 17 view .LVU34
 106 006a E7EE047A 		vfma.f32	s15, s14, s8
 100:DaisySP-LGPL-FX/reverbsc.cpp ****                 + ((float)lp->read_pos_frac / (float)DELAYPOS_SCALE));
 107              		.loc 1 100 13 view .LVU35
 108 006e 76EEE77A 		vsub.f32	s15, s13, s15
 109              	.LVL3:
 110              	.L7:
 102:DaisySP-LGPL-FX/reverbsc.cpp ****     while(prv_del < 0.0)
 111              		.loc 1 102 5 is_stmt 1 view .LVU36
 112              		.loc 1 102 19 view .LVU37
 113 0072 F5EEC07A 		vcmpe.f32	s15, #0
 114 0076 F1EE10FA 		vmrs	APSR_nzcv, FPSCR
 115 007a 06D5     		bpl	.L9
 103:DaisySP-LGPL-FX/reverbsc.cpp ****         prv_del += lp->buffer_size;
 116              		.loc 1 103 9 view .LVU38
 117              		.loc 1 103 17 is_stmt 0 view .LVU39
 118 007c 91ED017A 		vldr.32	s14, [r1, #4]	@ int
 119 0080 B8EEC77A 		vcvt.f32.s32	s14, s14
 120 0084 77EE877A 		vadd.f32	s15, s15, s14
 121              	.LVL4:
 102:DaisySP-LGPL-FX/reverbsc.cpp ****     while(prv_del < 0.0)
 122              		.loc 1 102 5 view .LVU40
 123 0088 F3E7     		b	.L7
 124              	.L9:
 104:DaisySP-LGPL-FX/reverbsc.cpp ****     prv_del = prv_del / sample_rate_; /* previous delay time in seconds */
 125              		.loc 1 104 5 is_stmt 1 view .LVU41
 126              		.loc 1 104 13 is_stmt 0 view .LVU42
 127 008a 87EEA47A 		vdiv.f32	s14, s15, s9
 128              	.LVL5:
 105:DaisySP-LGPL-FX/reverbsc.cpp ****     nxt_del = (float)lp->seed_val * kReverbParams[n][1] / 32768.0;
 129              		.loc 1 105 5 is_stmt 1 view .LVU43
 130              		.loc 1 105 15 is_stmt 0 view .LVU44
 131 008e D1ED067A 		vldr.32	s15, [r1, #24]	@ int
 132              		.loc 1 105 55 view .LVU45
 133 0092 2344     		add	r3, r3, r4
 106:DaisySP-LGPL-FX/reverbsc.cpp ****     /* next delay time in seconds */
 107:DaisySP-LGPL-FX/reverbsc.cpp ****     nxt_del = kReverbParams[n][0] + (nxt_del * (float)i_pitch_mod_);
 134              		.loc 1 107 13 view .LVU46
 135 0094 90ED034A 		vldr.32	s8, [r0, #12]
 105:DaisySP-LGPL-FX/reverbsc.cpp ****     nxt_del = (float)lp->seed_val * kReverbParams[n][1] / 32768.0;
 136              		.loc 1 105 35 view .LVU47
 137 0098 D3ED016A 		vldr.32	s13, [r3, #4]
 105:DaisySP-LGPL-FX/reverbsc.cpp ****     nxt_del = (float)lp->seed_val * kReverbParams[n][1] / 32768.0;
 138              		.loc 1 105 15 view .LVU48
 139 009c F8EEE77A 		vcvt.f32.s32	s15, s15
 108:DaisySP-LGPL-FX/reverbsc.cpp ****     /* calculate phase increment per sample */
 109:DaisySP-LGPL-FX/reverbsc.cpp ****     phs_inc_val           = (prv_del - nxt_del) / (float)lp->rand_line_cnt;
 140              		.loc 1 109 51 view .LVU49
 141 00a0 B8EEC66A 		vcvt.f32.s32	s12, s12
 105:DaisySP-LGPL-FX/reverbsc.cpp ****     /* next delay time in seconds */
 142              		.loc 1 105 35 view .LVU50
 143 00a4 67EEA67A 		vmul.f32	s15, s15, s13
 105:DaisySP-LGPL-FX/reverbsc.cpp ****     /* next delay time in seconds */
 144              		.loc 1 105 13 view .LVU51
 145 00a8 DFED106A 		vldr.32	s13, .L11+8
ARM GAS  /var/folders/2p/02m_5p7958535cp2tpgps0400000gn/T//ccJ8pZbM.s 			page 6


 146 00ac 67EEA67A 		vmul.f32	s15, s15, s13
 147              	.LVL6:
 107:DaisySP-LGPL-FX/reverbsc.cpp ****     /* calculate phase increment per sample */
 148              		.loc 1 107 5 is_stmt 1 view .LVU52
 107:DaisySP-LGPL-FX/reverbsc.cpp ****     /* calculate phase increment per sample */
 149              		.loc 1 107 13 is_stmt 0 view .LVU53
 150 00b0 D3ED006A 		vldr.32	s13, [r3]
 151 00b4 E4EE276A 		vfma.f32	s13, s8, s15
 152              	.LVL7:
 153              		.loc 1 109 5 is_stmt 1 view .LVU54
 154              		.loc 1 109 38 is_stmt 0 view .LVU55
 155 00b8 77EE667A 		vsub.f32	s15, s14, s13
 110:DaisySP-LGPL-FX/reverbsc.cpp ****     phs_inc_val           = phs_inc_val * sample_rate_ + 1.0;
 156              		.loc 1 110 27 view .LVU56
 157 00bc B7EE007A 		vmov.f32	s14, #1.0e+0
 158              	.LVL8:
 109:DaisySP-LGPL-FX/reverbsc.cpp ****     phs_inc_val           = phs_inc_val * sample_rate_ + 1.0;
 159              		.loc 1 109 27 view .LVU57
 160 00c0 C7EE866A 		vdiv.f32	s13, s15, s12
 161              	.LVL9:
 162              		.loc 1 110 5 is_stmt 1 view .LVU58
 111:DaisySP-LGPL-FX/reverbsc.cpp ****     lp->read_pos_frac_inc = (int)(phs_inc_val * DELAYPOS_SCALE + 0.5);
 163              		.loc 1 111 47 is_stmt 0 view .LVU59
 164 00c4 DFED0A7A 		vldr.32	s15, .L11+12
 110:DaisySP-LGPL-FX/reverbsc.cpp ****     phs_inc_val           = phs_inc_val * sample_rate_ + 1.0;
 165              		.loc 1 110 27 view .LVU60
 166 00c8 A4EEA67A 		vfma.f32	s14, s9, s13
 167              	.LVL10:
 168              		.loc 1 111 5 is_stmt 1 view .LVU61
 169              		.loc 1 111 47 is_stmt 0 view .LVU62
 170 00cc 27EE277A 		vmul.f32	s14, s14, s15
 171              	.LVL11:
 172              		.loc 1 111 47 view .LVU63
 173 00d0 B7EEC77A 		vcvt.f64.f32	d7, s14
 174              		.loc 1 111 64 view .LVU64
 175 00d4 37EE057B 		vadd.f64	d7, d7, d5
 176              		.loc 1 111 29 view .LVU65
 177 00d8 BDEEC77B 		vcvt.s32.f64	s14, d7
 178 00dc 81ED047A 		vstr.32	s14, [r1, #16]	@ int
 112:DaisySP-LGPL-FX/reverbsc.cpp **** }
 179              		.loc 1 112 1 view .LVU66
 180 00e0 10BD     		pop	{r4, pc}
 181              	.L12:
 182 00e2 00BF     		.align	2
 183              	.L11:
 184 00e4 00008031 		.word	830472192
 185 00e8 00000000 		.word	.LANCHOR0
 186 00ec 00000038 		.word	939524096
 187 00f0 0000804D 		.word	1300234240
 188              		.cfi_endproc
 189              	.LFE558:
 191              		.section	.text._ZN7daisysp8ReverbSc13InitDelayLineEPNS_10ReverbScDlEi,"ax",%progbits
 192              		.align	1
 193              		.global	_ZN7daisysp8ReverbSc13InitDelayLineEPNS_10ReverbScDlEi
 194              		.syntax unified
 195              		.thumb
 196              		.thumb_func
ARM GAS  /var/folders/2p/02m_5p7958535cp2tpgps0400000gn/T//ccJ8pZbM.s 			page 7


 198              	_ZN7daisysp8ReverbSc13InitDelayLineEPNS_10ReverbScDlEi:
 199              	.LVL12:
 200              	.LFB559:
 113:DaisySP-LGPL-FX/reverbsc.cpp **** 
 114:DaisySP-LGPL-FX/reverbsc.cpp **** int ReverbSc::InitDelayLine(ReverbScDl *lp, int n)
 115:DaisySP-LGPL-FX/reverbsc.cpp **** {
 201              		.loc 1 115 1 is_stmt 1 view -0
 202              		.cfi_startproc
 203              		@ args = 0, pretend = 0, frame = 0
 204              		@ frame_needed = 0, uses_anonymous_args = 0
 116:DaisySP-LGPL-FX/reverbsc.cpp ****     float read_pos;
 205              		.loc 1 116 5 view .LVU68
 117:DaisySP-LGPL-FX/reverbsc.cpp ****     /* int     i; */
 118:DaisySP-LGPL-FX/reverbsc.cpp **** 
 119:DaisySP-LGPL-FX/reverbsc.cpp ****     /* calculate length of delay line */
 120:DaisySP-LGPL-FX/reverbsc.cpp ****     lp->buffer_size = DelayLineMaxSamples(sample_rate_, 1, n);
 206              		.loc 1 120 5 view .LVU69
 207              	.LBB5:
 208              	.LBB6:
  74:DaisySP-LGPL-FX/reverbsc.cpp ****     max_del += (kReverbParams[n][1] * (float)i_pitch_mod * 1.125);
 209              		.loc 1 74 13 is_stmt 0 view .LVU70
 210 0000 334B     		ldr	r3, .L17+8
  75:DaisySP-LGPL-FX/reverbsc.cpp ****     return (int)(max_del * sr + 16.5);
 211              		.loc 1 75 13 view .LVU71
 212 0002 B7EE026B 		vmov.f64	d6, #1.125e+0
 213              	.LBE6:
 214              	.LBE5:
 215              		.loc 1 120 42 view .LVU72
 216 0006 90ED054A 		vldr.32	s8, [r0, #20]
 217              	.LVL13:
 218              	.LBB11:
 219              	.LBI5:
  70:DaisySP-LGPL-FX/reverbsc.cpp **** {
 220              		.loc 1 70 12 is_stmt 1 view .LVU73
 221              	.LBB7:
  72:DaisySP-LGPL-FX/reverbsc.cpp **** 
 222              		.loc 1 72 5 view .LVU74
  74:DaisySP-LGPL-FX/reverbsc.cpp ****     max_del += (kReverbParams[n][1] * (float)i_pitch_mod * 1.125);
 223              		.loc 1 74 5 view .LVU75
  74:DaisySP-LGPL-FX/reverbsc.cpp ****     max_del += (kReverbParams[n][1] * (float)i_pitch_mod * 1.125);
 224              		.loc 1 74 13 is_stmt 0 view .LVU76
 225 000a 03EB0213 		add	r3, r3, r2, lsl #4
 226 000e D3ED004A 		vldr.32	s9, [r3]
 227              	.LVL14:
  75:DaisySP-LGPL-FX/reverbsc.cpp ****     return (int)(max_del * sr + 16.5);
 228              		.loc 1 75 5 is_stmt 1 view .LVU77
  75:DaisySP-LGPL-FX/reverbsc.cpp ****     return (int)(max_del * sr + 16.5);
 229              		.loc 1 75 35 is_stmt 0 view .LVU78
 230 0012 D3ED013A 		vldr.32	s7, [r3, #4]
  75:DaisySP-LGPL-FX/reverbsc.cpp ****     return (int)(max_del * sr + 16.5);
 231              		.loc 1 75 13 view .LVU79
 232 0016 B7EEE47A 		vcvt.f64.f32	d7, s9
  75:DaisySP-LGPL-FX/reverbsc.cpp ****     return (int)(max_del * sr + 16.5);
 233              		.loc 1 75 37 view .LVU80
 234 001a B7EEE35A 		vcvt.f64.f32	d5, s7
 235              	.LBE7:
 236              	.LBE11:
ARM GAS  /var/folders/2p/02m_5p7958535cp2tpgps0400000gn/T//ccJ8pZbM.s 			page 8


 115:DaisySP-LGPL-FX/reverbsc.cpp ****     float read_pos;
 237              		.loc 1 115 1 view .LVU81
 238 001e 70B5     		push	{r4, r5, r6, lr}
 239              		.cfi_def_cfa_offset 16
 240              		.cfi_offset 4, -16
 241              		.cfi_offset 5, -12
 242              		.cfi_offset 6, -8
 243              		.cfi_offset 14, -4
 244              	.LBB12:
 245              	.LBB8:
  75:DaisySP-LGPL-FX/reverbsc.cpp ****     return (int)(max_del * sr + 16.5);
 246              		.loc 1 75 13 view .LVU82
 247 0020 A5EE067B 		vfma.f64	d7, d5, d6
 248              	.LVL15:
  76:DaisySP-LGPL-FX/reverbsc.cpp **** }
 249              		.loc 1 76 5 is_stmt 1 view .LVU83
 250              	.LBE8:
 251              	.LBE12:
 121:DaisySP-LGPL-FX/reverbsc.cpp ****     lp->dummy       = 0;
 252              		.loc 1 121 21 is_stmt 0 view .LVU84
 253 0024 0025     		movs	r5, #0
 115:DaisySP-LGPL-FX/reverbsc.cpp ****     float read_pos;
 254              		.loc 1 115 1 view .LVU85
 255 0026 0C46     		mov	r4, r1
 256              		.loc 1 121 21 view .LVU86
 257 0028 4D61     		str	r5, [r1, #20]
 122:DaisySP-LGPL-FX/reverbsc.cpp ****     lp->write_pos   = 0;
 258              		.loc 1 122 21 view .LVU87
 259 002a 0D60     		str	r5, [r1]
 123:DaisySP-LGPL-FX/reverbsc.cpp ****     /* set random seed */
 124:DaisySP-LGPL-FX/reverbsc.cpp ****     lp->seed_val = (int)(kReverbParams[n][3] + 0.5);
 260              		.loc 1 124 46 view .LVU88
 261 002c B6EE005B 		vmov.f64	d5, #5.0e-1
 262              	.LBB13:
 263              	.LBB9:
  76:DaisySP-LGPL-FX/reverbsc.cpp **** }
 264              		.loc 1 76 31 view .LVU89
 265 0030 9FED256B 		vldr.64	d6, .L17
  75:DaisySP-LGPL-FX/reverbsc.cpp ****     return (int)(max_del * sr + 16.5);
 266              		.loc 1 75 13 view .LVU90
 267 0034 B7EEC77B 		vcvt.f32.f64	s14, d7
 268              	.LVL16:
  76:DaisySP-LGPL-FX/reverbsc.cpp **** }
 269              		.loc 1 76 26 view .LVU91
 270 0038 27EE047A 		vmul.f32	s14, s14, s8
 271              	.LVL17:
  76:DaisySP-LGPL-FX/reverbsc.cpp **** }
 272              		.loc 1 76 26 view .LVU92
 273 003c B7EEC77A 		vcvt.f64.f32	d7, s14
  76:DaisySP-LGPL-FX/reverbsc.cpp **** }
 274              		.loc 1 76 31 view .LVU93
 275 0040 37EE067B 		vadd.f64	d7, d7, d6
 276              	.LBE9:
 277              	.LBE13:
 278              		.loc 1 124 44 view .LVU94
 279 0044 93ED036A 		vldr.32	s12, [r3, #12]
 280 0048 B7EEC66A 		vcvt.f64.f32	d6, s12
ARM GAS  /var/folders/2p/02m_5p7958535cp2tpgps0400000gn/T//ccJ8pZbM.s 			page 9


 281              	.LBB14:
 282              	.LBB10:
  76:DaisySP-LGPL-FX/reverbsc.cpp **** }
 283              		.loc 1 76 37 view .LVU95
 284 004c BDEEC77B 		vcvt.s32.f64	s14, d7
 285              	.LVL18:
  76:DaisySP-LGPL-FX/reverbsc.cpp **** }
 286              		.loc 1 76 37 view .LVU96
 287              	.LBE10:
 288              	.LBE14:
 125:DaisySP-LGPL-FX/reverbsc.cpp ****     /* set initial delay time */
 126:DaisySP-LGPL-FX/reverbsc.cpp ****     read_pos     = (float)lp->seed_val * kReverbParams[n][1] / 32768;
 289              		.loc 1 126 18 view .LVU97
 290 0050 DFED207A 		vldr.32	s15, .L17+12
 124:DaisySP-LGPL-FX/reverbsc.cpp ****     /* set initial delay time */
 291              		.loc 1 124 46 view .LVU98
 292 0054 36EE056B 		vadd.f64	d6, d6, d5
 120:DaisySP-LGPL-FX/reverbsc.cpp ****     lp->dummy       = 0;
 293              		.loc 1 120 21 view .LVU99
 294 0058 81ED017A 		vstr.32	s14, [r1, #4]	@ int
 121:DaisySP-LGPL-FX/reverbsc.cpp ****     lp->write_pos   = 0;
 295              		.loc 1 121 5 is_stmt 1 view .LVU100
 122:DaisySP-LGPL-FX/reverbsc.cpp ****     /* set random seed */
 296              		.loc 1 122 5 view .LVU101
 124:DaisySP-LGPL-FX/reverbsc.cpp ****     /* set initial delay time */
 297              		.loc 1 124 5 view .LVU102
 127:DaisySP-LGPL-FX/reverbsc.cpp ****     read_pos     = kReverbParams[n][0] + (read_pos * (float)i_pitch_mod_);
 128:DaisySP-LGPL-FX/reverbsc.cpp ****     read_pos     = (float)lp->buffer_size - (read_pos * sample_rate_);
 298              		.loc 1 128 20 is_stmt 0 view .LVU103
 299 005c B8EEC77A 		vcvt.f32.s32	s14, s14
 124:DaisySP-LGPL-FX/reverbsc.cpp ****     /* set initial delay time */
 300              		.loc 1 124 20 view .LVU104
 301 0060 BDEEC66B 		vcvt.s32.f64	s12, d6
 124:DaisySP-LGPL-FX/reverbsc.cpp ****     /* set initial delay time */
 302              		.loc 1 124 18 view .LVU105
 303 0064 81ED066A 		vstr.32	s12, [r1, #24]	@ int
 126:DaisySP-LGPL-FX/reverbsc.cpp ****     read_pos     = kReverbParams[n][0] + (read_pos * (float)i_pitch_mod_);
 304              		.loc 1 126 5 is_stmt 1 view .LVU106
 126:DaisySP-LGPL-FX/reverbsc.cpp ****     read_pos     = kReverbParams[n][0] + (read_pos * (float)i_pitch_mod_);
 305              		.loc 1 126 20 is_stmt 0 view .LVU107
 306 0068 B8EEC66A 		vcvt.f32.s32	s12, s12
 126:DaisySP-LGPL-FX/reverbsc.cpp ****     read_pos     = kReverbParams[n][0] + (read_pos * (float)i_pitch_mod_);
 307              		.loc 1 126 40 view .LVU108
 308 006c 26EE236A 		vmul.f32	s12, s12, s7
 126:DaisySP-LGPL-FX/reverbsc.cpp ****     read_pos     = kReverbParams[n][0] + (read_pos * (float)i_pitch_mod_);
 309              		.loc 1 126 18 view .LVU109
 310 0070 26EE276A 		vmul.f32	s12, s12, s15
 311              	.LVL19:
 127:DaisySP-LGPL-FX/reverbsc.cpp ****     read_pos     = kReverbParams[n][0] + (read_pos * (float)i_pitch_mod_);
 312              		.loc 1 127 5 is_stmt 1 view .LVU110
 127:DaisySP-LGPL-FX/reverbsc.cpp ****     read_pos     = kReverbParams[n][0] + (read_pos * (float)i_pitch_mod_);
 313              		.loc 1 127 18 is_stmt 0 view .LVU111
 314 0074 D0ED037A 		vldr.32	s15, [r0, #12]
 315 0078 E7EE864A 		vfma.f32	s9, s15, s12
 316              	.LVL20:
 317              		.loc 1 128 5 is_stmt 1 view .LVU112
 318              		.loc 1 128 18 is_stmt 0 view .LVU113
ARM GAS  /var/folders/2p/02m_5p7958535cp2tpgps0400000gn/T//ccJ8pZbM.s 			page 10


 319 007c A4EE647A 		vfms.f32	s14, s8, s9
 320              	.LVL21:
 129:DaisySP-LGPL-FX/reverbsc.cpp ****     lp->read_pos = (int)read_pos;
 321              		.loc 1 129 5 is_stmt 1 view .LVU114
 322              		.loc 1 129 20 is_stmt 0 view .LVU115
 323 0080 FDEEC77A 		vcvt.s32.f32	s15, s14
 324              		.loc 1 129 18 view .LVU116
 325 0084 C1ED027A 		vstr.32	s15, [r1, #8]	@ int
 130:DaisySP-LGPL-FX/reverbsc.cpp ****     read_pos     = (read_pos - (float)lp->read_pos) * (float)DELAYPOS_SCALE;
 326              		.loc 1 130 5 is_stmt 1 view .LVU117
 327              		.loc 1 130 32 is_stmt 0 view .LVU118
 328 0088 F8EEE77A 		vcvt.f32.s32	s15, s15
 329              		.loc 1 130 30 view .LVU119
 330 008c 37EE677A 		vsub.f32	s14, s14, s15
 331              	.LVL22:
 131:DaisySP-LGPL-FX/reverbsc.cpp ****     lp->read_pos_frac = (int)(read_pos + 0.5);
 332              		.loc 1 131 5 is_stmt 1 view .LVU120
 130:DaisySP-LGPL-FX/reverbsc.cpp ****     read_pos     = (read_pos - (float)lp->read_pos) * (float)DELAYPOS_SCALE;
 333              		.loc 1 130 18 is_stmt 0 view .LVU121
 334 0090 DFED117A 		vldr.32	s15, .L17+16
 335 0094 27EE277A 		vmul.f32	s14, s14, s15
 336              	.LVL23:
 337              		.loc 1 131 31 view .LVU122
 338 0098 B7EEC77A 		vcvt.f64.f32	d7, s14
 339              	.LVL24:
 340              		.loc 1 131 40 view .LVU123
 341 009c 37EE057B 		vadd.f64	d7, d7, d5
 342              		.loc 1 131 25 view .LVU124
 343 00a0 BDEEC77B 		vcvt.s32.f64	s14, d7
 344 00a4 81ED037A 		vstr.32	s14, [r1, #12]	@ int
 132:DaisySP-LGPL-FX/reverbsc.cpp ****     /* initialise first random line segment */
 133:DaisySP-LGPL-FX/reverbsc.cpp ****     NextRandomLineseg(lp, n);
 345              		.loc 1 133 5 is_stmt 1 view .LVU125
 346              		.loc 1 133 22 is_stmt 0 view .LVU126
 347 00a8 FFF7FEFF 		bl	_ZN7daisysp8ReverbSc17NextRandomLinesegEPNS_10ReverbScDlEi
 348              	.LVL25:
 134:DaisySP-LGPL-FX/reverbsc.cpp ****     /* clear delay line to zero */
 135:DaisySP-LGPL-FX/reverbsc.cpp ****     lp->filter_state = 0.0;
 349              		.loc 1 135 5 is_stmt 1 view .LVU127
 350              		.loc 1 135 22 is_stmt 0 view .LVU128
 351 00ac 0021     		movs	r1, #0
 352              	.LVL26:
 353              	.LBB15:
 136:DaisySP-LGPL-FX/reverbsc.cpp ****     for(int i = 0; i < lp->buffer_size; i++)
 354              		.loc 1 136 28 view .LVU129
 355 00ae 6068     		ldr	r0, [r4, #4]
 356              	.LVL27:
 357              		.loc 1 136 13 view .LVU130
 358 00b0 2B46     		mov	r3, r5
 359              	.LBE15:
 135:DaisySP-LGPL-FX/reverbsc.cpp ****     for(int i = 0; i < lp->buffer_size; i++)
 360              		.loc 1 135 22 view .LVU131
 361 00b2 2162     		str	r1, [r4, #32]	@ float
 362              		.loc 1 136 5 is_stmt 1 view .LVU132
 363              	.LVL28:
 364              	.L15:
 365              	.LBB16:
ARM GAS  /var/folders/2p/02m_5p7958535cp2tpgps0400000gn/T//ccJ8pZbM.s 			page 11


 366              		.loc 1 136 22 discriminator 3 view .LVU133
 367 00b4 9842     		cmp	r0, r3
 368 00b6 05DD     		ble	.L14
 137:DaisySP-LGPL-FX/reverbsc.cpp ****     {
 138:DaisySP-LGPL-FX/reverbsc.cpp ****         lp->buf[i] = 0;
 369              		.loc 1 138 9 discriminator 2 view .LVU134
 370              		.loc 1 138 20 is_stmt 0 discriminator 2 view .LVU135
 371 00b8 626A     		ldr	r2, [r4, #36]
 372 00ba 02EB8302 		add	r2, r2, r3, lsl #2
 136:DaisySP-LGPL-FX/reverbsc.cpp ****     {
 373              		.loc 1 136 5 discriminator 2 view .LVU136
 374 00be 0133     		adds	r3, r3, #1
 375              	.LVL29:
 376              		.loc 1 138 20 discriminator 2 view .LVU137
 377 00c0 1160     		str	r1, [r2]	@ float
 136:DaisySP-LGPL-FX/reverbsc.cpp ****     {
 378              		.loc 1 136 5 is_stmt 1 discriminator 2 view .LVU138
 379              	.LVL30:
 136:DaisySP-LGPL-FX/reverbsc.cpp ****     {
 380              		.loc 1 136 5 is_stmt 0 discriminator 2 view .LVU139
 381 00c2 F7E7     		b	.L15
 382              	.L14:
 136:DaisySP-LGPL-FX/reverbsc.cpp ****     {
 383              		.loc 1 136 5 discriminator 2 view .LVU140
 384              	.LBE16:
 139:DaisySP-LGPL-FX/reverbsc.cpp ****     }
 140:DaisySP-LGPL-FX/reverbsc.cpp ****     return REVSC_OK;
 385              		.loc 1 140 5 is_stmt 1 view .LVU141
 141:DaisySP-LGPL-FX/reverbsc.cpp **** }
 386              		.loc 1 141 1 is_stmt 0 view .LVU142
 387 00c4 0020     		movs	r0, #0
 388 00c6 70BD     		pop	{r4, r5, r6, pc}
 389              	.LVL31:
 390              	.L18:
 391              		.loc 1 141 1 view .LVU143
 392              		.align	3
 393              	.L17:
 394 00c8 00000000 		.word	0
 395 00cc 00803040 		.word	1076920320
 396 00d0 00000000 		.word	.LANCHOR0
 397 00d4 00000038 		.word	939524096
 398 00d8 0000804D 		.word	1300234240
 399              		.cfi_endproc
 400              	.LFE559:
 402              		.section	.text._ZN7daisysp8ReverbSc4InitEf,"ax",%progbits
 403              		.align	1
 404              		.global	_ZN7daisysp8ReverbSc4InitEf
 405              		.syntax unified
 406              		.thumb
 407              		.thumb_func
 409              	_ZN7daisysp8ReverbSc4InitEf:
 410              	.LVL32:
 411              	.LFB555:
  46:DaisySP-LGPL-FX/reverbsc.cpp ****     i_sample_rate_ = sr;
 412              		.loc 1 46 1 is_stmt 1 view -0
 413              		.cfi_startproc
 414              		@ args = 0, pretend = 0, frame = 0
ARM GAS  /var/folders/2p/02m_5p7958535cp2tpgps0400000gn/T//ccJ8pZbM.s 			page 12


 415              		@ frame_needed = 0, uses_anonymous_args = 0
  47:DaisySP-LGPL-FX/reverbsc.cpp ****     sample_rate_   = sr;
 416              		.loc 1 47 5 view .LVU145
  49:DaisySP-LGPL-FX/reverbsc.cpp ****     lpfreq_        = 10000;
 417              		.loc 1 49 20 is_stmt 0 view .LVU146
 418 0000 2B4B     		ldr	r3, .L24+8
  51:DaisySP-LGPL-FX/reverbsc.cpp ****     i_skip_init_   = 0;
 419              		.loc 1 51 20 view .LVU147
 420 0002 4FF07E52 		mov	r2, #1065353216
  46:DaisySP-LGPL-FX/reverbsc.cpp ****     i_sample_rate_ = sr;
 421              		.loc 1 46 1 view .LVU148
 422 0006 2DE9F041 		push	{r4, r5, r6, r7, r8, lr}
 423              		.cfi_def_cfa_offset 24
 424              		.cfi_offset 4, -24
 425              		.cfi_offset 5, -20
 426              		.cfi_offset 6, -16
 427              		.cfi_offset 7, -12
 428              		.cfi_offset 8, -8
 429              		.cfi_offset 14, -4
  49:DaisySP-LGPL-FX/reverbsc.cpp ****     lpfreq_        = 10000;
 430              		.loc 1 49 20 view .LVU149
 431 000a 0360     		str	r3, [r0]	@ float
  58:DaisySP-LGPL-FX/reverbsc.cpp ****     for(i = 0; i < 8; i++)
 432              		.loc 1 58 13 view .LVU150
 433 000c 0025     		movs	r5, #0
  50:DaisySP-LGPL-FX/reverbsc.cpp ****     i_pitch_mod_   = 1;
 434              		.loc 1 50 20 view .LVU151
 435 000e 294B     		ldr	r3, .L24+12
  46:DaisySP-LGPL-FX/reverbsc.cpp ****     i_sample_rate_ = sr;
 436              		.loc 1 46 1 view .LVU152
 437 0010 0446     		mov	r4, r0
  51:DaisySP-LGPL-FX/reverbsc.cpp ****     i_skip_init_   = 0;
 438              		.loc 1 51 20 view .LVU153
 439 0012 C260     		str	r2, [r0, #12]	@ float
 440 0014 00F12408 		add	r8, r0, #36
  50:DaisySP-LGPL-FX/reverbsc.cpp ****     i_pitch_mod_   = 1;
 441              		.loc 1 50 20 view .LVU154
 442 0018 4360     		str	r3, [r0, #4]	@ float
  52:DaisySP-LGPL-FX/reverbsc.cpp ****     damp_fact_     = 1.0;
 443              		.loc 1 52 20 view .LVU155
 444 001a 0023     		movs	r3, #0
  53:DaisySP-LGPL-FX/reverbsc.cpp ****     prv_lpfreq_    = 0.0;
 445              		.loc 1 53 20 view .LVU156
 446 001c 8261     		str	r2, [r0, #24]	@ float
  59:DaisySP-LGPL-FX/reverbsc.cpp ****     {
 447              		.loc 1 59 11 view .LVU157
 448 001e 2E46     		mov	r6, r5
  52:DaisySP-LGPL-FX/reverbsc.cpp ****     damp_fact_     = 1.0;
 449              		.loc 1 52 20 view .LVU158
 450 0020 0361     		str	r3, [r0, #16]	@ float
  54:DaisySP-LGPL-FX/reverbsc.cpp ****     init_done_     = 1;
 451              		.loc 1 54 20 view .LVU159
 452 0022 C361     		str	r3, [r0, #28]	@ float
  55:DaisySP-LGPL-FX/reverbsc.cpp ****     int i, n_bytes = 0;
 453              		.loc 1 55 20 view .LVU160
 454 0024 0123     		movs	r3, #1
  57:DaisySP-LGPL-FX/reverbsc.cpp ****     n_bytes = 0;
ARM GAS  /var/folders/2p/02m_5p7958535cp2tpgps0400000gn/T//ccJ8pZbM.s 			page 13


 455              		.loc 1 57 14 view .LVU161
 456 0026 244A     		ldr	r2, .L24+16
  55:DaisySP-LGPL-FX/reverbsc.cpp ****     int i, n_bytes = 0;
 457              		.loc 1 55 20 view .LVU162
 458 0028 0362     		str	r3, [r0, #32]
  57:DaisySP-LGPL-FX/reverbsc.cpp ****     n_bytes = 0;
 459              		.loc 1 57 14 view .LVU163
 460 002a 00F5C123 		add	r3, r0, #395264
 461 002e 234F     		ldr	r7, .L24+20
  47:DaisySP-LGPL-FX/reverbsc.cpp ****     sample_rate_   = sr;
 462              		.loc 1 47 20 view .LVU164
 463 0030 80ED020A 		vstr.32	s0, [r0, #8]
  48:DaisySP-LGPL-FX/reverbsc.cpp ****     feedback_      = 0.97;
 464              		.loc 1 48 5 is_stmt 1 view .LVU165
  48:DaisySP-LGPL-FX/reverbsc.cpp ****     feedback_      = 0.97;
 465              		.loc 1 48 20 is_stmt 0 view .LVU166
 466 0034 80ED050A 		vstr.32	s0, [r0, #20]
  49:DaisySP-LGPL-FX/reverbsc.cpp ****     lpfreq_        = 10000;
 467              		.loc 1 49 5 is_stmt 1 view .LVU167
  50:DaisySP-LGPL-FX/reverbsc.cpp ****     i_pitch_mod_   = 1;
 468              		.loc 1 50 5 view .LVU168
  51:DaisySP-LGPL-FX/reverbsc.cpp ****     i_skip_init_   = 0;
 469              		.loc 1 51 5 view .LVU169
  52:DaisySP-LGPL-FX/reverbsc.cpp ****     damp_fact_     = 1.0;
 470              		.loc 1 52 5 view .LVU170
  53:DaisySP-LGPL-FX/reverbsc.cpp ****     prv_lpfreq_    = 0.0;
 471              		.loc 1 53 5 view .LVU171
  54:DaisySP-LGPL-FX/reverbsc.cpp ****     init_done_     = 1;
 472              		.loc 1 54 5 view .LVU172
  55:DaisySP-LGPL-FX/reverbsc.cpp ****     int i, n_bytes = 0;
 473              		.loc 1 55 5 view .LVU173
  56:DaisySP-LGPL-FX/reverbsc.cpp ****     wet_mix_ = 0.3;
 474              		.loc 1 56 5 view .LVU174
 475              	.LVL33:
  57:DaisySP-LGPL-FX/reverbsc.cpp ****     n_bytes = 0;
 476              		.loc 1 57 5 view .LVU175
  57:DaisySP-LGPL-FX/reverbsc.cpp ****     n_bytes = 0;
 477              		.loc 1 57 14 is_stmt 0 view .LVU176
 478 0038 C3F84423 		str	r2, [r3, #836]	@ float
  58:DaisySP-LGPL-FX/reverbsc.cpp ****     for(i = 0; i < 8; i++)
 479              		.loc 1 58 5 is_stmt 1 view .LVU177
  59:DaisySP-LGPL-FX/reverbsc.cpp ****     {
 480              		.loc 1 59 5 view .LVU178
 481              	.LVL34:
  59:DaisySP-LGPL-FX/reverbsc.cpp ****     {
 482              		.loc 1 59 18 view .LVU179
  61:DaisySP-LGPL-FX/reverbsc.cpp ****             return 1;
 483              		.loc 1 61 9 view .LVU180
 484              	.L20:
  63:DaisySP-LGPL-FX/reverbsc.cpp ****         InitDelayLine(&delay_lines_[i], i);
 485              		.loc 1 63 9 discriminator 2 view .LVU181
  63:DaisySP-LGPL-FX/reverbsc.cpp ****         InitDelayLine(&delay_lines_[i], i);
 486              		.loc 1 63 32 is_stmt 0 discriminator 2 view .LVU182
 487 003c 04F5B273 		add	r3, r4, #356
  64:DaisySP-LGPL-FX/reverbsc.cpp ****         n_bytes += DelayLineBytesAlloc(sr, 1, i);
 488              		.loc 1 64 22 discriminator 2 view .LVU183
 489 0040 3246     		mov	r2, r6
ARM GAS  /var/folders/2p/02m_5p7958535cp2tpgps0400000gn/T//ccJ8pZbM.s 			page 14


 490 0042 4146     		mov	r1, r8
 491 0044 2046     		mov	r0, r4
  63:DaisySP-LGPL-FX/reverbsc.cpp ****         InitDelayLine(&delay_lines_[i], i);
 492              		.loc 1 63 38 discriminator 2 view .LVU184
 493 0046 03EB8503 		add	r3, r3, r5, lsl #2
  59:DaisySP-LGPL-FX/reverbsc.cpp ****     {
 494              		.loc 1 59 5 discriminator 2 view .LVU185
 495 004a 0136     		adds	r6, r6, #1
 496              	.LVL35:
  63:DaisySP-LGPL-FX/reverbsc.cpp ****         InitDelayLine(&delay_lines_[i], i);
 497              		.loc 1 63 29 discriminator 2 view .LVU186
 498 004c C8F82430 		str	r3, [r8, #36]
  64:DaisySP-LGPL-FX/reverbsc.cpp ****         n_bytes += DelayLineBytesAlloc(sr, 1, i);
 499              		.loc 1 64 9 is_stmt 1 discriminator 2 view .LVU187
  64:DaisySP-LGPL-FX/reverbsc.cpp ****         n_bytes += DelayLineBytesAlloc(sr, 1, i);
 500              		.loc 1 64 22 is_stmt 0 discriminator 2 view .LVU188
 501 0050 FFF7FEFF 		bl	_ZN7daisysp8ReverbSc13InitDelayLineEPNS_10ReverbScDlEi
 502              	.LVL36:
  65:DaisySP-LGPL-FX/reverbsc.cpp ****     }
 503              		.loc 1 65 9 is_stmt 1 discriminator 2 view .LVU189
 504              	.LBB21:
 505              	.LBI21:
  79:DaisySP-LGPL-FX/reverbsc.cpp **** {
 506              		.loc 1 79 12 discriminator 2 view .LVU190
 507              	.LBB22:
  81:DaisySP-LGPL-FX/reverbsc.cpp **** 
 508              		.loc 1 81 5 discriminator 2 view .LVU191
  83:DaisySP-LGPL-FX/reverbsc.cpp ****     return n_bytes;
 509              		.loc 1 83 5 discriminator 2 view .LVU192
 510              	.LBB23:
 511              	.LBI23:
  70:DaisySP-LGPL-FX/reverbsc.cpp **** {
 512              		.loc 1 70 12 discriminator 2 view .LVU193
 513              	.LBB24:
  72:DaisySP-LGPL-FX/reverbsc.cpp **** 
 514              		.loc 1 72 5 discriminator 2 view .LVU194
  74:DaisySP-LGPL-FX/reverbsc.cpp ****     max_del += (kReverbParams[n][1] * (float)i_pitch_mod * 1.125);
 515              		.loc 1 74 5 discriminator 2 view .LVU195
  75:DaisySP-LGPL-FX/reverbsc.cpp ****     return (int)(max_del * sr + 16.5);
 516              		.loc 1 75 5 discriminator 2 view .LVU196
  75:DaisySP-LGPL-FX/reverbsc.cpp ****     return (int)(max_del * sr + 16.5);
 517              		.loc 1 75 37 is_stmt 0 discriminator 2 view .LVU197
 518 0054 97ED016A 		vldr.32	s12, [r7, #4]
  75:DaisySP-LGPL-FX/reverbsc.cpp ****     return (int)(max_del * sr + 16.5);
 519              		.loc 1 75 13 discriminator 2 view .LVU198
 520 0058 97ED007A 		vldr.32	s14, [r7]
 521 005c B7EE025B 		vmov.f64	d5, #1.125e+0
  75:DaisySP-LGPL-FX/reverbsc.cpp ****     return (int)(max_del * sr + 16.5);
 522              		.loc 1 75 37 discriminator 2 view .LVU199
 523 0060 B7EEC66A 		vcvt.f64.f32	d6, s12
 524              	.LBE24:
 525              	.LBE23:
 526              	.LBE22:
 527              	.LBE21:
  59:DaisySP-LGPL-FX/reverbsc.cpp ****     {
 528              		.loc 1 59 18 discriminator 2 view .LVU200
 529 0064 082E     		cmp	r6, #8
ARM GAS  /var/folders/2p/02m_5p7958535cp2tpgps0400000gn/T//ccJ8pZbM.s 			page 15


 530              	.LBB30:
 531              	.LBB29:
 532              	.LBB27:
 533              	.LBB25:
  75:DaisySP-LGPL-FX/reverbsc.cpp ****     return (int)(max_del * sr + 16.5);
 534              		.loc 1 75 13 discriminator 2 view .LVU201
 535 0066 B7EEC77A 		vcvt.f64.f32	d7, s14
 536 006a A6EE057B 		vfma.f64	d7, d6, d5
 537              	.LVL37:
  76:DaisySP-LGPL-FX/reverbsc.cpp **** }
 538              		.loc 1 76 5 is_stmt 1 discriminator 2 view .LVU202
  76:DaisySP-LGPL-FX/reverbsc.cpp **** }
 539              		.loc 1 76 5 is_stmt 0 discriminator 2 view .LVU203
 540              	.LBE25:
 541              	.LBE27:
  84:DaisySP-LGPL-FX/reverbsc.cpp **** }
 542              		.loc 1 84 5 is_stmt 1 discriminator 2 view .LVU204
 543              	.LBB28:
 544              	.LBB26:
  76:DaisySP-LGPL-FX/reverbsc.cpp **** }
 545              		.loc 1 76 31 is_stmt 0 discriminator 2 view .LVU205
 546 006e 9FED0E6B 		vldr.64	d6, .L24
  75:DaisySP-LGPL-FX/reverbsc.cpp ****     return (int)(max_del * sr + 16.5);
 547              		.loc 1 75 13 discriminator 2 view .LVU206
 548 0072 B7EEC77B 		vcvt.f32.f64	s14, d7
 549              	.LVL38:
  76:DaisySP-LGPL-FX/reverbsc.cpp **** }
 550              		.loc 1 76 26 discriminator 2 view .LVU207
 551 0076 27EE007A 		vmul.f32	s14, s14, s0
 552              	.LVL39:
  76:DaisySP-LGPL-FX/reverbsc.cpp **** }
 553              		.loc 1 76 26 discriminator 2 view .LVU208
 554 007a B7EEC77A 		vcvt.f64.f32	d7, s14
 555              	.LVL40:
  76:DaisySP-LGPL-FX/reverbsc.cpp **** }
 556              		.loc 1 76 31 discriminator 2 view .LVU209
 557 007e 37EE067B 		vadd.f64	d7, d7, d6
  76:DaisySP-LGPL-FX/reverbsc.cpp **** }
 558              		.loc 1 76 37 discriminator 2 view .LVU210
 559 0082 BDEEC77B 		vcvt.s32.f64	s14, d7
 560              	.LBE26:
 561              	.LBE28:
 562              	.LBE29:
 563              	.LBE30:
  65:DaisySP-LGPL-FX/reverbsc.cpp ****     }
 564              		.loc 1 65 17 discriminator 2 view .LVU211
 565 0086 17EE103A 		vmov	r3, s14	@ int
 566 008a 05EB8305 		add	r5, r5, r3, lsl #2
 567              	.LVL41:
  59:DaisySP-LGPL-FX/reverbsc.cpp ****     {
 568              		.loc 1 59 5 is_stmt 1 discriminator 2 view .LVU212
  59:DaisySP-LGPL-FX/reverbsc.cpp ****     {
 569              		.loc 1 59 18 discriminator 2 view .LVU213
 570 008e 02D1     		bne	.L22
  67:DaisySP-LGPL-FX/reverbsc.cpp **** }
 571              		.loc 1 67 12 is_stmt 0 view .LVU214
 572 0090 0020     		movs	r0, #0
ARM GAS  /var/folders/2p/02m_5p7958535cp2tpgps0400000gn/T//ccJ8pZbM.s 			page 16


 573              	.LVL42:
 574              	.L19:
  68:DaisySP-LGPL-FX/reverbsc.cpp **** 
 575              		.loc 1 68 1 view .LVU215
 576 0092 BDE8F081 		pop	{r4, r5, r6, r7, r8, pc}
 577              	.LVL43:
 578              	.L22:
  61:DaisySP-LGPL-FX/reverbsc.cpp ****             return 1;
 579              		.loc 1 61 9 is_stmt 1 view .LVU216
 580 0096 0A4B     		ldr	r3, .L24+24
 581 0098 08F12808 		add	r8, r8, #40
 582 009c 1037     		adds	r7, r7, #16
 583              	.LVL44:
  61:DaisySP-LGPL-FX/reverbsc.cpp ****             return 1;
 584              		.loc 1 61 9 is_stmt 0 view .LVU217
 585 009e 9D42     		cmp	r5, r3
 586 00a0 CCDD     		ble	.L20
  62:DaisySP-LGPL-FX/reverbsc.cpp ****         delay_lines_[i].buf = (aux_) + n_bytes;
 587              		.loc 1 62 20 view .LVU218
 588 00a2 0120     		movs	r0, #1
 589 00a4 F5E7     		b	.L19
 590              	.L25:
 591 00a6 00BF     		.align	3
 592              	.L24:
 593 00a8 00000000 		.word	0
 594 00ac 00803040 		.word	1076920320
 595 00b0 EC51783F 		.word	1064849900
 596 00b4 00401C46 		.word	1176256512
 597 00b8 9A99993E 		.word	1050253722
 598 00bc 00000000 		.word	.LANCHOR0
 599 00c0 78820100 		.word	98936
 600              		.cfi_endproc
 601              	.LFE555:
 603              		.section	.text._ZN7daisysp8ReverbSc7ProcessERKfS2_PfS3_,"ax",%progbits
 604              		.align	1
 605              		.global	_ZN7daisysp8ReverbSc7ProcessERKfS2_PfS3_
 606              		.syntax unified
 607              		.thumb
 608              		.thumb_func
 610              	_ZN7daisysp8ReverbSc7ProcessERKfS2_PfS3_:
 611              	.LVL45:
 612              	.LFB560:
 142:DaisySP-LGPL-FX/reverbsc.cpp **** 
 143:DaisySP-LGPL-FX/reverbsc.cpp **** int ReverbSc::Process(const float &in1,
 144:DaisySP-LGPL-FX/reverbsc.cpp ****                       const float &in2,
 145:DaisySP-LGPL-FX/reverbsc.cpp ****                       float *      out1,
 146:DaisySP-LGPL-FX/reverbsc.cpp ****                       float *      out2)
 147:DaisySP-LGPL-FX/reverbsc.cpp **** {
 613              		.loc 1 147 1 is_stmt 1 view -0
 614              		.cfi_startproc
 615              		@ args = 4, pretend = 0, frame = 0
 616              		@ frame_needed = 0, uses_anonymous_args = 0
 148:DaisySP-LGPL-FX/reverbsc.cpp ****     float       a_in_l, a_in_r, a_out_l, a_out_r;
 617              		.loc 1 148 5 view .LVU220
 149:DaisySP-LGPL-FX/reverbsc.cpp ****     float       vm1, v0, v1, v2, am1, a0, a1, a2, frac;
 618              		.loc 1 149 5 view .LVU221
 150:DaisySP-LGPL-FX/reverbsc.cpp ****     ReverbScDl *lp;
ARM GAS  /var/folders/2p/02m_5p7958535cp2tpgps0400000gn/T//ccJ8pZbM.s 			page 17


 619              		.loc 1 150 5 view .LVU222
 151:DaisySP-LGPL-FX/reverbsc.cpp ****     int         read_pos;
 620              		.loc 1 151 5 view .LVU223
 152:DaisySP-LGPL-FX/reverbsc.cpp ****     uint32_t    n;
 621              		.loc 1 152 5 view .LVU224
 153:DaisySP-LGPL-FX/reverbsc.cpp ****     int         buffer_size; /* Local copy */
 622              		.loc 1 153 5 view .LVU225
 154:DaisySP-LGPL-FX/reverbsc.cpp ****     float       damp_fact = damp_fact_;
 623              		.loc 1 154 5 view .LVU226
 155:DaisySP-LGPL-FX/reverbsc.cpp **** 
 156:DaisySP-LGPL-FX/reverbsc.cpp ****     //if (init_done_ <= 0) return REVSC_NOT_OK;
 157:DaisySP-LGPL-FX/reverbsc.cpp ****     if(init_done_ <= 0)
 624              		.loc 1 157 5 view .LVU227
 147:DaisySP-LGPL-FX/reverbsc.cpp ****     float       a_in_l, a_in_r, a_out_l, a_out_r;
 625              		.loc 1 147 1 is_stmt 0 view .LVU228
 626 0000 2DE9F041 		push	{r4, r5, r6, r7, r8, lr}
 627              		.cfi_def_cfa_offset 24
 628              		.cfi_offset 4, -24
 629              		.cfi_offset 5, -20
 630              		.cfi_offset 6, -16
 631              		.cfi_offset 7, -12
 632              		.cfi_offset 8, -8
 633              		.cfi_offset 14, -4
 634 0004 1D46     		mov	r5, r3
 635              		.loc 1 157 5 view .LVU229
 636 0006 036A     		ldr	r3, [r0, #32]
 637              	.LVL46:
 147:DaisySP-LGPL-FX/reverbsc.cpp ****     float       a_in_l, a_in_r, a_out_l, a_out_r;
 638              		.loc 1 147 1 view .LVU230
 639 0008 0646     		mov	r6, r0
 640 000a 0F46     		mov	r7, r1
 641              		.loc 1 157 5 view .LVU231
 642 000c 002B     		cmp	r3, #0
 147:DaisySP-LGPL-FX/reverbsc.cpp ****     float       a_in_l, a_in_r, a_out_l, a_out_r;
 643              		.loc 1 147 1 view .LVU232
 644 000e 9046     		mov	r8, r2
 645 0010 2DED028B 		vpush.64	{d8}
 646              		.cfi_def_cfa_offset 32
 647              		.cfi_offset 80, -32
 648              		.cfi_offset 81, -28
 649              		.loc 1 157 5 view .LVU233
 650 0014 40F30481 		ble	.L46
 158:DaisySP-LGPL-FX/reverbsc.cpp ****         return REVSC_NOT_OK;
 159:DaisySP-LGPL-FX/reverbsc.cpp **** 
 160:DaisySP-LGPL-FX/reverbsc.cpp ****     /* calculate tone filter coefficient if frequency changed */
 161:DaisySP-LGPL-FX/reverbsc.cpp ****     if(lpfreq_ != prv_lpfreq_)
 651              		.loc 1 161 5 is_stmt 1 view .LVU234
 652              		.loc 1 161 8 is_stmt 0 view .LVU235
 653 0018 90ED010A 		vldr.32	s0, [r0, #4]
 654              		.loc 1 161 5 view .LVU236
 655 001c D0ED077A 		vldr.32	s15, [r0, #28]
 656 0020 B4EE670A 		vcmp.f32	s0, s15
 657 0024 F1EE10FA 		vmrs	APSR_nzcv, FPSCR
 658 0028 40F0BC80 		bne	.L28
 154:DaisySP-LGPL-FX/reverbsc.cpp **** 
 659              		.loc 1 154 17 view .LVU237
 660 002c 90ED060A 		vldr.32	s0, [r0, #24]
ARM GAS  /var/folders/2p/02m_5p7958535cp2tpgps0400000gn/T//ccJ8pZbM.s 			page 18


 661              	.LVL47:
 662              	.L29:
 162:DaisySP-LGPL-FX/reverbsc.cpp ****     {
 163:DaisySP-LGPL-FX/reverbsc.cpp ****         prv_lpfreq_ = lpfreq_;
 164:DaisySP-LGPL-FX/reverbsc.cpp ****         damp_fact
 165:DaisySP-LGPL-FX/reverbsc.cpp ****             = 2.0f - cosf(prv_lpfreq_ * (2.0f * (float)M_PI) / sample_rate_);
 166:DaisySP-LGPL-FX/reverbsc.cpp ****         damp_fact = damp_fact_
 167:DaisySP-LGPL-FX/reverbsc.cpp ****             = damp_fact - sqrtf(damp_fact * damp_fact - 1.0f);
 168:DaisySP-LGPL-FX/reverbsc.cpp ****     }
 169:DaisySP-LGPL-FX/reverbsc.cpp **** 
 170:DaisySP-LGPL-FX/reverbsc.cpp ****     /* calculate "resultant junction pressure" and mix to input signals */
 171:DaisySP-LGPL-FX/reverbsc.cpp **** 
 172:DaisySP-LGPL-FX/reverbsc.cpp ****     a_in_l = a_out_l = a_out_r = 0.0;
 663              		.loc 1 172 5 is_stmt 1 view .LVU238
 173:DaisySP-LGPL-FX/reverbsc.cpp ****     for(n = 0; n < 8; n++)
 664              		.loc 1 173 5 view .LVU239
 665              		.loc 1 173 18 view .LVU240
 666 0030 3446     		mov	r4, r6
 667 0032 06F5A072 		add	r2, r6, #320
 147:DaisySP-LGPL-FX/reverbsc.cpp ****     float       a_in_l, a_in_r, a_out_l, a_out_r;
 668              		.loc 1 147 1 is_stmt 0 view .LVU241
 669 0036 3346     		mov	r3, r6
 172:DaisySP-LGPL-FX/reverbsc.cpp ****     for(n = 0; n < 8; n++)
 670              		.loc 1 172 12 view .LVU242
 671 0038 DFED7D7A 		vldr.32	s15, .L51+8
 672              	.LVL48:
 673              	.L30:
 174:DaisySP-LGPL-FX/reverbsc.cpp ****     {
 175:DaisySP-LGPL-FX/reverbsc.cpp ****         a_in_l += delay_lines_[n].filter_state;
 674              		.loc 1 175 9 is_stmt 1 discriminator 2 view .LVU243
 675              		.loc 1 175 16 is_stmt 0 discriminator 2 view .LVU244
 676 003c 93ED117A 		vldr.32	s14, [r3, #68]
 173:DaisySP-LGPL-FX/reverbsc.cpp ****     {
 677              		.loc 1 173 18 discriminator 2 view .LVU245
 678 0040 2833     		adds	r3, r3, #40
 679 0042 9A42     		cmp	r2, r3
 680              		.loc 1 175 16 discriminator 2 view .LVU246
 681 0044 77EE877A 		vadd.f32	s15, s15, s14
 682              	.LVL49:
 173:DaisySP-LGPL-FX/reverbsc.cpp ****     {
 683              		.loc 1 173 5 is_stmt 1 discriminator 2 view .LVU247
 173:DaisySP-LGPL-FX/reverbsc.cpp ****     {
 684              		.loc 1 173 18 discriminator 2 view .LVU248
 685 0048 F8D1     		bne	.L30
 176:DaisySP-LGPL-FX/reverbsc.cpp ****     }
 177:DaisySP-LGPL-FX/reverbsc.cpp ****     a_in_l *= kJpScale;
 686              		.loc 1 177 5 view .LVU249
 687              	.LVL50:
 178:DaisySP-LGPL-FX/reverbsc.cpp ****     a_in_r = a_in_l + in2;
 688              		.loc 1 178 5 view .LVU250
 689              		.loc 1 178 12 is_stmt 0 view .LVU251
 690 004a B5EE007A 		vmov.f32	s14, #2.5e-1
 179:DaisySP-LGPL-FX/reverbsc.cpp ****     a_in_l = a_in_l + in1;
 691              		.loc 1 179 12 view .LVU252
 692 004e 97ED002A 		vldr.32	s4, [r7]
 178:DaisySP-LGPL-FX/reverbsc.cpp ****     a_in_r = a_in_l + in2;
 693              		.loc 1 178 12 view .LVU253
ARM GAS  /var/folders/2p/02m_5p7958535cp2tpgps0400000gn/T//ccJ8pZbM.s 			page 19


 694 0052 D8ED002A 		vldr.32	s5, [r8]
 180:DaisySP-LGPL-FX/reverbsc.cpp **** 
 181:DaisySP-LGPL-FX/reverbsc.cpp ****     /* loop through all delay lines */
 182:DaisySP-LGPL-FX/reverbsc.cpp **** 
 183:DaisySP-LGPL-FX/reverbsc.cpp ****     for(n = 0; n < 8; n++)
 695              		.loc 1 183 11 view .LVU254
 696 0056 0027     		movs	r7, #0
 697              	.LVL51:
 172:DaisySP-LGPL-FX/reverbsc.cpp ****     for(n = 0; n < 8; n++)
 698              		.loc 1 172 32 view .LVU255
 699 0058 DFED753A 		vldr.32	s7, .L51+8
 178:DaisySP-LGPL-FX/reverbsc.cpp ****     a_in_l = a_in_l + in1;
 700              		.loc 1 178 12 view .LVU256
 701 005c E7EE872A 		vfma.f32	s5, s15, s14
 702              	.LVL52:
 179:DaisySP-LGPL-FX/reverbsc.cpp **** 
 703              		.loc 1 179 5 is_stmt 1 view .LVU257
 179:DaisySP-LGPL-FX/reverbsc.cpp **** 
 704              		.loc 1 179 12 is_stmt 0 view .LVU258
 705 0060 A7EE872A 		vfma.f32	s4, s15, s14
 706              	.LVL53:
 707              		.loc 1 183 5 is_stmt 1 view .LVU259
 708              		.loc 1 183 18 view .LVU260
 172:DaisySP-LGPL-FX/reverbsc.cpp ****     for(n = 0; n < 8; n++)
 709              		.loc 1 172 22 is_stmt 0 view .LVU261
 710 0064 B0EE633A 		vmov.f32	s6, s7
 711              	.LVL54:
 712              	.L45:
 184:DaisySP-LGPL-FX/reverbsc.cpp ****     {
 185:DaisySP-LGPL-FX/reverbsc.cpp ****         lp          = &delay_lines_[n];
 713              		.loc 1 185 9 is_stmt 1 view .LVU262
 186:DaisySP-LGPL-FX/reverbsc.cpp ****         buffer_size = lp->buffer_size;
 714              		.loc 1 186 9 view .LVU263
 187:DaisySP-LGPL-FX/reverbsc.cpp **** 
 188:DaisySP-LGPL-FX/reverbsc.cpp ****         /* send input signal and feedback to delay line */
 189:DaisySP-LGPL-FX/reverbsc.cpp **** 
 190:DaisySP-LGPL-FX/reverbsc.cpp ****         lp->buf[lp->write_pos]
 191:DaisySP-LGPL-FX/reverbsc.cpp ****             = (float)((n & 1 ? a_in_r : a_in_l) - lp->filter_state);
 715              		.loc 1 191 30 is_stmt 0 view .LVU264
 716 0068 17F00100 		ands	r0, r7, #1
 717              		.loc 1 191 49 view .LVU265
 718 006c 94ED117A 		vldr.32	s14, [r4, #68]
 190:DaisySP-LGPL-FX/reverbsc.cpp ****             = (float)((n & 1 ? a_in_r : a_in_l) - lp->filter_state);
 719              		.loc 1 190 30 view .LVU266
 720 0070 616A     		ldr	r1, [r4, #36]
 721              		.loc 1 191 13 view .LVU267
 722 0072 A26C     		ldr	r2, [r4, #72]
 723              		.loc 1 191 30 view .LVU268
 724 0074 42FE227A 		vseleq.f32	s15, s4, s5
 725              		.loc 1 191 49 view .LVU269
 726 0078 77EEC77A 		vsub.f32	s15, s15, s14
 186:DaisySP-LGPL-FX/reverbsc.cpp ****         buffer_size = lp->buffer_size;
 727              		.loc 1 186 21 view .LVU270
 728 007c A36A     		ldr	r3, [r4, #40]
 729              	.LVL55:
 190:DaisySP-LGPL-FX/reverbsc.cpp ****             = (float)((n & 1 ? a_in_r : a_in_l) - lp->filter_state);
 730              		.loc 1 190 9 is_stmt 1 view .LVU271
ARM GAS  /var/folders/2p/02m_5p7958535cp2tpgps0400000gn/T//ccJ8pZbM.s 			page 20


 731              		.loc 1 191 13 is_stmt 0 view .LVU272
 732 007e 02EB8102 		add	r2, r2, r1, lsl #2
 733 0082 C2ED007A 		vstr.32	s15, [r2]
 192:DaisySP-LGPL-FX/reverbsc.cpp ****         if(++lp->write_pos >= buffer_size)
 734              		.loc 1 192 9 is_stmt 1 view .LVU273
 735              		.loc 1 192 12 is_stmt 0 view .LVU274
 736 0086 626A     		ldr	r2, [r4, #36]
 737 0088 0132     		adds	r2, r2, #1
 738              		.loc 1 192 9 view .LVU275
 739 008a 9A42     		cmp	r2, r3
 193:DaisySP-LGPL-FX/reverbsc.cpp ****         {
 194:DaisySP-LGPL-FX/reverbsc.cpp ****             lp->write_pos -= buffer_size;
 740              		.loc 1 194 13 is_stmt 1 view .LVU276
 741              		.loc 1 194 27 is_stmt 0 view .LVU277
 742 008c A8BF     		it	ge
 743 008e D21A     		subge	r2, r2, r3
 744 0090 6262     		str	r2, [r4, #36]
 195:DaisySP-LGPL-FX/reverbsc.cpp ****         }
 196:DaisySP-LGPL-FX/reverbsc.cpp **** 
 197:DaisySP-LGPL-FX/reverbsc.cpp ****         /* read from delay line with cubic interpolation */
 198:DaisySP-LGPL-FX/reverbsc.cpp **** 
 199:DaisySP-LGPL-FX/reverbsc.cpp ****         if(lp->read_pos_frac >= DELAYPOS_SCALE)
 745              		.loc 1 199 9 is_stmt 1 view .LVU278
 746              		.loc 1 199 16 is_stmt 0 view .LVU279
 747 0092 226B     		ldr	r2, [r4, #48]
 748              		.loc 1 199 9 view .LVU280
 749 0094 B2F1805F 		cmp	r2, #268435456
 750 0098 06DB     		blt	.L34
 200:DaisySP-LGPL-FX/reverbsc.cpp ****         {
 201:DaisySP-LGPL-FX/reverbsc.cpp ****             lp->read_pos += (lp->read_pos_frac >> DELAYPOS_SHIFT);
 751              		.loc 1 201 13 is_stmt 1 view .LVU281
 752              		.loc 1 201 26 is_stmt 0 view .LVU282
 753 009a E16A     		ldr	r1, [r4, #44]
 754 009c 01EB2271 		add	r1, r1, r2, asr #28
 202:DaisySP-LGPL-FX/reverbsc.cpp ****             lp->read_pos_frac &= DELAYPOS_MASK;
 755              		.loc 1 202 31 view .LVU283
 756 00a0 22F07042 		bic	r2, r2, #-268435456
 201:DaisySP-LGPL-FX/reverbsc.cpp ****             lp->read_pos_frac &= DELAYPOS_MASK;
 757              		.loc 1 201 26 view .LVU284
 758 00a4 E162     		str	r1, [r4, #44]
 759              		.loc 1 202 13 is_stmt 1 view .LVU285
 760              		.loc 1 202 31 is_stmt 0 view .LVU286
 761 00a6 2263     		str	r2, [r4, #48]
 762              	.L34:
 203:DaisySP-LGPL-FX/reverbsc.cpp ****         }
 204:DaisySP-LGPL-FX/reverbsc.cpp ****         if(lp->read_pos >= buffer_size)
 763              		.loc 1 204 9 is_stmt 1 view .LVU287
 764              		.loc 1 204 16 is_stmt 0 view .LVU288
 765 00a8 E26A     		ldr	r2, [r4, #44]
 205:DaisySP-LGPL-FX/reverbsc.cpp ****             lp->read_pos -= buffer_size;
 206:DaisySP-LGPL-FX/reverbsc.cpp ****         read_pos = lp->read_pos;
 207:DaisySP-LGPL-FX/reverbsc.cpp ****         frac     = (float)lp->read_pos_frac * (1.0 / (float)DELAYPOS_SCALE);
 208:DaisySP-LGPL-FX/reverbsc.cpp **** 
 209:DaisySP-LGPL-FX/reverbsc.cpp ****         /* calculate interpolation coefficients */
 210:DaisySP-LGPL-FX/reverbsc.cpp **** 
 211:DaisySP-LGPL-FX/reverbsc.cpp ****         a2 = frac * frac;
 212:DaisySP-LGPL-FX/reverbsc.cpp ****         a2 -= 1.0;
ARM GAS  /var/folders/2p/02m_5p7958535cp2tpgps0400000gn/T//ccJ8pZbM.s 			page 21


 766              		.loc 1 212 12 view .LVU289
 767 00aa FFEE006A 		vmov.f32	s13, #-1.0e+0
 213:DaisySP-LGPL-FX/reverbsc.cpp ****         a2 *= (1.0 / 6.0);
 214:DaisySP-LGPL-FX/reverbsc.cpp ****         a1 = frac;
 215:DaisySP-LGPL-FX/reverbsc.cpp ****         a1 += 1.0;
 768              		.loc 1 215 12 view .LVU290
 769 00ae B7EE006A 		vmov.f32	s12, #1.0e+0
 204:DaisySP-LGPL-FX/reverbsc.cpp ****             lp->read_pos -= buffer_size;
 770              		.loc 1 204 9 view .LVU291
 771 00b2 9A42     		cmp	r2, r3
 205:DaisySP-LGPL-FX/reverbsc.cpp ****             lp->read_pos -= buffer_size;
 772              		.loc 1 205 13 is_stmt 1 view .LVU292
 216:DaisySP-LGPL-FX/reverbsc.cpp ****         a1 *= 0.5;
 217:DaisySP-LGPL-FX/reverbsc.cpp ****         am1 = a1 - 1.0;
 773              		.loc 1 217 13 is_stmt 0 view .LVU293
 774 00b4 B6EE005A 		vmov.f32	s10, #5.0e-1
 212:DaisySP-LGPL-FX/reverbsc.cpp ****         a2 *= (1.0 / 6.0);
 775              		.loc 1 212 12 view .LVU294
 776 00b8 B0EE667A 		vmov.f32	s14, s13
 205:DaisySP-LGPL-FX/reverbsc.cpp ****         read_pos = lp->read_pos;
 777              		.loc 1 205 26 view .LVU295
 778 00bc A4BF     		itt	ge
 779 00be D21A     		subge	r2, r2, r3
 780 00c0 E262     		strge	r2, [r4, #44]
 206:DaisySP-LGPL-FX/reverbsc.cpp ****         frac     = (float)lp->read_pos_frac * (1.0 / (float)DELAYPOS_SCALE);
 781              		.loc 1 206 9 is_stmt 1 view .LVU296
 782 00c2 A26C     		ldr	r2, [r4, #72]
 207:DaisySP-LGPL-FX/reverbsc.cpp **** 
 783              		.loc 1 207 31 is_stmt 0 view .LVU297
 784 00c4 D4E90B1C 		ldrd	r1, ip, [r4, #44]
 213:DaisySP-LGPL-FX/reverbsc.cpp ****         a1 = frac;
 785              		.loc 1 213 12 view .LVU298
 786 00c8 9FED574B 		vldr.64	d4, .L51
 207:DaisySP-LGPL-FX/reverbsc.cpp **** 
 787              		.loc 1 207 18 view .LVU299
 788 00cc 05EE90CA 		vmov	s11, ip	@ int
 218:DaisySP-LGPL-FX/reverbsc.cpp ****         a0  = 3.0 * a2;
 219:DaisySP-LGPL-FX/reverbsc.cpp ****         a1 -= a0;
 220:DaisySP-LGPL-FX/reverbsc.cpp ****         am1 -= a2;
 221:DaisySP-LGPL-FX/reverbsc.cpp ****         a0 -= frac;
 222:DaisySP-LGPL-FX/reverbsc.cpp **** 
 223:DaisySP-LGPL-FX/reverbsc.cpp ****         /* read four samples for interpolation */
 224:DaisySP-LGPL-FX/reverbsc.cpp **** 
 225:DaisySP-LGPL-FX/reverbsc.cpp ****         if(read_pos > 0 && read_pos < (buffer_size - 2))
 789              		.loc 1 225 9 view .LVU300
 790 00d0 0029     		cmp	r1, #0
 207:DaisySP-LGPL-FX/reverbsc.cpp **** 
 791              		.loc 1 207 18 view .LVU301
 792 00d2 FAEEC25A 		vcvt.f32.s32	s11, s11, #28
 793              	.LVL56:
 211:DaisySP-LGPL-FX/reverbsc.cpp ****         a2 -= 1.0;
 794              		.loc 1 211 9 is_stmt 1 view .LVU302
 212:DaisySP-LGPL-FX/reverbsc.cpp ****         a2 *= (1.0 / 6.0);
 795              		.loc 1 212 9 view .LVU303
 212:DaisySP-LGPL-FX/reverbsc.cpp ****         a2 *= (1.0 / 6.0);
 796              		.loc 1 212 12 is_stmt 0 view .LVU304
 797 00d6 A5EEA57A 		vfma.f32	s14, s11, s11
ARM GAS  /var/folders/2p/02m_5p7958535cp2tpgps0400000gn/T//ccJ8pZbM.s 			page 22


 798              	.LVL57:
 213:DaisySP-LGPL-FX/reverbsc.cpp ****         a1 = frac;
 799              		.loc 1 213 9 is_stmt 1 view .LVU305
 215:DaisySP-LGPL-FX/reverbsc.cpp ****         a1 *= 0.5;
 800              		.loc 1 215 12 is_stmt 0 view .LVU306
 801 00da 35EE866A 		vadd.f32	s12, s11, s12
 217:DaisySP-LGPL-FX/reverbsc.cpp ****         a0  = 3.0 * a2;
 802              		.loc 1 217 13 view .LVU307
 803 00de E6EE056A 		vfma.f32	s13, s12, s10
 213:DaisySP-LGPL-FX/reverbsc.cpp ****         a1 = frac;
 804              		.loc 1 213 12 view .LVU308
 805 00e2 B7EEC77A 		vcvt.f64.f32	d7, s14
 806              	.LVL58:
 213:DaisySP-LGPL-FX/reverbsc.cpp ****         a1 = frac;
 807              		.loc 1 213 12 view .LVU309
 808 00e6 27EE047B 		vmul.f64	d7, d7, d4
 809 00ea B7EEC77B 		vcvt.f32.f64	s14, d7
 810              	.LVL59:
 214:DaisySP-LGPL-FX/reverbsc.cpp ****         a1 += 1.0;
 811              		.loc 1 214 9 is_stmt 1 view .LVU310
 215:DaisySP-LGPL-FX/reverbsc.cpp ****         a1 *= 0.5;
 812              		.loc 1 215 9 view .LVU311
 216:DaisySP-LGPL-FX/reverbsc.cpp ****         am1 = a1 - 1.0;
 813              		.loc 1 216 9 view .LVU312
 217:DaisySP-LGPL-FX/reverbsc.cpp ****         a0  = 3.0 * a2;
 814              		.loc 1 217 9 view .LVU313
 218:DaisySP-LGPL-FX/reverbsc.cpp ****         a1 -= a0;
 815              		.loc 1 218 9 view .LVU314
 218:DaisySP-LGPL-FX/reverbsc.cpp ****         a1 -= a0;
 816              		.loc 1 218 13 is_stmt 0 view .LVU315
 817 00ee F0EE087A 		vmov.f32	s15, #3.0e+0
 818 00f2 67EE277A 		vmul.f32	s15, s14, s15
 819              	.LVL60:
 219:DaisySP-LGPL-FX/reverbsc.cpp ****         am1 -= a2;
 820              		.loc 1 219 9 is_stmt 1 view .LVU316
 219:DaisySP-LGPL-FX/reverbsc.cpp ****         am1 -= a2;
 821              		.loc 1 219 12 is_stmt 0 view .LVU317
 822 00f6 F0EE671A 		vmov.f32	s3, s15
 221:DaisySP-LGPL-FX/reverbsc.cpp **** 
 823              		.loc 1 221 12 view .LVU318
 824 00fa 77EEE57A 		vsub.f32	s15, s15, s11
 825              	.LVL61:
 219:DaisySP-LGPL-FX/reverbsc.cpp ****         am1 -= a2;
 826              		.loc 1 219 12 view .LVU319
 827 00fe D6EE051A 		vfnms.f32	s3, s12, s10
 828              	.LVL62:
 220:DaisySP-LGPL-FX/reverbsc.cpp ****         a0 -= frac;
 829              		.loc 1 220 9 is_stmt 1 view .LVU320
 220:DaisySP-LGPL-FX/reverbsc.cpp ****         a0 -= frac;
 830              		.loc 1 220 13 is_stmt 0 view .LVU321
 831 0102 36EEC76A 		vsub.f32	s12, s13, s14
 832              	.LVL63:
 221:DaisySP-LGPL-FX/reverbsc.cpp **** 
 833              		.loc 1 221 9 is_stmt 1 view .LVU322
 834              		.loc 1 225 9 view .LVU323
 835 0106 68DD     		ble	.L36
 836              		.loc 1 225 52 is_stmt 0 discriminator 1 view .LVU324
ARM GAS  /var/folders/2p/02m_5p7958535cp2tpgps0400000gn/T//ccJ8pZbM.s 			page 23


 837 0108 A3F1020E 		sub	lr, r3, #2
 838              		.loc 1 225 25 discriminator 1 view .LVU325
 839 010c 8E45     		cmp	lr, r1
 840 010e 64DD     		ble	.L36
 226:DaisySP-LGPL-FX/reverbsc.cpp ****         {
 227:DaisySP-LGPL-FX/reverbsc.cpp ****             vm1 = (float)(lp->buf[read_pos - 1]);
 841              		.loc 1 227 13 is_stmt 1 view .LVU326
 842              		.loc 1 227 47 is_stmt 0 view .LVU327
 843 0110 01F18041 		add	r1, r1, #1073741824
 844 0114 0139     		subs	r1, r1, #1
 845              		.loc 1 227 17 view .LVU328
 846 0116 02EB8101 		add	r1, r2, r1, lsl #2
 847 011a 91ED004A 		vldr.32	s8, [r1]
 848              	.LVL64:
 228:DaisySP-LGPL-FX/reverbsc.cpp ****             v0  = (float)(lp->buf[read_pos]);
 849              		.loc 1 228 13 is_stmt 1 view .LVU329
 850              		.loc 1 228 17 is_stmt 0 view .LVU330
 851 011e D1ED016A 		vldr.32	s13, [r1, #4]
 852              	.LVL65:
 229:DaisySP-LGPL-FX/reverbsc.cpp ****             v1  = (float)(lp->buf[read_pos + 1]);
 853              		.loc 1 229 13 is_stmt 1 view .LVU331
 854              		.loc 1 229 17 is_stmt 0 view .LVU332
 855 0122 D1ED024A 		vldr.32	s9, [r1, #8]
 856              	.LVL66:
 230:DaisySP-LGPL-FX/reverbsc.cpp ****             v2  = (float)(lp->buf[read_pos + 2]);
 857              		.loc 1 230 13 is_stmt 1 view .LVU333
 858              		.loc 1 230 17 is_stmt 0 view .LVU334
 859 0126 91ED035A 		vldr.32	s10, [r1, #12]
 860              	.LVL67:
 861              	.L37:
 231:DaisySP-LGPL-FX/reverbsc.cpp ****         }
 232:DaisySP-LGPL-FX/reverbsc.cpp ****         else
 233:DaisySP-LGPL-FX/reverbsc.cpp ****         {
 234:DaisySP-LGPL-FX/reverbsc.cpp ****             /* at buffer wrap-around, need to check index */
 235:DaisySP-LGPL-FX/reverbsc.cpp **** 
 236:DaisySP-LGPL-FX/reverbsc.cpp ****             if(--read_pos < 0)
 237:DaisySP-LGPL-FX/reverbsc.cpp ****                 read_pos += buffer_size;
 238:DaisySP-LGPL-FX/reverbsc.cpp ****             vm1 = (float)lp->buf[read_pos];
 239:DaisySP-LGPL-FX/reverbsc.cpp ****             if(++read_pos >= buffer_size)
 240:DaisySP-LGPL-FX/reverbsc.cpp ****                 read_pos -= buffer_size;
 241:DaisySP-LGPL-FX/reverbsc.cpp ****             v0 = (float)lp->buf[read_pos];
 242:DaisySP-LGPL-FX/reverbsc.cpp ****             if(++read_pos >= buffer_size)
 243:DaisySP-LGPL-FX/reverbsc.cpp ****                 read_pos -= buffer_size;
 244:DaisySP-LGPL-FX/reverbsc.cpp ****             v1 = (float)lp->buf[read_pos];
 245:DaisySP-LGPL-FX/reverbsc.cpp ****             if(++read_pos >= buffer_size)
 246:DaisySP-LGPL-FX/reverbsc.cpp ****                 read_pos -= buffer_size;
 247:DaisySP-LGPL-FX/reverbsc.cpp ****             v2 = (float)lp->buf[read_pos];
 248:DaisySP-LGPL-FX/reverbsc.cpp ****         }
 249:DaisySP-LGPL-FX/reverbsc.cpp ****         v0 = (am1 * vm1 + a0 * v0 + a1 * v1 + a2 * v2) * frac + v0;
 862              		.loc 1 249 9 is_stmt 1 view .LVU335
 863              		.loc 1 249 30 is_stmt 0 view .LVU336
 864 012a 66EEA77A 		vmul.f32	s15, s13, s15
 865              	.LVL68:
 250:DaisySP-LGPL-FX/reverbsc.cpp **** 
 251:DaisySP-LGPL-FX/reverbsc.cpp ****         /* update buffer read position */
 252:DaisySP-LGPL-FX/reverbsc.cpp **** 
 253:DaisySP-LGPL-FX/reverbsc.cpp ****         lp->read_pos_frac += lp->read_pos_frac_inc;
ARM GAS  /var/folders/2p/02m_5p7958535cp2tpgps0400000gn/T//ccJ8pZbM.s 			page 24


 866              		.loc 1 253 27 view .LVU337
 867 012e 636B     		ldr	r3, [r4, #52]
 868 0130 6344     		add	r3, r3, ip
 249:DaisySP-LGPL-FX/reverbsc.cpp **** 
 869              		.loc 1 249 25 view .LVU338
 870 0132 E4EE067A 		vfma.f32	s15, s8, s12
 871              		.loc 1 253 27 view .LVU339
 872 0136 2363     		str	r3, [r4, #48]
 249:DaisySP-LGPL-FX/reverbsc.cpp **** 
 873              		.loc 1 249 35 view .LVU340
 874 0138 E4EEA17A 		vfma.f32	s15, s9, s3
 249:DaisySP-LGPL-FX/reverbsc.cpp **** 
 875              		.loc 1 249 45 view .LVU341
 876 013c E5EE077A 		vfma.f32	s15, s10, s14
 254:DaisySP-LGPL-FX/reverbsc.cpp **** 
 255:DaisySP-LGPL-FX/reverbsc.cpp ****         /* apply feedback gain and lowpass filter */
 256:DaisySP-LGPL-FX/reverbsc.cpp **** 
 257:DaisySP-LGPL-FX/reverbsc.cpp ****         v0 *= (float)feedback_;
 877              		.loc 1 257 22 view .LVU342
 878 0140 96ED007A 		vldr.32	s14, [r6]
 879              	.LVL69:
 249:DaisySP-LGPL-FX/reverbsc.cpp **** 
 880              		.loc 1 249 12 view .LVU343
 881 0144 E7EEA56A 		vfma.f32	s13, s15, s11
 882              	.LVL70:
 253:DaisySP-LGPL-FX/reverbsc.cpp **** 
 883              		.loc 1 253 9 is_stmt 1 view .LVU344
 884              		.loc 1 257 9 view .LVU345
 258:DaisySP-LGPL-FX/reverbsc.cpp ****         v0               = (lp->filter_state - v0) * damp_fact + v0;
 885              		.loc 1 258 9 view .LVU346
 886              		.loc 1 258 46 is_stmt 0 view .LVU347
 887 0148 D4ED117A 		vldr.32	s15, [r4, #68]
 888 014c E7EE667A 		vfms.f32	s15, s14, s13
 889              		.loc 1 258 52 view .LVU348
 890 0150 67EE807A 		vmul.f32	s15, s15, s0
 891              		.loc 1 258 26 view .LVU349
 892 0154 E7EE267A 		vfma.f32	s15, s14, s13
 893              	.LVL71:
 259:DaisySP-LGPL-FX/reverbsc.cpp ****         lp->filter_state = v0;
 894              		.loc 1 259 9 is_stmt 1 view .LVU350
 895              		.loc 1 259 26 is_stmt 0 view .LVU351
 896 0158 C4ED117A 		vstr.32	s15, [r4, #68]
 260:DaisySP-LGPL-FX/reverbsc.cpp **** 
 261:DaisySP-LGPL-FX/reverbsc.cpp ****         /* mix to output */
 262:DaisySP-LGPL-FX/reverbsc.cpp **** 
 263:DaisySP-LGPL-FX/reverbsc.cpp ****         if(n & 1)
 897              		.loc 1 263 9 is_stmt 1 view .LVU352
 898 015c 0028     		cmp	r0, #0
 899 015e 5CD0     		beq	.L42
 264:DaisySP-LGPL-FX/reverbsc.cpp ****         {
 265:DaisySP-LGPL-FX/reverbsc.cpp ****             a_out_r += v0;
 900              		.loc 1 265 13 view .LVU353
 901              		.loc 1 265 21 is_stmt 0 view .LVU354
 902 0160 73EEA73A 		vadd.f32	s7, s7, s15
 903              	.LVL72:
 904              	.L43:
 266:DaisySP-LGPL-FX/reverbsc.cpp ****         }
ARM GAS  /var/folders/2p/02m_5p7958535cp2tpgps0400000gn/T//ccJ8pZbM.s 			page 25


 267:DaisySP-LGPL-FX/reverbsc.cpp ****         else
 268:DaisySP-LGPL-FX/reverbsc.cpp ****         {
 269:DaisySP-LGPL-FX/reverbsc.cpp ****             a_out_l += v0;
 270:DaisySP-LGPL-FX/reverbsc.cpp ****         }
 271:DaisySP-LGPL-FX/reverbsc.cpp **** 
 272:DaisySP-LGPL-FX/reverbsc.cpp ****         /* start next random line segment if current one has reached endpoint */
 273:DaisySP-LGPL-FX/reverbsc.cpp **** 
 274:DaisySP-LGPL-FX/reverbsc.cpp ****         if(--(lp->rand_line_cnt) <= 0)
 905              		.loc 1 274 9 is_stmt 1 view .LVU355
 906              		.loc 1 274 12 is_stmt 0 view .LVU356
 907 0164 236C     		ldr	r3, [r4, #64]
 908 0166 013B     		subs	r3, r3, #1
 909              		.loc 1 274 9 view .LVU357
 910 0168 002B     		cmp	r3, #0
 911              		.loc 1 274 34 view .LVU358
 912 016a 2364     		str	r3, [r4, #64]
 913              		.loc 1 274 9 view .LVU359
 914 016c 05DC     		bgt	.L44
 275:DaisySP-LGPL-FX/reverbsc.cpp ****         {
 276:DaisySP-LGPL-FX/reverbsc.cpp ****             NextRandomLineseg(lp, n);
 915              		.loc 1 276 13 is_stmt 1 view .LVU360
 916              		.loc 1 276 30 is_stmt 0 view .LVU361
 917 016e 3A46     		mov	r2, r7
 918 0170 04F12401 		add	r1, r4, #36
 919 0174 3046     		mov	r0, r6
 920 0176 FFF7FEFF 		bl	_ZN7daisysp8ReverbSc17NextRandomLinesegEPNS_10ReverbScDlEi
 921              	.LVL73:
 922              	.L44:
 183:DaisySP-LGPL-FX/reverbsc.cpp ****     {
 923              		.loc 1 183 5 is_stmt 1 discriminator 2 view .LVU362
 924 017a 0137     		adds	r7, r7, #1
 925              	.LVL74:
 183:DaisySP-LGPL-FX/reverbsc.cpp ****     {
 926              		.loc 1 183 18 discriminator 2 view .LVU363
 927 017c 2834     		adds	r4, r4, #40
 928 017e 082F     		cmp	r7, #8
 929 0180 7FF472AF 		bne	.L45
 277:DaisySP-LGPL-FX/reverbsc.cpp ****         }
 278:DaisySP-LGPL-FX/reverbsc.cpp ****     }
 279:DaisySP-LGPL-FX/reverbsc.cpp ****     /* someday, use a_out_r for multimono out */
 280:DaisySP-LGPL-FX/reverbsc.cpp **** 
 281:DaisySP-LGPL-FX/reverbsc.cpp ****     *out1 = a_out_l * kOutputGain;
 930              		.loc 1 281 5 view .LVU364
 931              		.loc 1 281 21 is_stmt 0 view .LVU365
 932 0184 DFED2B7A 		vldr.32	s15, .L51+12
 282:DaisySP-LGPL-FX/reverbsc.cpp ****     *out2 = a_out_r * kOutputGain;
 283:DaisySP-LGPL-FX/reverbsc.cpp ****     return REVSC_OK;
 933              		.loc 1 283 12 view .LVU366
 934 0188 0020     		movs	r0, #0
 282:DaisySP-LGPL-FX/reverbsc.cpp ****     *out2 = a_out_r * kOutputGain;
 935              		.loc 1 282 11 view .LVU367
 936 018a 089B     		ldr	r3, [sp, #32]
 281:DaisySP-LGPL-FX/reverbsc.cpp ****     *out2 = a_out_r * kOutputGain;
 937              		.loc 1 281 21 view .LVU368
 938 018c 23EE273A 		vmul.f32	s6, s6, s15
 939              	.LVL75:
 282:DaisySP-LGPL-FX/reverbsc.cpp ****     *out2 = a_out_r * kOutputGain;
ARM GAS  /var/folders/2p/02m_5p7958535cp2tpgps0400000gn/T//ccJ8pZbM.s 			page 26


 940              		.loc 1 282 21 view .LVU369
 941 0190 63EEA73A 		vmul.f32	s7, s7, s15
 942              	.LVL76:
 281:DaisySP-LGPL-FX/reverbsc.cpp ****     *out2 = a_out_r * kOutputGain;
 943              		.loc 1 281 11 view .LVU370
 944 0194 85ED003A 		vstr.32	s6, [r5]
 282:DaisySP-LGPL-FX/reverbsc.cpp ****     *out2 = a_out_r * kOutputGain;
 945              		.loc 1 282 5 is_stmt 1 view .LVU371
 282:DaisySP-LGPL-FX/reverbsc.cpp ****     *out2 = a_out_r * kOutputGain;
 946              		.loc 1 282 11 is_stmt 0 view .LVU372
 947 0198 C3ED003A 		vstr.32	s7, [r3]
 948              		.loc 1 283 5 is_stmt 1 view .LVU373
 949              	.LVL77:
 950              	.L26:
 284:DaisySP-LGPL-FX/reverbsc.cpp **** }
 951              		.loc 1 284 1 is_stmt 0 view .LVU374
 952 019c BDEC028B 		vldm	sp!, {d8}
 953              		.cfi_remember_state
 954              		.cfi_restore 80
 955              		.cfi_restore 81
 956              		.cfi_def_cfa_offset 24
 957 01a0 BDE8F081 		pop	{r4, r5, r6, r7, r8, pc}
 958              	.LVL78:
 959              	.L28:
 960              		.cfi_restore_state
 163:DaisySP-LGPL-FX/reverbsc.cpp ****         damp_fact
 961              		.loc 1 163 9 is_stmt 1 view .LVU375
 165:DaisySP-LGPL-FX/reverbsc.cpp ****         damp_fact = damp_fact_
 962              		.loc 1 165 39 is_stmt 0 view .LVU376
 963 01a4 DFED247A 		vldr.32	s15, .L51+16
 163:DaisySP-LGPL-FX/reverbsc.cpp ****         damp_fact
 964              		.loc 1 163 21 view .LVU377
 965 01a8 80ED070A 		vstr.32	s0, [r0, #28]
 164:DaisySP-LGPL-FX/reverbsc.cpp ****             = 2.0f - cosf(prv_lpfreq_ * (2.0f * (float)M_PI) / sample_rate_);
 966              		.loc 1 164 9 is_stmt 1 view .LVU378
 165:DaisySP-LGPL-FX/reverbsc.cpp ****         damp_fact = damp_fact_
 967              		.loc 1 165 39 is_stmt 0 view .LVU379
 968 01ac 20EE270A 		vmul.f32	s0, s0, s15
 165:DaisySP-LGPL-FX/reverbsc.cpp ****         damp_fact = damp_fact_
 969              		.loc 1 165 26 view .LVU380
 970 01b0 D0ED057A 		vldr.32	s15, [r0, #20]
 971 01b4 80EE270A 		vdiv.f32	s0, s0, s15
 972 01b8 FFF7FEFF 		bl	cosf
 973              	.LVL79:
 165:DaisySP-LGPL-FX/reverbsc.cpp ****         damp_fact = damp_fact_
 974              		.loc 1 165 13 view .LVU381
 975 01bc F0EE007A 		vmov.f32	s15, #2.0e+0
 976 01c0 37EEC08A 		vsub.f32	s16, s15, s0
 977              	.LVL80:
 166:DaisySP-LGPL-FX/reverbsc.cpp ****             = damp_fact - sqrtf(damp_fact * damp_fact - 1.0f);
 978              		.loc 1 166 9 is_stmt 1 view .LVU382
 167:DaisySP-LGPL-FX/reverbsc.cpp ****     }
 979              		.loc 1 167 32 is_stmt 0 view .LVU383
 980 01c4 BFEE000A 		vmov.f32	s0, #-1.0e+0
 981 01c8 A8EE080A 		vfma.f32	s0, s16, s16
 982 01cc FFF7FEFF 		bl	sqrtf
 983              	.LVL81:
ARM GAS  /var/folders/2p/02m_5p7958535cp2tpgps0400000gn/T//ccJ8pZbM.s 			page 27


 167:DaisySP-LGPL-FX/reverbsc.cpp ****     }
 984              		.loc 1 167 25 view .LVU384
 985 01d0 38EE400A 		vsub.f32	s0, s16, s0
 167:DaisySP-LGPL-FX/reverbsc.cpp ****     }
 986              		.loc 1 167 13 view .LVU385
 987 01d4 86ED060A 		vstr.32	s0, [r6, #24]
 988              	.LVL82:
 167:DaisySP-LGPL-FX/reverbsc.cpp ****     }
 989              		.loc 1 167 13 view .LVU386
 990 01d8 2AE7     		b	.L29
 991              	.LVL83:
 992              	.L36:
 236:DaisySP-LGPL-FX/reverbsc.cpp ****                 read_pos += buffer_size;
 993              		.loc 1 236 13 is_stmt 1 view .LVU387
 236:DaisySP-LGPL-FX/reverbsc.cpp ****                 read_pos += buffer_size;
 994              		.loc 1 236 13 is_stmt 0 view .LVU388
 995 01da 0139     		subs	r1, r1, #1
 996              	.LVL84:
 237:DaisySP-LGPL-FX/reverbsc.cpp ****             vm1 = (float)lp->buf[read_pos];
 997              		.loc 1 237 17 is_stmt 1 view .LVU389
 237:DaisySP-LGPL-FX/reverbsc.cpp ****             vm1 = (float)lp->buf[read_pos];
 998              		.loc 1 237 26 is_stmt 0 view .LVU390
 999 01dc 48BF     		it	mi
 1000 01de C918     		addmi	r1, r1, r3
 1001              	.LVL85:
 238:DaisySP-LGPL-FX/reverbsc.cpp ****             if(++read_pos >= buffer_size)
 1002              		.loc 1 238 13 is_stmt 1 view .LVU391
 238:DaisySP-LGPL-FX/reverbsc.cpp ****             if(++read_pos >= buffer_size)
 1003              		.loc 1 238 17 is_stmt 0 view .LVU392
 1004 01e0 02EB810E 		add	lr, r2, r1, lsl #2
 239:DaisySP-LGPL-FX/reverbsc.cpp ****                 read_pos -= buffer_size;
 1005              		.loc 1 239 27 view .LVU393
 1006 01e4 0131     		adds	r1, r1, #1
 1007              	.LVL86:
 239:DaisySP-LGPL-FX/reverbsc.cpp ****                 read_pos -= buffer_size;
 1008              		.loc 1 239 13 view .LVU394
 1009 01e6 8B42     		cmp	r3, r1
 238:DaisySP-LGPL-FX/reverbsc.cpp ****             if(++read_pos >= buffer_size)
 1010              		.loc 1 238 17 view .LVU395
 1011 01e8 9EED004A 		vldr.32	s8, [lr]
 1012              	.LVL87:
 239:DaisySP-LGPL-FX/reverbsc.cpp ****                 read_pos -= buffer_size;
 1013              		.loc 1 239 13 is_stmt 1 view .LVU396
 240:DaisySP-LGPL-FX/reverbsc.cpp ****             v0 = (float)lp->buf[read_pos];
 1014              		.loc 1 240 17 view .LVU397
 240:DaisySP-LGPL-FX/reverbsc.cpp ****             v0 = (float)lp->buf[read_pos];
 1015              		.loc 1 240 26 is_stmt 0 view .LVU398
 1016 01ec D8BF     		it	le
 1017 01ee C91A     		suble	r1, r1, r3
 1018              	.LVL88:
 241:DaisySP-LGPL-FX/reverbsc.cpp ****             if(++read_pos >= buffer_size)
 1019              		.loc 1 241 13 is_stmt 1 view .LVU399
 241:DaisySP-LGPL-FX/reverbsc.cpp ****             if(++read_pos >= buffer_size)
 1020              		.loc 1 241 16 is_stmt 0 view .LVU400
 1021 01f0 02EB810E 		add	lr, r2, r1, lsl #2
 242:DaisySP-LGPL-FX/reverbsc.cpp ****                 read_pos -= buffer_size;
 1022              		.loc 1 242 27 view .LVU401
ARM GAS  /var/folders/2p/02m_5p7958535cp2tpgps0400000gn/T//ccJ8pZbM.s 			page 28


 1023 01f4 0131     		adds	r1, r1, #1
 1024              	.LVL89:
 242:DaisySP-LGPL-FX/reverbsc.cpp ****                 read_pos -= buffer_size;
 1025              		.loc 1 242 13 view .LVU402
 1026 01f6 8B42     		cmp	r3, r1
 241:DaisySP-LGPL-FX/reverbsc.cpp ****             if(++read_pos >= buffer_size)
 1027              		.loc 1 241 16 view .LVU403
 1028 01f8 DEED006A 		vldr.32	s13, [lr]
 1029              	.LVL90:
 242:DaisySP-LGPL-FX/reverbsc.cpp ****                 read_pos -= buffer_size;
 1030              		.loc 1 242 13 is_stmt 1 view .LVU404
 243:DaisySP-LGPL-FX/reverbsc.cpp ****             v1 = (float)lp->buf[read_pos];
 1031              		.loc 1 243 17 view .LVU405
 243:DaisySP-LGPL-FX/reverbsc.cpp ****             v1 = (float)lp->buf[read_pos];
 1032              		.loc 1 243 26 is_stmt 0 view .LVU406
 1033 01fc D8BF     		it	le
 1034 01fe C91A     		suble	r1, r1, r3
 1035              	.LVL91:
 244:DaisySP-LGPL-FX/reverbsc.cpp ****             if(++read_pos >= buffer_size)
 1036              		.loc 1 244 13 is_stmt 1 view .LVU407
 244:DaisySP-LGPL-FX/reverbsc.cpp ****             if(++read_pos >= buffer_size)
 1037              		.loc 1 244 16 is_stmt 0 view .LVU408
 1038 0200 02EB810E 		add	lr, r2, r1, lsl #2
 245:DaisySP-LGPL-FX/reverbsc.cpp ****                 read_pos -= buffer_size;
 1039              		.loc 1 245 27 view .LVU409
 1040 0204 0131     		adds	r1, r1, #1
 1041              	.LVL92:
 245:DaisySP-LGPL-FX/reverbsc.cpp ****                 read_pos -= buffer_size;
 1042              		.loc 1 245 13 view .LVU410
 1043 0206 8B42     		cmp	r3, r1
 244:DaisySP-LGPL-FX/reverbsc.cpp ****             if(++read_pos >= buffer_size)
 1044              		.loc 1 244 16 view .LVU411
 1045 0208 DEED004A 		vldr.32	s9, [lr]
 1046              	.LVL93:
 245:DaisySP-LGPL-FX/reverbsc.cpp ****                 read_pos -= buffer_size;
 1047              		.loc 1 245 13 is_stmt 1 view .LVU412
 246:DaisySP-LGPL-FX/reverbsc.cpp ****             v2 = (float)lp->buf[read_pos];
 1048              		.loc 1 246 17 view .LVU413
 246:DaisySP-LGPL-FX/reverbsc.cpp ****             v2 = (float)lp->buf[read_pos];
 1049              		.loc 1 246 26 is_stmt 0 view .LVU414
 1050 020c D8BF     		it	le
 1051 020e C91A     		suble	r1, r1, r3
 1052              	.LVL94:
 247:DaisySP-LGPL-FX/reverbsc.cpp ****         }
 1053              		.loc 1 247 13 is_stmt 1 view .LVU415
 247:DaisySP-LGPL-FX/reverbsc.cpp ****         }
 1054              		.loc 1 247 16 is_stmt 0 view .LVU416
 1055 0210 02EB8101 		add	r1, r2, r1, lsl #2
 1056              	.LVL95:
 247:DaisySP-LGPL-FX/reverbsc.cpp ****         }
 1057              		.loc 1 247 16 view .LVU417
 1058 0214 91ED005A 		vldr.32	s10, [r1]
 1059              	.LVL96:
 247:DaisySP-LGPL-FX/reverbsc.cpp ****         }
 1060              		.loc 1 247 16 view .LVU418
 1061 0218 87E7     		b	.L37
 1062              	.LVL97:
ARM GAS  /var/folders/2p/02m_5p7958535cp2tpgps0400000gn/T//ccJ8pZbM.s 			page 29


 1063              	.L42:
 269:DaisySP-LGPL-FX/reverbsc.cpp ****         }
 1064              		.loc 1 269 13 is_stmt 1 view .LVU419
 269:DaisySP-LGPL-FX/reverbsc.cpp ****         }
 1065              		.loc 1 269 21 is_stmt 0 view .LVU420
 1066 021a 33EE273A 		vadd.f32	s6, s6, s15
 1067              	.LVL98:
 269:DaisySP-LGPL-FX/reverbsc.cpp ****         }
 1068              		.loc 1 269 21 view .LVU421
 1069 021e A1E7     		b	.L43
 1070              	.LVL99:
 1071              	.L46:
 158:DaisySP-LGPL-FX/reverbsc.cpp **** 
 1072              		.loc 1 158 16 view .LVU422
 1073 0220 0120     		movs	r0, #1
 1074              	.LVL100:
 158:DaisySP-LGPL-FX/reverbsc.cpp **** 
 1075              		.loc 1 158 16 view .LVU423
 1076 0222 BBE7     		b	.L26
 1077              	.L52:
 1078 0224 AFF30080 		.align	3
 1079              	.L51:
 1080 0228 55555555 		.word	1431655765
 1081 022c 5555C53F 		.word	1069897045
 1082 0230 00000000 		.word	0
 1083 0234 3333B33E 		.word	1051931443
 1084 0238 DB0FC940 		.word	1086918619
 1085              		.cfi_endproc
 1086              	.LFE560:
 1088              		.section	.text._ZN7daisysp8ReverbSc10ProcessMixERKfS2_PfS3_,"ax",%progbits
 1089              		.align	1
 1090              		.global	_ZN7daisysp8ReverbSc10ProcessMixERKfS2_PfS3_
 1091              		.syntax unified
 1092              		.thumb
 1093              		.thumb_func
 1095              	_ZN7daisysp8ReverbSc10ProcessMixERKfS2_PfS3_:
 1096              	.LVL101:
 1097              	.LFB561:
 285:DaisySP-LGPL-FX/reverbsc.cpp **** 
 286:DaisySP-LGPL-FX/reverbsc.cpp **** void ReverbSc::ProcessMix(const float &in1, const float &in2, float *out1, float *out2){
 1098              		.loc 1 286 88 is_stmt 1 view -0
 1099              		.cfi_startproc
 1100              		@ args = 4, pretend = 0, frame = 8
 1101              		@ frame_needed = 0, uses_anonymous_args = 0
 287:DaisySP-LGPL-FX/reverbsc.cpp ****   float wet_out1, wet_out2;
 1102              		.loc 1 287 3 view .LVU425
 288:DaisySP-LGPL-FX/reverbsc.cpp ****   Process(in1, in2, &wet_out1, &wet_out2);
 1103              		.loc 1 288 3 view .LVU426
 286:DaisySP-LGPL-FX/reverbsc.cpp ****   float wet_out1, wet_out2;
 1104              		.loc 1 286 88 is_stmt 0 view .LVU427
 1105 0000 F0B5     		push	{r4, r5, r6, r7, lr}
 1106              		.cfi_def_cfa_offset 20
 1107              		.cfi_offset 4, -20
 1108              		.cfi_offset 5, -16
 1109              		.cfi_offset 6, -12
 1110              		.cfi_offset 7, -8
 1111              		.cfi_offset 14, -4
ARM GAS  /var/folders/2p/02m_5p7958535cp2tpgps0400000gn/T//ccJ8pZbM.s 			page 30


 1112 0002 85B0     		sub	sp, sp, #20
 1113              		.cfi_def_cfa_offset 40
 286:DaisySP-LGPL-FX/reverbsc.cpp ****   float wet_out1, wet_out2;
 1114              		.loc 1 286 88 view .LVU428
 1115 0004 1E46     		mov	r6, r3
 1116 0006 0446     		mov	r4, r0
 1117 0008 0F46     		mov	r7, r1
 1118              		.loc 1 288 10 view .LVU429
 1119 000a 03AB     		add	r3, sp, #12
 1120              	.LVL102:
 286:DaisySP-LGPL-FX/reverbsc.cpp ****   float wet_out1, wet_out2;
 1121              		.loc 1 286 88 view .LVU430
 1122 000c 1546     		mov	r5, r2
 1123              		.loc 1 288 10 view .LVU431
 1124 000e 0093     		str	r3, [sp]
 1125 0010 02AB     		add	r3, sp, #8
 1126 0012 FFF7FEFF 		bl	_ZN7daisysp8ReverbSc7ProcessERKfS2_PfS3_
 1127              	.LVL103:
 289:DaisySP-LGPL-FX/reverbsc.cpp ****   *out1 = wet_mix_*wet_out1 + ((1.0f-wet_mix_)*in1);
 1128              		.loc 1 289 3 is_stmt 1 view .LVU432
 1129              		.loc 1 289 11 is_stmt 0 view .LVU433
 1130 0016 04F5C120 		add	r0, r4, #395264
 1131              		.loc 1 289 37 view .LVU434
 1132 001a F7EE007A 		vmov.f32	s15, #1.0e+0
 1133              		.loc 1 289 47 view .LVU435
 1134 001e 97ED006A 		vldr.32	s12, [r7]
 1135              		.loc 1 289 11 view .LVU436
 1136 0022 D0EDD16A 		vldr.32	s13, [r0, #836]
 290:DaisySP-LGPL-FX/reverbsc.cpp ****   *out2 = wet_mix_*wet_out2 + ((1.0f-wet_mix_)*in2);
 1137              		.loc 1 290 9 view .LVU437
 1138 0026 0A9B     		ldr	r3, [sp, #40]
 289:DaisySP-LGPL-FX/reverbsc.cpp ****   *out1 = wet_mix_*wet_out1 + ((1.0f-wet_mix_)*in1);
 1139              		.loc 1 289 37 view .LVU438
 1140 0028 37EEE67A 		vsub.f32	s14, s15, s13
 289:DaisySP-LGPL-FX/reverbsc.cpp ****   *out1 = wet_mix_*wet_out1 + ((1.0f-wet_mix_)*in1);
 1141              		.loc 1 289 47 view .LVU439
 1142 002c 27EE067A 		vmul.f32	s14, s14, s12
 289:DaisySP-LGPL-FX/reverbsc.cpp ****   *out1 = wet_mix_*wet_out1 + ((1.0f-wet_mix_)*in1);
 1143              		.loc 1 289 29 view .LVU440
 1144 0030 9DED026A 		vldr.32	s12, [sp, #8]
 1145 0034 A6EE867A 		vfma.f32	s14, s13, s12
 289:DaisySP-LGPL-FX/reverbsc.cpp ****   *out1 = wet_mix_*wet_out1 + ((1.0f-wet_mix_)*in1);
 1146              		.loc 1 289 9 view .LVU441
 1147 0038 86ED007A 		vstr.32	s14, [r6]
 1148              		.loc 1 290 3 is_stmt 1 view .LVU442
 1149              		.loc 1 290 11 is_stmt 0 view .LVU443
 1150 003c 90EDD17A 		vldr.32	s14, [r0, #836]
 1151              		.loc 1 290 47 view .LVU444
 1152 0040 D5ED006A 		vldr.32	s13, [r5]
 1153              		.loc 1 290 37 view .LVU445
 1154 0044 77EEC77A 		vsub.f32	s15, s15, s14
 1155              		.loc 1 290 47 view .LVU446
 1156 0048 67EEA67A 		vmul.f32	s15, s15, s13
 1157              		.loc 1 290 29 view .LVU447
 1158 004c DDED036A 		vldr.32	s13, [sp, #12]
 1159 0050 E7EE267A 		vfma.f32	s15, s14, s13
 1160              		.loc 1 290 9 view .LVU448
ARM GAS  /var/folders/2p/02m_5p7958535cp2tpgps0400000gn/T//ccJ8pZbM.s 			page 31


 1161 0054 C3ED007A 		vstr.32	s15, [r3]
 291:DaisySP-LGPL-FX/reverbsc.cpp **** }
 1162              		.loc 1 291 1 view .LVU449
 1163 0058 05B0     		add	sp, sp, #20
 1164              		.cfi_def_cfa_offset 20
 1165              		@ sp needed
 1166 005a F0BD     		pop	{r4, r5, r6, r7, pc}
 1167              		.loc 1 291 1 view .LVU450
 1168              		.cfi_endproc
 1169              	.LFE561:
 1171              		.section	.rodata._ZL13kReverbParams,"a"
 1172              		.align	2
 1173              		.set	.LANCHOR0,. + 0
 1176              	_ZL13kReverbParams:
 1177 0000 8207533D 		.word	1028851586
 1178 0004 6F12833A 		.word	981668463
 1179 0008 66664640 		.word	1078355558
 1180 000c 00C0F544 		.word	1156956160
 1181 0010 0A1E6C3D 		.word	1030495754
 1182 0014 E02D903A 		.word	982527456
 1183 0018 00006040 		.word	1080033280
 1184 001c 0066E646 		.word	1189504512
 1185 0020 3842893D 		.word	1032405560
 1186 0024 89D2DE3A 		.word	987681417
 1187 0028 7B148E3F 		.word	1066275963
 1188 002c 0032B346 		.word	1186148864
 1189 0030 EDC3973D 		.word	1033356269
 1190 0034 52491D3A 		.word	974997842
 1191 0038 A2457E40 		.word	1082017186
 1192 003c 00981946 		.word	1176082432
 1193 0040 DCB2A63D 		.word	1034334940
 1194 0044 6F12833A 		.word	981668463
 1195 0048 F2D21540 		.word	1075172082
 1196 004c 0046A146 		.word	1184974336
 1197 0050 D815B03D 		.word	1034950104
 1198 0054 E02D903A 		.word	982527456
 1199 0058 E5D0F23F 		.word	1072877797
 1200 005c 0032B346 		.word	1186148864
 1201 0060 8DDE363D 		.word	1027006093
 1202 0064 89D2DE3A 		.word	987681417
 1203 0068 9318643F 		.word	1063524499
 1204 006c 0066E646 		.word	1189504512
 1205 0070 08F3243D 		.word	1025831688
 1206 0074 52491D3A 		.word	974997842
 1207 0078 DD244E40 		.word	1078863069
 1208 007c 00446146 		.word	1180779520
 1209              		.text
 1210              	.Letext0:
 1211              		.file 2 "/Library/DaisyToolchain/0.2.0/arm/arm-none-eabi/include/machine/_default_types.h"
 1212              		.file 3 "/Library/DaisyToolchain/0.2.0/arm/arm-none-eabi/include/sys/_stdint.h"
 1213              		.file 4 "../libDaisy/Drivers/CMSIS/Device/ST/STM32H7xx/Include/stm32h7xx.h"
 1214              		.file 5 "/Library/DaisyToolchain/0.2.0/arm/lib/gcc/arm-none-eabi/10.3.1/include/stddef.h"
 1215              		.file 6 "/Library/DaisyToolchain/0.2.0/arm/arm-none-eabi/include/c++/10.3.1/bits/cpp_type_traits.h
 1216              		.file 7 "/Library/DaisyToolchain/0.2.0/arm/arm-none-eabi/include/c++/10.3.1/cmath"
 1217              		.file 8 "/Library/DaisyToolchain/0.2.0/arm/arm-none-eabi/include/c++/10.3.1/bits/std_abs.h"
 1218              		.file 9 "/Library/DaisyToolchain/0.2.0/arm/arm-none-eabi/include/c++/10.3.1/cstdlib"
 1219              		.file 10 "/Library/DaisyToolchain/0.2.0/arm/arm-none-eabi/include/c++/10.3.1/arm-none-eabi/thumb/v
ARM GAS  /var/folders/2p/02m_5p7958535cp2tpgps0400000gn/T//ccJ8pZbM.s 			page 32


 1220              		.file 11 "/Library/DaisyToolchain/0.2.0/arm/arm-none-eabi/include/math.h"
 1221              		.file 12 "/Library/DaisyToolchain/0.2.0/arm/arm-none-eabi/include/stdlib.h"
 1222              		.file 13 "/Library/DaisyToolchain/0.2.0/arm/arm-none-eabi/include/c++/10.3.1/math.h"
 1223              		.file 14 "../libDaisy/Drivers/STM32H7xx_HAL_Driver/Inc/stm32h7xx_hal_comp.h"
 1224              		.file 15 "../libDaisy/Drivers/STM32H7xx_HAL_Driver/Inc/stm32h7xx_hal.h"
 1225              		.file 16 "/Library/DaisyToolchain/0.2.0/arm/arm-none-eabi/include/c++/10.3.1/stdlib.h"
 1226              		.file 17 "DaisySP-LGPL-FX/reverbsc.h"
 1227              		.file 18 "<built-in>"
ARM GAS  /var/folders/2p/02m_5p7958535cp2tpgps0400000gn/T//ccJ8pZbM.s 			page 33

