ARM GAS  /var/folders/2p/02m_5p7958535cp2tpgps0400000gn/T//ccXYOr1x.s 			page 1


   1              		.cpu cortex-m7
   2              		.arch armv7e-m
   3              		.fpu fpv5-d16
   4              		.eabi_attribute 28, 1
   5              		.eabi_attribute 20, 1
   6              		.eabi_attribute 21, 1
   7              		.eabi_attribute 23, 3
   8              		.eabi_attribute 24, 1
   9              		.eabi_attribute 25, 1
  10              		.eabi_attribute 26, 1
  11              		.eabi_attribute 30, 4
  12              		.eabi_attribute 34, 1
  13              		.eabi_attribute 18, 4
  14              		.file	"UIManager.cpp"
  15              		.text
  16              	.Ltext0:
  17              		.cfi_sections	.debug_frame
  18              		.section	.text._ZN9UIManager8SetStateE8AppState,"ax",%progbits
  19              		.align	1
  20              		.global	_ZN9UIManager8SetStateE8AppState
  21              		.syntax unified
  22              		.thumb
  23              		.thumb_func
  25              	_ZN9UIManager8SetStateE8AppState:
  26              	.LVL0:
  27              	.LFB2581:
  28              		.file 1 "UIManager.cpp"
   1:UIManager.cpp **** #include "UIManager.h"
   2:UIManager.cpp **** 
   3:UIManager.cpp **** /// @brief Initialise UI, set up timer for LED pulse callbacks
   4:UIManager.cpp **** void UIManager::Init(){
   5:UIManager.cpp ****   SetupTimer();
   6:UIManager.cpp ****   // StartLedPulse();
   7:UIManager.cpp **** }
   8:UIManager.cpp **** 
   9:UIManager.cpp **** /// @brief Called on loop to continually update knob inputs and current app state
  10:UIManager.cpp **** void UIManager::UpdateUI(){
  11:UIManager.cpp ****   if (!crash_error){
  12:UIManager.cpp ****     UpdateKnobs();
  13:UIManager.cpp ****       
  14:UIManager.cpp ****     UpdateState();
  15:UIManager.cpp ****     // UpdateSynthMode();
  16:UIManager.cpp ****   }
  17:UIManager.cpp **** }
  18:UIManager.cpp **** 
  19:UIManager.cpp **** /// @brief Updates hardware input knob values and assigns to correct array indices 
  20:UIManager.cpp **** void UIManager::UpdateKnobs(){
  21:UIManager.cpp ****   // NOTE: need to add stuff for chord mode here! 
  22:UIManager.cpp ****   if (current_state_ == AppState::Synthesis){
  23:UIManager.cpp ****     int mode_idx = static_cast<int>(synth_mode_);
  24:UIManager.cpp ****     float k1v = MapKnobDeadzone(pod_.knob1.Process());
  25:UIManager.cpp ****     float k2v = MapKnobDeadzone(pod_.knob2.Process());
  26:UIManager.cpp **** 
  27:UIManager.cpp ****     /* here we pass the current knob value, pointer to the stored knob value for this mode,
  28:UIManager.cpp ****       and a pointer to the bool which tracks whether the knob value has been passed through */
  29:UIManager.cpp ****     k1v_[mode_idx] = UpdateKnobPassThru(k1v, &k1v_[mode_idx], &k1_pass_thru_[mode_idx]);
  30:UIManager.cpp ****     k2v_[mode_idx] = UpdateKnobPassThru(k2v, &k2v_[mode_idx], &k2_pass_thru_[mode_idx]);
ARM GAS  /var/folders/2p/02m_5p7958535cp2tpgps0400000gn/T//ccXYOr1x.s 			page 2


  31:UIManager.cpp ****   }
  32:UIManager.cpp **** }
  33:UIManager.cpp **** 
  34:UIManager.cpp **** /// @brief Updates current UI/app state based on hardware inputs
  35:UIManager.cpp **** void UIManager::UpdateState(){
  36:UIManager.cpp ****   pod_.ProcessDigitalControls();
  37:UIManager.cpp ****   // TODO: change this to encoder pressed?? 
  38:UIManager.cpp ****   if (Button1Pressed()){
  39:UIManager.cpp ****     switch(current_state_){
  40:UIManager.cpp ****       case AppState::Startup:
  41:UIManager.cpp ****         current_state_ = AppState::SelectFile; 
  42:UIManager.cpp ****         break;
  43:UIManager.cpp ****       case AppState::SelectFile:
  44:UIManager.cpp ****         current_state_ = AppState::PlayWAV;
  45:UIManager.cpp ****         // NOTE: should i select next state (ie playwav) by clicking encoder? or pressing button1? 
  46:UIManager.cpp ****         break;
  47:UIManager.cpp ****       case AppState::PlayWAV:
  48:UIManager.cpp ****         current_state_ = AppState::Synthesis;
  49:UIManager.cpp ****         synth_mode_ = SynthMode::Size_Position;
  50:UIManager.cpp ****         // StopLedPulse(); 
  51:UIManager.cpp ****         break;
  52:UIManager.cpp ****       case AppState::Synthesis:
  53:UIManager.cpp ****         UpdateSynthMode();
  54:UIManager.cpp ****         break;
  55:UIManager.cpp ****       default:
  56:UIManager.cpp ****         break;
  57:UIManager.cpp ****     }
  58:UIManager.cpp ****   }
  59:UIManager.cpp ****   if (Button2Pressed()){
  60:UIManager.cpp ****     switch(current_state_){
  61:UIManager.cpp ****       case AppState::Synthesis:
  62:UIManager.cpp ****         ToggleRandomnessControls();
  63:UIManager.cpp ****         SetLedRandomMode();
  64:UIManager.cpp ****         break;
  65:UIManager.cpp ****       default:
  66:UIManager.cpp ****         break;
  67:UIManager.cpp ****     }
  68:UIManager.cpp ****   }
  69:UIManager.cpp ****   /* exit synthesis mode, return to file selection, stop audio. */
  70:UIManager.cpp ****   if (EncoderLongPress()){
  71:UIManager.cpp ****     switch (current_state_){
  72:UIManager.cpp ****       case AppState::Synthesis:
  73:UIManager.cpp ****         pod_.StopAudio();
  74:UIManager.cpp ****         current_state_ = AppState::SelectFile;
  75:UIManager.cpp ****         // StartLedPulse();
  76:UIManager.cpp ****         break;
  77:UIManager.cpp ****       case AppState::SelectFile:
  78:UIManager.cpp ****         current_state_ = AppState::RecordIn;
  79:UIManager.cpp ****         break;
  80:UIManager.cpp ****       default:
  81:UIManager.cpp ****         break;
  82:UIManager.cpp ****     }
  83:UIManager.cpp ****   }
  84:UIManager.cpp ****   if (EncoderPressed()){
  85:UIManager.cpp ****     if (current_state_ == AppState::RecordIn){
  86:UIManager.cpp ****       current_state_ = AppState::Synthesis;
  87:UIManager.cpp ****     }
ARM GAS  /var/folders/2p/02m_5p7958535cp2tpgps0400000gn/T//ccXYOr1x.s 			page 3


  88:UIManager.cpp ****   }
  89:UIManager.cpp **** }
  90:UIManager.cpp **** 
  91:UIManager.cpp **** /// @brief Helper method to externally set current app state
  92:UIManager.cpp **** /// @param state 
  93:UIManager.cpp **** void UIManager::SetState(AppState state){
  29              		.loc 1 93 41 view -0
  30              		.cfi_startproc
  31              		@ args = 0, pretend = 0, frame = 0
  32              		@ frame_needed = 0, uses_anonymous_args = 0
  33              		@ link register save eliminated.
  94:UIManager.cpp ****   current_state_ = state;
  34              		.loc 1 94 3 view .LVU1
  35              		.loc 1 94 18 is_stmt 0 view .LVU2
  36 0000 4160     		str	r1, [r0, #4]
  95:UIManager.cpp **** }
  37              		.loc 1 95 1 view .LVU3
  38 0002 7047     		bx	lr
  39              		.cfi_endproc
  40              	.LFE2581:
  42              		.section	.text._ZN9UIManager15UpdateSynthModeEv,"ax",%progbits
  43              		.align	1
  44              		.global	_ZN9UIManager15UpdateSynthModeEv
  45              		.syntax unified
  46              		.thumb
  47              		.thumb_func
  49              	_ZN9UIManager15UpdateSynthModeEv:
  50              	.LVL1:
  51              	.LFB2583:
  96:UIManager.cpp **** 
  97:UIManager.cpp **** /// @brief Helper method to set current app state to Error and start red error LEDs
  98:UIManager.cpp **** void UIManager::SetStateError(){
  99:UIManager.cpp ****   current_state_ = AppState::Error;
 100:UIManager.cpp ****   StopLedPulse();
 101:UIManager.cpp ****   SetLed(255,0,0,true);
 102:UIManager.cpp ****   SetLed(255,0,0,false);
 103:UIManager.cpp ****   crash_error = true;
 104:UIManager.cpp **** }
 105:UIManager.cpp **** 
 106:UIManager.cpp **** /// @brief Cycles through synth parameter update modes
 107:UIManager.cpp **** void UIManager::UpdateSynthMode(){
  52              		.loc 1 107 34 is_stmt 1 view -0
  53              		.cfi_startproc
  54              		@ args = 0, pretend = 0, frame = 0
  55              		@ frame_needed = 0, uses_anonymous_args = 0
  56              		@ link register save eliminated.
 108:UIManager.cpp ****   switch(synth_mode_){
  57              		.loc 1 108 3 view .LVU5
  58 0000 8368     		ldr	r3, [r0, #8]
  59 0002 062B     		cmp	r3, #6
  60 0004 07D8     		bhi	.L2
  61 0006 DFE803F0 		tbb	[pc, r3]
  62              	.L5:
  63 000a 04       		.byte	(.L8-.L5)/2
  64 000b 07       		.byte	(.L7-.L5)/2
  65 000c 09       		.byte	(.L6-.L5)/2
  66 000d 06       		.byte	(.L2-.L5)/2
ARM GAS  /var/folders/2p/02m_5p7958535cp2tpgps0400000gn/T//ccXYOr1x.s 			page 4


  67 000e 06       		.byte	(.L2-.L5)/2
  68 000f 06       		.byte	(.L2-.L5)/2
  69 0010 0B       		.byte	(.L4-.L5)/2
  70 0011 00       		.p2align 1
  71              	.L8:
 109:UIManager.cpp ****     case SynthMode::Size_Position:
  72              		.loc 1 109 5 view .LVU6
 110:UIManager.cpp ****       synth_mode_ = SynthMode::Pitch_ActiveGrains;
  73              		.loc 1 110 7 view .LVU7
  74              		.loc 1 110 19 is_stmt 0 view .LVU8
  75 0012 0123     		movs	r3, #1
  76              	.L9:
 111:UIManager.cpp ****       break;
 112:UIManager.cpp ****     case SynthMode::Pitch_ActiveGrains:
 113:UIManager.cpp ****       synth_mode_ = SynthMode::PhasorMode_EnvType;
 114:UIManager.cpp ****       break;
 115:UIManager.cpp ****     case SynthMode::PhasorMode_EnvType:
 116:UIManager.cpp ****       synth_mode_ = SynthMode::Pan_PanRnd;
 117:UIManager.cpp ****       break;
 118:UIManager.cpp ****     case SynthMode::Pan_PanRnd:
 119:UIManager.cpp ****       synth_mode_ = SynthMode::Size_Position;
  77              		.loc 1 119 19 view .LVU9
  78 0014 8360     		str	r3, [r0, #8]
 120:UIManager.cpp ****       break;
  79              		.loc 1 120 7 is_stmt 1 view .LVU10
  80              	.L2:
 121:UIManager.cpp ****     default:
 122:UIManager.cpp ****       break;
 123:UIManager.cpp ****   }
 124:UIManager.cpp **** }
  81              		.loc 1 124 1 is_stmt 0 view .LVU11
  82 0016 7047     		bx	lr
  83              	.L7:
 112:UIManager.cpp ****       synth_mode_ = SynthMode::PhasorMode_EnvType;
  84              		.loc 1 112 5 is_stmt 1 view .LVU12
 113:UIManager.cpp ****       break;
  85              		.loc 1 113 7 view .LVU13
 113:UIManager.cpp ****       break;
  86              		.loc 1 113 19 is_stmt 0 view .LVU14
  87 0018 0223     		movs	r3, #2
  88 001a FBE7     		b	.L9
  89              	.L6:
 115:UIManager.cpp ****       synth_mode_ = SynthMode::Pan_PanRnd;
  90              		.loc 1 115 5 is_stmt 1 view .LVU15
 116:UIManager.cpp ****       break;
  91              		.loc 1 116 7 view .LVU16
 116:UIManager.cpp ****       break;
  92              		.loc 1 116 19 is_stmt 0 view .LVU17
  93 001c 0623     		movs	r3, #6
  94 001e F9E7     		b	.L9
  95              	.L4:
 118:UIManager.cpp ****       synth_mode_ = SynthMode::Size_Position;
  96              		.loc 1 118 5 is_stmt 1 view .LVU18
 119:UIManager.cpp ****       break;
  97              		.loc 1 119 7 view .LVU19
 119:UIManager.cpp ****       break;
  98              		.loc 1 119 19 is_stmt 0 view .LVU20
ARM GAS  /var/folders/2p/02m_5p7958535cp2tpgps0400000gn/T//ccXYOr1x.s 			page 5


  99 0020 0023     		movs	r3, #0
 100 0022 F7E7     		b	.L9
 101              		.cfi_endproc
 102              	.LFE2583:
 104              		.section	.text._ZN9UIManager24ToggleRandomnessControlsEv,"ax",%progbits
 105              		.align	1
 106              		.global	_ZN9UIManager24ToggleRandomnessControlsEv
 107              		.syntax unified
 108              		.thumb
 109              		.thumb_func
 111              	_ZN9UIManager24ToggleRandomnessControlsEv:
 112              	.LVL2:
 113              	.LFB2584:
 125:UIManager.cpp **** 
 126:UIManager.cpp **** /* each synth mode (apart from pan) has 2 submodes: 
 127:UIManager.cpp ****   knobs either change the named parameters themselves (modes above), 
 128:UIManager.cpp ****   or change the degree of randomness applied to these parameters in granulation */
 129:UIManager.cpp **** void UIManager::ToggleRandomnessControls(){
 114              		.loc 1 129 43 is_stmt 1 view -0
 115              		.cfi_startproc
 116              		@ args = 0, pretend = 0, frame = 0
 117              		@ frame_needed = 0, uses_anonymous_args = 0
 118              		@ link register save eliminated.
 130:UIManager.cpp ****   switch(synth_mode_){
 119              		.loc 1 130 3 view .LVU22
 120 0000 8368     		ldr	r3, [r0, #8]
 121 0002 052B     		cmp	r3, #5
 122 0004 06D8     		bhi	.L10
 123 0006 DFE803F0 		tbb	[pc, r3]
 124              	.L13:
 125 000a 03       		.byte	(.L18-.L13)/2
 126 000b 08       		.byte	(.L17-.L13)/2
 127 000c 0C       		.byte	(.L16-.L13)/2
 128 000d 06       		.byte	(.L15-.L13)/2
 129 000e 0A       		.byte	(.L14-.L13)/2
 130 000f 0E       		.byte	(.L12-.L13)/2
 131              		.p2align 1
 132              	.L18:
 131:UIManager.cpp ****     case SynthMode::Size_Position:
 133              		.loc 1 131 5 view .LVU23
 132:UIManager.cpp ****       synth_mode_ = SynthMode::Size_Position_Rnd;
 134              		.loc 1 132 7 view .LVU24
 135              		.loc 1 132 19 is_stmt 0 view .LVU25
 136 0010 0323     		movs	r3, #3
 137              	.L19:
 133:UIManager.cpp ****       break;
 134:UIManager.cpp ****     case SynthMode::Size_Position_Rnd:
 135:UIManager.cpp ****       synth_mode_ = SynthMode::Size_Position;
 136:UIManager.cpp ****       break;
 137:UIManager.cpp ****     case SynthMode::Pitch_ActiveGrains:
 138:UIManager.cpp ****       synth_mode_ = SynthMode::Pitch_ActiveGrains_Rnd;
 139:UIManager.cpp ****       break;
 140:UIManager.cpp ****     case SynthMode::Pitch_ActiveGrains_Rnd:
 141:UIManager.cpp ****       synth_mode_ = SynthMode::Pitch_ActiveGrains;
 142:UIManager.cpp ****       break;
 143:UIManager.cpp ****     case SynthMode::PhasorMode_EnvType:
 144:UIManager.cpp ****       synth_mode_ = SynthMode::PhasorMode_EnvType_Rnd;
ARM GAS  /var/folders/2p/02m_5p7958535cp2tpgps0400000gn/T//ccXYOr1x.s 			page 6


 145:UIManager.cpp ****       break;      
 146:UIManager.cpp ****     case SynthMode::PhasorMode_EnvType_Rnd:
 147:UIManager.cpp ****       synth_mode_ = SynthMode::PhasorMode_EnvType;
 138              		.loc 1 147 19 view .LVU26
 139 0012 8360     		str	r3, [r0, #8]
 148:UIManager.cpp ****       break;
 140              		.loc 1 148 7 is_stmt 1 view .LVU27
 141              	.L10:
 149:UIManager.cpp ****     case SynthMode::Pan_PanRnd:
 150:UIManager.cpp ****       break;
 151:UIManager.cpp ****     }
 152:UIManager.cpp **** }
 142              		.loc 1 152 1 is_stmt 0 view .LVU28
 143 0014 7047     		bx	lr
 144              	.L15:
 134:UIManager.cpp ****       synth_mode_ = SynthMode::Size_Position;
 145              		.loc 1 134 5 is_stmt 1 view .LVU29
 135:UIManager.cpp ****       break;
 146              		.loc 1 135 7 view .LVU30
 135:UIManager.cpp ****       break;
 147              		.loc 1 135 19 is_stmt 0 view .LVU31
 148 0016 0023     		movs	r3, #0
 149 0018 FBE7     		b	.L19
 150              	.L17:
 137:UIManager.cpp ****       synth_mode_ = SynthMode::Pitch_ActiveGrains_Rnd;
 151              		.loc 1 137 5 is_stmt 1 view .LVU32
 138:UIManager.cpp ****       break;
 152              		.loc 1 138 7 view .LVU33
 138:UIManager.cpp ****       break;
 153              		.loc 1 138 19 is_stmt 0 view .LVU34
 154 001a 0423     		movs	r3, #4
 155 001c F9E7     		b	.L19
 156              	.L14:
 140:UIManager.cpp ****       synth_mode_ = SynthMode::Pitch_ActiveGrains;
 157              		.loc 1 140 5 is_stmt 1 view .LVU35
 141:UIManager.cpp ****       break;
 158              		.loc 1 141 7 view .LVU36
 141:UIManager.cpp ****       break;
 159              		.loc 1 141 19 is_stmt 0 view .LVU37
 160 001e 0123     		movs	r3, #1
 161 0020 F7E7     		b	.L19
 162              	.L16:
 143:UIManager.cpp ****       synth_mode_ = SynthMode::PhasorMode_EnvType_Rnd;
 163              		.loc 1 143 5 is_stmt 1 view .LVU38
 144:UIManager.cpp ****       break;      
 164              		.loc 1 144 7 view .LVU39
 144:UIManager.cpp ****       break;      
 165              		.loc 1 144 19 is_stmt 0 view .LVU40
 166 0022 0523     		movs	r3, #5
 167 0024 F5E7     		b	.L19
 168              	.L12:
 146:UIManager.cpp ****       synth_mode_ = SynthMode::PhasorMode_EnvType;
 169              		.loc 1 146 5 is_stmt 1 view .LVU41
 147:UIManager.cpp ****       break;
 170              		.loc 1 147 7 view .LVU42
 147:UIManager.cpp ****       break;
 171              		.loc 1 147 19 is_stmt 0 view .LVU43
ARM GAS  /var/folders/2p/02m_5p7958535cp2tpgps0400000gn/T//ccXYOr1x.s 			page 7


 172 0026 0223     		movs	r3, #2
 173 0028 F3E7     		b	.L19
 174              		.cfi_endproc
 175              	.LFE2584:
 177              		.section	.text._ZN9UIManager15ToggleRecordOutEv,"ax",%progbits
 178              		.align	1
 179              		.global	_ZN9UIManager15ToggleRecordOutEv
 180              		.syntax unified
 181              		.thumb
 182              		.thumb_func
 184              	_ZN9UIManager15ToggleRecordOutEv:
 185              	.LVL3:
 186              	.LFB2585:
 153:UIManager.cpp **** 
 154:UIManager.cpp **** 
 155:UIManager.cpp **** bool UIManager::ToggleRecordOut(){//NOTE NEED TO DECIDE THiS!!
 187              		.loc 1 155 34 is_stmt 1 view -0
 188              		.cfi_startproc
 189              		@ args = 0, pretend = 0, frame = 0
 190              		@ frame_needed = 0, uses_anonymous_args = 0
 191              		@ link register save eliminated.
 156:UIManager.cpp ****   // TODO: need to decide what control input will toggle record out
 157:UIManager.cpp ****   return true; 
 192              		.loc 1 157 3 view .LVU45
 158:UIManager.cpp **** }
 193              		.loc 1 158 1 is_stmt 0 view .LVU46
 194 0000 0120     		movs	r0, #1
 195              	.LVL4:
 196              		.loc 1 158 1 view .LVU47
 197 0002 7047     		bx	lr
 198              		.cfi_endproc
 199              	.LFE2585:
 201              		.section	.text._ZN9UIManager13GetKnob1ValueEi,"ax",%progbits
 202              		.align	1
 203              		.global	_ZN9UIManager13GetKnob1ValueEi
 204              		.syntax unified
 205              		.thumb
 206              		.thumb_func
 208              	_ZN9UIManager13GetKnob1ValueEi:
 209              	.LVL5:
 210              	.LFB2586:
 159:UIManager.cpp **** 
 160:UIManager.cpp **** 
 161:UIManager.cpp **** float UIManager::GetKnob1Value(int mode_idx){
 211              		.loc 1 161 45 is_stmt 1 view -0
 212              		.cfi_startproc
 213              		@ args = 0, pretend = 0, frame = 0
 214              		@ frame_needed = 0, uses_anonymous_args = 0
 215              		@ link register save eliminated.
 162:UIManager.cpp ****   return k1v_[mode_idx];
 216              		.loc 1 162 3 view .LVU49
 217              		.loc 1 162 23 is_stmt 0 view .LVU50
 218 0000 00EB8101 		add	r1, r0, r1, lsl #2
 219              	.LVL6:
 163:UIManager.cpp **** }
 220              		.loc 1 163 1 view .LVU51
 221 0004 91ED090A 		vldr.32	s0, [r1, #36]
ARM GAS  /var/folders/2p/02m_5p7958535cp2tpgps0400000gn/T//ccXYOr1x.s 			page 8


 222 0008 7047     		bx	lr
 223              		.cfi_endproc
 224              	.LFE2586:
 226              		.section	.text._ZN9UIManager13GetKnob2ValueEi,"ax",%progbits
 227              		.align	1
 228              		.global	_ZN9UIManager13GetKnob2ValueEi
 229              		.syntax unified
 230              		.thumb
 231              		.thumb_func
 233              	_ZN9UIManager13GetKnob2ValueEi:
 234              	.LVL7:
 235              	.LFB2587:
 164:UIManager.cpp **** 
 165:UIManager.cpp **** float UIManager::GetKnob2Value(int mode_idx){
 236              		.loc 1 165 45 is_stmt 1 view -0
 237              		.cfi_startproc
 238              		@ args = 0, pretend = 0, frame = 0
 239              		@ frame_needed = 0, uses_anonymous_args = 0
 240              		@ link register save eliminated.
 166:UIManager.cpp ****   return k2v_[mode_idx];
 241              		.loc 1 166 3 view .LVU53
 242              		.loc 1 166 23 is_stmt 0 view .LVU54
 243 0000 00EB8101 		add	r1, r0, r1, lsl #2
 244              	.LVL8:
 167:UIManager.cpp **** }
 245              		.loc 1 167 1 view .LVU55
 246 0004 91ED100A 		vldr.32	s0, [r1, #64]
 247 0008 7047     		bx	lr
 248              		.cfi_endproc
 249              	.LFE2587:
 251              		.section	.text._ZN9UIManager19GetEncoderIncrementEv,"ax",%progbits
 252              		.align	1
 253              		.global	_ZN9UIManager19GetEncoderIncrementEv
 254              		.syntax unified
 255              		.thumb
 256              		.thumb_func
 258              	_ZN9UIManager19GetEncoderIncrementEv:
 259              	.LVL9:
 260              	.LFB2588:
 168:UIManager.cpp **** 
 169:UIManager.cpp **** int32_t UIManager::GetEncoderIncrement(){
 261              		.loc 1 169 41 is_stmt 1 view -0
 262              		.cfi_startproc
 263              		@ args = 0, pretend = 0, frame = 0
 264              		@ frame_needed = 0, uses_anonymous_args = 0
 265              		@ link register save eliminated.
 170:UIManager.cpp ****   return pod_.encoder.Increment();
 266              		.loc 1 170 3 view .LVU57
 267              		.loc 1 170 10 is_stmt 0 view .LVU58
 268 0000 0368     		ldr	r3, [r0]
 269              	.LVL10:
 270              	.LBB31:
 271              	.LBI31:
 272              		.file 2 "../libDaisy/src/hid/encoder.h"
   1:../libDaisy/src/hid/encoder.h **** #pragma once
   2:../libDaisy/src/hid/encoder.h **** #ifndef DSY_ENCODER_H
   3:../libDaisy/src/hid/encoder.h **** #define DSY_ENCODER_H
ARM GAS  /var/folders/2p/02m_5p7958535cp2tpgps0400000gn/T//ccXYOr1x.s 			page 9


   4:../libDaisy/src/hid/encoder.h **** #include "daisy_core.h"
   5:../libDaisy/src/hid/encoder.h **** #include "per/gpio.h"
   6:../libDaisy/src/hid/encoder.h **** #include "hid/switch.h"
   7:../libDaisy/src/hid/encoder.h **** 
   8:../libDaisy/src/hid/encoder.h **** namespace daisy
   9:../libDaisy/src/hid/encoder.h **** {
  10:../libDaisy/src/hid/encoder.h **** /** 
  11:../libDaisy/src/hid/encoder.h ****     @brief Generic Class for handling Quadrature Encoders \n 
  12:../libDaisy/src/hid/encoder.h ****     Inspired/influenced by Mutable Instruments (pichenettes) Encoder classes
  13:../libDaisy/src/hid/encoder.h ****     @author Stephen Hensley
  14:../libDaisy/src/hid/encoder.h ****     @date December 2019
  15:../libDaisy/src/hid/encoder.h ****     @ingroup controls
  16:../libDaisy/src/hid/encoder.h **** */
  17:../libDaisy/src/hid/encoder.h **** class Encoder
  18:../libDaisy/src/hid/encoder.h **** {
  19:../libDaisy/src/hid/encoder.h ****   public:
  20:../libDaisy/src/hid/encoder.h ****     Encoder() {}
  21:../libDaisy/src/hid/encoder.h ****     ~Encoder() {}
  22:../libDaisy/src/hid/encoder.h **** 
  23:../libDaisy/src/hid/encoder.h ****     /** Initializes the encoder with the specified hardware pins.
  24:../libDaisy/src/hid/encoder.h ****      * Update rate is to be deprecated in a future release
  25:../libDaisy/src/hid/encoder.h ****      */
  26:../libDaisy/src/hid/encoder.h ****     void Init(dsy_gpio_pin a,
  27:../libDaisy/src/hid/encoder.h ****               dsy_gpio_pin b,
  28:../libDaisy/src/hid/encoder.h ****               dsy_gpio_pin click,
  29:../libDaisy/src/hid/encoder.h ****               float        update_rate = 0.f);
  30:../libDaisy/src/hid/encoder.h ****     /** Called at update_rate to debounce and handle timing for the switch.
  31:../libDaisy/src/hid/encoder.h ****      * In order for events not to be missed, its important that the Edge/Pressed checks be made at 
  32:../libDaisy/src/hid/encoder.h ****      */
  33:../libDaisy/src/hid/encoder.h ****     void Debounce();
  34:../libDaisy/src/hid/encoder.h **** 
  35:../libDaisy/src/hid/encoder.h ****     /** Returns +1 if the encoder was turned clockwise, -1 if it was turned counter-clockwise, or 0
  36:../libDaisy/src/hid/encoder.h ****     inline int32_t Increment() const { return updated_ ? inc_ : 0; }
 273              		.loc 2 36 20 is_stmt 1 view .LVU59
 274              	.LBB32:
 275              		.loc 2 36 40 view .LVU60
 276              		.loc 2 36 56 is_stmt 0 view .LVU61
 277 0002 93F84400 		ldrb	r0, [r3, #68]	@ zero_extendqisi2
 278              	.LVL11:
 279              		.loc 2 36 56 view .LVU62
 280 0006 00B1     		cbz	r0, .L23
 281 0008 586E     		ldr	r0, [r3, #100]
 282              	.L23:
 283              	.LBE32:
 284              	.LBE31:
 171:UIManager.cpp **** }
 285              		.loc 1 171 1 view .LVU63
 286 000a 7047     		bx	lr
 287              		.cfi_endproc
 288              	.LFE2588:
 290              		.section	.text._ZN9UIManager14EncoderPressedEv,"ax",%progbits
 291              		.align	1
 292              		.global	_ZN9UIManager14EncoderPressedEv
 293              		.syntax unified
 294              		.thumb
 295              		.thumb_func
 297              	_ZN9UIManager14EncoderPressedEv:
ARM GAS  /var/folders/2p/02m_5p7958535cp2tpgps0400000gn/T//ccXYOr1x.s 			page 10


 298              	.LVL12:
 299              	.LFB2589:
 172:UIManager.cpp **** 
 173:UIManager.cpp **** bool UIManager::EncoderPressed(){
 300              		.loc 1 173 33 is_stmt 1 view -0
 301              		.cfi_startproc
 302              		@ args = 0, pretend = 0, frame = 0
 303              		@ frame_needed = 0, uses_anonymous_args = 0
 304              		@ link register save eliminated.
 174:UIManager.cpp ****   return pod_.encoder.FallingEdge();
 305              		.loc 1 174 3 view .LVU65
 306              		.loc 1 174 10 is_stmt 0 view .LVU66
 307 0000 0368     		ldr	r3, [r0]
 308              	.LVL13:
 309              	.LBB37:
 310              	.LBI37:
  37:../libDaisy/src/hid/encoder.h **** 
  38:../libDaisy/src/hid/encoder.h ****     /** Returns true if the encoder was just pressed. */
  39:../libDaisy/src/hid/encoder.h ****     inline bool RisingEdge() const { return sw_.RisingEdge(); }
  40:../libDaisy/src/hid/encoder.h **** 
  41:../libDaisy/src/hid/encoder.h ****     /** Returns true if the encoder was just released. */
  42:../libDaisy/src/hid/encoder.h ****     inline bool FallingEdge() const { return sw_.FallingEdge(); }
 311              		.loc 2 42 17 is_stmt 1 view .LVU67
 312              	.LBE37:
 313              		.loc 2 42 39 view .LVU68
 314              	.LBB40:
 315              	.LBB38:
 316              	.LBI38:
 317              		.file 3 "../libDaisy/src/hid/switch.h"
   1:../libDaisy/src/hid/switch.h **** #pragma once
   2:../libDaisy/src/hid/switch.h **** #ifndef DSY_SWITCH_H
   3:../libDaisy/src/hid/switch.h **** #define DSY_SWITCH_H
   4:../libDaisy/src/hid/switch.h **** #include "daisy_core.h"
   5:../libDaisy/src/hid/switch.h **** #include "per/gpio.h"
   6:../libDaisy/src/hid/switch.h **** #include "sys/system.h"
   7:../libDaisy/src/hid/switch.h **** 
   8:../libDaisy/src/hid/switch.h **** namespace daisy
   9:../libDaisy/src/hid/switch.h **** {
  10:../libDaisy/src/hid/switch.h **** /** 
  11:../libDaisy/src/hid/switch.h ****     Generic Class for handling momentary/latching switches \n 
  12:../libDaisy/src/hid/switch.h ****     Inspired/influenced by Mutable Instruments (pichenettes) Switch classes
  13:../libDaisy/src/hid/switch.h ****     @author Stephen Hensley
  14:../libDaisy/src/hid/switch.h ****     @date December 2019
  15:../libDaisy/src/hid/switch.h ****     @ingroup controls
  16:../libDaisy/src/hid/switch.h **** */
  17:../libDaisy/src/hid/switch.h **** class Switch
  18:../libDaisy/src/hid/switch.h **** {
  19:../libDaisy/src/hid/switch.h ****   public:
  20:../libDaisy/src/hid/switch.h ****     /** Specifies the expected behavior of the switch */
  21:../libDaisy/src/hid/switch.h ****     enum Type
  22:../libDaisy/src/hid/switch.h ****     {
  23:../libDaisy/src/hid/switch.h ****         TYPE_TOGGLE,    /**< & */
  24:../libDaisy/src/hid/switch.h ****         TYPE_MOMENTARY, /**< & */
  25:../libDaisy/src/hid/switch.h ****     };
  26:../libDaisy/src/hid/switch.h ****     /** Specifies whether the pressed is HIGH or LOW. */
  27:../libDaisy/src/hid/switch.h ****     enum Polarity
  28:../libDaisy/src/hid/switch.h ****     {
ARM GAS  /var/folders/2p/02m_5p7958535cp2tpgps0400000gn/T//ccXYOr1x.s 			page 11


  29:../libDaisy/src/hid/switch.h ****         POLARITY_NORMAL,   /**< & */
  30:../libDaisy/src/hid/switch.h ****         POLARITY_INVERTED, /**< & */
  31:../libDaisy/src/hid/switch.h ****     };
  32:../libDaisy/src/hid/switch.h **** 
  33:../libDaisy/src/hid/switch.h ****     /** Specifies whether to use built-in Pull Up/Down resistors to hold button at a given state wh
  34:../libDaisy/src/hid/switch.h ****     enum Pull
  35:../libDaisy/src/hid/switch.h ****     {
  36:../libDaisy/src/hid/switch.h ****         PULL_UP,   /**< & */
  37:../libDaisy/src/hid/switch.h ****         PULL_DOWN, /**< & */
  38:../libDaisy/src/hid/switch.h ****         PULL_NONE, /**< & */
  39:../libDaisy/src/hid/switch.h ****     };
  40:../libDaisy/src/hid/switch.h **** 
  41:../libDaisy/src/hid/switch.h ****     Switch() {}
  42:../libDaisy/src/hid/switch.h ****     ~Switch() {}
  43:../libDaisy/src/hid/switch.h **** 
  44:../libDaisy/src/hid/switch.h ****     /** 
  45:../libDaisy/src/hid/switch.h ****     Initializes the switch object with a given port/pin combo.
  46:../libDaisy/src/hid/switch.h ****     \param pin port/pin object to tell the switch which hardware pin to use.
  47:../libDaisy/src/hid/switch.h ****     \param update_rate Does nothing. Backwards compatibility until next breaking update.
  48:../libDaisy/src/hid/switch.h ****     \param t switch type -- Default: TYPE_MOMENTARY
  49:../libDaisy/src/hid/switch.h ****     \param pol switch polarity -- Default: POLARITY_INVERTED
  50:../libDaisy/src/hid/switch.h ****     \param pu switch pull up/down -- Default: PULL_UP
  51:../libDaisy/src/hid/switch.h ****     */
  52:../libDaisy/src/hid/switch.h ****     void
  53:../libDaisy/src/hid/switch.h ****     Init(dsy_gpio_pin pin, float update_rate, Type t, Polarity pol, Pull pu);
  54:../libDaisy/src/hid/switch.h **** 
  55:../libDaisy/src/hid/switch.h ****     /**
  56:../libDaisy/src/hid/switch.h ****        Simplified Init.
  57:../libDaisy/src/hid/switch.h ****        \param pin port/pin object to tell the switch which hardware pin to use.
  58:../libDaisy/src/hid/switch.h ****        \param update_rate Left for backwards compatibility until next breaking change.
  59:../libDaisy/src/hid/switch.h ****     */
  60:../libDaisy/src/hid/switch.h ****     void Init(dsy_gpio_pin pin, float update_rate = 0.f);
  61:../libDaisy/src/hid/switch.h **** 
  62:../libDaisy/src/hid/switch.h ****     /** 
  63:../libDaisy/src/hid/switch.h ****     Called at update_rate to debounce and handle timing for the switch.
  64:../libDaisy/src/hid/switch.h ****     In order for events not to be missed, its important that the Edge/Pressed checks
  65:../libDaisy/src/hid/switch.h ****     be made at the same rate as the debounce function is being called.
  66:../libDaisy/src/hid/switch.h ****     */
  67:../libDaisy/src/hid/switch.h ****     void Debounce();
  68:../libDaisy/src/hid/switch.h **** 
  69:../libDaisy/src/hid/switch.h ****     /** \return true if a button was just pressed. */
  70:../libDaisy/src/hid/switch.h ****     inline bool RisingEdge() const { return updated_ ? state_ == 0x7f : false; }
  71:../libDaisy/src/hid/switch.h **** 
  72:../libDaisy/src/hid/switch.h ****     /** \return true if the button was just released */
  73:../libDaisy/src/hid/switch.h ****     inline bool FallingEdge() const
 318              		.loc 3 73 17 view .LVU69
 319              	.LBB39:
  74:../libDaisy/src/hid/switch.h ****     {
  75:../libDaisy/src/hid/switch.h ****         return updated_ ? state_ == 0x80 : false;
 320              		.loc 3 75 9 view .LVU70
 321              		.loc 3 75 16 is_stmt 0 view .LVU71
 322 0002 93F84C00 		ldrb	r0, [r3, #76]	@ zero_extendqisi2
 323              	.LVL14:
 324              		.loc 3 75 25 view .LVU72
 325 0006 28B1     		cbz	r0, .L27
 326 0008 93F85200 		ldrb	r0, [r3, #82]	@ zero_extendqisi2
 327 000c A0F18003 		sub	r3, r0, #128
ARM GAS  /var/folders/2p/02m_5p7958535cp2tpgps0400000gn/T//ccXYOr1x.s 			page 12


 328              	.LVL15:
 329              		.loc 3 75 25 view .LVU73
 330 0010 5842     		rsbs	r0, r3, #0
 331 0012 5841     		adcs	r0, r0, r3
 332              	.L27:
 333              	.LVL16:
 334              		.loc 3 75 25 view .LVU74
 335              	.LBE39:
 336              	.LBE38:
 337              	.LBE40:
 175:UIManager.cpp **** }
 338              		.loc 1 175 1 view .LVU75
 339 0014 7047     		bx	lr
 340              		.cfi_endproc
 341              	.LFE2589:
 343              		.section	.text._ZN9UIManager16EncoderLongPressEv,"ax",%progbits
 344              		.align	1
 345              		.global	_ZN9UIManager16EncoderLongPressEv
 346              		.syntax unified
 347              		.thumb
 348              		.thumb_func
 350              	_ZN9UIManager16EncoderLongPressEv:
 351              	.LVL17:
 352              	.LFB2590:
 176:UIManager.cpp **** 
 177:UIManager.cpp **** bool UIManager::EncoderLongPress(){
 353              		.loc 1 177 35 is_stmt 1 view -0
 354              		.cfi_startproc
 355              		@ args = 0, pretend = 0, frame = 0
 356              		@ frame_needed = 0, uses_anonymous_args = 0
 178:UIManager.cpp ****   return pod_.encoder.TimeHeldMs() > 1000.0f;
 357              		.loc 1 178 3 view .LVU77
 177:UIManager.cpp ****   return pod_.encoder.TimeHeldMs() > 1000.0f;
 358              		.loc 1 177 35 is_stmt 0 view .LVU78
 359 0000 10B5     		push	{r4, lr}
 360              		.cfi_def_cfa_offset 8
 361              		.cfi_offset 4, -8
 362              		.cfi_offset 14, -4
 363              		.loc 1 178 10 view .LVU79
 364 0002 0468     		ldr	r4, [r0]
 365              	.LVL18:
 366              	.LBB51:
 367              	.LBI51:
  43:../libDaisy/src/hid/encoder.h **** 
  44:../libDaisy/src/hid/encoder.h ****     /** Returns true while the encoder is held down.*/
  45:../libDaisy/src/hid/encoder.h ****     inline bool Pressed() const { return sw_.Pressed(); }
  46:../libDaisy/src/hid/encoder.h **** 
  47:../libDaisy/src/hid/encoder.h ****     /** Returns the time in milliseconds that the encoder has been held down. */
  48:../libDaisy/src/hid/encoder.h ****     inline float TimeHeldMs() const { return sw_.TimeHeldMs(); }
 368              		.loc 2 48 18 is_stmt 1 view .LVU80
 369              	.LBE51:
 370              		.loc 2 48 39 view .LVU81
 371              	.LBB60:
 372              	.LBB52:
 373              	.LBI52:
  76:../libDaisy/src/hid/switch.h ****     }
  77:../libDaisy/src/hid/switch.h **** 
ARM GAS  /var/folders/2p/02m_5p7958535cp2tpgps0400000gn/T//ccXYOr1x.s 			page 13


  78:../libDaisy/src/hid/switch.h ****     /** \return true if the button is held down (or if the toggle is on) */
  79:../libDaisy/src/hid/switch.h ****     inline bool Pressed() const { return state_ == 0xff; }
  80:../libDaisy/src/hid/switch.h **** 
  81:../libDaisy/src/hid/switch.h ****     /** \return true if the button is held down, without debouncing */
  82:../libDaisy/src/hid/switch.h ****     inline bool RawState()
  83:../libDaisy/src/hid/switch.h ****     {
  84:../libDaisy/src/hid/switch.h ****         return flip_ ? !dsy_gpio_read(&hw_gpio_) : dsy_gpio_read(&hw_gpio_);
  85:../libDaisy/src/hid/switch.h ****     }
  86:../libDaisy/src/hid/switch.h **** 
  87:../libDaisy/src/hid/switch.h ****     /** \return the time in milliseconds that the button has been held (or toggle has been on) */
  88:../libDaisy/src/hid/switch.h ****     inline float TimeHeldMs() const
 374              		.loc 3 88 18 view .LVU82
 375              	.LBB53:
  89:../libDaisy/src/hid/switch.h ****     {
  90:../libDaisy/src/hid/switch.h ****         return Pressed() ? System::GetNow() - rising_edge_time_ : 0;
 376              		.loc 3 90 9 view .LVU83
 377              	.LBB54:
 378              	.LBI54:
  79:../libDaisy/src/hid/switch.h **** 
 379              		.loc 3 79 17 view .LVU84
 380              	.LBB55:
  79:../libDaisy/src/hid/switch.h **** 
 381              		.loc 3 79 35 view .LVU85
  79:../libDaisy/src/hid/switch.h **** 
 382              		.loc 3 79 35 is_stmt 0 view .LVU86
 383              	.LBE55:
 384              	.LBE54:
 385              		.loc 3 90 26 view .LVU87
 386 0004 94F85230 		ldrb	r3, [r4, #82]	@ zero_extendqisi2
 387 0008 FF2B     		cmp	r3, #255
 388 000a 13D1     		bne	.L33
 389              	.LVL19:
 390              	.LBB56:
 391              	.LBI56:
  88:../libDaisy/src/hid/switch.h ****     {
 392              		.loc 3 88 18 is_stmt 1 view .LVU88
 393              	.LBB57:
 394              		.loc 3 90 42 is_stmt 0 view .LVU89
 395 000c FFF7FEFF 		bl	_ZN5daisy6System6GetNowEv
 396              	.LVL20:
 397              		.loc 3 90 45 view .LVU90
 398 0010 07EE900A 		vmov	s15, r0	@ int
 399              		.loc 3 90 26 view .LVU91
 400 0014 94ED157A 		vldr.32	s14, [r4, #84]
 401              		.loc 3 90 45 view .LVU92
 402 0018 F8EE677A 		vcvt.f32.u32	s15, s15
 403              		.loc 3 90 26 view .LVU93
 404 001c 77EEC77A 		vsub.f32	s15, s15, s14
 405              	.LVL21:
 406              	.L32:
 407              		.loc 3 90 26 view .LVU94
 408              	.LBE57:
 409              	.LBE56:
 410              	.LBE53:
 411              	.LBE52:
 412              	.LBE60:
 413              		.loc 1 178 38 view .LVU95
ARM GAS  /var/folders/2p/02m_5p7958535cp2tpgps0400000gn/T//ccXYOr1x.s 			page 14


 414 0020 9FED067A 		vldr.32	s14, .L34
 415 0024 F4EEC77A 		vcmpe.f32	s15, s14
 416 0028 F1EE10FA 		vmrs	APSR_nzcv, FPSCR
 179:UIManager.cpp **** }
 417              		.loc 1 179 1 view .LVU96
 418 002c CCBF     		ite	gt
 419 002e 0120     		movgt	r0, #1
 420 0030 0020     		movle	r0, #0
 421 0032 10BD     		pop	{r4, pc}
 422              	.LVL22:
 423              	.L33:
 424              	.LBB61:
 425              	.LBB59:
 426              	.LBB58:
 427              		.loc 3 90 26 view .LVU97
 428 0034 DFED027A 		vldr.32	s15, .L34+4
 429 0038 F2E7     		b	.L32
 430              	.L35:
 431 003a 00BF     		.align	2
 432              	.L34:
 433 003c 00007A44 		.word	1148846080
 434 0040 00000000 		.word	0
 435              	.LBE58:
 436              	.LBE59:
 437              	.LBE61:
 438              		.cfi_endproc
 439              	.LFE2590:
 441              		.section	.text._ZN9UIManager14Button1PressedEv,"ax",%progbits
 442              		.align	1
 443              		.global	_ZN9UIManager14Button1PressedEv
 444              		.syntax unified
 445              		.thumb
 446              		.thumb_func
 448              	_ZN9UIManager14Button1PressedEv:
 449              	.LVL23:
 450              	.LFB2591:
 180:UIManager.cpp **** 
 181:UIManager.cpp **** bool UIManager::Button1Pressed(){
 451              		.loc 1 181 33 is_stmt 1 view -0
 452              		.cfi_startproc
 453              		@ args = 0, pretend = 0, frame = 0
 454              		@ frame_needed = 0, uses_anonymous_args = 0
 455              		@ link register save eliminated.
 182:UIManager.cpp ****   return pod_.button1.FallingEdge();
 456              		.loc 1 182 3 view .LVU99
 457              		.loc 1 182 10 is_stmt 0 view .LVU100
 458 0000 0368     		ldr	r3, [r0]
 459              	.LVL24:
 460              	.LBB64:
 461              	.LBI64:
  73:../libDaisy/src/hid/switch.h ****     {
 462              		.loc 3 73 17 is_stmt 1 view .LVU101
 463              	.LBB65:
  75:../libDaisy/src/hid/switch.h ****     }
 464              		.loc 3 75 9 view .LVU102
  75:../libDaisy/src/hid/switch.h ****     }
 465              		.loc 3 75 16 is_stmt 0 view .LVU103
ARM GAS  /var/folders/2p/02m_5p7958535cp2tpgps0400000gn/T//ccXYOr1x.s 			page 15


 466 0002 93F8B400 		ldrb	r0, [r3, #180]	@ zero_extendqisi2
 467              	.LVL25:
  75:../libDaisy/src/hid/switch.h ****     }
 468              		.loc 3 75 25 view .LVU104
 469 0006 28B1     		cbz	r0, .L37
 470 0008 93F8BA00 		ldrb	r0, [r3, #186]	@ zero_extendqisi2
 471 000c A0F18003 		sub	r3, r0, #128
 472              	.LVL26:
  75:../libDaisy/src/hid/switch.h ****     }
 473              		.loc 3 75 25 view .LVU105
 474 0010 5842     		rsbs	r0, r3, #0
 475 0012 5841     		adcs	r0, r0, r3
 476              	.L37:
 477              	.LVL27:
  75:../libDaisy/src/hid/switch.h ****     }
 478              		.loc 3 75 25 view .LVU106
 479              	.LBE65:
 480              	.LBE64:
 183:UIManager.cpp **** }
 481              		.loc 1 183 1 view .LVU107
 482 0014 7047     		bx	lr
 483              		.cfi_endproc
 484              	.LFE2591:
 486              		.section	.text._ZN9UIManager14Button2PressedEv,"ax",%progbits
 487              		.align	1
 488              		.global	_ZN9UIManager14Button2PressedEv
 489              		.syntax unified
 490              		.thumb
 491              		.thumb_func
 493              	_ZN9UIManager14Button2PressedEv:
 494              	.LVL28:
 495              	.LFB2592:
 184:UIManager.cpp **** 
 185:UIManager.cpp **** bool UIManager::Button2Pressed(){
 496              		.loc 1 185 33 is_stmt 1 view -0
 497              		.cfi_startproc
 498              		@ args = 0, pretend = 0, frame = 0
 499              		@ frame_needed = 0, uses_anonymous_args = 0
 500              		@ link register save eliminated.
 186:UIManager.cpp ****   return pod_.button2.FallingEdge();
 501              		.loc 1 186 3 view .LVU109
 502              		.loc 1 186 10 is_stmt 0 view .LVU110
 503 0000 0368     		ldr	r3, [r0]
 504              	.LVL29:
 505              	.LBB68:
 506              	.LBI68:
  73:../libDaisy/src/hid/switch.h ****     {
 507              		.loc 3 73 17 is_stmt 1 view .LVU111
 508              	.LBB69:
  75:../libDaisy/src/hid/switch.h ****     }
 509              		.loc 3 75 9 view .LVU112
  75:../libDaisy/src/hid/switch.h ****     }
 510              		.loc 3 75 16 is_stmt 0 view .LVU113
 511 0002 93F8C400 		ldrb	r0, [r3, #196]	@ zero_extendqisi2
 512              	.LVL30:
  75:../libDaisy/src/hid/switch.h ****     }
 513              		.loc 3 75 25 view .LVU114
ARM GAS  /var/folders/2p/02m_5p7958535cp2tpgps0400000gn/T//ccXYOr1x.s 			page 16


 514 0006 28B1     		cbz	r0, .L42
 515 0008 93F8CA00 		ldrb	r0, [r3, #202]	@ zero_extendqisi2
 516 000c A0F18003 		sub	r3, r0, #128
 517              	.LVL31:
  75:../libDaisy/src/hid/switch.h ****     }
 518              		.loc 3 75 25 view .LVU115
 519 0010 5842     		rsbs	r0, r3, #0
 520 0012 5841     		adcs	r0, r0, r3
 521              	.L42:
 522              	.LVL32:
  75:../libDaisy/src/hid/switch.h ****     }
 523              		.loc 3 75 25 view .LVU116
 524              	.LBE69:
 525              	.LBE68:
 187:UIManager.cpp **** }
 526              		.loc 1 187 1 view .LVU117
 527 0014 7047     		bx	lr
 528              		.cfi_endproc
 529              	.LFE2592:
 531              		.section	.text._ZN9UIManager16Button2LongPressEv,"ax",%progbits
 532              		.align	1
 533              		.global	_ZN9UIManager16Button2LongPressEv
 534              		.syntax unified
 535              		.thumb
 536              		.thumb_func
 538              	_ZN9UIManager16Button2LongPressEv:
 539              	.LVL33:
 540              	.LFB2593:
 188:UIManager.cpp **** 
 189:UIManager.cpp **** bool UIManager::Button2LongPress(){
 541              		.loc 1 189 35 is_stmt 1 view -0
 542              		.cfi_startproc
 543              		@ args = 0, pretend = 0, frame = 0
 544              		@ frame_needed = 0, uses_anonymous_args = 0
 190:UIManager.cpp ****   return pod_.button2.TimeHeldMs() > 1000.0f;
 545              		.loc 1 190 3 view .LVU119
 189:UIManager.cpp ****   return pod_.button2.TimeHeldMs() > 1000.0f;
 546              		.loc 1 189 35 is_stmt 0 view .LVU120
 547 0000 10B5     		push	{r4, lr}
 548              		.cfi_def_cfa_offset 8
 549              		.cfi_offset 4, -8
 550              		.cfi_offset 14, -4
 551              		.loc 1 190 10 view .LVU121
 552 0002 0468     		ldr	r4, [r0]
 553              	.LVL34:
 554              	.LBB78:
 555              	.LBI78:
  88:../libDaisy/src/hid/switch.h ****     {
 556              		.loc 3 88 18 is_stmt 1 view .LVU122
 557              	.LBB79:
 558              		.loc 3 90 9 view .LVU123
 559              	.LBB80:
 560              	.LBI80:
  79:../libDaisy/src/hid/switch.h **** 
 561              		.loc 3 79 17 view .LVU124
 562              	.LBB81:
  79:../libDaisy/src/hid/switch.h **** 
ARM GAS  /var/folders/2p/02m_5p7958535cp2tpgps0400000gn/T//ccXYOr1x.s 			page 17


 563              		.loc 3 79 35 view .LVU125
  79:../libDaisy/src/hid/switch.h **** 
 564              		.loc 3 79 35 is_stmt 0 view .LVU126
 565              	.LBE81:
 566              	.LBE80:
 567              		.loc 3 90 26 view .LVU127
 568 0004 94F8CA30 		ldrb	r3, [r4, #202]	@ zero_extendqisi2
 569 0008 FF2B     		cmp	r3, #255
 570 000a 13D1     		bne	.L48
 571              	.LVL35:
 572              	.LBB82:
 573              	.LBI82:
  88:../libDaisy/src/hid/switch.h ****     {
 574              		.loc 3 88 18 is_stmt 1 view .LVU128
 575              	.LBB83:
 576              		.loc 3 90 42 is_stmt 0 view .LVU129
 577 000c FFF7FEFF 		bl	_ZN5daisy6System6GetNowEv
 578              	.LVL36:
 579              		.loc 3 90 45 view .LVU130
 580 0010 07EE900A 		vmov	s15, r0	@ int
 581              		.loc 3 90 26 view .LVU131
 582 0014 94ED337A 		vldr.32	s14, [r4, #204]
 583              		.loc 3 90 45 view .LVU132
 584 0018 F8EE677A 		vcvt.f32.u32	s15, s15
 585              		.loc 3 90 26 view .LVU133
 586 001c 77EEC77A 		vsub.f32	s15, s15, s14
 587              	.LVL37:
 588              	.L47:
 589              		.loc 3 90 26 view .LVU134
 590              	.LBE83:
 591              	.LBE82:
 592              	.LBE79:
 593              	.LBE78:
 594              		.loc 1 190 38 view .LVU135
 595 0020 9FED067A 		vldr.32	s14, .L49
 596 0024 F4EEC77A 		vcmpe.f32	s15, s14
 597 0028 F1EE10FA 		vmrs	APSR_nzcv, FPSCR
 191:UIManager.cpp **** }
 598              		.loc 1 191 1 view .LVU136
 599 002c CCBF     		ite	gt
 600 002e 0120     		movgt	r0, #1
 601 0030 0020     		movle	r0, #0
 602 0032 10BD     		pop	{r4, pc}
 603              	.LVL38:
 604              	.L48:
 605              	.LBB85:
 606              	.LBB84:
 607              		.loc 3 90 26 view .LVU137
 608 0034 DFED027A 		vldr.32	s15, .L49+4
 609 0038 F2E7     		b	.L47
 610              	.L50:
 611 003a 00BF     		.align	2
 612              	.L49:
 613 003c 00007A44 		.word	1148846080
 614 0040 00000000 		.word	0
 615              	.LBE84:
 616              	.LBE85:
ARM GAS  /var/folders/2p/02m_5p7958535cp2tpgps0400000gn/T//ccXYOr1x.s 			page 18


 617              		.cfi_endproc
 618              	.LFE2593:
 620              		.section	.text._ZN9UIManager15MapKnobDeadzoneEf,"ax",%progbits
 621              		.align	1
 622              		.global	_ZN9UIManager15MapKnobDeadzoneEf
 623              		.syntax unified
 624              		.thumb
 625              		.thumb_func
 627              	_ZN9UIManager15MapKnobDeadzoneEf:
 628              	.LVL39:
 629              	.LFB2594:
 192:UIManager.cpp **** 
 193:UIManager.cpp **** float UIManager::MapKnobDeadzone(float knob_val ){
 630              		.loc 1 193 50 is_stmt 1 view -0
 631              		.cfi_startproc
 632              		@ args = 0, pretend = 0, frame = 0
 633              		@ frame_needed = 0, uses_anonymous_args = 0
 634              		@ link register save eliminated.
 194:UIManager.cpp ****   if (knob_val<=0.01f) return 0.0f;
 635              		.loc 1 194 3 view .LVU139
 636 0000 DFED0A7A 		vldr.32	s15, .L56
 637 0004 B4EEE70A 		vcmpe.f32	s0, s15
 638 0008 F1EE10FA 		vmrs	APSR_nzcv, FPSCR
 639 000c 0AD9     		bls	.L54
 195:UIManager.cpp ****   if (knob_val>=0.99f) return 1.0f;
 640              		.loc 1 195 3 view .LVU140
 641              		.loc 1 195 31 is_stmt 0 view .LVU141
 642 000e DFED087A 		vldr.32	s15, .L56+4
 643 0012 B4EE670A 		vcmp.f32	s0, s15
 644 0016 F7EE007A 		vmov.f32	s15, #1.0e+0
 645 001a F1EE10FA 		vmrs	APSR_nzcv, FPSCR
 646 001e 27FE800A 		vselge.f32	s0, s15, s0
 647              	.LVL40:
 648              		.loc 1 195 31 view .LVU142
 649 0022 7047     		bx	lr
 650              	.LVL41:
 651              	.L54:
 194:UIManager.cpp ****   if (knob_val<=0.01f) return 0.0f;
 652              		.loc 1 194 31 view .LVU143
 653 0024 9FED030A 		vldr.32	s0, .L56+8
 654              	.LVL42:
 196:UIManager.cpp ****   return knob_val;
 197:UIManager.cpp **** }
 655              		.loc 1 197 1 view .LVU144
 656 0028 7047     		bx	lr
 657              	.L57:
 658 002a 00BF     		.align	2
 659              	.L56:
 660 002c 0AD7233C 		.word	1008981770
 661 0030 A4707D3F 		.word	1065185444
 662 0034 00000000 		.word	0
 663              		.cfi_endproc
 664              	.LFE2594:
 666              		.section	.text._ZN9UIManager18UpdateKnobPassThruEfPfPb,"ax",%progbits
 667              		.align	1
 668              		.global	_ZN9UIManager18UpdateKnobPassThruEfPfPb
 669              		.syntax unified
ARM GAS  /var/folders/2p/02m_5p7958535cp2tpgps0400000gn/T//ccXYOr1x.s 			page 19


 670              		.thumb
 671              		.thumb_func
 673              	_ZN9UIManager18UpdateKnobPassThruEfPfPb:
 674              	.LVL43:
 675              	.LFB2595:
 198:UIManager.cpp **** 
 199:UIManager.cpp **** /* here we check if the current value of the knob has moved through the last stored value 
 200:UIManager.cpp ****   before the synth mode changed, and only update the parameter once the current knob value
 201:UIManager.cpp ****   'passes through' the stored value - meaning if we set grain size to 0.1 then switch modes 
 202:UIManager.cpp ****   and move the knob to 0.8, if we switch back, grain size won't be updated again until the 
 203:UIManager.cpp ****   knob passes through this value.  */
 204:UIManager.cpp **** 
 205:UIManager.cpp **** float UIManager::UpdateKnobPassThru(float curr_knob_val, float *stored_knob_val, bool *pass_thru){
 676              		.loc 1 205 98 is_stmt 1 view -0
 677              		.cfi_startproc
 678              		@ args = 0, pretend = 0, frame = 0
 679              		@ frame_needed = 0, uses_anonymous_args = 0
 680              		@ link register save eliminated.
 206:UIManager.cpp ****   if (!(*pass_thru)){
 681              		.loc 1 206 3 view .LVU146
 682 0000 1378     		ldrb	r3, [r2]	@ zero_extendqisi2
 683 0002 4BB9     		cbnz	r3, .L59
 207:UIManager.cpp ****     if (curr_knob_val >= (*stored_knob_val) || curr_knob_val <= (*stored_knob_val)) {
 684              		.loc 1 207 5 view .LVU147
 685              		.loc 1 207 27 is_stmt 0 view .LVU148
 686 0004 D1ED007A 		vldr.32	s15, [r1]
 687              		.loc 1 207 5 view .LVU149
 688 0008 F4EEC07A 		vcmpe.f32	s15, s0
 689 000c F1EE10FA 		vmrs	APSR_nzcv, FPSCR
 690 0010 00D9     		bls	.L60
 691              		.loc 1 207 45 discriminator 1 view .LVU150
 692 0012 05DB     		blt	.L58
 693              	.L60:
 208:UIManager.cpp ****       (*pass_thru) = true;
 694              		.loc 1 208 7 is_stmt 1 view .LVU151
 695              		.loc 1 208 20 is_stmt 0 view .LVU152
 696 0014 0123     		movs	r3, #1
 697 0016 1370     		strb	r3, [r2]
 698              	.L59:
 209:UIManager.cpp ****     }
 210:UIManager.cpp **** } 
 211:UIManager.cpp ****   if (*pass_thru){
 699              		.loc 1 211 3 is_stmt 1 view .LVU153
 212:UIManager.cpp ****     (*stored_knob_val) = curr_knob_val;
 700              		.loc 1 212 5 view .LVU154
 213:UIManager.cpp ****     return curr_knob_val;
 701              		.loc 1 213 12 is_stmt 0 view .LVU155
 702 0018 F0EE407A 		vmov.f32	s15, s0
 212:UIManager.cpp ****     (*stored_knob_val) = curr_knob_val;
 703              		.loc 1 212 24 view .LVU156
 704 001c 81ED000A 		vstr.32	s0, [r1]
 705              		.loc 1 213 5 is_stmt 1 view .LVU157
 706              	.L58:
 214:UIManager.cpp ****   }
 215:UIManager.cpp ****   return (*stored_knob_val);
 216:UIManager.cpp **** }
 707              		.loc 1 216 1 is_stmt 0 view .LVU158
ARM GAS  /var/folders/2p/02m_5p7958535cp2tpgps0400000gn/T//ccXYOr1x.s 			page 20


 708 0020 B0EE670A 		vmov.f32	s0, s15
 709              	.LVL44:
 710              		.loc 1 216 1 view .LVU159
 711 0024 7047     		bx	lr
 712              		.cfi_endproc
 713              	.LFE2595:
 715              		.section	.text._ZN9UIManager11UpdateKnobsEv,"ax",%progbits
 716              		.align	1
 717              		.global	_ZN9UIManager11UpdateKnobsEv
 718              		.syntax unified
 719              		.thumb
 720              		.thumb_func
 722              	_ZN9UIManager11UpdateKnobsEv:
 723              	.LVL45:
 724              	.LFB2579:
  20:UIManager.cpp ****   // NOTE: need to add stuff for chord mode here! 
 725              		.loc 1 20 30 is_stmt 1 view -0
 726              		.cfi_startproc
 727              		@ args = 0, pretend = 0, frame = 0
 728              		@ frame_needed = 0, uses_anonymous_args = 0
  22:UIManager.cpp ****     int mode_idx = static_cast<int>(synth_mode_);
 729              		.loc 1 22 3 view .LVU161
 730              	.LBB95:
 731 0000 4368     		ldr	r3, [r0, #4]
 732 0002 032B     		cmp	r3, #3
 733              	.LBE95:
  20:UIManager.cpp ****   // NOTE: need to add stuff for chord mode here! 
 734              		.loc 1 20 30 is_stmt 0 view .LVU162
 735 0004 70B5     		push	{r4, r5, r6, lr}
 736              		.cfi_def_cfa_offset 16
 737              		.cfi_offset 4, -16
 738              		.cfi_offset 5, -12
 739              		.cfi_offset 6, -8
 740              		.cfi_offset 14, -4
 741 0006 0446     		mov	r4, r0
 742 0008 2DED028B 		vpush.64	{d8}
 743              		.cfi_def_cfa_offset 24
 744              		.cfi_offset 80, -24
 745              		.cfi_offset 81, -20
 746              	.LBB96:
  22:UIManager.cpp ****     int mode_idx = static_cast<int>(synth_mode_);
 747              		.loc 1 22 3 view .LVU163
 748 000c 45D1     		bne	.L63
 749              	.LVL46:
  22:UIManager.cpp ****     int mode_idx = static_cast<int>(synth_mode_);
 750              		.loc 1 22 3 view .LVU164
 751              	.LBE96:
 752              	.LBB97:
 753              	.LBI97:
  20:UIManager.cpp ****   // NOTE: need to add stuff for chord mode here! 
 754              		.loc 1 20 6 is_stmt 1 view .LVU165
 755              	.LBB98:
 756              	.LBB99:
  23:UIManager.cpp ****     float k1v = MapKnobDeadzone(pod_.knob1.Process());
 757              		.loc 1 23 5 view .LVU166
  23:UIManager.cpp ****     float k1v = MapKnobDeadzone(pod_.knob1.Process());
 758              		.loc 1 23 9 is_stmt 0 view .LVU167
ARM GAS  /var/folders/2p/02m_5p7958535cp2tpgps0400000gn/T//ccXYOr1x.s 			page 21


 759 000e 8568     		ldr	r5, [r0, #8]
 760              	.LVL47:
  24:UIManager.cpp ****     float k2v = MapKnobDeadzone(pod_.knob2.Process());
 761              		.loc 1 24 5 is_stmt 1 view .LVU168
  24:UIManager.cpp ****     float k2v = MapKnobDeadzone(pod_.knob2.Process());
 762              		.loc 1 24 32 is_stmt 0 view .LVU169
 763 0010 0068     		ldr	r0, [r0]
 764              	.LVL48:
 765              	.LBB100:
 766              	.LBB101:
 194:UIManager.cpp ****   if (knob_val>=0.99f) return 1.0f;
 767              		.loc 1 194 3 view .LVU170
 768 0012 DFED268A 		vldr.32	s17, .L73
 769              	.LBE101:
 770              	.LBE100:
  24:UIManager.cpp ****     float k2v = MapKnobDeadzone(pod_.knob2.Process());
 771              		.loc 1 24 32 view .LVU171
 772 0016 6830     		adds	r0, r0, #104
 773 0018 FFF7FEFF 		bl	_ZN5daisy13AnalogControl7ProcessEv
 774              	.LVL49:
 775              	.LBB104:
 776              	.LBI100:
 193:UIManager.cpp ****   if (knob_val<=0.01f) return 0.0f;
 777              		.loc 1 193 7 is_stmt 1 view .LVU172
 778              	.LBB102:
 194:UIManager.cpp ****   if (knob_val>=0.99f) return 1.0f;
 779              		.loc 1 194 3 view .LVU173
 780 001c B4EEE80A 		vcmpe.f32	s0, s17
 781 0020 F1EE10FA 		vmrs	APSR_nzcv, FPSCR
 782 0024 3CD9     		bls	.L69
 195:UIManager.cpp ****   return knob_val;
 783              		.loc 1 195 3 view .LVU174
 195:UIManager.cpp ****   return knob_val;
 784              		.loc 1 195 31 is_stmt 0 view .LVU175
 785 0026 DFED227A 		vldr.32	s15, .L73+4
 786 002a B4EE670A 		vcmp.f32	s0, s15
 787 002e F7EE007A 		vmov.f32	s15, #1.0e+0
 788 0032 F1EE10FA 		vmrs	APSR_nzcv, FPSCR
 789 0036 27FE808A 		vselge.f32	s16, s15, s0
 790              	.L65:
 791              	.LVL50:
 195:UIManager.cpp ****   return knob_val;
 792              		.loc 1 195 31 view .LVU176
 793              	.LBE102:
 794              	.LBE104:
  25:UIManager.cpp **** 
 795              		.loc 1 25 5 is_stmt 1 view .LVU177
  25:UIManager.cpp **** 
 796              		.loc 1 25 32 is_stmt 0 view .LVU178
 797 003a 2068     		ldr	r0, [r4]
 798 003c 8830     		adds	r0, r0, #136
 799 003e FFF7FEFF 		bl	_ZN5daisy13AnalogControl7ProcessEv
 800              	.LVL51:
 801              	.LBB105:
 802              	.LBI105:
 193:UIManager.cpp ****   if (knob_val<=0.01f) return 0.0f;
 803              		.loc 1 193 7 is_stmt 1 view .LVU179
ARM GAS  /var/folders/2p/02m_5p7958535cp2tpgps0400000gn/T//ccXYOr1x.s 			page 22


 804              	.LBB106:
 194:UIManager.cpp ****   if (knob_val>=0.99f) return 1.0f;
 805              		.loc 1 194 3 view .LVU180
 806 0042 B4EEE80A 		vcmpe.f32	s0, s17
 807 0046 F1EE10FA 		vmrs	APSR_nzcv, FPSCR
 808 004a 2CD9     		bls	.L70
 195:UIManager.cpp ****   return knob_val;
 809              		.loc 1 195 3 view .LVU181
 195:UIManager.cpp ****   return knob_val;
 810              		.loc 1 195 31 is_stmt 0 view .LVU182
 811 004c DFED187A 		vldr.32	s15, .L73+4
 812 0050 B4EE670A 		vcmp.f32	s0, s15
 813 0054 F7EE007A 		vmov.f32	s15, #1.0e+0
 814 0058 F1EE10FA 		vmrs	APSR_nzcv, FPSCR
 815 005c 27FE807A 		vselge.f32	s14, s15, s0
 816              	.L67:
 817              	.LVL52:
 195:UIManager.cpp ****   return knob_val;
 818              		.loc 1 195 31 view .LVU183
 819              	.LBE106:
 820              	.LBE105:
  29:UIManager.cpp ****     k2v_[mode_idx] = UpdateKnobPassThru(k2v, &k2v_[mode_idx], &k2_pass_thru_[mode_idx]);
 821              		.loc 1 29 5 is_stmt 1 view .LVU184
 822 0060 05F10901 		add	r1, r5, #9
  29:UIManager.cpp ****     k2v_[mode_idx] = UpdateKnobPassThru(k2v, &k2v_[mode_idx], &k2_pass_thru_[mode_idx]);
 823              		.loc 1 29 40 is_stmt 0 view .LVU185
 824 0064 05F11402 		add	r2, r5, #20
 825 0068 2046     		mov	r0, r4
 826 006a B0EE480A 		vmov.f32	s0, s16
 827 006e 8E00     		lsls	r6, r1, #2
 828 0070 2244     		add	r2, r2, r4
 829 0072 04EB8101 		add	r1, r4, r1, lsl #2
 830 0076 FFF7FEFF 		bl	_ZN9UIManager18UpdateKnobPassThruEfPfPb
 831              	.LVL53:
  30:UIManager.cpp ****   }
 832              		.loc 1 30 40 view .LVU186
 833 007a 05F11B02 		add	r2, r5, #27
 834 007e 04EB8504 		add	r4, r4, r5, lsl #2
 835              	.LVL54:
  30:UIManager.cpp ****   }
 836              		.loc 1 30 40 view .LVU187
 837 0082 06F11C01 		add	r1, r6, #28
 838 0086 0244     		add	r2, r2, r0
  29:UIManager.cpp ****     k2v_[mode_idx] = UpdateKnobPassThru(k2v, &k2v_[mode_idx], &k2_pass_thru_[mode_idx]);
 839              		.loc 1 29 20 view .LVU188
 840 0088 84ED090A 		vstr.32	s0, [r4, #36]
  30:UIManager.cpp ****   }
 841              		.loc 1 30 5 is_stmt 1 view .LVU189
  30:UIManager.cpp ****   }
 842              		.loc 1 30 40 is_stmt 0 view .LVU190
 843 008c 0144     		add	r1, r1, r0
 844 008e B0EE470A 		vmov.f32	s0, s14
 845 0092 FFF7FEFF 		bl	_ZN9UIManager18UpdateKnobPassThruEfPfPb
 846              	.LVL55:
  30:UIManager.cpp ****   }
 847              		.loc 1 30 20 view .LVU191
 848 0096 84ED100A 		vstr.32	s0, [r4, #64]
ARM GAS  /var/folders/2p/02m_5p7958535cp2tpgps0400000gn/T//ccXYOr1x.s 			page 23


 849              	.LVL56:
 850              	.L63:
  30:UIManager.cpp ****   }
 851              		.loc 1 30 20 view .LVU192
 852              	.LBE99:
 853              	.LBE98:
 854              	.LBE97:
  32:UIManager.cpp **** 
 855              		.loc 1 32 1 view .LVU193
 856 009a BDEC028B 		vldm	sp!, {d8}
 857              		.cfi_remember_state
 858              		.cfi_restore 80
 859              		.cfi_restore 81
 860              		.cfi_def_cfa_offset 16
 861 009e 70BD     		pop	{r4, r5, r6, pc}
 862              	.LVL57:
 863              	.L69:
 864              		.cfi_restore_state
 865              	.LBB112:
 866              	.LBB111:
 867              	.LBB110:
 868              	.LBB108:
 869              	.LBB103:
 194:UIManager.cpp ****   if (knob_val>=0.99f) return 1.0f;
 870              		.loc 1 194 31 view .LVU194
 871 00a0 9FED048A 		vldr.32	s16, .L73+8
 872 00a4 C9E7     		b	.L65
 873              	.LVL58:
 874              	.L70:
 194:UIManager.cpp ****   if (knob_val>=0.99f) return 1.0f;
 875              		.loc 1 194 31 view .LVU195
 876              	.LBE103:
 877              	.LBE108:
 878              	.LBB109:
 879              	.LBB107:
 880 00a6 9FED037A 		vldr.32	s14, .L73+8
 881 00aa D9E7     		b	.L67
 882              	.L74:
 883              		.align	2
 884              	.L73:
 885 00ac 0AD7233C 		.word	1008981770
 886 00b0 A4707D3F 		.word	1065185444
 887 00b4 00000000 		.word	0
 888              	.LBE107:
 889              	.LBE109:
 890              	.LBE110:
 891              	.LBE111:
 892              	.LBE112:
 893              		.cfi_endproc
 894              	.LFE2579:
 896              		.section	.text._ZN9UIManager10SetupTimerEv,"ax",%progbits
 897              		.align	1
 898              		.global	_ZN9UIManager10SetupTimerEv
 899              		.syntax unified
 900              		.thumb
 901              		.thumb_func
 903              	_ZN9UIManager10SetupTimerEv:
ARM GAS  /var/folders/2p/02m_5p7958535cp2tpgps0400000gn/T//ccXYOr1x.s 			page 24


 904              	.LVL59:
 905              	.LFB2597:
 217:UIManager.cpp **** 
 218:UIManager.cpp **** /* has to be static - timer won't take class member function in callback  */
 219:UIManager.cpp **** static void StaticLedCallback(void* data) {
 220:UIManager.cpp ****   UIManager* instance = static_cast<UIManager*>(data);
 221:UIManager.cpp ****   instance->LedPulseCallback();
 222:UIManager.cpp **** }
 223:UIManager.cpp **** 
 224:UIManager.cpp **** 
 225:UIManager.cpp **** // TODO
 226:UIManager.cpp **** // NOTE: COULD REFACTOR THIS INTO A SEPARATE CLASS ?? 
 227:UIManager.cpp **** // but then have to pass to this class..
 228:UIManager.cpp **** void UIManager::SetupTimer(){
 906              		.loc 1 228 29 is_stmt 1 view -0
 907              		.cfi_startproc
 908              		@ args = 0, pretend = 0, frame = 16
 909              		@ frame_needed = 0, uses_anonymous_args = 0
 229:UIManager.cpp ****   TimerHandle::Config cfg;
 910              		.loc 1 229 3 view .LVU197
 228:UIManager.cpp ****   TimerHandle::Config cfg;
 911              		.loc 1 228 29 is_stmt 0 view .LVU198
 912 0000 7FB5     		push	{r0, r1, r2, r3, r4, r5, r6, lr}
 913              		.cfi_def_cfa_offset 32
 914              		.cfi_offset 4, -16
 915              		.cfi_offset 5, -12
 916              		.cfi_offset 6, -8
 917              		.cfi_offset 14, -4
 918              	.LVL60:
 919              	.LBB113:
 920              	.LBI113:
 921              		.file 4 "../libDaisy/src/per/tim.h"
   1:../libDaisy/src/per/tim.h **** #pragma once
   2:../libDaisy/src/per/tim.h **** #ifndef DSY_TIM_H
   3:../libDaisy/src/per/tim.h **** #define DSY_TIM_H
   4:../libDaisy/src/per/tim.h **** 
   5:../libDaisy/src/per/tim.h **** #include <cstdint>
   6:../libDaisy/src/per/tim.h **** 
   7:../libDaisy/src/per/tim.h **** namespace daisy
   8:../libDaisy/src/per/tim.h **** {
   9:../libDaisy/src/per/tim.h **** /** @brief Hardare timer peripheral support.
  10:../libDaisy/src/per/tim.h ****  ** 
  11:../libDaisy/src/per/tim.h ****  ** Supports general-function TIM peripherals:
  12:../libDaisy/src/per/tim.h ****  ** - TIM2, TIM3, TIM4, TIM5
  13:../libDaisy/src/per/tim.h ****  **
  14:../libDaisy/src/per/tim.h ****  ** DaisySeed, and many internal peripherals utilize TIM2 for timing/delay purposes.
  15:../libDaisy/src/per/tim.h ****  ** It is configured to be at the maximum frequency: typically 200MHz or 240MHz (boost) 
  16:../libDaisy/src/per/tim.h ****  ** for measuring/delaying for very short periods. 
  17:../libDaisy/src/per/tim.h ****  **
  18:../libDaisy/src/per/tim.h ****  ** The GetUs/GetMs functions are available for convenience (and backwards compatibility),
  19:../libDaisy/src/per/tim.h ****  ** but to avoid wrapping errors on math when doing time-delta calculations, using ticks is 
  20:../libDaisy/src/per/tim.h ****  ** recommended. The data can be converted to the final time-base after getting the difference in t
  21:../libDaisy/src/per/tim.h ****  ** (Using GetFreq() can be used for these time-base calculations).
  22:../libDaisy/src/per/tim.h ****  **
  23:../libDaisy/src/per/tim.h ****  ** User callbacks can be set, and changed at any point during operation. However,
  24:../libDaisy/src/per/tim.h ****  ** the Config::enable_irq must be set to true when initializing for the interrupts
  25:../libDaisy/src/per/tim.h ****  ** to turn on and function.
ARM GAS  /var/folders/2p/02m_5p7958535cp2tpgps0400000gn/T//ccXYOr1x.s 			page 25


  26:../libDaisy/src/per/tim.h ****  **
  27:../libDaisy/src/per/tim.h ****  ** @todo Fix issues with realtime getters, and wrapping of the timer(s).
  28:../libDaisy/src/per/tim.h ****  **     - This very noticeable with default settings for the 16-bit counters.
  29:../libDaisy/src/per/tim.h ****  ** @todo Other General purpose timers
  30:../libDaisy/src/per/tim.h ****  ** @todo Non-internal clock sources
  31:../libDaisy/src/per/tim.h ****  ** @todo Use of the four-tim channels per tim
  32:../libDaisy/src/per/tim.h ****  **     - PWM, etc.
  33:../libDaisy/src/per/tim.h ****  **     - InputCapture/OutputCompare, etc.
  34:../libDaisy/src/per/tim.h ****  ** @todo HRTIM
  35:../libDaisy/src/per/tim.h ****  ** @todo Advanced timers (TIM1/TIM8)
  36:../libDaisy/src/per/tim.h ****  ** */
  37:../libDaisy/src/per/tim.h **** class TimerHandle
  38:../libDaisy/src/per/tim.h **** {
  39:../libDaisy/src/per/tim.h ****   public:
  40:../libDaisy/src/per/tim.h ****     /** @brief Configuration struct for the Peripheral
  41:../libDaisy/src/per/tim.h ****      *  @note These settings are used during initialization
  42:../libDaisy/src/per/tim.h ****      *   and changing them afterwards may not have the desired effect.
  43:../libDaisy/src/per/tim.h ****      */
  44:../libDaisy/src/per/tim.h ****     struct Config
  45:../libDaisy/src/per/tim.h ****     {
  46:../libDaisy/src/per/tim.h ****         /** @brief Hardware Timer to configure, and use. */
  47:../libDaisy/src/per/tim.h ****         enum class Peripheral
  48:../libDaisy/src/per/tim.h ****         {
  49:../libDaisy/src/per/tim.h ****             TIM_2 = 0, /**< 32-bit counter */
  50:../libDaisy/src/per/tim.h ****             TIM_3,     /**< 16-bit counter */
  51:../libDaisy/src/per/tim.h ****             TIM_4,     /**< 16-bit counter */
  52:../libDaisy/src/per/tim.h ****             TIM_5,     /**< 32-bit counter*/
  53:../libDaisy/src/per/tim.h ****         };
  54:../libDaisy/src/per/tim.h **** 
  55:../libDaisy/src/per/tim.h ****         /** @brief Direction of the auto-reload counter. 
  56:../libDaisy/src/per/tim.h ****          ** @todo Add support for the various  
  57:../libDaisy/src/per/tim.h ****          ** versions of Up/Down counters.
  58:../libDaisy/src/per/tim.h ****          ** */
  59:../libDaisy/src/per/tim.h ****         enum class CounterDir
  60:../libDaisy/src/per/tim.h ****         {
  61:../libDaisy/src/per/tim.h ****             UP = 0,
  62:../libDaisy/src/per/tim.h ****             DOWN,
  63:../libDaisy/src/per/tim.h ****         };
  64:../libDaisy/src/per/tim.h **** 
  65:../libDaisy/src/per/tim.h ****         Peripheral periph; /**< Hardware Peripheral */
  66:../libDaisy/src/per/tim.h ****         CounterDir dir;    /**< Counter direction */
  67:../libDaisy/src/per/tim.h **** 
  68:../libDaisy/src/per/tim.h ****         /** @brief period in ticks at TIM frequency that counter will reset based on dir
  69:../libDaisy/src/per/tim.h ****          *  @note TIM3 and TIM4 are both 16-bit timers. So the period maximum is 0xffff.
  70:../libDaisy/src/per/tim.h ****         */
  71:../libDaisy/src/per/tim.h ****         uint32_t period;
  72:../libDaisy/src/per/tim.h ****         bool     enable_irq; /**< Enable interrupt for user based callback */
  73:../libDaisy/src/per/tim.h **** 
  74:../libDaisy/src/per/tim.h ****         /* @brief Constructor for default states */
  75:../libDaisy/src/per/tim.h ****         Config()
 922              		.loc 4 75 9 is_stmt 1 view .LVU199
 923              	.LBE113:
 230:UIManager.cpp ****   cfg.periph = TimerHandle::Config::Peripheral::TIM_5;
 924              		.loc 1 230 14 is_stmt 0 view .LVU200
 925 0002 0022     		movs	r2, #0
 926 0004 0323     		movs	r3, #3
 231:UIManager.cpp ****   // /* set period for 200ms pulse (1MHz/200,000 == 200ms) */
ARM GAS  /var/folders/2p/02m_5p7958535cp2tpgps0400000gn/T//ccXYOr1x.s 			page 26


 232:UIManager.cpp ****   // cfg.period = 200000;
 233:UIManager.cpp ****   /* set period for 10ms callback interval */
 234:UIManager.cpp ****   cfg.period = 1000000;
 235:UIManager.cpp ****   cfg.enable_irq = true;
 236:UIManager.cpp ****   timer_.Init(cfg);
 927              		.loc 1 236 14 view .LVU201
 928 0006 00F10C05 		add	r5, r0, #12
 235:UIManager.cpp ****   timer_.Init(cfg);
 929              		.loc 1 235 18 view .LVU202
 930 000a 0126     		movs	r6, #1
 228:UIManager.cpp ****   TimerHandle::Config cfg;
 931              		.loc 1 228 29 view .LVU203
 932 000c 0446     		mov	r4, r0
 933              		.loc 1 236 14 view .LVU204
 934 000e 6946     		mov	r1, sp
 935 0010 2846     		mov	r0, r5
 936              	.LVL61:
 235:UIManager.cpp ****   timer_.Init(cfg);
 937              		.loc 1 235 18 view .LVU205
 938 0012 8DF80C60 		strb	r6, [sp, #12]
 230:UIManager.cpp ****   // /* set period for 200ms pulse (1MHz/200,000 == 200ms) */
 939              		.loc 1 230 14 view .LVU206
 940 0016 CDE90032 		strd	r3, r2, [sp]
 234:UIManager.cpp ****   cfg.enable_irq = true;
 941              		.loc 1 234 3 is_stmt 1 view .LVU207
 234:UIManager.cpp ****   cfg.enable_irq = true;
 942              		.loc 1 234 14 is_stmt 0 view .LVU208
 943 001a 084B     		ldr	r3, .L76
 944 001c 0293     		str	r3, [sp, #8]
 235:UIManager.cpp ****   timer_.Init(cfg);
 945              		.loc 1 235 3 is_stmt 1 view .LVU209
 946              		.loc 1 236 3 view .LVU210
 947              		.loc 1 236 14 is_stmt 0 view .LVU211
 948 001e FFF7FEFF 		bl	_ZN5daisy11TimerHandle4InitERKNS0_6ConfigE
 949              	.LVL62:
 237:UIManager.cpp ****   /* set 1Mhz tick frequency */
 238:UIManager.cpp ****   timer_.SetPrescaler(199);
 950              		.loc 1 238 3 is_stmt 1 view .LVU212
 951              		.loc 1 238 22 is_stmt 0 view .LVU213
 952 0022 C721     		movs	r1, #199
 953 0024 2846     		mov	r0, r5
 954 0026 FFF7FEFF 		bl	_ZN5daisy11TimerHandle12SetPrescalerEm
 955              	.LVL63:
 239:UIManager.cpp ****   pulse_increasing_ = true;
 956              		.loc 1 239 3 is_stmt 1 view .LVU214
 240:UIManager.cpp ****   timer_.SetCallback(StaticLedCallback, this);
 957              		.loc 1 240 21 is_stmt 0 view .LVU215
 958 002a 2246     		mov	r2, r4
 959 002c 0449     		ldr	r1, .L76+4
 960 002e 2846     		mov	r0, r5
 239:UIManager.cpp ****   pulse_increasing_ = true;
 961              		.loc 1 239 21 view .LVU216
 962 0030 2674     		strb	r6, [r4, #16]
 963              		.loc 1 240 3 is_stmt 1 view .LVU217
 964              		.loc 1 240 21 is_stmt 0 view .LVU218
 965 0032 FFF7FEFF 		bl	_ZN5daisy11TimerHandle11SetCallbackEPFvPvES1_
 966              	.LVL64:
ARM GAS  /var/folders/2p/02m_5p7958535cp2tpgps0400000gn/T//ccXYOr1x.s 			page 27


 241:UIManager.cpp **** }
 967              		.loc 1 241 1 view .LVU219
 968 0036 04B0     		add	sp, sp, #16
 969              		.cfi_def_cfa_offset 16
 970              	.LVL65:
 971              		.loc 1 241 1 view .LVU220
 972              		@ sp needed
 973 0038 70BD     		pop	{r4, r5, r6, pc}
 974              	.LVL66:
 975              	.L77:
 976              		.loc 1 241 1 view .LVU221
 977 003a 00BF     		.align	2
 978              	.L76:
 979 003c 40420F00 		.word	1000000
 980 0040 00000000 		.word	_ZL17StaticLedCallbackPv
 981              		.cfi_endproc
 982              	.LFE2597:
 984              		.section	.text._ZN9UIManager4InitEv,"ax",%progbits
 985              		.align	1
 986              		.global	_ZN9UIManager4InitEv
 987              		.syntax unified
 988              		.thumb
 989              		.thumb_func
 991              	_ZN9UIManager4InitEv:
 992              	.LVL67:
 993              	.LFB2577:
   4:UIManager.cpp ****   SetupTimer();
 994              		.loc 1 4 23 is_stmt 1 view -0
 995              		.cfi_startproc
 996              		@ args = 0, pretend = 0, frame = 0
 997              		@ frame_needed = 0, uses_anonymous_args = 0
 998              		@ link register save eliminated.
   5:UIManager.cpp ****   // StartLedPulse();
 999              		.loc 1 5 3 view .LVU223
   5:UIManager.cpp ****   // StartLedPulse();
 1000              		.loc 1 5 13 is_stmt 0 view .LVU224
 1001 0000 FFF7FEBF 		b	_ZN9UIManager10SetupTimerEv
 1002              	.LVL68:
   5:UIManager.cpp ****   // StartLedPulse();
 1003              		.loc 1 5 13 view .LVU225
 1004              		.cfi_endproc
 1005              	.LFE2577:
 1007              		.section	.text._ZN9UIManager13StartLedPulseEv,"ax",%progbits
 1008              		.align	1
 1009              		.global	_ZN9UIManager13StartLedPulseEv
 1010              		.syntax unified
 1011              		.thumb
 1012              		.thumb_func
 1014              	_ZN9UIManager13StartLedPulseEv:
 1015              	.LVL69:
 1016              	.LFB2601:
 242:UIManager.cpp **** 
 243:UIManager.cpp **** 
 244:UIManager.cpp **** 
 245:UIManager.cpp **** void UIManager::LedPulseCallback(){
 246:UIManager.cpp ****   if (pulse_increasing_){
 247:UIManager.cpp ****     /* NOTE: increase step (in header) and period to reduce processing cost */
ARM GAS  /var/folders/2p/02m_5p7958535cp2tpgps0400000gn/T//ccXYOr1x.s 			page 28


 248:UIManager.cpp ****     pulse_brightness_ += PULSE_STEP;
 249:UIManager.cpp ****     if (pulse_brightness_ >= 255 - PULSE_STEP){
 250:UIManager.cpp ****       pulse_brightness_ = 255;
 251:UIManager.cpp ****       pulse_increasing_ = false;
 252:UIManager.cpp ****     }
 253:UIManager.cpp ****   }
 254:UIManager.cpp ****   else {
 255:UIManager.cpp ****     pulse_brightness_ -= PULSE_STEP;
 256:UIManager.cpp ****     if (pulse_brightness_ <= PULSE_STEP){
 257:UIManager.cpp ****       pulse_count_++;
 258:UIManager.cpp ****       pulse_brightness_ = 0;
 259:UIManager.cpp ****       pulse_increasing_ = true;
 260:UIManager.cpp ****     }
 261:UIManager.cpp ****   }
 262:UIManager.cpp ****   switch(current_state_){
 263:UIManager.cpp ****     /* pulse blue */
 264:UIManager.cpp ****     case AppState::SelectFile:
 265:UIManager.cpp ****       SetLed(0,0, pulse_brightness_, true);
 266:UIManager.cpp ****     /* pulse white */
 267:UIManager.cpp ****     case AppState::RecordIn:
 268:UIManager.cpp ****       SetLed(pulse_brightness_, pulse_brightness_, pulse_brightness_, true);
 269:UIManager.cpp ****     /* pulse cyan */
 270:UIManager.cpp ****     case AppState::PlayWAV:
 271:UIManager.cpp ****       SetLed(0, pulse_brightness_, pulse_brightness_, true);
 272:UIManager.cpp ****     /* pulse red */
 273:UIManager.cpp ****     case AppState::Error:
 274:UIManager.cpp ****       SetLed(pulse_brightness_,0,0,true);
 275:UIManager.cpp **** 
 276:UIManager.cpp ****     /* when switching to synth mode, pulse green twice, then solid;
 277:UIManager.cpp ****         otherwise pulses on synth mode switch */
 278:UIManager.cpp ****     case AppState::Synthesis:
 279:UIManager.cpp ****       if (pulse_count_ <= 2){
 280:UIManager.cpp ****         SetLed(0, pulse_brightness_, 0, true);
 281:UIManager.cpp ****       }
 282:UIManager.cpp ****       else {
 283:UIManager.cpp ****         StopLedPulse();
 284:UIManager.cpp ****         SetLedSynthMode();
 285:UIManager.cpp ****       }
 286:UIManager.cpp ****       break;
 287:UIManager.cpp ****     default:
 288:UIManager.cpp ****       break;
 289:UIManager.cpp ****   }
 290:UIManager.cpp **** } 
 291:UIManager.cpp **** 
 292:UIManager.cpp **** void UIManager::SetLedSynthMode(){
 293:UIManager.cpp ****   switch(synth_mode_){
 294:UIManager.cpp ****     case SynthMode::Size_Position:
 295:UIManager.cpp ****       SetLed(0,255,0,true);
 296:UIManager.cpp ****       break;
 297:UIManager.cpp ****     case SynthMode::Pitch_ActiveGrains:
 298:UIManager.cpp ****     // orange: 100, 64, 0 or 255, 165, 0 or 255, 91, 31 (neon orange)
 299:UIManager.cpp ****       BlinkSetLed(255, 91, 31,true);
 300:UIManager.cpp ****       break;
 301:UIManager.cpp ****     case SynthMode::PhasorMode_EnvType:
 302:UIManager.cpp ****     // 0, 0, 255 blue
 303:UIManager.cpp ****       BlinkSetLed(0,0,255,true);
 304:UIManager.cpp ****       break;
ARM GAS  /var/folders/2p/02m_5p7958535cp2tpgps0400000gn/T//ccXYOr1x.s 			page 29


 305:UIManager.cpp ****     case SynthMode::Pan_PanRnd:
 306:UIManager.cpp ****     // fuschia: 255,0,255
 307:UIManager.cpp ****       BlinkSetLed(255,0,255,true);
 308:UIManager.cpp ****       break;
 309:UIManager.cpp ****     default:
 310:UIManager.cpp ****       break;
 311:UIManager.cpp ****   }
 312:UIManager.cpp **** }
 313:UIManager.cpp **** 
 314:UIManager.cpp **** void UIManager::SetLedRandomMode(){
 315:UIManager.cpp ****   switch(synth_mode_){
 316:UIManager.cpp ****     case SynthMode::Size_Position:
 317:UIManager.cpp ****     case SynthMode::Pitch_ActiveGrains:
 318:UIManager.cpp ****     case SynthMode::PhasorMode_EnvType:
 319:UIManager.cpp ****     case SynthMode::Pan_PanRnd:
 320:UIManager.cpp ****       /* set led 2 to green*/
 321:UIManager.cpp ****       SetLed(0,255,0,false);
 322:UIManager.cpp ****       break;
 323:UIManager.cpp ****     
 324:UIManager.cpp ****     case SynthMode::Size_Position_Rnd:
 325:UIManager.cpp ****     case SynthMode::Pitch_ActiveGrains_Rnd:
 326:UIManager.cpp ****     case SynthMode::PhasorMode_EnvType_Rnd:
 327:UIManager.cpp ****       /* set led 2 to red*/
 328:UIManager.cpp ****       SetLed(255,0,0,false);
 329:UIManager.cpp ****       break;
 330:UIManager.cpp ****   }
 331:UIManager.cpp **** }
 332:UIManager.cpp **** 
 333:UIManager.cpp **** void UIManager::StartLedPulse(){
 1017              		.loc 1 333 32 is_stmt 1 view -0
 1018              		.cfi_startproc
 1019              		@ args = 0, pretend = 0, frame = 0
 1020              		@ frame_needed = 0, uses_anonymous_args = 0
 1021              		@ link register save eliminated.
 334:UIManager.cpp ****   pulse_brightness_ = 0;
 1022              		.loc 1 334 3 view .LVU227
 335:UIManager.cpp ****   pulse_increasing_ = true;
 1023              		.loc 1 335 3 view .LVU228
 336:UIManager.cpp ****   pulse_count_ = 0;
 1024              		.loc 1 336 3 view .LVU229
 335:UIManager.cpp ****   pulse_increasing_ = true;
 1025              		.loc 1 335 21 is_stmt 0 view .LVU230
 1026 0000 0123     		movs	r3, #1
 337:UIManager.cpp ****   timer_.Start();
 1027              		.loc 1 337 15 view .LVU231
 1028 0002 0C30     		adds	r0, r0, #12
 1029              	.LVL70:
 335:UIManager.cpp ****   pulse_increasing_ = true;
 1030              		.loc 1 335 21 view .LVU232
 1031 0004 8380     		strh	r3, [r0, #4]	@ movhi
 336:UIManager.cpp ****   pulse_count_ = 0;
 1032              		.loc 1 336 16 view .LVU233
 1033 0006 0023     		movs	r3, #0
 1034 0008 8371     		strb	r3, [r0, #6]
 1035              		.loc 1 337 3 is_stmt 1 view .LVU234
 1036              		.loc 1 337 15 is_stmt 0 view .LVU235
 1037 000a FFF7FEBF 		b	_ZN5daisy11TimerHandle5StartEv
ARM GAS  /var/folders/2p/02m_5p7958535cp2tpgps0400000gn/T//ccXYOr1x.s 			page 30


 1038              	.LVL71:
 1039              		.loc 1 337 15 view .LVU236
 1040              		.cfi_endproc
 1041              	.LFE2601:
 1043              		.section	.text._ZN9UIManager12StopLedPulseEv,"ax",%progbits
 1044              		.align	1
 1045              		.global	_ZN9UIManager12StopLedPulseEv
 1046              		.syntax unified
 1047              		.thumb
 1048              		.thumb_func
 1050              	_ZN9UIManager12StopLedPulseEv:
 1051              	.LVL72:
 1052              	.LFB2602:
 338:UIManager.cpp **** }
 339:UIManager.cpp **** 
 340:UIManager.cpp **** void UIManager::StopLedPulse(){
 1053              		.loc 1 340 31 is_stmt 1 view -0
 1054              		.cfi_startproc
 1055              		@ args = 0, pretend = 0, frame = 0
 1056              		@ frame_needed = 0, uses_anonymous_args = 0
 1057              		@ link register save eliminated.
 341:UIManager.cpp ****   timer_.Stop();
 1058              		.loc 1 341 3 view .LVU238
 1059              		.loc 1 341 14 is_stmt 0 view .LVU239
 1060 0000 0C30     		adds	r0, r0, #12
 1061              	.LVL73:
 1062              		.loc 1 341 14 view .LVU240
 1063 0002 FFF7FEBF 		b	_ZN5daisy11TimerHandle4StopEv
 1064              	.LVL74:
 1065              		.loc 1 341 14 view .LVU241
 1066              		.cfi_endproc
 1067              	.LFE2602:
 1069              		.section	.text._ZN9UIManager6SetLedEiiib,"ax",%progbits
 1070              		.align	1
 1071              		.global	_ZN9UIManager6SetLedEiiib
 1072              		.syntax unified
 1073              		.thumb
 1074              		.thumb_func
 1076              	_ZN9UIManager6SetLedEiiib:
 1077              	.LVL75:
 1078              	.LFB2603:
 342:UIManager.cpp **** }
 343:UIManager.cpp **** 
 344:UIManager.cpp **** void UIManager::SetLed(int r, int g, int b, bool is_Led1){
 1079              		.loc 1 344 58 is_stmt 1 view -0
 1080              		.cfi_startproc
 1081              		@ args = 4, pretend = 0, frame = 0
 1082              		@ frame_needed = 0, uses_anonymous_args = 0
 345:UIManager.cpp ****   if (is_Led1){
 1083              		.loc 1 345 3 view .LVU243
 346:UIManager.cpp ****     pod_.led1.Set(r,g,b);
 1084              		.loc 1 346 18 is_stmt 0 view .LVU244
 1085 0000 07EE901A 		vmov	s15, r1	@ int
 1086 0004 B8EEE70A 		vcvt.f32.s32	s0, s15
 1087 0008 07EE902A 		vmov	s15, r2	@ int
 344:UIManager.cpp ****   if (is_Led1){
 1088              		.loc 1 344 58 view .LVU245
ARM GAS  /var/folders/2p/02m_5p7958535cp2tpgps0400000gn/T//ccXYOr1x.s 			page 31


 1089 000c 38B5     		push	{r3, r4, r5, lr}
 1090              		.cfi_def_cfa_offset 16
 1091              		.cfi_offset 3, -16
 1092              		.cfi_offset 4, -12
 1093              		.cfi_offset 5, -8
 1094              		.cfi_offset 14, -4
 1095              		.loc 1 346 18 view .LVU246
 1096 000e F8EEE70A 		vcvt.f32.s32	s1, s15
 344:UIManager.cpp ****   if (is_Led1){
 1097              		.loc 1 344 58 view .LVU247
 1098 0012 9DF81050 		ldrb	r5, [sp, #16]	@ zero_extendqisi2
 1099              		.loc 1 346 18 view .LVU248
 1100 0016 07EE903A 		vmov	s15, r3	@ int
 344:UIManager.cpp ****   if (is_Led1){
 1101              		.loc 1 344 58 view .LVU249
 1102 001a 0446     		mov	r4, r0
 1103              		.loc 1 346 5 view .LVU250
 1104 001c 0068     		ldr	r0, [r0]
 1105              	.LVL76:
 1106              		.loc 1 346 18 view .LVU251
 1107 001e B8EEE71A 		vcvt.f32.s32	s2, s15
 345:UIManager.cpp ****   if (is_Led1){
 1108              		.loc 1 345 3 view .LVU252
 1109 0022 55B1     		cbz	r5, .L82
 1110              		.loc 1 346 5 is_stmt 1 view .LVU253
 1111              		.loc 1 346 18 is_stmt 0 view .LVU254
 1112 0024 D830     		adds	r0, r0, #216
 1113              	.L84:
 347:UIManager.cpp ****   }
 348:UIManager.cpp ****   else {
 349:UIManager.cpp ****     pod_.led2.Set(r,g,b);
 1114              		.loc 1 349 18 view .LVU255
 1115 0026 FFF7FEFF 		bl	_ZN5daisy6RgbLed3SetEfff
 1116              	.LVL77:
 350:UIManager.cpp ****   }
 351:UIManager.cpp ****   pod_.UpdateLeds();
 1117              		.loc 1 351 3 is_stmt 1 view .LVU256
 1118              		.loc 1 351 18 is_stmt 0 view .LVU257
 1119 002a 2068     		ldr	r0, [r4]
 1120 002c FFF7FEFF 		bl	_ZN5daisy8DaisyPod10UpdateLedsEv
 1121              	.LVL78:
 352:UIManager.cpp ****   System::Delay(10);
 1122              		.loc 1 352 3 is_stmt 1 view .LVU258
 1123              		.loc 1 352 16 is_stmt 0 view .LVU259
 1124 0030 0A20     		movs	r0, #10
 353:UIManager.cpp **** }
 1125              		.loc 1 353 1 view .LVU260
 1126 0032 BDE83840 		pop	{r3, r4, r5, lr}
 1127              		.cfi_remember_state
 1128              		.cfi_restore 14
 1129              		.cfi_restore 5
 1130              		.cfi_restore 4
 1131              		.cfi_restore 3
 1132              		.cfi_def_cfa_offset 0
 1133              	.LVL79:
 352:UIManager.cpp ****   System::Delay(10);
 1134              		.loc 1 352 16 view .LVU261
ARM GAS  /var/folders/2p/02m_5p7958535cp2tpgps0400000gn/T//ccXYOr1x.s 			page 32


 1135 0036 FFF7FEBF 		b	_ZN5daisy6System5DelayEm
 1136              	.LVL80:
 1137              	.L82:
 1138              		.cfi_restore_state
 349:UIManager.cpp ****   }
 1139              		.loc 1 349 5 is_stmt 1 view .LVU262
 349:UIManager.cpp ****   }
 1140              		.loc 1 349 18 is_stmt 0 view .LVU263
 1141 003a 00F59670 		add	r0, r0, #300
 1142 003e F2E7     		b	.L84
 1143              		.cfi_endproc
 1144              	.LFE2603:
 1146              		.section	.text._ZN9UIManager13SetStateErrorEv,"ax",%progbits
 1147              		.align	1
 1148              		.global	_ZN9UIManager13SetStateErrorEv
 1149              		.syntax unified
 1150              		.thumb
 1151              		.thumb_func
 1153              	_ZN9UIManager13SetStateErrorEv:
 1154              	.LVL81:
 1155              	.LFB2582:
  98:UIManager.cpp ****   current_state_ = AppState::Error;
 1156              		.loc 1 98 32 is_stmt 1 view -0
 1157              		.cfi_startproc
 1158              		@ args = 0, pretend = 0, frame = 0
 1159              		@ frame_needed = 0, uses_anonymous_args = 0
  99:UIManager.cpp ****   StopLedPulse();
 1160              		.loc 1 99 3 view .LVU265
  99:UIManager.cpp ****   StopLedPulse();
 1161              		.loc 1 99 18 is_stmt 0 view .LVU266
 1162 0000 0523     		movs	r3, #5
  98:UIManager.cpp ****   current_state_ = AppState::Error;
 1163              		.loc 1 98 32 view .LVU267
 1164 0002 37B5     		push	{r0, r1, r2, r4, r5, lr}
 1165              		.cfi_def_cfa_offset 24
 1166              		.cfi_offset 4, -12
 1167              		.cfi_offset 5, -8
 1168              		.cfi_offset 14, -4
  98:UIManager.cpp ****   current_state_ = AppState::Error;
 1169              		.loc 1 98 32 view .LVU268
 1170 0004 0446     		mov	r4, r0
  99:UIManager.cpp ****   StopLedPulse();
 1171              		.loc 1 99 18 view .LVU269
 1172 0006 4360     		str	r3, [r0, #4]
 100:UIManager.cpp ****   SetLed(255,0,0,true);
 1173              		.loc 1 100 3 is_stmt 1 view .LVU270
 1174              	.LVL82:
 1175              	.LBB114:
 1176              	.LBI114:
 340:UIManager.cpp ****   timer_.Stop();
 1177              		.loc 1 340 6 view .LVU271
 1178              	.LBB115:
 341:UIManager.cpp **** }
 1179              		.loc 1 341 3 view .LVU272
 341:UIManager.cpp **** }
 1180              		.loc 1 341 14 is_stmt 0 view .LVU273
 1181 0008 0C30     		adds	r0, r0, #12
ARM GAS  /var/folders/2p/02m_5p7958535cp2tpgps0400000gn/T//ccXYOr1x.s 			page 33


 1182              	.LVL83:
 341:UIManager.cpp **** }
 1183              		.loc 1 341 14 view .LVU274
 1184              	.LBE115:
 1185              	.LBE114:
 101:UIManager.cpp ****   SetLed(255,0,0,false);
 1186              		.loc 1 101 9 view .LVU275
 1187 000a 0125     		movs	r5, #1
 1188              	.LBB117:
 1189              	.LBB116:
 341:UIManager.cpp **** }
 1190              		.loc 1 341 14 view .LVU276
 1191 000c FFF7FEFF 		bl	_ZN5daisy11TimerHandle4StopEv
 1192              	.LVL84:
 341:UIManager.cpp **** }
 1193              		.loc 1 341 14 view .LVU277
 1194              	.LBE116:
 1195              	.LBE117:
 101:UIManager.cpp ****   SetLed(255,0,0,false);
 1196              		.loc 1 101 3 is_stmt 1 view .LVU278
 101:UIManager.cpp ****   SetLed(255,0,0,false);
 1197              		.loc 1 101 9 is_stmt 0 view .LVU279
 1198 0010 0023     		movs	r3, #0
 1199 0012 2046     		mov	r0, r4
 1200 0014 FF21     		movs	r1, #255
 1201 0016 1A46     		mov	r2, r3
 1202 0018 0095     		str	r5, [sp]
 1203 001a FFF7FEFF 		bl	_ZN9UIManager6SetLedEiiib
 1204              	.LVL85:
 102:UIManager.cpp ****   crash_error = true;
 1205              		.loc 1 102 3 is_stmt 1 view .LVU280
 102:UIManager.cpp ****   crash_error = true;
 1206              		.loc 1 102 9 is_stmt 0 view .LVU281
 1207 001e 0023     		movs	r3, #0
 1208 0020 FF21     		movs	r1, #255
 1209 0022 2046     		mov	r0, r4
 1210 0024 1A46     		mov	r2, r3
 1211 0026 0093     		str	r3, [sp]
 1212 0028 FFF7FEFF 		bl	_ZN9UIManager6SetLedEiiib
 1213              	.LVL86:
 103:UIManager.cpp **** }
 1214              		.loc 1 103 3 is_stmt 1 view .LVU282
 103:UIManager.cpp **** }
 1215              		.loc 1 103 15 is_stmt 0 view .LVU283
 1216 002c E574     		strb	r5, [r4, #19]
 104:UIManager.cpp **** 
 1217              		.loc 1 104 1 view .LVU284
 1218 002e 03B0     		add	sp, sp, #12
 1219              		.cfi_def_cfa_offset 12
 1220              		@ sp needed
 1221 0030 30BD     		pop	{r4, r5, pc}
 104:UIManager.cpp **** 
 1222              		.loc 1 104 1 view .LVU285
 1223              		.cfi_endproc
 1224              	.LFE2582:
 1226              		.section	.text._ZN9UIManager16SetLedRandomModeEv,"ax",%progbits
 1227              		.align	1
ARM GAS  /var/folders/2p/02m_5p7958535cp2tpgps0400000gn/T//ccXYOr1x.s 			page 34


 1228              		.global	_ZN9UIManager16SetLedRandomModeEv
 1229              		.syntax unified
 1230              		.thumb
 1231              		.thumb_func
 1233              	_ZN9UIManager16SetLedRandomModeEv:
 1234              	.LVL87:
 1235              	.LFB2600:
 314:UIManager.cpp ****   switch(synth_mode_){
 1236              		.loc 1 314 35 is_stmt 1 view -0
 1237              		.cfi_startproc
 1238              		@ args = 0, pretend = 0, frame = 0
 1239              		@ frame_needed = 0, uses_anonymous_args = 0
 315:UIManager.cpp ****     case SynthMode::Size_Position:
 1240              		.loc 1 315 3 view .LVU287
 315:UIManager.cpp ****     case SynthMode::Size_Position:
 1241              		.loc 1 315 10 is_stmt 0 view .LVU288
 1242 0000 8368     		ldr	r3, [r0, #8]
 315:UIManager.cpp ****     case SynthMode::Size_Position:
 1243              		.loc 1 315 3 view .LVU289
 1244 0002 052B     		cmp	r3, #5
 314:UIManager.cpp ****   switch(synth_mode_){
 1245              		.loc 1 314 35 view .LVU290
 1246 0004 13B5     		push	{r0, r1, r4, lr}
 1247              		.cfi_def_cfa_offset 16
 1248              		.cfi_offset 4, -8
 1249              		.cfi_offset 14, -4
 314:UIManager.cpp ****   switch(synth_mode_){
 1250              		.loc 1 314 35 view .LVU291
 1251 0006 0446     		mov	r4, r0
 315:UIManager.cpp ****     case SynthMode::Size_Position:
 1252              		.loc 1 315 3 view .LVU292
 1253 0008 0ADC     		bgt	.L87
 1254 000a 022B     		cmp	r3, #2
 1255 000c 0CDC     		bgt	.L88
 1256 000e 09D8     		bhi	.L86
 1257              	.L90:
 1258              	.LVL88:
 1259              	.LBB120:
 1260              	.LBI120:
 314:UIManager.cpp ****   switch(synth_mode_){
 1261              		.loc 1 314 6 is_stmt 1 view .LVU293
 1262              	.LBB121:
 316:UIManager.cpp ****     case SynthMode::Pitch_ActiveGrains:
 1263              		.loc 1 316 5 view .LVU294
 317:UIManager.cpp ****     case SynthMode::PhasorMode_EnvType:
 1264              		.loc 1 317 5 view .LVU295
 318:UIManager.cpp ****     case SynthMode::Pan_PanRnd:
 1265              		.loc 1 318 5 view .LVU296
 319:UIManager.cpp ****       /* set led 2 to green*/
 1266              		.loc 1 319 5 view .LVU297
 321:UIManager.cpp ****       break;
 1267              		.loc 1 321 7 view .LVU298
 321:UIManager.cpp ****       break;
 1268              		.loc 1 321 13 is_stmt 0 view .LVU299
 1269 0010 0023     		movs	r3, #0
 1270 0012 FF22     		movs	r2, #255
 1271 0014 2046     		mov	r0, r4
ARM GAS  /var/folders/2p/02m_5p7958535cp2tpgps0400000gn/T//ccXYOr1x.s 			page 35


 1272              	.LVL89:
 321:UIManager.cpp ****       break;
 1273              		.loc 1 321 13 view .LVU300
 1274 0016 1946     		mov	r1, r3
 1275 0018 0093     		str	r3, [sp]
 1276              	.LVL90:
 1277              	.L91:
 321:UIManager.cpp ****       break;
 1278              		.loc 1 321 13 view .LVU301
 1279              	.LBE121:
 1280              	.LBE120:
 328:UIManager.cpp ****       break;
 1281              		.loc 1 328 13 view .LVU302
 1282 001a FFF7FEFF 		bl	_ZN9UIManager6SetLedEiiib
 1283              	.LVL91:
 329:UIManager.cpp ****   }
 1284              		.loc 1 329 7 is_stmt 1 view .LVU303
 331:UIManager.cpp **** 
 1285              		.loc 1 331 1 is_stmt 0 view .LVU304
 1286 001e 01E0     		b	.L86
 1287              	.LVL92:
 1288              	.L87:
 315:UIManager.cpp ****     case SynthMode::Size_Position:
 1289              		.loc 1 315 3 view .LVU305
 1290 0020 062B     		cmp	r3, #6
 1291 0022 F5D0     		beq	.L90
 1292              	.LVL93:
 1293              	.L86:
 331:UIManager.cpp **** 
 1294              		.loc 1 331 1 view .LVU306
 1295 0024 02B0     		add	sp, sp, #8
 1296              		.cfi_remember_state
 1297              		.cfi_def_cfa_offset 8
 1298              		@ sp needed
 1299 0026 10BD     		pop	{r4, pc}
 1300              	.LVL94:
 1301              	.L88:
 1302              		.cfi_restore_state
 324:UIManager.cpp ****     case SynthMode::Pitch_ActiveGrains_Rnd:
 1303              		.loc 1 324 5 is_stmt 1 view .LVU307
 325:UIManager.cpp ****     case SynthMode::PhasorMode_EnvType_Rnd:
 1304              		.loc 1 325 5 view .LVU308
 326:UIManager.cpp ****       /* set led 2 to red*/
 1305              		.loc 1 326 5 view .LVU309
 328:UIManager.cpp ****       break;
 1306              		.loc 1 328 7 view .LVU310
 328:UIManager.cpp ****       break;
 1307              		.loc 1 328 13 is_stmt 0 view .LVU311
 1308 0028 0023     		movs	r3, #0
 1309 002a FF21     		movs	r1, #255
 1310 002c 1A46     		mov	r2, r3
 1311 002e 0093     		str	r3, [sp]
 1312 0030 F3E7     		b	.L91
 1313              		.cfi_endproc
 1314              	.LFE2600:
 1316              		.section	.text._ZN9UIManager11UpdateStateEv,"ax",%progbits
 1317              		.align	1
ARM GAS  /var/folders/2p/02m_5p7958535cp2tpgps0400000gn/T//ccXYOr1x.s 			page 36


 1318              		.global	_ZN9UIManager11UpdateStateEv
 1319              		.syntax unified
 1320              		.thumb
 1321              		.thumb_func
 1323              	_ZN9UIManager11UpdateStateEv:
 1324              	.LVL95:
 1325              	.LFB2580:
  35:UIManager.cpp ****   pod_.ProcessDigitalControls();
 1326              		.loc 1 35 30 is_stmt 1 view -0
 1327              		.cfi_startproc
 1328              		@ args = 0, pretend = 0, frame = 0
 1329              		@ frame_needed = 0, uses_anonymous_args = 0
  36:UIManager.cpp ****   // TODO: change this to encoder pressed?? 
 1330              		.loc 1 36 3 view .LVU313
  35:UIManager.cpp ****   pod_.ProcessDigitalControls();
 1331              		.loc 1 35 30 is_stmt 0 view .LVU314
 1332 0000 10B5     		push	{r4, lr}
 1333              		.cfi_def_cfa_offset 8
 1334              		.cfi_offset 4, -8
 1335              		.cfi_offset 14, -4
  35:UIManager.cpp ****   pod_.ProcessDigitalControls();
 1336              		.loc 1 35 30 view .LVU315
 1337 0002 0446     		mov	r4, r0
  36:UIManager.cpp ****   // TODO: change this to encoder pressed?? 
 1338              		.loc 1 36 30 view .LVU316
 1339 0004 0068     		ldr	r0, [r0]
 1340              	.LVL96:
  36:UIManager.cpp ****   // TODO: change this to encoder pressed?? 
 1341              		.loc 1 36 30 view .LVU317
 1342 0006 FFF7FEFF 		bl	_ZN5daisy8DaisyPod22ProcessDigitalControlsEv
 1343              	.LVL97:
  38:UIManager.cpp ****     switch(current_state_){
 1344              		.loc 1 38 3 is_stmt 1 view .LVU318
  38:UIManager.cpp ****     switch(current_state_){
 1345              		.loc 1 38 21 is_stmt 0 view .LVU319
 1346 000a 2046     		mov	r0, r4
 1347 000c FFF7FEFF 		bl	_ZN9UIManager14Button1PressedEv
 1348              	.LVL98:
  38:UIManager.cpp ****     switch(current_state_){
 1349              		.loc 1 38 3 view .LVU320
 1350 0010 40B1     		cbz	r0, .L93
  39:UIManager.cpp ****       case AppState::Startup:
 1351              		.loc 1 39 5 is_stmt 1 view .LVU321
 1352 0012 6368     		ldr	r3, [r4, #4]
 1353 0014 032B     		cmp	r3, #3
 1354 0016 05D8     		bhi	.L93
 1355 0018 DFE803F0 		tbb	[pc, r3]
 1356              	.L95:
 1357 001c 02       		.byte	(.L98-.L95)/2
 1358 001d 28       		.byte	(.L97-.L95)/2
 1359 001e 2A       		.byte	(.L96-.L95)/2
 1360 001f 2F       		.byte	(.L94-.L95)/2
 1361              		.p2align 1
 1362              	.L98:
  40:UIManager.cpp ****         current_state_ = AppState::SelectFile; 
 1363              		.loc 1 40 7 view .LVU322
  41:UIManager.cpp ****         break;
ARM GAS  /var/folders/2p/02m_5p7958535cp2tpgps0400000gn/T//ccXYOr1x.s 			page 37


 1364              		.loc 1 41 9 view .LVU323
  41:UIManager.cpp ****         break;
 1365              		.loc 1 41 24 is_stmt 0 view .LVU324
 1366 0020 0123     		movs	r3, #1
 1367              	.L115:
  44:UIManager.cpp ****         // NOTE: should i select next state (ie playwav) by clicking encoder? or pressing button1? 
 1368              		.loc 1 44 24 view .LVU325
 1369 0022 6360     		str	r3, [r4, #4]
  46:UIManager.cpp ****       case AppState::PlayWAV:
 1370              		.loc 1 46 9 is_stmt 1 view .LVU326
 1371              	.L93:
  59:UIManager.cpp ****     switch(current_state_){
 1372              		.loc 1 59 3 view .LVU327
  59:UIManager.cpp ****     switch(current_state_){
 1373              		.loc 1 59 21 is_stmt 0 view .LVU328
 1374 0024 2046     		mov	r0, r4
 1375 0026 FFF7FEFF 		bl	_ZN9UIManager14Button2PressedEv
 1376              	.LVL99:
  59:UIManager.cpp ****     switch(current_state_){
 1377              		.loc 1 59 3 view .LVU329
 1378 002a 38B1     		cbz	r0, .L99
  60:UIManager.cpp ****       case AppState::Synthesis:
 1379              		.loc 1 60 5 is_stmt 1 view .LVU330
 1380 002c 6368     		ldr	r3, [r4, #4]
 1381 002e 032B     		cmp	r3, #3
 1382 0030 04D1     		bne	.L99
  61:UIManager.cpp ****         ToggleRandomnessControls();
 1383              		.loc 1 61 7 view .LVU331
  62:UIManager.cpp ****         SetLedRandomMode();
 1384              		.loc 1 62 9 view .LVU332
  62:UIManager.cpp ****         SetLedRandomMode();
 1385              		.loc 1 62 33 is_stmt 0 view .LVU333
 1386 0032 2046     		mov	r0, r4
 1387 0034 FFF7FEFF 		bl	_ZN9UIManager24ToggleRandomnessControlsEv
 1388              	.LVL100:
  63:UIManager.cpp ****         break;
 1389              		.loc 1 63 9 is_stmt 1 view .LVU334
  63:UIManager.cpp ****         break;
 1390              		.loc 1 63 25 is_stmt 0 view .LVU335
 1391 0038 FFF7FEFF 		bl	_ZN9UIManager16SetLedRandomModeEv
 1392              	.LVL101:
  64:UIManager.cpp ****       default:
 1393              		.loc 1 64 9 is_stmt 1 view .LVU336
 1394              	.L99:
  70:UIManager.cpp ****     switch (current_state_){
 1395              		.loc 1 70 3 view .LVU337
  70:UIManager.cpp ****     switch (current_state_){
 1396              		.loc 1 70 23 is_stmt 0 view .LVU338
 1397 003c 2046     		mov	r0, r4
 1398 003e FFF7FEFF 		bl	_ZN9UIManager16EncoderLongPressEv
 1399              	.LVL102:
  70:UIManager.cpp ****     switch (current_state_){
 1400              		.loc 1 70 3 view .LVU339
 1401 0042 48B1     		cbz	r0, .L100
  71:UIManager.cpp ****       case AppState::Synthesis:
 1402              		.loc 1 71 5 is_stmt 1 view .LVU340
  71:UIManager.cpp ****       case AppState::Synthesis:
ARM GAS  /var/folders/2p/02m_5p7958535cp2tpgps0400000gn/T//ccXYOr1x.s 			page 38


 1403              		.loc 1 71 13 is_stmt 0 view .LVU341
 1404 0044 6368     		ldr	r3, [r4, #4]
  71:UIManager.cpp ****       case AppState::Synthesis:
 1405              		.loc 1 71 5 view .LVU342
 1406 0046 012B     		cmp	r3, #1
 1407 0048 1BD0     		beq	.L101
 1408 004a 032B     		cmp	r3, #3
 1409 004c 04D1     		bne	.L100
  72:UIManager.cpp ****         pod_.StopAudio();
 1410              		.loc 1 72 7 is_stmt 1 view .LVU343
  73:UIManager.cpp ****         current_state_ = AppState::SelectFile;
 1411              		.loc 1 73 9 view .LVU344
  73:UIManager.cpp ****         current_state_ = AppState::SelectFile;
 1412              		.loc 1 73 23 is_stmt 0 view .LVU345
 1413 004e 2068     		ldr	r0, [r4]
 1414 0050 FFF7FEFF 		bl	_ZN5daisy8DaisyPod9StopAudioEv
 1415              	.LVL103:
  74:UIManager.cpp ****         // StartLedPulse();
 1416              		.loc 1 74 9 is_stmt 1 view .LVU346
  74:UIManager.cpp ****         // StartLedPulse();
 1417              		.loc 1 74 24 is_stmt 0 view .LVU347
 1418 0054 0123     		movs	r3, #1
 1419              	.L116:
  78:UIManager.cpp ****         break;
 1420              		.loc 1 78 24 view .LVU348
 1421 0056 6360     		str	r3, [r4, #4]
  79:UIManager.cpp ****       default:
 1422              		.loc 1 79 9 is_stmt 1 view .LVU349
 1423              	.L100:
  84:UIManager.cpp ****     if (current_state_ == AppState::RecordIn){
 1424              		.loc 1 84 3 view .LVU350
  84:UIManager.cpp ****     if (current_state_ == AppState::RecordIn){
 1425              		.loc 1 84 21 is_stmt 0 view .LVU351
 1426 0058 2046     		mov	r0, r4
 1427 005a FFF7FEFF 		bl	_ZN9UIManager14EncoderPressedEv
 1428              	.LVL104:
  84:UIManager.cpp ****     if (current_state_ == AppState::RecordIn){
 1429              		.loc 1 84 3 view .LVU352
 1430 005e 20B1     		cbz	r0, .L92
  85:UIManager.cpp ****       current_state_ = AppState::Synthesis;
 1431              		.loc 1 85 5 is_stmt 1 view .LVU353
 1432 0060 6368     		ldr	r3, [r4, #4]
 1433 0062 042B     		cmp	r3, #4
  86:UIManager.cpp ****     }
 1434              		.loc 1 86 7 view .LVU354
  86:UIManager.cpp ****     }
 1435              		.loc 1 86 22 is_stmt 0 view .LVU355
 1436 0064 04BF     		itt	eq
 1437 0066 0323     		moveq	r3, #3
 1438 0068 6360     		streq	r3, [r4, #4]
 1439              	.L92:
  89:UIManager.cpp **** 
 1440              		.loc 1 89 1 view .LVU356
 1441 006a 10BD     		pop	{r4, pc}
 1442              	.LVL105:
 1443              	.L97:
  43:UIManager.cpp ****         current_state_ = AppState::PlayWAV;
ARM GAS  /var/folders/2p/02m_5p7958535cp2tpgps0400000gn/T//ccXYOr1x.s 			page 39


 1444              		.loc 1 43 7 is_stmt 1 view .LVU357
  44:UIManager.cpp ****         // NOTE: should i select next state (ie playwav) by clicking encoder? or pressing button1? 
 1445              		.loc 1 44 9 view .LVU358
  44:UIManager.cpp ****         // NOTE: should i select next state (ie playwav) by clicking encoder? or pressing button1? 
 1446              		.loc 1 44 24 is_stmt 0 view .LVU359
 1447 006c 0223     		movs	r3, #2
 1448 006e D8E7     		b	.L115
 1449              	.L96:
  47:UIManager.cpp ****         current_state_ = AppState::Synthesis;
 1450              		.loc 1 47 7 is_stmt 1 view .LVU360
  48:UIManager.cpp ****         synth_mode_ = SynthMode::Size_Position;
 1451              		.loc 1 48 9 view .LVU361
  49:UIManager.cpp ****         // StopLedPulse(); 
 1452              		.loc 1 49 21 is_stmt 0 view .LVU362
 1453 0070 0322     		movs	r2, #3
 1454 0072 0023     		movs	r3, #0
 1455 0074 C4E90123 		strd	r2, r3, [r4, #4]
  51:UIManager.cpp ****       case AppState::Synthesis:
 1456              		.loc 1 51 9 is_stmt 1 view .LVU363
 1457 0078 D4E7     		b	.L93
 1458              	.L94:
  52:UIManager.cpp ****         UpdateSynthMode();
 1459              		.loc 1 52 7 view .LVU364
  53:UIManager.cpp ****         break;
 1460              		.loc 1 53 9 view .LVU365
  53:UIManager.cpp ****         break;
 1461              		.loc 1 53 24 is_stmt 0 view .LVU366
 1462 007a 2046     		mov	r0, r4
 1463 007c FFF7FEFF 		bl	_ZN9UIManager15UpdateSynthModeEv
 1464              	.LVL106:
  54:UIManager.cpp ****       default:
 1465              		.loc 1 54 9 is_stmt 1 view .LVU367
 1466 0080 D0E7     		b	.L93
 1467              	.L101:
  77:UIManager.cpp ****         current_state_ = AppState::RecordIn;
 1468              		.loc 1 77 7 view .LVU368
  78:UIManager.cpp ****         break;
 1469              		.loc 1 78 9 view .LVU369
  78:UIManager.cpp ****         break;
 1470              		.loc 1 78 24 is_stmt 0 view .LVU370
 1471 0082 0423     		movs	r3, #4
 1472 0084 E7E7     		b	.L116
 1473              		.cfi_endproc
 1474              	.LFE2580:
 1476              		.section	.text._ZN9UIManager8UpdateUIEv,"ax",%progbits
 1477              		.align	1
 1478              		.global	_ZN9UIManager8UpdateUIEv
 1479              		.syntax unified
 1480              		.thumb
 1481              		.thumb_func
 1483              	_ZN9UIManager8UpdateUIEv:
 1484              	.LVL107:
 1485              	.LFB2578:
  10:UIManager.cpp ****   if (!crash_error){
 1486              		.loc 1 10 27 is_stmt 1 view -0
 1487              		.cfi_startproc
 1488              		@ args = 0, pretend = 0, frame = 0
ARM GAS  /var/folders/2p/02m_5p7958535cp2tpgps0400000gn/T//ccXYOr1x.s 			page 40


 1489              		@ frame_needed = 0, uses_anonymous_args = 0
  11:UIManager.cpp ****     UpdateKnobs();
 1490              		.loc 1 11 3 view .LVU372
 1491 0000 C37C     		ldrb	r3, [r0, #19]	@ zero_extendqisi2
  10:UIManager.cpp ****   if (!crash_error){
 1492              		.loc 1 10 27 is_stmt 0 view .LVU373
 1493 0002 10B5     		push	{r4, lr}
 1494              		.cfi_def_cfa_offset 8
 1495              		.cfi_offset 4, -8
 1496              		.cfi_offset 14, -4
  10:UIManager.cpp ****   if (!crash_error){
 1497              		.loc 1 10 27 view .LVU374
 1498 0004 0446     		mov	r4, r0
  11:UIManager.cpp ****     UpdateKnobs();
 1499              		.loc 1 11 3 view .LVU375
 1500 0006 33B9     		cbnz	r3, .L117
  12:UIManager.cpp ****       
 1501              		.loc 1 12 5 is_stmt 1 view .LVU376
  12:UIManager.cpp ****       
 1502              		.loc 1 12 16 is_stmt 0 view .LVU377
 1503 0008 FFF7FEFF 		bl	_ZN9UIManager11UpdateKnobsEv
 1504              	.LVL108:
  14:UIManager.cpp ****     // UpdateSynthMode();
 1505              		.loc 1 14 5 is_stmt 1 view .LVU378
  14:UIManager.cpp ****     // UpdateSynthMode();
 1506              		.loc 1 14 16 is_stmt 0 view .LVU379
 1507 000c 2046     		mov	r0, r4
  17:UIManager.cpp **** 
 1508              		.loc 1 17 1 view .LVU380
 1509 000e BDE81040 		pop	{r4, lr}
 1510              		.cfi_remember_state
 1511              		.cfi_restore 14
 1512              		.cfi_restore 4
 1513              		.cfi_def_cfa_offset 0
 1514              	.LVL109:
  14:UIManager.cpp ****     // UpdateSynthMode();
 1515              		.loc 1 14 16 view .LVU381
 1516 0012 FFF7FEBF 		b	_ZN9UIManager11UpdateStateEv
 1517              	.LVL110:
 1518              	.L117:
 1519              		.cfi_restore_state
  17:UIManager.cpp **** 
 1520              		.loc 1 17 1 view .LVU382
 1521 0016 10BD     		pop	{r4, pc}
 1522              		.cfi_endproc
 1523              	.LFE2578:
 1525              		.section	.text._ZN9UIManager8BlinkLedEiiib,"ax",%progbits
 1526              		.align	1
 1527              		.global	_ZN9UIManager8BlinkLedEiiib
 1528              		.syntax unified
 1529              		.thumb
 1530              		.thumb_func
 1532              	_ZN9UIManager8BlinkLedEiiib:
 1533              	.LVL111:
 1534              	.LFB2604:
 354:UIManager.cpp **** 
 355:UIManager.cpp **** void UIManager::BlinkLed(int r, int g, int b, bool is_Led1){
ARM GAS  /var/folders/2p/02m_5p7958535cp2tpgps0400000gn/T//ccXYOr1x.s 			page 41


 1535              		.loc 1 355 60 is_stmt 1 view -0
 1536              		.cfi_startproc
 1537              		@ args = 4, pretend = 0, frame = 0
 1538              		@ frame_needed = 0, uses_anonymous_args = 0
 356:UIManager.cpp ****   SetLed(r,g,b, is_Led1);
 1539              		.loc 1 356 3 view .LVU384
 355:UIManager.cpp ****   SetLed(r,g,b, is_Led1);
 1540              		.loc 1 355 60 is_stmt 0 view .LVU385
 1541 0000 37B5     		push	{r0, r1, r2, r4, r5, lr}
 1542              		.cfi_def_cfa_offset 24
 1543              		.cfi_offset 4, -12
 1544              		.cfi_offset 5, -8
 1545              		.cfi_offset 14, -4
 355:UIManager.cpp ****   SetLed(r,g,b, is_Led1);
 1546              		.loc 1 355 60 view .LVU386
 1547 0002 9DF81850 		ldrb	r5, [sp, #24]	@ zero_extendqisi2
 1548 0006 0446     		mov	r4, r0
 1549              		.loc 1 356 9 view .LVU387
 1550 0008 0095     		str	r5, [sp]
 1551 000a FFF7FEFF 		bl	_ZN9UIManager6SetLedEiiib
 1552              	.LVL112:
 357:UIManager.cpp ****   System::Delay(100);
 1553              		.loc 1 357 3 is_stmt 1 view .LVU388
 1554              		.loc 1 357 16 is_stmt 0 view .LVU389
 1555 000e 6420     		movs	r0, #100
 1556 0010 FFF7FEFF 		bl	_ZN5daisy6System5DelayEm
 1557              	.LVL113:
 358:UIManager.cpp ****   SetLed(0,0,0, is_Led1);
 1558              		.loc 1 358 3 is_stmt 1 view .LVU390
 1559              		.loc 1 358 9 is_stmt 0 view .LVU391
 1560 0014 0023     		movs	r3, #0
 1561 0016 2046     		mov	r0, r4
 1562 0018 0695     		str	r5, [sp, #24]
 1563              	.LVL114:
 1564              		.loc 1 358 9 view .LVU392
 1565 001a 1A46     		mov	r2, r3
 1566 001c 1946     		mov	r1, r3
 359:UIManager.cpp **** }
 1567              		.loc 1 359 1 view .LVU393
 1568 001e 03B0     		add	sp, sp, #12
 1569              		.cfi_def_cfa_offset 12
 1570              		@ sp needed
 1571 0020 BDE83040 		pop	{r4, r5, lr}
 1572              		.cfi_restore 14
 1573              		.cfi_restore 5
 1574              		.cfi_restore 4
 1575              		.cfi_def_cfa_offset 0
 1576              	.LVL115:
 358:UIManager.cpp ****   SetLed(0,0,0, is_Led1);
 1577              		.loc 1 358 9 view .LVU394
 1578 0024 FFF7FEBF 		b	_ZN9UIManager6SetLedEiiib
 1579              	.LVL116:
 358:UIManager.cpp ****   SetLed(0,0,0, is_Led1);
 1580              		.loc 1 358 9 view .LVU395
 1581              		.cfi_endproc
 1582              	.LFE2604:
 1584              		.section	.text._ZN9UIManager11BlinkSetLedEiiib,"ax",%progbits
ARM GAS  /var/folders/2p/02m_5p7958535cp2tpgps0400000gn/T//ccXYOr1x.s 			page 42


 1585              		.align	1
 1586              		.global	_ZN9UIManager11BlinkSetLedEiiib
 1587              		.syntax unified
 1588              		.thumb
 1589              		.thumb_func
 1591              	_ZN9UIManager11BlinkSetLedEiiib:
 1592              	.LVL117:
 1593              	.LFB2605:
 360:UIManager.cpp **** 
 361:UIManager.cpp **** void UIManager::BlinkSetLed(int r, int g, int b, bool is_Led1){
 1594              		.loc 1 361 63 is_stmt 1 view -0
 1595              		.cfi_startproc
 1596              		@ args = 4, pretend = 0, frame = 0
 1597              		@ frame_needed = 0, uses_anonymous_args = 0
 362:UIManager.cpp ****   BlinkLed(r,g,b, is_Led1);
 1598              		.loc 1 362 3 view .LVU397
 361:UIManager.cpp ****   BlinkLed(r,g,b, is_Led1);
 1599              		.loc 1 361 63 is_stmt 0 view .LVU398
 1600 0000 2DE9F341 		push	{r0, r1, r4, r5, r6, r7, r8, lr}
 1601              		.cfi_def_cfa_offset 32
 1602              		.cfi_offset 4, -24
 1603              		.cfi_offset 5, -20
 1604              		.cfi_offset 6, -16
 1605              		.cfi_offset 7, -12
 1606              		.cfi_offset 8, -8
 1607              		.cfi_offset 14, -4
 361:UIManager.cpp ****   BlinkLed(r,g,b, is_Led1);
 1608              		.loc 1 361 63 view .LVU399
 1609 0004 9DF82080 		ldrb	r8, [sp, #32]	@ zero_extendqisi2
 1610 0008 0446     		mov	r4, r0
 1611 000a 0D46     		mov	r5, r1
 1612 000c 1646     		mov	r6, r2
 1613 000e 1F46     		mov	r7, r3
 1614              		.loc 1 362 11 view .LVU400
 1615 0010 CDF80080 		str	r8, [sp]
 1616 0014 FFF7FEFF 		bl	_ZN9UIManager8BlinkLedEiiib
 1617              	.LVL118:
 363:UIManager.cpp ****   System::Delay(100);
 1618              		.loc 1 363 3 is_stmt 1 view .LVU401
 1619              		.loc 1 363 16 is_stmt 0 view .LVU402
 1620 0018 6420     		movs	r0, #100
 1621 001a FFF7FEFF 		bl	_ZN5daisy6System5DelayEm
 1622              	.LVL119:
 364:UIManager.cpp ****   BlinkLed(r,g,b, is_Led1);
 1623              		.loc 1 364 3 is_stmt 1 view .LVU403
 1624              		.loc 1 364 11 is_stmt 0 view .LVU404
 1625 001e 3B46     		mov	r3, r7
 1626 0020 3246     		mov	r2, r6
 1627 0022 2946     		mov	r1, r5
 1628 0024 2046     		mov	r0, r4
 1629 0026 CDF80080 		str	r8, [sp]
 1630 002a FFF7FEFF 		bl	_ZN9UIManager8BlinkLedEiiib
 1631              	.LVL120:
 365:UIManager.cpp ****   System::Delay(100);
 1632              		.loc 1 365 3 is_stmt 1 view .LVU405
 1633              		.loc 1 365 16 is_stmt 0 view .LVU406
 1634 002e 6420     		movs	r0, #100
ARM GAS  /var/folders/2p/02m_5p7958535cp2tpgps0400000gn/T//ccXYOr1x.s 			page 43


 1635 0030 FFF7FEFF 		bl	_ZN5daisy6System5DelayEm
 1636              	.LVL121:
 366:UIManager.cpp ****   SetLed(r,g,b, is_Led1);
 1637              		.loc 1 366 3 is_stmt 1 view .LVU407
 1638              		.loc 1 366 9 is_stmt 0 view .LVU408
 1639 0034 3B46     		mov	r3, r7
 1640 0036 3246     		mov	r2, r6
 1641 0038 2946     		mov	r1, r5
 1642 003a 2046     		mov	r0, r4
 1643 003c CDF82080 		str	r8, [sp, #32]
 1644              	.LVL122:
 367:UIManager.cpp **** }
 1645              		.loc 1 367 1 view .LVU409
 1646 0040 02B0     		add	sp, sp, #8
 1647              		.cfi_def_cfa_offset 24
 1648              		@ sp needed
 1649 0042 BDE8F041 		pop	{r4, r5, r6, r7, r8, lr}
 1650              		.cfi_restore 14
 1651              		.cfi_restore 8
 1652              		.cfi_restore 7
 1653              		.cfi_restore 6
 1654              		.cfi_restore 5
 1655              		.cfi_restore 4
 1656              		.cfi_def_cfa_offset 0
 1657              	.LVL123:
 366:UIManager.cpp ****   SetLed(r,g,b, is_Led1);
 1658              		.loc 1 366 9 view .LVU410
 1659 0046 FFF7FEBF 		b	_ZN9UIManager6SetLedEiiib
 1660              	.LVL124:
 366:UIManager.cpp ****   SetLed(r,g,b, is_Led1);
 1661              		.loc 1 366 9 view .LVU411
 1662              		.cfi_endproc
 1663              	.LFE2605:
 1665              		.section	.text._ZN9UIManager15SetLedSynthModeEv,"ax",%progbits
 1666              		.align	1
 1667              		.global	_ZN9UIManager15SetLedSynthModeEv
 1668              		.syntax unified
 1669              		.thumb
 1670              		.thumb_func
 1672              	_ZN9UIManager15SetLedSynthModeEv:
 1673              	.LVL125:
 1674              	.LFB2599:
 292:UIManager.cpp ****   switch(synth_mode_){
 1675              		.loc 1 292 34 is_stmt 1 view -0
 1676              		.cfi_startproc
 1677              		@ args = 0, pretend = 0, frame = 0
 1678              		@ frame_needed = 0, uses_anonymous_args = 0
 293:UIManager.cpp ****     case SynthMode::Size_Position:
 1679              		.loc 1 293 3 view .LVU413
 1680 0000 8368     		ldr	r3, [r0, #8]
 292:UIManager.cpp ****   switch(synth_mode_){
 1681              		.loc 1 292 34 is_stmt 0 view .LVU414
 1682 0002 07B5     		push	{r0, r1, r2, lr}
 1683              		.cfi_def_cfa_offset 16
 1684              		.cfi_offset 14, -4
 293:UIManager.cpp ****     case SynthMode::Size_Position:
 1685              		.loc 1 293 3 view .LVU415
ARM GAS  /var/folders/2p/02m_5p7958535cp2tpgps0400000gn/T//ccXYOr1x.s 			page 44


 1686 0004 062B     		cmp	r3, #6
 1687 0006 0CD8     		bhi	.L121
 1688 0008 DFE803F0 		tbb	[pc, r3]
 1689              	.L124:
 1690 000c 04       		.byte	(.L127-.L124)/2
 1691 000d 0E       		.byte	(.L126-.L124)/2
 1692 000e 16       		.byte	(.L125-.L124)/2
 1693 000f 0B       		.byte	(.L121-.L124)/2
 1694 0010 0B       		.byte	(.L121-.L124)/2
 1695 0011 0B       		.byte	(.L121-.L124)/2
 1696 0012 1C       		.byte	(.L123-.L124)/2
 1697 0013 00       		.p2align 1
 1698              	.L127:
 294:UIManager.cpp ****       SetLed(0,255,0,true);
 1699              		.loc 1 294 5 is_stmt 1 view .LVU416
 295:UIManager.cpp ****       break;
 1700              		.loc 1 295 7 view .LVU417
 295:UIManager.cpp ****       break;
 1701              		.loc 1 295 13 is_stmt 0 view .LVU418
 1702 0014 0123     		movs	r3, #1
 1703 0016 FF22     		movs	r2, #255
 1704 0018 0093     		str	r3, [sp]
 1705 001a 0023     		movs	r3, #0
 1706 001c 1946     		mov	r1, r3
 1707 001e FFF7FEFF 		bl	_ZN9UIManager6SetLedEiiib
 1708              	.LVL126:
 296:UIManager.cpp ****     case SynthMode::Pitch_ActiveGrains:
 1709              		.loc 1 296 7 is_stmt 1 view .LVU419
 1710              	.L121:
 312:UIManager.cpp **** 
 1711              		.loc 1 312 1 is_stmt 0 view .LVU420
 1712 0022 03B0     		add	sp, sp, #12
 1713              		.cfi_remember_state
 1714              		.cfi_def_cfa_offset 4
 1715              		@ sp needed
 1716 0024 5DF804FB 		ldr	pc, [sp], #4
 1717              	.LVL127:
 1718              	.L126:
 1719              		.cfi_restore_state
 297:UIManager.cpp ****     // orange: 100, 64, 0 or 255, 165, 0 or 255, 91, 31 (neon orange)
 1720              		.loc 1 297 5 is_stmt 1 view .LVU421
 299:UIManager.cpp ****       break;
 1721              		.loc 1 299 7 view .LVU422
 299:UIManager.cpp ****       break;
 1722              		.loc 1 299 18 is_stmt 0 view .LVU423
 1723 0028 0123     		movs	r3, #1
 1724 002a 5B22     		movs	r2, #91
 1725 002c FF21     		movs	r1, #255
 1726 002e 0093     		str	r3, [sp]
 1727 0030 1F23     		movs	r3, #31
 1728              	.L128:
 307:UIManager.cpp ****       break;
 1729              		.loc 1 307 18 view .LVU424
 1730 0032 FFF7FEFF 		bl	_ZN9UIManager11BlinkSetLedEiiib
 1731              	.LVL128:
 308:UIManager.cpp ****     default:
 1732              		.loc 1 308 7 is_stmt 1 view .LVU425
ARM GAS  /var/folders/2p/02m_5p7958535cp2tpgps0400000gn/T//ccXYOr1x.s 			page 45


 312:UIManager.cpp **** 
 1733              		.loc 1 312 1 is_stmt 0 view .LVU426
 1734 0036 F4E7     		b	.L121
 1735              	.LVL129:
 1736              	.L125:
 301:UIManager.cpp ****     // 0, 0, 255 blue
 1737              		.loc 1 301 5 is_stmt 1 view .LVU427
 303:UIManager.cpp ****       break;
 1738              		.loc 1 303 7 view .LVU428
 303:UIManager.cpp ****       break;
 1739              		.loc 1 303 18 is_stmt 0 view .LVU429
 1740 0038 0123     		movs	r3, #1
 1741 003a 0022     		movs	r2, #0
 1742 003c 0093     		str	r3, [sp]
 1743 003e 1146     		mov	r1, r2
 1744 0040 FF23     		movs	r3, #255
 1745 0042 F6E7     		b	.L128
 1746              	.L123:
 305:UIManager.cpp ****     // fuschia: 255,0,255
 1747              		.loc 1 305 5 is_stmt 1 view .LVU430
 307:UIManager.cpp ****       break;
 1748              		.loc 1 307 7 view .LVU431
 307:UIManager.cpp ****       break;
 1749              		.loc 1 307 18 is_stmt 0 view .LVU432
 1750 0044 0123     		movs	r3, #1
 1751 0046 0022     		movs	r2, #0
 1752 0048 0093     		str	r3, [sp]
 1753 004a FF23     		movs	r3, #255
 1754 004c 1946     		mov	r1, r3
 1755 004e F0E7     		b	.L128
 1756              		.cfi_endproc
 1757              	.LFE2599:
 1759              		.section	.text._ZN9UIManager16LedPulseCallbackEv,"ax",%progbits
 1760              		.align	1
 1761              		.global	_ZN9UIManager16LedPulseCallbackEv
 1762              		.syntax unified
 1763              		.thumb
 1764              		.thumb_func
 1766              	_ZN9UIManager16LedPulseCallbackEv:
 1767              	.LVL130:
 1768              	.LFB2598:
 245:UIManager.cpp ****   if (pulse_increasing_){
 1769              		.loc 1 245 35 is_stmt 1 view -0
 1770              		.cfi_startproc
 1771              		@ args = 0, pretend = 0, frame = 0
 1772              		@ frame_needed = 0, uses_anonymous_args = 0
 246:UIManager.cpp ****     /* NOTE: increase step (in header) and period to reduce processing cost */
 1773              		.loc 1 246 3 view .LVU434
 1774 0000 027C     		ldrb	r2, [r0, #16]	@ zero_extendqisi2
 245:UIManager.cpp ****   if (pulse_increasing_){
 1775              		.loc 1 245 35 is_stmt 0 view .LVU435
 1776 0002 13B5     		push	{r0, r1, r4, lr}
 1777              		.cfi_def_cfa_offset 16
 1778              		.cfi_offset 4, -8
 1779              		.cfi_offset 14, -4
 245:UIManager.cpp ****   if (pulse_increasing_){
 1780              		.loc 1 245 35 view .LVU436
ARM GAS  /var/folders/2p/02m_5p7958535cp2tpgps0400000gn/T//ccXYOr1x.s 			page 46


 1781 0004 0446     		mov	r4, r0
 248:UIManager.cpp ****     if (pulse_brightness_ >= 255 - PULSE_STEP){
 1782              		.loc 1 248 23 view .LVU437
 1783 0006 437C     		ldrb	r3, [r0, #17]	@ zero_extendqisi2
 246:UIManager.cpp ****     /* NOTE: increase step (in header) and period to reduce processing cost */
 1784              		.loc 1 246 3 view .LVU438
 1785 0008 8AB1     		cbz	r2, .L130
 248:UIManager.cpp ****     if (pulse_brightness_ >= 255 - PULSE_STEP){
 1786              		.loc 1 248 5 is_stmt 1 view .LVU439
 248:UIManager.cpp ****     if (pulse_brightness_ >= 255 - PULSE_STEP){
 1787              		.loc 1 248 23 is_stmt 0 view .LVU440
 1788 000a 0533     		adds	r3, r3, #5
 1789 000c DBB2     		uxtb	r3, r3
 249:UIManager.cpp ****       pulse_brightness_ = 255;
 1790              		.loc 1 249 5 is_stmt 1 view .LVU441
 1791 000e F92B     		cmp	r3, #249
 1792 0010 09D8     		bhi	.L131
 248:UIManager.cpp ****     if (pulse_brightness_ >= 255 - PULSE_STEP){
 1793              		.loc 1 248 23 is_stmt 0 view .LVU442
 1794 0012 4374     		strb	r3, [r0, #17]
 1795              	.L132:
 262:UIManager.cpp ****     /* pulse blue */
 1796              		.loc 1 262 3 is_stmt 1 view .LVU443
 1797 0014 6368     		ldr	r3, [r4, #4]
 1798 0016 013B     		subs	r3, r3, #1
 1799 0018 042B     		cmp	r3, #4
 1800 001a 3DD8     		bhi	.L129
 1801 001c DFE803F0 		tbb	[pc, r3]
 1802              	.L136:
 1803 0020 11       		.byte	(.L140-.L136)/2
 1804 0021 21       		.byte	(.L139-.L136)/2
 1805 0022 31       		.byte	(.L138-.L136)/2
 1806 0023 19       		.byte	(.L137-.L136)/2
 1807 0024 29       		.byte	(.L135-.L136)/2
 1808 0025 00       		.p2align 1
 1809              	.L131:
 250:UIManager.cpp ****       pulse_increasing_ = false;
 1810              		.loc 1 250 7 view .LVU444
 251:UIManager.cpp ****     }
 1811              		.loc 1 251 7 view .LVU445
 251:UIManager.cpp ****     }
 1812              		.loc 1 251 25 is_stmt 0 view .LVU446
 1813 0026 4FF47F43 		mov	r3, #65280
 1814              	.L142:
 259:UIManager.cpp ****     }
 1815              		.loc 1 259 25 view .LVU447
 1816 002a 2382     		strh	r3, [r4, #16]	@ movhi
 1817 002c F2E7     		b	.L132
 1818              	.L130:
 255:UIManager.cpp ****     if (pulse_brightness_ <= PULSE_STEP){
 1819              		.loc 1 255 5 is_stmt 1 view .LVU448
 255:UIManager.cpp ****     if (pulse_brightness_ <= PULSE_STEP){
 1820              		.loc 1 255 23 is_stmt 0 view .LVU449
 1821 002e 053B     		subs	r3, r3, #5
 1822 0030 DBB2     		uxtb	r3, r3
 256:UIManager.cpp ****       pulse_count_++;
 1823              		.loc 1 256 5 view .LVU450
ARM GAS  /var/folders/2p/02m_5p7958535cp2tpgps0400000gn/T//ccXYOr1x.s 			page 47


 1824 0032 052B     		cmp	r3, #5
 255:UIManager.cpp ****     if (pulse_brightness_ <= PULSE_STEP){
 1825              		.loc 1 255 23 view .LVU451
 1826 0034 4374     		strb	r3, [r0, #17]
 256:UIManager.cpp ****       pulse_count_++;
 1827              		.loc 1 256 5 is_stmt 1 view .LVU452
 1828 0036 EDD8     		bhi	.L132
 257:UIManager.cpp ****       pulse_brightness_ = 0;
 1829              		.loc 1 257 7 view .LVU453
 257:UIManager.cpp ****       pulse_brightness_ = 0;
 1830              		.loc 1 257 19 is_stmt 0 view .LVU454
 1831 0038 837C     		ldrb	r3, [r0, #18]	@ zero_extendqisi2
 1832 003a 0133     		adds	r3, r3, #1
 1833 003c 8374     		strb	r3, [r0, #18]
 258:UIManager.cpp ****       pulse_increasing_ = true;
 1834              		.loc 1 258 7 is_stmt 1 view .LVU455
 259:UIManager.cpp ****     }
 1835              		.loc 1 259 7 view .LVU456
 259:UIManager.cpp ****     }
 1836              		.loc 1 259 25 is_stmt 0 view .LVU457
 1837 003e 0123     		movs	r3, #1
 1838 0040 F3E7     		b	.L142
 1839              	.L140:
 264:UIManager.cpp ****       SetLed(0,0, pulse_brightness_, true);
 1840              		.loc 1 264 5 is_stmt 1 view .LVU458
 265:UIManager.cpp ****     /* pulse white */
 1841              		.loc 1 265 7 view .LVU459
 265:UIManager.cpp ****     /* pulse white */
 1842              		.loc 1 265 13 is_stmt 0 view .LVU460
 1843 0042 0123     		movs	r3, #1
 1844 0044 0022     		movs	r2, #0
 1845 0046 2046     		mov	r0, r4
 1846              	.LVL131:
 265:UIManager.cpp ****     /* pulse white */
 1847              		.loc 1 265 13 view .LVU461
 1848 0048 0093     		str	r3, [sp]
 1849 004a 1146     		mov	r1, r2
 1850 004c 637C     		ldrb	r3, [r4, #17]	@ zero_extendqisi2
 1851 004e FFF7FEFF 		bl	_ZN9UIManager6SetLedEiiib
 1852              	.LVL132:
 1853              	.L137:
 267:UIManager.cpp ****       SetLed(pulse_brightness_, pulse_brightness_, pulse_brightness_, true);
 1854              		.loc 1 267 5 is_stmt 1 view .LVU462
 268:UIManager.cpp ****     /* pulse cyan */
 1855              		.loc 1 268 7 view .LVU463
 268:UIManager.cpp ****     /* pulse cyan */
 1856              		.loc 1 268 13 is_stmt 0 view .LVU464
 1857 0052 637C     		ldrb	r3, [r4, #17]	@ zero_extendqisi2
 1858 0054 0122     		movs	r2, #1
 1859 0056 2046     		mov	r0, r4
 1860 0058 0092     		str	r2, [sp]
 1861 005a 1946     		mov	r1, r3
 1862 005c 1A46     		mov	r2, r3
 1863 005e FFF7FEFF 		bl	_ZN9UIManager6SetLedEiiib
 1864              	.LVL133:
 1865              	.L139:
 270:UIManager.cpp ****       SetLed(0, pulse_brightness_, pulse_brightness_, true);
ARM GAS  /var/folders/2p/02m_5p7958535cp2tpgps0400000gn/T//ccXYOr1x.s 			page 48


 1866              		.loc 1 270 5 is_stmt 1 view .LVU465
 271:UIManager.cpp ****     /* pulse red */
 1867              		.loc 1 271 7 view .LVU466
 271:UIManager.cpp ****     /* pulse red */
 1868              		.loc 1 271 13 is_stmt 0 view .LVU467
 1869 0062 0122     		movs	r2, #1
 1870 0064 637C     		ldrb	r3, [r4, #17]	@ zero_extendqisi2
 1871 0066 0021     		movs	r1, #0
 1872 0068 2046     		mov	r0, r4
 1873 006a 0092     		str	r2, [sp]
 1874 006c 1A46     		mov	r2, r3
 1875 006e FFF7FEFF 		bl	_ZN9UIManager6SetLedEiiib
 1876              	.LVL134:
 1877              	.L135:
 273:UIManager.cpp ****       SetLed(pulse_brightness_,0,0,true);
 1878              		.loc 1 273 5 is_stmt 1 view .LVU468
 274:UIManager.cpp **** 
 1879              		.loc 1 274 7 view .LVU469
 274:UIManager.cpp **** 
 1880              		.loc 1 274 13 is_stmt 0 view .LVU470
 1881 0072 0123     		movs	r3, #1
 1882 0074 617C     		ldrb	r1, [r4, #17]	@ zero_extendqisi2
 1883 0076 2046     		mov	r0, r4
 1884 0078 0093     		str	r3, [sp]
 1885 007a 0023     		movs	r3, #0
 1886 007c 1A46     		mov	r2, r3
 1887 007e FFF7FEFF 		bl	_ZN9UIManager6SetLedEiiib
 1888              	.LVL135:
 1889              	.L138:
 278:UIManager.cpp ****       if (pulse_count_ <= 2){
 1890              		.loc 1 278 5 is_stmt 1 view .LVU471
 279:UIManager.cpp ****         SetLed(0, pulse_brightness_, 0, true);
 1891              		.loc 1 279 7 view .LVU472
 1892 0082 A37C     		ldrb	r3, [r4, #18]	@ zero_extendqisi2
 1893 0084 022B     		cmp	r3, #2
 1894 0086 09D8     		bhi	.L141
 280:UIManager.cpp ****       }
 1895              		.loc 1 280 9 view .LVU473
 280:UIManager.cpp ****       }
 1896              		.loc 1 280 15 is_stmt 0 view .LVU474
 1897 0088 0123     		movs	r3, #1
 1898 008a 627C     		ldrb	r2, [r4, #17]	@ zero_extendqisi2
 1899 008c 2046     		mov	r0, r4
 1900 008e 0093     		str	r3, [sp]
 1901 0090 0023     		movs	r3, #0
 1902 0092 1946     		mov	r1, r3
 1903 0094 FFF7FEFF 		bl	_ZN9UIManager6SetLedEiiib
 1904              	.LVL136:
 1905              	.L129:
 290:UIManager.cpp **** 
 1906              		.loc 1 290 1 view .LVU475
 1907 0098 02B0     		add	sp, sp, #8
 1908              		.cfi_remember_state
 1909              		.cfi_def_cfa_offset 8
 1910              		@ sp needed
 1911 009a 10BD     		pop	{r4, pc}
 1912              	.LVL137:
ARM GAS  /var/folders/2p/02m_5p7958535cp2tpgps0400000gn/T//ccXYOr1x.s 			page 49


 1913              	.L141:
 1914              		.cfi_restore_state
 283:UIManager.cpp ****         SetLedSynthMode();
 1915              		.loc 1 283 9 is_stmt 1 view .LVU476
 1916              	.LBB122:
 1917              	.LBI122:
 340:UIManager.cpp ****   timer_.Stop();
 1918              		.loc 1 340 6 view .LVU477
 1919              	.LBB123:
 341:UIManager.cpp **** }
 1920              		.loc 1 341 3 view .LVU478
 341:UIManager.cpp **** }
 1921              		.loc 1 341 14 is_stmt 0 view .LVU479
 1922 009c 04F10C00 		add	r0, r4, #12
 1923 00a0 FFF7FEFF 		bl	_ZN5daisy11TimerHandle4StopEv
 1924              	.LVL138:
 341:UIManager.cpp **** }
 1925              		.loc 1 341 14 view .LVU480
 1926              	.LBE123:
 1927              	.LBE122:
 284:UIManager.cpp ****       }
 1928              		.loc 1 284 9 is_stmt 1 view .LVU481
 284:UIManager.cpp ****       }
 1929              		.loc 1 284 24 is_stmt 0 view .LVU482
 1930 00a4 2046     		mov	r0, r4
 290:UIManager.cpp **** 
 1931              		.loc 1 290 1 view .LVU483
 1932 00a6 02B0     		add	sp, sp, #8
 1933              		.cfi_def_cfa_offset 8
 1934              		@ sp needed
 1935 00a8 BDE81040 		pop	{r4, lr}
 1936              		.cfi_restore 14
 1937              		.cfi_restore 4
 1938              		.cfi_def_cfa_offset 0
 1939              	.LVL139:
 284:UIManager.cpp ****       }
 1940              		.loc 1 284 24 view .LVU484
 1941 00ac FFF7FEBF 		b	_ZN9UIManager15SetLedSynthModeEv
 1942              	.LVL140:
 284:UIManager.cpp ****       }
 1943              		.loc 1 284 24 view .LVU485
 1944              		.cfi_endproc
 1945              	.LFE2598:
 1947              		.section	.text._ZL17StaticLedCallbackPv,"ax",%progbits
 1948              		.align	1
 1949              		.syntax unified
 1950              		.thumb
 1951              		.thumb_func
 1953              	_ZL17StaticLedCallbackPv:
 1954              	.LVL141:
 1955              	.LFB2596:
 219:UIManager.cpp ****   UIManager* instance = static_cast<UIManager*>(data);
 1956              		.loc 1 219 43 is_stmt 1 view -0
 1957              		.cfi_startproc
 1958              		@ args = 0, pretend = 0, frame = 0
 1959              		@ frame_needed = 0, uses_anonymous_args = 0
 1960              		@ link register save eliminated.
ARM GAS  /var/folders/2p/02m_5p7958535cp2tpgps0400000gn/T//ccXYOr1x.s 			page 50


 220:UIManager.cpp ****   instance->LedPulseCallback();
 1961              		.loc 1 220 3 view .LVU487
 221:UIManager.cpp **** }
 1962              		.loc 1 221 3 view .LVU488
 221:UIManager.cpp **** }
 1963              		.loc 1 221 29 is_stmt 0 view .LVU489
 1964 0000 FFF7FEBF 		b	_ZN9UIManager16LedPulseCallbackEv
 1965              	.LVL142:
 221:UIManager.cpp **** }
 1966              		.loc 1 221 29 view .LVU490
 1967              		.cfi_endproc
 1968              	.LFE2596:
 1970              		.text
 1971              	.Letext0:
 1972              		.file 5 "/Library/DaisyToolchain/0.2.0/arm/arm-none-eabi/include/machine/_default_types.h"
 1973              		.file 6 "/Library/DaisyToolchain/0.2.0/arm/arm-none-eabi/include/sys/_stdint.h"
 1974              		.file 7 "/Library/DaisyToolchain/0.2.0/arm/arm-none-eabi/include/stdint.h"
 1975              		.file 8 "/Library/DaisyToolchain/0.2.0/arm/lib/gcc/arm-none-eabi/10.3.1/include/stddef.h"
 1976              		.file 9 "/Library/DaisyToolchain/0.2.0/arm/arm-none-eabi/include/c++/10.3.1/cmath"
 1977              		.file 10 "/Library/DaisyToolchain/0.2.0/arm/arm-none-eabi/include/c++/10.3.1/bits/std_abs.h"
 1978              		.file 11 "/Library/DaisyToolchain/0.2.0/arm/arm-none-eabi/include/c++/10.3.1/cstdlib"
 1979              		.file 12 "/Library/DaisyToolchain/0.2.0/arm/arm-none-eabi/include/c++/10.3.1/cstdint"
 1980              		.file 13 "/Library/DaisyToolchain/0.2.0/arm/arm-none-eabi/include/c++/10.3.1/arm-none-eabi/thumb/v
 1981              		.file 14 "/Library/DaisyToolchain/0.2.0/arm/arm-none-eabi/include/c++/10.3.1/type_traits"
 1982              		.file 15 "/Library/DaisyToolchain/0.2.0/arm/arm-none-eabi/include/c++/10.3.1/debug/debug.h"
 1983              		.file 16 "/Library/DaisyToolchain/0.2.0/arm/arm-none-eabi/include/c++/10.3.1/bits/algorithmfwd.h"
 1984              		.file 17 "/Library/DaisyToolchain/0.2.0/arm/arm-none-eabi/include/c++/10.3.1/bits/stl_pair.h"
 1985              		.file 18 "/Library/DaisyToolchain/0.2.0/arm/arm-none-eabi/include/c++/10.3.1/bits/exception_ptr.h"
 1986              		.file 19 "/Library/DaisyToolchain/0.2.0/arm/arm-none-eabi/include/c++/10.3.1/initializer_list"
 1987              		.file 20 "/Library/DaisyToolchain/0.2.0/arm/arm-none-eabi/include/c++/10.3.1/cstdarg"
 1988              		.file 21 "/Library/DaisyToolchain/0.2.0/arm/arm-none-eabi/include/c++/10.3.1/cstdio"
 1989              		.file 22 "/Library/DaisyToolchain/0.2.0/arm/arm-none-eabi/include/c++/10.3.1/cstring"
 1990              		.file 23 "/Library/DaisyToolchain/0.2.0/arm/arm-none-eabi/include/c++/10.3.1/bits/predefined_ops.h
 1991              		.file 24 "/Library/DaisyToolchain/0.2.0/arm/arm-none-eabi/include/sys/_types.h"
 1992              		.file 25 "/Library/DaisyToolchain/0.2.0/arm/arm-none-eabi/include/sys/reent.h"
 1993              		.file 26 "/Library/DaisyToolchain/0.2.0/arm/arm-none-eabi/include/sys/lock.h"
 1994              		.file 27 "/Library/DaisyToolchain/0.2.0/arm/arm-none-eabi/include/math.h"
 1995              		.file 28 "/Library/DaisyToolchain/0.2.0/arm/arm-none-eabi/include/stdlib.h"
 1996              		.file 29 "/Library/DaisyToolchain/0.2.0/arm/arm-none-eabi/include/c++/10.3.1/math.h"
 1997              		.file 30 "/Library/DaisyToolchain/0.2.0/arm/arm-none-eabi/include/c++/10.3.1/stdlib.h"
 1998              		.file 31 "../libDaisy/src/daisy_core.h"
 1999              		.file 32 "../libDaisy/src/sys/system.h"
 2000              		.file 33 "../libDaisy/src/per/qspi.h"
 2001              		.file 34 "../libDaisy/src/per/dac.h"
 2002              		.file 35 "../libDaisy/src/per/sai.h"
 2003              		.file 36 "../libDaisy/src/hid/audio.h"
 2004              		.file 37 "../libDaisy/src/per/adc.h"
 2005              		.file 38 "../libDaisy/src/per/uart.h"
 2006              		.file 39 "../libDaisy/src/hid/MidiEvent.h"
 2007              		.file 40 "../libDaisy/src/hid/midi_parser.h"
 2008              		.file 41 "../libDaisy/src/hid/usb.h"
 2009              		.file 42 "../libDaisy/src/hid/midi.h"
 2010              		.file 43 "../libDaisy/src/util/FIFO.h"
 2011              		.file 44 "../libDaisy/src/hid/ctrl.h"
 2012              		.file 45 "../libDaisy/src/util/wav_format.h"
 2013              		.file 46 "../libDaisy/src/hid/led.h"
 2014              		.file 47 "../libDaisy/src/util/color.h"
ARM GAS  /var/folders/2p/02m_5p7958535cp2tpgps0400000gn/T//ccXYOr1x.s 			page 51


 2015              		.file 48 "../libDaisy/src/hid/rgb_led.h"
 2016              		.file 49 "../libDaisy/src/dev/max11300.h"
 2017              		.file 50 "../libDaisy/src/daisy_seed.h"
 2018              		.file 51 "../libDaisy/src/daisy_pod.h"
 2019              		.file 52 "../libDaisy/src/per/gpio.h"
 2020              		.file 53 "../libDaisy/src/dev/sdram.h"
 2021              		.file 54 "/Library/DaisyToolchain/0.2.0/arm/lib/gcc/arm-none-eabi/10.3.1/include/stdarg.h"
 2022              		.file 55 "/Library/DaisyToolchain/0.2.0/arm/arm-none-eabi/include/stdio.h"
 2023              		.file 56 "/Library/DaisyToolchain/0.2.0/arm/arm-none-eabi/include/string.h"
 2024              		.file 57 "AppState.h"
 2025              		.file 58 "constants_utils.h"
 2026              		.file 59 "UIManager.h"
 2027              		.file 60 "<built-in>"
 2028              		.file 61 "../libDaisy/src/dev/sr_595.h"
ARM GAS  /var/folders/2p/02m_5p7958535cp2tpgps0400000gn/T//ccXYOr1x.s 			page 52


DEFINED SYMBOLS
                            *ABS*:0000000000000000 UIManager.cpp
/var/folders/2p/02m_5p7958535cp2tpgps0400000gn/T//ccXYOr1x.s:19     .text._ZN9UIManager8SetStateE8AppState:0000000000000000 $t
/var/folders/2p/02m_5p7958535cp2tpgps0400000gn/T//ccXYOr1x.s:25     .text._ZN9UIManager8SetStateE8AppState:0000000000000000 _ZN9UIManager8SetStateE8AppState
/var/folders/2p/02m_5p7958535cp2tpgps0400000gn/T//ccXYOr1x.s:43     .text._ZN9UIManager15UpdateSynthModeEv:0000000000000000 $t
/var/folders/2p/02m_5p7958535cp2tpgps0400000gn/T//ccXYOr1x.s:49     .text._ZN9UIManager15UpdateSynthModeEv:0000000000000000 _ZN9UIManager15UpdateSynthModeEv
/var/folders/2p/02m_5p7958535cp2tpgps0400000gn/T//ccXYOr1x.s:63     .text._ZN9UIManager15UpdateSynthModeEv:000000000000000a $d
/var/folders/2p/02m_5p7958535cp2tpgps0400000gn/T//ccXYOr1x.s:105    .text._ZN9UIManager24ToggleRandomnessControlsEv:0000000000000000 $t
/var/folders/2p/02m_5p7958535cp2tpgps0400000gn/T//ccXYOr1x.s:111    .text._ZN9UIManager24ToggleRandomnessControlsEv:0000000000000000 _ZN9UIManager24ToggleRandomnessControlsEv
/var/folders/2p/02m_5p7958535cp2tpgps0400000gn/T//ccXYOr1x.s:125    .text._ZN9UIManager24ToggleRandomnessControlsEv:000000000000000a $d
/var/folders/2p/02m_5p7958535cp2tpgps0400000gn/T//ccXYOr1x.s:131    .text._ZN9UIManager24ToggleRandomnessControlsEv:0000000000000010 $t
/var/folders/2p/02m_5p7958535cp2tpgps0400000gn/T//ccXYOr1x.s:178    .text._ZN9UIManager15ToggleRecordOutEv:0000000000000000 $t
/var/folders/2p/02m_5p7958535cp2tpgps0400000gn/T//ccXYOr1x.s:184    .text._ZN9UIManager15ToggleRecordOutEv:0000000000000000 _ZN9UIManager15ToggleRecordOutEv
/var/folders/2p/02m_5p7958535cp2tpgps0400000gn/T//ccXYOr1x.s:202    .text._ZN9UIManager13GetKnob1ValueEi:0000000000000000 $t
/var/folders/2p/02m_5p7958535cp2tpgps0400000gn/T//ccXYOr1x.s:208    .text._ZN9UIManager13GetKnob1ValueEi:0000000000000000 _ZN9UIManager13GetKnob1ValueEi
/var/folders/2p/02m_5p7958535cp2tpgps0400000gn/T//ccXYOr1x.s:227    .text._ZN9UIManager13GetKnob2ValueEi:0000000000000000 $t
/var/folders/2p/02m_5p7958535cp2tpgps0400000gn/T//ccXYOr1x.s:233    .text._ZN9UIManager13GetKnob2ValueEi:0000000000000000 _ZN9UIManager13GetKnob2ValueEi
/var/folders/2p/02m_5p7958535cp2tpgps0400000gn/T//ccXYOr1x.s:252    .text._ZN9UIManager19GetEncoderIncrementEv:0000000000000000 $t
/var/folders/2p/02m_5p7958535cp2tpgps0400000gn/T//ccXYOr1x.s:258    .text._ZN9UIManager19GetEncoderIncrementEv:0000000000000000 _ZN9UIManager19GetEncoderIncrementEv
/var/folders/2p/02m_5p7958535cp2tpgps0400000gn/T//ccXYOr1x.s:291    .text._ZN9UIManager14EncoderPressedEv:0000000000000000 $t
/var/folders/2p/02m_5p7958535cp2tpgps0400000gn/T//ccXYOr1x.s:297    .text._ZN9UIManager14EncoderPressedEv:0000000000000000 _ZN9UIManager14EncoderPressedEv
/var/folders/2p/02m_5p7958535cp2tpgps0400000gn/T//ccXYOr1x.s:344    .text._ZN9UIManager16EncoderLongPressEv:0000000000000000 $t
/var/folders/2p/02m_5p7958535cp2tpgps0400000gn/T//ccXYOr1x.s:350    .text._ZN9UIManager16EncoderLongPressEv:0000000000000000 _ZN9UIManager16EncoderLongPressEv
/var/folders/2p/02m_5p7958535cp2tpgps0400000gn/T//ccXYOr1x.s:433    .text._ZN9UIManager16EncoderLongPressEv:000000000000003c $d
/var/folders/2p/02m_5p7958535cp2tpgps0400000gn/T//ccXYOr1x.s:442    .text._ZN9UIManager14Button1PressedEv:0000000000000000 $t
/var/folders/2p/02m_5p7958535cp2tpgps0400000gn/T//ccXYOr1x.s:448    .text._ZN9UIManager14Button1PressedEv:0000000000000000 _ZN9UIManager14Button1PressedEv
/var/folders/2p/02m_5p7958535cp2tpgps0400000gn/T//ccXYOr1x.s:487    .text._ZN9UIManager14Button2PressedEv:0000000000000000 $t
/var/folders/2p/02m_5p7958535cp2tpgps0400000gn/T//ccXYOr1x.s:493    .text._ZN9UIManager14Button2PressedEv:0000000000000000 _ZN9UIManager14Button2PressedEv
/var/folders/2p/02m_5p7958535cp2tpgps0400000gn/T//ccXYOr1x.s:532    .text._ZN9UIManager16Button2LongPressEv:0000000000000000 $t
/var/folders/2p/02m_5p7958535cp2tpgps0400000gn/T//ccXYOr1x.s:538    .text._ZN9UIManager16Button2LongPressEv:0000000000000000 _ZN9UIManager16Button2LongPressEv
/var/folders/2p/02m_5p7958535cp2tpgps0400000gn/T//ccXYOr1x.s:613    .text._ZN9UIManager16Button2LongPressEv:000000000000003c $d
/var/folders/2p/02m_5p7958535cp2tpgps0400000gn/T//ccXYOr1x.s:621    .text._ZN9UIManager15MapKnobDeadzoneEf:0000000000000000 $t
/var/folders/2p/02m_5p7958535cp2tpgps0400000gn/T//ccXYOr1x.s:627    .text._ZN9UIManager15MapKnobDeadzoneEf:0000000000000000 _ZN9UIManager15MapKnobDeadzoneEf
/var/folders/2p/02m_5p7958535cp2tpgps0400000gn/T//ccXYOr1x.s:660    .text._ZN9UIManager15MapKnobDeadzoneEf:000000000000002c $d
/var/folders/2p/02m_5p7958535cp2tpgps0400000gn/T//ccXYOr1x.s:667    .text._ZN9UIManager18UpdateKnobPassThruEfPfPb:0000000000000000 $t
/var/folders/2p/02m_5p7958535cp2tpgps0400000gn/T//ccXYOr1x.s:673    .text._ZN9UIManager18UpdateKnobPassThruEfPfPb:0000000000000000 _ZN9UIManager18UpdateKnobPassThruEfPfPb
/var/folders/2p/02m_5p7958535cp2tpgps0400000gn/T//ccXYOr1x.s:716    .text._ZN9UIManager11UpdateKnobsEv:0000000000000000 $t
/var/folders/2p/02m_5p7958535cp2tpgps0400000gn/T//ccXYOr1x.s:722    .text._ZN9UIManager11UpdateKnobsEv:0000000000000000 _ZN9UIManager11UpdateKnobsEv
/var/folders/2p/02m_5p7958535cp2tpgps0400000gn/T//ccXYOr1x.s:885    .text._ZN9UIManager11UpdateKnobsEv:00000000000000ac $d
/var/folders/2p/02m_5p7958535cp2tpgps0400000gn/T//ccXYOr1x.s:897    .text._ZN9UIManager10SetupTimerEv:0000000000000000 $t
/var/folders/2p/02m_5p7958535cp2tpgps0400000gn/T//ccXYOr1x.s:903    .text._ZN9UIManager10SetupTimerEv:0000000000000000 _ZN9UIManager10SetupTimerEv
/var/folders/2p/02m_5p7958535cp2tpgps0400000gn/T//ccXYOr1x.s:979    .text._ZN9UIManager10SetupTimerEv:000000000000003c $d
/var/folders/2p/02m_5p7958535cp2tpgps0400000gn/T//ccXYOr1x.s:1953   .text._ZL17StaticLedCallbackPv:0000000000000000 _ZL17StaticLedCallbackPv
/var/folders/2p/02m_5p7958535cp2tpgps0400000gn/T//ccXYOr1x.s:985    .text._ZN9UIManager4InitEv:0000000000000000 $t
/var/folders/2p/02m_5p7958535cp2tpgps0400000gn/T//ccXYOr1x.s:991    .text._ZN9UIManager4InitEv:0000000000000000 _ZN9UIManager4InitEv
/var/folders/2p/02m_5p7958535cp2tpgps0400000gn/T//ccXYOr1x.s:1008   .text._ZN9UIManager13StartLedPulseEv:0000000000000000 $t
/var/folders/2p/02m_5p7958535cp2tpgps0400000gn/T//ccXYOr1x.s:1014   .text._ZN9UIManager13StartLedPulseEv:0000000000000000 _ZN9UIManager13StartLedPulseEv
/var/folders/2p/02m_5p7958535cp2tpgps0400000gn/T//ccXYOr1x.s:1044   .text._ZN9UIManager12StopLedPulseEv:0000000000000000 $t
/var/folders/2p/02m_5p7958535cp2tpgps0400000gn/T//ccXYOr1x.s:1050   .text._ZN9UIManager12StopLedPulseEv:0000000000000000 _ZN9UIManager12StopLedPulseEv
/var/folders/2p/02m_5p7958535cp2tpgps0400000gn/T//ccXYOr1x.s:1070   .text._ZN9UIManager6SetLedEiiib:0000000000000000 $t
/var/folders/2p/02m_5p7958535cp2tpgps0400000gn/T//ccXYOr1x.s:1076   .text._ZN9UIManager6SetLedEiiib:0000000000000000 _ZN9UIManager6SetLedEiiib
/var/folders/2p/02m_5p7958535cp2tpgps0400000gn/T//ccXYOr1x.s:1147   .text._ZN9UIManager13SetStateErrorEv:0000000000000000 $t
/var/folders/2p/02m_5p7958535cp2tpgps0400000gn/T//ccXYOr1x.s:1153   .text._ZN9UIManager13SetStateErrorEv:0000000000000000 _ZN9UIManager13SetStateErrorEv
/var/folders/2p/02m_5p7958535cp2tpgps0400000gn/T//ccXYOr1x.s:1227   .text._ZN9UIManager16SetLedRandomModeEv:0000000000000000 $t
/var/folders/2p/02m_5p7958535cp2tpgps0400000gn/T//ccXYOr1x.s:1233   .text._ZN9UIManager16SetLedRandomModeEv:0000000000000000 _ZN9UIManager16SetLedRandomModeEv
/var/folders/2p/02m_5p7958535cp2tpgps0400000gn/T//ccXYOr1x.s:1317   .text._ZN9UIManager11UpdateStateEv:0000000000000000 $t
/var/folders/2p/02m_5p7958535cp2tpgps0400000gn/T//ccXYOr1x.s:1323   .text._ZN9UIManager11UpdateStateEv:0000000000000000 _ZN9UIManager11UpdateStateEv
ARM GAS  /var/folders/2p/02m_5p7958535cp2tpgps0400000gn/T//ccXYOr1x.s 			page 53


/var/folders/2p/02m_5p7958535cp2tpgps0400000gn/T//ccXYOr1x.s:1357   .text._ZN9UIManager11UpdateStateEv:000000000000001c $d
/var/folders/2p/02m_5p7958535cp2tpgps0400000gn/T//ccXYOr1x.s:1361   .text._ZN9UIManager11UpdateStateEv:0000000000000020 $t
/var/folders/2p/02m_5p7958535cp2tpgps0400000gn/T//ccXYOr1x.s:1477   .text._ZN9UIManager8UpdateUIEv:0000000000000000 $t
/var/folders/2p/02m_5p7958535cp2tpgps0400000gn/T//ccXYOr1x.s:1483   .text._ZN9UIManager8UpdateUIEv:0000000000000000 _ZN9UIManager8UpdateUIEv
/var/folders/2p/02m_5p7958535cp2tpgps0400000gn/T//ccXYOr1x.s:1526   .text._ZN9UIManager8BlinkLedEiiib:0000000000000000 $t
/var/folders/2p/02m_5p7958535cp2tpgps0400000gn/T//ccXYOr1x.s:1532   .text._ZN9UIManager8BlinkLedEiiib:0000000000000000 _ZN9UIManager8BlinkLedEiiib
/var/folders/2p/02m_5p7958535cp2tpgps0400000gn/T//ccXYOr1x.s:1585   .text._ZN9UIManager11BlinkSetLedEiiib:0000000000000000 $t
/var/folders/2p/02m_5p7958535cp2tpgps0400000gn/T//ccXYOr1x.s:1591   .text._ZN9UIManager11BlinkSetLedEiiib:0000000000000000 _ZN9UIManager11BlinkSetLedEiiib
/var/folders/2p/02m_5p7958535cp2tpgps0400000gn/T//ccXYOr1x.s:1666   .text._ZN9UIManager15SetLedSynthModeEv:0000000000000000 $t
/var/folders/2p/02m_5p7958535cp2tpgps0400000gn/T//ccXYOr1x.s:1672   .text._ZN9UIManager15SetLedSynthModeEv:0000000000000000 _ZN9UIManager15SetLedSynthModeEv
/var/folders/2p/02m_5p7958535cp2tpgps0400000gn/T//ccXYOr1x.s:1690   .text._ZN9UIManager15SetLedSynthModeEv:000000000000000c $d
/var/folders/2p/02m_5p7958535cp2tpgps0400000gn/T//ccXYOr1x.s:1760   .text._ZN9UIManager16LedPulseCallbackEv:0000000000000000 $t
/var/folders/2p/02m_5p7958535cp2tpgps0400000gn/T//ccXYOr1x.s:1766   .text._ZN9UIManager16LedPulseCallbackEv:0000000000000000 _ZN9UIManager16LedPulseCallbackEv
/var/folders/2p/02m_5p7958535cp2tpgps0400000gn/T//ccXYOr1x.s:1803   .text._ZN9UIManager16LedPulseCallbackEv:0000000000000020 $d
/var/folders/2p/02m_5p7958535cp2tpgps0400000gn/T//ccXYOr1x.s:1948   .text._ZL17StaticLedCallbackPv:0000000000000000 $t
/var/folders/2p/02m_5p7958535cp2tpgps0400000gn/T//ccXYOr1x.s:70     .text._ZN9UIManager15UpdateSynthModeEv:0000000000000011 $d
/var/folders/2p/02m_5p7958535cp2tpgps0400000gn/T//ccXYOr1x.s:70     .text._ZN9UIManager15UpdateSynthModeEv:0000000000000012 $t
/var/folders/2p/02m_5p7958535cp2tpgps0400000gn/T//ccXYOr1x.s:1697   .text._ZN9UIManager15SetLedSynthModeEv:0000000000000013 $d
/var/folders/2p/02m_5p7958535cp2tpgps0400000gn/T//ccXYOr1x.s:1697   .text._ZN9UIManager15SetLedSynthModeEv:0000000000000014 $t
/var/folders/2p/02m_5p7958535cp2tpgps0400000gn/T//ccXYOr1x.s:1808   .text._ZN9UIManager16LedPulseCallbackEv:0000000000000025 $d
/var/folders/2p/02m_5p7958535cp2tpgps0400000gn/T//ccXYOr1x.s:1808   .text._ZN9UIManager16LedPulseCallbackEv:0000000000000026 $t

UNDEFINED SYMBOLS
_ZN5daisy6System6GetNowEv
_ZN5daisy13AnalogControl7ProcessEv
_ZN5daisy11TimerHandle4InitERKNS0_6ConfigE
_ZN5daisy11TimerHandle12SetPrescalerEm
_ZN5daisy11TimerHandle11SetCallbackEPFvPvES1_
_ZN5daisy11TimerHandle5StartEv
_ZN5daisy11TimerHandle4StopEv
_ZN5daisy6RgbLed3SetEfff
_ZN5daisy8DaisyPod10UpdateLedsEv
_ZN5daisy6System5DelayEm
_ZN5daisy8DaisyPod22ProcessDigitalControlsEv
_ZN5daisy8DaisyPod9StopAudioEv
