ARM GAS  /var/folders/2p/02m_5p7958535cp2tpgps0400000gn/T//ccA97qDZ.s 			page 1


   1              		.cpu cortex-m7
   2              		.arch armv7e-m
   3              		.fpu fpv5-d16
   4              		.eabi_attribute 28, 1
   5              		.eabi_attribute 23, 1
   6              		.eabi_attribute 24, 1
   7              		.eabi_attribute 25, 1
   8              		.eabi_attribute 26, 1
   9              		.eabi_attribute 30, 2
  10              		.eabi_attribute 34, 1
  11              		.eabi_attribute 18, 4
  12              		.file	"UIManager.cpp"
  13              		.text
  14              	.Ltext0:
  15              		.cfi_sections	.debug_frame
  16              		.section	.text._ZN9UIManager4InitEv,"ax",%progbits
  17              		.align	1
  18              		.p2align 2,,3
  19              		.global	_ZN9UIManager4InitEv
  20              		.syntax unified
  21              		.thumb
  22              		.thumb_func
  24              	_ZN9UIManager4InitEv:
  25              	.LVL0:
  26              	.LFB2577:
  27              		.file 1 "UIManager.cpp"
   1:UIManager.cpp **** #include "UIManager.h"
   2:UIManager.cpp **** 
   3:UIManager.cpp **** /// @brief Initialise UI, set up timer for LED pulse callbacks
   4:UIManager.cpp **** void UIManager::Init(){
  28              		.loc 1 4 23 view -0
  29              		.cfi_startproc
  30              		@ args = 0, pretend = 0, frame = 16
  31              		@ frame_needed = 0, uses_anonymous_args = 0
   5:UIManager.cpp ****   SetupTimer();
  32              		.loc 1 5 3 view .LVU1
   4:UIManager.cpp ****   SetupTimer();
  33              		.loc 1 4 23 is_stmt 0 view .LVU2
  34 0000 70B5     		push	{r4, r5, r6, lr}
  35              		.cfi_def_cfa_offset 16
  36              		.cfi_offset 4, -16
  37              		.cfi_offset 5, -12
  38              		.cfi_offset 6, -8
  39              		.cfi_offset 14, -4
  40              	.LBB165:
  41              	.LBB166:
   6:UIManager.cpp ****   SetState(AppState::Startup);
   7:UIManager.cpp ****   // StartLedPulse();
   8:UIManager.cpp **** }
   9:UIManager.cpp **** 
  10:UIManager.cpp **** /// @brief Called on loop to continually update knob inputs and current app state
  11:UIManager.cpp **** void UIManager::UpdateUI(){
  12:UIManager.cpp ****   if (!crash_error){
  13:UIManager.cpp ****     UpdateKnobs();
  14:UIManager.cpp ****     UpdateState();
  15:UIManager.cpp ****     // UpdateSynthMode();
  16:UIManager.cpp ****   }
ARM GAS  /var/folders/2p/02m_5p7958535cp2tpgps0400000gn/T//ccA97qDZ.s 			page 2


  17:UIManager.cpp **** }
  18:UIManager.cpp **** 
  19:UIManager.cpp **** /// @brief Updates hardware input knob values and assigns to correct array indices 
  20:UIManager.cpp **** void UIManager::UpdateKnobs(){
  21:UIManager.cpp ****   // NOTE: need to add stuff for chord mode here! 
  22:UIManager.cpp ****   if (current_state_ == AppState::Synthesis){
  23:UIManager.cpp ****     int mode_idx = static_cast<int>(current_synth_mode_);
  24:UIManager.cpp ****     float k1v = MapKnobDeadzone(pod_.knob1.Process());
  25:UIManager.cpp ****     float k2v = MapKnobDeadzone(pod_.knob2.Process());
  26:UIManager.cpp **** 
  27:UIManager.cpp ****     /* here we pass the current knob value, pointer to the stored knob value for this mode,
  28:UIManager.cpp ****       and a pointer to the bool which tracks whether the knob value has been passed through */
  29:UIManager.cpp ****     k1v_[mode_idx] = UpdateKnobPassThru(k1v, &k1v_[mode_idx], &k1_pass_thru_[mode_idx]);
  30:UIManager.cpp ****     k2v_[mode_idx] = UpdateKnobPassThru(k2v, &k2v_[mode_idx], &k2_pass_thru_[mode_idx]);
  31:UIManager.cpp ****   }
  32:UIManager.cpp **** }
  33:UIManager.cpp **** 
  34:UIManager.cpp **** /// @brief Updates current UI/app state based on hardware inputs
  35:UIManager.cpp **** void UIManager::UpdateState(){
  36:UIManager.cpp ****   pod_.ProcessDigitalControls();
  37:UIManager.cpp ****   // TODO: change this to encoder pressed?? 
  38:UIManager.cpp ****   if (Button1Pressed()){
  39:UIManager.cpp ****     HandleButton1();
  40:UIManager.cpp ****   }
  41:UIManager.cpp ****   if (Button2Pressed()){
  42:UIManager.cpp ****     HandleButton2();
  43:UIManager.cpp ****   }
  44:UIManager.cpp ****   if (Button1LongPress()){
  45:UIManager.cpp ****     HandleButton1LongPress();
  46:UIManager.cpp ****   }
  47:UIManager.cpp ****   if (Button2LongPress()){
  48:UIManager.cpp ****     HandleButton2LongPress();
  49:UIManager.cpp ****   }
  50:UIManager.cpp ****   if (EncoderPressed()){
  51:UIManager.cpp ****     HandleEncoderPressed();
  52:UIManager.cpp ****   }
  53:UIManager.cpp ****   if (EncoderLongPress()){
  54:UIManager.cpp ****     HandleEncoderLongPress();
  55:UIManager.cpp ****   }
  56:UIManager.cpp ****   if (GetEncoderIncrement()>0){
  57:UIManager.cpp ****     if (current_state_ == AppState::Startup){
  58:UIManager.cpp ****       current_state_ = AppState::SelectFile;
  59:UIManager.cpp ****     }
  60:UIManager.cpp ****   }
  61:UIManager.cpp **** }
  62:UIManager.cpp **** 
  63:UIManager.cpp **** void UIManager::HandleButton1(){
  64:UIManager.cpp ****   switch(current_state_){
  65:UIManager.cpp ****     case AppState::Startup:
  66:UIManager.cpp ****       current_state_ = AppState::SelectFile; 
  67:UIManager.cpp ****       break;
  68:UIManager.cpp ****     // case AppState::SelectFile:
  69:UIManager.cpp ****     //   current_state_ = AppState::PlayWAV;
  70:UIManager.cpp ****     //   // NOTE: should i select next state (ie playwav) by clicking encoder? or pressing button1?
  71:UIManager.cpp ****     //   break;
  72:UIManager.cpp ****     // case AppState::PlayWAV:
  73:UIManager.cpp ****     //   current_state_ = AppState::Synthesis;
ARM GAS  /var/folders/2p/02m_5p7958535cp2tpgps0400000gn/T//ccA97qDZ.s 			page 3


  74:UIManager.cpp ****     //   current_synth_mode_ = SynthMode::Size_Position;
  75:UIManager.cpp ****     //   // StopLedPulse(); 
  76:UIManager.cpp ****     //   break;
  77:UIManager.cpp ****     case AppState::Synthesis:
  78:UIManager.cpp ****       UpdateSynthMode();
  79:UIManager.cpp ****       DebugPrintSynthMode();
  80:UIManager.cpp ****       break;
  81:UIManager.cpp ****     default:
  82:UIManager.cpp ****       break;
  83:UIManager.cpp ****   }
  84:UIManager.cpp **** }
  85:UIManager.cpp **** 
  86:UIManager.cpp **** void UIManager::HandleButton2(){
  87:UIManager.cpp ****     if (current_state_ == AppState::Synthesis){
  88:UIManager.cpp ****       ToggleRandomnessControls();
  89:UIManager.cpp ****       SetLedRandomMode();
  90:UIManager.cpp ****     }
  91:UIManager.cpp **** }
  92:UIManager.cpp **** 
  93:UIManager.cpp **** void UIManager::HandleButton1LongPress(){
  94:UIManager.cpp ****   if (current_state_ == AppState::Synthesis){
  95:UIManager.cpp ****     ToggleReverbControls();
  96:UIManager.cpp ****     SetLedFXMode();
  97:UIManager.cpp ****   }
  98:UIManager.cpp **** }
  99:UIManager.cpp **** 
 100:UIManager.cpp **** void UIManager::HandleButton2LongPress(){
 101:UIManager.cpp ****   if (current_state_ == AppState::Synthesis){
 102:UIManager.cpp ****     ToggleFilterControls();
 103:UIManager.cpp ****     SetLedFXMode();
 104:UIManager.cpp ****   }
 105:UIManager.cpp **** }
 106:UIManager.cpp **** 
 107:UIManager.cpp **** void UIManager::HandleEncoderPressed(){
 108:UIManager.cpp ****   switch(current_state_){
 109:UIManager.cpp ****     case AppState::SelectFile:
 110:UIManager.cpp ****       current_state_ = AppState::PlayWAV;
 111:UIManager.cpp ****     case AppState::RecordIn:
 112:UIManager.cpp ****       current_state_ = AppState::PlayWAV;
 113:UIManager.cpp ****     case AppState::PlayWAV:
 114:UIManager.cpp ****       current_state_ = AppState::Synthesis;
 115:UIManager.cpp ****       break;
 116:UIManager.cpp ****     default:
 117:UIManager.cpp ****       break;
 118:UIManager.cpp ****   }
 119:UIManager.cpp **** }
 120:UIManager.cpp **** 
 121:UIManager.cpp **** void UIManager::HandleEncoderLongPress(){
 122:UIManager.cpp ****   switch (current_state_){
 123:UIManager.cpp ****      /* exit synthesis mode, return to file selection */
 124:UIManager.cpp ****     case AppState::Synthesis:
 125:UIManager.cpp ****       current_state_ = AppState::SelectFile;
 126:UIManager.cpp ****       // StartLedPulse();
 127:UIManager.cpp ****       break;
 128:UIManager.cpp ****       /* enter RecordIn mode */
 129:UIManager.cpp ****     case AppState::SelectFile:
 130:UIManager.cpp ****     case AppState::PlayWAV:
ARM GAS  /var/folders/2p/02m_5p7958535cp2tpgps0400000gn/T//ccA97qDZ.s 			page 4


 131:UIManager.cpp ****       current_state_ = AppState::RecordIn;
 132:UIManager.cpp ****       break;
 133:UIManager.cpp ****     case AppState::RecordIn:
 134:UIManager.cpp ****       current_state_ = AppState::SelectFile;
 135:UIManager.cpp ****       break;
 136:UIManager.cpp ****     default:
 137:UIManager.cpp ****       break;
 138:UIManager.cpp ****   }
 139:UIManager.cpp **** }
 140:UIManager.cpp **** 
 141:UIManager.cpp **** /// @brief Helper method to externally set current app state
 142:UIManager.cpp **** /// @param state 
 143:UIManager.cpp **** void UIManager::SetState(AppState state){
 144:UIManager.cpp ****   current_state_ = state;
 145:UIManager.cpp **** }
 146:UIManager.cpp **** 
 147:UIManager.cpp **** /// @brief Helper method to set current app state to Error and start red error LEDs
 148:UIManager.cpp **** void UIManager::SetStateError(){
 149:UIManager.cpp ****   current_state_ = AppState::Error;
 150:UIManager.cpp ****   StopLedPulse();
 151:UIManager.cpp ****   SetLed(255,0,0,true);
 152:UIManager.cpp ****   SetLed(255,0,0,false);
 153:UIManager.cpp ****   crash_error = true;
 154:UIManager.cpp **** }
 155:UIManager.cpp **** 
 156:UIManager.cpp **** /// @brief Cycles through synth parameter update modes
 157:UIManager.cpp **** void UIManager::UpdateSynthMode(){
 158:UIManager.cpp ****   switch(current_synth_mode_){
 159:UIManager.cpp ****     case SynthMode::Size_Position:
 160:UIManager.cpp ****       current_synth_mode_ = SynthMode::Pitch_ActiveGrains;
 161:UIManager.cpp ****       break;
 162:UIManager.cpp ****     case SynthMode::Pitch_ActiveGrains:
 163:UIManager.cpp ****       current_synth_mode_ = SynthMode::PhasorMode_EnvType;
 164:UIManager.cpp ****       break;
 165:UIManager.cpp ****     case SynthMode::PhasorMode_EnvType:
 166:UIManager.cpp ****       current_synth_mode_ = SynthMode::Pan_PanRnd;
 167:UIManager.cpp ****       break;
 168:UIManager.cpp ****     case SynthMode::Pan_PanRnd:
 169:UIManager.cpp ****       current_synth_mode_ = SynthMode::Size_Position;
 170:UIManager.cpp ****       break;
 171:UIManager.cpp ****     default:
 172:UIManager.cpp ****       break;
 173:UIManager.cpp ****   }
 174:UIManager.cpp **** }
 175:UIManager.cpp **** 
 176:UIManager.cpp **** /* each synth mode (apart from pan) has 2 submodes: 
 177:UIManager.cpp ****   knobs either change the named parameters themselves (modes above), 
 178:UIManager.cpp ****   or change the degree of randomness applied to these parameters in granulation */
 179:UIManager.cpp **** void UIManager::ToggleRandomnessControls(){
 180:UIManager.cpp ****   switch(current_synth_mode_){
 181:UIManager.cpp ****     case SynthMode::Size_Position:
 182:UIManager.cpp ****       current_synth_mode_ = SynthMode::Size_Position_Rnd;
 183:UIManager.cpp ****       break;
 184:UIManager.cpp ****     case SynthMode::Size_Position_Rnd:
 185:UIManager.cpp ****       current_synth_mode_ = SynthMode::Size_Position;
 186:UIManager.cpp ****       break;
 187:UIManager.cpp ****     case SynthMode::Pitch_ActiveGrains:
ARM GAS  /var/folders/2p/02m_5p7958535cp2tpgps0400000gn/T//ccA97qDZ.s 			page 5


 188:UIManager.cpp ****       current_synth_mode_ = SynthMode::Pitch_ActiveGrains_Rnd;
 189:UIManager.cpp ****       break;
 190:UIManager.cpp ****     case SynthMode::Pitch_ActiveGrains_Rnd:
 191:UIManager.cpp ****       current_synth_mode_ = SynthMode::Pitch_ActiveGrains;
 192:UIManager.cpp ****       break;
 193:UIManager.cpp ****     case SynthMode::PhasorMode_EnvType:
 194:UIManager.cpp ****       current_synth_mode_ = SynthMode::PhasorMode_EnvType_Rnd;
 195:UIManager.cpp ****       break;      
 196:UIManager.cpp ****     case SynthMode::PhasorMode_EnvType_Rnd:
 197:UIManager.cpp ****       current_synth_mode_ = SynthMode::PhasorMode_EnvType;
 198:UIManager.cpp ****       break;
 199:UIManager.cpp ****     default:
 200:UIManager.cpp ****       break;
 201:UIManager.cpp ****   }
 202:UIManager.cpp **** }
 203:UIManager.cpp **** 
 204:UIManager.cpp **** void UIManager::ToggleReverbControls(){
 205:UIManager.cpp ****   if (current_synth_mode_==SynthMode::Reverb){
 206:UIManager.cpp ****     current_synth_mode_ = prev_synth_mode_;
 207:UIManager.cpp ****   }
 208:UIManager.cpp ****   else {
 209:UIManager.cpp ****     prev_synth_mode_ = current_synth_mode_;
 210:UIManager.cpp ****     current_synth_mode_ = SynthMode::Reverb;
 211:UIManager.cpp ****   }
 212:UIManager.cpp **** }
 213:UIManager.cpp **** 
 214:UIManager.cpp **** void UIManager::ToggleFilterControls(){
 215:UIManager.cpp ****   if (current_synth_mode_==SynthMode::Filter){
 216:UIManager.cpp ****     current_synth_mode_ = prev_synth_mode_;
 217:UIManager.cpp ****   }
 218:UIManager.cpp ****   else {
 219:UIManager.cpp ****     prev_synth_mode_ = current_synth_mode_;
 220:UIManager.cpp ****     current_synth_mode_ = SynthMode::Filter;
 221:UIManager.cpp ****   }
 222:UIManager.cpp **** }
 223:UIManager.cpp **** 
 224:UIManager.cpp **** bool UIManager::ToggleRecordOut(){//NOTE NEED TO DECIDE THiS!!
 225:UIManager.cpp ****   // TODO: need to decide what control input will toggle record out
 226:UIManager.cpp ****   return true; 
 227:UIManager.cpp **** }
 228:UIManager.cpp **** 
 229:UIManager.cpp **** float UIManager::GetKnob1Value(int mode_idx){
 230:UIManager.cpp ****   return k1v_[mode_idx];
 231:UIManager.cpp **** }
 232:UIManager.cpp **** 
 233:UIManager.cpp **** float UIManager::GetKnob2Value(int mode_idx){
 234:UIManager.cpp ****   return k2v_[mode_idx];
 235:UIManager.cpp **** }
 236:UIManager.cpp **** 
 237:UIManager.cpp **** int32_t UIManager::GetEncoderIncrement(){
 238:UIManager.cpp ****   return pod_.encoder.Increment();
 239:UIManager.cpp **** }
 240:UIManager.cpp **** 
 241:UIManager.cpp **** bool UIManager::EncoderPressed(){
 242:UIManager.cpp ****   return pod_.encoder.FallingEdge();
 243:UIManager.cpp **** }
 244:UIManager.cpp **** 
ARM GAS  /var/folders/2p/02m_5p7958535cp2tpgps0400000gn/T//ccA97qDZ.s 			page 6


 245:UIManager.cpp **** bool UIManager::EncoderLongPress(){
 246:UIManager.cpp ****   return pod_.encoder.TimeHeldMs() > 1000.0f;
 247:UIManager.cpp **** }
 248:UIManager.cpp **** 
 249:UIManager.cpp **** bool UIManager::Button1Pressed(){
 250:UIManager.cpp ****   return pod_.button1.FallingEdge();
 251:UIManager.cpp **** }
 252:UIManager.cpp **** 
 253:UIManager.cpp **** bool UIManager::Button1LongPress(){
 254:UIManager.cpp ****   return pod_.button1.TimeHeldMs() > 1000.0f;
 255:UIManager.cpp **** }
 256:UIManager.cpp **** 
 257:UIManager.cpp **** bool UIManager::Button2Pressed(){
 258:UIManager.cpp ****   return pod_.button2.FallingEdge();
 259:UIManager.cpp **** }
 260:UIManager.cpp **** 
 261:UIManager.cpp **** bool UIManager::Button2LongPress(){
 262:UIManager.cpp ****   return pod_.button2.TimeHeldMs() > 1000.0f;
 263:UIManager.cpp **** }
 264:UIManager.cpp **** 
 265:UIManager.cpp **** float UIManager::MapKnobDeadzone(float knob_val ){
 266:UIManager.cpp ****   if (knob_val<=0.01f) return 0.0f;
 267:UIManager.cpp ****   if (knob_val>=0.99f) return 1.0f;
 268:UIManager.cpp ****   return knob_val;
 269:UIManager.cpp **** }
 270:UIManager.cpp **** 
 271:UIManager.cpp **** /* here we check if the current value of the knob has moved through the last stored value 
 272:UIManager.cpp ****   before the synth mode changed, and only update the parameter once the current knob value
 273:UIManager.cpp ****   'passes through' the stored value - meaning if we set grain size to 0.1 then switch modes 
 274:UIManager.cpp ****   and move the knob to 0.8, if we switch back, grain size won't be updated again until the 
 275:UIManager.cpp ****   knob passes through this value.  */
 276:UIManager.cpp **** 
 277:UIManager.cpp **** float UIManager::UpdateKnobPassThru(float curr_knob_val, float *stored_knob_val, bool *pass_thru){
 278:UIManager.cpp ****   if (!(*pass_thru)){
 279:UIManager.cpp ****     if (curr_knob_val >= (*stored_knob_val) || curr_knob_val <= (*stored_knob_val)) {
 280:UIManager.cpp ****       (*pass_thru) = true;
 281:UIManager.cpp ****     }
 282:UIManager.cpp **** } 
 283:UIManager.cpp ****   if (*pass_thru){
 284:UIManager.cpp ****     (*stored_knob_val) = curr_knob_val;
 285:UIManager.cpp ****     return curr_knob_val;
 286:UIManager.cpp ****   }
 287:UIManager.cpp ****   return (*stored_knob_val);
 288:UIManager.cpp **** }
 289:UIManager.cpp **** 
 290:UIManager.cpp **** /* has to be static - timer won't take class member function in callback  */
 291:UIManager.cpp **** static void StaticLedCallback(void* data) {
 292:UIManager.cpp ****   UIManager* instance = static_cast<UIManager*>(data);
 293:UIManager.cpp ****   instance->LedPulseCallback();
 294:UIManager.cpp **** }
 295:UIManager.cpp **** 
 296:UIManager.cpp **** void UIManager::SetupTimer(){
 297:UIManager.cpp ****   TimerHandle::Config cfg;
 298:UIManager.cpp ****   cfg.periph = TimerHandle::Config::Peripheral::TIM_5;
  42              		.loc 1 298 14 view .LVU3
  43 0002 9FED117B 		vldr.64	d7, .L4	@ int
  44              	.LBE166:
ARM GAS  /var/folders/2p/02m_5p7958535cp2tpgps0400000gn/T//ccA97qDZ.s 			page 7


  45              	.LBE165:
   4:UIManager.cpp ****   SetupTimer();
  46              		.loc 1 4 23 view .LVU4
  47 0006 84B0     		sub	sp, sp, #16
  48              		.cfi_def_cfa_offset 32
  49              	.LBB170:
  50              	.LBB168:
 299:UIManager.cpp ****   // /* set period for 200ms pulse (1MHz/200,000 == 200ms) */
 300:UIManager.cpp ****   // cfg.period = 200000;
 301:UIManager.cpp ****   /* set period for 10ms callback interval */
 302:UIManager.cpp ****   cfg.period = 20000;
 303:UIManager.cpp ****   cfg.enable_irq = true;
 304:UIManager.cpp ****   timer_.Init(cfg);
  51              		.loc 1 304 14 view .LVU5
  52 0008 00F10C05 		add	r5, r0, #12
 302:UIManager.cpp ****   cfg.enable_irq = true;
  53              		.loc 1 302 14 view .LVU6
  54 000c 44F62063 		movw	r3, #20000
 303:UIManager.cpp ****   timer_.Init(cfg);
  55              		.loc 1 303 18 view .LVU7
  56 0010 0126     		movs	r6, #1
  57              	.LBE168:
  58              	.LBE170:
   4:UIManager.cpp ****   SetupTimer();
  59              		.loc 1 4 23 view .LVU8
  60 0012 0446     		mov	r4, r0
  61              	.LVL1:
  62              	.LBB171:
  63              	.LBI165:
 296:UIManager.cpp ****   TimerHandle::Config cfg;
  64              		.loc 1 296 6 is_stmt 1 view .LVU9
  65              	.LBB169:
 297:UIManager.cpp ****   cfg.periph = TimerHandle::Config::Peripheral::TIM_5;
  66              		.loc 1 297 3 view .LVU10
  67              	.LBB167:
  68              	.LBI167:
  69              		.file 2 "../libDaisy/src/per/tim.h"
   1:../libDaisy/src/per/tim.h **** #pragma once
   2:../libDaisy/src/per/tim.h **** #ifndef DSY_TIM_H
   3:../libDaisy/src/per/tim.h **** #define DSY_TIM_H
   4:../libDaisy/src/per/tim.h **** 
   5:../libDaisy/src/per/tim.h **** #include <cstdint>
   6:../libDaisy/src/per/tim.h **** 
   7:../libDaisy/src/per/tim.h **** namespace daisy
   8:../libDaisy/src/per/tim.h **** {
   9:../libDaisy/src/per/tim.h **** /** @brief Hardare timer peripheral support.
  10:../libDaisy/src/per/tim.h ****  ** 
  11:../libDaisy/src/per/tim.h ****  ** Supports general-function TIM peripherals:
  12:../libDaisy/src/per/tim.h ****  ** - TIM2, TIM3, TIM4, TIM5
  13:../libDaisy/src/per/tim.h ****  **
  14:../libDaisy/src/per/tim.h ****  ** DaisySeed, and many internal peripherals utilize TIM2 for timing/delay purposes.
  15:../libDaisy/src/per/tim.h ****  ** It is configured to be at the maximum frequency: typically 200MHz or 240MHz (boost) 
  16:../libDaisy/src/per/tim.h ****  ** for measuring/delaying for very short periods. 
  17:../libDaisy/src/per/tim.h ****  **
  18:../libDaisy/src/per/tim.h ****  ** The GetUs/GetMs functions are available for convenience (and backwards compatibility),
  19:../libDaisy/src/per/tim.h ****  ** but to avoid wrapping errors on math when doing time-delta calculations, using ticks is 
  20:../libDaisy/src/per/tim.h ****  ** recommended. The data can be converted to the final time-base after getting the difference in t
ARM GAS  /var/folders/2p/02m_5p7958535cp2tpgps0400000gn/T//ccA97qDZ.s 			page 8


  21:../libDaisy/src/per/tim.h ****  ** (Using GetFreq() can be used for these time-base calculations).
  22:../libDaisy/src/per/tim.h ****  **
  23:../libDaisy/src/per/tim.h ****  ** User callbacks can be set, and changed at any point during operation. However,
  24:../libDaisy/src/per/tim.h ****  ** the Config::enable_irq must be set to true when initializing for the interrupts
  25:../libDaisy/src/per/tim.h ****  ** to turn on and function.
  26:../libDaisy/src/per/tim.h ****  **
  27:../libDaisy/src/per/tim.h ****  ** @todo Fix issues with realtime getters, and wrapping of the timer(s).
  28:../libDaisy/src/per/tim.h ****  **     - This very noticeable with default settings for the 16-bit counters.
  29:../libDaisy/src/per/tim.h ****  ** @todo Other General purpose timers
  30:../libDaisy/src/per/tim.h ****  ** @todo Non-internal clock sources
  31:../libDaisy/src/per/tim.h ****  ** @todo Use of the four-tim channels per tim
  32:../libDaisy/src/per/tim.h ****  **     - PWM, etc.
  33:../libDaisy/src/per/tim.h ****  **     - InputCapture/OutputCompare, etc.
  34:../libDaisy/src/per/tim.h ****  ** @todo HRTIM
  35:../libDaisy/src/per/tim.h ****  ** @todo Advanced timers (TIM1/TIM8)
  36:../libDaisy/src/per/tim.h ****  ** */
  37:../libDaisy/src/per/tim.h **** class TimerHandle
  38:../libDaisy/src/per/tim.h **** {
  39:../libDaisy/src/per/tim.h ****   public:
  40:../libDaisy/src/per/tim.h ****     /** @brief Configuration struct for the Peripheral
  41:../libDaisy/src/per/tim.h ****      *  @note These settings are used during initialization
  42:../libDaisy/src/per/tim.h ****      *   and changing them afterwards may not have the desired effect.
  43:../libDaisy/src/per/tim.h ****      */
  44:../libDaisy/src/per/tim.h ****     struct Config
  45:../libDaisy/src/per/tim.h ****     {
  46:../libDaisy/src/per/tim.h ****         /** @brief Hardware Timer to configure, and use. */
  47:../libDaisy/src/per/tim.h ****         enum class Peripheral
  48:../libDaisy/src/per/tim.h ****         {
  49:../libDaisy/src/per/tim.h ****             TIM_2 = 0, /**< 32-bit counter */
  50:../libDaisy/src/per/tim.h ****             TIM_3,     /**< 16-bit counter */
  51:../libDaisy/src/per/tim.h ****             TIM_4,     /**< 16-bit counter */
  52:../libDaisy/src/per/tim.h ****             TIM_5,     /**< 32-bit counter*/
  53:../libDaisy/src/per/tim.h ****         };
  54:../libDaisy/src/per/tim.h **** 
  55:../libDaisy/src/per/tim.h ****         /** @brief Direction of the auto-reload counter. 
  56:../libDaisy/src/per/tim.h ****          ** @todo Add support for the various  
  57:../libDaisy/src/per/tim.h ****          ** versions of Up/Down counters.
  58:../libDaisy/src/per/tim.h ****          ** */
  59:../libDaisy/src/per/tim.h ****         enum class CounterDir
  60:../libDaisy/src/per/tim.h ****         {
  61:../libDaisy/src/per/tim.h ****             UP = 0,
  62:../libDaisy/src/per/tim.h ****             DOWN,
  63:../libDaisy/src/per/tim.h ****         };
  64:../libDaisy/src/per/tim.h **** 
  65:../libDaisy/src/per/tim.h ****         Peripheral periph; /**< Hardware Peripheral */
  66:../libDaisy/src/per/tim.h ****         CounterDir dir;    /**< Counter direction */
  67:../libDaisy/src/per/tim.h **** 
  68:../libDaisy/src/per/tim.h ****         /** @brief period in ticks at TIM frequency that counter will reset based on dir
  69:../libDaisy/src/per/tim.h ****          *  @note TIM3 and TIM4 are both 16-bit timers. So the period maximum is 0xffff.
  70:../libDaisy/src/per/tim.h ****         */
  71:../libDaisy/src/per/tim.h ****         uint32_t period;
  72:../libDaisy/src/per/tim.h ****         bool     enable_irq; /**< Enable interrupt for user based callback */
  73:../libDaisy/src/per/tim.h **** 
  74:../libDaisy/src/per/tim.h ****         /* @brief Constructor for default states */
  75:../libDaisy/src/per/tim.h ****         Config()
  70              		.loc 2 75 9 view .LVU11
  71              		.loc 2 75 9 is_stmt 0 view .LVU12
ARM GAS  /var/folders/2p/02m_5p7958535cp2tpgps0400000gn/T//ccA97qDZ.s 			page 9


  72              	.LBE167:
 298:UIManager.cpp ****   // /* set period for 200ms pulse (1MHz/200,000 == 200ms) */
  73              		.loc 1 298 3 is_stmt 1 view .LVU13
  74              		.loc 1 304 14 is_stmt 0 view .LVU14
  75 0014 6946     		mov	r1, sp
  76 0016 2846     		mov	r0, r5
  77              	.LVL2:
 302:UIManager.cpp ****   cfg.enable_irq = true;
  78              		.loc 1 302 14 view .LVU15
  79 0018 0293     		str	r3, [sp, #8]
 303:UIManager.cpp ****   timer_.Init(cfg);
  80              		.loc 1 303 18 view .LVU16
  81 001a 8DF80C60 		strb	r6, [sp, #12]
 298:UIManager.cpp ****   // /* set period for 200ms pulse (1MHz/200,000 == 200ms) */
  82              		.loc 1 298 14 view .LVU17
  83 001e 8DED007B 		vstr.64	d7, [sp]	@ int
 302:UIManager.cpp ****   cfg.enable_irq = true;
  84              		.loc 1 302 3 is_stmt 1 view .LVU18
 303:UIManager.cpp ****   timer_.Init(cfg);
  85              		.loc 1 303 3 view .LVU19
  86              		.loc 1 304 3 view .LVU20
  87              		.loc 1 304 14 is_stmt 0 view .LVU21
  88 0022 FFF7FEFF 		bl	_ZN5daisy11TimerHandle4InitERKNS0_6ConfigE
  89              	.LVL3:
 305:UIManager.cpp ****   /* set 1Mhz tick frequency */
 306:UIManager.cpp ****   timer_.SetPrescaler(199);
  90              		.loc 1 306 3 is_stmt 1 view .LVU22
  91              		.loc 1 306 22 is_stmt 0 view .LVU23
  92 0026 C721     		movs	r1, #199
  93 0028 2846     		mov	r0, r5
  94 002a FFF7FEFF 		bl	_ZN5daisy11TimerHandle12SetPrescalerEm
  95              	.LVL4:
 307:UIManager.cpp ****   pulse_increasing_ = true;
  96              		.loc 1 307 3 is_stmt 1 view .LVU24
 308:UIManager.cpp ****   timer_.SetCallback(StaticLedCallback, this);
  97              		.loc 1 308 21 is_stmt 0 view .LVU25
  98 002e 2246     		mov	r2, r4
  99 0030 0749     		ldr	r1, .L4+8
 100 0032 2846     		mov	r0, r5
 307:UIManager.cpp ****   pulse_increasing_ = true;
 101              		.loc 1 307 21 view .LVU26
 102 0034 2675     		strb	r6, [r4, #20]
 103              		.loc 1 308 3 is_stmt 1 view .LVU27
 104              		.loc 1 308 21 is_stmt 0 view .LVU28
 105 0036 FFF7FEFF 		bl	_ZN5daisy11TimerHandle11SetCallbackEPFvPvES1_
 106              	.LVL5:
 107              		.loc 1 308 21 view .LVU29
 108              	.LBE169:
 109              	.LBE171:
   6:UIManager.cpp ****   // StartLedPulse();
 110              		.loc 1 6 3 is_stmt 1 view .LVU30
 111              	.LBB172:
 112              	.LBI172:
 143:UIManager.cpp ****   current_state_ = state;
 113              		.loc 1 143 6 view .LVU31
 114              	.LBB173:
 144:UIManager.cpp **** }
ARM GAS  /var/folders/2p/02m_5p7958535cp2tpgps0400000gn/T//ccA97qDZ.s 			page 10


 115              		.loc 1 144 3 view .LVU32
 144:UIManager.cpp **** }
 116              		.loc 1 144 18 is_stmt 0 view .LVU33
 117 003a 0023     		movs	r3, #0
 118 003c 6360     		str	r3, [r4, #4]
 119              	.LVL6:
 144:UIManager.cpp **** }
 120              		.loc 1 144 18 view .LVU34
 121              	.LBE173:
 122              	.LBE172:
   8:UIManager.cpp **** 
 123              		.loc 1 8 1 view .LVU35
 124 003e 04B0     		add	sp, sp, #16
 125              		.cfi_def_cfa_offset 16
 126              		@ sp needed
 127 0040 70BD     		pop	{r4, r5, r6, pc}
 128              	.LVL7:
 129              	.L5:
   8:UIManager.cpp **** 
 130              		.loc 1 8 1 view .LVU36
 131 0042 00BFAFF3 		.align	3
 131      0080
 132              	.L4:
 133 0048 03000000 		.word	3
 134 004c 00000000 		.word	0
 135 0050 00000000 		.word	_ZL17StaticLedCallbackPv
 136              		.cfi_endproc
 137              	.LFE2577:
 139              		.section	.text._ZN9UIManager11UpdateKnobsEv,"ax",%progbits
 140              		.align	1
 141              		.p2align 2,,3
 142              		.global	_ZN9UIManager11UpdateKnobsEv
 143              		.syntax unified
 144              		.thumb
 145              		.thumb_func
 147              	_ZN9UIManager11UpdateKnobsEv:
 148              	.LVL8:
 149              	.LFB2579:
  20:UIManager.cpp ****   // NOTE: need to add stuff for chord mode here! 
 150              		.loc 1 20 30 is_stmt 1 view -0
 151              		.cfi_startproc
 152              		@ args = 0, pretend = 0, frame = 0
 153              		@ frame_needed = 0, uses_anonymous_args = 0
  22:UIManager.cpp ****     int mode_idx = static_cast<int>(current_synth_mode_);
 154              		.loc 1 22 3 view .LVU38
  20:UIManager.cpp ****   // NOTE: need to add stuff for chord mode here! 
 155              		.loc 1 20 30 is_stmt 0 view .LVU39
 156 0000 38B5     		push	{r3, r4, r5, lr}
 157              		.cfi_def_cfa_offset 16
 158              		.cfi_offset 3, -16
 159              		.cfi_offset 4, -12
 160              		.cfi_offset 5, -8
 161              		.cfi_offset 14, -4
 162              	.LBB187:
  22:UIManager.cpp ****     int mode_idx = static_cast<int>(current_synth_mode_);
 163              		.loc 1 22 3 view .LVU40
 164 0002 4368     		ldr	r3, [r0, #4]
ARM GAS  /var/folders/2p/02m_5p7958535cp2tpgps0400000gn/T//ccA97qDZ.s 			page 11


 165 0004 032B     		cmp	r3, #3
 166              	.LBE187:
  20:UIManager.cpp ****   // NOTE: need to add stuff for chord mode here! 
 167              		.loc 1 20 30 view .LVU41
 168 0006 2DED028B 		vpush.64	{d8}
 169              		.cfi_def_cfa_offset 24
 170              		.cfi_offset 80, -24
 171              		.cfi_offset 81, -20
 172              	.LBB188:
  22:UIManager.cpp ****     int mode_idx = static_cast<int>(current_synth_mode_);
 173              		.loc 1 22 3 view .LVU42
 174 000a 02D0     		beq	.L21
 175              	.LBE188:
  32:UIManager.cpp **** 
 176              		.loc 1 32 1 view .LVU43
 177 000c BDEC028B 		vldm	sp!, {d8}
 178              		.cfi_remember_state
 179              		.cfi_restore 80
 180              		.cfi_restore 81
 181              		.cfi_def_cfa_offset 16
 182 0010 38BD     		pop	{r3, r4, r5, pc}
 183              	.L21:
 184              		.cfi_restore_state
 185              	.LVL9:
 186              	.LBB189:
 187              	.LBI189:
  20:UIManager.cpp ****   // NOTE: need to add stuff for chord mode here! 
 188              		.loc 1 20 6 is_stmt 1 view .LVU44
 189              	.LBB190:
 190              	.LBB191:
  23:UIManager.cpp ****     float k1v = MapKnobDeadzone(pod_.knob1.Process());
 191              		.loc 1 23 5 view .LVU45
 192 0012 0446     		mov	r4, r0
  24:UIManager.cpp ****     float k2v = MapKnobDeadzone(pod_.knob2.Process());
 193              		.loc 1 24 32 is_stmt 0 view .LVU46
 194 0014 0068     		ldr	r0, [r0]
 195              	.LVL10:
  24:UIManager.cpp ****     float k2v = MapKnobDeadzone(pod_.knob2.Process());
 196              		.loc 1 24 32 view .LVU47
 197 0016 6830     		adds	r0, r0, #104
  23:UIManager.cpp ****     float k1v = MapKnobDeadzone(pod_.knob1.Process());
 198              		.loc 1 23 9 view .LVU48
 199 0018 A568     		ldr	r5, [r4, #8]
 200              	.LVL11:
  24:UIManager.cpp ****     float k2v = MapKnobDeadzone(pod_.knob2.Process());
 201              		.loc 1 24 5 is_stmt 1 view .LVU49
  24:UIManager.cpp ****     float k2v = MapKnobDeadzone(pod_.knob2.Process());
 202              		.loc 1 24 32 is_stmt 0 view .LVU50
 203 001a FFF7FEFF 		bl	_ZN5daisy13AnalogControl7ProcessEv
 204              	.LVL12:
 205              	.LBB192:
 206              	.LBB193:
 266:UIManager.cpp ****   if (knob_val>=0.99f) return 1.0f;
 207              		.loc 1 266 3 view .LVU51
 208 001e DFED1F7A 		vldr.32	s15, .L22
 209              	.LVL13:
 266:UIManager.cpp ****   if (knob_val>=0.99f) return 1.0f;
ARM GAS  /var/folders/2p/02m_5p7958535cp2tpgps0400000gn/T//ccA97qDZ.s 			page 12


 210              		.loc 1 266 3 view .LVU52
 211              	.LBE193:
 212              	.LBI192:
 265:UIManager.cpp ****   if (knob_val<=0.01f) return 0.0f;
 213              		.loc 1 265 7 is_stmt 1 view .LVU53
 214              	.LBB194:
 266:UIManager.cpp ****   if (knob_val>=0.99f) return 1.0f;
 215              		.loc 1 266 3 view .LVU54
 216 0022 B4EEE70A 		vcmpe.f32	s0, s15
 217 0026 F1EE10FA 		vmrs	APSR_nzcv, FPSCR
 218 002a 30D9     		bls	.L15
 267:UIManager.cpp ****   return knob_val;
 219              		.loc 1 267 3 view .LVU55
 220 002c 9FED1C7A 		vldr.32	s14, .L22+4
 267:UIManager.cpp ****   return knob_val;
 221              		.loc 1 267 31 is_stmt 0 view .LVU56
 222 0030 F7EE007A 		vmov.f32	s15, #1.0e+0
 223 0034 B4EE470A 		vcmp.f32	s0, s14
 224 0038 F1EE10FA 		vmrs	APSR_nzcv, FPSCR
 225 003c 27FE808A 		vselge.f32	s16, s15, s0
 226              	.L8:
 227              	.LVL14:
 267:UIManager.cpp ****   return knob_val;
 228              		.loc 1 267 31 view .LVU57
 229              	.LBE194:
 230              	.LBE192:
  25:UIManager.cpp **** 
 231              		.loc 1 25 5 is_stmt 1 view .LVU58
  25:UIManager.cpp **** 
 232              		.loc 1 25 32 is_stmt 0 view .LVU59
 233 0040 2068     		ldr	r0, [r4]
 234 0042 8830     		adds	r0, r0, #136
 235 0044 FFF7FEFF 		bl	_ZN5daisy13AnalogControl7ProcessEv
 236              	.LVL15:
 237              	.LBB196:
 238              	.LBB197:
 266:UIManager.cpp ****   if (knob_val>=0.99f) return 1.0f;
 239              		.loc 1 266 3 view .LVU60
 240 0048 DFED147A 		vldr.32	s15, .L22
 241              	.LVL16:
 266:UIManager.cpp ****   if (knob_val>=0.99f) return 1.0f;
 242              		.loc 1 266 3 view .LVU61
 243              	.LBE197:
 244              	.LBI196:
 265:UIManager.cpp ****   if (knob_val<=0.01f) return 0.0f;
 245              		.loc 1 265 7 is_stmt 1 view .LVU62
 246              	.LBB198:
 266:UIManager.cpp ****   if (knob_val>=0.99f) return 1.0f;
 247              		.loc 1 266 3 view .LVU63
 248 004c B4EEE70A 		vcmpe.f32	s0, s15
 249 0050 F1EE10FA 		vmrs	APSR_nzcv, FPSCR
 250 0054 1ED9     		bls	.L16
 267:UIManager.cpp ****   return knob_val;
 251              		.loc 1 267 3 view .LVU64
 252 0056 9FED127A 		vldr.32	s14, .L22+4
 267:UIManager.cpp ****   return knob_val;
 253              		.loc 1 267 31 is_stmt 0 view .LVU65
ARM GAS  /var/folders/2p/02m_5p7958535cp2tpgps0400000gn/T//ccA97qDZ.s 			page 13


 254 005a F7EE007A 		vmov.f32	s15, #1.0e+0
 255 005e B4EE470A 		vcmp.f32	s0, s14
 256 0062 F1EE10FA 		vmrs	APSR_nzcv, FPSCR
 257 0066 27FE800A 		vselge.f32	s0, s15, s0
 258              	.LVL17:
 259              	.L10:
 267:UIManager.cpp ****   return knob_val;
 260              		.loc 1 267 31 view .LVU66
 261              	.LBE198:
 262              	.LBE196:
  29:UIManager.cpp ****     k2v_[mode_idx] = UpdateKnobPassThru(k2v, &k2v_[mode_idx], &k2_pass_thru_[mode_idx]);
 263              		.loc 1 29 5 is_stmt 1 view .LVU67
 264              	.LBB200:
 265              	.LBI200:
 277:UIManager.cpp ****   if (!(*pass_thru)){
 266              		.loc 1 277 7 view .LVU68
 267              	.LBB201:
 278:UIManager.cpp ****     if (curr_knob_val >= (*stored_knob_val) || curr_knob_val <= (*stored_knob_val)) {
 268              		.loc 1 278 3 view .LVU69
 278:UIManager.cpp ****     if (curr_knob_val >= (*stored_knob_val) || curr_knob_val <= (*stored_knob_val)) {
 269              		.loc 1 278 9 is_stmt 0 view .LVU70
 270 006a 6319     		adds	r3, r4, r5
 278:UIManager.cpp ****     if (curr_knob_val >= (*stored_knob_val) || curr_knob_val <= (*stored_knob_val)) {
 271              		.loc 1 278 3 view .LVU71
 272 006c 1A7E     		ldrb	r2, [r3, #24]	@ zero_extendqisi2
 273 006e 0AB9     		cbnz	r2, .L12
 279:UIManager.cpp ****       (*pass_thru) = true;
 274              		.loc 1 279 5 is_stmt 1 view .LVU72
 280:UIManager.cpp ****     }
 275              		.loc 1 280 7 view .LVU73
 280:UIManager.cpp ****     }
 276              		.loc 1 280 20 is_stmt 0 view .LVU74
 277 0070 0122     		movs	r2, #1
 278 0072 1A76     		strb	r2, [r3, #24]
 279              	.L12:
 283:UIManager.cpp ****     (*stored_knob_val) = curr_knob_val;
 280              		.loc 1 283 3 is_stmt 1 view .LVU75
 281              	.LVL18:
 283:UIManager.cpp ****     (*stored_knob_val) = curr_knob_val;
 282              		.loc 1 283 3 is_stmt 0 view .LVU76
 283 0074 04EB8504 		add	r4, r4, r5, lsl #2
 284              	.LVL19:
 283:UIManager.cpp ****     (*stored_knob_val) = curr_knob_val;
 285              		.loc 1 283 3 view .LVU77
 286              	.LBE201:
 287              	.LBE200:
  29:UIManager.cpp ****     k2v_[mode_idx] = UpdateKnobPassThru(k2v, &k2v_[mode_idx], &k2_pass_thru_[mode_idx]);
 288              		.loc 1 29 20 view .LVU78
 289 0078 84ED0A8A 		vstr.32	s16, [r4, #40]
  30:UIManager.cpp ****   }
 290              		.loc 1 30 5 is_stmt 1 view .LVU79
 291              	.LVL20:
 292              	.LBB202:
 293              	.LBI202:
 277:UIManager.cpp ****   if (!(*pass_thru)){
 294              		.loc 1 277 7 view .LVU80
 295              	.LBB203:
ARM GAS  /var/folders/2p/02m_5p7958535cp2tpgps0400000gn/T//ccA97qDZ.s 			page 14


 278:UIManager.cpp ****     if (curr_knob_val >= (*stored_knob_val) || curr_knob_val <= (*stored_knob_val)) {
 296              		.loc 1 278 3 view .LVU81
 297 007c DA7F     		ldrb	r2, [r3, #31]	@ zero_extendqisi2
 298 007e 0AB9     		cbnz	r2, .L13
 279:UIManager.cpp ****       (*pass_thru) = true;
 299              		.loc 1 279 5 view .LVU82
 280:UIManager.cpp ****     }
 300              		.loc 1 280 7 view .LVU83
 280:UIManager.cpp ****     }
 301              		.loc 1 280 20 is_stmt 0 view .LVU84
 302 0080 0122     		movs	r2, #1
 303 0082 DA77     		strb	r2, [r3, #31]
 304              	.L13:
 283:UIManager.cpp ****     (*stored_knob_val) = curr_knob_val;
 305              		.loc 1 283 3 is_stmt 1 view .LVU85
 306              	.LVL21:
 283:UIManager.cpp ****     (*stored_knob_val) = curr_knob_val;
 307              		.loc 1 283 3 is_stmt 0 view .LVU86
 308              	.LBE203:
 309              	.LBE202:
  30:UIManager.cpp ****   }
 310              		.loc 1 30 20 view .LVU87
 311 0084 84ED110A 		vstr.32	s0, [r4, #68]
 312              	.LBE191:
 313              	.LBE190:
 314              	.LBE189:
  32:UIManager.cpp **** 
 315              		.loc 1 32 1 view .LVU88
 316 0088 BDEC028B 		vldm	sp!, {d8}
 317              		.cfi_remember_state
 318              		.cfi_restore 80
 319              		.cfi_restore 81
 320              		.cfi_def_cfa_offset 16
 321              	.LVL22:
  32:UIManager.cpp **** 
 322              		.loc 1 32 1 view .LVU89
 323 008c 38BD     		pop	{r3, r4, r5, pc}
 324              	.LVL23:
 325              	.L15:
 326              		.cfi_restore_state
 327              	.LBB208:
 328              	.LBB207:
 329              	.LBB206:
 330              	.LBB204:
 331              	.LBB195:
 266:UIManager.cpp ****   if (knob_val>=0.99f) return 1.0f;
 332              		.loc 1 266 31 view .LVU90
 333 008e 9FED058A 		vldr.32	s16, .L22+8
 334 0092 D5E7     		b	.L8
 335              	.LVL24:
 336              	.L16:
 266:UIManager.cpp ****   if (knob_val>=0.99f) return 1.0f;
 337              		.loc 1 266 31 view .LVU91
 338              	.LBE195:
 339              	.LBE204:
 340              	.LBB205:
 341              	.LBB199:
ARM GAS  /var/folders/2p/02m_5p7958535cp2tpgps0400000gn/T//ccA97qDZ.s 			page 15


 342 0094 9FED030A 		vldr.32	s0, .L22+8
 343              	.LVL25:
 266:UIManager.cpp ****   if (knob_val>=0.99f) return 1.0f;
 344              		.loc 1 266 31 view .LVU92
 345 0098 E7E7     		b	.L10
 346              	.L23:
 347 009a 00BF     		.align	2
 348              	.L22:
 349 009c 0AD7233C 		.word	1008981770
 350 00a0 A4707D3F 		.word	1065185444
 351 00a4 00000000 		.word	0
 352              	.LBE199:
 353              	.LBE205:
 354              	.LBE206:
 355              	.LBE207:
 356              	.LBE208:
 357              		.cfi_endproc
 358              	.LFE2579:
 360              		.section	.rodata._ZN9UIManager13HandleButton1Ev.str1.4,"aMS",%progbits,1
 361              		.align	2
 362              	.LC0:
 363 0000 53796E74 		.ascii	"Synth mode now in: Pan_PanRnd\000"
 363      68206D6F 
 363      6465206E 
 363      6F772069 
 363      6E3A2050 
 364 001e 0000     		.align	2
 365              	.LC1:
 366 0020 53796E74 		.ascii	"Synth mode now in: Size_Position\000"
 366      68206D6F 
 366      6465206E 
 366      6F772069 
 366      6E3A2053 
 367 0041 000000   		.align	2
 368              	.LC2:
 369 0044 53796E74 		.ascii	"Synth mode now in: Size_Position_Rnd\000"
 369      68206D6F 
 369      6465206E 
 369      6F772069 
 369      6E3A2053 
 370 0069 000000   		.align	2
 371              	.LC3:
 372 006c 53796E74 		.ascii	"Synth mode now in: Pitch_ActiveGrains\000"
 372      68206D6F 
 372      6465206E 
 372      6F772069 
 372      6E3A2050 
 373 0092 0000     		.align	2
 374              	.LC4:
 375 0094 53796E74 		.ascii	"Synth mode now in: Pitch_ActiveGrains_Rnd\000"
 375      68206D6F 
 375      6465206E 
 375      6F772069 
 375      6E3A2050 
 376 00be 0000     		.align	2
 377              	.LC5:
 378 00c0 53796E74 		.ascii	"Synth mode now in: PhasorMode_EnvType\000"
ARM GAS  /var/folders/2p/02m_5p7958535cp2tpgps0400000gn/T//ccA97qDZ.s 			page 16


 378      68206D6F 
 378      6465206E 
 378      6F772069 
 378      6E3A2050 
 379 00e6 0000     		.align	2
 380              	.LC6:
 381 00e8 53796E74 		.ascii	"Synth mode now in: PhasorMode_EnvType_Rnd\000"
 381      68206D6F 
 381      6465206E 
 381      6F772069 
 381      6E3A2050 
 382 0112 0000     		.align	2
 383              	.LC7:
 384 0114 53796E74 		.ascii	"Synth mode now in: Reverb\000"
 384      68206D6F 
 384      6465206E 
 384      6F772069 
 384      6E3A2052 
 385 012e 0000     		.align	2
 386              	.LC8:
 387 0130 53796E74 		.ascii	"Synth mode now in: Filter\000"
 387      68206D6F 
 387      6465206E 
 387      6F772069 
 387      6E3A2046 
 388              		.section	.text._ZN9UIManager13HandleButton1Ev,"ax",%progbits
 389              		.align	1
 390              		.p2align 2,,3
 391              		.global	_ZN9UIManager13HandleButton1Ev
 392              		.syntax unified
 393              		.thumb
 394              		.thumb_func
 396              	_ZN9UIManager13HandleButton1Ev:
 397              	.LVL26:
 398              	.LFB2581:
  63:UIManager.cpp ****   switch(current_state_){
 399              		.loc 1 63 32 is_stmt 1 view -0
 400              		.cfi_startproc
 401              		@ args = 0, pretend = 0, frame = 0
 402              		@ frame_needed = 0, uses_anonymous_args = 0
 403              		@ link register save eliminated.
  64:UIManager.cpp ****     case AppState::Startup:
 404              		.loc 1 64 3 view .LVU94
  64:UIManager.cpp ****     case AppState::Startup:
 405              		.loc 1 64 10 is_stmt 0 view .LVU95
 406 0000 4268     		ldr	r2, [r0, #4]
  63:UIManager.cpp ****   switch(current_state_){
 407              		.loc 1 63 32 view .LVU96
 408 0002 0346     		mov	r3, r0
  64:UIManager.cpp ****     case AppState::Startup:
 409              		.loc 1 64 3 view .LVU97
 410 0004 AAB1     		cbz	r2, .L25
 411 0006 032A     		cmp	r2, #3
 412 0008 08D1     		bne	.L43
 413              	.LVL27:
 414              	.LBB233:
 415              	.LBI233:
ARM GAS  /var/folders/2p/02m_5p7958535cp2tpgps0400000gn/T//ccA97qDZ.s 			page 17


  63:UIManager.cpp ****   switch(current_state_){
 416              		.loc 1 63 6 is_stmt 1 view .LVU98
 417              	.LBE233:
  77:UIManager.cpp ****       UpdateSynthMode();
 418              		.loc 1 77 5 view .LVU99
  78:UIManager.cpp ****       DebugPrintSynthMode();
 419              		.loc 1 78 7 view .LVU100
 420              	.LBB278:
 421              	.LBB234:
 422              	.LBI234:
 157:UIManager.cpp ****   switch(current_synth_mode_){
 423              		.loc 1 157 6 view .LVU101
 424              	.LBB235:
 158:UIManager.cpp ****     case SynthMode::Size_Position:
 425              		.loc 1 158 3 view .LVU102
 158:UIManager.cpp ****     case SynthMode::Size_Position:
 426              		.loc 1 158 10 is_stmt 0 view .LVU103
 427 000a 8268     		ldr	r2, [r0, #8]
 158:UIManager.cpp ****     case SynthMode::Size_Position:
 428              		.loc 1 158 3 view .LVU104
 429 000c 062A     		cmp	r2, #6
 430 000e 06D8     		bhi	.L28
 431 0010 DFE802F0 		tbb	[pc, r2]
 432              	.L30:
 433 0014 1C       		.byte	(.L33-.L30)/2
 434 0015 21       		.byte	(.L32-.L30)/2
 435 0016 17       		.byte	(.L31-.L30)/2
 436 0017 05       		.byte	(.L28-.L30)/2
 437 0018 05       		.byte	(.L28-.L30)/2
 438 0019 05       		.byte	(.L28-.L30)/2
 439 001a 12       		.byte	(.L29-.L30)/2
 440              	.LVL28:
 441 001b 00       		.p2align 1
 442              	.L43:
 158:UIManager.cpp ****     case SynthMode::Size_Position:
 443              		.loc 1 158 3 view .LVU105
 444 001c 7047     		bx	lr
 445              	.LVL29:
 446              	.L28:
 158:UIManager.cpp ****     case SynthMode::Size_Position:
 447              		.loc 1 158 3 view .LVU106
 448              	.LBE235:
 449              	.LBE234:
 450              	.LBE278:
  79:UIManager.cpp ****       break;
 451              		.loc 1 79 7 is_stmt 1 view .LVU107
 452              	.LBB279:
 453              	.LBB241:
 454              	.LBI241:
 309:UIManager.cpp **** }
 310:UIManager.cpp **** 
 311:UIManager.cpp **** 
 312:UIManager.cpp **** 
 313:UIManager.cpp **** void UIManager::LedPulseCallback(){
 314:UIManager.cpp ****   if (pulse_increasing_){
 315:UIManager.cpp ****     /* NOTE: increase step (in header) and period to reduce processing cost */
 316:UIManager.cpp ****     pulse_brightness_ += PULSE_STEP;
ARM GAS  /var/folders/2p/02m_5p7958535cp2tpgps0400000gn/T//ccA97qDZ.s 			page 18


 317:UIManager.cpp ****     if (pulse_brightness_ >= 255 - PULSE_STEP){
 318:UIManager.cpp ****       pulse_brightness_ = 255;
 319:UIManager.cpp ****       pulse_increasing_ = false;
 320:UIManager.cpp ****     }
 321:UIManager.cpp ****   }
 322:UIManager.cpp ****   else {
 323:UIManager.cpp ****     pulse_brightness_ -= PULSE_STEP;
 324:UIManager.cpp ****     if (pulse_brightness_ <= PULSE_STEP){
 325:UIManager.cpp ****       pulse_count_++;
 326:UIManager.cpp ****       pulse_brightness_ = 0;
 327:UIManager.cpp ****       pulse_increasing_ = true;
 328:UIManager.cpp ****     }
 329:UIManager.cpp ****   }
 330:UIManager.cpp ****   switch(current_state_){
 331:UIManager.cpp ****     /* pulse blue */
 332:UIManager.cpp ****     case AppState::SelectFile:
 333:UIManager.cpp ****       SetLed(0, 0, pulse_brightness_, true);
 334:UIManager.cpp ****     /* pulse white */
 335:UIManager.cpp ****     case AppState::RecordIn:
 336:UIManager.cpp ****       SetLed(pulse_brightness_, pulse_brightness_, pulse_brightness_, true);
 337:UIManager.cpp ****     /* pulse cyan */
 338:UIManager.cpp ****     case AppState::PlayWAV:
 339:UIManager.cpp ****       SetLed(0, pulse_brightness_, pulse_brightness_, true);
 340:UIManager.cpp ****     /* pulse red */
 341:UIManager.cpp ****     case AppState::Error:
 342:UIManager.cpp ****       SetLed(pulse_brightness_,0, 0, true);
 343:UIManager.cpp **** 
 344:UIManager.cpp ****     /* when switching to synth mode, pulse green twice, then solid;
 345:UIManager.cpp ****         otherwise pulses on synth mode switch */
 346:UIManager.cpp ****     case AppState::Synthesis:
 347:UIManager.cpp ****       if (pulse_count_ <= 2){
 348:UIManager.cpp ****         SetLed(0, pulse_brightness_, 0, true);
 349:UIManager.cpp ****       }
 350:UIManager.cpp ****       else {
 351:UIManager.cpp ****         StopLedPulse();
 352:UIManager.cpp ****         SetLedSynthMode();
 353:UIManager.cpp ****       }
 354:UIManager.cpp ****       break;
 355:UIManager.cpp ****     default:
 356:UIManager.cpp ****       break;
 357:UIManager.cpp ****   }
 358:UIManager.cpp **** } 
 359:UIManager.cpp **** 
 360:UIManager.cpp **** void UIManager::SetLedSynthMode(){
 361:UIManager.cpp ****   if (current_state_ == AppState::Synthesis){
 362:UIManager.cpp ****     switch(current_synth_mode_){
 363:UIManager.cpp ****       case SynthMode::Size_Position:
 364:UIManager.cpp ****         SetLed(0,255,0,true);
 365:UIManager.cpp ****         break;
 366:UIManager.cpp ****       case SynthMode::Pitch_ActiveGrains:
 367:UIManager.cpp ****       // orange: 100, 64, 0 or 255, 165, 0 or 255, 91, 31 (neon orange)
 368:UIManager.cpp ****         BlinkSetLed(255, 91, 31,true);
 369:UIManager.cpp ****         break;
 370:UIManager.cpp ****       case SynthMode::PhasorMode_EnvType:
 371:UIManager.cpp ****       // 0, 0, 255 blue
 372:UIManager.cpp ****         BlinkSetLed(0,0,255,true);
 373:UIManager.cpp ****         break;
ARM GAS  /var/folders/2p/02m_5p7958535cp2tpgps0400000gn/T//ccA97qDZ.s 			page 19


 374:UIManager.cpp ****       case SynthMode::Pan_PanRnd:
 375:UIManager.cpp ****       // fuschia: 255,0,255
 376:UIManager.cpp ****         BlinkSetLed(255,0,255,true);
 377:UIManager.cpp ****         break;
 378:UIManager.cpp ****       default:
 379:UIManager.cpp ****         break;
 380:UIManager.cpp ****     }
 381:UIManager.cpp ****   }
 382:UIManager.cpp **** }
 383:UIManager.cpp **** 
 384:UIManager.cpp **** void UIManager::SetLedRandomMode(){
 385:UIManager.cpp ****   if (current_state_==AppState::Synthesis){
 386:UIManager.cpp ****     switch(current_synth_mode_){
 387:UIManager.cpp ****       case SynthMode::Size_Position:
 388:UIManager.cpp ****       case SynthMode::Pitch_ActiveGrains:
 389:UIManager.cpp ****       case SynthMode::PhasorMode_EnvType:
 390:UIManager.cpp ****       case SynthMode::Pan_PanRnd:
 391:UIManager.cpp ****         /* set led 2 to green*/
 392:UIManager.cpp ****         SetLed(0,255,0,false);
 393:UIManager.cpp ****         break;
 394:UIManager.cpp ****       
 395:UIManager.cpp ****       case SynthMode::Size_Position_Rnd:
 396:UIManager.cpp ****       case SynthMode::Pitch_ActiveGrains_Rnd:
 397:UIManager.cpp ****       case SynthMode::PhasorMode_EnvType_Rnd:
 398:UIManager.cpp ****         /* set led 2 to red*/
 399:UIManager.cpp ****         SetLed(255,0,0,false);
 400:UIManager.cpp ****         break;
 401:UIManager.cpp ****       default:
 402:UIManager.cpp ****         break;
 403:UIManager.cpp ****     }
 404:UIManager.cpp ****   }
 405:UIManager.cpp **** }
 406:UIManager.cpp **** 
 407:UIManager.cpp **** void UIManager::SetLedFXMode(){
 408:UIManager.cpp ****   if (current_state_ == AppState::Synthesis){
 409:UIManager.cpp ****     switch(current_synth_mode_){
 410:UIManager.cpp ****       case SynthMode::Reverb:
 411:UIManager.cpp ****         /* set led 2 to cyan */
 412:UIManager.cpp ****         SetLed(0, 255, 255, false);
 413:UIManager.cpp ****         break;
 414:UIManager.cpp ****       case SynthMode::Filter:
 415:UIManager.cpp ****         /* set led 2 to yellow */
 416:UIManager.cpp ****         SetLed(255, 255, 0, false);
 417:UIManager.cpp ****         break;
 418:UIManager.cpp ****       default:
 419:UIManager.cpp ****         break;
 420:UIManager.cpp ****     }
 421:UIManager.cpp ****   }
 422:UIManager.cpp **** }
 423:UIManager.cpp **** 
 424:UIManager.cpp **** void UIManager::StartLedPulse(){
 425:UIManager.cpp ****   pulse_brightness_ = 0;
 426:UIManager.cpp ****   pulse_increasing_ = true;
 427:UIManager.cpp ****   pulse_count_ = 0;
 428:UIManager.cpp ****   timer_.Start();
 429:UIManager.cpp **** }
 430:UIManager.cpp **** 
ARM GAS  /var/folders/2p/02m_5p7958535cp2tpgps0400000gn/T//ccA97qDZ.s 			page 20


 431:UIManager.cpp **** void UIManager::StopLedPulse(){
 432:UIManager.cpp ****   timer_.Stop();
 433:UIManager.cpp **** }
 434:UIManager.cpp **** 
 435:UIManager.cpp **** void UIManager::SetLed(int r, int g, int b, bool is_Led1){
 436:UIManager.cpp ****   if (is_Led1){
 437:UIManager.cpp ****     pod_.led1.Set(r,g,b);
 438:UIManager.cpp ****   }
 439:UIManager.cpp ****   else {
 440:UIManager.cpp ****     pod_.led2.Set(r,g,b);
 441:UIManager.cpp ****   }
 442:UIManager.cpp ****   pod_.UpdateLeds();
 443:UIManager.cpp ****   System::Delay(10);
 444:UIManager.cpp **** }
 445:UIManager.cpp **** 
 446:UIManager.cpp **** void UIManager::BlinkLed(int r, int g, int b, bool is_Led1){
 447:UIManager.cpp ****   SetLed(r,g,b, is_Led1);
 448:UIManager.cpp ****   System::Delay(100);
 449:UIManager.cpp ****   SetLed(0,0,0, is_Led1);
 450:UIManager.cpp **** }
 451:UIManager.cpp **** 
 452:UIManager.cpp **** void UIManager::BlinkSetLed(int r, int g, int b, bool is_Led1){
 453:UIManager.cpp ****   BlinkLed(r,g,b, is_Led1);
 454:UIManager.cpp ****   System::Delay(100);
 455:UIManager.cpp ****   BlinkLed(r,g,b, is_Led1);
 456:UIManager.cpp ****   System::Delay(100);
 457:UIManager.cpp ****   SetLed(r,g,b, is_Led1);
 458:UIManager.cpp **** }
 459:UIManager.cpp **** 
 460:UIManager.cpp **** void UIManager::DebugPrintState(){
 461:UIManager.cpp ****   switch(current_state_){
 462:UIManager.cpp ****     case AppState::Startup:
 463:UIManager.cpp ****       DebugPrint(pod_, "State now in: Startup");
 464:UIManager.cpp ****         break;
 465:UIManager.cpp ****     case AppState::SelectFile:
 466:UIManager.cpp ****       DebugPrint(pod_, "State now in: SelectFile");
 467:UIManager.cpp ****         break;
 468:UIManager.cpp ****     case AppState::RecordIn:
 469:UIManager.cpp ****       DebugPrint(pod_, "State now in: RecordIn");
 470:UIManager.cpp ****         break;
 471:UIManager.cpp ****     case AppState::PlayWAV:
 472:UIManager.cpp ****       DebugPrint(pod_, "State now in: PlayWAV");
 473:UIManager.cpp ****         break;
 474:UIManager.cpp ****     case AppState::Synthesis:
 475:UIManager.cpp ****       DebugPrint(pod_, "State now in: Synthesis");
 476:UIManager.cpp ****         break;
 477:UIManager.cpp ****     // case AppState::ChordMode:
 478:UIManager.cpp ****       // DebugPrint(pod_, "State now in: ChordMode");
 479:UIManager.cpp ****     case AppState::Error:
 480:UIManager.cpp ****       DebugPrint(pod_, "State now in: Error");
 481:UIManager.cpp ****         break;
 482:UIManager.cpp ****     default:
 483:UIManager.cpp ****       DebugPrint(pod_, "default state??");
 484:UIManager.cpp ****       break;
 485:UIManager.cpp ****   }
 486:UIManager.cpp **** }
 487:UIManager.cpp **** 
ARM GAS  /var/folders/2p/02m_5p7958535cp2tpgps0400000gn/T//ccA97qDZ.s 			page 21


 488:UIManager.cpp **** void UIManager::DebugPrintSynthMode(){
 455              		.loc 1 488 6 view .LVU108
 456              	.LBB242:
 489:UIManager.cpp ****   switch(current_synth_mode_){
 457              		.loc 1 489 3 view .LVU109
 458 001e 082A     		cmp	r2, #8
 459 0020 06D8     		bhi	.L24
 460 0022 DFE802F0 		tbb	[pc, r2]
 461              	.L38:
 462 0026 0B       		.byte	(.L36-.L38)/2
 463 0027 15       		.byte	(.L34-.L38)/2
 464 0028 1A       		.byte	(.L35-.L38)/2
 465 0029 26       		.byte	(.L42-.L38)/2
 466 002a 29       		.byte	(.L41-.L38)/2
 467 002b 20       		.byte	(.L40-.L38)/2
 468 002c 05       		.byte	(.L24-.L38)/2
 469 002d 1D       		.byte	(.L39-.L38)/2
 470 002e 23       		.byte	(.L37-.L38)/2
 471 002f 00       		.p2align 1
 472              	.L24:
 473              	.LBE242:
 474              	.LBE241:
 475              	.LBE279:
  84:UIManager.cpp **** 
 476              		.loc 1 84 1 is_stmt 0 view .LVU110
 477 0030 7047     		bx	lr
 478              	.LVL30:
 479              	.L25:
  65:UIManager.cpp ****       current_state_ = AppState::SelectFile; 
 480              		.loc 1 65 5 is_stmt 1 view .LVU111
  66:UIManager.cpp ****       break;
 481              		.loc 1 66 7 view .LVU112
  66:UIManager.cpp ****       break;
 482              		.loc 1 66 22 is_stmt 0 view .LVU113
 483 0032 0122     		movs	r2, #1
 484 0034 4260     		str	r2, [r0, #4]
  67:UIManager.cpp ****     // case AppState::SelectFile:
 485              		.loc 1 67 7 is_stmt 1 view .LVU114
 486 0036 7047     		bx	lr
 487              	.LVL31:
 488              	.L29:
 489              	.LBB280:
 490              	.LBB268:
 491              	.LBB236:
 168:UIManager.cpp ****       current_synth_mode_ = SynthMode::Size_Position;
 492              		.loc 1 168 5 view .LVU115
 169:UIManager.cpp ****       break;
 493              		.loc 1 169 7 view .LVU116
 169:UIManager.cpp ****       break;
 494              		.loc 1 169 27 is_stmt 0 view .LVU117
 495 0038 0022     		movs	r2, #0
 496 003a 8260     		str	r2, [r0, #8]
 170:UIManager.cpp ****     default:
 497              		.loc 1 170 7 is_stmt 1 view .LVU118
 498              	.LVL32:
 170:UIManager.cpp ****     default:
 499              		.loc 1 170 7 is_stmt 0 view .LVU119
ARM GAS  /var/folders/2p/02m_5p7958535cp2tpgps0400000gn/T//ccA97qDZ.s 			page 22


 500              	.LBE236:
 501              	.LBE268:
 502              	.LBE280:
  79:UIManager.cpp ****       break;
 503              		.loc 1 79 7 is_stmt 1 view .LVU120
 504              	.LBB281:
 505              	.LBB269:
 488:UIManager.cpp ****   switch(current_synth_mode_){
 506              		.loc 1 488 6 view .LVU121
 507              	.LBB263:
 508              		.loc 1 489 3 view .LVU122
 509              	.L36:
 490:UIManager.cpp ****     case SynthMode::Size_Position:
 510              		.loc 1 490 5 view .LVU123
 491:UIManager.cpp ****       DebugPrint(pod_, "Synth mode now in: Size_Position");
 511              		.loc 1 491 7 view .LVU124
 512              		.loc 1 491 7 view .LVU125
 513              	.LBB243:
 514              	.LBI243:
 515              		.file 3 "../libDaisy/src/daisy_seed.h"
   1:../libDaisy/src/daisy_seed.h **** #pragma once
   2:../libDaisy/src/daisy_seed.h **** #ifndef DSY_SEED_H
   3:../libDaisy/src/daisy_seed.h **** #define DSY_SEED_H
   4:../libDaisy/src/daisy_seed.h **** 
   5:../libDaisy/src/daisy_seed.h **** #include "daisy.h"
   6:../libDaisy/src/daisy_seed.h **** 
   7:../libDaisy/src/daisy_seed.h **** //Uncomment this out if you're still using the rev2 hardware
   8:../libDaisy/src/daisy_seed.h **** //#define SEED_REV2
   9:../libDaisy/src/daisy_seed.h **** 
  10:../libDaisy/src/daisy_seed.h **** namespace daisy
  11:../libDaisy/src/daisy_seed.h **** {
  12:../libDaisy/src/daisy_seed.h **** /**
  13:../libDaisy/src/daisy_seed.h ****    @brief This is the higher-level interface for the Daisy board. \n 
  14:../libDaisy/src/daisy_seed.h ****     All basic peripheral configuration/initialization is setup here. \n
  15:../libDaisy/src/daisy_seed.h **** 
  16:../libDaisy/src/daisy_seed.h ****    @ingroup boards
  17:../libDaisy/src/daisy_seed.h **** */
  18:../libDaisy/src/daisy_seed.h **** class DaisySeed
  19:../libDaisy/src/daisy_seed.h **** {
  20:../libDaisy/src/daisy_seed.h ****   public:
  21:../libDaisy/src/daisy_seed.h ****     DaisySeed() {}
  22:../libDaisy/src/daisy_seed.h ****     ~DaisySeed() {}
  23:../libDaisy/src/daisy_seed.h **** 
  24:../libDaisy/src/daisy_seed.h ****     /** This function used to provide a pre-initialization configuraiton 
  25:../libDaisy/src/daisy_seed.h ****      *  it has since been deprecated, and does nothing.
  26:../libDaisy/src/daisy_seed.h ****      */
  27:../libDaisy/src/daisy_seed.h ****     void Configure();
  28:../libDaisy/src/daisy_seed.h **** 
  29:../libDaisy/src/daisy_seed.h ****     /** 
  30:../libDaisy/src/daisy_seed.h ****     Initializes the Daisy Seed and the following peripherals:
  31:../libDaisy/src/daisy_seed.h ****     SDRAM, QSPI, 24-bit 48kHz Audio via AK4556, Internal USB,
  32:../libDaisy/src/daisy_seed.h ****     as well as the built-in LED and Testpoint.
  33:../libDaisy/src/daisy_seed.h **** 
  34:../libDaisy/src/daisy_seed.h ****     ADCs, DACs, and other special peripherals (such as I2C, SPI, etc.)
  35:../libDaisy/src/daisy_seed.h ****     can be initialized using their specific initializers within libdaisy
  36:../libDaisy/src/daisy_seed.h ****     for a specific application.
  37:../libDaisy/src/daisy_seed.h ****     */
ARM GAS  /var/folders/2p/02m_5p7958535cp2tpgps0400000gn/T//ccA97qDZ.s 			page 23


  38:../libDaisy/src/daisy_seed.h ****     void Init(bool boost = false);
  39:../libDaisy/src/daisy_seed.h **** 
  40:../libDaisy/src/daisy_seed.h ****     /** 
  41:../libDaisy/src/daisy_seed.h ****     Deinitializes all peripherals automatically handled by `Init`.
  42:../libDaisy/src/daisy_seed.h ****     */
  43:../libDaisy/src/daisy_seed.h ****     void DeInit();
  44:../libDaisy/src/daisy_seed.h **** 
  45:../libDaisy/src/daisy_seed.h ****     /** 
  46:../libDaisy/src/daisy_seed.h ****     Wait some ms before going on.
  47:../libDaisy/src/daisy_seed.h ****     \param del Delay time in ms.
  48:../libDaisy/src/daisy_seed.h ****     */
  49:../libDaisy/src/daisy_seed.h ****     void DelayMs(size_t del);
  50:../libDaisy/src/daisy_seed.h **** 
  51:../libDaisy/src/daisy_seed.h ****     /** 
  52:../libDaisy/src/daisy_seed.h ****     Returns the gpio_pin corresponding to the index 0-31.
  53:../libDaisy/src/daisy_seed.h ****     For the given GPIO on the Daisy Seed (labeled 1-32 in docs).
  54:../libDaisy/src/daisy_seed.h ****     */
  55:../libDaisy/src/daisy_seed.h ****     static dsy_gpio_pin GetPin(uint8_t pin_idx);
  56:../libDaisy/src/daisy_seed.h **** 
  57:../libDaisy/src/daisy_seed.h ****     /** Begins the audio for the seeds builtin audio.
  58:../libDaisy/src/daisy_seed.h ****     the specified callback will get called whenever
  59:../libDaisy/src/daisy_seed.h ****     new data is ready to be prepared.
  60:../libDaisy/src/daisy_seed.h ****     */
  61:../libDaisy/src/daisy_seed.h ****     void StartAudio(AudioHandle::InterleavingAudioCallback cb);
  62:../libDaisy/src/daisy_seed.h **** 
  63:../libDaisy/src/daisy_seed.h ****     /** Begins the audio for the seeds builtin audio.
  64:../libDaisy/src/daisy_seed.h ****     the specified callback will get called whenever
  65:../libDaisy/src/daisy_seed.h ****     new data is ready to be prepared.
  66:../libDaisy/src/daisy_seed.h ****     This will use the newer non-interleaved callback.
  67:../libDaisy/src/daisy_seed.h ****     */
  68:../libDaisy/src/daisy_seed.h ****     void StartAudio(AudioHandle::AudioCallback cb);
  69:../libDaisy/src/daisy_seed.h **** 
  70:../libDaisy/src/daisy_seed.h ****     /** Changes to a new interleaved callback
  71:../libDaisy/src/daisy_seed.h ****      */
  72:../libDaisy/src/daisy_seed.h ****     void ChangeAudioCallback(AudioHandle::InterleavingAudioCallback cb);
  73:../libDaisy/src/daisy_seed.h **** 
  74:../libDaisy/src/daisy_seed.h ****     /** Changes to a new multichannel callback
  75:../libDaisy/src/daisy_seed.h ****      */
  76:../libDaisy/src/daisy_seed.h ****     void ChangeAudioCallback(AudioHandle::AudioCallback cb);
  77:../libDaisy/src/daisy_seed.h **** 
  78:../libDaisy/src/daisy_seed.h ****     /** Stops the audio if it is running. */
  79:../libDaisy/src/daisy_seed.h ****     void StopAudio();
  80:../libDaisy/src/daisy_seed.h **** 
  81:../libDaisy/src/daisy_seed.h ****     /** Updates the Audio Sample Rate, and reinitializes.
  82:../libDaisy/src/daisy_seed.h ****      ** Audio must be stopped for this to work.
  83:../libDaisy/src/daisy_seed.h ****      */
  84:../libDaisy/src/daisy_seed.h ****     void SetAudioSampleRate(SaiHandle::Config::SampleRate samplerate);
  85:../libDaisy/src/daisy_seed.h **** 
  86:../libDaisy/src/daisy_seed.h ****     /** Returns the audio sample rate in Hz as a floating point number.
  87:../libDaisy/src/daisy_seed.h ****      */
  88:../libDaisy/src/daisy_seed.h ****     float AudioSampleRate();
  89:../libDaisy/src/daisy_seed.h **** 
  90:../libDaisy/src/daisy_seed.h ****     /** Sets the number of samples processed per channel by the audio callback.
  91:../libDaisy/src/daisy_seed.h ****      */
  92:../libDaisy/src/daisy_seed.h ****     void SetAudioBlockSize(size_t blocksize);
  93:../libDaisy/src/daisy_seed.h **** 
  94:../libDaisy/src/daisy_seed.h ****     /** Returns the number of samples per channel in a block of audio. */
ARM GAS  /var/folders/2p/02m_5p7958535cp2tpgps0400000gn/T//ccA97qDZ.s 			page 24


  95:../libDaisy/src/daisy_seed.h ****     size_t AudioBlockSize();
  96:../libDaisy/src/daisy_seed.h **** 
  97:../libDaisy/src/daisy_seed.h ****     /** Returns the rate in Hz that the Audio callback is called */
  98:../libDaisy/src/daisy_seed.h ****     float AudioCallbackRate() const;
  99:../libDaisy/src/daisy_seed.h **** 
 100:../libDaisy/src/daisy_seed.h ****     /** Returns the SAI Handle for the Daisy Seed 
 101:../libDaisy/src/daisy_seed.h ****      *  This can be useful when adding a secondary codec,
 102:../libDaisy/src/daisy_seed.h ****      *  the result of this function can be passed to the audio reinit 
 103:../libDaisy/src/daisy_seed.h ****      *  with an SAI2 configuration
 104:../libDaisy/src/daisy_seed.h ****      */
 105:../libDaisy/src/daisy_seed.h ****     const SaiHandle& AudioSaiHandle() const;
 106:../libDaisy/src/daisy_seed.h **** 
 107:../libDaisy/src/daisy_seed.h ****     /** Sets the state of the built in LED
 108:../libDaisy/src/daisy_seed.h ****      */
 109:../libDaisy/src/daisy_seed.h ****     void SetLed(bool state);
 110:../libDaisy/src/daisy_seed.h **** 
 111:../libDaisy/src/daisy_seed.h ****     /** Sets the state of the test point near pin 10
 112:../libDaisy/src/daisy_seed.h ****      */
 113:../libDaisy/src/daisy_seed.h ****     void SetTestPoint(bool state);
 114:../libDaisy/src/daisy_seed.h **** 
 115:../libDaisy/src/daisy_seed.h ****     /** Print formatted debug log message
 116:../libDaisy/src/daisy_seed.h ****      */
 117:../libDaisy/src/daisy_seed.h ****     template <typename... VA>
 118:../libDaisy/src/daisy_seed.h ****     static void Print(const char* format, VA... va)
 119:../libDaisy/src/daisy_seed.h ****     {
 120:../libDaisy/src/daisy_seed.h ****         Log::Print(format, va...);
 121:../libDaisy/src/daisy_seed.h ****     }
 122:../libDaisy/src/daisy_seed.h **** 
 123:../libDaisy/src/daisy_seed.h ****     /** Print formatted debug log message with automatic line termination
 124:../libDaisy/src/daisy_seed.h ****     */
 125:../libDaisy/src/daisy_seed.h ****     template <typename... VA>
 126:../libDaisy/src/daisy_seed.h ****     static void PrintLine(const char* format, VA... va)
 516              		.loc 3 126 17 view .LVU126
 517              	.LBB244:
 127:../libDaisy/src/daisy_seed.h ****     {
 128:../libDaisy/src/daisy_seed.h ****         Log::PrintLine(format, va...);
 518              		.loc 3 128 23 is_stmt 0 view .LVU127
 519 003c 1048     		ldr	r0, .L44
 520              	.LVL33:
 521              		.loc 3 128 23 view .LVU128
 522 003e FFF7FEBF 		b	_ZN5daisy6LoggerILNS_17LoggerDestinationE1EE9PrintLineEPKcz
 523              	.LVL34:
 524              	.L31:
 525              		.loc 3 128 23 view .LVU129
 526              	.LBE244:
 527              	.LBE243:
 528              	.LBE263:
 529              	.LBE269:
 530              	.LBB270:
 531              	.LBB237:
 165:UIManager.cpp ****       current_synth_mode_ = SynthMode::Pan_PanRnd;
 532              		.loc 1 165 5 is_stmt 1 view .LVU130
 166:UIManager.cpp ****       break;
 533              		.loc 1 166 7 view .LVU131
 166:UIManager.cpp ****       break;
 534              		.loc 1 166 27 is_stmt 0 view .LVU132
 535 0042 0622     		movs	r2, #6
ARM GAS  /var/folders/2p/02m_5p7958535cp2tpgps0400000gn/T//ccA97qDZ.s 			page 25


 536              	.LBE237:
 537              	.LBE270:
 538              	.LBB271:
 539              	.LBB264:
 540              	.LBB245:
 541              	.LBB246:
 542              		.loc 3 128 23 view .LVU133
 543 0044 0F48     		ldr	r0, .L44+4
 544              	.LVL35:
 545              		.loc 3 128 23 view .LVU134
 546              	.LBE246:
 547              	.LBE245:
 548              	.LBE264:
 549              	.LBE271:
 550              	.LBB272:
 551              	.LBB238:
 166:UIManager.cpp ****       break;
 552              		.loc 1 166 27 view .LVU135
 553 0046 9A60     		str	r2, [r3, #8]
 167:UIManager.cpp ****     case SynthMode::Pan_PanRnd:
 554              		.loc 1 167 7 is_stmt 1 view .LVU136
 555              	.LVL36:
 167:UIManager.cpp ****     case SynthMode::Pan_PanRnd:
 556              		.loc 1 167 7 is_stmt 0 view .LVU137
 557              	.LBE238:
 558              	.LBE272:
 559              	.LBE281:
  79:UIManager.cpp ****       break;
 560              		.loc 1 79 7 is_stmt 1 view .LVU138
 561              	.LBB282:
 562              	.LBB273:
 488:UIManager.cpp ****   switch(current_synth_mode_){
 563              		.loc 1 488 6 view .LVU139
 564              	.LBB265:
 489:UIManager.cpp ****     case SynthMode::Size_Position:
 565              		.loc 1 489 3 view .LVU140
 492:UIManager.cpp ****         break;
 493:UIManager.cpp ****     case SynthMode::Size_Position_Rnd:
 494:UIManager.cpp ****       DebugPrint(pod_, "Synth mode now in: Size_Position_Rnd");
 495:UIManager.cpp ****         break;
 496:UIManager.cpp ****     case SynthMode::Pitch_ActiveGrains:
 497:UIManager.cpp ****       DebugPrint(pod_, "Synth mode now in: Pitch_ActiveGrains");
 498:UIManager.cpp ****         break;
 499:UIManager.cpp ****     case SynthMode::Pitch_ActiveGrains_Rnd:
 500:UIManager.cpp ****       DebugPrint(pod_, "Synth mode now in: Pitch_ActiveGrains_Rnd");
 501:UIManager.cpp ****         break;
 502:UIManager.cpp ****     case SynthMode::PhasorMode_EnvType:
 503:UIManager.cpp ****       DebugPrint(pod_, "Synth mode now in: PhasorMode_EnvType");
 504:UIManager.cpp ****         break;
 505:UIManager.cpp ****     case SynthMode::PhasorMode_EnvType_Rnd:
 506:UIManager.cpp ****       DebugPrint(pod_, "Synth mode now in: PhasorMode_EnvType_Rnd");
 507:UIManager.cpp ****         break;
 508:UIManager.cpp ****     case SynthMode::Pan_PanRnd:
 566              		.loc 1 508 5 view .LVU141
 509:UIManager.cpp ****       DebugPrint(pod_, "Synth mode now in: Pan_PanRnd");
 567              		.loc 1 509 7 view .LVU142
 568              		.loc 1 509 7 view .LVU143
ARM GAS  /var/folders/2p/02m_5p7958535cp2tpgps0400000gn/T//ccA97qDZ.s 			page 26


 569              	.LBB248:
 570              	.LBI245:
 126:../libDaisy/src/daisy_seed.h ****     {
 571              		.loc 3 126 17 view .LVU144
 572              	.LBB247:
 573              		.loc 3 128 23 is_stmt 0 view .LVU145
 574 0048 FFF7FEBF 		b	_ZN5daisy6LoggerILNS_17LoggerDestinationE1EE9PrintLineEPKcz
 575              	.LVL37:
 576              	.L33:
 577              		.loc 3 128 23 view .LVU146
 578              	.LBE247:
 579              	.LBE248:
 580              	.LBE265:
 581              	.LBE273:
 582              	.LBB274:
 583              	.LBB239:
 159:UIManager.cpp ****       current_synth_mode_ = SynthMode::Pitch_ActiveGrains;
 584              		.loc 1 159 5 is_stmt 1 view .LVU147
 160:UIManager.cpp ****       break;
 585              		.loc 1 160 7 view .LVU148
 160:UIManager.cpp ****       break;
 586              		.loc 1 160 27 is_stmt 0 view .LVU149
 587 004c 0122     		movs	r2, #1
 588 004e 8260     		str	r2, [r0, #8]
 161:UIManager.cpp ****     case SynthMode::Pitch_ActiveGrains:
 589              		.loc 1 161 7 is_stmt 1 view .LVU150
 590              	.LVL38:
 161:UIManager.cpp ****     case SynthMode::Pitch_ActiveGrains:
 591              		.loc 1 161 7 is_stmt 0 view .LVU151
 592              	.LBE239:
 593              	.LBE274:
 594              	.LBE282:
  79:UIManager.cpp ****       break;
 595              		.loc 1 79 7 is_stmt 1 view .LVU152
 596              	.LBB283:
 597              	.LBB275:
 488:UIManager.cpp ****   switch(current_synth_mode_){
 598              		.loc 1 488 6 view .LVU153
 599              	.LBB266:
 489:UIManager.cpp ****     case SynthMode::Size_Position:
 600              		.loc 1 489 3 view .LVU154
 601              	.L34:
 496:UIManager.cpp ****       DebugPrint(pod_, "Synth mode now in: Pitch_ActiveGrains");
 602              		.loc 1 496 5 view .LVU155
 497:UIManager.cpp ****         break;
 603              		.loc 1 497 7 view .LVU156
 497:UIManager.cpp ****         break;
 604              		.loc 1 497 7 view .LVU157
 605              	.LBB249:
 606              	.LBI249:
 126:../libDaisy/src/daisy_seed.h ****     {
 607              		.loc 3 126 17 view .LVU158
 608              	.LBB250:
 609              		.loc 3 128 23 is_stmt 0 view .LVU159
 610 0050 0D48     		ldr	r0, .L44+8
 611              	.LVL39:
 612              		.loc 3 128 23 view .LVU160
ARM GAS  /var/folders/2p/02m_5p7958535cp2tpgps0400000gn/T//ccA97qDZ.s 			page 27


 613 0052 FFF7FEBF 		b	_ZN5daisy6LoggerILNS_17LoggerDestinationE1EE9PrintLineEPKcz
 614              	.LVL40:
 615              	.L32:
 616              		.loc 3 128 23 view .LVU161
 617              	.LBE250:
 618              	.LBE249:
 619              	.LBE266:
 620              	.LBE275:
 621              	.LBB276:
 622              	.LBB240:
 162:UIManager.cpp ****       current_synth_mode_ = SynthMode::PhasorMode_EnvType;
 623              		.loc 1 162 5 is_stmt 1 view .LVU162
 163:UIManager.cpp ****       break;
 624              		.loc 1 163 7 view .LVU163
 163:UIManager.cpp ****       break;
 625              		.loc 1 163 27 is_stmt 0 view .LVU164
 626 0056 0222     		movs	r2, #2
 627 0058 8260     		str	r2, [r0, #8]
 164:UIManager.cpp ****     case SynthMode::PhasorMode_EnvType:
 628              		.loc 1 164 7 is_stmt 1 view .LVU165
 629              	.LVL41:
 164:UIManager.cpp ****     case SynthMode::PhasorMode_EnvType:
 630              		.loc 1 164 7 is_stmt 0 view .LVU166
 631              	.LBE240:
 632              	.LBE276:
 633              	.LBE283:
  79:UIManager.cpp ****       break;
 634              		.loc 1 79 7 is_stmt 1 view .LVU167
 635              	.LBB284:
 636              	.LBB277:
 488:UIManager.cpp ****   switch(current_synth_mode_){
 637              		.loc 1 488 6 view .LVU168
 638              	.LBB267:
 489:UIManager.cpp ****     case SynthMode::Size_Position:
 639              		.loc 1 489 3 view .LVU169
 640              	.L35:
 502:UIManager.cpp ****       DebugPrint(pod_, "Synth mode now in: PhasorMode_EnvType");
 641              		.loc 1 502 5 view .LVU170
 503:UIManager.cpp ****         break;
 642              		.loc 1 503 7 view .LVU171
 503:UIManager.cpp ****         break;
 643              		.loc 1 503 7 view .LVU172
 644              	.LBB251:
 645              	.LBI251:
 126:../libDaisy/src/daisy_seed.h ****     {
 646              		.loc 3 126 17 view .LVU173
 647              	.LBB252:
 648              		.loc 3 128 23 is_stmt 0 view .LVU174
 649 005a 0C48     		ldr	r0, .L44+12
 650              	.LVL42:
 651              		.loc 3 128 23 view .LVU175
 652 005c FFF7FEBF 		b	_ZN5daisy6LoggerILNS_17LoggerDestinationE1EE9PrintLineEPKcz
 653              	.LVL43:
 654              	.L39:
 655              		.loc 3 128 23 view .LVU176
 656              	.LBE252:
 657              	.LBE251:
ARM GAS  /var/folders/2p/02m_5p7958535cp2tpgps0400000gn/T//ccA97qDZ.s 			page 28


 510:UIManager.cpp ****       break;
 511:UIManager.cpp ****     case SynthMode::Reverb:
 658              		.loc 1 511 5 is_stmt 1 view .LVU177
 512:UIManager.cpp ****       DebugPrint(pod_, "Synth mode now in: Reverb");
 659              		.loc 1 512 7 view .LVU178
 660              		.loc 1 512 7 view .LVU179
 661              	.LBB253:
 662              	.LBI253:
 126:../libDaisy/src/daisy_seed.h ****     {
 663              		.loc 3 126 17 view .LVU180
 664              	.LBB254:
 665              		.loc 3 128 23 is_stmt 0 view .LVU181
 666 0060 0B48     		ldr	r0, .L44+16
 667              	.LVL44:
 668              		.loc 3 128 23 view .LVU182
 669 0062 FFF7FEBF 		b	_ZN5daisy6LoggerILNS_17LoggerDestinationE1EE9PrintLineEPKcz
 670              	.LVL45:
 671              	.L40:
 672              		.loc 3 128 23 view .LVU183
 673              	.LBE254:
 674              	.LBE253:
 505:UIManager.cpp ****       DebugPrint(pod_, "Synth mode now in: PhasorMode_EnvType_Rnd");
 675              		.loc 1 505 5 is_stmt 1 view .LVU184
 506:UIManager.cpp ****         break;
 676              		.loc 1 506 7 view .LVU185
 506:UIManager.cpp ****         break;
 677              		.loc 1 506 7 view .LVU186
 678              	.LBB255:
 679              	.LBI255:
 126:../libDaisy/src/daisy_seed.h ****     {
 680              		.loc 3 126 17 view .LVU187
 681              	.LBB256:
 682              		.loc 3 128 23 is_stmt 0 view .LVU188
 683 0066 0B48     		ldr	r0, .L44+20
 684              	.LVL46:
 685              		.loc 3 128 23 view .LVU189
 686 0068 FFF7FEBF 		b	_ZN5daisy6LoggerILNS_17LoggerDestinationE1EE9PrintLineEPKcz
 687              	.LVL47:
 688              	.L37:
 689              		.loc 3 128 23 view .LVU190
 690              	.LBE256:
 691              	.LBE255:
 513:UIManager.cpp ****       break;
 514:UIManager.cpp ****     case SynthMode::Filter:
 692              		.loc 1 514 5 is_stmt 1 view .LVU191
 515:UIManager.cpp ****       DebugPrint(pod_, "Synth mode now in: Filter");
 693              		.loc 1 515 7 view .LVU192
 694              		.loc 1 515 7 view .LVU193
 695              	.LBB257:
 696              	.LBI257:
 126:../libDaisy/src/daisy_seed.h ****     {
 697              		.loc 3 126 17 view .LVU194
 698              	.LBB258:
 699              		.loc 3 128 23 is_stmt 0 view .LVU195
 700 006c 0A48     		ldr	r0, .L44+24
 701              	.LVL48:
 702              		.loc 3 128 23 view .LVU196
ARM GAS  /var/folders/2p/02m_5p7958535cp2tpgps0400000gn/T//ccA97qDZ.s 			page 29


 703 006e FFF7FEBF 		b	_ZN5daisy6LoggerILNS_17LoggerDestinationE1EE9PrintLineEPKcz
 704              	.LVL49:
 705              	.L42:
 706              		.loc 3 128 23 view .LVU197
 707              	.LBE258:
 708              	.LBE257:
 493:UIManager.cpp ****       DebugPrint(pod_, "Synth mode now in: Size_Position_Rnd");
 709              		.loc 1 493 5 is_stmt 1 view .LVU198
 494:UIManager.cpp ****         break;
 710              		.loc 1 494 7 view .LVU199
 494:UIManager.cpp ****         break;
 711              		.loc 1 494 7 view .LVU200
 712              	.LBB259:
 713              	.LBI259:
 126:../libDaisy/src/daisy_seed.h ****     {
 714              		.loc 3 126 17 view .LVU201
 715              	.LBB260:
 716              		.loc 3 128 23 is_stmt 0 view .LVU202
 717 0072 0A48     		ldr	r0, .L44+28
 718              	.LVL50:
 719              		.loc 3 128 23 view .LVU203
 720 0074 FFF7FEBF 		b	_ZN5daisy6LoggerILNS_17LoggerDestinationE1EE9PrintLineEPKcz
 721              	.LVL51:
 722              	.L41:
 723              		.loc 3 128 23 view .LVU204
 724              	.LBE260:
 725              	.LBE259:
 499:UIManager.cpp ****       DebugPrint(pod_, "Synth mode now in: Pitch_ActiveGrains_Rnd");
 726              		.loc 1 499 5 is_stmt 1 view .LVU205
 500:UIManager.cpp ****         break;
 727              		.loc 1 500 7 view .LVU206
 500:UIManager.cpp ****         break;
 728              		.loc 1 500 7 view .LVU207
 729              	.LBB261:
 730              	.LBI261:
 126:../libDaisy/src/daisy_seed.h ****     {
 731              		.loc 3 126 17 view .LVU208
 732              	.LBB262:
 733              		.loc 3 128 23 is_stmt 0 view .LVU209
 734 0078 0948     		ldr	r0, .L44+32
 735              	.LVL52:
 736              		.loc 3 128 23 view .LVU210
 737 007a FFF7FEBF 		b	_ZN5daisy6LoggerILNS_17LoggerDestinationE1EE9PrintLineEPKcz
 738              	.LVL53:
 739              	.L45:
 740 007e 00BF     		.align	2
 741              	.L44:
 742 0080 20000000 		.word	.LC1
 743 0084 00000000 		.word	.LC0
 744 0088 6C000000 		.word	.LC3
 745 008c C0000000 		.word	.LC5
 746 0090 14010000 		.word	.LC7
 747 0094 E8000000 		.word	.LC6
 748 0098 30010000 		.word	.LC8
 749 009c 44000000 		.word	.LC2
 750 00a0 94000000 		.word	.LC4
 751              	.LBE262:
ARM GAS  /var/folders/2p/02m_5p7958535cp2tpgps0400000gn/T//ccA97qDZ.s 			page 30


 752              	.LBE261:
 753              	.LBE267:
 754              	.LBE277:
 755              	.LBE284:
 756              		.cfi_endproc
 757              	.LFE2581:
 759              		.section	.text._ZN9UIManager13HandleButton2Ev,"ax",%progbits
 760              		.align	1
 761              		.p2align 2,,3
 762              		.global	_ZN9UIManager13HandleButton2Ev
 763              		.syntax unified
 764              		.thumb
 765              		.thumb_func
 767              	_ZN9UIManager13HandleButton2Ev:
 768              	.LVL54:
 769              	.LFB2582:
  86:UIManager.cpp ****     if (current_state_ == AppState::Synthesis){
 770              		.loc 1 86 32 is_stmt 1 view -0
 771              		.cfi_startproc
 772              		@ args = 0, pretend = 0, frame = 0
 773              		@ frame_needed = 0, uses_anonymous_args = 0
  87:UIManager.cpp ****       ToggleRandomnessControls();
 774              		.loc 1 87 5 view .LVU212
 775 0000 4368     		ldr	r3, [r0, #4]
 776 0002 032B     		cmp	r3, #3
 777 0004 00D0     		beq	.L64
 778 0006 7047     		bx	lr
 779              	.L64:
 780              	.LBB297:
 781              	.LBB298:
 782              	.LBB299:
 180:UIManager.cpp ****     case SynthMode::Size_Position:
 783              		.loc 1 180 10 is_stmt 0 view .LVU213
 784 0008 8368     		ldr	r3, [r0, #8]
 785              	.LBE299:
 786              	.LBE298:
 787              	.LBE297:
  86:UIManager.cpp ****     if (current_state_ == AppState::Synthesis){
 788              		.loc 1 86 32 view .LVU214
 789 000a 10B5     		push	{r4, lr}
 790              		.cfi_def_cfa_offset 8
 791              		.cfi_offset 4, -8
 792              		.cfi_offset 14, -4
 793 000c 0446     		mov	r4, r0
 794              	.LVL55:
 795              	.LBB326:
 796              	.LBI297:
  86:UIManager.cpp ****     if (current_state_ == AppState::Synthesis){
 797              		.loc 1 86 6 is_stmt 1 view .LVU215
 798              	.LBE326:
  88:UIManager.cpp ****       SetLedRandomMode();
 799              		.loc 1 88 7 view .LVU216
 800              	.LBB327:
 801              	.LBB303:
 802              	.LBI298:
 179:UIManager.cpp ****   switch(current_synth_mode_){
 803              		.loc 1 179 6 view .LVU217
ARM GAS  /var/folders/2p/02m_5p7958535cp2tpgps0400000gn/T//ccA97qDZ.s 			page 31


 804              	.LBB300:
 180:UIManager.cpp ****     case SynthMode::Size_Position:
 805              		.loc 1 180 3 view .LVU218
 806 000e 052B     		cmp	r3, #5
 807 0010 2FD8     		bhi	.L48
 808 0012 DFE803F0 		tbb	[pc, r3]
 809              	.L50:
 810 0016 18       		.byte	(.L55-.L50)/2
 811 0017 22       		.byte	(.L54-.L50)/2
 812 0018 25       		.byte	(.L53-.L50)/2
 813 0019 28       		.byte	(.L52-.L50)/2
 814 001a 2B       		.byte	(.L51-.L50)/2
 815 001b 03       		.byte	(.L49-.L50)/2
 816              	.LVL56:
 817              		.p2align 1
 818              	.L49:
 196:UIManager.cpp ****       current_synth_mode_ = SynthMode::PhasorMode_EnvType;
 819              		.loc 1 196 5 view .LVU219
 197:UIManager.cpp ****       break;
 820              		.loc 1 197 7 view .LVU220
 197:UIManager.cpp ****       break;
 821              		.loc 1 197 27 is_stmt 0 view .LVU221
 822 001c 0223     		movs	r3, #2
 823 001e 8360     		str	r3, [r0, #8]
 198:UIManager.cpp ****     default:
 824              		.loc 1 198 7 is_stmt 1 view .LVU222
 825              	.LVL57:
 826              	.L58:
 198:UIManager.cpp ****     default:
 827              		.loc 1 198 7 is_stmt 0 view .LVU223
 828              	.LBE300:
 829              	.LBE303:
 830              	.LBB304:
 831              	.LBB305:
 832              	.LBB306:
 833              	.LBI306:
 384:UIManager.cpp ****   if (current_state_==AppState::Synthesis){
 834              		.loc 1 384 6 is_stmt 1 view .LVU224
 835              	.LBE306:
 836              	.LBE305:
 837              	.LBE304:
 838              	.LBE327:
 387:UIManager.cpp ****       case SynthMode::Pitch_ActiveGrains:
 839              		.loc 1 387 7 view .LVU225
 388:UIManager.cpp ****       case SynthMode::PhasorMode_EnvType:
 840              		.loc 1 388 7 view .LVU226
 389:UIManager.cpp ****       case SynthMode::Pan_PanRnd:
 841              		.loc 1 389 7 view .LVU227
 390:UIManager.cpp ****         /* set led 2 to green*/
 842              		.loc 1 390 7 view .LVU228
 392:UIManager.cpp ****         break;
 843              		.loc 1 392 9 view .LVU229
 844              	.LBB328:
 845              	.LBB320:
 846              	.LBB316:
 847              	.LBB309:
 848              	.LBB307:
ARM GAS  /var/folders/2p/02m_5p7958535cp2tpgps0400000gn/T//ccA97qDZ.s 			page 32


 849              	.LBI307:
 435:UIManager.cpp ****   if (is_Led1){
 850              		.loc 1 435 6 view .LVU230
 851              	.LBB308:
 436:UIManager.cpp ****     pod_.led1.Set(r,g,b);
 852              		.loc 1 436 3 view .LVU231
 440:UIManager.cpp ****   }
 853              		.loc 1 440 5 view .LVU232
 440:UIManager.cpp ****   }
 854              		.loc 1 440 18 is_stmt 0 view .LVU233
 855 0020 9FED151A 		vldr.32	s2, .L65
 856 0024 2068     		ldr	r0, [r4]
 857              	.LVL58:
 440:UIManager.cpp ****   }
 858              		.loc 1 440 18 view .LVU234
 859 0026 B0EE410A 		vmov.f32	s0, s2
 860 002a DFED140A 		vldr.32	s1, .L65+4
 861              	.LVL59:
 862              	.L63:
 440:UIManager.cpp ****   }
 863              		.loc 1 440 18 view .LVU235
 864              	.LBE308:
 865              	.LBE307:
 866              	.LBE309:
 867              	.LBB310:
 868              	.LBB311:
 869 002e 00F59670 		add	r0, r0, #300
 870 0032 FFF7FEFF 		bl	_ZN5daisy6RgbLed3SetEfff
 871              	.LVL60:
 442:UIManager.cpp ****   System::Delay(10);
 872              		.loc 1 442 3 is_stmt 1 view .LVU236
 442:UIManager.cpp ****   System::Delay(10);
 873              		.loc 1 442 18 is_stmt 0 view .LVU237
 874 0036 2068     		ldr	r0, [r4]
 875 0038 FFF7FEFF 		bl	_ZN5daisy8DaisyPod10UpdateLedsEv
 876              	.LVL61:
 443:UIManager.cpp **** }
 877              		.loc 1 443 3 is_stmt 1 view .LVU238
 443:UIManager.cpp **** }
 878              		.loc 1 443 16 is_stmt 0 view .LVU239
 879 003c 0A20     		movs	r0, #10
 880              	.LBE311:
 881              	.LBE310:
 882              	.LBE316:
 883              	.LBE320:
 884              	.LBE328:
  91:UIManager.cpp **** 
 885              		.loc 1 91 1 view .LVU240
 886 003e BDE81040 		pop	{r4, lr}
 887              		.cfi_remember_state
 888              		.cfi_restore 14
 889              		.cfi_restore 4
 890              		.cfi_def_cfa_offset 0
 891              	.LVL62:
 892              	.LBB329:
 893              	.LBB321:
 894              	.LBB317:
ARM GAS  /var/folders/2p/02m_5p7958535cp2tpgps0400000gn/T//ccA97qDZ.s 			page 33


 895              	.LBB314:
 896              	.LBB312:
 443:UIManager.cpp **** }
 897              		.loc 1 443 16 view .LVU241
 898 0042 FFF7FEBF 		b	_ZN5daisy6System5DelayEm
 899              	.LVL63:
 900              	.L55:
 901              		.cfi_restore_state
 443:UIManager.cpp **** }
 902              		.loc 1 443 16 view .LVU242
 903              	.LBE312:
 904              	.LBE314:
 905              	.LBE317:
 906              	.LBE321:
 907              	.LBB322:
 908              	.LBB301:
 181:UIManager.cpp ****       current_synth_mode_ = SynthMode::Size_Position_Rnd;
 909              		.loc 1 181 5 is_stmt 1 view .LVU243
 182:UIManager.cpp ****       break;
 910              		.loc 1 182 7 view .LVU244
 182:UIManager.cpp ****       break;
 911              		.loc 1 182 27 is_stmt 0 view .LVU245
 912 0046 0323     		movs	r3, #3
 913 0048 8360     		str	r3, [r0, #8]
 183:UIManager.cpp ****     case SynthMode::Size_Position_Rnd:
 914              		.loc 1 183 7 is_stmt 1 view .LVU246
 915              	.L56:
 916              	.LVL64:
 183:UIManager.cpp ****     case SynthMode::Size_Position_Rnd:
 917              		.loc 1 183 7 is_stmt 0 view .LVU247
 918              	.LBE301:
 919              	.LBE322:
 920              	.LBE329:
  89:UIManager.cpp ****     }
 921              		.loc 1 89 7 is_stmt 1 view .LVU248
 922              	.LBB330:
 923              	.LBB323:
 924              	.LBI304:
 384:UIManager.cpp ****   if (current_state_==AppState::Synthesis){
 925              		.loc 1 384 6 view .LVU249
 926              	.LBB318:
 385:UIManager.cpp ****     switch(current_synth_mode_){
 927              		.loc 1 385 3 view .LVU250
 386:UIManager.cpp ****       case SynthMode::Size_Position:
 928              		.loc 1 386 5 view .LVU251
 395:UIManager.cpp ****       case SynthMode::Pitch_ActiveGrains_Rnd:
 929              		.loc 1 395 7 view .LVU252
 396:UIManager.cpp ****       case SynthMode::PhasorMode_EnvType_Rnd:
 930              		.loc 1 396 7 view .LVU253
 397:UIManager.cpp ****         /* set led 2 to red*/
 931              		.loc 1 397 7 view .LVU254
 399:UIManager.cpp ****         break;
 932              		.loc 1 399 9 view .LVU255
 933              	.LBB315:
 934              	.LBI310:
 435:UIManager.cpp ****   if (is_Led1){
 935              		.loc 1 435 6 view .LVU256
ARM GAS  /var/folders/2p/02m_5p7958535cp2tpgps0400000gn/T//ccA97qDZ.s 			page 34


 936              	.LBB313:
 436:UIManager.cpp ****     pod_.led1.Set(r,g,b);
 937              		.loc 1 436 3 view .LVU257
 440:UIManager.cpp ****   }
 938              		.loc 1 440 5 view .LVU258
 440:UIManager.cpp ****   }
 939              		.loc 1 440 18 is_stmt 0 view .LVU259
 940 004a 9FED0B1A 		vldr.32	s2, .L65
 941 004e 2068     		ldr	r0, [r4]
 942              	.LVL65:
 440:UIManager.cpp ****   }
 943              		.loc 1 440 18 view .LVU260
 944 0050 F0EE410A 		vmov.f32	s1, s2
 945 0054 9FED090A 		vldr.32	s0, .L65+4
 946 0058 E9E7     		b	.L63
 947              	.LVL66:
 948              	.L54:
 440:UIManager.cpp ****   }
 949              		.loc 1 440 18 view .LVU261
 950              	.LBE313:
 951              	.LBE315:
 952              	.LBE318:
 953              	.LBE323:
 954              	.LBB324:
 955              	.LBB302:
 187:UIManager.cpp ****       current_synth_mode_ = SynthMode::Pitch_ActiveGrains_Rnd;
 956              		.loc 1 187 5 is_stmt 1 view .LVU262
 188:UIManager.cpp ****       break;
 957              		.loc 1 188 7 view .LVU263
 188:UIManager.cpp ****       break;
 958              		.loc 1 188 27 is_stmt 0 view .LVU264
 959 005a 0423     		movs	r3, #4
 960 005c 8360     		str	r3, [r0, #8]
 189:UIManager.cpp ****     case SynthMode::Pitch_ActiveGrains_Rnd:
 961              		.loc 1 189 7 is_stmt 1 view .LVU265
 962 005e F4E7     		b	.L56
 963              	.L53:
 193:UIManager.cpp ****       current_synth_mode_ = SynthMode::PhasorMode_EnvType_Rnd;
 964              		.loc 1 193 5 view .LVU266
 194:UIManager.cpp ****       break;      
 965              		.loc 1 194 7 view .LVU267
 194:UIManager.cpp ****       break;      
 966              		.loc 1 194 27 is_stmt 0 view .LVU268
 967 0060 0523     		movs	r3, #5
 968 0062 8360     		str	r3, [r0, #8]
 195:UIManager.cpp ****     case SynthMode::PhasorMode_EnvType_Rnd:
 969              		.loc 1 195 7 is_stmt 1 view .LVU269
 970 0064 F1E7     		b	.L56
 971              	.L52:
 184:UIManager.cpp ****       current_synth_mode_ = SynthMode::Size_Position;
 972              		.loc 1 184 5 view .LVU270
 185:UIManager.cpp ****       break;
 973              		.loc 1 185 7 view .LVU271
 185:UIManager.cpp ****       break;
 974              		.loc 1 185 27 is_stmt 0 view .LVU272
 975 0066 0023     		movs	r3, #0
 976 0068 8360     		str	r3, [r0, #8]
ARM GAS  /var/folders/2p/02m_5p7958535cp2tpgps0400000gn/T//ccA97qDZ.s 			page 35


 186:UIManager.cpp ****     case SynthMode::Pitch_ActiveGrains:
 977              		.loc 1 186 7 is_stmt 1 view .LVU273
 978 006a D9E7     		b	.L58
 979              	.L51:
 190:UIManager.cpp ****       current_synth_mode_ = SynthMode::Pitch_ActiveGrains;
 980              		.loc 1 190 5 view .LVU274
 191:UIManager.cpp ****       break;
 981              		.loc 1 191 7 view .LVU275
 191:UIManager.cpp ****       break;
 982              		.loc 1 191 27 is_stmt 0 view .LVU276
 983 006c 0123     		movs	r3, #1
 984 006e 8360     		str	r3, [r0, #8]
 192:UIManager.cpp ****     case SynthMode::PhasorMode_EnvType:
 985              		.loc 1 192 7 is_stmt 1 view .LVU277
 986 0070 D6E7     		b	.L58
 987              	.L48:
 988              	.LVL67:
 192:UIManager.cpp ****     case SynthMode::PhasorMode_EnvType:
 989              		.loc 1 192 7 is_stmt 0 view .LVU278
 990              	.LBE302:
 991              	.LBE324:
 992              	.LBE330:
  89:UIManager.cpp ****     }
 993              		.loc 1 89 7 is_stmt 1 view .LVU279
 994              	.LBB331:
 995              	.LBB325:
 384:UIManager.cpp ****   if (current_state_==AppState::Synthesis){
 996              		.loc 1 384 6 view .LVU280
 997              	.LBB319:
 385:UIManager.cpp ****     switch(current_synth_mode_){
 998              		.loc 1 385 3 view .LVU281
 386:UIManager.cpp ****       case SynthMode::Size_Position:
 999              		.loc 1 386 5 view .LVU282
 1000 0072 062B     		cmp	r3, #6
 1001 0074 D4D0     		beq	.L58
 1002              	.LBE319:
 1003              	.LBE325:
 1004              	.LBE331:
  91:UIManager.cpp **** 
 1005              		.loc 1 91 1 is_stmt 0 view .LVU283
 1006 0076 10BD     		pop	{r4, pc}
 1007              	.L66:
 1008              		.align	2
 1009              	.L65:
 1010 0078 00000000 		.word	0
 1011 007c 00007F43 		.word	1132396544
 1012              		.cfi_endproc
 1013              	.LFE2582:
 1015              		.section	.text._ZN9UIManager22HandleButton1LongPressEv,"ax",%progbits
 1016              		.align	1
 1017              		.p2align 2,,3
 1018              		.global	_ZN9UIManager22HandleButton1LongPressEv
 1019              		.syntax unified
 1020              		.thumb
 1021              		.thumb_func
 1023              	_ZN9UIManager22HandleButton1LongPressEv:
 1024              	.LVL68:
ARM GAS  /var/folders/2p/02m_5p7958535cp2tpgps0400000gn/T//ccA97qDZ.s 			page 36


 1025              	.LFB2583:
  93:UIManager.cpp ****   if (current_state_ == AppState::Synthesis){
 1026              		.loc 1 93 41 is_stmt 1 view -0
 1027              		.cfi_startproc
 1028              		@ args = 0, pretend = 0, frame = 0
 1029              		@ frame_needed = 0, uses_anonymous_args = 0
  94:UIManager.cpp ****     ToggleReverbControls();
 1030              		.loc 1 94 3 view .LVU285
 1031 0000 4368     		ldr	r3, [r0, #4]
 1032 0002 032B     		cmp	r3, #3
 1033 0004 00D0     		beq	.L82
 1034 0006 7047     		bx	lr
 1035              	.L82:
 1036              	.LBB344:
 1037              	.LBB345:
 1038              	.LBB346:
 205:UIManager.cpp ****     current_synth_mode_ = prev_synth_mode_;
 1039              		.loc 1 205 7 is_stmt 0 view .LVU286
 1040 0008 8368     		ldr	r3, [r0, #8]
 205:UIManager.cpp ****     current_synth_mode_ = prev_synth_mode_;
 1041              		.loc 1 205 3 view .LVU287
 1042 000a 072B     		cmp	r3, #7
 1043              	.LBE346:
 1044              	.LBE345:
 1045              	.LBE344:
  93:UIManager.cpp ****   if (current_state_ == AppState::Synthesis){
 1046              		.loc 1 93 41 view .LVU288
 1047 000c 10B5     		push	{r4, lr}
 1048              		.cfi_def_cfa_offset 8
 1049              		.cfi_offset 4, -8
 1050              		.cfi_offset 14, -4
 1051 000e 0446     		mov	r4, r0
 1052              	.LVL69:
 1053              	.LBB371:
 1054              	.LBI344:
  93:UIManager.cpp ****   if (current_state_ == AppState::Synthesis){
 1055              		.loc 1 93 6 is_stmt 1 view .LVU289
 1056              	.LBE371:
  95:UIManager.cpp ****     SetLedFXMode();
 1057              		.loc 1 95 5 view .LVU290
 1058              	.LBB372:
 1059              	.LBB349:
 1060              	.LBI345:
 204:UIManager.cpp ****   if (current_synth_mode_==SynthMode::Reverb){
 1061              		.loc 1 204 6 view .LVU291
 1062              	.LBB347:
 205:UIManager.cpp ****     current_synth_mode_ = prev_synth_mode_;
 1063              		.loc 1 205 3 view .LVU292
 1064 0010 15D0     		beq	.L83
 1065              	.LVL70:
 209:UIManager.cpp ****     current_synth_mode_ = SynthMode::Reverb;
 1066              		.loc 1 209 5 view .LVU293
 1067 0012 0722     		movs	r2, #7
 209:UIManager.cpp ****     current_synth_mode_ = SynthMode::Reverb;
 1068              		.loc 1 209 22 is_stmt 0 view .LVU294
 1069 0014 0361     		str	r3, [r0, #16]
 210:UIManager.cpp ****   }
ARM GAS  /var/folders/2p/02m_5p7958535cp2tpgps0400000gn/T//ccA97qDZ.s 			page 37


 1070              		.loc 1 210 5 is_stmt 1 view .LVU295
 1071 0016 8260     		str	r2, [r0, #8]
 1072              	.LVL71:
 210:UIManager.cpp ****   }
 1073              		.loc 1 210 5 is_stmt 0 view .LVU296
 1074              	.LBE347:
 1075              	.LBE349:
 1076              	.LBE372:
  96:UIManager.cpp ****   }
 1077              		.loc 1 96 5 is_stmt 1 view .LVU297
 1078              	.LBB373:
 1079              	.LBB350:
 1080              	.LBI350:
 407:UIManager.cpp ****   if (current_state_ == AppState::Synthesis){
 1081              		.loc 1 407 6 view .LVU298
 1082              	.LBB351:
 408:UIManager.cpp ****     switch(current_synth_mode_){
 1083              		.loc 1 408 3 view .LVU299
 409:UIManager.cpp ****       case SynthMode::Reverb:
 1084              		.loc 1 409 5 view .LVU300
 1085              	.L70:
 1086              	.LBB352:
 1087              	.LBI352:
 407:UIManager.cpp ****   if (current_state_ == AppState::Synthesis){
 1088              		.loc 1 407 6 view .LVU301
 1089              	.LBE352:
 1090              	.LBE351:
 1091              	.LBE350:
 1092              	.LBE373:
 410:UIManager.cpp ****         /* set led 2 to cyan */
 1093              		.loc 1 410 7 view .LVU302
 412:UIManager.cpp ****         break;
 1094              		.loc 1 412 9 view .LVU303
 1095              	.LBB374:
 1096              	.LBB366:
 1097              	.LBB362:
 1098              	.LBB355:
 1099              	.LBB353:
 1100              	.LBI353:
 435:UIManager.cpp ****   if (is_Led1){
 1101              		.loc 1 435 6 view .LVU304
 1102              	.LBB354:
 436:UIManager.cpp ****     pod_.led1.Set(r,g,b);
 1103              		.loc 1 436 3 view .LVU305
 440:UIManager.cpp ****   }
 1104              		.loc 1 440 5 view .LVU306
 440:UIManager.cpp ****   }
 1105              		.loc 1 440 18 is_stmt 0 view .LVU307
 1106 0018 9FED101A 		vldr.32	s2, .L85
 1107 001c 2068     		ldr	r0, [r4]
 1108              	.LVL72:
 440:UIManager.cpp ****   }
 1109              		.loc 1 440 18 view .LVU308
 1110 001e F0EE410A 		vmov.f32	s1, s2
 1111 0022 9FED0F0A 		vldr.32	s0, .L85+4
 1112              	.LVL73:
 1113              	.L81:
ARM GAS  /var/folders/2p/02m_5p7958535cp2tpgps0400000gn/T//ccA97qDZ.s 			page 38


 440:UIManager.cpp ****   }
 1114              		.loc 1 440 18 view .LVU309
 1115              	.LBE354:
 1116              	.LBE353:
 1117              	.LBE355:
 1118              	.LBB356:
 1119              	.LBB357:
 1120 0026 00F59670 		add	r0, r0, #300
 1121 002a FFF7FEFF 		bl	_ZN5daisy6RgbLed3SetEfff
 1122              	.LVL74:
 442:UIManager.cpp ****   System::Delay(10);
 1123              		.loc 1 442 3 is_stmt 1 view .LVU310
 442:UIManager.cpp ****   System::Delay(10);
 1124              		.loc 1 442 18 is_stmt 0 view .LVU311
 1125 002e 2068     		ldr	r0, [r4]
 1126 0030 FFF7FEFF 		bl	_ZN5daisy8DaisyPod10UpdateLedsEv
 1127              	.LVL75:
 443:UIManager.cpp **** }
 1128              		.loc 1 443 3 is_stmt 1 view .LVU312
 443:UIManager.cpp **** }
 1129              		.loc 1 443 16 is_stmt 0 view .LVU313
 1130 0034 0A20     		movs	r0, #10
 1131              	.LBE357:
 1132              	.LBE356:
 1133              	.LBE362:
 1134              	.LBE366:
 1135              	.LBE374:
  98:UIManager.cpp **** 
 1136              		.loc 1 98 1 view .LVU314
 1137 0036 BDE81040 		pop	{r4, lr}
 1138              		.cfi_remember_state
 1139              		.cfi_restore 14
 1140              		.cfi_restore 4
 1141              		.cfi_def_cfa_offset 0
 1142              	.LVL76:
 1143              	.LBB375:
 1144              	.LBB367:
 1145              	.LBB363:
 1146              	.LBB360:
 1147              	.LBB358:
 443:UIManager.cpp **** }
 1148              		.loc 1 443 16 view .LVU315
 1149 003a FFF7FEBF 		b	_ZN5daisy6System5DelayEm
 1150              	.LVL77:
 1151              	.L83:
 1152              		.cfi_restore_state
 443:UIManager.cpp **** }
 1153              		.loc 1 443 16 view .LVU316
 1154              	.LBE358:
 1155              	.LBE360:
 1156              	.LBE363:
 1157              	.LBE367:
 1158              	.LBB368:
 1159              	.LBB348:
 206:UIManager.cpp ****   }
 1160              		.loc 1 206 5 is_stmt 1 view .LVU317
 206:UIManager.cpp ****   }
ARM GAS  /var/folders/2p/02m_5p7958535cp2tpgps0400000gn/T//ccA97qDZ.s 			page 39


 1161              		.loc 1 206 27 is_stmt 0 view .LVU318
 1162 003e 0369     		ldr	r3, [r0, #16]
 1163              	.LBE348:
 1164              	.LBE368:
 1165              	.LBB369:
 1166              	.LBB364:
 409:UIManager.cpp ****       case SynthMode::Reverb:
 1167              		.loc 1 409 5 view .LVU319
 1168 0040 072B     		cmp	r3, #7
 1169 0042 8360     		str	r3, [r0, #8]
 1170              	.LVL78:
 409:UIManager.cpp ****       case SynthMode::Reverb:
 1171              		.loc 1 409 5 view .LVU320
 1172              	.LBE364:
 1173              	.LBE369:
 1174              	.LBE375:
  96:UIManager.cpp ****   }
 1175              		.loc 1 96 5 is_stmt 1 view .LVU321
 1176              	.LBB376:
 1177              	.LBB370:
 407:UIManager.cpp ****   if (current_state_ == AppState::Synthesis){
 1178              		.loc 1 407 6 view .LVU322
 1179              	.LBB365:
 408:UIManager.cpp ****     switch(current_synth_mode_){
 1180              		.loc 1 408 3 view .LVU323
 409:UIManager.cpp ****       case SynthMode::Reverb:
 1181              		.loc 1 409 5 view .LVU324
 1182 0044 E8D0     		beq	.L70
 1183 0046 082B     		cmp	r3, #8
 1184 0048 07D1     		bne	.L84
 414:UIManager.cpp ****         /* set led 2 to yellow */
 1185              		.loc 1 414 7 view .LVU325
 416:UIManager.cpp ****         break;
 1186              		.loc 1 416 9 view .LVU326
 1187              	.LVL79:
 1188              	.LBB361:
 1189              	.LBI356:
 435:UIManager.cpp ****   if (is_Led1){
 1190              		.loc 1 435 6 view .LVU327
 1191              	.LBB359:
 436:UIManager.cpp ****     pod_.led1.Set(r,g,b);
 1192              		.loc 1 436 3 view .LVU328
 440:UIManager.cpp ****   }
 1193              		.loc 1 440 5 view .LVU329
 440:UIManager.cpp ****   }
 1194              		.loc 1 440 18 is_stmt 0 view .LVU330
 1195 004a DFED040A 		vldr.32	s1, .L85
 1196 004e 0068     		ldr	r0, [r0]
 1197              	.LVL80:
 440:UIManager.cpp ****   }
 1198              		.loc 1 440 18 view .LVU331
 1199 0050 B0EE600A 		vmov.f32	s0, s1
 1200 0054 9FED021A 		vldr.32	s2, .L85+4
 1201 0058 E5E7     		b	.L81
 1202              	.LVL81:
 1203              	.L84:
 440:UIManager.cpp ****   }
ARM GAS  /var/folders/2p/02m_5p7958535cp2tpgps0400000gn/T//ccA97qDZ.s 			page 40


 1204              		.loc 1 440 18 view .LVU332
 1205              	.LBE359:
 1206              	.LBE361:
 1207              	.LBE365:
 1208              	.LBE370:
 1209              	.LBE376:
  98:UIManager.cpp **** 
 1210              		.loc 1 98 1 view .LVU333
 1211 005a 10BD     		pop	{r4, pc}
 1212              	.L86:
 1213              		.align	2
 1214              	.L85:
 1215 005c 00007F43 		.word	1132396544
 1216 0060 00000000 		.word	0
 1217              		.cfi_endproc
 1218              	.LFE2583:
 1220              		.section	.text._ZN9UIManager22HandleButton2LongPressEv,"ax",%progbits
 1221              		.align	1
 1222              		.p2align 2,,3
 1223              		.global	_ZN9UIManager22HandleButton2LongPressEv
 1224              		.syntax unified
 1225              		.thumb
 1226              		.thumb_func
 1228              	_ZN9UIManager22HandleButton2LongPressEv:
 1229              	.LVL82:
 1230              	.LFB2584:
 100:UIManager.cpp ****   if (current_state_ == AppState::Synthesis){
 1231              		.loc 1 100 41 is_stmt 1 view -0
 1232              		.cfi_startproc
 1233              		@ args = 0, pretend = 0, frame = 0
 1234              		@ frame_needed = 0, uses_anonymous_args = 0
 101:UIManager.cpp ****     ToggleFilterControls();
 1235              		.loc 1 101 3 view .LVU335
 1236 0000 4368     		ldr	r3, [r0, #4]
 1237 0002 032B     		cmp	r3, #3
 1238 0004 00D0     		beq	.L102
 1239 0006 7047     		bx	lr
 1240              	.L102:
 1241              	.LBB389:
 1242              	.LBB390:
 1243              	.LBB391:
 215:UIManager.cpp ****     current_synth_mode_ = prev_synth_mode_;
 1244              		.loc 1 215 7 is_stmt 0 view .LVU336
 1245 0008 8368     		ldr	r3, [r0, #8]
 215:UIManager.cpp ****     current_synth_mode_ = prev_synth_mode_;
 1246              		.loc 1 215 3 view .LVU337
 1247 000a 082B     		cmp	r3, #8
 1248              	.LBE391:
 1249              	.LBE390:
 1250              	.LBE389:
 100:UIManager.cpp ****   if (current_state_ == AppState::Synthesis){
 1251              		.loc 1 100 41 view .LVU338
 1252 000c 10B5     		push	{r4, lr}
 1253              		.cfi_def_cfa_offset 8
 1254              		.cfi_offset 4, -8
 1255              		.cfi_offset 14, -4
 1256 000e 0446     		mov	r4, r0
ARM GAS  /var/folders/2p/02m_5p7958535cp2tpgps0400000gn/T//ccA97qDZ.s 			page 41


 1257              	.LVL83:
 1258              	.LBB414:
 1259              	.LBI389:
 100:UIManager.cpp ****   if (current_state_ == AppState::Synthesis){
 1260              		.loc 1 100 6 is_stmt 1 view .LVU339
 1261              	.LBE414:
 102:UIManager.cpp ****     SetLedFXMode();
 1262              		.loc 1 102 5 view .LVU340
 1263              	.LBB415:
 1264              	.LBB394:
 1265              	.LBI390:
 214:UIManager.cpp ****   if (current_synth_mode_==SynthMode::Filter){
 1266              		.loc 1 214 6 view .LVU341
 1267              	.LBB392:
 215:UIManager.cpp ****     current_synth_mode_ = prev_synth_mode_;
 1268              		.loc 1 215 3 view .LVU342
 1269 0010 15D0     		beq	.L103
 1270              	.LVL84:
 219:UIManager.cpp ****     current_synth_mode_ = SynthMode::Filter;
 1271              		.loc 1 219 5 view .LVU343
 1272 0012 0822     		movs	r2, #8
 219:UIManager.cpp ****     current_synth_mode_ = SynthMode::Filter;
 1273              		.loc 1 219 22 is_stmt 0 view .LVU344
 1274 0014 0361     		str	r3, [r0, #16]
 220:UIManager.cpp ****   }
 1275              		.loc 1 220 5 is_stmt 1 view .LVU345
 1276 0016 8260     		str	r2, [r0, #8]
 1277              	.LVL85:
 220:UIManager.cpp ****   }
 1278              		.loc 1 220 5 is_stmt 0 view .LVU346
 1279              	.LBE392:
 1280              	.LBE394:
 1281              	.LBE415:
 103:UIManager.cpp ****   }
 1282              		.loc 1 103 5 is_stmt 1 view .LVU347
 1283              	.LBB416:
 1284              	.LBB395:
 1285              	.LBI395:
 407:UIManager.cpp ****   if (current_state_ == AppState::Synthesis){
 1286              		.loc 1 407 6 view .LVU348
 1287              	.LBB396:
 408:UIManager.cpp ****     switch(current_synth_mode_){
 1288              		.loc 1 408 3 view .LVU349
 409:UIManager.cpp ****       case SynthMode::Reverb:
 1289              		.loc 1 409 5 view .LVU350
 1290              	.L92:
 414:UIManager.cpp ****         /* set led 2 to yellow */
 1291              		.loc 1 414 7 view .LVU351
 416:UIManager.cpp ****         break;
 1292              		.loc 1 416 9 view .LVU352
 1293              	.LBB397:
 1294              	.LBI397:
 435:UIManager.cpp ****   if (is_Led1){
 1295              		.loc 1 435 6 view .LVU353
 1296              	.LBB398:
 436:UIManager.cpp ****     pod_.led1.Set(r,g,b);
 1297              		.loc 1 436 3 view .LVU354
ARM GAS  /var/folders/2p/02m_5p7958535cp2tpgps0400000gn/T//ccA97qDZ.s 			page 42


 440:UIManager.cpp ****   }
 1298              		.loc 1 440 5 view .LVU355
 440:UIManager.cpp ****   }
 1299              		.loc 1 440 18 is_stmt 0 view .LVU356
 1300 0018 DFED100A 		vldr.32	s1, .L105
 1301 001c 2068     		ldr	r0, [r4]
 1302              	.LVL86:
 440:UIManager.cpp ****   }
 1303              		.loc 1 440 18 view .LVU357
 1304 001e B0EE600A 		vmov.f32	s0, s1
 1305 0022 9FED0F1A 		vldr.32	s2, .L105+4
 1306              	.LVL87:
 1307              	.L101:
 440:UIManager.cpp ****   }
 1308              		.loc 1 440 18 view .LVU358
 1309 0026 00F59670 		add	r0, r0, #300
 1310 002a FFF7FEFF 		bl	_ZN5daisy6RgbLed3SetEfff
 1311              	.LVL88:
 442:UIManager.cpp ****   System::Delay(10);
 1312              		.loc 1 442 3 is_stmt 1 view .LVU359
 442:UIManager.cpp ****   System::Delay(10);
 1313              		.loc 1 442 18 is_stmt 0 view .LVU360
 1314 002e 2068     		ldr	r0, [r4]
 1315 0030 FFF7FEFF 		bl	_ZN5daisy8DaisyPod10UpdateLedsEv
 1316              	.LVL89:
 443:UIManager.cpp **** }
 1317              		.loc 1 443 3 is_stmt 1 view .LVU361
 443:UIManager.cpp **** }
 1318              		.loc 1 443 16 is_stmt 0 view .LVU362
 1319 0034 0A20     		movs	r0, #10
 1320              	.LBE398:
 1321              	.LBE397:
 1322              	.LBE396:
 1323              	.LBE395:
 1324              	.LBE416:
 105:UIManager.cpp **** 
 1325              		.loc 1 105 1 view .LVU363
 1326 0036 BDE81040 		pop	{r4, lr}
 1327              		.cfi_remember_state
 1328              		.cfi_restore 14
 1329              		.cfi_restore 4
 1330              		.cfi_def_cfa_offset 0
 1331              	.LVL90:
 1332              	.LBB417:
 1333              	.LBB409:
 1334              	.LBB405:
 1335              	.LBB400:
 1336              	.LBB399:
 443:UIManager.cpp **** }
 1337              		.loc 1 443 16 view .LVU364
 1338 003a FFF7FEBF 		b	_ZN5daisy6System5DelayEm
 1339              	.LVL91:
 1340              	.L103:
 1341              		.cfi_restore_state
 443:UIManager.cpp **** }
 1342              		.loc 1 443 16 view .LVU365
 1343              	.LBE399:
ARM GAS  /var/folders/2p/02m_5p7958535cp2tpgps0400000gn/T//ccA97qDZ.s 			page 43


 1344              	.LBE400:
 1345              	.LBE405:
 1346              	.LBE409:
 1347              	.LBB410:
 1348              	.LBB393:
 216:UIManager.cpp ****   }
 1349              		.loc 1 216 5 is_stmt 1 view .LVU366
 216:UIManager.cpp ****   }
 1350              		.loc 1 216 27 is_stmt 0 view .LVU367
 1351 003e 0369     		ldr	r3, [r0, #16]
 1352              	.LBE393:
 1353              	.LBE410:
 1354              	.LBB411:
 1355              	.LBB406:
 409:UIManager.cpp ****       case SynthMode::Reverb:
 1356              		.loc 1 409 5 view .LVU368
 1357 0040 072B     		cmp	r3, #7
 1358 0042 8360     		str	r3, [r0, #8]
 1359              	.LVL92:
 409:UIManager.cpp ****       case SynthMode::Reverb:
 1360              		.loc 1 409 5 view .LVU369
 1361              	.LBE406:
 1362              	.LBE411:
 1363              	.LBE417:
 103:UIManager.cpp ****   }
 1364              		.loc 1 103 5 is_stmt 1 view .LVU370
 1365              	.LBB418:
 1366              	.LBB412:
 407:UIManager.cpp ****   if (current_state_ == AppState::Synthesis){
 1367              		.loc 1 407 6 view .LVU371
 1368              	.LBB407:
 408:UIManager.cpp ****     switch(current_synth_mode_){
 1369              		.loc 1 408 3 view .LVU372
 409:UIManager.cpp ****       case SynthMode::Reverb:
 1370              		.loc 1 409 5 view .LVU373
 1371 0044 07D1     		bne	.L104
 1372              	.LVL93:
 1373              	.LBB401:
 1374              	.LBI401:
 407:UIManager.cpp ****   if (current_state_ == AppState::Synthesis){
 1375              		.loc 1 407 6 view .LVU374
 1376              	.LBE401:
 1377              	.LBE407:
 1378              	.LBE412:
 1379              	.LBE418:
 410:UIManager.cpp ****         /* set led 2 to cyan */
 1380              		.loc 1 410 7 view .LVU375
 412:UIManager.cpp ****         break;
 1381              		.loc 1 412 9 view .LVU376
 1382              	.LBB419:
 1383              	.LBB413:
 1384              	.LBB408:
 1385              	.LBB404:
 1386              	.LBB402:
 1387              	.LBI402:
 435:UIManager.cpp ****   if (is_Led1){
 1388              		.loc 1 435 6 view .LVU377
ARM GAS  /var/folders/2p/02m_5p7958535cp2tpgps0400000gn/T//ccA97qDZ.s 			page 44


 1389              	.LBB403:
 436:UIManager.cpp ****     pod_.led1.Set(r,g,b);
 1390              		.loc 1 436 3 view .LVU378
 440:UIManager.cpp ****   }
 1391              		.loc 1 440 5 view .LVU379
 440:UIManager.cpp ****   }
 1392              		.loc 1 440 18 is_stmt 0 view .LVU380
 1393 0046 9FED051A 		vldr.32	s2, .L105
 1394 004a 0068     		ldr	r0, [r0]
 1395              	.LVL94:
 440:UIManager.cpp ****   }
 1396              		.loc 1 440 18 view .LVU381
 1397 004c F0EE410A 		vmov.f32	s1, s2
 1398 0050 9FED030A 		vldr.32	s0, .L105+4
 1399 0054 E7E7     		b	.L101
 1400              	.LVL95:
 1401              	.L104:
 440:UIManager.cpp ****   }
 1402              		.loc 1 440 18 view .LVU382
 1403              	.LBE403:
 1404              	.LBE402:
 1405              	.LBE404:
 409:UIManager.cpp ****       case SynthMode::Reverb:
 1406              		.loc 1 409 5 view .LVU383
 1407 0056 082B     		cmp	r3, #8
 1408 0058 DED0     		beq	.L92
 1409              	.LBE408:
 1410              	.LBE413:
 1411              	.LBE419:
 105:UIManager.cpp **** 
 1412              		.loc 1 105 1 view .LVU384
 1413 005a 10BD     		pop	{r4, pc}
 1414              	.L106:
 1415              		.align	2
 1416              	.L105:
 1417 005c 00007F43 		.word	1132396544
 1418 0060 00000000 		.word	0
 1419              		.cfi_endproc
 1420              	.LFE2584:
 1422              		.section	.text._ZN9UIManager20HandleEncoderPressedEv,"ax",%progbits
 1423              		.align	1
 1424              		.p2align 2,,3
 1425              		.global	_ZN9UIManager20HandleEncoderPressedEv
 1426              		.syntax unified
 1427              		.thumb
 1428              		.thumb_func
 1430              	_ZN9UIManager20HandleEncoderPressedEv:
 1431              	.LVL96:
 1432              	.LFB2585:
 107:UIManager.cpp ****   switch(current_state_){
 1433              		.loc 1 107 39 is_stmt 1 view -0
 1434              		.cfi_startproc
 1435              		@ args = 0, pretend = 0, frame = 0
 1436              		@ frame_needed = 0, uses_anonymous_args = 0
 1437              		@ link register save eliminated.
 108:UIManager.cpp ****     case AppState::SelectFile:
 1438              		.loc 1 108 3 view .LVU386
ARM GAS  /var/folders/2p/02m_5p7958535cp2tpgps0400000gn/T//ccA97qDZ.s 			page 45


 108:UIManager.cpp ****     case AppState::SelectFile:
 1439              		.loc 1 108 10 is_stmt 0 view .LVU387
 1440 0000 4368     		ldr	r3, [r0, #4]
 108:UIManager.cpp ****     case AppState::SelectFile:
 1441              		.loc 1 108 3 view .LVU388
 1442 0002 022B     		cmp	r3, #2
 1443 0004 02DC     		bgt	.L108
 1444 0006 002B     		cmp	r3, #0
 1445 0008 02DC     		bgt	.L109
 1446              	.L107:
 119:UIManager.cpp **** 
 1447              		.loc 1 119 1 view .LVU389
 1448 000a 7047     		bx	lr
 1449              	.L108:
 108:UIManager.cpp ****     case AppState::SelectFile:
 1450              		.loc 1 108 3 view .LVU390
 1451 000c 042B     		cmp	r3, #4
 1452 000e FCD1     		bne	.L107
 1453              	.L109:
 113:UIManager.cpp ****       current_state_ = AppState::Synthesis;
 1454              		.loc 1 113 5 is_stmt 1 view .LVU391
 114:UIManager.cpp ****       break;
 1455              		.loc 1 114 7 view .LVU392
 114:UIManager.cpp ****       break;
 1456              		.loc 1 114 22 is_stmt 0 view .LVU393
 1457 0010 0323     		movs	r3, #3
 1458 0012 4360     		str	r3, [r0, #4]
 115:UIManager.cpp ****     default:
 1459              		.loc 1 115 7 is_stmt 1 view .LVU394
 119:UIManager.cpp **** 
 1460              		.loc 1 119 1 is_stmt 0 view .LVU395
 1461 0014 7047     		bx	lr
 1462              		.cfi_endproc
 1463              	.LFE2585:
 1465 0016 00BF     		.section	.text._ZN9UIManager22HandleEncoderLongPressEv,"ax",%progbits
 1466              		.align	1
 1467              		.p2align 2,,3
 1468              		.global	_ZN9UIManager22HandleEncoderLongPressEv
 1469              		.syntax unified
 1470              		.thumb
 1471              		.thumb_func
 1473              	_ZN9UIManager22HandleEncoderLongPressEv:
 1474              	.LVL97:
 1475              	.LFB2586:
 121:UIManager.cpp ****   switch (current_state_){
 1476              		.loc 1 121 41 is_stmt 1 view -0
 1477              		.cfi_startproc
 1478              		@ args = 0, pretend = 0, frame = 0
 1479              		@ frame_needed = 0, uses_anonymous_args = 0
 1480              		@ link register save eliminated.
 122:UIManager.cpp ****      /* exit synthesis mode, return to file selection */
 1481              		.loc 1 122 3 view .LVU397
 122:UIManager.cpp ****      /* exit synthesis mode, return to file selection */
 1482              		.loc 1 122 11 is_stmt 0 view .LVU398
 1483 0000 4368     		ldr	r3, [r0, #4]
 122:UIManager.cpp ****      /* exit synthesis mode, return to file selection */
 1484              		.loc 1 122 3 view .LVU399
ARM GAS  /var/folders/2p/02m_5p7958535cp2tpgps0400000gn/T//ccA97qDZ.s 			page 46


 1485 0002 022B     		cmp	r3, #2
 1486 0004 05DD     		ble	.L115
 1487 0006 033B     		subs	r3, r3, #3
 1488 0008 012B     		cmp	r3, #1
 1489 000a 04D8     		bhi	.L111
 124:UIManager.cpp ****       current_state_ = AppState::SelectFile;
 1490              		.loc 1 124 5 is_stmt 1 view .LVU400
 125:UIManager.cpp ****       // StartLedPulse();
 1491              		.loc 1 125 7 view .LVU401
 125:UIManager.cpp ****       // StartLedPulse();
 1492              		.loc 1 125 22 is_stmt 0 view .LVU402
 1493 000c 0123     		movs	r3, #1
 1494 000e 4360     		str	r3, [r0, #4]
 127:UIManager.cpp ****       /* enter RecordIn mode */
 1495              		.loc 1 127 7 is_stmt 1 view .LVU403
 1496 0010 7047     		bx	lr
 1497              	.L115:
 122:UIManager.cpp ****      /* exit synthesis mode, return to file selection */
 1498              		.loc 1 122 3 is_stmt 0 view .LVU404
 1499 0012 002B     		cmp	r3, #0
 1500 0014 00DC     		bgt	.L116
 1501              	.L111:
 139:UIManager.cpp **** 
 1502              		.loc 1 139 1 view .LVU405
 1503 0016 7047     		bx	lr
 1504              	.L116:
 129:UIManager.cpp ****     case AppState::PlayWAV:
 1505              		.loc 1 129 5 is_stmt 1 view .LVU406
 130:UIManager.cpp ****       current_state_ = AppState::RecordIn;
 1506              		.loc 1 130 5 view .LVU407
 131:UIManager.cpp ****       break;
 1507              		.loc 1 131 7 view .LVU408
 131:UIManager.cpp ****       break;
 1508              		.loc 1 131 22 is_stmt 0 view .LVU409
 1509 0018 0423     		movs	r3, #4
 1510 001a 4360     		str	r3, [r0, #4]
 132:UIManager.cpp ****     case AppState::RecordIn:
 1511              		.loc 1 132 7 is_stmt 1 view .LVU410
 139:UIManager.cpp **** 
 1512              		.loc 1 139 1 is_stmt 0 view .LVU411
 1513 001c 7047     		bx	lr
 1514              		.cfi_endproc
 1515              	.LFE2586:
 1517 001e 00BF     		.section	.text._ZN9UIManager8SetStateE8AppState,"ax",%progbits
 1518              		.align	1
 1519              		.p2align 2,,3
 1520              		.global	_ZN9UIManager8SetStateE8AppState
 1521              		.syntax unified
 1522              		.thumb
 1523              		.thumb_func
 1525              	_ZN9UIManager8SetStateE8AppState:
 1526              	.LVL98:
 1527              	.LFB2587:
 143:UIManager.cpp ****   current_state_ = state;
 1528              		.loc 1 143 41 is_stmt 1 view -0
 1529              		.cfi_startproc
 1530              		@ args = 0, pretend = 0, frame = 0
ARM GAS  /var/folders/2p/02m_5p7958535cp2tpgps0400000gn/T//ccA97qDZ.s 			page 47


 1531              		@ frame_needed = 0, uses_anonymous_args = 0
 1532              		@ link register save eliminated.
 144:UIManager.cpp **** }
 1533              		.loc 1 144 3 view .LVU413
 144:UIManager.cpp **** }
 1534              		.loc 1 144 18 is_stmt 0 view .LVU414
 1535 0000 4160     		str	r1, [r0, #4]
 145:UIManager.cpp **** 
 1536              		.loc 1 145 1 view .LVU415
 1537 0002 7047     		bx	lr
 1538              		.cfi_endproc
 1539              	.LFE2587:
 1541              		.section	.text._ZN9UIManager13SetStateErrorEv,"ax",%progbits
 1542              		.align	1
 1543              		.p2align 2,,3
 1544              		.global	_ZN9UIManager13SetStateErrorEv
 1545              		.syntax unified
 1546              		.thumb
 1547              		.thumb_func
 1549              	_ZN9UIManager13SetStateErrorEv:
 1550              	.LVL99:
 1551              	.LFB2588:
 148:UIManager.cpp ****   current_state_ = AppState::Error;
 1552              		.loc 1 148 32 is_stmt 1 view -0
 1553              		.cfi_startproc
 1554              		@ args = 0, pretend = 0, frame = 8
 1555              		@ frame_needed = 0, uses_anonymous_args = 0
 149:UIManager.cpp ****   StopLedPulse();
 1556              		.loc 1 149 3 view .LVU417
 148:UIManager.cpp ****   current_state_ = AppState::Error;
 1557              		.loc 1 148 32 is_stmt 0 view .LVU418
 1558 0000 10B5     		push	{r4, lr}
 1559              		.cfi_def_cfa_offset 8
 1560              		.cfi_offset 4, -8
 1561              		.cfi_offset 14, -4
 149:UIManager.cpp ****   StopLedPulse();
 1562              		.loc 1 149 18 view .LVU419
 1563 0002 0523     		movs	r3, #5
 148:UIManager.cpp ****   current_state_ = AppState::Error;
 1564              		.loc 1 148 32 view .LVU420
 1565 0004 0446     		mov	r4, r0
 1566 0006 82B0     		sub	sp, sp, #8
 1567              		.cfi_def_cfa_offset 16
 1568              	.LBB426:
 1569              	.LBB427:
 437:UIManager.cpp ****   }
 1570              		.loc 1 437 18 view .LVU421
 1571 0008 9FED181A 		vldr.32	s2, .L120
 1572 000c 9FED180A 		vldr.32	s0, .L120+4
 1573              	.LBE427:
 1574              	.LBE426:
 1575              	.LBB430:
 1576              	.LBB431:
 432:UIManager.cpp **** }
 1577              		.loc 1 432 14 view .LVU422
 1578 0010 0C30     		adds	r0, r0, #12
 1579              	.LVL100:
ARM GAS  /var/folders/2p/02m_5p7958535cp2tpgps0400000gn/T//ccA97qDZ.s 			page 48


 432:UIManager.cpp **** }
 1580              		.loc 1 432 14 view .LVU423
 1581              	.LBE431:
 1582              	.LBE430:
 149:UIManager.cpp ****   StopLedPulse();
 1583              		.loc 1 149 18 view .LVU424
 1584 0012 6360     		str	r3, [r4, #4]
 150:UIManager.cpp ****   SetLed(255,0,0,true);
 1585              		.loc 1 150 3 is_stmt 1 view .LVU425
 1586              	.LVL101:
 1587              	.LBB434:
 1588              	.LBI430:
 431:UIManager.cpp ****   timer_.Stop();
 1589              		.loc 1 431 6 view .LVU426
 1590              	.LBB432:
 432:UIManager.cpp **** }
 1591              		.loc 1 432 3 view .LVU427
 1592              	.LBE432:
 1593              	.LBE434:
 1594              	.LBB435:
 1595              	.LBB428:
 437:UIManager.cpp ****   }
 1596              		.loc 1 437 18 is_stmt 0 view .LVU428
 1597 0014 8DED011A 		vstr.32	s2, [sp, #4]	@ int
 1598 0018 8DED000A 		vstr.32	s0, [sp]	@ int
 1599              	.LBE428:
 1600              	.LBE435:
 1601              	.LBB436:
 1602              	.LBB433:
 432:UIManager.cpp **** }
 1603              		.loc 1 432 14 view .LVU429
 1604 001c FFF7FEFF 		bl	_ZN5daisy11TimerHandle4StopEv
 1605              	.LVL102:
 432:UIManager.cpp **** }
 1606              		.loc 1 432 14 view .LVU430
 1607              	.LBE433:
 1608              	.LBE436:
 151:UIManager.cpp ****   SetLed(255,0,0,false);
 1609              		.loc 1 151 3 is_stmt 1 view .LVU431
 1610              	.LBB437:
 1611              	.LBI426:
 435:UIManager.cpp ****   if (is_Led1){
 1612              		.loc 1 435 6 view .LVU432
 1613              	.LBB429:
 436:UIManager.cpp ****     pod_.led1.Set(r,g,b);
 1614              		.loc 1 436 3 view .LVU433
 437:UIManager.cpp ****   }
 1615              		.loc 1 437 5 view .LVU434
 437:UIManager.cpp ****   }
 1616              		.loc 1 437 18 is_stmt 0 view .LVU435
 1617 0020 9DED011A 		vldr.32	s2, [sp, #4]	@ int
 1618 0024 2068     		ldr	r0, [r4]
 1619 0026 F0EE410A 		vmov.f32	s1, s2
 1620 002a 9DED000A 		vldr.32	s0, [sp]	@ int
 1621 002e D830     		adds	r0, r0, #216
 1622 0030 FFF7FEFF 		bl	_ZN5daisy6RgbLed3SetEfff
 1623              	.LVL103:
ARM GAS  /var/folders/2p/02m_5p7958535cp2tpgps0400000gn/T//ccA97qDZ.s 			page 49


 442:UIManager.cpp ****   System::Delay(10);
 1624              		.loc 1 442 3 is_stmt 1 view .LVU436
 442:UIManager.cpp ****   System::Delay(10);
 1625              		.loc 1 442 18 is_stmt 0 view .LVU437
 1626 0034 2068     		ldr	r0, [r4]
 1627 0036 FFF7FEFF 		bl	_ZN5daisy8DaisyPod10UpdateLedsEv
 1628              	.LVL104:
 443:UIManager.cpp **** }
 1629              		.loc 1 443 3 is_stmt 1 view .LVU438
 443:UIManager.cpp **** }
 1630              		.loc 1 443 16 is_stmt 0 view .LVU439
 1631 003a 0A20     		movs	r0, #10
 1632 003c FFF7FEFF 		bl	_ZN5daisy6System5DelayEm
 1633              	.LVL105:
 443:UIManager.cpp **** }
 1634              		.loc 1 443 16 view .LVU440
 1635              	.LBE429:
 1636              	.LBE437:
 152:UIManager.cpp ****   crash_error = true;
 1637              		.loc 1 152 3 is_stmt 1 view .LVU441
 1638              	.LBB438:
 1639              	.LBI438:
 435:UIManager.cpp ****   if (is_Led1){
 1640              		.loc 1 435 6 view .LVU442
 1641              	.LBB439:
 436:UIManager.cpp ****     pod_.led1.Set(r,g,b);
 1642              		.loc 1 436 3 view .LVU443
 440:UIManager.cpp ****   }
 1643              		.loc 1 440 5 view .LVU444
 440:UIManager.cpp ****   }
 1644              		.loc 1 440 18 is_stmt 0 view .LVU445
 1645 0040 9DED011A 		vldr.32	s2, [sp, #4]	@ int
 1646 0044 2068     		ldr	r0, [r4]
 1647 0046 F0EE410A 		vmov.f32	s1, s2
 1648 004a 9DED000A 		vldr.32	s0, [sp]	@ int
 1649 004e 00F59670 		add	r0, r0, #300
 1650 0052 FFF7FEFF 		bl	_ZN5daisy6RgbLed3SetEfff
 1651              	.LVL106:
 442:UIManager.cpp ****   System::Delay(10);
 1652              		.loc 1 442 3 is_stmt 1 view .LVU446
 442:UIManager.cpp ****   System::Delay(10);
 1653              		.loc 1 442 18 is_stmt 0 view .LVU447
 1654 0056 2068     		ldr	r0, [r4]
 1655 0058 FFF7FEFF 		bl	_ZN5daisy8DaisyPod10UpdateLedsEv
 1656              	.LVL107:
 443:UIManager.cpp **** }
 1657              		.loc 1 443 3 is_stmt 1 view .LVU448
 443:UIManager.cpp **** }
 1658              		.loc 1 443 16 is_stmt 0 view .LVU449
 1659 005c 0A20     		movs	r0, #10
 1660 005e FFF7FEFF 		bl	_ZN5daisy6System5DelayEm
 1661              	.LVL108:
 443:UIManager.cpp **** }
 1662              		.loc 1 443 16 view .LVU450
 1663              	.LBE439:
 1664              	.LBE438:
 153:UIManager.cpp **** }
ARM GAS  /var/folders/2p/02m_5p7958535cp2tpgps0400000gn/T//ccA97qDZ.s 			page 50


 1665              		.loc 1 153 3 is_stmt 1 view .LVU451
 153:UIManager.cpp **** }
 1666              		.loc 1 153 15 is_stmt 0 view .LVU452
 1667 0062 0123     		movs	r3, #1
 1668 0064 E375     		strb	r3, [r4, #23]
 154:UIManager.cpp **** 
 1669              		.loc 1 154 1 view .LVU453
 1670 0066 02B0     		add	sp, sp, #8
 1671              		.cfi_def_cfa_offset 8
 1672              		@ sp needed
 1673 0068 10BD     		pop	{r4, pc}
 1674              	.LVL109:
 1675              	.L121:
 154:UIManager.cpp **** 
 1676              		.loc 1 154 1 view .LVU454
 1677 006a 00BF     		.align	2
 1678              	.L120:
 1679 006c 00000000 		.word	0
 1680 0070 00007F43 		.word	1132396544
 1681              		.cfi_endproc
 1682              	.LFE2588:
 1684              		.section	.text._ZN9UIManager15UpdateSynthModeEv,"ax",%progbits
 1685              		.align	1
 1686              		.p2align 2,,3
 1687              		.global	_ZN9UIManager15UpdateSynthModeEv
 1688              		.syntax unified
 1689              		.thumb
 1690              		.thumb_func
 1692              	_ZN9UIManager15UpdateSynthModeEv:
 1693              	.LVL110:
 1694              	.LFB2589:
 157:UIManager.cpp ****   switch(current_synth_mode_){
 1695              		.loc 1 157 34 is_stmt 1 view -0
 1696              		.cfi_startproc
 1697              		@ args = 0, pretend = 0, frame = 0
 1698              		@ frame_needed = 0, uses_anonymous_args = 0
 1699              		@ link register save eliminated.
 158:UIManager.cpp ****     case SynthMode::Size_Position:
 1700              		.loc 1 158 3 view .LVU456
 1701 0000 8368     		ldr	r3, [r0, #8]
 1702 0002 062B     		cmp	r3, #6
 1703 0004 07D8     		bhi	.L122
 1704 0006 DFE803F0 		tbb	[pc, r3]
 1705              	.L125:
 1706 000a 0D       		.byte	(.L128-.L125)/2
 1707 000b 0A       		.byte	(.L127-.L125)/2
 1708 000c 07       		.byte	(.L126-.L125)/2
 1709 000d 06       		.byte	(.L122-.L125)/2
 1710 000e 06       		.byte	(.L122-.L125)/2
 1711 000f 06       		.byte	(.L122-.L125)/2
 1712 0010 04       		.byte	(.L124-.L125)/2
 1713 0011 00       		.p2align 1
 1714              	.L124:
 168:UIManager.cpp ****       current_synth_mode_ = SynthMode::Size_Position;
 1715              		.loc 1 168 5 view .LVU457
 169:UIManager.cpp ****       break;
 1716              		.loc 1 169 7 view .LVU458
ARM GAS  /var/folders/2p/02m_5p7958535cp2tpgps0400000gn/T//ccA97qDZ.s 			page 51


 169:UIManager.cpp ****       break;
 1717              		.loc 1 169 27 is_stmt 0 view .LVU459
 1718 0012 0023     		movs	r3, #0
 1719 0014 8360     		str	r3, [r0, #8]
 170:UIManager.cpp ****     default:
 1720              		.loc 1 170 7 is_stmt 1 view .LVU460
 1721              	.L122:
 174:UIManager.cpp **** 
 1722              		.loc 1 174 1 is_stmt 0 view .LVU461
 1723 0016 7047     		bx	lr
 1724              	.L126:
 165:UIManager.cpp ****       current_synth_mode_ = SynthMode::Pan_PanRnd;
 1725              		.loc 1 165 5 is_stmt 1 view .LVU462
 166:UIManager.cpp ****       break;
 1726              		.loc 1 166 7 view .LVU463
 166:UIManager.cpp ****       break;
 1727              		.loc 1 166 27 is_stmt 0 view .LVU464
 1728 0018 0623     		movs	r3, #6
 1729 001a 8360     		str	r3, [r0, #8]
 167:UIManager.cpp ****     case SynthMode::Pan_PanRnd:
 1730              		.loc 1 167 7 is_stmt 1 view .LVU465
 1731 001c 7047     		bx	lr
 1732              	.L127:
 162:UIManager.cpp ****       current_synth_mode_ = SynthMode::PhasorMode_EnvType;
 1733              		.loc 1 162 5 view .LVU466
 163:UIManager.cpp ****       break;
 1734              		.loc 1 163 7 view .LVU467
 163:UIManager.cpp ****       break;
 1735              		.loc 1 163 27 is_stmt 0 view .LVU468
 1736 001e 0223     		movs	r3, #2
 1737 0020 8360     		str	r3, [r0, #8]
 164:UIManager.cpp ****     case SynthMode::PhasorMode_EnvType:
 1738              		.loc 1 164 7 is_stmt 1 view .LVU469
 1739 0022 7047     		bx	lr
 1740              	.L128:
 159:UIManager.cpp ****       current_synth_mode_ = SynthMode::Pitch_ActiveGrains;
 1741              		.loc 1 159 5 view .LVU470
 160:UIManager.cpp ****       break;
 1742              		.loc 1 160 7 view .LVU471
 160:UIManager.cpp ****       break;
 1743              		.loc 1 160 27 is_stmt 0 view .LVU472
 1744 0024 0123     		movs	r3, #1
 1745 0026 8360     		str	r3, [r0, #8]
 161:UIManager.cpp ****     case SynthMode::Pitch_ActiveGrains:
 1746              		.loc 1 161 7 is_stmt 1 view .LVU473
 1747 0028 7047     		bx	lr
 1748              		.cfi_endproc
 1749              	.LFE2589:
 1751 002a 00BF     		.section	.text._ZN9UIManager24ToggleRandomnessControlsEv,"ax",%progbits
 1752              		.align	1
 1753              		.p2align 2,,3
 1754              		.global	_ZN9UIManager24ToggleRandomnessControlsEv
 1755              		.syntax unified
 1756              		.thumb
 1757              		.thumb_func
 1759              	_ZN9UIManager24ToggleRandomnessControlsEv:
 1760              	.LVL111:
ARM GAS  /var/folders/2p/02m_5p7958535cp2tpgps0400000gn/T//ccA97qDZ.s 			page 52


 1761              	.LFB2590:
 179:UIManager.cpp ****   switch(current_synth_mode_){
 1762              		.loc 1 179 43 view -0
 1763              		.cfi_startproc
 1764              		@ args = 0, pretend = 0, frame = 0
 1765              		@ frame_needed = 0, uses_anonymous_args = 0
 1766              		@ link register save eliminated.
 180:UIManager.cpp ****     case SynthMode::Size_Position:
 1767              		.loc 1 180 3 view .LVU475
 1768 0000 8368     		ldr	r3, [r0, #8]
 1769 0002 052B     		cmp	r3, #5
 1770 0004 06D8     		bhi	.L129
 1771 0006 DFE803F0 		tbb	[pc, r3]
 1772              	.L132:
 1773 000a 06       		.byte	(.L137-.L132)/2
 1774 000b 09       		.byte	(.L136-.L132)/2
 1775 000c 0C       		.byte	(.L135-.L132)/2
 1776 000d 0F       		.byte	(.L134-.L132)/2
 1777 000e 12       		.byte	(.L133-.L132)/2
 1778 000f 03       		.byte	(.L131-.L132)/2
 1779              		.p2align 1
 1780              	.L131:
 196:UIManager.cpp ****       current_synth_mode_ = SynthMode::PhasorMode_EnvType;
 1781              		.loc 1 196 5 view .LVU476
 197:UIManager.cpp ****       break;
 1782              		.loc 1 197 7 view .LVU477
 197:UIManager.cpp ****       break;
 1783              		.loc 1 197 27 is_stmt 0 view .LVU478
 1784 0010 0223     		movs	r3, #2
 1785 0012 8360     		str	r3, [r0, #8]
 198:UIManager.cpp ****     default:
 1786              		.loc 1 198 7 is_stmt 1 view .LVU479
 1787              	.L129:
 202:UIManager.cpp **** 
 1788              		.loc 1 202 1 is_stmt 0 view .LVU480
 1789 0014 7047     		bx	lr
 1790              	.L137:
 181:UIManager.cpp ****       current_synth_mode_ = SynthMode::Size_Position_Rnd;
 1791              		.loc 1 181 5 is_stmt 1 view .LVU481
 182:UIManager.cpp ****       break;
 1792              		.loc 1 182 7 view .LVU482
 182:UIManager.cpp ****       break;
 1793              		.loc 1 182 27 is_stmt 0 view .LVU483
 1794 0016 0323     		movs	r3, #3
 1795 0018 8360     		str	r3, [r0, #8]
 183:UIManager.cpp ****     case SynthMode::Size_Position_Rnd:
 1796              		.loc 1 183 7 is_stmt 1 view .LVU484
 1797 001a 7047     		bx	lr
 1798              	.L136:
 187:UIManager.cpp ****       current_synth_mode_ = SynthMode::Pitch_ActiveGrains_Rnd;
 1799              		.loc 1 187 5 view .LVU485
 188:UIManager.cpp ****       break;
 1800              		.loc 1 188 7 view .LVU486
 188:UIManager.cpp ****       break;
 1801              		.loc 1 188 27 is_stmt 0 view .LVU487
 1802 001c 0423     		movs	r3, #4
 1803 001e 8360     		str	r3, [r0, #8]
ARM GAS  /var/folders/2p/02m_5p7958535cp2tpgps0400000gn/T//ccA97qDZ.s 			page 53


 189:UIManager.cpp ****     case SynthMode::Pitch_ActiveGrains_Rnd:
 1804              		.loc 1 189 7 is_stmt 1 view .LVU488
 1805 0020 7047     		bx	lr
 1806              	.L135:
 193:UIManager.cpp ****       current_synth_mode_ = SynthMode::PhasorMode_EnvType_Rnd;
 1807              		.loc 1 193 5 view .LVU489
 194:UIManager.cpp ****       break;      
 1808              		.loc 1 194 7 view .LVU490
 194:UIManager.cpp ****       break;      
 1809              		.loc 1 194 27 is_stmt 0 view .LVU491
 1810 0022 0523     		movs	r3, #5
 1811 0024 8360     		str	r3, [r0, #8]
 195:UIManager.cpp ****     case SynthMode::PhasorMode_EnvType_Rnd:
 1812              		.loc 1 195 7 is_stmt 1 view .LVU492
 1813 0026 7047     		bx	lr
 1814              	.L134:
 184:UIManager.cpp ****       current_synth_mode_ = SynthMode::Size_Position;
 1815              		.loc 1 184 5 view .LVU493
 185:UIManager.cpp ****       break;
 1816              		.loc 1 185 7 view .LVU494
 185:UIManager.cpp ****       break;
 1817              		.loc 1 185 27 is_stmt 0 view .LVU495
 1818 0028 0023     		movs	r3, #0
 1819 002a 8360     		str	r3, [r0, #8]
 186:UIManager.cpp ****     case SynthMode::Pitch_ActiveGrains:
 1820              		.loc 1 186 7 is_stmt 1 view .LVU496
 1821 002c 7047     		bx	lr
 1822              	.L133:
 190:UIManager.cpp ****       current_synth_mode_ = SynthMode::Pitch_ActiveGrains;
 1823              		.loc 1 190 5 view .LVU497
 191:UIManager.cpp ****       break;
 1824              		.loc 1 191 7 view .LVU498
 191:UIManager.cpp ****       break;
 1825              		.loc 1 191 27 is_stmt 0 view .LVU499
 1826 002e 0123     		movs	r3, #1
 1827 0030 8360     		str	r3, [r0, #8]
 192:UIManager.cpp ****     case SynthMode::PhasorMode_EnvType:
 1828              		.loc 1 192 7 is_stmt 1 view .LVU500
 1829 0032 7047     		bx	lr
 1830              		.cfi_endproc
 1831              	.LFE2590:
 1833              		.section	.text._ZN9UIManager20ToggleReverbControlsEv,"ax",%progbits
 1834              		.align	1
 1835              		.p2align 2,,3
 1836              		.global	_ZN9UIManager20ToggleReverbControlsEv
 1837              		.syntax unified
 1838              		.thumb
 1839              		.thumb_func
 1841              	_ZN9UIManager20ToggleReverbControlsEv:
 1842              	.LVL112:
 1843              	.LFB2591:
 204:UIManager.cpp ****   if (current_synth_mode_==SynthMode::Reverb){
 1844              		.loc 1 204 39 view -0
 1845              		.cfi_startproc
 1846              		@ args = 0, pretend = 0, frame = 0
 1847              		@ frame_needed = 0, uses_anonymous_args = 0
 1848              		@ link register save eliminated.
ARM GAS  /var/folders/2p/02m_5p7958535cp2tpgps0400000gn/T//ccA97qDZ.s 			page 54


 205:UIManager.cpp ****     current_synth_mode_ = prev_synth_mode_;
 1849              		.loc 1 205 3 view .LVU502
 205:UIManager.cpp ****     current_synth_mode_ = prev_synth_mode_;
 1850              		.loc 1 205 7 is_stmt 0 view .LVU503
 1851 0000 8368     		ldr	r3, [r0, #8]
 205:UIManager.cpp ****     current_synth_mode_ = prev_synth_mode_;
 1852              		.loc 1 205 3 view .LVU504
 1853 0002 072B     		cmp	r3, #7
 1854 0004 03D0     		beq	.L141
 209:UIManager.cpp ****     current_synth_mode_ = SynthMode::Reverb;
 1855              		.loc 1 209 5 is_stmt 1 view .LVU505
 210:UIManager.cpp ****   }
 1856              		.loc 1 210 25 is_stmt 0 view .LVU506
 1857 0006 0722     		movs	r2, #7
 209:UIManager.cpp ****     current_synth_mode_ = SynthMode::Reverb;
 1858              		.loc 1 209 22 view .LVU507
 1859 0008 0361     		str	r3, [r0, #16]
 210:UIManager.cpp ****   }
 1860              		.loc 1 210 5 is_stmt 1 view .LVU508
 1861 000a 8260     		str	r2, [r0, #8]
 212:UIManager.cpp **** 
 1862              		.loc 1 212 1 is_stmt 0 view .LVU509
 1863 000c 7047     		bx	lr
 1864              	.L141:
 206:UIManager.cpp ****   }
 1865              		.loc 1 206 5 is_stmt 1 view .LVU510
 206:UIManager.cpp ****   }
 1866              		.loc 1 206 27 is_stmt 0 view .LVU511
 1867 000e 0269     		ldr	r2, [r0, #16]
 1868 0010 8260     		str	r2, [r0, #8]
 212:UIManager.cpp **** 
 1869              		.loc 1 212 1 view .LVU512
 1870 0012 7047     		bx	lr
 1871              		.cfi_endproc
 1872              	.LFE2591:
 1874              		.section	.text._ZN9UIManager20ToggleFilterControlsEv,"ax",%progbits
 1875              		.align	1
 1876              		.p2align 2,,3
 1877              		.global	_ZN9UIManager20ToggleFilterControlsEv
 1878              		.syntax unified
 1879              		.thumb
 1880              		.thumb_func
 1882              	_ZN9UIManager20ToggleFilterControlsEv:
 1883              	.LVL113:
 1884              	.LFB2592:
 214:UIManager.cpp ****   if (current_synth_mode_==SynthMode::Filter){
 1885              		.loc 1 214 39 is_stmt 1 view -0
 1886              		.cfi_startproc
 1887              		@ args = 0, pretend = 0, frame = 0
 1888              		@ frame_needed = 0, uses_anonymous_args = 0
 1889              		@ link register save eliminated.
 215:UIManager.cpp ****     current_synth_mode_ = prev_synth_mode_;
 1890              		.loc 1 215 3 view .LVU514
 215:UIManager.cpp ****     current_synth_mode_ = prev_synth_mode_;
 1891              		.loc 1 215 7 is_stmt 0 view .LVU515
 1892 0000 8368     		ldr	r3, [r0, #8]
 215:UIManager.cpp ****     current_synth_mode_ = prev_synth_mode_;
ARM GAS  /var/folders/2p/02m_5p7958535cp2tpgps0400000gn/T//ccA97qDZ.s 			page 55


 1893              		.loc 1 215 3 view .LVU516
 1894 0002 082B     		cmp	r3, #8
 1895 0004 03D0     		beq	.L145
 219:UIManager.cpp ****     current_synth_mode_ = SynthMode::Filter;
 1896              		.loc 1 219 5 is_stmt 1 view .LVU517
 220:UIManager.cpp ****   }
 1897              		.loc 1 220 25 is_stmt 0 view .LVU518
 1898 0006 0822     		movs	r2, #8
 219:UIManager.cpp ****     current_synth_mode_ = SynthMode::Filter;
 1899              		.loc 1 219 22 view .LVU519
 1900 0008 0361     		str	r3, [r0, #16]
 220:UIManager.cpp ****   }
 1901              		.loc 1 220 5 is_stmt 1 view .LVU520
 1902 000a 8260     		str	r2, [r0, #8]
 222:UIManager.cpp **** 
 1903              		.loc 1 222 1 is_stmt 0 view .LVU521
 1904 000c 7047     		bx	lr
 1905              	.L145:
 216:UIManager.cpp ****   }
 1906              		.loc 1 216 5 is_stmt 1 view .LVU522
 216:UIManager.cpp ****   }
 1907              		.loc 1 216 27 is_stmt 0 view .LVU523
 1908 000e 0269     		ldr	r2, [r0, #16]
 1909 0010 8260     		str	r2, [r0, #8]
 222:UIManager.cpp **** 
 1910              		.loc 1 222 1 view .LVU524
 1911 0012 7047     		bx	lr
 1912              		.cfi_endproc
 1913              	.LFE2592:
 1915              		.section	.text._ZN9UIManager15ToggleRecordOutEv,"ax",%progbits
 1916              		.align	1
 1917              		.p2align 2,,3
 1918              		.global	_ZN9UIManager15ToggleRecordOutEv
 1919              		.syntax unified
 1920              		.thumb
 1921              		.thumb_func
 1923              	_ZN9UIManager15ToggleRecordOutEv:
 1924              	.LVL114:
 1925              	.LFB2593:
 224:UIManager.cpp ****   // TODO: need to decide what control input will toggle record out
 1926              		.loc 1 224 34 is_stmt 1 view -0
 1927              		.cfi_startproc
 1928              		@ args = 0, pretend = 0, frame = 0
 1929              		@ frame_needed = 0, uses_anonymous_args = 0
 1930              		@ link register save eliminated.
 226:UIManager.cpp **** }
 1931              		.loc 1 226 3 view .LVU526
 227:UIManager.cpp **** 
 1932              		.loc 1 227 1 is_stmt 0 view .LVU527
 1933 0000 0120     		movs	r0, #1
 1934              	.LVL115:
 227:UIManager.cpp **** 
 1935              		.loc 1 227 1 view .LVU528
 1936 0002 7047     		bx	lr
 1937              		.cfi_endproc
 1938              	.LFE2593:
 1940              		.section	.text._ZN9UIManager13GetKnob1ValueEi,"ax",%progbits
ARM GAS  /var/folders/2p/02m_5p7958535cp2tpgps0400000gn/T//ccA97qDZ.s 			page 56


 1941              		.align	1
 1942              		.p2align 2,,3
 1943              		.global	_ZN9UIManager13GetKnob1ValueEi
 1944              		.syntax unified
 1945              		.thumb
 1946              		.thumb_func
 1948              	_ZN9UIManager13GetKnob1ValueEi:
 1949              	.LVL116:
 1950              	.LFB2594:
 229:UIManager.cpp ****   return k1v_[mode_idx];
 1951              		.loc 1 229 45 is_stmt 1 view -0
 1952              		.cfi_startproc
 1953              		@ args = 0, pretend = 0, frame = 0
 1954              		@ frame_needed = 0, uses_anonymous_args = 0
 1955              		@ link register save eliminated.
 230:UIManager.cpp **** }
 1956              		.loc 1 230 3 view .LVU530
 230:UIManager.cpp **** }
 1957              		.loc 1 230 23 is_stmt 0 view .LVU531
 1958 0000 00EB8101 		add	r1, r0, r1, lsl #2
 1959              	.LVL117:
 231:UIManager.cpp **** 
 1960              		.loc 1 231 1 view .LVU532
 1961 0004 91ED0A0A 		vldr.32	s0, [r1, #40]
 1962 0008 7047     		bx	lr
 1963              		.cfi_endproc
 1964              	.LFE2594:
 1966 000a 00BF     		.section	.text._ZN9UIManager13GetKnob2ValueEi,"ax",%progbits
 1967              		.align	1
 1968              		.p2align 2,,3
 1969              		.global	_ZN9UIManager13GetKnob2ValueEi
 1970              		.syntax unified
 1971              		.thumb
 1972              		.thumb_func
 1974              	_ZN9UIManager13GetKnob2ValueEi:
 1975              	.LVL118:
 1976              	.LFB2595:
 233:UIManager.cpp ****   return k2v_[mode_idx];
 1977              		.loc 1 233 45 is_stmt 1 view -0
 1978              		.cfi_startproc
 1979              		@ args = 0, pretend = 0, frame = 0
 1980              		@ frame_needed = 0, uses_anonymous_args = 0
 1981              		@ link register save eliminated.
 234:UIManager.cpp **** }
 1982              		.loc 1 234 3 view .LVU534
 234:UIManager.cpp **** }
 1983              		.loc 1 234 23 is_stmt 0 view .LVU535
 1984 0000 00EB8101 		add	r1, r0, r1, lsl #2
 1985              	.LVL119:
 235:UIManager.cpp **** 
 1986              		.loc 1 235 1 view .LVU536
 1987 0004 91ED110A 		vldr.32	s0, [r1, #68]
 1988 0008 7047     		bx	lr
 1989              		.cfi_endproc
 1990              	.LFE2595:
 1992 000a 00BF     		.section	.text._ZN9UIManager19GetEncoderIncrementEv,"ax",%progbits
 1993              		.align	1
ARM GAS  /var/folders/2p/02m_5p7958535cp2tpgps0400000gn/T//ccA97qDZ.s 			page 57


 1994              		.p2align 2,,3
 1995              		.global	_ZN9UIManager19GetEncoderIncrementEv
 1996              		.syntax unified
 1997              		.thumb
 1998              		.thumb_func
 2000              	_ZN9UIManager19GetEncoderIncrementEv:
 2001              	.LVL120:
 2002              	.LFB2596:
 237:UIManager.cpp ****   return pod_.encoder.Increment();
 2003              		.loc 1 237 41 is_stmt 1 view -0
 2004              		.cfi_startproc
 2005              		@ args = 0, pretend = 0, frame = 0
 2006              		@ frame_needed = 0, uses_anonymous_args = 0
 2007              		@ link register save eliminated.
 238:UIManager.cpp **** }
 2008              		.loc 1 238 3 view .LVU538
 238:UIManager.cpp **** }
 2009              		.loc 1 238 10 is_stmt 0 view .LVU539
 2010 0000 0368     		ldr	r3, [r0]
 2011              	.LVL121:
 2012              	.LBB440:
 2013              	.LBI440:
 2014              		.file 4 "../libDaisy/src/hid/encoder.h"
   1:../libDaisy/src/hid/encoder.h **** #pragma once
   2:../libDaisy/src/hid/encoder.h **** #ifndef DSY_ENCODER_H
   3:../libDaisy/src/hid/encoder.h **** #define DSY_ENCODER_H
   4:../libDaisy/src/hid/encoder.h **** #include "daisy_core.h"
   5:../libDaisy/src/hid/encoder.h **** #include "per/gpio.h"
   6:../libDaisy/src/hid/encoder.h **** #include "hid/switch.h"
   7:../libDaisy/src/hid/encoder.h **** 
   8:../libDaisy/src/hid/encoder.h **** namespace daisy
   9:../libDaisy/src/hid/encoder.h **** {
  10:../libDaisy/src/hid/encoder.h **** /** 
  11:../libDaisy/src/hid/encoder.h ****     @brief Generic Class for handling Quadrature Encoders \n 
  12:../libDaisy/src/hid/encoder.h ****     Inspired/influenced by Mutable Instruments (pichenettes) Encoder classes
  13:../libDaisy/src/hid/encoder.h ****     @author Stephen Hensley
  14:../libDaisy/src/hid/encoder.h ****     @date December 2019
  15:../libDaisy/src/hid/encoder.h ****     @ingroup controls
  16:../libDaisy/src/hid/encoder.h **** */
  17:../libDaisy/src/hid/encoder.h **** class Encoder
  18:../libDaisy/src/hid/encoder.h **** {
  19:../libDaisy/src/hid/encoder.h ****   public:
  20:../libDaisy/src/hid/encoder.h ****     Encoder() {}
  21:../libDaisy/src/hid/encoder.h ****     ~Encoder() {}
  22:../libDaisy/src/hid/encoder.h **** 
  23:../libDaisy/src/hid/encoder.h ****     /** Initializes the encoder with the specified hardware pins.
  24:../libDaisy/src/hid/encoder.h ****      * Update rate is to be deprecated in a future release
  25:../libDaisy/src/hid/encoder.h ****      */
  26:../libDaisy/src/hid/encoder.h ****     void Init(dsy_gpio_pin a,
  27:../libDaisy/src/hid/encoder.h ****               dsy_gpio_pin b,
  28:../libDaisy/src/hid/encoder.h ****               dsy_gpio_pin click,
  29:../libDaisy/src/hid/encoder.h ****               float        update_rate = 0.f);
  30:../libDaisy/src/hid/encoder.h ****     /** Called at update_rate to debounce and handle timing for the switch.
  31:../libDaisy/src/hid/encoder.h ****      * In order for events not to be missed, its important that the Edge/Pressed checks be made at 
  32:../libDaisy/src/hid/encoder.h ****      */
  33:../libDaisy/src/hid/encoder.h ****     void Debounce();
  34:../libDaisy/src/hid/encoder.h **** 
ARM GAS  /var/folders/2p/02m_5p7958535cp2tpgps0400000gn/T//ccA97qDZ.s 			page 58


  35:../libDaisy/src/hid/encoder.h ****     /** Returns +1 if the encoder was turned clockwise, -1 if it was turned counter-clockwise, or 0
  36:../libDaisy/src/hid/encoder.h ****     inline int32_t Increment() const { return updated_ ? inc_ : 0; }
 2015              		.loc 4 36 20 is_stmt 1 view .LVU540
 2016              	.LBB441:
 2017              		.loc 4 36 40 view .LVU541
 2018              		.loc 4 36 56 is_stmt 0 view .LVU542
 2019 0002 93F84400 		ldrb	r0, [r3, #68]	@ zero_extendqisi2
 2020              	.LVL122:
 2021              		.loc 4 36 56 view .LVU543
 2022 0006 00B1     		cbz	r0, .L149
 2023 0008 586E     		ldr	r0, [r3, #100]
 2024              	.L149:
 2025              	.LBE441:
 2026              	.LBE440:
 239:UIManager.cpp **** 
 2027              		.loc 1 239 1 view .LVU544
 2028 000a 7047     		bx	lr
 2029              		.cfi_endproc
 2030              	.LFE2596:
 2032              		.section	.text._ZN9UIManager14EncoderPressedEv,"ax",%progbits
 2033              		.align	1
 2034              		.p2align 2,,3
 2035              		.global	_ZN9UIManager14EncoderPressedEv
 2036              		.syntax unified
 2037              		.thumb
 2038              		.thumb_func
 2040              	_ZN9UIManager14EncoderPressedEv:
 2041              	.LVL123:
 2042              	.LFB2597:
 241:UIManager.cpp ****   return pod_.encoder.FallingEdge();
 2043              		.loc 1 241 33 is_stmt 1 view -0
 2044              		.cfi_startproc
 2045              		@ args = 0, pretend = 0, frame = 0
 2046              		@ frame_needed = 0, uses_anonymous_args = 0
 2047              		@ link register save eliminated.
 242:UIManager.cpp **** }
 2048              		.loc 1 242 3 view .LVU546
 242:UIManager.cpp **** }
 2049              		.loc 1 242 10 is_stmt 0 view .LVU547
 2050 0000 0368     		ldr	r3, [r0]
 2051              	.LVL124:
 2052              	.LBB442:
 2053              	.LBI442:
  37:../libDaisy/src/hid/encoder.h **** 
  38:../libDaisy/src/hid/encoder.h ****     /** Returns true if the encoder was just pressed. */
  39:../libDaisy/src/hid/encoder.h ****     inline bool RisingEdge() const { return sw_.RisingEdge(); }
  40:../libDaisy/src/hid/encoder.h **** 
  41:../libDaisy/src/hid/encoder.h ****     /** Returns true if the encoder was just released. */
  42:../libDaisy/src/hid/encoder.h ****     inline bool FallingEdge() const { return sw_.FallingEdge(); }
 2054              		.loc 4 42 17 is_stmt 1 view .LVU548
 2055              	.LBE442:
 2056              		.loc 4 42 39 view .LVU549
 2057              	.LBB445:
 2058              	.LBB443:
 2059              	.LBI443:
 2060              		.file 5 "../libDaisy/src/hid/switch.h"
   1:../libDaisy/src/hid/switch.h **** #pragma once
ARM GAS  /var/folders/2p/02m_5p7958535cp2tpgps0400000gn/T//ccA97qDZ.s 			page 59


   2:../libDaisy/src/hid/switch.h **** #ifndef DSY_SWITCH_H
   3:../libDaisy/src/hid/switch.h **** #define DSY_SWITCH_H
   4:../libDaisy/src/hid/switch.h **** #include "daisy_core.h"
   5:../libDaisy/src/hid/switch.h **** #include "per/gpio.h"
   6:../libDaisy/src/hid/switch.h **** #include "sys/system.h"
   7:../libDaisy/src/hid/switch.h **** 
   8:../libDaisy/src/hid/switch.h **** namespace daisy
   9:../libDaisy/src/hid/switch.h **** {
  10:../libDaisy/src/hid/switch.h **** /** 
  11:../libDaisy/src/hid/switch.h ****     Generic Class for handling momentary/latching switches \n 
  12:../libDaisy/src/hid/switch.h ****     Inspired/influenced by Mutable Instruments (pichenettes) Switch classes
  13:../libDaisy/src/hid/switch.h ****     @author Stephen Hensley
  14:../libDaisy/src/hid/switch.h ****     @date December 2019
  15:../libDaisy/src/hid/switch.h ****     @ingroup controls
  16:../libDaisy/src/hid/switch.h **** */
  17:../libDaisy/src/hid/switch.h **** class Switch
  18:../libDaisy/src/hid/switch.h **** {
  19:../libDaisy/src/hid/switch.h ****   public:
  20:../libDaisy/src/hid/switch.h ****     /** Specifies the expected behavior of the switch */
  21:../libDaisy/src/hid/switch.h ****     enum Type
  22:../libDaisy/src/hid/switch.h ****     {
  23:../libDaisy/src/hid/switch.h ****         TYPE_TOGGLE,    /**< & */
  24:../libDaisy/src/hid/switch.h ****         TYPE_MOMENTARY, /**< & */
  25:../libDaisy/src/hid/switch.h ****     };
  26:../libDaisy/src/hid/switch.h ****     /** Specifies whether the pressed is HIGH or LOW. */
  27:../libDaisy/src/hid/switch.h ****     enum Polarity
  28:../libDaisy/src/hid/switch.h ****     {
  29:../libDaisy/src/hid/switch.h ****         POLARITY_NORMAL,   /**< & */
  30:../libDaisy/src/hid/switch.h ****         POLARITY_INVERTED, /**< & */
  31:../libDaisy/src/hid/switch.h ****     };
  32:../libDaisy/src/hid/switch.h **** 
  33:../libDaisy/src/hid/switch.h ****     /** Specifies whether to use built-in Pull Up/Down resistors to hold button at a given state wh
  34:../libDaisy/src/hid/switch.h ****     enum Pull
  35:../libDaisy/src/hid/switch.h ****     {
  36:../libDaisy/src/hid/switch.h ****         PULL_UP,   /**< & */
  37:../libDaisy/src/hid/switch.h ****         PULL_DOWN, /**< & */
  38:../libDaisy/src/hid/switch.h ****         PULL_NONE, /**< & */
  39:../libDaisy/src/hid/switch.h ****     };
  40:../libDaisy/src/hid/switch.h **** 
  41:../libDaisy/src/hid/switch.h ****     Switch() {}
  42:../libDaisy/src/hid/switch.h ****     ~Switch() {}
  43:../libDaisy/src/hid/switch.h **** 
  44:../libDaisy/src/hid/switch.h ****     /** 
  45:../libDaisy/src/hid/switch.h ****     Initializes the switch object with a given port/pin combo.
  46:../libDaisy/src/hid/switch.h ****     \param pin port/pin object to tell the switch which hardware pin to use.
  47:../libDaisy/src/hid/switch.h ****     \param update_rate Does nothing. Backwards compatibility until next breaking update.
  48:../libDaisy/src/hid/switch.h ****     \param t switch type -- Default: TYPE_MOMENTARY
  49:../libDaisy/src/hid/switch.h ****     \param pol switch polarity -- Default: POLARITY_INVERTED
  50:../libDaisy/src/hid/switch.h ****     \param pu switch pull up/down -- Default: PULL_UP
  51:../libDaisy/src/hid/switch.h ****     */
  52:../libDaisy/src/hid/switch.h ****     void
  53:../libDaisy/src/hid/switch.h ****     Init(dsy_gpio_pin pin, float update_rate, Type t, Polarity pol, Pull pu);
  54:../libDaisy/src/hid/switch.h **** 
  55:../libDaisy/src/hid/switch.h ****     /**
  56:../libDaisy/src/hid/switch.h ****        Simplified Init.
  57:../libDaisy/src/hid/switch.h ****        \param pin port/pin object to tell the switch which hardware pin to use.
  58:../libDaisy/src/hid/switch.h ****        \param update_rate Left for backwards compatibility until next breaking change.
ARM GAS  /var/folders/2p/02m_5p7958535cp2tpgps0400000gn/T//ccA97qDZ.s 			page 60


  59:../libDaisy/src/hid/switch.h ****     */
  60:../libDaisy/src/hid/switch.h ****     void Init(dsy_gpio_pin pin, float update_rate = 0.f);
  61:../libDaisy/src/hid/switch.h **** 
  62:../libDaisy/src/hid/switch.h ****     /** 
  63:../libDaisy/src/hid/switch.h ****     Called at update_rate to debounce and handle timing for the switch.
  64:../libDaisy/src/hid/switch.h ****     In order for events not to be missed, its important that the Edge/Pressed checks
  65:../libDaisy/src/hid/switch.h ****     be made at the same rate as the debounce function is being called.
  66:../libDaisy/src/hid/switch.h ****     */
  67:../libDaisy/src/hid/switch.h ****     void Debounce();
  68:../libDaisy/src/hid/switch.h **** 
  69:../libDaisy/src/hid/switch.h ****     /** \return true if a button was just pressed. */
  70:../libDaisy/src/hid/switch.h ****     inline bool RisingEdge() const { return updated_ ? state_ == 0x7f : false; }
  71:../libDaisy/src/hid/switch.h **** 
  72:../libDaisy/src/hid/switch.h ****     /** \return true if the button was just released */
  73:../libDaisy/src/hid/switch.h ****     inline bool FallingEdge() const
 2061              		.loc 5 73 17 view .LVU550
 2062              	.LBB444:
  74:../libDaisy/src/hid/switch.h ****     {
  75:../libDaisy/src/hid/switch.h ****         return updated_ ? state_ == 0x80 : false;
 2063              		.loc 5 75 9 view .LVU551
 2064              		.loc 5 75 16 is_stmt 0 view .LVU552
 2065 0002 93F84C00 		ldrb	r0, [r3, #76]	@ zero_extendqisi2
 2066              	.LVL125:
 2067              		.loc 5 75 25 view .LVU553
 2068 0006 30B1     		cbz	r0, .L153
 2069 0008 93F85200 		ldrb	r0, [r3, #82]	@ zero_extendqisi2
 2070 000c A0F18000 		sub	r0, #128
 2071 0010 B0FA80F0 		clz	r0, r0
 2072 0014 4009     		lsrs	r0, r0, #5
 2073              	.L153:
 2074              	.LVL126:
 2075              		.loc 5 75 25 view .LVU554
 2076              	.LBE444:
 2077              	.LBE443:
 2078              	.LBE445:
 243:UIManager.cpp **** 
 2079              		.loc 1 243 1 view .LVU555
 2080 0016 7047     		bx	lr
 2081              		.cfi_endproc
 2082              	.LFE2597:
 2084              		.section	.text._ZN9UIManager16EncoderLongPressEv,"ax",%progbits
 2085              		.align	1
 2086              		.p2align 2,,3
 2087              		.global	_ZN9UIManager16EncoderLongPressEv
 2088              		.syntax unified
 2089              		.thumb
 2090              		.thumb_func
 2092              	_ZN9UIManager16EncoderLongPressEv:
 2093              	.LVL127:
 2094              	.LFB2598:
 245:UIManager.cpp ****   return pod_.encoder.TimeHeldMs() > 1000.0f;
 2095              		.loc 1 245 35 is_stmt 1 view -0
 2096              		.cfi_startproc
 2097              		@ args = 0, pretend = 0, frame = 0
 2098              		@ frame_needed = 0, uses_anonymous_args = 0
 246:UIManager.cpp **** }
 2099              		.loc 1 246 3 view .LVU557
ARM GAS  /var/folders/2p/02m_5p7958535cp2tpgps0400000gn/T//ccA97qDZ.s 			page 61


 245:UIManager.cpp ****   return pod_.encoder.TimeHeldMs() > 1000.0f;
 2100              		.loc 1 245 35 is_stmt 0 view .LVU558
 2101 0000 10B5     		push	{r4, lr}
 2102              		.cfi_def_cfa_offset 8
 2103              		.cfi_offset 4, -8
 2104              		.cfi_offset 14, -4
 246:UIManager.cpp **** }
 2105              		.loc 1 246 10 view .LVU559
 2106 0002 0468     		ldr	r4, [r0]
 2107              	.LVL128:
 2108              	.LBB446:
 2109              	.LBI446:
  43:../libDaisy/src/hid/encoder.h **** 
  44:../libDaisy/src/hid/encoder.h ****     /** Returns true while the encoder is held down.*/
  45:../libDaisy/src/hid/encoder.h ****     inline bool Pressed() const { return sw_.Pressed(); }
  46:../libDaisy/src/hid/encoder.h **** 
  47:../libDaisy/src/hid/encoder.h ****     /** Returns the time in milliseconds that the encoder has been held down. */
  48:../libDaisy/src/hid/encoder.h ****     inline float TimeHeldMs() const { return sw_.TimeHeldMs(); }
 2110              		.loc 4 48 18 is_stmt 1 view .LVU560
 2111              	.LBE446:
 2112              		.loc 4 48 39 view .LVU561
 2113              	.LBB455:
 2114              	.LBB447:
 2115              	.LBI447:
  76:../libDaisy/src/hid/switch.h ****     }
  77:../libDaisy/src/hid/switch.h **** 
  78:../libDaisy/src/hid/switch.h ****     /** \return true if the button is held down (or if the toggle is on) */
  79:../libDaisy/src/hid/switch.h ****     inline bool Pressed() const { return state_ == 0xff; }
  80:../libDaisy/src/hid/switch.h **** 
  81:../libDaisy/src/hid/switch.h ****     /** \return true if the button is held down, without debouncing */
  82:../libDaisy/src/hid/switch.h ****     inline bool RawState()
  83:../libDaisy/src/hid/switch.h ****     {
  84:../libDaisy/src/hid/switch.h ****         return flip_ ? !dsy_gpio_read(&hw_gpio_) : dsy_gpio_read(&hw_gpio_);
  85:../libDaisy/src/hid/switch.h ****     }
  86:../libDaisy/src/hid/switch.h **** 
  87:../libDaisy/src/hid/switch.h ****     /** \return the time in milliseconds that the button has been held (or toggle has been on) */
  88:../libDaisy/src/hid/switch.h ****     inline float TimeHeldMs() const
 2116              		.loc 5 88 18 view .LVU562
 2117              	.LBB448:
  89:../libDaisy/src/hid/switch.h ****     {
  90:../libDaisy/src/hid/switch.h ****         return Pressed() ? System::GetNow() - rising_edge_time_ : 0;
 2118              		.loc 5 90 9 view .LVU563
 2119              	.LBB449:
 2120              	.LBI449:
  79:../libDaisy/src/hid/switch.h **** 
 2121              		.loc 5 79 17 view .LVU564
 2122              	.LBB450:
  79:../libDaisy/src/hid/switch.h **** 
 2123              		.loc 5 79 35 view .LVU565
  79:../libDaisy/src/hid/switch.h **** 
 2124              		.loc 5 79 35 is_stmt 0 view .LVU566
 2125              	.LBE450:
 2126              	.LBE449:
 2127              		.loc 5 90 26 view .LVU567
 2128 0004 94F85230 		ldrb	r3, [r4, #82]	@ zero_extendqisi2
 2129 0008 FF2B     		cmp	r3, #255
 2130 000a 01D0     		beq	.L161
ARM GAS  /var/folders/2p/02m_5p7958535cp2tpgps0400000gn/T//ccA97qDZ.s 			page 62


 2131 000c 0020     		movs	r0, #0
 2132              	.LVL129:
 2133              		.loc 5 90 26 view .LVU568
 2134              	.LBE448:
 2135              	.LBE447:
 2136              	.LBE455:
 247:UIManager.cpp **** 
 2137              		.loc 1 247 1 view .LVU569
 2138 000e 10BD     		pop	{r4, pc}
 2139              	.LVL130:
 2140              	.L161:
 2141              	.LBB456:
 2142              	.LBB453:
 2143              	.LBB451:
 2144              		.loc 5 90 42 view .LVU570
 2145 0010 FFF7FEFF 		bl	_ZN5daisy6System6GetNowEv
 2146              	.LVL131:
 2147              		.loc 5 90 45 view .LVU571
 2148 0014 07EE900A 		vmov	s15, r0	@ int
 2149              		.loc 5 90 26 view .LVU572
 2150 0018 D4ED156A 		vldr.32	s13, [r4, #84]
 2151              		.loc 5 90 45 view .LVU573
 2152 001c F8EE677A 		vcvt.f32.u32	s15, s15
 2153              	.LBE451:
 2154              	.LBE453:
 2155              	.LBE456:
 246:UIManager.cpp **** }
 2156              		.loc 1 246 38 view .LVU574
 2157 0020 9FED057A 		vldr.32	s14, .L162
 2158              	.LBB457:
 2159              	.LBB454:
 2160              	.LBB452:
 2161              		.loc 5 90 26 view .LVU575
 2162 0024 77EEE67A 		vsub.f32	s15, s15, s13
 2163              	.LBE452:
 2164              	.LBE454:
 2165              	.LBE457:
 246:UIManager.cpp **** }
 2166              		.loc 1 246 38 view .LVU576
 2167 0028 F4EEC77A 		vcmpe.f32	s15, s14
 2168 002c F1EE10FA 		vmrs	APSR_nzcv, FPSCR
 2169 0030 CCBF     		ite	gt
 2170 0032 0120     		movgt	r0, #1
 2171 0034 0020     		movle	r0, #0
 2172              	.LVL132:
 247:UIManager.cpp **** 
 2173              		.loc 1 247 1 view .LVU577
 2174 0036 10BD     		pop	{r4, pc}
 2175              	.L163:
 2176              		.align	2
 2177              	.L162:
 2178 0038 00007A44 		.word	1148846080
 2179              		.cfi_endproc
 2180              	.LFE2598:
 2182              		.section	.text._ZN9UIManager14Button1PressedEv,"ax",%progbits
 2183              		.align	1
 2184              		.p2align 2,,3
ARM GAS  /var/folders/2p/02m_5p7958535cp2tpgps0400000gn/T//ccA97qDZ.s 			page 63


 2185              		.global	_ZN9UIManager14Button1PressedEv
 2186              		.syntax unified
 2187              		.thumb
 2188              		.thumb_func
 2190              	_ZN9UIManager14Button1PressedEv:
 2191              	.LVL133:
 2192              	.LFB2599:
 249:UIManager.cpp ****   return pod_.button1.FallingEdge();
 2193              		.loc 1 249 33 is_stmt 1 view -0
 2194              		.cfi_startproc
 2195              		@ args = 0, pretend = 0, frame = 0
 2196              		@ frame_needed = 0, uses_anonymous_args = 0
 2197              		@ link register save eliminated.
 250:UIManager.cpp **** }
 2198              		.loc 1 250 3 view .LVU579
 250:UIManager.cpp **** }
 2199              		.loc 1 250 10 is_stmt 0 view .LVU580
 2200 0000 0368     		ldr	r3, [r0]
 2201              	.LVL134:
 2202              	.LBB458:
 2203              	.LBI458:
  73:../libDaisy/src/hid/switch.h ****     {
 2204              		.loc 5 73 17 is_stmt 1 view .LVU581
 2205              	.LBB459:
  75:../libDaisy/src/hid/switch.h ****     }
 2206              		.loc 5 75 9 view .LVU582
  75:../libDaisy/src/hid/switch.h ****     }
 2207              		.loc 5 75 16 is_stmt 0 view .LVU583
 2208 0002 93F8B400 		ldrb	r0, [r3, #180]	@ zero_extendqisi2
 2209              	.LVL135:
  75:../libDaisy/src/hid/switch.h ****     }
 2210              		.loc 5 75 25 view .LVU584
 2211 0006 30B1     		cbz	r0, .L165
 2212 0008 93F8BA00 		ldrb	r0, [r3, #186]	@ zero_extendqisi2
 2213 000c A0F18000 		sub	r0, #128
 2214 0010 B0FA80F0 		clz	r0, r0
 2215 0014 4009     		lsrs	r0, r0, #5
 2216              	.L165:
 2217              	.LVL136:
  75:../libDaisy/src/hid/switch.h ****     }
 2218              		.loc 5 75 25 view .LVU585
 2219              	.LBE459:
 2220              	.LBE458:
 251:UIManager.cpp **** 
 2221              		.loc 1 251 1 view .LVU586
 2222 0016 7047     		bx	lr
 2223              		.cfi_endproc
 2224              	.LFE2599:
 2226              		.section	.text._ZN9UIManager16Button1LongPressEv,"ax",%progbits
 2227              		.align	1
 2228              		.p2align 2,,3
 2229              		.global	_ZN9UIManager16Button1LongPressEv
 2230              		.syntax unified
 2231              		.thumb
 2232              		.thumb_func
 2234              	_ZN9UIManager16Button1LongPressEv:
 2235              	.LVL137:
ARM GAS  /var/folders/2p/02m_5p7958535cp2tpgps0400000gn/T//ccA97qDZ.s 			page 64


 2236              	.LFB2600:
 253:UIManager.cpp ****   return pod_.button1.TimeHeldMs() > 1000.0f;
 2237              		.loc 1 253 35 is_stmt 1 view -0
 2238              		.cfi_startproc
 2239              		@ args = 0, pretend = 0, frame = 0
 2240              		@ frame_needed = 0, uses_anonymous_args = 0
 254:UIManager.cpp **** }
 2241              		.loc 1 254 3 view .LVU588
 253:UIManager.cpp ****   return pod_.button1.TimeHeldMs() > 1000.0f;
 2242              		.loc 1 253 35 is_stmt 0 view .LVU589
 2243 0000 10B5     		push	{r4, lr}
 2244              		.cfi_def_cfa_offset 8
 2245              		.cfi_offset 4, -8
 2246              		.cfi_offset 14, -4
 254:UIManager.cpp **** }
 2247              		.loc 1 254 10 view .LVU590
 2248 0002 0468     		ldr	r4, [r0]
 2249              	.LVL138:
 2250              	.LBB460:
 2251              	.LBI460:
  88:../libDaisy/src/hid/switch.h ****     {
 2252              		.loc 5 88 18 is_stmt 1 view .LVU591
 2253              	.LBB461:
 2254              		.loc 5 90 9 view .LVU592
 2255              	.LBB462:
 2256              	.LBI462:
  79:../libDaisy/src/hid/switch.h **** 
 2257              		.loc 5 79 17 view .LVU593
 2258              	.LBB463:
  79:../libDaisy/src/hid/switch.h **** 
 2259              		.loc 5 79 35 view .LVU594
  79:../libDaisy/src/hid/switch.h **** 
 2260              		.loc 5 79 35 is_stmt 0 view .LVU595
 2261              	.LBE463:
 2262              	.LBE462:
 2263              		.loc 5 90 26 view .LVU596
 2264 0004 94F8BA30 		ldrb	r3, [r4, #186]	@ zero_extendqisi2
 2265 0008 FF2B     		cmp	r3, #255
 2266 000a 01D0     		beq	.L173
 2267 000c 0020     		movs	r0, #0
 2268              	.LVL139:
 2269              		.loc 5 90 26 view .LVU597
 2270              	.LBE461:
 2271              	.LBE460:
 255:UIManager.cpp **** 
 2272              		.loc 1 255 1 view .LVU598
 2273 000e 10BD     		pop	{r4, pc}
 2274              	.LVL140:
 2275              	.L173:
 2276              	.LBB466:
 2277              	.LBB464:
 2278              		.loc 5 90 42 view .LVU599
 2279 0010 FFF7FEFF 		bl	_ZN5daisy6System6GetNowEv
 2280              	.LVL141:
 2281              		.loc 5 90 45 view .LVU600
 2282 0014 07EE900A 		vmov	s15, r0	@ int
 2283              		.loc 5 90 26 view .LVU601
ARM GAS  /var/folders/2p/02m_5p7958535cp2tpgps0400000gn/T//ccA97qDZ.s 			page 65


 2284 0018 D4ED2F6A 		vldr.32	s13, [r4, #188]
 2285              		.loc 5 90 45 view .LVU602
 2286 001c F8EE677A 		vcvt.f32.u32	s15, s15
 2287              	.LBE464:
 2288              	.LBE466:
 254:UIManager.cpp **** }
 2289              		.loc 1 254 38 view .LVU603
 2290 0020 9FED057A 		vldr.32	s14, .L174
 2291              	.LBB467:
 2292              	.LBB465:
 2293              		.loc 5 90 26 view .LVU604
 2294 0024 77EEE67A 		vsub.f32	s15, s15, s13
 2295              	.LBE465:
 2296              	.LBE467:
 254:UIManager.cpp **** }
 2297              		.loc 1 254 38 view .LVU605
 2298 0028 F4EEC77A 		vcmpe.f32	s15, s14
 2299 002c F1EE10FA 		vmrs	APSR_nzcv, FPSCR
 2300 0030 CCBF     		ite	gt
 2301 0032 0120     		movgt	r0, #1
 2302 0034 0020     		movle	r0, #0
 2303              	.LVL142:
 255:UIManager.cpp **** 
 2304              		.loc 1 255 1 view .LVU606
 2305 0036 10BD     		pop	{r4, pc}
 2306              	.L175:
 2307              		.align	2
 2308              	.L174:
 2309 0038 00007A44 		.word	1148846080
 2310              		.cfi_endproc
 2311              	.LFE2600:
 2313              		.section	.text._ZN9UIManager14Button2PressedEv,"ax",%progbits
 2314              		.align	1
 2315              		.p2align 2,,3
 2316              		.global	_ZN9UIManager14Button2PressedEv
 2317              		.syntax unified
 2318              		.thumb
 2319              		.thumb_func
 2321              	_ZN9UIManager14Button2PressedEv:
 2322              	.LVL143:
 2323              	.LFB2601:
 257:UIManager.cpp ****   return pod_.button2.FallingEdge();
 2324              		.loc 1 257 33 is_stmt 1 view -0
 2325              		.cfi_startproc
 2326              		@ args = 0, pretend = 0, frame = 0
 2327              		@ frame_needed = 0, uses_anonymous_args = 0
 2328              		@ link register save eliminated.
 258:UIManager.cpp **** }
 2329              		.loc 1 258 3 view .LVU608
 258:UIManager.cpp **** }
 2330              		.loc 1 258 10 is_stmt 0 view .LVU609
 2331 0000 0368     		ldr	r3, [r0]
 2332              	.LVL144:
 2333              	.LBB468:
 2334              	.LBI468:
  73:../libDaisy/src/hid/switch.h ****     {
 2335              		.loc 5 73 17 is_stmt 1 view .LVU610
ARM GAS  /var/folders/2p/02m_5p7958535cp2tpgps0400000gn/T//ccA97qDZ.s 			page 66


 2336              	.LBB469:
  75:../libDaisy/src/hid/switch.h ****     }
 2337              		.loc 5 75 9 view .LVU611
  75:../libDaisy/src/hid/switch.h ****     }
 2338              		.loc 5 75 16 is_stmt 0 view .LVU612
 2339 0002 93F8C400 		ldrb	r0, [r3, #196]	@ zero_extendqisi2
 2340              	.LVL145:
  75:../libDaisy/src/hid/switch.h ****     }
 2341              		.loc 5 75 25 view .LVU613
 2342 0006 30B1     		cbz	r0, .L177
 2343 0008 93F8CA00 		ldrb	r0, [r3, #202]	@ zero_extendqisi2
 2344 000c A0F18000 		sub	r0, #128
 2345 0010 B0FA80F0 		clz	r0, r0
 2346 0014 4009     		lsrs	r0, r0, #5
 2347              	.L177:
 2348              	.LVL146:
  75:../libDaisy/src/hid/switch.h ****     }
 2349              		.loc 5 75 25 view .LVU614
 2350              	.LBE469:
 2351              	.LBE468:
 259:UIManager.cpp **** 
 2352              		.loc 1 259 1 view .LVU615
 2353 0016 7047     		bx	lr
 2354              		.cfi_endproc
 2355              	.LFE2601:
 2357              		.section	.text._ZN9UIManager16Button2LongPressEv,"ax",%progbits
 2358              		.align	1
 2359              		.p2align 2,,3
 2360              		.global	_ZN9UIManager16Button2LongPressEv
 2361              		.syntax unified
 2362              		.thumb
 2363              		.thumb_func
 2365              	_ZN9UIManager16Button2LongPressEv:
 2366              	.LVL147:
 2367              	.LFB2602:
 261:UIManager.cpp ****   return pod_.button2.TimeHeldMs() > 1000.0f;
 2368              		.loc 1 261 35 is_stmt 1 view -0
 2369              		.cfi_startproc
 2370              		@ args = 0, pretend = 0, frame = 0
 2371              		@ frame_needed = 0, uses_anonymous_args = 0
 262:UIManager.cpp **** }
 2372              		.loc 1 262 3 view .LVU617
 261:UIManager.cpp ****   return pod_.button2.TimeHeldMs() > 1000.0f;
 2373              		.loc 1 261 35 is_stmt 0 view .LVU618
 2374 0000 10B5     		push	{r4, lr}
 2375              		.cfi_def_cfa_offset 8
 2376              		.cfi_offset 4, -8
 2377              		.cfi_offset 14, -4
 262:UIManager.cpp **** }
 2378              		.loc 1 262 10 view .LVU619
 2379 0002 0468     		ldr	r4, [r0]
 2380              	.LVL148:
 2381              	.LBB470:
 2382              	.LBI470:
  88:../libDaisy/src/hid/switch.h ****     {
 2383              		.loc 5 88 18 is_stmt 1 view .LVU620
 2384              	.LBB471:
ARM GAS  /var/folders/2p/02m_5p7958535cp2tpgps0400000gn/T//ccA97qDZ.s 			page 67


 2385              		.loc 5 90 9 view .LVU621
 2386              	.LBB472:
 2387              	.LBI472:
  79:../libDaisy/src/hid/switch.h **** 
 2388              		.loc 5 79 17 view .LVU622
 2389              	.LBB473:
  79:../libDaisy/src/hid/switch.h **** 
 2390              		.loc 5 79 35 view .LVU623
  79:../libDaisy/src/hid/switch.h **** 
 2391              		.loc 5 79 35 is_stmt 0 view .LVU624
 2392              	.LBE473:
 2393              	.LBE472:
 2394              		.loc 5 90 26 view .LVU625
 2395 0004 94F8CA30 		ldrb	r3, [r4, #202]	@ zero_extendqisi2
 2396 0008 FF2B     		cmp	r3, #255
 2397 000a 01D0     		beq	.L185
 2398 000c 0020     		movs	r0, #0
 2399              	.LVL149:
 2400              		.loc 5 90 26 view .LVU626
 2401              	.LBE471:
 2402              	.LBE470:
 263:UIManager.cpp **** 
 2403              		.loc 1 263 1 view .LVU627
 2404 000e 10BD     		pop	{r4, pc}
 2405              	.LVL150:
 2406              	.L185:
 2407              	.LBB476:
 2408              	.LBB474:
 2409              		.loc 5 90 42 view .LVU628
 2410 0010 FFF7FEFF 		bl	_ZN5daisy6System6GetNowEv
 2411              	.LVL151:
 2412              		.loc 5 90 45 view .LVU629
 2413 0014 07EE900A 		vmov	s15, r0	@ int
 2414              		.loc 5 90 26 view .LVU630
 2415 0018 D4ED336A 		vldr.32	s13, [r4, #204]
 2416              		.loc 5 90 45 view .LVU631
 2417 001c F8EE677A 		vcvt.f32.u32	s15, s15
 2418              	.LBE474:
 2419              	.LBE476:
 262:UIManager.cpp **** }
 2420              		.loc 1 262 38 view .LVU632
 2421 0020 9FED057A 		vldr.32	s14, .L186
 2422              	.LBB477:
 2423              	.LBB475:
 2424              		.loc 5 90 26 view .LVU633
 2425 0024 77EEE67A 		vsub.f32	s15, s15, s13
 2426              	.LBE475:
 2427              	.LBE477:
 262:UIManager.cpp **** }
 2428              		.loc 1 262 38 view .LVU634
 2429 0028 F4EEC77A 		vcmpe.f32	s15, s14
 2430 002c F1EE10FA 		vmrs	APSR_nzcv, FPSCR
 2431 0030 CCBF     		ite	gt
 2432 0032 0120     		movgt	r0, #1
 2433 0034 0020     		movle	r0, #0
 2434              	.LVL152:
 263:UIManager.cpp **** 
ARM GAS  /var/folders/2p/02m_5p7958535cp2tpgps0400000gn/T//ccA97qDZ.s 			page 68


 2435              		.loc 1 263 1 view .LVU635
 2436 0036 10BD     		pop	{r4, pc}
 2437              	.L187:
 2438              		.align	2
 2439              	.L186:
 2440 0038 00007A44 		.word	1148846080
 2441              		.cfi_endproc
 2442              	.LFE2602:
 2444              		.section	.text._ZN9UIManager15MapKnobDeadzoneEf,"ax",%progbits
 2445              		.align	1
 2446              		.p2align 2,,3
 2447              		.global	_ZN9UIManager15MapKnobDeadzoneEf
 2448              		.syntax unified
 2449              		.thumb
 2450              		.thumb_func
 2452              	_ZN9UIManager15MapKnobDeadzoneEf:
 2453              	.LVL153:
 2454              	.LFB2603:
 265:UIManager.cpp ****   if (knob_val<=0.01f) return 0.0f;
 2455              		.loc 1 265 50 is_stmt 1 view -0
 2456              		.cfi_startproc
 2457              		@ args = 0, pretend = 0, frame = 0
 2458              		@ frame_needed = 0, uses_anonymous_args = 0
 2459              		@ link register save eliminated.
 266:UIManager.cpp ****   if (knob_val>=0.99f) return 1.0f;
 2460              		.loc 1 266 3 view .LVU637
 2461 0000 DFED0A7A 		vldr.32	s15, .L194
 2462 0004 B4EEE70A 		vcmpe.f32	s0, s15
 2463 0008 F1EE10FA 		vmrs	APSR_nzcv, FPSCR
 2464 000c 0BD9     		bls	.L191
 267:UIManager.cpp ****   return knob_val;
 2465              		.loc 1 267 3 view .LVU638
 2466 000e 9FED087A 		vldr.32	s14, .L194+4
 268:UIManager.cpp **** }
 2467              		.loc 1 268 10 is_stmt 0 view .LVU639
 2468 0012 F7EE007A 		vmov.f32	s15, #1.0e+0
 2469 0016 B4EEC70A 		vcmpe.f32	s0, s14
 2470 001a F1EE10FA 		vmrs	APSR_nzcv, FPSCR
 2471 001e 58BF     		it	pl
 2472 0020 B0EE670A 		vmovpl.f32	s0, s15
 2473              	.LVL154:
 268:UIManager.cpp **** }
 2474              		.loc 1 268 10 view .LVU640
 2475 0024 7047     		bx	lr
 2476              	.LVL155:
 2477              	.L191:
 266:UIManager.cpp ****   if (knob_val>=0.99f) return 1.0f;
 2478              		.loc 1 266 31 view .LVU641
 2479 0026 9FED030A 		vldr.32	s0, .L194+8
 2480              	.LVL156:
 269:UIManager.cpp **** 
 2481              		.loc 1 269 1 view .LVU642
 2482 002a 7047     		bx	lr
 2483              	.L195:
 2484              		.align	2
 2485              	.L194:
 2486 002c 0AD7233C 		.word	1008981770
ARM GAS  /var/folders/2p/02m_5p7958535cp2tpgps0400000gn/T//ccA97qDZ.s 			page 69


 2487 0030 A4707D3F 		.word	1065185444
 2488 0034 00000000 		.word	0
 2489              		.cfi_endproc
 2490              	.LFE2603:
 2492              		.section	.text._ZN9UIManager18UpdateKnobPassThruEfPfPb,"ax",%progbits
 2493              		.align	1
 2494              		.p2align 2,,3
 2495              		.global	_ZN9UIManager18UpdateKnobPassThruEfPfPb
 2496              		.syntax unified
 2497              		.thumb
 2498              		.thumb_func
 2500              	_ZN9UIManager18UpdateKnobPassThruEfPfPb:
 2501              	.LVL157:
 2502              	.LFB2604:
 277:UIManager.cpp ****   if (!(*pass_thru)){
 2503              		.loc 1 277 98 is_stmt 1 view -0
 2504              		.cfi_startproc
 2505              		@ args = 0, pretend = 0, frame = 0
 2506              		@ frame_needed = 0, uses_anonymous_args = 0
 2507              		@ link register save eliminated.
 278:UIManager.cpp ****     if (curr_knob_val >= (*stored_knob_val) || curr_knob_val <= (*stored_knob_val)) {
 2508              		.loc 1 278 3 view .LVU644
 2509 0000 1378     		ldrb	r3, [r2]	@ zero_extendqisi2
 2510 0002 0BB9     		cbnz	r3, .L197
 279:UIManager.cpp ****       (*pass_thru) = true;
 2511              		.loc 1 279 5 view .LVU645
 280:UIManager.cpp ****     }
 2512              		.loc 1 280 7 view .LVU646
 280:UIManager.cpp ****     }
 2513              		.loc 1 280 20 is_stmt 0 view .LVU647
 2514 0004 0123     		movs	r3, #1
 2515 0006 1370     		strb	r3, [r2]
 2516              	.L197:
 283:UIManager.cpp ****     (*stored_knob_val) = curr_knob_val;
 2517              		.loc 1 283 3 is_stmt 1 view .LVU648
 284:UIManager.cpp ****     return curr_knob_val;
 2518              		.loc 1 284 5 view .LVU649
 284:UIManager.cpp ****     return curr_knob_val;
 2519              		.loc 1 284 24 is_stmt 0 view .LVU650
 2520 0008 81ED000A 		vstr.32	s0, [r1]
 285:UIManager.cpp ****   }
 2521              		.loc 1 285 5 is_stmt 1 view .LVU651
 288:UIManager.cpp **** 
 2522              		.loc 1 288 1 is_stmt 0 view .LVU652
 2523 000c 7047     		bx	lr
 2524              		.cfi_endproc
 2525              	.LFE2604:
 2527 000e 00BF     		.section	.text._ZN9UIManager10SetupTimerEv,"ax",%progbits
 2528              		.align	1
 2529              		.p2align 2,,3
 2530              		.global	_ZN9UIManager10SetupTimerEv
 2531              		.syntax unified
 2532              		.thumb
 2533              		.thumb_func
 2535              	_ZN9UIManager10SetupTimerEv:
 2536              	.LVL158:
 2537              	.LFB2606:
ARM GAS  /var/folders/2p/02m_5p7958535cp2tpgps0400000gn/T//ccA97qDZ.s 			page 70


 296:UIManager.cpp ****   TimerHandle::Config cfg;
 2538              		.loc 1 296 29 is_stmt 1 view -0
 2539              		.cfi_startproc
 2540              		@ args = 0, pretend = 0, frame = 16
 2541              		@ frame_needed = 0, uses_anonymous_args = 0
 297:UIManager.cpp ****   cfg.periph = TimerHandle::Config::Peripheral::TIM_5;
 2542              		.loc 1 297 3 view .LVU654
 296:UIManager.cpp ****   TimerHandle::Config cfg;
 2543              		.loc 1 296 29 is_stmt 0 view .LVU655
 2544 0000 70B5     		push	{r4, r5, r6, lr}
 2545              		.cfi_def_cfa_offset 16
 2546              		.cfi_offset 4, -16
 2547              		.cfi_offset 5, -12
 2548              		.cfi_offset 6, -8
 2549              		.cfi_offset 14, -4
 298:UIManager.cpp ****   // /* set period for 200ms pulse (1MHz/200,000 == 200ms) */
 2550              		.loc 1 298 14 view .LVU656
 2551 0002 9FED0F7B 		vldr.64	d7, .L200	@ int
 296:UIManager.cpp ****   TimerHandle::Config cfg;
 2552              		.loc 1 296 29 view .LVU657
 2553 0006 84B0     		sub	sp, sp, #16
 2554              		.cfi_def_cfa_offset 32
 2555              	.LVL159:
 2556              	.LBB478:
 2557              	.LBI478:
 2558              		.loc 2 75 9 is_stmt 1 view .LVU658
 2559              		.loc 2 75 9 is_stmt 0 view .LVU659
 2560              	.LBE478:
 298:UIManager.cpp ****   // /* set period for 200ms pulse (1MHz/200,000 == 200ms) */
 2561              		.loc 1 298 3 is_stmt 1 view .LVU660
 304:UIManager.cpp ****   /* set 1Mhz tick frequency */
 2562              		.loc 1 304 14 is_stmt 0 view .LVU661
 2563 0008 00F10C05 		add	r5, r0, #12
 302:UIManager.cpp ****   cfg.enable_irq = true;
 2564              		.loc 1 302 14 view .LVU662
 2565 000c 44F62063 		movw	r3, #20000
 303:UIManager.cpp ****   timer_.Init(cfg);
 2566              		.loc 1 303 18 view .LVU663
 2567 0010 0126     		movs	r6, #1
 296:UIManager.cpp ****   TimerHandle::Config cfg;
 2568              		.loc 1 296 29 view .LVU664
 2569 0012 0446     		mov	r4, r0
 304:UIManager.cpp ****   /* set 1Mhz tick frequency */
 2570              		.loc 1 304 14 view .LVU665
 2571 0014 6946     		mov	r1, sp
 2572 0016 2846     		mov	r0, r5
 2573              	.LVL160:
 302:UIManager.cpp ****   cfg.enable_irq = true;
 2574              		.loc 1 302 14 view .LVU666
 2575 0018 0293     		str	r3, [sp, #8]
 303:UIManager.cpp ****   timer_.Init(cfg);
 2576              		.loc 1 303 18 view .LVU667
 2577 001a 8DF80C60 		strb	r6, [sp, #12]
 298:UIManager.cpp ****   // /* set period for 200ms pulse (1MHz/200,000 == 200ms) */
 2578              		.loc 1 298 14 view .LVU668
 2579 001e 8DED007B 		vstr.64	d7, [sp]	@ int
 302:UIManager.cpp ****   cfg.enable_irq = true;
ARM GAS  /var/folders/2p/02m_5p7958535cp2tpgps0400000gn/T//ccA97qDZ.s 			page 71


 2580              		.loc 1 302 3 is_stmt 1 view .LVU669
 303:UIManager.cpp ****   timer_.Init(cfg);
 2581              		.loc 1 303 3 view .LVU670
 304:UIManager.cpp ****   /* set 1Mhz tick frequency */
 2582              		.loc 1 304 3 view .LVU671
 304:UIManager.cpp ****   /* set 1Mhz tick frequency */
 2583              		.loc 1 304 14 is_stmt 0 view .LVU672
 2584 0022 FFF7FEFF 		bl	_ZN5daisy11TimerHandle4InitERKNS0_6ConfigE
 2585              	.LVL161:
 306:UIManager.cpp ****   pulse_increasing_ = true;
 2586              		.loc 1 306 3 is_stmt 1 view .LVU673
 306:UIManager.cpp ****   pulse_increasing_ = true;
 2587              		.loc 1 306 22 is_stmt 0 view .LVU674
 2588 0026 C721     		movs	r1, #199
 2589 0028 2846     		mov	r0, r5
 2590 002a FFF7FEFF 		bl	_ZN5daisy11TimerHandle12SetPrescalerEm
 2591              	.LVL162:
 307:UIManager.cpp ****   timer_.SetCallback(StaticLedCallback, this);
 2592              		.loc 1 307 3 is_stmt 1 view .LVU675
 308:UIManager.cpp **** }
 2593              		.loc 1 308 21 is_stmt 0 view .LVU676
 2594 002e 2246     		mov	r2, r4
 2595 0030 0549     		ldr	r1, .L200+8
 2596 0032 2846     		mov	r0, r5
 307:UIManager.cpp ****   timer_.SetCallback(StaticLedCallback, this);
 2597              		.loc 1 307 21 view .LVU677
 2598 0034 2675     		strb	r6, [r4, #20]
 308:UIManager.cpp **** }
 2599              		.loc 1 308 3 is_stmt 1 view .LVU678
 308:UIManager.cpp **** }
 2600              		.loc 1 308 21 is_stmt 0 view .LVU679
 2601 0036 FFF7FEFF 		bl	_ZN5daisy11TimerHandle11SetCallbackEPFvPvES1_
 2602              	.LVL163:
 309:UIManager.cpp **** 
 2603              		.loc 1 309 1 view .LVU680
 2604 003a 04B0     		add	sp, sp, #16
 2605              		.cfi_def_cfa_offset 16
 2606              		@ sp needed
 2607 003c 70BD     		pop	{r4, r5, r6, pc}
 2608              	.LVL164:
 2609              	.L201:
 309:UIManager.cpp **** 
 2610              		.loc 1 309 1 view .LVU681
 2611 003e 00BF     		.align	3
 2612              	.L200:
 2613 0040 03000000 		.word	3
 2614 0044 00000000 		.word	0
 2615 0048 00000000 		.word	_ZL17StaticLedCallbackPv
 2616              		.cfi_endproc
 2617              	.LFE2606:
 2619              		.section	.text._ZN9UIManager16SetLedRandomModeEv,"ax",%progbits
 2620              		.align	1
 2621              		.p2align 2,,3
 2622              		.global	_ZN9UIManager16SetLedRandomModeEv
 2623              		.syntax unified
 2624              		.thumb
 2625              		.thumb_func
ARM GAS  /var/folders/2p/02m_5p7958535cp2tpgps0400000gn/T//ccA97qDZ.s 			page 72


 2627              	_ZN9UIManager16SetLedRandomModeEv:
 2628              	.LVL165:
 2629              	.LFB2609:
 384:UIManager.cpp ****   if (current_state_==AppState::Synthesis){
 2630              		.loc 1 384 35 is_stmt 1 view -0
 2631              		.cfi_startproc
 2632              		@ args = 0, pretend = 0, frame = 0
 2633              		@ frame_needed = 0, uses_anonymous_args = 0
 385:UIManager.cpp ****     switch(current_synth_mode_){
 2634              		.loc 1 385 3 view .LVU683
 2635 0000 4368     		ldr	r3, [r0, #4]
 2636 0002 032B     		cmp	r3, #3
 2637 0004 00D0     		beq	.L212
 2638 0006 7047     		bx	lr
 2639              	.L212:
 386:UIManager.cpp ****       case SynthMode::Size_Position:
 2640              		.loc 1 386 12 is_stmt 0 view .LVU684
 2641 0008 8368     		ldr	r3, [r0, #8]
 386:UIManager.cpp ****       case SynthMode::Size_Position:
 2642              		.loc 1 386 5 view .LVU685
 2643 000a 052B     		cmp	r3, #5
 384:UIManager.cpp ****   if (current_state_==AppState::Synthesis){
 2644              		.loc 1 384 35 view .LVU686
 2645 000c 10B5     		push	{r4, lr}
 2646              		.cfi_def_cfa_offset 8
 2647              		.cfi_offset 4, -8
 2648              		.cfi_offset 14, -4
 2649 000e 0446     		mov	r4, r0
 386:UIManager.cpp ****       case SynthMode::Size_Position:
 2650              		.loc 1 386 5 is_stmt 1 view .LVU687
 2651 0010 15DC     		bgt	.L204
 386:UIManager.cpp ****       case SynthMode::Size_Position:
 2652              		.loc 1 386 5 is_stmt 0 view .LVU688
 2653 0012 022B     		cmp	r3, #2
 2654 0014 16DC     		bgt	.L205
 2655 0016 14D8     		bhi	.L202
 2656              	.L206:
 2657              	.LVL166:
 2658              	.LBB485:
 2659              	.LBI485:
 384:UIManager.cpp ****   if (current_state_==AppState::Synthesis){
 2660              		.loc 1 384 6 is_stmt 1 view .LVU689
 2661              	.LBE485:
 387:UIManager.cpp ****       case SynthMode::Pitch_ActiveGrains:
 2662              		.loc 1 387 7 view .LVU690
 388:UIManager.cpp ****       case SynthMode::PhasorMode_EnvType:
 2663              		.loc 1 388 7 view .LVU691
 389:UIManager.cpp ****       case SynthMode::Pan_PanRnd:
 2664              		.loc 1 389 7 view .LVU692
 390:UIManager.cpp ****         /* set led 2 to green*/
 2665              		.loc 1 390 7 view .LVU693
 392:UIManager.cpp ****         break;
 2666              		.loc 1 392 9 view .LVU694
 2667              	.LBB488:
 2668              	.LBB486:
 2669              	.LBI486:
 435:UIManager.cpp ****   if (is_Led1){
ARM GAS  /var/folders/2p/02m_5p7958535cp2tpgps0400000gn/T//ccA97qDZ.s 			page 73


 2670              		.loc 1 435 6 view .LVU695
 2671              	.LBB487:
 436:UIManager.cpp ****     pod_.led1.Set(r,g,b);
 2672              		.loc 1 436 3 view .LVU696
 440:UIManager.cpp ****   }
 2673              		.loc 1 440 5 view .LVU697
 440:UIManager.cpp ****   }
 2674              		.loc 1 440 18 is_stmt 0 view .LVU698
 2675 0018 9FED0E1A 		vldr.32	s2, .L213
 2676 001c 2068     		ldr	r0, [r4]
 2677              	.LVL167:
 440:UIManager.cpp ****   }
 2678              		.loc 1 440 18 view .LVU699
 2679 001e B0EE410A 		vmov.f32	s0, s2
 2680 0022 DFED0D0A 		vldr.32	s1, .L213+4
 2681              	.LVL168:
 2682              	.L211:
 440:UIManager.cpp ****   }
 2683              		.loc 1 440 18 view .LVU700
 2684              	.LBE487:
 2685              	.LBE486:
 2686              	.LBE488:
 2687              	.LBB489:
 2688              	.LBB490:
 2689 0026 00F59670 		add	r0, r0, #300
 2690 002a FFF7FEFF 		bl	_ZN5daisy6RgbLed3SetEfff
 2691              	.LVL169:
 442:UIManager.cpp ****   System::Delay(10);
 2692              		.loc 1 442 3 is_stmt 1 view .LVU701
 442:UIManager.cpp ****   System::Delay(10);
 2693              		.loc 1 442 18 is_stmt 0 view .LVU702
 2694 002e 2068     		ldr	r0, [r4]
 2695 0030 FFF7FEFF 		bl	_ZN5daisy8DaisyPod10UpdateLedsEv
 2696              	.LVL170:
 443:UIManager.cpp **** }
 2697              		.loc 1 443 3 is_stmt 1 view .LVU703
 443:UIManager.cpp **** }
 2698              		.loc 1 443 16 is_stmt 0 view .LVU704
 2699 0034 0A20     		movs	r0, #10
 2700              	.LBE490:
 2701              	.LBE489:
 405:UIManager.cpp **** 
 2702              		.loc 1 405 1 view .LVU705
 2703 0036 BDE81040 		pop	{r4, lr}
 2704              		.cfi_remember_state
 2705              		.cfi_restore 14
 2706              		.cfi_restore 4
 2707              		.cfi_def_cfa_offset 0
 2708              	.LVL171:
 2709              	.LBB493:
 2710              	.LBB491:
 443:UIManager.cpp **** }
 2711              		.loc 1 443 16 view .LVU706
 2712 003a FFF7FEBF 		b	_ZN5daisy6System5DelayEm
 2713              	.LVL172:
 2714              	.L204:
 2715              		.cfi_restore_state
ARM GAS  /var/folders/2p/02m_5p7958535cp2tpgps0400000gn/T//ccA97qDZ.s 			page 74


 443:UIManager.cpp **** }
 2716              		.loc 1 443 16 view .LVU707
 2717              	.LBE491:
 2718              	.LBE493:
 386:UIManager.cpp ****       case SynthMode::Size_Position:
 2719              		.loc 1 386 5 view .LVU708
 2720 003e 062B     		cmp	r3, #6
 2721 0040 EAD0     		beq	.L206
 2722              	.L202:
 405:UIManager.cpp **** 
 2723              		.loc 1 405 1 view .LVU709
 2724 0042 10BD     		pop	{r4, pc}
 2725              	.L205:
 395:UIManager.cpp ****       case SynthMode::Pitch_ActiveGrains_Rnd:
 2726              		.loc 1 395 7 is_stmt 1 view .LVU710
 396:UIManager.cpp ****       case SynthMode::PhasorMode_EnvType_Rnd:
 2727              		.loc 1 396 7 view .LVU711
 397:UIManager.cpp ****         /* set led 2 to red*/
 2728              		.loc 1 397 7 view .LVU712
 399:UIManager.cpp ****         break;
 2729              		.loc 1 399 9 view .LVU713
 2730              	.LVL173:
 2731              	.LBB494:
 2732              	.LBI489:
 435:UIManager.cpp ****   if (is_Led1){
 2733              		.loc 1 435 6 view .LVU714
 2734              	.LBB492:
 436:UIManager.cpp ****     pod_.led1.Set(r,g,b);
 2735              		.loc 1 436 3 view .LVU715
 440:UIManager.cpp ****   }
 2736              		.loc 1 440 5 view .LVU716
 440:UIManager.cpp ****   }
 2737              		.loc 1 440 18 is_stmt 0 view .LVU717
 2738 0044 9FED031A 		vldr.32	s2, .L213
 2739 0048 0068     		ldr	r0, [r0]
 2740              	.LVL174:
 440:UIManager.cpp ****   }
 2741              		.loc 1 440 18 view .LVU718
 2742 004a F0EE410A 		vmov.f32	s1, s2
 2743 004e 9FED020A 		vldr.32	s0, .L213+4
 2744 0052 E8E7     		b	.L211
 2745              	.L214:
 2746              		.align	2
 2747              	.L213:
 2748 0054 00000000 		.word	0
 2749 0058 00007F43 		.word	1132396544
 2750              	.LBE492:
 2751              	.LBE494:
 2752              		.cfi_endproc
 2753              	.LFE2609:
 2755              		.section	.text._ZN9UIManager12SetLedFXModeEv,"ax",%progbits
 2756              		.align	1
 2757              		.p2align 2,,3
 2758              		.global	_ZN9UIManager12SetLedFXModeEv
 2759              		.syntax unified
 2760              		.thumb
 2761              		.thumb_func
ARM GAS  /var/folders/2p/02m_5p7958535cp2tpgps0400000gn/T//ccA97qDZ.s 			page 75


 2763              	_ZN9UIManager12SetLedFXModeEv:
 2764              	.LVL175:
 2765              	.LFB2610:
 407:UIManager.cpp ****   if (current_state_ == AppState::Synthesis){
 2766              		.loc 1 407 31 is_stmt 1 view -0
 2767              		.cfi_startproc
 2768              		@ args = 0, pretend = 0, frame = 0
 2769              		@ frame_needed = 0, uses_anonymous_args = 0
 408:UIManager.cpp ****     switch(current_synth_mode_){
 2770              		.loc 1 408 3 view .LVU720
 2771 0000 4368     		ldr	r3, [r0, #4]
 2772 0002 032B     		cmp	r3, #3
 2773 0004 00D0     		beq	.L224
 2774 0006 7047     		bx	lr
 2775              	.L224:
 409:UIManager.cpp ****       case SynthMode::Reverb:
 2776              		.loc 1 409 12 is_stmt 0 view .LVU721
 2777 0008 8368     		ldr	r3, [r0, #8]
 409:UIManager.cpp ****       case SynthMode::Reverb:
 2778              		.loc 1 409 5 view .LVU722
 2779 000a 072B     		cmp	r3, #7
 407:UIManager.cpp ****   if (current_state_ == AppState::Synthesis){
 2780              		.loc 1 407 31 view .LVU723
 2781 000c 10B5     		push	{r4, lr}
 2782              		.cfi_def_cfa_offset 8
 2783              		.cfi_offset 4, -8
 2784              		.cfi_offset 14, -4
 2785 000e 0446     		mov	r4, r0
 409:UIManager.cpp ****       case SynthMode::Reverb:
 2786              		.loc 1 409 5 is_stmt 1 view .LVU724
 2787 0010 15D0     		beq	.L217
 409:UIManager.cpp ****       case SynthMode::Reverb:
 2788              		.loc 1 409 5 is_stmt 0 view .LVU725
 2789 0012 082B     		cmp	r3, #8
 2790 0014 12D1     		bne	.L225
 414:UIManager.cpp ****         /* set led 2 to yellow */
 2791              		.loc 1 414 7 is_stmt 1 view .LVU726
 416:UIManager.cpp ****         break;
 2792              		.loc 1 416 9 view .LVU727
 2793              	.LVL176:
 2794              	.LBB501:
 2795              	.LBI501:
 435:UIManager.cpp ****   if (is_Led1){
 2796              		.loc 1 435 6 view .LVU728
 2797              	.LBB502:
 436:UIManager.cpp ****     pod_.led1.Set(r,g,b);
 2798              		.loc 1 436 3 view .LVU729
 440:UIManager.cpp ****   }
 2799              		.loc 1 440 5 view .LVU730
 440:UIManager.cpp ****   }
 2800              		.loc 1 440 18 is_stmt 0 view .LVU731
 2801 0016 DFED0E0A 		vldr.32	s1, .L226
 2802 001a 0068     		ldr	r0, [r0]
 2803              	.LVL177:
 440:UIManager.cpp ****   }
 2804              		.loc 1 440 18 view .LVU732
 2805 001c B0EE600A 		vmov.f32	s0, s1
ARM GAS  /var/folders/2p/02m_5p7958535cp2tpgps0400000gn/T//ccA97qDZ.s 			page 76


 2806 0020 9FED0C1A 		vldr.32	s2, .L226+4
 2807              	.LVL178:
 2808              	.L223:
 440:UIManager.cpp ****   }
 2809              		.loc 1 440 18 view .LVU733
 2810 0024 00F59670 		add	r0, r0, #300
 2811 0028 FFF7FEFF 		bl	_ZN5daisy6RgbLed3SetEfff
 2812              	.LVL179:
 442:UIManager.cpp ****   System::Delay(10);
 2813              		.loc 1 442 3 is_stmt 1 view .LVU734
 442:UIManager.cpp ****   System::Delay(10);
 2814              		.loc 1 442 18 is_stmt 0 view .LVU735
 2815 002c 2068     		ldr	r0, [r4]
 2816 002e FFF7FEFF 		bl	_ZN5daisy8DaisyPod10UpdateLedsEv
 2817              	.LVL180:
 443:UIManager.cpp **** }
 2818              		.loc 1 443 3 is_stmt 1 view .LVU736
 443:UIManager.cpp **** }
 2819              		.loc 1 443 16 is_stmt 0 view .LVU737
 2820 0032 0A20     		movs	r0, #10
 2821              	.LBE502:
 2822              	.LBE501:
 422:UIManager.cpp **** 
 2823              		.loc 1 422 1 view .LVU738
 2824 0034 BDE81040 		pop	{r4, lr}
 2825              		.cfi_remember_state
 2826              		.cfi_restore 14
 2827              		.cfi_restore 4
 2828              		.cfi_def_cfa_offset 0
 2829              	.LVL181:
 2830              	.LBB504:
 2831              	.LBB503:
 443:UIManager.cpp **** }
 2832              		.loc 1 443 16 view .LVU739
 2833 0038 FFF7FEBF 		b	_ZN5daisy6System5DelayEm
 2834              	.LVL182:
 2835              	.L225:
 2836              		.cfi_restore_state
 443:UIManager.cpp **** }
 2837              		.loc 1 443 16 view .LVU740
 2838              	.LBE503:
 2839              	.LBE504:
 422:UIManager.cpp **** 
 2840              		.loc 1 422 1 view .LVU741
 2841 003c 10BD     		pop	{r4, pc}
 2842              	.L217:
 2843              	.LVL183:
 2844              	.LBB505:
 2845              	.LBI505:
 407:UIManager.cpp ****   if (current_state_ == AppState::Synthesis){
 2846              		.loc 1 407 6 is_stmt 1 view .LVU742
 2847              	.LBE505:
 410:UIManager.cpp ****         /* set led 2 to cyan */
 2848              		.loc 1 410 7 view .LVU743
 412:UIManager.cpp ****         break;
 2849              		.loc 1 412 9 view .LVU744
 2850              	.LBB508:
ARM GAS  /var/folders/2p/02m_5p7958535cp2tpgps0400000gn/T//ccA97qDZ.s 			page 77


 2851              	.LBB506:
 2852              	.LBI506:
 435:UIManager.cpp ****   if (is_Led1){
 2853              		.loc 1 435 6 view .LVU745
 2854              	.LBB507:
 436:UIManager.cpp ****     pod_.led1.Set(r,g,b);
 2855              		.loc 1 436 3 view .LVU746
 440:UIManager.cpp ****   }
 2856              		.loc 1 440 5 view .LVU747
 440:UIManager.cpp ****   }
 2857              		.loc 1 440 18 is_stmt 0 view .LVU748
 2858 003e 9FED041A 		vldr.32	s2, .L226
 2859 0042 0068     		ldr	r0, [r0]
 2860              	.LVL184:
 440:UIManager.cpp ****   }
 2861              		.loc 1 440 18 view .LVU749
 2862 0044 F0EE410A 		vmov.f32	s1, s2
 2863 0048 9FED020A 		vldr.32	s0, .L226+4
 2864 004c EAE7     		b	.L223
 2865              	.L227:
 2866 004e 00BF     		.align	2
 2867              	.L226:
 2868 0050 00007F43 		.word	1132396544
 2869 0054 00000000 		.word	0
 2870              	.LBE507:
 2871              	.LBE506:
 2872              	.LBE508:
 2873              		.cfi_endproc
 2874              	.LFE2610:
 2876              		.section	.text._ZN9UIManager13StartLedPulseEv,"ax",%progbits
 2877              		.align	1
 2878              		.p2align 2,,3
 2879              		.global	_ZN9UIManager13StartLedPulseEv
 2880              		.syntax unified
 2881              		.thumb
 2882              		.thumb_func
 2884              	_ZN9UIManager13StartLedPulseEv:
 2885              	.LVL185:
 2886              	.LFB2611:
 424:UIManager.cpp ****   pulse_brightness_ = 0;
 2887              		.loc 1 424 32 is_stmt 1 view -0
 2888              		.cfi_startproc
 2889              		@ args = 0, pretend = 0, frame = 0
 2890              		@ frame_needed = 0, uses_anonymous_args = 0
 2891              		@ link register save eliminated.
 425:UIManager.cpp ****   pulse_increasing_ = true;
 2892              		.loc 1 425 3 view .LVU751
 426:UIManager.cpp ****   pulse_count_ = 0;
 2893              		.loc 1 426 3 view .LVU752
 424:UIManager.cpp ****   pulse_brightness_ = 0;
 2894              		.loc 1 424 32 is_stmt 0 view .LVU753
 2895 0000 0346     		mov	r3, r0
 426:UIManager.cpp ****   pulse_count_ = 0;
 2896              		.loc 1 426 21 view .LVU754
 2897 0002 0121     		movs	r1, #1
 425:UIManager.cpp ****   pulse_increasing_ = true;
 2898              		.loc 1 425 21 view .LVU755
ARM GAS  /var/folders/2p/02m_5p7958535cp2tpgps0400000gn/T//ccA97qDZ.s 			page 78


 2899 0004 0022     		movs	r2, #0
 428:UIManager.cpp **** }
 2900              		.loc 1 428 15 view .LVU756
 2901 0006 0C30     		adds	r0, r0, #12
 2902              	.LVL186:
 426:UIManager.cpp ****   pulse_count_ = 0;
 2903              		.loc 1 426 21 view .LVU757
 2904 0008 1975     		strb	r1, [r3, #20]
 427:UIManager.cpp ****   timer_.Start();
 2905              		.loc 1 427 3 is_stmt 1 view .LVU758
 425:UIManager.cpp ****   pulse_increasing_ = true;
 2906              		.loc 1 425 21 is_stmt 0 view .LVU759
 2907 000a A3F81520 		strh	r2, [r3, #21]	@ unaligned
 428:UIManager.cpp **** }
 2908              		.loc 1 428 3 is_stmt 1 view .LVU760
 428:UIManager.cpp **** }
 2909              		.loc 1 428 15 is_stmt 0 view .LVU761
 2910 000e FFF7FEBF 		b	_ZN5daisy11TimerHandle5StartEv
 2911              	.LVL187:
 428:UIManager.cpp **** }
 2912              		.loc 1 428 15 view .LVU762
 2913              		.cfi_endproc
 2914              	.LFE2611:
 2916 0012 00BF     		.section	.text._ZN9UIManager12StopLedPulseEv,"ax",%progbits
 2917              		.align	1
 2918              		.p2align 2,,3
 2919              		.global	_ZN9UIManager12StopLedPulseEv
 2920              		.syntax unified
 2921              		.thumb
 2922              		.thumb_func
 2924              	_ZN9UIManager12StopLedPulseEv:
 2925              	.LVL188:
 2926              	.LFB2612:
 431:UIManager.cpp ****   timer_.Stop();
 2927              		.loc 1 431 31 is_stmt 1 view -0
 2928              		.cfi_startproc
 2929              		@ args = 0, pretend = 0, frame = 0
 2930              		@ frame_needed = 0, uses_anonymous_args = 0
 2931              		@ link register save eliminated.
 432:UIManager.cpp **** }
 2932              		.loc 1 432 3 view .LVU764
 432:UIManager.cpp **** }
 2933              		.loc 1 432 14 is_stmt 0 view .LVU765
 2934 0000 0C30     		adds	r0, r0, #12
 2935              	.LVL189:
 432:UIManager.cpp **** }
 2936              		.loc 1 432 14 view .LVU766
 2937 0002 FFF7FEBF 		b	_ZN5daisy11TimerHandle4StopEv
 2938              	.LVL190:
 432:UIManager.cpp **** }
 2939              		.loc 1 432 14 view .LVU767
 2940              		.cfi_endproc
 2941              	.LFE2612:
 2943 0006 00BF     		.section	.text._ZN9UIManager6SetLedEiiib,"ax",%progbits
 2944              		.align	1
 2945              		.p2align 2,,3
 2946              		.global	_ZN9UIManager6SetLedEiiib
ARM GAS  /var/folders/2p/02m_5p7958535cp2tpgps0400000gn/T//ccA97qDZ.s 			page 79


 2947              		.syntax unified
 2948              		.thumb
 2949              		.thumb_func
 2951              	_ZN9UIManager6SetLedEiiib:
 2952              	.LVL191:
 2953              	.LFB2613:
 435:UIManager.cpp ****   if (is_Led1){
 2954              		.loc 1 435 58 is_stmt 1 view -0
 2955              		.cfi_startproc
 2956              		@ args = 4, pretend = 0, frame = 0
 2957              		@ frame_needed = 0, uses_anonymous_args = 0
 436:UIManager.cpp ****     pod_.led1.Set(r,g,b);
 2958              		.loc 1 436 3 view .LVU769
 435:UIManager.cpp ****   if (is_Led1){
 2959              		.loc 1 435 58 is_stmt 0 view .LVU770
 2960 0000 38B5     		push	{r3, r4, r5, lr}
 2961              		.cfi_def_cfa_offset 16
 2962              		.cfi_offset 3, -16
 2963              		.cfi_offset 4, -12
 2964              		.cfi_offset 5, -8
 2965              		.cfi_offset 14, -4
 435:UIManager.cpp ****   if (is_Led1){
 2966              		.loc 1 435 58 view .LVU771
 2967 0002 00EE101A 		vmov	s0, r1	@ int
 2968 0006 00EE902A 		vmov	s1, r2	@ int
 2969 000a 01EE103A 		vmov	s2, r3	@ int
 2970 000e 9DF81050 		ldrb	r5, [sp, #16]	@ zero_extendqisi2
 2971 0012 0446     		mov	r4, r0
 437:UIManager.cpp ****   }
 2972              		.loc 1 437 18 view .LVU772
 2973 0014 F8EEE00A 		vcvt.f32.s32	s1, s1
 2974 0018 B8EEC11A 		vcvt.f32.s32	s2, s2
 2975 001c 0068     		ldr	r0, [r0]
 2976              	.LVL192:
 437:UIManager.cpp ****   }
 2977              		.loc 1 437 18 view .LVU773
 2978 001e B8EEC00A 		vcvt.f32.s32	s0, s0
 436:UIManager.cpp ****     pod_.led1.Set(r,g,b);
 2979              		.loc 1 436 3 view .LVU774
 2980 0022 55B1     		cbz	r5, .L231
 437:UIManager.cpp ****   }
 2981              		.loc 1 437 5 is_stmt 1 view .LVU775
 437:UIManager.cpp ****   }
 2982              		.loc 1 437 18 is_stmt 0 view .LVU776
 2983 0024 D830     		adds	r0, r0, #216
 2984 0026 FFF7FEFF 		bl	_ZN5daisy6RgbLed3SetEfff
 2985              	.LVL193:
 2986              	.L232:
 442:UIManager.cpp ****   System::Delay(10);
 2987              		.loc 1 442 3 is_stmt 1 view .LVU777
 442:UIManager.cpp ****   System::Delay(10);
 2988              		.loc 1 442 18 is_stmt 0 view .LVU778
 2989 002a 2068     		ldr	r0, [r4]
 2990 002c FFF7FEFF 		bl	_ZN5daisy8DaisyPod10UpdateLedsEv
 2991              	.LVL194:
 443:UIManager.cpp **** }
 2992              		.loc 1 443 3 is_stmt 1 view .LVU779
ARM GAS  /var/folders/2p/02m_5p7958535cp2tpgps0400000gn/T//ccA97qDZ.s 			page 80


 443:UIManager.cpp **** }
 2993              		.loc 1 443 16 is_stmt 0 view .LVU780
 2994 0030 0A20     		movs	r0, #10
 444:UIManager.cpp **** 
 2995              		.loc 1 444 1 view .LVU781
 2996 0032 BDE83840 		pop	{r3, r4, r5, lr}
 2997              		.cfi_remember_state
 2998              		.cfi_restore 14
 2999              		.cfi_restore 5
 3000              		.cfi_restore 4
 3001              		.cfi_restore 3
 3002              		.cfi_def_cfa_offset 0
 3003              	.LVL195:
 443:UIManager.cpp **** }
 3004              		.loc 1 443 16 view .LVU782
 3005 0036 FFF7FEBF 		b	_ZN5daisy6System5DelayEm
 3006              	.LVL196:
 3007              	.L231:
 3008              		.cfi_restore_state
 440:UIManager.cpp ****   }
 3009              		.loc 1 440 5 is_stmt 1 view .LVU783
 440:UIManager.cpp ****   }
 3010              		.loc 1 440 18 is_stmt 0 view .LVU784
 3011 003a 00F59670 		add	r0, r0, #300
 3012 003e FFF7FEFF 		bl	_ZN5daisy6RgbLed3SetEfff
 3013              	.LVL197:
 440:UIManager.cpp ****   }
 3014              		.loc 1 440 18 view .LVU785
 3015 0042 F2E7     		b	.L232
 3016              		.cfi_endproc
 3017              	.LFE2613:
 3019              		.section	.text._ZN9UIManager8BlinkLedEiiib,"ax",%progbits
 3020              		.align	1
 3021              		.p2align 2,,3
 3022              		.global	_ZN9UIManager8BlinkLedEiiib
 3023              		.syntax unified
 3024              		.thumb
 3025              		.thumb_func
 3027              	_ZN9UIManager8BlinkLedEiiib:
 3028              	.LVL198:
 3029              	.LFB2614:
 446:UIManager.cpp ****   SetLed(r,g,b, is_Led1);
 3030              		.loc 1 446 60 is_stmt 1 view -0
 3031              		.cfi_startproc
 3032              		@ args = 4, pretend = 0, frame = 0
 3033              		@ frame_needed = 0, uses_anonymous_args = 0
 447:UIManager.cpp ****   System::Delay(100);
 3034              		.loc 1 447 3 view .LVU787
 446:UIManager.cpp ****   SetLed(r,g,b, is_Led1);
 3035              		.loc 1 446 60 is_stmt 0 view .LVU788
 3036 0000 38B5     		push	{r3, r4, r5, lr}
 3037              		.cfi_def_cfa_offset 16
 3038              		.cfi_offset 3, -16
 3039              		.cfi_offset 4, -12
 3040              		.cfi_offset 5, -8
 3041              		.cfi_offset 14, -4
 446:UIManager.cpp ****   SetLed(r,g,b, is_Led1);
ARM GAS  /var/folders/2p/02m_5p7958535cp2tpgps0400000gn/T//ccA97qDZ.s 			page 81


 3042              		.loc 1 446 60 view .LVU789
 3043 0002 00EE101A 		vmov	s0, r1	@ int
 3044 0006 00EE902A 		vmov	s1, r2	@ int
 3045 000a 01EE103A 		vmov	s2, r3	@ int
 3046 000e 9DF81050 		ldrb	r5, [sp, #16]	@ zero_extendqisi2
 3047 0012 0446     		mov	r4, r0
 3048              	.LVL199:
 3049              	.LBB513:
 3050              	.LBI513:
 435:UIManager.cpp ****   if (is_Led1){
 3051              		.loc 1 435 6 is_stmt 1 view .LVU790
 3052              	.LBB514:
 436:UIManager.cpp ****     pod_.led1.Set(r,g,b);
 3053              		.loc 1 436 3 view .LVU791
 437:UIManager.cpp ****   }
 3054              		.loc 1 437 18 is_stmt 0 view .LVU792
 3055 0014 F8EEE00A 		vcvt.f32.s32	s1, s1
 3056 0018 B8EEC11A 		vcvt.f32.s32	s2, s2
 3057 001c 0068     		ldr	r0, [r0]
 3058              	.LVL200:
 437:UIManager.cpp ****   }
 3059              		.loc 1 437 18 view .LVU793
 3060 001e B8EEC00A 		vcvt.f32.s32	s0, s0
 436:UIManager.cpp ****     pod_.led1.Set(r,g,b);
 3061              		.loc 1 436 3 view .LVU794
 3062 0022 EDB1     		cbz	r5, .L235
 437:UIManager.cpp ****   }
 3063              		.loc 1 437 5 is_stmt 1 view .LVU795
 437:UIManager.cpp ****   }
 3064              		.loc 1 437 18 is_stmt 0 view .LVU796
 3065 0024 D830     		adds	r0, r0, #216
 3066 0026 FFF7FEFF 		bl	_ZN5daisy6RgbLed3SetEfff
 3067              	.LVL201:
 442:UIManager.cpp ****   System::Delay(10);
 3068              		.loc 1 442 3 is_stmt 1 view .LVU797
 442:UIManager.cpp ****   System::Delay(10);
 3069              		.loc 1 442 18 is_stmt 0 view .LVU798
 3070 002a 2068     		ldr	r0, [r4]
 3071 002c FFF7FEFF 		bl	_ZN5daisy8DaisyPod10UpdateLedsEv
 3072              	.LVL202:
 443:UIManager.cpp **** }
 3073              		.loc 1 443 3 is_stmt 1 view .LVU799
 443:UIManager.cpp **** }
 3074              		.loc 1 443 16 is_stmt 0 view .LVU800
 3075 0030 0A20     		movs	r0, #10
 3076 0032 FFF7FEFF 		bl	_ZN5daisy6System5DelayEm
 3077              	.LVL203:
 443:UIManager.cpp **** }
 3078              		.loc 1 443 16 view .LVU801
 3079              	.LBE514:
 3080              	.LBE513:
 448:UIManager.cpp ****   SetLed(0,0,0, is_Led1);
 3081              		.loc 1 448 3 is_stmt 1 view .LVU802
 448:UIManager.cpp ****   SetLed(0,0,0, is_Led1);
 3082              		.loc 1 448 16 is_stmt 0 view .LVU803
 3083 0036 6420     		movs	r0, #100
 3084 0038 FFF7FEFF 		bl	_ZN5daisy6System5DelayEm
ARM GAS  /var/folders/2p/02m_5p7958535cp2tpgps0400000gn/T//ccA97qDZ.s 			page 82


 3085              	.LVL204:
 449:UIManager.cpp **** }
 3086              		.loc 1 449 3 is_stmt 1 view .LVU804
 3087              	.LBB516:
 3088              	.LBI516:
 435:UIManager.cpp ****   if (is_Led1){
 3089              		.loc 1 435 6 view .LVU805
 3090              	.LBB517:
 436:UIManager.cpp ****     pod_.led1.Set(r,g,b);
 3091              		.loc 1 436 3 view .LVU806
 437:UIManager.cpp ****   }
 3092              		.loc 1 437 5 view .LVU807
 437:UIManager.cpp ****   }
 3093              		.loc 1 437 18 is_stmt 0 view .LVU808
 3094 003c 9FED151A 		vldr.32	s2, .L238
 3095 0040 2068     		ldr	r0, [r4]
 3096 0042 F0EE410A 		vmov.f32	s1, s2
 3097 0046 B0EE410A 		vmov.f32	s0, s2
 3098 004a D830     		adds	r0, r0, #216
 3099 004c FFF7FEFF 		bl	_ZN5daisy6RgbLed3SetEfff
 3100              	.LVL205:
 3101              	.L236:
 442:UIManager.cpp ****   System::Delay(10);
 3102              		.loc 1 442 3 is_stmt 1 view .LVU809
 442:UIManager.cpp ****   System::Delay(10);
 3103              		.loc 1 442 18 is_stmt 0 view .LVU810
 3104 0050 2068     		ldr	r0, [r4]
 3105 0052 FFF7FEFF 		bl	_ZN5daisy8DaisyPod10UpdateLedsEv
 3106              	.LVL206:
 443:UIManager.cpp **** }
 3107              		.loc 1 443 3 is_stmt 1 view .LVU811
 443:UIManager.cpp **** }
 3108              		.loc 1 443 16 is_stmt 0 view .LVU812
 3109 0056 0A20     		movs	r0, #10
 3110              	.LBE517:
 3111              	.LBE516:
 450:UIManager.cpp **** 
 3112              		.loc 1 450 1 view .LVU813
 3113 0058 BDE83840 		pop	{r3, r4, r5, lr}
 3114              		.cfi_remember_state
 3115              		.cfi_restore 14
 3116              		.cfi_restore 5
 3117              		.cfi_restore 4
 3118              		.cfi_restore 3
 3119              		.cfi_def_cfa_offset 0
 3120              	.LVL207:
 3121              	.LBB520:
 3122              	.LBB518:
 443:UIManager.cpp **** }
 3123              		.loc 1 443 16 view .LVU814
 3124 005c FFF7FEBF 		b	_ZN5daisy6System5DelayEm
 3125              	.LVL208:
 3126              	.L235:
 3127              		.cfi_restore_state
 443:UIManager.cpp **** }
 3128              		.loc 1 443 16 view .LVU815
 3129              	.LBE518:
ARM GAS  /var/folders/2p/02m_5p7958535cp2tpgps0400000gn/T//ccA97qDZ.s 			page 83


 3130              	.LBE520:
 3131              	.LBB521:
 3132              	.LBB515:
 440:UIManager.cpp ****   }
 3133              		.loc 1 440 5 is_stmt 1 view .LVU816
 440:UIManager.cpp ****   }
 3134              		.loc 1 440 18 is_stmt 0 view .LVU817
 3135 0060 00F59670 		add	r0, r0, #300
 3136 0064 FFF7FEFF 		bl	_ZN5daisy6RgbLed3SetEfff
 3137              	.LVL209:
 442:UIManager.cpp ****   System::Delay(10);
 3138              		.loc 1 442 3 is_stmt 1 view .LVU818
 442:UIManager.cpp ****   System::Delay(10);
 3139              		.loc 1 442 18 is_stmt 0 view .LVU819
 3140 0068 2068     		ldr	r0, [r4]
 3141 006a FFF7FEFF 		bl	_ZN5daisy8DaisyPod10UpdateLedsEv
 3142              	.LVL210:
 443:UIManager.cpp **** }
 3143              		.loc 1 443 3 is_stmt 1 view .LVU820
 443:UIManager.cpp **** }
 3144              		.loc 1 443 16 is_stmt 0 view .LVU821
 3145 006e 0A20     		movs	r0, #10
 3146 0070 FFF7FEFF 		bl	_ZN5daisy6System5DelayEm
 3147              	.LVL211:
 443:UIManager.cpp **** }
 3148              		.loc 1 443 16 view .LVU822
 3149              	.LBE515:
 3150              	.LBE521:
 448:UIManager.cpp ****   SetLed(0,0,0, is_Led1);
 3151              		.loc 1 448 3 is_stmt 1 view .LVU823
 448:UIManager.cpp ****   SetLed(0,0,0, is_Led1);
 3152              		.loc 1 448 16 is_stmt 0 view .LVU824
 3153 0074 6420     		movs	r0, #100
 3154 0076 FFF7FEFF 		bl	_ZN5daisy6System5DelayEm
 3155              	.LVL212:
 449:UIManager.cpp **** }
 3156              		.loc 1 449 3 is_stmt 1 view .LVU825
 3157              	.LBB522:
 435:UIManager.cpp ****   if (is_Led1){
 3158              		.loc 1 435 6 view .LVU826
 3159              	.LBB519:
 436:UIManager.cpp ****     pod_.led1.Set(r,g,b);
 3160              		.loc 1 436 3 view .LVU827
 440:UIManager.cpp ****   }
 3161              		.loc 1 440 5 view .LVU828
 440:UIManager.cpp ****   }
 3162              		.loc 1 440 18 is_stmt 0 view .LVU829
 3163 007a 9FED061A 		vldr.32	s2, .L238
 3164 007e 2068     		ldr	r0, [r4]
 3165 0080 F0EE410A 		vmov.f32	s1, s2
 3166 0084 B0EE410A 		vmov.f32	s0, s2
 3167 0088 00F59670 		add	r0, r0, #300
 3168 008c FFF7FEFF 		bl	_ZN5daisy6RgbLed3SetEfff
 3169              	.LVL213:
 3170 0090 DEE7     		b	.L236
 3171              	.L239:
 3172 0092 00BF     		.align	2
ARM GAS  /var/folders/2p/02m_5p7958535cp2tpgps0400000gn/T//ccA97qDZ.s 			page 84


 3173              	.L238:
 3174 0094 00000000 		.word	0
 3175              	.LBE519:
 3176              	.LBE522:
 3177              		.cfi_endproc
 3178              	.LFE2614:
 3180              		.section	.text._ZN9UIManager11BlinkSetLedEiiib,"ax",%progbits
 3181              		.align	1
 3182              		.p2align 2,,3
 3183              		.global	_ZN9UIManager11BlinkSetLedEiiib
 3184              		.syntax unified
 3185              		.thumb
 3186              		.thumb_func
 3188              	_ZN9UIManager11BlinkSetLedEiiib:
 3189              	.LVL214:
 3190              	.LFB2615:
 452:UIManager.cpp ****   BlinkLed(r,g,b, is_Led1);
 3191              		.loc 1 452 63 is_stmt 1 view -0
 3192              		.cfi_startproc
 3193              		@ args = 4, pretend = 0, frame = 0
 3194              		@ frame_needed = 0, uses_anonymous_args = 0
 452:UIManager.cpp ****   BlinkLed(r,g,b, is_Led1);
 3195              		.loc 1 452 63 is_stmt 0 view .LVU831
 3196 0000 38B5     		push	{r3, r4, r5, lr}
 3197              		.cfi_def_cfa_offset 16
 3198              		.cfi_offset 3, -16
 3199              		.cfi_offset 4, -12
 3200              		.cfi_offset 5, -8
 3201              		.cfi_offset 14, -4
 3202 0002 2DED048B 		vpush.64	{d8, d9}
 3203              		.cfi_def_cfa_offset 32
 3204              		.cfi_offset 80, -32
 3205              		.cfi_offset 81, -28
 3206              		.cfi_offset 82, -24
 3207              		.cfi_offset 83, -20
 452:UIManager.cpp ****   BlinkLed(r,g,b, is_Led1);
 3208              		.loc 1 452 63 view .LVU832
 3209 0006 08EE101A 		vmov	s16, r1	@ int
 3210 000a 08EE902A 		vmov	s17, r2	@ int
 3211 000e 09EE103A 		vmov	s18, r3	@ int
 3212 0012 9DF82050 		ldrb	r5, [sp, #32]	@ zero_extendqisi2
 3213              	.LBB537:
 3214              	.LBB538:
 3215              	.LBB539:
 3216              	.LBB540:
 437:UIManager.cpp ****   }
 3217              		.loc 1 437 18 view .LVU833
 3218 0016 B8EEC88A 		vcvt.f32.s32	s16, s16
 3219              	.LBE540:
 3220              	.LBE539:
 3221              	.LBE538:
 3222              	.LBE537:
 452:UIManager.cpp ****   BlinkLed(r,g,b, is_Led1);
 3223              		.loc 1 452 63 view .LVU834
 3224 001a 0446     		mov	r4, r0
 453:UIManager.cpp ****   System::Delay(100);
 3225              		.loc 1 453 3 is_stmt 1 view .LVU835
ARM GAS  /var/folders/2p/02m_5p7958535cp2tpgps0400000gn/T//ccA97qDZ.s 			page 85


 3226              	.LVL215:
 3227              	.LBB551:
 3228              	.LBI537:
 446:UIManager.cpp ****   SetLed(r,g,b, is_Led1);
 3229              		.loc 1 446 6 view .LVU836
 3230              	.LBB549:
 447:UIManager.cpp ****   System::Delay(100);
 3231              		.loc 1 447 3 view .LVU837
 3232              	.LBB543:
 3233              	.LBI539:
 435:UIManager.cpp ****   if (is_Led1){
 3234              		.loc 1 435 6 view .LVU838
 3235              	.LBB541:
 436:UIManager.cpp ****     pod_.led1.Set(r,g,b);
 3236              		.loc 1 436 3 view .LVU839
 437:UIManager.cpp ****   }
 3237              		.loc 1 437 18 is_stmt 0 view .LVU840
 3238 001c F8EEE88A 		vcvt.f32.s32	s17, s17
 3239 0020 0068     		ldr	r0, [r0]
 3240              	.LVL216:
 437:UIManager.cpp ****   }
 3241              		.loc 1 437 18 view .LVU841
 3242 0022 B8EEC99A 		vcvt.f32.s32	s18, s18
 3243 0026 B0EE480A 		vmov.f32	s0, s16
 3244 002a F0EE680A 		vmov.f32	s1, s17
 3245 002e B0EE491A 		vmov.f32	s2, s18
 436:UIManager.cpp ****     pod_.led1.Set(r,g,b);
 3246              		.loc 1 436 3 view .LVU842
 3247 0032 002D     		cmp	r5, #0
 3248 0034 58D0     		beq	.L241
 437:UIManager.cpp ****   }
 3249              		.loc 1 437 5 is_stmt 1 view .LVU843
 437:UIManager.cpp ****   }
 3250              		.loc 1 437 18 is_stmt 0 view .LVU844
 3251 0036 D830     		adds	r0, r0, #216
 3252 0038 FFF7FEFF 		bl	_ZN5daisy6RgbLed3SetEfff
 3253              	.LVL217:
 442:UIManager.cpp ****   System::Delay(10);
 3254              		.loc 1 442 3 is_stmt 1 view .LVU845
 442:UIManager.cpp ****   System::Delay(10);
 3255              		.loc 1 442 18 is_stmt 0 view .LVU846
 3256 003c 2068     		ldr	r0, [r4]
 3257 003e FFF7FEFF 		bl	_ZN5daisy8DaisyPod10UpdateLedsEv
 3258              	.LVL218:
 443:UIManager.cpp **** }
 3259              		.loc 1 443 3 is_stmt 1 view .LVU847
 443:UIManager.cpp **** }
 3260              		.loc 1 443 16 is_stmt 0 view .LVU848
 3261 0042 0A20     		movs	r0, #10
 3262 0044 FFF7FEFF 		bl	_ZN5daisy6System5DelayEm
 3263              	.LVL219:
 443:UIManager.cpp **** }
 3264              		.loc 1 443 16 view .LVU849
 3265              	.LBE541:
 3266              	.LBE543:
 448:UIManager.cpp ****   SetLed(0,0,0, is_Led1);
 3267              		.loc 1 448 3 is_stmt 1 view .LVU850
ARM GAS  /var/folders/2p/02m_5p7958535cp2tpgps0400000gn/T//ccA97qDZ.s 			page 86


 448:UIManager.cpp ****   SetLed(0,0,0, is_Led1);
 3268              		.loc 1 448 16 is_stmt 0 view .LVU851
 3269 0048 6420     		movs	r0, #100
 3270 004a FFF7FEFF 		bl	_ZN5daisy6System5DelayEm
 3271              	.LVL220:
 449:UIManager.cpp **** }
 3272              		.loc 1 449 3 is_stmt 1 view .LVU852
 3273              	.LBB544:
 3274              	.LBI544:
 435:UIManager.cpp ****   if (is_Led1){
 3275              		.loc 1 435 6 view .LVU853
 3276              	.LBB545:
 436:UIManager.cpp ****     pod_.led1.Set(r,g,b);
 3277              		.loc 1 436 3 view .LVU854
 437:UIManager.cpp ****   }
 3278              		.loc 1 437 5 view .LVU855
 437:UIManager.cpp ****   }
 3279              		.loc 1 437 18 is_stmt 0 view .LVU856
 3280 004e 9FED511A 		vldr.32	s2, .L244
 3281 0052 2068     		ldr	r0, [r4]
 3282 0054 F0EE410A 		vmov.f32	s1, s2
 3283 0058 B0EE410A 		vmov.f32	s0, s2
 3284 005c D830     		adds	r0, r0, #216
 3285 005e FFF7FEFF 		bl	_ZN5daisy6RgbLed3SetEfff
 3286              	.LVL221:
 442:UIManager.cpp ****   System::Delay(10);
 3287              		.loc 1 442 3 is_stmt 1 view .LVU857
 442:UIManager.cpp ****   System::Delay(10);
 3288              		.loc 1 442 18 is_stmt 0 view .LVU858
 3289 0062 2068     		ldr	r0, [r4]
 3290 0064 FFF7FEFF 		bl	_ZN5daisy8DaisyPod10UpdateLedsEv
 3291              	.LVL222:
 443:UIManager.cpp **** }
 3292              		.loc 1 443 3 is_stmt 1 view .LVU859
 443:UIManager.cpp **** }
 3293              		.loc 1 443 16 is_stmt 0 view .LVU860
 3294 0068 0A20     		movs	r0, #10
 3295 006a FFF7FEFF 		bl	_ZN5daisy6System5DelayEm
 3296              	.LVL223:
 443:UIManager.cpp **** }
 3297              		.loc 1 443 16 view .LVU861
 3298              	.LBE545:
 3299              	.LBE544:
 3300              	.LBE549:
 3301              	.LBE551:
 454:UIManager.cpp ****   BlinkLed(r,g,b, is_Led1);
 3302              		.loc 1 454 3 is_stmt 1 view .LVU862
 454:UIManager.cpp ****   BlinkLed(r,g,b, is_Led1);
 3303              		.loc 1 454 16 is_stmt 0 view .LVU863
 3304 006e 6420     		movs	r0, #100
 3305 0070 FFF7FEFF 		bl	_ZN5daisy6System5DelayEm
 3306              	.LVL224:
 455:UIManager.cpp ****   System::Delay(100);
 3307              		.loc 1 455 3 is_stmt 1 view .LVU864
 3308              	.LBB552:
 3309              	.LBI552:
 446:UIManager.cpp ****   SetLed(r,g,b, is_Led1);
ARM GAS  /var/folders/2p/02m_5p7958535cp2tpgps0400000gn/T//ccA97qDZ.s 			page 87


 3310              		.loc 1 446 6 view .LVU865
 3311              	.LBB553:
 447:UIManager.cpp ****   System::Delay(100);
 3312              		.loc 1 447 3 view .LVU866
 3313              	.LBB554:
 3314              	.LBI554:
 435:UIManager.cpp ****   if (is_Led1){
 3315              		.loc 1 435 6 view .LVU867
 3316              	.LBB555:
 436:UIManager.cpp ****     pod_.led1.Set(r,g,b);
 3317              		.loc 1 436 3 view .LVU868
 437:UIManager.cpp ****   }
 3318              		.loc 1 437 5 view .LVU869
 437:UIManager.cpp ****   }
 3319              		.loc 1 437 18 is_stmt 0 view .LVU870
 3320 0074 2068     		ldr	r0, [r4]
 3321 0076 B0EE491A 		vmov.f32	s2, s18
 3322 007a F0EE680A 		vmov.f32	s1, s17
 3323 007e D830     		adds	r0, r0, #216
 3324 0080 B0EE480A 		vmov.f32	s0, s16
 3325 0084 FFF7FEFF 		bl	_ZN5daisy6RgbLed3SetEfff
 3326              	.LVL225:
 442:UIManager.cpp ****   System::Delay(10);
 3327              		.loc 1 442 3 is_stmt 1 view .LVU871
 442:UIManager.cpp ****   System::Delay(10);
 3328              		.loc 1 442 18 is_stmt 0 view .LVU872
 3329 0088 2068     		ldr	r0, [r4]
 3330 008a FFF7FEFF 		bl	_ZN5daisy8DaisyPod10UpdateLedsEv
 3331              	.LVL226:
 443:UIManager.cpp **** }
 3332              		.loc 1 443 3 is_stmt 1 view .LVU873
 443:UIManager.cpp **** }
 3333              		.loc 1 443 16 is_stmt 0 view .LVU874
 3334 008e 0A20     		movs	r0, #10
 3335 0090 FFF7FEFF 		bl	_ZN5daisy6System5DelayEm
 3336              	.LVL227:
 443:UIManager.cpp **** }
 3337              		.loc 1 443 16 view .LVU875
 3338              	.LBE555:
 3339              	.LBE554:
 448:UIManager.cpp ****   SetLed(0,0,0, is_Led1);
 3340              		.loc 1 448 3 is_stmt 1 view .LVU876
 448:UIManager.cpp ****   SetLed(0,0,0, is_Led1);
 3341              		.loc 1 448 16 is_stmt 0 view .LVU877
 3342 0094 6420     		movs	r0, #100
 3343 0096 FFF7FEFF 		bl	_ZN5daisy6System5DelayEm
 3344              	.LVL228:
 449:UIManager.cpp **** }
 3345              		.loc 1 449 3 is_stmt 1 view .LVU878
 3346              	.LBB557:
 3347              	.LBI557:
 435:UIManager.cpp ****   if (is_Led1){
 3348              		.loc 1 435 6 view .LVU879
 3349              	.LBB558:
 436:UIManager.cpp ****     pod_.led1.Set(r,g,b);
 3350              		.loc 1 436 3 view .LVU880
 437:UIManager.cpp ****   }
ARM GAS  /var/folders/2p/02m_5p7958535cp2tpgps0400000gn/T//ccA97qDZ.s 			page 88


 3351              		.loc 1 437 5 view .LVU881
 437:UIManager.cpp ****   }
 3352              		.loc 1 437 18 is_stmt 0 view .LVU882
 3353 009a 9FED3E1A 		vldr.32	s2, .L244
 3354 009e 2068     		ldr	r0, [r4]
 3355 00a0 F0EE410A 		vmov.f32	s1, s2
 3356 00a4 B0EE410A 		vmov.f32	s0, s2
 3357 00a8 D830     		adds	r0, r0, #216
 3358 00aa FFF7FEFF 		bl	_ZN5daisy6RgbLed3SetEfff
 3359              	.LVL229:
 442:UIManager.cpp ****   System::Delay(10);
 3360              		.loc 1 442 3 is_stmt 1 view .LVU883
 442:UIManager.cpp ****   System::Delay(10);
 3361              		.loc 1 442 18 is_stmt 0 view .LVU884
 3362 00ae 2068     		ldr	r0, [r4]
 3363 00b0 FFF7FEFF 		bl	_ZN5daisy8DaisyPod10UpdateLedsEv
 3364              	.LVL230:
 443:UIManager.cpp **** }
 3365              		.loc 1 443 3 is_stmt 1 view .LVU885
 443:UIManager.cpp **** }
 3366              		.loc 1 443 16 is_stmt 0 view .LVU886
 3367 00b4 0A20     		movs	r0, #10
 3368 00b6 FFF7FEFF 		bl	_ZN5daisy6System5DelayEm
 3369              	.LVL231:
 443:UIManager.cpp **** }
 3370              		.loc 1 443 16 view .LVU887
 3371              	.LBE558:
 3372              	.LBE557:
 3373              	.LBE553:
 3374              	.LBE552:
 456:UIManager.cpp ****   SetLed(r,g,b, is_Led1);
 3375              		.loc 1 456 3 is_stmt 1 view .LVU888
 456:UIManager.cpp ****   SetLed(r,g,b, is_Led1);
 3376              		.loc 1 456 16 is_stmt 0 view .LVU889
 3377 00ba 6420     		movs	r0, #100
 3378 00bc FFF7FEFF 		bl	_ZN5daisy6System5DelayEm
 3379              	.LVL232:
 457:UIManager.cpp **** }
 3380              		.loc 1 457 3 is_stmt 1 view .LVU890
 3381              	.LBB563:
 3382              	.LBI563:
 435:UIManager.cpp ****   if (is_Led1){
 3383              		.loc 1 435 6 view .LVU891
 3384              	.LBB564:
 436:UIManager.cpp ****     pod_.led1.Set(r,g,b);
 3385              		.loc 1 436 3 view .LVU892
 437:UIManager.cpp ****   }
 3386              		.loc 1 437 5 view .LVU893
 437:UIManager.cpp ****   }
 3387              		.loc 1 437 18 is_stmt 0 view .LVU894
 3388 00c0 2068     		ldr	r0, [r4]
 3389 00c2 B0EE491A 		vmov.f32	s2, s18
 3390 00c6 F0EE680A 		vmov.f32	s1, s17
 3391 00ca D830     		adds	r0, r0, #216
 3392 00cc B0EE480A 		vmov.f32	s0, s16
 3393 00d0 FFF7FEFF 		bl	_ZN5daisy6RgbLed3SetEfff
 3394              	.LVL233:
ARM GAS  /var/folders/2p/02m_5p7958535cp2tpgps0400000gn/T//ccA97qDZ.s 			page 89


 3395              	.L242:
 442:UIManager.cpp ****   System::Delay(10);
 3396              		.loc 1 442 3 is_stmt 1 view .LVU895
 442:UIManager.cpp ****   System::Delay(10);
 3397              		.loc 1 442 18 is_stmt 0 view .LVU896
 3398 00d4 2068     		ldr	r0, [r4]
 3399 00d6 FFF7FEFF 		bl	_ZN5daisy8DaisyPod10UpdateLedsEv
 3400              	.LVL234:
 443:UIManager.cpp **** }
 3401              		.loc 1 443 3 is_stmt 1 view .LVU897
 443:UIManager.cpp **** }
 3402              		.loc 1 443 16 is_stmt 0 view .LVU898
 3403 00da 0A20     		movs	r0, #10
 3404              	.LBE564:
 3405              	.LBE563:
 458:UIManager.cpp **** 
 3406              		.loc 1 458 1 view .LVU899
 3407 00dc BDEC048B 		vldm	sp!, {d8-d9}
 3408              		.cfi_remember_state
 3409              		.cfi_restore 82
 3410              		.cfi_restore 83
 3411              		.cfi_restore 80
 3412              		.cfi_restore 81
 3413              		.cfi_def_cfa_offset 16
 3414 00e0 BDE83840 		pop	{r3, r4, r5, lr}
 3415              		.cfi_restore 14
 3416              		.cfi_restore 5
 3417              		.cfi_restore 4
 3418              		.cfi_restore 3
 3419              		.cfi_def_cfa_offset 0
 3420              	.LVL235:
 3421              	.LBB567:
 3422              	.LBB565:
 443:UIManager.cpp **** }
 3423              		.loc 1 443 16 view .LVU900
 3424 00e4 FFF7FEBF 		b	_ZN5daisy6System5DelayEm
 3425              	.LVL236:
 3426              	.L241:
 3427              		.cfi_restore_state
 443:UIManager.cpp **** }
 3428              		.loc 1 443 16 view .LVU901
 3429              	.LBE565:
 3430              	.LBE567:
 3431              	.LBB568:
 3432              	.LBB550:
 3433              	.LBB547:
 3434              	.LBB542:
 440:UIManager.cpp ****   }
 3435              		.loc 1 440 5 is_stmt 1 view .LVU902
 440:UIManager.cpp ****   }
 3436              		.loc 1 440 18 is_stmt 0 view .LVU903
 3437 00e8 00F59670 		add	r0, r0, #300
 3438 00ec FFF7FEFF 		bl	_ZN5daisy6RgbLed3SetEfff
 3439              	.LVL237:
 442:UIManager.cpp ****   System::Delay(10);
 3440              		.loc 1 442 3 is_stmt 1 view .LVU904
 442:UIManager.cpp ****   System::Delay(10);
ARM GAS  /var/folders/2p/02m_5p7958535cp2tpgps0400000gn/T//ccA97qDZ.s 			page 90


 3441              		.loc 1 442 18 is_stmt 0 view .LVU905
 3442 00f0 2068     		ldr	r0, [r4]
 3443 00f2 FFF7FEFF 		bl	_ZN5daisy8DaisyPod10UpdateLedsEv
 3444              	.LVL238:
 443:UIManager.cpp **** }
 3445              		.loc 1 443 3 is_stmt 1 view .LVU906
 443:UIManager.cpp **** }
 3446              		.loc 1 443 16 is_stmt 0 view .LVU907
 3447 00f6 0A20     		movs	r0, #10
 3448 00f8 FFF7FEFF 		bl	_ZN5daisy6System5DelayEm
 3449              	.LVL239:
 443:UIManager.cpp **** }
 3450              		.loc 1 443 16 view .LVU908
 3451              	.LBE542:
 3452              	.LBE547:
 448:UIManager.cpp ****   SetLed(0,0,0, is_Led1);
 3453              		.loc 1 448 3 is_stmt 1 view .LVU909
 448:UIManager.cpp ****   SetLed(0,0,0, is_Led1);
 3454              		.loc 1 448 16 is_stmt 0 view .LVU910
 3455 00fc 6420     		movs	r0, #100
 3456 00fe FFF7FEFF 		bl	_ZN5daisy6System5DelayEm
 3457              	.LVL240:
 449:UIManager.cpp **** }
 3458              		.loc 1 449 3 is_stmt 1 view .LVU911
 3459              	.LBB548:
 435:UIManager.cpp ****   if (is_Led1){
 3460              		.loc 1 435 6 view .LVU912
 3461              	.LBB546:
 436:UIManager.cpp ****     pod_.led1.Set(r,g,b);
 3462              		.loc 1 436 3 view .LVU913
 440:UIManager.cpp ****   }
 3463              		.loc 1 440 5 view .LVU914
 440:UIManager.cpp ****   }
 3464              		.loc 1 440 18 is_stmt 0 view .LVU915
 3465 0102 9FED241A 		vldr.32	s2, .L244
 3466 0106 2068     		ldr	r0, [r4]
 3467 0108 F0EE410A 		vmov.f32	s1, s2
 3468 010c B0EE410A 		vmov.f32	s0, s2
 3469 0110 00F59670 		add	r0, r0, #300
 3470 0114 FFF7FEFF 		bl	_ZN5daisy6RgbLed3SetEfff
 3471              	.LVL241:
 442:UIManager.cpp ****   System::Delay(10);
 3472              		.loc 1 442 3 is_stmt 1 view .LVU916
 442:UIManager.cpp ****   System::Delay(10);
 3473              		.loc 1 442 18 is_stmt 0 view .LVU917
 3474 0118 2068     		ldr	r0, [r4]
 3475 011a FFF7FEFF 		bl	_ZN5daisy8DaisyPod10UpdateLedsEv
 3476              	.LVL242:
 443:UIManager.cpp **** }
 3477              		.loc 1 443 3 is_stmt 1 view .LVU918
 443:UIManager.cpp **** }
 3478              		.loc 1 443 16 is_stmt 0 view .LVU919
 3479 011e 0A20     		movs	r0, #10
 3480 0120 FFF7FEFF 		bl	_ZN5daisy6System5DelayEm
 3481              	.LVL243:
 443:UIManager.cpp **** }
 3482              		.loc 1 443 16 view .LVU920
ARM GAS  /var/folders/2p/02m_5p7958535cp2tpgps0400000gn/T//ccA97qDZ.s 			page 91


 3483              	.LBE546:
 3484              	.LBE548:
 3485              	.LBE550:
 3486              	.LBE568:
 454:UIManager.cpp ****   BlinkLed(r,g,b, is_Led1);
 3487              		.loc 1 454 3 is_stmt 1 view .LVU921
 454:UIManager.cpp ****   BlinkLed(r,g,b, is_Led1);
 3488              		.loc 1 454 16 is_stmt 0 view .LVU922
 3489 0124 6420     		movs	r0, #100
 3490 0126 FFF7FEFF 		bl	_ZN5daisy6System5DelayEm
 3491              	.LVL244:
 455:UIManager.cpp ****   System::Delay(100);
 3492              		.loc 1 455 3 is_stmt 1 view .LVU923
 3493              	.LBB569:
 446:UIManager.cpp ****   SetLed(r,g,b, is_Led1);
 3494              		.loc 1 446 6 view .LVU924
 3495              	.LBB562:
 447:UIManager.cpp ****   System::Delay(100);
 3496              		.loc 1 447 3 view .LVU925
 3497              	.LBB560:
 435:UIManager.cpp ****   if (is_Led1){
 3498              		.loc 1 435 6 view .LVU926
 3499              	.LBB556:
 436:UIManager.cpp ****     pod_.led1.Set(r,g,b);
 3500              		.loc 1 436 3 view .LVU927
 440:UIManager.cpp ****   }
 3501              		.loc 1 440 5 view .LVU928
 440:UIManager.cpp ****   }
 3502              		.loc 1 440 18 is_stmt 0 view .LVU929
 3503 012a 2068     		ldr	r0, [r4]
 3504 012c B0EE491A 		vmov.f32	s2, s18
 3505 0130 F0EE680A 		vmov.f32	s1, s17
 3506 0134 00F59670 		add	r0, r0, #300
 3507 0138 B0EE480A 		vmov.f32	s0, s16
 3508 013c FFF7FEFF 		bl	_ZN5daisy6RgbLed3SetEfff
 3509              	.LVL245:
 442:UIManager.cpp ****   System::Delay(10);
 3510              		.loc 1 442 3 is_stmt 1 view .LVU930
 442:UIManager.cpp ****   System::Delay(10);
 3511              		.loc 1 442 18 is_stmt 0 view .LVU931
 3512 0140 2068     		ldr	r0, [r4]
 3513 0142 FFF7FEFF 		bl	_ZN5daisy8DaisyPod10UpdateLedsEv
 3514              	.LVL246:
 443:UIManager.cpp **** }
 3515              		.loc 1 443 3 is_stmt 1 view .LVU932
 443:UIManager.cpp **** }
 3516              		.loc 1 443 16 is_stmt 0 view .LVU933
 3517 0146 0A20     		movs	r0, #10
 3518 0148 FFF7FEFF 		bl	_ZN5daisy6System5DelayEm
 3519              	.LVL247:
 443:UIManager.cpp **** }
 3520              		.loc 1 443 16 view .LVU934
 3521              	.LBE556:
 3522              	.LBE560:
 448:UIManager.cpp ****   SetLed(0,0,0, is_Led1);
 3523              		.loc 1 448 3 is_stmt 1 view .LVU935
 448:UIManager.cpp ****   SetLed(0,0,0, is_Led1);
ARM GAS  /var/folders/2p/02m_5p7958535cp2tpgps0400000gn/T//ccA97qDZ.s 			page 92


 3524              		.loc 1 448 16 is_stmt 0 view .LVU936
 3525 014c 6420     		movs	r0, #100
 3526 014e FFF7FEFF 		bl	_ZN5daisy6System5DelayEm
 3527              	.LVL248:
 449:UIManager.cpp **** }
 3528              		.loc 1 449 3 is_stmt 1 view .LVU937
 3529              	.LBB561:
 435:UIManager.cpp ****   if (is_Led1){
 3530              		.loc 1 435 6 view .LVU938
 3531              	.LBB559:
 436:UIManager.cpp ****     pod_.led1.Set(r,g,b);
 3532              		.loc 1 436 3 view .LVU939
 440:UIManager.cpp ****   }
 3533              		.loc 1 440 5 view .LVU940
 440:UIManager.cpp ****   }
 3534              		.loc 1 440 18 is_stmt 0 view .LVU941
 3535 0152 9FED101A 		vldr.32	s2, .L244
 3536 0156 2068     		ldr	r0, [r4]
 3537 0158 F0EE410A 		vmov.f32	s1, s2
 3538 015c B0EE410A 		vmov.f32	s0, s2
 3539 0160 00F59670 		add	r0, r0, #300
 3540 0164 FFF7FEFF 		bl	_ZN5daisy6RgbLed3SetEfff
 3541              	.LVL249:
 442:UIManager.cpp ****   System::Delay(10);
 3542              		.loc 1 442 3 is_stmt 1 view .LVU942
 442:UIManager.cpp ****   System::Delay(10);
 3543              		.loc 1 442 18 is_stmt 0 view .LVU943
 3544 0168 2068     		ldr	r0, [r4]
 3545 016a FFF7FEFF 		bl	_ZN5daisy8DaisyPod10UpdateLedsEv
 3546              	.LVL250:
 443:UIManager.cpp **** }
 3547              		.loc 1 443 3 is_stmt 1 view .LVU944
 443:UIManager.cpp **** }
 3548              		.loc 1 443 16 is_stmt 0 view .LVU945
 3549 016e 0A20     		movs	r0, #10
 3550 0170 FFF7FEFF 		bl	_ZN5daisy6System5DelayEm
 3551              	.LVL251:
 443:UIManager.cpp **** }
 3552              		.loc 1 443 16 view .LVU946
 3553              	.LBE559:
 3554              	.LBE561:
 3555              	.LBE562:
 3556              	.LBE569:
 456:UIManager.cpp ****   SetLed(r,g,b, is_Led1);
 3557              		.loc 1 456 3 is_stmt 1 view .LVU947
 456:UIManager.cpp ****   SetLed(r,g,b, is_Led1);
 3558              		.loc 1 456 16 is_stmt 0 view .LVU948
 3559 0174 6420     		movs	r0, #100
 3560 0176 FFF7FEFF 		bl	_ZN5daisy6System5DelayEm
 3561              	.LVL252:
 457:UIManager.cpp **** }
 3562              		.loc 1 457 3 is_stmt 1 view .LVU949
 3563              	.LBB570:
 435:UIManager.cpp ****   if (is_Led1){
 3564              		.loc 1 435 6 view .LVU950
 3565              	.LBB566:
 436:UIManager.cpp ****     pod_.led1.Set(r,g,b);
ARM GAS  /var/folders/2p/02m_5p7958535cp2tpgps0400000gn/T//ccA97qDZ.s 			page 93


 3566              		.loc 1 436 3 view .LVU951
 440:UIManager.cpp ****   }
 3567              		.loc 1 440 5 view .LVU952
 440:UIManager.cpp ****   }
 3568              		.loc 1 440 18 is_stmt 0 view .LVU953
 3569 017a 2068     		ldr	r0, [r4]
 3570 017c B0EE491A 		vmov.f32	s2, s18
 3571 0180 F0EE680A 		vmov.f32	s1, s17
 3572 0184 00F59670 		add	r0, r0, #300
 3573 0188 B0EE480A 		vmov.f32	s0, s16
 3574 018c FFF7FEFF 		bl	_ZN5daisy6RgbLed3SetEfff
 3575              	.LVL253:
 3576 0190 A0E7     		b	.L242
 3577              	.L245:
 3578 0192 00BF     		.align	2
 3579              	.L244:
 3580 0194 00000000 		.word	0
 3581              	.LBE566:
 3582              	.LBE570:
 3583              		.cfi_endproc
 3584              	.LFE2615:
 3586              		.section	.text._ZN9UIManager15SetLedSynthModeEv,"ax",%progbits
 3587              		.align	1
 3588              		.p2align 2,,3
 3589              		.global	_ZN9UIManager15SetLedSynthModeEv
 3590              		.syntax unified
 3591              		.thumb
 3592              		.thumb_func
 3594              	_ZN9UIManager15SetLedSynthModeEv:
 3595              	.LVL254:
 3596              	.LFB2608:
 360:UIManager.cpp ****   if (current_state_ == AppState::Synthesis){
 3597              		.loc 1 360 34 is_stmt 1 view -0
 3598              		.cfi_startproc
 3599              		@ args = 0, pretend = 0, frame = 0
 3600              		@ frame_needed = 0, uses_anonymous_args = 0
 361:UIManager.cpp ****     switch(current_synth_mode_){
 3601              		.loc 1 361 3 view .LVU955
 3602 0000 4368     		ldr	r3, [r0, #4]
 3603 0002 032B     		cmp	r3, #3
 3604 0004 00D0     		beq	.L257
 3605 0006 7047     		bx	lr
 3606              	.L257:
 362:UIManager.cpp ****       case SynthMode::Size_Position:
 3607              		.loc 1 362 5 is_stmt 0 view .LVU956
 3608 0008 8368     		ldr	r3, [r0, #8]
 360:UIManager.cpp ****   if (current_state_ == AppState::Synthesis){
 3609              		.loc 1 360 34 view .LVU957
 3610 000a 30B5     		push	{r4, r5, lr}
 3611              		.cfi_def_cfa_offset 12
 3612              		.cfi_offset 4, -12
 3613              		.cfi_offset 5, -8
 3614              		.cfi_offset 14, -4
 3615 000c 0446     		mov	r4, r0
 362:UIManager.cpp ****       case SynthMode::Size_Position:
 3616              		.loc 1 362 5 is_stmt 1 view .LVU958
 360:UIManager.cpp ****   if (current_state_ == AppState::Synthesis){
ARM GAS  /var/folders/2p/02m_5p7958535cp2tpgps0400000gn/T//ccA97qDZ.s 			page 94


 3617              		.loc 1 360 34 is_stmt 0 view .LVU959
 3618 000e 83B0     		sub	sp, sp, #12
 3619              		.cfi_def_cfa_offset 24
 362:UIManager.cpp ****       case SynthMode::Size_Position:
 3620              		.loc 1 362 5 view .LVU960
 3621 0010 062B     		cmp	r3, #6
 3622 0012 0CD8     		bhi	.L246
 3623 0014 DFE803F0 		tbb	[pc, r3]
 3624              	.L249:
 3625 0018 1D       		.byte	(.L252-.L249)/2
 3626 0019 15       		.byte	(.L251-.L249)/2
 3627 001a 0D       		.byte	(.L250-.L249)/2
 3628 001b 0B       		.byte	(.L246-.L249)/2
 3629 001c 0B       		.byte	(.L246-.L249)/2
 3630 001d 0B       		.byte	(.L246-.L249)/2
 3631 001e 04       		.byte	(.L248-.L249)/2
 3632 001f 00       		.p2align 1
 3633              	.L248:
 374:UIManager.cpp ****       // fuschia: 255,0,255
 3634              		.loc 1 374 7 is_stmt 1 view .LVU961
 376:UIManager.cpp ****         break;
 3635              		.loc 1 376 9 view .LVU962
 376:UIManager.cpp ****         break;
 3636              		.loc 1 376 20 is_stmt 0 view .LVU963
 3637 0020 0125     		movs	r5, #1
 3638 0022 FF23     		movs	r3, #255
 3639 0024 0022     		movs	r2, #0
 3640 0026 1946     		mov	r1, r3
 3641 0028 0095     		str	r5, [sp]
 3642 002a FFF7FEFF 		bl	_ZN9UIManager11BlinkSetLedEiiib
 3643              	.LVL255:
 377:UIManager.cpp ****       default:
 3644              		.loc 1 377 9 is_stmt 1 view .LVU964
 3645              	.L246:
 382:UIManager.cpp **** 
 3646              		.loc 1 382 1 is_stmt 0 view .LVU965
 3647 002e 03B0     		add	sp, sp, #12
 3648              		.cfi_remember_state
 3649              		.cfi_def_cfa_offset 12
 3650              		@ sp needed
 3651 0030 30BD     		pop	{r4, r5, pc}
 3652              	.LVL256:
 3653              	.L250:
 3654              		.cfi_restore_state
 370:UIManager.cpp ****       // 0, 0, 255 blue
 3655              		.loc 1 370 7 is_stmt 1 view .LVU966
 372:UIManager.cpp ****         break;
 3656              		.loc 1 372 9 view .LVU967
 372:UIManager.cpp ****         break;
 3657              		.loc 1 372 20 is_stmt 0 view .LVU968
 3658 0032 0125     		movs	r5, #1
 3659 0034 0022     		movs	r2, #0
 3660 0036 FF23     		movs	r3, #255
 3661 0038 1146     		mov	r1, r2
 3662 003a 0095     		str	r5, [sp]
 3663 003c FFF7FEFF 		bl	_ZN9UIManager11BlinkSetLedEiiib
 3664              	.LVL257:
ARM GAS  /var/folders/2p/02m_5p7958535cp2tpgps0400000gn/T//ccA97qDZ.s 			page 95


 373:UIManager.cpp ****       case SynthMode::Pan_PanRnd:
 3665              		.loc 1 373 9 is_stmt 1 view .LVU969
 3666 0040 F5E7     		b	.L246
 3667              	.LVL258:
 3668              	.L251:
 366:UIManager.cpp ****       // orange: 100, 64, 0 or 255, 165, 0 or 255, 91, 31 (neon orange)
 3669              		.loc 1 366 7 view .LVU970
 368:UIManager.cpp ****         break;
 3670              		.loc 1 368 9 view .LVU971
 368:UIManager.cpp ****         break;
 3671              		.loc 1 368 20 is_stmt 0 view .LVU972
 3672 0042 0125     		movs	r5, #1
 3673 0044 1F23     		movs	r3, #31
 3674 0046 5B22     		movs	r2, #91
 3675 0048 FF21     		movs	r1, #255
 3676 004a 0095     		str	r5, [sp]
 3677 004c FFF7FEFF 		bl	_ZN9UIManager11BlinkSetLedEiiib
 3678              	.LVL259:
 369:UIManager.cpp ****       case SynthMode::PhasorMode_EnvType:
 3679              		.loc 1 369 9 is_stmt 1 view .LVU973
 3680 0050 EDE7     		b	.L246
 3681              	.LVL260:
 3682              	.L252:
 3683              	.LBB575:
 3684              	.LBI575:
 360:UIManager.cpp ****   if (current_state_ == AppState::Synthesis){
 3685              		.loc 1 360 6 view .LVU974
 3686              	.LBE575:
 363:UIManager.cpp ****         SetLed(0,255,0,true);
 3687              		.loc 1 363 7 view .LVU975
 364:UIManager.cpp ****         break;
 3688              		.loc 1 364 9 view .LVU976
 3689              	.LBB580:
 3690              	.LBB576:
 3691              	.LBI576:
 435:UIManager.cpp ****   if (is_Led1){
 3692              		.loc 1 435 6 view .LVU977
 3693              	.LBB577:
 436:UIManager.cpp ****     pod_.led1.Set(r,g,b);
 3694              		.loc 1 436 3 view .LVU978
 437:UIManager.cpp ****   }
 3695              		.loc 1 437 5 view .LVU979
 437:UIManager.cpp ****   }
 3696              		.loc 1 437 18 is_stmt 0 view .LVU980
 3697 0052 9FED091A 		vldr.32	s2, .L258
 3698 0056 0068     		ldr	r0, [r0]
 3699              	.LVL261:
 437:UIManager.cpp ****   }
 3700              		.loc 1 437 18 view .LVU981
 3701 0058 B0EE410A 		vmov.f32	s0, s2
 3702 005c DFED070A 		vldr.32	s1, .L258+4
 3703 0060 D830     		adds	r0, r0, #216
 3704 0062 FFF7FEFF 		bl	_ZN5daisy6RgbLed3SetEfff
 3705              	.LVL262:
 442:UIManager.cpp ****   System::Delay(10);
 3706              		.loc 1 442 3 is_stmt 1 view .LVU982
 442:UIManager.cpp ****   System::Delay(10);
ARM GAS  /var/folders/2p/02m_5p7958535cp2tpgps0400000gn/T//ccA97qDZ.s 			page 96


 3707              		.loc 1 442 18 is_stmt 0 view .LVU983
 3708 0066 2068     		ldr	r0, [r4]
 3709 0068 FFF7FEFF 		bl	_ZN5daisy8DaisyPod10UpdateLedsEv
 3710              	.LVL263:
 443:UIManager.cpp **** }
 3711              		.loc 1 443 3 is_stmt 1 view .LVU984
 443:UIManager.cpp **** }
 3712              		.loc 1 443 16 is_stmt 0 view .LVU985
 3713 006c 0A20     		movs	r0, #10
 3714              	.LBE577:
 3715              	.LBE576:
 3716              	.LBE580:
 382:UIManager.cpp **** 
 3717              		.loc 1 382 1 view .LVU986
 3718 006e 03B0     		add	sp, sp, #12
 3719              		.cfi_def_cfa_offset 12
 3720              		@ sp needed
 3721 0070 BDE83040 		pop	{r4, r5, lr}
 3722              		.cfi_restore 14
 3723              		.cfi_restore 5
 3724              		.cfi_restore 4
 3725              		.cfi_def_cfa_offset 0
 3726              	.LVL264:
 3727              	.LBB581:
 3728              	.LBB579:
 3729              	.LBB578:
 443:UIManager.cpp **** }
 3730              		.loc 1 443 16 view .LVU987
 3731 0074 FFF7FEBF 		b	_ZN5daisy6System5DelayEm
 3732              	.LVL265:
 3733              	.L259:
 3734              		.align	2
 3735              	.L258:
 3736 0078 00000000 		.word	0
 3737 007c 00007F43 		.word	1132396544
 3738              	.LBE578:
 3739              	.LBE579:
 3740              	.LBE581:
 3741              		.cfi_endproc
 3742              	.LFE2608:
 3744              		.section	.text._ZN9UIManager16LedPulseCallbackEv,"ax",%progbits
 3745              		.align	1
 3746              		.p2align 2,,3
 3747              		.global	_ZN9UIManager16LedPulseCallbackEv
 3748              		.syntax unified
 3749              		.thumb
 3750              		.thumb_func
 3752              	_ZN9UIManager16LedPulseCallbackEv:
 3753              	.LVL266:
 3754              	.LFB2607:
 313:UIManager.cpp ****   if (pulse_increasing_){
 3755              		.loc 1 313 35 is_stmt 1 view -0
 3756              		.cfi_startproc
 3757              		@ args = 0, pretend = 0, frame = 0
 3758              		@ frame_needed = 0, uses_anonymous_args = 0
 314:UIManager.cpp ****     /* NOTE: increase step (in header) and period to reduce processing cost */
 3759              		.loc 1 314 3 view .LVU989
ARM GAS  /var/folders/2p/02m_5p7958535cp2tpgps0400000gn/T//ccA97qDZ.s 			page 97


 3760 0000 027D     		ldrb	r2, [r0, #20]	@ zero_extendqisi2
 313:UIManager.cpp ****   if (pulse_increasing_){
 3761              		.loc 1 313 35 is_stmt 0 view .LVU990
 3762 0002 10B5     		push	{r4, lr}
 3763              		.cfi_def_cfa_offset 8
 3764              		.cfi_offset 4, -8
 3765              		.cfi_offset 14, -4
 313:UIManager.cpp ****   if (pulse_increasing_){
 3766              		.loc 1 313 35 view .LVU991
 3767 0004 0446     		mov	r4, r0
 316:UIManager.cpp ****     if (pulse_brightness_ >= 255 - PULSE_STEP){
 3768              		.loc 1 316 23 view .LVU992
 3769 0006 437D     		ldrb	r3, [r0, #21]	@ zero_extendqisi2
 314:UIManager.cpp ****     /* NOTE: increase step (in header) and period to reduce processing cost */
 3770              		.loc 1 314 3 view .LVU993
 3771 0008 8AB1     		cbz	r2, .L261
 316:UIManager.cpp ****     if (pulse_brightness_ >= 255 - PULSE_STEP){
 3772              		.loc 1 316 5 is_stmt 1 view .LVU994
 316:UIManager.cpp ****     if (pulse_brightness_ >= 255 - PULSE_STEP){
 3773              		.loc 1 316 23 is_stmt 0 view .LVU995
 3774 000a 0533     		adds	r3, r3, #5
 3775 000c DBB2     		uxtb	r3, r3
 317:UIManager.cpp ****       pulse_brightness_ = 255;
 3776              		.loc 1 317 5 is_stmt 1 view .LVU996
 3777 000e F92B     		cmp	r3, #249
 3778 0010 40F28580 		bls	.L273
 318:UIManager.cpp ****       pulse_increasing_ = false;
 3779              		.loc 1 318 7 view .LVU997
 319:UIManager.cpp ****     }
 3780              		.loc 1 319 7 view .LVU998
 319:UIManager.cpp ****     }
 3781              		.loc 1 319 25 is_stmt 0 view .LVU999
 3782 0014 4FF47F42 		mov	r2, #65280
 3783 0018 FF23     		movs	r3, #255
 3784 001a 8282     		strh	r2, [r0, #20]	@ movhi
 3785              	.LVL267:
 3786              	.L263:
 330:UIManager.cpp ****     /* pulse blue */
 3787              		.loc 1 330 3 is_stmt 1 view .LVU1000
 3788 001c 6268     		ldr	r2, [r4, #4]
 3789 001e 013A     		subs	r2, r2, #1
 3790 0020 042A     		cmp	r2, #4
 3791 0022 7ED8     		bhi	.L260
 3792 0024 DFE802F0 		tbb	[pc, r2]
 3793              	.L266:
 3794 0028 0F       		.byte	(.L270-.L266)/2
 3795 0029 35       		.byte	(.L269-.L266)/2
 3796 002a 5A       		.byte	(.L268-.L266)/2
 3797 002b 22       		.byte	(.L267-.L266)/2
 3798 002c 48       		.byte	(.L265-.L266)/2
 3799              	.LVL268:
 3800 002d 00       		.p2align 1
 3801              	.L261:
 323:UIManager.cpp ****     if (pulse_brightness_ <= PULSE_STEP){
 3802              		.loc 1 323 5 view .LVU1001
 323:UIManager.cpp ****     if (pulse_brightness_ <= PULSE_STEP){
 3803              		.loc 1 323 23 is_stmt 0 view .LVU1002
ARM GAS  /var/folders/2p/02m_5p7958535cp2tpgps0400000gn/T//ccA97qDZ.s 			page 98


 3804 002e 053B     		subs	r3, r3, #5
 3805 0030 DBB2     		uxtb	r3, r3
 324:UIManager.cpp ****       pulse_count_++;
 3806              		.loc 1 324 5 view .LVU1003
 3807 0032 052B     		cmp	r3, #5
 323:UIManager.cpp ****     if (pulse_brightness_ <= PULSE_STEP){
 3808              		.loc 1 323 23 view .LVU1004
 3809 0034 4375     		strb	r3, [r0, #21]
 324:UIManager.cpp ****       pulse_count_++;
 3810              		.loc 1 324 5 is_stmt 1 view .LVU1005
 3811 0036 F1D8     		bhi	.L263
 325:UIManager.cpp ****       pulse_brightness_ = 0;
 3812              		.loc 1 325 7 view .LVU1006
 325:UIManager.cpp ****       pulse_brightness_ = 0;
