ARM GAS  /var/folders/2p/02m_5p7958535cp2tpgps0400000gn/T//ccA97qDZ.s 			page 1


   1              		.cpu cortex-m7
   2              		.arch armv7e-m
   3              		.fpu fpv5-d16
   4              		.eabi_attribute 28, 1
   5              		.eabi_attribute 23, 1
   6              		.eabi_attribute 24, 1
   7              		.eabi_attribute 25, 1
   8              		.eabi_attribute 26, 1
   9              		.eabi_attribute 30, 2
  10              		.eabi_attribute 34, 1
  11              		.eabi_attribute 18, 4
  12              		.file	"UIManager.cpp"
  13              		.text
  14              	.Ltext0:
  15              		.cfi_sections	.debug_frame
  16              		.section	.text._ZN9UIManager4InitEv,"ax",%progbits
  17              		.align	1
  18              		.p2align 2,,3
  19              		.global	_ZN9UIManager4InitEv
  20              		.syntax unified
  21              		.thumb
  22              		.thumb_func
  24              	_ZN9UIManager4InitEv:
  25              	.LVL0:
  26              	.LFB2577:
  27              		.file 1 "UIManager.cpp"
   1:UIManager.cpp **** #include "UIManager.h"
   2:UIManager.cpp **** 
   3:UIManager.cpp **** /// @brief Initialise UI, set up timer for LED pulse callbacks
   4:UIManager.cpp **** void UIManager::Init(){
  28              		.loc 1 4 23 view -0
  29              		.cfi_startproc
  30              		@ args = 0, pretend = 0, frame = 16
  31              		@ frame_needed = 0, uses_anonymous_args = 0
   5:UIManager.cpp ****   SetupTimer();
  32              		.loc 1 5 3 view .LVU1
   4:UIManager.cpp ****   SetupTimer();
  33              		.loc 1 4 23 is_stmt 0 view .LVU2
  34 0000 70B5     		push	{r4, r5, r6, lr}
  35              		.cfi_def_cfa_offset 16
  36              		.cfi_offset 4, -16
  37              		.cfi_offset 5, -12
  38              		.cfi_offset 6, -8
  39              		.cfi_offset 14, -4
  40              	.LBB165:
  41              	.LBB166:
   6:UIManager.cpp ****   SetState(AppState::Startup);
   7:UIManager.cpp ****   // StartLedPulse();
   8:UIManager.cpp **** }
   9:UIManager.cpp **** 
  10:UIManager.cpp **** /// @brief Called on loop to continually update knob inputs and current app state
  11:UIManager.cpp **** void UIManager::UpdateUI(){
  12:UIManager.cpp ****   if (!crash_error){
  13:UIManager.cpp ****     UpdateKnobs();
  14:UIManager.cpp ****     UpdateState();
  15:UIManager.cpp ****     // UpdateSynthMode();
  16:UIManager.cpp ****   }
ARM GAS  /var/folders/2p/02m_5p7958535cp2tpgps0400000gn/T//ccA97qDZ.s 			page 2


  17:UIManager.cpp **** }
  18:UIManager.cpp **** 
  19:UIManager.cpp **** /// @brief Updates hardware input knob values and assigns to correct array indices 
  20:UIManager.cpp **** void UIManager::UpdateKnobs(){
  21:UIManager.cpp ****   // NOTE: need to add stuff for chord mode here! 
  22:UIManager.cpp ****   if (current_state_ == AppState::Synthesis){
  23:UIManager.cpp ****     int mode_idx = static_cast<int>(current_synth_mode_);
  24:UIManager.cpp ****     float k1v = MapKnobDeadzone(pod_.knob1.Process());
  25:UIManager.cpp ****     float k2v = MapKnobDeadzone(pod_.knob2.Process());
  26:UIManager.cpp **** 
  27:UIManager.cpp ****     /* here we pass the current knob value, pointer to the stored knob value for this mode,
  28:UIManager.cpp ****       and a pointer to the bool which tracks whether the knob value has been passed through */
  29:UIManager.cpp ****     k1v_[mode_idx] = UpdateKnobPassThru(k1v, &k1v_[mode_idx], &k1_pass_thru_[mode_idx]);
  30:UIManager.cpp ****     k2v_[mode_idx] = UpdateKnobPassThru(k2v, &k2v_[mode_idx], &k2_pass_thru_[mode_idx]);
  31:UIManager.cpp ****   }
  32:UIManager.cpp **** }
  33:UIManager.cpp **** 
  34:UIManager.cpp **** /// @brief Updates current UI/app state based on hardware inputs
  35:UIManager.cpp **** void UIManager::UpdateState(){
  36:UIManager.cpp ****   pod_.ProcessDigitalControls();
  37:UIManager.cpp ****   // TODO: change this to encoder pressed?? 
  38:UIManager.cpp ****   if (Button1Pressed()){
  39:UIManager.cpp ****     HandleButton1();
  40:UIManager.cpp ****   }
  41:UIManager.cpp ****   if (Button2Pressed()){
  42:UIManager.cpp ****     HandleButton2();
  43:UIManager.cpp ****   }
  44:UIManager.cpp ****   if (Button1LongPress()){
  45:UIManager.cpp ****     HandleButton1LongPress();
  46:UIManager.cpp ****   }
  47:UIManager.cpp ****   if (Button2LongPress()){
  48:UIManager.cpp ****     HandleButton2LongPress();
  49:UIManager.cpp ****   }
  50:UIManager.cpp ****   if (EncoderPressed()){
  51:UIManager.cpp ****     HandleEncoderPressed();
  52:UIManager.cpp ****   }
  53:UIManager.cpp ****   if (EncoderLongPress()){
  54:UIManager.cpp ****     HandleEncoderLongPress();
  55:UIManager.cpp ****   }
  56:UIManager.cpp ****   if (GetEncoderIncrement()>0){
  57:UIManager.cpp ****     if (current_state_ == AppState::Startup){
  58:UIManager.cpp ****       current_state_ = AppState::SelectFile;
  59:UIManager.cpp ****     }
  60:UIManager.cpp ****   }
  61:UIManager.cpp **** }
  62:UIManager.cpp **** 
  63:UIManager.cpp **** void UIManager::HandleButton1(){
  64:UIManager.cpp ****   switch(current_state_){
  65:UIManager.cpp ****     case AppState::Startup:
  66:UIManager.cpp ****       current_state_ = AppState::SelectFile; 
  67:UIManager.cpp ****       break;
  68:UIManager.cpp ****     // case AppState::SelectFile:
  69:UIManager.cpp ****     //   current_state_ = AppState::PlayWAV;
  70:UIManager.cpp ****     //   // NOTE: should i select next state (ie playwav) by clicking encoder? or pressing button1?
  71:UIManager.cpp ****     //   break;
  72:UIManager.cpp ****     // case AppState::PlayWAV:
  73:UIManager.cpp ****     //   current_state_ = AppState::Synthesis;
ARM GAS  /var/folders/2p/02m_5p7958535cp2tpgps0400000gn/T//ccA97qDZ.s 			page 3


  74:UIManager.cpp ****     //   current_synth_mode_ = SynthMode::Size_Position;
  75:UIManager.cpp ****     //   // StopLedPulse(); 
  76:UIManager.cpp ****     //   break;
  77:UIManager.cpp ****     case AppState::Synthesis:
  78:UIManager.cpp ****       UpdateSynthMode();
  79:UIManager.cpp ****       DebugPrintSynthMode();
  80:UIManager.cpp ****       break;
  81:UIManager.cpp ****     default:
  82:UIManager.cpp ****       break;
  83:UIManager.cpp ****   }
  84:UIManager.cpp **** }
  85:UIManager.cpp **** 
  86:UIManager.cpp **** void UIManager::HandleButton2(){
  87:UIManager.cpp ****     if (current_state_ == AppState::Synthesis){
  88:UIManager.cpp ****       ToggleRandomnessControls();
  89:UIManager.cpp ****       SetLedRandomMode();
  90:UIManager.cpp ****     }
  91:UIManager.cpp **** }
  92:UIManager.cpp **** 
  93:UIManager.cpp **** void UIManager::HandleButton1LongPress(){
  94:UIManager.cpp ****   if (current_state_ == AppState::Synthesis){
  95:UIManager.cpp ****     ToggleReverbControls();
  96:UIManager.cpp ****     SetLedFXMode();
  97:UIManager.cpp ****   }
  98:UIManager.cpp **** }
  99:UIManager.cpp **** 
 100:UIManager.cpp **** void UIManager::HandleButton2LongPress(){
 101:UIManager.cpp ****   if (current_state_ == AppState::Synthesis){
 102:UIManager.cpp ****     ToggleFilterControls();
 103:UIManager.cpp ****     SetLedFXMode();
 104:UIManager.cpp ****   }
 105:UIManager.cpp **** }
 106:UIManager.cpp **** 
 107:UIManager.cpp **** void UIManager::HandleEncoderPressed(){
 108:UIManager.cpp ****   switch(current_state_){
 109:UIManager.cpp ****     case AppState::SelectFile:
 110:UIManager.cpp ****       current_state_ = AppState::PlayWAV;
 111:UIManager.cpp ****     case AppState::RecordIn:
 112:UIManager.cpp ****       current_state_ = AppState::PlayWAV;
 113:UIManager.cpp ****     case AppState::PlayWAV:
 114:UIManager.cpp ****       current_state_ = AppState::Synthesis;
 115:UIManager.cpp ****       break;
 116:UIManager.cpp ****     default:
 117:UIManager.cpp ****       break;
 118:UIManager.cpp ****   }
 119:UIManager.cpp **** }
 120:UIManager.cpp **** 
 121:UIManager.cpp **** void UIManager::HandleEncoderLongPress(){
 122:UIManager.cpp ****   switch (current_state_){
 123:UIManager.cpp ****      /* exit synthesis mode, return to file selection */
 124:UIManager.cpp ****     case AppState::Synthesis:
 125:UIManager.cpp ****       current_state_ = AppState::SelectFile;
 126:UIManager.cpp ****       // StartLedPulse();
 127:UIManager.cpp ****       break;
 128:UIManager.cpp ****       /* enter RecordIn mode */
 129:UIManager.cpp ****     case AppState::SelectFile:
 130:UIManager.cpp ****     case AppState::PlayWAV:
ARM GAS  /var/folders/2p/02m_5p7958535cp2tpgps0400000gn/T//ccA97qDZ.s 			page 4


 131:UIManager.cpp ****       current_state_ = AppState::RecordIn;
 132:UIManager.cpp ****       break;
 133:UIManager.cpp ****     case AppState::RecordIn:
 134:UIManager.cpp ****       current_state_ = AppState::SelectFile;
 135:UIManager.cpp ****       break;
 136:UIManager.cpp ****     default:
 137:UIManager.cpp ****       break;
 138:UIManager.cpp ****   }
 139:UIManager.cpp **** }
 140:UIManager.cpp **** 
 141:UIManager.cpp **** /// @brief Helper method to externally set current app state
 142:UIManager.cpp **** /// @param state 
 143:UIManager.cpp **** void UIManager::SetState(AppState state){
 144:UIManager.cpp ****   current_state_ = state;
 145:UIManager.cpp **** }
 146:UIManager.cpp **** 
 147:UIManager.cpp **** /// @brief Helper method to set current app state to Error and start red error LEDs
 148:UIManager.cpp **** void UIManager::SetStateError(){
 149:UIManager.cpp ****   current_state_ = AppState::Error;
 150:UIManager.cpp ****   StopLedPulse();
 151:UIManager.cpp ****   SetLed(255,0,0,true);
 152:UIManager.cpp ****   SetLed(255,0,0,false);
 153:UIManager.cpp ****   crash_error = true;
 154:UIManager.cpp **** }
 155:UIManager.cpp **** 
 156:UIManager.cpp **** /// @brief Cycles through synth parameter update modes
 157:UIManager.cpp **** void UIManager::UpdateSynthMode(){
 158:UIManager.cpp ****   switch(current_synth_mode_){
 159:UIManager.cpp ****     case SynthMode::Size_Position:
 160:UIManager.cpp ****       current_synth_mode_ = SynthMode::Pitch_ActiveGrains;
 161:UIManager.cpp ****       break;
 162:UIManager.cpp ****     case SynthMode::Pitch_ActiveGrains:
 163:UIManager.cpp ****       current_synth_mode_ = SynthMode::PhasorMode_EnvType;
 164:UIManager.cpp ****       break;
 165:UIManager.cpp ****     case SynthMode::PhasorMode_EnvType:
 166:UIManager.cpp ****       current_synth_mode_ = SynthMode::Pan_PanRnd;
 167:UIManager.cpp ****       break;
 168:UIManager.cpp ****     case SynthMode::Pan_PanRnd:
 169:UIManager.cpp ****       current_synth_mode_ = SynthMode::Size_Position;
 170:UIManager.cpp ****       break;
 171:UIManager.cpp ****     default:
 172:UIManager.cpp ****       break;
 173:UIManager.cpp ****   }
 174:UIManager.cpp **** }
 175:UIManager.cpp **** 
 176:UIManager.cpp **** /* each synth mode (apart from pan) has 2 submodes: 
 177:UIManager.cpp ****   knobs either change the named parameters themselves (modes above), 
 178:UIManager.cpp ****   or change the degree of randomness applied to these parameters in granulation */
 179:UIManager.cpp **** void UIManager::ToggleRandomnessControls(){
 180:UIManager.cpp ****   switch(current_synth_mode_){
 181:UIManager.cpp ****     case SynthMode::Size_Position:
 182:UIManager.cpp ****       current_synth_mode_ = SynthMode::Size_Position_Rnd;
 183:UIManager.cpp ****       break;
 184:UIManager.cpp ****     case SynthMode::Size_Position_Rnd:
 185:UIManager.cpp ****       current_synth_mode_ = SynthMode::Size_Position;
 186:UIManager.cpp ****       break;
 187:UIManager.cpp ****     case SynthMode::Pitch_ActiveGrains:
ARM GAS  /var/folders/2p/02m_5p7958535cp2tpgps0400000gn/T//ccA97qDZ.s 			page 5


 188:UIManager.cpp ****       current_synth_mode_ = SynthMode::Pitch_ActiveGrains_Rnd;
 189:UIManager.cpp ****       break;
 190:UIManager.cpp ****     case SynthMode::Pitch_ActiveGrains_Rnd:
 191:UIManager.cpp ****       current_synth_mode_ = SynthMode::Pitch_ActiveGrains;
 192:UIManager.cpp ****       break;
 193:UIManager.cpp ****     case SynthMode::PhasorMode_EnvType:
 194:UIManager.cpp ****       current_synth_mode_ = SynthMode::PhasorMode_EnvType_Rnd;
 195:UIManager.cpp ****       break;      
 196:UIManager.cpp ****     case SynthMode::PhasorMode_EnvType_Rnd:
 197:UIManager.cpp ****       current_synth_mode_ = SynthMode::PhasorMode_EnvType;
 198:UIManager.cpp ****       break;
 199:UIManager.cpp ****     default:
 200:UIManager.cpp ****       break;
 201:UIManager.cpp ****   }
 202:UIManager.cpp **** }
 203:UIManager.cpp **** 
 204:UIManager.cpp **** void UIManager::ToggleReverbControls(){
 205:UIManager.cpp ****   if (current_synth_mode_==SynthMode::Reverb){
 206:UIManager.cpp ****     current_synth_mode_ = prev_synth_mode_;
 207:UIManager.cpp ****   }
 208:UIManager.cpp ****   else {
 209:UIManager.cpp ****     prev_synth_mode_ = current_synth_mode_;
 210:UIManager.cpp ****     current_synth_mode_ = SynthMode::Reverb;
 211:UIManager.cpp ****   }
 212:UIManager.cpp **** }
 213:UIManager.cpp **** 
 214:UIManager.cpp **** void UIManager::ToggleFilterControls(){
 215:UIManager.cpp ****   if (current_synth_mode_==SynthMode::Filter){
 216:UIManager.cpp ****     current_synth_mode_ = prev_synth_mode_;
 217:UIManager.cpp ****   }
 218:UIManager.cpp ****   else {
 219:UIManager.cpp ****     prev_synth_mode_ = current_synth_mode_;
 220:UIManager.cpp ****     current_synth_mode_ = SynthMode::Filter;
 221:UIManager.cpp ****   }
 222:UIManager.cpp **** }
 223:UIManager.cpp **** 
 224:UIManager.cpp **** bool UIManager::ToggleRecordOut(){//NOTE NEED TO DECIDE THiS!!
 225:UIManager.cpp ****   // TODO: need to decide what control input will toggle record out
 226:UIManager.cpp ****   return true; 
 227:UIManager.cpp **** }
 228:UIManager.cpp **** 
 229:UIManager.cpp **** float UIManager::GetKnob1Value(int mode_idx){
 230:UIManager.cpp ****   return k1v_[mode_idx];
 231:UIManager.cpp **** }
 232:UIManager.cpp **** 
 233:UIManager.cpp **** float UIManager::GetKnob2Value(int mode_idx){
 234:UIManager.cpp ****   return k2v_[mode_idx];
 235:UIManager.cpp **** }
 236:UIManager.cpp **** 
 237:UIManager.cpp **** int32_t UIManager::GetEncoderIncrement(){
 238:UIManager.cpp ****   return pod_.encoder.Increment();
 239:UIManager.cpp **** }
 240:UIManager.cpp **** 
 241:UIManager.cpp **** bool UIManager::EncoderPressed(){
 242:UIManager.cpp ****   return pod_.encoder.FallingEdge();
 243:UIManager.cpp **** }
 244:UIManager.cpp **** 
ARM GAS  /var/folders/2p/02m_5p7958535cp2tpgps0400000gn/T//ccA97qDZ.s 			page 6


 245:UIManager.cpp **** bool UIManager::EncoderLongPress(){
 246:UIManager.cpp ****   return pod_.encoder.TimeHeldMs() > 1000.0f;
 247:UIManager.cpp **** }
 248:UIManager.cpp **** 
 249:UIManager.cpp **** bool UIManager::Button1Pressed(){
 250:UIManager.cpp ****   return pod_.button1.FallingEdge();
 251:UIManager.cpp **** }
 252:UIManager.cpp **** 
 253:UIManager.cpp **** bool UIManager::Button1LongPress(){
 254:UIManager.cpp ****   return pod_.button1.TimeHeldMs() > 1000.0f;
 255:UIManager.cpp **** }
 256:UIManager.cpp **** 
 257:UIManager.cpp **** bool UIManager::Button2Pressed(){
 258:UIManager.cpp ****   return pod_.button2.FallingEdge();
 259:UIManager.cpp **** }
 260:UIManager.cpp **** 
 261:UIManager.cpp **** bool UIManager::Button2LongPress(){
 262:UIManager.cpp ****   return pod_.button2.TimeHeldMs() > 1000.0f;
 263:UIManager.cpp **** }
 264:UIManager.cpp **** 
 265:UIManager.cpp **** float UIManager::MapKnobDeadzone(float knob_val ){
 266:UIManager.cpp ****   if (knob_val<=0.01f) return 0.0f;
 267:UIManager.cpp ****   if (knob_val>=0.99f) return 1.0f;
 268:UIManager.cpp ****   return knob_val;
 269:UIManager.cpp **** }
 270:UIManager.cpp **** 
 271:UIManager.cpp **** /* here we check if the current value of the knob has moved through the last stored value 
 272:UIManager.cpp ****   before the synth mode changed, and only update the parameter once the current knob value
 273:UIManager.cpp ****   'passes through' the stored value - meaning if we set grain size to 0.1 then switch modes 
 274:UIManager.cpp ****   and move the knob to 0.8, if we switch back, grain size won't be updated again until the 
 275:UIManager.cpp ****   knob passes through this value.  */
 276:UIManager.cpp **** 
 277:UIManager.cpp **** float UIManager::UpdateKnobPassThru(float curr_knob_val, float *stored_knob_val, bool *pass_thru){
 278:UIManager.cpp ****   if (!(*pass_thru)){
 279:UIManager.cpp ****     if (curr_knob_val >= (*stored_knob_val) || curr_knob_val <= (*stored_knob_val)) {
 280:UIManager.cpp ****       (*pass_thru) = true;
 281:UIManager.cpp ****     }
 282:UIManager.cpp **** } 
 283:UIManager.cpp ****   if (*pass_thru){
 284:UIManager.cpp ****     (*stored_knob_val) = curr_knob_val;
 285:UIManager.cpp ****     return curr_knob_val;
 286:UIManager.cpp ****   }
 287:UIManager.cpp ****   return (*stored_knob_val);
 288:UIManager.cpp **** }
 289:UIManager.cpp **** 
 290:UIManager.cpp **** /* has to be static - timer won't take class member function in callback  */
 291:UIManager.cpp **** static void StaticLedCallback(void* data) {
 292:UIManager.cpp ****   UIManager* instance = static_cast<UIManager*>(data);
 293:UIManager.cpp ****   instance->LedPulseCallback();
 294:UIManager.cpp **** }
 295:UIManager.cpp **** 
 296:UIManager.cpp **** void UIManager::SetupTimer(){
 297:UIManager.cpp ****   TimerHandle::Config cfg;
 298:UIManager.cpp ****   cfg.periph = TimerHandle::Config::Peripheral::TIM_5;
  42              		.loc 1 298 14 view .LVU3
  43 0002 9FED117B 		vldr.64	d7, .L4	@ int
  44              	.LBE166:
ARM GAS  /var/folders/2p/02m_5p7958535cp2tpgps0400000gn/T//ccA97qDZ.s 			page 7


  45              	.LBE165:
   4:UIManager.cpp ****   SetupTimer();
  46              		.loc 1 4 23 view .LVU4
  47 0006 84B0     		sub	sp, sp, #16
  48              		.cfi_def_cfa_offset 32
  49              	.LBB170:
  50              	.LBB168:
 299:UIManager.cpp ****   // /* set period for 200ms pulse (1MHz/200,000 == 200ms) */
 300:UIManager.cpp ****   // cfg.period = 200000;
 301:UIManager.cpp ****   /* set period for 10ms callback interval */
 302:UIManager.cpp ****   cfg.period = 20000;
 303:UIManager.cpp ****   cfg.enable_irq = true;
 304:UIManager.cpp ****   timer_.Init(cfg);
  51              		.loc 1 304 14 view .LVU5
  52 0008 00F10C05 		add	r5, r0, #12
 302:UIManager.cpp ****   cfg.enable_irq = true;
  53              		.loc 1 302 14 view .LVU6
  54 000c 44F62063 		movw	r3, #20000
 303:UIManager.cpp ****   timer_.Init(cfg);
  55              		.loc 1 303 18 view .LVU7
  56 0010 0126     		movs	r6, #1
  57              	.LBE168:
  58              	.LBE170:
   4:UIManager.cpp ****   SetupTimer();
  59              		.loc 1 4 23 view .LVU8
  60 0012 0446     		mov	r4, r0
  61              	.LVL1:
  62              	.LBB171:
  63              	.LBI165:
 296:UIManager.cpp ****   TimerHandle::Config cfg;
  64              		.loc 1 296 6 is_stmt 1 view .LVU9
  65              	.LBB169:
 297:UIManager.cpp ****   cfg.periph = TimerHandle::Config::Peripheral::TIM_5;
  66              		.loc 1 297 3 view .LVU10
  67              	.LBB167:
  68              	.LBI167:
  69              		.file 2 "../libDaisy/src/per/tim.h"
   1:../libDaisy/src/per/tim.h **** #pragma once
   2:../libDaisy/src/per/tim.h **** #ifndef DSY_TIM_H
   3:../libDaisy/src/per/tim.h **** #define DSY_TIM_H
   4:../libDaisy/src/per/tim.h **** 
   5:../libDaisy/src/per/tim.h **** #include <cstdint>
   6:../libDaisy/src/per/tim.h **** 
   7:../libDaisy/src/per/tim.h **** namespace daisy
   8:../libDaisy/src/per/tim.h **** {
   9:../libDaisy/src/per/tim.h **** /** @brief Hardare timer peripheral support.
  10:../libDaisy/src/per/tim.h ****  ** 
  11:../libDaisy/src/per/tim.h ****  ** Supports general-function TIM peripherals:
  12:../libDaisy/src/per/tim.h ****  ** - TIM2, TIM3, TIM4, TIM5
  13:../libDaisy/src/per/tim.h ****  **
  14:../libDaisy/src/per/tim.h ****  ** DaisySeed, and many internal peripherals utilize TIM2 for timing/delay purposes.
  15:../libDaisy/src/per/tim.h ****  ** It is configured to be at the maximum frequency: typically 200MHz or 240MHz (boost) 
  16:../libDaisy/src/per/tim.h ****  ** for measuring/delaying for very short periods. 
  17:../libDaisy/src/per/tim.h ****  **
  18:../libDaisy/src/per/tim.h ****  ** The GetUs/GetMs functions are available for convenience (and backwards compatibility),
  19:../libDaisy/src/per/tim.h ****  ** but to avoid wrapping errors on math when doing time-delta calculations, using ticks is 
  20:../libDaisy/src/per/tim.h ****  ** recommended. The data can be converted to the final time-base after getting the difference in t
ARM GAS  /var/folders/2p/02m_5p7958535cp2tpgps0400000gn/T//ccA97qDZ.s 			page 8


  21:../libDaisy/src/per/tim.h ****  ** (Using GetFreq() can be used for these time-base calculations).
  22:../libDaisy/src/per/tim.h ****  **
  23:../libDaisy/src/per/tim.h ****  ** User callbacks can be set, and changed at any point during operation. However,
  24:../libDaisy/src/per/tim.h ****  ** the Config::enable_irq must be set to true when initializing for the interrupts
  25:../libDaisy/src/per/tim.h ****  ** to turn on and function.
  26:../libDaisy/src/per/tim.h ****  **
  27:../libDaisy/src/per/tim.h ****  ** @todo Fix issues with realtime getters, and wrapping of the timer(s).
  28:../libDaisy/src/per/tim.h ****  **     - This very noticeable with default settings for the 16-bit counters.
  29:../libDaisy/src/per/tim.h ****  ** @todo Other General purpose timers
  30:../libDaisy/src/per/tim.h ****  ** @todo Non-internal clock sources
  31:../libDaisy/src/per/tim.h ****  ** @todo Use of the four-tim channels per tim
  32:../libDaisy/src/per/tim.h ****  **     - PWM, etc.
  33:../libDaisy/src/per/tim.h ****  **     - InputCapture/OutputCompare, etc.
  34:../libDaisy/src/per/tim.h ****  ** @todo HRTIM
  35:../libDaisy/src/per/tim.h ****  ** @todo Advanced timers (TIM1/TIM8)
  36:../libDaisy/src/per/tim.h ****  ** */
  37:../libDaisy/src/per/tim.h **** class TimerHandle
  38:../libDaisy/src/per/tim.h **** {
  39:../libDaisy/src/per/tim.h ****   public:
  40:../libDaisy/src/per/tim.h ****     /** @brief Configuration struct for the Peripheral
  41:../libDaisy/src/per/tim.h ****      *  @note These settings are used during initialization
  42:../libDaisy/src/per/tim.h ****      *   and changing them afterwards may not have the desired effect.
  43:../libDaisy/src/per/tim.h ****      */
  44:../libDaisy/src/per/tim.h ****     struct Config
  45:../libDaisy/src/per/tim.h ****     {
  46:../libDaisy/src/per/tim.h ****         /** @brief Hardware Timer to configure, and use. */
  47:../libDaisy/src/per/tim.h ****         enum class Peripheral
  48:../libDaisy/src/per/tim.h ****         {
  49:../libDaisy/src/per/tim.h ****             TIM_2 = 0, /**< 32-bit counter */
  50:../libDaisy/src/per/tim.h ****             TIM_3,     /**< 16-bit counter */
  51:../libDaisy/src/per/tim.h ****             TIM_4,     /**< 16-bit counter */
  52:../libDaisy/src/per/tim.h ****             TIM_5,     /**< 32-bit counter*/
  53:../libDaisy/src/per/tim.h ****         };
  54:../libDaisy/src/per/tim.h **** 
  55:../libDaisy/src/per/tim.h ****         /** @brief Direction of the auto-reload counter. 
  56:../libDaisy/src/per/tim.h ****          ** @todo Add support for the various  
  57:../libDaisy/src/per/tim.h ****          ** versions of Up/Down counters.
  58:../libDaisy/src/per/tim.h ****          ** */
  59:../libDaisy/src/per/tim.h ****         enum class CounterDir
  60:../libDaisy/src/per/tim.h ****         {
  61:../libDaisy/src/per/tim.h ****             UP = 0,
  62:../libDaisy/src/per/tim.h ****             DOWN,
  63:../libDaisy/src/per/tim.h ****         };
  64:../libDaisy/src/per/tim.h **** 
  65:../libDaisy/src/per/tim.h ****         Peripheral periph; /**< Hardware Peripheral */
  66:../libDaisy/src/per/tim.h ****         CounterDir dir;    /**< Counter direction */
  67:../libDaisy/src/per/tim.h **** 
  68:../libDaisy/src/per/tim.h ****         /** @brief period in ticks at TIM frequency that counter will reset based on dir
  69:../libDaisy/src/per/tim.h ****          *  @note TIM3 and TIM4 are both 16-bit timers. So the period maximum is 0xffff.
  70:../libDaisy/src/per/tim.h ****         */
  71:../libDaisy/src/per/tim.h ****         uint32_t period;
  72:../libDaisy/src/per/tim.h ****         bool     enable_irq; /**< Enable interrupt for user based callback */
  73:../libDaisy/src/per/tim.h **** 
  74:../libDaisy/src/per/tim.h ****         /* @brief Constructor for default states */
  75:../libDaisy/src/per/tim.h ****         Config()
  70              		.loc 2 75 9 view .LVU11
  71              		.loc 2 75 9 is_stmt 0 view .LVU12
ARM GAS  /var/folders/2p/02m_5p7958535cp2tpgps0400000gn/T//ccA97qDZ.s 			page 9


  72              	.LBE167:
 298:UIManager.cpp ****   // /* set period for 200ms pulse (1MHz/200,000 == 200ms) */
  73              		.loc 1 298 3 is_stmt 1 view .LVU13
  74              		.loc 1 304 14 is_stmt 0 view .LVU14
  75 0014 6946     		mov	r1, sp
  76 0016 2846     		mov	r0, r5
  77              	.LVL2:
 302:UIManager.cpp ****   cfg.enable_irq = true;
  78              		.loc 1 302 14 view .LVU15
  79 0018 0293     		str	r3, [sp, #8]
 303:UIManager.cpp ****   timer_.Init(cfg);
  80              		.loc 1 303 18 view .LVU16
  81 001a 8DF80C60 		strb	r6, [sp, #12]
 298:UIManager.cpp ****   // /* set period for 200ms pulse (1MHz/200,000 == 200ms) */
  82              		.loc 1 298 14 view .LVU17
  83 001e 8DED007B 		vstr.64	d7, [sp]	@ int
 302:UIManager.cpp ****   cfg.enable_irq = true;
  84              		.loc 1 302 3 is_stmt 1 view .LVU18
 303:UIManager.cpp ****   timer_.Init(cfg);
  85              		.loc 1 303 3 view .LVU19
  86              		.loc 1 304 3 view .LVU20
  87              		.loc 1 304 14 is_stmt 0 view .LVU21
  88 0022 FFF7FEFF 		bl	_ZN5daisy11TimerHandle4InitERKNS0_6ConfigE
  89              	.LVL3:
 305:UIManager.cpp ****   /* set 1Mhz tick frequency */
 306:UIManager.cpp ****   timer_.SetPrescaler(199);
  90              		.loc 1 306 3 is_stmt 1 view .LVU22
  91              		.loc 1 306 22 is_stmt 0 view .LVU23
  92 0026 C721     		movs	r1, #199
  93 0028 2846     		mov	r0, r5
  94 002a FFF7FEFF 		bl	_ZN5daisy11TimerHandle12SetPrescalerEm
  95              	.LVL4:
 307:UIManager.cpp ****   pulse_increasing_ = true;
  96              		.loc 1 307 3 is_stmt 1 view .LVU24
 308:UIManager.cpp ****   timer_.SetCallback(StaticLedCallback, this);
  97              		.loc 1 308 21 is_stmt 0 view .LVU25
  98 002e 2246     		mov	r2, r4
  99 0030 0749     		ldr	r1, .L4+8
 100 0032 2846     		mov	r0, r5
 307:UIManager.cpp ****   pulse_increasing_ = true;
 101              		.loc 1 307 21 view .LVU26
 102 0034 2675     		strb	r6, [r4, #20]
 103              		.loc 1 308 3 is_stmt 1 view .LVU27
 104              		.loc 1 308 21 is_stmt 0 view .LVU28
 105 0036 FFF7FEFF 		bl	_ZN5daisy11TimerHandle11SetCallbackEPFvPvES1_
 106              	.LVL5:
 107              		.loc 1 308 21 view .LVU29
 108              	.LBE169:
 109              	.LBE171:
   6:UIManager.cpp ****   // StartLedPulse();
 110              		.loc 1 6 3 is_stmt 1 view .LVU30
 111              	.LBB172:
 112              	.LBI172:
 143:UIManager.cpp ****   current_state_ = state;
 113              		.loc 1 143 6 view .LVU31
 114              	.LBB173:
 144:UIManager.cpp **** }
ARM GAS  /var/folders/2p/02m_5p7958535cp2tpgps0400000gn/T//ccA97qDZ.s 			page 10


 115              		.loc 1 144 3 view .LVU32
 144:UIManager.cpp **** }
 116              		.loc 1 144 18 is_stmt 0 view .LVU33
 117 003a 0023     		movs	r3, #0
 118 003c 6360     		str	r3, [r4, #4]
 119              	.LVL6:
 144:UIManager.cpp **** }
 120              		.loc 1 144 18 view .LVU34
 121              	.LBE173:
 122              	.LBE172:
   8:UIManager.cpp **** 
 123              		.loc 1 8 1 view .LVU35
 124 003e 04B0     		add	sp, sp, #16
 125              		.cfi_def_cfa_offset 16
 126              		@ sp needed
 127 0040 70BD     		pop	{r4, r5, r6, pc}
 128              	.LVL7:
 129              	.L5:
   8:UIManager.cpp **** 
 130              		.loc 1 8 1 view .LVU36
 131 0042 00BFAFF3 		.align	3
 131      0080
 132              	.L4:
 133 0048 03000000 		.word	3
 134 004c 00000000 		.word	0
 135 0050 00000000 		.word	_ZL17StaticLedCallbackPv
 136              		.cfi_endproc
 137              	.LFE2577:
 139              		.section	.text._ZN9UIManager11UpdateKnobsEv,"ax",%progbits
 140              		.align	1
 141              		.p2align 2,,3
 142              		.global	_ZN9UIManager11UpdateKnobsEv
 143              		.syntax unified
 144              		.thumb
 145              		.thumb_func
 147              	_ZN9UIManager11UpdateKnobsEv:
 148              	.LVL8:
 149              	.LFB2579:
  20:UIManager.cpp ****   // NOTE: need to add stuff for chord mode here! 
 150              		.loc 1 20 30 is_stmt 1 view -0
 151              		.cfi_startproc
 152              		@ args = 0, pretend = 0, frame = 0
 153              		@ frame_needed = 0, uses_anonymous_args = 0
  22:UIManager.cpp ****     int mode_idx = static_cast<int>(current_synth_mode_);
 154              		.loc 1 22 3 view .LVU38
  20:UIManager.cpp ****   // NOTE: need to add stuff for chord mode here! 
 155              		.loc 1 20 30 is_stmt 0 view .LVU39
 156 0000 38B5     		push	{r3, r4, r5, lr}
 157              		.cfi_def_cfa_offset 16
 158              		.cfi_offset 3, -16
 159              		.cfi_offset 4, -12
 160              		.cfi_offset 5, -8
 161              		.cfi_offset 14, -4
 162              	.LBB187:
  22:UIManager.cpp ****     int mode_idx = static_cast<int>(current_synth_mode_);
 163              		.loc 1 22 3 view .LVU40
 164 0002 4368     		ldr	r3, [r0, #4]
ARM GAS  /var/folders/2p/02m_5p7958535cp2tpgps0400000gn/T//ccA97qDZ.s 			page 11


 165 0004 032B     		cmp	r3, #3
 166              	.LBE187:
  20:UIManager.cpp ****   // NOTE: need to add stuff for chord mode here! 
 167              		.loc 1 20 30 view .LVU41
 168 0006 2DED028B 		vpush.64	{d8}
 169              		.cfi_def_cfa_offset 24
 170              		.cfi_offset 80, -24
 171              		.cfi_offset 81, -20
 172              	.LBB188:
  22:UIManager.cpp ****     int mode_idx = static_cast<int>(current_synth_mode_);
 173              		.loc 1 22 3 view .LVU42
 174 000a 02D0     		beq	.L21
 175              	.LBE188:
  32:UIManager.cpp **** 
 176              		.loc 1 32 1 view .LVU43
 177 000c BDEC028B 		vldm	sp!, {d8}
 178              		.cfi_remember_state
 179              		.cfi_restore 80
 180              		.cfi_restore 81
 181              		.cfi_def_cfa_offset 16
 182 0010 38BD     		pop	{r3, r4, r5, pc}
 183              	.L21:
 184              		.cfi_restore_state
 185              	.LVL9:
 186              	.LBB189:
 187              	.LBI189:
  20:UIManager.cpp ****   // NOTE: need to add stuff for chord mode here! 
 188              		.loc 1 20 6 is_stmt 1 view .LVU44
 189              	.LBB190:
 190              	.LBB191:
  23:UIManager.cpp ****     float k1v = MapKnobDeadzone(pod_.knob1.Process());
 191              		.loc 1 23 5 view .LVU45
 192 0012 0446     		mov	r4, r0
  24:UIManager.cpp ****     float k2v = MapKnobDeadzone(pod_.knob2.Process());
 193              		.loc 1 24 32 is_stmt 0 view .LVU46
 194 0014 0068     		ldr	r0, [r0]
 195              	.LVL10:
  24:UIManager.cpp ****     float k2v = MapKnobDeadzone(pod_.knob2.Process());
 196              		.loc 1 24 32 view .LVU47
 197 0016 6830     		adds	r0, r0, #104
  23:UIManager.cpp ****     float k1v = MapKnobDeadzone(pod_.knob1.Process());
 198              		.loc 1 23 9 view .LVU48
 199 0018 A568     		ldr	r5, [r4, #8]
 200              	.LVL11:
  24:UIManager.cpp ****     float k2v = MapKnobDeadzone(pod_.knob2.Process());
 201              		.loc 1 24 5 is_stmt 1 view .LVU49
  24:UIManager.cpp ****     float k2v = MapKnobDeadzone(pod_.knob2.Process());
 202              		.loc 1 24 32 is_stmt 0 view .LVU50
 203 001a FFF7FEFF 		bl	_ZN5daisy13AnalogControl7ProcessEv
 204              	.LVL12:
 205              	.LBB192:
 206              	.LBB193:
 266:UIManager.cpp ****   if (knob_val>=0.99f) return 1.0f;
 207              		.loc 1 266 3 view .LVU51
 208 001e DFED1F7A 		vldr.32	s15, .L22
 209              	.LVL13:
 266:UIManager.cpp ****   if (knob_val>=0.99f) return 1.0f;
ARM GAS  /var/folders/2p/02m_5p7958535cp2tpgps0400000gn/T//ccA97qDZ.s 			page 12


 210              		.loc 1 266 3 view .LVU52
 211              	.LBE193:
 212              	.LBI192:
 265:UIManager.cpp ****   if (knob_val<=0.01f) return 0.0f;
 213              		.loc 1 265 7 is_stmt 1 view .LVU53
 214              	.LBB194:
 266:UIManager.cpp ****   if (knob_val>=0.99f) return 1.0f;
 215              		.loc 1 266 3 view .LVU54
 216 0022 B4EEE70A 		vcmpe.f32	s0, s15
 217 0026 F1EE10FA 		vmrs	APSR_nzcv, FPSCR
 218 002a 30D9     		bls	.L15
 267:UIManager.cpp ****   return knob_val;
 219              		.loc 1 267 3 view .LVU55
 220 002c 9FED1C7A 		vldr.32	s14, .L22+4
 267:UIManager.cpp ****   return knob_val;
 221              		.loc 1 267 31 is_stmt 0 view .LVU56
 222 0030 F7EE007A 		vmov.f32	s15, #1.0e+0
 223 0034 B4EE470A 		vcmp.f32	s0, s14
 224 0038 F1EE10FA 		vmrs	APSR_nzcv, FPSCR
 225 003c 27FE808A 		vselge.f32	s16, s15, s0
 226              	.L8:
 227              	.LVL14:
 267:UIManager.cpp ****   return knob_val;
 228              		.loc 1 267 31 view .LVU57
 229              	.LBE194:
 230              	.LBE192:
  25:UIManager.cpp **** 
 231              		.loc 1 25 5 is_stmt 1 view .LVU58
  25:UIManager.cpp **** 
 232              		.loc 1 25 32 is_stmt 0 view .LVU59
 233 0040 2068     		ldr	r0, [r4]
 234 0042 8830     		adds	r0, r0, #136
 235 0044 FFF7FEFF 		bl	_ZN5daisy13AnalogControl7ProcessEv
 236              	.LVL15:
 237              	.LBB196:
 238              	.LBB197:
 266:UIManager.cpp ****   if (knob_val>=0.99f) return 1.0f;
 239              		.loc 1 266 3 view .LVU60
 240 0048 DFED147A 		vldr.32	s15, .L22
 241              	.LVL16:
 266:UIManager.cpp ****   if (knob_val>=0.99f) return 1.0f;
 242              		.loc 1 266 3 view .LVU61
 243              	.LBE197:
 244              	.LBI196:
 265:UIManager.cpp ****   if (knob_val<=0.01f) return 0.0f;
 245              		.loc 1 265 7 is_stmt 1 view .LVU62
 246              	.LBB198:
 266:UIManager.cpp ****   if (knob_val>=0.99f) return 1.0f;
 247              		.loc 1 266 3 view .LVU63
 248 004c B4EEE70A 		vcmpe.f32	s0, s15
 249 0050 F1EE10FA 		vmrs	APSR_nzcv, FPSCR
 250 0054 1ED9     		bls	.L16
 267:UIManager.cpp ****   return knob_val;
 251              		.loc 1 267 3 view .LVU64
 252 0056 9FED127A 		vldr.32	s14, .L22+4
 267:UIManager.cpp ****   return knob_val;
 253              		.loc 1 267 31 is_stmt 0 view .LVU65
ARM GAS  /var/folders/2p/02m_5p7958535cp2tpgps0400000gn/T//ccA97qDZ.s 			page 13


 254 005a F7EE007A 		vmov.f32	s15, #1.0e+0
 255 005e B4EE470A 		vcmp.f32	s0, s14
 256 0062 F1EE10FA 		vmrs	APSR_nzcv, FPSCR
 257 0066 27FE800A 		vselge.f32	s0, s15, s0
 258              	.LVL17:
 259              	.L10:
 267:UIManager.cpp ****   return knob_val;
 260              		.loc 1 267 31 view .LVU66
 261              	.LBE198:
 262              	.LBE196:
  29:UIManager.cpp ****     k2v_[mode_idx] = UpdateKnobPassThru(k2v, &k2v_[mode_idx], &k2_pass_thru_[mode_idx]);
 263              		.loc 1 29 5 is_stmt 1 view .LVU67
 264              	.LBB200:
 265              	.LBI200:
 277:UIManager.cpp ****   if (!(*pass_thru)){
 266              		.loc 1 277 7 view .LVU68
 267              	.LBB201:
 278:UIManager.cpp ****     if (curr_knob_val >= (*stored_knob_val) || curr_knob_val <= (*stored_knob_val)) {
 268              		.loc 1 278 3 view .LVU69
 278:UIManager.cpp ****     if (curr_knob_val >= (*stored_knob_val) || curr_knob_val <= (*stored_knob_val)) {
 269              		.loc 1 278 9 is_stmt 0 view .LVU70
 270 006a 6319     		adds	r3, r4, r5
 278:UIManager.cpp ****     if (curr_knob_val >= (*stored_knob_val) || curr_knob_val <= (*stored_knob_val)) {
 271              		.loc 1 278 3 view .LVU71
 272 006c 1A7E     		ldrb	r2, [r3, #24]	@ zero_extendqisi2
 273 006e 0AB9     		cbnz	r2, .L12
 279:UIManager.cpp ****       (*pass_thru) = true;
 274              		.loc 1 279 5 is_stmt 1 view .LVU72
 280:UIManager.cpp ****     }
 275              		.loc 1 280 7 view .LVU73
 280:UIManager.cpp ****     }
 276              		.loc 1 280 20 is_stmt 0 view .LVU74
 277 0070 0122     		movs	r2, #1
 278 0072 1A76     		strb	r2, [r3, #24]
 279              	.L12:
 283:UIManager.cpp ****     (*stored_knob_val) = curr_knob_val;
 280              		.loc 1 283 3 is_stmt 1 view .LVU75
 281              	.LVL18:
 283:UIManager.cpp ****     (*stored_knob_val) = curr_knob_val;
 282              		.loc 1 283 3 is_stmt 0 view .LVU76
 283 0074 04EB8504 		add	r4, r4, r5, lsl #2
 284              	.LVL19:
 283:UIManager.cpp ****     (*stored_knob_val) = curr_knob_val;
 285              		.loc 1 283 3 view .LVU77
 286              	.LBE201:
 287              	.LBE200:
  29:UIManager.cpp ****     k2v_[mode_idx] = UpdateKnobPassThru(k2v, &k2v_[mode_idx], &k2_pass_thru_[mode_idx]);
 288              		.loc 1 29 20 view .LVU78
 289 0078 84ED0A8A 		vstr.32	s16, [r4, #40]
  30:UIManager.cpp ****   }
 290              		.loc 1 30 5 is_stmt 1 view .LVU79
 291              	.LVL20:
 292              	.LBB202:
 293              	.LBI202:
 277:UIManager.cpp ****   if (!(*pass_thru)){
 294              		.loc 1 277 7 view .LVU80
 295              	.LBB203:
ARM GAS  /var/folders/2p/02m_5p7958535cp2tpgps0400000gn/T//ccA97qDZ.s 			page 14


 278:UIManager.cpp ****     if (curr_knob_val >= (*stored_knob_val) || curr_knob_val <= (*stored_knob_val)) {
 296              		.loc 1 278 3 view .LVU81
 297 007c DA7F     		ldrb	r2, [r3, #31]	@ zero_extendqisi2
 298 007e 0AB9     		cbnz	r2, .L13
 279:UIManager.cpp ****       (*pass_thru) = true;
 299              		.loc 1 279 5 view .LVU82
 280:UIManager.cpp ****     }
 300              		.loc 1 280 7 view .LVU83
 280:UIManager.cpp ****     }
 301              		.loc 1 280 20 is_stmt 0 view .LVU84
 302 0080 0122     		movs	r2, #1
 303 0082 DA77     		strb	r2, [r3, #31]
 304              	.L13:
 283:UIManager.cpp ****     (*stored_knob_val) = curr_knob_val;
 305              		.loc 1 283 3 is_stmt 1 view .LVU85
 306              	.LVL21:
 283:UIManager.cpp ****     (*stored_knob_val) = curr_knob_val;
 307              		.loc 1 283 3 is_stmt 0 view .LVU86
 308              	.LBE203:
 309              	.LBE202:
  30:UIManager.cpp ****   }
 310              		.loc 1 30 20 view .LVU87
 311 0084 84ED110A 		vstr.32	s0, [r4, #68]
 312              	.LBE191:
 313              	.LBE190:
 314              	.LBE189:
  32:UIManager.cpp **** 
 315              		.loc 1 32 1 view .LVU88
 316 0088 BDEC028B 		vldm	sp!, {d8}
 317              		.cfi_remember_state
 318              		.cfi_restore 80
 319              		.cfi_restore 81
 320              		.cfi_def_cfa_offset 16
 321              	.LVL22:
  32:UIManager.cpp **** 
 322              		.loc 1 32 1 view .LVU89
 323 008c 38BD     		pop	{r3, r4, r5, pc}
 324              	.LVL23:
 325              	.L15:
 326              		.cfi_restore_state
 327              	.LBB208:
 328              	.LBB207:
 329              	.LBB206:
 330              	.LBB204:
 331              	.LBB195:
 266:UIManager.cpp ****   if (knob_val>=0.99f) return 1.0f;
 332              		.loc 1 266 31 view .LVU90
 333 008e 9FED058A 		vldr.32	s16, .L22+8
 334 0092 D5E7     		b	.L8
 335              	.LVL24:
 336              	.L16:
 266:UIManager.cpp ****   if (knob_val>=0.99f) return 1.0f;
 337              		.loc 1 266 31 view .LVU91
 338              	.LBE195:
 339              	.LBE204:
 340              	.LBB205:
 341              	.LBB199:
ARM GAS  /var/folders/2p/02m_5p7958535cp2tpgps0400000gn/T//ccA97qDZ.s 			page 15


 342 0094 9FED030A 		vldr.32	s0, .L22+8
 343              	.LVL25:
 266:UIManager.cpp ****   if (knob_val>=0.99f) return 1.0f;
 344              		.loc 1 266 31 view .LVU92
 345 0098 E7E7     		b	.L10
 346              	.L23:
 347 009a 00BF     		.align	2
 348              	.L22:
 349 009c 0AD7233C 		.word	1008981770
 350 00a0 A4707D3F 		.word	1065185444
 351 00a4 00000000 		.word	0
 352              	.LBE199:
 353              	.LBE205:
 354              	.LBE206:
 355              	.LBE207:
 356              	.LBE208:
 357              		.cfi_endproc
 358              	.LFE2579:
 360              		.section	.rodata._ZN9UIManager13HandleButton1Ev.str1.4,"aMS",%progbits,1
 361              		.align	2
 362              	.LC0:
 363 0000 53796E74 		.ascii	"Synth mode now in: Pan_PanRnd\000"
 363      68206D6F 
 363      6465206E 
 363      6F772069 
 363      6E3A2050 
 364 001e 0000     		.align	2
 365              	.LC1:
 366 0020 53796E74 		.ascii	"Synth mode now in: Size_Position\000"
 366      68206D6F 
 366      6465206E 
 366      6F772069 
 366      6E3A2053 
 367 0041 000000   		.align	2
 368              	.LC2:
 369 0044 53796E74 		.ascii	"Synth mode now in: Size_Position_Rnd\000"
 369      68206D6F 
 369      6465206E 
 369      6F772069 
 369      6E3A2053 
 370 0069 000000   		.align	2
 371              	.LC3:
 372 006c 53796E74 		.ascii	"Synth mode now in: Pitch_ActiveGrains\000"
 372      68206D6F 
 372      6465206E 
 372      6F772069 
 372      6E3A2050 
 373 0092 0000     		.align	2
 374              	.LC4:
 375 0094 53796E74 		.ascii	"Synth mode now in: Pitch_ActiveGrains_Rnd\000"
 375      68206D6F 
 375      6465206E 
 375      6F772069 
 375      6E3A2050 
 376 00be 0000     		.align	2
 377              	.LC5:
 378 00c0 53796E74 		.ascii	"Synth mode now in: PhasorMode_EnvType\000"
ARM GAS  /var/folders/2p/02m_5p7958535cp2tpgps0400000gn/T//ccA97qDZ.s 			page 16


 378      68206D6F 
 378      6465206E 
 378      6F772069 
 378      6E3A2050 
 379 00e6 0000     		.align	2
 380              	.LC6:
 381 00e8 53796E74 		.ascii	"Synth mode now in: PhasorMode_EnvType_Rnd\000"
 381      68206D6F 
 381      6465206E 
 381      6F772069 
 381      6E3A2050 
 382 0112 0000     		.align	2
 383              	.LC7:
 384 0114 53796E74 		.ascii	"Synth mode now in: Reverb\000"
 384      68206D6F 
 384      6465206E 
 384      6F772069 
 384      6E3A2052 
 385 012e 0000     		.align	2
 386              	.LC8:
 387 0130 53796E74 		.ascii	"Synth mode now in: Filter\000"
 387      68206D6F 
 387      6465206E 
 387      6F772069 
 387      6E3A2046 
 388              		.section	.text._ZN9UIManager13HandleButton1Ev,"ax",%progbits
 389              		.align	1
 390              		.p2align 2,,3
 391              		.global	_ZN9UIManager13HandleButton1Ev
 392              		.syntax unified
 393              		.thumb
 394              		.thumb_func
 396              	_ZN9UIManager13HandleButton1Ev:
 397              	.LVL26:
 398              	.LFB2581:
  63:UIManager.cpp ****   switch(current_state_){
 399              		.loc 1 63 32 is_stmt 1 view -0
 400              		.cfi_startproc
 401              		@ args = 0, pretend = 0, frame = 0
 402              		@ frame_needed = 0, uses_anonymous_args = 0
 403              		@ link register save eliminated.
  64:UIManager.cpp ****     case AppState::Startup:
 404              		.loc 1 64 3 view .LVU94
  64:UIManager.cpp ****     case AppState::Startup:
 405              		.loc 1 64 10 is_stmt 0 view .LVU95
 406 0000 4268     		ldr	r2, [r0, #4]
  63:UIManager.cpp ****   switch(current_state_){
 407              		.loc 1 63 32 view .LVU96
 408 0002 0346     		mov	r3, r0
  64:UIManager.cpp ****     case AppState::Startup:
 409              		.loc 1 64 3 view .LVU97
 410 0004 AAB1     		cbz	r2, .L25
 411 0006 032A     		cmp	r2, #3
 412 0008 08D1     		bne	.L43
 413              	.LVL27:
 414              	.LBB233:
 415              	.LBI233:
ARM GAS  /var/folders/2p/02m_5p7958535cp2tpgps0400000gn/T//ccA97qDZ.s 			page 17


  63:UIManager.cpp ****   switch(current_state_){
 416              		.loc 1 63 6 is_stmt 1 view .LVU98
 417              	.LBE233:
  77:UIManager.cpp ****       UpdateSynthMode();
 418              		.loc 1 77 5 view .LVU99
  78:UIManager.cpp ****       DebugPrintSynthMode();
 419              		.loc 1 78 7 view .LVU100
 420              	.LBB278:
 421              	.LBB234:
 422              	.LBI234:
 157:UIManager.cpp ****   switch(current_synth_mode_){
 423              		.loc 1 157 6 view .LVU101
 424              	.LBB235:
 158:UIManager.cpp ****     case SynthMode::Size_Position:
 425              		.loc 1 158 3 view .LVU102
 158:UIManager.cpp ****     case SynthMode::Size_Position:
 426              		.loc 1 158 10 is_stmt 0 view .LVU103
 427 000a 8268     		ldr	r2, [r0, #8]
 158:UIManager.cpp ****     case SynthMode::Size_Position:
 428              		.loc 1 158 3 view .LVU104
 429 000c 062A     		cmp	r2, #6
 430 000e 06D8     		bhi	.L28
 431 0010 DFE802F0 		tbb	[pc, r2]
 432              	.L30:
 433 0014 1C       		.byte	(.L33-.L30)/2
 434 0015 21       		.byte	(.L32-.L30)/2
 435 0016 17       		.byte	(.L31-.L30)/2
 436 0017 05       		.byte	(.L28-.L30)/2
 437 0018 05       		.byte	(.L28-.L30)/2
 438 0019 05       		.byte	(.L28-.L30)/2
 439 001a 12       		.byte	(.L29-.L30)/2
 440              	.LVL28:
 441 001b 00       		.p2align 1
 442              	.L43:
 158:UIManager.cpp ****     case SynthMode::Size_Position:
 443              		.loc 1 158 3 view .LVU105
 444 001c 7047     		bx	lr
 445              	.LVL29:
 446              	.L28:
 158:UIManager.cpp ****     case SynthMode::Size_Position:
 447              		.loc 1 158 3 view .LVU106
 448              	.LBE235:
 449              	.LBE234:
 450              	.LBE278:
  79:UIManager.cpp ****       break;
 451              		.loc 1 79 7 is_stmt 1 view .LVU107
 452              	.LBB279:
 453              	.LBB241:
 454              	.LBI241:
 309:UIManager.cpp **** }
 310:UIManager.cpp **** 
 311:UIManager.cpp **** 
 312:UIManager.cpp **** 
 313:UIManager.cpp **** void UIManager::LedPulseCallback(){
 314:UIManager.cpp ****   if (pulse_increasing_){
 315:UIManager.cpp ****     /* NOTE: increase step (in header) and period to reduce processing cost */
 316:UIManager.cpp ****     pulse_brightness_ += PULSE_STEP;
ARM GAS  /var/folders/2p/02m_5p7958535cp2tpgps0400000gn/T//ccA97qDZ.s 			page 18


 317:UIManager.cpp ****     if (pulse_brightness_ >= 255 - PULSE_STEP){
 318:UIManager.cpp ****       pulse_brightness_ = 255;
 319:UIManager.cpp ****       pulse_increasing_ = false;
 320:UIManager.cpp ****     }
 321:UIManager.cpp ****   }
 322:UIManager.cpp ****   else {
 323:UIManager.cpp ****     pulse_brightness_ -= PULSE_STEP;
 324:UIManager.cpp ****     if (pulse_brightness_ <= PULSE_STEP){
 325:UIManager.cpp ****       pulse_count_++;
 326:UIManager.cpp ****       pulse_brightness_ = 0;
 327:UIManager.cpp ****       pulse_increasing_ = true;
 328:UIManager.cpp ****     }
 329:UIManager.cpp ****   }
 330:UIManager.cpp ****   switch(current_state_){
 331:UIManager.cpp ****     /* pulse blue */
 332:UIManager.cpp ****     case AppState::SelectFile:
 333:UIManager.cpp ****       SetLed(0, 0, pulse_brightness_, true);
 334:UIManager.cpp ****     /* pulse white */
 335:UIManager.cpp ****     case AppState::RecordIn:
 336:UIManager.cpp ****       SetLed(pulse_brightness_, pulse_brightness_, pulse_brightness_, true);
 337:UIManager.cpp ****     /* pulse cyan */
 338:UIManager.cpp ****     case AppState::PlayWAV:
 339:UIManager.cpp ****       SetLed(0, pulse_brightness_, pulse_brightness_, true);
 340:UIManager.cpp ****     /* pulse red */
 341:UIManager.cpp ****     case AppState::Error:
 342:UIManager.cpp ****       SetLed(pulse_brightness_,0, 0, true);
 343:UIManager.cpp **** 
 344:UIManager.cpp ****     /* when switching to synth mode, pulse green twice, then solid;
 345:UIManager.cpp ****         otherwise pulses on synth mode switch */
 346:UIManager.cpp ****     case AppState::Synthesis:
 347:UIManager.cpp ****       if (pulse_count_ <= 2){
 348:UIManager.cpp ****         SetLed(0, pulse_brightness_, 0, true);
 349:UIManager.cpp ****       }
 350:UIManager.cpp ****       else {
 351:UIManager.cpp ****         StopLedPulse();
 352:UIManager.cpp ****         SetLedSynthMode();
 353:UIManager.cpp ****       }
 354:UIManager.cpp ****       break;
 355:UIManager.cpp ****     default:
 356:UIManager.cpp ****       break;
 357:UIManager.cpp ****   }
 358:UIManager.cpp **** } 
 359:UIManager.cpp **** 
 360:UIManager.cpp **** void UIManager::SetLedSynthMode(){
 361:UIManager.cpp ****   if (current_state_ == AppState::Synthesis){
 362:UIManager.cpp ****     switch(current_synth_mode_){
 363:UIManager.cpp ****       case SynthMode::Size_Position:
 364:UIManager.cpp ****         SetLed(0,255,0,true);
 365:UIManager.cpp ****         break;
 366:UIManager.cpp ****       case SynthMode::Pitch_ActiveGrains:
 367:UIManager.cpp ****       // orange: 100, 64, 0 or 255, 165, 0 or 255, 91, 31 (neon orange)
 368:UIManager.cpp ****         BlinkSetLed(255, 91, 31,true);
 369:UIManager.cpp ****         break;
 370:UIManager.cpp ****       case SynthMode::PhasorMode_EnvType:
 371:UIManager.cpp ****       // 0, 0, 255 blue
 372:UIManager.cpp ****         BlinkSetLed(0,0,255,true);
 373:UIManager.cpp ****         break;
ARM GAS  /var/folders/2p/02m_5p7958535cp2tpgps0400000gn/T//ccA97qDZ.s 			page 19


 374:UIManager.cpp ****       case SynthMode::Pan_PanRnd:
 375:UIManager.cpp ****       // fuschia: 255,0,255
 376:UIManager.cpp ****         BlinkSetLed(255,0,255,true);
 377:UIManager.cpp ****         break;
 378:UIManager.cpp ****       default:
 379:UIManager.cpp ****         break;
 380:UIManager.cpp ****     }
 381:UIManager.cpp ****   }
 382:UIManager.cpp **** }
 383:UIManager.cpp **** 
 384:UIManager.cpp **** void UIManager::SetLedRandomMode(){
 385:UIManager.cpp ****   if (current_state_==AppState::Synthesis){
 386:UIManager.cpp ****     switch(current_synth_mode_){
 387:UIManager.cpp ****       case SynthMode::Size_Position:
 388:UIManager.cpp ****       case SynthMode::Pitch_ActiveGrains:
 389:UIManager.cpp ****       case SynthMode::PhasorMode_EnvType:
 390:UIManager.cpp ****       case SynthMode::Pan_PanRnd:
 391:UIManager.cpp ****         /* set led 2 to green*/
 392:UIManager.cpp ****         SetLed(0,255,0,false);
 393:UIManager.cpp ****         break;
 394:UIManager.cpp ****       
 395:UIManager.cpp ****       case SynthMode::Size_Position_Rnd:
 396:UIManager.cpp ****       case SynthMode::Pitch_ActiveGrains_Rnd:
 397:UIManager.cpp ****       case SynthMode::PhasorMode_EnvType_Rnd:
 398:UIManager.cpp ****         /* set led 2 to red*/
 399:UIManager.cpp ****         SetLed(255,0,0,false);
 400:UIManager.cpp ****         break;
 401:UIManager.cpp ****       default:
 402:UIManager.cpp ****         break;
 403:UIManager.cpp ****     }
 404:UIManager.cpp ****   }
 405:UIManager.cpp **** }
 406:UIManager.cpp **** 
 407:UIManager.cpp **** void UIManager::SetLedFXMode(){
 408:UIManager.cpp ****   if (current_state_ == AppState::Synthesis){
 409:UIManager.cpp ****     switch(current_synth_mode_){
 410:UIManager.cpp ****       case SynthMode::Reverb:
 411:UIManager.cpp ****         /* set led 2 to cyan */
 412:UIManager.cpp ****         SetLed(0, 255, 255, false);
 413:UIManager.cpp ****         break;
 414:UIManager.cpp ****       case SynthMode::Filter:
 415:UIManager.cpp ****         /* set led 2 to yellow */
 416:UIManager.cpp ****         SetLed(255, 255, 0, false);
 417:UIManager.cpp ****         break;
 418:UIManager.cpp ****       default:
 419:UIManager.cpp ****         break;
 420:UIManager.cpp ****     }
 421:UIManager.cpp ****   }
 422:UIManager.cpp **** }
 423:UIManager.cpp **** 
 424:UIManager.cpp **** void UIManager::StartLedPulse(){
 425:UIManager.cpp ****   pulse_brightness_ = 0;
 426:UIManager.cpp ****   pulse_increasing_ = true;
 427:UIManager.cpp ****   pulse_count_ = 0;
 428:UIManager.cpp ****   timer_.Start();
 429:UIManager.cpp **** }
 430:UIManager.cpp **** 
ARM GAS  /var/folders/2p/02m_5p7958535cp2tpgps0400000gn/T//ccA97qDZ.s 			page 20


 431:UIManager.cpp **** void UIManager::StopLedPulse(){
 432:UIManager.cpp ****   timer_.Stop();
 433:UIManager.cpp **** }
 434:UIManager.cpp **** 
 435:UIManager.cpp **** void UIManager::SetLed(int r, int g, int b, bool is_Led1){
 436:UIManager.cpp ****   if (is_Led1){
 437:UIManager.cpp ****     pod_.led1.Set(r,g,b);
 438:UIManager.cpp ****   }
 439:UIManager.cpp ****   else {
 440:UIManager.cpp ****     pod_.led2.Set(r,g,b);
 441:UIManager.cpp ****   }
 442:UIManager.cpp ****   pod_.UpdateLeds();
 443:UIManager.cpp ****   System::Delay(10);
 444:UIManager.cpp **** }
 445:UIManager.cpp **** 
 446:UIManager.cpp **** void UIManager::BlinkLed(int r, int g, int b, bool is_Led1){
 447:UIManager.cpp ****   SetLed(r,g,b, is_Led1);
 448:UIManager.cpp ****   System::Delay(100);
 449:UIManager.cpp ****   SetLed(0,0,0, is_Led1);
 450:UIManager.cpp **** }
 451:UIManager.cpp **** 
 452:UIManager.cpp **** void UIManager::BlinkSetLed(int r, int g, int b, bool is_Led1){
 453:UIManager.cpp ****   BlinkLed(r,g,b, is_Led1);
 454:UIManager.cpp ****   System::Delay(100);
 455:UIManager.cpp ****   BlinkLed(r,g,b, is_Led1);
 456:UIManager.cpp ****   System::Delay(100);
 457:UIManager.cpp ****   SetLed(r,g,b, is_Led1);
 458:UIManager.cpp **** }
 459:UIManager.cpp **** 
 460:UIManager.cpp **** void UIManager::DebugPrintState(){
 461:UIManager.cpp ****   switch(current_state_){
 462:UIManager.cpp ****     case AppState::Startup:
 463:UIManager.cpp ****       DebugPrint(pod_, "State now in: Startup");
 464:UIManager.cpp ****         break;
 465:UIManager.cpp ****     case AppState::SelectFile:
 466:UIManager.cpp ****       DebugPrint(pod_, "State now in: SelectFile");
 467:UIManager.cpp ****         break;
 468:UIManager.cpp ****     case AppState::RecordIn:
 469:UIManager.cpp ****       DebugPrint(pod_, "State now in: RecordIn");
 470:UIManager.cpp ****         break;
 471:UIManager.cpp ****     case AppState::PlayWAV:
 472:UIManager.cpp ****       DebugPrint(pod_, "State now in: PlayWAV");
 473:UIManager.cpp ****         break;
 474:UIManager.cpp ****     case AppState::Synthesis:
 475:UIManager.cpp ****       DebugPrint(pod_, "State now in: Synthesis");
 476:UIManager.cpp ****         break;
 477:UIManager.cpp ****     // case AppState::ChordMode:
 478:UIManager.cpp ****       // DebugPrint(pod_, "State now in: ChordMode");
 479:UIManager.cpp ****     case AppState::Error:
 480:UIManager.cpp ****       DebugPrint(pod_, "State now in: Error");
 481:UIManager.cpp ****         break;
 482:UIManager.cpp ****     default:
 483:UIManager.cpp ****       DebugPrint(pod_, "default state??");
 484:UIManager.cpp ****       break;
 485:UIManager.cpp ****   }
 486:UIManager.cpp **** }
 487:UIManager.cpp **** 
ARM GAS  /var/folders/2p/02m_5p7958535cp2tpgps0400000gn/T//ccA97qDZ.s 			page 21


 488:UIManager.cpp **** void UIManager::DebugPrintSynthMode(){
 455              		.loc 1 488 6 view .LVU108
 456              	.LBB242:
 489:UIManager.cpp ****   switch(current_synth_mode_){
 457              		.loc 1 489 3 view .LVU109
 458 001e 082A     		cmp	r2, #8
 459 0020 06D8     		bhi	.L24
 460 0022 DFE802F0 		tbb	[pc, r2]
 461              	.L38:
 462 0026 0B       		.byte	(.L36-.L38)/2
 463 0027 15       		.byte	(.L34-.L38)/2
 464 0028 1A       		.byte	(.L35-.L38)/2
 465 0029 26       		.byte	(.L42-.L38)/2
 466 002a 29       		.byte	(.L41-.L38)/2
 467 002b 20       		.byte	(.L40-.L38)/2
 468 002c 05       		.byte	(.L24-.L38)/2
 469 002d 1D       		.byte	(.L39-.L38)/2
 470 002e 23       		.byte	(.L37-.L38)/2
 471 002f 00       		.p2align 1
 472              	.L24:
 473              	.LBE242:
 474              	.LBE241:
 475              	.LBE279:
  84:UIManager.cpp **** 
 476              		.loc 1 84 1 is_stmt 0 view .LVU110
 477 0030 7047     		bx	lr
 478              	.LVL30:
 479              	.L25:
  65:UIManager.cpp ****       current_state_ = AppState::SelectFile; 
 480              		.loc 1 65 5 is_stmt 1 view .LVU111
  66:UIManager.cpp ****       break;
 481              		.loc 1 66 7 view .LVU112
  66:UIManager.cpp ****       break;
 482              		.loc 1 66 22 is_stmt 0 view .LVU113
 483 0032 0122     		movs	r2, #1
 484 0034 4260     		str	r2, [r0, #4]
  67:UIManager.cpp ****     // case AppState::SelectFile:
 485              		.loc 1 67 7 is_stmt 1 view .LVU114
 486 0036 7047     		bx	lr
 487              	.LVL31:
 488              	.L29:
 489              	.LBB280:
 490              	.LBB268:
 491              	.LBB236:
 168:UIManager.cpp ****       current_synth_mode_ = SynthMode::Size_Position;
 492              		.loc 1 168 5 view .LVU115
 169:UIManager.cpp ****       break;
 493              		.loc 1 169 7 view .LVU116
 169:UIManager.cpp ****       break;
 494              		.loc 1 169 27 is_stmt 0 view .LVU117
 495 0038 0022     		movs	r2, #0
 496 003a 8260     		str	r2, [r0, #8]
 170:UIManager.cpp ****     default:
 497              		.loc 1 170 7 is_stmt 1 view .LVU118
 498              	.LVL32:
 170:UIManager.cpp ****     default:
 499              		.loc 1 170 7 is_stmt 0 view .LVU119
ARM GAS  /var/folders/2p/02m_5p7958535cp2tpgps0400000gn/T//ccA97qDZ.s 			page 22


 500              	.LBE236:
 501              	.LBE268:
 502              	.LBE280:
  79:UIManager.cpp ****       break;
 503              		.loc 1 79 7 is_stmt 1 view .LVU120
 504              	.LBB281:
 505              	.LBB269:
 488:UIManager.cpp ****   switch(current_synth_mode_){
 506              		.loc 1 488 6 view .LVU121
 507              	.LBB263:
 508              		.loc 1 489 3 view .LVU122
 509              	.L36:
 490:UIManager.cpp ****     case SynthMode::Size_Position:
 510              		.loc 1 490 5 view .LVU123
 491:UIManager.cpp ****       DebugPrint(pod_, "Synth mode now in: Size_Position");
 511              		.loc 1 491 7 view .LVU124
 512              		.loc 1 491 7 view .LVU125
 513              	.LBB243:
 514              	.LBI243:
 515              		.file 3 "../libDaisy/src/daisy_seed.h"
   1:../libDaisy/src/daisy_seed.h **** #pragma once
   2:../libDaisy/src/daisy_seed.h **** #ifndef DSY_SEED_H
   3:../libDaisy/src/daisy_seed.h **** #define DSY_SEED_H
   4:../libDaisy/src/daisy_seed.h **** 
   5:../libDaisy/src/daisy_seed.h **** #include "daisy.h"
   6:../libDaisy/src/daisy_seed.h **** 
   7:../libDaisy/src/daisy_seed.h **** //Uncomment this out if you're still using the rev2 hardware
   8:../libDaisy/src/daisy_seed.h **** //#define SEED_REV2
   9:../libDaisy/src/daisy_seed.h **** 
  10:../libDaisy/src/daisy_seed.h **** namespace daisy
  11:../libDaisy/src/daisy_seed.h **** {
  12:../libDaisy/src/daisy_seed.h **** /**
  13:../libDaisy/src/daisy_seed.h ****    @brief This is the higher-level interface for the Daisy board. \n 
  14:../libDaisy/src/daisy_seed.h ****     All basic peripheral configuration/initialization is setup here. \n
  15:../libDaisy/src/daisy_seed.h **** 
  16:../libDaisy/src/daisy_seed.h ****    @ingroup boards
  17:../libDaisy/src/daisy_seed.h **** */
  18:../libDaisy/src/daisy_seed.h **** class DaisySeed
  19:../libDaisy/src/daisy_seed.h **** {
  20:../libDaisy/src/daisy_seed.h ****   public:
  21:../libDaisy/src/daisy_seed.h ****     DaisySeed() {}
  22:../libDaisy/src/daisy_seed.h ****     ~DaisySeed() {}
  23:../libDaisy/src/daisy_seed.h **** 
  24:../libDaisy/src/daisy_seed.h ****     /** This function used to provide a pre-initialization configuraiton 
  25:../libDaisy/src/daisy_seed.h ****      *  it has since been deprecated, and does nothing.
  26:../libDaisy/src/daisy_seed.h ****      */
  27:../libDaisy/src/daisy_seed.h ****     void Configure();
  28:../libDaisy/src/daisy_seed.h **** 
  29:../libDaisy/src/daisy_seed.h ****     /** 
  30:../libDaisy/src/daisy_seed.h ****     Initializes the Daisy Seed and the following peripherals:
  31:../libDaisy/src/daisy_seed.h ****     SDRAM, QSPI, 24-bit 48kHz Audio via AK4556, Internal USB,
  32:../libDaisy/src/daisy_seed.h ****     as well as the built-in LED and Testpoint.
  33:../libDaisy/src/daisy_seed.h **** 
  34:../libDaisy/src/daisy_seed.h ****     ADCs, DACs, and other special peripherals (such as I2C, SPI, etc.)
  35:../libDaisy/src/daisy_seed.h ****     can be initialized using their specific initializers within libdaisy
  36:../libDaisy/src/daisy_seed.h ****     for a specific application.
  37:../libDaisy/src/daisy_seed.h ****     */
ARM GAS  /var/folders/2p/02m_5p7958535cp2tpgps0400000gn/T//ccA97qDZ.s 			page 23


  38:../libDaisy/src/daisy_seed.h ****     void Init(bool boost = false);
  39:../libDaisy/src/daisy_seed.h **** 
  40:../libDaisy/src/daisy_seed.h ****     /** 
  41:../libDaisy/src/daisy_seed.h ****     Deinitializes all peripherals automatically handled by `Init`.
  42:../libDaisy/src/daisy_seed.h ****     */
  43:../libDaisy/src/daisy_seed.h ****     void DeInit();
  44:../libDaisy/src/daisy_seed.h **** 
  45:../libDaisy/src/daisy_seed.h ****     /** 
  46:../libDaisy/src/daisy_seed.h ****     Wait some ms before going on.
  47:../libDaisy/src/daisy_seed.h ****     \param del Delay time in ms.
  48:../libDaisy/src/daisy_seed.h ****     */
  49:../libDaisy/src/daisy_seed.h ****     void DelayMs(size_t del);
  50:../libDaisy/src/daisy_seed.h **** 
  51:../libDaisy/src/daisy_seed.h ****     /** 
  52:../libDaisy/src/daisy_seed.h ****     Returns the gpio_pin corresponding to the index 0-31.
  53:../libDaisy/src/daisy_seed.h ****     For the given GPIO on the Daisy Seed (labeled 1-32 in docs).
  54:../libDaisy/src/daisy_seed.h ****     */
  55:../libDaisy/src/daisy_seed.h ****     static dsy_gpio_pin GetPin(uint8_t pin_idx);
  56:../libDaisy/src/daisy_seed.h **** 
  57:../libDaisy/src/daisy_seed.h ****     /** Begins the audio for the seeds builtin audio.
  58:../libDaisy/src/daisy_seed.h ****     the specified callback will get called whenever
  59:../libDaisy/src/daisy_seed.h ****     new data is ready to be prepared.
  60:../libDaisy/src/daisy_seed.h ****     */
  61:../libDaisy/src/daisy_seed.h ****     void StartAudio(AudioHandle::InterleavingAudioCallback cb);
  62:../libDaisy/src/daisy_seed.h **** 
  63:../libDaisy/src/daisy_seed.h ****     /** Begins the audio for the seeds builtin audio.
  64:../libDaisy/src/daisy_seed.h ****     the specified callback will get called whenever
  65:../libDaisy/src/daisy_seed.h ****     new data is ready to be prepared.
  66:../libDaisy/src/daisy_seed.h ****     This will use the newer non-interleaved callback.
  67:../libDaisy/src/daisy_seed.h ****     */
  68:../libDaisy/src/daisy_seed.h ****     void StartAudio(AudioHandle::AudioCallback cb);
  69:../libDaisy/src/daisy_seed.h **** 
  70:../libDaisy/src/daisy_seed.h ****     /** Changes to a new interleaved callback
  71:../libDaisy/src/daisy_seed.h ****      */
  72:../libDaisy/src/daisy_seed.h ****     void ChangeAudioCallback(AudioHandle::InterleavingAudioCallback cb);
  73:../libDaisy/src/daisy_seed.h **** 
  74:../libDaisy/src/daisy_seed.h ****     /** Changes to a new multichannel callback
  75:../libDaisy/src/daisy_seed.h ****      */
  76:../libDaisy/src/daisy_seed.h ****     void ChangeAudioCallback(AudioHandle::AudioCallback cb);
  77:../libDaisy/src/daisy_seed.h **** 
  78:../libDaisy/src/daisy_seed.h ****     /** Stops the audio if it is running. */
  79:../libDaisy/src/daisy_seed.h ****     void StopAudio();
  80:../libDaisy/src/daisy_seed.h **** 
  81:../libDaisy/src/daisy_seed.h ****     /** Updates the Audio Sample Rate, and reinitializes.
  82:../libDaisy/src/daisy_seed.h ****      ** Audio must be stopped for this to work.
  83:../libDaisy/src/daisy_seed.h ****      */
  84:../libDaisy/src/daisy_seed.h ****     void SetAudioSampleRate(SaiHandle::Config::SampleRate samplerate);
  85:../libDaisy/src/daisy_seed.h **** 
  86:../libDaisy/src/daisy_seed.h ****     /** Returns the audio sample rate in Hz as a floating point number.
  87:../libDaisy/src/daisy_seed.h ****      */
  88:../libDaisy/src/daisy_seed.h ****     float AudioSampleRate();
  89:../libDaisy/src/daisy_seed.h **** 
  90:../libDaisy/src/daisy_seed.h ****     /** Sets the number of samples processed per channel by the audio callback.
  91:../libDaisy/src/daisy_seed.h ****      */
  92:../libDaisy/src/daisy_seed.h ****     void SetAudioBlockSize(size_t blocksize);
  93:../libDaisy/src/daisy_seed.h **** 
  94:../libDaisy/src/daisy_seed.h ****     /** Returns the number of samples per channel in a block of audio. */
ARM GAS  /var/folders/2p/02m_5p7958535cp2tpgps0400000gn/T//ccA97qDZ.s 			page 24


  95:../libDaisy/src/daisy_seed.h ****     size_t AudioBlockSize();
  96:../libDaisy/src/daisy_seed.h **** 
  97:../libDaisy/src/daisy_seed.h ****     /** Returns the rate in Hz that the Audio callback is called */
  98:../libDaisy/src/daisy_seed.h ****     float AudioCallbackRate() const;
  99:../libDaisy/src/daisy_seed.h **** 
 100:../libDaisy/src/daisy_seed.h ****     /** Returns the SAI Handle for the Daisy Seed 
 101:../libDaisy/src/daisy_seed.h ****      *  This can be useful when adding a secondary codec,
 102:../libDaisy/src/daisy_seed.h ****      *  the result of this function can be passed to the audio reinit 
 103:../libDaisy/src/daisy_seed.h ****      *  with an SAI2 configuration
 104:../libDaisy/src/daisy_seed.h ****      */
 105:../libDaisy/src/daisy_seed.h ****     const SaiHandle& AudioSaiHandle() const;
 106:../libDaisy/src/daisy_seed.h **** 
 107:../libDaisy/src/daisy_seed.h ****     /** Sets the state of the built in LED
 108:../libDaisy/src/daisy_seed.h ****      */
 109:../libDaisy/src/daisy_seed.h ****     void SetLed(bool state);
 110:../libDaisy/src/daisy_seed.h **** 
 111:../libDaisy/src/daisy_seed.h ****     /** Sets the state of the test point near pin 10
 112:../libDaisy/src/daisy_seed.h ****      */
 113:../libDaisy/src/daisy_seed.h ****     void SetTestPoint(bool state);
 114:../libDaisy/src/daisy_seed.h **** 
 115:../libDaisy/src/daisy_seed.h ****     /** Print formatted debug log message
 116:../libDaisy/src/daisy_seed.h ****      */
 117:../libDaisy/src/daisy_seed.h ****     template <typename... VA>
 118:../libDaisy/src/daisy_seed.h ****     static void Print(const char* format, VA... va)
 119:../libDaisy/src/daisy_seed.h ****     {
 120:../libDaisy/src/daisy_seed.h ****         Log::Print(format, va...);
 121:../libDaisy/src/daisy_seed.h ****     }
 122:../libDaisy/src/daisy_seed.h **** 
 123:../libDaisy/src/daisy_seed.h ****     /** Print formatted debug log message with automatic line termination
 124:../libDaisy/src/daisy_seed.h ****     */
 125:../libDaisy/src/daisy_seed.h ****     template <typename... VA>
 126:../libDaisy/src/daisy_seed.h ****     static void PrintLine(const char* format, VA... va)
 516              		.loc 3 126 17 view .LVU126
 517              	.LBB244:
 127:../libDaisy/src/daisy_seed.h ****     {
 128:../libDaisy/src/daisy_seed.h ****         Log::PrintLine(format, va...);
 518              		.loc 3 128 23 is_stmt 0 view .LVU127
 519 003c 1048     		ldr	r0, .L44
 520              	.LVL33:
 521              		.loc 3 128 23 view .LVU128
 522 003e FFF7FEBF 		b	_ZN5daisy6LoggerILNS_17LoggerDestinationE1EE9PrintLineEPKcz
 523              	.LVL34:
 524              	.L31:
 525              		.loc 3 128 23 view .LVU129
 526              	.LBE244:
 527              	.LBE243:
 528              	.LBE263:
 529              	.LBE269:
 530              	.LBB270:
 531              	.LBB237:
 165:UIManager.cpp ****       current_synth_mode_ = SynthMode::Pan_PanRnd;
 532              		.loc 1 165 5 is_stmt 1 view .LVU130
 166:UIManager.cpp ****       break;
 533              		.loc 1 166 7 view .LVU131
 166:UIManager.cpp ****       break;
 534              		.loc 1 166 27 is_stmt 0 view .LVU132
 535 0042 0622     		movs	r2, #6
ARM GAS  /var/folders/2p/02m_5p7958535cp2tpgps0400000gn/T//ccA97qDZ.s 			page 25


 536              	.LBE237:
 537              	.LBE270:
 538              	.LBB271:
 539              	.LBB264:
 540              	.LBB245:
 541              	.LBB246:
 542              		.loc 3 128 23 view .LVU133
 543 0044 0F48     		ldr	r0, .L44+4
 544              	.LVL35:
 545              		.loc 3 128 23 view .LVU134
 546              	.LBE246:
 547              	.LBE245:
 548              	.LBE264:
 549              	.LBE271:
 550              	.LBB272:
 551              	.LBB238:
 166:UIManager.cpp ****       break;
 552              		.loc 1 166 27 view .LVU135
 553 0046 9A60     		str	r2, [r3, #8]
 167:UIManager.cpp ****     case SynthMode::Pan_PanRnd:
 554              		.loc 1 167 7 is_stmt 1 view .LVU136
 555              	.LVL36:
 167:UIManager.cpp ****     case SynthMode::Pan_PanRnd:
 556              		.loc 1 167 7 is_stmt 0 view .LVU137
 557              	.LBE238:
 558              	.LBE272:
 559              	.LBE281:
  79:UIManager.cpp ****       break;
 560              		.loc 1 79 7 is_stmt 1 view .LVU138
 561              	.LBB282:
 562              	.LBB273:
 488:UIManager.cpp ****   switch(current_synth_mode_){
 563              		.loc 1 488 6 view .LVU139
 564              	.LBB265:
 489:UIManager.cpp ****     case SynthMode::Size_Position:
 565              		.loc 1 489 3 view .LVU140
 492:UIManager.cpp ****         break;
 493:UIManager.cpp ****     case SynthMode::Size_Position_Rnd:
 494:UIManager.cpp ****       DebugPrint(pod_, "Synth mode now in: Size_Position_Rnd");
 495:UIManager.cpp ****         break;
 496:UIManager.cpp ****     case SynthMode::Pitch_ActiveGrains:
 497:UIManager.cpp ****       DebugPrint(pod_, "Synth mode now in: Pitch_ActiveGrains");
 498:UIManager.cpp ****         break;
 499:UIManager.cpp ****     case SynthMode::Pitch_ActiveGrains_Rnd:
 500:UIManager.cpp ****       DebugPrint(pod_, "Synth mode now in: Pitch_ActiveGrains_Rnd");
 501:UIManager.cpp ****         break;
 502:UIManager.cpp ****     case SynthMode::PhasorMode_EnvType:
 503:UIManager.cpp ****       DebugPrint(pod_, "Synth mode now in: PhasorMode_EnvType");
 504:UIManager.cpp ****         break;
 505:UIManager.cpp ****     case SynthMode::PhasorMode_EnvType_Rnd:
 506:UIManager.cpp ****       DebugPrint(pod_, "Synth mode now in: PhasorMode_EnvType_Rnd");
 507:UIManager.cpp ****         break;
 508:UIManager.cpp ****     case SynthMode::Pan_PanRnd:
 566              		.loc 1 508 5 view .LVU141
 509:UIManager.cpp ****       DebugPrint(pod_, "Synth mode now in: Pan_PanRnd");
 567              		.loc 1 509 7 view .LVU142
 568              		.loc 1 509 7 view .LVU143
ARM GAS  /var/folders/2p/02m_5p7958535cp2tpgps0400000gn/T//ccA97qDZ.s 			page 26


 569              	.LBB248:
 570              	.LBI245:
 126:../libDaisy/src/daisy_seed.h ****     {
 571              		.loc 3 126 17 view .LVU144
 572              	.LBB247:
 573              		.loc 3 128 23 is_stmt 0 view .LVU145
 574 0048 FFF7FEBF 		b	_ZN5daisy6LoggerILNS_17LoggerDestinationE1EE9PrintLineEPKcz
 575              	.LVL37:
 576              	.L33:
 577              		.loc 3 128 23 view .LVU146
 578              	.LBE247:
 579              	.LBE248:
 580              	.LBE265:
 581              	.LBE273:
 582              	.LBB274:
 583              	.LBB239:
 159:UIManager.cpp ****       current_synth_mode_ = SynthMode::Pitch_ActiveGrains;
 584              		.loc 1 159 5 is_stmt 1 view .LVU147
 160:UIManager.cpp ****       break;
 585              		.loc 1 160 7 view .LVU148
 160:UIManager.cpp ****       break;
 586              		.loc 1 160 27 is_stmt 0 view .LVU149
 587 004c 0122     		movs	r2, #1
 588 004e 8260     		str	r2, [r0, #8]
 161:UIManager.cpp ****     case SynthMode::Pitch_ActiveGrains:
 589              		.loc 1 161 7 is_stmt 1 view .LVU150
 590              	.LVL38:
 161:UIManager.cpp ****     case SynthMode::Pitch_ActiveGrains:
 591              		.loc 1 161 7 is_stmt 0 view .LVU151
 592              	.LBE239:
 593              	.LBE274:
 594              	.LBE282:
  79:UIManager.cpp ****       break;
 595              		.loc 1 79 7 is_stmt 1 view .LVU152
 596              	.LBB283:
 597              	.LBB275:
 488:UIManager.cpp ****   switch(current_synth_mode_){
 598              		.loc 1 488 6 view .LVU153
 599              	.LBB266:
 489:UIManager.cpp ****     case SynthMode::Size_Position:
 600              		.loc 1 489 3 view .LVU154
 601              	.L34:
 496:UIManager.cpp ****       DebugPrint(pod_, "Synth mode now in: Pitch_ActiveGrains");
 602              		.loc 1 496 5 view .LVU155
 497:UIManager.cpp ****         break;
 603              		.loc 1 497 7 view .LVU156
 497:UIManager.cpp ****         break;
 604              		.loc 1 497 7 view .LVU157
 605              	.LBB249:
 606              	.LBI249:
 126:../libDaisy/src/daisy_seed.h ****     {
 607              		.loc 3 126 17 view .LVU158
 608              	.LBB250:
 609              		.loc 3 128 23 is_stmt 0 view .LVU159
 610 0050 0D48     		ldr	r0, .L44+8
 611              	.LVL39:
 612              		.loc 3 128 23 view .LVU160
ARM GAS  /var/folders/2p/02m_5p7958535cp2tpgps0400000gn/T//ccA97qDZ.s 			page 27


 613 0052 FFF7FEBF 		b	_ZN5daisy6LoggerILNS_17LoggerDestinationE1EE9PrintLineEPKcz
 614              	.LVL40:
 615              	.L32:
 616              		.loc 3 128 23 view .LVU161
 617              	.LBE250:
 618              	.LBE249:
 619              	.LBE266:
 620              	.LBE275:
 621              	.LBB276:
 622              	.LBB240:
 162:UIManager.cpp ****       current_synth_mode_ = SynthMode::PhasorMode_EnvType;
 623              		.loc 1 162 5 is_stmt 1 view .LVU162
 163:UIManager.cpp ****       break;
 624              		.loc 1 163 7 view .LVU163
 163:UIManager.cpp ****       break;
 625              		.loc 1 163 27 is_stmt 0 view .LVU164
 626 0056 0222     		movs	r2, #2
 627 0058 8260     		str	r2, [r0, #8]
 164:UIManager.cpp ****     case SynthMode::PhasorMode_EnvType:
 628              		.loc 1 164 7 is_stmt 1 view .LVU165
 629              	.LVL41:
 164:UIManager.cpp ****     case SynthMode::PhasorMode_EnvType:
 630              		.loc 1 164 7 is_stmt 0 view .LVU166
 631              	.LBE240:
 632              	.LBE276:
 633              	.LBE283:
  79:UIManager.cpp ****       break;
 634              		.loc 1 79 7 is_stmt 1 view .LVU167
 635              	.LBB284:
 636              	.LBB277:
 488:UIManager.cpp ****   switch(current_synth_mode_){
 637              		.loc 1 488 6 view .LVU168
 638              	.LBB267:
 489:UIManager.cpp ****     case SynthMode::Size_Position:
 639              		.loc 1 489 3 view .LVU169
 640              	.L35:
 502:UIManager.cpp ****       DebugPrint(pod_, "Synth mode now in: PhasorMode_EnvType");
 641              		.loc 1 502 5 view .LVU170
 503:UIManager.cpp ****         break;
 642              		.loc 1 503 7 view .LVU171
 503:UIManager.cpp ****         break;
 643              		.loc 1 503 7 view .LVU172
 644              	.LBB251:
 645              	.LBI251:
 126:../libDaisy/src/daisy_seed.h ****     {
 646              		.loc 3 126 17 view .LVU173
 647              	.LBB252:
 648              		.loc 3 128 23 is_stmt 0 view .LVU174
 649 005a 0C48     		ldr	r0, .L44+12
 650              	.LVL42:
 651              		.loc 3 128 23 view .LVU175
 652 005c FFF7FEBF 		b	_ZN5daisy6LoggerILNS_17LoggerDestinationE1EE9PrintLineEPKcz
 653              	.LVL43:
 654              	.L39:
 655              		.loc 3 128 23 view .LVU176
 656              	.LBE252:
 657              	.LBE251:
ARM GAS  /var/folders/2p/02m_5p7958535cp2tpgps0400000gn/T//ccA97qDZ.s 			page 28


 510:UIManager.cpp ****       break;
 511:UIManager.cpp ****     case SynthMode::Reverb:
 658              		.loc 1 511 5 is_stmt 1 view .LVU177
 512:UIManager.cpp ****       DebugPrint(pod_, "Synth mode now in: Reverb");
 659              		.loc 1 512 7 view .LVU178
 660              		.loc 1 512 7 view .LVU179
 661              	.LBB253:
 662              	.LBI253:
 126:../libDaisy/src/daisy_seed.h ****     {
 663              		.loc 3 126 17 view .LVU180
 664              	.LBB254:
 665              		.loc 3 128 23 is_stmt 0 view .LVU181
 666 0060 0B48     		ldr	r0, .L44+16
 667              	.LVL44:
 668              		.loc 3 128 23 view .LVU182
 669 0062 FFF7FEBF 		b	_ZN5daisy6LoggerILNS_17LoggerDestinationE1EE9PrintLineEPKcz
 670              	.LVL45:
 671              	.L40:
 672              		.loc 3 128 23 view .LVU183
 673              	.LBE254:
 674              	.LBE253:
 505:UIManager.cpp ****       DebugPrint(pod_, "Synth mode now in: PhasorMode_EnvType_Rnd");
 675              		.loc 1 505 5 is_stmt 1 view .LVU184
 506:UIManager.cpp ****         break;
 676              		.loc 1 506 7 view .LVU185
 506:UIManager.cpp ****         break;
 677              		.loc 1 506 7 view .LVU186
 678              	.LBB255:
 679              	.LBI255:
 126:../libDaisy/src/daisy_seed.h ****     {
 680              		.loc 3 126 17 view .LVU187
 681              	.LBB256:
 682              		.loc 3 128 23 is_stmt 0 view .LVU188
 683 0066 0B48     		ldr	r0, .L44+20
 684              	.LVL46:
 685              		.loc 3 128 23 view .LVU189
 686 0068 FFF7FEBF 		b	_ZN5daisy6LoggerILNS_17LoggerDestinationE1EE9PrintLineEPKcz
 687              	.LVL47:
 688              	.L37:
 689              		.loc 3 128 23 view .LVU190
 690              	.LBE256:
 691              	.LBE255:
 513:UIManager.cpp ****       break;
 514:UIManager.cpp ****     case SynthMode::Filter:
 692              		.loc 1 514 5 is_stmt 1 view .LVU191
 515:UIManager.cpp ****       DebugPrint(pod_, "Synth mode now in: Filter");
 693              		.loc 1 515 7 view .LVU192
 694              		.loc 1 515 7 view .LVU193
 695              	.LBB257:
 696              	.LBI257:
 126:../libDaisy/src/daisy_seed.h ****     {
 697              		.loc 3 126 17 view .LVU194
 698              	.LBB258:
 699              		.loc 3 128 23 is_stmt 0 view .LVU195
 700 006c 0A48     		ldr	r0, .L44+24
 701              	.LVL48:
 702              		.loc 3 128 23 view .LVU196
ARM GAS  /var/folders/2p/02m_5p7958535cp2tpgps0400000gn/T//ccA97qDZ.s 			page 29


 703 006e FFF7FEBF 		b	_ZN5daisy6LoggerILNS_17LoggerDestinationE1EE9PrintLineEPKcz
 704              	.LVL49:
 705              	.L42:
 706              		.loc 3 128 23 view .LVU197
 707              	.LBE258:
 708              	.LBE257:
 493:UIManager.cpp ****       DebugPrint(pod_, "Synth mode now in: Size_Position_Rnd");
 709              		.loc 1 493 5 is_stmt 1 view .LVU198
 494:UIManager.cpp ****         break;
 710              		.loc 1 494 7 view .LVU199
 494:UIManager.cpp ****         break;
 711              		.loc 1 494 7 view .LVU200
 712              	.LBB259:
 713              	.LBI259:
 126:../libDaisy/src/daisy_seed.h ****     {
 714              		.loc 3 126 17 view .LVU201
 715              	.LBB260:
 716              		.loc 3 128 23 is_stmt 0 view .LVU202
 717 0072 0A48     		ldr	r0, .L44+28
 718              	.LVL50:
 719              		.loc 3 128 23 view .LVU203
 720 0074 FFF7FEBF 		b	_ZN5daisy6LoggerILNS_17LoggerDestinationE1EE9PrintLineEPKcz
 721              	.LVL51:
 722              	.L41:
 723              		.loc 3 128 23 view .LVU204
 724              	.LBE260:
 725              	.LBE259:
 499:UIManager.cpp ****       DebugPrint(pod_, "Synth mode now in: Pitch_ActiveGrains_Rnd");
 726              		.loc 1 499 5 is_stmt 1 view .LVU205
 500:UIManager.cpp ****         break;
 727              		.loc 1 500 7 view .LVU206
 500:UIManager.cpp ****         break;
 728              		.loc 1 500 7 view .LVU207
 729              	.LBB261:
 730              	.LBI261:
 126:../libDaisy/src/daisy_seed.h ****     {
 731              		.loc 3 126 17 view .LVU208
 732              	.LBB262:
 733              		.loc 3 128 23 is_stmt 0 view .LVU209
 734 0078 0948     		ldr	r0, .L44+32
 735              	.LVL52:
 736              		.loc 3 128 23 view .LVU210
 737 007a FFF7FEBF 		b	_ZN5daisy6LoggerILNS_17LoggerDestinationE1EE9PrintLineEPKcz
 738              	.LVL53:
 739              	.L45:
 740 007e 00BF     		.align	2
 741              	.L44:
 742 0080 20000000 		.word	.LC1
 743 0084 00000000 		.word	.LC0
 744 0088 6C000000 		.word	.LC3
 745 008c C0000000 		.word	.LC5
 746 0090 14010000 		.word	.LC7
 747 0094 E8000000 		.word	.LC6
 748 0098 30010000 		.word	.LC8
 749 009c 44000000 		.word	.LC2
 750 00a0 94000000 		.word	.LC4
 751              	.LBE262:
ARM GAS  /var/folders/2p/02m_5p7958535cp2tpgps0400000gn/T//ccA97qDZ.s 			page 30


 752              	.LBE261:
 753              	.LBE267:
 754              	.LBE277:
 755              	.LBE284:
 756              		.cfi_endproc
 757              	.LFE2581:
 759              		.section	.text._ZN9UIManager13HandleButton2Ev,"ax",%progbits
 760              		.align	1
 761              		.p2align 2,,3
 762              		.global	_ZN9UIManager13HandleButton2Ev
 763              		.syntax unified
 764              		.thumb
 765              		.thumb_func
 767              	_ZN9UIManager13HandleButton2Ev:
 768              	.LVL54:
 769              	.LFB2582:
  86:UIManager.cpp ****     if (current_state_ == AppState::Synthesis){
 770              		.loc 1 86 32 is_stmt 1 view -0
 771              		.cfi_startproc
 772              		@ args = 0, pretend = 0, frame = 0
 773              		@ frame_needed = 0, uses_anonymous_args = 0
  87:UIManager.cpp ****       ToggleRandomnessControls();
 774              		.loc 1 87 5 view .LVU212
 775 0000 4368     		ldr	r3, [r0, #4]
 776 0002 032B     		cmp	r3, #3
 777 0004 00D0     		beq	.L64
 778 0006 7047     		bx	lr
 779              	.L64:
 780              	.LBB297:
 781              	.LBB298:
 782              	.LBB299:
 180:UIManager.cpp ****     case SynthMode::Size_Position:
 783              		.loc 1 180 10 is_stmt 0 view .LVU213
 784 0008 8368     		ldr	r3, [r0, #8]
 785              	.LBE299:
 786              	.LBE298:
 787              	.LBE297:
  86:UIManager.cpp ****     if (current_state_ == AppState::Synthesis){
 788              		.loc 1 86 32 view .LVU214
 789 000a 10B5     		push	{r4, lr}
 790              		.cfi_def_cfa_offset 8
 791              		.cfi_offset 4, -8
 792              		.cfi_offset 14, -4
 793 000c 0446     		mov	r4, r0
 794              	.LVL55:
 795              	.LBB326:
 796              	.LBI297:
  86:UIManager.cpp ****     if (current_state_ == AppState::Synthesis){
 797              		.loc 1 86 6 is_stmt 1 view .LVU215
 798              	.LBE326:
  88:UIManager.cpp ****       SetLedRandomMode();
 799              		.loc 1 88 7 view .LVU216
 800              	.LBB327:
 801              	.LBB303:
 802              	.LBI298:
 179:UIManager.cpp ****   switch(current_synth_mode_){
 803              		.loc 1 179 6 view .LVU217
ARM GAS  /var/folders/2p/02m_5p7958535cp2tpgps0400000gn/T//ccA97qDZ.s 			page 31


 804              	.LBB300:
 180:UIManager.cpp ****     case SynthMode::Size_Position:
 805              		.loc 1 180 3 view .LVU218
 806 000e 052B     		cmp	r3, #5
 807 0010 2FD8     		bhi	.L48
 808 0012 DFE803F0 		tbb	[pc, r3]
 809              	.L50:
 810 0016 18       		.byte	(.L55-.L50)/2
 811 0017 22       		.byte	(.L54-.L50)/2
 812 0018 25       		.byte	(.L53-.L50)/2
 813 0019 28       		.byte	(.L52-.L50)/2
 814 001a 2B       		.byte	(.L51-.L50)/2
 815 001b 03       		.byte	(.L49-.L50)/2
 816              	.LVL56:
 817              		.p2align 1
 818              	.L49:
 196:UIManager.cpp ****       current_synth_mode_ = SynthMode::PhasorMode_EnvType;
 819              		.loc 1 196 5 view .LVU219
 197:UIManager.cpp ****       break;
 820              		.loc 1 197 7 view .LVU220
 197:UIManager.cpp ****       break;
 821              		.loc 1 197 27 is_stmt 0 view .LVU221
 822 001c 0223     		movs	r3, #2
 823 001e 8360     		str	r3, [r0, #8]
 198:UIManager.cpp ****     default:
 824              		.loc 1 198 7 is_stmt 1 view .LVU222
 825              	.LVL57:
 826              	.L58:
 198:UIManager.cpp ****     default:
 827              		.loc 1 198 7 is_stmt 0 view .LVU223
 828              	.LBE300:
 829              	.LBE303:
 830              	.LBB304:
 831              	.LBB305:
 832              	.LBB306:
 833              	.LBI306:
 384:UIManager.cpp ****   if (current_state_==AppState::Synthesis){
 834              		.loc 1 384 6 is_stmt 1 view .LVU224
 835              	.LBE306:
 836              	.LBE305:
 837              	.LBE304:
 838              	.LBE327:
 387:UIManager.cpp ****       case SynthMode::Pitch_ActiveGrains:
 839              		.loc 1 387 7 view .LVU225
 388:UIManager.cpp ****       case SynthMode::PhasorMode_EnvType:
 840              		.loc 1 388 7 view .LVU226
 389:UIManager.cpp ****       case SynthMode::Pan_PanRnd:
 841              		.loc 1 389 7 view .LVU227
 390:UIManager.cpp ****         /* set led 2 to green*/
 842              		.loc 1 390 7 view .LVU228
 392:UIManager.cpp ****         break;
 843              		.loc 1 392 9 view .LVU229
 844              	.LBB328:
 845              	.LBB320:
 846              	.LBB316:
 847              	.LBB309:
 848              	.LBB307:
ARM GAS  /var/folders/2p/02m_5p7958535cp2tpgps0400000gn/T//ccA97qDZ.s 			page 32


 849              	.LBI307:
 435:UIManager.cpp ****   if (is_Led1){
 850              		.loc 1 435 6 view .LVU230
 851              	.LBB308:
 436:UIManager.cpp ****     pod_.led1.Set(r,g,b);
 852              		.loc 1 436 3 view .LVU231
 440:UIManager.cpp ****   }
 853              		.loc 1 440 5 view .LVU232
 440:UIManager.cpp ****   }
 854              		.loc 1 440 18 is_stmt 0 view .LVU233
 855 0020 9FED151A 		vldr.32	s2, .L65
 856 0024 2068     		ldr	r0, [r4]
 857              	.LVL58:
 440:UIManager.cpp ****   }
 858              		.loc 1 440 18 view .LVU234
 859 0026 B0EE410A 		vmov.f32	s0, s2
 860 002a DFED140A 		vldr.32	s1, .L65+4
 861              	.LVL59:
 862              	.L63:
 440:UIManager.cpp ****   }
 863              		.loc 1 440 18 view .LVU235
 864              	.LBE308:
 865              	.LBE307:
 866              	.LBE309:
 867              	.LBB310:
 868              	.LBB311:
 869 002e 00F59670 		add	r0, r0, #300
 870 0032 FFF7FEFF 		bl	_ZN5daisy6RgbLed3SetEfff
 871              	.LVL60:
 442:UIManager.cpp ****   System::Delay(10);
 872              		.loc 1 442 3 is_stmt 1 view .LVU236
 442:UIManager.cpp ****   System::Delay(10);
 873              		.loc 1 442 18 is_stmt 0 view .LVU237
 874 0036 2068     		ldr	r0, [r4]
 875 0038 FFF7FEFF 		bl	_ZN5daisy8DaisyPod10UpdateLedsEv
 876              	.LVL61:
 443:UIManager.cpp **** }
 877              		.loc 1 443 3 is_stmt 1 view .LVU238
 443:UIManager.cpp **** }
 878              		.loc 1 443 16 is_stmt 0 view .LVU239
 879 003c 0A20     		movs	r0, #10
 880              	.LBE311:
 881              	.LBE310:
 882              	.LBE316:
 883              	.LBE320:
 884              	.LBE328:
  91:UIManager.cpp **** 
 885              		.loc 1 91 1 view .LVU240
 886 003e BDE81040 		pop	{r4, lr}
 887              		.cfi_remember_state
 888              		.cfi_restore 14
 889              		.cfi_restore 4
 890              		.cfi_def_cfa_offset 0
 891              	.LVL62:
 892              	.LBB329:
 893              	.LBB321:
 894              	.LBB317:
ARM GAS  /var/folders/2p/02m_5p7958535cp2tpgps0400000gn/T//ccA97qDZ.s 			page 33


 895              	.LBB314:
 896              	.LBB312:
 443:UIManager.cpp **** }
 897              		.loc 1 443 16 view .LVU241
 898 0042 FFF7FEBF 		b	_ZN5daisy6System5DelayEm
 899              	.LVL63:
 900              	.L55:
 901              		.cfi_restore_state
 443:UIManager.cpp **** }
 902              		.loc 1 443 16 view .LVU242
 903              	.LBE312:
 904              	.LBE314:
 905              	.LBE317:
 906              	.LBE321:
 907              	.LBB322:
 908              	.LBB301:
 181:UIManager.cpp ****       current_synth_mode_ = SynthMode::Size_Position_Rnd;
 909              		.loc 1 181 5 is_stmt 1 view .LVU243
 182:UIManager.cpp ****       break;
 910              		.loc 1 182 7 view .LVU244
 182:UIManager.cpp ****       break;
 911              		.loc 1 182 27 is_stmt 0 view .LVU245
 912 0046 0323     		movs	r3, #3
 913 0048 8360     		str	r3, [r0, #8]
 183:UIManager.cpp ****     case SynthMode::Size_Position_Rnd:
 914              		.loc 1 183 7 is_stmt 1 view .LVU246
 915              	.L56:
 916              	.LVL64:
 183:UIManager.cpp ****     case SynthMode::Size_Position_Rnd:
 917              		.loc 1 183 7 is_stmt 0 view .LVU247
 918              	.LBE301:
 919              	.LBE322:
 920              	.LBE329:
  89:UIManager.cpp ****     }
 921              		.loc 1 89 7 is_stmt 1 view .LVU248
 922              	.LBB330:
 923              	.LBB323:
 924              	.LBI304:
 384:UIManager.cpp ****   if (current_state_==AppState::Synthesis){
 925              		.loc 1 384 6 view .LVU249
 926              	.LBB318:
 385:UIManager.cpp ****     switch(current_synth_mode_){
 927              		.loc 1 385 3 view .LVU250
 386:UIManager.cpp ****       case SynthMode::Size_Position:
 928              		.loc 1 386 5 view .LVU251
 395:UIManager.cpp ****       case SynthMode::Pitch_ActiveGrains_Rnd:
 929              		.loc 1 395 7 view .LVU252
 396:UIManager.cpp ****       case SynthMode::PhasorMode_EnvType_Rnd:
 930              		.loc 1 396 7 view .LVU253
 397:UIManager.cpp ****         /* set led 2 to red*/
 931              		.loc 1 397 7 view .LVU254
 399:UIManager.cpp ****         break;
 932              		.loc 1 399 9 view .LVU255
 933              	.LBB315:
 934              	.LBI310:
 435:UIManager.cpp ****   if (is_Led1){
 935              		.loc 1 435 6 view .LVU256
ARM GAS  /var/folders/2p/02m_5p7958535cp2tpgps0400000gn/T//ccA97qDZ.s 			page 34


 936              	.LBB313:
 436:UIManager.cpp ****     pod_.led1.Set(r,g,b);
 937              		.loc 1 436 3 view .LVU257
 440:UIManager.cpp ****   }
 938              		.loc 1 440 5 view .LVU258
 440:UIManager.cpp ****   }
 939              		.loc 1 440 18 is_stmt 0 view .LVU259
 940 004a 9FED0B1A 		vldr.32	s2, .L65
 941 004e 2068     		ldr	r0, [r4]
 942              	.LVL65:
 440:UIManager.cpp ****   }
 943              		.loc 1 440 18 view .LVU260
 944 0050 F0EE410A 		vmov.f32	s1, s2
 945 0054 9FED090A 		vldr.32	s0, .L65+4
 946 0058 E9E7     		b	.L63
 947              	.LVL66:
 948              	.L54:
 440:UIManager.cpp ****   }
 949              		.loc 1 440 18 view .LVU261
 950              	.LBE313:
 951              	.LBE315:
 952              	.LBE318:
 953              	.LBE323:
 954              	.LBB324:
 955              	.LBB302:
 187:UIManager.cpp ****       current_synth_mode_ = SynthMode::Pitch_ActiveGrains_Rnd;
 956              		.loc 1 187 5 is_stmt 1 view .LVU262
 188:UIManager.cpp ****       break;
 957              		.loc 1 188 7 view .LVU263
 188:UIManager.cpp ****       break;
 958              		.loc 1 188 27 is_stmt 0 view .LVU264
 959 005a 0423     		movs	r3, #4
 960 005c 8360     		str	r3, [r0, #8]
 189:UIManager.cpp ****     case SynthMode::Pitch_ActiveGrains_Rnd:
 961              		.loc 1 189 7 is_stmt 1 view .LVU265
 962 005e F4E7     		b	.L56
 963              	.L53:
 193:UIManager.cpp ****       current_synth_mode_ = SynthMode::PhasorMode_EnvType_Rnd;
 964              		.loc 1 193 5 view .LVU266
 194:UIManager.cpp ****       break;      
 965              		.loc 1 194 7 view .LVU267
 194:UIManager.cpp ****       break;      
 966              		.loc 1 194 27 is_stmt 0 view .LVU268
 967 0060 0523     		movs	r3, #5
 968 0062 8360     		str	r3, [r0, #8]
 195:UIManager.cpp ****     case SynthMode::PhasorMode_EnvType_Rnd:
 969              		.loc 1 195 7 is_stmt 1 view .LVU269
 970 0064 F1E7     		b	.L56
 971              	.L52:
 184:UIManager.cpp ****       current_synth_mode_ = SynthMode::Size_Position;
 972              		.loc 1 184 5 view .LVU270
 185:UIManager.cpp ****       break;
 973              		.loc 1 185 7 view .LVU271
 185:UIManager.cpp ****       break;
 974              		.loc 1 185 27 is_stmt 0 view .LVU272
 975 0066 0023     		movs	r3, #0
 976 0068 8360     		str	r3, [r0, #8]
ARM GAS  /var/folders/2p/02m_5p7958535cp2tpgps0400000gn/T//ccA97qDZ.s 			page 35


 186:UIManager.cpp ****     case SynthMode::Pitch_ActiveGrains:
 977              		.loc 1 186 7 is_stmt 1 view .LVU273
 978 006a D9E7     		b	.L58
 979              	.L51:
 190:UIManager.cpp ****       current_synth_mode_ = SynthMode::Pitch_ActiveGrains;
 980              		.loc 1 190 5 view .LVU274
 191:UIManager.cpp ****       break;
 981              		.loc 1 191 7 view .LVU275
 191:UIManager.cpp ****       break;
 982              		.loc 1 191 27 is_stmt 0 view .LVU276
 983 006c 0123     		movs	r3, #1
 984 006e 8360     		str	r3, [r0, #8]
 192:UIManager.cpp ****     case SynthMode::PhasorMode_EnvType:
 985              		.loc 1 192 7 is_stmt 1 view .LVU277
 986 0070 D6E7     		b	.L58
 987              	.L48:
 988              	.LVL67:
 192:UIManager.cpp ****     case SynthMode::PhasorMode_EnvType:
 989              		.loc 1 192 7 is_stmt 0 view .LVU278
 990              	.LBE302:
 991              	.LBE324:
 992              	.LBE330:
  89:UIManager.cpp ****     }
 993              		.loc 1 89 7 is_stmt 1 view .LVU279
 994              	.LBB331:
 995              	.LBB325:
 384:UIManager.cpp ****   if (current_state_==AppState::Synthesis){
 996              		.loc 1 384 6 view .LVU280
 997              	.LBB319:
 385:UIManager.cpp ****     switch(current_synth_mode_){
 998              		.loc 1 385 3 view .LVU281
 386:UIManager.cpp ****       case SynthMode::Size_Position:
 999              		.loc 1 386 5 view .LVU282
 1000 0072 062B     		cmp	r3, #6
 1001 0074 D4D0     		beq	.L58
 1002              	.LBE319:
 1003              	.LBE325:
 1004              	.LBE331:
  91:UIManager.cpp **** 
 1005              		.loc 1 91 1 is_stmt 0 view .LVU283
 1006 0076 10BD     		pop	{r4, pc}
 1007              	.L66:
 1008              		.align	2
 1009              	.L65:
 1010 0078 00000000 		.word	0
 1011 007c 00007F43 		.word	1132396544
 1012              		.cfi_endproc
 1013              	.LFE2582:
 1015              		.section	.text._ZN9UIManager22HandleButton1LongPressEv,"ax",%progbits
 1016              		.align	1
 1017              		.p2align 2,,3
 1018              		.global	_ZN9UIManager22HandleButton1LongPressEv
 1019              		.syntax unified
 1020              		.thumb
 1021              		.thumb_func
 1023              	_ZN9UIManager22HandleButton1LongPressEv:
 1024              	.LVL68:
ARM GAS  /var/folders/2p/02m_5p7958535cp2tpgps0400000gn/T//ccA97qDZ.s 			page 36


 1025              	.LFB2583:
  93:UIManager.cpp ****   if (current_state_ == AppState::Synthesis){
 1026              		.loc 1 93 41 is_stmt 1 view -0
 1027              		.cfi_startproc
 1028              		@ args = 0, pretend = 0, frame = 0
 1029              		@ frame_needed = 0, uses_anonymous_args = 0
  94:UIManager.cpp ****     ToggleReverbControls();
 1030              		.loc 1 94 3 view .LVU285
 1031 0000 4368     		ldr	r3, [r0, #4]
 1032 0002 032B     		cmp	r3, #3
 1033 0004 00D0     		beq	.L82
 1034 0006 7047     		bx	lr
 1035              	.L82:
 1036              	.LBB344:
 1037              	.LBB345:
 1038              	.LBB346:
 205:UIManager.cpp ****     current_synth_mode_ = prev_synth_mode_;
 1039              		.loc 1 205 7 is_stmt 0 view .LVU286
 1040 0008 8368     		ldr	r3, [r0, #8]
 205:UIManager.cpp ****     current_synth_mode_ = prev_synth_mode_;
 1041              		.loc 1 205 3 view .LVU287
 1042 000a 072B     		cmp	r3, #7
 1043              	.LBE346:
 1044              	.LBE345:
 1045              	.LBE344:
  93:UIManager.cpp ****   if (current_state_ == AppState::Synthesis){
 1046              		.loc 1 93 41 view .LVU288
 1047 000c 10B5     		push	{r4, lr}
 1048              		.cfi_def_cfa_offset 8
 1049              		.cfi_offset 4, -8
 1050              		.cfi_offset 14, -4
 1051 000e 0446     		mov	r4, r0
 1052              	.LVL69:
 1053              	.LBB371:
 1054              	.LBI344:
  93:UIManager.cpp ****   if (current_state_ == AppState::Synthesis){
 1055              		.loc 1 93 6 is_stmt 1 view .LVU289
 1056              	.LBE371:
  95:UIManager.cpp ****     SetLedFXMode();
 1057              		.loc 1 95 5 view .LVU290
 1058              	.LBB372:
 1059              	.LBB349:
 1060              	.LBI345:
 204:UIManager.cpp ****   if (current_synth_mode_==SynthMode::Reverb){
 1061              		.loc 1 204 6 view .LVU291
 1062              	.LBB347:
 205:UIManager.cpp ****     current_synth_mode_ = prev_synth_mode_;
 1063              		.loc 1 205 3 view .LVU292
 1064 0010 15D0     		beq	.L83
 1065              	.LVL70:
 209:UIManager.cpp ****     current_synth_mode_ = SynthMode::Reverb;
 1066              		.loc 1 209 5 view .LVU293
 1067 0012 0722     		movs	r2, #7
 209:UIManager.cpp ****     current_synth_mode_ = SynthMode::Reverb;
 1068              		.loc 1 209 22 is_stmt 0 view .LVU294
 1069 0014 0361     		str	r3, [r0, #16]
 210:UIManager.cpp ****   }
ARM GAS  /var/folders/2p/02m_5p7958535cp2tpgps0400000gn/T//ccA97qDZ.s 			page 37


 1070              		.loc 1 210 5 is_stmt 1 view .LVU295
 1071 0016 8260     		str	r2, [r0, #8]
 1072              	.LVL71:
 210:UIManager.cpp ****   }
 1073              		.loc 1 210 5 is_stmt 0 view .LVU296
 1074              	.LBE347:
 1075              	.LBE349:
 1076              	.LBE372:
  96:UIManager.cpp ****   }
 1077              		.loc 1 96 5 is_stmt 1 view .LVU297
 1078              	.LBB373:
 1079              	.LBB350:
 1080              	.LBI350:
 407:UIManager.cpp ****   if (current_state_ == AppState::Synthesis){
 1081              		.loc 1 407 6 view .LVU298
 1082              	.LBB351:
 408:UIManager.cpp ****     switch(current_synth_mode_){
 1083              		.loc 1 408 3 view .LVU299
 409:UIManager.cpp ****       case SynthMode::Reverb:
 1084              		.loc 1 409 5 view .LVU300
 1085              	.L70:
 1086              	.LBB352:
 1087              	.LBI352:
 407:UIManager.cpp ****   if (current_state_ == AppState::Synthesis){
 1088              		.loc 1 407 6 view .LVU301
 1089              	.LBE352:
 1090              	.LBE351:
 1091              	.LBE350:
 1092              	.LBE373:
 410:UIManager.cpp ****         /* set led 2 to cyan */
 1093              		.loc 1 410 7 view .LVU302
 412:UIManager.cpp ****         break;
 1094              		.loc 1 412 9 view .LVU303
 1095              	.LBB374:
 1096              	.LBB366:
 1097              	.LBB362:
 1098              	.LBB355:
 1099              	.LBB353:
 1100              	.LBI353:
 435:UIManager.cpp ****   if (is_Led1){
 1101              		.loc 1 435 6 view .LVU304
 1102              	.LBB354:
 436:UIManager.cpp ****     pod_.led1.Set(r,g,b);
 1103              		.loc 1 436 3 view .LVU305
 440:UIManager.cpp ****   }
 1104              		.loc 1 440 5 view .LVU306
 440:UIManager.cpp ****   }
 1105              		.loc 1 440 18 is_stmt 0 view .LVU307
 1106 0018 9FED101A 		vldr.32	s2, .L85
 1107 001c 2068     		ldr	r0, [r4]
 1108              	.LVL72:
 440:UIManager.cpp ****   }
 1109              		.loc 1 440 18 view .LVU308
 1110 001e F0EE410A 		vmov.f32	s1, s2
 1111 0022 9FED0F0A 		vldr.32	s0, .L85+4
 1112              	.LVL73:
 1113              	.L81:
ARM GAS  /var/folders/2p/02m_5p7958535cp2tpgps0400000gn/T//ccA97qDZ.s 			page 38


 440:UIManager.cpp ****   }
 1114              		.loc 1 440 18 view .LVU309
 1115              	.LBE354:
 1116              	.LBE353:
 1117              	.LBE355:
 1118              	.LBB356:
 1119              	.LBB357:
 1120 0026 00F59670 		add	r0, r0, #300
 1121 002a FFF7FEFF 		bl	_ZN5daisy6RgbLed3SetEfff
 1122              	.LVL74:
 442:UIManager.cpp ****   System::Delay(10);
 1123              		.loc 1 442 3 is_stmt 1 view .LVU310
 442:UIManager.cpp ****   System::Delay(10);
 1124              		.loc 1 442 18 is_stmt 0 view .LVU311
 1125 002e 2068     		ldr	r0, [r4]
 1126 0030 FFF7FEFF 		bl	_ZN5daisy8DaisyPod10UpdateLedsEv
 1127              	.LVL75:
 443:UIManager.cpp **** }
 1128              		.loc 1 443 3 is_stmt 1 view .LVU312
 443:UIManager.cpp **** }
 1129              		.loc 1 443 16 is_stmt 0 view .LVU313
 1130 0034 0A20     		movs	r0, #10
 1131              	.LBE357:
 1132              	.LBE356:
 1133              	.LBE362:
 1134              	.LBE366:
 1135              	.LBE374:
  98:UIManager.cpp **** 
 1136              		.loc 1 98 1 view .LVU314
 1137 0036 BDE81040 		pop	{r4, lr}
 1138              		.cfi_remember_state
 1139              		.cfi_restore 14
 1140              		.cfi_restore 4
 1141              		.cfi_def_cfa_offset 0
 1142              	.LVL76:
 1143              	.LBB375:
 1144              	.LBB367:
 1145              	.LBB363:
 1146              	.LBB360:
 1147              	.LBB358:
 443:UIManager.cpp **** }
 1148              		.loc 1 443 16 view .LVU315
 1149 003a FFF7FEBF 		b	_ZN5daisy6System5DelayEm
 1150              	.LVL77:
 1151              	.L83:
 1152              		.cfi_restore_state
 443:UIManager.cpp **** }
 1153              		.loc 1 443 16 view .LVU316
 1154              	.LBE358:
 1155              	.LBE360:
 1156              	.LBE363:
 1157              	.LBE367:
 1158              	.LBB368:
 1159              	.LBB348:
 206:UIManager.cpp ****   }
 1160              		.loc 1 206 5 is_stmt 1 view .LVU317
 206:UIManager.cpp ****   }
ARM GAS  /var/folders/2p/02m_5p7958535cp2tpgps0400000gn/T//ccA97qDZ.s 			page 39


 1161              		.loc 1 206 27 is_stmt 0 view .LVU318
 1162 003e 0369     		ldr	r3, [r0, #16]
 1163              	.LBE348:
 1164              	.LBE368:
 1165              	.LBB369:
 1166              	.LBB364:
 409:UIManager.cpp ****       case SynthMode::Reverb:
 1167              		.loc 1 409 5 view .LVU319
 1168 0040 072B     		cmp	r3, #7
 1169 0042 8360     		str	r3, [r0, #8]
 1170              	.LVL78:
 409:UIManager.cpp ****       case SynthMode::Reverb:
 1171              		.loc 1 409 5 view .LVU320
 1172              	.LBE364:
 1173              	.LBE369:
 1174              	.LBE375:
  96:UIManager.cpp ****   }
 1175              		.loc 1 96 5 is_stmt 1 view .LVU321
 1176              	.LBB376:
 1177              	.LBB370:
 407:UIManager.cpp ****   if (current_state_ == AppState::Synthesis){
 1178              		.loc 1 407 6 view .LVU322
 1179              	.LBB365:
 408:UIManager.cpp ****     switch(current_synth_mode_){
 1180              		.loc 1 408 3 view .LVU323
 409:UIManager.cpp ****       case SynthMode::Reverb:
 1181              		.loc 1 409 5 view .LVU324
 1182 0044 E8D0     		beq	.L70
 1183 0046 082B     		cmp	r3, #8
 1184 0048 07D1     		bne	.L84
 414:UIManager.cpp ****         /* set led 2 to yellow */
 1185              		.loc 1 414 7 view .LVU325
 416:UIManager.cpp ****         break;
 1186              		.loc 1 416 9 view .LVU326
 1187              	.LVL79:
 1188              	.LBB361:
 1189              	.LBI356:
 435:UIManager.cpp ****   if (is_Led1){
 1190              		.loc 1 435 6 view .LVU327
 1191              	.LBB359:
 436:UIManager.cpp ****     pod_.led1.Set(r,g,b);
 1192              		.loc 1 436 3 view .LVU328
 440:UIManager.cpp ****   }
 1193              		.loc 1 440 5 view .LVU329
 440:UIManager.cpp ****   }
 1194              		.loc 1 440 18 is_stmt 0 view .LVU330
 1195 004a DFED040A 		vldr.32	s1, .L85
 1196 004e 0068     		ldr	r0, [r0]
 1197              	.LVL80:
 440:UIManager.cpp ****   }
 1198              		.loc 1 440 18 view .LVU331
 1199 0050 B0EE600A 		vmov.f32	s0, s1
 1200 0054 9FED021A 		vldr.32	s2, .L85+4
 1201 0058 E5E7     		b	.L81
 1202              	.LVL81:
 1203              	.L84:
 440:UIManager.cpp ****   }
ARM GAS  /var/folders/2p/02m_5p7958535cp2tpgps0400000gn/T//ccA97qDZ.s 			page 40


 1204              		.loc 1 440 18 view .LVU332
 1205              	.LBE359:
 1206              	.LBE361:
 1207              	.LBE365:
 1208              	.LBE370:
 1209              	.LBE376:
  98:UIManager.cpp **** 
 1210              		.loc 1 98 1 view .LVU333
 1211 005a 10BD     		pop	{r4, pc}
 1212              	.L86:
 1213              		.align	2
 1214              	.L85:
 1215 005c 00007F43 		.word	1132396544
 1216 0060 00000000 		.word	0
 1217              		.cfi_endproc
 1218              	.LFE2583:
 1220              		.section	.text._ZN9UIManager22HandleButton2LongPressEv,"ax",%progbits
 1221              		.align	1
 1222              		.p2align 2,,3
 1223              		.global	_ZN9UIManager22HandleButton2LongPressEv
 1224              		.syntax unified
 1225              		.thumb
 1226              		.thumb_func
 1228              	_ZN9UIManager22HandleButton2LongPressEv:
 1229              	.LVL82:
 1230              	.LFB2584:
 100:UIManager.cpp ****   if (current_state_ == AppState::Synthesis){
 1231              		.loc 1 100 41 is_stmt 1 view -0
 1232              		.cfi_startproc
 1233              		@ args = 0, pretend = 0, frame = 0
 1234              		@ frame_needed = 0, uses_anonymous_args = 0
 101:UIManager.cpp ****     ToggleFilterControls();
 1235              		.loc 1 101 3 view .LVU335
 1236 0000 4368     		ldr	r3, [r0, #4]
 1237 0002 032B     		cmp	r3, #3
 1238 0004 00D0     		beq	.L102
 1239 0006 7047     		bx	lr
 1240              	.L102:
 1241              	.LBB389:
 1242              	.LBB390:
 1243              	.LBB391:
 215:UIManager.cpp ****     current_synth_mode_ = prev_synth_mode_;
 1244              		.loc 1 215 7 is_stmt 0 view .LVU336
 1245 0008 8368     		ldr	r3, [r0, #8]
 215:UIManager.cpp ****     current_synth_mode_ = prev_synth_mode_;
 1246              		.loc 1 215 3 view .LVU337
 1247 000a 082B     		cmp	r3, #8
 1248              	.LBE391:
 1249              	.LBE390:
 1250              	.LBE389:
 100:UIManager.cpp ****   if (current_state_ == AppState::Synthesis){
 1251              		.loc 1 100 41 view .LVU338
 1252 000c 10B5     		push	{r4, lr}
 1253              		.cfi_def_cfa_offset 8
 1254              		.cfi_offset 4, -8
 1255              		.cfi_offset 14, -4
 1256 000e 0446     		mov	r4, r0
ARM GAS  /var/folders/2p/02m_5p7958535cp2tpgps0400000gn/T//ccA97qDZ.s 			page 41


 1257              	.LVL83:
 1258              	.LBB414:
 1259              	.LBI389:
 100:UIManager.cpp ****   if (current_state_ == AppState::Synthesis){
 1260              		.loc 1 100 6 is_stmt 1 view .LVU339
 1261              	.LBE414:
 102:UIManager.cpp ****     SetLedFXMode();
 1262              		.loc 1 102 5 view .LVU340
 1263              	.LBB415:
 1264              	.LBB394:
 1265              	.LBI390:
 214:UIManager.cpp ****   if (current_synth_mode_==SynthMode::Filter){
 1266              		.loc 1 214 6 view .LVU341
 1267              	.LBB392:
 215:UIManager.cpp ****     current_synth_mode_ = prev_synth_mode_;
 1268              		.loc 1 215 3 view .LVU342
 1269 0010 15D0     		beq	.L103
 1270              	.LVL84:
 219:UIManager.cpp ****     current_synth_mode_ = SynthMode::Filter;
 1271              		.loc 1 219 5 view .LVU343
 1272 0012 0822     		movs	r2, #8
 219:UIManager.cpp ****     current_synth_mode_ = SynthMode::Filter;
 1273              		.loc 1 219 22 is_stmt 0 view .LVU344
 1274 0014 0361     		str	r3, [r0, #16]
 220:UIManager.cpp ****   }
 1275              		.loc 1 220 5 is_stmt 1 view .LVU345
 1276 0016 8260     		str	r2, [r0, #8]
 1277              	.LVL85:
 220:UIManager.cpp ****   }
 1278              		.loc 1 220 5 is_stmt 0 view .LVU346
 1279              	.LBE392:
 1280              	.LBE394:
 1281              	.LBE415:
 103:UIManager.cpp ****   }
 1282              		.loc 1 103 5 is_stmt 1 view .LVU347
 1283              	.LBB416:
 1284              	.LBB395:
 1285              	.LBI395:
 407:UIManager.cpp ****   if (current_state_ == AppState::Synthesis){
 1286              		.loc 1 407 6 view .LVU348
 1287              	.LBB396:
 408:UIManager.cpp ****     switch(current_synth_mode_){
 1288              		.loc 1 408 3 view .LVU349
 409:UIManager.cpp ****       case SynthMode::Reverb:
 1289              		.loc 1 409 5 view .LVU350
 1290              	.L92:
 414:UIManager.cpp ****         /* set led 2 to yellow */
 1291              		.loc 1 414 7 view .LVU351
 416:UIManager.cpp ****         break;
 1292              		.loc 1 416 9 view .LVU352
 1293              	.LBB397:
 1294              	.LBI397:
 435:UIManager.cpp ****   if (is_Led1){
 1295              		.loc 1 435 6 view .LVU353
 1296              	.LBB398:
 436:UIManager.cpp ****     pod_.led1.Set(r,g,b);
 1297              		.loc 1 436 3 view .LVU354
ARM GAS  /var/folders/2p/02m_5p7958535cp2tpgps0400000gn/T//ccA97qDZ.s 			page 42


 440:UIManager.cpp ****   }
 1298              		.loc 1 440 5 view .LVU355
 440:UIManager.cpp ****   }
 1299              		.loc 1 440 18 is_stmt 0 view .LVU356
 1300 0018 DFED100A 		vldr.32	s1, .L105
 1301 001c 2068     		ldr	r0, [r4]
 1302              	.LVL86:
 440:UIManager.cpp ****   }
 1303              		.loc 1 440 18 view .LVU357
 1304 001e B0EE600A 		vmov.f32	s0, s1
 1305 0022 9FED0F1A 		vldr.32	s2, .L105+4
 1306              	.LVL87:
 1307              	.L101:
 440:UIManager.cpp ****   }
 1308              		.loc 1 440 18 view .LVU358
 1309 0026 00F59670 		add	r0, r0, #300
 1310 002a FFF7FEFF 		bl	_ZN5daisy6RgbLed3SetEfff
 1311              	.LVL88:
 442:UIManager.cpp ****   System::Delay(10);
 1312              		.loc 1 442 3 is_stmt 1 view .LVU359
 442:UIManager.cpp ****   System::Delay(10);
 1313              		.loc 1 442 18 is_stmt 0 view .LVU360
 1314 002e 2068     		ldr	r0, [r4]
 1315 0030 FFF7FEFF 		bl	_ZN5daisy8DaisyPod10UpdateLedsEv
 1316              	.LVL89:
 443:UIManager.cpp **** }
 1317              		.loc 1 443 3 is_stmt 1 view .LVU361
 443:UIManager.cpp **** }
 1318              		.loc 1 443 16 is_stmt 0 view .LVU362
 1319 0034 0A20     		movs	r0, #10
 1320              	.LBE398:
 1321              	.LBE397:
 1322              	.LBE396:
 1323              	.LBE395:
 1324              	.LBE416:
 105:UIManager.cpp **** 
 1325              		.loc 1 105 1 view .LVU363
 1326 0036 BDE81040 		pop	{r4, lr}
 1327              		.cfi_remember_state
 1328              		.cfi_restore 14
 1329              		.cfi_restore 4
 1330              		.cfi_def_cfa_offset 0
 1331              	.LVL90:
 1332              	.LBB417:
 1333              	.LBB409:
 1334              	.LBB405:
 1335              	.LBB400:
 1336              	.LBB399:
 443:UIManager.cpp **** }
 1337              		.loc 1 443 16 view .LVU364
 1338 003a FFF7FEBF 		b	_ZN5daisy6System5DelayEm
 1339              	.LVL91:
 1340              	.L103:
 1341              		.cfi_restore_state
 443:UIManager.cpp **** }
 1342              		.loc 1 443 16 view .LVU365
 1343              	.LBE399:
ARM GAS  /var/folders/2p/02m_5p7958535cp2tpgps0400000gn/T//ccA97qDZ.s 			page 43


 1344              	.LBE400:
 1345              	.LBE405:
 1346              	.LBE409:
 1347              	.LBB410:
 1348              	.LBB393:
 216:UIManager.cpp ****   }
 1349              		.loc 1 216 5 is_stmt 1 view .LVU366
 216:UIManager.cpp ****   }
 1350              		.loc 1 216 27 is_stmt 0 view .LVU367
 1351 003e 0369     		ldr	r3, [r0, #16]
 1352              	.LBE393:
 1353              	.LBE410:
 1354              	.LBB411:
 1355              	.LBB406:
 409:UIManager.cpp ****       case SynthMode::Reverb:
 1356              		.loc 1 409 5 view .LVU368
 1357 0040 072B     		cmp	r3, #7
 1358 0042 8360     		str	r3, [r0, #8]
 1359              	.LVL92:
 409:UIManager.cpp ****       case SynthMode::Reverb:
 1360              		.loc 1 409 5 view .LVU369
 1361              	.LBE406:
 1362              	.LBE411:
 1363              	.LBE417:
 103:UIManager.cpp ****   }
 1364              		.loc 1 103 5 is_stmt 1 view .LVU370
 1365              	.LBB418:
 1366              	.LBB412:
 407:UIManager.cpp ****   if (current_state_ == AppState::Synthesis){
 1367              		.loc 1 407 6 view .LVU371
 1368              	.LBB407:
 408:UIManager.cpp ****     switch(current_synth_mode_){
 1369              		.loc 1 408 3 view .LVU372
 409:UIManager.cpp ****       case SynthMode::Reverb:
 1370              		.loc 1 409 5 view .LVU373
 1371 0044 07D1     		bne	.L104
 1372              	.LVL93:
 1373              	.LBB401:
 1374              	.LBI401:
 407:UIManager.cpp ****   if (current_state_ == AppState::Synthesis){
 1375              		.loc 1 407 6 view .LVU374
 1376              	.LBE401:
 1377              	.LBE407:
 1378              	.LBE412:
 1379              	.LBE418:
 410:UIManager.cpp ****         /* set led 2 to cyan */
 1380              		.loc 1 410 7 view .LVU375
 412:UIManager.cpp ****         break;
 1381              		.loc 1 412 9 view .LVU376
 1382              	.LBB419:
 1383              	.LBB413:
 1384              	.LBB408:
 1385              	.LBB404:
 1386              	.LBB402:
 1387              	.LBI402:
 435:UIManager.cpp ****   if (is_Led1){
 1388              		.loc 1 435 6 view .LVU377
ARM GAS  /var/folders/2p/02m_5p7958535cp2tpgps0400000gn/T//ccA97qDZ.s 			page 44


 1389              	.LBB403:
 436:UIManager.cpp ****     pod_.led1.Set(r,g,b);
 1390              		.loc 1 436 3 view .LVU378
 440:UIManager.cpp ****   }
 1391              		.loc 1 440 5 view .LVU379
 440:UIManager.cpp ****   }
 1392              		.loc 1 440 18 is_stmt 0 view .LVU380
 1393 0046 9FED051A 		vldr.32	s2, .L105
 1394 004a 0068     		ldr	r0, [r0]
 1395              	.LVL94:
 440:UIManager.cpp ****   }
 1396              		.loc 1 440 18 view .LVU381
 1397 004c F0EE410A 		vmov.f32	s1, s2
 1398 0050 9FED030A 		vldr.32	s0, .L105+4
 1399 0054 E7E7     		b	.L101
 1400              	.LVL95:
 1401              	.L104:
 440:UIManager.cpp ****   }
 1402              		.loc 1 440 18 view .LVU382
 1403              	.LBE403:
 1404              	.LBE402:
 1405              	.LBE404:
 409:UIManager.cpp ****       case SynthMode::Reverb:
 1406              		.loc 1 409 5 view .LVU383
 1407 0056 082B     		cmp	r3, #8
 1408 0058 DED0     		beq	.L92
 1409              	.LBE408:
 1410              	.LBE413:
 1411              	.LBE419:
 105:UIManager.cpp **** 
 1412              		.loc 1 105 1 view .LVU384
 1413 005a 10BD     		pop	{r4, pc}
 1414              	.L106:
 1415              		.align	2
 1416              	.L105:
 1417 005c 00007F43 		.word	1132396544
 1418 0060 00000000 		.word	0
 1419              		.cfi_endproc
 1420              	.LFE2584:
 1422              		.section	.text._ZN9UIManager20HandleEncoderPressedEv,"ax",%progbits
 1423              		.align	1
 1424              		.p2align 2,,3
 1425              		.global	_ZN9UIManager20HandleEncoderPressedEv
 1426              		.syntax unified
 1427              		.thumb
 1428              		.thumb_func
 1430              	_ZN9UIManager20HandleEncoderPressedEv:
 1431              	.LVL96:
 1432              	.LFB2585:
 107:UIManager.cpp ****   switch(current_state_){
 1433              		.loc 1 107 39 is_stmt 1 view -0
 1434              		.cfi_startproc
 1435              		@ args = 0, pretend = 0, frame = 0
 1436              		@ frame_needed = 0, uses_anonymous_args = 0
 1437              		@ link register save eliminated.
 108:UIManager.cpp ****     case AppState::SelectFile:
 1438              		.loc 1 108 3 view .LVU386
ARM GAS  /var/folders/2p/02m_5p7958535cp2tpgps0400000gn/T//ccA97qDZ.s 			page 45


 108:UIManager.cpp ****     case AppState::SelectFile:
 1439              		.loc 1 108 10 is_stmt 0 view .LVU387
 1440 0000 4368     		ldr	r3, [r0, #4]
 108:UIManager.cpp ****     case AppState::SelectFile:
 1441              		.loc 1 108 3 view .LVU388
 1442 0002 022B     		cmp	r3, #2
 1443 0004 02DC     		bgt	.L108
 1444 0006 002B     		cmp	r3, #0
 1445 0008 02DC     		bgt	.L109
 1446              	.L107:
 119:UIManager.cpp **** 
 1447              		.loc 1 119 1 view .LVU389
 1448 000a 7047     		bx	lr
 1449              	.L108:
 108:UIManager.cpp ****     case AppState::SelectFile:
 1450              		.loc 1 108 3 view .LVU390
 1451 000c 042B     		cmp	r3, #4
 1452 000e FCD1     		bne	.L107
 1453              	.L109:
 113:UIManager.cpp ****       current_state_ = AppState::Synthesis;
 1454              		.loc 1 113 5 is_stmt 1 view .LVU391
 114:UIManager.cpp ****       break;
 1455              		.loc 1 114 7 view .LVU392
 114:UIManager.cpp ****       break;
 1456              		.loc 1 114 22 is_stmt 0 view .LVU393
 1457 0010 0323     		movs	r3, #3
 1458 0012 4360     		str	r3, [r0, #4]
 115:UIManager.cpp ****     default:
 1459              		.loc 1 115 7 is_stmt 1 view .LVU394
 119:UIManager.cpp **** 
 1460              		.loc 1 119 1 is_stmt 0 view .LVU395
 1461 0014 7047     		bx	lr
 1462              		.cfi_endproc
 1463              	.LFE2585:
 1465 0016 00BF     		.section	.text._ZN9UIManager22HandleEncoderLongPressEv,"ax",%progbits
 1466              		.align	1
 1467              		.p2align 2,,3
 1468              		.global	_ZN9UIManager22HandleEncoderLongPressEv
 1469              		.syntax unified
 1470              		.thumb
 1471              		.thumb_func
 1473              	_ZN9UIManager22HandleEncoderLongPressEv:
 1474              	.LVL97:
 1475              	.LFB2586:
 121:UIManager.cpp ****   switch (current_state_){
 1476              		.loc 1 121 41 is_stmt 1 view -0
 1477              		.cfi_startproc
 1478              		@ args = 0, pretend = 0, frame = 0
 1479              		@ frame_needed = 0, uses_anonymous_args = 0
 1480              		@ link register save eliminated.
 122:UIManager.cpp ****      /* exit synthesis mode, return to file selection */
 1481              		.loc 1 122 3 view .LVU397
 122:UIManager.cpp ****      /* exit synthesis mode, return to file selection */
 1482              		.loc 1 122 11 is_stmt 0 view .LVU398
 1483 0000 4368     		ldr	r3, [r0, #4]
 122:UIManager.cpp ****      /* exit synthesis mode, return to file selection */
 1484              		.loc 1 122 3 view .LVU399
ARM GAS  /var/folders/2p/02m_5p7958535cp2tpgps0400000gn/T//ccA97qDZ.s 			page 46


 1485 0002 022B     		cmp	r3, #2
 1486 0004 05DD     		ble	.L115
 1487 0006 033B     		subs	r3, r3, #3
 1488 0008 012B     		cmp	r3, #1
 1489 000a 04D8     		bhi	.L111
 124:UIManager.cpp ****       current_state_ = AppState::SelectFile;
 1490              		.loc 1 124 5 is_stmt 1 view .LVU400
 125:UIManager.cpp ****       // StartLedPulse();
 1491              		.loc 1 125 7 view .LVU401
 125:UIManager.cpp ****       // StartLedPulse();
 1492              		.loc 1 125 22 is_stmt 0 view .LVU402
 1493 000c 0123     		movs	r3, #1
 1494 000e 4360     		str	r3, [r0, #4]
 127:UIManager.cpp ****       /* enter RecordIn mode */
 1495              		.loc 1 127 7 is_stmt 1 view .LVU403
 1496 0010 7047     		bx	lr
 1497              	.L115:
 122:UIManager.cpp ****      /* exit synthesis mode, return to file selection */
 1498              		.loc 1 122 3 is_stmt 0 view .LVU404
 1499 0012 002B     		cmp	r3, #0
 1500 0014 00DC     		bgt	.L116
 1501              	.L111:
 139:UIManager.cpp **** 
 1502              		.loc 1 139 1 view .LVU405
 1503 0016 7047     		bx	lr
 1504              	.L116:
 129:UIManager.cpp ****     case AppState::PlayWAV:
 1505              		.loc 1 129 5 is_stmt 1 view .LVU406
 130:UIManager.cpp ****       current_state_ = AppState::RecordIn;
 1506              		.loc 1 130 5 view .LVU407
 131:UIManager.cpp ****       break;
 1507              		.loc 1 131 7 view .LVU408
 131:UIManager.cpp ****       break;
 1508              		.loc 1 131 22 is_stmt 0 view .LVU409
 1509 0018 0423     		movs	r3, #4
 1510 001a 4360     		str	r3, [r0, #4]
 132:UIManager.cpp ****     case AppState::RecordIn:
 1511              		.loc 1 132 7 is_stmt 1 view .LVU410
 139:UIManager.cpp **** 
 1512              		.loc 1 139 1 is_stmt 0 view .LVU411
 1513 001c 7047     		bx	lr
 1514              		.cfi_endproc
 1515              	.LFE2586:
 1517 001e 00BF     		.section	.text._ZN9UIManager8SetStateE8AppState,"ax",%progbits
 1518              		.align	1
 1519              		.p2align 2,,3
 1520              		.global	_ZN9UIManager8SetStateE8AppState
 1521              		.syntax unified
 1522              		.thumb
 1523              		.thumb_func
 1525              	_ZN9UIManager8SetStateE8AppState:
 1526              	.LVL98:
 1527              	.LFB2587:
 143:UIManager.cpp ****   current_state_ = state;
 1528              		.loc 1 143 41 is_stmt 1 view -0
 1529              		.cfi_startproc
 1530              		@ args = 0, pretend = 0, frame = 0
ARM GAS  /var/folders/2p/02m_5p7958535cp2tpgps0400000gn/T//ccA97qDZ.s 			page 47


 1531              		@ frame_needed = 0, uses_anonymous_args = 0
 1532              		@ link register save eliminated.
 144:UIManager.cpp **** }
 1533              		.loc 1 144 3 view .LVU413
 144:UIManager.cpp **** }
 1534              		.loc 1 144 18 is_stmt 0 view .LVU414
 1535 0000 4160     		str	r1, [r0, #4]
 145:UIManager.cpp **** 
 1536              		.loc 1 145 1 view .LVU415
 1537 0002 7047     		bx	lr
 1538              		.cfi_endproc
 1539              	.LFE2587:
 1541              		.section	.text._ZN9UIManager13SetStateErrorEv,"ax",%progbits
 1542              		.align	1
 1543              		.p2align 2,,3
 1544              		.global	_ZN9UIManager13SetStateErrorEv
 1545              		.syntax unified
 1546              		.thumb
 1547              		.thumb_func
 1549              	_ZN9UIManager13SetStateErrorEv:
 1550              	.LVL99:
 1551              	.LFB2588:
 148:UIManager.cpp ****   current_state_ = AppState::Error;
 1552              		.loc 1 148 32 is_stmt 1 view -0
 1553              		.cfi_startproc
 1554              		@ args = 0, pretend = 0, frame = 8
 1555              		@ frame_needed = 0, uses_anonymous_args = 0
 149:UIManager.cpp ****   StopLedPulse();
 1556              		.loc 1 149 3 view .LVU417
 148:UIManager.cpp ****   current_state_ = AppState::Error;
 1557              		.loc 1 148 32 is_stmt 0 view .LVU418
 1558 0000 10B5     		push	{r4, lr}
 1559              		.cfi_def_cfa_offset 8
 1560              		.cfi_offset 4, -8
 1561              		.cfi_offset 14, -4
 149:UIManager.cpp ****   StopLedPulse();
 1562              		.loc 1 149 18 view .LVU419
 1563 0002 0523     		movs	r3, #5
 148:UIManager.cpp ****   current_state_ = AppState::Error;
 1564              		.loc 1 148 32 view .LVU420
 1565 0004 0446     		mov	r4, r0
 1566 0006 82B0     		sub	sp, sp, #8
 1567              		.cfi_def_cfa_offset 16
 1568              	.LBB426:
 1569              	.LBB427:
 437:UIManager.cpp ****   }
 1570              		.loc 1 437 18 view .LVU421
 1571 0008 9FED181A 		vldr.32	s2, .L120
 1572 000c 9FED180A 		vldr.32	s0, .L120+4
 1573              	.LBE427:
 1574              	.LBE426:
 1575              	.LBB430:
 1576              	.LBB431:
 432:UIManager.cpp **** }
 1577              		.loc 1 432 14 view .LVU422
 1578 0010 0C30     		adds	r0, r0, #12
 1579              	.LVL100:
ARM GAS  /var/folders/2p/02m_5p7958535cp2tpgps0400000gn/T//ccA97qDZ.s 			page 48


 432:UIManager.cpp **** }
 1580              		.loc 1 432 14 view .LVU423
 1581              	.LBE431:
 1582              	.LBE430:
 149:UIManager.cpp ****   StopLedPulse();
 1583              		.loc 1 149 18 view .LVU424
 1584 0012 6360     		str	r3, [r4, #4]
 150:UIManager.cpp ****   SetLed(255,0,0,true);
 1585              		.loc 1 150 3 is_stmt 1 view .LVU425
 1586              	.LVL101:
 1587              	.LBB434:
 1588              	.LBI430:
 431:UIManager.cpp ****   timer_.Stop();
 1589              		.loc 1 431 6 view .LVU426
 1590              	.LBB432:
 432:UIManager.cpp **** }
 1591              		.loc 1 432 3 view .LVU427
 1592              	.LBE432:
 1593              	.LBE434:
 1594              	.LBB435:
 1595              	.LBB428:
 437:UIManager.cpp ****   }
 1596              		.loc 1 437 18 is_stmt 0 view .LVU428
 1597 0014 8DED011A 		vstr.32	s2, [sp, #4]	@ int
 1598 0018 8DED000A 		vstr.32	s0, [sp]	@ int
 1599              	.LBE428:
 1600              	.LBE435:
 1601              	.LBB436:
 1602              	.LBB433:
 432:UIManager.cpp **** }
 1603              		.loc 1 432 14 view .LVU429
 1604 001c FFF7FEFF 		bl	_ZN5daisy11TimerHandle4StopEv
 1605              	.LVL102:
 432:UIManager.cpp **** }
 1606              		.loc 1 432 14 view .LVU430
 1607              	.LBE433:
 1608              	.LBE436:
 151:UIManager.cpp ****   SetLed(255,0,0,false);
 1609              		.loc 1 151 3 is_stmt 1 view .LVU431
 1610              	.LBB437:
 1611              	.LBI426:
 435:UIManager.cpp ****   if (is_Led1){
 1612              		.loc 1 435 6 view .LVU432
 1613              	.LBB429:
 436:UIManager.cpp ****     pod_.led1.Set(r,g,b);
 1614              		.loc 1 436 3 view .LVU433
 437:UIManager.cpp ****   }
 1615              		.loc 1 437 5 view .LVU434
 437:UIManager.cpp ****   }
 1616              		.loc 1 437 18 is_stmt 0 view .LVU435
 1617 0020 9DED011A 		vldr.32	s2, [sp, #4]	@ int
 1618 0024 2068     		ldr	r0, [r4]
 1619 0026 F0EE410A 		vmov.f32	s1, s2
 1620 002a 9DED000A 		vldr.32	s0, [sp]	@ int
 1621 002e D830     		adds	r0, r0, #216
 1622 0030 FFF7FEFF 		bl	_ZN5daisy6RgbLed3SetEfff
 1623              	.LVL103:
ARM GAS  /var/folders/2p/02m_5p7958535cp2tpgps0400000gn/T//ccA97qDZ.s 			page 49


 442:UIManager.cpp ****   System::Delay(10);
 1624              		.loc 1 442 3 is_stmt 1 view .LVU436
 442:UIManager.cpp ****   System::Delay(10);
 1625              		.loc 1 442 18 is_stmt 0 view .LVU437
 1626 0034 2068     		ldr	r0, [r4]
 1627 0036 FFF7FEFF 		bl	_ZN5daisy8DaisyPod10UpdateLedsEv
 1628              	.LVL104:
 443:UIManager.cpp **** }
 1629              		.loc 1 443 3 is_stmt 1 view .LVU438
 443:UIManager.cpp **** }
 1630              		.loc 1 443 16 is_stmt 0 view .LVU439
 1631 003a 0A20     		movs	r0, #10
 1632 003c FFF7FEFF 		bl	_ZN5daisy6System5DelayEm
 1633              	.LVL105:
 443:UIManager.cpp **** }
 1634              		.loc 1 443 16 view .LVU440
 1635              	.LBE429:
 1636              	.LBE437:
 152:UIManager.cpp ****   crash_error = true;
 1637              		.loc 1 152 3 is_stmt 1 view .LVU441
 1638              	.LBB438:
 1639              	.LBI438:
 435:UIManager.cpp ****   if (is_Led1){
 1640              		.loc 1 435 6 view .LVU442
 1641              	.LBB439:
 436:UIManager.cpp ****     pod_.led1.Set(r,g,b);
 1642              		.loc 1 436 3 view .LVU443
 440:UIManager.cpp ****   }
 1643              		.loc 1 440 5 view .LVU444
 440:UIManager.cpp ****   }
 1644              		.loc 1 440 18 is_stmt 0 view .LVU445
 1645 0040 9DED011A 		vldr.32	s2, [sp, #4]	@ int
 1646 0044 2068     		ldr	r0, [r4]
 1647 0046 F0EE410A 		vmov.f32	s1, s2
 1648 004a 9DED000A 		vldr.32	s0, [sp]	@ int
 1649 004e 00F59670 		add	r0, r0, #300
 1650 0052 FFF7FEFF 		bl	_ZN5daisy6RgbLed3SetEfff
 1651              	.LVL106:
 442:UIManager.cpp ****   System::Delay(10);
 1652              		.loc 1 442 3 is_stmt 1 view .LVU446
 442:UIManager.cpp ****   System::Delay(10);
 1653              		.loc 1 442 18 is_stmt 0 view .LVU447
 1654 0056 2068     		ldr	r0, [r4]
 1655 0058 FFF7FEFF 		bl	_ZN5daisy8DaisyPod10UpdateLedsEv
 1656              	.LVL107:
 443:UIManager.cpp **** }
 1657              		.loc 1 443 3 is_stmt 1 view .LVU448
 443:UIManager.cpp **** }
 1658              		.loc 1 443 16 is_stmt 0 view .LVU449
 1659 005c 0A20     		movs	r0, #10
 1660 005e FFF7FEFF 		bl	_ZN5daisy6System5DelayEm
 1661              	.LVL108:
 443:UIManager.cpp **** }
 1662              		.loc 1 443 16 view .LVU450
 1663              	.LBE439:
 1664              	.LBE438:
 153:UIManager.cpp **** }
ARM GAS  /var/folders/2p/02m_5p7958535cp2tpgps0400000gn/T//ccA97qDZ.s 			page 50


 1665              		.loc 1 153 3 is_stmt 1 view .LVU451
 153:UIManager.cpp **** }
 1666              		.loc 1 153 15 is_stmt 0 view .LVU452
 1667 0062 0123     		movs	r3, #1
 1668 0064 E375     		strb	r3, [r4, #23]
 154:UIManager.cpp **** 
 1669              		.loc 1 154 1 view .LVU453
 1670 0066 02B0     		add	sp, sp, #8
 1671              		.cfi_def_cfa_offset 8
 1672              		@ sp needed
 1673 0068 10BD     		pop	{r4, pc}
 1674              	.LVL109:
 1675              	.L121:
 154:UIManager.cpp **** 
 1676              		.loc 1 154 1 view .LVU454
 1677 006a 00BF     		.align	2
 1678              	.L120:
 1679 006c 00000000 		.word	0
 1680 0070 00007F43 		.word	1132396544
 1681              		.cfi_endproc
 1682              	.LFE2588:
 1684              		.section	.text._ZN9UIManager15UpdateSynthModeEv,"ax",%progbits
 1685              		.align	1
 1686              		.p2align 2,,3
 1687              		.global	_ZN9UIManager15UpdateSynthModeEv
 1688              		.syntax unified
 1689              		.thumb
 1690              		.thumb_func
 1692              	_ZN9UIManager15UpdateSynthModeEv:
 1693              	.LVL110:
 1694              	.LFB2589:
 157:UIManager.cpp ****   switch(current_synth_mode_){
 1695              		.loc 1 157 34 is_stmt 1 view -0
 1696              		.cfi_startproc
 1697              		@ args = 0, pretend = 0, frame = 0
 1698              		@ frame_needed = 0, uses_anonymous_args = 0
 1699              		@ link register save eliminated.
 158:UIManager.cpp ****     case SynthMode::Size_Position:
 1700              		.loc 1 158 3 view .LVU456
 1701 0000 8368     		ldr	r3, [r0, #8]
 1702 0002 062B     		cmp	r3, #6
 1703 0004 07D8     		bhi	.L122
 1704 0006 DFE803F0 		tbb	[pc, r3]
 1705              	.L125:
 1706 000a 0D       		.byte	(.L128-.L125)/2
 1707 000b 0A       		.byte	(.L127-.L125)/2
 1708 000c 07       		.byte	(.L126-.L125)/2
 1709 000d 06       		.byte	(.L122-.L125)/2
 1710 000e 06       		.byte	(.L122-.L125)/2
 1711 000f 06       		.byte	(.L122-.L125)/2
 1712 0010 04       		.byte	(.L124-.L125)/2
 1713 0011 00       		.p2align 1
 1714              	.L124:
 168:UIManager.cpp ****       current_synth_mode_ = SynthMode::Size_Position;
 1715              		.loc 1 168 5 view .LVU457
 169:UIManager.cpp ****       break;
 1716              		.loc 1 169 7 view .LVU458
ARM GAS  /var/folders/2p/02m_5p7958535cp2tpgps0400000gn/T//ccA97qDZ.s 			page 51


 169:UIManager.cpp ****       break;
 1717              		.loc 1 169 27 is_stmt 0 view .LVU459
 1718 0012 0023     		movs	r3, #0
 1719 0014 8360     		str	r3, [r0, #8]
 170:UIManager.cpp ****     default:
 1720              		.loc 1 170 7 is_stmt 1 view .LVU460
 1721              	.L122:
 174:UIManager.cpp **** 
 1722              		.loc 1 174 1 is_stmt 0 view .LVU461
 1723 0016 7047     		bx	lr
 1724              	.L126:
 165:UIManager.cpp ****       current_synth_mode_ = SynthMode::Pan_PanRnd;
 1725              		.loc 1 165 5 is_stmt 1 view .LVU462
 166:UIManager.cpp ****       break;
 1726              		.loc 1 166 7 view .LVU463
 166:UIManager.cpp ****       break;
 1727              		.loc 1 166 27 is_stmt 0 view .LVU464
 1728 0018 0623     		movs	r3, #6
 1729 001a 8360     		str	r3, [r0, #8]
 167:UIManager.cpp ****     case SynthMode::Pan_PanRnd:
 1730              		.loc 1 167 7 is_stmt 1 view .LVU465
 1731 001c 7047     		bx	lr
 1732              	.L127:
 162:UIManager.cpp ****       current_synth_mode_ = SynthMode::PhasorMode_EnvType;
 1733              		.loc 1 162 5 view .LVU466
 163:UIManager.cpp ****       break;
 1734              		.loc 1 163 7 view .LVU467
 163:UIManager.cpp ****       break;
 1735              		.loc 1 163 27 is_stmt 0 view .LVU468
 1736 001e 0223     		movs	r3, #2
 1737 0020 8360     		str	r3, [r0, #8]
 164:UIManager.cpp ****     case SynthMode::PhasorMode_EnvType:
 1738              		.loc 1 164 7 is_stmt 1 view .LVU469
 1739 0022 7047     		bx	lr
 1740              	.L128:
 159:UIManager.cpp ****       current_synth_mode_ = SynthMode::Pitch_ActiveGrains;
 1741              		.loc 1 159 5 view .LVU470
 160:UIManager.cpp ****       break;
 1742              		.loc 1 160 7 view .LVU471
 160:UIManager.cpp ****       break;
 1743              		.loc 1 160 27 is_stmt 0 view .LVU472
 1744 0024 0123     		movs	r3, #1
 1745 0026 8360     		str	r3, [r0, #8]
 161:UIManager.cpp ****     case SynthMode::Pitch_ActiveGrains:
 1746              		.loc 1 161 7 is_stmt 1 view .LVU473
 1747 0028 7047     		bx	lr
 1748              		.cfi_endproc
 1749              	.LFE2589:
 1751 002a 00BF     		.section	.text._ZN9UIManager24ToggleRandomnessControlsEv,"ax",%progbits
 1752              		.align	1
 1753              		.p2align 2,,3
 1754              		.global	_ZN9UIManager24ToggleRandomnessControlsEv
 1755              		.syntax unified
 1756              		.thumb
 1757              		.thumb_func
 1759              	_ZN9UIManager24ToggleRandomnessControlsEv:
 1760              	.LVL111:
ARM GAS  /var/folders/2p/02m_5p7958535cp2tpgps0400000gn/T//ccA97qDZ.s 			page 52


 1761              	.LFB2590:
 179:UIManager.cpp ****   switch(current_synth_mode_){
 1762              		.loc 1 179 43 view -0
 1763              		.cfi_startproc
 1764              		@ args = 0, pretend = 0, frame = 0
 1765              		@ frame_needed = 0, uses_anonymous_args = 0
 1766              		@ link register save eliminated.
 180:UIManager.cpp ****     case SynthMode::Size_Position:
 1767              		.loc 1 180 3 view .LVU475
 1768 0000 8368     		ldr	r3, [r0, #8]
 1769 0002 052B     		cmp	r3, #5
 1770 0004 06D8     		bhi	.L129
 1771 0006 DFE803F0 		tbb	[pc, r3]
 1772              	.L132:
 1773 000a 06       		.byte	(.L137-.L132)/2
 1774 000b 09       		.byte	(.L136-.L132)/2
 1775 000c 0C       		.byte	(.L135-.L132)/2
 1776 000d 0F       		.byte	(.L134-.L132)/2
 1777 000e 12       		.byte	(.L133-.L132)/2
 1778 000f 03       		.byte	(.L131-.L132)/2
 1779              		.p2align 1
 1780              	.L131:
 196:UIManager.cpp ****       current_synth_mode_ = SynthMode::PhasorMode_EnvType;
 1781              		.loc 1 196 5 view .LVU476
 197:UIManager.cpp ****       break;
 1782              		.loc 1 197 7 view .LVU477
 197:UIManager.cpp ****       break;
 1783              		.loc 1 197 27 is_stmt 0 view .LVU478
 1784 0010 0223     		movs	r3, #2
 1785 0012 8360     		str	r3, [r0, #8]
 198:UIManager.cpp ****     default:
 1786              		.loc 1 198 7 is_stmt 1 view .LVU479
 1787              	.L129:
 202:UIManager.cpp **** 
 1788              		.loc 1 202 1 is_stmt 0 view .LVU480
 1789 0014 7047     		bx	lr
 1790              	.L137:
 181:UIManager.cpp ****       current_synth_mode_ = SynthMode::Size_Position_Rnd;
 1791              		.loc 1 181 5 is_stmt 1 view .LVU481
 182:UIManager.cpp ****       break;
 1792              		.loc 1 182 7 view .LVU482
 182:UIManager.cpp ****       break;
 1793              		.loc 1 182 27 is_stmt 0 view .LVU483
 1794 0016 0323     		movs	r3, #3
 1795 0018 8360     		str	r3, [r0, #8]
 183:UIManager.cpp ****     case SynthMode::Size_Position_Rnd:
 1796              		.loc 1 183 7 is_stmt 1 view .LVU484
 1797 001a 7047     		bx	lr
 1798              	.L136:
 187:UIManager.cpp ****       current_synth_mode_ = SynthMode::Pitch_ActiveGrains_Rnd;
 1799              		.loc 1 187 5 view .LVU485
 188:UIManager.cpp ****       break;
 1800              		.loc 1 188 7 view .LVU486
 188:UIManager.cpp ****       break;
 1801              		.loc 1 188 27 is_stmt 0 view .LVU487
 1802 001c 0423     		movs	r3, #4
 1803 001e 8360     		str	r3, [r0, #8]
ARM GAS  /var/folders/2p/02m_5p7958535cp2tpgps0400000gn/T//ccA97qDZ.s 			page 53


 189:UIManager.cpp ****     case SynthMode::Pitch_ActiveGrains_Rnd:
 1804              		.loc 1 189 7 is_stmt 1 view .LVU488
 1805 0020 7047     		bx	lr
 1806              	.L135:
 193:UIManager.cpp ****       current_synth_mode_ = SynthMode::PhasorMode_EnvType_Rnd;
 1807              		.loc 1 193 5 view .LVU489
 194:UIManager.cpp ****       break;      
 1808              		.loc 1 194 7 view .LVU490
 194:UIManager.cpp ****       break;      
 1809              		.loc 1 194 27 is_stmt 0 view .LVU491
 1810 0022 0523     		movs	r3, #5
 1811 0024 8360     		str	r3, [r0, #8]
 195:UIManager.cpp ****     case SynthMode::PhasorMode_EnvType_Rnd:
 1812              		.loc 1 195 7 is_stmt 1 view .LVU492
 1813 0026 7047     		bx	lr
 1814              	.L134:
 184:UIManager.cpp ****       current_synth_mode_ = SynthMode::Size_Position;
 1815              		.loc 1 184 5 view .LVU493
 185:UIManager.cpp ****       break;
 1816              		.loc 1 185 7 view .LVU494
 185:UIManager.cpp ****       break;
 1817              		.loc 1 185 27 is_stmt 0 view .LVU495
 1818 0028 0023     		movs	r3, #0
 1819 002a 8360     		str	r3, [r0, #8]
 186:UIManager.cpp ****     case SynthMode::Pitch_ActiveGrains:
 1820              		.loc 1 186 7 is_stmt 1 view .LVU496
 1821 002c 7047     		bx	lr
 1822              	.L133:
 190:UIManager.cpp ****       current_synth_mode_ = SynthMode::Pitch_ActiveGrains;
 1823              		.loc 1 190 5 view .LVU497
 191:UIManager.cpp ****       break;
 1824              		.loc 1 191 7 view .LVU498
 191:UIManager.cpp ****       break;
 1825              		.loc 1 191 27 is_stmt 0 view .LVU499
 1826 002e 0123     		movs	r3, #1
 1827 0030 8360     		str	r3, [r0, #8]
 192:UIManager.cpp ****     case SynthMode::PhasorMode_EnvType:
 1828              		.loc 1 192 7 is_stmt 1 view .LVU500
 1829 0032 7047     		bx	lr
 1830              		.cfi_endproc
 1831              	.LFE2590:
 1833              		.section	.text._ZN9UIManager20ToggleReverbControlsEv,"ax",%progbits
 1834              		.align	1
 1835              		.p2align 2,,3
 1836              		.global	_ZN9UIManager20ToggleReverbControlsEv
 1837              		.syntax unified
 1838              		.thumb
 1839              		.thumb_func
 1841              	_ZN9UIManager20ToggleReverbControlsEv:
 1842              	.LVL112:
 1843              	.LFB2591:
 204:UIManager.cpp ****   if (current_synth_mode_==SynthMode::Reverb){
 1844              		.loc 1 204 39 view -0
 1845              		.cfi_startproc
 1846              		@ args = 0, pretend = 0, frame = 0
 1847              		@ frame_needed = 0, uses_anonymous_args = 0
 1848              		@ link register save eliminated.
ARM GAS  /var/folders/2p/02m_5p7958535cp2tpgps0400000gn/T//ccA97qDZ.s 			page 54


 205:UIManager.cpp ****     current_synth_mode_ = prev_synth_mode_;
 1849              		.loc 1 205 3 view .LVU502
 205:UIManager.cpp ****     current_synth_mode_ = prev_synth_mode_;
 1850              		.loc 1 205 7 is_stmt 0 view .LVU503
 1851 0000 8368     		ldr	r3, [r0, #8]
 205:UIManager.cpp ****     current_synth_mode_ = prev_synth_mode_;
 1852              		.loc 1 205 3 view .LVU504
 1853 0002 072B     		cmp	r3, #7
 1854 0004 03D0     		beq	.L141
 209:UIManager.cpp ****     current_synth_mode_ = SynthMode::Reverb;
 1855              		.loc 1 209 5 is_stmt 1 view .LVU505
 210:UIManager.cpp ****   }
 1856              		.loc 1 210 25 is_stmt 0 view .LVU506
 1857 0006 0722     		movs	r2, #7
 209:UIManager.cpp ****     current_synth_mode_ = SynthMode::Reverb;
 1858              		.loc 1 209 22 view .LVU507
 1859 0008 0361     		str	r3, [r0, #16]
 210:UIManager.cpp ****   }
 1860              		.loc 1 210 5 is_stmt 1 view .LVU508
 1861 000a 8260     		str	r2, [r0, #8]
 212:UIManager.cpp **** 
 1862              		.loc 1 212 1 is_stmt 0 view .LVU509
 1863 000c 7047     		bx	lr
 1864              	.L141:
 206:UIManager.cpp ****   }
 1865              		.loc 1 206 5 is_stmt 1 view .LVU510
 206:UIManager.cpp ****   }
 1866              		.loc 1 206 27 is_stmt 0 view .LVU511
 1867 000e 0269     		ldr	r2, [r0, #16]
 1868 0010 8260     		str	r2, [r0, #8]
 212:UIManager.cpp **** 
 1869              		.loc 1 212 1 view .LVU512
 1870 0012 7047     		bx	lr
 1871              		.cfi_endproc
 1872              	.LFE2591:
 1874              		.section	.text._ZN9UIManager20ToggleFilterControlsEv,"ax",%progbits
 1875              		.align	1
 1876              		.p2align 2,,3
 1877              		.global	_ZN9UIManager20ToggleFilterControlsEv
 1878              		.syntax unified
 1879              		.thumb
 1880              		.thumb_func
 1882              	_ZN9UIManager20ToggleFilterControlsEv:
 1883              	.LVL113:
 1884              	.LFB2592:
 214:UIManager.cpp ****   if (current_synth_mode_==SynthMode::Filter){
 1885              		.loc 1 214 39 is_stmt 1 view -0
 1886              		.cfi_startproc
 1887              		@ args = 0, pretend = 0, frame = 0
 1888              		@ frame_needed = 0, uses_anonymous_args = 0
 1889              		@ link register save eliminated.
 215:UIManager.cpp ****     current_synth_mode_ = prev_synth_mode_;
 1890              		.loc 1 215 3 view .LVU514
 215:UIManager.cpp ****     current_synth_mode_ = prev_synth_mode_;
 1891              		.loc 1 215 7 is_stmt 0 view .LVU515
 1892 0000 8368     		ldr	r3, [r0, #8]
 215:UIManager.cpp ****     current_synth_mode_ = prev_synth_mode_;
ARM GAS  /var/folders/2p/02m_5p7958535cp2tpgps0400000gn/T//ccA97qDZ.s 			page 55


 1893              		.loc 1 215 3 view .LVU516
 1894 0002 082B     		cmp	r3, #8
 1895 0004 03D0     		beq	.L145
 219:UIManager.cpp ****     current_synth_mode_ = SynthMode::Filter;
 1896              		.loc 1 219 5 is_stmt 1 view .LVU517
 220:UIManager.cpp ****   }
 1897              		.loc 1 220 25 is_stmt 0 view .LVU518
 1898 0006 0822     		movs	r2, #8
 219:UIManager.cpp ****     current_synth_mode_ = SynthMode::Filter;
 1899              		.loc 1 219 22 view .LVU519
 1900 0008 0361     		str	r3, [r0, #16]
 220:UIManager.cpp ****   }
 1901              		.loc 1 220 5 is_stmt 1 view .LVU520
 1902 000a 8260     		str	r2, [r0, #8]
 222:UIManager.cpp **** 
 1903              		.loc 1 222 1 is_stmt 0 view .LVU521
 1904 000c 7047     		bx	lr
 1905              	.L145:
 216:UIManager.cpp ****   }
 1906              		.loc 1 216 5 is_stmt 1 view .LVU522
 216:UIManager.cpp ****   }
 1907              		.loc 1 216 27 is_stmt 0 view .LVU523
 1908 000e 0269     		ldr	r2, [r0, #16]
 1909 0010 8260     		str	r2, [r0, #8]
 222:UIManager.cpp **** 
 1910              		.loc 1 222 1 view .LVU524
 1911 0012 7047     		bx	lr
 1912              		.cfi_endproc
 1913              	.LFE2592:
 1915              		.section	.text._ZN9UIManager15ToggleRecordOutEv,"ax",%progbits
 1916              		.align	1
 1917              		.p2align 2,,3
 1918              		.global	_ZN9UIManager15ToggleRecordOutEv
 1919              		.syntax unified
 1920              		.thumb
 1921              		.thumb_func
 1923              	_ZN9UIManager15ToggleRecordOutEv:
 1924              	.LVL114:
 1925              	.LFB2593:
 224:UIManager.cpp ****   // TODO: need to decide what control input will toggle record out
 1926              		.loc 1 224 34 is_stmt 1 view -0
 1927              		.cfi_startproc
 1928              		@ args = 0, pretend = 0, frame = 0
 1929              		@ frame_needed = 0, uses_anonymous_args = 0
 1930              		@ link register save eliminated.
 226:UIManager.cpp **** }
 1931              		.loc 1 226 3 view .LVU526
 227:UIManager.cpp **** 
 1932              		.loc 1 227 1 is_stmt 0 view .LVU527
 1933 0000 0120     		movs	r0, #1
 1934              	.LVL115:
 227:UIManager.cpp **** 
 1935              		.loc 1 227 1 view .LVU528
 1936 0002 7047     		bx	lr
 1937              		.cfi_endproc
 1938              	.LFE2593:
 1940              		.section	.text._ZN9UIManager13GetKnob1ValueEi,"ax",%progbits
ARM GAS  /var/folders/2p/02m_5p7958535cp2tpgps0400000gn/T//ccA97qDZ.s 			page 56


 1941              		.align	1
 1942              		.p2align 2,,3
 1943              		.global	_ZN9UIManager13GetKnob1ValueEi
 1944              		.syntax unified
 1945              		.thumb
 1946              		.thumb_func
 1948              	_ZN9UIManager13GetKnob1ValueEi:
 1949              	.LVL116:
 1950              	.LFB2594:
 229:UIManager.cpp ****   return k1v_[mode_idx];
 1951              		.loc 1 229 45 is_stmt 1 view -0
 1952              		.cfi_startproc
 1953              		@ args = 0, pretend = 0, frame = 0
 1954              		@ frame_needed = 0, uses_anonymous_args = 0
 1955              		@ link register save eliminated.
 230:UIManager.cpp **** }
 1956              		.loc 1 230 3 view .LVU530
 230:UIManager.cpp **** }
 1957              		.loc 1 230 23 is_stmt 0 view .LVU531
 1958 0000 00EB8101 		add	r1, r0, r1, lsl #2
 1959              	.LVL117:
 231:UIManager.cpp **** 
 1960              		.loc 1 231 1 view .LVU532
 1961 0004 91ED0A0A 		vldr.32	s0, [r1, #40]
 1962 0008 7047     		bx	lr
 1963              		.cfi_endproc
 1964              	.LFE2594:
 1966 000a 00BF     		.section	.text._ZN9UIManager13GetKnob2ValueEi,"ax",%progbits
 1967              		.align	1
 1968              		.p2align 2,,3
 1969              		.global	_ZN9UIManager13GetKnob2ValueEi
 1970              		.syntax unified
 1971              		.thumb
 1972              		.thumb_func
 1974              	_ZN9UIManager13GetKnob2ValueEi:
 1975              	.LVL118:
 1976              	.LFB2595:
 233:UIManager.cpp ****   return k2v_[mode_idx];
 1977              		.loc 1 233 45 is_stmt 1 view -0
 1978              		.cfi_startproc
 1979              		@ args = 0, pretend = 0, frame = 0
 1980              		@ frame_needed = 0, uses_anonymous_args = 0
 1981              		@ link register save eliminated.
 234:UIManager.cpp **** }
 1982              		.loc 1 234 3 view .LVU534
 234:UIManager.cpp **** }
 1983              		.loc 1 234 23 is_stmt 0 view .LVU535
 1984 0000 00EB8101 		add	r1, r0, r1, lsl #2
 1985              	.LVL119:
 235:UIManager.cpp **** 
 1986              		.loc 1 235 1 view .LVU536
 1987 0004 91ED110A 		vldr.32	s0, [r1, #68]
 1988 0008 7047     		bx	lr
 1989              		.cfi_endproc
 1990              	.LFE2595:
 1992 000a 00BF     		.section	.text._ZN9UIManager19GetEncoderIncrementEv,"ax",%progbits
 1993              		.align	1
ARM GAS  /var/folders/2p/02m_5p7958535cp2tpgps0400000gn/T//ccA97qDZ.s 			page 57


 1994              		.p2align 2,,3
 1995              		.global	_ZN9UIManager19GetEncoderIncrementEv
 1996              		.syntax unified
 1997              		.thumb
 1998              		.thumb_func
 2000              	_ZN9UIManager19GetEncoderIncrementEv:
 2001              	.LVL120:
 2002              	.LFB2596:
 237:UIManager.cpp ****   return pod_.encoder.Increment();
 2003              		.loc 1 237 41 is_stmt 1 view -0
 2004              		.cfi_startproc
 2005              		@ args = 0, pretend = 0, frame = 0
 2006              		@ frame_needed = 0, uses_anonymous_args = 0
 2007              		@ link register save eliminated.
 238:UIManager.cpp **** }
 2008              		.loc 1 238 3 view .LVU538
 238:UIManager.cpp **** }
 2009              		.loc 1 238 10 is_stmt 0 view .LVU539
 2010 0000 0368     		ldr	r3, [r0]
 2011              	.LVL121:
 2012              	.LBB440:
 2013              	.LBI440:
 2014              		.file 4 "../libDaisy/src/hid/encoder.h"
   1:../libDaisy/src/hid/encoder.h **** #pragma once
   2:../libDaisy/src/hid/encoder.h **** #ifndef DSY_ENCODER_H
   3:../libDaisy/src/hid/encoder.h **** #define DSY_ENCODER_H
   4:../libDaisy/src/hid/encoder.h **** #include "daisy_core.h"
   5:../libDaisy/src/hid/encoder.h **** #include "per/gpio.h"
   6:../libDaisy/src/hid/encoder.h **** #include "hid/switch.h"
   7:../libDaisy/src/hid/encoder.h **** 
   8:../libDaisy/src/hid/encoder.h **** namespace daisy
   9:../libDaisy/src/hid/encoder.h **** {
  10:../libDaisy/src/hid/encoder.h **** /** 
  11:../libDaisy/src/hid/encoder.h ****     @brief Generic Class for handling Quadrature Encoders \n 
  12:../libDaisy/src/hid/encoder.h ****     Inspired/influenced by Mutable Instruments (pichenettes) Encoder classes
  13:../libDaisy/src/hid/encoder.h ****     @author Stephen Hensley
  14:../libDaisy/src/hid/encoder.h ****     @date December 2019
  15:../libDaisy/src/hid/encoder.h ****     @ingroup controls
  16:../libDaisy/src/hid/encoder.h **** */
  17:../libDaisy/src/hid/encoder.h **** class Encoder
  18:../libDaisy/src/hid/encoder.h **** {
  19:../libDaisy/src/hid/encoder.h ****   public:
  20:../libDaisy/src/hid/encoder.h ****     Encoder() {}
  21:../libDaisy/src/hid/encoder.h ****     ~Encoder() {}
  22:../libDaisy/src/hid/encoder.h **** 
  23:../libDaisy/src/hid/encoder.h ****     /** Initializes the encoder with the specified hardware pins.
  24:../libDaisy/src/hid/encoder.h ****      * Update rate is to be deprecated in a future release
  25:../libDaisy/src/hid/encoder.h ****      */
  26:../libDaisy/src/hid/encoder.h ****     void Init(dsy_gpio_pin a,
  27:../libDaisy/src/hid/encoder.h ****               dsy_gpio_pin b,
  28:../libDaisy/src/hid/encoder.h ****               dsy_gpio_pin click,
  29:../libDaisy/src/hid/encoder.h ****               float        update_rate = 0.f);
  30:../libDaisy/src/hid/encoder.h ****     /** Called at update_rate to debounce and handle timing for the switch.
  31:../libDaisy/src/hid/encoder.h ****      * In order for events not to be missed, its important that the Edge/Pressed checks be made at 
  32:../libDaisy/src/hid/encoder.h ****      */
  33:../libDaisy/src/hid/encoder.h ****     void Debounce();
  34:../libDaisy/src/hid/encoder.h **** 
ARM GAS  /var/folders/2p/02m_5p7958535cp2tpgps0400000gn/T//ccA97qDZ.s 			page 58


  35:../libDaisy/src/hid/encoder.h ****     /** Returns +1 if the encoder was turned clockwise, -1 if it was turned counter-clockwise, or 0
  36:../libDaisy/src/hid/encoder.h ****     inline int32_t Increment() const { return updated_ ? inc_ : 0; }
 2015              		.loc 4 36 20 is_stmt 1 view .LVU540
 2016              	.LBB441:
 2017              		.loc 4 36 40 view .LVU541
 2018              		.loc 4 36 56 is_stmt 0 view .LVU542
 2019 0002 93F84400 		ldrb	r0, [r3, #68]	@ zero_extendqisi2
 2020              	.LVL122:
 2021              		.loc 4 36 56 view .LVU543
 2022 0006 00B1     		cbz	r0, .L149
 2023 0008 586E     		ldr	r0, [r3, #100]
 2024              	.L149:
 2025              	.LBE441:
 2026              	.LBE440:
 239:UIManager.cpp **** 
 2027              		.loc 1 239 1 view .LVU544
 2028 000a 7047     		bx	lr
 2029              		.cfi_endproc
 2030              	.LFE2596:
 2032              		.section	.text._ZN9UIManager14EncoderPressedEv,"ax",%progbits
 2033              		.align	1
 2034              		.p2align 2,,3
 2035              		.global	_ZN9UIManager14EncoderPressedEv
 2036              		.syntax unified
 2037              		.thumb
 2038              		.thumb_func
 2040              	_ZN9UIManager14EncoderPressedEv:
 2041              	.LVL123:
 2042              	.LFB2597:
 241:UIManager.cpp ****   return pod_.encoder.FallingEdge();
 2043              		.loc 1 241 33 is_stmt 1 view -0
 2044              		.cfi_startproc
 2045              		@ args = 0, pretend = 0, frame = 0
 2046              		@ frame_needed = 0, uses_anonymous_args = 0
 2047              		@ link register save eliminated.
 242:UIManager.cpp **** }
 2048              		.loc 1 242 3 view .LVU546
 242:UIManager.cpp **** }
 2049              		.loc 1 242 10 is_stmt 0 view .LVU547
 2050 0000 0368     		ldr	r3, [r0]
 2051              	.LVL124:
 2052              	.LBB442:
 2053              	.LBI442:
  37:../libDaisy/src/hid/encoder.h **** 
  38:../libDaisy/src/hid/encoder.h ****     /** Returns true if the encoder was just pressed. */
  39:../libDaisy/src/hid/encoder.h ****     inline bool RisingEdge() const { return sw_.RisingEdge(); }
  40:../libDaisy/src/hid/encoder.h **** 
  41:../libDaisy/src/hid/encoder.h ****     /** Returns true if the encoder was just released. */
  42:../libDaisy/src/hid/encoder.h ****     inline bool FallingEdge() const { return sw_.FallingEdge(); }
 2054              		.loc 4 42 17 is_stmt 1 view .LVU548
 2055              	.LBE442:
 2056              		.loc 4 42 39 view .LVU549
 2057              	.LBB445:
 2058              	.LBB443:
 2059              	.LBI443:
 2060              		.file 5 "../libDaisy/src/hid/switch.h"
   1:../libDaisy/src/hid/switch.h **** #pragma once
ARM GAS  /var/folders/2p/02m_5p7958535cp2tpgps0400000gn/T//ccA97qDZ.s 			page 59


   2:../libDaisy/src/hid/switch.h **** #ifndef DSY_SWITCH_H
   3:../libDaisy/src/hid/switch.h **** #define DSY_SWITCH_H
   4:../libDaisy/src/hid/switch.h **** #include "daisy_core.h"
   5:../libDaisy/src/hid/switch.h **** #include "per/gpio.h"
   6:../libDaisy/src/hid/switch.h **** #include "sys/system.h"
   7:../libDaisy/src/hid/switch.h **** 
   8:../libDaisy/src/hid/switch.h **** namespace daisy
   9:../libDaisy/src/hid/switch.h **** {
  10:../libDaisy/src/hid/switch.h **** /** 
  11:../libDaisy/src/hid/switch.h ****     Generic Class for handling momentary/latching switches \n 
  12:../libDaisy/src/hid/switch.h ****     Inspired/influenced by Mutable Instruments (pichenettes) Switch classes
  13:../libDaisy/src/hid/switch.h ****     @author Stephen Hensley
  14:../libDaisy/src/hid/switch.h ****     @date December 2019
  15:../libDaisy/src/hid/switch.h ****     @ingroup controls
  16:../libDaisy/src/hid/switch.h **** */
  17:../libDaisy/src/hid/switch.h **** class Switch
  18:../libDaisy/src/hid/switch.h **** {
  19:../libDaisy/src/hid/switch.h ****   public:
  20:../libDaisy/src/hid/switch.h ****     /** Specifies the expected behavior of the switch */
  21:../libDaisy/src/hid/switch.h ****     enum Type
  22:../libDaisy/src/hid/switch.h ****     {
  23:../libDaisy/src/hid/switch.h ****         TYPE_TOGGLE,    /**< & */
  24:../libDaisy/src/hid/switch.h ****         TYPE_MOMENTARY, /**< & */
  25:../libDaisy/src/hid/switch.h ****     };
  26:../libDaisy/src/hid/switch.h ****     /** Specifies whether the pressed is HIGH or LOW. */
  27:../libDaisy/src/hid/switch.h ****     enum Polarity
  28:../libDaisy/src/hid/switch.h ****     {
  29:../libDaisy/src/hid/switch.h ****         POLARITY_NORMAL,   /**< & */
  30:../libDaisy/src/hid/switch.h ****         POLARITY_INVERTED, /**< & */
  31:../libDaisy/src/hid/switch.h ****     };
  32:../libDaisy/src/hid/switch.h **** 
  33:../libDaisy/src/hid/switch.h ****     /** Specifies whether to use built-in Pull Up/Down resistors to hold button at a given state wh
  34:../libDaisy/src/hid/switch.h ****     enum Pull
  35:../libDaisy/src/hid/switch.h ****     {
  36:../libDaisy/src/hid/switch.h ****         PULL_UP,   /**< & */
  37:../libDaisy/src/hid/switch.h ****         PULL_DOWN, /**< & */
  38:../libDaisy/src/hid/switch.h ****         PULL_NONE, /**< & */
  39:../libDaisy/src/hid/switch.h ****     };
  40:../libDaisy/src/hid/switch.h **** 
  41:../libDaisy/src/hid/switch.h ****     Switch() {}
  42:../libDaisy/src/hid/switch.h ****     ~Switch() {}
  43:../libDaisy/src/hid/switch.h **** 
  44:../libDaisy/src/hid/switch.h ****     /** 
  45:../libDaisy/src/hid/switch.h ****     Initializes the switch object with a given port/pin combo.
  46:../libDaisy/src/hid/switch.h ****     \param pin port/pin object to tell the switch which hardware pin to use.
  47:../libDaisy/src/hid/switch.h ****     \param update_rate Does nothing. Backwards compatibility until next breaking update.
  48:../libDaisy/src/hid/switch.h ****     \param t switch type -- Default: TYPE_MOMENTARY
  49:../libDaisy/src/hid/switch.h ****     \param pol switch polarity -- Default: POLARITY_INVERTED
  50:../libDaisy/src/hid/switch.h ****     \param pu switch pull up/down -- Default: PULL_UP
  51:../libDaisy/src/hid/switch.h ****     */
  52:../libDaisy/src/hid/switch.h ****     void
  53:../libDaisy/src/hid/switch.h ****     Init(dsy_gpio_pin pin, float update_rate, Type t, Polarity pol, Pull pu);
  54:../libDaisy/src/hid/switch.h **** 
  55:../libDaisy/src/hid/switch.h ****     /**
  56:../libDaisy/src/hid/switch.h ****        Simplified Init.
  57:../libDaisy/src/hid/switch.h ****        \param pin port/pin object to tell the switch which hardware pin to use.
  58:../libDaisy/src/hid/switch.h ****        \param update_rate Left for backwards compatibility until next breaking change.
ARM GAS  /var/folders/2p/02m_5p7958535cp2tpgps0400000gn/T//ccA97qDZ.s 			page 60


  59:../libDaisy/src/hid/switch.h ****     */
  60:../libDaisy/src/hid/switch.h ****     void Init(dsy_gpio_pin pin, float update_rate = 0.f);
  61:../libDaisy/src/hid/switch.h **** 
  62:../libDaisy/src/hid/switch.h ****     /** 
  63:../libDaisy/src/hid/switch.h ****     Called at update_rate to debounce and handle timing for the switch.
  64:../libDaisy/src/hid/switch.h ****     In order for events not to be missed, its important that the Edge/Pressed checks
  65:../libDaisy/src/hid/switch.h ****     be made at the same rate as the debounce function is being called.
  66:../libDaisy/src/hid/switch.h ****     */
  67:../libDaisy/src/hid/switch.h ****     void Debounce();
  68:../libDaisy/src/hid/switch.h **** 
  69:../libDaisy/src/hid/switch.h ****     /** \return true if a button was just pressed. */
  70:../libDaisy/src/hid/switch.h ****     inline bool RisingEdge() const { return updated_ ? state_ == 0x7f : false; }
  71:../libDaisy/src/hid/switch.h **** 
  72:../libDaisy/src/hid/switch.h ****     /** \return true if the button was just released */
  73:../libDaisy/src/hid/switch.h ****     inline bool FallingEdge() const
 2061              		.loc 5 73 17 view .LVU550
 2062              	.LBB444:
  74:../libDaisy/src/hid/switch.h ****     {
  75:../libDaisy/src/hid/switch.h ****         return updated_ ? state_ == 0x80 : false;
 2063              		.loc 5 75 9 view .LVU551
 2064              		.loc 5 75 16 is_stmt 0 view .LVU552
 2065 0002 93F84C00 		ldrb	r0, [r3, #76]	@ zero_extendqisi2
 2066              	.LVL125:
 2067              		.loc 5 75 25 view .LVU553
 2068 0006 30B1     		cbz	r0, .L153
 2069 0008 93F85200 		ldrb	r0, [r3, #82]	@ zero_extendqisi2
 2070 000c A0F18000 		sub	r0, #128
 2071 0010 B0FA80F0 		clz	r0, r0
 2072 0014 4009     		lsrs	r0, r0, #5
 2073              	.L153:
 2074              	.LVL126:
 2075              		.loc 5 75 25 view .LVU554
 2076              	.LBE444:
 2077              	.LBE443:
 2078              	.LBE445:
 243:UIManager.cpp **** 
 2079              		.loc 1 243 1 view .LVU555
 2080 0016 7047     		bx	lr
 2081              		.cfi_endproc
 2082              	.LFE2597:
 2084              		.section	.text._ZN9UIManager16EncoderLongPressEv,"ax",%progbits
 2085              		.align	1
 2086              		.p2align 2,,3
 2087              		.global	_ZN9UIManager16EncoderLongPressEv
 2088              		.syntax unified
 2089              		.thumb
 2090              		.thumb_func
 2092              	_ZN9UIManager16EncoderLongPressEv:
 2093              	.LVL127:
 2094              	.LFB2598:
 245:UIManager.cpp ****   return pod_.encoder.TimeHeldMs() > 1000.0f;
 2095              		.loc 1 245 35 is_stmt 1 view -0
 2096              		.cfi_startproc
 2097              		@ args = 0, pretend = 0, frame = 0
 2098              		@ frame_needed = 0, uses_anonymous_args = 0
 246:UIManager.cpp **** }
 2099              		.loc 1 246 3 view .LVU557
ARM GAS  /var/folders/2p/02m_5p7958535cp2tpgps0400000gn/T//ccA97qDZ.s 			page 61


 245:UIManager.cpp ****   return pod_.encoder.TimeHeldMs() > 1000.0f;
 2100              		.loc 1 245 35 is_stmt 0 view .LVU558
 2101 0000 10B5     		push	{r4, lr}
 2102              		.cfi_def_cfa_offset 8
 2103              		.cfi_offset 4, -8
 2104              		.cfi_offset 14, -4
 246:UIManager.cpp **** }
 2105              		.loc 1 246 10 view .LVU559
 2106 0002 0468     		ldr	r4, [r0]
 2107              	.LVL128:
 2108              	.LBB446:
 2109              	.LBI446:
  43:../libDaisy/src/hid/encoder.h **** 
  44:../libDaisy/src/hid/encoder.h ****     /** Returns true while the encoder is held down.*/
  45:../libDaisy/src/hid/encoder.h ****     inline bool Pressed() const { return sw_.Pressed(); }
  46:../libDaisy/src/hid/encoder.h **** 
  47:../libDaisy/src/hid/encoder.h ****     /** Returns the time in milliseconds that the encoder has been held down. */
  48:../libDaisy/src/hid/encoder.h ****     inline float TimeHeldMs() const { return sw_.TimeHeldMs(); }
 2110              		.loc 4 48 18 is_stmt 1 view .LVU560
 2111              	.LBE446:
 2112              		.loc 4 48 39 view .LVU561
 2113              	.LBB455:
 2114              	.LBB447:
 2115              	.LBI447:
  76:../libDaisy/src/hid/switch.h ****     }
  77:../libDaisy/src/hid/switch.h **** 
  78:../libDaisy/src/hid/switch.h ****     /** \return true if the button is held down (or if the toggle is on) */
  79:../libDaisy/src/hid/switch.h ****     inline bool Pressed() const { return state_ == 0xff; }
  80:../libDaisy/src/hid/switch.h **** 
  81:../libDaisy/src/hid/switch.h ****     /** \return true if the button is held down, without debouncing */
  82:../libDaisy/src/hid/switch.h ****     inline bool RawState()
  83:../libDaisy/src/hid/switch.h ****     {
  84:../libDaisy/src/hid/switch.h ****         return flip_ ? !dsy_gpio_read(&hw_gpio_) : dsy_gpio_read(&hw_gpio_);
  85:../libDaisy/src/hid/switch.h ****     }
  86:../libDaisy/src/hid/switch.h **** 
  87:../libDaisy/src/hid/switch.h ****     /** \return the time in milliseconds that the button has been held (or toggle has been on) */
  88:../libDaisy/src/hid/switch.h ****     inline float TimeHeldMs() const
 2116              		.loc 5 88 18 view .LVU562
 2117              	.LBB448:
  89:../libDaisy/src/hid/switch.h ****     {
  90:../libDaisy/src/hid/switch.h ****         return Pressed() ? System::GetNow() - rising_edge_time_ : 0;
 2118              		.loc 5 90 9 view .LVU563
 2119              	.LBB449:
 2120              	.LBI449:
  79:../libDaisy/src/hid/switch.h **** 
 2121              		.loc 5 79 17 view .LVU564
 2122              	.LBB450:
  79:../libDaisy/src/hid/switch.h **** 
 2123              		.loc 5 79 35 view .LVU565
  79:../libDaisy/src/hid/switch.h **** 
 2124              		.loc 5 79 35 is_stmt 0 view .LVU566
 2125              	.LBE450:
 2126              	.LBE449:
 2127              		.loc 5 90 26 view .LVU567
 2128 0004 94F85230 		ldrb	r3, [r4, #82]	@ zero_extendqisi2
 2129 0008 FF2B     		cmp	r3, #255
 2130 000a 01D0     		beq	.L161
ARM GAS  /var/folders/2p/02m_5p7958535cp2tpgps0400000gn/T//ccA97qDZ.s 			page 62


 2131 000c 0020     		movs	r0, #0
 2132              	.LVL129:
 2133              		.loc 5 90 26 view .LVU568
 2134              	.LBE448:
 2135              	.LBE447:
 2136              	.LBE455:
 247:UIManager.cpp **** 
 2137              		.loc 1 247 1 view .LVU569
 2138 000e 10BD     		pop	{r4, pc}
 2139              	.LVL130:
 2140              	.L161:
 2141              	.LBB456:
 2142              	.LBB453:
 2143              	.LBB451:
 2144              		.loc 5 90 42 view .LVU570
 2145 0010 FFF7FEFF 		bl	_ZN5daisy6System6GetNowEv
 2146              	.LVL131:
 2147              		.loc 5 90 45 view .LVU571
 2148 0014 07EE900A 		vmov	s15, r0	@ int
 2149              		.loc 5 90 26 view .LVU572
 2150 0018 D4ED156A 		vldr.32	s13, [r4, #84]
 2151              		.loc 5 90 45 view .LVU573
 2152 001c F8EE677A 		vcvt.f32.u32	s15, s15
 2153              	.LBE451:
 2154              	.LBE453:
 2155              	.LBE456:
 246:UIManager.cpp **** }
 2156              		.loc 1 246 38 view .LVU574
 2157 0020 9FED057A 		vldr.32	s14, .L162
 2158              	.LBB457:
 2159              	.LBB454:
 2160              	.LBB452:
 2161              		.loc 5 90 26 view .LVU575
 2162 0024 77EEE67A 		vsub.f32	s15, s15, s13
 2163              	.LBE452:
 2164              	.LBE454:
 2165              	.LBE457:
 246:UIManager.cpp **** }
 2166              		.loc 1 246 38 view .LVU576
 2167 0028 F4EEC77A 		vcmpe.f32	s15, s14
 2168 002c F1EE10FA 		vmrs	APSR_nzcv, FPSCR
 2169 0030 CCBF     		ite	gt
 2170 0032 0120     		movgt	r0, #1
 2171 0034 0020     		movle	r0, #0
 2172              	.LVL132:
 247:UIManager.cpp **** 
 2173              		.loc 1 247 1 view .LVU577
 2174 0036 10BD     		pop	{r4, pc}
 2175              	.L163:
 2176              		.align	2
 2177              	.L162:
 2178 0038 00007A44 		.word	1148846080
 2179              		.cfi_endproc
 2180              	.LFE2598:
 2182              		.section	.text._ZN9UIManager14Button1PressedEv,"ax",%progbits
 2183              		.align	1
 2184              		.p2align 2,,3
ARM GAS  /var/folders/2p/02m_5p7958535cp2tpgps0400000gn/T//ccA97qDZ.s 			page 63


 2185              		.global	_ZN9UIManager14Button1PressedEv
 2186              		.syntax unified
 2187              		.thumb
 2188              		.thumb_func
 2190              	_ZN9UIManager14Button1PressedEv:
 2191              	.LVL133:
 2192              	.LFB2599:
 249:UIManager.cpp ****   return pod_.button1.FallingEdge();
 2193              		.loc 1 249 33 is_stmt 1 view -0
 2194              		.cfi_startproc
 2195              		@ args = 0, pretend = 0, frame = 0
 2196              		@ frame_needed = 0, uses_anonymous_args = 0
 2197              		@ link register save eliminated.
 250:UIManager.cpp **** }
 2198              		.loc 1 250 3 view .LVU579
 250:UIManager.cpp **** }
 2199              		.loc 1 250 10 is_stmt 0 view .LVU580
 2200 0000 0368     		ldr	r3, [r0]
 2201              	.LVL134:
 2202              	.LBB458:
 2203              	.LBI458:
  73:../libDaisy/src/hid/switch.h ****     {
 2204              		.loc 5 73 17 is_stmt 1 view .LVU581
 2205              	.LBB459:
  75:../libDaisy/src/hid/switch.h ****     }
 2206              		.loc 5 75 9 view .LVU582
  75:../libDaisy/src/hid/switch.h ****     }
 2207              		.loc 5 75 16 is_stmt 0 view .LVU583
 2208 0002 93F8B400 		ldrb	r0, [r3, #180]	@ zero_extendqisi2
 2209              	.LVL135:
  75:../libDaisy/src/hid/switch.h ****     }
 2210              		.loc 5 75 25 view .LVU584
 2211 0006 30B1     		cbz	r0, .L165
 2212 0008 93F8BA00 		ldrb	r0, [r3, #186]	@ zero_extendqisi2
 2213 000c A0F18000 		sub	r0, #128
 2214 0010 B0FA80F0 		clz	r0, r0
 2215 0014 4009     		lsrs	r0, r0, #5
 2216              	.L165:
 2217              	.LVL136:
  75:../libDaisy/src/hid/switch.h ****     }
 2218              		.loc 5 75 25 view .LVU585
 2219              	.LBE459:
 2220              	.LBE458:
 251:UIManager.cpp **** 
 2221              		.loc 1 251 1 view .LVU586
 2222 0016 7047     		bx	lr
 2223              		.cfi_endproc
 2224              	.LFE2599:
 2226              		.section	.text._ZN9UIManager16Button1LongPressEv,"ax",%progbits
 2227              		.align	1
 2228              		.p2align 2,,3
 2229              		.global	_ZN9UIManager16Button1LongPressEv
 2230              		.syntax unified
 2231              		.thumb
 2232              		.thumb_func
 2234              	_ZN9UIManager16Button1LongPressEv:
 2235              	.LVL137:
ARM GAS  /var/folders/2p/02m_5p7958535cp2tpgps0400000gn/T//ccA97qDZ.s 			page 64


 2236              	.LFB2600:
 253:UIManager.cpp ****   return pod_.button1.TimeHeldMs() > 1000.0f;
 2237              		.loc 1 253 35 is_stmt 1 view -0
 2238              		.cfi_startproc
 2239              		@ args = 0, pretend = 0, frame = 0
 2240              		@ frame_needed = 0, uses_anonymous_args = 0
 254:UIManager.cpp **** }
 2241              		.loc 1 254 3 view .LVU588
 253:UIManager.cpp ****   return pod_.button1.TimeHeldMs() > 1000.0f;
 2242              		.loc 1 253 35 is_stmt 0 view .LVU589
 2243 0000 10B5     		push	{r4, lr}
 2244              		.cfi_def_cfa_offset 8
 2245              		.cfi_offset 4, -8
 2246              		.cfi_offset 14, -4
 254:UIManager.cpp **** }
 2247              		.loc 1 254 10 view .LVU590
 2248 0002 0468     		ldr	r4, [r0]
 2249              	.LVL138:
 2250              	.LBB460:
 2251              	.LBI460:
  88:../libDaisy/src/hid/switch.h ****     {
 2252              		.loc 5 88 18 is_stmt 1 view .LVU591
 2253              	.LBB461:
 2254              		.loc 5 90 9 view .LVU592
 2255              	.LBB462:
 2256              	.LBI462:
  79:../libDaisy/src/hid/switch.h **** 
 2257              		.loc 5 79 17 view .LVU593
 2258              	.LBB463:
  79:../libDaisy/src/hid/switch.h **** 
 2259              		.loc 5 79 35 view .LVU594
  79:../libDaisy/src/hid/switch.h **** 
 2260              		.loc 5 79 35 is_stmt 0 view .LVU595
 2261              	.LBE463:
 2262              	.LBE462:
 2263              		.loc 5 90 26 view .LVU596
 2264 0004 94F8BA30 		ldrb	r3, [r4, #186]	@ zero_extendqisi2
 2265 0008 FF2B     		cmp	r3, #255
 2266 000a 01D0     		beq	.L173
 2267 000c 0020     		movs	r0, #0
 2268              	.LVL139:
 2269              		.loc 5 90 26 view .LVU597
 2270              	.LBE461:
 2271              	.LBE460:
 255:UIManager.cpp **** 
 2272              		.loc 1 255 1 view .LVU598
 2273 000e 10BD     		pop	{r4, pc}
 2274              	.LVL140:
 2275              	.L173:
 2276              	.LBB466:
 2277              	.LBB464:
 2278              		.loc 5 90 42 view .LVU599
 2279 0010 FFF7FEFF 		bl	_ZN5daisy6System6GetNowEv
 2280              	.LVL141:
 2281              		.loc 5 90 45 view .LVU600
 2282 0014 07EE900A 		vmov	s15, r0	@ int
 2283              		.loc 5 90 26 view .LVU601
ARM GAS  /var/folders/2p/02m_5p7958535cp2tpgps0400000gn/T//ccA97qDZ.s 			page 65


 2284 0018 D4ED2F6A 		vldr.32	s13, [r4, #188]
 2285              		.loc 5 90 45 view .LVU602
 2286 001c F8EE677A 		vcvt.f32.u32	s15, s15
 2287              	.LBE464:
 2288              	.LBE466:
 254:UIManager.cpp **** }
 2289              		.loc 1 254 38 view .LVU603
 2290 0020 9FED057A 		vldr.32	s14, .L174
 2291              	.LBB467:
 2292              	.LBB465:
 2293              		.loc 5 90 26 view .LVU604
 2294 0024 77EEE67A 		vsub.f32	s15, s15, s13
 2295              	.LBE465:
 2296              	.LBE467:
 254:UIManager.cpp **** }
 2297              		.loc 1 254 38 view .LVU605
 2298 0028 F4EEC77A 		vcmpe.f32	s15, s14
 2299 002c F1EE10FA 		vmrs	APSR_nzcv, FPSCR
 2300 0030 CCBF     		ite	gt
 2301 0032 0120     		movgt	r0, #1
 2302 0034 0020     		movle	r0, #0
 2303              	.LVL142:
 255:UIManager.cpp **** 
 2304              		.loc 1 255 1 view .LVU606
 2305 0036 10BD     		pop	{r4, pc}
 2306              	.L175:
 2307              		.align	2
 2308              	.L174:
 2309 0038 00007A44 		.word	1148846080
 2310              		.cfi_endproc
 2311              	.LFE2600:
 2313              		.section	.text._ZN9UIManager14Button2PressedEv,"ax",%progbits
 2314              		.align	1
 2315              		.p2align 2,,3
 2316              		.global	_ZN9UIManager14Button2PressedEv
 2317              		.syntax unified
 2318              		.thumb
 2319              		.thumb_func
 2321              	_ZN9UIManager14Button2PressedEv:
 2322              	.LVL143:
 2323              	.LFB2601:
 257:UIManager.cpp ****   return pod_.button2.FallingEdge();
 2324              		.loc 1 257 33 is_stmt 1 view -0
 2325              		.cfi_startproc
 2326              		@ args = 0, pretend = 0, frame = 0
 2327              		@ frame_needed = 0, uses_anonymous_args = 0
 2328              		@ link register save eliminated.
 258:UIManager.cpp **** }
 2329              		.loc 1 258 3 view .LVU608
 258:UIManager.cpp **** }
 2330              		.loc 1 258 10 is_stmt 0 view .LVU609
 2331 0000 0368     		ldr	r3, [r0]
 2332              	.LVL144:
 2333              	.LBB468:
 2334              	.LBI468:
  73:../libDaisy/src/hid/switch.h ****     {
 2335              		.loc 5 73 17 is_stmt 1 view .LVU610
ARM GAS  /var/folders/2p/02m_5p7958535cp2tpgps0400000gn/T//ccA97qDZ.s 			page 66


 2336              	.LBB469:
  75:../libDaisy/src/hid/switch.h ****     }
 2337              		.loc 5 75 9 view .LVU611
  75:../libDaisy/src/hid/switch.h ****     }
 2338              		.loc 5 75 16 is_stmt 0 view .LVU612
 2339 0002 93F8C400 		ldrb	r0, [r3, #196]	@ zero_extendqisi2
 2340              	.LVL145:
  75:../libDaisy/src/hid/switch.h ****     }
 2341              		.loc 5 75 25 view .LVU613
 2342 0006 30B1     		cbz	r0, .L177
 2343 0008 93F8CA00 		ldrb	r0, [r3, #202]	@ zero_extendqisi2
 2344 000c A0F18000 		sub	r0, #128
 2345 0010 B0FA80F0 		clz	r0, r0
 2346 0014 4009     		lsrs	r0, r0, #5
 2347              	.L177:
 2348              	.LVL146:
  75:../libDaisy/src/hid/switch.h ****     }
 2349              		.loc 5 75 25 view .LVU614
 2350              	.LBE469:
 2351              	.LBE468:
 259:UIManager.cpp **** 
 2352              		.loc 1 259 1 view .LVU615
 2353 0016 7047     		bx	lr
 2354              		.cfi_endproc
 2355              	.LFE2601:
 2357              		.section	.text._ZN9UIManager16Button2LongPressEv,"ax",%progbits
 2358              		.align	1
 2359              		.p2align 2,,3
 2360              		.global	_ZN9UIManager16Button2LongPressEv
 2361              		.syntax unified
 2362              		.thumb
 2363              		.thumb_func
 2365              	_ZN9UIManager16Button2LongPressEv:
 2366              	.LVL147:
 2367              	.LFB2602:
 261:UIManager.cpp ****   return pod_.button2.TimeHeldMs() > 1000.0f;
 2368              		.loc 1 261 35 is_stmt 1 view -0
 2369              		.cfi_startproc
 2370              		@ args = 0, pretend = 0, frame = 0
 2371              		@ frame_needed = 0, uses_anonymous_args = 0
 262:UIManager.cpp **** }
 2372              		.loc 1 262 3 view .LVU617
 261:UIManager.cpp ****   return pod_.button2.TimeHeldMs() > 1000.0f;
 2373              		.loc 1 261 35 is_stmt 0 view .LVU618
 2374 0000 10B5     		push	{r4, lr}
 2375              		.cfi_def_cfa_offset 8
 2376              		.cfi_offset 4, -8
 2377              		.cfi_offset 14, -4
 262:UIManager.cpp **** }
 2378              		.loc 1 262 10 view .LVU619
 2379 0002 0468     		ldr	r4, [r0]
 2380              	.LVL148:
 2381              	.LBB470:
 2382              	.LBI470:
  88:../libDaisy/src/hid/switch.h ****     {
 2383              		.loc 5 88 18 is_stmt 1 view .LVU620
 2384              	.LBB471:
ARM GAS  /var/folders/2p/02m_5p7958535cp2tpgps0400000gn/T//ccA97qDZ.s 			page 67


 2385              		.loc 5 90 9 view .LVU621
 2386              	.LBB472:
 2387              	.LBI472:
  79:../libDaisy/src/hid/switch.h **** 
 2388              		.loc 5 79 17 view .LVU622
 2389              	.LBB473:
  79:../libDaisy/src/hid/switch.h **** 
 2390              		.loc 5 79 35 view .LVU623
  79:../libDaisy/src/hid/switch.h **** 
 2391              		.loc 5 79 35 is_stmt 0 view .LVU624
 2392              	.LBE473:
 2393              	.LBE472:
 2394              		.loc 5 90 26 view .LVU625
 2395 0004 94F8CA30 		ldrb	r3, [r4, #202]	@ zero_extendqisi2
 2396 0008 FF2B     		cmp	r3, #255
 2397 000a 01D0     		beq	.L185
 2398 000c 0020     		movs	r0, #0
 2399              	.LVL149:
 2400              		.loc 5 90 26 view .LVU626
 2401              	.LBE471:
 2402              	.LBE470:
 263:UIManager.cpp **** 
 2403              		.loc 1 263 1 view .LVU627
 2404 000e 10BD     		pop	{r4, pc}
 2405              	.LVL150:
 2406              	.L185:
 2407              	.LBB476:
 2408              	.LBB474:
 2409              		.loc 5 90 42 view .LVU628
 2410 0010 FFF7FEFF 		bl	_ZN5daisy6System6GetNowEv
 2411              	.LVL151:
 2412              		.loc 5 90 45 view .LVU629
 2413 0014 07EE900A 		vmov	s15, r0	@ int
 2414              		.loc 5 90 26 view .LVU630
 2415 0018 D4ED336A 		vldr.32	s13, [r4, #204]
 2416              		.loc 5 90 45 view .LVU631
 2417 001c F8EE677A 		vcvt.f32.u32	s15, s15
 2418              	.LBE474:
 2419              	.LBE476:
 262:UIManager.cpp **** }
 2420              		.loc 1 262 38 view .LVU632
 2421 0020 9FED057A 		vldr.32	s14, .L186
 2422              	.LBB477:
 2423              	.LBB475:
 2424              		.loc 5 90 26 view .LVU633
 2425 0024 77EEE67A 		vsub.f32	s15, s15, s13
 2426              	.LBE475:
 2427              	.LBE477:
 262:UIManager.cpp **** }
 2428              		.loc 1 262 38 view .LVU634
 2429 0028 F4EEC77A 		vcmpe.f32	s15, s14
 2430 002c F1EE10FA 		vmrs	APSR_nzcv, FPSCR
 2431 0030 CCBF     		ite	gt
 2432 0032 0120     		movgt	r0, #1
 2433 0034 0020     		movle	r0, #0
 2434              	.LVL152:
 263:UIManager.cpp **** 
ARM GAS  /var/folders/2p/02m_5p7958535cp2tpgps0400000gn/T//ccA97qDZ.s 			page 68


 2435              		.loc 1 263 1 view .LVU635
 2436 0036 10BD     		pop	{r4, pc}
 2437              	.L187:
 2438              		.align	2
 2439              	.L186:
 2440 0038 00007A44 		.word	1148846080
 2441              		.cfi_endproc
 2442              	.LFE2602:
 2444              		.section	.text._ZN9UIManager15MapKnobDeadzoneEf,"ax",%progbits
 2445              		.align	1
 2446              		.p2align 2,,3
 2447              		.global	_ZN9UIManager15MapKnobDeadzoneEf
 2448              		.syntax unified
 2449              		.thumb
 2450              		.thumb_func
 2452              	_ZN9UIManager15MapKnobDeadzoneEf:
 2453              	.LVL153:
 2454              	.LFB2603:
 265:UIManager.cpp ****   if (knob_val<=0.01f) return 0.0f;
 2455              		.loc 1 265 50 is_stmt 1 view -0
 2456              		.cfi_startproc
 2457              		@ args = 0, pretend = 0, frame = 0
 2458              		@ frame_needed = 0, uses_anonymous_args = 0
 2459              		@ link register save eliminated.
 266:UIManager.cpp ****   if (knob_val>=0.99f) return 1.0f;
 2460              		.loc 1 266 3 view .LVU637
 2461 0000 DFED0A7A 		vldr.32	s15, .L194
 2462 0004 B4EEE70A 		vcmpe.f32	s0, s15
 2463 0008 F1EE10FA 		vmrs	APSR_nzcv, FPSCR
 2464 000c 0BD9     		bls	.L191
 267:UIManager.cpp ****   return knob_val;
 2465              		.loc 1 267 3 view .LVU638
 2466 000e 9FED087A 		vldr.32	s14, .L194+4
 268:UIManager.cpp **** }
 2467              		.loc 1 268 10 is_stmt 0 view .LVU639
 2468 0012 F7EE007A 		vmov.f32	s15, #1.0e+0
 2469 0016 B4EEC70A 		vcmpe.f32	s0, s14
 2470 001a F1EE10FA 		vmrs	APSR_nzcv, FPSCR
 2471 001e 58BF     		it	pl
 2472 0020 B0EE670A 		vmovpl.f32	s0, s15
 2473              	.LVL154:
 268:UIManager.cpp **** }
 2474              		.loc 1 268 10 view .LVU640
 2475 0024 7047     		bx	lr
 2476              	.LVL155:
 2477              	.L191:
 266:UIManager.cpp ****   if (knob_val>=0.99f) return 1.0f;
 2478              		.loc 1 266 31 view .LVU641
 2479 0026 9FED030A 		vldr.32	s0, .L194+8
 2480              	.LVL156:
 269:UIManager.cpp **** 
 2481              		.loc 1 269 1 view .LVU642
 2482 002a 7047     		bx	lr
 2483              	.L195:
 2484              		.align	2
 2485              	.L194:
 2486 002c 0AD7233C 		.word	1008981770
ARM GAS  /var/folders/2p/02m_5p7958535cp2tpgps0400000gn/T//ccA97qDZ.s 			page 69


 2487 0030 A4707D3F 		.word	1065185444
 2488 0034 00000000 		.word	0
 2489              		.cfi_endproc
 2490              	.LFE2603:
 2492              		.section	.text._ZN9UIManager18UpdateKnobPassThruEfPfPb,"ax",%progbits
 2493              		.align	1
 2494              		.p2align 2,,3
 2495              		.global	_ZN9UIManager18UpdateKnobPassThruEfPfPb
 2496              		.syntax unified
 2497              		.thumb
 2498              		.thumb_func
 2500              	_ZN9UIManager18UpdateKnobPassThruEfPfPb:
 2501              	.LVL157:
 2502              	.LFB2604:
 277:UIManager.cpp ****   if (!(*pass_thru)){
 2503              		.loc 1 277 98 is_stmt 1 view -0
 2504              		.cfi_startproc
 2505              		@ args = 0, pretend = 0, frame = 0
 2506              		@ frame_needed = 0, uses_anonymous_args = 0
 2507              		@ link register save eliminated.
 278:UIManager.cpp ****     if (curr_knob_val >= (*stored_knob_val) || curr_knob_val <= (*stored_knob_val)) {
 2508              		.loc 1 278 3 view .LVU644
 2509 0000 1378     		ldrb	r3, [r2]	@ zero_extendqisi2
 2510 0002 0BB9     		cbnz	r3, .L197
 279:UIManager.cpp ****       (*pass_thru) = true;
 2511              		.loc 1 279 5 view .LVU645
 280:UIManager.cpp ****     }
 2512              		.loc 1 280 7 view .LVU646
 280:UIManager.cpp ****     }
 2513              		.loc 1 280 20 is_stmt 0 view .LVU647
 2514 0004 0123     		movs	r3, #1
 2515 0006 1370     		strb	r3, [r2]
 2516              	.L197:
 283:UIManager.cpp ****     (*stored_knob_val) = curr_knob_val;
 2517              		.loc 1 283 3 is_stmt 1 view .LVU648
 284:UIManager.cpp ****     return curr_knob_val;
 2518              		.loc 1 284 5 view .LVU649
 284:UIManager.cpp ****     return curr_knob_val;
 2519              		.loc 1 284 24 is_stmt 0 view .LVU650
 2520 0008 81ED000A 		vstr.32	s0, [r1]
 285:UIManager.cpp ****   }
 2521              		.loc 1 285 5 is_stmt 1 view .LVU651
 288:UIManager.cpp **** 
 2522              		.loc 1 288 1 is_stmt 0 view .LVU652
 2523 000c 7047     		bx	lr
 2524              		.cfi_endproc
 2525              	.LFE2604:
 2527 000e 00BF     		.section	.text._ZN9UIManager10SetupTimerEv,"ax",%progbits
 2528              		.align	1
 2529              		.p2align 2,,3
 2530              		.global	_ZN9UIManager10SetupTimerEv
 2531              		.syntax unified
 2532              		.thumb
 2533              		.thumb_func
 2535              	_ZN9UIManager10SetupTimerEv:
 2536              	.LVL158:
 2537              	.LFB2606:
ARM GAS  /var/folders/2p/02m_5p7958535cp2tpgps0400000gn/T//ccA97qDZ.s 			page 70


 296:UIManager.cpp ****   TimerHandle::Config cfg;
 2538              		.loc 1 296 29 is_stmt 1 view -0
 2539              		.cfi_startproc
 2540              		@ args = 0, pretend = 0, frame = 16
 2541              		@ frame_needed = 0, uses_anonymous_args = 0
 297:UIManager.cpp ****   cfg.periph = TimerHandle::Config::Peripheral::TIM_5;
 2542              		.loc 1 297 3 view .LVU654
 296:UIManager.cpp ****   TimerHandle::Config cfg;
 2543              		.loc 1 296 29 is_stmt 0 view .LVU655
 2544 0000 70B5     		push	{r4, r5, r6, lr}
 2545              		.cfi_def_cfa_offset 16
 2546              		.cfi_offset 4, -16
 2547              		.cfi_offset 5, -12
 2548              		.cfi_offset 6, -8
 2549              		.cfi_offset 14, -4
 298:UIManager.cpp ****   // /* set period for 200ms pulse (1MHz/200,000 == 200ms) */
 2550              		.loc 1 298 14 view .LVU656
 2551 0002 9FED0F7B 		vldr.64	d7, .L200	@ int
 296:UIManager.cpp ****   TimerHandle::Config cfg;
 2552              		.loc 1 296 29 view .LVU657
 2553 0006 84B0     		sub	sp, sp, #16
 2554              		.cfi_def_cfa_offset 32
 2555              	.LVL159:
 2556              	.LBB478:
 2557              	.LBI478:
 2558              		.loc 2 75 9 is_stmt 1 view .LVU658
 2559              		.loc 2 75 9 is_stmt 0 view .LVU659
 2560              	.LBE478:
 298:UIManager.cpp ****   // /* set period for 200ms pulse (1MHz/200,000 == 200ms) */
 2561              		.loc 1 298 3 is_stmt 1 view .LVU660
 304:UIManager.cpp ****   /* set 1Mhz tick frequency */
 2562              		.loc 1 304 14 is_stmt 0 view .LVU661
 2563 0008 00F10C05 		add	r5, r0, #12
 302:UIManager.cpp ****   cfg.enable_irq = true;
 2564              		.loc 1 302 14 view .LVU662
 2565 000c 44F62063 		movw	r3, #20000
 303:UIManager.cpp ****   timer_.Init(cfg);
 2566              		.loc 1 303 18 view .LVU663
 2567 0010 0126     		movs	r6, #1
 296:UIManager.cpp ****   TimerHandle::Config cfg;
 2568              		.loc 1 296 29 view .LVU664
 2569 0012 0446     		mov	r4, r0
 304:UIManager.cpp ****   /* set 1Mhz tick frequency */
 2570              		.loc 1 304 14 view .LVU665
 2571 0014 6946     		mov	r1, sp
 2572 0016 2846     		mov	r0, r5
 2573              	.LVL160:
 302:UIManager.cpp ****   cfg.enable_irq = true;
 2574              		.loc 1 302 14 view .LVU666
 2575 0018 0293     		str	r3, [sp, #8]
 303:UIManager.cpp ****   timer_.Init(cfg);
 2576              		.loc 1 303 18 view .LVU667
 2577 001a 8DF80C60 		strb	r6, [sp, #12]
 298:UIManager.cpp ****   // /* set period for 200ms pulse (1MHz/200,000 == 200ms) */
 2578              		.loc 1 298 14 view .LVU668
 2579 001e 8DED007B 		vstr.64	d7, [sp]	@ int
 302:UIManager.cpp ****   cfg.enable_irq = true;
ARM GAS  /var/folders/2p/02m_5p7958535cp2tpgps0400000gn/T//ccA97qDZ.s 			page 71


 2580              		.loc 1 302 3 is_stmt 1 view .LVU669
 303:UIManager.cpp ****   timer_.Init(cfg);
 2581              		.loc 1 303 3 view .LVU670
 304:UIManager.cpp ****   /* set 1Mhz tick frequency */
 2582              		.loc 1 304 3 view .LVU671
 304:UIManager.cpp ****   /* set 1Mhz tick frequency */
 2583              		.loc 1 304 14 is_stmt 0 view .LVU672
 2584 0022 FFF7FEFF 		bl	_ZN5daisy11TimerHandle4InitERKNS0_6ConfigE
 2585              	.LVL161:
 306:UIManager.cpp ****   pulse_increasing_ = true;
 2586              		.loc 1 306 3 is_stmt 1 view .LVU673
 306:UIManager.cpp ****   pulse_increasing_ = true;
 2587              		.loc 1 306 22 is_stmt 0 view .LVU674
 2588 0026 C721     		movs	r1, #199
 2589 0028 2846     		mov	r0, r5
 2590 002a FFF7FEFF 		bl	_ZN5daisy11TimerHandle12SetPrescalerEm
 2591              	.LVL162:
 307:UIManager.cpp ****   timer_.SetCallback(StaticLedCallback, this);
 2592              		.loc 1 307 3 is_stmt 1 view .LVU675
 308:UIManager.cpp **** }
 2593              		.loc 1 308 21 is_stmt 0 view .LVU676
 2594 002e 2246     		mov	r2, r4
 2595 0030 0549     		ldr	r1, .L200+8
 2596 0032 2846     		mov	r0, r5
 307:UIManager.cpp ****   timer_.SetCallback(StaticLedCallback, this);
 2597              		.loc 1 307 21 view .LVU677
 2598 0034 2675     		strb	r6, [r4, #20]
 308:UIManager.cpp **** }
 2599              		.loc 1 308 3 is_stmt 1 view .LVU678
 308:UIManager.cpp **** }
 2600              		.loc 1 308 21 is_stmt 0 view .LVU679
 2601 0036 FFF7FEFF 		bl	_ZN5daisy11TimerHandle11SetCallbackEPFvPvES1_
 2602              	.LVL163:
 309:UIManager.cpp **** 
 2603              		.loc 1 309 1 view .LVU680
 2604 003a 04B0     		add	sp, sp, #16
 2605              		.cfi_def_cfa_offset 16
 2606              		@ sp needed
 2607 003c 70BD     		pop	{r4, r5, r6, pc}
 2608              	.LVL164:
 2609              	.L201:
 309:UIManager.cpp **** 
 2610              		.loc 1 309 1 view .LVU681
 2611 003e 00BF     		.align	3
 2612              	.L200:
 2613 0040 03000000 		.word	3
 2614 0044 00000000 		.word	0
 2615 0048 00000000 		.word	_ZL17StaticLedCallbackPv
 2616              		.cfi_endproc
 2617              	.LFE2606:
 2619              		.section	.text._ZN9UIManager16SetLedRandomModeEv,"ax",%progbits
 2620              		.align	1
 2621              		.p2align 2,,3
 2622              		.global	_ZN9UIManager16SetLedRandomModeEv
 2623              		.syntax unified
 2624              		.thumb
 2625              		.thumb_func
ARM GAS  /var/folders/2p/02m_5p7958535cp2tpgps0400000gn/T//ccA97qDZ.s 			page 72


 2627              	_ZN9UIManager16SetLedRandomModeEv:
 2628              	.LVL165:
 2629              	.LFB2609:
 384:UIManager.cpp ****   if (current_state_==AppState::Synthesis){
 2630              		.loc 1 384 35 is_stmt 1 view -0
 2631              		.cfi_startproc
 2632              		@ args = 0, pretend = 0, frame = 0
 2633              		@ frame_needed = 0, uses_anonymous_args = 0
 385:UIManager.cpp ****     switch(current_synth_mode_){
 2634              		.loc 1 385 3 view .LVU683
 2635 0000 4368     		ldr	r3, [r0, #4]
 2636 0002 032B     		cmp	r3, #3
 2637 0004 00D0     		beq	.L212
 2638 0006 7047     		bx	lr
 2639              	.L212:
 386:UIManager.cpp ****       case SynthMode::Size_Position:
 2640              		.loc 1 386 12 is_stmt 0 view .LVU684
 2641 0008 8368     		ldr	r3, [r0, #8]
 386:UIManager.cpp ****       case SynthMode::Size_Position:
 2642              		.loc 1 386 5 view .LVU685
 2643 000a 052B     		cmp	r3, #5
 384:UIManager.cpp ****   if (current_state_==AppState::Synthesis){
 2644              		.loc 1 384 35 view .LVU686
 2645 000c 10B5     		push	{r4, lr}
 2646              		.cfi_def_cfa_offset 8
 2647              		.cfi_offset 4, -8
 2648              		.cfi_offset 14, -4
 2649 000e 0446     		mov	r4, r0
 386:UIManager.cpp ****       case SynthMode::Size_Position:
 2650              		.loc 1 386 5 is_stmt 1 view .LVU687
 2651 0010 15DC     		bgt	.L204
 386:UIManager.cpp ****       case SynthMode::Size_Position:
 2652              		.loc 1 386 5 is_stmt 0 view .LVU688
 2653 0012 022B     		cmp	r3, #2
 2654 0014 16DC     		bgt	.L205
 2655 0016 14D8     		bhi	.L202
 2656              	.L206:
 2657              	.LVL166:
 2658              	.LBB485:
 2659              	.LBI485:
 384:UIManager.cpp ****   if (current_state_==AppState::Synthesis){
 2660              		.loc 1 384 6 is_stmt 1 view .LVU689
 2661              	.LBE485:
 387:UIManager.cpp ****       case SynthMode::Pitch_ActiveGrains:
 2662              		.loc 1 387 7 view .LVU690
 388:UIManager.cpp ****       case SynthMode::PhasorMode_EnvType:
 2663              		.loc 1 388 7 view .LVU691
 389:UIManager.cpp ****       case SynthMode::Pan_PanRnd:
 2664              		.loc 1 389 7 view .LVU692
 390:UIManager.cpp ****         /* set led 2 to green*/
 2665              		.loc 1 390 7 view .LVU693
 392:UIManager.cpp ****         break;
 2666              		.loc 1 392 9 view .LVU694
 2667              	.LBB488:
 2668              	.LBB486:
 2669              	.LBI486:
 435:UIManager.cpp ****   if (is_Led1){
ARM GAS  /var/folders/2p/02m_5p7958535cp2tpgps0400000gn/T//ccA97qDZ.s 			page 73


 2670              		.loc 1 435 6 view .LVU695
 2671              	.LBB487:
 436:UIManager.cpp ****     pod_.led1.Set(r,g,b);
 2672              		.loc 1 436 3 view .LVU696
 440:UIManager.cpp ****   }
 2673              		.loc 1 440 5 view .LVU697
 440:UIManager.cpp ****   }
 2674              		.loc 1 440 18 is_stmt 0 view .LVU698
 2675 0018 9FED0E1A 		vldr.32	s2, .L213
 2676 001c 2068     		ldr	r0, [r4]
 2677              	.LVL167:
 440:UIManager.cpp ****   }
 2678              		.loc 1 440 18 view .LVU699
 2679 001e B0EE410A 		vmov.f32	s0, s2
 2680 0022 DFED0D0A 		vldr.32	s1, .L213+4
 2681              	.LVL168:
 2682              	.L211:
 440:UIManager.cpp ****   }
 2683              		.loc 1 440 18 view .LVU700
 2684              	.LBE487:
 2685              	.LBE486:
 2686              	.LBE488:
 2687              	.LBB489:
 2688              	.LBB490:
 2689 0026 00F59670 		add	r0, r0, #300
 2690 002a FFF7FEFF 		bl	_ZN5daisy6RgbLed3SetEfff
 2691              	.LVL169:
 442:UIManager.cpp ****   System::Delay(10);
 2692              		.loc 1 442 3 is_stmt 1 view .LVU701
 442:UIManager.cpp ****   System::Delay(10);
 2693              		.loc 1 442 18 is_stmt 0 view .LVU702
 2694 002e 2068     		ldr	r0, [r4]
 2695 0030 FFF7FEFF 		bl	_ZN5daisy8DaisyPod10UpdateLedsEv
 2696              	.LVL170:
 443:UIManager.cpp **** }
 2697              		.loc 1 443 3 is_stmt 1 view .LVU703
 443:UIManager.cpp **** }
 2698              		.loc 1 443 16 is_stmt 0 view .LVU704
 2699 0034 0A20     		movs	r0, #10
 2700              	.LBE490:
 2701              	.LBE489:
 405:UIManager.cpp **** 
 2702              		.loc 1 405 1 view .LVU705
 2703 0036 BDE81040 		pop	{r4, lr}
 2704              		.cfi_remember_state
 2705              		.cfi_restore 14
 2706              		.cfi_restore 4
 2707              		.cfi_def_cfa_offset 0
 2708              	.LVL171:
 2709              	.LBB493:
 2710              	.LBB491:
 443:UIManager.cpp **** }
 2711              		.loc 1 443 16 view .LVU706
 2712 003a FFF7FEBF 		b	_ZN5daisy6System5DelayEm
 2713              	.LVL172:
 2714              	.L204:
 2715              		.cfi_restore_state
ARM GAS  /var/folders/2p/02m_5p7958535cp2tpgps0400000gn/T//ccA97qDZ.s 			page 74


 443:UIManager.cpp **** }
 2716              		.loc 1 443 16 view .LVU707
 2717              	.LBE491:
 2718              	.LBE493:
 386:UIManager.cpp ****       case SynthMode::Size_Position:
 2719              		.loc 1 386 5 view .LVU708
 2720 003e 062B     		cmp	r3, #6
 2721 0040 EAD0     		beq	.L206
 2722              	.L202:
 405:UIManager.cpp **** 
 2723              		.loc 1 405 1 view .LVU709
 2724 0042 10BD     		pop	{r4, pc}
 2725              	.L205:
 395:UIManager.cpp ****       case SynthMode::Pitch_ActiveGrains_Rnd:
 2726              		.loc 1 395 7 is_stmt 1 view .LVU710
 396:UIManager.cpp ****       case SynthMode::PhasorMode_EnvType_Rnd:
 2727              		.loc 1 396 7 view .LVU711
 397:UIManager.cpp ****         /* set led 2 to red*/
 2728              		.loc 1 397 7 view .LVU712
 399:UIManager.cpp ****         break;
 2729              		.loc 1 399 9 view .LVU713
 2730              	.LVL173:
 2731              	.LBB494:
 2732              	.LBI489:
 435:UIManager.cpp ****   if (is_Led1){
 2733              		.loc 1 435 6 view .LVU714
 2734              	.LBB492:
 436:UIManager.cpp ****     pod_.led1.Set(r,g,b);
 2735              		.loc 1 436 3 view .LVU715
 440:UIManager.cpp ****   }
 2736              		.loc 1 440 5 view .LVU716
 440:UIManager.cpp ****   }
 2737              		.loc 1 440 18 is_stmt 0 view .LVU717
 2738 0044 9FED031A 		vldr.32	s2, .L213
 2739 0048 0068     		ldr	r0, [r0]
 2740              	.LVL174:
 440:UIManager.cpp ****   }
 2741              		.loc 1 440 18 view .LVU718
 2742 004a F0EE410A 		vmov.f32	s1, s2
 2743 004e 9FED020A 		vldr.32	s0, .L213+4
 2744 0052 E8E7     		b	.L211
 2745              	.L214:
 2746              		.align	2
 2747              	.L213:
 2748 0054 00000000 		.word	0
 2749 0058 00007F43 		.word	1132396544
 2750              	.LBE492:
 2751              	.LBE494:
 2752              		.cfi_endproc
 2753              	.LFE2609:
 2755              		.section	.text._ZN9UIManager12SetLedFXModeEv,"ax",%progbits
 2756              		.align	1
 2757              		.p2align 2,,3
 2758              		.global	_ZN9UIManager12SetLedFXModeEv
 2759              		.syntax unified
 2760              		.thumb
 2761              		.thumb_func
ARM GAS  /var/folders/2p/02m_5p7958535cp2tpgps0400000gn/T//ccA97qDZ.s 			page 75


 2763              	_ZN9UIManager12SetLedFXModeEv:
 2764              	.LVL175:
 2765              	.LFB2610:
 407:UIManager.cpp ****   if (current_state_ == AppState::Synthesis){
 2766              		.loc 1 407 31 is_stmt 1 view -0
 2767              		.cfi_startproc
 2768              		@ args = 0, pretend = 0, frame = 0
 2769              		@ frame_needed = 0, uses_anonymous_args = 0
 408:UIManager.cpp ****     switch(current_synth_mode_){
 2770              		.loc 1 408 3 view .LVU720
 2771 0000 4368     		ldr	r3, [r0, #4]
 2772 0002 032B     		cmp	r3, #3
 2773 0004 00D0     		beq	.L224
 2774 0006 7047     		bx	lr
 2775              	.L224:
 409:UIManager.cpp ****       case SynthMode::Reverb:
 2776              		.loc 1 409 12 is_stmt 0 view .LVU721
 2777 0008 8368     		ldr	r3, [r0, #8]
 409:UIManager.cpp ****       case SynthMode::Reverb:
 2778              		.loc 1 409 5 view .LVU722
 2779 000a 072B     		cmp	r3, #7
 407:UIManager.cpp ****   if (current_state_ == AppState::Synthesis){
 2780              		.loc 1 407 31 view .LVU723
 2781 000c 10B5     		push	{r4, lr}
 2782              		.cfi_def_cfa_offset 8
 2783              		.cfi_offset 4, -8
 2784              		.cfi_offset 14, -4
 2785 000e 0446     		mov	r4, r0
 409:UIManager.cpp ****       case SynthMode::Reverb:
 2786              		.loc 1 409 5 is_stmt 1 view .LVU724
 2787 0010 15D0     		beq	.L217
 409:UIManager.cpp ****       case SynthMode::Reverb:
 2788              		.loc 1 409 5 is_stmt 0 view .LVU725
 2789 0012 082B     		cmp	r3, #8
 2790 0014 12D1     		bne	.L225
 414:UIManager.cpp ****         /* set led 2 to yellow */
 2791              		.loc 1 414 7 is_stmt 1 view .LVU726
 416:UIManager.cpp ****         break;
 2792              		.loc 1 416 9 view .LVU727
 2793              	.LVL176:
 2794              	.LBB501:
 2795              	.LBI501:
 435:UIManager.cpp ****   if (is_Led1){
 2796              		.loc 1 435 6 view .LVU728
 2797              	.LBB502:
 436:UIManager.cpp ****     pod_.led1.Set(r,g,b);
 2798              		.loc 1 436 3 view .LVU729
 440:UIManager.cpp ****   }
 2799              		.loc 1 440 5 view .LVU730
 440:UIManager.cpp ****   }
 2800              		.loc 1 440 18 is_stmt 0 view .LVU731
 2801 0016 DFED0E0A 		vldr.32	s1, .L226
 2802 001a 0068     		ldr	r0, [r0]
 2803              	.LVL177:
 440:UIManager.cpp ****   }
 2804              		.loc 1 440 18 view .LVU732
 2805 001c B0EE600A 		vmov.f32	s0, s1
ARM GAS  /var/folders/2p/02m_5p7958535cp2tpgps0400000gn/T//ccA97qDZ.s 			page 76


 2806 0020 9FED0C1A 		vldr.32	s2, .L226+4
 2807              	.LVL178:
 2808              	.L223:
 440:UIManager.cpp ****   }
 2809              		.loc 1 440 18 view .LVU733
 2810 0024 00F59670 		add	r0, r0, #300
 2811 0028 FFF7FEFF 		bl	_ZN5daisy6RgbLed3SetEfff
 2812              	.LVL179:
 442:UIManager.cpp ****   System::Delay(10);
 2813              		.loc 1 442 3 is_stmt 1 view .LVU734
 442:UIManager.cpp ****   System::Delay(10);
 2814              		.loc 1 442 18 is_stmt 0 view .LVU735
 2815 002c 2068     		ldr	r0, [r4]
 2816 002e FFF7FEFF 		bl	_ZN5daisy8DaisyPod10UpdateLedsEv
 2817              	.LVL180:
 443:UIManager.cpp **** }
 2818              		.loc 1 443 3 is_stmt 1 view .LVU736
 443:UIManager.cpp **** }
 2819              		.loc 1 443 16 is_stmt 0 view .LVU737
 2820 0032 0A20     		movs	r0, #10
 2821              	.LBE502:
 2822              	.LBE501:
 422:UIManager.cpp **** 
 2823              		.loc 1 422 1 view .LVU738
 2824 0034 BDE81040 		pop	{r4, lr}
 2825              		.cfi_remember_state
 2826              		.cfi_restore 14
 2827              		.cfi_restore 4
 2828              		.cfi_def_cfa_offset 0
 2829              	.LVL181:
 2830              	.LBB504:
 2831              	.LBB503:
 443:UIManager.cpp **** }
 2832              		.loc 1 443 16 view .LVU739
 2833 0038 FFF7FEBF 		b	_ZN5daisy6System5DelayEm
 2834              	.LVL182:
 2835              	.L225:
 2836              		.cfi_restore_state
 443:UIManager.cpp **** }
 2837              		.loc 1 443 16 view .LVU740
 2838              	.LBE503:
 2839              	.LBE504:
 422:UIManager.cpp **** 
 2840              		.loc 1 422 1 view .LVU741
 2841 003c 10BD     		pop	{r4, pc}
 2842              	.L217:
 2843              	.LVL183:
 2844              	.LBB505:
 2845              	.LBI505:
 407:UIManager.cpp ****   if (current_state_ == AppState::Synthesis){
 2846              		.loc 1 407 6 is_stmt 1 view .LVU742
 2847              	.LBE505:
 410:UIManager.cpp ****         /* set led 2 to cyan */
 2848              		.loc 1 410 7 view .LVU743
 412:UIManager.cpp ****         break;
 2849              		.loc 1 412 9 view .LVU744
 2850              	.LBB508:
ARM GAS  /var/folders/2p/02m_5p7958535cp2tpgps0400000gn/T//ccA97qDZ.s 			page 77


 2851              	.LBB506:
 2852              	.LBI506:
 435:UIManager.cpp ****   if (is_Led1){
 2853              		.loc 1 435 6 view .LVU745
 2854              	.LBB507:
 436:UIManager.cpp ****     pod_.led1.Set(r,g,b);
 2855              		.loc 1 436 3 view .LVU746
 440:UIManager.cpp ****   }
 2856              		.loc 1 440 5 view .LVU747
 440:UIManager.cpp ****   }
 2857              		.loc 1 440 18 is_stmt 0 view .LVU748
 2858 003e 9FED041A 		vldr.32	s2, .L226
 2859 0042 0068     		ldr	r0, [r0]
 2860              	.LVL184:
 440:UIManager.cpp ****   }
 2861              		.loc 1 440 18 view .LVU749
 2862 0044 F0EE410A 		vmov.f32	s1, s2
 2863 0048 9FED020A 		vldr.32	s0, .L226+4
 2864 004c EAE7     		b	.L223
 2865              	.L227:
 2866 004e 00BF     		.align	2
 2867              	.L226:
 2868 0050 00007F43 		.word	1132396544
 2869 0054 00000000 		.word	0
 2870              	.LBE507:
 2871              	.LBE506:
 2872              	.LBE508:
 2873              		.cfi_endproc
 2874              	.LFE2610:
 2876              		.section	.text._ZN9UIManager13StartLedPulseEv,"ax",%progbits
 2877              		.align	1
 2878              		.p2align 2,,3
 2879              		.global	_ZN9UIManager13StartLedPulseEv
 2880              		.syntax unified
 2881              		.thumb
 2882              		.thumb_func
 2884              	_ZN9UIManager13StartLedPulseEv:
 2885              	.LVL185:
 2886              	.LFB2611:
 424:UIManager.cpp ****   pulse_brightness_ = 0;
 2887              		.loc 1 424 32 is_stmt 1 view -0
 2888              		.cfi_startproc
 2889              		@ args = 0, pretend = 0, frame = 0
 2890              		@ frame_needed = 0, uses_anonymous_args = 0
 2891              		@ link register save eliminated.
 425:UIManager.cpp ****   pulse_increasing_ = true;
 2892              		.loc 1 425 3 view .LVU751
 426:UIManager.cpp ****   pulse_count_ = 0;
 2893              		.loc 1 426 3 view .LVU752
 424:UIManager.cpp ****   pulse_brightness_ = 0;
 2894              		.loc 1 424 32 is_stmt 0 view .LVU753
 2895 0000 0346     		mov	r3, r0
 426:UIManager.cpp ****   pulse_count_ = 0;
 2896              		.loc 1 426 21 view .LVU754
 2897 0002 0121     		movs	r1, #1
 425:UIManager.cpp ****   pulse_increasing_ = true;
 2898              		.loc 1 425 21 view .LVU755
ARM GAS  /var/folders/2p/02m_5p7958535cp2tpgps0400000gn/T//ccA97qDZ.s 			page 78


 2899 0004 0022     		movs	r2, #0
 428:UIManager.cpp **** }
 2900              		.loc 1 428 15 view .LVU756
 2901 0006 0C30     		adds	r0, r0, #12
 2902              	.LVL186:
 426:UIManager.cpp ****   pulse_count_ = 0;
 2903              		.loc 1 426 21 view .LVU757
 2904 0008 1975     		strb	r1, [r3, #20]
 427:UIManager.cpp ****   timer_.Start();
 2905              		.loc 1 427 3 is_stmt 1 view .LVU758
 425:UIManager.cpp ****   pulse_increasing_ = true;
 2906              		.loc 1 425 21 is_stmt 0 view .LVU759
 2907 000a A3F81520 		strh	r2, [r3, #21]	@ unaligned
 428:UIManager.cpp **** }
 2908              		.loc 1 428 3 is_stmt 1 view .LVU760
 428:UIManager.cpp **** }
 2909              		.loc 1 428 15 is_stmt 0 view .LVU761
 2910 000e FFF7FEBF 		b	_ZN5daisy11TimerHandle5StartEv
 2911              	.LVL187:
 428:UIManager.cpp **** }
 2912              		.loc 1 428 15 view .LVU762
 2913              		.cfi_endproc
 2914              	.LFE2611:
 2916 0012 00BF     		.section	.text._ZN9UIManager12StopLedPulseEv,"ax",%progbits
 2917              		.align	1
 2918              		.p2align 2,,3
 2919              		.global	_ZN9UIManager12StopLedPulseEv
 2920              		.syntax unified
 2921              		.thumb
 2922              		.thumb_func
 2924              	_ZN9UIManager12StopLedPulseEv:
 2925              	.LVL188:
 2926              	.LFB2612:
 431:UIManager.cpp ****   timer_.Stop();
 2927              		.loc 1 431 31 is_stmt 1 view -0
 2928              		.cfi_startproc
 2929              		@ args = 0, pretend = 0, frame = 0
 2930              		@ frame_needed = 0, uses_anonymous_args = 0
 2931              		@ link register save eliminated.
 432:UIManager.cpp **** }
 2932              		.loc 1 432 3 view .LVU764
 432:UIManager.cpp **** }
 2933              		.loc 1 432 14 is_stmt 0 view .LVU765
 2934 0000 0C30     		adds	r0, r0, #12
 2935              	.LVL189:
 432:UIManager.cpp **** }
 2936              		.loc 1 432 14 view .LVU766
 2937 0002 FFF7FEBF 		b	_ZN5daisy11TimerHandle4StopEv
 2938              	.LVL190:
 432:UIManager.cpp **** }
 2939              		.loc 1 432 14 view .LVU767
 2940              		.cfi_endproc
 2941              	.LFE2612:
 2943 0006 00BF     		.section	.text._ZN9UIManager6SetLedEiiib,"ax",%progbits
 2944              		.align	1
 2945              		.p2align 2,,3
 2946              		.global	_ZN9UIManager6SetLedEiiib
ARM GAS  /var/folders/2p/02m_5p7958535cp2tpgps0400000gn/T//ccA97qDZ.s 			page 79


 2947              		.syntax unified
 2948              		.thumb
 2949              		.thumb_func
 2951              	_ZN9UIManager6SetLedEiiib:
 2952              	.LVL191:
 2953              	.LFB2613:
 435:UIManager.cpp ****   if (is_Led1){
 2954              		.loc 1 435 58 is_stmt 1 view -0
 2955              		.cfi_startproc
 2956              		@ args = 4, pretend = 0, frame = 0
 2957              		@ frame_needed = 0, uses_anonymous_args = 0
 436:UIManager.cpp ****     pod_.led1.Set(r,g,b);
 2958              		.loc 1 436 3 view .LVU769
 435:UIManager.cpp ****   if (is_Led1){
 2959              		.loc 1 435 58 is_stmt 0 view .LVU770
 2960 0000 38B5     		push	{r3, r4, r5, lr}
 2961              		.cfi_def_cfa_offset 16
 2962              		.cfi_offset 3, -16
 2963              		.cfi_offset 4, -12
 2964              		.cfi_offset 5, -8
 2965              		.cfi_offset 14, -4
 435:UIManager.cpp ****   if (is_Led1){
 2966              		.loc 1 435 58 view .LVU771
 2967 0002 00EE101A 		vmov	s0, r1	@ int
 2968 0006 00EE902A 		vmov	s1, r2	@ int
 2969 000a 01EE103A 		vmov	s2, r3	@ int
 2970 000e 9DF81050 		ldrb	r5, [sp, #16]	@ zero_extendqisi2
 2971 0012 0446     		mov	r4, r0
 437:UIManager.cpp ****   }
 2972              		.loc 1 437 18 view .LVU772
 2973 0014 F8EEE00A 		vcvt.f32.s32	s1, s1
 2974 0018 B8EEC11A 		vcvt.f32.s32	s2, s2
 2975 001c 0068     		ldr	r0, [r0]
 2976              	.LVL192:
 437:UIManager.cpp ****   }
 2977              		.loc 1 437 18 view .LVU773
 2978 001e B8EEC00A 		vcvt.f32.s32	s0, s0
 436:UIManager.cpp ****     pod_.led1.Set(r,g,b);
 2979              		.loc 1 436 3 view .LVU774
 2980 0022 55B1     		cbz	r5, .L231
 437:UIManager.cpp ****   }
 2981              		.loc 1 437 5 is_stmt 1 view .LVU775
 437:UIManager.cpp ****   }
 2982              		.loc 1 437 18 is_stmt 0 view .LVU776
 2983 0024 D830     		adds	r0, r0, #216
 2984 0026 FFF7FEFF 		bl	_ZN5daisy6RgbLed3SetEfff
 2985              	.LVL193:
 2986              	.L232:
 442:UIManager.cpp ****   System::Delay(10);
 2987              		.loc 1 442 3 is_stmt 1 view .LVU777
 442:UIManager.cpp ****   System::Delay(10);
 2988              		.loc 1 442 18 is_stmt 0 view .LVU778
 2989 002a 2068     		ldr	r0, [r4]
 2990 002c FFF7FEFF 		bl	_ZN5daisy8DaisyPod10UpdateLedsEv
 2991              	.LVL194:
 443:UIManager.cpp **** }
 2992              		.loc 1 443 3 is_stmt 1 view .LVU779
ARM GAS  /var/folders/2p/02m_5p7958535cp2tpgps0400000gn/T//ccA97qDZ.s 			page 80


 443:UIManager.cpp **** }
 2993              		.loc 1 443 16 is_stmt 0 view .LVU780
 2994 0030 0A20     		movs	r0, #10
 444:UIManager.cpp **** 
 2995              		.loc 1 444 1 view .LVU781
 2996 0032 BDE83840 		pop	{r3, r4, r5, lr}
 2997              		.cfi_remember_state
 2998              		.cfi_restore 14
 2999              		.cfi_restore 5
 3000              		.cfi_restore 4
 3001              		.cfi_restore 3
 3002              		.cfi_def_cfa_offset 0
 3003              	.LVL195:
 443:UIManager.cpp **** }
 3004              		.loc 1 443 16 view .LVU782
 3005 0036 FFF7FEBF 		b	_ZN5daisy6System5DelayEm
 3006              	.LVL196:
 3007              	.L231:
 3008              		.cfi_restore_state
 440:UIManager.cpp ****   }
 3009              		.loc 1 440 5 is_stmt 1 view .LVU783
 440:UIManager.cpp ****   }
 3010              		.loc 1 440 18 is_stmt 0 view .LVU784
 3011 003a 00F59670 		add	r0, r0, #300
 3012 003e FFF7FEFF 		bl	_ZN5daisy6RgbLed3SetEfff
 3013              	.LVL197:
 440:UIManager.cpp ****   }
 3014              		.loc 1 440 18 view .LVU785
 3015 0042 F2E7     		b	.L232
 3016              		.cfi_endproc
 3017              	.LFE2613:
 3019              		.section	.text._ZN9UIManager8BlinkLedEiiib,"ax",%progbits
 3020              		.align	1
 3021              		.p2align 2,,3
 3022              		.global	_ZN9UIManager8BlinkLedEiiib
 3023              		.syntax unified
 3024              		.thumb
 3025              		.thumb_func
 3027              	_ZN9UIManager8BlinkLedEiiib:
 3028              	.LVL198:
 3029              	.LFB2614:
 446:UIManager.cpp ****   SetLed(r,g,b, is_Led1);
 3030              		.loc 1 446 60 is_stmt 1 view -0
 3031              		.cfi_startproc
 3032              		@ args = 4, pretend = 0, frame = 0
 3033              		@ frame_needed = 0, uses_anonymous_args = 0
 447:UIManager.cpp ****   System::Delay(100);
 3034              		.loc 1 447 3 view .LVU787
 446:UIManager.cpp ****   SetLed(r,g,b, is_Led1);
 3035              		.loc 1 446 60 is_stmt 0 view .LVU788
 3036 0000 38B5     		push	{r3, r4, r5, lr}
 3037              		.cfi_def_cfa_offset 16
 3038              		.cfi_offset 3, -16
 3039              		.cfi_offset 4, -12
 3040              		.cfi_offset 5, -8
 3041              		.cfi_offset 14, -4
 446:UIManager.cpp ****   SetLed(r,g,b, is_Led1);
ARM GAS  /var/folders/2p/02m_5p7958535cp2tpgps0400000gn/T//ccA97qDZ.s 			page 81


 3042              		.loc 1 446 60 view .LVU789
 3043 0002 00EE101A 		vmov	s0, r1	@ int
 3044 0006 00EE902A 		vmov	s1, r2	@ int
 3045 000a 01EE103A 		vmov	s2, r3	@ int
 3046 000e 9DF81050 		ldrb	r5, [sp, #16]	@ zero_extendqisi2
 3047 0012 0446     		mov	r4, r0
 3048              	.LVL199:
 3049              	.LBB513:
 3050              	.LBI513:
 435:UIManager.cpp ****   if (is_Led1){
 3051              		.loc 1 435 6 is_stmt 1 view .LVU790
 3052              	.LBB514:
 436:UIManager.cpp ****     pod_.led1.Set(r,g,b);
 3053              		.loc 1 436 3 view .LVU791
 437:UIManager.cpp ****   }
 3054              		.loc 1 437 18 is_stmt 0 view .LVU792
 3055 0014 F8EEE00A 		vcvt.f32.s32	s1, s1
 3056 0018 B8EEC11A 		vcvt.f32.s32	s2, s2
 3057 001c 0068     		ldr	r0, [r0]
 3058              	.LVL200:
 437:UIManager.cpp ****   }
 3059              		.loc 1 437 18 view .LVU793
 3060 001e B8EEC00A 		vcvt.f32.s32	s0, s0
 436:UIManager.cpp ****     pod_.led1.Set(r,g,b);
 3061              		.loc 1 436 3 view .LVU794
 3062 0022 EDB1     		cbz	r5, .L235
 437:UIManager.cpp ****   }
 3063              		.loc 1 437 5 is_stmt 1 view .LVU795
 437:UIManager.cpp ****   }
 3064              		.loc 1 437 18 is_stmt 0 view .LVU796
 3065 0024 D830     		adds	r0, r0, #216
 3066 0026 FFF7FEFF 		bl	_ZN5daisy6RgbLed3SetEfff
 3067              	.LVL201:
 442:UIManager.cpp ****   System::Delay(10);
 3068              		.loc 1 442 3 is_stmt 1 view .LVU797
 442:UIManager.cpp ****   System::Delay(10);
 3069              		.loc 1 442 18 is_stmt 0 view .LVU798
 3070 002a 2068     		ldr	r0, [r4]
 3071 002c FFF7FEFF 		bl	_ZN5daisy8DaisyPod10UpdateLedsEv
 3072              	.LVL202:
 443:UIManager.cpp **** }
 3073              		.loc 1 443 3 is_stmt 1 view .LVU799
 443:UIManager.cpp **** }
 3074              		.loc 1 443 16 is_stmt 0 view .LVU800
 3075 0030 0A20     		movs	r0, #10
 3076 0032 FFF7FEFF 		bl	_ZN5daisy6System5DelayEm
 3077              	.LVL203:
 443:UIManager.cpp **** }
 3078              		.loc 1 443 16 view .LVU801
 3079              	.LBE514:
 3080              	.LBE513:
 448:UIManager.cpp ****   SetLed(0,0,0, is_Led1);
 3081              		.loc 1 448 3 is_stmt 1 view .LVU802
 448:UIManager.cpp ****   SetLed(0,0,0, is_Led1);
 3082              		.loc 1 448 16 is_stmt 0 view .LVU803
 3083 0036 6420     		movs	r0, #100
 3084 0038 FFF7FEFF 		bl	_ZN5daisy6System5DelayEm
ARM GAS  /var/folders/2p/02m_5p7958535cp2tpgps0400000gn/T//ccA97qDZ.s 			page 82


 3085              	.LVL204:
 449:UIManager.cpp **** }
 3086              		.loc 1 449 3 is_stmt 1 view .LVU804
 3087              	.LBB516:
 3088              	.LBI516:
 435:UIManager.cpp ****   if (is_Led1){
 3089              		.loc 1 435 6 view .LVU805
 3090              	.LBB517:
 436:UIManager.cpp ****     pod_.led1.Set(r,g,b);
 3091              		.loc 1 436 3 view .LVU806
 437:UIManager.cpp ****   }
 3092              		.loc 1 437 5 view .LVU807
 437:UIManager.cpp ****   }
 3093              		.loc 1 437 18 is_stmt 0 view .LVU808
 3094 003c 9FED151A 		vldr.32	s2, .L238
 3095 0040 2068     		ldr	r0, [r4]
 3096 0042 F0EE410A 		vmov.f32	s1, s2
 3097 0046 B0EE410A 		vmov.f32	s0, s2
 3098 004a D830     		adds	r0, r0, #216
 3099 004c FFF7FEFF 		bl	_ZN5daisy6RgbLed3SetEfff
 3100              	.LVL205:
 3101              	.L236:
 442:UIManager.cpp ****   System::Delay(10);
 3102              		.loc 1 442 3 is_stmt 1 view .LVU809
 442:UIManager.cpp ****   System::Delay(10);
 3103              		.loc 1 442 18 is_stmt 0 view .LVU810
 3104 0050 2068     		ldr	r0, [r4]
 3105 0052 FFF7FEFF 		bl	_ZN5daisy8DaisyPod10UpdateLedsEv
 3106              	.LVL206:
 443:UIManager.cpp **** }
 3107              		.loc 1 443 3 is_stmt 1 view .LVU811
 443:UIManager.cpp **** }
 3108              		.loc 1 443 16 is_stmt 0 view .LVU812
 3109 0056 0A20     		movs	r0, #10
 3110              	.LBE517:
 3111              	.LBE516:
 450:UIManager.cpp **** 
 3112              		.loc 1 450 1 view .LVU813
 3113 0058 BDE83840 		pop	{r3, r4, r5, lr}
 3114              		.cfi_remember_state
 3115              		.cfi_restore 14
 3116              		.cfi_restore 5
 3117              		.cfi_restore 4
 3118              		.cfi_restore 3
 3119              		.cfi_def_cfa_offset 0
 3120              	.LVL207:
 3121              	.LBB520:
 3122              	.LBB518:
 443:UIManager.cpp **** }
 3123              		.loc 1 443 16 view .LVU814
 3124 005c FFF7FEBF 		b	_ZN5daisy6System5DelayEm
 3125              	.LVL208:
 3126              	.L235:
 3127              		.cfi_restore_state
 443:UIManager.cpp **** }
 3128              		.loc 1 443 16 view .LVU815
 3129              	.LBE518:
ARM GAS  /var/folders/2p/02m_5p7958535cp2tpgps0400000gn/T//ccA97qDZ.s 			page 83


 3130              	.LBE520:
 3131              	.LBB521:
 3132              	.LBB515:
 440:UIManager.cpp ****   }
 3133              		.loc 1 440 5 is_stmt 1 view .LVU816
 440:UIManager.cpp ****   }
 3134              		.loc 1 440 18 is_stmt 0 view .LVU817
 3135 0060 00F59670 		add	r0, r0, #300
 3136 0064 FFF7FEFF 		bl	_ZN5daisy6RgbLed3SetEfff
 3137              	.LVL209:
 442:UIManager.cpp ****   System::Delay(10);
 3138              		.loc 1 442 3 is_stmt 1 view .LVU818
 442:UIManager.cpp ****   System::Delay(10);
 3139              		.loc 1 442 18 is_stmt 0 view .LVU819
 3140 0068 2068     		ldr	r0, [r4]
 3141 006a FFF7FEFF 		bl	_ZN5daisy8DaisyPod10UpdateLedsEv
 3142              	.LVL210:
 443:UIManager.cpp **** }
 3143              		.loc 1 443 3 is_stmt 1 view .LVU820
 443:UIManager.cpp **** }
 3144              		.loc 1 443 16 is_stmt 0 view .LVU821
 3145 006e 0A20     		movs	r0, #10
 3146 0070 FFF7FEFF 		bl	_ZN5daisy6System5DelayEm
 3147              	.LVL211:
 443:UIManager.cpp **** }
 3148              		.loc 1 443 16 view .LVU822
 3149              	.LBE515:
 3150              	.LBE521:
 448:UIManager.cpp ****   SetLed(0,0,0, is_Led1);
 3151              		.loc 1 448 3 is_stmt 1 view .LVU823
 448:UIManager.cpp ****   SetLed(0,0,0, is_Led1);
 3152              		.loc 1 448 16 is_stmt 0 view .LVU824
 3153 0074 6420     		movs	r0, #100
 3154 0076 FFF7FEFF 		bl	_ZN5daisy6System5DelayEm
 3155              	.LVL212:
 449:UIManager.cpp **** }
 3156              		.loc 1 449 3 is_stmt 1 view .LVU825
 3157              	.LBB522:
 435:UIManager.cpp ****   if (is_Led1){
 3158              		.loc 1 435 6 view .LVU826
 3159              	.LBB519:
 436:UIManager.cpp ****     pod_.led1.Set(r,g,b);
 3160              		.loc 1 436 3 view .LVU827
 440:UIManager.cpp ****   }
 3161              		.loc 1 440 5 view .LVU828
 440:UIManager.cpp ****   }
 3162              		.loc 1 440 18 is_stmt 0 view .LVU829
 3163 007a 9FED061A 		vldr.32	s2, .L238
 3164 007e 2068     		ldr	r0, [r4]
 3165 0080 F0EE410A 		vmov.f32	s1, s2
 3166 0084 B0EE410A 		vmov.f32	s0, s2
 3167 0088 00F59670 		add	r0, r0, #300
 3168 008c FFF7FEFF 		bl	_ZN5daisy6RgbLed3SetEfff
 3169              	.LVL213:
 3170 0090 DEE7     		b	.L236
 3171              	.L239:
 3172 0092 00BF     		.align	2
ARM GAS  /var/folders/2p/02m_5p7958535cp2tpgps0400000gn/T//ccA97qDZ.s 			page 84


 3173              	.L238:
 3174 0094 00000000 		.word	0
 3175              	.LBE519:
 3176              	.LBE522:
 3177              		.cfi_endproc
 3178              	.LFE2614:
 3180              		.section	.text._ZN9UIManager11BlinkSetLedEiiib,"ax",%progbits
 3181              		.align	1
 3182              		.p2align 2,,3
 3183              		.global	_ZN9UIManager11BlinkSetLedEiiib
 3184              		.syntax unified
 3185              		.thumb
 3186              		.thumb_func
 3188              	_ZN9UIManager11BlinkSetLedEiiib:
 3189              	.LVL214:
 3190              	.LFB2615:
 452:UIManager.cpp ****   BlinkLed(r,g,b, is_Led1);
 3191              		.loc 1 452 63 is_stmt 1 view -0
 3192              		.cfi_startproc
 3193              		@ args = 4, pretend = 0, frame = 0
 3194              		@ frame_needed = 0, uses_anonymous_args = 0
 452:UIManager.cpp ****   BlinkLed(r,g,b, is_Led1);
 3195              		.loc 1 452 63 is_stmt 0 view .LVU831
 3196 0000 38B5     		push	{r3, r4, r5, lr}
 3197              		.cfi_def_cfa_offset 16
 3198              		.cfi_offset 3, -16
 3199              		.cfi_offset 4, -12
 3200              		.cfi_offset 5, -8
 3201              		.cfi_offset 14, -4
 3202 0002 2DED048B 		vpush.64	{d8, d9}
 3203              		.cfi_def_cfa_offset 32
 3204              		.cfi_offset 80, -32
 3205              		.cfi_offset 81, -28
 3206              		.cfi_offset 82, -24
 3207              		.cfi_offset 83, -20
 452:UIManager.cpp ****   BlinkLed(r,g,b, is_Led1);
 3208              		.loc 1 452 63 view .LVU832
 3209 0006 08EE101A 		vmov	s16, r1	@ int
 3210 000a 08EE902A 		vmov	s17, r2	@ int
 3211 000e 09EE103A 		vmov	s18, r3	@ int
 3212 0012 9DF82050 		ldrb	r5, [sp, #32]	@ zero_extendqisi2
 3213              	.LBB537:
 3214              	.LBB538:
 3215              	.LBB539:
 3216              	.LBB540:
 437:UIManager.cpp ****   }
 3217              		.loc 1 437 18 view .LVU833
 3218 0016 B8EEC88A 		vcvt.f32.s32	s16, s16
 3219              	.LBE540:
 3220              	.LBE539:
 3221              	.LBE538:
 3222              	.LBE537:
 452:UIManager.cpp ****   BlinkLed(r,g,b, is_Led1);
 3223              		.loc 1 452 63 view .LVU834
 3224 001a 0446     		mov	r4, r0
 453:UIManager.cpp ****   System::Delay(100);
 3225              		.loc 1 453 3 is_stmt 1 view .LVU835
ARM GAS  /var/folders/2p/02m_5p7958535cp2tpgps0400000gn/T//ccA97qDZ.s 			page 85


 3226              	.LVL215:
 3227              	.LBB551:
 3228              	.LBI537:
 446:UIManager.cpp ****   SetLed(r,g,b, is_Led1);
 3229              		.loc 1 446 6 view .LVU836
 3230              	.LBB549:
 447:UIManager.cpp ****   System::Delay(100);
 3231              		.loc 1 447 3 view .LVU837
 3232              	.LBB543:
 3233              	.LBI539:
 435:UIManager.cpp ****   if (is_Led1){
 3234              		.loc 1 435 6 view .LVU838
 3235              	.LBB541:
 436:UIManager.cpp ****     pod_.led1.Set(r,g,b);
 3236              		.loc 1 436 3 view .LVU839
 437:UIManager.cpp ****   }
 3237              		.loc 1 437 18 is_stmt 0 view .LVU840
 3238 001c F8EEE88A 		vcvt.f32.s32	s17, s17
 3239 0020 0068     		ldr	r0, [r0]
 3240              	.LVL216:
 437:UIManager.cpp ****   }
 3241              		.loc 1 437 18 view .LVU841
 3242 0022 B8EEC99A 		vcvt.f32.s32	s18, s18
 3243 0026 B0EE480A 		vmov.f32	s0, s16
 3244 002a F0EE680A 		vmov.f32	s1, s17
 3245 002e B0EE491A 		vmov.f32	s2, s18
 436:UIManager.cpp ****     pod_.led1.Set(r,g,b);
 3246              		.loc 1 436 3 view .LVU842
 3247 0032 002D     		cmp	r5, #0
 3248 0034 58D0     		beq	.L241
 437:UIManager.cpp ****   }
 3249              		.loc 1 437 5 is_stmt 1 view .LVU843
 437:UIManager.cpp ****   }
 3250              		.loc 1 437 18 is_stmt 0 view .LVU844
 3251 0036 D830     		adds	r0, r0, #216
 3252 0038 FFF7FEFF 		bl	_ZN5daisy6RgbLed3SetEfff
 3253              	.LVL217:
 442:UIManager.cpp ****   System::Delay(10);
 3254              		.loc 1 442 3 is_stmt 1 view .LVU845
 442:UIManager.cpp ****   System::Delay(10);
 3255              		.loc 1 442 18 is_stmt 0 view .LVU846
 3256 003c 2068     		ldr	r0, [r4]
 3257 003e FFF7FEFF 		bl	_ZN5daisy8DaisyPod10UpdateLedsEv
 3258              	.LVL218:
 443:UIManager.cpp **** }
 3259              		.loc 1 443 3 is_stmt 1 view .LVU847
 443:UIManager.cpp **** }
 3260              		.loc 1 443 16 is_stmt 0 view .LVU848
 3261 0042 0A20     		movs	r0, #10
 3262 0044 FFF7FEFF 		bl	_ZN5daisy6System5DelayEm
 3263              	.LVL219:
 443:UIManager.cpp **** }
 3264              		.loc 1 443 16 view .LVU849
 3265              	.LBE541:
 3266              	.LBE543:
 448:UIManager.cpp ****   SetLed(0,0,0, is_Led1);
 3267              		.loc 1 448 3 is_stmt 1 view .LVU850
ARM GAS  /var/folders/2p/02m_5p7958535cp2tpgps0400000gn/T//ccA97qDZ.s 			page 86


 448:UIManager.cpp ****   SetLed(0,0,0, is_Led1);
 3268              		.loc 1 448 16 is_stmt 0 view .LVU851
 3269 0048 6420     		movs	r0, #100
 3270 004a FFF7FEFF 		bl	_ZN5daisy6System5DelayEm
 3271              	.LVL220:
 449:UIManager.cpp **** }
 3272              		.loc 1 449 3 is_stmt 1 view .LVU852
 3273              	.LBB544:
 3274              	.LBI544:
 435:UIManager.cpp ****   if (is_Led1){
 3275              		.loc 1 435 6 view .LVU853
 3276              	.LBB545:
 436:UIManager.cpp ****     pod_.led1.Set(r,g,b);
 3277              		.loc 1 436 3 view .LVU854
 437:UIManager.cpp ****   }
 3278              		.loc 1 437 5 view .LVU855
 437:UIManager.cpp ****   }
 3279              		.loc 1 437 18 is_stmt 0 view .LVU856
 3280 004e 9FED511A 		vldr.32	s2, .L244
 3281 0052 2068     		ldr	r0, [r4]
 3282 0054 F0EE410A 		vmov.f32	s1, s2
 3283 0058 B0EE410A 		vmov.f32	s0, s2
 3284 005c D830     		adds	r0, r0, #216
 3285 005e FFF7FEFF 		bl	_ZN5daisy6RgbLed3SetEfff
 3286              	.LVL221:
 442:UIManager.cpp ****   System::Delay(10);
 3287              		.loc 1 442 3 is_stmt 1 view .LVU857
 442:UIManager.cpp ****   System::Delay(10);
 3288              		.loc 1 442 18 is_stmt 0 view .LVU858
 3289 0062 2068     		ldr	r0, [r4]
 3290 0064 FFF7FEFF 		bl	_ZN5daisy8DaisyPod10UpdateLedsEv
 3291              	.LVL222:
 443:UIManager.cpp **** }
 3292              		.loc 1 443 3 is_stmt 1 view .LVU859
 443:UIManager.cpp **** }
 3293              		.loc 1 443 16 is_stmt 0 view .LVU860
 3294 0068 0A20     		movs	r0, #10
 3295 006a FFF7FEFF 		bl	_ZN5daisy6System5DelayEm
 3296              	.LVL223:
 443:UIManager.cpp **** }
 3297              		.loc 1 443 16 view .LVU861
 3298              	.LBE545:
 3299              	.LBE544:
 3300              	.LBE549:
 3301              	.LBE551:
 454:UIManager.cpp ****   BlinkLed(r,g,b, is_Led1);
 3302              		.loc 1 454 3 is_stmt 1 view .LVU862
 454:UIManager.cpp ****   BlinkLed(r,g,b, is_Led1);
 3303              		.loc 1 454 16 is_stmt 0 view .LVU863
 3304 006e 6420     		movs	r0, #100
 3305 0070 FFF7FEFF 		bl	_ZN5daisy6System5DelayEm
 3306              	.LVL224:
 455:UIManager.cpp ****   System::Delay(100);
 3307              		.loc 1 455 3 is_stmt 1 view .LVU864
 3308              	.LBB552:
 3309              	.LBI552:
 446:UIManager.cpp ****   SetLed(r,g,b, is_Led1);
ARM GAS  /var/folders/2p/02m_5p7958535cp2tpgps0400000gn/T//ccA97qDZ.s 			page 87


 3310              		.loc 1 446 6 view .LVU865
 3311              	.LBB553:
 447:UIManager.cpp ****   System::Delay(100);
 3312              		.loc 1 447 3 view .LVU866
 3313              	.LBB554:
 3314              	.LBI554:
 435:UIManager.cpp ****   if (is_Led1){
 3315              		.loc 1 435 6 view .LVU867
 3316              	.LBB555:
 436:UIManager.cpp ****     pod_.led1.Set(r,g,b);
 3317              		.loc 1 436 3 view .LVU868
 437:UIManager.cpp ****   }
 3318              		.loc 1 437 5 view .LVU869
 437:UIManager.cpp ****   }
 3319              		.loc 1 437 18 is_stmt 0 view .LVU870
 3320 0074 2068     		ldr	r0, [r4]
 3321 0076 B0EE491A 		vmov.f32	s2, s18
 3322 007a F0EE680A 		vmov.f32	s1, s17
 3323 007e D830     		adds	r0, r0, #216
 3324 0080 B0EE480A 		vmov.f32	s0, s16
 3325 0084 FFF7FEFF 		bl	_ZN5daisy6RgbLed3SetEfff
 3326              	.LVL225:
 442:UIManager.cpp ****   System::Delay(10);
 3327              		.loc 1 442 3 is_stmt 1 view .LVU871
 442:UIManager.cpp ****   System::Delay(10);
 3328              		.loc 1 442 18 is_stmt 0 view .LVU872
 3329 0088 2068     		ldr	r0, [r4]
 3330 008a FFF7FEFF 		bl	_ZN5daisy8DaisyPod10UpdateLedsEv
 3331              	.LVL226:
 443:UIManager.cpp **** }
 3332              		.loc 1 443 3 is_stmt 1 view .LVU873
 443:UIManager.cpp **** }
 3333              		.loc 1 443 16 is_stmt 0 view .LVU874
 3334 008e 0A20     		movs	r0, #10
 3335 0090 FFF7FEFF 		bl	_ZN5daisy6System5DelayEm
 3336              	.LVL227:
 443:UIManager.cpp **** }
 3337              		.loc 1 443 16 view .LVU875
 3338              	.LBE555:
 3339              	.LBE554:
 448:UIManager.cpp ****   SetLed(0,0,0, is_Led1);
 3340              		.loc 1 448 3 is_stmt 1 view .LVU876
 448:UIManager.cpp ****   SetLed(0,0,0, is_Led1);
 3341              		.loc 1 448 16 is_stmt 0 view .LVU877
 3342 0094 6420     		movs	r0, #100
 3343 0096 FFF7FEFF 		bl	_ZN5daisy6System5DelayEm
 3344              	.LVL228:
 449:UIManager.cpp **** }
 3345              		.loc 1 449 3 is_stmt 1 view .LVU878
 3346              	.LBB557:
 3347              	.LBI557:
 435:UIManager.cpp ****   if (is_Led1){
 3348              		.loc 1 435 6 view .LVU879
 3349              	.LBB558:
 436:UIManager.cpp ****     pod_.led1.Set(r,g,b);
 3350              		.loc 1 436 3 view .LVU880
 437:UIManager.cpp ****   }
ARM GAS  /var/folders/2p/02m_5p7958535cp2tpgps0400000gn/T//ccA97qDZ.s 			page 88


 3351              		.loc 1 437 5 view .LVU881
 437:UIManager.cpp ****   }
 3352              		.loc 1 437 18 is_stmt 0 view .LVU882
 3353 009a 9FED3E1A 		vldr.32	s2, .L244
 3354 009e 2068     		ldr	r0, [r4]
 3355 00a0 F0EE410A 		vmov.f32	s1, s2
 3356 00a4 B0EE410A 		vmov.f32	s0, s2
 3357 00a8 D830     		adds	r0, r0, #216
 3358 00aa FFF7FEFF 		bl	_ZN5daisy6RgbLed3SetEfff
 3359              	.LVL229:
 442:UIManager.cpp ****   System::Delay(10);
 3360              		.loc 1 442 3 is_stmt 1 view .LVU883
 442:UIManager.cpp ****   System::Delay(10);
 3361              		.loc 1 442 18 is_stmt 0 view .LVU884
 3362 00ae 2068     		ldr	r0, [r4]
 3363 00b0 FFF7FEFF 		bl	_ZN5daisy8DaisyPod10UpdateLedsEv
 3364              	.LVL230:
 443:UIManager.cpp **** }
 3365              		.loc 1 443 3 is_stmt 1 view .LVU885
 443:UIManager.cpp **** }
 3366              		.loc 1 443 16 is_stmt 0 view .LVU886
 3367 00b4 0A20     		movs	r0, #10
 3368 00b6 FFF7FEFF 		bl	_ZN5daisy6System5DelayEm
 3369              	.LVL231:
 443:UIManager.cpp **** }
 3370              		.loc 1 443 16 view .LVU887
 3371              	.LBE558:
 3372              	.LBE557:
 3373              	.LBE553:
 3374              	.LBE552:
 456:UIManager.cpp ****   SetLed(r,g,b, is_Led1);
 3375              		.loc 1 456 3 is_stmt 1 view .LVU888
 456:UIManager.cpp ****   SetLed(r,g,b, is_Led1);
 3376              		.loc 1 456 16 is_stmt 0 view .LVU889
 3377 00ba 6420     		movs	r0, #100
 3378 00bc FFF7FEFF 		bl	_ZN5daisy6System5DelayEm
 3379              	.LVL232:
 457:UIManager.cpp **** }
 3380              		.loc 1 457 3 is_stmt 1 view .LVU890
 3381              	.LBB563:
 3382              	.LBI563:
 435:UIManager.cpp ****   if (is_Led1){
 3383              		.loc 1 435 6 view .LVU891
 3384              	.LBB564:
 436:UIManager.cpp ****     pod_.led1.Set(r,g,b);
 3385              		.loc 1 436 3 view .LVU892
 437:UIManager.cpp ****   }
 3386              		.loc 1 437 5 view .LVU893
 437:UIManager.cpp ****   }
 3387              		.loc 1 437 18 is_stmt 0 view .LVU894
 3388 00c0 2068     		ldr	r0, [r4]
 3389 00c2 B0EE491A 		vmov.f32	s2, s18
 3390 00c6 F0EE680A 		vmov.f32	s1, s17
 3391 00ca D830     		adds	r0, r0, #216
 3392 00cc B0EE480A 		vmov.f32	s0, s16
 3393 00d0 FFF7FEFF 		bl	_ZN5daisy6RgbLed3SetEfff
 3394              	.LVL233:
ARM GAS  /var/folders/2p/02m_5p7958535cp2tpgps0400000gn/T//ccA97qDZ.s 			page 89


 3395              	.L242:
 442:UIManager.cpp ****   System::Delay(10);
 3396              		.loc 1 442 3 is_stmt 1 view .LVU895
 442:UIManager.cpp ****   System::Delay(10);
 3397              		.loc 1 442 18 is_stmt 0 view .LVU896
 3398 00d4 2068     		ldr	r0, [r4]
 3399 00d6 FFF7FEFF 		bl	_ZN5daisy8DaisyPod10UpdateLedsEv
 3400              	.LVL234:
 443:UIManager.cpp **** }
 3401              		.loc 1 443 3 is_stmt 1 view .LVU897
 443:UIManager.cpp **** }
 3402              		.loc 1 443 16 is_stmt 0 view .LVU898
 3403 00da 0A20     		movs	r0, #10
 3404              	.LBE564:
 3405              	.LBE563:
 458:UIManager.cpp **** 
 3406              		.loc 1 458 1 view .LVU899
 3407 00dc BDEC048B 		vldm	sp!, {d8-d9}
 3408              		.cfi_remember_state
 3409              		.cfi_restore 82
 3410              		.cfi_restore 83
 3411              		.cfi_restore 80
 3412              		.cfi_restore 81
 3413              		.cfi_def_cfa_offset 16
 3414 00e0 BDE83840 		pop	{r3, r4, r5, lr}
 3415              		.cfi_restore 14
 3416              		.cfi_restore 5
 3417              		.cfi_restore 4
 3418              		.cfi_restore 3
 3419              		.cfi_def_cfa_offset 0
 3420              	.LVL235:
 3421              	.LBB567:
 3422              	.LBB565:
 443:UIManager.cpp **** }
 3423              		.loc 1 443 16 view .LVU900
 3424 00e4 FFF7FEBF 		b	_ZN5daisy6System5DelayEm
 3425              	.LVL236:
 3426              	.L241:
 3427              		.cfi_restore_state
 443:UIManager.cpp **** }
 3428              		.loc 1 443 16 view .LVU901
 3429              	.LBE565:
 3430              	.LBE567:
 3431              	.LBB568:
 3432              	.LBB550:
 3433              	.LBB547:
 3434              	.LBB542:
 440:UIManager.cpp ****   }
 3435              		.loc 1 440 5 is_stmt 1 view .LVU902
 440:UIManager.cpp ****   }
 3436              		.loc 1 440 18 is_stmt 0 view .LVU903
 3437 00e8 00F59670 		add	r0, r0, #300
 3438 00ec FFF7FEFF 		bl	_ZN5daisy6RgbLed3SetEfff
 3439              	.LVL237:
 442:UIManager.cpp ****   System::Delay(10);
 3440              		.loc 1 442 3 is_stmt 1 view .LVU904
 442:UIManager.cpp ****   System::Delay(10);
ARM GAS  /var/folders/2p/02m_5p7958535cp2tpgps0400000gn/T//ccA97qDZ.s 			page 90


 3441              		.loc 1 442 18 is_stmt 0 view .LVU905
 3442 00f0 2068     		ldr	r0, [r4]
 3443 00f2 FFF7FEFF 		bl	_ZN5daisy8DaisyPod10UpdateLedsEv
 3444              	.LVL238:
 443:UIManager.cpp **** }
 3445              		.loc 1 443 3 is_stmt 1 view .LVU906
 443:UIManager.cpp **** }
 3446              		.loc 1 443 16 is_stmt 0 view .LVU907
 3447 00f6 0A20     		movs	r0, #10
 3448 00f8 FFF7FEFF 		bl	_ZN5daisy6System5DelayEm
 3449              	.LVL239:
 443:UIManager.cpp **** }
 3450              		.loc 1 443 16 view .LVU908
 3451              	.LBE542:
 3452              	.LBE547:
 448:UIManager.cpp ****   SetLed(0,0,0, is_Led1);
 3453              		.loc 1 448 3 is_stmt 1 view .LVU909
 448:UIManager.cpp ****   SetLed(0,0,0, is_Led1);
 3454              		.loc 1 448 16 is_stmt 0 view .LVU910
 3455 00fc 6420     		movs	r0, #100
 3456 00fe FFF7FEFF 		bl	_ZN5daisy6System5DelayEm
 3457              	.LVL240:
 449:UIManager.cpp **** }
 3458              		.loc 1 449 3 is_stmt 1 view .LVU911
 3459              	.LBB548:
 435:UIManager.cpp ****   if (is_Led1){
 3460              		.loc 1 435 6 view .LVU912
 3461              	.LBB546:
 436:UIManager.cpp ****     pod_.led1.Set(r,g,b);
 3462              		.loc 1 436 3 view .LVU913
 440:UIManager.cpp ****   }
 3463              		.loc 1 440 5 view .LVU914
 440:UIManager.cpp ****   }
 3464              		.loc 1 440 18 is_stmt 0 view .LVU915
 3465 0102 9FED241A 		vldr.32	s2, .L244
 3466 0106 2068     		ldr	r0, [r4]
 3467 0108 F0EE410A 		vmov.f32	s1, s2
 3468 010c B0EE410A 		vmov.f32	s0, s2
 3469 0110 00F59670 		add	r0, r0, #300
 3470 0114 FFF7FEFF 		bl	_ZN5daisy6RgbLed3SetEfff
 3471              	.LVL241:
 442:UIManager.cpp ****   System::Delay(10);
 3472              		.loc 1 442 3 is_stmt 1 view .LVU916
 442:UIManager.cpp ****   System::Delay(10);
 3473              		.loc 1 442 18 is_stmt 0 view .LVU917
 3474 0118 2068     		ldr	r0, [r4]
 3475 011a FFF7FEFF 		bl	_ZN5daisy8DaisyPod10UpdateLedsEv
 3476              	.LVL242:
 443:UIManager.cpp **** }
 3477              		.loc 1 443 3 is_stmt 1 view .LVU918
 443:UIManager.cpp **** }
 3478              		.loc 1 443 16 is_stmt 0 view .LVU919
 3479 011e 0A20     		movs	r0, #10
 3480 0120 FFF7FEFF 		bl	_ZN5daisy6System5DelayEm
 3481              	.LVL243:
 443:UIManager.cpp **** }
 3482              		.loc 1 443 16 view .LVU920
ARM GAS  /var/folders/2p/02m_5p7958535cp2tpgps0400000gn/T//ccA97qDZ.s 			page 91


 3483              	.LBE546:
 3484              	.LBE548:
 3485              	.LBE550:
 3486              	.LBE568:
 454:UIManager.cpp ****   BlinkLed(r,g,b, is_Led1);
 3487              		.loc 1 454 3 is_stmt 1 view .LVU921
 454:UIManager.cpp ****   BlinkLed(r,g,b, is_Led1);
 3488              		.loc 1 454 16 is_stmt 0 view .LVU922
 3489 0124 6420     		movs	r0, #100
 3490 0126 FFF7FEFF 		bl	_ZN5daisy6System5DelayEm
 3491              	.LVL244:
 455:UIManager.cpp ****   System::Delay(100);
 3492              		.loc 1 455 3 is_stmt 1 view .LVU923
 3493              	.LBB569:
 446:UIManager.cpp ****   SetLed(r,g,b, is_Led1);
 3494              		.loc 1 446 6 view .LVU924
 3495              	.LBB562:
 447:UIManager.cpp ****   System::Delay(100);
 3496              		.loc 1 447 3 view .LVU925
 3497              	.LBB560:
 435:UIManager.cpp ****   if (is_Led1){
 3498              		.loc 1 435 6 view .LVU926
 3499              	.LBB556:
 436:UIManager.cpp ****     pod_.led1.Set(r,g,b);
 3500              		.loc 1 436 3 view .LVU927
 440:UIManager.cpp ****   }
 3501              		.loc 1 440 5 view .LVU928
 440:UIManager.cpp ****   }
 3502              		.loc 1 440 18 is_stmt 0 view .LVU929
 3503 012a 2068     		ldr	r0, [r4]
 3504 012c B0EE491A 		vmov.f32	s2, s18
 3505 0130 F0EE680A 		vmov.f32	s1, s17
 3506 0134 00F59670 		add	r0, r0, #300
 3507 0138 B0EE480A 		vmov.f32	s0, s16
 3508 013c FFF7FEFF 		bl	_ZN5daisy6RgbLed3SetEfff
 3509              	.LVL245:
 442:UIManager.cpp ****   System::Delay(10);
 3510              		.loc 1 442 3 is_stmt 1 view .LVU930
 442:UIManager.cpp ****   System::Delay(10);
 3511              		.loc 1 442 18 is_stmt 0 view .LVU931
 3512 0140 2068     		ldr	r0, [r4]
 3513 0142 FFF7FEFF 		bl	_ZN5daisy8DaisyPod10UpdateLedsEv
 3514              	.LVL246:
 443:UIManager.cpp **** }
 3515              		.loc 1 443 3 is_stmt 1 view .LVU932
 443:UIManager.cpp **** }
 3516              		.loc 1 443 16 is_stmt 0 view .LVU933
 3517 0146 0A20     		movs	r0, #10
 3518 0148 FFF7FEFF 		bl	_ZN5daisy6System5DelayEm
 3519              	.LVL247:
 443:UIManager.cpp **** }
 3520              		.loc 1 443 16 view .LVU934
 3521              	.LBE556:
 3522              	.LBE560:
 448:UIManager.cpp ****   SetLed(0,0,0, is_Led1);
 3523              		.loc 1 448 3 is_stmt 1 view .LVU935
 448:UIManager.cpp ****   SetLed(0,0,0, is_Led1);
ARM GAS  /var/folders/2p/02m_5p7958535cp2tpgps0400000gn/T//ccA97qDZ.s 			page 92


 3524              		.loc 1 448 16 is_stmt 0 view .LVU936
 3525 014c 6420     		movs	r0, #100
 3526 014e FFF7FEFF 		bl	_ZN5daisy6System5DelayEm
 3527              	.LVL248:
 449:UIManager.cpp **** }
 3528              		.loc 1 449 3 is_stmt 1 view .LVU937
 3529              	.LBB561:
 435:UIManager.cpp ****   if (is_Led1){
 3530              		.loc 1 435 6 view .LVU938
 3531              	.LBB559:
 436:UIManager.cpp ****     pod_.led1.Set(r,g,b);
 3532              		.loc 1 436 3 view .LVU939
 440:UIManager.cpp ****   }
 3533              		.loc 1 440 5 view .LVU940
 440:UIManager.cpp ****   }
 3534              		.loc 1 440 18 is_stmt 0 view .LVU941
 3535 0152 9FED101A 		vldr.32	s2, .L244
 3536 0156 2068     		ldr	r0, [r4]
 3537 0158 F0EE410A 		vmov.f32	s1, s2
 3538 015c B0EE410A 		vmov.f32	s0, s2
 3539 0160 00F59670 		add	r0, r0, #300
 3540 0164 FFF7FEFF 		bl	_ZN5daisy6RgbLed3SetEfff
 3541              	.LVL249:
 442:UIManager.cpp ****   System::Delay(10);
 3542              		.loc 1 442 3 is_stmt 1 view .LVU942
 442:UIManager.cpp ****   System::Delay(10);
 3543              		.loc 1 442 18 is_stmt 0 view .LVU943
 3544 0168 2068     		ldr	r0, [r4]
 3545 016a FFF7FEFF 		bl	_ZN5daisy8DaisyPod10UpdateLedsEv
 3546              	.LVL250:
 443:UIManager.cpp **** }
 3547              		.loc 1 443 3 is_stmt 1 view .LVU944
 443:UIManager.cpp **** }
 3548              		.loc 1 443 16 is_stmt 0 view .LVU945
 3549 016e 0A20     		movs	r0, #10
 3550 0170 FFF7FEFF 		bl	_ZN5daisy6System5DelayEm
 3551              	.LVL251:
 443:UIManager.cpp **** }
 3552              		.loc 1 443 16 view .LVU946
 3553              	.LBE559:
 3554              	.LBE561:
 3555              	.LBE562:
 3556              	.LBE569:
 456:UIManager.cpp ****   SetLed(r,g,b, is_Led1);
 3557              		.loc 1 456 3 is_stmt 1 view .LVU947
 456:UIManager.cpp ****   SetLed(r,g,b, is_Led1);
 3558              		.loc 1 456 16 is_stmt 0 view .LVU948
 3559 0174 6420     		movs	r0, #100
 3560 0176 FFF7FEFF 		bl	_ZN5daisy6System5DelayEm
 3561              	.LVL252:
 457:UIManager.cpp **** }
 3562              		.loc 1 457 3 is_stmt 1 view .LVU949
 3563              	.LBB570:
 435:UIManager.cpp ****   if (is_Led1){
 3564              		.loc 1 435 6 view .LVU950
 3565              	.LBB566:
 436:UIManager.cpp ****     pod_.led1.Set(r,g,b);
ARM GAS  /var/folders/2p/02m_5p7958535cp2tpgps0400000gn/T//ccA97qDZ.s 			page 93


 3566              		.loc 1 436 3 view .LVU951
 440:UIManager.cpp ****   }
 3567              		.loc 1 440 5 view .LVU952
 440:UIManager.cpp ****   }
 3568              		.loc 1 440 18 is_stmt 0 view .LVU953
 3569 017a 2068     		ldr	r0, [r4]
 3570 017c B0EE491A 		vmov.f32	s2, s18
 3571 0180 F0EE680A 		vmov.f32	s1, s17
 3572 0184 00F59670 		add	r0, r0, #300
 3573 0188 B0EE480A 		vmov.f32	s0, s16
 3574 018c FFF7FEFF 		bl	_ZN5daisy6RgbLed3SetEfff
 3575              	.LVL253:
 3576 0190 A0E7     		b	.L242
 3577              	.L245:
 3578 0192 00BF     		.align	2
 3579              	.L244:
 3580 0194 00000000 		.word	0
 3581              	.LBE566:
 3582              	.LBE570:
 3583              		.cfi_endproc
 3584              	.LFE2615:
 3586              		.section	.text._ZN9UIManager15SetLedSynthModeEv,"ax",%progbits
 3587              		.align	1
 3588              		.p2align 2,,3
 3589              		.global	_ZN9UIManager15SetLedSynthModeEv
 3590              		.syntax unified
 3591              		.thumb
 3592              		.thumb_func
 3594              	_ZN9UIManager15SetLedSynthModeEv:
 3595              	.LVL254:
 3596              	.LFB2608:
 360:UIManager.cpp ****   if (current_state_ == AppState::Synthesis){
 3597              		.loc 1 360 34 is_stmt 1 view -0
 3598              		.cfi_startproc
 3599              		@ args = 0, pretend = 0, frame = 0
 3600              		@ frame_needed = 0, uses_anonymous_args = 0
 361:UIManager.cpp ****     switch(current_synth_mode_){
 3601              		.loc 1 361 3 view .LVU955
 3602 0000 4368     		ldr	r3, [r0, #4]
 3603 0002 032B     		cmp	r3, #3
 3604 0004 00D0     		beq	.L257
 3605 0006 7047     		bx	lr
 3606              	.L257:
 362:UIManager.cpp ****       case SynthMode::Size_Position:
 3607              		.loc 1 362 5 is_stmt 0 view .LVU956
 3608 0008 8368     		ldr	r3, [r0, #8]
 360:UIManager.cpp ****   if (current_state_ == AppState::Synthesis){
 3609              		.loc 1 360 34 view .LVU957
 3610 000a 30B5     		push	{r4, r5, lr}
 3611              		.cfi_def_cfa_offset 12
 3612              		.cfi_offset 4, -12
 3613              		.cfi_offset 5, -8
 3614              		.cfi_offset 14, -4
 3615 000c 0446     		mov	r4, r0
 362:UIManager.cpp ****       case SynthMode::Size_Position:
 3616              		.loc 1 362 5 is_stmt 1 view .LVU958
 360:UIManager.cpp ****   if (current_state_ == AppState::Synthesis){
ARM GAS  /var/folders/2p/02m_5p7958535cp2tpgps0400000gn/T//ccA97qDZ.s 			page 94


 3617              		.loc 1 360 34 is_stmt 0 view .LVU959
 3618 000e 83B0     		sub	sp, sp, #12
 3619              		.cfi_def_cfa_offset 24
 362:UIManager.cpp ****       case SynthMode::Size_Position:
 3620              		.loc 1 362 5 view .LVU960
 3621 0010 062B     		cmp	r3, #6
 3622 0012 0CD8     		bhi	.L246
 3623 0014 DFE803F0 		tbb	[pc, r3]
 3624              	.L249:
 3625 0018 1D       		.byte	(.L252-.L249)/2
 3626 0019 15       		.byte	(.L251-.L249)/2
 3627 001a 0D       		.byte	(.L250-.L249)/2
 3628 001b 0B       		.byte	(.L246-.L249)/2
 3629 001c 0B       		.byte	(.L246-.L249)/2
 3630 001d 0B       		.byte	(.L246-.L249)/2
 3631 001e 04       		.byte	(.L248-.L249)/2
 3632 001f 00       		.p2align 1
 3633              	.L248:
 374:UIManager.cpp ****       // fuschia: 255,0,255
 3634              		.loc 1 374 7 is_stmt 1 view .LVU961
 376:UIManager.cpp ****         break;
 3635              		.loc 1 376 9 view .LVU962
 376:UIManager.cpp ****         break;
 3636              		.loc 1 376 20 is_stmt 0 view .LVU963
 3637 0020 0125     		movs	r5, #1
 3638 0022 FF23     		movs	r3, #255
 3639 0024 0022     		movs	r2, #0
 3640 0026 1946     		mov	r1, r3
 3641 0028 0095     		str	r5, [sp]
 3642 002a FFF7FEFF 		bl	_ZN9UIManager11BlinkSetLedEiiib
 3643              	.LVL255:
 377:UIManager.cpp ****       default:
 3644              		.loc 1 377 9 is_stmt 1 view .LVU964
 3645              	.L246:
 382:UIManager.cpp **** 
 3646              		.loc 1 382 1 is_stmt 0 view .LVU965
 3647 002e 03B0     		add	sp, sp, #12
 3648              		.cfi_remember_state
 3649              		.cfi_def_cfa_offset 12
 3650              		@ sp needed
 3651 0030 30BD     		pop	{r4, r5, pc}
 3652              	.LVL256:
 3653              	.L250:
 3654              		.cfi_restore_state
 370:UIManager.cpp ****       // 0, 0, 255 blue
 3655              		.loc 1 370 7 is_stmt 1 view .LVU966
 372:UIManager.cpp ****         break;
 3656              		.loc 1 372 9 view .LVU967
 372:UIManager.cpp ****         break;
 3657              		.loc 1 372 20 is_stmt 0 view .LVU968
 3658 0032 0125     		movs	r5, #1
 3659 0034 0022     		movs	r2, #0
 3660 0036 FF23     		movs	r3, #255
 3661 0038 1146     		mov	r1, r2
 3662 003a 0095     		str	r5, [sp]
 3663 003c FFF7FEFF 		bl	_ZN9UIManager11BlinkSetLedEiiib
 3664              	.LVL257:
ARM GAS  /var/folders/2p/02m_5p7958535cp2tpgps0400000gn/T//ccA97qDZ.s 			page 95


 373:UIManager.cpp ****       case SynthMode::Pan_PanRnd:
 3665              		.loc 1 373 9 is_stmt 1 view .LVU969
 3666 0040 F5E7     		b	.L246
 3667              	.LVL258:
 3668              	.L251:
 366:UIManager.cpp ****       // orange: 100, 64, 0 or 255, 165, 0 or 255, 91, 31 (neon orange)
 3669              		.loc 1 366 7 view .LVU970
 368:UIManager.cpp ****         break;
 3670              		.loc 1 368 9 view .LVU971
 368:UIManager.cpp ****         break;
 3671              		.loc 1 368 20 is_stmt 0 view .LVU972
 3672 0042 0125     		movs	r5, #1
 3673 0044 1F23     		movs	r3, #31
 3674 0046 5B22     		movs	r2, #91
 3675 0048 FF21     		movs	r1, #255
 3676 004a 0095     		str	r5, [sp]
 3677 004c FFF7FEFF 		bl	_ZN9UIManager11BlinkSetLedEiiib
 3678              	.LVL259:
 369:UIManager.cpp ****       case SynthMode::PhasorMode_EnvType:
 3679              		.loc 1 369 9 is_stmt 1 view .LVU973
 3680 0050 EDE7     		b	.L246
 3681              	.LVL260:
 3682              	.L252:
 3683              	.LBB575:
 3684              	.LBI575:
 360:UIManager.cpp ****   if (current_state_ == AppState::Synthesis){
 3685              		.loc 1 360 6 view .LVU974
 3686              	.LBE575:
 363:UIManager.cpp ****         SetLed(0,255,0,true);
 3687              		.loc 1 363 7 view .LVU975
 364:UIManager.cpp ****         break;
 3688              		.loc 1 364 9 view .LVU976
 3689              	.LBB580:
 3690              	.LBB576:
 3691              	.LBI576:
 435:UIManager.cpp ****   if (is_Led1){
 3692              		.loc 1 435 6 view .LVU977
 3693              	.LBB577:
 436:UIManager.cpp ****     pod_.led1.Set(r,g,b);
 3694              		.loc 1 436 3 view .LVU978
 437:UIManager.cpp ****   }
 3695              		.loc 1 437 5 view .LVU979
 437:UIManager.cpp ****   }
 3696              		.loc 1 437 18 is_stmt 0 view .LVU980
 3697 0052 9FED091A 		vldr.32	s2, .L258
 3698 0056 0068     		ldr	r0, [r0]
 3699              	.LVL261:
 437:UIManager.cpp ****   }
 3700              		.loc 1 437 18 view .LVU981
 3701 0058 B0EE410A 		vmov.f32	s0, s2
 3702 005c DFED070A 		vldr.32	s1, .L258+4
 3703 0060 D830     		adds	r0, r0, #216
 3704 0062 FFF7FEFF 		bl	_ZN5daisy6RgbLed3SetEfff
 3705              	.LVL262:
 442:UIManager.cpp ****   System::Delay(10);
 3706              		.loc 1 442 3 is_stmt 1 view .LVU982
 442:UIManager.cpp ****   System::Delay(10);
ARM GAS  /var/folders/2p/02m_5p7958535cp2tpgps0400000gn/T//ccA97qDZ.s 			page 96


 3707              		.loc 1 442 18 is_stmt 0 view .LVU983
 3708 0066 2068     		ldr	r0, [r4]
 3709 0068 FFF7FEFF 		bl	_ZN5daisy8DaisyPod10UpdateLedsEv
 3710              	.LVL263:
 443:UIManager.cpp **** }
 3711              		.loc 1 443 3 is_stmt 1 view .LVU984
 443:UIManager.cpp **** }
 3712              		.loc 1 443 16 is_stmt 0 view .LVU985
 3713 006c 0A20     		movs	r0, #10
 3714              	.LBE577:
 3715              	.LBE576:
 3716              	.LBE580:
 382:UIManager.cpp **** 
 3717              		.loc 1 382 1 view .LVU986
 3718 006e 03B0     		add	sp, sp, #12
 3719              		.cfi_def_cfa_offset 12
 3720              		@ sp needed
 3721 0070 BDE83040 		pop	{r4, r5, lr}
 3722              		.cfi_restore 14
 3723              		.cfi_restore 5
 3724              		.cfi_restore 4
 3725              		.cfi_def_cfa_offset 0
 3726              	.LVL264:
 3727              	.LBB581:
 3728              	.LBB579:
 3729              	.LBB578:
 443:UIManager.cpp **** }
 3730              		.loc 1 443 16 view .LVU987
 3731 0074 FFF7FEBF 		b	_ZN5daisy6System5DelayEm
 3732              	.LVL265:
 3733              	.L259:
 3734              		.align	2
 3735              	.L258:
 3736 0078 00000000 		.word	0
 3737 007c 00007F43 		.word	1132396544
 3738              	.LBE578:
 3739              	.LBE579:
 3740              	.LBE581:
 3741              		.cfi_endproc
 3742              	.LFE2608:
 3744              		.section	.text._ZN9UIManager16LedPulseCallbackEv,"ax",%progbits
 3745              		.align	1
 3746              		.p2align 2,,3
 3747              		.global	_ZN9UIManager16LedPulseCallbackEv
 3748              		.syntax unified
 3749              		.thumb
 3750              		.thumb_func
 3752              	_ZN9UIManager16LedPulseCallbackEv:
 3753              	.LVL266:
 3754              	.LFB2607:
 313:UIManager.cpp ****   if (pulse_increasing_){
 3755              		.loc 1 313 35 is_stmt 1 view -0
 3756              		.cfi_startproc
 3757              		@ args = 0, pretend = 0, frame = 0
 3758              		@ frame_needed = 0, uses_anonymous_args = 0
 314:UIManager.cpp ****     /* NOTE: increase step (in header) and period to reduce processing cost */
 3759              		.loc 1 314 3 view .LVU989
ARM GAS  /var/folders/2p/02m_5p7958535cp2tpgps0400000gn/T//ccA97qDZ.s 			page 97


 3760 0000 027D     		ldrb	r2, [r0, #20]	@ zero_extendqisi2
 313:UIManager.cpp ****   if (pulse_increasing_){
 3761              		.loc 1 313 35 is_stmt 0 view .LVU990
 3762 0002 10B5     		push	{r4, lr}
 3763              		.cfi_def_cfa_offset 8
 3764              		.cfi_offset 4, -8
 3765              		.cfi_offset 14, -4
 313:UIManager.cpp ****   if (pulse_increasing_){
 3766              		.loc 1 313 35 view .LVU991
 3767 0004 0446     		mov	r4, r0
 316:UIManager.cpp ****     if (pulse_brightness_ >= 255 - PULSE_STEP){
 3768              		.loc 1 316 23 view .LVU992
 3769 0006 437D     		ldrb	r3, [r0, #21]	@ zero_extendqisi2
 314:UIManager.cpp ****     /* NOTE: increase step (in header) and period to reduce processing cost */
 3770              		.loc 1 314 3 view .LVU993
 3771 0008 8AB1     		cbz	r2, .L261
 316:UIManager.cpp ****     if (pulse_brightness_ >= 255 - PULSE_STEP){
 3772              		.loc 1 316 5 is_stmt 1 view .LVU994
 316:UIManager.cpp ****     if (pulse_brightness_ >= 255 - PULSE_STEP){
 3773              		.loc 1 316 23 is_stmt 0 view .LVU995
 3774 000a 0533     		adds	r3, r3, #5
 3775 000c DBB2     		uxtb	r3, r3
 317:UIManager.cpp ****       pulse_brightness_ = 255;
 3776              		.loc 1 317 5 is_stmt 1 view .LVU996
 3777 000e F92B     		cmp	r3, #249
 3778 0010 40F28580 		bls	.L273
 318:UIManager.cpp ****       pulse_increasing_ = false;
 3779              		.loc 1 318 7 view .LVU997
 319:UIManager.cpp ****     }
 3780              		.loc 1 319 7 view .LVU998
 319:UIManager.cpp ****     }
 3781              		.loc 1 319 25 is_stmt 0 view .LVU999
 3782 0014 4FF47F42 		mov	r2, #65280
 3783 0018 FF23     		movs	r3, #255
 3784 001a 8282     		strh	r2, [r0, #20]	@ movhi
 3785              	.LVL267:
 3786              	.L263:
 330:UIManager.cpp ****     /* pulse blue */
 3787              		.loc 1 330 3 is_stmt 1 view .LVU1000
 3788 001c 6268     		ldr	r2, [r4, #4]
 3789 001e 013A     		subs	r2, r2, #1
 3790 0020 042A     		cmp	r2, #4
 3791 0022 7ED8     		bhi	.L260
 3792 0024 DFE802F0 		tbb	[pc, r2]
 3793              	.L266:
 3794 0028 0F       		.byte	(.L270-.L266)/2
 3795 0029 35       		.byte	(.L269-.L266)/2
 3796 002a 5A       		.byte	(.L268-.L266)/2
 3797 002b 22       		.byte	(.L267-.L266)/2
 3798 002c 48       		.byte	(.L265-.L266)/2
 3799              	.LVL268:
 3800 002d 00       		.p2align 1
 3801              	.L261:
 323:UIManager.cpp ****     if (pulse_brightness_ <= PULSE_STEP){
 3802              		.loc 1 323 5 view .LVU1001
 323:UIManager.cpp ****     if (pulse_brightness_ <= PULSE_STEP){
 3803              		.loc 1 323 23 is_stmt 0 view .LVU1002
ARM GAS  /var/folders/2p/02m_5p7958535cp2tpgps0400000gn/T//ccA97qDZ.s 			page 98


 3804 002e 053B     		subs	r3, r3, #5
 3805 0030 DBB2     		uxtb	r3, r3
 324:UIManager.cpp ****       pulse_count_++;
 3806              		.loc 1 324 5 view .LVU1003
 3807 0032 052B     		cmp	r3, #5
 323:UIManager.cpp ****     if (pulse_brightness_ <= PULSE_STEP){
 3808              		.loc 1 323 23 view .LVU1004
 3809 0034 4375     		strb	r3, [r0, #21]
 324:UIManager.cpp ****       pulse_count_++;
 3810              		.loc 1 324 5 is_stmt 1 view .LVU1005
 3811 0036 F1D8     		bhi	.L263
 325:UIManager.cpp ****       pulse_brightness_ = 0;
 3812              		.loc 1 325 7 view .LVU1006
 325:UIManager.cpp ****       pulse_brightness_ = 0;
 3813              		.loc 1 325 19 is_stmt 0 view .LVU1007
 3814 0038 817D     		ldrb	r1, [r0, #22]	@ zero_extendqisi2
 327:UIManager.cpp ****     }
 3815              		.loc 1 327 25 view .LVU1008
 3816 003a 0120     		movs	r0, #1
 3817              	.LVL269:
 327:UIManager.cpp ****     }
 3818              		.loc 1 327 25 view .LVU1009
 3819 003c 1346     		mov	r3, r2
 325:UIManager.cpp ****       pulse_brightness_ = 0;
 3820              		.loc 1 325 19 view .LVU1010
 3821 003e 0A18     		adds	r2, r1, r0
 327:UIManager.cpp ****     }
 3822              		.loc 1 327 25 view .LVU1011
 3823 0040 A082     		strh	r0, [r4, #20]	@ movhi
 325:UIManager.cpp ****       pulse_brightness_ = 0;
 3824              		.loc 1 325 19 view .LVU1012
 3825 0042 A275     		strb	r2, [r4, #22]
 326:UIManager.cpp ****       pulse_increasing_ = true;
 3826              		.loc 1 326 7 is_stmt 1 view .LVU1013
 327:UIManager.cpp ****     }
 3827              		.loc 1 327 7 view .LVU1014
 3828 0044 EAE7     		b	.L263
 3829              	.L270:
 332:UIManager.cpp ****       SetLed(0, 0, pulse_brightness_, true);
 3830              		.loc 1 332 5 view .LVU1015
 333:UIManager.cpp ****     /* pulse white */
 3831              		.loc 1 333 7 view .LVU1016
 3832              	.LVL270:
 3833              	.LBB596:
 3834              	.LBI596:
 435:UIManager.cpp ****   if (is_Led1){
 3835              		.loc 1 435 6 view .LVU1017
 3836              	.LBB597:
 436:UIManager.cpp ****     pod_.led1.Set(r,g,b);
 3837              		.loc 1 436 3 view .LVU1018
 437:UIManager.cpp ****   }
 3838              		.loc 1 437 5 view .LVU1019
 437:UIManager.cpp ****   }
 3839              		.loc 1 437 18 is_stmt 0 view .LVU1020
 3840 0046 07EE903A 		vmov	s15, r3	@ int
 3841 004a DFED360A 		vldr.32	s1, .L274
 3842 004e 2068     		ldr	r0, [r4]
ARM GAS  /var/folders/2p/02m_5p7958535cp2tpgps0400000gn/T//ccA97qDZ.s 			page 99


 3843 0050 B8EEE71A 		vcvt.f32.s32	s2, s15
 3844 0054 B0EE600A 		vmov.f32	s0, s1
 3845 0058 D830     		adds	r0, r0, #216
 3846 005a FFF7FEFF 		bl	_ZN5daisy6RgbLed3SetEfff
 3847              	.LVL271:
 442:UIManager.cpp ****   System::Delay(10);
 3848              		.loc 1 442 3 is_stmt 1 view .LVU1021
 442:UIManager.cpp ****   System::Delay(10);
 3849              		.loc 1 442 18 is_stmt 0 view .LVU1022
 3850 005e 2068     		ldr	r0, [r4]
 3851 0060 FFF7FEFF 		bl	_ZN5daisy8DaisyPod10UpdateLedsEv
 3852              	.LVL272:
 443:UIManager.cpp **** }
 3853              		.loc 1 443 3 is_stmt 1 view .LVU1023
 443:UIManager.cpp **** }
 3854              		.loc 1 443 16 is_stmt 0 view .LVU1024
 3855 0064 0A20     		movs	r0, #10
 3856 0066 FFF7FEFF 		bl	_ZN5daisy6System5DelayEm
 3857              	.LVL273:
 3858              	.LBE597:
 3859              	.LBE596:
 336:UIManager.cpp ****     /* pulse cyan */
 3860              		.loc 1 336 14 view .LVU1025
 3861 006a 637D     		ldrb	r3, [r4, #21]	@ zero_extendqisi2
 3862              	.LVL274:
 3863              	.L267:
 335:UIManager.cpp ****       SetLed(pulse_brightness_, pulse_brightness_, pulse_brightness_, true);
 3864              		.loc 1 335 5 is_stmt 1 view .LVU1026
 336:UIManager.cpp ****     /* pulse cyan */
 3865              		.loc 1 336 7 view .LVU1027
 3866              	.LBB598:
 3867              	.LBI598:
 435:UIManager.cpp ****   if (is_Led1){
 3868              		.loc 1 435 6 view .LVU1028
 3869              	.LBB599:
 436:UIManager.cpp ****     pod_.led1.Set(r,g,b);
 3870              		.loc 1 436 3 view .LVU1029
 437:UIManager.cpp ****   }
 3871              		.loc 1 437 5 view .LVU1030
 437:UIManager.cpp ****   }
 3872              		.loc 1 437 18 is_stmt 0 view .LVU1031
 3873 006c 07EE903A 		vmov	s15, r3	@ int
 3874 0070 2068     		ldr	r0, [r4]
 3875 0072 B8EEE71A 		vcvt.f32.s32	s2, s15
 3876 0076 D830     		adds	r0, r0, #216
 3877 0078 F0EE410A 		vmov.f32	s1, s2
 3878 007c B0EE410A 		vmov.f32	s0, s2
 3879 0080 FFF7FEFF 		bl	_ZN5daisy6RgbLed3SetEfff
 3880              	.LVL275:
 442:UIManager.cpp ****   System::Delay(10);
 3881              		.loc 1 442 3 is_stmt 1 view .LVU1032
 442:UIManager.cpp ****   System::Delay(10);
 3882              		.loc 1 442 18 is_stmt 0 view .LVU1033
 3883 0084 2068     		ldr	r0, [r4]
 3884 0086 FFF7FEFF 		bl	_ZN5daisy8DaisyPod10UpdateLedsEv
 3885              	.LVL276:
 443:UIManager.cpp **** }
ARM GAS  /var/folders/2p/02m_5p7958535cp2tpgps0400000gn/T//ccA97qDZ.s 			page 100


 3886              		.loc 1 443 3 is_stmt 1 view .LVU1034
 443:UIManager.cpp **** }
 3887              		.loc 1 443 16 is_stmt 0 view .LVU1035
 3888 008a 0A20     		movs	r0, #10
 3889 008c FFF7FEFF 		bl	_ZN5daisy6System5DelayEm
 3890              	.LVL277:
 3891              	.LBE599:
 3892              	.LBE598:
 339:UIManager.cpp ****     /* pulse red */
 3893              		.loc 1 339 17 view .LVU1036
 3894 0090 637D     		ldrb	r3, [r4, #21]	@ zero_extendqisi2
 3895              	.LVL278:
 3896              	.L269:
 338:UIManager.cpp ****       SetLed(0, pulse_brightness_, pulse_brightness_, true);
 3897              		.loc 1 338 5 is_stmt 1 view .LVU1037
 339:UIManager.cpp ****     /* pulse red */
 3898              		.loc 1 339 7 view .LVU1038
 3899              	.LBB600:
 3900              	.LBI600:
 435:UIManager.cpp ****   if (is_Led1){
 3901              		.loc 1 435 6 view .LVU1039
 3902              	.LBB601:
 436:UIManager.cpp ****     pod_.led1.Set(r,g,b);
 3903              		.loc 1 436 3 view .LVU1040
 437:UIManager.cpp ****   }
 3904              		.loc 1 437 5 view .LVU1041
 437:UIManager.cpp ****   }
 3905              		.loc 1 437 18 is_stmt 0 view .LVU1042
 3906 0092 07EE903A 		vmov	s15, r3	@ int
 3907 0096 2068     		ldr	r0, [r4]
 3908 0098 9FED220A 		vldr.32	s0, .L274
 3909 009c B8EEE71A 		vcvt.f32.s32	s2, s15
 3910 00a0 D830     		adds	r0, r0, #216
 3911 00a2 F0EE410A 		vmov.f32	s1, s2
 3912 00a6 FFF7FEFF 		bl	_ZN5daisy6RgbLed3SetEfff
 3913              	.LVL279:
 442:UIManager.cpp ****   System::Delay(10);
 3914              		.loc 1 442 3 is_stmt 1 view .LVU1043
 442:UIManager.cpp ****   System::Delay(10);
 3915              		.loc 1 442 18 is_stmt 0 view .LVU1044
 3916 00aa 2068     		ldr	r0, [r4]
 3917 00ac FFF7FEFF 		bl	_ZN5daisy8DaisyPod10UpdateLedsEv
 3918              	.LVL280:
 443:UIManager.cpp **** }
 3919              		.loc 1 443 3 is_stmt 1 view .LVU1045
 443:UIManager.cpp **** }
 3920              		.loc 1 443 16 is_stmt 0 view .LVU1046
 3921 00b0 0A20     		movs	r0, #10
 3922 00b2 FFF7FEFF 		bl	_ZN5daisy6System5DelayEm
 3923              	.LVL281:
 3924              	.LBE601:
 3925              	.LBE600:
 342:UIManager.cpp **** 
 3926              		.loc 1 342 14 view .LVU1047
 3927 00b6 637D     		ldrb	r3, [r4, #21]	@ zero_extendqisi2
 3928              	.LVL282:
 3929              	.L265:
ARM GAS  /var/folders/2p/02m_5p7958535cp2tpgps0400000gn/T//ccA97qDZ.s 			page 101


 341:UIManager.cpp ****       SetLed(pulse_brightness_,0, 0, true);
 3930              		.loc 1 341 5 is_stmt 1 view .LVU1048
 342:UIManager.cpp **** 
 3931              		.loc 1 342 7 view .LVU1049
 3932              	.LBB602:
 3933              	.LBI602:
 435:UIManager.cpp ****   if (is_Led1){
 3934              		.loc 1 435 6 view .LVU1050
 3935              	.LBB603:
 436:UIManager.cpp ****     pod_.led1.Set(r,g,b);
 3936              		.loc 1 436 3 view .LVU1051
 437:UIManager.cpp ****   }
 3937              		.loc 1 437 5 view .LVU1052
 437:UIManager.cpp ****   }
 3938              		.loc 1 437 18 is_stmt 0 view .LVU1053
 3939 00b8 9FED1A1A 		vldr.32	s2, .L274
 3940 00bc 07EE903A 		vmov	s15, r3	@ int
 3941 00c0 2068     		ldr	r0, [r4]
 3942 00c2 B8EEE70A 		vcvt.f32.s32	s0, s15
 3943 00c6 F0EE410A 		vmov.f32	s1, s2
 3944 00ca D830     		adds	r0, r0, #216
 3945 00cc FFF7FEFF 		bl	_ZN5daisy6RgbLed3SetEfff
 3946              	.LVL283:
 442:UIManager.cpp ****   System::Delay(10);
 3947              		.loc 1 442 3 is_stmt 1 view .LVU1054
 442:UIManager.cpp ****   System::Delay(10);
 3948              		.loc 1 442 18 is_stmt 0 view .LVU1055
 3949 00d0 2068     		ldr	r0, [r4]
 3950 00d2 FFF7FEFF 		bl	_ZN5daisy8DaisyPod10UpdateLedsEv
 3951              	.LVL284:
 443:UIManager.cpp **** }
 3952              		.loc 1 443 3 is_stmt 1 view .LVU1056
 443:UIManager.cpp **** }
 3953              		.loc 1 443 16 is_stmt 0 view .LVU1057
 3954 00d6 0A20     		movs	r0, #10
 3955 00d8 FFF7FEFF 		bl	_ZN5daisy6System5DelayEm
 3956              	.LVL285:
 3957              	.L268:
 443:UIManager.cpp **** }
 3958              		.loc 1 443 16 view .LVU1058
 3959              	.LBE603:
 3960              	.LBE602:
 346:UIManager.cpp ****       if (pulse_count_ <= 2){
 3961              		.loc 1 346 5 is_stmt 1 view .LVU1059
 347:UIManager.cpp ****         SetLed(0, pulse_brightness_, 0, true);
 3962              		.loc 1 347 7 view .LVU1060
 3963 00dc A37D     		ldrb	r3, [r4, #22]	@ zero_extendqisi2
 3964 00de 022B     		cmp	r3, #2
 3965 00e0 14D8     		bhi	.L271
 348:UIManager.cpp ****       }
 3966              		.loc 1 348 9 view .LVU1061
 3967              	.LVL286:
 3968              	.LBB604:
 3969              	.LBI604:
 435:UIManager.cpp ****   if (is_Led1){
 3970              		.loc 1 435 6 view .LVU1062
 3971              	.LBB605:
ARM GAS  /var/folders/2p/02m_5p7958535cp2tpgps0400000gn/T//ccA97qDZ.s 			page 102


 436:UIManager.cpp ****     pod_.led1.Set(r,g,b);
 3972              		.loc 1 436 3 view .LVU1063
 437:UIManager.cpp ****   }
 3973              		.loc 1 437 5 view .LVU1064
 3974              	.LBE605:
 3975              	.LBE604:
 348:UIManager.cpp ****       }
 3976              		.loc 1 348 15 is_stmt 0 view .LVU1065
 3977 00e2 637D     		ldrb	r3, [r4, #21]	@ zero_extendqisi2
 3978              	.LVL287:
 3979              	.LBB609:
 3980              	.LBB606:
 437:UIManager.cpp ****   }
 3981              		.loc 1 437 18 view .LVU1066
 3982 00e4 9FED0F1A 		vldr.32	s2, .L274
 3983              	.LBE606:
 3984              	.LBE609:
 348:UIManager.cpp ****       }
 3985              		.loc 1 348 15 view .LVU1067
 3986 00e8 00EE903A 		vmov	s1, r3	@ int
 3987              	.LBB610:
 3988              	.LBB607:
 437:UIManager.cpp ****   }
 3989              		.loc 1 437 18 view .LVU1068
 3990 00ec 2068     		ldr	r0, [r4]
 3991 00ee B0EE410A 		vmov.f32	s0, s2
 3992 00f2 F8EEE00A 		vcvt.f32.s32	s1, s1
 3993 00f6 D830     		adds	r0, r0, #216
 3994 00f8 FFF7FEFF 		bl	_ZN5daisy6RgbLed3SetEfff
 3995              	.LVL288:
 442:UIManager.cpp ****   System::Delay(10);
 3996              		.loc 1 442 3 is_stmt 1 view .LVU1069
 442:UIManager.cpp ****   System::Delay(10);
 3997              		.loc 1 442 18 is_stmt 0 view .LVU1070
 3998 00fc 2068     		ldr	r0, [r4]
 3999 00fe FFF7FEFF 		bl	_ZN5daisy8DaisyPod10UpdateLedsEv
 4000              	.LVL289:
 443:UIManager.cpp **** }
 4001              		.loc 1 443 3 is_stmt 1 view .LVU1071
 443:UIManager.cpp **** }
 4002              		.loc 1 443 16 is_stmt 0 view .LVU1072
 4003 0102 0A20     		movs	r0, #10
 4004              	.LBE607:
 4005              	.LBE610:
 358:UIManager.cpp **** 
 4006              		.loc 1 358 1 view .LVU1073
 4007 0104 BDE81040 		pop	{r4, lr}
 4008              		.cfi_remember_state
 4009              		.cfi_restore 14
 4010              		.cfi_restore 4
 4011              		.cfi_def_cfa_offset 0
 4012              	.LVL290:
 4013              	.LBB611:
 4014              	.LBB608:
 443:UIManager.cpp **** }
 4015              		.loc 1 443 16 view .LVU1074
 4016 0108 FFF7FEBF 		b	_ZN5daisy6System5DelayEm
ARM GAS  /var/folders/2p/02m_5p7958535cp2tpgps0400000gn/T//ccA97qDZ.s 			page 103


 4017              	.LVL291:
 4018              	.L271:
 4019              		.cfi_restore_state
 443:UIManager.cpp **** }
 4020              		.loc 1 443 16 view .LVU1075
 4021              	.LBE608:
 4022              	.LBE611:
 351:UIManager.cpp ****         SetLedSynthMode();
 4023              		.loc 1 351 9 is_stmt 1 view .LVU1076
 4024              	.LBB612:
 4025              	.LBI612:
 431:UIManager.cpp ****   timer_.Stop();
 4026              		.loc 1 431 6 view .LVU1077
 4027              	.LBB613:
 432:UIManager.cpp **** }
 4028              		.loc 1 432 3 view .LVU1078
 432:UIManager.cpp **** }
 4029              		.loc 1 432 14 is_stmt 0 view .LVU1079
 4030 010c 04F10C00 		add	r0, r4, #12
 4031 0110 FFF7FEFF 		bl	_ZN5daisy11TimerHandle4StopEv
 4032              	.LVL292:
 432:UIManager.cpp **** }
 4033              		.loc 1 432 14 view .LVU1080
 4034              	.LBE613:
 4035              	.LBE612:
 352:UIManager.cpp ****       }
 4036              		.loc 1 352 9 is_stmt 1 view .LVU1081
 352:UIManager.cpp ****       }
 4037              		.loc 1 352 24 is_stmt 0 view .LVU1082
 4038 0114 2046     		mov	r0, r4
 358:UIManager.cpp **** 
 4039              		.loc 1 358 1 view .LVU1083
 4040 0116 BDE81040 		pop	{r4, lr}
 4041              		.cfi_remember_state
 4042              		.cfi_restore 14
 4043              		.cfi_restore 4
 4044              		.cfi_def_cfa_offset 0
 4045              	.LVL293:
 352:UIManager.cpp ****       }
 4046              		.loc 1 352 24 view .LVU1084
 4047 011a FFF7FEBF 		b	_ZN9UIManager15SetLedSynthModeEv
 4048              	.LVL294:
 4049              	.L273:
 4050              		.cfi_restore_state
 316:UIManager.cpp ****     if (pulse_brightness_ >= 255 - PULSE_STEP){
 4051              		.loc 1 316 23 view .LVU1085
 4052 011e 4375     		strb	r3, [r0, #21]
 4053 0120 7CE7     		b	.L263
 4054              	.LVL295:
 4055              	.L260:
 358:UIManager.cpp **** 
 4056              		.loc 1 358 1 view .LVU1086
 4057 0122 10BD     		pop	{r4, pc}
 4058              	.LVL296:
 4059              	.L275:
 358:UIManager.cpp **** 
 4060              		.loc 1 358 1 view .LVU1087
ARM GAS  /var/folders/2p/02m_5p7958535cp2tpgps0400000gn/T//ccA97qDZ.s 			page 104


 4061              		.align	2
 4062              	.L274:
 4063 0124 00000000 		.word	0
 4064              		.cfi_endproc
 4065              	.LFE2607:
 4067              		.section	.text._ZL17StaticLedCallbackPv,"ax",%progbits
 4068              		.align	1
 4069              		.p2align 2,,3
 4070              		.syntax unified
 4071              		.thumb
 4072              		.thumb_func
 4074              	_ZL17StaticLedCallbackPv:
 4075              	.LVL297:
 4076              	.LFB2605:
 291:UIManager.cpp ****   UIManager* instance = static_cast<UIManager*>(data);
 4077              		.loc 1 291 43 is_stmt 1 view -0
 4078              		.cfi_startproc
 4079              		@ args = 0, pretend = 0, frame = 0
 4080              		@ frame_needed = 0, uses_anonymous_args = 0
 292:UIManager.cpp ****   instance->LedPulseCallback();
 4081              		.loc 1 292 3 view .LVU1089
 4082              	.LBB628:
 4083              	.LBB629:
 314:UIManager.cpp ****     /* NOTE: increase step (in header) and period to reduce processing cost */
 4084              		.loc 1 314 3 is_stmt 0 view .LVU1090
 4085 0000 027D     		ldrb	r2, [r0, #20]	@ zero_extendqisi2
 4086              	.LBE629:
 4087              	.LBE628:
 291:UIManager.cpp ****   UIManager* instance = static_cast<UIManager*>(data);
 4088              		.loc 1 291 43 view .LVU1091
 4089 0002 10B5     		push	{r4, lr}
 4090              		.cfi_def_cfa_offset 8
 4091              		.cfi_offset 4, -8
 4092              		.cfi_offset 14, -4
 291:UIManager.cpp ****   UIManager* instance = static_cast<UIManager*>(data);
 4093              		.loc 1 291 43 view .LVU1092
 4094 0004 0446     		mov	r4, r0
 4095              	.LVL298:
 293:UIManager.cpp **** }
 4096              		.loc 1 293 3 is_stmt 1 view .LVU1093
 4097              	.LBB651:
 4098              	.LBI628:
 313:UIManager.cpp ****   if (pulse_increasing_){
 4099              		.loc 1 313 6 view .LVU1094
 4100              	.LBB648:
 314:UIManager.cpp ****     /* NOTE: increase step (in header) and period to reduce processing cost */
 4101              		.loc 1 314 3 view .LVU1095
 316:UIManager.cpp ****     if (pulse_brightness_ >= 255 - PULSE_STEP){
 4102              		.loc 1 316 23 is_stmt 0 view .LVU1096
 4103 0006 437D     		ldrb	r3, [r0, #21]	@ zero_extendqisi2
 314:UIManager.cpp ****     /* NOTE: increase step (in header) and period to reduce processing cost */
 4104              		.loc 1 314 3 view .LVU1097
 4105 0008 8AB1     		cbz	r2, .L277
 316:UIManager.cpp ****     if (pulse_brightness_ >= 255 - PULSE_STEP){
 4106              		.loc 1 316 5 is_stmt 1 view .LVU1098
 316:UIManager.cpp ****     if (pulse_brightness_ >= 255 - PULSE_STEP){
 4107              		.loc 1 316 23 is_stmt 0 view .LVU1099
ARM GAS  /var/folders/2p/02m_5p7958535cp2tpgps0400000gn/T//ccA97qDZ.s 			page 105


 4108 000a 0533     		adds	r3, r3, #5
 4109 000c DBB2     		uxtb	r3, r3
 317:UIManager.cpp ****       pulse_brightness_ = 255;
 4110              		.loc 1 317 5 is_stmt 1 view .LVU1100
 4111 000e F92B     		cmp	r3, #249
 4112 0010 40F28580 		bls	.L289
 318:UIManager.cpp ****       pulse_increasing_ = false;
 4113              		.loc 1 318 7 view .LVU1101
 319:UIManager.cpp ****     }
 4114              		.loc 1 319 7 view .LVU1102
 319:UIManager.cpp ****     }
 4115              		.loc 1 319 25 is_stmt 0 view .LVU1103
 4116 0014 4FF47F42 		mov	r2, #65280
 4117 0018 FF23     		movs	r3, #255
 4118 001a 8282     		strh	r2, [r0, #20]	@ movhi
 4119              	.LVL299:
 4120              	.L279:
 330:UIManager.cpp ****     /* pulse blue */
 4121              		.loc 1 330 3 is_stmt 1 view .LVU1104
 4122 001c 6268     		ldr	r2, [r4, #4]
 4123 001e 013A     		subs	r2, r2, #1
 4124 0020 042A     		cmp	r2, #4
 4125 0022 7ED8     		bhi	.L276
 4126 0024 DFE802F0 		tbb	[pc, r2]
 4127              	.L282:
 4128 0028 0F       		.byte	(.L286-.L282)/2
 4129 0029 35       		.byte	(.L285-.L282)/2
 4130 002a 5A       		.byte	(.L284-.L282)/2
 4131 002b 22       		.byte	(.L283-.L282)/2
 4132 002c 48       		.byte	(.L281-.L282)/2
 4133              	.LVL300:
 4134 002d 00       		.p2align 1
 4135              	.L277:
 323:UIManager.cpp ****     if (pulse_brightness_ <= PULSE_STEP){
 4136              		.loc 1 323 5 view .LVU1105
 323:UIManager.cpp ****     if (pulse_brightness_ <= PULSE_STEP){
 4137              		.loc 1 323 23 is_stmt 0 view .LVU1106
 4138 002e 053B     		subs	r3, r3, #5
 4139 0030 DBB2     		uxtb	r3, r3
 324:UIManager.cpp ****       pulse_count_++;
 4140              		.loc 1 324 5 view .LVU1107
 4141 0032 052B     		cmp	r3, #5
 323:UIManager.cpp ****     if (pulse_brightness_ <= PULSE_STEP){
 4142              		.loc 1 323 23 view .LVU1108
 4143 0034 4375     		strb	r3, [r0, #21]
 324:UIManager.cpp ****       pulse_count_++;
 4144              		.loc 1 324 5 is_stmt 1 view .LVU1109
 4145 0036 F1D8     		bhi	.L279
 325:UIManager.cpp ****       pulse_brightness_ = 0;
 4146              		.loc 1 325 7 view .LVU1110
 325:UIManager.cpp ****       pulse_brightness_ = 0;
 4147              		.loc 1 325 19 is_stmt 0 view .LVU1111
 4148 0038 817D     		ldrb	r1, [r0, #22]	@ zero_extendqisi2
 327:UIManager.cpp ****     }
 4149              		.loc 1 327 25 view .LVU1112
 4150 003a 0120     		movs	r0, #1
 4151              	.LVL301:
ARM GAS  /var/folders/2p/02m_5p7958535cp2tpgps0400000gn/T//ccA97qDZ.s 			page 106


 327:UIManager.cpp ****     }
 4152              		.loc 1 327 25 view .LVU1113
 4153 003c 1346     		mov	r3, r2
 325:UIManager.cpp ****       pulse_brightness_ = 0;
 4154              		.loc 1 325 19 view .LVU1114
 4155 003e 0A18     		adds	r2, r1, r0
 327:UIManager.cpp ****     }
 4156              		.loc 1 327 25 view .LVU1115
 4157 0040 A082     		strh	r0, [r4, #20]	@ movhi
 325:UIManager.cpp ****       pulse_brightness_ = 0;
 4158              		.loc 1 325 19 view .LVU1116
 4159 0042 A275     		strb	r2, [r4, #22]
 326:UIManager.cpp ****       pulse_increasing_ = true;
 4160              		.loc 1 326 7 is_stmt 1 view .LVU1117
 327:UIManager.cpp ****     }
 4161              		.loc 1 327 7 view .LVU1118
 4162 0044 EAE7     		b	.L279
 4163              	.L286:
 332:UIManager.cpp ****       SetLed(0, 0, pulse_brightness_, true);
 4164              		.loc 1 332 5 view .LVU1119
 333:UIManager.cpp ****     /* pulse white */
 4165              		.loc 1 333 7 view .LVU1120
 4166              	.LVL302:
 4167              	.LBB630:
 4168              	.LBI630:
 435:UIManager.cpp ****   if (is_Led1){
 4169              		.loc 1 435 6 view .LVU1121
 4170              	.LBB631:
 436:UIManager.cpp ****     pod_.led1.Set(r,g,b);
 4171              		.loc 1 436 3 view .LVU1122
 437:UIManager.cpp ****   }
 4172              		.loc 1 437 5 view .LVU1123
 437:UIManager.cpp ****   }
 4173              		.loc 1 437 18 is_stmt 0 view .LVU1124
 4174 0046 07EE903A 		vmov	s15, r3	@ int
 4175 004a DFED360A 		vldr.32	s1, .L290
 4176 004e 2068     		ldr	r0, [r4]
 4177 0050 B8EEE71A 		vcvt.f32.s32	s2, s15
 4178 0054 B0EE600A 		vmov.f32	s0, s1
 4179 0058 D830     		adds	r0, r0, #216
 4180 005a FFF7FEFF 		bl	_ZN5daisy6RgbLed3SetEfff
 4181              	.LVL303:
 442:UIManager.cpp ****   System::Delay(10);
 4182              		.loc 1 442 3 is_stmt 1 view .LVU1125
 442:UIManager.cpp ****   System::Delay(10);
 4183              		.loc 1 442 18 is_stmt 0 view .LVU1126
 4184 005e 2068     		ldr	r0, [r4]
 4185 0060 FFF7FEFF 		bl	_ZN5daisy8DaisyPod10UpdateLedsEv
 4186              	.LVL304:
 443:UIManager.cpp **** }
 4187              		.loc 1 443 3 is_stmt 1 view .LVU1127
 443:UIManager.cpp **** }
 4188              		.loc 1 443 16 is_stmt 0 view .LVU1128
 4189 0064 0A20     		movs	r0, #10
 4190 0066 FFF7FEFF 		bl	_ZN5daisy6System5DelayEm
 4191              	.LVL305:
 4192              	.LBE631:
ARM GAS  /var/folders/2p/02m_5p7958535cp2tpgps0400000gn/T//ccA97qDZ.s 			page 107


 4193              	.LBE630:
 336:UIManager.cpp ****     /* pulse cyan */
 4194              		.loc 1 336 14 view .LVU1129
 4195 006a 637D     		ldrb	r3, [r4, #21]	@ zero_extendqisi2
 4196              	.LVL306:
 4197              	.L283:
 335:UIManager.cpp ****       SetLed(pulse_brightness_, pulse_brightness_, pulse_brightness_, true);
 4198              		.loc 1 335 5 is_stmt 1 view .LVU1130
 336:UIManager.cpp ****     /* pulse cyan */
 4199              		.loc 1 336 7 view .LVU1131
 4200              	.LBB632:
 4201              	.LBI632:
 435:UIManager.cpp ****   if (is_Led1){
 4202              		.loc 1 435 6 view .LVU1132
 4203              	.LBB633:
 436:UIManager.cpp ****     pod_.led1.Set(r,g,b);
 4204              		.loc 1 436 3 view .LVU1133
 437:UIManager.cpp ****   }
 4205              		.loc 1 437 5 view .LVU1134
 437:UIManager.cpp ****   }
 4206              		.loc 1 437 18 is_stmt 0 view .LVU1135
 4207 006c 07EE903A 		vmov	s15, r3	@ int
 4208 0070 2068     		ldr	r0, [r4]
 4209 0072 B8EEE71A 		vcvt.f32.s32	s2, s15
 4210 0076 D830     		adds	r0, r0, #216
 4211 0078 F0EE410A 		vmov.f32	s1, s2
 4212 007c B0EE410A 		vmov.f32	s0, s2
 4213 0080 FFF7FEFF 		bl	_ZN5daisy6RgbLed3SetEfff
 4214              	.LVL307:
 442:UIManager.cpp ****   System::Delay(10);
 4215              		.loc 1 442 3 is_stmt 1 view .LVU1136
 442:UIManager.cpp ****   System::Delay(10);
 4216              		.loc 1 442 18 is_stmt 0 view .LVU1137
 4217 0084 2068     		ldr	r0, [r4]
 4218 0086 FFF7FEFF 		bl	_ZN5daisy8DaisyPod10UpdateLedsEv
 4219              	.LVL308:
 443:UIManager.cpp **** }
 4220              		.loc 1 443 3 is_stmt 1 view .LVU1138
 443:UIManager.cpp **** }
 4221              		.loc 1 443 16 is_stmt 0 view .LVU1139
 4222 008a 0A20     		movs	r0, #10
 4223 008c FFF7FEFF 		bl	_ZN5daisy6System5DelayEm
 4224              	.LVL309:
 4225              	.LBE633:
 4226              	.LBE632:
 339:UIManager.cpp ****     /* pulse red */
 4227              		.loc 1 339 17 view .LVU1140
 4228 0090 637D     		ldrb	r3, [r4, #21]	@ zero_extendqisi2
 4229              	.LVL310:
 4230              	.L285:
 338:UIManager.cpp ****       SetLed(0, pulse_brightness_, pulse_brightness_, true);
 4231              		.loc 1 338 5 is_stmt 1 view .LVU1141
 339:UIManager.cpp ****     /* pulse red */
 4232              		.loc 1 339 7 view .LVU1142
 4233              	.LBB634:
 4234              	.LBI634:
 435:UIManager.cpp ****   if (is_Led1){
ARM GAS  /var/folders/2p/02m_5p7958535cp2tpgps0400000gn/T//ccA97qDZ.s 			page 108


 4235              		.loc 1 435 6 view .LVU1143
 4236              	.LBB635:
 436:UIManager.cpp ****     pod_.led1.Set(r,g,b);
 4237              		.loc 1 436 3 view .LVU1144
 437:UIManager.cpp ****   }
 4238              		.loc 1 437 5 view .LVU1145
 437:UIManager.cpp ****   }
 4239              		.loc 1 437 18 is_stmt 0 view .LVU1146
 4240 0092 07EE903A 		vmov	s15, r3	@ int
 4241 0096 2068     		ldr	r0, [r4]
 4242 0098 9FED220A 		vldr.32	s0, .L290
 4243 009c B8EEE71A 		vcvt.f32.s32	s2, s15
 4244 00a0 D830     		adds	r0, r0, #216
 4245 00a2 F0EE410A 		vmov.f32	s1, s2
 4246 00a6 FFF7FEFF 		bl	_ZN5daisy6RgbLed3SetEfff
 4247              	.LVL311:
 442:UIManager.cpp ****   System::Delay(10);
 4248              		.loc 1 442 3 is_stmt 1 view .LVU1147
 442:UIManager.cpp ****   System::Delay(10);
 4249              		.loc 1 442 18 is_stmt 0 view .LVU1148
 4250 00aa 2068     		ldr	r0, [r4]
 4251 00ac FFF7FEFF 		bl	_ZN5daisy8DaisyPod10UpdateLedsEv
 4252              	.LVL312:
 443:UIManager.cpp **** }
 4253              		.loc 1 443 3 is_stmt 1 view .LVU1149
 443:UIManager.cpp **** }
 4254              		.loc 1 443 16 is_stmt 0 view .LVU1150
 4255 00b0 0A20     		movs	r0, #10
 4256 00b2 FFF7FEFF 		bl	_ZN5daisy6System5DelayEm
 4257              	.LVL313:
 4258              	.LBE635:
 4259              	.LBE634:
 342:UIManager.cpp **** 
 4260              		.loc 1 342 14 view .LVU1151
 4261 00b6 637D     		ldrb	r3, [r4, #21]	@ zero_extendqisi2
 4262              	.LVL314:
 4263              	.L281:
 341:UIManager.cpp ****       SetLed(pulse_brightness_,0, 0, true);
 4264              		.loc 1 341 5 is_stmt 1 view .LVU1152
 342:UIManager.cpp **** 
 4265              		.loc 1 342 7 view .LVU1153
 4266              	.LBB636:
 4267              	.LBI636:
 435:UIManager.cpp ****   if (is_Led1){
 4268              		.loc 1 435 6 view .LVU1154
 4269              	.LBB637:
 436:UIManager.cpp ****     pod_.led1.Set(r,g,b);
 4270              		.loc 1 436 3 view .LVU1155
 437:UIManager.cpp ****   }
 4271              		.loc 1 437 5 view .LVU1156
 437:UIManager.cpp ****   }
 4272              		.loc 1 437 18 is_stmt 0 view .LVU1157
 4273 00b8 9FED1A1A 		vldr.32	s2, .L290
 4274 00bc 07EE903A 		vmov	s15, r3	@ int
 4275 00c0 2068     		ldr	r0, [r4]
 4276 00c2 B8EEE70A 		vcvt.f32.s32	s0, s15
 4277 00c6 F0EE410A 		vmov.f32	s1, s2
ARM GAS  /var/folders/2p/02m_5p7958535cp2tpgps0400000gn/T//ccA97qDZ.s 			page 109


 4278 00ca D830     		adds	r0, r0, #216
 4279 00cc FFF7FEFF 		bl	_ZN5daisy6RgbLed3SetEfff
 4280              	.LVL315:
 442:UIManager.cpp ****   System::Delay(10);
 4281              		.loc 1 442 3 is_stmt 1 view .LVU1158
 442:UIManager.cpp ****   System::Delay(10);
 4282              		.loc 1 442 18 is_stmt 0 view .LVU1159
 4283 00d0 2068     		ldr	r0, [r4]
 4284 00d2 FFF7FEFF 		bl	_ZN5daisy8DaisyPod10UpdateLedsEv
 4285              	.LVL316:
 443:UIManager.cpp **** }
 4286              		.loc 1 443 3 is_stmt 1 view .LVU1160
 443:UIManager.cpp **** }
 4287              		.loc 1 443 16 is_stmt 0 view .LVU1161
 4288 00d6 0A20     		movs	r0, #10
 4289 00d8 FFF7FEFF 		bl	_ZN5daisy6System5DelayEm
 4290              	.LVL317:
 4291              	.L284:
 443:UIManager.cpp **** }
 4292              		.loc 1 443 16 view .LVU1162
 4293              	.LBE637:
 4294              	.LBE636:
 346:UIManager.cpp ****       if (pulse_count_ <= 2){
 4295              		.loc 1 346 5 is_stmt 1 view .LVU1163
 347:UIManager.cpp ****         SetLed(0, pulse_brightness_, 0, true);
 4296              		.loc 1 347 7 view .LVU1164
 4297 00dc A37D     		ldrb	r3, [r4, #22]	@ zero_extendqisi2
 4298 00de 022B     		cmp	r3, #2
 4299 00e0 14D8     		bhi	.L287
 348:UIManager.cpp ****       }
 4300              		.loc 1 348 9 view .LVU1165
 4301              	.LVL318:
 4302              	.LBB638:
 4303              	.LBI638:
 435:UIManager.cpp ****   if (is_Led1){
 4304              		.loc 1 435 6 view .LVU1166
 4305              	.LBB639:
 436:UIManager.cpp ****     pod_.led1.Set(r,g,b);
 4306              		.loc 1 436 3 view .LVU1167
 437:UIManager.cpp ****   }
 4307              		.loc 1 437 5 view .LVU1168
 4308              	.LBE639:
 4309              	.LBE638:
 348:UIManager.cpp ****       }
 4310              		.loc 1 348 15 is_stmt 0 view .LVU1169
 4311 00e2 637D     		ldrb	r3, [r4, #21]	@ zero_extendqisi2
 4312              	.LVL319:
 4313              	.LBB643:
 4314              	.LBB640:
 437:UIManager.cpp ****   }
 4315              		.loc 1 437 18 view .LVU1170
 4316 00e4 9FED0F1A 		vldr.32	s2, .L290
 4317              	.LBE640:
 4318              	.LBE643:
 348:UIManager.cpp ****       }
 4319              		.loc 1 348 15 view .LVU1171
 4320 00e8 00EE903A 		vmov	s1, r3	@ int
ARM GAS  /var/folders/2p/02m_5p7958535cp2tpgps0400000gn/T//ccA97qDZ.s 			page 110


 4321              	.LBB644:
 4322              	.LBB641:
 437:UIManager.cpp ****   }
 4323              		.loc 1 437 18 view .LVU1172
 4324 00ec 2068     		ldr	r0, [r4]
 4325 00ee B0EE410A 		vmov.f32	s0, s2
 4326 00f2 F8EEE00A 		vcvt.f32.s32	s1, s1
 4327 00f6 D830     		adds	r0, r0, #216
 4328 00f8 FFF7FEFF 		bl	_ZN5daisy6RgbLed3SetEfff
 4329              	.LVL320:
 442:UIManager.cpp ****   System::Delay(10);
 4330              		.loc 1 442 3 is_stmt 1 view .LVU1173
 442:UIManager.cpp ****   System::Delay(10);
 4331              		.loc 1 442 18 is_stmt 0 view .LVU1174
 4332 00fc 2068     		ldr	r0, [r4]
 4333 00fe FFF7FEFF 		bl	_ZN5daisy8DaisyPod10UpdateLedsEv
 4334              	.LVL321:
 443:UIManager.cpp **** }
 4335              		.loc 1 443 3 is_stmt 1 view .LVU1175
 443:UIManager.cpp **** }
 4336              		.loc 1 443 16 is_stmt 0 view .LVU1176
 4337 0102 0A20     		movs	r0, #10
 4338              	.LBE641:
 4339              	.LBE644:
 4340              	.LBE648:
 4341              	.LBE651:
 294:UIManager.cpp **** 
 4342              		.loc 1 294 1 view .LVU1177
 4343 0104 BDE81040 		pop	{r4, lr}
 4344              		.cfi_remember_state
 4345              		.cfi_restore 14
 4346              		.cfi_restore 4
 4347              		.cfi_def_cfa_offset 0
 4348              	.LVL322:
 4349              	.LBB652:
 4350              	.LBB649:
 4351              	.LBB645:
 4352              	.LBB642:
 443:UIManager.cpp **** }
 4353              		.loc 1 443 16 view .LVU1178
 4354 0108 FFF7FEBF 		b	_ZN5daisy6System5DelayEm
 4355              	.LVL323:
 4356              	.L287:
 4357              		.cfi_restore_state
 443:UIManager.cpp **** }
 4358              		.loc 1 443 16 view .LVU1179
 4359              	.LBE642:
 4360              	.LBE645:
 351:UIManager.cpp ****         SetLedSynthMode();
 4361              		.loc 1 351 9 is_stmt 1 view .LVU1180
 4362              	.LBB646:
 4363              	.LBI646:
 431:UIManager.cpp ****   timer_.Stop();
 4364              		.loc 1 431 6 view .LVU1181
 4365              	.LBB647:
 432:UIManager.cpp **** }
 4366              		.loc 1 432 3 view .LVU1182
ARM GAS  /var/folders/2p/02m_5p7958535cp2tpgps0400000gn/T//ccA97qDZ.s 			page 111


 432:UIManager.cpp **** }
 4367              		.loc 1 432 14 is_stmt 0 view .LVU1183
 4368 010c 04F10C00 		add	r0, r4, #12
 4369 0110 FFF7FEFF 		bl	_ZN5daisy11TimerHandle4StopEv
 4370              	.LVL324:
 432:UIManager.cpp **** }
 4371              		.loc 1 432 14 view .LVU1184
 4372              	.LBE647:
 4373              	.LBE646:
 352:UIManager.cpp ****       }
 4374              		.loc 1 352 9 is_stmt 1 view .LVU1185
 352:UIManager.cpp ****       }
 4375              		.loc 1 352 24 is_stmt 0 view .LVU1186
 4376 0114 2046     		mov	r0, r4
 4377              	.LBE649:
 4378              	.LBE652:
 294:UIManager.cpp **** 
 4379              		.loc 1 294 1 view .LVU1187
 4380 0116 BDE81040 		pop	{r4, lr}
 4381              		.cfi_remember_state
 4382              		.cfi_restore 14
 4383              		.cfi_restore 4
 4384              		.cfi_def_cfa_offset 0
 4385              	.LVL325:
 4386              	.LBB653:
 4387              	.LBB650:
 352:UIManager.cpp ****       }
 4388              		.loc 1 352 24 view .LVU1188
 4389 011a FFF7FEBF 		b	_ZN9UIManager15SetLedSynthModeEv
 4390              	.LVL326:
 4391              	.L289:
 4392              		.cfi_restore_state
 316:UIManager.cpp ****     if (pulse_brightness_ >= 255 - PULSE_STEP){
 4393              		.loc 1 316 23 view .LVU1189
 4394 011e 4375     		strb	r3, [r0, #21]
 4395 0120 7CE7     		b	.L279
 4396              	.LVL327:
 4397              	.L276:
 316:UIManager.cpp ****     if (pulse_brightness_ >= 255 - PULSE_STEP){
 4398              		.loc 1 316 23 view .LVU1190
 4399              	.LBE650:
 4400              	.LBE653:
 294:UIManager.cpp **** 
 4401              		.loc 1 294 1 view .LVU1191
 4402 0122 10BD     		pop	{r4, pc}
 4403              	.LVL328:
 4404              	.L291:
 294:UIManager.cpp **** 
 4405              		.loc 1 294 1 view .LVU1192
 4406              		.align	2
 4407              	.L290:
 4408 0124 00000000 		.word	0
 4409              		.cfi_endproc
 4410              	.LFE2605:
 4412              		.section	.rodata._ZN9UIManager15DebugPrintStateEv.str1.4,"aMS",%progbits,1
 4413              		.align	2
 4414              	.LC9:
ARM GAS  /var/folders/2p/02m_5p7958535cp2tpgps0400000gn/T//ccA97qDZ.s 			page 112


 4415 0000 53746174 		.ascii	"State now in: Startup\000"
 4415      65206E6F 
 4415      7720696E 
 4415      3A205374 
 4415      61727475 
 4416 0016 0000     		.align	2
 4417              	.LC10:
 4418 0018 53746174 		.ascii	"State now in: SelectFile\000"
 4418      65206E6F 
 4418      7720696E 
 4418      3A205365 
 4418      6C656374 
 4419 0031 000000   		.align	2
 4420              	.LC11:
 4421 0034 53746174 		.ascii	"State now in: RecordIn\000"
 4421      65206E6F 
 4421      7720696E 
 4421      3A205265 
 4421      636F7264 
 4422 004b 00       		.align	2
 4423              	.LC12:
 4424 004c 53746174 		.ascii	"State now in: PlayWAV\000"
 4424      65206E6F 
 4424      7720696E 
 4424      3A20506C 
 4424      61795741 
 4425 0062 0000     		.align	2
 4426              	.LC13:
 4427 0064 53746174 		.ascii	"State now in: Synthesis\000"
 4427      65206E6F 
 4427      7720696E 
 4427      3A205379 
 4427      6E746865 
 4428              		.align	2
 4429              	.LC14:
 4430 007c 53746174 		.ascii	"State now in: Error\000"
 4430      65206E6F 
 4430      7720696E 
 4430      3A204572 
 4430      726F7200 
 4431              		.align	2
 4432              	.LC15:
 4433 0090 64656661 		.ascii	"default state??\000"
 4433      756C7420 
 4433      73746174 
 4433      653F3F00 
 4434              		.section	.text._ZN9UIManager15DebugPrintStateEv,"ax",%progbits
 4435              		.align	1
 4436              		.p2align 2,,3
 4437              		.global	_ZN9UIManager15DebugPrintStateEv
 4438              		.syntax unified
 4439              		.thumb
 4440              		.thumb_func
 4442              	_ZN9UIManager15DebugPrintStateEv:
 4443              	.LVL329:
 4444              	.LFB2616:
 460:UIManager.cpp ****   switch(current_state_){
ARM GAS  /var/folders/2p/02m_5p7958535cp2tpgps0400000gn/T//ccA97qDZ.s 			page 113


 4445              		.loc 1 460 34 is_stmt 1 view -0
 4446              		.cfi_startproc
 4447              		@ args = 0, pretend = 0, frame = 0
 4448              		@ frame_needed = 0, uses_anonymous_args = 0
 4449              		@ link register save eliminated.
 461:UIManager.cpp ****     case AppState::Startup:
 4450              		.loc 1 461 3 view .LVU1194
 4451 0000 4368     		ldr	r3, [r0, #4]
 4452 0002 052B     		cmp	r3, #5
 4453 0004 16D8     		bhi	.L293
 4454 0006 DFE803F0 		tbb	[pc, r3]
 4455              	.L295:
 4456 000a 06       		.byte	(.L300-.L295)/2
 4457 000b 09       		.byte	(.L299-.L295)/2
 4458 000c 0C       		.byte	(.L298-.L295)/2
 4459 000d 0F       		.byte	(.L297-.L295)/2
 4460 000e 12       		.byte	(.L296-.L295)/2
 4461 000f 03       		.byte	(.L294-.L295)/2
 4462              		.p2align 1
 4463              	.L294:
 479:UIManager.cpp ****       DebugPrint(pod_, "State now in: Error");
 4464              		.loc 1 479 5 view .LVU1195
 480:UIManager.cpp ****         break;
 4465              		.loc 1 480 7 view .LVU1196
 480:UIManager.cpp ****         break;
 4466              		.loc 1 480 7 view .LVU1197
 4467              	.LVL330:
 4468              	.LBB654:
 4469              	.LBI654:
 126:../libDaisy/src/daisy_seed.h ****     {
 4470              		.loc 3 126 17 view .LVU1198
 4471              	.LBB655:
 4472              		.loc 3 128 23 is_stmt 0 view .LVU1199
 4473 0010 0A48     		ldr	r0, .L301
 4474              	.LVL331:
 4475              		.loc 3 128 23 view .LVU1200
 4476 0012 FFF7FEBF 		b	_ZN5daisy6LoggerILNS_17LoggerDestinationE1EE9PrintLineEPKcz
 4477              	.LVL332:
 4478              	.L300:
 4479              		.loc 3 128 23 view .LVU1201
 4480              	.LBE655:
 4481              	.LBE654:
 462:UIManager.cpp ****       DebugPrint(pod_, "State now in: Startup");
 4482              		.loc 1 462 5 is_stmt 1 view .LVU1202
 463:UIManager.cpp ****         break;
 4483              		.loc 1 463 7 view .LVU1203
 463:UIManager.cpp ****         break;
 4484              		.loc 1 463 7 view .LVU1204
 4485              	.LBB656:
 4486              	.LBI656:
 126:../libDaisy/src/daisy_seed.h ****     {
 4487              		.loc 3 126 17 view .LVU1205
 4488              	.LBB657:
 4489              		.loc 3 128 23 is_stmt 0 view .LVU1206
 4490 0016 0A48     		ldr	r0, .L301+4
 4491              	.LVL333:
 4492              		.loc 3 128 23 view .LVU1207
ARM GAS  /var/folders/2p/02m_5p7958535cp2tpgps0400000gn/T//ccA97qDZ.s 			page 114


 4493 0018 FFF7FEBF 		b	_ZN5daisy6LoggerILNS_17LoggerDestinationE1EE9PrintLineEPKcz
 4494              	.LVL334:
 4495              	.L299:
 4496              		.loc 3 128 23 view .LVU1208
 4497              	.LBE657:
 4498              	.LBE656:
 465:UIManager.cpp ****       DebugPrint(pod_, "State now in: SelectFile");
 4499              		.loc 1 465 5 is_stmt 1 view .LVU1209
 466:UIManager.cpp ****         break;
 4500              		.loc 1 466 7 view .LVU1210
 466:UIManager.cpp ****         break;
 4501              		.loc 1 466 7 view .LVU1211
 4502              	.LBB658:
 4503              	.LBI658:
 126:../libDaisy/src/daisy_seed.h ****     {
 4504              		.loc 3 126 17 view .LVU1212
 4505              	.LBB659:
 4506              		.loc 3 128 23 is_stmt 0 view .LVU1213
 4507 001c 0948     		ldr	r0, .L301+8
 4508              	.LVL335:
 4509              		.loc 3 128 23 view .LVU1214
 4510 001e FFF7FEBF 		b	_ZN5daisy6LoggerILNS_17LoggerDestinationE1EE9PrintLineEPKcz
 4511              	.LVL336:
 4512              	.L298:
 4513              		.loc 3 128 23 view .LVU1215
 4514              	.LBE659:
 4515              	.LBE658:
 471:UIManager.cpp ****       DebugPrint(pod_, "State now in: PlayWAV");
 4516              		.loc 1 471 5 is_stmt 1 view .LVU1216
 472:UIManager.cpp ****         break;
 4517              		.loc 1 472 7 view .LVU1217
 472:UIManager.cpp ****         break;
 4518              		.loc 1 472 7 view .LVU1218
 4519              	.LBB660:
 4520              	.LBI660:
 126:../libDaisy/src/daisy_seed.h ****     {
 4521              		.loc 3 126 17 view .LVU1219
 4522              	.LBB661:
 4523              		.loc 3 128 23 is_stmt 0 view .LVU1220
 4524 0022 0948     		ldr	r0, .L301+12
 4525              	.LVL337:
 4526              		.loc 3 128 23 view .LVU1221
 4527 0024 FFF7FEBF 		b	_ZN5daisy6LoggerILNS_17LoggerDestinationE1EE9PrintLineEPKcz
 4528              	.LVL338:
 4529              	.L297:
 4530              		.loc 3 128 23 view .LVU1222
 4531              	.LBE661:
 4532              	.LBE660:
 474:UIManager.cpp ****       DebugPrint(pod_, "State now in: Synthesis");
 4533              		.loc 1 474 5 is_stmt 1 view .LVU1223
 475:UIManager.cpp ****         break;
 4534              		.loc 1 475 7 view .LVU1224
 475:UIManager.cpp ****         break;
 4535              		.loc 1 475 7 view .LVU1225
 4536              	.LBB662:
 4537              	.LBI662:
 126:../libDaisy/src/daisy_seed.h ****     {
ARM GAS  /var/folders/2p/02m_5p7958535cp2tpgps0400000gn/T//ccA97qDZ.s 			page 115


 4538              		.loc 3 126 17 view .LVU1226
 4539              	.LBB663:
 4540              		.loc 3 128 23 is_stmt 0 view .LVU1227
 4541 0028 0848     		ldr	r0, .L301+16
 4542              	.LVL339:
 4543              		.loc 3 128 23 view .LVU1228
 4544 002a FFF7FEBF 		b	_ZN5daisy6LoggerILNS_17LoggerDestinationE1EE9PrintLineEPKcz
 4545              	.LVL340:
 4546              	.L296:
 4547              		.loc 3 128 23 view .LVU1229
 4548              	.LBE663:
 4549              	.LBE662:
 468:UIManager.cpp ****       DebugPrint(pod_, "State now in: RecordIn");
 4550              		.loc 1 468 5 is_stmt 1 view .LVU1230
 469:UIManager.cpp ****         break;
 4551              		.loc 1 469 7 view .LVU1231
 469:UIManager.cpp ****         break;
 4552              		.loc 1 469 7 view .LVU1232
 4553              	.LBB664:
 4554              	.LBI664:
 126:../libDaisy/src/daisy_seed.h ****     {
 4555              		.loc 3 126 17 view .LVU1233
 4556              	.LBB665:
 4557              		.loc 3 128 23 is_stmt 0 view .LVU1234
 4558 002e 0848     		ldr	r0, .L301+20
 4559              	.LVL341:
 4560              		.loc 3 128 23 view .LVU1235
 4561 0030 FFF7FEBF 		b	_ZN5daisy6LoggerILNS_17LoggerDestinationE1EE9PrintLineEPKcz
 4562              	.LVL342:
 4563              	.L293:
 4564              		.loc 3 128 23 view .LVU1236
 4565              	.LBE665:
 4566              	.LBE664:
 482:UIManager.cpp ****       DebugPrint(pod_, "default state??");
 4567              		.loc 1 482 5 is_stmt 1 view .LVU1237
 483:UIManager.cpp ****       break;
 4568              		.loc 1 483 7 view .LVU1238
 483:UIManager.cpp ****       break;
 4569              		.loc 1 483 7 view .LVU1239
 4570              	.LBB666:
 4571              	.LBI666:
 126:../libDaisy/src/daisy_seed.h ****     {
 4572              		.loc 3 126 17 view .LVU1240
 4573              	.LBB667:
 4574              		.loc 3 128 23 is_stmt 0 view .LVU1241
 4575 0034 0748     		ldr	r0, .L301+24
 4576              	.LVL343:
 4577              		.loc 3 128 23 view .LVU1242
 4578 0036 FFF7FEBF 		b	_ZN5daisy6LoggerILNS_17LoggerDestinationE1EE9PrintLineEPKcz
 4579              	.LVL344:
 4580              	.L302:
 4581 003a 00BF     		.align	2
 4582              	.L301:
 4583 003c 7C000000 		.word	.LC14
 4584 0040 00000000 		.word	.LC9
 4585 0044 18000000 		.word	.LC10
 4586 0048 4C000000 		.word	.LC12
ARM GAS  /var/folders/2p/02m_5p7958535cp2tpgps0400000gn/T//ccA97qDZ.s 			page 116


 4587 004c 64000000 		.word	.LC13
 4588 0050 34000000 		.word	.LC11
 4589 0054 90000000 		.word	.LC15
 4590              	.LBE667:
 4591              	.LBE666:
 4592              		.cfi_endproc
 4593              	.LFE2616:
 4595              		.section	.text._ZN9UIManager19DebugPrintSynthModeEv,"ax",%progbits
 4596              		.align	1
 4597              		.p2align 2,,3
 4598              		.global	_ZN9UIManager19DebugPrintSynthModeEv
 4599              		.syntax unified
 4600              		.thumb
 4601              		.thumb_func
 4603              	_ZN9UIManager19DebugPrintSynthModeEv:
 4604              	.LVL345:
 4605              	.LFB2617:
 488:UIManager.cpp ****   switch(current_synth_mode_){
 4606              		.loc 1 488 38 is_stmt 1 view -0
 4607              		.cfi_startproc
 4608              		@ args = 0, pretend = 0, frame = 0
 4609              		@ frame_needed = 0, uses_anonymous_args = 0
 4610              		@ link register save eliminated.
 489:UIManager.cpp ****     case SynthMode::Size_Position:
 4611              		.loc 1 489 3 view .LVU1244
 4612 0000 8368     		ldr	r3, [r0, #8]
 4613 0002 082B     		cmp	r3, #8
 4614 0004 21D8     		bhi	.L303
 4615 0006 DFE803F0 		tbb	[pc, r3]
 4616              	.L306:
 4617 000a 08       		.byte	(.L314-.L306)/2
 4618 000b 0B       		.byte	(.L313-.L306)/2
 4619 000c 0E       		.byte	(.L312-.L306)/2
 4620 000d 11       		.byte	(.L311-.L306)/2
 4621 000e 14       		.byte	(.L310-.L306)/2
 4622 000f 17       		.byte	(.L309-.L306)/2
 4623 0010 1A       		.byte	(.L308-.L306)/2
 4624 0011 1D       		.byte	(.L307-.L306)/2
 4625 0012 05       		.byte	(.L305-.L306)/2
 4626 0013 00       		.p2align 1
 4627              	.L305:
 514:UIManager.cpp ****       DebugPrint(pod_, "Synth mode now in: Filter");
 4628              		.loc 1 514 5 view .LVU1245
 4629              		.loc 1 515 7 view .LVU1246
 4630              		.loc 1 515 7 view .LVU1247
 4631              	.LVL346:
 4632              	.LBB668:
 4633              	.LBI668:
 126:../libDaisy/src/daisy_seed.h ****     {
 4634              		.loc 3 126 17 view .LVU1248
 4635              	.LBB669:
 4636              		.loc 3 128 23 is_stmt 0 view .LVU1249
 4637 0014 0D48     		ldr	r0, .L315
 4638              	.LVL347:
 4639              		.loc 3 128 23 view .LVU1250
 4640 0016 FFF7FEBF 		b	_ZN5daisy6LoggerILNS_17LoggerDestinationE1EE9PrintLineEPKcz
 4641              	.LVL348:
ARM GAS  /var/folders/2p/02m_5p7958535cp2tpgps0400000gn/T//ccA97qDZ.s 			page 117


 4642              	.L314:
 4643              		.loc 3 128 23 view .LVU1251
 4644              	.LBE669:
 4645              	.LBE668:
 490:UIManager.cpp ****       DebugPrint(pod_, "Synth mode now in: Size_Position");
 4646              		.loc 1 490 5 is_stmt 1 view .LVU1252
 491:UIManager.cpp ****         break;
 4647              		.loc 1 491 7 view .LVU1253
 491:UIManager.cpp ****         break;
 4648              		.loc 1 491 7 view .LVU1254
 4649              	.LBB670:
 4650              	.LBI670:
 126:../libDaisy/src/daisy_seed.h ****     {
 4651              		.loc 3 126 17 view .LVU1255
 4652              	.LBB671:
 4653              		.loc 3 128 23 is_stmt 0 view .LVU1256
 4654 001a 0D48     		ldr	r0, .L315+4
 4655              	.LVL349:
 4656              		.loc 3 128 23 view .LVU1257
 4657 001c FFF7FEBF 		b	_ZN5daisy6LoggerILNS_17LoggerDestinationE1EE9PrintLineEPKcz
 4658              	.LVL350:
 4659              	.L313:
 4660              		.loc 3 128 23 view .LVU1258
 4661              	.LBE671:
 4662              	.LBE670:
 496:UIManager.cpp ****       DebugPrint(pod_, "Synth mode now in: Pitch_ActiveGrains");
 4663              		.loc 1 496 5 is_stmt 1 view .LVU1259
 497:UIManager.cpp ****         break;
 4664              		.loc 1 497 7 view .LVU1260
 497:UIManager.cpp ****         break;
 4665              		.loc 1 497 7 view .LVU1261
 4666              	.LBB672:
 4667              	.LBI672:
 126:../libDaisy/src/daisy_seed.h ****     {
 4668              		.loc 3 126 17 view .LVU1262
 4669              	.LBB673:
 4670              		.loc 3 128 23 is_stmt 0 view .LVU1263
 4671 0020 0C48     		ldr	r0, .L315+8
 4672              	.LVL351:
 4673              		.loc 3 128 23 view .LVU1264
 4674 0022 FFF7FEBF 		b	_ZN5daisy6LoggerILNS_17LoggerDestinationE1EE9PrintLineEPKcz
 4675              	.LVL352:
 4676              	.L312:
 4677              		.loc 3 128 23 view .LVU1265
 4678              	.LBE673:
 4679              	.LBE672:
 502:UIManager.cpp ****       DebugPrint(pod_, "Synth mode now in: PhasorMode_EnvType");
 4680              		.loc 1 502 5 is_stmt 1 view .LVU1266
 503:UIManager.cpp ****         break;
 4681              		.loc 1 503 7 view .LVU1267
 503:UIManager.cpp ****         break;
 4682              		.loc 1 503 7 view .LVU1268
 4683              	.LBB674:
 4684              	.LBI674:
 126:../libDaisy/src/daisy_seed.h ****     {
 4685              		.loc 3 126 17 view .LVU1269
 4686              	.LBB675:
ARM GAS  /var/folders/2p/02m_5p7958535cp2tpgps0400000gn/T//ccA97qDZ.s 			page 118


 4687              		.loc 3 128 23 is_stmt 0 view .LVU1270
 4688 0026 0C48     		ldr	r0, .L315+12
 4689              	.LVL353:
 4690              		.loc 3 128 23 view .LVU1271
 4691 0028 FFF7FEBF 		b	_ZN5daisy6LoggerILNS_17LoggerDestinationE1EE9PrintLineEPKcz
 4692              	.LVL354:
 4693              	.L311:
 4694              		.loc 3 128 23 view .LVU1272
 4695              	.LBE675:
 4696              	.LBE674:
 493:UIManager.cpp ****       DebugPrint(pod_, "Synth mode now in: Size_Position_Rnd");
 4697              		.loc 1 493 5 is_stmt 1 view .LVU1273
 494:UIManager.cpp ****         break;
 4698              		.loc 1 494 7 view .LVU1274
 494:UIManager.cpp ****         break;
 4699              		.loc 1 494 7 view .LVU1275
 4700              	.LBB676:
 4701              	.LBI676:
 126:../libDaisy/src/daisy_seed.h ****     {
 4702              		.loc 3 126 17 view .LVU1276
 4703              	.LBB677:
 4704              		.loc 3 128 23 is_stmt 0 view .LVU1277
 4705 002c 0B48     		ldr	r0, .L315+16
 4706              	.LVL355:
 4707              		.loc 3 128 23 view .LVU1278
 4708 002e FFF7FEBF 		b	_ZN5daisy6LoggerILNS_17LoggerDestinationE1EE9PrintLineEPKcz
 4709              	.LVL356:
 4710              	.L310:
 4711              		.loc 3 128 23 view .LVU1279
 4712              	.LBE677:
 4713              	.LBE676:
 499:UIManager.cpp ****       DebugPrint(pod_, "Synth mode now in: Pitch_ActiveGrains_Rnd");
 4714              		.loc 1 499 5 is_stmt 1 view .LVU1280
 500:UIManager.cpp ****         break;
 4715              		.loc 1 500 7 view .LVU1281
 500:UIManager.cpp ****         break;
 4716              		.loc 1 500 7 view .LVU1282
 4717              	.LBB678:
 4718              	.LBI678:
 126:../libDaisy/src/daisy_seed.h ****     {
 4719              		.loc 3 126 17 view .LVU1283
 4720              	.LBB679:
 4721              		.loc 3 128 23 is_stmt 0 view .LVU1284
 4722 0032 0B48     		ldr	r0, .L315+20
 4723              	.LVL357:
 4724              		.loc 3 128 23 view .LVU1285
 4725 0034 FFF7FEBF 		b	_ZN5daisy6LoggerILNS_17LoggerDestinationE1EE9PrintLineEPKcz
 4726              	.LVL358:
 4727              	.L309:
 4728              		.loc 3 128 23 view .LVU1286
 4729              	.LBE679:
 4730              	.LBE678:
 505:UIManager.cpp ****       DebugPrint(pod_, "Synth mode now in: PhasorMode_EnvType_Rnd");
 4731              		.loc 1 505 5 is_stmt 1 view .LVU1287
 506:UIManager.cpp ****         break;
 4732              		.loc 1 506 7 view .LVU1288
 506:UIManager.cpp ****         break;
ARM GAS  /var/folders/2p/02m_5p7958535cp2tpgps0400000gn/T//ccA97qDZ.s 			page 119


 4733              		.loc 1 506 7 view .LVU1289
 4734              	.LBB680:
 4735              	.LBI680:
 126:../libDaisy/src/daisy_seed.h ****     {
 4736              		.loc 3 126 17 view .LVU1290
 4737              	.LBB681:
 4738              		.loc 3 128 23 is_stmt 0 view .LVU1291
 4739 0038 0A48     		ldr	r0, .L315+24
 4740              	.LVL359:
 4741              		.loc 3 128 23 view .LVU1292
 4742 003a FFF7FEBF 		b	_ZN5daisy6LoggerILNS_17LoggerDestinationE1EE9PrintLineEPKcz
 4743              	.LVL360:
 4744              	.L308:
 4745              		.loc 3 128 23 view .LVU1293
 4746              	.LBE681:
 4747              	.LBE680:
 508:UIManager.cpp ****       DebugPrint(pod_, "Synth mode now in: Pan_PanRnd");
 4748              		.loc 1 508 5 is_stmt 1 view .LVU1294
 509:UIManager.cpp ****       break;
 4749              		.loc 1 509 7 view .LVU1295
 509:UIManager.cpp ****       break;
 4750              		.loc 1 509 7 view .LVU1296
 4751              	.LBB682:
 4752              	.LBI682:
 126:../libDaisy/src/daisy_seed.h ****     {
 4753              		.loc 3 126 17 view .LVU1297
 4754              	.LBB683:
 4755              		.loc 3 128 23 is_stmt 0 view .LVU1298
 4756 003e 0A48     		ldr	r0, .L315+28
 4757              	.LVL361:
 4758              		.loc 3 128 23 view .LVU1299
 4759 0040 FFF7FEBF 		b	_ZN5daisy6LoggerILNS_17LoggerDestinationE1EE9PrintLineEPKcz
 4760              	.LVL362:
 4761              	.L307:
 4762              		.loc 3 128 23 view .LVU1300
 4763              	.LBE683:
 4764              	.LBE682:
 511:UIManager.cpp ****       DebugPrint(pod_, "Synth mode now in: Reverb");
 4765              		.loc 1 511 5 is_stmt 1 view .LVU1301
 512:UIManager.cpp ****       break;
 4766              		.loc 1 512 7 view .LVU1302
 512:UIManager.cpp ****       break;
 4767              		.loc 1 512 7 view .LVU1303
 4768              	.LBB684:
 4769              	.LBI684:
 126:../libDaisy/src/daisy_seed.h ****     {
 4770              		.loc 3 126 17 view .LVU1304
 4771              	.LBB685:
 4772              		.loc 3 128 23 is_stmt 0 view .LVU1305
 4773 0044 0948     		ldr	r0, .L315+32
 4774              	.LVL363:
 4775              		.loc 3 128 23 view .LVU1306
 4776 0046 FFF7FEBF 		b	_ZN5daisy6LoggerILNS_17LoggerDestinationE1EE9PrintLineEPKcz
 4777              	.LVL364:
 4778              	.L303:
 4779              		.loc 3 128 23 view .LVU1307
 4780              	.LBE685:
ARM GAS  /var/folders/2p/02m_5p7958535cp2tpgps0400000gn/T//ccA97qDZ.s 			page 120


 4781              	.LBE684:
 516:UIManager.cpp ****       break;
 517:UIManager.cpp ****   }
 518:UIManager.cpp **** }
 4782              		.loc 1 518 1 view .LVU1308
 4783 004a 7047     		bx	lr
 4784              	.L316:
 4785              		.align	2
 4786              	.L315:
 4787 004c 30010000 		.word	.LC8
 4788 0050 20000000 		.word	.LC1
 4789 0054 6C000000 		.word	.LC3
 4790 0058 C0000000 		.word	.LC5
 4791 005c 44000000 		.word	.LC2
 4792 0060 94000000 		.word	.LC4
 4793 0064 E8000000 		.word	.LC6
 4794 0068 00000000 		.word	.LC0
 4795 006c 14010000 		.word	.LC7
 4796              		.cfi_endproc
 4797              	.LFE2617:
 4799              		.section	.text._ZN9UIManager11UpdateStateEv,"ax",%progbits
 4800              		.align	1
 4801              		.p2align 2,,3
 4802              		.global	_ZN9UIManager11UpdateStateEv
 4803              		.syntax unified
 4804              		.thumb
 4805              		.thumb_func
 4807              	_ZN9UIManager11UpdateStateEv:
 4808              	.LVL365:
 4809              	.LFB2580:
  35:UIManager.cpp ****   pod_.ProcessDigitalControls();
 4810              		.loc 1 35 30 is_stmt 1 view -0
 4811              		.cfi_startproc
 4812              		@ args = 0, pretend = 0, frame = 0
 4813              		@ frame_needed = 0, uses_anonymous_args = 0
  36:UIManager.cpp ****   // TODO: change this to encoder pressed?? 
 4814              		.loc 1 36 3 view .LVU1310
  35:UIManager.cpp ****   pod_.ProcessDigitalControls();
 4815              		.loc 1 35 30 is_stmt 0 view .LVU1311
 4816 0000 38B5     		push	{r3, r4, r5, lr}
 4817              		.cfi_def_cfa_offset 16
 4818              		.cfi_offset 3, -16
 4819              		.cfi_offset 4, -12
 4820              		.cfi_offset 5, -8
 4821              		.cfi_offset 14, -4
  35:UIManager.cpp ****   pod_.ProcessDigitalControls();
 4822              		.loc 1 35 30 view .LVU1312
 4823 0002 0546     		mov	r5, r0
  36:UIManager.cpp ****   // TODO: change this to encoder pressed?? 
 4824              		.loc 1 36 30 view .LVU1313
 4825 0004 0068     		ldr	r0, [r0]
 4826              	.LVL366:
  36:UIManager.cpp ****   // TODO: change this to encoder pressed?? 
 4827              		.loc 1 36 30 view .LVU1314
 4828 0006 FFF7FEFF 		bl	_ZN5daisy8DaisyPod22ProcessDigitalControlsEv
 4829              	.LVL367:
  38:UIManager.cpp ****     HandleButton1();
ARM GAS  /var/folders/2p/02m_5p7958535cp2tpgps0400000gn/T//ccA97qDZ.s 			page 121


 4830              		.loc 1 38 3 is_stmt 1 view .LVU1315
 4831              	.LBB773:
 4832              	.LBI773:
 249:UIManager.cpp ****   return pod_.button1.FallingEdge();
 4833              		.loc 1 249 6 view .LVU1316
 4834              	.LBB774:
 250:UIManager.cpp **** }
 4835              		.loc 1 250 3 view .LVU1317
 250:UIManager.cpp **** }
 4836              		.loc 1 250 10 is_stmt 0 view .LVU1318
 4837 000a 2C68     		ldr	r4, [r5]
 4838              	.LVL368:
 4839              	.LBB775:
 4840              	.LBI775:
  73:../libDaisy/src/hid/switch.h ****     {
 4841              		.loc 5 73 17 is_stmt 1 view .LVU1319
 4842              	.LBB776:
  75:../libDaisy/src/hid/switch.h ****     }
 4843              		.loc 5 75 9 view .LVU1320
  75:../libDaisy/src/hid/switch.h ****     }
 4844              		.loc 5 75 25 is_stmt 0 view .LVU1321
 4845 000c 94F8B430 		ldrb	r3, [r4, #180]	@ zero_extendqisi2
 4846 0010 002B     		cmp	r3, #0
 4847 0012 60D0     		beq	.L318
 4848              	.LVL369:
  75:../libDaisy/src/hid/switch.h ****     }
 4849              		.loc 5 75 25 view .LVU1322
 4850              	.LBE776:
 4851              	.LBE775:
 4852              	.LBE774:
 4853              	.LBE773:
  38:UIManager.cpp ****     HandleButton1();
 4854              		.loc 1 38 3 view .LVU1323
 4855 0014 94F8BA30 		ldrb	r3, [r4, #186]	@ zero_extendqisi2
 4856 0018 802B     		cmp	r3, #128
 4857 001a 5CD1     		bne	.L318
  39:UIManager.cpp ****   }
 4858              		.loc 1 39 5 is_stmt 1 view .LVU1324
 4859              	.LVL370:
 4860              	.LBB777:
 4861              	.LBI777:
  63:UIManager.cpp ****   switch(current_state_){
 4862              		.loc 1 63 6 view .LVU1325
 4863              	.LBB778:
  64:UIManager.cpp ****     case AppState::Startup:
 4864              		.loc 1 64 3 view .LVU1326
  64:UIManager.cpp ****     case AppState::Startup:
 4865              		.loc 1 64 10 is_stmt 0 view .LVU1327
 4866 001c 6B68     		ldr	r3, [r5, #4]
  64:UIManager.cpp ****     case AppState::Startup:
 4867              		.loc 1 64 3 view .LVU1328
 4868 001e 002B     		cmp	r3, #0
 4869 0020 00F0D880 		beq	.L319
 4870 0024 032B     		cmp	r3, #3
 4871 0026 00F0C080 		beq	.L320
 4872              	.LVL371:
  64:UIManager.cpp ****     case AppState::Startup:
ARM GAS  /var/folders/2p/02m_5p7958535cp2tpgps0400000gn/T//ccA97qDZ.s 			page 122


 4873              		.loc 1 64 3 view .LVU1329
 4874              	.LBE778:
 4875              	.LBE777:
  41:UIManager.cpp ****     HandleButton2();
 4876              		.loc 1 41 3 is_stmt 1 view .LVU1330
 4877              	.LBB795:
 4878              	.LBI795:
 257:UIManager.cpp ****   return pod_.button2.FallingEdge();
 4879              		.loc 1 257 6 view .LVU1331
 4880              	.LBB796:
 258:UIManager.cpp **** }
 4881              		.loc 1 258 3 view .LVU1332
 4882              	.LBB797:
 4883              	.LBI797:
  73:../libDaisy/src/hid/switch.h ****     {
 4884              		.loc 5 73 17 view .LVU1333
 4885              	.LBB798:
  75:../libDaisy/src/hid/switch.h ****     }
 4886              		.loc 5 75 9 view .LVU1334
  75:../libDaisy/src/hid/switch.h ****     }
 4887              		.loc 5 75 25 is_stmt 0 view .LVU1335
 4888 002a 94F8C430 		ldrb	r3, [r4, #196]	@ zero_extendqisi2
 4889 002e 002B     		cmp	r3, #0
 4890 0030 59D0     		beq	.L323
 4891              	.LVL372:
 4892              	.L369:
  75:../libDaisy/src/hid/switch.h ****     }
 4893              		.loc 5 75 25 view .LVU1336
 4894              	.LBE798:
 4895              	.LBE797:
 4896              	.LBE796:
 4897              	.LBE795:
  41:UIManager.cpp ****     HandleButton2();
 4898              		.loc 1 41 3 view .LVU1337
 4899 0032 94F8CA30 		ldrb	r3, [r4, #202]	@ zero_extendqisi2
 4900 0036 802B     		cmp	r3, #128
 4901 0038 51D1     		bne	.L330
  42:UIManager.cpp ****   }
 4902              		.loc 1 42 5 is_stmt 1 view .LVU1338
 4903              	.LVL373:
 4904              	.LBB809:
 4905              	.LBI809:
  86:UIManager.cpp ****     if (current_state_ == AppState::Synthesis){
 4906              		.loc 1 86 6 view .LVU1339
 4907              	.LBB810:
  87:UIManager.cpp ****       ToggleRandomnessControls();
 4908              		.loc 1 87 5 view .LVU1340
 4909 003a 6B68     		ldr	r3, [r5, #4]
 4910 003c 032B     		cmp	r3, #3
 4911 003e 00F0D580 		beq	.L404
 4912              	.LVL374:
 4913              	.L342:
  87:UIManager.cpp ****       ToggleRandomnessControls();
 4914              		.loc 1 87 5 is_stmt 0 view .LVU1341
 4915              	.LBE810:
 4916              	.LBE809:
  44:UIManager.cpp ****     HandleButton1LongPress();
ARM GAS  /var/folders/2p/02m_5p7958535cp2tpgps0400000gn/T//ccA97qDZ.s 			page 123


 4917              		.loc 1 44 3 is_stmt 1 view .LVU1342
 4918              	.LBB852:
 4919              	.LBI852:
 253:UIManager.cpp ****   return pod_.button1.TimeHeldMs() > 1000.0f;
 4920              		.loc 1 253 6 view .LVU1343
 4921              	.LBB853:
 254:UIManager.cpp **** }
 4922              		.loc 1 254 3 view .LVU1344
 4923              	.LBB854:
 4924              	.LBI854:
  88:../libDaisy/src/hid/switch.h ****     {
 4925              		.loc 5 88 18 view .LVU1345
 4926              	.LBB855:
 4927              		.loc 5 90 9 view .LVU1346
 4928              	.LBB856:
 4929              	.LBI856:
  79:../libDaisy/src/hid/switch.h **** 
 4930              		.loc 5 79 17 view .LVU1347
 4931              	.LBB857:
  79:../libDaisy/src/hid/switch.h **** 
 4932              		.loc 5 79 35 view .LVU1348
  79:../libDaisy/src/hid/switch.h **** 
 4933              		.loc 5 79 35 is_stmt 0 view .LVU1349
 4934              	.LBE857:
 4935              	.LBE856:
 4936              		.loc 5 90 26 view .LVU1350
 4937 0042 94F8BA30 		ldrb	r3, [r4, #186]	@ zero_extendqisi2
 4938 0046 FF2B     		cmp	r3, #255
 4939 0048 51D1     		bne	.L349
 4940              	.LVL375:
 4941              	.L367:
 4942              		.loc 5 90 42 view .LVU1351
 4943 004a FFF7FEFF 		bl	_ZN5daisy6System6GetNowEv
 4944              	.LVL376:
 4945              		.loc 5 90 45 view .LVU1352
 4946 004e 07EE900A 		vmov	s15, r0	@ int
 4947              		.loc 5 90 26 view .LVU1353
 4948 0052 D4ED2F6A 		vldr.32	s13, [r4, #188]
 4949              		.loc 5 90 45 view .LVU1354
 4950 0056 F8EE677A 		vcvt.f32.u32	s15, s15
 4951              	.LBE855:
 4952              	.LBE854:
 4953              	.LBE853:
 4954              	.LBE852:
  44:UIManager.cpp ****     HandleButton1LongPress();
 4955              		.loc 1 44 3 view .LVU1355
 4956 005a 9FED997A 		vldr.32	s14, .L415
 4957              	.LBB867:
 4958              	.LBB864:
 4959              	.LBB862:
 4960              	.LBB860:
 4961              		.loc 5 90 26 view .LVU1356
 4962 005e 77EEE67A 		vsub.f32	s15, s15, s13
 4963              	.LBE860:
 4964              	.LBE862:
 4965              	.LBE864:
 4966              	.LBE867:
ARM GAS  /var/folders/2p/02m_5p7958535cp2tpgps0400000gn/T//ccA97qDZ.s 			page 124


  44:UIManager.cpp ****     HandleButton1LongPress();
 4967              		.loc 1 44 3 view .LVU1357
 4968 0062 F4EEC77A 		vcmpe.f32	s15, s14
 4969 0066 F1EE10FA 		vmrs	APSR_nzcv, FPSCR
 4970 006a 02DD     		ble	.L400
  45:UIManager.cpp ****   }
 4971              		.loc 1 45 5 is_stmt 1 view .LVU1358
 4972              	.LVL377:
 4973              	.LBB868:
 4974              	.LBI868:
  93:UIManager.cpp ****   if (current_state_ == AppState::Synthesis){
 4975              		.loc 1 93 6 view .LVU1359
 4976              	.LBB869:
  94:UIManager.cpp ****     ToggleReverbControls();
 4977              		.loc 1 94 3 view .LVU1360
 4978 006c 6B68     		ldr	r3, [r5, #4]
 4979 006e 032B     		cmp	r3, #3
 4980 0070 7FD0     		beq	.L405
 4981              	.LVL378:
 4982              	.L400:
  94:UIManager.cpp ****     ToggleReverbControls();
 4983              		.loc 1 94 3 is_stmt 0 view .LVU1361
 4984              	.LBE869:
 4985              	.LBE868:
 4986              	.LBB902:
 4987              	.LBB903:
 262:UIManager.cpp **** }
 4988              		.loc 1 262 10 view .LVU1362
 4989 0072 2C68     		ldr	r4, [r5]
 4990              	.LBE903:
 4991              	.LBE902:
  47:UIManager.cpp ****     HandleButton2LongPress();
 4992              		.loc 1 47 3 is_stmt 1 view .LVU1363
 4993              	.LVL379:
 4994              	.LBB917:
 4995              	.LBI902:
 261:UIManager.cpp ****   return pod_.button2.TimeHeldMs() > 1000.0f;
 4996              		.loc 1 261 6 view .LVU1364
 4997              	.LBB914:
 262:UIManager.cpp **** }
 4998              		.loc 1 262 3 view .LVU1365
 4999              	.LBB904:
 5000              	.LBI904:
  88:../libDaisy/src/hid/switch.h ****     {
 5001              		.loc 5 88 18 view .LVU1366
 5002              	.LBB905:
 5003              		.loc 5 90 9 view .LVU1367
 5004              	.LBB906:
 5005              	.LBI906:
  79:../libDaisy/src/hid/switch.h **** 
 5006              		.loc 5 79 17 view .LVU1368
 5007              	.LBB907:
  79:../libDaisy/src/hid/switch.h **** 
 5008              		.loc 5 79 35 view .LVU1369
  79:../libDaisy/src/hid/switch.h **** 
 5009              		.loc 5 79 35 is_stmt 0 view .LVU1370
 5010              	.LBE907:
ARM GAS  /var/folders/2p/02m_5p7958535cp2tpgps0400000gn/T//ccA97qDZ.s 			page 125


 5011              	.LBE906:
 5012              		.loc 5 90 26 view .LVU1371
 5013 0074 94F8CA30 		ldrb	r3, [r4, #202]	@ zero_extendqisi2
 5014 0078 FF2B     		cmp	r3, #255
 5015 007a 38D1     		bne	.L349
 5016              	.LVL380:
 5017              	.L409:
 5018              		.loc 5 90 42 view .LVU1372
 5019 007c FFF7FEFF 		bl	_ZN5daisy6System6GetNowEv
 5020              	.LVL381:
 5021              		.loc 5 90 45 view .LVU1373
 5022 0080 07EE900A 		vmov	s15, r0	@ int
 5023              		.loc 5 90 26 view .LVU1374
 5024 0084 D4ED336A 		vldr.32	s13, [r4, #204]
 5025              		.loc 5 90 45 view .LVU1375
 5026 0088 F8EE677A 		vcvt.f32.u32	s15, s15
 5027              	.LBE905:
 5028              	.LBE904:
 5029              	.LBE914:
 5030              	.LBE917:
  47:UIManager.cpp ****     HandleButton2LongPress();
 5031              		.loc 1 47 3 view .LVU1376
 5032 008c 9FED8C7A 		vldr.32	s14, .L415
 5033              	.LBB918:
 5034              	.LBB915:
 5035              	.LBB912:
 5036              	.LBB910:
 5037              		.loc 5 90 26 view .LVU1377
 5038 0090 77EEE67A 		vsub.f32	s15, s15, s13
 5039              	.LBE910:
 5040              	.LBE912:
 5041              	.LBE915:
 5042              	.LBE918:
  47:UIManager.cpp ****     HandleButton2LongPress();
 5043              		.loc 1 47 3 view .LVU1378
 5044 0094 F4EEC77A 		vcmpe.f32	s15, s14
 5045 0098 F1EE10FA 		vmrs	APSR_nzcv, FPSCR
 5046 009c 02DD     		ble	.L402
  48:UIManager.cpp ****   }
 5047              		.loc 1 48 5 is_stmt 1 view .LVU1379
 5048              	.LVL382:
 5049              	.LBB919:
 5050              	.LBI919:
 100:UIManager.cpp ****   if (current_state_ == AppState::Synthesis){
 5051              		.loc 1 100 6 view .LVU1380
 5052              	.LBB920:
 101:UIManager.cpp ****     ToggleFilterControls();
 5053              		.loc 1 101 3 view .LVU1381
 5054 009e 6B68     		ldr	r3, [r5, #4]
 5055 00a0 032B     		cmp	r3, #3
 5056 00a2 58D0     		beq	.L406
 5057              	.LVL383:
 5058              	.L402:
 101:UIManager.cpp ****     ToggleFilterControls();
 5059              		.loc 1 101 3 is_stmt 0 view .LVU1382
 5060              	.LBE920:
 5061              	.LBE919:
ARM GAS  /var/folders/2p/02m_5p7958535cp2tpgps0400000gn/T//ccA97qDZ.s 			page 126


 5062              	.LBB953:
 5063              	.LBB954:
 242:UIManager.cpp **** }
 5064              		.loc 1 242 10 view .LVU1383
 5065 00a4 2C68     		ldr	r4, [r5]
 5066              	.LBE954:
 5067              	.LBE953:
  50:UIManager.cpp ****     HandleEncoderPressed();
 5068              		.loc 1 50 3 is_stmt 1 view .LVU1384
 5069              	.LVL384:
 5070              	.LBB967:
 5071              	.LBI953:
 241:UIManager.cpp ****   return pod_.encoder.FallingEdge();
 5072              		.loc 1 241 6 view .LVU1385
 5073              	.LBB963:
 242:UIManager.cpp **** }
 5074              		.loc 1 242 3 view .LVU1386
 5075              	.LBB955:
 5076              	.LBI955:
  42:../libDaisy/src/hid/encoder.h **** 
 5077              		.loc 4 42 17 view .LVU1387
 5078              	.LBE955:
 5079              	.LBE963:
 5080              	.LBE967:
  42:../libDaisy/src/hid/encoder.h **** 
 5081              		.loc 4 42 39 view .LVU1388
 5082              	.LBB968:
 5083              	.LBB964:
 5084              	.LBB960:
 5085              	.LBB956:
 5086              	.LBI956:
  73:../libDaisy/src/hid/switch.h ****     {
 5087              		.loc 5 73 17 view .LVU1389
 5088              	.LBB957:
  75:../libDaisy/src/hid/switch.h ****     }
 5089              		.loc 5 75 9 view .LVU1390
  75:../libDaisy/src/hid/switch.h ****     }
 5090              		.loc 5 75 25 is_stmt 0 view .LVU1391
 5091 00a6 94F84C30 		ldrb	r3, [r4, #76]	@ zero_extendqisi2
 5092 00aa 23BB     		cbnz	r3, .L407
 5093              	.LVL385:
 5094              	.L356:
  75:../libDaisy/src/hid/switch.h ****     }
 5095              		.loc 5 75 27 view .LVU1392
 5096 00ac 94F85230 		ldrb	r3, [r4, #82]	@ zero_extendqisi2
 5097              	.LVL386:
 5098              	.L357:
  75:../libDaisy/src/hid/switch.h ****     }
 5099              		.loc 5 75 27 view .LVU1393
 5100              	.LBE957:
 5101              	.LBE956:
 5102              	.LBE960:
 5103              	.LBE964:
 5104              	.LBE968:
  53:UIManager.cpp ****     HandleEncoderLongPress();
 5105              		.loc 1 53 3 is_stmt 1 view .LVU1394
 5106              	.LBB969:
ARM GAS  /var/folders/2p/02m_5p7958535cp2tpgps0400000gn/T//ccA97qDZ.s 			page 127


 5107              	.LBI969:
 245:UIManager.cpp ****   return pod_.encoder.TimeHeldMs() > 1000.0f;
 5108              		.loc 1 245 6 view .LVU1395
 5109              	.LBE969:
 246:UIManager.cpp **** }
 5110              		.loc 1 246 3 view .LVU1396
 5111              	.LBB991:
 5112              	.LBB970:
 5113              	.LBI970:
 5114              		.loc 4 48 18 view .LVU1397
 5115              	.LBE970:
 5116              	.LBE991:
 5117              		.loc 4 48 39 view .LVU1398
 5118              	.LBB992:
 5119              	.LBB983:
 5120              	.LBB971:
 5121              	.LBI971:
  88:../libDaisy/src/hid/switch.h ****     {
 5122              		.loc 5 88 18 view .LVU1399
 5123              	.LBB972:
 5124              		.loc 5 90 9 view .LVU1400
 5125              		.loc 5 90 9 is_stmt 0 view .LVU1401
 5126              	.LBE972:
 5127              	.LBE971:
 5128              	.LBE983:
 5129              	.LBE992:
  79:../libDaisy/src/hid/switch.h **** 
 5130              		.loc 5 79 35 is_stmt 1 view .LVU1402
 5131              	.LBB993:
 5132              	.LBB984:
 5133              	.LBB978:
 5134              	.LBB973:
 5135              		.loc 5 90 26 is_stmt 0 view .LVU1403
 5136 00b0 FF2B     		cmp	r3, #255
 5137 00b2 2CD0     		beq	.L408
 5138              	.LVL387:
 5139              	.L360:
 5140              		.loc 5 90 26 view .LVU1404
 5141              	.LBE973:
 5142              	.LBE978:
 5143              	.LBE984:
 5144              	.LBE993:
  56:UIManager.cpp ****     if (current_state_ == AppState::Startup){
 5145              		.loc 1 56 3 is_stmt 1 view .LVU1405
 5146              	.LBB994:
 5147              	.LBI994:
 237:UIManager.cpp ****   return pod_.encoder.Increment();
 5148              		.loc 1 237 9 view .LVU1406
 5149              	.LBB995:
 238:UIManager.cpp **** }
 5150              		.loc 1 238 3 view .LVU1407
 5151              	.LBB996:
 5152              	.LBI996:
  36:../libDaisy/src/hid/encoder.h **** 
 5153              		.loc 4 36 20 view .LVU1408
 5154              	.LBB997:
  36:../libDaisy/src/hid/encoder.h **** 
ARM GAS  /var/folders/2p/02m_5p7958535cp2tpgps0400000gn/T//ccA97qDZ.s 			page 128


 5155              		.loc 4 36 40 view .LVU1409
  36:../libDaisy/src/hid/encoder.h **** 
 5156              		.loc 4 36 56 is_stmt 0 view .LVU1410
 5157 00b4 94F84430 		ldrb	r3, [r4, #68]	@ zero_extendqisi2
 5158 00b8 33B1     		cbz	r3, .L317
 5159              	.LVL388:
  36:../libDaisy/src/hid/encoder.h **** 
 5160              		.loc 4 36 56 view .LVU1411
 5161              	.LBE997:
 5162              	.LBE996:
 5163              	.LBE995:
 5164              	.LBE994:
  56:UIManager.cpp ****     if (current_state_ == AppState::Startup){
 5165              		.loc 1 56 3 view .LVU1412
 5166 00ba 636E     		ldr	r3, [r4, #100]
 5167 00bc 002B     		cmp	r3, #0
 5168 00be 03DD     		ble	.L317
  57:UIManager.cpp ****       current_state_ = AppState::SelectFile;
 5169              		.loc 1 57 5 is_stmt 1 view .LVU1413
 5170 00c0 6B68     		ldr	r3, [r5, #4]
 5171 00c2 0BB9     		cbnz	r3, .L317
  58:UIManager.cpp ****     }
 5172              		.loc 1 58 7 view .LVU1414
  58:UIManager.cpp ****     }
 5173              		.loc 1 58 22 is_stmt 0 view .LVU1415
 5174 00c4 0123     		movs	r3, #1
 5175 00c6 6B60     		str	r3, [r5, #4]
 5176              	.L317:
  61:UIManager.cpp **** 
 5177              		.loc 1 61 1 view .LVU1416
 5178 00c8 38BD     		pop	{r3, r4, r5, pc}
 5179              	.LVL389:
 5180              	.L325:
 5181              	.LBB1001:
 5182              	.LBB791:
 5183              	.LBB779:
 5184              	.LBB780:
 5185              	.LBB781:
 5186              	.LBB782:
 168:UIManager.cpp ****       current_synth_mode_ = SynthMode::Size_Position;
 5187              		.loc 1 168 5 is_stmt 1 view .LVU1417
 169:UIManager.cpp ****       break;
 5188              		.loc 1 169 7 view .LVU1418
 169:UIManager.cpp ****       break;
 5189              		.loc 1 169 27 is_stmt 0 view .LVU1419
 5190 00ca 0023     		movs	r3, #0
 5191 00cc AB60     		str	r3, [r5, #8]
 170:UIManager.cpp ****     default:
 5192              		.loc 1 170 7 is_stmt 1 view .LVU1420
 5193              	.L324:
 5194              	.LVL390:
 170:UIManager.cpp ****     default:
 5195              		.loc 1 170 7 is_stmt 0 view .LVU1421
 5196              	.LBE782:
 5197              	.LBE781:
  79:UIManager.cpp ****       break;
 5198              		.loc 1 79 7 is_stmt 1 view .LVU1422
ARM GAS  /var/folders/2p/02m_5p7958535cp2tpgps0400000gn/T//ccA97qDZ.s 			page 129


  79:UIManager.cpp ****       break;
 5199              		.loc 1 79 26 is_stmt 0 view .LVU1423
 5200 00ce 2846     		mov	r0, r5
 5201 00d0 FFF7FEFF 		bl	_ZN9UIManager19DebugPrintSynthModeEv
 5202              	.LVL391:
  80:UIManager.cpp ****     default:
 5203              		.loc 1 80 7 is_stmt 1 view .LVU1424
 5204              	.LBE780:
 5205              	.LBE779:
 5206              	.LBE791:
 5207              	.LBE1001:
 5208              	.LBB1002:
 5209              	.LBB805:
 258:UIManager.cpp **** }
 5210              		.loc 1 258 10 is_stmt 0 view .LVU1425
 5211 00d4 2C68     		ldr	r4, [r5]
 5212              	.LVL392:
 5213              	.L318:
 258:UIManager.cpp **** }
 5214              		.loc 1 258 10 view .LVU1426
 5215              	.LBE805:
 5216              	.LBE1002:
  41:UIManager.cpp ****     HandleButton2();
 5217              		.loc 1 41 3 is_stmt 1 view .LVU1427
 5218              	.LBB1003:
 257:UIManager.cpp ****   return pod_.button2.FallingEdge();
 5219              		.loc 1 257 6 view .LVU1428
 5220              	.LBB806:
 258:UIManager.cpp **** }
 5221              		.loc 1 258 3 view .LVU1429
 5222              	.LBB802:
  73:../libDaisy/src/hid/switch.h ****     {
 5223              		.loc 5 73 17 view .LVU1430
 5224              	.LBB799:
  75:../libDaisy/src/hid/switch.h ****     }
 5225              		.loc 5 75 9 view .LVU1431
  75:../libDaisy/src/hid/switch.h ****     }
 5226              		.loc 5 75 25 is_stmt 0 view .LVU1432
 5227 00d6 94F8C430 		ldrb	r3, [r4, #196]	@ zero_extendqisi2
 5228 00da 002B     		cmp	r3, #0
 5229 00dc A9D1     		bne	.L369
 5230              	.LVL393:
 5231              	.L330:
  75:../libDaisy/src/hid/switch.h ****     }
 5232              		.loc 5 75 25 view .LVU1433
 5233              	.LBE799:
 5234              	.LBE802:
 5235              	.LBE806:
 5236              	.LBE1003:
  44:UIManager.cpp ****     HandleButton1LongPress();
 5237              		.loc 1 44 3 is_stmt 1 view .LVU1434
 5238              	.LBB1004:
 253:UIManager.cpp ****   return pod_.button1.TimeHeldMs() > 1000.0f;
 5239              		.loc 1 253 6 view .LVU1435
 5240              	.LBB865:
 254:UIManager.cpp **** }
 5241              		.loc 1 254 3 view .LVU1436
ARM GAS  /var/folders/2p/02m_5p7958535cp2tpgps0400000gn/T//ccA97qDZ.s 			page 130


 5242              	.LBB863:
  88:../libDaisy/src/hid/switch.h ****     {
 5243              		.loc 5 88 18 view .LVU1437
 5244              	.LBB861:
 5245              		.loc 5 90 9 view .LVU1438
 5246              	.LBB859:
  79:../libDaisy/src/hid/switch.h **** 
 5247              		.loc 5 79 17 view .LVU1439
 5248              	.LBB858:
  79:../libDaisy/src/hid/switch.h **** 
 5249              		.loc 5 79 35 view .LVU1440
  79:../libDaisy/src/hid/switch.h **** 
 5250              		.loc 5 79 35 is_stmt 0 view .LVU1441
 5251              	.LBE858:
 5252              	.LBE859:
 5253              		.loc 5 90 26 view .LVU1442
 5254 00de 94F8BA30 		ldrb	r3, [r4, #186]	@ zero_extendqisi2
 5255 00e2 FF2B     		cmp	r3, #255
 5256 00e4 B1D0     		beq	.L367
 5257              	.LVL394:
 5258              	.L323:
 5259              		.loc 5 90 26 view .LVU1443
 5260              	.LBE861:
 5261              	.LBE863:
 5262              	.LBE865:
 5263              	.LBE1004:
  47:UIManager.cpp ****     HandleButton2LongPress();
 5264              		.loc 1 47 3 is_stmt 1 view .LVU1444
 5265              	.LBB1005:
 261:UIManager.cpp ****   return pod_.button2.TimeHeldMs() > 1000.0f;
 5266              		.loc 1 261 6 view .LVU1445
 5267              	.LBB916:
 262:UIManager.cpp **** }
 5268              		.loc 1 262 3 view .LVU1446
 5269              	.LBB913:
  88:../libDaisy/src/hid/switch.h ****     {
 5270              		.loc 5 88 18 view .LVU1447
 5271              	.LBB911:
 5272              		.loc 5 90 9 view .LVU1448
 5273              	.LBB909:
  79:../libDaisy/src/hid/switch.h **** 
 5274              		.loc 5 79 17 view .LVU1449
 5275              	.LBB908:
  79:../libDaisy/src/hid/switch.h **** 
 5276              		.loc 5 79 35 view .LVU1450
  79:../libDaisy/src/hid/switch.h **** 
 5277              		.loc 5 79 35 is_stmt 0 view .LVU1451
 5278              	.LBE908:
 5279              	.LBE909:
 5280              		.loc 5 90 26 view .LVU1452
 5281 00e6 94F8CA30 		ldrb	r3, [r4, #202]	@ zero_extendqisi2
 5282 00ea FF2B     		cmp	r3, #255
 5283 00ec C6D0     		beq	.L409
 5284              	.LVL395:
 5285              	.L349:
 5286              		.loc 5 90 26 view .LVU1453
 5287              	.LBE911:
ARM GAS  /var/folders/2p/02m_5p7958535cp2tpgps0400000gn/T//ccA97qDZ.s 			page 131


 5288              	.LBE913:
 5289              	.LBE916:
 5290              	.LBE1005:
  50:UIManager.cpp ****     HandleEncoderPressed();
 5291              		.loc 1 50 3 is_stmt 1 view .LVU1454
 5292              	.LBB1006:
 241:UIManager.cpp ****   return pod_.encoder.FallingEdge();
 5293              		.loc 1 241 6 view .LVU1455
 5294              	.LBB965:
 242:UIManager.cpp **** }
 5295              		.loc 1 242 3 view .LVU1456
 5296              	.LBB961:
  42:../libDaisy/src/hid/encoder.h **** 
 5297              		.loc 4 42 17 view .LVU1457
 5298              	.LBE961:
 5299              	.LBE965:
 5300              	.LBE1006:
  42:../libDaisy/src/hid/encoder.h **** 
 5301              		.loc 4 42 39 view .LVU1458
 5302              	.LBB1007:
 5303              	.LBB966:
 5304              	.LBB962:
 5305              	.LBB959:
  73:../libDaisy/src/hid/switch.h ****     {
 5306              		.loc 5 73 17 view .LVU1459
 5307              	.LBB958:
  75:../libDaisy/src/hid/switch.h ****     }
 5308              		.loc 5 75 9 view .LVU1460
  75:../libDaisy/src/hid/switch.h ****     }
 5309              		.loc 5 75 25 is_stmt 0 view .LVU1461
 5310 00ee 94F84C30 		ldrb	r3, [r4, #76]	@ zero_extendqisi2
 5311 00f2 002B     		cmp	r3, #0
 5312 00f4 DAD0     		beq	.L356
 5313              	.LVL396:
 5314              	.L407:
  75:../libDaisy/src/hid/switch.h ****     }
 5315              		.loc 5 75 27 view .LVU1462
 5316 00f6 94F85230 		ldrb	r3, [r4, #82]	@ zero_extendqisi2
 5317              	.LVL397:
  75:../libDaisy/src/hid/switch.h ****     }
 5318              		.loc 5 75 27 view .LVU1463
 5319              	.LBE958:
 5320              	.LBE959:
 5321              	.LBE962:
 5322              	.LBE966:
 5323              	.LBE1007:
  50:UIManager.cpp ****     HandleEncoderPressed();
 5324              		.loc 1 50 3 view .LVU1464
 5325 00fa 802B     		cmp	r3, #128
 5326 00fc D8D1     		bne	.L357
  51:UIManager.cpp ****   }
 5327              		.loc 1 51 5 is_stmt 1 view .LVU1465
 5328              	.LVL398:
 5329              	.LBB1008:
 5330              	.LBI1008:
 107:UIManager.cpp ****   switch(current_state_){
 5331              		.loc 1 107 6 view .LVU1466
ARM GAS  /var/folders/2p/02m_5p7958535cp2tpgps0400000gn/T//ccA97qDZ.s 			page 132


 5332              	.LBB1009:
 108:UIManager.cpp ****     case AppState::SelectFile:
 5333              		.loc 1 108 3 view .LVU1467
 108:UIManager.cpp ****     case AppState::SelectFile:
 5334              		.loc 1 108 10 is_stmt 0 view .LVU1468
 5335 00fe 6B68     		ldr	r3, [r5, #4]
 108:UIManager.cpp ****     case AppState::SelectFile:
 5336              		.loc 1 108 3 view .LVU1469
 5337 0100 022B     		cmp	r3, #2
 5338 0102 23DC     		bgt	.L358
 5339 0104 002B     		cmp	r3, #0
 5340 0106 D5DD     		ble	.L360
 113:UIManager.cpp ****       current_state_ = AppState::Synthesis;
 5341              		.loc 1 113 5 is_stmt 1 view .LVU1470
 114:UIManager.cpp ****       break;
 5342              		.loc 1 114 7 view .LVU1471
 114:UIManager.cpp ****       break;
 5343              		.loc 1 114 22 is_stmt 0 view .LVU1472
 5344 0108 0323     		movs	r3, #3
 5345 010a 6B60     		str	r3, [r5, #4]
 115:UIManager.cpp ****     default:
 5346              		.loc 1 115 7 is_stmt 1 view .LVU1473
 5347              	.LVL399:
 115:UIManager.cpp ****     default:
 5348              		.loc 1 115 7 is_stmt 0 view .LVU1474
 5349              	.LBE1009:
 5350              	.LBE1008:
  53:UIManager.cpp ****     HandleEncoderLongPress();
 5351              		.loc 1 53 3 is_stmt 1 view .LVU1475
 5352              	.LBB1011:
 245:UIManager.cpp ****   return pod_.encoder.TimeHeldMs() > 1000.0f;
 5353              		.loc 1 245 6 view .LVU1476
 5354              	.LBE1011:
 246:UIManager.cpp **** }
 5355              		.loc 1 246 3 view .LVU1477
 5356              	.LBB1012:
 5357              	.LBB985:
 5358              		.loc 4 48 18 view .LVU1478
 5359              	.LBE985:
 5360              	.LBE1012:
 5361              		.loc 4 48 39 view .LVU1479
 5362              	.LBB1013:
 5363              	.LBB986:
 5364              	.LBB979:
  88:../libDaisy/src/hid/switch.h ****     {
 5365              		.loc 5 88 18 view .LVU1480
 5366              	.LBB974:
 5367              		.loc 5 90 9 view .LVU1481
 5368              		.loc 5 90 9 is_stmt 0 view .LVU1482
 5369              	.LBE974:
 5370              	.LBE979:
 5371              	.LBE986:
 5372              	.LBE1013:
  79:../libDaisy/src/hid/switch.h **** 
 5373              		.loc 5 79 35 is_stmt 1 view .LVU1483
  79:../libDaisy/src/hid/switch.h **** 
 5374              		.loc 5 79 35 is_stmt 0 view .LVU1484
ARM GAS  /var/folders/2p/02m_5p7958535cp2tpgps0400000gn/T//ccA97qDZ.s 			page 133


 5375 010c D2E7     		b	.L360
 5376              	.L408:
 5377              	.LBB1014:
 5378              	.LBB987:
 5379              	.LBB980:
 5380              	.LBB975:
 5381              		.loc 5 90 42 view .LVU1485
 5382 010e FFF7FEFF 		bl	_ZN5daisy6System6GetNowEv
 5383              	.LVL400:
 5384              		.loc 5 90 45 view .LVU1486
 5385 0112 07EE900A 		vmov	s15, r0	@ int
 5386              		.loc 5 90 26 view .LVU1487
 5387 0116 D4ED156A 		vldr.32	s13, [r4, #84]
 5388              		.loc 5 90 45 view .LVU1488
 5389 011a F8EE677A 		vcvt.f32.u32	s15, s15
 5390              	.LBE975:
 5391              	.LBE980:
 5392              	.LBE987:
 5393              	.LBE1014:
  53:UIManager.cpp ****     HandleEncoderLongPress();
 5394              		.loc 1 53 3 view .LVU1489
 5395 011e 9FED687A 		vldr.32	s14, .L415
 5396              	.LBB1015:
 5397              	.LBB988:
 5398              	.LBB981:
 5399              	.LBB976:
 5400              		.loc 5 90 26 view .LVU1490
 5401 0122 77EEE67A 		vsub.f32	s15, s15, s13
 5402              	.LBE976:
 5403              	.LBE981:
 5404              	.LBE988:
 5405              	.LBE1015:
  53:UIManager.cpp ****     HandleEncoderLongPress();
 5406              		.loc 1 53 3 view .LVU1491
 5407 0126 F4EEC77A 		vcmpe.f32	s15, s14
 5408 012a F1EE10FA 		vmrs	APSR_nzcv, FPSCR
 5409 012e 0BDD     		ble	.L364
  54:UIManager.cpp ****   }
 5410              		.loc 1 54 5 is_stmt 1 view .LVU1492
 5411              	.LVL401:
 5412              	.LBB1016:
 5413              	.LBI1016:
 121:UIManager.cpp ****   switch (current_state_){
 5414              		.loc 1 121 6 view .LVU1493
 5415              	.LBB1017:
 122:UIManager.cpp ****      /* exit synthesis mode, return to file selection */
 5416              		.loc 1 122 3 view .LVU1494
 122:UIManager.cpp ****      /* exit synthesis mode, return to file selection */
 5417              		.loc 1 122 11 is_stmt 0 view .LVU1495
 5418 0130 6B68     		ldr	r3, [r5, #4]
 122:UIManager.cpp ****      /* exit synthesis mode, return to file selection */
 5419              		.loc 1 122 3 view .LVU1496
 5420 0132 022B     		cmp	r3, #2
 5421 0134 06DD     		ble	.L410
 5422 0136 033B     		subs	r3, r3, #3
 5423 0138 012B     		cmp	r3, #1
 5424 013a 05D8     		bhi	.L364
ARM GAS  /var/folders/2p/02m_5p7958535cp2tpgps0400000gn/T//ccA97qDZ.s 			page 134


 124:UIManager.cpp ****       current_state_ = AppState::SelectFile;
 5425              		.loc 1 124 5 is_stmt 1 view .LVU1497
 125:UIManager.cpp ****       // StartLedPulse();
 5426              		.loc 1 125 7 view .LVU1498
 125:UIManager.cpp ****       // StartLedPulse();
 5427              		.loc 1 125 22 is_stmt 0 view .LVU1499
 5428 013c 0123     		movs	r3, #1
 5429              	.LBE1017:
 5430              	.LBE1016:
 5431              	.LBB1021:
 5432              	.LBB998:
 238:UIManager.cpp **** }
 5433              		.loc 1 238 10 view .LVU1500
 5434 013e 2C68     		ldr	r4, [r5]
 5435              	.LBE998:
 5436              	.LBE1021:
 5437              	.LBB1022:
 5438              	.LBB1018:
 125:UIManager.cpp ****       // StartLedPulse();
 5439              		.loc 1 125 22 view .LVU1501
 5440 0140 6B60     		str	r3, [r5, #4]
 127:UIManager.cpp ****       /* enter RecordIn mode */
 5441              		.loc 1 127 7 is_stmt 1 view .LVU1502
 5442 0142 B7E7     		b	.L360
 5443              	.L410:
 122:UIManager.cpp ****      /* exit synthesis mode, return to file selection */
 5444              		.loc 1 122 3 is_stmt 0 view .LVU1503
 5445 0144 002B     		cmp	r3, #0
 5446 0146 2CDC     		bgt	.L411
 5447              	.LVL402:
 5448              	.L364:
 122:UIManager.cpp ****      /* exit synthesis mode, return to file selection */
 5449              		.loc 1 122 3 view .LVU1504
 5450              	.LBE1018:
 5451              	.LBE1022:
 5452              	.LBB1023:
 5453              	.LBB999:
 238:UIManager.cpp **** }
 5454              		.loc 1 238 10 view .LVU1505
 5455 0148 2C68     		ldr	r4, [r5]
 5456 014a B3E7     		b	.L360
 5457              	.LVL403:
 5458              	.L358:
 238:UIManager.cpp **** }
 5459              		.loc 1 238 10 view .LVU1506
 5460              	.LBE999:
 5461              	.LBE1023:
 5462              	.LBB1024:
 5463              	.LBB1010:
 108:UIManager.cpp ****     case AppState::SelectFile:
 5464              		.loc 1 108 3 view .LVU1507
 5465 014c 042B     		cmp	r3, #4
 5466 014e B1D1     		bne	.L360
 113:UIManager.cpp ****       current_state_ = AppState::Synthesis;
 5467              		.loc 1 113 5 is_stmt 1 view .LVU1508
 114:UIManager.cpp ****       break;
 5468              		.loc 1 114 7 view .LVU1509
ARM GAS  /var/folders/2p/02m_5p7958535cp2tpgps0400000gn/T//ccA97qDZ.s 			page 135


 114:UIManager.cpp ****       break;
 5469              		.loc 1 114 22 is_stmt 0 view .LVU1510
 5470 0150 0323     		movs	r3, #3
 5471 0152 6B60     		str	r3, [r5, #4]
 115:UIManager.cpp ****     default:
 5472              		.loc 1 115 7 is_stmt 1 view .LVU1511
 5473              	.LVL404:
 115:UIManager.cpp ****     default:
 5474              		.loc 1 115 7 is_stmt 0 view .LVU1512
 5475              	.LBE1010:
 5476              	.LBE1024:
  53:UIManager.cpp ****     HandleEncoderLongPress();
 5477              		.loc 1 53 3 is_stmt 1 view .LVU1513
 5478              	.LBB1025:
 245:UIManager.cpp ****   return pod_.encoder.TimeHeldMs() > 1000.0f;
 5479              		.loc 1 245 6 view .LVU1514
 5480              	.LBE1025:
 246:UIManager.cpp **** }
 5481              		.loc 1 246 3 view .LVU1515
 5482              	.LBB1026:
 5483              	.LBB989:
 5484              		.loc 4 48 18 view .LVU1516
 5485              	.LBE989:
 5486              	.LBE1026:
 5487              		.loc 4 48 39 view .LVU1517
 5488              	.LBB1027:
 5489              	.LBB990:
 5490              	.LBB982:
  88:../libDaisy/src/hid/switch.h ****     {
 5491              		.loc 5 88 18 view .LVU1518
 5492              	.LBB977:
 5493              		.loc 5 90 9 view .LVU1519
 5494              		.loc 5 90 9 is_stmt 0 view .LVU1520
 5495              	.LBE977:
 5496              	.LBE982:
 5497              	.LBE990:
 5498              	.LBE1027:
  79:../libDaisy/src/hid/switch.h **** 
 5499              		.loc 5 79 35 is_stmt 1 view .LVU1521
  79:../libDaisy/src/hid/switch.h **** 
 5500              		.loc 5 79 35 is_stmt 0 view .LVU1522
 5501 0154 AEE7     		b	.L360
 5502              	.LVL405:
 5503              	.L406:
 5504              	.LBB1028:
 5505              	.LBB947:
 5506              	.LBB921:
 5507              	.LBI921:
 100:UIManager.cpp ****   if (current_state_ == AppState::Synthesis){
 5508              		.loc 1 100 6 is_stmt 1 view .LVU1523
 5509              	.LBE921:
 5510              	.LBE947:
 5511              	.LBE1028:
 102:UIManager.cpp ****     SetLedFXMode();
 5512              		.loc 1 102 5 view .LVU1524
 5513              	.LBB1029:
 5514              	.LBB948:
ARM GAS  /var/folders/2p/02m_5p7958535cp2tpgps0400000gn/T//ccA97qDZ.s 			page 136


 5515              	.LBB942:
 5516              	.LBB922:
 5517              	.LBI922:
 214:UIManager.cpp ****   if (current_synth_mode_==SynthMode::Filter){
 5518              		.loc 1 214 6 view .LVU1525
 5519              	.LBB923:
 215:UIManager.cpp ****     current_synth_mode_ = prev_synth_mode_;
 5520              		.loc 1 215 3 view .LVU1526
 215:UIManager.cpp ****     current_synth_mode_ = prev_synth_mode_;
 5521              		.loc 1 215 7 is_stmt 0 view .LVU1527
 5522 0156 AB68     		ldr	r3, [r5, #8]
 215:UIManager.cpp ****     current_synth_mode_ = prev_synth_mode_;
 5523              		.loc 1 215 3 view .LVU1528
 5524 0158 082B     		cmp	r3, #8
 5525 015a 4FD0     		beq	.L412
 219:UIManager.cpp ****     current_synth_mode_ = SynthMode::Filter;
 5526              		.loc 1 219 5 is_stmt 1 view .LVU1529
 5527 015c 0822     		movs	r2, #8
 219:UIManager.cpp ****     current_synth_mode_ = SynthMode::Filter;
 5528              		.loc 1 219 22 is_stmt 0 view .LVU1530
 5529 015e 2B61     		str	r3, [r5, #16]
 220:UIManager.cpp ****   }
 5530              		.loc 1 220 5 is_stmt 1 view .LVU1531
 5531 0160 AA60     		str	r2, [r5, #8]
 5532              	.LVL406:
 220:UIManager.cpp ****   }
 5533              		.loc 1 220 5 is_stmt 0 view .LVU1532
 5534              	.LBE923:
 5535              	.LBE922:
 5536              	.LBE942:
 5537              	.LBE948:
 5538              	.LBE1029:
 103:UIManager.cpp ****   }
 5539              		.loc 1 103 5 is_stmt 1 view .LVU1533
 5540              	.LBB1030:
 5541              	.LBB949:
 5542              	.LBB943:
 5543              	.LBB925:
 5544              	.LBI925:
 407:UIManager.cpp ****   if (current_state_ == AppState::Synthesis){
 5545              		.loc 1 407 6 view .LVU1534
 5546              	.LBB926:
 408:UIManager.cpp ****     switch(current_synth_mode_){
 5547              		.loc 1 408 3 view .LVU1535
 409:UIManager.cpp ****       case SynthMode::Reverb:
 5548              		.loc 1 409 5 view .LVU1536
 5549              	.L355:
 414:UIManager.cpp ****         /* set led 2 to yellow */
 5550              		.loc 1 414 7 view .LVU1537
 416:UIManager.cpp ****         break;
 5551              		.loc 1 416 9 view .LVU1538
 5552              	.LBB927:
 5553              	.LBI927:
 435:UIManager.cpp ****   if (is_Led1){
 5554              		.loc 1 435 6 view .LVU1539
 5555              	.LBB928:
 436:UIManager.cpp ****     pod_.led1.Set(r,g,b);
ARM GAS  /var/folders/2p/02m_5p7958535cp2tpgps0400000gn/T//ccA97qDZ.s 			page 137


 5556              		.loc 1 436 3 view .LVU1540
 440:UIManager.cpp ****   }
 5557              		.loc 1 440 5 view .LVU1541
 440:UIManager.cpp ****   }
 5558              		.loc 1 440 18 is_stmt 0 view .LVU1542
 5559 0162 DFED580A 		vldr.32	s1, .L415+4
 5560 0166 2868     		ldr	r0, [r5]
 5561 0168 B0EE600A 		vmov.f32	s0, s1
 5562 016c 9FED561A 		vldr.32	s2, .L415+8
 5563 0170 4FE0     		b	.L403
 5564              	.LVL407:
 5565              	.L405:
 440:UIManager.cpp ****   }
 5566              		.loc 1 440 18 view .LVU1543
 5567              	.LBE928:
 5568              	.LBE927:
 5569              	.LBE926:
 5570              	.LBE925:
 5571              	.LBE943:
 5572              	.LBE949:
 5573              	.LBE1030:
 5574              	.LBB1031:
 5575              	.LBB896:
 5576              	.LBB870:
 5577              	.LBI870:
  93:UIManager.cpp ****   if (current_state_ == AppState::Synthesis){
 5578              		.loc 1 93 6 is_stmt 1 view .LVU1544
 5579              	.LBE870:
 5580              	.LBE896:
 5581              	.LBE1031:
  95:UIManager.cpp ****     SetLedFXMode();
 5582              		.loc 1 95 5 view .LVU1545
 5583              	.LBB1032:
 5584              	.LBB897:
 5585              	.LBB891:
 5586              	.LBB871:
 5587              	.LBI871:
 204:UIManager.cpp ****   if (current_synth_mode_==SynthMode::Reverb){
 5588              		.loc 1 204 6 view .LVU1546
 5589              	.LBB872:
 205:UIManager.cpp ****     current_synth_mode_ = prev_synth_mode_;
 5590              		.loc 1 205 3 view .LVU1547
 205:UIManager.cpp ****     current_synth_mode_ = prev_synth_mode_;
 5591              		.loc 1 205 7 is_stmt 0 view .LVU1548
 5592 0172 AB68     		ldr	r3, [r5, #8]
 205:UIManager.cpp ****     current_synth_mode_ = prev_synth_mode_;
 5593              		.loc 1 205 3 view .LVU1549
 5594 0174 072B     		cmp	r3, #7
 5595 0176 5BD0     		beq	.L413
 209:UIManager.cpp ****     current_synth_mode_ = SynthMode::Reverb;
 5596              		.loc 1 209 5 is_stmt 1 view .LVU1550
 5597 0178 0722     		movs	r2, #7
 209:UIManager.cpp ****     current_synth_mode_ = SynthMode::Reverb;
 5598              		.loc 1 209 22 is_stmt 0 view .LVU1551
 5599 017a 2B61     		str	r3, [r5, #16]
 210:UIManager.cpp ****   }
 5600              		.loc 1 210 5 is_stmt 1 view .LVU1552
ARM GAS  /var/folders/2p/02m_5p7958535cp2tpgps0400000gn/T//ccA97qDZ.s 			page 138


 5601 017c AA60     		str	r2, [r5, #8]
 5602              	.LVL408:
 210:UIManager.cpp ****   }
 5603              		.loc 1 210 5 is_stmt 0 view .LVU1553
 5604              	.LBE872:
 5605              	.LBE871:
 5606              	.LBE891:
 5607              	.LBE897:
 5608              	.LBE1032:
  96:UIManager.cpp ****   }
 5609              		.loc 1 96 5 is_stmt 1 view .LVU1554
 5610              	.LBB1033:
 5611              	.LBB898:
 5612              	.LBB892:
 5613              	.LBB874:
 5614              	.LBI874:
 407:UIManager.cpp ****   if (current_state_ == AppState::Synthesis){
 5615              		.loc 1 407 6 view .LVU1555
 5616              	.LBB875:
 408:UIManager.cpp ****     switch(current_synth_mode_){
 5617              		.loc 1 408 3 view .LVU1556
 409:UIManager.cpp ****       case SynthMode::Reverb:
 5618              		.loc 1 409 5 view .LVU1557
 5619              	.L346:
 5620              	.LBB876:
 5621              	.LBI876:
 407:UIManager.cpp ****   if (current_state_ == AppState::Synthesis){
 5622              		.loc 1 407 6 view .LVU1558
 5623              	.LBE876:
 5624              	.LBE875:
 5625              	.LBE874:
 5626              	.LBE892:
 5627              	.LBE898:
 5628              	.LBE1033:
 410:UIManager.cpp ****         /* set led 2 to cyan */
 5629              		.loc 1 410 7 view .LVU1559
 412:UIManager.cpp ****         break;
 5630              		.loc 1 412 9 view .LVU1560
 5631              	.LBB1034:
 5632              	.LBB899:
 5633              	.LBB893:
 5634              	.LBB887:
 5635              	.LBB884:
 5636              	.LBB879:
 5637              	.LBB877:
 5638              	.LBI877:
 435:UIManager.cpp ****   if (is_Led1){
 5639              		.loc 1 435 6 view .LVU1561
 5640              	.LBB878:
 436:UIManager.cpp ****     pod_.led1.Set(r,g,b);
 5641              		.loc 1 436 3 view .LVU1562
 440:UIManager.cpp ****   }
 5642              		.loc 1 440 5 view .LVU1563
 440:UIManager.cpp ****   }
 5643              		.loc 1 440 18 is_stmt 0 view .LVU1564
 5644 017e 9FED511A 		vldr.32	s2, .L415+4
 5645 0182 2868     		ldr	r0, [r5]
ARM GAS  /var/folders/2p/02m_5p7958535cp2tpgps0400000gn/T//ccA97qDZ.s 			page 139


 5646 0184 F0EE410A 		vmov.f32	s1, s2
 5647 0188 9FED4F0A 		vldr.32	s0, .L415+8
 5648              	.LVL409:
 5649              	.L401:
 440:UIManager.cpp ****   }
 5650              		.loc 1 440 18 view .LVU1565
 5651              	.LBE878:
 5652              	.LBE877:
 5653              	.LBE879:
 5654              	.LBB880:
 5655              	.LBB881:
 5656 018c 00F59670 		add	r0, r0, #300
 5657 0190 FFF7FEFF 		bl	_ZN5daisy6RgbLed3SetEfff
 5658              	.LVL410:
 442:UIManager.cpp ****   System::Delay(10);
 5659              		.loc 1 442 3 is_stmt 1 view .LVU1566
 442:UIManager.cpp ****   System::Delay(10);
 5660              		.loc 1 442 18 is_stmt 0 view .LVU1567
 5661 0194 2868     		ldr	r0, [r5]
 5662 0196 FFF7FEFF 		bl	_ZN5daisy8DaisyPod10UpdateLedsEv
 5663              	.LVL411:
 443:UIManager.cpp **** }
 5664              		.loc 1 443 3 is_stmt 1 view .LVU1568
 443:UIManager.cpp **** }
 5665              		.loc 1 443 16 is_stmt 0 view .LVU1569
 5666 019a 0A20     		movs	r0, #10
 5667 019c FFF7FEFF 		bl	_ZN5daisy6System5DelayEm
 5668              	.LVL412:
 5669 01a0 67E7     		b	.L400
 5670              	.LVL413:
 5671              	.L411:
 443:UIManager.cpp **** }
 5672              		.loc 1 443 16 view .LVU1570
 5673              	.LBE881:
 5674              	.LBE880:
 5675              	.LBE884:
 5676              	.LBE887:
 5677              	.LBE893:
 5678              	.LBE899:
 5679              	.LBE1034:
 5680              	.LBB1035:
 5681              	.LBB1019:
 129:UIManager.cpp ****     case AppState::PlayWAV:
 5682              		.loc 1 129 5 is_stmt 1 view .LVU1571
 130:UIManager.cpp ****       current_state_ = AppState::RecordIn;
 5683              		.loc 1 130 5 view .LVU1572
 131:UIManager.cpp ****       break;
 5684              		.loc 1 131 7 view .LVU1573
 131:UIManager.cpp ****       break;
 5685              		.loc 1 131 22 is_stmt 0 view .LVU1574
 5686 01a2 0423     		movs	r3, #4
 5687              	.LBE1019:
 5688              	.LBE1035:
 5689              	.LBB1036:
 5690              	.LBB1000:
 238:UIManager.cpp **** }
 5691              		.loc 1 238 10 view .LVU1575
ARM GAS  /var/folders/2p/02m_5p7958535cp2tpgps0400000gn/T//ccA97qDZ.s 			page 140


 5692 01a4 2C68     		ldr	r4, [r5]
 5693              	.LBE1000:
 5694              	.LBE1036:
 5695              	.LBB1037:
 5696              	.LBB1020:
 131:UIManager.cpp ****       break;
 5697              		.loc 1 131 22 view .LVU1576
 5698 01a6 6B60     		str	r3, [r5, #4]
 132:UIManager.cpp ****     case AppState::RecordIn:
 5699              		.loc 1 132 7 is_stmt 1 view .LVU1577
 5700 01a8 84E7     		b	.L360
 5701              	.LVL414:
 5702              	.L320:
 132:UIManager.cpp ****     case AppState::RecordIn:
 5703              		.loc 1 132 7 is_stmt 0 view .LVU1578
 5704              	.LBE1020:
 5705              	.LBE1037:
 5706              	.LBB1038:
 5707              	.LBB792:
 5708              	.LBB789:
 5709              	.LBI779:
  63:UIManager.cpp ****   switch(current_state_){
 5710              		.loc 1 63 6 is_stmt 1 view .LVU1579
 5711              	.LBB787:
  77:UIManager.cpp ****       UpdateSynthMode();
 5712              		.loc 1 77 5 view .LVU1580
  78:UIManager.cpp ****       DebugPrintSynthMode();
 5713              		.loc 1 78 7 view .LVU1581
 5714              	.LBB785:
 5715              	.LBI781:
 157:UIManager.cpp ****   switch(current_synth_mode_){
 5716              		.loc 1 157 6 view .LVU1582
 5717              	.LBB783:
 158:UIManager.cpp ****     case SynthMode::Size_Position:
 5718              		.loc 1 158 3 view .LVU1583
 5719 01aa AB68     		ldr	r3, [r5, #8]
 5720 01ac 062B     		cmp	r3, #6
 5721 01ae 8ED8     		bhi	.L324
 5722 01b0 01A2     		adr	r2, .L326
 5723 01b2 52F823F0 		ldr	pc, [r2, r3, lsl #2]
 5724 01b6 00BF     		.p2align 2
 5725              	.L326:
 5726 01b8 55020000 		.word	.L329+1
 5727 01bc 4F020000 		.word	.L328+1
 5728 01c0 5B020000 		.word	.L327+1
 5729 01c4 CF000000 		.word	.L324+1
 5730 01c8 CF000000 		.word	.L324+1
 5731 01cc CF000000 		.word	.L324+1
 5732 01d0 CB000000 		.word	.L325+1
 5733              	.LVL415:
 5734              		.p2align 1
 5735              	.L319:
 158:UIManager.cpp ****     case SynthMode::Size_Position:
 5736              		.loc 1 158 3 is_stmt 0 view .LVU1584
 5737              	.LBE783:
 5738              	.LBE785:
 5739              	.LBE787:
ARM GAS  /var/folders/2p/02m_5p7958535cp2tpgps0400000gn/T//ccA97qDZ.s 			page 141


 5740              	.LBE789:
  65:UIManager.cpp ****       current_state_ = AppState::SelectFile; 
 5741              		.loc 1 65 5 is_stmt 1 view .LVU1585
  66:UIManager.cpp ****       break;
 5742              		.loc 1 66 7 view .LVU1586
  66:UIManager.cpp ****       break;
 5743              		.loc 1 66 22 is_stmt 0 view .LVU1587
 5744 01d4 0122     		movs	r2, #1
 5745              	.LBE792:
 5746              	.LBE1038:
 5747              	.LBB1039:
 5748              	.LBB807:
 5749              	.LBB803:
 5750              	.LBB800:
  75:../libDaisy/src/hid/switch.h ****     }
 5751              		.loc 5 75 25 view .LVU1588
 5752 01d6 94F8C430 		ldrb	r3, [r4, #196]	@ zero_extendqisi2
 5753              	.LBE800:
 5754              	.LBE803:
 5755              	.LBE807:
 5756              	.LBE1039:
 5757              	.LBB1040:
 5758              	.LBB793:
  66:UIManager.cpp ****       break;
 5759              		.loc 1 66 22 view .LVU1589
 5760 01da 6A60     		str	r2, [r5, #4]
  67:UIManager.cpp ****     // case AppState::SelectFile:
 5761              		.loc 1 67 7 is_stmt 1 view .LVU1590
 5762              	.LVL416:
  67:UIManager.cpp ****     // case AppState::SelectFile:
 5763              		.loc 1 67 7 is_stmt 0 view .LVU1591
 5764              	.LBE793:
 5765              	.LBE1040:
  41:UIManager.cpp ****     HandleButton2();
 5766              		.loc 1 41 3 is_stmt 1 view .LVU1592
 5767              	.LBB1041:
 257:UIManager.cpp ****   return pod_.button2.FallingEdge();
 5768              		.loc 1 257 6 view .LVU1593
 5769              	.LBB808:
 258:UIManager.cpp **** }
 5770              		.loc 1 258 3 view .LVU1594
 5771              	.LBB804:
  73:../libDaisy/src/hid/switch.h ****     {
 5772              		.loc 5 73 17 view .LVU1595
 5773              	.LBB801:
  75:../libDaisy/src/hid/switch.h ****     }
 5774              		.loc 5 75 9 view .LVU1596
  75:../libDaisy/src/hid/switch.h ****     }
 5775              		.loc 5 75 25 is_stmt 0 view .LVU1597
 5776 01dc 002B     		cmp	r3, #0
 5777 01de 82D0     		beq	.L323
 5778              	.LVL417:
  75:../libDaisy/src/hid/switch.h ****     }
 5779              		.loc 5 75 25 view .LVU1598
 5780              	.LBE801:
 5781              	.LBE804:
 5782              	.LBE808:
ARM GAS  /var/folders/2p/02m_5p7958535cp2tpgps0400000gn/T//ccA97qDZ.s 			page 142


 5783              	.LBE1041:
  41:UIManager.cpp ****     HandleButton2();
 5784              		.loc 1 41 3 view .LVU1599
 5785 01e0 94F8CA30 		ldrb	r3, [r4, #202]	@ zero_extendqisi2
 5786 01e4 802B     		cmp	r3, #128
 5787 01e6 7FF47AAF 		bne	.L330
 5788 01ea 2AE7     		b	.L342
 5789              	.LVL418:
 5790              	.L404:
 5791              	.LBB1042:
 5792              	.LBB845:
 5793              	.LBB811:
 5794              	.LBI811:
  86:UIManager.cpp ****     if (current_state_ == AppState::Synthesis){
 5795              		.loc 1 86 6 is_stmt 1 view .LVU1600
 5796              	.LBE811:
 5797              	.LBE845:
 5798              	.LBE1042:
  88:UIManager.cpp ****       SetLedRandomMode();
 5799              		.loc 1 88 7 view .LVU1601
 5800              	.LBB1043:
 5801              	.LBB846:
 5802              	.LBB839:
 5803              	.LBB812:
 5804              	.LBI812:
 179:UIManager.cpp ****   switch(current_synth_mode_){
 5805              		.loc 1 179 6 view .LVU1602
 5806              	.LBB813:
 180:UIManager.cpp ****     case SynthMode::Size_Position:
 5807              		.loc 1 180 3 view .LVU1603
 180:UIManager.cpp ****     case SynthMode::Size_Position:
 5808              		.loc 1 180 10 is_stmt 0 view .LVU1604
 5809 01ec AB68     		ldr	r3, [r5, #8]
 180:UIManager.cpp ****     case SynthMode::Size_Position:
 5810              		.loc 1 180 3 view .LVU1605
 5811 01ee 052B     		cmp	r3, #5
 5812 01f0 61D8     		bhi	.L332
 5813 01f2 DFE803F0 		tbb	[pc, r3]
 5814              	.L334:
 5815 01f6 5D       		.byte	(.L339-.L334)/2
 5816 01f7 5A       		.byte	(.L338-.L334)/2
 5817 01f8 4F       		.byte	(.L337-.L334)/2
 5818 01f9 4C       		.byte	(.L336-.L334)/2
 5819 01fa 49       		.byte	(.L335-.L334)/2
 5820 01fb 35       		.byte	(.L333-.L334)/2
 5821              	.LVL419:
 5822              		.p2align 1
 5823              	.L412:
 180:UIManager.cpp ****     case SynthMode::Size_Position:
 5824              		.loc 1 180 3 view .LVU1606
 5825              	.LBE813:
 5826              	.LBE812:
 5827              	.LBE839:
 5828              	.LBE846:
 5829              	.LBE1043:
 5830              	.LBB1044:
 5831              	.LBB950:
ARM GAS  /var/folders/2p/02m_5p7958535cp2tpgps0400000gn/T//ccA97qDZ.s 			page 143


 5832              	.LBB944:
 5833              	.LBB938:
 5834              	.LBB924:
 216:UIManager.cpp ****   }
 5835              		.loc 1 216 5 is_stmt 1 view .LVU1607
 216:UIManager.cpp ****   }
 5836              		.loc 1 216 27 is_stmt 0 view .LVU1608
 5837 01fc 2B69     		ldr	r3, [r5, #16]
 5838              	.LBE924:
 5839              	.LBE938:
 5840              	.LBB939:
 5841              	.LBB935:
 409:UIManager.cpp ****       case SynthMode::Reverb:
 5842              		.loc 1 409 5 view .LVU1609
 5843 01fe 072B     		cmp	r3, #7
 5844 0200 AB60     		str	r3, [r5, #8]
 5845              	.LVL420:
 409:UIManager.cpp ****       case SynthMode::Reverb:
 5846              		.loc 1 409 5 view .LVU1610
 5847              	.LBE935:
 5848              	.LBE939:
 5849              	.LBE944:
 5850              	.LBE950:
 5851              	.LBE1044:
 103:UIManager.cpp ****   }
 5852              		.loc 1 103 5 is_stmt 1 view .LVU1611
 5853              	.LBB1045:
 5854              	.LBB951:
 5855              	.LBB945:
 5856              	.LBB940:
 407:UIManager.cpp ****   if (current_state_ == AppState::Synthesis){
 5857              		.loc 1 407 6 view .LVU1612
 5858              	.LBB936:
 408:UIManager.cpp ****     switch(current_synth_mode_){
 5859              		.loc 1 408 3 view .LVU1613
 409:UIManager.cpp ****       case SynthMode::Reverb:
 5860              		.loc 1 409 5 view .LVU1614
 5861 0202 11D1     		bne	.L414
 5862              	.LVL421:
 5863              	.LBB930:
 5864              	.LBI930:
 407:UIManager.cpp ****   if (current_state_ == AppState::Synthesis){
 5865              		.loc 1 407 6 view .LVU1615
 5866              	.LBE930:
 5867              	.LBE936:
 5868              	.LBE940:
 5869              	.LBE945:
 5870              	.LBE951:
 5871              	.LBE1045:
 410:UIManager.cpp ****         /* set led 2 to cyan */
 5872              		.loc 1 410 7 view .LVU1616
 412:UIManager.cpp ****         break;
 5873              		.loc 1 412 9 view .LVU1617
 5874              	.LBB1046:
 5875              	.LBB952:
 5876              	.LBB946:
 5877              	.LBB941:
ARM GAS  /var/folders/2p/02m_5p7958535cp2tpgps0400000gn/T//ccA97qDZ.s 			page 144


 5878              	.LBB937:
 5879              	.LBB933:
 5880              	.LBB931:
 5881              	.LBI931:
 435:UIManager.cpp ****   if (is_Led1){
 5882              		.loc 1 435 6 view .LVU1618
 5883              	.LBB932:
 436:UIManager.cpp ****     pod_.led1.Set(r,g,b);
 5884              		.loc 1 436 3 view .LVU1619
 440:UIManager.cpp ****   }
 5885              		.loc 1 440 5 view .LVU1620
 440:UIManager.cpp ****   }
 5886              		.loc 1 440 18 is_stmt 0 view .LVU1621
 5887 0204 9FED2F1A 		vldr.32	s2, .L415+4
 5888 0208 2868     		ldr	r0, [r5]
 5889 020a F0EE410A 		vmov.f32	s1, s2
 5890 020e 9FED2E0A 		vldr.32	s0, .L415+8
 5891              	.LVL422:
 5892              	.L403:
 440:UIManager.cpp ****   }
 5893              		.loc 1 440 18 view .LVU1622
 5894              	.LBE932:
 5895              	.LBE931:
 5896              	.LBE933:
 5897              	.LBB934:
 5898              	.LBB929:
 5899 0212 00F59670 		add	r0, r0, #300
 5900 0216 FFF7FEFF 		bl	_ZN5daisy6RgbLed3SetEfff
 5901              	.LVL423:
 442:UIManager.cpp ****   System::Delay(10);
 5902              		.loc 1 442 3 is_stmt 1 view .LVU1623
 442:UIManager.cpp ****   System::Delay(10);
 5903              		.loc 1 442 18 is_stmt 0 view .LVU1624
 5904 021a 2868     		ldr	r0, [r5]
 5905 021c FFF7FEFF 		bl	_ZN5daisy8DaisyPod10UpdateLedsEv
 5906              	.LVL424:
 443:UIManager.cpp **** }
 5907              		.loc 1 443 3 is_stmt 1 view .LVU1625
 443:UIManager.cpp **** }
 5908              		.loc 1 443 16 is_stmt 0 view .LVU1626
 5909 0220 0A20     		movs	r0, #10
 5910 0222 FFF7FEFF 		bl	_ZN5daisy6System5DelayEm
 5911              	.LVL425:
 5912 0226 3DE7     		b	.L402
 5913              	.L414:
 443:UIManager.cpp **** }
 5914              		.loc 1 443 16 view .LVU1627
 5915              	.LBE929:
 5916              	.LBE934:
 409:UIManager.cpp ****       case SynthMode::Reverb:
 5917              		.loc 1 409 5 view .LVU1628
 5918 0228 082B     		cmp	r3, #8
 5919 022a 7FF43BAF 		bne	.L402
 5920 022e 98E7     		b	.L355
 5921              	.LVL426:
 5922              	.L413:
 409:UIManager.cpp ****       case SynthMode::Reverb:
ARM GAS  /var/folders/2p/02m_5p7958535cp2tpgps0400000gn/T//ccA97qDZ.s 			page 145


 5923              		.loc 1 409 5 view .LVU1629
 5924              	.LBE937:
 5925              	.LBE941:
 5926              	.LBE946:
 5927              	.LBE952:
 5928              	.LBE1046:
 5929              	.LBB1047:
 5930              	.LBB900:
 5931              	.LBB894:
 5932              	.LBB888:
 5933              	.LBB873:
 206:UIManager.cpp ****   }
 5934              		.loc 1 206 5 is_stmt 1 view .LVU1630
 206:UIManager.cpp ****   }
 5935              		.loc 1 206 27 is_stmt 0 view .LVU1631
 5936 0230 2B69     		ldr	r3, [r5, #16]
 5937              	.LBE873:
 5938              	.LBE888:
 5939              	.LBB889:
 5940              	.LBB885:
 409:UIManager.cpp ****       case SynthMode::Reverb:
 5941              		.loc 1 409 5 view .LVU1632
 5942 0232 072B     		cmp	r3, #7
 5943 0234 AB60     		str	r3, [r5, #8]
 5944              	.LVL427:
 409:UIManager.cpp ****       case SynthMode::Reverb:
 5945              		.loc 1 409 5 view .LVU1633
 5946              	.LBE885:
 5947              	.LBE889:
 5948              	.LBE894:
 5949              	.LBE900:
 5950              	.LBE1047:
  96:UIManager.cpp ****   }
 5951              		.loc 1 96 5 is_stmt 1 view .LVU1634
 5952              	.LBB1048:
 5953              	.LBB901:
 5954              	.LBB895:
 5955              	.LBB890:
 407:UIManager.cpp ****   if (current_state_ == AppState::Synthesis){
 5956              		.loc 1 407 6 view .LVU1635
 5957              	.LBB886:
 408:UIManager.cpp ****     switch(current_synth_mode_){
 5958              		.loc 1 408 3 view .LVU1636
 409:UIManager.cpp ****       case SynthMode::Reverb:
 5959              		.loc 1 409 5 view .LVU1637
 5960 0236 A2D0     		beq	.L346
 5961 0238 082B     		cmp	r3, #8
 5962 023a 7FF41AAF 		bne	.L400
 414:UIManager.cpp ****         /* set led 2 to yellow */
 5963              		.loc 1 414 7 view .LVU1638
 416:UIManager.cpp ****         break;
 5964              		.loc 1 416 9 view .LVU1639
 5965              	.LVL428:
 5966              	.LBB883:
 5967              	.LBI880:
 435:UIManager.cpp ****   if (is_Led1){
 5968              		.loc 1 435 6 view .LVU1640
ARM GAS  /var/folders/2p/02m_5p7958535cp2tpgps0400000gn/T//ccA97qDZ.s 			page 146


 5969              	.LBB882:
 436:UIManager.cpp ****     pod_.led1.Set(r,g,b);
 5970              		.loc 1 436 3 view .LVU1641
 440:UIManager.cpp ****   }
 5971              		.loc 1 440 5 view .LVU1642
 440:UIManager.cpp ****   }
 5972              		.loc 1 440 18 is_stmt 0 view .LVU1643
 5973 023e DFED210A 		vldr.32	s1, .L415+4
 5974 0242 2868     		ldr	r0, [r5]
 5975 0244 B0EE600A 		vmov.f32	s0, s1
 5976 0248 9FED1F1A 		vldr.32	s2, .L415+8
 5977 024c 9EE7     		b	.L401
 5978              	.LVL429:
 5979              	.L328:
 440:UIManager.cpp ****   }
 5980              		.loc 1 440 18 view .LVU1644
 5981              	.LBE882:
 5982              	.LBE883:
 5983              	.LBE886:
 5984              	.LBE890:
 5985              	.LBE895:
 5986              	.LBE901:
 5987              	.LBE1048:
 5988              	.LBB1049:
 5989              	.LBB794:
 5990              	.LBB790:
 5991              	.LBB788:
 5992              	.LBB786:
 5993              	.LBB784:
 162:UIManager.cpp ****       current_synth_mode_ = SynthMode::PhasorMode_EnvType;
 5994              		.loc 1 162 5 is_stmt 1 view .LVU1645
 163:UIManager.cpp ****       break;
 5995              		.loc 1 163 7 view .LVU1646
 163:UIManager.cpp ****       break;
 5996              		.loc 1 163 27 is_stmt 0 view .LVU1647
 5997 024e 0223     		movs	r3, #2
 5998 0250 AB60     		str	r3, [r5, #8]
 164:UIManager.cpp ****     case SynthMode::PhasorMode_EnvType:
 5999              		.loc 1 164 7 is_stmt 1 view .LVU1648
 6000 0252 3CE7     		b	.L324
 6001              	.L329:
 159:UIManager.cpp ****       current_synth_mode_ = SynthMode::Pitch_ActiveGrains;
 6002              		.loc 1 159 5 view .LVU1649
 160:UIManager.cpp ****       break;
 6003              		.loc 1 160 7 view .LVU1650
 160:UIManager.cpp ****       break;
 6004              		.loc 1 160 27 is_stmt 0 view .LVU1651
 6005 0254 0123     		movs	r3, #1
 6006 0256 AB60     		str	r3, [r5, #8]
 161:UIManager.cpp ****     case SynthMode::Pitch_ActiveGrains:
 6007              		.loc 1 161 7 is_stmt 1 view .LVU1652
 6008 0258 39E7     		b	.L324
 6009              	.L327:
 165:UIManager.cpp ****       current_synth_mode_ = SynthMode::Pan_PanRnd;
 6010              		.loc 1 165 5 view .LVU1653
 166:UIManager.cpp ****       break;
 6011              		.loc 1 166 7 view .LVU1654
ARM GAS  /var/folders/2p/02m_5p7958535cp2tpgps0400000gn/T//ccA97qDZ.s 			page 147


 166:UIManager.cpp ****       break;
 6012              		.loc 1 166 27 is_stmt 0 view .LVU1655
 6013 025a 0623     		movs	r3, #6
 6014 025c AB60     		str	r3, [r5, #8]
 167:UIManager.cpp ****     case SynthMode::Pan_PanRnd:
 6015              		.loc 1 167 7 is_stmt 1 view .LVU1656
 6016 025e 36E7     		b	.L324
 6017              	.LVL430:
 6018              	.L333:
 167:UIManager.cpp ****     case SynthMode::Pan_PanRnd:
 6019              		.loc 1 167 7 is_stmt 0 view .LVU1657
 6020              	.LBE784:
 6021              	.LBE786:
 6022              	.LBE788:
 6023              	.LBE790:
 6024              	.LBE794:
 6025              	.LBE1049:
 6026              	.LBB1050:
 6027              	.LBB847:
 6028              	.LBB840:
 6029              	.LBB817:
 6030              	.LBB814:
 196:UIManager.cpp ****       current_synth_mode_ = SynthMode::PhasorMode_EnvType;
 6031              		.loc 1 196 5 is_stmt 1 view .LVU1658
 197:UIManager.cpp ****       break;
 6032              		.loc 1 197 7 view .LVU1659
 197:UIManager.cpp ****       break;
 6033              		.loc 1 197 27 is_stmt 0 view .LVU1660
 6034 0260 0223     		movs	r3, #2
 6035 0262 AB60     		str	r3, [r5, #8]
 198:UIManager.cpp ****     default:
 6036              		.loc 1 198 7 is_stmt 1 view .LVU1661
 6037              	.LVL431:
 6038              	.L368:
 198:UIManager.cpp ****     default:
 6039              		.loc 1 198 7 is_stmt 0 view .LVU1662
 6040              	.LBE814:
 6041              	.LBE817:
 6042              	.LBB818:
 6043              	.LBB819:
 6044              	.LBB820:
 6045              	.LBI820:
 384:UIManager.cpp ****   if (current_state_==AppState::Synthesis){
 6046              		.loc 1 384 6 is_stmt 1 view .LVU1663
 6047              	.LBE820:
 6048              	.LBE819:
 6049              	.LBE818:
 6050              	.LBE840:
 6051              	.LBE847:
 6052              	.LBE1050:
 387:UIManager.cpp ****       case SynthMode::Pitch_ActiveGrains:
 6053              		.loc 1 387 7 view .LVU1664
 388:UIManager.cpp ****       case SynthMode::PhasorMode_EnvType:
 6054              		.loc 1 388 7 view .LVU1665
 389:UIManager.cpp ****       case SynthMode::Pan_PanRnd:
 6055              		.loc 1 389 7 view .LVU1666
 390:UIManager.cpp ****         /* set led 2 to green*/
ARM GAS  /var/folders/2p/02m_5p7958535cp2tpgps0400000gn/T//ccA97qDZ.s 			page 148


 6056              		.loc 1 390 7 view .LVU1667
 392:UIManager.cpp ****         break;
 6057              		.loc 1 392 9 view .LVU1668
 6058              	.LBB1051:
 6059              	.LBB848:
 6060              	.LBB841:
 6061              	.LBB833:
 6062              	.LBB829:
 6063              	.LBB825:
 6064              	.LBB821:
 6065              	.LBI821:
 435:UIManager.cpp ****   if (is_Led1){
 6066              		.loc 1 435 6 view .LVU1669
 6067              	.LBB822:
 436:UIManager.cpp ****     pod_.led1.Set(r,g,b);
 6068              		.loc 1 436 3 view .LVU1670
 440:UIManager.cpp ****   }
 6069              		.loc 1 440 5 view .LVU1671
 440:UIManager.cpp ****   }
 6070              		.loc 1 440 18 is_stmt 0 view .LVU1672
 6071 0264 9FED181A 		vldr.32	s2, .L415+8
 6072 0268 04F59670 		add	r0, r4, #300
 6073 026c DFED150A 		vldr.32	s1, .L415+4
 6074 0270 B0EE410A 		vmov.f32	s0, s2
 6075              	.LVL432:
 6076              	.L398:
 440:UIManager.cpp ****   }
 6077              		.loc 1 440 18 view .LVU1673
 6078 0274 FFF7FEFF 		bl	_ZN5daisy6RgbLed3SetEfff
 6079              	.LVL433:
 442:UIManager.cpp ****   System::Delay(10);
 6080              		.loc 1 442 3 is_stmt 1 view .LVU1674
 442:UIManager.cpp ****   System::Delay(10);
 6081              		.loc 1 442 18 is_stmt 0 view .LVU1675
 6082 0278 2868     		ldr	r0, [r5]
 6083 027a FFF7FEFF 		bl	_ZN5daisy8DaisyPod10UpdateLedsEv
 6084              	.LVL434:
 443:UIManager.cpp **** }
 6085              		.loc 1 443 3 is_stmt 1 view .LVU1676
 443:UIManager.cpp **** }
 6086              		.loc 1 443 16 is_stmt 0 view .LVU1677
 6087 027e 0A20     		movs	r0, #10
 6088 0280 FFF7FEFF 		bl	_ZN5daisy6System5DelayEm
 6089              	.LVL435:
 6090              	.LBE822:
 6091              	.LBE821:
 6092              	.LBE825:
 6093              	.LBE829:
 6094              	.LBE833:
 6095              	.LBE841:
 6096              	.LBE848:
 6097              	.LBE1051:
 6098              	.LBB1052:
 6099              	.LBB866:
 254:UIManager.cpp **** }
 6100              		.loc 1 254 10 view .LVU1678
 6101 0284 2C68     		ldr	r4, [r5]
ARM GAS  /var/folders/2p/02m_5p7958535cp2tpgps0400000gn/T//ccA97qDZ.s 			page 149


 6102              	.LBE866:
 6103              	.LBE1052:
 6104              	.LBB1053:
 6105              	.LBB849:
 6106              	.LBB842:
 6107              	.LBB834:
 6108              	.LBB830:
 6109              	.LBB826:
 6110              	.LBB824:
 6111              	.LBB823:
 444:UIManager.cpp **** 
 6112              		.loc 1 444 1 view .LVU1679
 6113 0286 2AE7     		b	.L330
 6114              	.LVL436:
 6115              	.L335:
 444:UIManager.cpp **** 
 6116              		.loc 1 444 1 view .LVU1680
 6117              	.LBE823:
 6118              	.LBE824:
 6119              	.LBE826:
 6120              	.LBE830:
 6121              	.LBE834:
 6122              	.LBB835:
 6123              	.LBB815:
 190:UIManager.cpp ****       current_synth_mode_ = SynthMode::Pitch_ActiveGrains;
 6124              		.loc 1 190 5 is_stmt 1 view .LVU1681
 191:UIManager.cpp ****       break;
 6125              		.loc 1 191 7 view .LVU1682
 191:UIManager.cpp ****       break;
 6126              		.loc 1 191 27 is_stmt 0 view .LVU1683
 6127 0288 0123     		movs	r3, #1
 6128 028a AB60     		str	r3, [r5, #8]
 192:UIManager.cpp ****     case SynthMode::PhasorMode_EnvType:
 6129              		.loc 1 192 7 is_stmt 1 view .LVU1684
 6130 028c EAE7     		b	.L368
 6131              	.L336:
 184:UIManager.cpp ****       current_synth_mode_ = SynthMode::Size_Position;
 6132              		.loc 1 184 5 view .LVU1685
 185:UIManager.cpp ****       break;
 6133              		.loc 1 185 7 view .LVU1686
 185:UIManager.cpp ****       break;
 6134              		.loc 1 185 27 is_stmt 0 view .LVU1687
 6135 028e 0023     		movs	r3, #0
 6136 0290 AB60     		str	r3, [r5, #8]
 186:UIManager.cpp ****     case SynthMode::Pitch_ActiveGrains:
 6137              		.loc 1 186 7 is_stmt 1 view .LVU1688
 6138 0292 E7E7     		b	.L368
 6139              	.L337:
 193:UIManager.cpp ****       current_synth_mode_ = SynthMode::PhasorMode_EnvType_Rnd;
 6140              		.loc 1 193 5 view .LVU1689
 194:UIManager.cpp ****       break;      
 6141              		.loc 1 194 7 view .LVU1690
 194:UIManager.cpp ****       break;      
 6142              		.loc 1 194 27 is_stmt 0 view .LVU1691
 6143 0294 0523     		movs	r3, #5
 6144 0296 AB60     		str	r3, [r5, #8]
 195:UIManager.cpp ****     case SynthMode::PhasorMode_EnvType_Rnd:
ARM GAS  /var/folders/2p/02m_5p7958535cp2tpgps0400000gn/T//ccA97qDZ.s 			page 150


 6145              		.loc 1 195 7 is_stmt 1 view .LVU1692
 6146              	.L340:
 6147              	.LVL437:
 195:UIManager.cpp ****     case SynthMode::PhasorMode_EnvType_Rnd:
 6148              		.loc 1 195 7 is_stmt 0 view .LVU1693
 6149              	.LBE815:
 6150              	.LBE835:
 6151              	.LBE842:
 6152              	.LBE849:
 6153              	.LBE1053:
  89:UIManager.cpp ****     }
 6154              		.loc 1 89 7 is_stmt 1 view .LVU1694
 6155              	.LBB1054:
 6156              	.LBB850:
 6157              	.LBB843:
 6158              	.LBB836:
 6159              	.LBI818:
 384:UIManager.cpp ****   if (current_state_==AppState::Synthesis){
 6160              		.loc 1 384 6 view .LVU1695
 6161              	.LBB831:
 385:UIManager.cpp ****     switch(current_synth_mode_){
 6162              		.loc 1 385 3 view .LVU1696
 386:UIManager.cpp ****       case SynthMode::Size_Position:
 6163              		.loc 1 386 5 view .LVU1697
 395:UIManager.cpp ****       case SynthMode::Pitch_ActiveGrains_Rnd:
 6164              		.loc 1 395 7 view .LVU1698
 396:UIManager.cpp ****       case SynthMode::PhasorMode_EnvType_Rnd:
 6165              		.loc 1 396 7 view .LVU1699
 397:UIManager.cpp ****         /* set led 2 to red*/
 6166              		.loc 1 397 7 view .LVU1700
 399:UIManager.cpp ****         break;
 6167              		.loc 1 399 9 view .LVU1701
 6168              	.LBB827:
 6169              	.LBI827:
 435:UIManager.cpp ****   if (is_Led1){
 6170              		.loc 1 435 6 view .LVU1702
 6171              	.LBB828:
 436:UIManager.cpp ****     pod_.led1.Set(r,g,b);
 6172              		.loc 1 436 3 view .LVU1703
 440:UIManager.cpp ****   }
 6173              		.loc 1 440 5 view .LVU1704
 440:UIManager.cpp ****   }
 6174              		.loc 1 440 18 is_stmt 0 view .LVU1705
 6175 0298 9FED0B1A 		vldr.32	s2, .L415+8
 6176 029c 04F59670 		add	r0, r4, #300
 6177 02a0 9FED080A 		vldr.32	s0, .L415+4
 6178 02a4 F0EE410A 		vmov.f32	s1, s2
 6179 02a8 E4E7     		b	.L398
 6180              	.LVL438:
 6181              	.L338:
 440:UIManager.cpp ****   }
 6182              		.loc 1 440 18 view .LVU1706
 6183              	.LBE828:
 6184              	.LBE827:
 6185              	.LBE831:
 6186              	.LBE836:
 6187              	.LBB837:
ARM GAS  /var/folders/2p/02m_5p7958535cp2tpgps0400000gn/T//ccA97qDZ.s 			page 151


 6188              	.LBB816:
 187:UIManager.cpp ****       current_synth_mode_ = SynthMode::Pitch_ActiveGrains_Rnd;
 6189              		.loc 1 187 5 is_stmt 1 view .LVU1707
 188:UIManager.cpp ****       break;
 6190              		.loc 1 188 7 view .LVU1708
 188:UIManager.cpp ****       break;
 6191              		.loc 1 188 27 is_stmt 0 view .LVU1709
 6192 02aa 0423     		movs	r3, #4
 6193 02ac AB60     		str	r3, [r5, #8]
 189:UIManager.cpp ****     case SynthMode::Pitch_ActiveGrains_Rnd:
 6194              		.loc 1 189 7 is_stmt 1 view .LVU1710
 6195 02ae F3E7     		b	.L340
 6196              	.L339:
 181:UIManager.cpp ****       current_synth_mode_ = SynthMode::Size_Position_Rnd;
 6197              		.loc 1 181 5 view .LVU1711
 182:UIManager.cpp ****       break;
 6198              		.loc 1 182 7 view .LVU1712
 182:UIManager.cpp ****       break;
 6199              		.loc 1 182 27 is_stmt 0 view .LVU1713
 6200 02b0 0323     		movs	r3, #3
 6201 02b2 AB60     		str	r3, [r5, #8]
 183:UIManager.cpp ****     case SynthMode::Size_Position_Rnd:
 6202              		.loc 1 183 7 is_stmt 1 view .LVU1714
 6203 02b4 F0E7     		b	.L340
 6204              	.L332:
 6205              	.LVL439:
 183:UIManager.cpp ****     case SynthMode::Size_Position_Rnd:
 6206              		.loc 1 183 7 is_stmt 0 view .LVU1715
 6207              	.LBE816:
 6208              	.LBE837:
 6209              	.LBE843:
 6210              	.LBE850:
 6211              	.LBE1054:
  89:UIManager.cpp ****     }
 6212              		.loc 1 89 7 is_stmt 1 view .LVU1716
 6213              	.LBB1055:
 6214              	.LBB851:
 6215              	.LBB844:
 6216              	.LBB838:
 384:UIManager.cpp ****   if (current_state_==AppState::Synthesis){
 6217              		.loc 1 384 6 view .LVU1717
 6218              	.LBB832:
 385:UIManager.cpp ****     switch(current_synth_mode_){
 6219              		.loc 1 385 3 view .LVU1718
 386:UIManager.cpp ****       case SynthMode::Size_Position:
 6220              		.loc 1 386 5 view .LVU1719
 6221 02b6 062B     		cmp	r3, #6
 6222 02b8 7FF4C3AE 		bne	.L342
 6223 02bc D2E7     		b	.L368
 6224              	.L416:
 6225 02be 00BF     		.align	2
 6226              	.L415:
 6227 02c0 00007A44 		.word	1148846080
 6228 02c4 00007F43 		.word	1132396544
 6229 02c8 00000000 		.word	0
 6230              	.LBE832:
 6231              	.LBE838:
ARM GAS  /var/folders/2p/02m_5p7958535cp2tpgps0400000gn/T//ccA97qDZ.s 			page 152


 6232              	.LBE844:
 6233              	.LBE851:
 6234              	.LBE1055:
 6235              		.cfi_endproc
 6236              	.LFE2580:
 6238              		.section	.text._ZN9UIManager8UpdateUIEv,"ax",%progbits
 6239              		.align	1
 6240              		.p2align 2,,3
 6241              		.global	_ZN9UIManager8UpdateUIEv
 6242              		.syntax unified
 6243              		.thumb
 6244              		.thumb_func
 6246              	_ZN9UIManager8UpdateUIEv:
 6247              	.LVL440:
 6248              	.LFB2578:
  11:UIManager.cpp ****   if (!crash_error){
 6249              		.loc 1 11 27 view -0
 6250              		.cfi_startproc
 6251              		@ args = 0, pretend = 0, frame = 0
 6252              		@ frame_needed = 0, uses_anonymous_args = 0
  12:UIManager.cpp ****     UpdateKnobs();
 6253              		.loc 1 12 3 view .LVU1721
  11:UIManager.cpp ****   if (!crash_error){
 6254              		.loc 1 11 27 is_stmt 0 view .LVU1722
 6255 0000 38B5     		push	{r3, r4, r5, lr}
 6256              		.cfi_def_cfa_offset 16
 6257              		.cfi_offset 3, -16
 6258              		.cfi_offset 4, -12
 6259              		.cfi_offset 5, -8
 6260              		.cfi_offset 14, -4
  12:UIManager.cpp ****     UpdateKnobs();
 6261              		.loc 1 12 3 view .LVU1723
 6262 0002 C37D     		ldrb	r3, [r0, #23]	@ zero_extendqisi2
  11:UIManager.cpp ****   if (!crash_error){
 6263              		.loc 1 11 27 view .LVU1724
 6264 0004 2DED028B 		vpush.64	{d8}
 6265              		.cfi_def_cfa_offset 24
 6266              		.cfi_offset 80, -24
 6267              		.cfi_offset 81, -20
  12:UIManager.cpp ****     UpdateKnobs();
 6268              		.loc 1 12 3 view .LVU1725
 6269 0008 53B9     		cbnz	r3, .L417
 6270              	.LBB1071:
 6271              	.LBB1072:
  22:UIManager.cpp ****     int mode_idx = static_cast<int>(current_synth_mode_);
 6272              		.loc 1 22 3 view .LVU1726
 6273 000a 4368     		ldr	r3, [r0, #4]
 6274 000c 0446     		mov	r4, r0
 6275              	.LBE1072:
 6276              	.LBE1071:
  13:UIManager.cpp ****     UpdateState();
 6277              		.loc 1 13 5 is_stmt 1 view .LVU1727
 6278              	.LVL441:
 6279              	.LBB1097:
 6280              	.LBI1071:
  20:UIManager.cpp ****   // NOTE: need to add stuff for chord mode here! 
 6281              		.loc 1 20 6 view .LVU1728
ARM GAS  /var/folders/2p/02m_5p7958535cp2tpgps0400000gn/T//ccA97qDZ.s 			page 153


 6282              	.LBE1097:
  22:UIManager.cpp ****     int mode_idx = static_cast<int>(current_synth_mode_);
 6283              		.loc 1 22 3 view .LVU1729
 6284              	.LBB1098:
 6285              	.LBB1073:
 6286 000e 032B     		cmp	r3, #3
 6287 0010 09D0     		beq	.L433
 6288              	.LVL442:
  22:UIManager.cpp ****     int mode_idx = static_cast<int>(current_synth_mode_);
 6289              		.loc 1 22 3 is_stmt 0 view .LVU1730
 6290              	.LBE1073:
 6291              	.LBE1098:
  14:UIManager.cpp ****     // UpdateSynthMode();
 6292              		.loc 1 14 5 is_stmt 1 view .LVU1731
  14:UIManager.cpp ****     // UpdateSynthMode();
 6293              		.loc 1 14 16 is_stmt 0 view .LVU1732
 6294 0012 2046     		mov	r0, r4
  17:UIManager.cpp **** 
 6295              		.loc 1 17 1 view .LVU1733
 6296 0014 BDEC028B 		vldm	sp!, {d8}
 6297              		.cfi_remember_state
 6298              		.cfi_restore 80
 6299              		.cfi_restore 81
 6300              		.cfi_def_cfa_offset 16
 6301 0018 BDE83840 		pop	{r3, r4, r5, lr}
 6302              		.cfi_restore 14
 6303              		.cfi_restore 5
 6304              		.cfi_restore 4
 6305              		.cfi_restore 3
 6306              		.cfi_def_cfa_offset 0
  14:UIManager.cpp ****     // UpdateSynthMode();
 6307              		.loc 1 14 16 view .LVU1734
 6308 001c FFF7FEBF 		b	_ZN9UIManager11UpdateStateEv
 6309              	.LVL443:
 6310              	.L417:
 6311              		.cfi_restore_state
  17:UIManager.cpp **** 
 6312              		.loc 1 17 1 view .LVU1735
 6313 0020 BDEC028B 		vldm	sp!, {d8}
 6314              		.cfi_remember_state
 6315              		.cfi_restore 80
 6316              		.cfi_restore 81
 6317              		.cfi_def_cfa_offset 16
 6318 0024 38BD     		pop	{r3, r4, r5, pc}
 6319              	.LVL444:
 6320              	.L433:
 6321              		.cfi_restore_state
 6322              	.LBB1099:
 6323              	.LBB1074:
 6324              	.LBI1074:
  20:UIManager.cpp ****   // NOTE: need to add stuff for chord mode here! 
 6325              		.loc 1 20 6 is_stmt 1 view .LVU1736
 6326              	.LBB1075:
 6327              	.LBB1076:
  23:UIManager.cpp ****     float k1v = MapKnobDeadzone(pod_.knob1.Process());
 6328              		.loc 1 23 5 view .LVU1737
  24:UIManager.cpp ****     float k2v = MapKnobDeadzone(pod_.knob2.Process());
ARM GAS  /var/folders/2p/02m_5p7958535cp2tpgps0400000gn/T//ccA97qDZ.s 			page 154


 6329              		.loc 1 24 32 is_stmt 0 view .LVU1738
 6330 0026 0068     		ldr	r0, [r0]
 6331              	.LVL445:
  23:UIManager.cpp ****     float k1v = MapKnobDeadzone(pod_.knob1.Process());
 6332              		.loc 1 23 9 view .LVU1739
 6333 0028 A568     		ldr	r5, [r4, #8]
 6334              	.LVL446:
  24:UIManager.cpp ****     float k2v = MapKnobDeadzone(pod_.knob2.Process());
 6335              		.loc 1 24 5 is_stmt 1 view .LVU1740
  24:UIManager.cpp ****     float k2v = MapKnobDeadzone(pod_.knob2.Process());
 6336              		.loc 1 24 32 is_stmt 0 view .LVU1741
 6337 002a 6830     		adds	r0, r0, #104
 6338 002c FFF7FEFF 		bl	_ZN5daisy13AnalogControl7ProcessEv
 6339              	.LVL447:
 6340              	.LBB1077:
 6341              	.LBB1078:
 266:UIManager.cpp ****   if (knob_val>=0.99f) return 1.0f;
 6342              		.loc 1 266 3 view .LVU1742
 6343 0030 DFED207A 		vldr.32	s15, .L434
 6344              	.LVL448:
 266:UIManager.cpp ****   if (knob_val>=0.99f) return 1.0f;
 6345              		.loc 1 266 3 view .LVU1743
 6346              	.LBE1078:
 6347              	.LBI1077:
 265:UIManager.cpp ****   if (knob_val<=0.01f) return 0.0f;
 6348              		.loc 1 265 7 is_stmt 1 view .LVU1744
 6349              	.LBB1079:
 266:UIManager.cpp ****   if (knob_val>=0.99f) return 1.0f;
 6350              		.loc 1 266 3 view .LVU1745
 6351 0034 B4EEE70A 		vcmpe.f32	s0, s15
 6352 0038 F1EE10FA 		vmrs	APSR_nzcv, FPSCR
 6353 003c 34D9     		bls	.L427
 267:UIManager.cpp ****   return knob_val;
 6354              		.loc 1 267 3 view .LVU1746
 6355 003e 9FED1E7A 		vldr.32	s14, .L434+4
 267:UIManager.cpp ****   return knob_val;
 6356              		.loc 1 267 31 is_stmt 0 view .LVU1747
 6357 0042 F7EE007A 		vmov.f32	s15, #1.0e+0
 6358 0046 B4EE470A 		vcmp.f32	s0, s14
 6359 004a F1EE10FA 		vmrs	APSR_nzcv, FPSCR
 6360 004e 27FE808A 		vselge.f32	s16, s15, s0
 6361              	.L420:
 6362              	.LVL449:
 267:UIManager.cpp ****   return knob_val;
 6363              		.loc 1 267 31 view .LVU1748
 6364              	.LBE1079:
 6365              	.LBE1077:
  25:UIManager.cpp **** 
 6366              		.loc 1 25 5 is_stmt 1 view .LVU1749
  25:UIManager.cpp **** 
 6367              		.loc 1 25 32 is_stmt 0 view .LVU1750
 6368 0052 2068     		ldr	r0, [r4]
 6369 0054 8830     		adds	r0, r0, #136
 6370 0056 FFF7FEFF 		bl	_ZN5daisy13AnalogControl7ProcessEv
 6371              	.LVL450:
 6372              	.LBB1081:
 6373              	.LBB1082:
ARM GAS  /var/folders/2p/02m_5p7958535cp2tpgps0400000gn/T//ccA97qDZ.s 			page 155


 266:UIManager.cpp ****   if (knob_val>=0.99f) return 1.0f;
 6374              		.loc 1 266 3 view .LVU1751
 6375 005a DFED167A 		vldr.32	s15, .L434
 6376              	.LVL451:
 266:UIManager.cpp ****   if (knob_val>=0.99f) return 1.0f;
 6377              		.loc 1 266 3 view .LVU1752
 6378              	.LBE1082:
 6379              	.LBI1081:
 265:UIManager.cpp ****   if (knob_val<=0.01f) return 0.0f;
 6380              		.loc 1 265 7 is_stmt 1 view .LVU1753
 6381              	.LBB1083:
 266:UIManager.cpp ****   if (knob_val>=0.99f) return 1.0f;
 6382              		.loc 1 266 3 view .LVU1754
 6383 005e B4EEE70A 		vcmpe.f32	s0, s15
 6384 0062 F1EE10FA 		vmrs	APSR_nzcv, FPSCR
 6385 0066 22D9     		bls	.L428
 267:UIManager.cpp ****   return knob_val;
 6386              		.loc 1 267 3 view .LVU1755
 6387 0068 9FED137A 		vldr.32	s14, .L434+4
 267:UIManager.cpp ****   return knob_val;
 6388              		.loc 1 267 31 is_stmt 0 view .LVU1756
 6389 006c F7EE007A 		vmov.f32	s15, #1.0e+0
 6390 0070 B4EE470A 		vcmp.f32	s0, s14
 6391 0074 F1EE10FA 		vmrs	APSR_nzcv, FPSCR
 6392 0078 27FE800A 		vselge.f32	s0, s15, s0
 6393              	.LVL452:
 6394              	.L422:
 267:UIManager.cpp ****   return knob_val;
 6395              		.loc 1 267 31 view .LVU1757
 6396              	.LBE1083:
 6397              	.LBE1081:
  29:UIManager.cpp ****     k2v_[mode_idx] = UpdateKnobPassThru(k2v, &k2v_[mode_idx], &k2_pass_thru_[mode_idx]);
 6398              		.loc 1 29 5 is_stmt 1 view .LVU1758
 6399              	.LBB1085:
 6400              	.LBI1085:
 277:UIManager.cpp ****   if (!(*pass_thru)){
 6401              		.loc 1 277 7 view .LVU1759
 6402              	.LBB1086:
 278:UIManager.cpp ****     if (curr_knob_val >= (*stored_knob_val) || curr_knob_val <= (*stored_knob_val)) {
 6403              		.loc 1 278 3 view .LVU1760
 278:UIManager.cpp ****     if (curr_knob_val >= (*stored_knob_val) || curr_knob_val <= (*stored_knob_val)) {
 6404              		.loc 1 278 9 is_stmt 0 view .LVU1761
 6405 007c 6319     		adds	r3, r4, r5
 278:UIManager.cpp ****     if (curr_knob_val >= (*stored_knob_val) || curr_knob_val <= (*stored_knob_val)) {
 6406              		.loc 1 278 3 view .LVU1762
 6407 007e 1A7E     		ldrb	r2, [r3, #24]	@ zero_extendqisi2
 6408 0080 0AB9     		cbnz	r2, .L424
 279:UIManager.cpp ****       (*pass_thru) = true;
 6409              		.loc 1 279 5 is_stmt 1 view .LVU1763
 280:UIManager.cpp ****     }
 6410              		.loc 1 280 7 view .LVU1764
 280:UIManager.cpp ****     }
 6411              		.loc 1 280 20 is_stmt 0 view .LVU1765
 6412 0082 0122     		movs	r2, #1
 6413 0084 1A76     		strb	r2, [r3, #24]
 6414              	.L424:
 283:UIManager.cpp ****     (*stored_knob_val) = curr_knob_val;
ARM GAS  /var/folders/2p/02m_5p7958535cp2tpgps0400000gn/T//ccA97qDZ.s 			page 156


 6415              		.loc 1 283 3 is_stmt 1 view .LVU1766
 6416              	.LVL453:
 283:UIManager.cpp ****     (*stored_knob_val) = curr_knob_val;
 6417              		.loc 1 283 3 is_stmt 0 view .LVU1767
 6418 0086 04EB8505 		add	r5, r4, r5, lsl #2
 6419              	.LBE1086:
 6420              	.LBE1085:
  29:UIManager.cpp ****     k2v_[mode_idx] = UpdateKnobPassThru(k2v, &k2v_[mode_idx], &k2_pass_thru_[mode_idx]);
 6421              		.loc 1 29 20 view .LVU1768
 6422 008a 85ED0A8A 		vstr.32	s16, [r5, #40]
  30:UIManager.cpp ****   }
 6423              		.loc 1 30 5 is_stmt 1 view .LVU1769
 6424              	.LVL454:
 6425              	.LBB1087:
 6426              	.LBI1087:
 277:UIManager.cpp ****   if (!(*pass_thru)){
 6427              		.loc 1 277 7 view .LVU1770
 6428              	.LBB1088:
 278:UIManager.cpp ****     if (curr_knob_val >= (*stored_knob_val) || curr_knob_val <= (*stored_knob_val)) {
 6429              		.loc 1 278 3 view .LVU1771
 6430 008e DA7F     		ldrb	r2, [r3, #31]	@ zero_extendqisi2
 6431 0090 0AB9     		cbnz	r2, .L425
 279:UIManager.cpp ****       (*pass_thru) = true;
 6432              		.loc 1 279 5 view .LVU1772
 280:UIManager.cpp ****     }
 6433              		.loc 1 280 7 view .LVU1773
 280:UIManager.cpp ****     }
 6434              		.loc 1 280 20 is_stmt 0 view .LVU1774
 6435 0092 0122     		movs	r2, #1
 6436 0094 DA77     		strb	r2, [r3, #31]
 6437              	.L425:
 283:UIManager.cpp ****     (*stored_knob_val) = curr_knob_val;
 6438              		.loc 1 283 3 is_stmt 1 view .LVU1775
 6439              	.LVL455:
 283:UIManager.cpp ****     (*stored_knob_val) = curr_knob_val;
 6440              		.loc 1 283 3 is_stmt 0 view .LVU1776
 6441              	.LBE1088:
 6442              	.LBE1087:
 6443              	.LBE1076:
 6444              	.LBE1075:
 6445              	.LBE1074:
 6446              	.LBE1099:
  14:UIManager.cpp ****     // UpdateSynthMode();
 6447              		.loc 1 14 16 view .LVU1777
 6448 0096 2046     		mov	r0, r4
 6449              	.LBB1100:
 6450              	.LBB1095:
 6451              	.LBB1093:
 6452              	.LBB1091:
  30:UIManager.cpp ****   }
 6453              		.loc 1 30 20 view .LVU1778
 6454 0098 85ED110A 		vstr.32	s0, [r5, #68]
 6455              	.LVL456:
  30:UIManager.cpp ****   }
 6456              		.loc 1 30 20 view .LVU1779
 6457              	.LBE1091:
 6458              	.LBE1093:
ARM GAS  /var/folders/2p/02m_5p7958535cp2tpgps0400000gn/T//ccA97qDZ.s 			page 157


 6459              	.LBE1095:
 6460              	.LBE1100:
  14:UIManager.cpp ****     // UpdateSynthMode();
 6461              		.loc 1 14 5 is_stmt 1 view .LVU1780
  17:UIManager.cpp **** 
 6462              		.loc 1 17 1 is_stmt 0 view .LVU1781
 6463 009c BDEC028B 		vldm	sp!, {d8}
 6464              		.cfi_remember_state
 6465              		.cfi_restore 80
 6466              		.cfi_restore 81
 6467              		.cfi_def_cfa_offset 16
 6468 00a0 BDE83840 		pop	{r3, r4, r5, lr}
 6469              		.cfi_restore 14
 6470              		.cfi_restore 5
 6471              		.cfi_restore 4
 6472              		.cfi_restore 3
 6473              		.cfi_def_cfa_offset 0
 6474              	.LVL457:
  14:UIManager.cpp ****     // UpdateSynthMode();
 6475              		.loc 1 14 16 view .LVU1782
 6476 00a4 FFF7FEBF 		b	_ZN9UIManager11UpdateStateEv
 6477              	.LVL458:
 6478              	.L427:
 6479              		.cfi_restore_state
 6480              	.LBB1101:
 6481              	.LBB1096:
 6482              	.LBB1094:
 6483              	.LBB1092:
 6484              	.LBB1089:
 6485              	.LBB1080:
 266:UIManager.cpp ****   if (knob_val>=0.99f) return 1.0f;
 6486              		.loc 1 266 31 view .LVU1783
 6487 00a8 9FED048A 		vldr.32	s16, .L434+8
 6488 00ac D1E7     		b	.L420
 6489              	.LVL459:
 6490              	.L428:
 266:UIManager.cpp ****   if (knob_val>=0.99f) return 1.0f;
 6491              		.loc 1 266 31 view .LVU1784
 6492              	.LBE1080:
 6493              	.LBE1089:
 6494              	.LBB1090:
 6495              	.LBB1084:
 6496 00ae 9FED030A 		vldr.32	s0, .L434+8
 6497              	.LVL460:
 266:UIManager.cpp ****   if (knob_val>=0.99f) return 1.0f;
 6498              		.loc 1 266 31 view .LVU1785
 6499 00b2 E3E7     		b	.L422
 6500              	.L435:
 6501              		.align	2
 6502              	.L434:
 6503 00b4 0AD7233C 		.word	1008981770
 6504 00b8 A4707D3F 		.word	1065185444
 6505 00bc 00000000 		.word	0
 6506              	.LBE1084:
 6507              	.LBE1090:
 6508              	.LBE1092:
 6509              	.LBE1094:
ARM GAS  /var/folders/2p/02m_5p7958535cp2tpgps0400000gn/T//ccA97qDZ.s 			page 158


 6510              	.LBE1096:
 6511              	.LBE1101:
 6512              		.cfi_endproc
 6513              	.LFE2578:
 6515              		.text
 6516              	.Letext0:
 6517              		.file 6 "/Library/DaisyToolchain/0.2.0/arm/arm-none-eabi/include/machine/_default_types.h"
 6518              		.file 7 "/Library/DaisyToolchain/0.2.0/arm/arm-none-eabi/include/sys/_stdint.h"
 6519              		.file 8 "/Library/DaisyToolchain/0.2.0/arm/arm-none-eabi/include/stdint.h"
 6520              		.file 9 "/Library/DaisyToolchain/0.2.0/arm/lib/gcc/arm-none-eabi/10.3.1/include/stddef.h"
 6521              		.file 10 "/Library/DaisyToolchain/0.2.0/arm/arm-none-eabi/include/c++/10.3.1/cmath"
 6522              		.file 11 "/Library/DaisyToolchain/0.2.0/arm/arm-none-eabi/include/c++/10.3.1/bits/std_abs.h"
 6523              		.file 12 "/Library/DaisyToolchain/0.2.0/arm/arm-none-eabi/include/c++/10.3.1/cstdlib"
 6524              		.file 13 "/Library/DaisyToolchain/0.2.0/arm/arm-none-eabi/include/c++/10.3.1/cstdint"
 6525              		.file 14 "/Library/DaisyToolchain/0.2.0/arm/arm-none-eabi/include/c++/10.3.1/arm-none-eabi/thumb/v
 6526              		.file 15 "/Library/DaisyToolchain/0.2.0/arm/arm-none-eabi/include/c++/10.3.1/type_traits"
 6527              		.file 16 "/Library/DaisyToolchain/0.2.0/arm/arm-none-eabi/include/c++/10.3.1/debug/debug.h"
 6528              		.file 17 "/Library/DaisyToolchain/0.2.0/arm/arm-none-eabi/include/c++/10.3.1/bits/algorithmfwd.h"
 6529              		.file 18 "/Library/DaisyToolchain/0.2.0/arm/arm-none-eabi/include/c++/10.3.1/bits/stl_pair.h"
 6530              		.file 19 "/Library/DaisyToolchain/0.2.0/arm/arm-none-eabi/include/c++/10.3.1/bits/exception_ptr.h"
 6531              		.file 20 "/Library/DaisyToolchain/0.2.0/arm/arm-none-eabi/include/c++/10.3.1/initializer_list"
 6532              		.file 21 "/Library/DaisyToolchain/0.2.0/arm/arm-none-eabi/include/c++/10.3.1/cstdarg"
 6533              		.file 22 "/Library/DaisyToolchain/0.2.0/arm/arm-none-eabi/include/c++/10.3.1/cstdio"
 6534              		.file 23 "/Library/DaisyToolchain/0.2.0/arm/arm-none-eabi/include/c++/10.3.1/cstring"
 6535              		.file 24 "/Library/DaisyToolchain/0.2.0/arm/arm-none-eabi/include/c++/10.3.1/bits/predefined_ops.h
 6536              		.file 25 "/Library/DaisyToolchain/0.2.0/arm/arm-none-eabi/include/sys/_types.h"
 6537              		.file 26 "/Library/DaisyToolchain/0.2.0/arm/arm-none-eabi/include/sys/reent.h"
 6538              		.file 27 "/Library/DaisyToolchain/0.2.0/arm/arm-none-eabi/include/sys/lock.h"
 6539              		.file 28 "/Library/DaisyToolchain/0.2.0/arm/arm-none-eabi/include/math.h"
 6540              		.file 29 "/Library/DaisyToolchain/0.2.0/arm/arm-none-eabi/include/stdlib.h"
 6541              		.file 30 "/Library/DaisyToolchain/0.2.0/arm/arm-none-eabi/include/c++/10.3.1/math.h"
 6542              		.file 31 "/Library/DaisyToolchain/0.2.0/arm/arm-none-eabi/include/c++/10.3.1/stdlib.h"
 6543              		.file 32 "../libDaisy/src/daisy_core.h"
 6544              		.file 33 "../libDaisy/src/sys/system.h"
 6545              		.file 34 "../libDaisy/src/per/qspi.h"
 6546              		.file 35 "../libDaisy/src/per/dac.h"
 6547              		.file 36 "../libDaisy/src/per/sai.h"
 6548              		.file 37 "../libDaisy/src/hid/audio.h"
 6549              		.file 38 "../libDaisy/src/per/adc.h"
 6550              		.file 39 "../libDaisy/src/per/uart.h"
 6551              		.file 40 "../libDaisy/src/hid/MidiEvent.h"
 6552              		.file 41 "../libDaisy/src/hid/midi_parser.h"
 6553              		.file 42 "../libDaisy/src/hid/usb.h"
 6554              		.file 43 "../libDaisy/src/hid/midi.h"
 6555              		.file 44 "../libDaisy/src/util/FIFO.h"
 6556              		.file 45 "../libDaisy/src/hid/ctrl.h"
 6557              		.file 46 "../libDaisy/src/hid/logger_impl.h"
 6558              		.file 47 "../libDaisy/src/util/wav_format.h"
 6559              		.file 48 "../libDaisy/src/hid/led.h"
 6560              		.file 49 "../libDaisy/src/util/color.h"
 6561              		.file 50 "../libDaisy/src/hid/rgb_led.h"
 6562              		.file 51 "../libDaisy/src/dev/max11300.h"
 6563              		.file 52 "../libDaisy/src/hid/logger.h"
 6564              		.file 53 "../libDaisy/src/daisy_pod.h"
 6565              		.file 54 "../libDaisy/src/per/gpio.h"
 6566              		.file 55 "../libDaisy/src/dev/sdram.h"
 6567              		.file 56 "/Library/DaisyToolchain/0.2.0/arm/lib/gcc/arm-none-eabi/10.3.1/include/stdarg.h"
ARM GAS  /var/folders/2p/02m_5p7958535cp2tpgps0400000gn/T//ccA97qDZ.s 			page 159


 6568              		.file 57 "/Library/DaisyToolchain/0.2.0/arm/arm-none-eabi/include/stdio.h"
 6569              		.file 58 "/Library/DaisyToolchain/0.2.0/arm/arm-none-eabi/include/string.h"
 6570              		.file 59 "AppState.h"
 6571              		.file 60 "constants_utils.h"
 6572              		.file 61 "UIManager.h"
 6573              		.file 62 "<built-in>"
 6574              		.file 63 "../libDaisy/src/dev/sr_595.h"
ARM GAS  /var/folders/2p/02m_5p7958535cp2tpgps0400000gn/T//ccA97qDZ.s 			page 160


DEFINED SYMBOLS
                            *ABS*:0000000000000000 UIManager.cpp
/var/folders/2p/02m_5p7958535cp2tpgps0400000gn/T//ccA97qDZ.s:17     .text._ZN9UIManager4InitEv:0000000000000000 $t
/var/folders/2p/02m_5p7958535cp2tpgps0400000gn/T//ccA97qDZ.s:24     .text._ZN9UIManager4InitEv:0000000000000000 _ZN9UIManager4InitEv
/var/folders/2p/02m_5p7958535cp2tpgps0400000gn/T//ccA97qDZ.s:133    .text._ZN9UIManager4InitEv:0000000000000048 $d
/var/folders/2p/02m_5p7958535cp2tpgps0400000gn/T//ccA97qDZ.s:4074   .text._ZL17StaticLedCallbackPv:0000000000000000 _ZL17StaticLedCallbackPv
/var/folders/2p/02m_5p7958535cp2tpgps0400000gn/T//ccA97qDZ.s:140    .text._ZN9UIManager11UpdateKnobsEv:0000000000000000 $t
/var/folders/2p/02m_5p7958535cp2tpgps0400000gn/T//ccA97qDZ.s:147    .text._ZN9UIManager11UpdateKnobsEv:0000000000000000 _ZN9UIManager11UpdateKnobsEv
/var/folders/2p/02m_5p7958535cp2tpgps0400000gn/T//ccA97qDZ.s:349    .text._ZN9UIManager11UpdateKnobsEv:000000000000009c $d
/var/folders/2p/02m_5p7958535cp2tpgps0400000gn/T//ccA97qDZ.s:361    .rodata._ZN9UIManager13HandleButton1Ev.str1.4:0000000000000000 $d
/var/folders/2p/02m_5p7958535cp2tpgps0400000gn/T//ccA97qDZ.s:389    .text._ZN9UIManager13HandleButton1Ev:0000000000000000 $t
/var/folders/2p/02m_5p7958535cp2tpgps0400000gn/T//ccA97qDZ.s:396    .text._ZN9UIManager13HandleButton1Ev:0000000000000000 _ZN9UIManager13HandleButton1Ev
/var/folders/2p/02m_5p7958535cp2tpgps0400000gn/T//ccA97qDZ.s:433    .text._ZN9UIManager13HandleButton1Ev:0000000000000014 $d
/var/folders/2p/02m_5p7958535cp2tpgps0400000gn/T//ccA97qDZ.s:462    .text._ZN9UIManager13HandleButton1Ev:0000000000000026 $d
/var/folders/2p/02m_5p7958535cp2tpgps0400000gn/T//ccA97qDZ.s:742    .text._ZN9UIManager13HandleButton1Ev:0000000000000080 $d
/var/folders/2p/02m_5p7958535cp2tpgps0400000gn/T//ccA97qDZ.s:760    .text._ZN9UIManager13HandleButton2Ev:0000000000000000 $t
/var/folders/2p/02m_5p7958535cp2tpgps0400000gn/T//ccA97qDZ.s:767    .text._ZN9UIManager13HandleButton2Ev:0000000000000000 _ZN9UIManager13HandleButton2Ev
/var/folders/2p/02m_5p7958535cp2tpgps0400000gn/T//ccA97qDZ.s:810    .text._ZN9UIManager13HandleButton2Ev:0000000000000016 $d
/var/folders/2p/02m_5p7958535cp2tpgps0400000gn/T//ccA97qDZ.s:817    .text._ZN9UIManager13HandleButton2Ev:000000000000001c $t
/var/folders/2p/02m_5p7958535cp2tpgps0400000gn/T//ccA97qDZ.s:1010   .text._ZN9UIManager13HandleButton2Ev:0000000000000078 $d
/var/folders/2p/02m_5p7958535cp2tpgps0400000gn/T//ccA97qDZ.s:1016   .text._ZN9UIManager22HandleButton1LongPressEv:0000000000000000 $t
/var/folders/2p/02m_5p7958535cp2tpgps0400000gn/T//ccA97qDZ.s:1023   .text._ZN9UIManager22HandleButton1LongPressEv:0000000000000000 _ZN9UIManager22HandleButton1LongPressEv
/var/folders/2p/02m_5p7958535cp2tpgps0400000gn/T//ccA97qDZ.s:1215   .text._ZN9UIManager22HandleButton1LongPressEv:000000000000005c $d
/var/folders/2p/02m_5p7958535cp2tpgps0400000gn/T//ccA97qDZ.s:1221   .text._ZN9UIManager22HandleButton2LongPressEv:0000000000000000 $t
/var/folders/2p/02m_5p7958535cp2tpgps0400000gn/T//ccA97qDZ.s:1228   .text._ZN9UIManager22HandleButton2LongPressEv:0000000000000000 _ZN9UIManager22HandleButton2LongPressEv
/var/folders/2p/02m_5p7958535cp2tpgps0400000gn/T//ccA97qDZ.s:1417   .text._ZN9UIManager22HandleButton2LongPressEv:000000000000005c $d
/var/folders/2p/02m_5p7958535cp2tpgps0400000gn/T//ccA97qDZ.s:1423   .text._ZN9UIManager20HandleEncoderPressedEv:0000000000000000 $t
/var/folders/2p/02m_5p7958535cp2tpgps0400000gn/T//ccA97qDZ.s:1430   .text._ZN9UIManager20HandleEncoderPressedEv:0000000000000000 _ZN9UIManager20HandleEncoderPressedEv
/var/folders/2p/02m_5p7958535cp2tpgps0400000gn/T//ccA97qDZ.s:1466   .text._ZN9UIManager22HandleEncoderLongPressEv:0000000000000000 $t
/var/folders/2p/02m_5p7958535cp2tpgps0400000gn/T//ccA97qDZ.s:1473   .text._ZN9UIManager22HandleEncoderLongPressEv:0000000000000000 _ZN9UIManager22HandleEncoderLongPressEv
/var/folders/2p/02m_5p7958535cp2tpgps0400000gn/T//ccA97qDZ.s:1518   .text._ZN9UIManager8SetStateE8AppState:0000000000000000 $t
/var/folders/2p/02m_5p7958535cp2tpgps0400000gn/T//ccA97qDZ.s:1525   .text._ZN9UIManager8SetStateE8AppState:0000000000000000 _ZN9UIManager8SetStateE8AppState
/var/folders/2p/02m_5p7958535cp2tpgps0400000gn/T//ccA97qDZ.s:1542   .text._ZN9UIManager13SetStateErrorEv:0000000000000000 $t
/var/folders/2p/02m_5p7958535cp2tpgps0400000gn/T//ccA97qDZ.s:1549   .text._ZN9UIManager13SetStateErrorEv:0000000000000000 _ZN9UIManager13SetStateErrorEv
/var/folders/2p/02m_5p7958535cp2tpgps0400000gn/T//ccA97qDZ.s:1679   .text._ZN9UIManager13SetStateErrorEv:000000000000006c $d
/var/folders/2p/02m_5p7958535cp2tpgps0400000gn/T//ccA97qDZ.s:1685   .text._ZN9UIManager15UpdateSynthModeEv:0000000000000000 $t
/var/folders/2p/02m_5p7958535cp2tpgps0400000gn/T//ccA97qDZ.s:1692   .text._ZN9UIManager15UpdateSynthModeEv:0000000000000000 _ZN9UIManager15UpdateSynthModeEv
/var/folders/2p/02m_5p7958535cp2tpgps0400000gn/T//ccA97qDZ.s:1706   .text._ZN9UIManager15UpdateSynthModeEv:000000000000000a $d
/var/folders/2p/02m_5p7958535cp2tpgps0400000gn/T//ccA97qDZ.s:1752   .text._ZN9UIManager24ToggleRandomnessControlsEv:0000000000000000 $t
/var/folders/2p/02m_5p7958535cp2tpgps0400000gn/T//ccA97qDZ.s:1759   .text._ZN9UIManager24ToggleRandomnessControlsEv:0000000000000000 _ZN9UIManager24ToggleRandomnessControlsEv
/var/folders/2p/02m_5p7958535cp2tpgps0400000gn/T//ccA97qDZ.s:1773   .text._ZN9UIManager24ToggleRandomnessControlsEv:000000000000000a $d
/var/folders/2p/02m_5p7958535cp2tpgps0400000gn/T//ccA97qDZ.s:1779   .text._ZN9UIManager24ToggleRandomnessControlsEv:0000000000000010 $t
/var/folders/2p/02m_5p7958535cp2tpgps0400000gn/T//ccA97qDZ.s:1834   .text._ZN9UIManager20ToggleReverbControlsEv:0000000000000000 $t
/var/folders/2p/02m_5p7958535cp2tpgps0400000gn/T//ccA97qDZ.s:1841   .text._ZN9UIManager20ToggleReverbControlsEv:0000000000000000 _ZN9UIManager20ToggleReverbControlsEv
/var/folders/2p/02m_5p7958535cp2tpgps0400000gn/T//ccA97qDZ.s:1875   .text._ZN9UIManager20ToggleFilterControlsEv:0000000000000000 $t
/var/folders/2p/02m_5p7958535cp2tpgps0400000gn/T//ccA97qDZ.s:1882   .text._ZN9UIManager20ToggleFilterControlsEv:0000000000000000 _ZN9UIManager20ToggleFilterControlsEv
/var/folders/2p/02m_5p7958535cp2tpgps0400000gn/T//ccA97qDZ.s:1916   .text._ZN9UIManager15ToggleRecordOutEv:0000000000000000 $t
/var/folders/2p/02m_5p7958535cp2tpgps0400000gn/T//ccA97qDZ.s:1923   .text._ZN9UIManager15ToggleRecordOutEv:0000000000000000 _ZN9UIManager15ToggleRecordOutEv
/var/folders/2p/02m_5p7958535cp2tpgps0400000gn/T//ccA97qDZ.s:1941   .text._ZN9UIManager13GetKnob1ValueEi:0000000000000000 $t
/var/folders/2p/02m_5p7958535cp2tpgps0400000gn/T//ccA97qDZ.s:1948   .text._ZN9UIManager13GetKnob1ValueEi:0000000000000000 _ZN9UIManager13GetKnob1ValueEi
/var/folders/2p/02m_5p7958535cp2tpgps0400000gn/T//ccA97qDZ.s:1967   .text._ZN9UIManager13GetKnob2ValueEi:0000000000000000 $t
/var/folders/2p/02m_5p7958535cp2tpgps0400000gn/T//ccA97qDZ.s:1974   .text._ZN9UIManager13GetKnob2ValueEi:0000000000000000 _ZN9UIManager13GetKnob2ValueEi
/var/folders/2p/02m_5p7958535cp2tpgps0400000gn/T//ccA97qDZ.s:1993   .text._ZN9UIManager19GetEncoderIncrementEv:0000000000000000 $t
/var/folders/2p/02m_5p7958535cp2tpgps0400000gn/T//ccA97qDZ.s:2000   .text._ZN9UIManager19GetEncoderIncrementEv:0000000000000000 _ZN9UIManager19GetEncoderIncrementEv
/var/folders/2p/02m_5p7958535cp2tpgps0400000gn/T//ccA97qDZ.s:2033   .text._ZN9UIManager14EncoderPressedEv:0000000000000000 $t
/var/folders/2p/02m_5p7958535cp2tpgps0400000gn/T//ccA97qDZ.s:2040   .text._ZN9UIManager14EncoderPressedEv:0000000000000000 _ZN9UIManager14EncoderPressedEv
/var/folders/2p/02m_5p7958535cp2tpgps0400000gn/T//ccA97qDZ.s:2085   .text._ZN9UIManager16EncoderLongPressEv:0000000000000000 $t
ARM GAS  /var/folders/2p/02m_5p7958535cp2tpgps0400000gn/T//ccA97qDZ.s 			page 161


/var/folders/2p/02m_5p7958535cp2tpgps0400000gn/T//ccA97qDZ.s:2092   .text._ZN9UIManager16EncoderLongPressEv:0000000000000000 _ZN9UIManager16EncoderLongPressEv
/var/folders/2p/02m_5p7958535cp2tpgps0400000gn/T//ccA97qDZ.s:2178   .text._ZN9UIManager16EncoderLongPressEv:0000000000000038 $d
/var/folders/2p/02m_5p7958535cp2tpgps0400000gn/T//ccA97qDZ.s:2183   .text._ZN9UIManager14Button1PressedEv:0000000000000000 $t
/var/folders/2p/02m_5p7958535cp2tpgps0400000gn/T//ccA97qDZ.s:2190   .text._ZN9UIManager14Button1PressedEv:0000000000000000 _ZN9UIManager14Button1PressedEv
/var/folders/2p/02m_5p7958535cp2tpgps0400000gn/T//ccA97qDZ.s:2227   .text._ZN9UIManager16Button1LongPressEv:0000000000000000 $t
/var/folders/2p/02m_5p7958535cp2tpgps0400000gn/T//ccA97qDZ.s:2234   .text._ZN9UIManager16Button1LongPressEv:0000000000000000 _ZN9UIManager16Button1LongPressEv
/var/folders/2p/02m_5p7958535cp2tpgps0400000gn/T//ccA97qDZ.s:2309   .text._ZN9UIManager16Button1LongPressEv:0000000000000038 $d
/var/folders/2p/02m_5p7958535cp2tpgps0400000gn/T//ccA97qDZ.s:2314   .text._ZN9UIManager14Button2PressedEv:0000000000000000 $t
/var/folders/2p/02m_5p7958535cp2tpgps0400000gn/T//ccA97qDZ.s:2321   .text._ZN9UIManager14Button2PressedEv:0000000000000000 _ZN9UIManager14Button2PressedEv
/var/folders/2p/02m_5p7958535cp2tpgps0400000gn/T//ccA97qDZ.s:2358   .text._ZN9UIManager16Button2LongPressEv:0000000000000000 $t
/var/folders/2p/02m_5p7958535cp2tpgps0400000gn/T//ccA97qDZ.s:2365   .text._ZN9UIManager16Button2LongPressEv:0000000000000000 _ZN9UIManager16Button2LongPressEv
/var/folders/2p/02m_5p7958535cp2tpgps0400000gn/T//ccA97qDZ.s:2440   .text._ZN9UIManager16Button2LongPressEv:0000000000000038 $d
/var/folders/2p/02m_5p7958535cp2tpgps0400000gn/T//ccA97qDZ.s:2445   .text._ZN9UIManager15MapKnobDeadzoneEf:0000000000000000 $t
/var/folders/2p/02m_5p7958535cp2tpgps0400000gn/T//ccA97qDZ.s:2452   .text._ZN9UIManager15MapKnobDeadzoneEf:0000000000000000 _ZN9UIManager15MapKnobDeadzoneEf
/var/folders/2p/02m_5p7958535cp2tpgps0400000gn/T//ccA97qDZ.s:2486   .text._ZN9UIManager15MapKnobDeadzoneEf:000000000000002c $d
/var/folders/2p/02m_5p7958535cp2tpgps0400000gn/T//ccA97qDZ.s:2493   .text._ZN9UIManager18UpdateKnobPassThruEfPfPb:0000000000000000 $t
/var/folders/2p/02m_5p7958535cp2tpgps0400000gn/T//ccA97qDZ.s:2500   .text._ZN9UIManager18UpdateKnobPassThruEfPfPb:0000000000000000 _ZN9UIManager18UpdateKnobPassThruEfPfPb
/var/folders/2p/02m_5p7958535cp2tpgps0400000gn/T//ccA97qDZ.s:2528   .text._ZN9UIManager10SetupTimerEv:0000000000000000 $t
/var/folders/2p/02m_5p7958535cp2tpgps0400000gn/T//ccA97qDZ.s:2535   .text._ZN9UIManager10SetupTimerEv:0000000000000000 _ZN9UIManager10SetupTimerEv
/var/folders/2p/02m_5p7958535cp2tpgps0400000gn/T//ccA97qDZ.s:2613   .text._ZN9UIManager10SetupTimerEv:0000000000000040 $d
/var/folders/2p/02m_5p7958535cp2tpgps0400000gn/T//ccA97qDZ.s:2620   .text._ZN9UIManager16SetLedRandomModeEv:0000000000000000 $t
/var/folders/2p/02m_5p7958535cp2tpgps0400000gn/T//ccA97qDZ.s:2627   .text._ZN9UIManager16SetLedRandomModeEv:0000000000000000 _ZN9UIManager16SetLedRandomModeEv
/var/folders/2p/02m_5p7958535cp2tpgps0400000gn/T//ccA97qDZ.s:2748   .text._ZN9UIManager16SetLedRandomModeEv:0000000000000054 $d
/var/folders/2p/02m_5p7958535cp2tpgps0400000gn/T//ccA97qDZ.s:2756   .text._ZN9UIManager12SetLedFXModeEv:0000000000000000 $t
/var/folders/2p/02m_5p7958535cp2tpgps0400000gn/T//ccA97qDZ.s:2763   .text._ZN9UIManager12SetLedFXModeEv:0000000000000000 _ZN9UIManager12SetLedFXModeEv
/var/folders/2p/02m_5p7958535cp2tpgps0400000gn/T//ccA97qDZ.s:2868   .text._ZN9UIManager12SetLedFXModeEv:0000000000000050 $d
/var/folders/2p/02m_5p7958535cp2tpgps0400000gn/T//ccA97qDZ.s:2877   .text._ZN9UIManager13StartLedPulseEv:0000000000000000 $t
/var/folders/2p/02m_5p7958535cp2tpgps0400000gn/T//ccA97qDZ.s:2884   .text._ZN9UIManager13StartLedPulseEv:0000000000000000 _ZN9UIManager13StartLedPulseEv
/var/folders/2p/02m_5p7958535cp2tpgps0400000gn/T//ccA97qDZ.s:2917   .text._ZN9UIManager12StopLedPulseEv:0000000000000000 $t
/var/folders/2p/02m_5p7958535cp2tpgps0400000gn/T//ccA97qDZ.s:2924   .text._ZN9UIManager12StopLedPulseEv:0000000000000000 _ZN9UIManager12StopLedPulseEv
/var/folders/2p/02m_5p7958535cp2tpgps0400000gn/T//ccA97qDZ.s:2944   .text._ZN9UIManager6SetLedEiiib:0000000000000000 $t
/var/folders/2p/02m_5p7958535cp2tpgps0400000gn/T//ccA97qDZ.s:2951   .text._ZN9UIManager6SetLedEiiib:0000000000000000 _ZN9UIManager6SetLedEiiib
/var/folders/2p/02m_5p7958535cp2tpgps0400000gn/T//ccA97qDZ.s:3020   .text._ZN9UIManager8BlinkLedEiiib:0000000000000000 $t
/var/folders/2p/02m_5p7958535cp2tpgps0400000gn/T//ccA97qDZ.s:3027   .text._ZN9UIManager8BlinkLedEiiib:0000000000000000 _ZN9UIManager8BlinkLedEiiib
/var/folders/2p/02m_5p7958535cp2tpgps0400000gn/T//ccA97qDZ.s:3174   .text._ZN9UIManager8BlinkLedEiiib:0000000000000094 $d
/var/folders/2p/02m_5p7958535cp2tpgps0400000gn/T//ccA97qDZ.s:3181   .text._ZN9UIManager11BlinkSetLedEiiib:0000000000000000 $t
/var/folders/2p/02m_5p7958535cp2tpgps0400000gn/T//ccA97qDZ.s:3188   .text._ZN9UIManager11BlinkSetLedEiiib:0000000000000000 _ZN9UIManager11BlinkSetLedEiiib
/var/folders/2p/02m_5p7958535cp2tpgps0400000gn/T//ccA97qDZ.s:3580   .text._ZN9UIManager11BlinkSetLedEiiib:0000000000000194 $d
/var/folders/2p/02m_5p7958535cp2tpgps0400000gn/T//ccA97qDZ.s:3587   .text._ZN9UIManager15SetLedSynthModeEv:0000000000000000 $t
/var/folders/2p/02m_5p7958535cp2tpgps0400000gn/T//ccA97qDZ.s:3594   .text._ZN9UIManager15SetLedSynthModeEv:0000000000000000 _ZN9UIManager15SetLedSynthModeEv
/var/folders/2p/02m_5p7958535cp2tpgps0400000gn/T//ccA97qDZ.s:3625   .text._ZN9UIManager15SetLedSynthModeEv:0000000000000018 $d
/var/folders/2p/02m_5p7958535cp2tpgps0400000gn/T//ccA97qDZ.s:3736   .text._ZN9UIManager15SetLedSynthModeEv:0000000000000078 $d
/var/folders/2p/02m_5p7958535cp2tpgps0400000gn/T//ccA97qDZ.s:3745   .text._ZN9UIManager16LedPulseCallbackEv:0000000000000000 $t
/var/folders/2p/02m_5p7958535cp2tpgps0400000gn/T//ccA97qDZ.s:3752   .text._ZN9UIManager16LedPulseCallbackEv:0000000000000000 _ZN9UIManager16LedPulseCallbackEv
/var/folders/2p/02m_5p7958535cp2tpgps0400000gn/T//ccA97qDZ.s:3794   .text._ZN9UIManager16LedPulseCallbackEv:0000000000000028 $d
/var/folders/2p/02m_5p7958535cp2tpgps0400000gn/T//ccA97qDZ.s:4063   .text._ZN9UIManager16LedPulseCallbackEv:0000000000000124 $d
/var/folders/2p/02m_5p7958535cp2tpgps0400000gn/T//ccA97qDZ.s:4068   .text._ZL17StaticLedCallbackPv:0000000000000000 $t
/var/folders/2p/02m_5p7958535cp2tpgps0400000gn/T//ccA97qDZ.s:4128   .text._ZL17StaticLedCallbackPv:0000000000000028 $d
/var/folders/2p/02m_5p7958535cp2tpgps0400000gn/T//ccA97qDZ.s:4408   .text._ZL17StaticLedCallbackPv:0000000000000124 $d
/var/folders/2p/02m_5p7958535cp2tpgps0400000gn/T//ccA97qDZ.s:4413   .rodata._ZN9UIManager15DebugPrintStateEv.str1.4:0000000000000000 $d
/var/folders/2p/02m_5p7958535cp2tpgps0400000gn/T//ccA97qDZ.s:4435   .text._ZN9UIManager15DebugPrintStateEv:0000000000000000 $t
/var/folders/2p/02m_5p7958535cp2tpgps0400000gn/T//ccA97qDZ.s:4442   .text._ZN9UIManager15DebugPrintStateEv:0000000000000000 _ZN9UIManager15DebugPrintStateEv
/var/folders/2p/02m_5p7958535cp2tpgps0400000gn/T//ccA97qDZ.s:4456   .text._ZN9UIManager15DebugPrintStateEv:000000000000000a $d
/var/folders/2p/02m_5p7958535cp2tpgps0400000gn/T//ccA97qDZ.s:4462   .text._ZN9UIManager15DebugPrintStateEv:0000000000000010 $t
/var/folders/2p/02m_5p7958535cp2tpgps0400000gn/T//ccA97qDZ.s:4583   .text._ZN9UIManager15DebugPrintStateEv:000000000000003c $d
/var/folders/2p/02m_5p7958535cp2tpgps0400000gn/T//ccA97qDZ.s:4596   .text._ZN9UIManager19DebugPrintSynthModeEv:0000000000000000 $t
/var/folders/2p/02m_5p7958535cp2tpgps0400000gn/T//ccA97qDZ.s:4603   .text._ZN9UIManager19DebugPrintSynthModeEv:0000000000000000 _ZN9UIManager19DebugPrintSynthModeEv
ARM GAS  /var/folders/2p/02m_5p7958535cp2tpgps0400000gn/T//ccA97qDZ.s 			page 162


/var/folders/2p/02m_5p7958535cp2tpgps0400000gn/T//ccA97qDZ.s:4617   .text._ZN9UIManager19DebugPrintSynthModeEv:000000000000000a $d
/var/folders/2p/02m_5p7958535cp2tpgps0400000gn/T//ccA97qDZ.s:4787   .text._ZN9UIManager19DebugPrintSynthModeEv:000000000000004c $d
/var/folders/2p/02m_5p7958535cp2tpgps0400000gn/T//ccA97qDZ.s:4800   .text._ZN9UIManager11UpdateStateEv:0000000000000000 $t
/var/folders/2p/02m_5p7958535cp2tpgps0400000gn/T//ccA97qDZ.s:4807   .text._ZN9UIManager11UpdateStateEv:0000000000000000 _ZN9UIManager11UpdateStateEv
/var/folders/2p/02m_5p7958535cp2tpgps0400000gn/T//ccA97qDZ.s:5726   .text._ZN9UIManager11UpdateStateEv:00000000000001b8 $d
/var/folders/2p/02m_5p7958535cp2tpgps0400000gn/T//ccA97qDZ.s:5734   .text._ZN9UIManager11UpdateStateEv:00000000000001d4 $t
/var/folders/2p/02m_5p7958535cp2tpgps0400000gn/T//ccA97qDZ.s:5815   .text._ZN9UIManager11UpdateStateEv:00000000000001f6 $d
/var/folders/2p/02m_5p7958535cp2tpgps0400000gn/T//ccA97qDZ.s:5822   .text._ZN9UIManager11UpdateStateEv:00000000000001fc $t
/var/folders/2p/02m_5p7958535cp2tpgps0400000gn/T//ccA97qDZ.s:6227   .text._ZN9UIManager11UpdateStateEv:00000000000002c0 $d
/var/folders/2p/02m_5p7958535cp2tpgps0400000gn/T//ccA97qDZ.s:6239   .text._ZN9UIManager8UpdateUIEv:0000000000000000 $t
/var/folders/2p/02m_5p7958535cp2tpgps0400000gn/T//ccA97qDZ.s:6246   .text._ZN9UIManager8UpdateUIEv:0000000000000000 _ZN9UIManager8UpdateUIEv
/var/folders/2p/02m_5p7958535cp2tpgps0400000gn/T//ccA97qDZ.s:6503   .text._ZN9UIManager8UpdateUIEv:00000000000000b4 $d
/var/folders/2p/02m_5p7958535cp2tpgps0400000gn/T//ccA97qDZ.s:441    .text._ZN9UIManager13HandleButton1Ev:000000000000001b $d
/var/folders/2p/02m_5p7958535cp2tpgps0400000gn/T//ccA97qDZ.s:441    .text._ZN9UIManager13HandleButton1Ev:000000000000001c $t
/var/folders/2p/02m_5p7958535cp2tpgps0400000gn/T//ccA97qDZ.s:471    .text._ZN9UIManager13HandleButton1Ev:000000000000002f $d
/var/folders/2p/02m_5p7958535cp2tpgps0400000gn/T//ccA97qDZ.s:471    .text._ZN9UIManager13HandleButton1Ev:0000000000000030 $t
/var/folders/2p/02m_5p7958535cp2tpgps0400000gn/T//ccA97qDZ.s:1713   .text._ZN9UIManager15UpdateSynthModeEv:0000000000000011 $d
/var/folders/2p/02m_5p7958535cp2tpgps0400000gn/T//ccA97qDZ.s:1713   .text._ZN9UIManager15UpdateSynthModeEv:0000000000000012 $t
/var/folders/2p/02m_5p7958535cp2tpgps0400000gn/T//ccA97qDZ.s:3632   .text._ZN9UIManager15SetLedSynthModeEv:000000000000001f $d
/var/folders/2p/02m_5p7958535cp2tpgps0400000gn/T//ccA97qDZ.s:3632   .text._ZN9UIManager15SetLedSynthModeEv:0000000000000020 $t
/var/folders/2p/02m_5p7958535cp2tpgps0400000gn/T//ccA97qDZ.s:3800   .text._ZN9UIManager16LedPulseCallbackEv:000000000000002d $d
/var/folders/2p/02m_5p7958535cp2tpgps0400000gn/T//ccA97qDZ.s:3800   .text._ZN9UIManager16LedPulseCallbackEv:000000000000002e $t
/var/folders/2p/02m_5p7958535cp2tpgps0400000gn/T//ccA97qDZ.s:4134   .text._ZL17StaticLedCallbackPv:000000000000002d $d
/var/folders/2p/02m_5p7958535cp2tpgps0400000gn/T//ccA97qDZ.s:4134   .text._ZL17StaticLedCallbackPv:000000000000002e $t
/var/folders/2p/02m_5p7958535cp2tpgps0400000gn/T//ccA97qDZ.s:4626   .text._ZN9UIManager19DebugPrintSynthModeEv:0000000000000013 $d
/var/folders/2p/02m_5p7958535cp2tpgps0400000gn/T//ccA97qDZ.s:4626   .text._ZN9UIManager19DebugPrintSynthModeEv:0000000000000014 $t

UNDEFINED SYMBOLS
_ZN5daisy11TimerHandle4InitERKNS0_6ConfigE
_ZN5daisy11TimerHandle12SetPrescalerEm
_ZN5daisy11TimerHandle11SetCallbackEPFvPvES1_
_ZN5daisy13AnalogControl7ProcessEv
_ZN5daisy6LoggerILNS_17LoggerDestinationE1EE9PrintLineEPKcz
_ZN5daisy6RgbLed3SetEfff
_ZN5daisy8DaisyPod10UpdateLedsEv
_ZN5daisy6System5DelayEm
_ZN5daisy11TimerHandle4StopEv
_ZN5daisy6System6GetNowEv
_ZN5daisy11TimerHandle5StartEv
_ZN5daisy8DaisyPod22ProcessDigitalControlsEv
