ARM GAS  /var/folders/2p/02m_5p7958535cp2tpgps0400000gn/T//ccFNlQE7.s 			page 1


   1              		.cpu cortex-m7
   2              		.arch armv7e-m
   3              		.fpu fpv5-d16
   4              		.eabi_attribute 28, 1
   5              		.eabi_attribute 20, 1
   6              		.eabi_attribute 21, 1
   7              		.eabi_attribute 23, 3
   8              		.eabi_attribute 24, 1
   9              		.eabi_attribute 25, 1
  10              		.eabi_attribute 26, 1
  11              		.eabi_attribute 30, 2
  12              		.eabi_attribute 34, 1
  13              		.eabi_attribute 18, 4
  14              		.file	"UIManager.cpp"
  15              		.text
  16              	.Ltext0:
  17              		.cfi_sections	.debug_frame
  18              		.section	.text._ZN9UIManager11UpdateKnobsEv.part.0,"ax",%progbits
  19              		.align	1
  20              		.p2align 2,,3
  21              		.syntax unified
  22              		.thumb
  23              		.thumb_func
  25              	_ZN9UIManager11UpdateKnobsEv.part.0:
  26              	.LVL0:
  27              	.LFB2641:
  28              		.file 1 "UIManager.cpp"
   1:UIManager.cpp **** #include "UIManager.h"
   2:UIManager.cpp **** 
   3:UIManager.cpp **** void UIManager::Init(){
   4:UIManager.cpp ****   SetupTimer();
   5:UIManager.cpp ****   StartLedPulse();
   6:UIManager.cpp **** }
   7:UIManager.cpp **** 
   8:UIManager.cpp **** void UIManager::UpdateControls(){
   9:UIManager.cpp ****   if (!crash_error){
  10:UIManager.cpp ****     // pod_.ProcessAllControls();
  11:UIManager.cpp ****     UpdateKnobs();
  12:UIManager.cpp ****       
  13:UIManager.cpp ****     // UpdateEncoder();
  14:UIManager.cpp ****     UpdateState();
  15:UIManager.cpp ****     // UpdateSynthMode();
  16:UIManager.cpp ****   }
  17:UIManager.cpp **** }
  18:UIManager.cpp **** 
  19:UIManager.cpp **** void UIManager::UpdateKnobs(){
  29              		.loc 1 19 6 view -0
  30              		.cfi_startproc
  31              		@ args = 0, pretend = 0, frame = 0
  32              		@ frame_needed = 0, uses_anonymous_args = 0
  33              	.LBB74:
  20:UIManager.cpp ****   if (current_state_ == AppState::Synthesis){
  21:UIManager.cpp ****     int mode_idx = static_cast<int>(synth_mode_);
  34              		.loc 1 21 5 view .LVU1
  35              	.LBE74:
  19:UIManager.cpp ****   if (current_state_ == AppState::Synthesis){
  36              		.loc 1 19 6 is_stmt 0 view .LVU2
ARM GAS  /var/folders/2p/02m_5p7958535cp2tpgps0400000gn/T//ccFNlQE7.s 			page 2


  37 0000 38B5     		push	{r3, r4, r5, lr}
  38              		.cfi_def_cfa_offset 16
  39              		.cfi_offset 3, -16
  40              		.cfi_offset 4, -12
  41              		.cfi_offset 5, -8
  42              		.cfi_offset 14, -4
  43 0002 0446     		mov	r4, r0
  44              	.LBB93:
  22:UIManager.cpp ****     float k1v = MapKnobDeadzone(pod_.knob1.Process());
  45              		.loc 1 22 32 view .LVU3
  46 0004 0068     		ldr	r0, [r0]
  47              	.LVL1:
  48              		.loc 1 22 32 view .LVU4
  49              	.LBE93:
  19:UIManager.cpp ****   if (current_state_ == AppState::Synthesis){
  50              		.loc 1 19 6 view .LVU5
  51 0006 2DED028B 		vpush.64	{d8}
  52              		.cfi_def_cfa_offset 24
  53              		.cfi_offset 80, -24
  54              		.cfi_offset 81, -20
  55              	.LBB94:
  56              		.loc 1 22 32 view .LVU6
  57 000a 6830     		adds	r0, r0, #104
  21:UIManager.cpp ****     float k1v = MapKnobDeadzone(pod_.knob1.Process());
  58              		.loc 1 21 9 view .LVU7
  59 000c A568     		ldr	r5, [r4, #8]
  60              	.LVL2:
  61              		.loc 1 22 5 is_stmt 1 view .LVU8
  62              		.loc 1 22 32 is_stmt 0 view .LVU9
  63 000e FFF7FEFF 		bl	_ZN5daisy13AnalogControl7ProcessEv
  64              	.LVL3:
  65              	.LBB75:
  66              	.LBB76:
  23:UIManager.cpp ****     float k2v = MapKnobDeadzone(pod_.knob2.Process());
  24:UIManager.cpp **** 
  25:UIManager.cpp ****     /* here we pass the current knob value, pointer to the stored knob value for this mode,
  26:UIManager.cpp ****       and a pointer to the bool which tracks whether the knob value has been passed through */
  27:UIManager.cpp ****     k1v_[mode_idx] = UpdateKnobPassThru(k1v, &k1v_[mode_idx], &k1_pass_thru_[mode_idx]);
  28:UIManager.cpp ****     k2v_[mode_idx] = UpdateKnobPassThru(k2v, &k2v_[mode_idx], &k2_pass_thru_[mode_idx]);
  29:UIManager.cpp ****   }
  30:UIManager.cpp **** }
  31:UIManager.cpp **** 
  32:UIManager.cpp **** // void UIManager::UpdateEncoder(){
  33:UIManager.cpp **** //   pod_.encoder.Debounce();
  34:UIManager.cpp **** // }
  35:UIManager.cpp **** 
  36:UIManager.cpp **** // use encoder to select states - led is flashing in state selection mode
  37:UIManager.cpp **** // or could slowly go from low - high - low brightness / pulsing
  38:UIManager.cpp **** //   startup led1 =white
  39:UIManager.cpp **** //   selectfile led1 = blue
  40:UIManager.cpp **** //   playwav led1 = cyan
  41:UIManager.cpp **** //   synthesis led1 = green
  42:UIManager.cpp **** //   error led1 = red
  43:UIManager.cpp **** 
  44:UIManager.cpp **** // once synth loads it will be set to solid colour showing the synth mode
  45:UIManager.cpp **** // use button1 to select synth modes
  46:UIManager.cpp **** //   green for first mode? so it's easy to remember flash green = synth, solid green = first mode
ARM GAS  /var/folders/2p/02m_5p7958535cp2tpgps0400000gn/T//ccFNlQE7.s 			page 3


  47:UIManager.cpp **** //   then maybe orange / blue / pink? 
  48:UIManager.cpp **** // led could flash when a mode is changed? 
  49:UIManager.cpp **** // use button2 to flip from controlling synth params to randomness of those params
  50:UIManager.cpp **** //   in param control mode, led2 is green
  51:UIManager.cpp **** //   in randomness mode, led2 is red
  52:UIManager.cpp **** 
  53:UIManager.cpp **** 
  54:UIManager.cpp **** void UIManager::UpdateState(){
  55:UIManager.cpp ****   pod_.ProcessDigitalControls();
  56:UIManager.cpp ****   // TODO: change this to encoder pressed?? 
  57:UIManager.cpp ****   if (Button1Pressed()){
  58:UIManager.cpp ****     switch(current_state_){
  59:UIManager.cpp ****       case AppState::Startup:
  60:UIManager.cpp ****         // NOTE: state should auto change to select file once startup is finished
  61:UIManager.cpp ****         // TODO: set this in app once built
  62:UIManager.cpp ****         current_state_ = AppState::SelectFile; 
  63:UIManager.cpp ****         break;
  64:UIManager.cpp ****       case AppState::SelectFile:
  65:UIManager.cpp ****         current_state_ = AppState::PlayWAV;
  66:UIManager.cpp ****         // NOTE: need to start audiocallback once file is successfully selected/loaded
  67:UIManager.cpp ****         // NOTE: should i select next state (ie playwav) by clicking encoder? or pressing button1? 
  68:UIManager.cpp ****         break;
  69:UIManager.cpp ****       case AppState::PlayWAV:
  70:UIManager.cpp ****         current_state_ = AppState::Synthesis;
  71:UIManager.cpp ****         synth_mode_ = SynthMode::Size_Position;
  72:UIManager.cpp ****         // StopLedPulse(); 
  73:UIManager.cpp ****         break;
  74:UIManager.cpp ****       case AppState::Synthesis:
  75:UIManager.cpp ****         UpdateSynthMode();
  76:UIManager.cpp ****         break;
  77:UIManager.cpp ****       default:
  78:UIManager.cpp ****         break;
  79:UIManager.cpp ****     }
  80:UIManager.cpp ****   }
  81:UIManager.cpp ****   if (Button2Pressed()){
  82:UIManager.cpp ****     switch(current_state_){
  83:UIManager.cpp ****       case AppState::Synthesis:
  84:UIManager.cpp ****         ToggleRandomnessControls();
  85:UIManager.cpp ****         SetLedRandomMode();
  86:UIManager.cpp ****         break;
  87:UIManager.cpp ****       default:
  88:UIManager.cpp ****         break;
  89:UIManager.cpp ****     }
  90:UIManager.cpp ****   }
  91:UIManager.cpp ****   /* exit synthesis mode, return to file selection, stop audio. */
  92:UIManager.cpp ****   if (EncoderLongPress()){
  93:UIManager.cpp ****     switch (current_state_){
  94:UIManager.cpp ****       case AppState::Synthesis:
  95:UIManager.cpp ****         pod_.StopAudio();
  96:UIManager.cpp ****         current_state_ = AppState::SelectFile;
  97:UIManager.cpp ****         StartLedPulse();
  98:UIManager.cpp ****         break;
  99:UIManager.cpp ****       default:
 100:UIManager.cpp ****         break;
 101:UIManager.cpp ****     }
 102:UIManager.cpp ****   }
 103:UIManager.cpp **** }
ARM GAS  /var/folders/2p/02m_5p7958535cp2tpgps0400000gn/T//ccFNlQE7.s 			page 4


 104:UIManager.cpp **** 
 105:UIManager.cpp **** void UIManager::SetStateError(){
 106:UIManager.cpp ****   current_state_ = AppState::Error;
 107:UIManager.cpp ****   StopLedPulse();
 108:UIManager.cpp ****   SetLed(255,0,0,true);
 109:UIManager.cpp ****   SetLed(255,0,0,false);
 110:UIManager.cpp ****   crash_error = true;
 111:UIManager.cpp **** }
 112:UIManager.cpp **** 
 113:UIManager.cpp **** 
 114:UIManager.cpp **** // TODO: change this to button 1 being pressed
 115:UIManager.cpp **** // TODO: change randomness to button 2 pressed
 116:UIManager.cpp **** void UIManager::UpdateSynthMode(){
 117:UIManager.cpp ****   switch(synth_mode_){
 118:UIManager.cpp ****     case SynthMode::Size_Position:
 119:UIManager.cpp ****       synth_mode_ = SynthMode::Pitch_ActiveGrains;
 120:UIManager.cpp ****       break;
 121:UIManager.cpp ****     case SynthMode::Pitch_ActiveGrains:
 122:UIManager.cpp ****       synth_mode_ = SynthMode::Pan_PanRnd;
 123:UIManager.cpp ****       break;
 124:UIManager.cpp ****     case SynthMode::Pan_PanRnd:
 125:UIManager.cpp ****       synth_mode_ = SynthMode::PhasorMode_EnvType;
 126:UIManager.cpp ****       break;
 127:UIManager.cpp ****     case SynthMode::PhasorMode_EnvType:
 128:UIManager.cpp ****       synth_mode_ = SynthMode::Size_Position;
 129:UIManager.cpp ****       break;
 130:UIManager.cpp ****     default:
 131:UIManager.cpp ****       break;
 132:UIManager.cpp ****   }
 133:UIManager.cpp **** }
 134:UIManager.cpp **** 
 135:UIManager.cpp **** /* each synth mode (apart from pan) has 2 submodes: 
 136:UIManager.cpp ****   knobs either change the named parameters themselves (modes above), 
 137:UIManager.cpp ****   or change the degree of randomness applied to these parameters in granulation */
 138:UIManager.cpp **** void UIManager::ToggleRandomnessControls(){
 139:UIManager.cpp ****   switch(synth_mode_){
 140:UIManager.cpp ****     case SynthMode::Size_Position:
 141:UIManager.cpp ****       synth_mode_ = SynthMode::Size_Position_Rnd;
 142:UIManager.cpp ****       break;
 143:UIManager.cpp ****     case SynthMode::Size_Position_Rnd:
 144:UIManager.cpp ****       synth_mode_ = SynthMode::Size_Position;
 145:UIManager.cpp ****       break;
 146:UIManager.cpp ****     case SynthMode::Pitch_ActiveGrains:
 147:UIManager.cpp ****       synth_mode_ = SynthMode::Pitch_ActiveGrains_Rnd;
 148:UIManager.cpp ****       break;
 149:UIManager.cpp ****     case SynthMode::Pitch_ActiveGrains_Rnd:
 150:UIManager.cpp ****       synth_mode_ = SynthMode::Pitch_ActiveGrains;
 151:UIManager.cpp ****       break;
 152:UIManager.cpp ****     case SynthMode::PhasorMode_EnvType:
 153:UIManager.cpp ****       synth_mode_ = SynthMode::PhasorMode_EnvType_Rnd;
 154:UIManager.cpp ****       break;      
 155:UIManager.cpp ****     case SynthMode::PhasorMode_EnvType_Rnd:
 156:UIManager.cpp ****       synth_mode_ = SynthMode::PhasorMode_EnvType;
 157:UIManager.cpp ****       break;
 158:UIManager.cpp ****     case SynthMode::Pan_PanRnd:
 159:UIManager.cpp ****       break;
 160:UIManager.cpp ****     }
ARM GAS  /var/folders/2p/02m_5p7958535cp2tpgps0400000gn/T//ccFNlQE7.s 			page 5


 161:UIManager.cpp **** }
 162:UIManager.cpp **** 
 163:UIManager.cpp **** float UIManager::GetKnob1Value(int mode_idx){
 164:UIManager.cpp ****   return k1v_[mode_idx];
 165:UIManager.cpp **** }
 166:UIManager.cpp **** 
 167:UIManager.cpp **** float UIManager::GetKnob2Value(int mode_idx){
 168:UIManager.cpp ****   return k2v_[mode_idx];
 169:UIManager.cpp **** }
 170:UIManager.cpp **** 
 171:UIManager.cpp **** int32_t UIManager::GetEncoderIncrement(){
 172:UIManager.cpp ****   return pod_.encoder.Increment();
 173:UIManager.cpp **** }
 174:UIManager.cpp **** 
 175:UIManager.cpp **** bool UIManager::EncoderPressed(){
 176:UIManager.cpp ****   return pod_.encoder.FallingEdge();
 177:UIManager.cpp **** }
 178:UIManager.cpp **** 
 179:UIManager.cpp **** bool UIManager::EncoderLongPress(){
 180:UIManager.cpp ****   return pod_.encoder.TimeHeldMs() > 1000.0f;
 181:UIManager.cpp **** }
 182:UIManager.cpp **** 
 183:UIManager.cpp **** bool UIManager::Button1Pressed(){
 184:UIManager.cpp ****   return pod_.button1.FallingEdge();
 185:UIManager.cpp **** }
 186:UIManager.cpp **** 
 187:UIManager.cpp **** bool UIManager::Button2Pressed(){
 188:UIManager.cpp ****   return pod_.button2.FallingEdge();
 189:UIManager.cpp **** }
 190:UIManager.cpp **** 
 191:UIManager.cpp **** bool UIManager::Button2LongPress(){
 192:UIManager.cpp ****   return pod_.button2.TimeHeldMs() > 1000.0f;
 193:UIManager.cpp **** }
 194:UIManager.cpp **** 
 195:UIManager.cpp **** float UIManager::MapKnobDeadzone(float knob_val ){
 196:UIManager.cpp ****   if (knob_val<=0.01f) return 0.0f;
  67              		.loc 1 196 3 view .LVU10
  68 0012 DFED2D7A 		vldr.32	s15, .L26
  69              	.LVL4:
  70              		.loc 1 196 3 view .LVU11
  71              	.LBE76:
  72              	.LBI75:
 195:UIManager.cpp ****   if (knob_val<=0.01f) return 0.0f;
  73              		.loc 1 195 7 is_stmt 1 view .LVU12
  74              	.LBB77:
  75              		.loc 1 196 3 view .LVU13
  76 0016 B4EEE70A 		vcmpe.f32	s0, s15
  77 001a F1EE10FA 		vmrs	APSR_nzcv, FPSCR
  78 001e 4FD9     		bls	.L14
 197:UIManager.cpp ****   if (knob_val>=0.99f) return 1.0f;
  79              		.loc 1 197 3 view .LVU14
  80 0020 9FED2A7A 		vldr.32	s14, .L26+4
  81              		.loc 1 197 31 is_stmt 0 view .LVU15
  82 0024 F7EE007A 		vmov.f32	s15, #1.0e+0
  83 0028 B4EE470A 		vcmp.f32	s0, s14
  84 002c F1EE10FA 		vmrs	APSR_nzcv, FPSCR
  85 0030 27FE808A 		vselge.f32	s16, s15, s0
ARM GAS  /var/folders/2p/02m_5p7958535cp2tpgps0400000gn/T//ccFNlQE7.s 			page 6


  86              	.L2:
  87              	.LVL5:
  88              		.loc 1 197 31 view .LVU16
  89              	.LBE77:
  90              	.LBE75:
  23:UIManager.cpp ****     float k2v = MapKnobDeadzone(pod_.knob2.Process());
  91              		.loc 1 23 5 is_stmt 1 view .LVU17
  23:UIManager.cpp ****     float k2v = MapKnobDeadzone(pod_.knob2.Process());
  92              		.loc 1 23 32 is_stmt 0 view .LVU18
  93 0034 2068     		ldr	r0, [r4]
  94 0036 8830     		adds	r0, r0, #136
  95 0038 FFF7FEFF 		bl	_ZN5daisy13AnalogControl7ProcessEv
  96              	.LVL6:
  97              	.LBB79:
  98              	.LBB80:
 196:UIManager.cpp ****   if (knob_val>=0.99f) return 1.0f;
  99              		.loc 1 196 3 view .LVU19
 100 003c DFED227A 		vldr.32	s15, .L26
 101              	.LVL7:
 196:UIManager.cpp ****   if (knob_val>=0.99f) return 1.0f;
 102              		.loc 1 196 3 view .LVU20
 103              	.LBE80:
 104              	.LBI79:
 195:UIManager.cpp ****   if (knob_val<=0.01f) return 0.0f;
 105              		.loc 1 195 7 is_stmt 1 view .LVU21
 106              	.LBB81:
 196:UIManager.cpp ****   if (knob_val>=0.99f) return 1.0f;
 107              		.loc 1 196 3 view .LVU22
 108 0040 B4EEE70A 		vcmpe.f32	s0, s15
 109 0044 F1EE10FA 		vmrs	APSR_nzcv, FPSCR
 110 0048 37D9     		bls	.L15
 111              		.loc 1 197 3 view .LVU23
 112 004a 9FED207A 		vldr.32	s14, .L26+4
 113              		.loc 1 197 31 is_stmt 0 view .LVU24
 114 004e F7EE007A 		vmov.f32	s15, #1.0e+0
 115 0052 B4EE470A 		vcmp.f32	s0, s14
 116 0056 F1EE10FA 		vmrs	APSR_nzcv, FPSCR
 117 005a 27FE800A 		vselge.f32	s0, s15, s0
 118              	.LVL8:
 119              	.L4:
 120              		.loc 1 197 31 view .LVU25
 121              	.LBE81:
 122              	.LBE79:
  27:UIManager.cpp ****     k2v_[mode_idx] = UpdateKnobPassThru(k2v, &k2v_[mode_idx], &k2_pass_thru_[mode_idx]);
 123              		.loc 1 27 5 is_stmt 1 view .LVU26
 124              	.LBB83:
 125              	.LBI83:
 198:UIManager.cpp ****   return knob_val;
 199:UIManager.cpp **** }
 200:UIManager.cpp **** 
 201:UIManager.cpp **** /* here we check if the current value of the knob has moved through the last stored value 
 202:UIManager.cpp ****   before the synth mode changed, and only update the parameter once the current knob value
 203:UIManager.cpp ****   'passes through' the stored value - meaning if we set grain size to 0.1 then switch modes 
 204:UIManager.cpp ****   and move the knob to 0.8, if we switch back, grain size won't be updated again until the 
 205:UIManager.cpp ****   knob passes through this value.  */
 206:UIManager.cpp **** 
 207:UIManager.cpp **** float UIManager::UpdateKnobPassThru(float curr_knob_val, float *stored_knob_val, bool *pass_thru){
ARM GAS  /var/folders/2p/02m_5p7958535cp2tpgps0400000gn/T//ccFNlQE7.s 			page 7


 126              		.loc 1 207 7 view .LVU27
 127              	.LBB84:
 208:UIManager.cpp ****   if (!(*pass_thru)){
 128              		.loc 1 208 3 view .LVU28
 129              		.loc 1 208 9 is_stmt 0 view .LVU29
 130 005e 6319     		adds	r3, r4, r5
 131              		.loc 1 208 3 view .LVU30
 132 0060 1A7D     		ldrb	r2, [r3, #20]	@ zero_extendqisi2
 133 0062 52B9     		cbnz	r2, .L8
 209:UIManager.cpp ****     if (curr_knob_val >= (*stored_knob_val) || curr_knob_val <= (*stored_knob_val)) {
 134              		.loc 1 209 5 is_stmt 1 view .LVU31
 135              		.loc 1 209 27 is_stmt 0 view .LVU32
 136 0064 04EB8502 		add	r2, r4, r5, lsl #2
 137 0068 D2ED097A 		vldr.32	s15, [r2, #36]
 138              		.loc 1 209 5 view .LVU33
 139 006c F4EEC87A 		vcmpe.f32	s15, s16
 140 0070 F1EE10FA 		vmrs	APSR_nzcv, FPSCR
 141 0074 15D8     		bhi	.L24
 142              	.L7:
 210:UIManager.cpp ****       (*pass_thru) = true;
 143              		.loc 1 210 7 is_stmt 1 view .LVU34
 144              		.loc 1 210 20 is_stmt 0 view .LVU35
 145 0076 0122     		movs	r2, #1
 146 0078 1A75     		strb	r2, [r3, #20]
 147              	.LVL9:
 148              	.L8:
 149              		.loc 1 210 20 view .LVU36
 150 007a 04EB8504 		add	r4, r4, r5, lsl #2
 151              	.LVL10:
 152              		.loc 1 210 20 view .LVU37
 153              	.LBE84:
 154              	.LBE83:
  27:UIManager.cpp ****     k2v_[mode_idx] = UpdateKnobPassThru(k2v, &k2v_[mode_idx], &k2_pass_thru_[mode_idx]);
 155              		.loc 1 27 20 view .LVU38
 156 007e 84ED098A 		vstr.32	s16, [r4, #36]
  28:UIManager.cpp ****   }
 157              		.loc 1 28 5 is_stmt 1 view .LVU39
 158              	.LVL11:
 159              	.LBB86:
 160              	.LBI86:
 207:UIManager.cpp ****   if (!(*pass_thru)){
 161              		.loc 1 207 7 view .LVU40
 162              	.LBB87:
 208:UIManager.cpp ****     if (curr_knob_val >= (*stored_knob_val) || curr_knob_val <= (*stored_knob_val)) {
 163              		.loc 1 208 3 view .LVU41
 164 0082 DA7E     		ldrb	r2, [r3, #27]	@ zero_extendqisi2
 165 0084 42B9     		cbnz	r2, .L12
 209:UIManager.cpp ****       (*pass_thru) = true;
 166              		.loc 1 209 5 view .LVU42
 209:UIManager.cpp ****       (*pass_thru) = true;
 167              		.loc 1 209 27 is_stmt 0 view .LVU43
 168 0086 D4ED107A 		vldr.32	s15, [r4, #64]
 209:UIManager.cpp ****       (*pass_thru) = true;
 169              		.loc 1 209 5 view .LVU44
 170 008a F4EEC07A 		vcmpe.f32	s15, s0
 171 008e F1EE10FA 		vmrs	APSR_nzcv, FPSCR
 172 0092 0AD8     		bhi	.L25
ARM GAS  /var/folders/2p/02m_5p7958535cp2tpgps0400000gn/T//ccFNlQE7.s 			page 8


 173              	.L11:
 174              		.loc 1 210 7 is_stmt 1 view .LVU45
 175              		.loc 1 210 20 is_stmt 0 view .LVU46
 176 0094 0122     		movs	r2, #1
 177 0096 DA76     		strb	r2, [r3, #27]
 178              	.L12:
 179              	.LVL12:
 180              		.loc 1 210 20 view .LVU47
 181              	.LBE87:
 182              	.LBE86:
  28:UIManager.cpp ****   }
 183              		.loc 1 28 20 view .LVU48
 184 0098 84ED100A 		vstr.32	s0, [r4, #64]
 185              	.LBE94:
  30:UIManager.cpp **** 
 186              		.loc 1 30 1 view .LVU49
 187 009c BDEC028B 		vldm	sp!, {d8}
 188              		.cfi_remember_state
 189              		.cfi_restore 80
 190              		.cfi_restore 81
 191              		.cfi_def_cfa_offset 16
 192 00a0 38BD     		pop	{r3, r4, r5, pc}
 193              	.LVL13:
 194              	.L24:
 195              		.cfi_restore_state
 196              	.LBB95:
 197              	.LBB89:
 198              	.LBB85:
 209:UIManager.cpp ****       (*pass_thru) = true;
 199              		.loc 1 209 45 view .LVU50
 200 00a2 E8DA     		bge	.L7
 211:UIManager.cpp ****     }
 212:UIManager.cpp **** } 
 213:UIManager.cpp ****   if (*pass_thru){
 214:UIManager.cpp ****     (*stored_knob_val) = curr_knob_val;
 215:UIManager.cpp ****     return curr_knob_val;
 216:UIManager.cpp ****   }
 217:UIManager.cpp ****   return (*stored_knob_val);
 201              		.loc 1 217 27 view .LVU51
 202 00a4 B0EE678A 		vmov.f32	s16, s15
 203              	.LVL14:
 204              		.loc 1 217 27 view .LVU52
 205 00a8 E7E7     		b	.L8
 206              	.LVL15:
 207              	.L25:
 208              		.loc 1 217 27 view .LVU53
 209              	.LBE85:
 210              	.LBE89:
 211              	.LBB90:
 212              	.LBB88:
 209:UIManager.cpp ****       (*pass_thru) = true;
 213              		.loc 1 209 45 view .LVU54
 214 00aa F3DA     		bge	.L11
 215              		.loc 1 217 27 view .LVU55
 216 00ac B0EE670A 		vmov.f32	s0, s15
 217              	.LVL16:
 218              		.loc 1 217 27 view .LVU56
ARM GAS  /var/folders/2p/02m_5p7958535cp2tpgps0400000gn/T//ccFNlQE7.s 			page 9


 219              	.LBE88:
 220              	.LBE90:
 221              	.LBE95:
  30:UIManager.cpp **** 
 222              		.loc 1 30 1 view .LVU57
 223 00b0 BDEC028B 		vldm	sp!, {d8}
 224              		.cfi_remember_state
 225              		.cfi_restore 80
 226              		.cfi_restore 81
 227              		.cfi_def_cfa_offset 16
 228              	.LBB96:
  28:UIManager.cpp ****   }
 229              		.loc 1 28 20 view .LVU58
 230 00b4 84ED100A 		vstr.32	s0, [r4, #64]
 231              	.LBE96:
  30:UIManager.cpp **** 
 232              		.loc 1 30 1 view .LVU59
 233 00b8 38BD     		pop	{r3, r4, r5, pc}
 234              	.LVL17:
 235              	.L15:
 236              		.cfi_restore_state
 237              	.LBB97:
 238              	.LBB91:
 239              	.LBB82:
 196:UIManager.cpp ****   if (knob_val>=0.99f) return 1.0f;
 240              		.loc 1 196 31 view .LVU60
 241 00ba 9FED050A 		vldr.32	s0, .L26+8
 242              	.LVL18:
 196:UIManager.cpp ****   if (knob_val>=0.99f) return 1.0f;
 243              		.loc 1 196 31 view .LVU61
 244 00be CEE7     		b	.L4
 245              	.LVL19:
 246              	.L14:
 196:UIManager.cpp ****   if (knob_val>=0.99f) return 1.0f;
 247              		.loc 1 196 31 view .LVU62
 248              	.LBE82:
 249              	.LBE91:
 250              	.LBB92:
 251              	.LBB78:
 252 00c0 9FED038A 		vldr.32	s16, .L26+8
 253 00c4 B6E7     		b	.L2
 254              	.L27:
 255 00c6 00BF     		.align	2
 256              	.L26:
 257 00c8 0AD7233C 		.word	1008981770
 258 00cc A4707D3F 		.word	1065185444
 259 00d0 00000000 		.word	0
 260              	.LBE78:
 261              	.LBE92:
 262              	.LBE97:
 263              		.cfi_endproc
 264              	.LFE2641:
 266              		.section	.text._ZN9UIManager4InitEv,"ax",%progbits
 267              		.align	1
 268              		.p2align 2,,3
 269              		.global	_ZN9UIManager4InitEv
 270              		.syntax unified
ARM GAS  /var/folders/2p/02m_5p7958535cp2tpgps0400000gn/T//ccFNlQE7.s 			page 10


 271              		.thumb
 272              		.thumb_func
 274              	_ZN9UIManager4InitEv:
 275              	.LVL20:
 276              	.LFB2575:
   3:UIManager.cpp ****   SetupTimer();
 277              		.loc 1 3 23 is_stmt 1 view -0
 278              		.cfi_startproc
 279              		@ args = 0, pretend = 0, frame = 16
 280              		@ frame_needed = 0, uses_anonymous_args = 0
   4:UIManager.cpp ****   StartLedPulse();
 281              		.loc 1 4 3 view .LVU64
   3:UIManager.cpp ****   SetupTimer();
 282              		.loc 1 3 23 is_stmt 0 view .LVU65
 283 0000 F0B5     		push	{r4, r5, r6, r7, lr}
 284              		.cfi_def_cfa_offset 20
 285              		.cfi_offset 4, -20
 286              		.cfi_offset 5, -16
 287              		.cfi_offset 6, -12
 288              		.cfi_offset 7, -8
 289              		.cfi_offset 14, -4
 290              	.LBB105:
 291              	.LBB106:
 218:UIManager.cpp **** }
 219:UIManager.cpp **** 
 220:UIManager.cpp **** /* has to be static - timer won't take class member function in callback  */
 221:UIManager.cpp **** static void StaticLedCallback(void* data) {
 222:UIManager.cpp ****   UIManager* instance = static_cast<UIManager*>(data);
 223:UIManager.cpp ****   instance->LedPulseCallback();
 224:UIManager.cpp **** }
 225:UIManager.cpp **** 
 226:UIManager.cpp **** 
 227:UIManager.cpp **** // TODO
 228:UIManager.cpp **** // NOTE: COULD REFACTOR THIS INTO A SEPARATE CLASS ?? 
 229:UIManager.cpp **** void UIManager::SetupTimer(){
 230:UIManager.cpp ****   TimerHandle::Config cfg;
 231:UIManager.cpp ****   cfg.periph = TimerHandle::Config::Peripheral::TIM_5;
 232:UIManager.cpp ****   // /* set period for 200ms pulse (1MHz/200,000 == 200ms) */
 233:UIManager.cpp ****   // cfg.period = 200000;
 234:UIManager.cpp ****   /* set period for 10ms callback interval */
 235:UIManager.cpp ****   cfg.period = 10000;
 236:UIManager.cpp ****   cfg.enable_irq = true;
 237:UIManager.cpp ****   timer_.Init(cfg);
 292              		.loc 1 237 14 view .LVU66
 293 0002 00F10C05 		add	r5, r0, #12
 294              	.LBE106:
 295              	.LBE105:
   3:UIManager.cpp ****   SetupTimer();
 296              		.loc 1 3 23 view .LVU67
 297 0006 85B0     		sub	sp, sp, #20
 298              		.cfi_def_cfa_offset 40
 299              	.LBB113:
 300              	.LBB111:
 235:UIManager.cpp ****   cfg.enable_irq = true;
 301              		.loc 1 235 14 view .LVU68
 302 0008 42F21073 		movw	r3, #10000
 236:UIManager.cpp ****   timer_.Init(cfg);
ARM GAS  /var/folders/2p/02m_5p7958535cp2tpgps0400000gn/T//ccFNlQE7.s 			page 11


 303              		.loc 1 236 18 view .LVU69
 304 000c 0126     		movs	r6, #1
 231:UIManager.cpp ****   // /* set period for 200ms pulse (1MHz/200,000 == 200ms) */
 305              		.loc 1 231 14 view .LVU70
 306 000e 0322     		movs	r2, #3
 307              	.LBB107:
 308              	.LBB108:
 309              	.LBB109:
 310              		.file 2 "../libDaisy/src/per/tim.h"
   1:../libDaisy/src/per/tim.h **** #pragma once
   2:../libDaisy/src/per/tim.h **** #ifndef DSY_TIM_H
   3:../libDaisy/src/per/tim.h **** #define DSY_TIM_H
   4:../libDaisy/src/per/tim.h **** 
   5:../libDaisy/src/per/tim.h **** #include <cstdint>
   6:../libDaisy/src/per/tim.h **** 
   7:../libDaisy/src/per/tim.h **** namespace daisy
   8:../libDaisy/src/per/tim.h **** {
   9:../libDaisy/src/per/tim.h **** /** @brief Hardare timer peripheral support.
  10:../libDaisy/src/per/tim.h ****  ** 
  11:../libDaisy/src/per/tim.h ****  ** Supports general-function TIM peripherals:
  12:../libDaisy/src/per/tim.h ****  ** - TIM2, TIM3, TIM4, TIM5
  13:../libDaisy/src/per/tim.h ****  **
  14:../libDaisy/src/per/tim.h ****  ** DaisySeed, and many internal peripherals utilize TIM2 for timing/delay purposes.
  15:../libDaisy/src/per/tim.h ****  ** It is configured to be at the maximum frequency: typically 200MHz or 240MHz (boost) 
  16:../libDaisy/src/per/tim.h ****  ** for measuring/delaying for very short periods. 
  17:../libDaisy/src/per/tim.h ****  **
  18:../libDaisy/src/per/tim.h ****  ** The GetUs/GetMs functions are available for convenience (and backwards compatibility),
  19:../libDaisy/src/per/tim.h ****  ** but to avoid wrapping errors on math when doing time-delta calculations, using ticks is 
  20:../libDaisy/src/per/tim.h ****  ** recommended. The data can be converted to the final time-base after getting the difference in t
  21:../libDaisy/src/per/tim.h ****  ** (Using GetFreq() can be used for these time-base calculations).
  22:../libDaisy/src/per/tim.h ****  **
  23:../libDaisy/src/per/tim.h ****  ** User callbacks can be set, and changed at any point during operation. However,
  24:../libDaisy/src/per/tim.h ****  ** the Config::enable_irq must be set to true when initializing for the interrupts
  25:../libDaisy/src/per/tim.h ****  ** to turn on and function.
  26:../libDaisy/src/per/tim.h ****  **
  27:../libDaisy/src/per/tim.h ****  ** @todo Fix issues with realtime getters, and wrapping of the timer(s).
  28:../libDaisy/src/per/tim.h ****  **     - This very noticeable with default settings for the 16-bit counters.
  29:../libDaisy/src/per/tim.h ****  ** @todo Other General purpose timers
  30:../libDaisy/src/per/tim.h ****  ** @todo Non-internal clock sources
  31:../libDaisy/src/per/tim.h ****  ** @todo Use of the four-tim channels per tim
  32:../libDaisy/src/per/tim.h ****  **     - PWM, etc.
  33:../libDaisy/src/per/tim.h ****  **     - InputCapture/OutputCompare, etc.
  34:../libDaisy/src/per/tim.h ****  ** @todo HRTIM
  35:../libDaisy/src/per/tim.h ****  ** @todo Advanced timers (TIM1/TIM8)
  36:../libDaisy/src/per/tim.h ****  ** */
  37:../libDaisy/src/per/tim.h **** class TimerHandle
  38:../libDaisy/src/per/tim.h **** {
  39:../libDaisy/src/per/tim.h ****   public:
  40:../libDaisy/src/per/tim.h ****     /** @brief Configuration struct for the Peripheral
  41:../libDaisy/src/per/tim.h ****      *  @note These settings are used during initialization
  42:../libDaisy/src/per/tim.h ****      *   and changing them afterwards may not have the desired effect.
  43:../libDaisy/src/per/tim.h ****      */
  44:../libDaisy/src/per/tim.h ****     struct Config
  45:../libDaisy/src/per/tim.h ****     {
  46:../libDaisy/src/per/tim.h ****         /** @brief Hardware Timer to configure, and use. */
  47:../libDaisy/src/per/tim.h ****         enum class Peripheral
  48:../libDaisy/src/per/tim.h ****         {
ARM GAS  /var/folders/2p/02m_5p7958535cp2tpgps0400000gn/T//ccFNlQE7.s 			page 12


  49:../libDaisy/src/per/tim.h ****             TIM_2 = 0, /**< 32-bit counter */
  50:../libDaisy/src/per/tim.h ****             TIM_3,     /**< 16-bit counter */
  51:../libDaisy/src/per/tim.h ****             TIM_4,     /**< 16-bit counter */
  52:../libDaisy/src/per/tim.h ****             TIM_5,     /**< 32-bit counter*/
  53:../libDaisy/src/per/tim.h ****         };
  54:../libDaisy/src/per/tim.h **** 
  55:../libDaisy/src/per/tim.h ****         /** @brief Direction of the auto-reload counter. 
  56:../libDaisy/src/per/tim.h ****          ** @todo Add support for the various  
  57:../libDaisy/src/per/tim.h ****          ** versions of Up/Down counters.
  58:../libDaisy/src/per/tim.h ****          ** */
  59:../libDaisy/src/per/tim.h ****         enum class CounterDir
  60:../libDaisy/src/per/tim.h ****         {
  61:../libDaisy/src/per/tim.h ****             UP = 0,
  62:../libDaisy/src/per/tim.h ****             DOWN,
  63:../libDaisy/src/per/tim.h ****         };
  64:../libDaisy/src/per/tim.h **** 
  65:../libDaisy/src/per/tim.h ****         Peripheral periph; /**< Hardware Peripheral */
  66:../libDaisy/src/per/tim.h ****         CounterDir dir;    /**< Counter direction */
  67:../libDaisy/src/per/tim.h **** 
  68:../libDaisy/src/per/tim.h ****         /** @brief period in ticks at TIM frequency that counter will reset based on dir
  69:../libDaisy/src/per/tim.h ****          *  @note TIM3 and TIM4 are both 16-bit timers. So the period maximum is 0xffff.
  70:../libDaisy/src/per/tim.h ****         */
  71:../libDaisy/src/per/tim.h ****         uint32_t period;
  72:../libDaisy/src/per/tim.h ****         bool     enable_irq; /**< Enable interrupt for user based callback */
  73:../libDaisy/src/per/tim.h **** 
  74:../libDaisy/src/per/tim.h ****         /* @brief Constructor for default states */
  75:../libDaisy/src/per/tim.h ****         Config()
  76:../libDaisy/src/per/tim.h ****         : periph(Peripheral::TIM_2),
  77:../libDaisy/src/per/tim.h ****           dir(CounterDir::UP),
  78:../libDaisy/src/per/tim.h ****           period(0xffffffff),
  79:../libDaisy/src/per/tim.h ****           enable_irq(false)
 311              		.loc 2 79 27 view .LVU71
 312 0010 0027     		movs	r7, #0
 313              	.LBE109:
 314              	.LBE108:
 315              	.LBE107:
 316              	.LBE111:
 317              	.LBE113:
   3:UIManager.cpp ****   SetupTimer();
 318              		.loc 1 3 23 view .LVU72
 319 0012 0446     		mov	r4, r0
 320              	.LVL21:
 321              	.LBB114:
 322              	.LBI105:
 229:UIManager.cpp ****   TimerHandle::Config cfg;
 323              		.loc 1 229 6 is_stmt 1 view .LVU73
 324              	.LBB112:
 230:UIManager.cpp ****   cfg.periph = TimerHandle::Config::Peripheral::TIM_5;
 325              		.loc 1 230 3 view .LVU74
 326              	.LBB110:
 327              	.LBI107:
  75:../libDaisy/src/per/tim.h ****         : periph(Peripheral::TIM_2),
 328              		.loc 2 75 9 view .LVU75
 329              	.LBE110:
 330              		.loc 1 237 14 is_stmt 0 view .LVU76
 331 0014 6946     		mov	r1, sp
 332 0016 2846     		mov	r0, r5
ARM GAS  /var/folders/2p/02m_5p7958535cp2tpgps0400000gn/T//ccFNlQE7.s 			page 13


 333              	.LVL22:
 235:UIManager.cpp ****   cfg.enable_irq = true;
 334              		.loc 1 235 14 view .LVU77
 335 0018 0293     		str	r3, [sp, #8]
 236:UIManager.cpp ****   timer_.Init(cfg);
 336              		.loc 1 236 18 view .LVU78
 337 001a 8DF80C60 		strb	r6, [sp, #12]
 231:UIManager.cpp ****   // /* set period for 200ms pulse (1MHz/200,000 == 200ms) */
 338              		.loc 1 231 14 view .LVU79
 339 001e CDE90027 		strd	r2, r7, [sp]
 235:UIManager.cpp ****   cfg.enable_irq = true;
 340              		.loc 1 235 3 is_stmt 1 view .LVU80
 236:UIManager.cpp ****   timer_.Init(cfg);
 341              		.loc 1 236 3 view .LVU81
 342              		.loc 1 237 3 view .LVU82
 343              		.loc 1 237 14 is_stmt 0 view .LVU83
 344 0022 FFF7FEFF 		bl	_ZN5daisy11TimerHandle4InitERKNS0_6ConfigE
 345              	.LVL23:
 238:UIManager.cpp ****   /* set 1Mhz tick frequency */
 239:UIManager.cpp ****   timer_.SetPrescaler(199);
 346              		.loc 1 239 3 is_stmt 1 view .LVU84
 347              		.loc 1 239 22 is_stmt 0 view .LVU85
 348 0026 C721     		movs	r1, #199
 349 0028 2846     		mov	r0, r5
 350 002a FFF7FEFF 		bl	_ZN5daisy11TimerHandle12SetPrescalerEm
 351              	.LVL24:
 240:UIManager.cpp ****   pulse_increasing_ = true;
 352              		.loc 1 240 3 is_stmt 1 view .LVU86
 241:UIManager.cpp ****   timer_.SetCallback(StaticLedCallback, this);
 353              		.loc 1 241 21 is_stmt 0 view .LVU87
 354 002e 2846     		mov	r0, r5
 355 0030 2246     		mov	r2, r4
 356 0032 0649     		ldr	r1, .L30
 240:UIManager.cpp ****   pulse_increasing_ = true;
 357              		.loc 1 240 21 view .LVU88
 358 0034 2674     		strb	r6, [r4, #16]
 359              		.loc 1 241 3 is_stmt 1 view .LVU89
 360              		.loc 1 241 21 is_stmt 0 view .LVU90
 361 0036 FFF7FEFF 		bl	_ZN5daisy11TimerHandle11SetCallbackEPFvPvES1_
 362              	.LVL25:
 363              		.loc 1 241 21 view .LVU91
 364              	.LBE112:
 365              	.LBE114:
   5:UIManager.cpp **** }
 366              		.loc 1 5 3 is_stmt 1 view .LVU92
 367              	.LBB115:
 368              	.LBI115:
 242:UIManager.cpp **** }
 243:UIManager.cpp **** 
 244:UIManager.cpp **** 
 245:UIManager.cpp **** 
 246:UIManager.cpp **** void UIManager::LedPulseCallback(){
 247:UIManager.cpp ****   if (pulse_increasing_){
 248:UIManager.cpp ****     /* NOTE: increase step (in header) and period to reduce processing cost */
 249:UIManager.cpp ****     pulse_brightness_ += PULSE_STEP;
 250:UIManager.cpp ****     if (pulse_brightness_ >= 255 - PULSE_STEP){
 251:UIManager.cpp ****       pulse_brightness_ = 255;
ARM GAS  /var/folders/2p/02m_5p7958535cp2tpgps0400000gn/T//ccFNlQE7.s 			page 14


 252:UIManager.cpp ****       pulse_increasing_ = false;
 253:UIManager.cpp ****     }
 254:UIManager.cpp ****   }
 255:UIManager.cpp ****   else {
 256:UIManager.cpp ****     pulse_brightness_ -= PULSE_STEP;
 257:UIManager.cpp ****     if (pulse_brightness_ <= PULSE_STEP){
 258:UIManager.cpp ****       pulse_count_++;
 259:UIManager.cpp ****       pulse_brightness_ = 0;
 260:UIManager.cpp ****       pulse_increasing_ = true;
 261:UIManager.cpp ****     }
 262:UIManager.cpp ****   }
 263:UIManager.cpp ****   switch(current_state_){
 264:UIManager.cpp ****     /* pulse white */
 265:UIManager.cpp ****     case AppState::Startup:
 266:UIManager.cpp ****       SetLed(pulse_brightness_, pulse_brightness_, pulse_brightness_, true);
 267:UIManager.cpp ****     /* pulse blue */
 268:UIManager.cpp ****     case AppState::SelectFile:
 269:UIManager.cpp ****       SetLed(0,0, pulse_brightness_, true);
 270:UIManager.cpp ****     /* pulse cyan */
 271:UIManager.cpp ****     case AppState::PlayWAV:
 272:UIManager.cpp ****       SetLed(0, pulse_brightness_, pulse_brightness_, true);
 273:UIManager.cpp ****     /* pulse red */
 274:UIManager.cpp ****     case AppState::Error:
 275:UIManager.cpp ****       
 276:UIManager.cpp ****     /* when switching to synth mode, pulse green twice, then solid;
 277:UIManager.cpp ****         otherwise pulses on synth mode switch */
 278:UIManager.cpp ****     case AppState::Synthesis:
 279:UIManager.cpp ****       if (pulse_count_ <= 2){
 280:UIManager.cpp ****         SetLed(0, pulse_brightness_, 0, true);
 281:UIManager.cpp ****       }
 282:UIManager.cpp ****       else {
 283:UIManager.cpp ****         StopLedPulse();
 284:UIManager.cpp ****         SetLedSynthMode();
 285:UIManager.cpp ****       }
 286:UIManager.cpp ****       break;
 287:UIManager.cpp ****   }
 288:UIManager.cpp **** } 
 289:UIManager.cpp **** 
 290:UIManager.cpp **** void UIManager::SetLedSynthMode(){
 291:UIManager.cpp ****   switch(synth_mode_){
 292:UIManager.cpp ****     case SynthMode::Size_Position:
 293:UIManager.cpp ****       SetLed(0,255,0,true);
 294:UIManager.cpp ****       break;
 295:UIManager.cpp ****     case SynthMode::Pitch_ActiveGrains:
 296:UIManager.cpp ****     // orange: 100, 64, 0 or 255, 165, 0 or 255, 91, 31 (neon orange)
 297:UIManager.cpp ****       BlinkSetLed(255, 91, 31,true);
 298:UIManager.cpp ****       break;
 299:UIManager.cpp ****     case SynthMode::PhasorMode_EnvType:
 300:UIManager.cpp ****     // 0, 0, 255 blue
 301:UIManager.cpp ****       BlinkSetLed(0,0,255,true);
 302:UIManager.cpp ****       break;
 303:UIManager.cpp ****     case SynthMode::Pan_PanRnd:
 304:UIManager.cpp ****     // fuschia: 255,0,255
 305:UIManager.cpp ****       BlinkSetLed(255,0,255,true);
 306:UIManager.cpp ****       break;
 307:UIManager.cpp ****     default:
 308:UIManager.cpp ****       break;
ARM GAS  /var/folders/2p/02m_5p7958535cp2tpgps0400000gn/T//ccFNlQE7.s 			page 15


 309:UIManager.cpp ****   }
 310:UIManager.cpp **** }
 311:UIManager.cpp **** 
 312:UIManager.cpp **** void UIManager::SetLedRandomMode(){
 313:UIManager.cpp ****   switch(synth_mode_){
 314:UIManager.cpp ****     case SynthMode::Size_Position:
 315:UIManager.cpp ****     case SynthMode::Pitch_ActiveGrains:
 316:UIManager.cpp ****     case SynthMode::PhasorMode_EnvType:
 317:UIManager.cpp ****     case SynthMode::Pan_PanRnd:
 318:UIManager.cpp ****       /* set led 2 to green*/
 319:UIManager.cpp ****       SetLed(0,255,0,false);
 320:UIManager.cpp ****       break;
 321:UIManager.cpp ****     
 322:UIManager.cpp ****     case SynthMode::Size_Position_Rnd:
 323:UIManager.cpp ****     case SynthMode::Pitch_ActiveGrains_Rnd:
 324:UIManager.cpp ****     case SynthMode::PhasorMode_EnvType_Rnd:
 325:UIManager.cpp ****       /* set led 2 to red*/
 326:UIManager.cpp ****       SetLed(255,0,0,false);
 327:UIManager.cpp ****       break;
 328:UIManager.cpp ****   }
 329:UIManager.cpp **** }
 330:UIManager.cpp **** 
 331:UIManager.cpp **** void UIManager::StartLedPulse(){
 369              		.loc 1 331 6 view .LVU93
 370              	.LBB116:
 332:UIManager.cpp ****   pulse_brightness_ = 0;
 371              		.loc 1 332 3 view .LVU94
 333:UIManager.cpp ****   pulse_increasing_ = true;
 372              		.loc 1 333 3 view .LVU95
 334:UIManager.cpp ****   pulse_count_ = 0;
 373              		.loc 1 334 3 view .LVU96
 335:UIManager.cpp ****   timer_.Start();
 374              		.loc 1 335 15 is_stmt 0 view .LVU97
 375 003a 2846     		mov	r0, r5
 333:UIManager.cpp ****   pulse_increasing_ = true;
 376              		.loc 1 333 21 view .LVU98
 377 003c 2682     		strh	r6, [r4, #16]	@ movhi
 334:UIManager.cpp ****   pulse_count_ = 0;
 378              		.loc 1 334 16 view .LVU99
 379 003e A774     		strb	r7, [r4, #18]
 380              		.loc 1 335 3 is_stmt 1 view .LVU100
 381              	.LBE116:
 382              	.LBE115:
   6:UIManager.cpp **** 
 383              		.loc 1 6 1 is_stmt 0 view .LVU101
 384 0040 05B0     		add	sp, sp, #20
 385              		.cfi_def_cfa_offset 20
 386              	.LVL26:
   6:UIManager.cpp **** 
 387              		.loc 1 6 1 view .LVU102
 388              		@ sp needed
 389 0042 BDE8F040 		pop	{r4, r5, r6, r7, lr}
 390              		.cfi_restore 14
 391              		.cfi_restore 7
 392              		.cfi_restore 6
 393              		.cfi_restore 5
 394              		.cfi_restore 4
ARM GAS  /var/folders/2p/02m_5p7958535cp2tpgps0400000gn/T//ccFNlQE7.s 			page 16


 395              		.cfi_def_cfa_offset 0
 396              	.LVL27:
 397              	.LBB118:
 398              	.LBB117:
 399              		.loc 1 335 15 view .LVU103
 400 0046 FFF7FEBF 		b	_ZN5daisy11TimerHandle5StartEv
 401              	.LVL28:
 402              	.L31:
 403              		.loc 1 335 15 view .LVU104
 404 004a 00BF     		.align	2
 405              	.L30:
 406 004c 00000000 		.word	_ZL17StaticLedCallbackPv
 407              	.LBE117:
 408              	.LBE118:
 409              		.cfi_endproc
 410              	.LFE2575:
 412              		.section	.text._ZN9UIManager11UpdateKnobsEv,"ax",%progbits
 413              		.align	1
 414              		.p2align 2,,3
 415              		.global	_ZN9UIManager11UpdateKnobsEv
 416              		.syntax unified
 417              		.thumb
 418              		.thumb_func
 420              	_ZN9UIManager11UpdateKnobsEv:
 421              	.LVL29:
 422              	.LFB2577:
  19:UIManager.cpp ****   if (current_state_ == AppState::Synthesis){
 423              		.loc 1 19 30 is_stmt 1 view -0
 424              		.cfi_startproc
 425              		@ args = 0, pretend = 0, frame = 0
 426              		@ frame_needed = 0, uses_anonymous_args = 0
 427              		@ link register save eliminated.
  20:UIManager.cpp ****     int mode_idx = static_cast<int>(synth_mode_);
 428              		.loc 1 20 3 view .LVU106
 429              	.LBB119:
 430 0000 4368     		ldr	r3, [r0, #4]
 431 0002 032B     		cmp	r3, #3
 432 0004 00D0     		beq	.L34
 433              	.LBE119:
  30:UIManager.cpp **** 
 434              		.loc 1 30 1 is_stmt 0 view .LVU107
 435 0006 7047     		bx	lr
 436              	.L34:
 437 0008 FFF7FEBF 		b	_ZN9UIManager11UpdateKnobsEv.part.0
 438              	.LVL30:
  30:UIManager.cpp **** 
 439              		.loc 1 30 1 view .LVU108
 440              		.cfi_endproc
 441              	.LFE2577:
 443              		.section	.text._ZN9UIManager13SetStateErrorEv,"ax",%progbits
 444              		.align	1
 445              		.p2align 2,,3
 446              		.global	_ZN9UIManager13SetStateErrorEv
 447              		.syntax unified
 448              		.thumb
 449              		.thumb_func
 451              	_ZN9UIManager13SetStateErrorEv:
ARM GAS  /var/folders/2p/02m_5p7958535cp2tpgps0400000gn/T//ccFNlQE7.s 			page 17


 452              	.LVL31:
 453              	.LFB2579:
 105:UIManager.cpp ****   current_state_ = AppState::Error;
 454              		.loc 1 105 32 is_stmt 1 view -0
 455              		.cfi_startproc
 456              		@ args = 0, pretend = 0, frame = 8
 457              		@ frame_needed = 0, uses_anonymous_args = 0
 106:UIManager.cpp ****   StopLedPulse();
 458              		.loc 1 106 3 view .LVU110
 105:UIManager.cpp ****   current_state_ = AppState::Error;
 459              		.loc 1 105 32 is_stmt 0 view .LVU111
 460 0000 10B5     		push	{r4, lr}
 461              		.cfi_def_cfa_offset 8
 462              		.cfi_offset 4, -8
 463              		.cfi_offset 14, -4
 106:UIManager.cpp ****   StopLedPulse();
 464              		.loc 1 106 18 view .LVU112
 465 0002 0423     		movs	r3, #4
 105:UIManager.cpp ****   current_state_ = AppState::Error;
 466              		.loc 1 105 32 view .LVU113
 467 0004 0446     		mov	r4, r0
 468 0006 82B0     		sub	sp, sp, #8
 469              		.cfi_def_cfa_offset 16
 470              	.LBB126:
 471              	.LBB127:
 336:UIManager.cpp **** }
 337:UIManager.cpp **** 
 338:UIManager.cpp **** void UIManager::StopLedPulse(){
 339:UIManager.cpp ****   timer_.Stop();
 340:UIManager.cpp **** }
 341:UIManager.cpp **** 
 342:UIManager.cpp **** void UIManager::SetLed(int r, int g, int b, bool is_Led1){
 343:UIManager.cpp ****   if (is_Led1){
 344:UIManager.cpp ****     pod_.led1.Set(r,g,b);
 472              		.loc 1 344 18 view .LVU114
 473 0008 9FED181A 		vldr.32	s2, .L37
 474 000c 9FED180A 		vldr.32	s0, .L37+4
 475              	.LBE127:
 476              	.LBE126:
 477              	.LBB130:
 478              	.LBB131:
 339:UIManager.cpp **** }
 479              		.loc 1 339 14 view .LVU115
 480 0010 0C30     		adds	r0, r0, #12
 481              	.LVL32:
 339:UIManager.cpp **** }
 482              		.loc 1 339 14 view .LVU116
 483              	.LBE131:
 484              	.LBE130:
 106:UIManager.cpp ****   StopLedPulse();
 485              		.loc 1 106 18 view .LVU117
 486 0012 6360     		str	r3, [r4, #4]
 107:UIManager.cpp ****   SetLed(255,0,0,true);
 487              		.loc 1 107 3 is_stmt 1 view .LVU118
 488              	.LVL33:
 489              	.LBB134:
 490              	.LBI130:
ARM GAS  /var/folders/2p/02m_5p7958535cp2tpgps0400000gn/T//ccFNlQE7.s 			page 18


 338:UIManager.cpp ****   timer_.Stop();
 491              		.loc 1 338 6 view .LVU119
 492              	.LBB132:
 339:UIManager.cpp **** }
 493              		.loc 1 339 3 view .LVU120
 494              	.LBE132:
 495              	.LBE134:
 496              	.LBB135:
 497              	.LBB128:
 498              		.loc 1 344 18 is_stmt 0 view .LVU121
 499 0014 8DED011A 		vstr.32	s2, [sp, #4]	@ int
 500 0018 8DED000A 		vstr.32	s0, [sp]	@ int
 501              	.LBE128:
 502              	.LBE135:
 503              	.LBB136:
 504              	.LBB133:
 339:UIManager.cpp **** }
 505              		.loc 1 339 14 view .LVU122
 506 001c FFF7FEFF 		bl	_ZN5daisy11TimerHandle4StopEv
 507              	.LVL34:
 339:UIManager.cpp **** }
 508              		.loc 1 339 14 view .LVU123
 509              	.LBE133:
 510              	.LBE136:
 108:UIManager.cpp ****   SetLed(255,0,0,false);
 511              		.loc 1 108 3 is_stmt 1 view .LVU124
 512              	.LBB137:
 513              	.LBI126:
 342:UIManager.cpp ****   if (is_Led1){
 514              		.loc 1 342 6 view .LVU125
 515              	.LBB129:
 343:UIManager.cpp ****     pod_.led1.Set(r,g,b);
 516              		.loc 1 343 3 view .LVU126
 517              		.loc 1 344 5 view .LVU127
 518              		.loc 1 344 18 is_stmt 0 view .LVU128
 519 0020 9DED011A 		vldr.32	s2, [sp, #4]	@ int
 520 0024 2068     		ldr	r0, [r4]
 521 0026 F0EE410A 		vmov.f32	s1, s2
 522 002a 9DED000A 		vldr.32	s0, [sp]	@ int
 523 002e D830     		adds	r0, r0, #216
 524 0030 FFF7FEFF 		bl	_ZN5daisy6RgbLed3SetEfff
 525              	.LVL35:
 345:UIManager.cpp ****   }
 346:UIManager.cpp ****   else {
 347:UIManager.cpp ****     pod_.led2.Set(r,g,b);
 348:UIManager.cpp ****   }
 349:UIManager.cpp ****   pod_.UpdateLeds();
 526              		.loc 1 349 3 is_stmt 1 view .LVU129
 527              		.loc 1 349 18 is_stmt 0 view .LVU130
 528 0034 2068     		ldr	r0, [r4]
 529 0036 FFF7FEFF 		bl	_ZN5daisy8DaisyPod10UpdateLedsEv
 530              	.LVL36:
 350:UIManager.cpp ****   System::Delay(10);
 531              		.loc 1 350 3 is_stmt 1 view .LVU131
 532              		.loc 1 350 16 is_stmt 0 view .LVU132
 533 003a 0A20     		movs	r0, #10
 534 003c FFF7FEFF 		bl	_ZN5daisy6System5DelayEm
ARM GAS  /var/folders/2p/02m_5p7958535cp2tpgps0400000gn/T//ccFNlQE7.s 			page 19


 535              	.LVL37:
 536              		.loc 1 350 16 view .LVU133
 537              	.LBE129:
 538              	.LBE137:
 109:UIManager.cpp ****   crash_error = true;
 539              		.loc 1 109 3 is_stmt 1 view .LVU134
 540              	.LBB138:
 541              	.LBI138:
 342:UIManager.cpp ****   if (is_Led1){
 542              		.loc 1 342 6 view .LVU135
 543              	.LBB139:
 343:UIManager.cpp ****     pod_.led1.Set(r,g,b);
 544              		.loc 1 343 3 view .LVU136
 347:UIManager.cpp ****   }
 545              		.loc 1 347 5 view .LVU137
 347:UIManager.cpp ****   }
 546              		.loc 1 347 18 is_stmt 0 view .LVU138
 547 0040 9DED011A 		vldr.32	s2, [sp, #4]	@ int
 548 0044 2068     		ldr	r0, [r4]
 549 0046 F0EE410A 		vmov.f32	s1, s2
 550 004a 9DED000A 		vldr.32	s0, [sp]	@ int
 551 004e 00F59670 		add	r0, r0, #300
 552 0052 FFF7FEFF 		bl	_ZN5daisy6RgbLed3SetEfff
 553              	.LVL38:
 349:UIManager.cpp ****   System::Delay(10);
 554              		.loc 1 349 3 is_stmt 1 view .LVU139
 349:UIManager.cpp ****   System::Delay(10);
 555              		.loc 1 349 18 is_stmt 0 view .LVU140
 556 0056 2068     		ldr	r0, [r4]
 557 0058 FFF7FEFF 		bl	_ZN5daisy8DaisyPod10UpdateLedsEv
 558              	.LVL39:
 559              		.loc 1 350 3 is_stmt 1 view .LVU141
 560              		.loc 1 350 16 is_stmt 0 view .LVU142
 561 005c 0A20     		movs	r0, #10
 562 005e FFF7FEFF 		bl	_ZN5daisy6System5DelayEm
 563              	.LVL40:
 564              		.loc 1 350 16 view .LVU143
 565              	.LBE139:
 566              	.LBE138:
 110:UIManager.cpp **** }
 567              		.loc 1 110 3 is_stmt 1 view .LVU144
 110:UIManager.cpp **** }
 568              		.loc 1 110 15 is_stmt 0 view .LVU145
 569 0062 0123     		movs	r3, #1
 570 0064 E374     		strb	r3, [r4, #19]
 111:UIManager.cpp **** 
 571              		.loc 1 111 1 view .LVU146
 572 0066 02B0     		add	sp, sp, #8
 573              		.cfi_def_cfa_offset 8
 574              		@ sp needed
 575 0068 10BD     		pop	{r4, pc}
 576              	.LVL41:
 577              	.L38:
 111:UIManager.cpp **** 
 578              		.loc 1 111 1 view .LVU147
 579 006a 00BF     		.align	2
 580              	.L37:
ARM GAS  /var/folders/2p/02m_5p7958535cp2tpgps0400000gn/T//ccFNlQE7.s 			page 20


 581 006c 00000000 		.word	0
 582 0070 00007F43 		.word	1132396544
 583              		.cfi_endproc
 584              	.LFE2579:
 586              		.section	.text._ZN9UIManager15UpdateSynthModeEv,"ax",%progbits
 587              		.align	1
 588              		.p2align 2,,3
 589              		.global	_ZN9UIManager15UpdateSynthModeEv
 590              		.syntax unified
 591              		.thumb
 592              		.thumb_func
 594              	_ZN9UIManager15UpdateSynthModeEv:
 595              	.LVL42:
 596              	.LFB2580:
 116:UIManager.cpp ****   switch(synth_mode_){
 597              		.loc 1 116 34 is_stmt 1 view -0
 598              		.cfi_startproc
 599              		@ args = 0, pretend = 0, frame = 0
 600              		@ frame_needed = 0, uses_anonymous_args = 0
 601              		@ link register save eliminated.
 117:UIManager.cpp ****     case SynthMode::Size_Position:
 602              		.loc 1 117 3 view .LVU149
 603 0000 8368     		ldr	r3, [r0, #8]
 604 0002 062B     		cmp	r3, #6
 605 0004 07D8     		bhi	.L39
 606 0006 DFE803F0 		tbb	[pc, r3]
 607              	.L42:
 608 000a 0D       		.byte	(.L45-.L42)/2
 609 000b 0A       		.byte	(.L44-.L42)/2
 610 000c 04       		.byte	(.L43-.L42)/2
 611 000d 06       		.byte	(.L39-.L42)/2
 612 000e 06       		.byte	(.L39-.L42)/2
 613 000f 06       		.byte	(.L39-.L42)/2
 614 0010 07       		.byte	(.L41-.L42)/2
 615 0011 00       		.p2align 1
 616              	.L43:
 127:UIManager.cpp ****       synth_mode_ = SynthMode::Size_Position;
 617              		.loc 1 127 5 view .LVU150
 128:UIManager.cpp ****       break;
 618              		.loc 1 128 7 view .LVU151
 128:UIManager.cpp ****       break;
 619              		.loc 1 128 19 is_stmt 0 view .LVU152
 620 0012 0023     		movs	r3, #0
 621 0014 8360     		str	r3, [r0, #8]
 129:UIManager.cpp ****     default:
 622              		.loc 1 129 7 is_stmt 1 view .LVU153
 623              	.L39:
 133:UIManager.cpp **** 
 624              		.loc 1 133 1 is_stmt 0 view .LVU154
 625 0016 7047     		bx	lr
 626              	.L41:
 124:UIManager.cpp ****       synth_mode_ = SynthMode::PhasorMode_EnvType;
 627              		.loc 1 124 5 is_stmt 1 view .LVU155
 125:UIManager.cpp ****       break;
 628              		.loc 1 125 7 view .LVU156
 125:UIManager.cpp ****       break;
 629              		.loc 1 125 19 is_stmt 0 view .LVU157
ARM GAS  /var/folders/2p/02m_5p7958535cp2tpgps0400000gn/T//ccFNlQE7.s 			page 21


 630 0018 0223     		movs	r3, #2
 631 001a 8360     		str	r3, [r0, #8]
 126:UIManager.cpp ****     case SynthMode::PhasorMode_EnvType:
 632              		.loc 1 126 7 is_stmt 1 view .LVU158
 633 001c 7047     		bx	lr
 634              	.L44:
 121:UIManager.cpp ****       synth_mode_ = SynthMode::Pan_PanRnd;
 635              		.loc 1 121 5 view .LVU159
 122:UIManager.cpp ****       break;
 636              		.loc 1 122 7 view .LVU160
 122:UIManager.cpp ****       break;
 637              		.loc 1 122 19 is_stmt 0 view .LVU161
 638 001e 0623     		movs	r3, #6
 639 0020 8360     		str	r3, [r0, #8]
 123:UIManager.cpp ****     case SynthMode::Pan_PanRnd:
 640              		.loc 1 123 7 is_stmt 1 view .LVU162
 641 0022 7047     		bx	lr
 642              	.L45:
 118:UIManager.cpp ****       synth_mode_ = SynthMode::Pitch_ActiveGrains;
 643              		.loc 1 118 5 view .LVU163
 119:UIManager.cpp ****       break;
 644              		.loc 1 119 7 view .LVU164
 119:UIManager.cpp ****       break;
 645              		.loc 1 119 19 is_stmt 0 view .LVU165
 646 0024 0123     		movs	r3, #1
 647 0026 8360     		str	r3, [r0, #8]
 120:UIManager.cpp ****     case SynthMode::Pitch_ActiveGrains:
 648              		.loc 1 120 7 is_stmt 1 view .LVU166
 649 0028 7047     		bx	lr
 650              		.cfi_endproc
 651              	.LFE2580:
 653 002a 00BF     		.section	.text._ZN9UIManager24ToggleRandomnessControlsEv,"ax",%progbits
 654              		.align	1
 655              		.p2align 2,,3
 656              		.global	_ZN9UIManager24ToggleRandomnessControlsEv
 657              		.syntax unified
 658              		.thumb
 659              		.thumb_func
 661              	_ZN9UIManager24ToggleRandomnessControlsEv:
 662              	.LVL43:
 663              	.LFB2581:
 138:UIManager.cpp ****   switch(synth_mode_){
 664              		.loc 1 138 43 view -0
 665              		.cfi_startproc
 666              		@ args = 0, pretend = 0, frame = 0
 667              		@ frame_needed = 0, uses_anonymous_args = 0
 668              		@ link register save eliminated.
 139:UIManager.cpp ****     case SynthMode::Size_Position:
 669              		.loc 1 139 3 view .LVU168
 670 0000 8368     		ldr	r3, [r0, #8]
 671 0002 052B     		cmp	r3, #5
 672 0004 06D8     		bhi	.L46
 673 0006 DFE803F0 		tbb	[pc, r3]
 674              	.L49:
 675 000a 06       		.byte	(.L54-.L49)/2
 676 000b 09       		.byte	(.L53-.L49)/2
 677 000c 0C       		.byte	(.L52-.L49)/2
ARM GAS  /var/folders/2p/02m_5p7958535cp2tpgps0400000gn/T//ccFNlQE7.s 			page 22


 678 000d 0F       		.byte	(.L51-.L49)/2
 679 000e 12       		.byte	(.L50-.L49)/2
 680 000f 03       		.byte	(.L48-.L49)/2
 681              		.p2align 1
 682              	.L48:
 155:UIManager.cpp ****       synth_mode_ = SynthMode::PhasorMode_EnvType;
 683              		.loc 1 155 5 view .LVU169
 156:UIManager.cpp ****       break;
 684              		.loc 1 156 7 view .LVU170
 156:UIManager.cpp ****       break;
 685              		.loc 1 156 19 is_stmt 0 view .LVU171
 686 0010 0223     		movs	r3, #2
 687 0012 8360     		str	r3, [r0, #8]
 157:UIManager.cpp ****     case SynthMode::Pan_PanRnd:
 688              		.loc 1 157 7 is_stmt 1 view .LVU172
 689              	.L46:
 161:UIManager.cpp **** 
 690              		.loc 1 161 1 is_stmt 0 view .LVU173
 691 0014 7047     		bx	lr
 692              	.L54:
 140:UIManager.cpp ****       synth_mode_ = SynthMode::Size_Position_Rnd;
 693              		.loc 1 140 5 is_stmt 1 view .LVU174
 141:UIManager.cpp ****       break;
 694              		.loc 1 141 7 view .LVU175
 141:UIManager.cpp ****       break;
 695              		.loc 1 141 19 is_stmt 0 view .LVU176
 696 0016 0323     		movs	r3, #3
 697 0018 8360     		str	r3, [r0, #8]
 142:UIManager.cpp ****     case SynthMode::Size_Position_Rnd:
 698              		.loc 1 142 7 is_stmt 1 view .LVU177
 699 001a 7047     		bx	lr
 700              	.L53:
 146:UIManager.cpp ****       synth_mode_ = SynthMode::Pitch_ActiveGrains_Rnd;
 701              		.loc 1 146 5 view .LVU178
 147:UIManager.cpp ****       break;
 702              		.loc 1 147 7 view .LVU179
 147:UIManager.cpp ****       break;
 703              		.loc 1 147 19 is_stmt 0 view .LVU180
 704 001c 0423     		movs	r3, #4
 705 001e 8360     		str	r3, [r0, #8]
 148:UIManager.cpp ****     case SynthMode::Pitch_ActiveGrains_Rnd:
 706              		.loc 1 148 7 is_stmt 1 view .LVU181
 707 0020 7047     		bx	lr
 708              	.L52:
 152:UIManager.cpp ****       synth_mode_ = SynthMode::PhasorMode_EnvType_Rnd;
 709              		.loc 1 152 5 view .LVU182
 153:UIManager.cpp ****       break;      
 710              		.loc 1 153 7 view .LVU183
 153:UIManager.cpp ****       break;      
 711              		.loc 1 153 19 is_stmt 0 view .LVU184
 712 0022 0523     		movs	r3, #5
 713 0024 8360     		str	r3, [r0, #8]
 154:UIManager.cpp ****     case SynthMode::PhasorMode_EnvType_Rnd:
 714              		.loc 1 154 7 is_stmt 1 view .LVU185
 715 0026 7047     		bx	lr
 716              	.L51:
 143:UIManager.cpp ****       synth_mode_ = SynthMode::Size_Position;
ARM GAS  /var/folders/2p/02m_5p7958535cp2tpgps0400000gn/T//ccFNlQE7.s 			page 23


 717              		.loc 1 143 5 view .LVU186
 144:UIManager.cpp ****       break;
 718              		.loc 1 144 7 view .LVU187
 144:UIManager.cpp ****       break;
 719              		.loc 1 144 19 is_stmt 0 view .LVU188
 720 0028 0023     		movs	r3, #0
 721 002a 8360     		str	r3, [r0, #8]
 145:UIManager.cpp ****     case SynthMode::Pitch_ActiveGrains:
 722              		.loc 1 145 7 is_stmt 1 view .LVU189
 723 002c 7047     		bx	lr
 724              	.L50:
 149:UIManager.cpp ****       synth_mode_ = SynthMode::Pitch_ActiveGrains;
 725              		.loc 1 149 5 view .LVU190
 150:UIManager.cpp ****       break;
 726              		.loc 1 150 7 view .LVU191
 150:UIManager.cpp ****       break;
 727              		.loc 1 150 19 is_stmt 0 view .LVU192
 728 002e 0123     		movs	r3, #1
 729 0030 8360     		str	r3, [r0, #8]
 151:UIManager.cpp ****     case SynthMode::PhasorMode_EnvType:
 730              		.loc 1 151 7 is_stmt 1 view .LVU193
 731 0032 7047     		bx	lr
 732              		.cfi_endproc
 733              	.LFE2581:
 735              		.section	.text._ZN9UIManager13GetKnob1ValueEi,"ax",%progbits
 736              		.align	1
 737              		.p2align 2,,3
 738              		.global	_ZN9UIManager13GetKnob1ValueEi
 739              		.syntax unified
 740              		.thumb
 741              		.thumb_func
 743              	_ZN9UIManager13GetKnob1ValueEi:
 744              	.LVL44:
 745              	.LFB2582:
 163:UIManager.cpp ****   return k1v_[mode_idx];
 746              		.loc 1 163 45 view -0
 747              		.cfi_startproc
 748              		@ args = 0, pretend = 0, frame = 0
 749              		@ frame_needed = 0, uses_anonymous_args = 0
 750              		@ link register save eliminated.
 164:UIManager.cpp **** }
 751              		.loc 1 164 3 view .LVU195
 164:UIManager.cpp **** }
 752              		.loc 1 164 23 is_stmt 0 view .LVU196
 753 0000 00EB8101 		add	r1, r0, r1, lsl #2
 754              	.LVL45:
 165:UIManager.cpp **** 
 755              		.loc 1 165 1 view .LVU197
 756 0004 91ED090A 		vldr.32	s0, [r1, #36]
 757 0008 7047     		bx	lr
 758              		.cfi_endproc
 759              	.LFE2582:
 761 000a 00BF     		.section	.text._ZN9UIManager13GetKnob2ValueEi,"ax",%progbits
 762              		.align	1
 763              		.p2align 2,,3
 764              		.global	_ZN9UIManager13GetKnob2ValueEi
 765              		.syntax unified
ARM GAS  /var/folders/2p/02m_5p7958535cp2tpgps0400000gn/T//ccFNlQE7.s 			page 24


 766              		.thumb
 767              		.thumb_func
 769              	_ZN9UIManager13GetKnob2ValueEi:
 770              	.LVL46:
 771              	.LFB2583:
 167:UIManager.cpp ****   return k2v_[mode_idx];
 772              		.loc 1 167 45 is_stmt 1 view -0
 773              		.cfi_startproc
 774              		@ args = 0, pretend = 0, frame = 0
 775              		@ frame_needed = 0, uses_anonymous_args = 0
 776              		@ link register save eliminated.
 168:UIManager.cpp **** }
 777              		.loc 1 168 3 view .LVU199
 168:UIManager.cpp **** }
 778              		.loc 1 168 23 is_stmt 0 view .LVU200
 779 0000 00EB8101 		add	r1, r0, r1, lsl #2
 780              	.LVL47:
 169:UIManager.cpp **** 
 781              		.loc 1 169 1 view .LVU201
 782 0004 91ED100A 		vldr.32	s0, [r1, #64]
 783 0008 7047     		bx	lr
 784              		.cfi_endproc
 785              	.LFE2583:
 787 000a 00BF     		.section	.text._ZN9UIManager19GetEncoderIncrementEv,"ax",%progbits
 788              		.align	1
 789              		.p2align 2,,3
 790              		.global	_ZN9UIManager19GetEncoderIncrementEv
 791              		.syntax unified
 792              		.thumb
 793              		.thumb_func
 795              	_ZN9UIManager19GetEncoderIncrementEv:
 796              	.LVL48:
 797              	.LFB2584:
 171:UIManager.cpp ****   return pod_.encoder.Increment();
 798              		.loc 1 171 41 is_stmt 1 view -0
 799              		.cfi_startproc
 800              		@ args = 0, pretend = 0, frame = 0
 801              		@ frame_needed = 0, uses_anonymous_args = 0
 802              		@ link register save eliminated.
 172:UIManager.cpp **** }
 803              		.loc 1 172 3 view .LVU203
 172:UIManager.cpp **** }
 804              		.loc 1 172 10 is_stmt 0 view .LVU204
 805 0000 0368     		ldr	r3, [r0]
 806              	.LVL49:
 807              	.LBB140:
 808              	.LBI140:
 809              		.file 3 "../libDaisy/src/hid/encoder.h"
   1:../libDaisy/src/hid/encoder.h **** #pragma once
   2:../libDaisy/src/hid/encoder.h **** #ifndef DSY_ENCODER_H
   3:../libDaisy/src/hid/encoder.h **** #define DSY_ENCODER_H
   4:../libDaisy/src/hid/encoder.h **** #include "daisy_core.h"
   5:../libDaisy/src/hid/encoder.h **** #include "per/gpio.h"
   6:../libDaisy/src/hid/encoder.h **** #include "hid/switch.h"
   7:../libDaisy/src/hid/encoder.h **** 
   8:../libDaisy/src/hid/encoder.h **** namespace daisy
   9:../libDaisy/src/hid/encoder.h **** {
ARM GAS  /var/folders/2p/02m_5p7958535cp2tpgps0400000gn/T//ccFNlQE7.s 			page 25


  10:../libDaisy/src/hid/encoder.h **** /** 
  11:../libDaisy/src/hid/encoder.h ****     @brief Generic Class for handling Quadrature Encoders \n 
  12:../libDaisy/src/hid/encoder.h ****     Inspired/influenced by Mutable Instruments (pichenettes) Encoder classes
  13:../libDaisy/src/hid/encoder.h ****     @author Stephen Hensley
  14:../libDaisy/src/hid/encoder.h ****     @date December 2019
  15:../libDaisy/src/hid/encoder.h ****     @ingroup controls
  16:../libDaisy/src/hid/encoder.h **** */
  17:../libDaisy/src/hid/encoder.h **** class Encoder
  18:../libDaisy/src/hid/encoder.h **** {
  19:../libDaisy/src/hid/encoder.h ****   public:
  20:../libDaisy/src/hid/encoder.h ****     Encoder() {}
  21:../libDaisy/src/hid/encoder.h ****     ~Encoder() {}
  22:../libDaisy/src/hid/encoder.h **** 
  23:../libDaisy/src/hid/encoder.h ****     /** Initializes the encoder with the specified hardware pins.
  24:../libDaisy/src/hid/encoder.h ****      * Update rate is to be deprecated in a future release
  25:../libDaisy/src/hid/encoder.h ****      */
  26:../libDaisy/src/hid/encoder.h ****     void Init(dsy_gpio_pin a,
  27:../libDaisy/src/hid/encoder.h ****               dsy_gpio_pin b,
  28:../libDaisy/src/hid/encoder.h ****               dsy_gpio_pin click,
  29:../libDaisy/src/hid/encoder.h ****               float        update_rate = 0.f);
  30:../libDaisy/src/hid/encoder.h ****     /** Called at update_rate to debounce and handle timing for the switch.
  31:../libDaisy/src/hid/encoder.h ****      * In order for events not to be missed, its important that the Edge/Pressed checks be made at 
  32:../libDaisy/src/hid/encoder.h ****      */
  33:../libDaisy/src/hid/encoder.h ****     void Debounce();
  34:../libDaisy/src/hid/encoder.h **** 
  35:../libDaisy/src/hid/encoder.h ****     /** Returns +1 if the encoder was turned clockwise, -1 if it was turned counter-clockwise, or 0
  36:../libDaisy/src/hid/encoder.h ****     inline int32_t Increment() const { return updated_ ? inc_ : 0; }
 810              		.loc 3 36 20 is_stmt 1 view .LVU205
 811              	.LBB141:
 812              		.loc 3 36 40 view .LVU206
 813              		.loc 3 36 56 is_stmt 0 view .LVU207
 814 0002 93F84400 		ldrb	r0, [r3, #68]	@ zero_extendqisi2
 815              	.LVL50:
 816              		.loc 3 36 56 view .LVU208
 817 0006 00B1     		cbz	r0, .L57
 818 0008 586E     		ldr	r0, [r3, #100]
 819              	.L57:
 820              	.LBE141:
 821              	.LBE140:
 173:UIManager.cpp **** 
 822              		.loc 1 173 1 view .LVU209
 823 000a 7047     		bx	lr
 824              		.cfi_endproc
 825              	.LFE2584:
 827              		.section	.text._ZN9UIManager14EncoderPressedEv,"ax",%progbits
 828              		.align	1
 829              		.p2align 2,,3
 830              		.global	_ZN9UIManager14EncoderPressedEv
 831              		.syntax unified
 832              		.thumb
 833              		.thumb_func
 835              	_ZN9UIManager14EncoderPressedEv:
 836              	.LVL51:
 837              	.LFB2585:
 175:UIManager.cpp ****   return pod_.encoder.FallingEdge();
 838              		.loc 1 175 33 is_stmt 1 view -0
 839              		.cfi_startproc
ARM GAS  /var/folders/2p/02m_5p7958535cp2tpgps0400000gn/T//ccFNlQE7.s 			page 26


 840              		@ args = 0, pretend = 0, frame = 0
 841              		@ frame_needed = 0, uses_anonymous_args = 0
 842              		@ link register save eliminated.
 176:UIManager.cpp **** }
 843              		.loc 1 176 3 view .LVU211
 176:UIManager.cpp **** }
 844              		.loc 1 176 10 is_stmt 0 view .LVU212
 845 0000 0368     		ldr	r3, [r0]
 846              	.LVL52:
 847              	.LBB142:
 848              	.LBI142:
  37:../libDaisy/src/hid/encoder.h **** 
  38:../libDaisy/src/hid/encoder.h ****     /** Returns true if the encoder was just pressed. */
  39:../libDaisy/src/hid/encoder.h ****     inline bool RisingEdge() const { return sw_.RisingEdge(); }
  40:../libDaisy/src/hid/encoder.h **** 
  41:../libDaisy/src/hid/encoder.h ****     /** Returns true if the encoder was just released. */
  42:../libDaisy/src/hid/encoder.h ****     inline bool FallingEdge() const { return sw_.FallingEdge(); }
 849              		.loc 3 42 17 is_stmt 1 view .LVU213
 850              	.LBE142:
 851              		.loc 3 42 39 view .LVU214
 852              	.LBB145:
 853              	.LBB143:
 854              	.LBI143:
 855              		.file 4 "../libDaisy/src/hid/switch.h"
   1:../libDaisy/src/hid/switch.h **** #pragma once
   2:../libDaisy/src/hid/switch.h **** #ifndef DSY_SWITCH_H
   3:../libDaisy/src/hid/switch.h **** #define DSY_SWITCH_H
   4:../libDaisy/src/hid/switch.h **** #include "daisy_core.h"
   5:../libDaisy/src/hid/switch.h **** #include "per/gpio.h"
   6:../libDaisy/src/hid/switch.h **** #include "sys/system.h"
   7:../libDaisy/src/hid/switch.h **** 
   8:../libDaisy/src/hid/switch.h **** namespace daisy
   9:../libDaisy/src/hid/switch.h **** {
  10:../libDaisy/src/hid/switch.h **** /** 
  11:../libDaisy/src/hid/switch.h ****     Generic Class for handling momentary/latching switches \n 
  12:../libDaisy/src/hid/switch.h ****     Inspired/influenced by Mutable Instruments (pichenettes) Switch classes
  13:../libDaisy/src/hid/switch.h ****     @author Stephen Hensley
  14:../libDaisy/src/hid/switch.h ****     @date December 2019
  15:../libDaisy/src/hid/switch.h ****     @ingroup controls
  16:../libDaisy/src/hid/switch.h **** */
  17:../libDaisy/src/hid/switch.h **** class Switch
  18:../libDaisy/src/hid/switch.h **** {
  19:../libDaisy/src/hid/switch.h ****   public:
  20:../libDaisy/src/hid/switch.h ****     /** Specifies the expected behavior of the switch */
  21:../libDaisy/src/hid/switch.h ****     enum Type
  22:../libDaisy/src/hid/switch.h ****     {
  23:../libDaisy/src/hid/switch.h ****         TYPE_TOGGLE,    /**< & */
  24:../libDaisy/src/hid/switch.h ****         TYPE_MOMENTARY, /**< & */
  25:../libDaisy/src/hid/switch.h ****     };
  26:../libDaisy/src/hid/switch.h ****     /** Specifies whether the pressed is HIGH or LOW. */
  27:../libDaisy/src/hid/switch.h ****     enum Polarity
  28:../libDaisy/src/hid/switch.h ****     {
  29:../libDaisy/src/hid/switch.h ****         POLARITY_NORMAL,   /**< & */
  30:../libDaisy/src/hid/switch.h ****         POLARITY_INVERTED, /**< & */
  31:../libDaisy/src/hid/switch.h ****     };
  32:../libDaisy/src/hid/switch.h **** 
  33:../libDaisy/src/hid/switch.h ****     /** Specifies whether to use built-in Pull Up/Down resistors to hold button at a given state wh
ARM GAS  /var/folders/2p/02m_5p7958535cp2tpgps0400000gn/T//ccFNlQE7.s 			page 27


  34:../libDaisy/src/hid/switch.h ****     enum Pull
  35:../libDaisy/src/hid/switch.h ****     {
  36:../libDaisy/src/hid/switch.h ****         PULL_UP,   /**< & */
  37:../libDaisy/src/hid/switch.h ****         PULL_DOWN, /**< & */
  38:../libDaisy/src/hid/switch.h ****         PULL_NONE, /**< & */
  39:../libDaisy/src/hid/switch.h ****     };
  40:../libDaisy/src/hid/switch.h **** 
  41:../libDaisy/src/hid/switch.h ****     Switch() {}
  42:../libDaisy/src/hid/switch.h ****     ~Switch() {}
  43:../libDaisy/src/hid/switch.h **** 
  44:../libDaisy/src/hid/switch.h ****     /** 
  45:../libDaisy/src/hid/switch.h ****     Initializes the switch object with a given port/pin combo.
  46:../libDaisy/src/hid/switch.h ****     \param pin port/pin object to tell the switch which hardware pin to use.
  47:../libDaisy/src/hid/switch.h ****     \param update_rate Does nothing. Backwards compatibility until next breaking update.
  48:../libDaisy/src/hid/switch.h ****     \param t switch type -- Default: TYPE_MOMENTARY
  49:../libDaisy/src/hid/switch.h ****     \param pol switch polarity -- Default: POLARITY_INVERTED
  50:../libDaisy/src/hid/switch.h ****     \param pu switch pull up/down -- Default: PULL_UP
  51:../libDaisy/src/hid/switch.h ****     */
  52:../libDaisy/src/hid/switch.h ****     void
  53:../libDaisy/src/hid/switch.h ****     Init(dsy_gpio_pin pin, float update_rate, Type t, Polarity pol, Pull pu);
  54:../libDaisy/src/hid/switch.h **** 
  55:../libDaisy/src/hid/switch.h ****     /**
  56:../libDaisy/src/hid/switch.h ****        Simplified Init.
  57:../libDaisy/src/hid/switch.h ****        \param pin port/pin object to tell the switch which hardware pin to use.
  58:../libDaisy/src/hid/switch.h ****        \param update_rate Left for backwards compatibility until next breaking change.
  59:../libDaisy/src/hid/switch.h ****     */
  60:../libDaisy/src/hid/switch.h ****     void Init(dsy_gpio_pin pin, float update_rate = 0.f);
  61:../libDaisy/src/hid/switch.h **** 
  62:../libDaisy/src/hid/switch.h ****     /** 
  63:../libDaisy/src/hid/switch.h ****     Called at update_rate to debounce and handle timing for the switch.
  64:../libDaisy/src/hid/switch.h ****     In order for events not to be missed, its important that the Edge/Pressed checks
  65:../libDaisy/src/hid/switch.h ****     be made at the same rate as the debounce function is being called.
  66:../libDaisy/src/hid/switch.h ****     */
  67:../libDaisy/src/hid/switch.h ****     void Debounce();
  68:../libDaisy/src/hid/switch.h **** 
  69:../libDaisy/src/hid/switch.h ****     /** \return true if a button was just pressed. */
  70:../libDaisy/src/hid/switch.h ****     inline bool RisingEdge() const { return updated_ ? state_ == 0x7f : false; }
  71:../libDaisy/src/hid/switch.h **** 
  72:../libDaisy/src/hid/switch.h ****     /** \return true if the button was just released */
  73:../libDaisy/src/hid/switch.h ****     inline bool FallingEdge() const
 856              		.loc 4 73 17 view .LVU215
 857              	.LBB144:
  74:../libDaisy/src/hid/switch.h ****     {
  75:../libDaisy/src/hid/switch.h ****         return updated_ ? state_ == 0x80 : false;
 858              		.loc 4 75 9 view .LVU216
 859              		.loc 4 75 16 is_stmt 0 view .LVU217
 860 0002 93F84C00 		ldrb	r0, [r3, #76]	@ zero_extendqisi2
 861              	.LVL53:
 862              		.loc 4 75 25 view .LVU218
 863 0006 30B1     		cbz	r0, .L61
 864 0008 93F85200 		ldrb	r0, [r3, #82]	@ zero_extendqisi2
 865 000c A0F18000 		sub	r0, #128
 866 0010 B0FA80F0 		clz	r0, r0
 867 0014 4009     		lsrs	r0, r0, #5
 868              	.L61:
 869              	.LVL54:
 870              		.loc 4 75 25 view .LVU219
ARM GAS  /var/folders/2p/02m_5p7958535cp2tpgps0400000gn/T//ccFNlQE7.s 			page 28


 871              	.LBE144:
 872              	.LBE143:
 873              	.LBE145:
 177:UIManager.cpp **** 
 874              		.loc 1 177 1 view .LVU220
 875 0016 7047     		bx	lr
 876              		.cfi_endproc
 877              	.LFE2585:
 879              		.section	.text._ZN9UIManager16EncoderLongPressEv,"ax",%progbits
 880              		.align	1
 881              		.p2align 2,,3
 882              		.global	_ZN9UIManager16EncoderLongPressEv
 883              		.syntax unified
 884              		.thumb
 885              		.thumb_func
 887              	_ZN9UIManager16EncoderLongPressEv:
 888              	.LVL55:
 889              	.LFB2586:
 179:UIManager.cpp ****   return pod_.encoder.TimeHeldMs() > 1000.0f;
 890              		.loc 1 179 35 is_stmt 1 view -0
 891              		.cfi_startproc
 892              		@ args = 0, pretend = 0, frame = 0
 893              		@ frame_needed = 0, uses_anonymous_args = 0
 180:UIManager.cpp **** }
 894              		.loc 1 180 3 view .LVU222
 179:UIManager.cpp ****   return pod_.encoder.TimeHeldMs() > 1000.0f;
 895              		.loc 1 179 35 is_stmt 0 view .LVU223
 896 0000 10B5     		push	{r4, lr}
 897              		.cfi_def_cfa_offset 8
 898              		.cfi_offset 4, -8
 899              		.cfi_offset 14, -4
 180:UIManager.cpp **** }
 900              		.loc 1 180 10 view .LVU224
 901 0002 0468     		ldr	r4, [r0]
 902              	.LVL56:
 903              	.LBB162:
 904              	.LBI162:
  43:../libDaisy/src/hid/encoder.h **** 
  44:../libDaisy/src/hid/encoder.h ****     /** Returns true while the encoder is held down.*/
  45:../libDaisy/src/hid/encoder.h ****     inline bool Pressed() const { return sw_.Pressed(); }
  46:../libDaisy/src/hid/encoder.h **** 
  47:../libDaisy/src/hid/encoder.h ****     /** Returns the time in milliseconds that the encoder has been held down. */
  48:../libDaisy/src/hid/encoder.h ****     inline float TimeHeldMs() const { return sw_.TimeHeldMs(); }
 905              		.loc 3 48 18 is_stmt 1 view .LVU225
 906              	.LBE162:
 907              		.loc 3 48 39 view .LVU226
 908              	.LBB175:
 909              	.LBB163:
 910              	.LBI163:
  76:../libDaisy/src/hid/switch.h ****     }
  77:../libDaisy/src/hid/switch.h **** 
  78:../libDaisy/src/hid/switch.h ****     /** \return true if the button is held down (or if the toggle is on) */
  79:../libDaisy/src/hid/switch.h ****     inline bool Pressed() const { return state_ == 0xff; }
  80:../libDaisy/src/hid/switch.h **** 
  81:../libDaisy/src/hid/switch.h ****     /** \return true if the button is held down, without debouncing */
  82:../libDaisy/src/hid/switch.h ****     inline bool RawState()
  83:../libDaisy/src/hid/switch.h ****     {
ARM GAS  /var/folders/2p/02m_5p7958535cp2tpgps0400000gn/T//ccFNlQE7.s 			page 29


  84:../libDaisy/src/hid/switch.h ****         return flip_ ? !dsy_gpio_read(&hw_gpio_) : dsy_gpio_read(&hw_gpio_);
  85:../libDaisy/src/hid/switch.h ****     }
  86:../libDaisy/src/hid/switch.h **** 
  87:../libDaisy/src/hid/switch.h ****     /** \return the time in milliseconds that the button has been held (or toggle has been on) */
  88:../libDaisy/src/hid/switch.h ****     inline float TimeHeldMs() const
 911              		.loc 4 88 18 view .LVU227
 912              	.LBB164:
  89:../libDaisy/src/hid/switch.h ****     {
  90:../libDaisy/src/hid/switch.h ****         return Pressed() ? System::GetNow() - rising_edge_time_ : 0;
 913              		.loc 4 90 9 view .LVU228
 914              	.LBB165:
 915              	.LBI165:
  79:../libDaisy/src/hid/switch.h **** 
 916              		.loc 4 79 17 view .LVU229
 917              	.LBB166:
  79:../libDaisy/src/hid/switch.h **** 
 918              		.loc 4 79 35 view .LVU230
  79:../libDaisy/src/hid/switch.h **** 
 919              		.loc 4 79 35 is_stmt 0 view .LVU231
 920              	.LBE166:
 921              	.LBE165:
 922              		.loc 4 90 26 view .LVU232
 923 0004 94F85230 		ldrb	r3, [r4, #82]	@ zero_extendqisi2
 924 0008 FF2B     		cmp	r3, #255
 925 000a 01D0     		beq	.L69
 926 000c 0020     		movs	r0, #0
 927              	.LVL57:
 928              		.loc 4 90 26 view .LVU233
 929              	.LBE164:
 930              	.LBE163:
 931              	.LBE175:
 181:UIManager.cpp **** 
 932              		.loc 1 181 1 view .LVU234
 933 000e 10BD     		pop	{r4, pc}
 934              	.LVL58:
 935              	.L69:
 936              	.LBB176:
 937              	.LBB173:
 938              	.LBB171:
 939              	.LBB167:
 940              	.LBI167:
  88:../libDaisy/src/hid/switch.h ****     {
 941              		.loc 4 88 18 is_stmt 1 view .LVU235
 942              	.LBB168:
 943              		.loc 4 90 42 is_stmt 0 view .LVU236
 944 0010 FFF7FEFF 		bl	_ZN5daisy6System6GetNowEv
 945              	.LVL59:
 946              		.loc 4 90 45 view .LVU237
 947 0014 07EE900A 		vmov	s15, r0	@ int
 948              		.loc 4 90 26 view .LVU238
 949 0018 D4ED156A 		vldr.32	s13, [r4, #84]
 950              		.loc 4 90 45 view .LVU239
 951 001c F8EE677A 		vcvt.f32.u32	s15, s15
 952              	.LBE168:
 953              	.LBE167:
 954              	.LBE171:
 955              	.LBE173:
ARM GAS  /var/folders/2p/02m_5p7958535cp2tpgps0400000gn/T//ccFNlQE7.s 			page 30


 956              	.LBE176:
 180:UIManager.cpp **** }
 957              		.loc 1 180 38 view .LVU240
 958 0020 9FED057A 		vldr.32	s14, .L70
 959              	.LBB177:
 960              	.LBB174:
 961              	.LBB172:
 962              	.LBB170:
 963              	.LBB169:
 964              		.loc 4 90 26 view .LVU241
 965 0024 77EEE67A 		vsub.f32	s15, s15, s13
 966              	.LBE169:
 967              	.LBE170:
 968              	.LBE172:
 969              	.LBE174:
 970              	.LBE177:
 180:UIManager.cpp **** }
 971              		.loc 1 180 38 view .LVU242
 972 0028 F4EEC77A 		vcmpe.f32	s15, s14
 973 002c F1EE10FA 		vmrs	APSR_nzcv, FPSCR
 974 0030 CCBF     		ite	gt
 975 0032 0120     		movgt	r0, #1
 976 0034 0020     		movle	r0, #0
 977              	.LVL60:
 181:UIManager.cpp **** 
 978              		.loc 1 181 1 view .LVU243
 979 0036 10BD     		pop	{r4, pc}
 980              	.L71:
 981              		.align	2
 982              	.L70:
 983 0038 00007A44 		.word	1148846080
 984              		.cfi_endproc
 985              	.LFE2586:
 987              		.section	.text._ZN9UIManager14Button1PressedEv,"ax",%progbits
 988              		.align	1
 989              		.p2align 2,,3
 990              		.global	_ZN9UIManager14Button1PressedEv
 991              		.syntax unified
 992              		.thumb
 993              		.thumb_func
 995              	_ZN9UIManager14Button1PressedEv:
 996              	.LVL61:
 997              	.LFB2587:
 183:UIManager.cpp ****   return pod_.button1.FallingEdge();
 998              		.loc 1 183 33 is_stmt 1 view -0
 999              		.cfi_startproc
 1000              		@ args = 0, pretend = 0, frame = 0
 1001              		@ frame_needed = 0, uses_anonymous_args = 0
 1002              		@ link register save eliminated.
 184:UIManager.cpp **** }
 1003              		.loc 1 184 3 view .LVU245
 184:UIManager.cpp **** }
 1004              		.loc 1 184 10 is_stmt 0 view .LVU246
 1005 0000 0368     		ldr	r3, [r0]
 1006              	.LVL62:
 1007              	.LBB178:
 1008              	.LBI178:
ARM GAS  /var/folders/2p/02m_5p7958535cp2tpgps0400000gn/T//ccFNlQE7.s 			page 31


  73:../libDaisy/src/hid/switch.h ****     {
 1009              		.loc 4 73 17 is_stmt 1 view .LVU247
 1010              	.LBB179:
  75:../libDaisy/src/hid/switch.h ****     }
 1011              		.loc 4 75 9 view .LVU248
  75:../libDaisy/src/hid/switch.h ****     }
 1012              		.loc 4 75 16 is_stmt 0 view .LVU249
 1013 0002 93F8B400 		ldrb	r0, [r3, #180]	@ zero_extendqisi2
 1014              	.LVL63:
  75:../libDaisy/src/hid/switch.h ****     }
 1015              		.loc 4 75 25 view .LVU250
 1016 0006 30B1     		cbz	r0, .L73
 1017 0008 93F8BA00 		ldrb	r0, [r3, #186]	@ zero_extendqisi2
 1018 000c A0F18000 		sub	r0, #128
 1019 0010 B0FA80F0 		clz	r0, r0
 1020 0014 4009     		lsrs	r0, r0, #5
 1021              	.L73:
 1022              	.LVL64:
  75:../libDaisy/src/hid/switch.h ****     }
 1023              		.loc 4 75 25 view .LVU251
 1024              	.LBE179:
 1025              	.LBE178:
 185:UIManager.cpp **** 
 1026              		.loc 1 185 1 view .LVU252
 1027 0016 7047     		bx	lr
 1028              		.cfi_endproc
 1029              	.LFE2587:
 1031              		.section	.text._ZN9UIManager14Button2PressedEv,"ax",%progbits
 1032              		.align	1
 1033              		.p2align 2,,3
 1034              		.global	_ZN9UIManager14Button2PressedEv
 1035              		.syntax unified
 1036              		.thumb
 1037              		.thumb_func
 1039              	_ZN9UIManager14Button2PressedEv:
 1040              	.LVL65:
 1041              	.LFB2588:
 187:UIManager.cpp ****   return pod_.button2.FallingEdge();
 1042              		.loc 1 187 33 is_stmt 1 view -0
 1043              		.cfi_startproc
 1044              		@ args = 0, pretend = 0, frame = 0
 1045              		@ frame_needed = 0, uses_anonymous_args = 0
 1046              		@ link register save eliminated.
 188:UIManager.cpp **** }
 1047              		.loc 1 188 3 view .LVU254
 188:UIManager.cpp **** }
 1048              		.loc 1 188 10 is_stmt 0 view .LVU255
 1049 0000 0368     		ldr	r3, [r0]
 1050              	.LVL66:
 1051              	.LBB180:
 1052              	.LBI180:
  73:../libDaisy/src/hid/switch.h ****     {
 1053              		.loc 4 73 17 is_stmt 1 view .LVU256
 1054              	.LBB181:
  75:../libDaisy/src/hid/switch.h ****     }
 1055              		.loc 4 75 9 view .LVU257
  75:../libDaisy/src/hid/switch.h ****     }
ARM GAS  /var/folders/2p/02m_5p7958535cp2tpgps0400000gn/T//ccFNlQE7.s 			page 32


 1056              		.loc 4 75 16 is_stmt 0 view .LVU258
 1057 0002 93F8C400 		ldrb	r0, [r3, #196]	@ zero_extendqisi2
 1058              	.LVL67:
  75:../libDaisy/src/hid/switch.h ****     }
 1059              		.loc 4 75 25 view .LVU259
 1060 0006 30B1     		cbz	r0, .L78
 1061 0008 93F8CA00 		ldrb	r0, [r3, #202]	@ zero_extendqisi2
 1062 000c A0F18000 		sub	r0, #128
 1063 0010 B0FA80F0 		clz	r0, r0
 1064 0014 4009     		lsrs	r0, r0, #5
 1065              	.L78:
 1066              	.LVL68:
  75:../libDaisy/src/hid/switch.h ****     }
 1067              		.loc 4 75 25 view .LVU260
 1068              	.LBE181:
 1069              	.LBE180:
 189:UIManager.cpp **** 
 1070              		.loc 1 189 1 view .LVU261
 1071 0016 7047     		bx	lr
 1072              		.cfi_endproc
 1073              	.LFE2588:
 1075              		.section	.text._ZN9UIManager16Button2LongPressEv,"ax",%progbits
 1076              		.align	1
 1077              		.p2align 2,,3
 1078              		.global	_ZN9UIManager16Button2LongPressEv
 1079              		.syntax unified
 1080              		.thumb
 1081              		.thumb_func
 1083              	_ZN9UIManager16Button2LongPressEv:
 1084              	.LVL69:
 1085              	.LFB2589:
 191:UIManager.cpp ****   return pod_.button2.TimeHeldMs() > 1000.0f;
 1086              		.loc 1 191 35 is_stmt 1 view -0
 1087              		.cfi_startproc
 1088              		@ args = 0, pretend = 0, frame = 0
 1089              		@ frame_needed = 0, uses_anonymous_args = 0
 192:UIManager.cpp **** }
 1090              		.loc 1 192 3 view .LVU263
 191:UIManager.cpp ****   return pod_.button2.TimeHeldMs() > 1000.0f;
 1091              		.loc 1 191 35 is_stmt 0 view .LVU264
 1092 0000 10B5     		push	{r4, lr}
 1093              		.cfi_def_cfa_offset 8
 1094              		.cfi_offset 4, -8
 1095              		.cfi_offset 14, -4
 192:UIManager.cpp **** }
 1096              		.loc 1 192 10 view .LVU265
 1097 0002 0468     		ldr	r4, [r0]
 1098              	.LVL70:
 1099              	.LBB190:
 1100              	.LBI190:
  88:../libDaisy/src/hid/switch.h ****     {
 1101              		.loc 4 88 18 is_stmt 1 view .LVU266
 1102              	.LBB191:
 1103              		.loc 4 90 9 view .LVU267
 1104              	.LBB192:
 1105              	.LBI192:
  79:../libDaisy/src/hid/switch.h **** 
ARM GAS  /var/folders/2p/02m_5p7958535cp2tpgps0400000gn/T//ccFNlQE7.s 			page 33


 1106              		.loc 4 79 17 view .LVU268
 1107              	.LBB193:
  79:../libDaisy/src/hid/switch.h **** 
 1108              		.loc 4 79 35 view .LVU269
  79:../libDaisy/src/hid/switch.h **** 
 1109              		.loc 4 79 35 is_stmt 0 view .LVU270
 1110              	.LBE193:
 1111              	.LBE192:
 1112              		.loc 4 90 26 view .LVU271
 1113 0004 94F8CA30 		ldrb	r3, [r4, #202]	@ zero_extendqisi2
 1114 0008 FF2B     		cmp	r3, #255
 1115 000a 01D0     		beq	.L86
 1116 000c 0020     		movs	r0, #0
 1117              	.LVL71:
 1118              		.loc 4 90 26 view .LVU272
 1119              	.LBE191:
 1120              	.LBE190:
 193:UIManager.cpp **** 
 1121              		.loc 1 193 1 view .LVU273
 1122 000e 10BD     		pop	{r4, pc}
 1123              	.LVL72:
 1124              	.L86:
 1125              	.LBB200:
 1126              	.LBB198:
 1127              	.LBB194:
 1128              	.LBI194:
  88:../libDaisy/src/hid/switch.h ****     {
 1129              		.loc 4 88 18 is_stmt 1 view .LVU274
 1130              	.LBB195:
 1131              		.loc 4 90 42 is_stmt 0 view .LVU275
 1132 0010 FFF7FEFF 		bl	_ZN5daisy6System6GetNowEv
 1133              	.LVL73:
 1134              		.loc 4 90 45 view .LVU276
 1135 0014 07EE900A 		vmov	s15, r0	@ int
 1136              		.loc 4 90 26 view .LVU277
 1137 0018 D4ED336A 		vldr.32	s13, [r4, #204]
 1138              		.loc 4 90 45 view .LVU278
 1139 001c F8EE677A 		vcvt.f32.u32	s15, s15
 1140              	.LBE195:
 1141              	.LBE194:
 1142              	.LBE198:
 1143              	.LBE200:
 192:UIManager.cpp **** }
 1144              		.loc 1 192 38 view .LVU279
 1145 0020 9FED057A 		vldr.32	s14, .L87
 1146              	.LBB201:
 1147              	.LBB199:
 1148              	.LBB197:
 1149              	.LBB196:
 1150              		.loc 4 90 26 view .LVU280
 1151 0024 77EEE67A 		vsub.f32	s15, s15, s13
 1152              	.LBE196:
 1153              	.LBE197:
 1154              	.LBE199:
 1155              	.LBE201:
 192:UIManager.cpp **** }
 1156              		.loc 1 192 38 view .LVU281
ARM GAS  /var/folders/2p/02m_5p7958535cp2tpgps0400000gn/T//ccFNlQE7.s 			page 34


 1157 0028 F4EEC77A 		vcmpe.f32	s15, s14
 1158 002c F1EE10FA 		vmrs	APSR_nzcv, FPSCR
 1159 0030 CCBF     		ite	gt
 1160 0032 0120     		movgt	r0, #1
 1161 0034 0020     		movle	r0, #0
 1162              	.LVL74:
 193:UIManager.cpp **** 
 1163              		.loc 1 193 1 view .LVU282
 1164 0036 10BD     		pop	{r4, pc}
 1165              	.L88:
 1166              		.align	2
 1167              	.L87:
 1168 0038 00007A44 		.word	1148846080
 1169              		.cfi_endproc
 1170              	.LFE2589:
 1172              		.section	.text._ZN9UIManager15MapKnobDeadzoneEf,"ax",%progbits
 1173              		.align	1
 1174              		.p2align 2,,3
 1175              		.global	_ZN9UIManager15MapKnobDeadzoneEf
 1176              		.syntax unified
 1177              		.thumb
 1178              		.thumb_func
 1180              	_ZN9UIManager15MapKnobDeadzoneEf:
 1181              	.LVL75:
 1182              	.LFB2590:
 195:UIManager.cpp ****   if (knob_val<=0.01f) return 0.0f;
 1183              		.loc 1 195 50 is_stmt 1 view -0
 1184              		.cfi_startproc
 1185              		@ args = 0, pretend = 0, frame = 0
 1186              		@ frame_needed = 0, uses_anonymous_args = 0
 1187              		@ link register save eliminated.
 196:UIManager.cpp ****   if (knob_val>=0.99f) return 1.0f;
 1188              		.loc 1 196 3 view .LVU284
 1189 0000 DFED0A7A 		vldr.32	s15, .L95
 1190 0004 B4EEE70A 		vcmpe.f32	s0, s15
 1191 0008 F1EE10FA 		vmrs	APSR_nzcv, FPSCR
 1192 000c 0AD9     		bls	.L92
 197:UIManager.cpp ****   return knob_val;
 1193              		.loc 1 197 3 view .LVU285
 1194 000e 9FED087A 		vldr.32	s14, .L95+4
 198:UIManager.cpp **** }
 1195              		.loc 1 198 10 is_stmt 0 view .LVU286
 1196 0012 F7EE007A 		vmov.f32	s15, #1.0e+0
 1197 0016 B4EEC70A 		vcmpe.f32	s0, s14
 1198 001a F1EE10FA 		vmrs	APSR_nzcv, FPSCR
 1199 001e 27FE800A 		vselge.f32	s0, s15, s0
 1200              	.LVL76:
 198:UIManager.cpp **** }
 1201              		.loc 1 198 10 view .LVU287
 1202 0022 7047     		bx	lr
 1203              	.LVL77:
 1204              	.L92:
 196:UIManager.cpp ****   if (knob_val>=0.99f) return 1.0f;
 1205              		.loc 1 196 31 view .LVU288
 1206 0024 9FED030A 		vldr.32	s0, .L95+8
 1207              	.LVL78:
 199:UIManager.cpp **** 
ARM GAS  /var/folders/2p/02m_5p7958535cp2tpgps0400000gn/T//ccFNlQE7.s 			page 35


 1208              		.loc 1 199 1 view .LVU289
 1209 0028 7047     		bx	lr
 1210              	.L96:
 1211 002a 00BF     		.align	2
 1212              	.L95:
 1213 002c 0AD7233C 		.word	1008981770
 1214 0030 A4707D3F 		.word	1065185444
 1215 0034 00000000 		.word	0
 1216              		.cfi_endproc
 1217              	.LFE2590:
 1219              		.section	.text._ZN9UIManager18UpdateKnobPassThruEfPfPb,"ax",%progbits
 1220              		.align	1
 1221              		.p2align 2,,3
 1222              		.global	_ZN9UIManager18UpdateKnobPassThruEfPfPb
 1223              		.syntax unified
 1224              		.thumb
 1225              		.thumb_func
 1227              	_ZN9UIManager18UpdateKnobPassThruEfPfPb:
 1228              	.LVL79:
 1229              	.LFB2591:
 207:UIManager.cpp ****   if (!(*pass_thru)){
 1230              		.loc 1 207 98 is_stmt 1 view -0
 1231              		.cfi_startproc
 1232              		@ args = 0, pretend = 0, frame = 0
 1233              		@ frame_needed = 0, uses_anonymous_args = 0
 1234              		@ link register save eliminated.
 208:UIManager.cpp ****     if (curr_knob_val >= (*stored_knob_val) || curr_knob_val <= (*stored_knob_val)) {
 1235              		.loc 1 208 3 view .LVU291
 1236 0000 1378     		ldrb	r3, [r2]	@ zero_extendqisi2
 1237 0002 33B1     		cbz	r3, .L102
 1238              	.L98:
 213:UIManager.cpp ****     (*stored_knob_val) = curr_knob_val;
 1239              		.loc 1 213 3 view .LVU292
 214:UIManager.cpp ****     return curr_knob_val;
 1240              		.loc 1 214 5 view .LVU293
 215:UIManager.cpp ****   }
 1241              		.loc 1 215 12 is_stmt 0 view .LVU294
 1242 0004 F0EE407A 		vmov.f32	s15, s0
 214:UIManager.cpp ****     return curr_knob_val;
 1243              		.loc 1 214 24 view .LVU295
 1244 0008 81ED000A 		vstr.32	s0, [r1]
 215:UIManager.cpp ****   }
 1245              		.loc 1 215 5 is_stmt 1 view .LVU296
 1246              	.L97:
 218:UIManager.cpp **** 
 1247              		.loc 1 218 1 is_stmt 0 view .LVU297
 1248 000c B0EE670A 		vmov.f32	s0, s15
 1249              	.LVL80:
 218:UIManager.cpp **** 
 1250              		.loc 1 218 1 view .LVU298
 1251 0010 7047     		bx	lr
 1252              	.LVL81:
 1253              	.L102:
 209:UIManager.cpp ****       (*pass_thru) = true;
 1254              		.loc 1 209 5 is_stmt 1 view .LVU299
 209:UIManager.cpp ****       (*pass_thru) = true;
 1255              		.loc 1 209 27 is_stmt 0 view .LVU300
ARM GAS  /var/folders/2p/02m_5p7958535cp2tpgps0400000gn/T//ccFNlQE7.s 			page 36


 1256 0012 D1ED007A 		vldr.32	s15, [r1]
 209:UIManager.cpp ****       (*pass_thru) = true;
 1257              		.loc 1 209 5 view .LVU301
 1258 0016 F4EEC07A 		vcmpe.f32	s15, s0
 1259 001a F1EE10FA 		vmrs	APSR_nzcv, FPSCR
 1260 001e 02D8     		bhi	.L103
 210:UIManager.cpp ****     }
 1261              		.loc 1 210 7 is_stmt 1 view .LVU302
 210:UIManager.cpp ****     }
 1262              		.loc 1 210 20 is_stmt 0 view .LVU303
 1263 0020 0123     		movs	r3, #1
 1264 0022 1370     		strb	r3, [r2]
 1265 0024 EEE7     		b	.L98
 1266              	.L103:
 209:UIManager.cpp ****       (*pass_thru) = true;
 1267              		.loc 1 209 45 discriminator 1 view .LVU304
 1268 0026 F1DB     		blt	.L97
 210:UIManager.cpp ****     }
 1269              		.loc 1 210 7 is_stmt 1 view .LVU305
 210:UIManager.cpp ****     }
 1270              		.loc 1 210 20 is_stmt 0 view .LVU306
 1271 0028 0123     		movs	r3, #1
 1272 002a 1370     		strb	r3, [r2]
 1273 002c EAE7     		b	.L98
 1274              		.cfi_endproc
 1275              	.LFE2591:
 1277 002e 00BF     		.section	.text._ZN9UIManager10SetupTimerEv,"ax",%progbits
 1278              		.align	1
 1279              		.p2align 2,,3
 1280              		.global	_ZN9UIManager10SetupTimerEv
 1281              		.syntax unified
 1282              		.thumb
 1283              		.thumb_func
 1285              	_ZN9UIManager10SetupTimerEv:
 1286              	.LVL82:
 1287              	.LFB2593:
 229:UIManager.cpp ****   TimerHandle::Config cfg;
 1288              		.loc 1 229 29 is_stmt 1 view -0
 1289              		.cfi_startproc
 1290              		@ args = 0, pretend = 0, frame = 16
 1291              		@ frame_needed = 0, uses_anonymous_args = 0
 230:UIManager.cpp ****   cfg.periph = TimerHandle::Config::Peripheral::TIM_5;
 1292              		.loc 1 230 3 view .LVU308
 229:UIManager.cpp ****   TimerHandle::Config cfg;
 1293              		.loc 1 229 29 is_stmt 0 view .LVU309
 1294 0000 70B5     		push	{r4, r5, r6, lr}
 1295              		.cfi_def_cfa_offset 16
 1296              		.cfi_offset 4, -16
 1297              		.cfi_offset 5, -12
 1298              		.cfi_offset 6, -8
 1299              		.cfi_offset 14, -4
 231:UIManager.cpp ****   // /* set period for 200ms pulse (1MHz/200,000 == 200ms) */
 1300              		.loc 1 231 14 view .LVU310
 1301 0002 0322     		movs	r2, #3
 229:UIManager.cpp ****   TimerHandle::Config cfg;
 1302              		.loc 1 229 29 view .LVU311
 1303 0004 84B0     		sub	sp, sp, #16
ARM GAS  /var/folders/2p/02m_5p7958535cp2tpgps0400000gn/T//ccFNlQE7.s 			page 37


 1304              		.cfi_def_cfa_offset 32
 1305              	.LVL83:
 1306              	.LBB202:
 1307              	.LBI202:
  75:../libDaisy/src/per/tim.h ****         : periph(Peripheral::TIM_2),
 1308              		.loc 2 75 9 is_stmt 1 view .LVU312
 1309              	.LBE202:
 237:UIManager.cpp ****   /* set 1Mhz tick frequency */
 1310              		.loc 1 237 14 is_stmt 0 view .LVU313
 1311 0006 00F10C05 		add	r5, r0, #12
 1312              	.LBB205:
 1313              	.LBB203:
 1314              	.LBB204:
 1315              		.loc 2 79 27 view .LVU314
 1316 000a 0021     		movs	r1, #0
 1317              	.LBE204:
 1318              	.LBE203:
 1319              	.LBE205:
 235:UIManager.cpp ****   cfg.enable_irq = true;
 1320              		.loc 1 235 14 view .LVU315
 1321 000c 42F21073 		movw	r3, #10000
 236:UIManager.cpp ****   timer_.Init(cfg);
 1322              		.loc 1 236 18 view .LVU316
 1323 0010 0126     		movs	r6, #1
 229:UIManager.cpp ****   TimerHandle::Config cfg;
 1324              		.loc 1 229 29 view .LVU317
 1325 0012 0446     		mov	r4, r0
 237:UIManager.cpp ****   /* set 1Mhz tick frequency */
 1326              		.loc 1 237 14 view .LVU318
 1327 0014 2846     		mov	r0, r5
 1328              	.LVL84:
 235:UIManager.cpp ****   cfg.enable_irq = true;
 1329              		.loc 1 235 14 view .LVU319
 1330 0016 0293     		str	r3, [sp, #8]
 236:UIManager.cpp ****   timer_.Init(cfg);
 1331              		.loc 1 236 18 view .LVU320
 1332 0018 8DF80C60 		strb	r6, [sp, #12]
 231:UIManager.cpp ****   // /* set period for 200ms pulse (1MHz/200,000 == 200ms) */
 1333              		.loc 1 231 14 view .LVU321
 1334 001c CDE90021 		strd	r2, r1, [sp]
 235:UIManager.cpp ****   cfg.enable_irq = true;
 1335              		.loc 1 235 3 is_stmt 1 view .LVU322
 236:UIManager.cpp ****   timer_.Init(cfg);
 1336              		.loc 1 236 3 view .LVU323
 237:UIManager.cpp ****   /* set 1Mhz tick frequency */
 1337              		.loc 1 237 3 view .LVU324
 237:UIManager.cpp ****   /* set 1Mhz tick frequency */
 1338              		.loc 1 237 14 is_stmt 0 view .LVU325
 1339 0020 6946     		mov	r1, sp
 1340 0022 FFF7FEFF 		bl	_ZN5daisy11TimerHandle4InitERKNS0_6ConfigE
 1341              	.LVL85:
 239:UIManager.cpp ****   pulse_increasing_ = true;
 1342              		.loc 1 239 3 is_stmt 1 view .LVU326
 239:UIManager.cpp ****   pulse_increasing_ = true;
 1343              		.loc 1 239 22 is_stmt 0 view .LVU327
 1344 0026 C721     		movs	r1, #199
 1345 0028 2846     		mov	r0, r5
ARM GAS  /var/folders/2p/02m_5p7958535cp2tpgps0400000gn/T//ccFNlQE7.s 			page 38


 1346 002a FFF7FEFF 		bl	_ZN5daisy11TimerHandle12SetPrescalerEm
 1347              	.LVL86:
 240:UIManager.cpp ****   timer_.SetCallback(StaticLedCallback, this);
 1348              		.loc 1 240 3 is_stmt 1 view .LVU328
 241:UIManager.cpp **** }
 1349              		.loc 1 241 21 is_stmt 0 view .LVU329
 1350 002e 2246     		mov	r2, r4
 1351 0030 0349     		ldr	r1, .L106
 1352 0032 2846     		mov	r0, r5
 240:UIManager.cpp ****   timer_.SetCallback(StaticLedCallback, this);
 1353              		.loc 1 240 21 view .LVU330
 1354 0034 2674     		strb	r6, [r4, #16]
 241:UIManager.cpp **** }
 1355              		.loc 1 241 3 is_stmt 1 view .LVU331
 241:UIManager.cpp **** }
 1356              		.loc 1 241 21 is_stmt 0 view .LVU332
 1357 0036 FFF7FEFF 		bl	_ZN5daisy11TimerHandle11SetCallbackEPFvPvES1_
 1358              	.LVL87:
 242:UIManager.cpp **** 
 1359              		.loc 1 242 1 view .LVU333
 1360 003a 04B0     		add	sp, sp, #16
 1361              		.cfi_def_cfa_offset 16
 1362              	.LVL88:
 242:UIManager.cpp **** 
 1363              		.loc 1 242 1 view .LVU334
 1364              		@ sp needed
 1365 003c 70BD     		pop	{r4, r5, r6, pc}
 1366              	.LVL89:
 1367              	.L107:
 242:UIManager.cpp **** 
 1368              		.loc 1 242 1 view .LVU335
 1369 003e 00BF     		.align	2
 1370              	.L106:
 1371 0040 00000000 		.word	_ZL17StaticLedCallbackPv
 1372              		.cfi_endproc
 1373              	.LFE2593:
 1375              		.section	.text._ZN9UIManager16SetLedRandomModeEv,"ax",%progbits
 1376              		.align	1
 1377              		.p2align 2,,3
 1378              		.global	_ZN9UIManager16SetLedRandomModeEv
 1379              		.syntax unified
 1380              		.thumb
 1381              		.thumb_func
 1383              	_ZN9UIManager16SetLedRandomModeEv:
 1384              	.LVL90:
 1385              	.LFB2596:
 312:UIManager.cpp ****   switch(synth_mode_){
 1386              		.loc 1 312 35 is_stmt 1 view -0
 1387              		.cfi_startproc
 1388              		@ args = 0, pretend = 0, frame = 0
 1389              		@ frame_needed = 0, uses_anonymous_args = 0
 313:UIManager.cpp ****     case SynthMode::Size_Position:
 1390              		.loc 1 313 3 view .LVU337
 313:UIManager.cpp ****     case SynthMode::Size_Position:
 1391              		.loc 1 313 10 is_stmt 0 view .LVU338
 1392 0000 8368     		ldr	r3, [r0, #8]
 313:UIManager.cpp ****     case SynthMode::Size_Position:
ARM GAS  /var/folders/2p/02m_5p7958535cp2tpgps0400000gn/T//ccFNlQE7.s 			page 39


 1393              		.loc 1 313 3 view .LVU339
 1394 0002 052B     		cmp	r3, #5
 312:UIManager.cpp ****   switch(synth_mode_){
 1395              		.loc 1 312 35 view .LVU340
 1396 0004 10B5     		push	{r4, lr}
 1397              		.cfi_def_cfa_offset 8
 1398              		.cfi_offset 4, -8
 1399              		.cfi_offset 14, -4
 312:UIManager.cpp ****   switch(synth_mode_){
 1400              		.loc 1 312 35 view .LVU341
 1401 0006 0446     		mov	r4, r0
 313:UIManager.cpp ****     case SynthMode::Size_Position:
 1402              		.loc 1 313 3 view .LVU342
 1403 0008 15DC     		bgt	.L109
 1404 000a 022B     		cmp	r3, #2
 1405 000c 16DC     		bgt	.L110
 1406 000e 14D8     		bhi	.L108
 1407              	.L112:
 1408              	.LVL91:
 1409              	.LBB212:
 1410              	.LBI212:
 312:UIManager.cpp ****   switch(synth_mode_){
 1411              		.loc 1 312 6 is_stmt 1 view .LVU343
 1412              	.LBE212:
 314:UIManager.cpp ****     case SynthMode::Pitch_ActiveGrains:
 1413              		.loc 1 314 5 view .LVU344
 315:UIManager.cpp ****     case SynthMode::PhasorMode_EnvType:
 1414              		.loc 1 315 5 view .LVU345
 316:UIManager.cpp ****     case SynthMode::Pan_PanRnd:
 1415              		.loc 1 316 5 view .LVU346
 317:UIManager.cpp ****       /* set led 2 to green*/
 1416              		.loc 1 317 5 view .LVU347
 319:UIManager.cpp ****       break;
 1417              		.loc 1 319 7 view .LVU348
 1418              	.LBB215:
 1419              	.LBB213:
 1420              	.LBI213:
 342:UIManager.cpp ****   if (is_Led1){
 1421              		.loc 1 342 6 view .LVU349
 1422              	.LBB214:
 343:UIManager.cpp ****     pod_.led1.Set(r,g,b);
 1423              		.loc 1 343 3 view .LVU350
 347:UIManager.cpp ****   }
 1424              		.loc 1 347 5 view .LVU351
 347:UIManager.cpp ****   }
 1425              		.loc 1 347 18 is_stmt 0 view .LVU352
 1426 0010 9FED0E1A 		vldr.32	s2, .L115
 1427 0014 2068     		ldr	r0, [r4]
 1428              	.LVL92:
 347:UIManager.cpp ****   }
 1429              		.loc 1 347 18 view .LVU353
 1430 0016 B0EE410A 		vmov.f32	s0, s2
 1431 001a DFED0D0A 		vldr.32	s1, .L115+4
 1432              	.LVL93:
 1433              	.L114:
 347:UIManager.cpp ****   }
 1434              		.loc 1 347 18 view .LVU354
ARM GAS  /var/folders/2p/02m_5p7958535cp2tpgps0400000gn/T//ccFNlQE7.s 			page 40


 1435              	.LBE214:
 1436              	.LBE213:
 1437              	.LBE215:
 1438              	.LBB216:
 1439              	.LBB217:
 1440 001e 00F59670 		add	r0, r0, #300
 1441 0022 FFF7FEFF 		bl	_ZN5daisy6RgbLed3SetEfff
 1442              	.LVL94:
 349:UIManager.cpp ****   System::Delay(10);
 1443              		.loc 1 349 3 is_stmt 1 view .LVU355
 349:UIManager.cpp ****   System::Delay(10);
 1444              		.loc 1 349 18 is_stmt 0 view .LVU356
 1445 0026 2068     		ldr	r0, [r4]
 1446 0028 FFF7FEFF 		bl	_ZN5daisy8DaisyPod10UpdateLedsEv
 1447              	.LVL95:
 1448              		.loc 1 350 3 is_stmt 1 view .LVU357
 1449              		.loc 1 350 16 is_stmt 0 view .LVU358
 1450 002c 0A20     		movs	r0, #10
 1451              	.LBE217:
 1452              	.LBE216:
 329:UIManager.cpp **** 
 1453              		.loc 1 329 1 view .LVU359
 1454 002e BDE81040 		pop	{r4, lr}
 1455              		.cfi_remember_state
 1456              		.cfi_restore 14
 1457              		.cfi_restore 4
 1458              		.cfi_def_cfa_offset 0
 1459              	.LVL96:
 1460              	.LBB220:
 1461              	.LBB218:
 1462              		.loc 1 350 16 view .LVU360
 1463 0032 FFF7FEBF 		b	_ZN5daisy6System5DelayEm
 1464              	.LVL97:
 1465              	.L109:
 1466              		.cfi_restore_state
 1467              		.loc 1 350 16 view .LVU361
 1468              	.LBE218:
 1469              	.LBE220:
 313:UIManager.cpp ****     case SynthMode::Size_Position:
 1470              		.loc 1 313 3 view .LVU362
 1471 0036 062B     		cmp	r3, #6
 1472 0038 EAD0     		beq	.L112
 1473              	.L108:
 329:UIManager.cpp **** 
 1474              		.loc 1 329 1 view .LVU363
 1475 003a 10BD     		pop	{r4, pc}
 1476              	.L110:
 322:UIManager.cpp ****     case SynthMode::Pitch_ActiveGrains_Rnd:
 1477              		.loc 1 322 5 is_stmt 1 view .LVU364
 323:UIManager.cpp ****     case SynthMode::PhasorMode_EnvType_Rnd:
 1478              		.loc 1 323 5 view .LVU365
 324:UIManager.cpp ****       /* set led 2 to red*/
 1479              		.loc 1 324 5 view .LVU366
 326:UIManager.cpp ****       break;
 1480              		.loc 1 326 7 view .LVU367
 1481              	.LVL98:
 1482              	.LBB221:
ARM GAS  /var/folders/2p/02m_5p7958535cp2tpgps0400000gn/T//ccFNlQE7.s 			page 41


 1483              	.LBI216:
 342:UIManager.cpp ****   if (is_Led1){
 1484              		.loc 1 342 6 view .LVU368
 1485              	.LBB219:
 343:UIManager.cpp ****     pod_.led1.Set(r,g,b);
 1486              		.loc 1 343 3 view .LVU369
 347:UIManager.cpp ****   }
 1487              		.loc 1 347 5 view .LVU370
 347:UIManager.cpp ****   }
 1488              		.loc 1 347 18 is_stmt 0 view .LVU371
 1489 003c 9FED031A 		vldr.32	s2, .L115
 1490 0040 0068     		ldr	r0, [r0]
 1491              	.LVL99:
 347:UIManager.cpp ****   }
 1492              		.loc 1 347 18 view .LVU372
 1493 0042 F0EE410A 		vmov.f32	s1, s2
 1494 0046 9FED020A 		vldr.32	s0, .L115+4
 1495 004a E8E7     		b	.L114
 1496              	.L116:
 1497              		.align	2
 1498              	.L115:
 1499 004c 00000000 		.word	0
 1500 0050 00007F43 		.word	1132396544
 1501              	.LBE219:
 1502              	.LBE221:
 1503              		.cfi_endproc
 1504              	.LFE2596:
 1506              		.section	.text._ZN9UIManager11UpdateStateEv,"ax",%progbits
 1507              		.align	1
 1508              		.p2align 2,,3
 1509              		.global	_ZN9UIManager11UpdateStateEv
 1510              		.syntax unified
 1511              		.thumb
 1512              		.thumb_func
 1514              	_ZN9UIManager11UpdateStateEv:
 1515              	.LVL100:
 1516              	.LFB2578:
  54:UIManager.cpp ****   pod_.ProcessDigitalControls();
 1517              		.loc 1 54 30 is_stmt 1 view -0
 1518              		.cfi_startproc
 1519              		@ args = 0, pretend = 0, frame = 0
 1520              		@ frame_needed = 0, uses_anonymous_args = 0
  55:UIManager.cpp ****   // TODO: change this to encoder pressed?? 
 1521              		.loc 1 55 3 view .LVU374
  54:UIManager.cpp ****   pod_.ProcessDigitalControls();
 1522              		.loc 1 54 30 is_stmt 0 view .LVU375
 1523 0000 38B5     		push	{r3, r4, r5, lr}
 1524              		.cfi_def_cfa_offset 16
 1525              		.cfi_offset 3, -16
 1526              		.cfi_offset 4, -12
 1527              		.cfi_offset 5, -8
 1528              		.cfi_offset 14, -4
  54:UIManager.cpp ****   pod_.ProcessDigitalControls();
 1529              		.loc 1 54 30 view .LVU376
 1530 0002 0446     		mov	r4, r0
  55:UIManager.cpp ****   // TODO: change this to encoder pressed?? 
 1531              		.loc 1 55 30 view .LVU377
ARM GAS  /var/folders/2p/02m_5p7958535cp2tpgps0400000gn/T//ccFNlQE7.s 			page 42


 1532 0004 0068     		ldr	r0, [r0]
 1533              	.LVL101:
  55:UIManager.cpp ****   // TODO: change this to encoder pressed?? 
 1534              		.loc 1 55 30 view .LVU378
 1535 0006 FFF7FEFF 		bl	_ZN5daisy8DaisyPod22ProcessDigitalControlsEv
 1536              	.LVL102:
  57:UIManager.cpp ****     switch(current_state_){
 1537              		.loc 1 57 3 is_stmt 1 view .LVU379
 1538              	.LBB246:
 1539              	.LBI246:
 183:UIManager.cpp ****   return pod_.button1.FallingEdge();
 1540              		.loc 1 183 6 view .LVU380
 1541              	.LBB247:
 184:UIManager.cpp **** }
 1542              		.loc 1 184 3 view .LVU381
 184:UIManager.cpp **** }
 1543              		.loc 1 184 10 is_stmt 0 view .LVU382
 1544 000a 2568     		ldr	r5, [r4]
 1545              	.LVL103:
 1546              	.LBB248:
 1547              	.LBI248:
  73:../libDaisy/src/hid/switch.h ****     {
 1548              		.loc 4 73 17 is_stmt 1 view .LVU383
 1549              	.LBB249:
  75:../libDaisy/src/hid/switch.h ****     }
 1550              		.loc 4 75 9 view .LVU384
  75:../libDaisy/src/hid/switch.h ****     }
 1551              		.loc 4 75 25 is_stmt 0 view .LVU385
 1552 000c 95F8B430 		ldrb	r3, [r5, #180]	@ zero_extendqisi2
 1553 0010 1BB1     		cbz	r3, .L118
 1554              	.LVL104:
  75:../libDaisy/src/hid/switch.h ****     }
 1555              		.loc 4 75 25 view .LVU386
 1556              	.LBE249:
 1557              	.LBE248:
 1558              	.LBE247:
 1559              	.LBE246:
  57:UIManager.cpp ****     switch(current_state_){
 1560              		.loc 1 57 3 view .LVU387
 1561 0012 95F8BA30 		ldrb	r3, [r5, #186]	@ zero_extendqisi2
 1562 0016 802B     		cmp	r3, #128
 1563 0018 30D0     		beq	.L142
 1564              	.L118:
  81:UIManager.cpp ****     switch(current_state_){
 1565              		.loc 1 81 3 is_stmt 1 view .LVU388
 1566              	.LVL105:
 1567              	.LBB250:
 1568              	.LBI250:
 187:UIManager.cpp ****   return pod_.button2.FallingEdge();
 1569              		.loc 1 187 6 view .LVU389
 1570              	.LBE250:
 188:UIManager.cpp **** }
 1571              		.loc 1 188 3 view .LVU390
 1572              	.LBB253:
 1573              	.LBB251:
 1574              	.LBI251:
  73:../libDaisy/src/hid/switch.h ****     {
ARM GAS  /var/folders/2p/02m_5p7958535cp2tpgps0400000gn/T//ccFNlQE7.s 			page 43


 1575              		.loc 4 73 17 view .LVU391
 1576              	.LBB252:
  75:../libDaisy/src/hid/switch.h ****     }
 1577              		.loc 4 75 9 view .LVU392
  75:../libDaisy/src/hid/switch.h ****     }
 1578              		.loc 4 75 25 is_stmt 0 view .LVU393
 1579 001a 95F8C430 		ldrb	r3, [r5, #196]	@ zero_extendqisi2
 1580 001e 33B1     		cbz	r3, .L129
 1581              	.LVL106:
  75:../libDaisy/src/hid/switch.h ****     }
 1582              		.loc 4 75 25 view .LVU394
 1583              	.LBE252:
 1584              	.LBE251:
 1585              	.LBE253:
  81:UIManager.cpp ****     switch(current_state_){
 1586              		.loc 1 81 3 view .LVU395
 1587 0020 95F8CA30 		ldrb	r3, [r5, #202]	@ zero_extendqisi2
 1588 0024 802B     		cmp	r3, #128
 1589 0026 02D1     		bne	.L129
  82:UIManager.cpp ****       case AppState::Synthesis:
 1590              		.loc 1 82 5 is_stmt 1 view .LVU396
 1591 0028 6368     		ldr	r3, [r4, #4]
 1592 002a 032B     		cmp	r3, #3
 1593 002c 4DD0     		beq	.L143
 1594              	.L129:
  92:UIManager.cpp ****     switch (current_state_){
 1595              		.loc 1 92 3 view .LVU397
 1596              	.LVL107:
 1597              	.LBB254:
 1598              	.LBI254:
 179:UIManager.cpp ****   return pod_.encoder.TimeHeldMs() > 1000.0f;
 1599              		.loc 1 179 6 view .LVU398
 1600              	.LBB255:
 180:UIManager.cpp **** }
 1601              		.loc 1 180 3 view .LVU399
 1602              	.LBB256:
 1603              	.LBI256:
 1604              		.loc 3 48 18 view .LVU400
 1605              	.LBE256:
 1606              	.LBE255:
 1607              	.LBE254:
 1608              		.loc 3 48 39 view .LVU401
 1609              	.LBB276:
 1610              	.LBB272:
 1611              	.LBB269:
 1612              	.LBB257:
 1613              	.LBI257:
  88:../libDaisy/src/hid/switch.h ****     {
 1614              		.loc 4 88 18 view .LVU402
 1615              	.LBB258:
 1616              		.loc 4 90 9 view .LVU403
 1617              	.LBB259:
 1618              	.LBI259:
  79:../libDaisy/src/hid/switch.h **** 
 1619              		.loc 4 79 17 view .LVU404
 1620              	.LBB260:
  79:../libDaisy/src/hid/switch.h **** 
ARM GAS  /var/folders/2p/02m_5p7958535cp2tpgps0400000gn/T//ccFNlQE7.s 			page 44


 1621              		.loc 4 79 35 view .LVU405
  79:../libDaisy/src/hid/switch.h **** 
 1622              		.loc 4 79 35 is_stmt 0 view .LVU406
 1623              	.LBE260:
 1624              	.LBE259:
 1625              		.loc 4 90 26 view .LVU407
 1626 002e 95F85230 		ldrb	r3, [r5, #82]	@ zero_extendqisi2
 1627 0032 FF2B     		cmp	r3, #255
 1628 0034 00D0     		beq	.L144
 1629              	.LVL108:
 1630              	.L117:
 1631              		.loc 4 90 26 view .LVU408
 1632              	.LBE258:
 1633              	.LBE257:
 1634              	.LBE269:
 1635              	.LBE272:
 1636              	.LBE276:
 103:UIManager.cpp **** 
 1637              		.loc 1 103 1 view .LVU409
 1638 0036 38BD     		pop	{r3, r4, r5, pc}
 1639              	.LVL109:
 1640              	.L144:
 1641              	.LBB277:
 1642              	.LBB273:
 1643              	.LBB270:
 1644              	.LBB267:
 1645              	.LBB265:
 1646              	.LBB261:
 1647              	.LBI261:
  88:../libDaisy/src/hid/switch.h ****     {
 1648              		.loc 4 88 18 is_stmt 1 view .LVU410
 1649              	.LBB262:
 1650              		.loc 4 90 42 is_stmt 0 view .LVU411
 1651 0038 FFF7FEFF 		bl	_ZN5daisy6System6GetNowEv
 1652              	.LVL110:
 1653              		.loc 4 90 45 view .LVU412
 1654 003c 07EE900A 		vmov	s15, r0	@ int
 1655              		.loc 4 90 26 view .LVU413
 1656 0040 D5ED156A 		vldr.32	s13, [r5, #84]
 1657              		.loc 4 90 45 view .LVU414
 1658 0044 F8EE677A 		vcvt.f32.u32	s15, s15
 1659              	.LBE262:
 1660              	.LBE261:
 1661              	.LBE265:
 1662              	.LBE267:
 1663              	.LBE270:
 1664              	.LBE273:
 1665              	.LBE277:
  92:UIManager.cpp ****     switch (current_state_){
 1666              		.loc 1 92 3 view .LVU415
 1667 0048 9FED297A 		vldr.32	s14, .L145
 1668              	.LBB278:
 1669              	.LBB274:
 1670              	.LBB271:
 1671              	.LBB268:
 1672              	.LBB266:
 1673              	.LBB264:
ARM GAS  /var/folders/2p/02m_5p7958535cp2tpgps0400000gn/T//ccFNlQE7.s 			page 45


 1674              	.LBB263:
 1675              		.loc 4 90 26 view .LVU416
 1676 004c 77EEE67A 		vsub.f32	s15, s15, s13
 1677              	.LBE263:
 1678              	.LBE264:
 1679              	.LBE266:
 1680              	.LBE268:
 1681              	.LBE271:
 1682              	.LBE274:
 1683              	.LBE278:
  92:UIManager.cpp ****     switch (current_state_){
 1684              		.loc 1 92 3 view .LVU417
 1685 0050 F4EEC77A 		vcmpe.f32	s15, s14
 1686 0054 F1EE10FA 		vmrs	APSR_nzcv, FPSCR
 1687 0058 EDDD     		ble	.L117
  93:UIManager.cpp ****       case AppState::Synthesis:
 1688              		.loc 1 93 5 is_stmt 1 view .LVU418
 1689 005a 6368     		ldr	r3, [r4, #4]
 1690 005c 032B     		cmp	r3, #3
 1691 005e EAD1     		bne	.L117
  94:UIManager.cpp ****         pod_.StopAudio();
 1692              		.loc 1 94 7 view .LVU419
  95:UIManager.cpp ****         current_state_ = AppState::SelectFile;
 1693              		.loc 1 95 9 view .LVU420
  95:UIManager.cpp ****         current_state_ = AppState::SelectFile;
 1694              		.loc 1 95 23 is_stmt 0 view .LVU421
 1695 0060 2068     		ldr	r0, [r4]
 1696 0062 FFF7FEFF 		bl	_ZN5daisy8DaisyPod9StopAudioEv
 1697              	.LVL111:
  96:UIManager.cpp ****         StartLedPulse();
 1698              		.loc 1 96 9 is_stmt 1 view .LVU422
  96:UIManager.cpp ****         StartLedPulse();
 1699              		.loc 1 96 24 is_stmt 0 view .LVU423
 1700 0066 0123     		movs	r3, #1
 1701              	.LBB279:
 1702              	.LBB280:
 334:UIManager.cpp ****   timer_.Start();
 1703              		.loc 1 334 16 view .LVU424
 1704 0068 0022     		movs	r2, #0
 335:UIManager.cpp **** }
 1705              		.loc 1 335 15 view .LVU425
 1706 006a 04F10C00 		add	r0, r4, #12
 1707              	.LBE280:
 1708              	.LBE279:
  96:UIManager.cpp ****         StartLedPulse();
 1709              		.loc 1 96 24 view .LVU426
 1710 006e 6360     		str	r3, [r4, #4]
  97:UIManager.cpp ****         break;
 1711              		.loc 1 97 9 is_stmt 1 view .LVU427
 1712              	.LVL112:
 1713              	.LBB283:
 1714              	.LBI279:
 331:UIManager.cpp ****   pulse_brightness_ = 0;
 1715              		.loc 1 331 6 view .LVU428
 1716              	.LBB281:
 332:UIManager.cpp ****   pulse_increasing_ = true;
 1717              		.loc 1 332 3 view .LVU429
ARM GAS  /var/folders/2p/02m_5p7958535cp2tpgps0400000gn/T//ccFNlQE7.s 			page 46


 333:UIManager.cpp ****   pulse_count_ = 0;
 1718              		.loc 1 333 3 view .LVU430
 334:UIManager.cpp ****   timer_.Start();
 1719              		.loc 1 334 3 view .LVU431
 333:UIManager.cpp ****   pulse_count_ = 0;
 1720              		.loc 1 333 21 is_stmt 0 view .LVU432
 1721 0070 2382     		strh	r3, [r4, #16]	@ movhi
 334:UIManager.cpp ****   timer_.Start();
 1722              		.loc 1 334 16 view .LVU433
 1723 0072 A274     		strb	r2, [r4, #18]
 335:UIManager.cpp **** }
 1724              		.loc 1 335 3 is_stmt 1 view .LVU434
 1725              	.LBE281:
 1726              	.LBE283:
 103:UIManager.cpp **** 
 1727              		.loc 1 103 1 is_stmt 0 view .LVU435
 1728 0074 BDE83840 		pop	{r3, r4, r5, lr}
 1729              		.cfi_remember_state
 1730              		.cfi_restore 14
 1731              		.cfi_restore 5
 1732              		.cfi_restore 4
 1733              		.cfi_restore 3
 1734              		.cfi_def_cfa_offset 0
 1735              	.LVL113:
 1736              	.LBB284:
 1737              	.LBB282:
 335:UIManager.cpp **** }
 1738              		.loc 1 335 15 view .LVU436
 1739 0078 FFF7FEBF 		b	_ZN5daisy11TimerHandle5StartEv
 1740              	.LVL114:
 1741              	.L142:
 1742              		.cfi_restore_state
 335:UIManager.cpp **** }
 1743              		.loc 1 335 15 view .LVU437
 1744              	.LBE282:
 1745              	.LBE284:
  58:UIManager.cpp ****       case AppState::Startup:
 1746              		.loc 1 58 5 is_stmt 1 view .LVU438
 1747 007c 6368     		ldr	r3, [r4, #4]
 1748 007e 032B     		cmp	r3, #3
 1749 0080 CBD8     		bhi	.L118
 1750 0082 DFE803F0 		tbb	[pc, r3]
 1751              	.L120:
 1752 0086 1F       		.byte	(.L123-.L120)/2
 1753 0087 1C       		.byte	(.L122-.L120)/2
 1754 0088 17       		.byte	(.L121-.L120)/2
 1755 0089 02       		.byte	(.L119-.L120)/2
 1756              		.p2align 1
 1757              	.L119:
  74:UIManager.cpp ****         UpdateSynthMode();
 1758              		.loc 1 74 7 view .LVU439
  75:UIManager.cpp ****         break;
 1759              		.loc 1 75 9 view .LVU440
 1760              	.LVL115:
 1761              	.LBB285:
 1762              	.LBI285:
 116:UIManager.cpp ****   switch(synth_mode_){
ARM GAS  /var/folders/2p/02m_5p7958535cp2tpgps0400000gn/T//ccFNlQE7.s 			page 47


 1763              		.loc 1 116 6 view .LVU441
 1764              	.LBB286:
 117:UIManager.cpp ****     case SynthMode::Size_Position:
 1765              		.loc 1 117 3 view .LVU442
 1766 008a A368     		ldr	r3, [r4, #8]
 1767 008c 062B     		cmp	r3, #6
 1768 008e C4D8     		bhi	.L118
 1769 0090 01A2     		adr	r2, .L125
 1770 0092 52F823F0 		ldr	pc, [r2, r3, lsl #2]
 1771 0096 00BF     		.p2align 2
 1772              	.L125:
 1773 0098 EB000000 		.word	.L128+1
 1774 009c E5000000 		.word	.L127+1
 1775 00a0 DF000000 		.word	.L126+1
 1776 00a4 1B000000 		.word	.L118+1
 1777 00a8 1B000000 		.word	.L118+1
 1778 00ac 1B000000 		.word	.L118+1
 1779 00b0 D9000000 		.word	.L124+1
 1780              	.LVL116:
 1781              		.p2align 1
 1782              	.L121:
 117:UIManager.cpp ****     case SynthMode::Size_Position:
 1783              		.loc 1 117 3 is_stmt 0 view .LVU443
 1784              	.LBE286:
 1785              	.LBE285:
  69:UIManager.cpp ****         current_state_ = AppState::Synthesis;
 1786              		.loc 1 69 7 is_stmt 1 view .LVU444
  70:UIManager.cpp ****         synth_mode_ = SynthMode::Size_Position;
 1787              		.loc 1 70 9 view .LVU445
  71:UIManager.cpp ****         // StopLedPulse(); 
 1788              		.loc 1 71 21 is_stmt 0 view .LVU446
 1789 00b4 0322     		movs	r2, #3
 1790 00b6 0023     		movs	r3, #0
 1791 00b8 C4E90123 		strd	r2, r3, [r4, #4]
  73:UIManager.cpp ****       case AppState::Synthesis:
 1792              		.loc 1 73 9 is_stmt 1 view .LVU447
 1793 00bc ADE7     		b	.L118
 1794              	.L122:
  64:UIManager.cpp ****         current_state_ = AppState::PlayWAV;
 1795              		.loc 1 64 7 view .LVU448
  65:UIManager.cpp ****         // NOTE: need to start audiocallback once file is successfully selected/loaded
 1796              		.loc 1 65 9 view .LVU449
  65:UIManager.cpp ****         // NOTE: need to start audiocallback once file is successfully selected/loaded
 1797              		.loc 1 65 24 is_stmt 0 view .LVU450
 1798 00be 0223     		movs	r3, #2
 1799 00c0 6360     		str	r3, [r4, #4]
  68:UIManager.cpp ****       case AppState::PlayWAV:
 1800              		.loc 1 68 9 is_stmt 1 view .LVU451
 1801 00c2 AAE7     		b	.L118
 1802              	.L123:
  59:UIManager.cpp ****         // NOTE: state should auto change to select file once startup is finished
 1803              		.loc 1 59 7 view .LVU452
  62:UIManager.cpp ****         break;
 1804              		.loc 1 62 9 view .LVU453
  62:UIManager.cpp ****         break;
 1805              		.loc 1 62 24 is_stmt 0 view .LVU454
 1806 00c4 0123     		movs	r3, #1
ARM GAS  /var/folders/2p/02m_5p7958535cp2tpgps0400000gn/T//ccFNlQE7.s 			page 48


 1807 00c6 6360     		str	r3, [r4, #4]
  63:UIManager.cpp ****       case AppState::SelectFile:
 1808              		.loc 1 63 9 is_stmt 1 view .LVU455
 1809 00c8 A7E7     		b	.L118
 1810              	.L143:
  83:UIManager.cpp ****         ToggleRandomnessControls();
 1811              		.loc 1 83 7 view .LVU456
  84:UIManager.cpp ****         SetLedRandomMode();
 1812              		.loc 1 84 9 view .LVU457
  84:UIManager.cpp ****         SetLedRandomMode();
 1813              		.loc 1 84 33 is_stmt 0 view .LVU458
 1814 00ca 2046     		mov	r0, r4
 1815 00cc FFF7FEFF 		bl	_ZN9UIManager24ToggleRandomnessControlsEv
 1816              	.LVL117:
  85:UIManager.cpp ****         break;
 1817              		.loc 1 85 9 is_stmt 1 view .LVU459
  85:UIManager.cpp ****         break;
 1818              		.loc 1 85 25 is_stmt 0 view .LVU460
 1819 00d0 FFF7FEFF 		bl	_ZN9UIManager16SetLedRandomModeEv
 1820              	.LVL118:
  86:UIManager.cpp ****       default:
 1821              		.loc 1 86 9 is_stmt 1 view .LVU461
 1822              	.LBB288:
 1823              	.LBB275:
 180:UIManager.cpp **** }
 1824              		.loc 1 180 10 is_stmt 0 view .LVU462
 1825 00d4 2568     		ldr	r5, [r4]
 1826              	.LBE275:
 1827              	.LBE288:
  86:UIManager.cpp ****       default:
 1828              		.loc 1 86 9 view .LVU463
 1829 00d6 AAE7     		b	.L129
 1830              	.LVL119:
 1831              	.L124:
 1832              	.LBB289:
 1833              	.LBB287:
 124:UIManager.cpp ****       synth_mode_ = SynthMode::PhasorMode_EnvType;
 1834              		.loc 1 124 5 is_stmt 1 view .LVU464
 125:UIManager.cpp ****       break;
 1835              		.loc 1 125 7 view .LVU465
 125:UIManager.cpp ****       break;
 1836              		.loc 1 125 19 is_stmt 0 view .LVU466
 1837 00d8 0223     		movs	r3, #2
 1838 00da A360     		str	r3, [r4, #8]
 126:UIManager.cpp ****     case SynthMode::PhasorMode_EnvType:
 1839              		.loc 1 126 7 is_stmt 1 view .LVU467
 1840 00dc 9DE7     		b	.L118
 1841              	.L126:
 127:UIManager.cpp ****       synth_mode_ = SynthMode::Size_Position;
 1842              		.loc 1 127 5 view .LVU468
 128:UIManager.cpp ****       break;
 1843              		.loc 1 128 7 view .LVU469
 128:UIManager.cpp ****       break;
 1844              		.loc 1 128 19 is_stmt 0 view .LVU470
 1845 00de 0023     		movs	r3, #0
 1846 00e0 A360     		str	r3, [r4, #8]
 129:UIManager.cpp ****     default:
ARM GAS  /var/folders/2p/02m_5p7958535cp2tpgps0400000gn/T//ccFNlQE7.s 			page 49


 1847              		.loc 1 129 7 is_stmt 1 view .LVU471
 1848 00e2 9AE7     		b	.L118
 1849              	.L127:
 121:UIManager.cpp ****       synth_mode_ = SynthMode::Pan_PanRnd;
 1850              		.loc 1 121 5 view .LVU472
 122:UIManager.cpp ****       break;
 1851              		.loc 1 122 7 view .LVU473
 122:UIManager.cpp ****       break;
 1852              		.loc 1 122 19 is_stmt 0 view .LVU474
 1853 00e4 0623     		movs	r3, #6
 1854 00e6 A360     		str	r3, [r4, #8]
 123:UIManager.cpp ****     case SynthMode::Pan_PanRnd:
 1855              		.loc 1 123 7 is_stmt 1 view .LVU475
 1856 00e8 97E7     		b	.L118
 1857              	.L128:
 118:UIManager.cpp ****       synth_mode_ = SynthMode::Pitch_ActiveGrains;
 1858              		.loc 1 118 5 view .LVU476
 119:UIManager.cpp ****       break;
 1859              		.loc 1 119 7 view .LVU477
 119:UIManager.cpp ****       break;
 1860              		.loc 1 119 19 is_stmt 0 view .LVU478
 1861 00ea 0123     		movs	r3, #1
 1862 00ec A360     		str	r3, [r4, #8]
 120:UIManager.cpp ****     case SynthMode::Pitch_ActiveGrains:
 1863              		.loc 1 120 7 is_stmt 1 view .LVU479
 1864 00ee 94E7     		b	.L118
 1865              	.L146:
 1866              		.align	2
 1867              	.L145:
 1868 00f0 00007A44 		.word	1148846080
 1869              	.LBE287:
 1870              	.LBE289:
 1871              		.cfi_endproc
 1872              	.LFE2578:
 1874              		.section	.text._ZN9UIManager14UpdateControlsEv,"ax",%progbits
 1875              		.align	1
 1876              		.p2align 2,,3
 1877              		.global	_ZN9UIManager14UpdateControlsEv
 1878              		.syntax unified
 1879              		.thumb
 1880              		.thumb_func
 1882              	_ZN9UIManager14UpdateControlsEv:
 1883              	.LVL120:
 1884              	.LFB2576:
   8:UIManager.cpp ****   if (!crash_error){
 1885              		.loc 1 8 33 view -0
 1886              		.cfi_startproc
 1887              		@ args = 0, pretend = 0, frame = 0
 1888              		@ frame_needed = 0, uses_anonymous_args = 0
   9:UIManager.cpp ****     // pod_.ProcessAllControls();
 1889              		.loc 1 9 3 view .LVU481
 1890 0000 C37C     		ldrb	r3, [r0, #19]	@ zero_extendqisi2
 1891 0002 4BB9     		cbnz	r3, .L147
 1892              	.LBB290:
 1893              	.LBB291:
 1894              	.LBB292:
  20:UIManager.cpp ****     int mode_idx = static_cast<int>(synth_mode_);
ARM GAS  /var/folders/2p/02m_5p7958535cp2tpgps0400000gn/T//ccFNlQE7.s 			page 50


 1895              		.loc 1 20 3 is_stmt 0 view .LVU482
 1896 0004 4368     		ldr	r3, [r0, #4]
 1897 0006 032B     		cmp	r3, #3
 1898              	.LBE292:
 1899              	.LBE291:
 1900              	.LBE290:
   8:UIManager.cpp ****   if (!crash_error){
 1901              		.loc 1 8 33 view .LVU483
 1902 0008 10B5     		push	{r4, lr}
 1903              		.cfi_def_cfa_offset 8
 1904              		.cfi_offset 4, -8
 1905              		.cfi_offset 14, -4
 1906 000a 0446     		mov	r4, r0
  11:UIManager.cpp ****       
 1907              		.loc 1 11 5 is_stmt 1 view .LVU484
 1908              	.LVL121:
 1909              	.LBB296:
 1910              	.LBI290:
  19:UIManager.cpp ****   if (current_state_ == AppState::Synthesis){
 1911              		.loc 1 19 6 view .LVU485
 1912              	.LBB294:
  20:UIManager.cpp ****     int mode_idx = static_cast<int>(synth_mode_);
 1913              		.loc 1 20 3 view .LVU486
 1914              	.LBB293:
 1915 000c 05D0     		beq	.L153
 1916              	.LVL122:
  20:UIManager.cpp ****     int mode_idx = static_cast<int>(synth_mode_);
 1917              		.loc 1 20 3 is_stmt 0 view .LVU487
 1918              	.LBE293:
 1919              	.LBE294:
 1920              	.LBE296:
  14:UIManager.cpp ****     // UpdateSynthMode();
 1921              		.loc 1 14 5 is_stmt 1 view .LVU488
  14:UIManager.cpp ****     // UpdateSynthMode();
 1922              		.loc 1 14 16 is_stmt 0 view .LVU489
 1923 000e 2046     		mov	r0, r4
  17:UIManager.cpp **** 
 1924              		.loc 1 17 1 view .LVU490
 1925 0010 BDE81040 		pop	{r4, lr}
 1926              		.cfi_restore 14
 1927              		.cfi_restore 4
 1928              		.cfi_def_cfa_offset 0
  14:UIManager.cpp ****     // UpdateSynthMode();
 1929              		.loc 1 14 16 view .LVU491
 1930 0014 FFF7FEBF 		b	_ZN9UIManager11UpdateStateEv
 1931              	.LVL123:
 1932              	.L147:
  14:UIManager.cpp ****     // UpdateSynthMode();
 1933              		.loc 1 14 16 view .LVU492
 1934 0018 7047     		bx	lr
 1935              	.LVL124:
 1936              	.L153:
 1937              		.cfi_def_cfa_offset 8
 1938              		.cfi_offset 4, -8
 1939              		.cfi_offset 14, -4
 1940              	.LBB297:
 1941              	.LBB295:
ARM GAS  /var/folders/2p/02m_5p7958535cp2tpgps0400000gn/T//ccFNlQE7.s 			page 51


  14:UIManager.cpp ****     // UpdateSynthMode();
 1942              		.loc 1 14 16 view .LVU493
 1943 001a FFF7FEFF 		bl	_ZN9UIManager11UpdateKnobsEv.part.0
 1944              	.LVL125:
  14:UIManager.cpp ****     // UpdateSynthMode();
 1945              		.loc 1 14 16 view .LVU494
 1946              	.LBE295:
 1947              	.LBE297:
  14:UIManager.cpp ****     // UpdateSynthMode();
 1948              		.loc 1 14 5 is_stmt 1 view .LVU495
  14:UIManager.cpp ****     // UpdateSynthMode();
 1949              		.loc 1 14 16 is_stmt 0 view .LVU496
 1950 001e 2046     		mov	r0, r4
  17:UIManager.cpp **** 
 1951              		.loc 1 17 1 view .LVU497
 1952 0020 BDE81040 		pop	{r4, lr}
 1953              		.cfi_restore 14
 1954              		.cfi_restore 4
 1955              		.cfi_def_cfa_offset 0
 1956              	.LVL126:
  14:UIManager.cpp ****     // UpdateSynthMode();
 1957              		.loc 1 14 16 view .LVU498
 1958 0024 FFF7FEBF 		b	_ZN9UIManager11UpdateStateEv
 1959              	.LVL127:
  14:UIManager.cpp ****     // UpdateSynthMode();
 1960              		.loc 1 14 16 view .LVU499
 1961              		.cfi_endproc
 1962              	.LFE2576:
 1964              		.section	.text._ZN9UIManager13StartLedPulseEv,"ax",%progbits
 1965              		.align	1
 1966              		.p2align 2,,3
 1967              		.global	_ZN9UIManager13StartLedPulseEv
 1968              		.syntax unified
 1969              		.thumb
 1970              		.thumb_func
 1972              	_ZN9UIManager13StartLedPulseEv:
 1973              	.LVL128:
 1974              	.LFB2597:
 331:UIManager.cpp ****   pulse_brightness_ = 0;
 1975              		.loc 1 331 32 is_stmt 1 view -0
 1976              		.cfi_startproc
 1977              		@ args = 0, pretend = 0, frame = 0
 1978              		@ frame_needed = 0, uses_anonymous_args = 0
 1979              		@ link register save eliminated.
 332:UIManager.cpp ****   pulse_increasing_ = true;
 1980              		.loc 1 332 3 view .LVU501
 333:UIManager.cpp ****   pulse_count_ = 0;
 1981              		.loc 1 333 3 view .LVU502
 334:UIManager.cpp ****   timer_.Start();
 1982              		.loc 1 334 3 view .LVU503
 331:UIManager.cpp ****   pulse_brightness_ = 0;
 1983              		.loc 1 331 32 is_stmt 0 view .LVU504
 1984 0000 0346     		mov	r3, r0
 333:UIManager.cpp ****   pulse_count_ = 0;
 1985              		.loc 1 333 21 view .LVU505
 1986 0002 0121     		movs	r1, #1
 334:UIManager.cpp ****   timer_.Start();
ARM GAS  /var/folders/2p/02m_5p7958535cp2tpgps0400000gn/T//ccFNlQE7.s 			page 52


 1987              		.loc 1 334 16 view .LVU506
 1988 0004 0022     		movs	r2, #0
 335:UIManager.cpp **** }
 1989              		.loc 1 335 15 view .LVU507
 1990 0006 0C30     		adds	r0, r0, #12
 1991              	.LVL129:
 333:UIManager.cpp ****   pulse_count_ = 0;
 1992              		.loc 1 333 21 view .LVU508
 1993 0008 1982     		strh	r1, [r3, #16]	@ movhi
 334:UIManager.cpp ****   timer_.Start();
 1994              		.loc 1 334 16 view .LVU509
 1995 000a 9A74     		strb	r2, [r3, #18]
 335:UIManager.cpp **** }
 1996              		.loc 1 335 3 is_stmt 1 view .LVU510
 335:UIManager.cpp **** }
 1997              		.loc 1 335 15 is_stmt 0 view .LVU511
 1998 000c FFF7FEBF 		b	_ZN5daisy11TimerHandle5StartEv
 1999              	.LVL130:
 335:UIManager.cpp **** }
 2000              		.loc 1 335 15 view .LVU512
 2001              		.cfi_endproc
 2002              	.LFE2597:
 2004              		.section	.text._ZN9UIManager12StopLedPulseEv,"ax",%progbits
 2005              		.align	1
 2006              		.p2align 2,,3
 2007              		.global	_ZN9UIManager12StopLedPulseEv
 2008              		.syntax unified
 2009              		.thumb
 2010              		.thumb_func
 2012              	_ZN9UIManager12StopLedPulseEv:
 2013              	.LVL131:
 2014              	.LFB2598:
 338:UIManager.cpp ****   timer_.Stop();
 2015              		.loc 1 338 31 is_stmt 1 view -0
 2016              		.cfi_startproc
 2017              		@ args = 0, pretend = 0, frame = 0
 2018              		@ frame_needed = 0, uses_anonymous_args = 0
 2019              		@ link register save eliminated.
 339:UIManager.cpp **** }
 2020              		.loc 1 339 3 view .LVU514
 339:UIManager.cpp **** }
 2021              		.loc 1 339 14 is_stmt 0 view .LVU515
 2022 0000 0C30     		adds	r0, r0, #12
 2023              	.LVL132:
 339:UIManager.cpp **** }
 2024              		.loc 1 339 14 view .LVU516
 2025 0002 FFF7FEBF 		b	_ZN5daisy11TimerHandle4StopEv
 2026              	.LVL133:
 339:UIManager.cpp **** }
 2027              		.loc 1 339 14 view .LVU517
 2028              		.cfi_endproc
 2029              	.LFE2598:
 2031 0006 00BF     		.section	.text._ZN9UIManager6SetLedEiiib,"ax",%progbits
 2032              		.align	1
 2033              		.p2align 2,,3
 2034              		.global	_ZN9UIManager6SetLedEiiib
 2035              		.syntax unified
ARM GAS  /var/folders/2p/02m_5p7958535cp2tpgps0400000gn/T//ccFNlQE7.s 			page 53


 2036              		.thumb
 2037              		.thumb_func
 2039              	_ZN9UIManager6SetLedEiiib:
 2040              	.LVL134:
 2041              	.LFB2599:
 342:UIManager.cpp ****   if (is_Led1){
 2042              		.loc 1 342 58 is_stmt 1 view -0
 2043              		.cfi_startproc
 2044              		@ args = 4, pretend = 0, frame = 0
 2045              		@ frame_needed = 0, uses_anonymous_args = 0
 343:UIManager.cpp ****     pod_.led1.Set(r,g,b);
 2046              		.loc 1 343 3 view .LVU519
 342:UIManager.cpp ****   if (is_Led1){
 2047              		.loc 1 342 58 is_stmt 0 view .LVU520
 2048 0000 38B5     		push	{r3, r4, r5, lr}
 2049              		.cfi_def_cfa_offset 16
 2050              		.cfi_offset 3, -16
 2051              		.cfi_offset 4, -12
 2052              		.cfi_offset 5, -8
 2053              		.cfi_offset 14, -4
 342:UIManager.cpp ****   if (is_Led1){
 2054              		.loc 1 342 58 view .LVU521
 2055 0002 00EE101A 		vmov	s0, r1	@ int
 2056 0006 00EE902A 		vmov	s1, r2	@ int
 2057 000a 01EE103A 		vmov	s2, r3	@ int
 2058 000e 9DF81050 		ldrb	r5, [sp, #16]	@ zero_extendqisi2
 2059 0012 0446     		mov	r4, r0
 344:UIManager.cpp ****   }
 2060              		.loc 1 344 18 view .LVU522
 2061 0014 F8EEE00A 		vcvt.f32.s32	s1, s1
 2062 0018 B8EEC11A 		vcvt.f32.s32	s2, s2
 2063 001c 0068     		ldr	r0, [r0]
 2064              	.LVL135:
 344:UIManager.cpp ****   }
 2065              		.loc 1 344 18 view .LVU523
 2066 001e B8EEC00A 		vcvt.f32.s32	s0, s0
 343:UIManager.cpp ****     pod_.led1.Set(r,g,b);
 2067              		.loc 1 343 3 view .LVU524
 2068 0022 55B1     		cbz	r5, .L157
 344:UIManager.cpp ****   }
 2069              		.loc 1 344 5 is_stmt 1 view .LVU525
 344:UIManager.cpp ****   }
 2070              		.loc 1 344 18 is_stmt 0 view .LVU526
 2071 0024 D830     		adds	r0, r0, #216
 2072 0026 FFF7FEFF 		bl	_ZN5daisy6RgbLed3SetEfff
 2073              	.LVL136:
 2074              	.L158:
 349:UIManager.cpp ****   System::Delay(10);
 2075              		.loc 1 349 3 is_stmt 1 view .LVU527
 349:UIManager.cpp ****   System::Delay(10);
 2076              		.loc 1 349 18 is_stmt 0 view .LVU528
 2077 002a 2068     		ldr	r0, [r4]
 2078 002c FFF7FEFF 		bl	_ZN5daisy8DaisyPod10UpdateLedsEv
 2079              	.LVL137:
 2080              		.loc 1 350 3 is_stmt 1 view .LVU529
 2081              		.loc 1 350 16 is_stmt 0 view .LVU530
 2082 0030 0A20     		movs	r0, #10
ARM GAS  /var/folders/2p/02m_5p7958535cp2tpgps0400000gn/T//ccFNlQE7.s 			page 54


 351:UIManager.cpp **** }
 2083              		.loc 1 351 1 view .LVU531
 2084 0032 BDE83840 		pop	{r3, r4, r5, lr}
 2085              		.cfi_remember_state
 2086              		.cfi_restore 14
 2087              		.cfi_restore 5
 2088              		.cfi_restore 4
 2089              		.cfi_restore 3
 2090              		.cfi_def_cfa_offset 0
 2091              	.LVL138:
 350:UIManager.cpp **** }
 2092              		.loc 1 350 16 view .LVU532
 2093 0036 FFF7FEBF 		b	_ZN5daisy6System5DelayEm
 2094              	.LVL139:
 2095              	.L157:
 2096              		.cfi_restore_state
 347:UIManager.cpp ****   }
 2097              		.loc 1 347 5 is_stmt 1 view .LVU533
 347:UIManager.cpp ****   }
 2098              		.loc 1 347 18 is_stmt 0 view .LVU534
 2099 003a 00F59670 		add	r0, r0, #300
 2100 003e FFF7FEFF 		bl	_ZN5daisy6RgbLed3SetEfff
 2101              	.LVL140:
 347:UIManager.cpp ****   }
 2102              		.loc 1 347 18 view .LVU535
 2103 0042 F2E7     		b	.L158
 2104              		.cfi_endproc
 2105              	.LFE2599:
 2107              		.section	.text._ZN9UIManager8BlinkLedEiiib,"ax",%progbits
 2108              		.align	1
 2109              		.p2align 2,,3
 2110              		.global	_ZN9UIManager8BlinkLedEiiib
 2111              		.syntax unified
 2112              		.thumb
 2113              		.thumb_func
 2115              	_ZN9UIManager8BlinkLedEiiib:
 2116              	.LVL141:
 2117              	.LFB2600:
 352:UIManager.cpp **** 
 353:UIManager.cpp **** void UIManager::BlinkLed(int r, int g, int b, bool is_Led1){
 2118              		.loc 1 353 60 is_stmt 1 view -0
 2119              		.cfi_startproc
 2120              		@ args = 4, pretend = 0, frame = 0
 2121              		@ frame_needed = 0, uses_anonymous_args = 0
 354:UIManager.cpp ****   SetLed(r,g,b, is_Led1);
 2122              		.loc 1 354 3 view .LVU537
 353:UIManager.cpp ****   SetLed(r,g,b, is_Led1);
 2123              		.loc 1 353 60 is_stmt 0 view .LVU538
 2124 0000 30B5     		push	{r4, r5, lr}
 2125              		.cfi_def_cfa_offset 12
 2126              		.cfi_offset 4, -12
 2127              		.cfi_offset 5, -8
 2128              		.cfi_offset 14, -4
 2129 0002 83B0     		sub	sp, sp, #12
 2130              		.cfi_def_cfa_offset 24
 353:UIManager.cpp ****   SetLed(r,g,b, is_Led1);
 2131              		.loc 1 353 60 view .LVU539
ARM GAS  /var/folders/2p/02m_5p7958535cp2tpgps0400000gn/T//ccFNlQE7.s 			page 55


 2132 0004 0446     		mov	r4, r0
 2133 0006 9DF81850 		ldrb	r5, [sp, #24]	@ zero_extendqisi2
 2134              		.loc 1 354 9 view .LVU540
 2135 000a 0095     		str	r5, [sp]
 2136 000c FFF7FEFF 		bl	_ZN9UIManager6SetLedEiiib
 2137              	.LVL142:
 355:UIManager.cpp ****   System::Delay(100);
 2138              		.loc 1 355 3 is_stmt 1 view .LVU541
 2139              		.loc 1 355 16 is_stmt 0 view .LVU542
 2140 0010 6420     		movs	r0, #100
 2141 0012 FFF7FEFF 		bl	_ZN5daisy6System5DelayEm
 2142              	.LVL143:
 356:UIManager.cpp ****   SetLed(0,0,0, is_Led1);
 2143              		.loc 1 356 3 is_stmt 1 view .LVU543
 2144              	.LBB300:
 2145              	.LBI300:
 342:UIManager.cpp ****   if (is_Led1){
 2146              		.loc 1 342 6 view .LVU544
 2147              	.LBB301:
 343:UIManager.cpp ****     pod_.led1.Set(r,g,b);
 2148              		.loc 1 343 3 view .LVU545
 344:UIManager.cpp ****   }
 2149              		.loc 1 344 18 is_stmt 0 view .LVU546
 2150 0016 9FED0C1A 		vldr.32	s2, .L164
 2151 001a 2068     		ldr	r0, [r4]
 2152 001c F0EE410A 		vmov.f32	s1, s2
 2153 0020 B0EE410A 		vmov.f32	s0, s2
 343:UIManager.cpp ****     pod_.led1.Set(r,g,b);
 2154              		.loc 1 343 3 view .LVU547
 2155 0024 5DB1     		cbz	r5, .L161
 344:UIManager.cpp ****   }
 2156              		.loc 1 344 5 is_stmt 1 view .LVU548
 344:UIManager.cpp ****   }
 2157              		.loc 1 344 18 is_stmt 0 view .LVU549
 2158 0026 D830     		adds	r0, r0, #216
 2159 0028 FFF7FEFF 		bl	_ZN5daisy6RgbLed3SetEfff
 2160              	.LVL144:
 2161              	.L162:
 349:UIManager.cpp ****   System::Delay(10);
 2162              		.loc 1 349 3 is_stmt 1 view .LVU550
 349:UIManager.cpp ****   System::Delay(10);
 2163              		.loc 1 349 18 is_stmt 0 view .LVU551
 2164 002c 2068     		ldr	r0, [r4]
 2165 002e FFF7FEFF 		bl	_ZN5daisy8DaisyPod10UpdateLedsEv
 2166              	.LVL145:
 350:UIManager.cpp **** }
 2167              		.loc 1 350 3 is_stmt 1 view .LVU552
 350:UIManager.cpp **** }
 2168              		.loc 1 350 16 is_stmt 0 view .LVU553
 2169 0032 0A20     		movs	r0, #10
 2170              	.LBE301:
 2171              	.LBE300:
 357:UIManager.cpp **** }
 2172              		.loc 1 357 1 view .LVU554
 2173 0034 03B0     		add	sp, sp, #12
 2174              		.cfi_remember_state
 2175              		.cfi_def_cfa_offset 12
ARM GAS  /var/folders/2p/02m_5p7958535cp2tpgps0400000gn/T//ccFNlQE7.s 			page 56


 2176              		@ sp needed
 2177 0036 BDE83040 		pop	{r4, r5, lr}
 2178              		.cfi_restore 14
 2179              		.cfi_restore 5
 2180              		.cfi_restore 4
 2181              		.cfi_def_cfa_offset 0
 2182              	.LVL146:
 2183              	.LBB303:
 2184              	.LBB302:
 350:UIManager.cpp **** }
 2185              		.loc 1 350 16 view .LVU555
 2186 003a FFF7FEBF 		b	_ZN5daisy6System5DelayEm
 2187              	.LVL147:
 2188              	.L161:
 2189              		.cfi_restore_state
 347:UIManager.cpp ****   }
 2190              		.loc 1 347 5 is_stmt 1 view .LVU556
 347:UIManager.cpp ****   }
 2191              		.loc 1 347 18 is_stmt 0 view .LVU557
 2192 003e 00F59670 		add	r0, r0, #300
 2193 0042 FFF7FEFF 		bl	_ZN5daisy6RgbLed3SetEfff
 2194              	.LVL148:
 2195 0046 F1E7     		b	.L162
 2196              	.L165:
 2197              		.align	2
 2198              	.L164:
 2199 0048 00000000 		.word	0
 2200              	.LBE302:
 2201              	.LBE303:
 2202              		.cfi_endproc
 2203              	.LFE2600:
 2205              		.section	.text._ZN9UIManager11BlinkSetLedEiiib,"ax",%progbits
 2206              		.align	1
 2207              		.p2align 2,,3
 2208              		.global	_ZN9UIManager11BlinkSetLedEiiib
 2209              		.syntax unified
 2210              		.thumb
 2211              		.thumb_func
 2213              	_ZN9UIManager11BlinkSetLedEiiib:
 2214              	.LVL149:
 2215              	.LFB2601:
 358:UIManager.cpp **** 
 359:UIManager.cpp **** void UIManager::BlinkSetLed(int r, int g, int b, bool is_Led1){
 2216              		.loc 1 359 63 is_stmt 1 view -0
 2217              		.cfi_startproc
 2218              		@ args = 4, pretend = 0, frame = 0
 2219              		@ frame_needed = 0, uses_anonymous_args = 0
 360:UIManager.cpp ****   BlinkLed(r,g,b, is_Led1);
 2220              		.loc 1 360 3 view .LVU559
 359:UIManager.cpp ****   BlinkLed(r,g,b, is_Led1);
 2221              		.loc 1 359 63 is_stmt 0 view .LVU560
 2222 0000 2DE9F041 		push	{r4, r5, r6, r7, r8, lr}
 2223              		.cfi_def_cfa_offset 24
 2224              		.cfi_offset 4, -24
 2225              		.cfi_offset 5, -20
 2226              		.cfi_offset 6, -16
 2227              		.cfi_offset 7, -12
ARM GAS  /var/folders/2p/02m_5p7958535cp2tpgps0400000gn/T//ccFNlQE7.s 			page 57


 2228              		.cfi_offset 8, -8
 2229              		.cfi_offset 14, -4
 2230 0004 82B0     		sub	sp, sp, #8
 2231              		.cfi_def_cfa_offset 32
 359:UIManager.cpp ****   BlinkLed(r,g,b, is_Led1);
 2232              		.loc 1 359 63 view .LVU561
 2233 0006 0446     		mov	r4, r0
 2234              	.LVL150:
 359:UIManager.cpp ****   BlinkLed(r,g,b, is_Led1);
 2235              		.loc 1 359 63 view .LVU562
 2236 0008 0D46     		mov	r5, r1
 2237              	.LVL151:
 359:UIManager.cpp ****   BlinkLed(r,g,b, is_Led1);
 2238              		.loc 1 359 63 view .LVU563
 2239 000a 1646     		mov	r6, r2
 2240              	.LVL152:
 359:UIManager.cpp ****   BlinkLed(r,g,b, is_Led1);
 2241              		.loc 1 359 63 view .LVU564
 2242 000c 9DF82080 		ldrb	r8, [sp, #32]	@ zero_extendqisi2
 2243 0010 1F46     		mov	r7, r3
 2244              	.LVL153:
 2245              	.LBB312:
 2246              	.LBI312:
 353:UIManager.cpp ****   SetLed(r,g,b, is_Led1);
 2247              		.loc 1 353 6 is_stmt 1 view .LVU565
 2248              	.LBB313:
 354:UIManager.cpp ****   System::Delay(100);
 2249              		.loc 1 354 3 view .LVU566
 354:UIManager.cpp ****   System::Delay(100);
 2250              		.loc 1 354 9 is_stmt 0 view .LVU567
 2251 0012 CDF80080 		str	r8, [sp]
 2252 0016 FFF7FEFF 		bl	_ZN9UIManager6SetLedEiiib
 2253              	.LVL154:
 355:UIManager.cpp ****   SetLed(0,0,0, is_Led1);
 2254              		.loc 1 355 3 is_stmt 1 view .LVU568
 355:UIManager.cpp ****   SetLed(0,0,0, is_Led1);
 2255              		.loc 1 355 16 is_stmt 0 view .LVU569
 2256 001a 6420     		movs	r0, #100
 2257 001c FFF7FEFF 		bl	_ZN5daisy6System5DelayEm
 2258              	.LVL155:
 356:UIManager.cpp **** }
 2259              		.loc 1 356 3 is_stmt 1 view .LVU570
 2260              	.LBB314:
 2261              	.LBI314:
 342:UIManager.cpp ****   if (is_Led1){
 2262              		.loc 1 342 6 view .LVU571
 2263              	.LBB315:
 343:UIManager.cpp ****     pod_.led1.Set(r,g,b);
 2264              		.loc 1 343 3 view .LVU572
 344:UIManager.cpp ****   }
 2265              		.loc 1 344 18 is_stmt 0 view .LVU573
 2266 0020 9FED311A 		vldr.32	s2, .L170
 2267 0024 2068     		ldr	r0, [r4]
 2268 0026 F0EE410A 		vmov.f32	s1, s2
 2269 002a B0EE410A 		vmov.f32	s0, s2
 343:UIManager.cpp ****     pod_.led1.Set(r,g,b);
 2270              		.loc 1 343 3 view .LVU574
ARM GAS  /var/folders/2p/02m_5p7958535cp2tpgps0400000gn/T//ccFNlQE7.s 			page 58


 2271 002e B8F1000F 		cmp	r8, #0
 2272 0032 34D0     		beq	.L167
 344:UIManager.cpp ****   }
 2273              		.loc 1 344 5 is_stmt 1 view .LVU575
 344:UIManager.cpp ****   }
 2274              		.loc 1 344 18 is_stmt 0 view .LVU576
 2275 0034 D830     		adds	r0, r0, #216
 2276 0036 FFF7FEFF 		bl	_ZN5daisy6RgbLed3SetEfff
 2277              	.LVL156:
 349:UIManager.cpp ****   System::Delay(10);
 2278              		.loc 1 349 3 is_stmt 1 view .LVU577
 349:UIManager.cpp ****   System::Delay(10);
 2279              		.loc 1 349 18 is_stmt 0 view .LVU578
 2280 003a 2068     		ldr	r0, [r4]
 2281 003c FFF7FEFF 		bl	_ZN5daisy8DaisyPod10UpdateLedsEv
 2282              	.LVL157:
 350:UIManager.cpp **** }
 2283              		.loc 1 350 3 is_stmt 1 view .LVU579
 350:UIManager.cpp **** }
 2284              		.loc 1 350 16 is_stmt 0 view .LVU580
 2285 0040 0A20     		movs	r0, #10
 2286 0042 FFF7FEFF 		bl	_ZN5daisy6System5DelayEm
 2287              	.LVL158:
 350:UIManager.cpp **** }
 2288              		.loc 1 350 16 view .LVU581
 2289              	.LBE315:
 2290              	.LBE314:
 2291              	.LBE313:
 2292              	.LBE312:
 361:UIManager.cpp ****   System::Delay(100);
 2293              		.loc 1 361 3 is_stmt 1 view .LVU582
 2294              		.loc 1 361 16 is_stmt 0 view .LVU583
 2295 0046 6420     		movs	r0, #100
 2296 0048 FFF7FEFF 		bl	_ZN5daisy6System5DelayEm
 2297              	.LVL159:
 362:UIManager.cpp ****   BlinkLed(r,g,b, is_Led1);
 2298              		.loc 1 362 3 is_stmt 1 view .LVU584
 2299              	.LBB319:
 2300              	.LBI319:
 353:UIManager.cpp ****   SetLed(r,g,b, is_Led1);
 2301              		.loc 1 353 6 view .LVU585
 2302              	.LBB320:
 354:UIManager.cpp ****   System::Delay(100);
 2303              		.loc 1 354 3 view .LVU586
 354:UIManager.cpp ****   System::Delay(100);
 2304              		.loc 1 354 9 is_stmt 0 view .LVU587
 2305 004c 0123     		movs	r3, #1
 2306 004e 3246     		mov	r2, r6
 2307 0050 2946     		mov	r1, r5
 2308 0052 2046     		mov	r0, r4
 2309 0054 0093     		str	r3, [sp]
 2310 0056 3B46     		mov	r3, r7
 2311 0058 FFF7FEFF 		bl	_ZN9UIManager6SetLedEiiib
 2312              	.LVL160:
 355:UIManager.cpp ****   SetLed(0,0,0, is_Led1);
 2313              		.loc 1 355 3 is_stmt 1 view .LVU588
 355:UIManager.cpp ****   SetLed(0,0,0, is_Led1);
ARM GAS  /var/folders/2p/02m_5p7958535cp2tpgps0400000gn/T//ccFNlQE7.s 			page 59


 2314              		.loc 1 355 16 is_stmt 0 view .LVU589
 2315 005c 6420     		movs	r0, #100
 2316 005e FFF7FEFF 		bl	_ZN5daisy6System5DelayEm
 2317              	.LVL161:
 356:UIManager.cpp **** }
 2318              		.loc 1 356 3 is_stmt 1 view .LVU590
 2319              	.LBB321:
 2320              	.LBI321:
 342:UIManager.cpp ****   if (is_Led1){
 2321              		.loc 1 342 6 view .LVU591
 2322              	.LBB322:
 343:UIManager.cpp ****     pod_.led1.Set(r,g,b);
 2323              		.loc 1 343 3 view .LVU592
 344:UIManager.cpp ****   }
 2324              		.loc 1 344 5 view .LVU593
 344:UIManager.cpp ****   }
 2325              		.loc 1 344 18 is_stmt 0 view .LVU594
 2326 0062 9FED211A 		vldr.32	s2, .L170
 2327 0066 2068     		ldr	r0, [r4]
 2328 0068 F0EE410A 		vmov.f32	s1, s2
 2329 006c B0EE410A 		vmov.f32	s0, s2
 2330 0070 D830     		adds	r0, r0, #216
 2331 0072 FFF7FEFF 		bl	_ZN5daisy6RgbLed3SetEfff
 2332              	.LVL162:
 2333              	.L168:
 349:UIManager.cpp ****   System::Delay(10);
 2334              		.loc 1 349 3 is_stmt 1 view .LVU595
 349:UIManager.cpp ****   System::Delay(10);
 2335              		.loc 1 349 18 is_stmt 0 view .LVU596
 2336 0076 2068     		ldr	r0, [r4]
 2337 0078 FFF7FEFF 		bl	_ZN5daisy8DaisyPod10UpdateLedsEv
 2338              	.LVL163:
 350:UIManager.cpp **** }
 2339              		.loc 1 350 3 is_stmt 1 view .LVU597
 350:UIManager.cpp **** }
 2340              		.loc 1 350 16 is_stmt 0 view .LVU598
 2341 007c 0A20     		movs	r0, #10
 2342 007e FFF7FEFF 		bl	_ZN5daisy6System5DelayEm
 2343              	.LVL164:
 350:UIManager.cpp **** }
 2344              		.loc 1 350 16 view .LVU599
 2345              	.LBE322:
 2346              	.LBE321:
 2347              	.LBE320:
 2348              	.LBE319:
 363:UIManager.cpp ****   System::Delay(100);
 2349              		.loc 1 363 3 is_stmt 1 view .LVU600
 2350              		.loc 1 363 16 is_stmt 0 view .LVU601
 2351 0082 6420     		movs	r0, #100
 2352 0084 FFF7FEFF 		bl	_ZN5daisy6System5DelayEm
 2353              	.LVL165:
 364:UIManager.cpp ****   SetLed(r,g,b, is_Led1);
 2354              		.loc 1 364 3 is_stmt 1 view .LVU602
 2355              		.loc 1 364 9 is_stmt 0 view .LVU603
 2356 0088 3B46     		mov	r3, r7
 2357 008a 3246     		mov	r2, r6
 2358 008c 2946     		mov	r1, r5
ARM GAS  /var/folders/2p/02m_5p7958535cp2tpgps0400000gn/T//ccFNlQE7.s 			page 60


 2359 008e 2046     		mov	r0, r4
 2360 0090 CDF82080 		str	r8, [sp, #32]
 2361              	.LVL166:
 365:UIManager.cpp **** }
 2362              		.loc 1 365 1 view .LVU604
 2363 0094 02B0     		add	sp, sp, #8
 2364              		.cfi_remember_state
 2365              		.cfi_def_cfa_offset 24
 2366              		@ sp needed
 2367 0096 BDE8F041 		pop	{r4, r5, r6, r7, r8, lr}
 2368              		.cfi_restore 14
 2369              		.cfi_restore 8
 2370              		.cfi_restore 7
 2371              		.cfi_restore 6
 2372              		.cfi_restore 5
 2373              		.cfi_restore 4
 2374              		.cfi_def_cfa_offset 0
 2375              	.LVL167:
 364:UIManager.cpp ****   SetLed(r,g,b, is_Led1);
 2376              		.loc 1 364 9 view .LVU605
 2377 009a FFF7FEBF 		b	_ZN9UIManager6SetLedEiiib
 2378              	.LVL168:
 2379              	.L167:
 2380              		.cfi_restore_state
 2381              	.LBB326:
 2382              	.LBB318:
 2383              	.LBB317:
 2384              	.LBB316:
 347:UIManager.cpp ****   }
 2385              		.loc 1 347 5 is_stmt 1 view .LVU606
 347:UIManager.cpp ****   }
 2386              		.loc 1 347 18 is_stmt 0 view .LVU607
 2387 009e 00F59670 		add	r0, r0, #300
 2388 00a2 FFF7FEFF 		bl	_ZN5daisy6RgbLed3SetEfff
 2389              	.LVL169:
 349:UIManager.cpp ****   System::Delay(10);
 2390              		.loc 1 349 3 is_stmt 1 view .LVU608
 349:UIManager.cpp ****   System::Delay(10);
 2391              		.loc 1 349 18 is_stmt 0 view .LVU609
 2392 00a6 2068     		ldr	r0, [r4]
 2393 00a8 FFF7FEFF 		bl	_ZN5daisy8DaisyPod10UpdateLedsEv
 2394              	.LVL170:
 350:UIManager.cpp **** }
 2395              		.loc 1 350 3 is_stmt 1 view .LVU610
 350:UIManager.cpp **** }
 2396              		.loc 1 350 16 is_stmt 0 view .LVU611
 2397 00ac 0A20     		movs	r0, #10
 2398 00ae FFF7FEFF 		bl	_ZN5daisy6System5DelayEm
 2399              	.LVL171:
 350:UIManager.cpp **** }
 2400              		.loc 1 350 16 view .LVU612
 2401              	.LBE316:
 2402              	.LBE317:
 2403              	.LBE318:
 2404              	.LBE326:
 361:UIManager.cpp ****   BlinkLed(r,g,b, is_Led1);
 2405              		.loc 1 361 3 is_stmt 1 view .LVU613
ARM GAS  /var/folders/2p/02m_5p7958535cp2tpgps0400000gn/T//ccFNlQE7.s 			page 61


 361:UIManager.cpp ****   BlinkLed(r,g,b, is_Led1);
 2406              		.loc 1 361 16 is_stmt 0 view .LVU614
 2407 00b2 6420     		movs	r0, #100
 2408 00b4 FFF7FEFF 		bl	_ZN5daisy6System5DelayEm
 2409              	.LVL172:
 362:UIManager.cpp ****   System::Delay(100);
 2410              		.loc 1 362 3 is_stmt 1 view .LVU615
 2411              	.LBB327:
 353:UIManager.cpp ****   SetLed(r,g,b, is_Led1);
 2412              		.loc 1 353 6 view .LVU616
 2413              	.LBB325:
 354:UIManager.cpp ****   System::Delay(100);
 2414              		.loc 1 354 3 view .LVU617
 354:UIManager.cpp ****   System::Delay(100);
 2415              		.loc 1 354 9 is_stmt 0 view .LVU618
 2416 00b8 3B46     		mov	r3, r7
 2417 00ba 3246     		mov	r2, r6
 2418 00bc 2946     		mov	r1, r5
 2419 00be 2046     		mov	r0, r4
 2420 00c0 CDF80080 		str	r8, [sp]
 2421 00c4 FFF7FEFF 		bl	_ZN9UIManager6SetLedEiiib
 2422              	.LVL173:
 355:UIManager.cpp ****   SetLed(0,0,0, is_Led1);
 2423              		.loc 1 355 3 is_stmt 1 view .LVU619
 355:UIManager.cpp ****   SetLed(0,0,0, is_Led1);
 2424              		.loc 1 355 16 is_stmt 0 view .LVU620
 2425 00c8 6420     		movs	r0, #100
 2426 00ca FFF7FEFF 		bl	_ZN5daisy6System5DelayEm
 2427              	.LVL174:
 356:UIManager.cpp **** }
 2428              		.loc 1 356 3 is_stmt 1 view .LVU621
 2429              	.LBB324:
 342:UIManager.cpp ****   if (is_Led1){
 2430              		.loc 1 342 6 view .LVU622
 2431              	.LBB323:
 343:UIManager.cpp ****     pod_.led1.Set(r,g,b);
 2432              		.loc 1 343 3 view .LVU623
 347:UIManager.cpp ****   }
 2433              		.loc 1 347 5 view .LVU624
 347:UIManager.cpp ****   }
 2434              		.loc 1 347 18 is_stmt 0 view .LVU625
 2435 00ce 9FED061A 		vldr.32	s2, .L170
 2436 00d2 2068     		ldr	r0, [r4]
 2437 00d4 F0EE410A 		vmov.f32	s1, s2
 2438 00d8 B0EE410A 		vmov.f32	s0, s2
 2439 00dc 00F59670 		add	r0, r0, #300
 2440 00e0 FFF7FEFF 		bl	_ZN5daisy6RgbLed3SetEfff
 2441              	.LVL175:
 2442 00e4 C7E7     		b	.L168
 2443              	.L171:
 2444 00e6 00BF     		.align	2
 2445              	.L170:
 2446 00e8 00000000 		.word	0
 2447              	.LBE323:
 2448              	.LBE324:
 2449              	.LBE325:
 2450              	.LBE327:
ARM GAS  /var/folders/2p/02m_5p7958535cp2tpgps0400000gn/T//ccFNlQE7.s 			page 62


 2451              		.cfi_endproc
 2452              	.LFE2601:
 2454              		.section	.text._ZN9UIManager15SetLedSynthModeEv,"ax",%progbits
 2455              		.align	1
 2456              		.p2align 2,,3
 2457              		.global	_ZN9UIManager15SetLedSynthModeEv
 2458              		.syntax unified
 2459              		.thumb
 2460              		.thumb_func
 2462              	_ZN9UIManager15SetLedSynthModeEv:
 2463              	.LVL176:
 2464              	.LFB2595:
 290:UIManager.cpp ****   switch(synth_mode_){
 2465              		.loc 1 290 34 is_stmt 1 view -0
 2466              		.cfi_startproc
 2467              		@ args = 0, pretend = 0, frame = 0
 2468              		@ frame_needed = 0, uses_anonymous_args = 0
 291:UIManager.cpp ****     case SynthMode::Size_Position:
 2469              		.loc 1 291 3 view .LVU627
 2470 0000 8368     		ldr	r3, [r0, #8]
 290:UIManager.cpp ****   switch(synth_mode_){
 2471              		.loc 1 290 34 is_stmt 0 view .LVU628
 2472 0002 30B5     		push	{r4, r5, lr}
 2473              		.cfi_def_cfa_offset 12
 2474              		.cfi_offset 4, -12
 2475              		.cfi_offset 5, -8
 2476              		.cfi_offset 14, -4
 2477 0004 0446     		mov	r4, r0
 2478 0006 83B0     		sub	sp, sp, #12
 2479              		.cfi_def_cfa_offset 24
 291:UIManager.cpp ****     case SynthMode::Size_Position:
 2480              		.loc 1 291 3 view .LVU629
 2481 0008 062B     		cmp	r3, #6
 2482 000a 0CD8     		bhi	.L172
 2483 000c DFE803F0 		tbb	[pc, r3]
 2484              	.L175:
 2485 0010 1F       		.byte	(.L178-.L175)/2
 2486 0011 16       		.byte	(.L177-.L175)/2
 2487 0012 0D       		.byte	(.L176-.L175)/2
 2488 0013 0B       		.byte	(.L172-.L175)/2
 2489 0014 0B       		.byte	(.L172-.L175)/2
 2490 0015 0B       		.byte	(.L172-.L175)/2
 2491 0016 04       		.byte	(.L174-.L175)/2
 2492 0017 00       		.p2align 1
 2493              	.L174:
 303:UIManager.cpp ****     // fuschia: 255,0,255
 2494              		.loc 1 303 5 is_stmt 1 view .LVU630
 305:UIManager.cpp ****       break;
 2495              		.loc 1 305 7 view .LVU631
 305:UIManager.cpp ****       break;
 2496              		.loc 1 305 18 is_stmt 0 view .LVU632
 2497 0018 0125     		movs	r5, #1
 2498 001a FF23     		movs	r3, #255
 2499 001c 0022     		movs	r2, #0
 2500 001e 1946     		mov	r1, r3
 2501 0020 0095     		str	r5, [sp]
 2502 0022 FFF7FEFF 		bl	_ZN9UIManager11BlinkSetLedEiiib
ARM GAS  /var/folders/2p/02m_5p7958535cp2tpgps0400000gn/T//ccFNlQE7.s 			page 63


 2503              	.LVL177:
 306:UIManager.cpp ****     default:
 2504              		.loc 1 306 7 is_stmt 1 view .LVU633
 2505              	.L172:
 310:UIManager.cpp **** 
 2506              		.loc 1 310 1 is_stmt 0 view .LVU634
 2507 0026 03B0     		add	sp, sp, #12
 2508              		.cfi_remember_state
 2509              		.cfi_def_cfa_offset 12
 2510              		@ sp needed
 2511 0028 30BD     		pop	{r4, r5, pc}
 2512              	.LVL178:
 2513              	.L176:
 2514              		.cfi_restore_state
 299:UIManager.cpp ****     // 0, 0, 255 blue
 2515              		.loc 1 299 5 is_stmt 1 view .LVU635
 301:UIManager.cpp ****       break;
 2516              		.loc 1 301 7 view .LVU636
 301:UIManager.cpp ****       break;
 2517              		.loc 1 301 18 is_stmt 0 view .LVU637
 2518 002a 0022     		movs	r2, #0
 2519 002c 0125     		movs	r5, #1
 2520 002e FF23     		movs	r3, #255
 2521 0030 1146     		mov	r1, r2
 2522 0032 0095     		str	r5, [sp]
 2523 0034 FFF7FEFF 		bl	_ZN9UIManager11BlinkSetLedEiiib
 2524              	.LVL179:
 302:UIManager.cpp ****     case SynthMode::Pan_PanRnd:
 2525              		.loc 1 302 7 is_stmt 1 view .LVU638
 310:UIManager.cpp **** 
 2526              		.loc 1 310 1 is_stmt 0 view .LVU639
 2527 0038 03B0     		add	sp, sp, #12
 2528              		.cfi_remember_state
 2529              		.cfi_def_cfa_offset 12
 2530              		@ sp needed
 2531 003a 30BD     		pop	{r4, r5, pc}
 2532              	.LVL180:
 2533              	.L177:
 2534              		.cfi_restore_state
 295:UIManager.cpp ****     // orange: 100, 64, 0 or 255, 165, 0 or 255, 91, 31 (neon orange)
 2535              		.loc 1 295 5 is_stmt 1 view .LVU640
 297:UIManager.cpp ****       break;
 2536              		.loc 1 297 7 view .LVU641
 297:UIManager.cpp ****       break;
 2537              		.loc 1 297 18 is_stmt 0 view .LVU642
 2538 003c 0125     		movs	r5, #1
 2539 003e 1F23     		movs	r3, #31
 2540 0040 5B22     		movs	r2, #91
 2541 0042 FF21     		movs	r1, #255
 2542 0044 0095     		str	r5, [sp]
 2543 0046 FFF7FEFF 		bl	_ZN9UIManager11BlinkSetLedEiiib
 2544              	.LVL181:
 298:UIManager.cpp ****     case SynthMode::PhasorMode_EnvType:
 2545              		.loc 1 298 7 is_stmt 1 view .LVU643
 310:UIManager.cpp **** 
 2546              		.loc 1 310 1 is_stmt 0 view .LVU644
 2547 004a 03B0     		add	sp, sp, #12
ARM GAS  /var/folders/2p/02m_5p7958535cp2tpgps0400000gn/T//ccFNlQE7.s 			page 64


 2548              		.cfi_remember_state
 2549              		.cfi_def_cfa_offset 12
 2550              		@ sp needed
 2551 004c 30BD     		pop	{r4, r5, pc}
 2552              	.LVL182:
 2553              	.L178:
 2554              		.cfi_restore_state
 292:UIManager.cpp ****       SetLed(0,255,0,true);
 2555              		.loc 1 292 5 is_stmt 1 view .LVU645
 293:UIManager.cpp ****       break;
 2556              		.loc 1 293 7 view .LVU646
 2557              	.LBB330:
 2558              	.LBI330:
 342:UIManager.cpp ****   if (is_Led1){
 2559              		.loc 1 342 6 view .LVU647
 2560              	.LBB331:
 343:UIManager.cpp ****     pod_.led1.Set(r,g,b);
 2561              		.loc 1 343 3 view .LVU648
 344:UIManager.cpp ****   }
 2562              		.loc 1 344 5 view .LVU649
 344:UIManager.cpp ****   }
 2563              		.loc 1 344 18 is_stmt 0 view .LVU650
 2564 004e 9FED091A 		vldr.32	s2, .L180
 2565 0052 0068     		ldr	r0, [r0]
 2566              	.LVL183:
 344:UIManager.cpp ****   }
 2567              		.loc 1 344 18 view .LVU651
 2568 0054 B0EE410A 		vmov.f32	s0, s2
 2569 0058 DFED070A 		vldr.32	s1, .L180+4
 2570 005c D830     		adds	r0, r0, #216
 2571 005e FFF7FEFF 		bl	_ZN5daisy6RgbLed3SetEfff
 2572              	.LVL184:
 349:UIManager.cpp ****   System::Delay(10);
 2573              		.loc 1 349 3 is_stmt 1 view .LVU652
 349:UIManager.cpp ****   System::Delay(10);
 2574              		.loc 1 349 18 is_stmt 0 view .LVU653
 2575 0062 2068     		ldr	r0, [r4]
 2576 0064 FFF7FEFF 		bl	_ZN5daisy8DaisyPod10UpdateLedsEv
 2577              	.LVL185:
 350:UIManager.cpp **** }
 2578              		.loc 1 350 3 is_stmt 1 view .LVU654
 350:UIManager.cpp **** }
 2579              		.loc 1 350 16 is_stmt 0 view .LVU655
 2580 0068 0A20     		movs	r0, #10
 2581              	.LBE331:
 2582              	.LBE330:
 310:UIManager.cpp **** 
 2583              		.loc 1 310 1 view .LVU656
 2584 006a 03B0     		add	sp, sp, #12
 2585              		.cfi_def_cfa_offset 12
 2586              		@ sp needed
 2587 006c BDE83040 		pop	{r4, r5, lr}
 2588              		.cfi_restore 14
 2589              		.cfi_restore 5
 2590              		.cfi_restore 4
 2591              		.cfi_def_cfa_offset 0
 2592              	.LVL186:
ARM GAS  /var/folders/2p/02m_5p7958535cp2tpgps0400000gn/T//ccFNlQE7.s 			page 65


 2593              	.LBB333:
 2594              	.LBB332:
 350:UIManager.cpp **** }
 2595              		.loc 1 350 16 view .LVU657
 2596 0070 FFF7FEBF 		b	_ZN5daisy6System5DelayEm
 2597              	.LVL187:
 2598              	.L181:
 2599              		.align	2
 2600              	.L180:
 2601 0074 00000000 		.word	0
 2602 0078 00007F43 		.word	1132396544
 2603              	.LBE332:
 2604              	.LBE333:
 2605              		.cfi_endproc
 2606              	.LFE2595:
 2608              		.section	.text._ZN9UIManager16LedPulseCallbackEv,"ax",%progbits
 2609              		.align	1
 2610              		.p2align 2,,3
 2611              		.global	_ZN9UIManager16LedPulseCallbackEv
 2612              		.syntax unified
 2613              		.thumb
 2614              		.thumb_func
 2616              	_ZN9UIManager16LedPulseCallbackEv:
 2617              	.LVL188:
 2618              	.LFB2594:
 246:UIManager.cpp ****   if (pulse_increasing_){
 2619              		.loc 1 246 35 is_stmt 1 view -0
 2620              		.cfi_startproc
 2621              		@ args = 0, pretend = 0, frame = 0
 2622              		@ frame_needed = 0, uses_anonymous_args = 0
 247:UIManager.cpp ****     /* NOTE: increase step (in header) and period to reduce processing cost */
 2623              		.loc 1 247 3 view .LVU659
 2624 0000 037C     		ldrb	r3, [r0, #16]	@ zero_extendqisi2
 246:UIManager.cpp ****   if (pulse_increasing_){
 2625              		.loc 1 246 35 is_stmt 0 view .LVU660
 2626 0002 10B5     		push	{r4, lr}
 2627              		.cfi_def_cfa_offset 8
 2628              		.cfi_offset 4, -8
 2629              		.cfi_offset 14, -4
 246:UIManager.cpp ****   if (pulse_increasing_){
 2630              		.loc 1 246 35 view .LVU661
 2631 0004 0446     		mov	r4, r0
 247:UIManager.cpp ****     /* NOTE: increase step (in header) and period to reduce processing cost */
 2632              		.loc 1 247 3 view .LVU662
 2633 0006 002B     		cmp	r3, #0
 2634 0008 62D0     		beq	.L183
 249:UIManager.cpp ****     if (pulse_brightness_ >= 255 - PULSE_STEP){
 2635              		.loc 1 249 5 is_stmt 1 view .LVU663
 249:UIManager.cpp ****     if (pulse_brightness_ >= 255 - PULSE_STEP){
 2636              		.loc 1 249 23 is_stmt 0 view .LVU664
 2637 000a 437C     		ldrb	r3, [r0, #17]	@ zero_extendqisi2
 2638 000c 0533     		adds	r3, r3, #5
 2639 000e DBB2     		uxtb	r3, r3
 250:UIManager.cpp ****       pulse_brightness_ = 255;
 2640              		.loc 1 250 5 is_stmt 1 view .LVU665
 2641 0010 F92B     		cmp	r3, #249
 2642 0012 59D8     		bhi	.L184
ARM GAS  /var/folders/2p/02m_5p7958535cp2tpgps0400000gn/T//ccFNlQE7.s 			page 66


 249:UIManager.cpp ****     if (pulse_brightness_ >= 255 - PULSE_STEP){
 2643              		.loc 1 249 23 is_stmt 0 view .LVU666
 2644 0014 4374     		strb	r3, [r0, #17]
 2645              	.L185:
 263:UIManager.cpp ****     /* pulse white */
 2646              		.loc 1 263 3 is_stmt 1 view .LVU667
 2647 0016 6368     		ldr	r3, [r4, #4]
 2648 0018 042B     		cmp	r3, #4
 2649 001a 6ED8     		bhi	.L182
 2650 001c DFE803F0 		tbb	[pc, r3]
 2651              	.L189:
 2652 0020 03       		.byte	(.L192-.L189)/2
 2653 0021 16       		.byte	(.L191-.L189)/2
 2654 0022 29       		.byte	(.L190-.L189)/2
 2655 0023 3C       		.byte	(.L188-.L189)/2
 2656 0024 3C       		.byte	(.L188-.L189)/2
 2657 0025 00       		.p2align 1
 2658              	.L192:
 265:UIManager.cpp ****       SetLed(pulse_brightness_, pulse_brightness_, pulse_brightness_, true);
 2659              		.loc 1 265 5 view .LVU668
 266:UIManager.cpp ****     /* pulse blue */
 2660              		.loc 1 266 7 view .LVU669
 2661              	.LVL189:
 2662              	.LBB344:
 2663              	.LBI344:
 342:UIManager.cpp ****   if (is_Led1){
 2664              		.loc 1 342 6 view .LVU670
 2665              	.LBB345:
 343:UIManager.cpp ****     pod_.led1.Set(r,g,b);
 2666              		.loc 1 343 3 view .LVU671
 344:UIManager.cpp ****   }
 2667              		.loc 1 344 5 view .LVU672
 2668              	.LBE345:
 2669              	.LBE344:
 266:UIManager.cpp ****     /* pulse blue */
 2670              		.loc 1 266 13 is_stmt 0 view .LVU673
 2671 0026 637C     		ldrb	r3, [r4, #17]	@ zero_extendqisi2
 2672              	.LVL190:
 2673              	.LBB348:
 2674              	.LBB346:
 344:UIManager.cpp ****   }
 2675              		.loc 1 344 18 view .LVU674
 2676 0028 2068     		ldr	r0, [r4]
 2677              	.LVL191:
 344:UIManager.cpp ****   }
 2678              		.loc 1 344 18 view .LVU675
 2679              	.LBE346:
 2680              	.LBE348:
 266:UIManager.cpp ****     /* pulse blue */
 2681              		.loc 1 266 13 view .LVU676
 2682 002a 01EE103A 		vmov	s2, r3	@ int
 2683              	.LBB349:
 2684              	.LBB347:
 344:UIManager.cpp ****   }
 2685              		.loc 1 344 18 view .LVU677
 2686 002e D830     		adds	r0, r0, #216
 2687 0030 B8EEC11A 		vcvt.f32.s32	s2, s2
ARM GAS  /var/folders/2p/02m_5p7958535cp2tpgps0400000gn/T//ccFNlQE7.s 			page 67


 2688 0034 F0EE410A 		vmov.f32	s1, s2
 2689 0038 B0EE410A 		vmov.f32	s0, s2
 2690 003c FFF7FEFF 		bl	_ZN5daisy6RgbLed3SetEfff
 2691              	.LVL192:
 349:UIManager.cpp ****   System::Delay(10);
 2692              		.loc 1 349 3 is_stmt 1 view .LVU678
 349:UIManager.cpp ****   System::Delay(10);
 2693              		.loc 1 349 18 is_stmt 0 view .LVU679
 2694 0040 2068     		ldr	r0, [r4]
 2695 0042 FFF7FEFF 		bl	_ZN5daisy8DaisyPod10UpdateLedsEv
 2696              	.LVL193:
 350:UIManager.cpp **** }
 2697              		.loc 1 350 3 is_stmt 1 view .LVU680
 350:UIManager.cpp **** }
 2698              		.loc 1 350 16 is_stmt 0 view .LVU681
 2699 0046 0A20     		movs	r0, #10
 2700 0048 FFF7FEFF 		bl	_ZN5daisy6System5DelayEm
 2701              	.LVL194:
 2702              	.L191:
 350:UIManager.cpp **** }
 2703              		.loc 1 350 16 view .LVU682
 2704              	.LBE347:
 2705              	.LBE349:
 268:UIManager.cpp ****       SetLed(0,0, pulse_brightness_, true);
 2706              		.loc 1 268 5 is_stmt 1 view .LVU683
 269:UIManager.cpp ****     /* pulse cyan */
 2707              		.loc 1 269 7 view .LVU684
 2708              	.LBB350:
 2709              	.LBI350:
 342:UIManager.cpp ****   if (is_Led1){
 2710              		.loc 1 342 6 view .LVU685
 2711              	.LBB351:
 343:UIManager.cpp ****     pod_.led1.Set(r,g,b);
 2712              		.loc 1 343 3 view .LVU686
 344:UIManager.cpp ****   }
 2713              		.loc 1 344 5 view .LVU687
 2714              	.LBE351:
 2715              	.LBE350:
 269:UIManager.cpp ****     /* pulse cyan */
 2716              		.loc 1 269 13 is_stmt 0 view .LVU688
 2717 004c 637C     		ldrb	r3, [r4, #17]	@ zero_extendqisi2
 2718              	.LVL195:
 2719              	.LBB354:
 2720              	.LBB352:
 344:UIManager.cpp ****   }
 2721              		.loc 1 344 18 view .LVU689
 2722 004e DFED2B0A 		vldr.32	s1, .L195
 2723              	.LBE352:
 2724              	.LBE354:
 269:UIManager.cpp ****     /* pulse cyan */
 2725              		.loc 1 269 13 view .LVU690
 2726 0052 01EE103A 		vmov	s2, r3	@ int
 2727              	.LBB355:
 2728              	.LBB353:
 344:UIManager.cpp ****   }
 2729              		.loc 1 344 18 view .LVU691
 2730 0056 2068     		ldr	r0, [r4]
ARM GAS  /var/folders/2p/02m_5p7958535cp2tpgps0400000gn/T//ccFNlQE7.s 			page 68


 2731 0058 B0EE600A 		vmov.f32	s0, s1
 2732 005c B8EEC11A 		vcvt.f32.s32	s2, s2
 2733 0060 D830     		adds	r0, r0, #216
 2734 0062 FFF7FEFF 		bl	_ZN5daisy6RgbLed3SetEfff
 2735              	.LVL196:
 349:UIManager.cpp ****   System::Delay(10);
 2736              		.loc 1 349 3 is_stmt 1 view .LVU692
 349:UIManager.cpp ****   System::Delay(10);
 2737              		.loc 1 349 18 is_stmt 0 view .LVU693
 2738 0066 2068     		ldr	r0, [r4]
 2739 0068 FFF7FEFF 		bl	_ZN5daisy8DaisyPod10UpdateLedsEv
 2740              	.LVL197:
 350:UIManager.cpp **** }
 2741              		.loc 1 350 3 is_stmt 1 view .LVU694
 350:UIManager.cpp **** }
 2742              		.loc 1 350 16 is_stmt 0 view .LVU695
 2743 006c 0A20     		movs	r0, #10
 2744 006e FFF7FEFF 		bl	_ZN5daisy6System5DelayEm
 2745              	.LVL198:
 2746              	.L190:
 350:UIManager.cpp **** }
 2747              		.loc 1 350 16 view .LVU696
 2748              	.LBE353:
 2749              	.LBE355:
 271:UIManager.cpp ****       SetLed(0, pulse_brightness_, pulse_brightness_, true);
 2750              		.loc 1 271 5 is_stmt 1 view .LVU697
 272:UIManager.cpp ****     /* pulse red */
 2751              		.loc 1 272 7 view .LVU698
 2752              	.LBB356:
 2753              	.LBI356:
 342:UIManager.cpp ****   if (is_Led1){
 2754              		.loc 1 342 6 view .LVU699
 2755              	.LBB357:
 343:UIManager.cpp ****     pod_.led1.Set(r,g,b);
 2756              		.loc 1 343 3 view .LVU700
 344:UIManager.cpp ****   }
 2757              		.loc 1 344 5 view .LVU701
 2758              	.LBE357:
 2759              	.LBE356:
 272:UIManager.cpp ****     /* pulse red */
 2760              		.loc 1 272 13 is_stmt 0 view .LVU702
 2761 0072 637C     		ldrb	r3, [r4, #17]	@ zero_extendqisi2
 2762              	.LVL199:
 2763              	.LBB360:
 2764              	.LBB358:
 344:UIManager.cpp ****   }
 2765              		.loc 1 344 18 view .LVU703
 2766 0074 2068     		ldr	r0, [r4]
 2767              	.LBE358:
 2768              	.LBE360:
 272:UIManager.cpp ****     /* pulse red */
 2769              		.loc 1 272 13 view .LVU704
 2770 0076 01EE103A 		vmov	s2, r3	@ int
 2771              	.LBB361:
 2772              	.LBB359:
 344:UIManager.cpp ****   }
 2773              		.loc 1 344 18 view .LVU705
ARM GAS  /var/folders/2p/02m_5p7958535cp2tpgps0400000gn/T//ccFNlQE7.s 			page 69


 2774 007a 9FED200A 		vldr.32	s0, .L195
 2775 007e D830     		adds	r0, r0, #216
 2776 0080 B8EEC11A 		vcvt.f32.s32	s2, s2
 2777 0084 F0EE410A 		vmov.f32	s1, s2
 2778 0088 FFF7FEFF 		bl	_ZN5daisy6RgbLed3SetEfff
 2779              	.LVL200:
 349:UIManager.cpp ****   System::Delay(10);
 2780              		.loc 1 349 3 is_stmt 1 view .LVU706
 349:UIManager.cpp ****   System::Delay(10);
 2781              		.loc 1 349 18 is_stmt 0 view .LVU707
 2782 008c 2068     		ldr	r0, [r4]
 2783 008e FFF7FEFF 		bl	_ZN5daisy8DaisyPod10UpdateLedsEv
 2784              	.LVL201:
 350:UIManager.cpp **** }
 2785              		.loc 1 350 3 is_stmt 1 view .LVU708
 350:UIManager.cpp **** }
 2786              		.loc 1 350 16 is_stmt 0 view .LVU709
 2787 0092 0A20     		movs	r0, #10
 2788 0094 FFF7FEFF 		bl	_ZN5daisy6System5DelayEm
 2789              	.LVL202:
 2790              	.L188:
 350:UIManager.cpp **** }
 2791              		.loc 1 350 16 view .LVU710
 2792              	.LBE359:
 2793              	.LBE361:
 274:UIManager.cpp ****       
 2794              		.loc 1 274 5 is_stmt 1 view .LVU711
 278:UIManager.cpp ****       if (pulse_count_ <= 2){
 2795              		.loc 1 278 5 view .LVU712
 279:UIManager.cpp ****         SetLed(0, pulse_brightness_, 0, true);
 2796              		.loc 1 279 7 view .LVU713
 2797 0098 A37C     		ldrb	r3, [r4, #18]	@ zero_extendqisi2
 2798 009a 022B     		cmp	r3, #2
 2799 009c 24D8     		bhi	.L193
 280:UIManager.cpp ****       }
 2800              		.loc 1 280 9 view .LVU714
 2801              	.LVL203:
 2802              	.LBB362:
 2803              	.LBI362:
 342:UIManager.cpp ****   if (is_Led1){
 2804              		.loc 1 342 6 view .LVU715
 2805              	.LBB363:
 343:UIManager.cpp ****     pod_.led1.Set(r,g,b);
 2806              		.loc 1 343 3 view .LVU716
 344:UIManager.cpp ****   }
 2807              		.loc 1 344 5 view .LVU717
 2808              	.LBE363:
 2809              	.LBE362:
 280:UIManager.cpp ****       }
 2810              		.loc 1 280 15 is_stmt 0 view .LVU718
 2811 009e 637C     		ldrb	r3, [r4, #17]	@ zero_extendqisi2
 2812              	.LVL204:
 2813              	.LBB367:
 2814              	.LBB364:
 344:UIManager.cpp ****   }
 2815              		.loc 1 344 18 view .LVU719
 2816 00a0 9FED161A 		vldr.32	s2, .L195
ARM GAS  /var/folders/2p/02m_5p7958535cp2tpgps0400000gn/T//ccFNlQE7.s 			page 70


 2817              	.LBE364:
 2818              	.LBE367:
 280:UIManager.cpp ****       }
 2819              		.loc 1 280 15 view .LVU720
 2820 00a4 00EE903A 		vmov	s1, r3	@ int
 2821              	.LBB368:
 2822              	.LBB365:
 344:UIManager.cpp ****   }
 2823              		.loc 1 344 18 view .LVU721
 2824 00a8 2068     		ldr	r0, [r4]
 2825 00aa B0EE410A 		vmov.f32	s0, s2
 2826 00ae F8EEE00A 		vcvt.f32.s32	s1, s1
 2827 00b2 D830     		adds	r0, r0, #216
 2828 00b4 FFF7FEFF 		bl	_ZN5daisy6RgbLed3SetEfff
 2829              	.LVL205:
 349:UIManager.cpp ****   System::Delay(10);
 2830              		.loc 1 349 3 is_stmt 1 view .LVU722
 349:UIManager.cpp ****   System::Delay(10);
 2831              		.loc 1 349 18 is_stmt 0 view .LVU723
 2832 00b8 2068     		ldr	r0, [r4]
 2833 00ba FFF7FEFF 		bl	_ZN5daisy8DaisyPod10UpdateLedsEv
 2834              	.LVL206:
 350:UIManager.cpp **** }
 2835              		.loc 1 350 3 is_stmt 1 view .LVU724
 350:UIManager.cpp **** }
 2836              		.loc 1 350 16 is_stmt 0 view .LVU725
 2837 00be 0A20     		movs	r0, #10
 2838              	.LBE365:
 2839              	.LBE368:
 288:UIManager.cpp **** 
 2840              		.loc 1 288 1 view .LVU726
 2841 00c0 BDE81040 		pop	{r4, lr}
 2842              		.cfi_remember_state
 2843              		.cfi_restore 14
 2844              		.cfi_restore 4
 2845              		.cfi_def_cfa_offset 0
 2846              	.LVL207:
 2847              	.LBB369:
 2848              	.LBB366:
 350:UIManager.cpp **** }
 2849              		.loc 1 350 16 view .LVU727
 2850 00c4 FFF7FEBF 		b	_ZN5daisy6System5DelayEm
 2851              	.LVL208:
 2852              	.L184:
 2853              		.cfi_restore_state
 350:UIManager.cpp **** }
 2854              		.loc 1 350 16 view .LVU728
 2855              	.LBE366:
 2856              	.LBE369:
 251:UIManager.cpp ****       pulse_increasing_ = false;
 2857              		.loc 1 251 7 is_stmt 1 view .LVU729
 252:UIManager.cpp ****     }
 2858              		.loc 1 252 7 view .LVU730
 252:UIManager.cpp ****     }
 2859              		.loc 1 252 25 is_stmt 0 view .LVU731
 2860 00c8 4FF47F43 		mov	r3, #65280
 2861 00cc 0382     		strh	r3, [r0, #16]	@ movhi
ARM GAS  /var/folders/2p/02m_5p7958535cp2tpgps0400000gn/T//ccFNlQE7.s 			page 71


 2862 00ce A2E7     		b	.L185
 2863              	.L183:
 256:UIManager.cpp ****     if (pulse_brightness_ <= PULSE_STEP){
 2864              		.loc 1 256 5 is_stmt 1 view .LVU732
 256:UIManager.cpp ****     if (pulse_brightness_ <= PULSE_STEP){
 2865              		.loc 1 256 23 is_stmt 0 view .LVU733
 2866 00d0 437C     		ldrb	r3, [r0, #17]	@ zero_extendqisi2
 2867 00d2 053B     		subs	r3, r3, #5
 2868 00d4 DBB2     		uxtb	r3, r3
 257:UIManager.cpp ****       pulse_count_++;
 2869              		.loc 1 257 5 view .LVU734
 2870 00d6 052B     		cmp	r3, #5
 256:UIManager.cpp ****     if (pulse_brightness_ <= PULSE_STEP){
 2871              		.loc 1 256 23 view .LVU735
 2872 00d8 4374     		strb	r3, [r0, #17]
 257:UIManager.cpp ****       pulse_count_++;
 2873              		.loc 1 257 5 is_stmt 1 view .LVU736
 2874 00da 9CD8     		bhi	.L185
 258:UIManager.cpp ****       pulse_brightness_ = 0;
 2875              		.loc 1 258 7 view .LVU737
 258:UIManager.cpp ****       pulse_brightness_ = 0;
 2876              		.loc 1 258 19 is_stmt 0 view .LVU738
 2877 00dc 837C     		ldrb	r3, [r0, #18]	@ zero_extendqisi2
 260:UIManager.cpp ****     }
 2878              		.loc 1 260 25 view .LVU739
 2879 00de 0122     		movs	r2, #1
 258:UIManager.cpp ****       pulse_brightness_ = 0;
 2880              		.loc 1 258 19 view .LVU740
 2881 00e0 1344     		add	r3, r3, r2
 260:UIManager.cpp ****     }
 2882              		.loc 1 260 25 view .LVU741
 2883 00e2 0282     		strh	r2, [r0, #16]	@ movhi
 258:UIManager.cpp ****       pulse_brightness_ = 0;
 2884              		.loc 1 258 19 view .LVU742
 2885 00e4 8374     		strb	r3, [r0, #18]
 259:UIManager.cpp ****       pulse_increasing_ = true;
 2886              		.loc 1 259 7 is_stmt 1 view .LVU743
 260:UIManager.cpp ****     }
 2887              		.loc 1 260 7 view .LVU744
 2888 00e6 96E7     		b	.L185
 2889              	.LVL209:
 2890              	.L193:
 283:UIManager.cpp ****         SetLedSynthMode();
 2891              		.loc 1 283 9 view .LVU745
 2892              	.LBB370:
 2893              	.LBI370:
 338:UIManager.cpp ****   timer_.Stop();
 2894              		.loc 1 338 6 view .LVU746
 2895              	.LBB371:
 339:UIManager.cpp **** }
 2896              		.loc 1 339 3 view .LVU747
 339:UIManager.cpp **** }
 2897              		.loc 1 339 14 is_stmt 0 view .LVU748
 2898 00e8 04F10C00 		add	r0, r4, #12
 2899 00ec FFF7FEFF 		bl	_ZN5daisy11TimerHandle4StopEv
 2900              	.LVL210:
 339:UIManager.cpp **** }
ARM GAS  /var/folders/2p/02m_5p7958535cp2tpgps0400000gn/T//ccFNlQE7.s 			page 72


 2901              		.loc 1 339 14 view .LVU749
 2902              	.LBE371:
 2903              	.LBE370:
 284:UIManager.cpp ****       }
 2904              		.loc 1 284 9 is_stmt 1 view .LVU750
 284:UIManager.cpp ****       }
 2905              		.loc 1 284 24 is_stmt 0 view .LVU751
 2906 00f0 2046     		mov	r0, r4
 288:UIManager.cpp **** 
 2907              		.loc 1 288 1 view .LVU752
 2908 00f2 BDE81040 		pop	{r4, lr}
 2909              		.cfi_remember_state
 2910              		.cfi_restore 14
 2911              		.cfi_restore 4
 2912              		.cfi_def_cfa_offset 0
 2913              	.LVL211:
 284:UIManager.cpp ****       }
 2914              		.loc 1 284 24 view .LVU753
 2915 00f6 FFF7FEBF 		b	_ZN9UIManager15SetLedSynthModeEv
 2916              	.LVL212:
 2917              	.L182:
 2918              		.cfi_restore_state
 288:UIManager.cpp **** 
 2919              		.loc 1 288 1 view .LVU754
 2920 00fa 10BD     		pop	{r4, pc}
 2921              	.L196:
 2922              		.align	2
 2923              	.L195:
 2924 00fc 00000000 		.word	0
 2925              		.cfi_endproc
 2926              	.LFE2594:
 2928              		.section	.text._ZL17StaticLedCallbackPv,"ax",%progbits
 2929              		.align	1
 2930              		.p2align 2,,3
 2931              		.syntax unified
 2932              		.thumb
 2933              		.thumb_func
 2935              	_ZL17StaticLedCallbackPv:
 2936              	.LVL213:
 2937              	.LFB2592:
 221:UIManager.cpp ****   UIManager* instance = static_cast<UIManager*>(data);
 2938              		.loc 1 221 43 is_stmt 1 view -0
 2939              		.cfi_startproc
 2940              		@ args = 0, pretend = 0, frame = 0
 2941              		@ frame_needed = 0, uses_anonymous_args = 0
 2942              		@ link register save eliminated.
 222:UIManager.cpp ****   instance->LedPulseCallback();
 2943              		.loc 1 222 3 view .LVU756
 223:UIManager.cpp **** }
 2944              		.loc 1 223 3 view .LVU757
 223:UIManager.cpp **** }
 2945              		.loc 1 223 29 is_stmt 0 view .LVU758
 2946 0000 FFF7FEBF 		b	_ZN9UIManager16LedPulseCallbackEv
 2947              	.LVL214:
 223:UIManager.cpp **** }
 2948              		.loc 1 223 29 view .LVU759
 2949              		.cfi_endproc
ARM GAS  /var/folders/2p/02m_5p7958535cp2tpgps0400000gn/T//ccFNlQE7.s 			page 73


 2950              	.LFE2592:
 2952              		.text
 2953              	.Letext0:
 2954              		.file 5 "/Library/DaisyToolchain/0.2.0/arm/arm-none-eabi/include/machine/_default_types.h"
 2955              		.file 6 "/Library/DaisyToolchain/0.2.0/arm/arm-none-eabi/include/sys/_stdint.h"
 2956              		.file 7 "/Library/DaisyToolchain/0.2.0/arm/arm-none-eabi/include/stdint.h"
 2957              		.file 8 "/Library/DaisyToolchain/0.2.0/arm/lib/gcc/arm-none-eabi/10.3.1/include/stddef.h"
 2958              		.file 9 "/Library/DaisyToolchain/0.2.0/arm/arm-none-eabi/include/c++/10.3.1/cmath"
 2959              		.file 10 "/Library/DaisyToolchain/0.2.0/arm/arm-none-eabi/include/c++/10.3.1/bits/std_abs.h"
 2960              		.file 11 "/Library/DaisyToolchain/0.2.0/arm/arm-none-eabi/include/c++/10.3.1/cstdlib"
 2961              		.file 12 "/Library/DaisyToolchain/0.2.0/arm/arm-none-eabi/include/c++/10.3.1/cstdint"
 2962              		.file 13 "/Library/DaisyToolchain/0.2.0/arm/arm-none-eabi/include/c++/10.3.1/arm-none-eabi/thumb/v
 2963              		.file 14 "/Library/DaisyToolchain/0.2.0/arm/arm-none-eabi/include/c++/10.3.1/type_traits"
 2964              		.file 15 "/Library/DaisyToolchain/0.2.0/arm/arm-none-eabi/include/c++/10.3.1/debug/debug.h"
 2965              		.file 16 "/Library/DaisyToolchain/0.2.0/arm/arm-none-eabi/include/c++/10.3.1/bits/algorithmfwd.h"
 2966              		.file 17 "/Library/DaisyToolchain/0.2.0/arm/arm-none-eabi/include/c++/10.3.1/bits/stl_pair.h"
 2967              		.file 18 "/Library/DaisyToolchain/0.2.0/arm/arm-none-eabi/include/c++/10.3.1/bits/exception_ptr.h"
 2968              		.file 19 "/Library/DaisyToolchain/0.2.0/arm/arm-none-eabi/include/c++/10.3.1/initializer_list"
 2969              		.file 20 "/Library/DaisyToolchain/0.2.0/arm/arm-none-eabi/include/c++/10.3.1/cstdarg"
 2970              		.file 21 "/Library/DaisyToolchain/0.2.0/arm/arm-none-eabi/include/c++/10.3.1/cstdio"
 2971              		.file 22 "/Library/DaisyToolchain/0.2.0/arm/arm-none-eabi/include/c++/10.3.1/cstring"
 2972              		.file 23 "/Library/DaisyToolchain/0.2.0/arm/arm-none-eabi/include/c++/10.3.1/bits/predefined_ops.h
 2973              		.file 24 "/Library/DaisyToolchain/0.2.0/arm/arm-none-eabi/include/sys/_types.h"
 2974              		.file 25 "/Library/DaisyToolchain/0.2.0/arm/arm-none-eabi/include/sys/reent.h"
 2975              		.file 26 "/Library/DaisyToolchain/0.2.0/arm/arm-none-eabi/include/sys/lock.h"
 2976              		.file 27 "/Library/DaisyToolchain/0.2.0/arm/arm-none-eabi/include/math.h"
 2977              		.file 28 "/Library/DaisyToolchain/0.2.0/arm/arm-none-eabi/include/stdlib.h"
 2978              		.file 29 "/Library/DaisyToolchain/0.2.0/arm/arm-none-eabi/include/c++/10.3.1/math.h"
 2979              		.file 30 "/Library/DaisyToolchain/0.2.0/arm/arm-none-eabi/include/c++/10.3.1/stdlib.h"
 2980              		.file 31 "../libDaisy/src/daisy_core.h"
 2981              		.file 32 "../libDaisy/src/sys/system.h"
 2982              		.file 33 "../libDaisy/src/per/qspi.h"
 2983              		.file 34 "../libDaisy/src/per/dac.h"
 2984              		.file 35 "../libDaisy/src/per/sai.h"
 2985              		.file 36 "../libDaisy/src/hid/audio.h"
 2986              		.file 37 "../libDaisy/src/per/adc.h"
 2987              		.file 38 "../libDaisy/src/per/uart.h"
 2988              		.file 39 "../libDaisy/src/hid/MidiEvent.h"
 2989              		.file 40 "../libDaisy/src/hid/midi_parser.h"
 2990              		.file 41 "../libDaisy/src/hid/usb.h"
 2991              		.file 42 "../libDaisy/src/hid/midi.h"
 2992              		.file 43 "../libDaisy/src/util/FIFO.h"
 2993              		.file 44 "../libDaisy/src/hid/ctrl.h"
 2994              		.file 45 "../libDaisy/src/util/wav_format.h"
 2995              		.file 46 "../libDaisy/src/hid/led.h"
 2996              		.file 47 "../libDaisy/src/util/color.h"
 2997              		.file 48 "../libDaisy/src/hid/rgb_led.h"
 2998              		.file 49 "../libDaisy/src/dev/max11300.h"
 2999              		.file 50 "../libDaisy/src/daisy_seed.h"
 3000              		.file 51 "../libDaisy/src/daisy_pod.h"
 3001              		.file 52 "../libDaisy/src/per/gpio.h"
 3002              		.file 53 "../libDaisy/src/dev/sdram.h"
 3003              		.file 54 "/Library/DaisyToolchain/0.2.0/arm/lib/gcc/arm-none-eabi/10.3.1/include/stdarg.h"
 3004              		.file 55 "/Library/DaisyToolchain/0.2.0/arm/arm-none-eabi/include/stdio.h"
 3005              		.file 56 "/Library/DaisyToolchain/0.2.0/arm/arm-none-eabi/include/string.h"
 3006              		.file 57 "AppState.h"
 3007              		.file 58 "../libDaisy/src/dev/sr_595.h"
ARM GAS  /var/folders/2p/02m_5p7958535cp2tpgps0400000gn/T//ccFNlQE7.s 			page 74


 3008              		.file 59 "constants.h"
 3009              		.file 60 "UIManager.h"
 3010              		.file 61 "<built-in>"
ARM GAS  /var/folders/2p/02m_5p7958535cp2tpgps0400000gn/T//ccFNlQE7.s 			page 75


DEFINED SYMBOLS
                            *ABS*:0000000000000000 UIManager.cpp
/var/folders/2p/02m_5p7958535cp2tpgps0400000gn/T//ccFNlQE7.s:19     .text._ZN9UIManager11UpdateKnobsEv.part.0:0000000000000000 $t
/var/folders/2p/02m_5p7958535cp2tpgps0400000gn/T//ccFNlQE7.s:25     .text._ZN9UIManager11UpdateKnobsEv.part.0:0000000000000000 _ZN9UIManager11UpdateKnobsEv.part.0
/var/folders/2p/02m_5p7958535cp2tpgps0400000gn/T//ccFNlQE7.s:257    .text._ZN9UIManager11UpdateKnobsEv.part.0:00000000000000c8 $d
/var/folders/2p/02m_5p7958535cp2tpgps0400000gn/T//ccFNlQE7.s:267    .text._ZN9UIManager4InitEv:0000000000000000 $t
/var/folders/2p/02m_5p7958535cp2tpgps0400000gn/T//ccFNlQE7.s:274    .text._ZN9UIManager4InitEv:0000000000000000 _ZN9UIManager4InitEv
/var/folders/2p/02m_5p7958535cp2tpgps0400000gn/T//ccFNlQE7.s:406    .text._ZN9UIManager4InitEv:000000000000004c $d
/var/folders/2p/02m_5p7958535cp2tpgps0400000gn/T//ccFNlQE7.s:2935   .text._ZL17StaticLedCallbackPv:0000000000000000 _ZL17StaticLedCallbackPv
/var/folders/2p/02m_5p7958535cp2tpgps0400000gn/T//ccFNlQE7.s:413    .text._ZN9UIManager11UpdateKnobsEv:0000000000000000 $t
/var/folders/2p/02m_5p7958535cp2tpgps0400000gn/T//ccFNlQE7.s:420    .text._ZN9UIManager11UpdateKnobsEv:0000000000000000 _ZN9UIManager11UpdateKnobsEv
/var/folders/2p/02m_5p7958535cp2tpgps0400000gn/T//ccFNlQE7.s:444    .text._ZN9UIManager13SetStateErrorEv:0000000000000000 $t
/var/folders/2p/02m_5p7958535cp2tpgps0400000gn/T//ccFNlQE7.s:451    .text._ZN9UIManager13SetStateErrorEv:0000000000000000 _ZN9UIManager13SetStateErrorEv
/var/folders/2p/02m_5p7958535cp2tpgps0400000gn/T//ccFNlQE7.s:581    .text._ZN9UIManager13SetStateErrorEv:000000000000006c $d
/var/folders/2p/02m_5p7958535cp2tpgps0400000gn/T//ccFNlQE7.s:587    .text._ZN9UIManager15UpdateSynthModeEv:0000000000000000 $t
/var/folders/2p/02m_5p7958535cp2tpgps0400000gn/T//ccFNlQE7.s:594    .text._ZN9UIManager15UpdateSynthModeEv:0000000000000000 _ZN9UIManager15UpdateSynthModeEv
/var/folders/2p/02m_5p7958535cp2tpgps0400000gn/T//ccFNlQE7.s:608    .text._ZN9UIManager15UpdateSynthModeEv:000000000000000a $d
/var/folders/2p/02m_5p7958535cp2tpgps0400000gn/T//ccFNlQE7.s:654    .text._ZN9UIManager24ToggleRandomnessControlsEv:0000000000000000 $t
/var/folders/2p/02m_5p7958535cp2tpgps0400000gn/T//ccFNlQE7.s:661    .text._ZN9UIManager24ToggleRandomnessControlsEv:0000000000000000 _ZN9UIManager24ToggleRandomnessControlsEv
/var/folders/2p/02m_5p7958535cp2tpgps0400000gn/T//ccFNlQE7.s:675    .text._ZN9UIManager24ToggleRandomnessControlsEv:000000000000000a $d
/var/folders/2p/02m_5p7958535cp2tpgps0400000gn/T//ccFNlQE7.s:681    .text._ZN9UIManager24ToggleRandomnessControlsEv:0000000000000010 $t
/var/folders/2p/02m_5p7958535cp2tpgps0400000gn/T//ccFNlQE7.s:736    .text._ZN9UIManager13GetKnob1ValueEi:0000000000000000 $t
/var/folders/2p/02m_5p7958535cp2tpgps0400000gn/T//ccFNlQE7.s:743    .text._ZN9UIManager13GetKnob1ValueEi:0000000000000000 _ZN9UIManager13GetKnob1ValueEi
/var/folders/2p/02m_5p7958535cp2tpgps0400000gn/T//ccFNlQE7.s:762    .text._ZN9UIManager13GetKnob2ValueEi:0000000000000000 $t
/var/folders/2p/02m_5p7958535cp2tpgps0400000gn/T//ccFNlQE7.s:769    .text._ZN9UIManager13GetKnob2ValueEi:0000000000000000 _ZN9UIManager13GetKnob2ValueEi
/var/folders/2p/02m_5p7958535cp2tpgps0400000gn/T//ccFNlQE7.s:788    .text._ZN9UIManager19GetEncoderIncrementEv:0000000000000000 $t
/var/folders/2p/02m_5p7958535cp2tpgps0400000gn/T//ccFNlQE7.s:795    .text._ZN9UIManager19GetEncoderIncrementEv:0000000000000000 _ZN9UIManager19GetEncoderIncrementEv
/var/folders/2p/02m_5p7958535cp2tpgps0400000gn/T//ccFNlQE7.s:828    .text._ZN9UIManager14EncoderPressedEv:0000000000000000 $t
/var/folders/2p/02m_5p7958535cp2tpgps0400000gn/T//ccFNlQE7.s:835    .text._ZN9UIManager14EncoderPressedEv:0000000000000000 _ZN9UIManager14EncoderPressedEv
/var/folders/2p/02m_5p7958535cp2tpgps0400000gn/T//ccFNlQE7.s:880    .text._ZN9UIManager16EncoderLongPressEv:0000000000000000 $t
/var/folders/2p/02m_5p7958535cp2tpgps0400000gn/T//ccFNlQE7.s:887    .text._ZN9UIManager16EncoderLongPressEv:0000000000000000 _ZN9UIManager16EncoderLongPressEv
/var/folders/2p/02m_5p7958535cp2tpgps0400000gn/T//ccFNlQE7.s:983    .text._ZN9UIManager16EncoderLongPressEv:0000000000000038 $d
/var/folders/2p/02m_5p7958535cp2tpgps0400000gn/T//ccFNlQE7.s:988    .text._ZN9UIManager14Button1PressedEv:0000000000000000 $t
/var/folders/2p/02m_5p7958535cp2tpgps0400000gn/T//ccFNlQE7.s:995    .text._ZN9UIManager14Button1PressedEv:0000000000000000 _ZN9UIManager14Button1PressedEv
/var/folders/2p/02m_5p7958535cp2tpgps0400000gn/T//ccFNlQE7.s:1032   .text._ZN9UIManager14Button2PressedEv:0000000000000000 $t
/var/folders/2p/02m_5p7958535cp2tpgps0400000gn/T//ccFNlQE7.s:1039   .text._ZN9UIManager14Button2PressedEv:0000000000000000 _ZN9UIManager14Button2PressedEv
/var/folders/2p/02m_5p7958535cp2tpgps0400000gn/T//ccFNlQE7.s:1076   .text._ZN9UIManager16Button2LongPressEv:0000000000000000 $t
/var/folders/2p/02m_5p7958535cp2tpgps0400000gn/T//ccFNlQE7.s:1083   .text._ZN9UIManager16Button2LongPressEv:0000000000000000 _ZN9UIManager16Button2LongPressEv
/var/folders/2p/02m_5p7958535cp2tpgps0400000gn/T//ccFNlQE7.s:1168   .text._ZN9UIManager16Button2LongPressEv:0000000000000038 $d
/var/folders/2p/02m_5p7958535cp2tpgps0400000gn/T//ccFNlQE7.s:1173   .text._ZN9UIManager15MapKnobDeadzoneEf:0000000000000000 $t
/var/folders/2p/02m_5p7958535cp2tpgps0400000gn/T//ccFNlQE7.s:1180   .text._ZN9UIManager15MapKnobDeadzoneEf:0000000000000000 _ZN9UIManager15MapKnobDeadzoneEf
/var/folders/2p/02m_5p7958535cp2tpgps0400000gn/T//ccFNlQE7.s:1213   .text._ZN9UIManager15MapKnobDeadzoneEf:000000000000002c $d
/var/folders/2p/02m_5p7958535cp2tpgps0400000gn/T//ccFNlQE7.s:1220   .text._ZN9UIManager18UpdateKnobPassThruEfPfPb:0000000000000000 $t
/var/folders/2p/02m_5p7958535cp2tpgps0400000gn/T//ccFNlQE7.s:1227   .text._ZN9UIManager18UpdateKnobPassThruEfPfPb:0000000000000000 _ZN9UIManager18UpdateKnobPassThruEfPfPb
/var/folders/2p/02m_5p7958535cp2tpgps0400000gn/T//ccFNlQE7.s:1278   .text._ZN9UIManager10SetupTimerEv:0000000000000000 $t
/var/folders/2p/02m_5p7958535cp2tpgps0400000gn/T//ccFNlQE7.s:1285   .text._ZN9UIManager10SetupTimerEv:0000000000000000 _ZN9UIManager10SetupTimerEv
/var/folders/2p/02m_5p7958535cp2tpgps0400000gn/T//ccFNlQE7.s:1371   .text._ZN9UIManager10SetupTimerEv:0000000000000040 $d
/var/folders/2p/02m_5p7958535cp2tpgps0400000gn/T//ccFNlQE7.s:1376   .text._ZN9UIManager16SetLedRandomModeEv:0000000000000000 $t
/var/folders/2p/02m_5p7958535cp2tpgps0400000gn/T//ccFNlQE7.s:1383   .text._ZN9UIManager16SetLedRandomModeEv:0000000000000000 _ZN9UIManager16SetLedRandomModeEv
/var/folders/2p/02m_5p7958535cp2tpgps0400000gn/T//ccFNlQE7.s:1499   .text._ZN9UIManager16SetLedRandomModeEv:000000000000004c $d
/var/folders/2p/02m_5p7958535cp2tpgps0400000gn/T//ccFNlQE7.s:1507   .text._ZN9UIManager11UpdateStateEv:0000000000000000 $t
/var/folders/2p/02m_5p7958535cp2tpgps0400000gn/T//ccFNlQE7.s:1514   .text._ZN9UIManager11UpdateStateEv:0000000000000000 _ZN9UIManager11UpdateStateEv
/var/folders/2p/02m_5p7958535cp2tpgps0400000gn/T//ccFNlQE7.s:1752   .text._ZN9UIManager11UpdateStateEv:0000000000000086 $d
/var/folders/2p/02m_5p7958535cp2tpgps0400000gn/T//ccFNlQE7.s:1756   .text._ZN9UIManager11UpdateStateEv:000000000000008a $t
/var/folders/2p/02m_5p7958535cp2tpgps0400000gn/T//ccFNlQE7.s:1773   .text._ZN9UIManager11UpdateStateEv:0000000000000098 $d
/var/folders/2p/02m_5p7958535cp2tpgps0400000gn/T//ccFNlQE7.s:1781   .text._ZN9UIManager11UpdateStateEv:00000000000000b4 $t
/var/folders/2p/02m_5p7958535cp2tpgps0400000gn/T//ccFNlQE7.s:1868   .text._ZN9UIManager11UpdateStateEv:00000000000000f0 $d
ARM GAS  /var/folders/2p/02m_5p7958535cp2tpgps0400000gn/T//ccFNlQE7.s 			page 76


/var/folders/2p/02m_5p7958535cp2tpgps0400000gn/T//ccFNlQE7.s:1875   .text._ZN9UIManager14UpdateControlsEv:0000000000000000 $t
/var/folders/2p/02m_5p7958535cp2tpgps0400000gn/T//ccFNlQE7.s:1882   .text._ZN9UIManager14UpdateControlsEv:0000000000000000 _ZN9UIManager14UpdateControlsEv
/var/folders/2p/02m_5p7958535cp2tpgps0400000gn/T//ccFNlQE7.s:1965   .text._ZN9UIManager13StartLedPulseEv:0000000000000000 $t
/var/folders/2p/02m_5p7958535cp2tpgps0400000gn/T//ccFNlQE7.s:1972   .text._ZN9UIManager13StartLedPulseEv:0000000000000000 _ZN9UIManager13StartLedPulseEv
/var/folders/2p/02m_5p7958535cp2tpgps0400000gn/T//ccFNlQE7.s:2005   .text._ZN9UIManager12StopLedPulseEv:0000000000000000 $t
/var/folders/2p/02m_5p7958535cp2tpgps0400000gn/T//ccFNlQE7.s:2012   .text._ZN9UIManager12StopLedPulseEv:0000000000000000 _ZN9UIManager12StopLedPulseEv
/var/folders/2p/02m_5p7958535cp2tpgps0400000gn/T//ccFNlQE7.s:2032   .text._ZN9UIManager6SetLedEiiib:0000000000000000 $t
/var/folders/2p/02m_5p7958535cp2tpgps0400000gn/T//ccFNlQE7.s:2039   .text._ZN9UIManager6SetLedEiiib:0000000000000000 _ZN9UIManager6SetLedEiiib
/var/folders/2p/02m_5p7958535cp2tpgps0400000gn/T//ccFNlQE7.s:2108   .text._ZN9UIManager8BlinkLedEiiib:0000000000000000 $t
/var/folders/2p/02m_5p7958535cp2tpgps0400000gn/T//ccFNlQE7.s:2115   .text._ZN9UIManager8BlinkLedEiiib:0000000000000000 _ZN9UIManager8BlinkLedEiiib
/var/folders/2p/02m_5p7958535cp2tpgps0400000gn/T//ccFNlQE7.s:2199   .text._ZN9UIManager8BlinkLedEiiib:0000000000000048 $d
/var/folders/2p/02m_5p7958535cp2tpgps0400000gn/T//ccFNlQE7.s:2206   .text._ZN9UIManager11BlinkSetLedEiiib:0000000000000000 $t
/var/folders/2p/02m_5p7958535cp2tpgps0400000gn/T//ccFNlQE7.s:2213   .text._ZN9UIManager11BlinkSetLedEiiib:0000000000000000 _ZN9UIManager11BlinkSetLedEiiib
/var/folders/2p/02m_5p7958535cp2tpgps0400000gn/T//ccFNlQE7.s:2446   .text._ZN9UIManager11BlinkSetLedEiiib:00000000000000e8 $d
/var/folders/2p/02m_5p7958535cp2tpgps0400000gn/T//ccFNlQE7.s:2455   .text._ZN9UIManager15SetLedSynthModeEv:0000000000000000 $t
/var/folders/2p/02m_5p7958535cp2tpgps0400000gn/T//ccFNlQE7.s:2462   .text._ZN9UIManager15SetLedSynthModeEv:0000000000000000 _ZN9UIManager15SetLedSynthModeEv
/var/folders/2p/02m_5p7958535cp2tpgps0400000gn/T//ccFNlQE7.s:2485   .text._ZN9UIManager15SetLedSynthModeEv:0000000000000010 $d
/var/folders/2p/02m_5p7958535cp2tpgps0400000gn/T//ccFNlQE7.s:2601   .text._ZN9UIManager15SetLedSynthModeEv:0000000000000074 $d
/var/folders/2p/02m_5p7958535cp2tpgps0400000gn/T//ccFNlQE7.s:2609   .text._ZN9UIManager16LedPulseCallbackEv:0000000000000000 $t
/var/folders/2p/02m_5p7958535cp2tpgps0400000gn/T//ccFNlQE7.s:2616   .text._ZN9UIManager16LedPulseCallbackEv:0000000000000000 _ZN9UIManager16LedPulseCallbackEv
/var/folders/2p/02m_5p7958535cp2tpgps0400000gn/T//ccFNlQE7.s:2652   .text._ZN9UIManager16LedPulseCallbackEv:0000000000000020 $d
/var/folders/2p/02m_5p7958535cp2tpgps0400000gn/T//ccFNlQE7.s:2924   .text._ZN9UIManager16LedPulseCallbackEv:00000000000000fc $d
/var/folders/2p/02m_5p7958535cp2tpgps0400000gn/T//ccFNlQE7.s:2929   .text._ZL17StaticLedCallbackPv:0000000000000000 $t
/var/folders/2p/02m_5p7958535cp2tpgps0400000gn/T//ccFNlQE7.s:615    .text._ZN9UIManager15UpdateSynthModeEv:0000000000000011 $d
/var/folders/2p/02m_5p7958535cp2tpgps0400000gn/T//ccFNlQE7.s:615    .text._ZN9UIManager15UpdateSynthModeEv:0000000000000012 $t
/var/folders/2p/02m_5p7958535cp2tpgps0400000gn/T//ccFNlQE7.s:2492   .text._ZN9UIManager15SetLedSynthModeEv:0000000000000017 $d
/var/folders/2p/02m_5p7958535cp2tpgps0400000gn/T//ccFNlQE7.s:2492   .text._ZN9UIManager15SetLedSynthModeEv:0000000000000018 $t
/var/folders/2p/02m_5p7958535cp2tpgps0400000gn/T//ccFNlQE7.s:2657   .text._ZN9UIManager16LedPulseCallbackEv:0000000000000025 $d
/var/folders/2p/02m_5p7958535cp2tpgps0400000gn/T//ccFNlQE7.s:2657   .text._ZN9UIManager16LedPulseCallbackEv:0000000000000026 $t

UNDEFINED SYMBOLS
_ZN5daisy13AnalogControl7ProcessEv
_ZN5daisy11TimerHandle4InitERKNS0_6ConfigE
_ZN5daisy11TimerHandle12SetPrescalerEm
_ZN5daisy11TimerHandle11SetCallbackEPFvPvES1_
_ZN5daisy11TimerHandle5StartEv
_ZN5daisy11TimerHandle4StopEv
_ZN5daisy6RgbLed3SetEfff
_ZN5daisy8DaisyPod10UpdateLedsEv
_ZN5daisy6System5DelayEm
_ZN5daisy6System6GetNowEv
_ZN5daisy8DaisyPod22ProcessDigitalControlsEv
_ZN5daisy8DaisyPod9StopAudioEv
